ARM GAS  C:\Users\Petro\AppData\Local\Temp\ccnhjSth.s 			page 1


   1              		.cpu cortex-m0
   2              		.fpu softvfp
   3              		.eabi_attribute 20, 1
   4              		.eabi_attribute 21, 1
   5              		.eabi_attribute 23, 3
   6              		.eabi_attribute 24, 1
   7              		.eabi_attribute 25, 1
   8              		.eabi_attribute 26, 1
   9              		.eabi_attribute 30, 1
  10              		.eabi_attribute 34, 0
  11              		.eabi_attribute 18, 4
  12              		.code	16
  13              		.file	"main.c"
  14              		.text
  15              	.Ltext0:
  16              		.cfi_sections	.debug_frame
  17              		.section	.text.startHandler,"ax",%progbits
  18              		.align	2
  19              		.global	startHandler
  20              		.code	16
  21              		.thumb_func
  22              		.type	startHandler, %function
  23              	startHandler:
  24              	.LFB34:
  25              		.file 1 ".\\main.c"
   1:.\main.c      **** #include <project.h>
   2:.\main.c      **** #include <stdio.h>      //include for sprintf
   3:.\main.c      **** #define MAXSKIER 9     //max number skier
   4:.\main.c      **** 
   5:.\main.c      **** void led_indication(void);
   6:.\main.c      **** void display_indication(void);
   7:.\main.c      **** 
   8:.\main.c      **** typedef enum {false, true} bool;
   9:.\main.c      **** bool startPress = false,cancelPress = false;    //flags for press button
  10:.\main.c      **** uint32_t skier = 0;      //number sportsmen in distance
  11:.\main.c      **** char finish_time[13] = "00.00.00.000";   //hh.mm.ss.uuu\0
  12:.\main.c      **** 
  13:.\main.c      **** 
  14:.\main.c      **** CY_ISR(startHandler)        //interrupt for start button
  15:.\main.c      **** {
  26              		.loc 1 15 0
  27              		.cfi_startproc
  28 0000 10B5     		push	{r4, lr}
  29              		.cfi_def_cfa_offset 8
  30              		.cfi_offset 4, -8
  31              		.cfi_offset 14, -4
  16:.\main.c      ****     if(skier < MAXSKIER){
  32              		.loc 1 16 0
  33 0002 0B4B     		ldr	r3, .L3
  34 0004 1B68     		ldr	r3, [r3]
  35 0006 082B     		cmp	r3, #8
  36 0008 0CD8     		bhi	.L2
  17:.\main.c      ****         skier++;
  37              		.loc 1 17 0
  38 000a 094C     		ldr	r4, .L3
  39 000c 0133     		add	r3, r3, #1
  40 000e 2360     		str	r3, [r4]
ARM GAS  C:\Users\Petro\AppData\Local\Temp\ccnhjSth.s 			page 2


  18:.\main.c      ****         xbee_PutChar('s');      //simbol start
  41              		.loc 1 18 0
  42 0010 7320     		mov	r0, #115
  43 0012 FFF7FEFF 		bl	xbee_PutChar
  44              	.LVL0:
  19:.\main.c      ****         xbee_PutChar(skier+'0');  //number sportsmen   
  45              		.loc 1 19 0
  46 0016 2068     		ldr	r0, [r4]
  47 0018 3030     		add	r0, r0, #48
  48 001a C0B2     		uxtb	r0, r0
  49 001c FFF7FEFF 		bl	xbee_PutChar
  50              	.LVL1:
  20:.\main.c      ****         //test---
  21:.\main.c      ****         //wired_Write(1);
  22:.\main.c      ****         //CyDelay(1);
  23:.\main.c      ****         //wired_Write(0);
  24:.\main.c      ****         //test---
  25:.\main.c      ****         startPress = true;
  51              		.loc 1 25 0
  52 0020 0123     		mov	r3, #1
  53 0022 2371     		strb	r3, [r4, #4]
  54              	.L2:
  26:.\main.c      ****     }
  27:.\main.c      ****     CyDelay(10);
  55              		.loc 1 27 0
  56 0024 0A20     		mov	r0, #10
  57 0026 FFF7FEFF 		bl	CyDelay
  58              	.LVL2:
  28:.\main.c      ****     start_ClearInterrupt(); 
  59              		.loc 1 28 0
  60 002a FFF7FEFF 		bl	start_ClearInterrupt
  61              	.LVL3:
  29:.\main.c      **** }
  62              		.loc 1 29 0
  63              		@ sp needed
  64 002e 10BD     		pop	{r4, pc}
  65              	.L4:
  66              		.align	2
  67              	.L3:
  68 0030 00000000 		.word	.LANCHOR0
  69              		.cfi_endproc
  70              	.LFE34:
  71              		.size	startHandler, .-startHandler
  72              		.section	.text.dataHandler,"ax",%progbits
  73              		.align	2
  74              		.global	dataHandler
  75              		.code	16
  76              		.thumb_func
  77              		.type	dataHandler, %function
  78              	dataHandler:
  79              	.LFB35:
  30:.\main.c      **** 
  31:.\main.c      **** CY_ISR(dataHandler)     //incoming data
  32:.\main.c      **** {
  80              		.loc 1 32 0
  81              		.cfi_startproc
  82 0000 10B5     		push	{r4, lr}
ARM GAS  C:\Users\Petro\AppData\Local\Temp\ccnhjSth.s 			page 3


  83              		.cfi_def_cfa_offset 8
  84              		.cfi_offset 4, -8
  85              		.cfi_offset 14, -4
  33:.\main.c      ****     char c;
  34:.\main.c      ****     static int i = 0;
  35:.\main.c      ****     
  36:.\main.c      ****     c = xbee_GetChar();
  86              		.loc 1 36 0
  87 0002 FFF7FEFF 		bl	xbee_GetChar
  88              	.LVL4:
  89 0006 021C     		mov	r2, r0
  90              	.LVL5:
  37:.\main.c      ****     if((c>='0' && c<='9') || c==':') finish_time[i++] = c;        
  91              		.loc 1 37 0
  92 0008 031C     		mov	r3, r0
  93 000a 303B     		sub	r3, r3, #48
  94 000c DBB2     		uxtb	r3, r3
  95 000e 0A2B     		cmp	r3, #10
  96 0010 05D8     		bhi	.L6
  97              		.loc 1 37 0 is_stmt 0 discriminator 1
  98 0012 0649     		ldr	r1, .L8
  99 0014 8B68     		ldr	r3, [r1, #8]
 100 0016 5C1C     		add	r4, r3, #1
 101 0018 8C60     		str	r4, [r1, #8]
 102 001a 0549     		ldr	r1, .L8+4
 103 001c C854     		strb	r0, [r1, r3]
 104              	.L6:
  38:.\main.c      ****     if(c == '\n')i=0;
 105              		.loc 1 38 0 is_stmt 1
 106 001e 0A2A     		cmp	r2, #10
 107 0020 02D1     		bne	.L5
 108              		.loc 1 38 0 is_stmt 0 discriminator 1
 109 0022 0022     		mov	r2, #0
 110 0024 014B     		ldr	r3, .L8
 111 0026 9A60     		str	r2, [r3, #8]
 112              	.L5:
  39:.\main.c      **** }
 113              		.loc 1 39 0 is_stmt 1
 114              		@ sp needed
 115 0028 10BD     		pop	{r4, pc}
 116              	.L9:
 117 002a C046     		.align	2
 118              	.L8:
 119 002c 00000000 		.word	.LANCHOR0
 120 0030 00000000 		.word	.LANCHOR1
 121              		.cfi_endproc
 122              	.LFE35:
 123              		.size	dataHandler, .-dataHandler
 124              		.section	.text.cancelHandler,"ax",%progbits
 125              		.align	2
 126              		.global	cancelHandler
 127              		.code	16
 128              		.thumb_func
 129              		.type	cancelHandler, %function
 130              	cancelHandler:
 131              	.LFB36:
  40:.\main.c      **** 
ARM GAS  C:\Users\Petro\AppData\Local\Temp\ccnhjSth.s 			page 4


  41:.\main.c      **** CY_ISR(cancelHandler)       //interrupt for cancel button
  42:.\main.c      **** {
 132              		.loc 1 42 0
 133              		.cfi_startproc
 134 0000 10B5     		push	{r4, lr}
 135              		.cfi_def_cfa_offset 8
 136              		.cfi_offset 4, -8
 137              		.cfi_offset 14, -4
  43:.\main.c      ****     if(skier){
 138              		.loc 1 43 0
 139 0002 0C4B     		ldr	r3, .L12
 140 0004 1B68     		ldr	r3, [r3]
 141 0006 002B     		cmp	r3, #0
 142 0008 0DD0     		beq	.L11
  44:.\main.c      ****         xbee_PutString("c");      //simbol cancel
 143              		.loc 1 44 0
 144 000a 0B48     		ldr	r0, .L12+4
 145 000c FFF7FEFF 		bl	xbee_PutString
 146              	.LVL6:
  45:.\main.c      ****         xbee_PutChar(skier+'0');  //number sportsmen
 147              		.loc 1 45 0
 148 0010 084C     		ldr	r4, .L12
 149 0012 2068     		ldr	r0, [r4]
 150 0014 3030     		add	r0, r0, #48
 151 0016 C0B2     		uxtb	r0, r0
 152 0018 FFF7FEFF 		bl	xbee_PutChar
 153              	.LVL7:
  46:.\main.c      ****         skier--;
 154              		.loc 1 46 0
 155 001c 2368     		ldr	r3, [r4]
 156 001e 013B     		sub	r3, r3, #1
 157 0020 2360     		str	r3, [r4]
  47:.\main.c      ****         cancelPress = true;
 158              		.loc 1 47 0
 159 0022 0123     		mov	r3, #1
 160 0024 2373     		strb	r3, [r4, #12]
 161              	.L11:
  48:.\main.c      ****     }
  49:.\main.c      ****     CyDelay(10);
 162              		.loc 1 49 0
 163 0026 0A20     		mov	r0, #10
 164 0028 FFF7FEFF 		bl	CyDelay
 165              	.LVL8:
  50:.\main.c      ****     cancel_ClearInterrupt();
 166              		.loc 1 50 0
 167 002c FFF7FEFF 		bl	cancel_ClearInterrupt
 168              	.LVL9:
  51:.\main.c      **** }
 169              		.loc 1 51 0
 170              		@ sp needed
 171 0030 10BD     		pop	{r4, pc}
 172              	.L13:
 173 0032 C046     		.align	2
 174              	.L12:
 175 0034 00000000 		.word	.LANCHOR0
 176 0038 00000000 		.word	.LC4
 177              		.cfi_endproc
ARM GAS  C:\Users\Petro\AppData\Local\Temp\ccnhjSth.s 			page 5


 178              	.LFE36:
 179              		.size	cancelHandler, .-cancelHandler
 180              		.section	.text.isrHandler,"ax",%progbits
 181              		.align	2
 182              		.global	isrHandler
 183              		.code	16
 184              		.thumb_func
 185              		.type	isrHandler, %function
 186              	isrHandler:
 187              	.LFB37:
  52:.\main.c      **** 
  53:.\main.c      **** CY_ISR(isrHandler)      //interrupt for blink blue led
  54:.\main.c      **** {
 188              		.loc 1 54 0
 189              		.cfi_startproc
 190 0000 08B5     		push	{r3, lr}
 191              		.cfi_def_cfa_offset 8
 192              		.cfi_offset 3, -8
 193              		.cfi_offset 14, -4
  55:.\main.c      ****     led_blue_Write(0);
 194              		.loc 1 55 0
 195 0002 0020     		mov	r0, #0
 196 0004 FFF7FEFF 		bl	led_blue_Write
 197              	.LVL10:
  56:.\main.c      ****     CyDelay(5);
 198              		.loc 1 56 0
 199 0008 0520     		mov	r0, #5
 200 000a FFF7FEFF 		bl	CyDelay
 201              	.LVL11:
  57:.\main.c      ****     timer_ClearInterrupt(timer_INTR_MASK_CC_MATCH);
 202              		.loc 1 57 0
 203 000e 0220     		mov	r0, #2
 204 0010 FFF7FEFF 		bl	timer_ClearInterrupt
 205              	.LVL12:
  58:.\main.c      **** }
 206              		.loc 1 58 0
 207              		@ sp needed
 208 0014 08BD     		pop	{r3, pc}
 209              		.cfi_endproc
 210              	.LFE37:
 211              		.size	isrHandler, .-isrHandler
 212 0016 C046     		.section	.text.led_indication,"ax",%progbits
 213              		.align	2
 214              		.global	led_indication
 215              		.code	16
 216              		.thumb_func
 217              		.type	led_indication, %function
 218              	led_indication:
 219              	.LFB39:
  59:.\main.c      **** 
  60:.\main.c      **** 
  61:.\main.c      **** int main(void)
  62:.\main.c      **** {
  63:.\main.c      ****     CyGlobalIntEnable;    
  64:.\main.c      ****     xbee_Start();                       //start uart for xbee
  65:.\main.c      ****     display_Start();                    //start lcd display
  66:.\main.c      ****         
ARM GAS  C:\Users\Petro\AppData\Local\Temp\ccnhjSth.s 			page 6


  67:.\main.c      ****     isr_StartEx(isrHandler);            //interrupt for blink led
  68:.\main.c      ****     isr_inputData_StartEx(dataHandler); //interrupt for RX data input
  69:.\main.c      ****     int_start_StartEx(startHandler);    //interrupt start button
  70:.\main.c      ****     int_cancel_StartEx(cancelHandler);  //interrupt cancel button
  71:.\main.c      ****     
  72:.\main.c      ****     
  73:.\main.c      ****     while(1)
  74:.\main.c      ****     {  
  75:.\main.c      ****         led_indication();
  76:.\main.c      ****         display_indication();
  77:.\main.c      ****     }
  78:.\main.c      **** }
  79:.\main.c      **** 
  80:.\main.c      **** 
  81:.\main.c      **** void led_indication()
  82:.\main.c      **** {
 220              		.loc 1 82 0
 221              		.cfi_startproc
 222 0000 10B5     		push	{r4, lr}
 223              		.cfi_def_cfa_offset 8
 224              		.cfi_offset 4, -8
 225              		.cfi_offset 14, -4
  83:.\main.c      ****     int i;
  84:.\main.c      ****     
  85:.\main.c      ****     if(skier)timer_Start();   //start blinc led if number spotrsmen >0
 226              		.loc 1 85 0
 227 0002 1E4B     		ldr	r3, .L26
 228 0004 1B68     		ldr	r3, [r3]
 229 0006 002B     		cmp	r3, #0
 230 0008 02D0     		beq	.L16
 231              		.loc 1 85 0 is_stmt 0 discriminator 1
 232 000a FFF7FEFF 		bl	timer_Start
 233              	.LVL13:
 234 000e 01E0     		b	.L17
 235              	.L16:
  86:.\main.c      ****     else timer_Stop();
 236              		.loc 1 86 0 is_stmt 1
 237 0010 FFF7FEFF 		bl	timer_Stop
 238              	.LVL14:
 239              	.L17:
  87:.\main.c      ****     if(startPress)          //func blinc blue led
 240              		.loc 1 87 0
 241 0014 194B     		ldr	r3, .L26
 242 0016 1B79     		ldrb	r3, [r3, #4]
 243 0018 002B     		cmp	r3, #0
 244 001a 0ED1     		bne	.L24
 245 001c 10E0     		b	.L19
 246              	.LVL15:
 247              	.L20:
  88:.\main.c      ****         for(i=0;i<6;i++){
  89:.\main.c      ****             startPress = false;
 248              		.loc 1 89 0 discriminator 3
 249 001e 0022     		mov	r2, #0
 250 0020 164B     		ldr	r3, .L26
 251 0022 1A71     		strb	r2, [r3, #4]
  90:.\main.c      ****             led_blue_Write(~led_blue_Read());
 252              		.loc 1 90 0 discriminator 3
ARM GAS  C:\Users\Petro\AppData\Local\Temp\ccnhjSth.s 			page 7


 253 0024 FFF7FEFF 		bl	led_blue_Read
 254              	.LVL16:
 255 0028 C043     		mvn	r0, r0
 256 002a C0B2     		uxtb	r0, r0
 257 002c FFF7FEFF 		bl	led_blue_Write
 258              	.LVL17:
  91:.\main.c      ****             CyDelay(50);
 259              		.loc 1 91 0 discriminator 3
 260 0030 3220     		mov	r0, #50
 261 0032 FFF7FEFF 		bl	CyDelay
 262              	.LVL18:
  88:.\main.c      ****         for(i=0;i<6;i++){
 263              		.loc 1 88 0 discriminator 3
 264 0036 0134     		add	r4, r4, #1
 265              	.LVL19:
 266 0038 00E0     		b	.L18
 267              	.LVL20:
 268              	.L24:
 269 003a 0024     		mov	r4, #0
 270              	.L18:
 271              	.LVL21:
  88:.\main.c      ****         for(i=0;i<6;i++){
 272              		.loc 1 88 0 is_stmt 0 discriminator 1
 273 003c 052C     		cmp	r4, #5
 274 003e EEDD     		ble	.L20
 275              	.LVL22:
 276              	.L19:
  92:.\main.c      ****         }
  93:.\main.c      ****     if(cancelPress)
 277              		.loc 1 93 0 is_stmt 1
 278 0040 0E4B     		ldr	r3, .L26
 279 0042 1B7B     		ldrb	r3, [r3, #12]
 280 0044 002B     		cmp	r3, #0
 281 0046 11D1     		bne	.L25
 282 0048 13E0     		b	.L22
 283              	.LVL23:
 284              	.L23:
  94:.\main.c      ****         for(i=0;i<10;i++){       //func blinc cancel red led
  95:.\main.c      ****             cancelPress = false;
 285              		.loc 1 95 0 discriminator 3
 286 004a 0022     		mov	r2, #0
 287 004c 0B4B     		ldr	r3, .L26
 288 004e 1A73     		strb	r2, [r3, #12]
  96:.\main.c      ****             led_blue_Write(1);
 289              		.loc 1 96 0 discriminator 3
 290 0050 0120     		mov	r0, #1
 291 0052 FFF7FEFF 		bl	led_blue_Write
 292              	.LVL24:
  97:.\main.c      ****             led_red_Write(~led_red_Read());
 293              		.loc 1 97 0 discriminator 3
 294 0056 FFF7FEFF 		bl	led_red_Read
 295              	.LVL25:
 296 005a C043     		mvn	r0, r0
 297 005c C0B2     		uxtb	r0, r0
 298 005e FFF7FEFF 		bl	led_red_Write
 299              	.LVL26:
  98:.\main.c      ****             CyDelay(50);
ARM GAS  C:\Users\Petro\AppData\Local\Temp\ccnhjSth.s 			page 8


 300              		.loc 1 98 0 discriminator 3
 301 0062 3220     		mov	r0, #50
 302 0064 FFF7FEFF 		bl	CyDelay
 303              	.LVL27:
  94:.\main.c      ****             cancelPress = false;
 304              		.loc 1 94 0 discriminator 3
 305 0068 0134     		add	r4, r4, #1
 306              	.LVL28:
 307 006a 00E0     		b	.L21
 308              	.LVL29:
 309              	.L25:
 310 006c 0024     		mov	r4, #0
 311              	.L21:
 312              	.LVL30:
  94:.\main.c      ****             cancelPress = false;
 313              		.loc 1 94 0 is_stmt 0 discriminator 1
 314 006e 092C     		cmp	r4, #9
 315 0070 EBDD     		ble	.L23
 316              	.LVL31:
 317              	.L22:
  99:.\main.c      ****         }
 100:.\main.c      ****     led_blue_Write(1);   
 318              		.loc 1 100 0 is_stmt 1
 319 0072 0120     		mov	r0, #1
 320 0074 FFF7FEFF 		bl	led_blue_Write
 321              	.LVL32:
 101:.\main.c      **** }
 322              		.loc 1 101 0
 323              		@ sp needed
 324 0078 10BD     		pop	{r4, pc}
 325              	.L27:
 326 007a C046     		.align	2
 327              	.L26:
 328 007c 00000000 		.word	.LANCHOR0
 329              		.cfi_endproc
 330              	.LFE39:
 331              		.size	led_indication, .-led_indication
 332              		.section	.text.display_indication,"ax",%progbits
 333              		.align	2
 334              		.global	display_indication
 335              		.code	16
 336              		.thumb_func
 337              		.type	display_indication, %function
 338              	display_indication:
 339              	.LFB40:
 102:.\main.c      **** 
 103:.\main.c      **** void display_indication()
 104:.\main.c      **** {
 340              		.loc 1 104 0
 341              		.cfi_startproc
 342 0000 30B5     		push	{r4, r5, lr}
 343              		.cfi_def_cfa_offset 12
 344              		.cfi_offset 4, -12
 345              		.cfi_offset 5, -8
 346              		.cfi_offset 14, -4
 347 0002 85B0     		sub	sp, sp, #20
 348              		.cfi_def_cfa_offset 32
ARM GAS  C:\Users\Petro\AppData\Local\Temp\ccnhjSth.s 			page 9


 105:.\main.c      ****     char display_buff[16];      
 106:.\main.c      ****     sprintf(display_buff,"    time     num");
 349              		.loc 1 106 0
 350 0004 0F4B     		ldr	r3, .L29
 351 0006 6A46     		mov	r2, sp
 352 0008 23CB     		ldmia	r3!, {r0, r1, r5}
 353 000a 23C2     		stmia	r2!, {r0, r1, r5}
 354 000c 191C     		mov	r1, r3
 355 000e 1B68     		ldr	r3, [r3]
 356 0010 1360     		str	r3, [r2]
 357 0012 0B79     		ldrb	r3, [r1, #4]
 358 0014 1371     		strb	r3, [r2, #4]
 107:.\main.c      ****     display_Position(0, 0);
 359              		.loc 1 107 0
 360 0016 0020     		mov	r0, #0
 361 0018 0021     		mov	r1, #0
 362 001a FFF7FEFF 		bl	display_Position
 363              	.LVL33:
 108:.\main.c      ****     display_PrintString(display_buff);
 364              		.loc 1 108 0
 365 001e 6846     		mov	r0, sp
 366 0020 FFF7FEFF 		bl	display_PrintString
 367              	.LVL34:
 109:.\main.c      ****     sprintf(display_buff,"%s  %d ",finish_time, skier);
 368              		.loc 1 109 0
 369 0024 084B     		ldr	r3, .L29+4
 370 0026 1B68     		ldr	r3, [r3]
 371 0028 6846     		mov	r0, sp
 372 002a 0849     		ldr	r1, .L29+8
 373 002c 084A     		ldr	r2, .L29+12
 374 002e FFF7FEFF 		bl	sprintf
 375              	.LVL35:
 110:.\main.c      ****     display_Position(1,0);
 376              		.loc 1 110 0
 377 0032 0120     		mov	r0, #1
 378 0034 0021     		mov	r1, #0
 379 0036 FFF7FEFF 		bl	display_Position
 380              	.LVL36:
 111:.\main.c      ****     display_PrintString(display_buff);
 381              		.loc 1 111 0
 382 003a 6846     		mov	r0, sp
 383 003c FFF7FEFF 		bl	display_PrintString
 384              	.LVL37:
 112:.\main.c      **** }...
 385              		.loc 1 112 0
 386 0040 05B0     		add	sp, sp, #20
 387              		@ sp needed
 388 0042 30BD     		pop	{r4, r5, pc}
 389              	.L30:
 390              		.align	2
 391              	.L29:
 392 0044 04000000 		.word	.LC7
 393 0048 00000000 		.word	.LANCHOR0
 394 004c 18000000 		.word	.LC9
 395 0050 00000000 		.word	.LANCHOR1
 396              		.cfi_endproc
 397              	.LFE40:
ARM GAS  C:\Users\Petro\AppData\Local\Temp\ccnhjSth.s 			page 10


 398              		.size	display_indication, .-display_indication
 399              		.section	.text.main,"ax",%progbits
 400              		.align	2
 401              		.global	main
 402              		.code	16
 403              		.thumb_func
 404              		.type	main, %function
 405              	main:
 406              	.LFB38:
  62:.\main.c      **** {
 407              		.loc 1 62 0
 408              		.cfi_startproc
 409 0000 08B5     		push	{r3, lr}
 410              		.cfi_def_cfa_offset 8
 411              		.cfi_offset 3, -8
 412              		.cfi_offset 14, -4
  63:.\main.c      ****     CyGlobalIntEnable;    
 413              		.loc 1 63 0
 414              	@ 63 ".\main.c" 1
 415 0002 62B6     		CPSIE   i
 416              	@ 0 "" 2
  64:.\main.c      ****     xbee_Start();                       //start uart for xbee
 417              		.loc 1 64 0
 418              		.code	16
 419 0004 FFF7FEFF 		bl	xbee_Start
 420              	.LVL38:
  65:.\main.c      ****     display_Start();                    //start lcd display
 421              		.loc 1 65 0
 422 0008 FFF7FEFF 		bl	display_Start
 423              	.LVL39:
  67:.\main.c      ****     isr_StartEx(isrHandler);            //interrupt for blink led
 424              		.loc 1 67 0
 425 000c 0848     		ldr	r0, .L33
 426 000e FFF7FEFF 		bl	isr_StartEx
 427              	.LVL40:
  68:.\main.c      ****     isr_inputData_StartEx(dataHandler); //interrupt for RX data input
 428              		.loc 1 68 0
 429 0012 0848     		ldr	r0, .L33+4
 430 0014 FFF7FEFF 		bl	isr_inputData_StartEx
 431              	.LVL41:
  69:.\main.c      ****     int_start_StartEx(startHandler);    //interrupt start button
 432              		.loc 1 69 0
 433 0018 0748     		ldr	r0, .L33+8
 434 001a FFF7FEFF 		bl	int_start_StartEx
 435              	.LVL42:
  70:.\main.c      ****     int_cancel_StartEx(cancelHandler);  //interrupt cancel button
 436              		.loc 1 70 0
 437 001e 0748     		ldr	r0, .L33+12
 438 0020 FFF7FEFF 		bl	int_cancel_StartEx
 439              	.LVL43:
 440              	.L32:
  75:.\main.c      ****         led_indication();
 441              		.loc 1 75 0 discriminator 1
 442 0024 FFF7FEFF 		bl	led_indication
 443              	.LVL44:
  76:.\main.c      ****         display_indication();
 444              		.loc 1 76 0 discriminator 1
ARM GAS  C:\Users\Petro\AppData\Local\Temp\ccnhjSth.s 			page 11


 445 0028 FFF7FEFF 		bl	display_indication
 446              	.LVL45:
  77:.\main.c      ****     }
 447              		.loc 1 77 0 discriminator 1
 448 002c FAE7     		b	.L32
 449              	.L34:
 450 002e C046     		.align	2
 451              	.L33:
 452 0030 00000000 		.word	isrHandler
 453 0034 00000000 		.word	dataHandler
 454 0038 00000000 		.word	startHandler
 455 003c 00000000 		.word	cancelHandler
 456              		.cfi_endproc
 457              	.LFE38:
 458              		.size	main, .-main
 459              		.global	finish_time
 460              		.global	skier
 461              		.global	cancelPress
 462              		.global	startPress
 463              		.data
 464              		.align	2
 465              		.set	.LANCHOR1,. + 0
 466              		.type	finish_time, %object
 467              		.size	finish_time, 13
 468              	finish_time:
 469 0000 30302E30 		.ascii	"00.00.00.000\000"
 469      302E3030 
 469      2E303030 
 469      00
 470 000d 000000   		.section	.rodata.str1.4,"aMS",%progbits,1
 471              		.align	2
 472              	.LC4:
 473 0000 6300     		.ascii	"c\000"
 474 0002 0000     		.space	2
 475              	.LC7:
 476 0004 20202020 		.ascii	"    time     num\000"
 476      74696D65 
 476      20202020 
 476      206E756D 
 476      00
 477 0015 000000   		.space	3
 478              	.LC9:
 479 0018 25732020 		.ascii	"%s  %d \000"
 479      25642000 
 480              		.bss
 481              		.align	2
 482              		.set	.LANCHOR0,. + 0
 483              		.type	skier, %object
 484              		.size	skier, 4
 485              	skier:
 486 0000 00000000 		.space	4
 487              		.type	startPress, %object
 488              		.size	startPress, 1
 489              	startPress:
 490 0004 00       		.space	1
 491 0005 000000   		.space	3
 492              		.type	i.6156, %object
ARM GAS  C:\Users\Petro\AppData\Local\Temp\ccnhjSth.s 			page 12


 493              		.size	i.6156, 4
 494              	i.6156:
 495 0008 00000000 		.space	4
 496              		.type	cancelPress, %object
 497              		.size	cancelPress, 1
 498              	cancelPress:
 499 000c 00       		.space	1
 500 000d 000000   		.text
 501              	.Letext0:
 502              		.file 2 "c:\\program files (x86)\\cypress\\psoc creator\\3.3\\psoc creator\\import\\gnu\\arm\\4.9.
 503              		.file 3 "c:\\program files (x86)\\cypress\\psoc creator\\3.3\\psoc creator\\import\\gnu\\arm\\4.9.
 504              		.file 4 "Generated_Source\\PSoC4/cytypes.h"
 505              		.file 5 "Generated_Source\\PSoC4/xbee.h"
 506              		.file 6 "Generated_Source\\PSoC4/CyLib.h"
 507              		.file 7 "Generated_Source\\PSoC4/start.h"
 508              		.file 8 "Generated_Source\\PSoC4/cancel.h"
 509              		.file 9 "Generated_Source\\PSoC4/led_blue.h"
 510              		.file 10 "Generated_Source\\PSoC4/timer.h"
 511              		.file 11 "Generated_Source\\PSoC4/led_red.h"
 512              		.file 12 "Generated_Source\\PSoC4/display.h"
 513              		.file 13 "Generated_Source\\PSoC4/isr.h"
 514              		.file 14 "Generated_Source\\PSoC4/isr_inputData.h"
 515              		.file 15 "Generated_Source\\PSoC4/int_start.h"
 516              		.file 16 "c:\\program files (x86)\\cypress\\psoc creator\\3.3\\psoc creator\\import\\gnu\\arm\\4.9
 517              		.file 17 "Generated_Source\\PSoC4/int_cancel.h"