ARM GAS  C:\Users\Petro\AppData\Local\Temp\ccp1DBRt.s 			page 1


   1              		.cpu cortex-m0
   2              		.fpu softvfp
   3              		.eabi_attribute 20, 1
   4              		.eabi_attribute 21, 1
   5              		.eabi_attribute 23, 3
   6              		.eabi_attribute 24, 1
   7              		.eabi_attribute 25, 1
   8              		.eabi_attribute 26, 1
   9              		.eabi_attribute 30, 4
  10              		.eabi_attribute 34, 0
  11              		.eabi_attribute 18, 4
  12              		.code	16
  13              		.file	"SPI.c"
  14              		.text
  15              	.Ltext0:
  16              		.cfi_sections	.debug_frame
  17              		.section	.text.SPI_Init,"ax",%progbits
  18              		.align	1
  19              		.global	SPI_Init
  20              		.code	16
  21              		.thumb_func
  22              		.type	SPI_Init, %function
  23              	SPI_Init:
  24              	.LFB2:
  25              		.file 1 "Generated_Source\\PSoC4\\SPI.c"
   1:Generated_Source\PSoC4/SPI.c **** /* ========================================
   2:Generated_Source\PSoC4/SPI.c ****  *
   3:Generated_Source\PSoC4/SPI.c ****  * File Name: SPI.c
   4:Generated_Source\PSoC4/SPI.c ****  * Version 1.20 
   5:Generated_Source\PSoC4/SPI.c ****  * Copyright ANDREY TKACHOV, 2016
   6:Generated_Source\PSoC4/SPI.c ****  
   7:Generated_Source\PSoC4/SPI.c ****  * Description:
   8:Generated_Source\PSoC4/SPI.c ****  *  This file provides source code for the Software SPI component's API.
   9:Generated_Source\PSoC4/SPI.c **** 
  10:Generated_Source\PSoC4/SPI.c ****  * All Rights Reserved
  11:Generated_Source\PSoC4/SPI.c ****  * UNPUBLISHED, LICENSED SOFTWARE.
  12:Generated_Source\PSoC4/SPI.c ****  *
  13:Generated_Source\PSoC4/SPI.c ****  * CONFIDENTIAL AND PROPRIETARY INFORMATION
  14:Generated_Source\PSoC4/SPI.c ****  * WHICH IS THE PROPERTY OF PERSONAL LICENSE.
  15:Generated_Source\PSoC4/SPI.c ****  *
  16:Generated_Source\PSoC4/SPI.c ****  * ========================================
  17:Generated_Source\PSoC4/SPI.c **** */
  18:Generated_Source\PSoC4/SPI.c **** 
  19:Generated_Source\PSoC4/SPI.c **** #include "SPI_PVT.h"
  20:Generated_Source\PSoC4/SPI.c **** 
  21:Generated_Source\PSoC4/SPI.c **** /*******************************************************************************
  22:Generated_Source\PSoC4/SPI.c **** * Function Name: SPI_Init
  23:Generated_Source\PSoC4/SPI.c **** ********************************************************************************
  24:Generated_Source\PSoC4/SPI.c **** *
  25:Generated_Source\PSoC4/SPI.c **** * Summary:
  26:Generated_Source\PSoC4/SPI.c **** *  Performs initialization required for the components normal work.
  27:Generated_Source\PSoC4/SPI.c **** *  This function initializes the Software SPI hardware module as follows:
  28:Generated_Source\PSoC4/SPI.c **** *        Sets initial state for CS, CLK, MOSI pin
  29:Generated_Source\PSoC4/SPI.c **** *
  30:Generated_Source\PSoC4/SPI.c **** * Parameters:
  31:Generated_Source\PSoC4/SPI.c **** *  None.
  32:Generated_Source\PSoC4/SPI.c **** *
ARM GAS  C:\Users\Petro\AppData\Local\Temp\ccp1DBRt.s 			page 2


  33:Generated_Source\PSoC4/SPI.c **** * Return:
  34:Generated_Source\PSoC4/SPI.c **** *  None.
  35:Generated_Source\PSoC4/SPI.c **** *
  36:Generated_Source\PSoC4/SPI.c **** * Reentrant:
  37:Generated_Source\PSoC4/SPI.c **** *  No.
  38:Generated_Source\PSoC4/SPI.c **** *
  39:Generated_Source\PSoC4/SPI.c **** *******************************************************************************/
  40:Generated_Source\PSoC4/SPI.c **** 
  41:Generated_Source\PSoC4/SPI.c **** void SPI_Init(void) 
  42:Generated_Source\PSoC4/SPI.c **** {
  26              		.loc 1 42 0
  27              		.cfi_startproc
  43:Generated_Source\PSoC4/SPI.c ****    SPI_CS_DR_REG |= SPI_CS;
  28              		.loc 1 43 0
  29 0000 0421     		mov	r1, #4
  30 0002 074A     		ldr	r2, .L2
  44:Generated_Source\PSoC4/SPI.c ****    SPI_SCK_DR_REG &= ((uint8)(~SPI_CLK));
  45:Generated_Source\PSoC4/SPI.c ****    SPI_MOSI_DR_REG &= ((uint8)(~SPI_MOSI));
  46:Generated_Source\PSoC4/SPI.c **** }
  31              		.loc 1 46 0
  32              		@ sp needed
  43:Generated_Source\PSoC4/SPI.c ****    SPI_CS_DR_REG |= SPI_CS;
  33              		.loc 1 43 0
  34 0004 1368     		ldr	r3, [r2]
  35 0006 0B43     		orr	r3, r1
  36 0008 1360     		str	r3, [r2]
  44:Generated_Source\PSoC4/SPI.c ****    SPI_SCK_DR_REG &= ((uint8)(~SPI_CLK));
  37              		.loc 1 44 0
  38 000a FB22     		mov	r2, #251
  39 000c 054B     		ldr	r3, .L2+4
  40 000e 1968     		ldr	r1, [r3]
  41 0010 0A40     		and	r2, r1
  42 0012 1A60     		str	r2, [r3]
  45:Generated_Source\PSoC4/SPI.c **** }
  43              		.loc 1 45 0
  44 0014 EF22     		mov	r2, #239
  45 0016 1968     		ldr	r1, [r3]
  46 0018 0A40     		and	r2, r1
  47 001a 1A60     		str	r2, [r3]
  48              		.loc 1 46 0
  49 001c 7047     		bx	lr
  50              	.L3:
  51 001e C046     		.align	2
  52              	.L2:
  53 0020 00000440 		.word	1074003968
  54 0024 00020440 		.word	1074004480
  55              		.cfi_endproc
  56              	.LFE2:
  57              		.size	SPI_Init, .-SPI_Init
  58              		.section	.text.SPI_ChipSelect,"ax",%progbits
  59              		.align	1
  60              		.global	SPI_ChipSelect
  61              		.code	16
  62              		.thumb_func
  63              		.type	SPI_ChipSelect, %function
  64              	SPI_ChipSelect:
  65              	.LFB3:
ARM GAS  C:\Users\Petro\AppData\Local\Temp\ccp1DBRt.s 			page 3


  47:Generated_Source\PSoC4/SPI.c **** 
  48:Generated_Source\PSoC4/SPI.c **** /*******************************************************************************
  49:Generated_Source\PSoC4/SPI.c **** * Function Name: SPI_ChipSelect
  50:Generated_Source\PSoC4/SPI.c **** ********************************************************************************
  51:Generated_Source\PSoC4/SPI.c **** *
  52:Generated_Source\PSoC4/SPI.c **** * Summary:
  53:Generated_Source\PSoC4/SPI.c **** *  Sets active state on CS pin.
  54:Generated_Source\PSoC4/SPI.c **** *  For this mode active state CS is low.
  55:Generated_Source\PSoC4/SPI.c **** *
  56:Generated_Source\PSoC4/SPI.c **** * Parameters:
  57:Generated_Source\PSoC4/SPI.c **** *  None
  58:Generated_Source\PSoC4/SPI.c **** *
  59:Generated_Source\PSoC4/SPI.c **** * Return:
  60:Generated_Source\PSoC4/SPI.c **** *  None
  61:Generated_Source\PSoC4/SPI.c **** *
  62:Generated_Source\PSoC4/SPI.c **** *******************************************************************************/
  63:Generated_Source\PSoC4/SPI.c **** 
  64:Generated_Source\PSoC4/SPI.c **** void SPI_ChipSelect(void) 
  65:Generated_Source\PSoC4/SPI.c **** {
  66              		.loc 1 65 0
  67              		.cfi_startproc
  66:Generated_Source\PSoC4/SPI.c **** /*    SPI_OUTPORT_DR_REG &= ((uint8)(~SPI_CS));*/
  67:Generated_Source\PSoC4/SPI.c **** }
  68              		.loc 1 67 0
  69              		@ sp needed
  70 0000 7047     		bx	lr
  71              		.cfi_endproc
  72              	.LFE3:
  73              		.size	SPI_ChipSelect, .-SPI_ChipSelect
  74              		.section	.text.SPI_ChipDeselect,"ax",%progbits
  75              		.align	1
  76              		.global	SPI_ChipDeselect
  77              		.code	16
  78              		.thumb_func
  79              		.type	SPI_ChipDeselect, %function
  80              	SPI_ChipDeselect:
  81              	.LFB4:
  68:Generated_Source\PSoC4/SPI.c **** 
  69:Generated_Source\PSoC4/SPI.c **** /*******************************************************************************
  70:Generated_Source\PSoC4/SPI.c **** * Function Name: SPI_ChipDeselect
  71:Generated_Source\PSoC4/SPI.c **** ********************************************************************************
  72:Generated_Source\PSoC4/SPI.c **** *
  73:Generated_Source\PSoC4/SPI.c **** * Summary:
  74:Generated_Source\PSoC4/SPI.c **** *  Sets disable state on CS pin.
  75:Generated_Source\PSoC4/SPI.c **** *  For this mode disable state CS is high.
  76:Generated_Source\PSoC4/SPI.c **** *
  77:Generated_Source\PSoC4/SPI.c **** * Parameters:
  78:Generated_Source\PSoC4/SPI.c **** *  None
  79:Generated_Source\PSoC4/SPI.c **** *
  80:Generated_Source\PSoC4/SPI.c **** * Return:
  81:Generated_Source\PSoC4/SPI.c **** *  None
  82:Generated_Source\PSoC4/SPI.c **** *
  83:Generated_Source\PSoC4/SPI.c **** *******************************************************************************/
  84:Generated_Source\PSoC4/SPI.c **** 
  85:Generated_Source\PSoC4/SPI.c **** void SPI_ChipDeselect(void) 
  86:Generated_Source\PSoC4/SPI.c **** {
  82              		.loc 1 86 0
ARM GAS  C:\Users\Petro\AppData\Local\Temp\ccp1DBRt.s 			page 4


  83              		.cfi_startproc
  87:Generated_Source\PSoC4/SPI.c **** /*    SPI_OUTPORT_DR_REG |= SPI_CS;*/
  88:Generated_Source\PSoC4/SPI.c **** }
  84              		.loc 1 88 0
  85              		@ sp needed
  86 0000 7047     		bx	lr
  87              		.cfi_endproc
  88              	.LFE4:
  89              		.size	SPI_ChipDeselect, .-SPI_ChipDeselect
  90              		.section	.text.SPI_SendByte,"ax",%progbits
  91              		.align	1
  92              		.global	SPI_SendByte
  93              		.code	16
  94              		.thumb_func
  95              		.type	SPI_SendByte, %function
  96              	SPI_SendByte:
  97              	.LFB5:
  89:Generated_Source\PSoC4/SPI.c **** 
  90:Generated_Source\PSoC4/SPI.c **** /*******************************************************************************
  91:Generated_Source\PSoC4/SPI.c **** * Function Name: SPI_SendByte
  92:Generated_Source\PSoC4/SPI.c **** ********************************************************************************
  93:Generated_Source\PSoC4/SPI.c **** *
  94:Generated_Source\PSoC4/SPI.c **** * Summary:
  95:Generated_Source\PSoC4/SPI.c **** *  Sends one byte via Software SPI.
  96:Generated_Source\PSoC4/SPI.c **** *  One byte are transmitted after 8 periods CLK.
  97:Generated_Source\PSoC4/SPI.c **** *
  98:Generated_Source\PSoC4/SPI.c **** * Parameters:
  99:Generated_Source\PSoC4/SPI.c **** *  Byte to be transmitted
 100:Generated_Source\PSoC4/SPI.c **** *
 101:Generated_Source\PSoC4/SPI.c **** * Note:
 102:Generated_Source\PSoC4/SPI.c **** *  CS must be in active(low) state.
 103:Generated_Source\PSoC4/SPI.c **** *
 104:Generated_Source\PSoC4/SPI.c **** * Return:
 105:Generated_Source\PSoC4/SPI.c **** *  None
 106:Generated_Source\PSoC4/SPI.c **** *
 107:Generated_Source\PSoC4/SPI.c **** *******************************************************************************/
 108:Generated_Source\PSoC4/SPI.c **** 
 109:Generated_Source\PSoC4/SPI.c **** void SPI_SendByte(uint8 byte) 
 110:Generated_Source\PSoC4/SPI.c **** {
  98              		.loc 1 110 0
  99              		.cfi_startproc
 100              	.LVL0:
 101 0000 F8B5     		push	{r3, r4, r5, r6, r7, lr}
 102              		.cfi_def_cfa_offset 24
 103              		.cfi_offset 3, -24
 104              		.cfi_offset 4, -20
 105              		.cfi_offset 5, -16
 106              		.cfi_offset 6, -12
 107              		.cfi_offset 7, -8
 108              		.cfi_offset 14, -4
 109              		.loc 1 110 0
 110 0002 061C     		mov	r6, r0
 111              	.LVL1:
 112 0004 0825     		mov	r5, #8
 113              	.LVL2:
 114              	.L9:
 111:Generated_Source\PSoC4/SPI.c ****     uint8 countBites;
ARM GAS  C:\Users\Petro\AppData\Local\Temp\ccp1DBRt.s 			page 5


 112:Generated_Source\PSoC4/SPI.c ****     for (countBites = BITES_ON_ONE_BYTE; countBites > 0; countBites--)
 113:Generated_Source\PSoC4/SPI.c ****     {
 114:Generated_Source\PSoC4/SPI.c ****     
 115:Generated_Source\PSoC4/SPI.c ****         if (byte & MASK_HIGH_BIT)
 115              		.loc 1 115 0
 116 0006 73B2     		sxtb	r3, r6
 117 0008 124C     		ldr	r4, .L12
 118 000a 002B     		cmp	r3, #0
 119 000c 03DA     		bge	.L7
 116:Generated_Source\PSoC4/SPI.c ****         {
 117:Generated_Source\PSoC4/SPI.c ****             SPI_MOSI_DR_REG |= SPI_MOSI;
 120              		.loc 1 117 0
 121 000e 1022     		mov	r2, #16
 122 0010 2368     		ldr	r3, [r4]
 123 0012 1343     		orr	r3, r2
 124 0014 02E0     		b	.L10
 125              	.L7:
 118:Generated_Source\PSoC4/SPI.c ****         }
 119:Generated_Source\PSoC4/SPI.c ****         else
 120:Generated_Source\PSoC4/SPI.c ****         {
 121:Generated_Source\PSoC4/SPI.c ****             SPI_MOSI_DR_REG &= ((uint8)(~SPI_MOSI));
 126              		.loc 1 121 0
 127 0016 EF23     		mov	r3, #239
 128 0018 2268     		ldr	r2, [r4]
 129 001a 1340     		and	r3, r2
 130              	.L10:
 122:Generated_Source\PSoC4/SPI.c ****         }  
 123:Generated_Source\PSoC4/SPI.c ****         SPI_SCK_DR_REG |= SPI_CLK;
 131              		.loc 1 123 0
 132 001c 0422     		mov	r2, #4
 121:Generated_Source\PSoC4/SPI.c ****         }  
 133              		.loc 1 121 0
 134 001e 2360     		str	r3, [r4]
 135              		.loc 1 123 0
 136 0020 2368     		ldr	r3, [r4]
 124:Generated_Source\PSoC4/SPI.c ****         
 125:Generated_Source\PSoC4/SPI.c ****         CyDelayCycles(DELAY_HIGH_STATE);
 137              		.loc 1 125 0
 138 0022 0A20     		mov	r0, #10
 123:Generated_Source\PSoC4/SPI.c ****         
 139              		.loc 1 123 0
 140 0024 1343     		orr	r3, r2
 141 0026 2360     		str	r3, [r4]
 142              		.loc 1 125 0
 143 0028 FFF7FEFF 		bl	CyDelayCycles
 144              	.LVL3:
 126:Generated_Source\PSoC4/SPI.c ****         
 127:Generated_Source\PSoC4/SPI.c ****         SPI_SCK_DR_REG &= ((uint8)(~SPI_CLK));
 145              		.loc 1 127 0
 146 002c FB23     		mov	r3, #251
 147 002e 2268     		ldr	r2, [r4]
 148 0030 013D     		sub	r5, r5, #1
 149              	.LVL4:
 150 0032 1340     		and	r3, r2
 151 0034 2360     		str	r3, [r4]
 128:Generated_Source\PSoC4/SPI.c ****         CyDelayCycles(DELAY_LOW_STATE);      
 152              		.loc 1 128 0
ARM GAS  C:\Users\Petro\AppData\Local\Temp\ccp1DBRt.s 			page 6


 153 0036 0A20     		mov	r0, #10
 129:Generated_Source\PSoC4/SPI.c ****         byte <<=  SHIFT_ONE_BIT;
 154              		.loc 1 129 0
 155 0038 7600     		lsl	r6, r6, #1
 156              	.LVL5:
 157 003a EDB2     		uxtb	r5, r5
 123:Generated_Source\PSoC4/SPI.c ****         
 158              		.loc 1 123 0
 159 003c 054F     		ldr	r7, .L12
 128:Generated_Source\PSoC4/SPI.c ****         CyDelayCycles(DELAY_LOW_STATE);      
 160              		.loc 1 128 0
 161 003e FFF7FEFF 		bl	CyDelayCycles
 162              	.LVL6:
 163              		.loc 1 129 0
 164 0042 F6B2     		uxtb	r6, r6
 165              	.LVL7:
 112:Generated_Source\PSoC4/SPI.c ****     {
 166              		.loc 1 112 0
 167 0044 002D     		cmp	r5, #0
 168 0046 DED1     		bne	.L9
 130:Generated_Source\PSoC4/SPI.c ****     }
 131:Generated_Source\PSoC4/SPI.c ****     
 132:Generated_Source\PSoC4/SPI.c ****     SPI_MOSI_DR_REG &= ((uint8)(~SPI_MOSI));    
 169              		.loc 1 132 0
 170 0048 EF23     		mov	r3, #239
 171 004a 3A68     		ldr	r2, [r7]
 133:Generated_Source\PSoC4/SPI.c **** }
 172              		.loc 1 133 0
 173              		@ sp needed
 132:Generated_Source\PSoC4/SPI.c **** }
 174              		.loc 1 132 0
 175 004c 1340     		and	r3, r2
 176 004e 3B60     		str	r3, [r7]
 177              	.LVL8:
 178              		.loc 1 133 0
 179 0050 F8BD     		pop	{r3, r4, r5, r6, r7, pc}
 180              	.L13:
 181 0052 C046     		.align	2
 182              	.L12:
 183 0054 00020440 		.word	1074004480
 184              		.cfi_endproc
 185              	.LFE5:
 186              		.size	SPI_SendByte, .-SPI_SendByte
 187              		.section	.text.SPI_SendBuff,"ax",%progbits
 188              		.align	1
 189              		.global	SPI_SendBuff
 190              		.code	16
 191              		.thumb_func
 192              		.type	SPI_SendBuff, %function
 193              	SPI_SendBuff:
 194              	.LFB6:
 134:Generated_Source\PSoC4/SPI.c **** 
 135:Generated_Source\PSoC4/SPI.c **** /*******************************************************************************
 136:Generated_Source\PSoC4/SPI.c **** * Function Name: SPI_SendBuff
 137:Generated_Source\PSoC4/SPI.c **** ********************************************************************************
 138:Generated_Source\PSoC4/SPI.c **** *
 139:Generated_Source\PSoC4/SPI.c **** * Summary:
ARM GAS  C:\Users\Petro\AppData\Local\Temp\ccp1DBRt.s 			page 7


 140:Generated_Source\PSoC4/SPI.c **** *  Sends one byte via Software SPI.
 141:Generated_Source\PSoC4/SPI.c **** *  One byte are transmitted after 8 periods CLK.
 142:Generated_Source\PSoC4/SPI.c **** *
 143:Generated_Source\PSoC4/SPI.c **** * Parameters:
 144:Generated_Source\PSoC4/SPI.c **** *  buff: Pointer to buffer who will be transmitted via SPI.
 145:Generated_Source\PSoC4/SPI.c **** *  cnt: Count bytes in buffer for transmit.
 146:Generated_Source\PSoC4/SPI.c **** *
 147:Generated_Source\PSoC4/SPI.c **** * Note:
 148:Generated_Source\PSoC4/SPI.c **** *  CS must be in active(low) state.
 149:Generated_Source\PSoC4/SPI.c **** *  Transmitt no more 65535 bytes. (2^16 - 1)
 150:Generated_Source\PSoC4/SPI.c **** *
 151:Generated_Source\PSoC4/SPI.c **** * Return:
 152:Generated_Source\PSoC4/SPI.c **** *  None
 153:Generated_Source\PSoC4/SPI.c **** *
 154:Generated_Source\PSoC4/SPI.c **** *******************************************************************************/
 155:Generated_Source\PSoC4/SPI.c **** 
 156:Generated_Source\PSoC4/SPI.c **** void SPI_SendBuff(const uint8 buff[], uint16 cnt) 
 157:Generated_Source\PSoC4/SPI.c **** {
 195              		.loc 1 157 0
 196              		.cfi_startproc
 197              	.LVL9:
 198 0000 38B5     		push	{r3, r4, r5, lr}
 199              		.cfi_def_cfa_offset 16
 200              		.cfi_offset 3, -16
 201              		.cfi_offset 4, -12
 202              		.cfi_offset 5, -8
 203              		.cfi_offset 14, -4
 204 0002 041C     		mov	r4, r0
 205 0004 4518     		add	r5, r0, r1
 206              	.LVL10:
 207              	.L15:
 158:Generated_Source\PSoC4/SPI.c ****     uint16_t tmpData;
 159:Generated_Source\PSoC4/SPI.c ****     for (tmpData = 0; tmpData < cnt; tmpData ++)
 208              		.loc 1 159 0 discriminator 1
 209 0006 AC42     		cmp	r4, r5
 210 0008 04D0     		beq	.L17
 160:Generated_Source\PSoC4/SPI.c ****     {
 161:Generated_Source\PSoC4/SPI.c ****         SPI_SendByte(buff[tmpData]);
 211              		.loc 1 161 0 discriminator 3
 212 000a 2078     		ldrb	r0, [r4]
 213 000c FFF7FEFF 		bl	SPI_SendByte
 214              	.LVL11:
 215 0010 0134     		add	r4, r4, #1
 216              	.LVL12:
 217 0012 F8E7     		b	.L15
 218              	.LVL13:
 219              	.L17:
 162:Generated_Source\PSoC4/SPI.c ****     }
 163:Generated_Source\PSoC4/SPI.c **** }
 220              		.loc 1 163 0
 221              		@ sp needed
 222              	.LVL14:
 223 0014 38BD     		pop	{r3, r4, r5, pc}
 224              		.cfi_endproc
 225              	.LFE6:
 226              		.size	SPI_SendBuff, .-SPI_SendBuff
 227              		.section	.text.SPI_RecvByte,"ax",%progbits
ARM GAS  C:\Users\Petro\AppData\Local\Temp\ccp1DBRt.s 			page 8


 228              		.align	1
 229              		.global	SPI_RecvByte
 230              		.code	16
 231              		.thumb_func
 232              		.type	SPI_RecvByte, %function
 233              	SPI_RecvByte:
 234              	.LFB7:
 164:Generated_Source\PSoC4/SPI.c **** 
 165:Generated_Source\PSoC4/SPI.c **** /*******************************************************************************
 166:Generated_Source\PSoC4/SPI.c **** * Function Name: SPI_RecvByte
 167:Generated_Source\PSoC4/SPI.c **** ********************************************************************************
 168:Generated_Source\PSoC4/SPI.c **** *
 169:Generated_Source\PSoC4/SPI.c **** * Summary:
 170:Generated_Source\PSoC4/SPI.c **** *  Recieve one byte via Software SPI.
 171:Generated_Source\PSoC4/SPI.c **** *  One byte are recieved after 8 periods CLK.
 172:Generated_Source\PSoC4/SPI.c **** *
 173:Generated_Source\PSoC4/SPI.c **** * Parameters:
 174:Generated_Source\PSoC4/SPI.c **** *  None.
 175:Generated_Source\PSoC4/SPI.c **** *
 176:Generated_Source\PSoC4/SPI.c **** * Note:
 177:Generated_Source\PSoC4/SPI.c **** *  CS must be in active(low) state.
 178:Generated_Source\PSoC4/SPI.c **** *
 179:Generated_Source\PSoC4/SPI.c **** * Return:
 180:Generated_Source\PSoC4/SPI.c **** *  Recieved byte.
 181:Generated_Source\PSoC4/SPI.c **** *
 182:Generated_Source\PSoC4/SPI.c **** *******************************************************************************/
 183:Generated_Source\PSoC4/SPI.c **** 
 184:Generated_Source\PSoC4/SPI.c **** uint8 SPI_RecvByte(void) 
 185:Generated_Source\PSoC4/SPI.c **** {
 235              		.loc 1 185 0
 236              		.cfi_startproc
 237              	.LVL15:
 238 0000 F8B5     		push	{r3, r4, r5, r6, r7, lr}
 239              		.cfi_def_cfa_offset 24
 240              		.cfi_offset 3, -24
 241              		.cfi_offset 4, -20
 242              		.cfi_offset 5, -16
 243              		.cfi_offset 6, -12
 244              		.cfi_offset 7, -8
 245              		.cfi_offset 14, -4
 246              		.loc 1 185 0
 247 0002 0826     		mov	r6, #8
 186:Generated_Source\PSoC4/SPI.c ****     uint32_t countBites;
 187:Generated_Source\PSoC4/SPI.c ****     uint32_t tmpBuff = 0;
 248              		.loc 1 187 0
 249 0004 0024     		mov	r4, #0
 250              	.LVL16:
 251              	.L20:
 188:Generated_Source\PSoC4/SPI.c ****     uint8 tmpPin;
 189:Generated_Source\PSoC4/SPI.c ****     for (countBites = BITES_ON_ONE_BYTE; countBites > 0; countBites--)
 190:Generated_Source\PSoC4/SPI.c ****     {
 191:Generated_Source\PSoC4/SPI.c ****         SPI_MOSI_DR_REG |= SPI_MOSI;
 252              		.loc 1 191 0
 253 0006 1022     		mov	r2, #16
 254 0008 124D     		ldr	r5, .L21
 255 000a 2B68     		ldr	r3, [r5]
 256 000c 1343     		orr	r3, r2
ARM GAS  C:\Users\Petro\AppData\Local\Temp\ccp1DBRt.s 			page 9


 257 000e 2B60     		str	r3, [r5]
 192:Generated_Source\PSoC4/SPI.c ****         SPI_SCK_DR_REG |= SPI_CLK;
 258              		.loc 1 192 0
 259 0010 2B68     		ldr	r3, [r5]
 260 0012 0C3A     		sub	r2, r2, #12
 261 0014 1343     		orr	r3, r2
 262 0016 2B60     		str	r3, [r5]
 193:Generated_Source\PSoC4/SPI.c ****         tmpPin = (uint8)((SPI_MISO_PS_REG & SPI_MISO_MASK) >> SPI_MISO_SHIFT);
 263              		.loc 1 193 0
 264 0018 0F4B     		ldr	r3, .L21+4
 265 001a 1B68     		ldr	r3, [r3]
 266              	.LVL17:
 267 001c 9B07     		lsl	r3, r3, #30
 268              	.LVL18:
 269 001e DB0F     		lsr	r3, r3, #31
 194:Generated_Source\PSoC4/SPI.c ****         if (tmpPin == 1u)
 270              		.loc 1 194 0
 271 0020 012B     		cmp	r3, #1
 272 0022 00D1     		bne	.L19
 195:Generated_Source\PSoC4/SPI.c ****         {
 196:Generated_Source\PSoC4/SPI.c ****             tmpBuff |= MASK_LOW_BIT;
 273              		.loc 1 196 0
 274 0024 1C43     		orr	r4, r3
 275              	.LVL19:
 276              	.L19:
 197:Generated_Source\PSoC4/SPI.c ****         }
 198:Generated_Source\PSoC4/SPI.c ****         CyDelayCycles(DELAY_HIGH_STATE);
 277              		.loc 1 198 0 discriminator 2
 278 0026 0A20     		mov	r0, #10
 279 0028 FFF7FEFF 		bl	CyDelayCycles
 280              	.LVL20:
 199:Generated_Source\PSoC4/SPI.c ****         
 200:Generated_Source\PSoC4/SPI.c ****         SPI_SCK_DR_REG &= ((uint8)(~SPI_CLK));
 281              		.loc 1 200 0 discriminator 2
 282 002c FB23     		mov	r3, #251
 283 002e 2A68     		ldr	r2, [r5]
 201:Generated_Source\PSoC4/SPI.c ****         
 202:Generated_Source\PSoC4/SPI.c ****         CyDelayCycles(DELAY_LOW_STATE);
 284              		.loc 1 202 0 discriminator 2
 285 0030 0A20     		mov	r0, #10
 200:Generated_Source\PSoC4/SPI.c ****         
 286              		.loc 1 200 0 discriminator 2
 287 0032 1340     		and	r3, r2
 288 0034 2B60     		str	r3, [r5]
 289 0036 013E     		sub	r6, r6, #1
 290              	.LVL21:
 291 0038 064F     		ldr	r7, .L21
 292              		.loc 1 202 0 discriminator 2
 293 003a FFF7FEFF 		bl	CyDelayCycles
 294              	.LVL22:
 203:Generated_Source\PSoC4/SPI.c ****         
 204:Generated_Source\PSoC4/SPI.c ****         tmpBuff <<= SHIFT_ONE_BIT;
 295              		.loc 1 204 0 discriminator 2
 296 003e 6400     		lsl	r4, r4, #1
 297              	.LVL23:
 189:Generated_Source\PSoC4/SPI.c ****     {
 298              		.loc 1 189 0 discriminator 2
ARM GAS  C:\Users\Petro\AppData\Local\Temp\ccp1DBRt.s 			page 10


 299 0040 002E     		cmp	r6, #0
 300 0042 E0D1     		bne	.L20
 301              	.LVL24:
 205:Generated_Source\PSoC4/SPI.c ****     }
 206:Generated_Source\PSoC4/SPI.c ****     tmpBuff >>= SHIFT_ONE_BIT;
 207:Generated_Source\PSoC4/SPI.c ****     
 208:Generated_Source\PSoC4/SPI.c ****     SPI_MOSI_DR_REG &= ((uint8)(~SPI_MOSI));
 302              		.loc 1 208 0
 303 0044 EF23     		mov	r3, #239
 304 0046 3A68     		ldr	r2, [r7]
 206:Generated_Source\PSoC4/SPI.c ****     
 305              		.loc 1 206 0
 306 0048 6408     		lsr	r4, r4, #1
 307              	.LVL25:
 308              		.loc 1 208 0
 309 004a 1340     		and	r3, r2
 310 004c 3B60     		str	r3, [r7]
 209:Generated_Source\PSoC4/SPI.c ****     
 210:Generated_Source\PSoC4/SPI.c ****     return (uint8_t)tmpBuff;
 311              		.loc 1 210 0
 312 004e E0B2     		uxtb	r0, r4
 211:Generated_Source\PSoC4/SPI.c **** }
 313              		.loc 1 211 0
 314              		@ sp needed
 315              	.LVL26:
 316 0050 F8BD     		pop	{r3, r4, r5, r6, r7, pc}
 317              	.L22:
 318 0052 C046     		.align	2
 319              	.L21:
 320 0054 00020440 		.word	1074004480
 321 0058 04020440 		.word	1074004484
 322              		.cfi_endproc
 323              	.LFE7:
 324              		.size	SPI_RecvByte, .-SPI_RecvByte
 325              		.section	.text.SPI_RecvBuff,"ax",%progbits
 326              		.align	1
 327              		.global	SPI_RecvBuff
 328              		.code	16
 329              		.thumb_func
 330              		.type	SPI_RecvBuff, %function
 331              	SPI_RecvBuff:
 332              	.LFB8:
 212:Generated_Source\PSoC4/SPI.c **** 
 213:Generated_Source\PSoC4/SPI.c **** /*******************************************************************************
 214:Generated_Source\PSoC4/SPI.c **** * Function Name: SPI_RecvBuff
 215:Generated_Source\PSoC4/SPI.c **** ********************************************************************************
 216:Generated_Source\PSoC4/SPI.c **** *
 217:Generated_Source\PSoC4/SPI.c **** * Summary:
 218:Generated_Source\PSoC4/SPI.c **** *  Recieve few or more bytes via SPI.
 219:Generated_Source\PSoC4/SPI.c **** *
 220:Generated_Source\PSoC4/SPI.c **** * Parameters:
 221:Generated_Source\PSoC4/SPI.c **** *  buff: Pointer to buffer who will be recieved via SPI.
 222:Generated_Source\PSoC4/SPI.c **** *  cnt: Count bytes in buffer for recieve.
 223:Generated_Source\PSoC4/SPI.c **** *
 224:Generated_Source\PSoC4/SPI.c **** * Note:
 225:Generated_Source\PSoC4/SPI.c **** *  CS must be in active(low) state.
 226:Generated_Source\PSoC4/SPI.c **** *  Recieve no more 65535 bytes. (2^16 - 1)
ARM GAS  C:\Users\Petro\AppData\Local\Temp\ccp1DBRt.s 			page 11


 227:Generated_Source\PSoC4/SPI.c **** *
 228:Generated_Source\PSoC4/SPI.c **** * Return:
 229:Generated_Source\PSoC4/SPI.c **** *  None
 230:Generated_Source\PSoC4/SPI.c **** *
 231:Generated_Source\PSoC4/SPI.c **** *******************************************************************************/
 232:Generated_Source\PSoC4/SPI.c **** 
 233:Generated_Source\PSoC4/SPI.c **** 
 234:Generated_Source\PSoC4/SPI.c **** void SPI_RecvBuff(uint8 *buff, uint16 cnt) 
 235:Generated_Source\PSoC4/SPI.c **** {
 333              		.loc 1 235 0
 334              		.cfi_startproc
 335              	.LVL27:
 336 0000 38B5     		push	{r3, r4, r5, lr}
 337              		.cfi_def_cfa_offset 16
 338              		.cfi_offset 3, -16
 339              		.cfi_offset 4, -12
 340              		.cfi_offset 5, -8
 341              		.cfi_offset 14, -4
 342 0002 041C     		mov	r4, r0
 343 0004 4518     		add	r5, r0, r1
 344              	.LVL28:
 345              	.L24:
 236:Generated_Source\PSoC4/SPI.c ****     uint16_t tmpData;
 237:Generated_Source\PSoC4/SPI.c ****     for (tmpData = 0; tmpData < cnt; tmpData ++)
 346              		.loc 1 237 0 discriminator 1
 347 0006 AC42     		cmp	r4, r5
 348 0008 04D0     		beq	.L26
 238:Generated_Source\PSoC4/SPI.c ****     {
 239:Generated_Source\PSoC4/SPI.c ****         buff[tmpData] = SPI_RecvByte(); 
 349              		.loc 1 239 0 discriminator 3
 350 000a FFF7FEFF 		bl	SPI_RecvByte
 351              	.LVL29:
 352 000e 2070     		strb	r0, [r4]
 353              	.LVL30:
 354 0010 0134     		add	r4, r4, #1
 355              	.LVL31:
 356 0012 F8E7     		b	.L24
 357              	.LVL32:
 358              	.L26:
 240:Generated_Source\PSoC4/SPI.c ****     }
 241:Generated_Source\PSoC4/SPI.c **** }
 359              		.loc 1 241 0
 360              		@ sp needed
 361              	.LVL33:
 362 0014 38BD     		pop	{r3, r4, r5, pc}
 363              		.cfi_endproc
 364              	.LFE8:
 365              		.size	SPI_RecvBuff, .-SPI_RecvBuff
 366              		.section	.text.SPI_ReadAndWriteByte,"ax",%progbits
 367              		.align	1
 368              		.global	SPI_ReadAndWriteByte
 369              		.code	16
 370              		.thumb_func
 371              		.type	SPI_ReadAndWriteByte, %function
 372              	SPI_ReadAndWriteByte:
 373              	.LFB9:
 242:Generated_Source\PSoC4/SPI.c **** 
ARM GAS  C:\Users\Petro\AppData\Local\Temp\ccp1DBRt.s 			page 12


 243:Generated_Source\PSoC4/SPI.c **** /*******************************************************************************
 244:Generated_Source\PSoC4/SPI.c **** * Function Name: SPI_ReadAndWriteByte
 245:Generated_Source\PSoC4/SPI.c **** ********************************************************************************
 246:Generated_Source\PSoC4/SPI.c **** *
 247:Generated_Source\PSoC4/SPI.c **** * Summary:
 248:Generated_Source\PSoC4/SPI.c **** *  Recieve and Transmitt one bytes via SPI in 8 CLK Periods.
 249:Generated_Source\PSoC4/SPI.c **** *  (One SPI Perios).
 250:Generated_Source\PSoC4/SPI.c **** *
 251:Generated_Source\PSoC4/SPI.c **** * Parameters:
 252:Generated_Source\PSoC4/SPI.c **** *  byte: Byte who will be transmitted via SPI.
 253:Generated_Source\PSoC4/SPI.c **** *
 254:Generated_Source\PSoC4/SPI.c **** * Note:
 255:Generated_Source\PSoC4/SPI.c **** *  CS must be in active(low) state.
 256:Generated_Source\PSoC4/SPI.c **** *
 257:Generated_Source\PSoC4/SPI.c **** * Return:
 258:Generated_Source\PSoC4/SPI.c **** *  Byte who will be recieved via SPI.
 259:Generated_Source\PSoC4/SPI.c **** *
 260:Generated_Source\PSoC4/SPI.c **** *******************************************************************************/
 261:Generated_Source\PSoC4/SPI.c **** 
 262:Generated_Source\PSoC4/SPI.c **** 
 263:Generated_Source\PSoC4/SPI.c **** uint8 SPI_ReadAndWriteByte(uint8 byte)
 264:Generated_Source\PSoC4/SPI.c **** {
 374              		.loc 1 264 0
 375              		.cfi_startproc
 376              	.LVL34:
 377 0000 F8B5     		push	{r3, r4, r5, r6, r7, lr}
 378              		.cfi_def_cfa_offset 24
 379              		.cfi_offset 3, -24
 380              		.cfi_offset 4, -20
 381              		.cfi_offset 5, -16
 382              		.cfi_offset 6, -12
 383              		.cfi_offset 7, -8
 384              		.cfi_offset 14, -4
 385              		.loc 1 264 0
 386 0002 071C     		mov	r7, r0
 387              	.LVL35:
 388 0004 0826     		mov	r6, #8
 265:Generated_Source\PSoC4/SPI.c ****     uint8 countBites;
 266:Generated_Source\PSoC4/SPI.c ****     uint32_t tmpBuff = 0;
 389              		.loc 1 266 0
 390 0006 0024     		mov	r4, #0
 391              	.LVL36:
 392              	.L31:
 267:Generated_Source\PSoC4/SPI.c ****     uint8 tmpPin;
 268:Generated_Source\PSoC4/SPI.c ****     for (countBites = BITES_ON_ONE_BYTE; countBites > 0; countBites--)
 269:Generated_Source\PSoC4/SPI.c ****     {
 270:Generated_Source\PSoC4/SPI.c ****     
 271:Generated_Source\PSoC4/SPI.c ****         if (byte & MASK_HIGH_BIT)
 393              		.loc 1 271 0
 394 0008 7BB2     		sxtb	r3, r7
 395 000a 154D     		ldr	r5, .L33
 396 000c 002B     		cmp	r3, #0
 397 000e 03DA     		bge	.L28
 272:Generated_Source\PSoC4/SPI.c ****         {
 273:Generated_Source\PSoC4/SPI.c ****             SPI_MOSI_DR_REG |= SPI_MOSI;
 398              		.loc 1 273 0
 399 0010 1022     		mov	r2, #16
ARM GAS  C:\Users\Petro\AppData\Local\Temp\ccp1DBRt.s 			page 13


 400 0012 2B68     		ldr	r3, [r5]
 401 0014 1343     		orr	r3, r2
 402 0016 02E0     		b	.L32
 403              	.L28:
 274:Generated_Source\PSoC4/SPI.c ****         }
 275:Generated_Source\PSoC4/SPI.c ****         else
 276:Generated_Source\PSoC4/SPI.c ****         {
 277:Generated_Source\PSoC4/SPI.c ****             SPI_MOSI_DR_REG &= ((uint8)(~SPI_MOSI));
 404              		.loc 1 277 0
 405 0018 EF23     		mov	r3, #239
 406 001a 2A68     		ldr	r2, [r5]
 407 001c 1340     		and	r3, r2
 408              	.L32:
 278:Generated_Source\PSoC4/SPI.c ****         }
 279:Generated_Source\PSoC4/SPI.c ****         
 280:Generated_Source\PSoC4/SPI.c ****         SPI_SCK_DR_REG |= SPI_CLK;
 409              		.loc 1 280 0
 410 001e 0422     		mov	r2, #4
 277:Generated_Source\PSoC4/SPI.c ****         }
 411              		.loc 1 277 0
 412 0020 2B60     		str	r3, [r5]
 413              		.loc 1 280 0
 414 0022 2B68     		ldr	r3, [r5]
 415 0024 1343     		orr	r3, r2
 416 0026 2B60     		str	r3, [r5]
 281:Generated_Source\PSoC4/SPI.c ****         
 282:Generated_Source\PSoC4/SPI.c ****         tmpPin = (uint8)((SPI_MISO_PS_REG & SPI_MISO_MASK) >> SPI_MISO_SHIFT);
 417              		.loc 1 282 0
 418 0028 0E4B     		ldr	r3, .L33+4
 419 002a 1B68     		ldr	r3, [r3]
 420              	.LVL37:
 421 002c 9B07     		lsl	r3, r3, #30
 422              	.LVL38:
 423 002e DB0F     		lsr	r3, r3, #31
 283:Generated_Source\PSoC4/SPI.c ****         if (tmpPin == 1u)
 424              		.loc 1 283 0
 425 0030 012B     		cmp	r3, #1
 426 0032 00D1     		bne	.L30
 284:Generated_Source\PSoC4/SPI.c ****         {
 285:Generated_Source\PSoC4/SPI.c ****             tmpBuff |= MASK_LOW_BIT;
 427              		.loc 1 285 0
 428 0034 1C43     		orr	r4, r3
 429              	.LVL39:
 430              	.L30:
 286:Generated_Source\PSoC4/SPI.c ****         }
 287:Generated_Source\PSoC4/SPI.c ****         
 288:Generated_Source\PSoC4/SPI.c ****         CyDelayCycles(DELAY_HIGH_STATE);
 431              		.loc 1 288 0 discriminator 2
 432 0036 0A20     		mov	r0, #10
 433 0038 FFF7FEFF 		bl	CyDelayCycles
 434              	.LVL40:
 289:Generated_Source\PSoC4/SPI.c ****         
 290:Generated_Source\PSoC4/SPI.c ****          SPI_SCK_DR_REG &= ((uint8)(~SPI_CLK));
 435              		.loc 1 290 0 discriminator 2
 436 003c FB23     		mov	r3, #251
 437 003e 2A68     		ldr	r2, [r5]
 438 0040 013E     		sub	r6, r6, #1
ARM GAS  C:\Users\Petro\AppData\Local\Temp\ccp1DBRt.s 			page 14


 439              	.LVL41:
 440 0042 1340     		and	r3, r2
 441 0044 2B60     		str	r3, [r5]
 291:Generated_Source\PSoC4/SPI.c ****         byte <<=  SHIFT_ONE_BIT;
 442              		.loc 1 291 0 discriminator 2
 443 0046 7F00     		lsl	r7, r7, #1
 444              	.LVL42:
 292:Generated_Source\PSoC4/SPI.c ****         tmpBuff <<= SHIFT_ONE_BIT;
 293:Generated_Source\PSoC4/SPI.c ****         CyDelayCycles(DELAY_LOW_STATE);        
 445              		.loc 1 293 0 discriminator 2
 446 0048 0A20     		mov	r0, #10
 447 004a F6B2     		uxtb	r6, r6
 291:Generated_Source\PSoC4/SPI.c ****         byte <<=  SHIFT_ONE_BIT;
 448              		.loc 1 291 0 discriminator 2
 449 004c FFB2     		uxtb	r7, r7
 450              	.LVL43:
 292:Generated_Source\PSoC4/SPI.c ****         tmpBuff <<= SHIFT_ONE_BIT;
 451              		.loc 1 292 0 discriminator 2
 452 004e 6400     		lsl	r4, r4, #1
 453              	.LVL44:
 454              		.loc 1 293 0 discriminator 2
 455 0050 FFF7FEFF 		bl	CyDelayCycles
 456              	.LVL45:
 268:Generated_Source\PSoC4/SPI.c ****     {
 457              		.loc 1 268 0 discriminator 2
 458 0054 002E     		cmp	r6, #0
 459 0056 D7D1     		bne	.L31
 460              	.LVL46:
 294:Generated_Source\PSoC4/SPI.c ****     }    
 295:Generated_Source\PSoC4/SPI.c ****     tmpBuff >>= SHIFT_ONE_BIT;
 461              		.loc 1 295 0
 462 0058 6408     		lsr	r4, r4, #1
 463              	.LVL47:
 296:Generated_Source\PSoC4/SPI.c ****         
 297:Generated_Source\PSoC4/SPI.c ****     return (uint8_t)tmpBuff;
 464              		.loc 1 297 0
 465 005a E0B2     		uxtb	r0, r4
 298:Generated_Source\PSoC4/SPI.c ****     
 299:Generated_Source\PSoC4/SPI.c **** }    
 466              		.loc 1 299 0
 467              		@ sp needed
 468              	.LVL48:
 469              	.LVL49:
 470 005c F8BD     		pop	{r3, r4, r5, r6, r7, pc}
 471              	.L34:
 472 005e C046     		.align	2
 473              	.L33:
 474 0060 00020440 		.word	1074004480
 475 0064 04020440 		.word	1074004484
 476              		.cfi_endproc
 477              	.LFE9:
 478              		.size	SPI_ReadAndWriteByte, .-SPI_ReadAndWriteByte
 479              		.text
 480              	.Letext0:
 481              		.file 2 "c:\\program files (x86)\\cypress\\psoc creator\\4.0\\psoc creator\\import\\gnu\\arm\\4.9.
 482              		.file 3 "c:\\program files (x86)\\cypress\\psoc creator\\4.0\\psoc creator\\import\\gnu\\arm\\4.9.
 483              		.file 4 "Generated_Source\\PSoC4\\cytypes.h"
ARM GAS  C:\Users\Petro\AppData\Local\Temp\ccp1DBRt.s 			page 15


 484              		.file 5 "Generated_Source\\PSoC4\\CyLib.h"