ARM GAS  C:\Users\Petro\AppData\Local\Temp\ccGSMZYb.s 			page 1


   1              		.cpu cortex-m0
   2              		.fpu softvfp
   3              		.eabi_attribute 20, 1
   4              		.eabi_attribute 21, 1
   5              		.eabi_attribute 23, 3
   6              		.eabi_attribute 24, 1
   7              		.eabi_attribute 25, 1
   8              		.eabi_attribute 26, 1
   9              		.eabi_attribute 30, 1
  10              		.eabi_attribute 34, 0
  11              		.eabi_attribute 18, 4
  12              		.code	16
  13              		.file	"UART_XB.c"
  14              		.text
  15              	.Ltext0:
  16              		.cfi_sections	.debug_frame
  17              		.section	.text.UART_XB_ScbEnableIntr,"ax",%progbits
  18              		.align	2
  19              		.code	16
  20              		.thumb_func
  21              		.type	UART_XB_ScbEnableIntr, %function
  22              	UART_XB_ScbEnableIntr:
  23              	.LFB9:
  24              		.file 1 "Generated_Source\\PSoC4\\UART_XB.c"
   1:Generated_Source\PSoC4/UART_XB.c **** /***************************************************************************//**
   2:Generated_Source\PSoC4/UART_XB.c **** * \file UART_XB.c
   3:Generated_Source\PSoC4/UART_XB.c **** * \version 3.20
   4:Generated_Source\PSoC4/UART_XB.c **** *
   5:Generated_Source\PSoC4/UART_XB.c **** * \brief
   6:Generated_Source\PSoC4/UART_XB.c **** *  This file provides the source code to the API for the SCB Component.
   7:Generated_Source\PSoC4/UART_XB.c **** *
   8:Generated_Source\PSoC4/UART_XB.c **** * Note:
   9:Generated_Source\PSoC4/UART_XB.c **** *
  10:Generated_Source\PSoC4/UART_XB.c **** *******************************************************************************
  11:Generated_Source\PSoC4/UART_XB.c **** * \copyright
  12:Generated_Source\PSoC4/UART_XB.c **** * Copyright 2013-2016, Cypress Semiconductor Corporation.  All rights reserved.
  13:Generated_Source\PSoC4/UART_XB.c **** * You may use this file only in accordance with the license, terms, conditions,
  14:Generated_Source\PSoC4/UART_XB.c **** * disclaimers, and limitations in the end user license agreement accompanying
  15:Generated_Source\PSoC4/UART_XB.c **** * the software package with which this file was provided.
  16:Generated_Source\PSoC4/UART_XB.c **** *******************************************************************************/
  17:Generated_Source\PSoC4/UART_XB.c **** 
  18:Generated_Source\PSoC4/UART_XB.c **** #include "UART_XB_PVT.h"
  19:Generated_Source\PSoC4/UART_XB.c **** 
  20:Generated_Source\PSoC4/UART_XB.c **** #if (UART_XB_SCB_MODE_I2C_INC)
  21:Generated_Source\PSoC4/UART_XB.c ****     #include "UART_XB_I2C_PVT.h"
  22:Generated_Source\PSoC4/UART_XB.c **** #endif /* (UART_XB_SCB_MODE_I2C_INC) */
  23:Generated_Source\PSoC4/UART_XB.c **** 
  24:Generated_Source\PSoC4/UART_XB.c **** #if (UART_XB_SCB_MODE_EZI2C_INC)
  25:Generated_Source\PSoC4/UART_XB.c ****     #include "UART_XB_EZI2C_PVT.h"
  26:Generated_Source\PSoC4/UART_XB.c **** #endif /* (UART_XB_SCB_MODE_EZI2C_INC) */
  27:Generated_Source\PSoC4/UART_XB.c **** 
  28:Generated_Source\PSoC4/UART_XB.c **** #if (UART_XB_SCB_MODE_SPI_INC || UART_XB_SCB_MODE_UART_INC)
  29:Generated_Source\PSoC4/UART_XB.c ****     #include "UART_XB_SPI_UART_PVT.h"
  30:Generated_Source\PSoC4/UART_XB.c **** #endif /* (UART_XB_SCB_MODE_SPI_INC || UART_XB_SCB_MODE_UART_INC) */
  31:Generated_Source\PSoC4/UART_XB.c **** 
  32:Generated_Source\PSoC4/UART_XB.c **** 
  33:Generated_Source\PSoC4/UART_XB.c **** /***************************************
ARM GAS  C:\Users\Petro\AppData\Local\Temp\ccGSMZYb.s 			page 2


  34:Generated_Source\PSoC4/UART_XB.c **** *    Run Time Configuration Vars
  35:Generated_Source\PSoC4/UART_XB.c **** ***************************************/
  36:Generated_Source\PSoC4/UART_XB.c **** 
  37:Generated_Source\PSoC4/UART_XB.c **** /* Stores internal component configuration for Unconfigured mode */
  38:Generated_Source\PSoC4/UART_XB.c **** #if (UART_XB_SCB_MODE_UNCONFIG_CONST_CFG)
  39:Generated_Source\PSoC4/UART_XB.c ****     /* Common configuration variables */
  40:Generated_Source\PSoC4/UART_XB.c ****     uint8 UART_XB_scbMode = UART_XB_SCB_MODE_UNCONFIG;
  41:Generated_Source\PSoC4/UART_XB.c ****     uint8 UART_XB_scbEnableWake;
  42:Generated_Source\PSoC4/UART_XB.c ****     uint8 UART_XB_scbEnableIntr;
  43:Generated_Source\PSoC4/UART_XB.c **** 
  44:Generated_Source\PSoC4/UART_XB.c ****     /* I2C configuration variables */
  45:Generated_Source\PSoC4/UART_XB.c ****     uint8 UART_XB_mode;
  46:Generated_Source\PSoC4/UART_XB.c ****     uint8 UART_XB_acceptAddr;
  47:Generated_Source\PSoC4/UART_XB.c **** 
  48:Generated_Source\PSoC4/UART_XB.c ****     /* SPI/UART configuration variables */
  49:Generated_Source\PSoC4/UART_XB.c ****     volatile uint8 * UART_XB_rxBuffer;
  50:Generated_Source\PSoC4/UART_XB.c ****     uint8  UART_XB_rxDataBits;
  51:Generated_Source\PSoC4/UART_XB.c ****     uint32 UART_XB_rxBufferSize;
  52:Generated_Source\PSoC4/UART_XB.c **** 
  53:Generated_Source\PSoC4/UART_XB.c ****     volatile uint8 * UART_XB_txBuffer;
  54:Generated_Source\PSoC4/UART_XB.c ****     uint8  UART_XB_txDataBits;
  55:Generated_Source\PSoC4/UART_XB.c ****     uint32 UART_XB_txBufferSize;
  56:Generated_Source\PSoC4/UART_XB.c **** 
  57:Generated_Source\PSoC4/UART_XB.c ****     /* EZI2C configuration variables */
  58:Generated_Source\PSoC4/UART_XB.c ****     uint8 UART_XB_numberOfAddr;
  59:Generated_Source\PSoC4/UART_XB.c ****     uint8 UART_XB_subAddrSize;
  60:Generated_Source\PSoC4/UART_XB.c **** #endif /* (UART_XB_SCB_MODE_UNCONFIG_CONST_CFG) */
  61:Generated_Source\PSoC4/UART_XB.c **** 
  62:Generated_Source\PSoC4/UART_XB.c **** 
  63:Generated_Source\PSoC4/UART_XB.c **** /***************************************
  64:Generated_Source\PSoC4/UART_XB.c **** *     Common SCB Vars
  65:Generated_Source\PSoC4/UART_XB.c **** ***************************************/
  66:Generated_Source\PSoC4/UART_XB.c **** /**
  67:Generated_Source\PSoC4/UART_XB.c **** * \addtogroup group_general
  68:Generated_Source\PSoC4/UART_XB.c **** * \{
  69:Generated_Source\PSoC4/UART_XB.c **** */
  70:Generated_Source\PSoC4/UART_XB.c **** 
  71:Generated_Source\PSoC4/UART_XB.c **** /** UART_XB_initVar indicates whether the UART_XB 
  72:Generated_Source\PSoC4/UART_XB.c **** *  component has been initialized. The variable is initialized to 0 
  73:Generated_Source\PSoC4/UART_XB.c **** *  and set to 1 the first time SCB_Start() is called. This allows 
  74:Generated_Source\PSoC4/UART_XB.c **** *  the component to restart without reinitialization after the first 
  75:Generated_Source\PSoC4/UART_XB.c **** *  call to the UART_XB_Start() routine.
  76:Generated_Source\PSoC4/UART_XB.c **** *
  77:Generated_Source\PSoC4/UART_XB.c **** *  If re-initialization of the component is required, then the 
  78:Generated_Source\PSoC4/UART_XB.c **** *  UART_XB_Init() function can be called before the 
  79:Generated_Source\PSoC4/UART_XB.c **** *  UART_XB_Start() or UART_XB_Enable() function.
  80:Generated_Source\PSoC4/UART_XB.c **** */
  81:Generated_Source\PSoC4/UART_XB.c **** uint8 UART_XB_initVar = 0u;
  82:Generated_Source\PSoC4/UART_XB.c **** 
  83:Generated_Source\PSoC4/UART_XB.c **** 
  84:Generated_Source\PSoC4/UART_XB.c **** #if (! (UART_XB_SCB_MODE_I2C_CONST_CFG || \
  85:Generated_Source\PSoC4/UART_XB.c ****         UART_XB_SCB_MODE_EZI2C_CONST_CFG))
  86:Generated_Source\PSoC4/UART_XB.c ****     /** This global variable stores TX interrupt sources after 
  87:Generated_Source\PSoC4/UART_XB.c ****     * UART_XB_Stop() is called. Only these TX interrupt sources 
  88:Generated_Source\PSoC4/UART_XB.c ****     * will be restored on a subsequent UART_XB_Enable() call.
  89:Generated_Source\PSoC4/UART_XB.c ****     */
  90:Generated_Source\PSoC4/UART_XB.c ****     uint16 UART_XB_IntrTxMask = 0u;
ARM GAS  C:\Users\Petro\AppData\Local\Temp\ccGSMZYb.s 			page 3


  91:Generated_Source\PSoC4/UART_XB.c **** #endif /* (! (UART_XB_SCB_MODE_I2C_CONST_CFG || \
  92:Generated_Source\PSoC4/UART_XB.c ****               UART_XB_SCB_MODE_EZI2C_CONST_CFG)) */
  93:Generated_Source\PSoC4/UART_XB.c **** /** \} globals */
  94:Generated_Source\PSoC4/UART_XB.c **** 
  95:Generated_Source\PSoC4/UART_XB.c **** #if (UART_XB_SCB_IRQ_INTERNAL)
  96:Generated_Source\PSoC4/UART_XB.c **** #if !defined (CY_REMOVE_UART_XB_CUSTOM_INTR_HANDLER)
  97:Generated_Source\PSoC4/UART_XB.c ****     void (*UART_XB_customIntrHandler)(void) = NULL;
  98:Generated_Source\PSoC4/UART_XB.c **** #endif /* !defined (CY_REMOVE_UART_XB_CUSTOM_INTR_HANDLER) */
  99:Generated_Source\PSoC4/UART_XB.c **** #endif /* (UART_XB_SCB_IRQ_INTERNAL) */
 100:Generated_Source\PSoC4/UART_XB.c **** 
 101:Generated_Source\PSoC4/UART_XB.c **** 
 102:Generated_Source\PSoC4/UART_XB.c **** /***************************************
 103:Generated_Source\PSoC4/UART_XB.c **** *    Private Function Prototypes
 104:Generated_Source\PSoC4/UART_XB.c **** ***************************************/
 105:Generated_Source\PSoC4/UART_XB.c **** 
 106:Generated_Source\PSoC4/UART_XB.c **** static void UART_XB_ScbEnableIntr(void);
 107:Generated_Source\PSoC4/UART_XB.c **** static void UART_XB_ScbModeStop(void);
 108:Generated_Source\PSoC4/UART_XB.c **** static void UART_XB_ScbModePostEnable(void);
 109:Generated_Source\PSoC4/UART_XB.c **** 
 110:Generated_Source\PSoC4/UART_XB.c **** 
 111:Generated_Source\PSoC4/UART_XB.c **** /*******************************************************************************
 112:Generated_Source\PSoC4/UART_XB.c **** * Function Name: UART_XB_Init
 113:Generated_Source\PSoC4/UART_XB.c **** ****************************************************************************//**
 114:Generated_Source\PSoC4/UART_XB.c **** *
 115:Generated_Source\PSoC4/UART_XB.c **** *  Initializes the UART_XB component to operate in one of the selected
 116:Generated_Source\PSoC4/UART_XB.c **** *  configurations: I2C, SPI, UART or EZI2C.
 117:Generated_Source\PSoC4/UART_XB.c **** *  When the configuration is set to "Unconfigured SCB", this function does
 118:Generated_Source\PSoC4/UART_XB.c **** *  not do any initialization. Use mode-specific initialization APIs instead:
 119:Generated_Source\PSoC4/UART_XB.c **** *  UART_XB_I2CInit, UART_XB_SpiInit, 
 120:Generated_Source\PSoC4/UART_XB.c **** *  UART_XB_UartInit or UART_XB_EzI2CInit.
 121:Generated_Source\PSoC4/UART_XB.c **** *
 122:Generated_Source\PSoC4/UART_XB.c **** *******************************************************************************/
 123:Generated_Source\PSoC4/UART_XB.c **** void UART_XB_Init(void)
 124:Generated_Source\PSoC4/UART_XB.c **** {
 125:Generated_Source\PSoC4/UART_XB.c **** #if (UART_XB_SCB_MODE_UNCONFIG_CONST_CFG)
 126:Generated_Source\PSoC4/UART_XB.c ****     if (UART_XB_SCB_MODE_UNCONFIG_RUNTM_CFG)
 127:Generated_Source\PSoC4/UART_XB.c ****     {
 128:Generated_Source\PSoC4/UART_XB.c ****         UART_XB_initVar = 0u;
 129:Generated_Source\PSoC4/UART_XB.c ****     }
 130:Generated_Source\PSoC4/UART_XB.c ****     else
 131:Generated_Source\PSoC4/UART_XB.c ****     {
 132:Generated_Source\PSoC4/UART_XB.c ****         /* Initialization was done before this function call */
 133:Generated_Source\PSoC4/UART_XB.c ****     }
 134:Generated_Source\PSoC4/UART_XB.c **** 
 135:Generated_Source\PSoC4/UART_XB.c **** #elif (UART_XB_SCB_MODE_I2C_CONST_CFG)
 136:Generated_Source\PSoC4/UART_XB.c ****     UART_XB_I2CInit();
 137:Generated_Source\PSoC4/UART_XB.c **** 
 138:Generated_Source\PSoC4/UART_XB.c **** #elif (UART_XB_SCB_MODE_SPI_CONST_CFG)
 139:Generated_Source\PSoC4/UART_XB.c ****     UART_XB_SpiInit();
 140:Generated_Source\PSoC4/UART_XB.c **** 
 141:Generated_Source\PSoC4/UART_XB.c **** #elif (UART_XB_SCB_MODE_UART_CONST_CFG)
 142:Generated_Source\PSoC4/UART_XB.c ****     UART_XB_UartInit();
 143:Generated_Source\PSoC4/UART_XB.c **** 
 144:Generated_Source\PSoC4/UART_XB.c **** #elif (UART_XB_SCB_MODE_EZI2C_CONST_CFG)
 145:Generated_Source\PSoC4/UART_XB.c ****     UART_XB_EzI2CInit();
 146:Generated_Source\PSoC4/UART_XB.c **** 
 147:Generated_Source\PSoC4/UART_XB.c **** #endif /* (UART_XB_SCB_MODE_UNCONFIG_CONST_CFG) */
ARM GAS  C:\Users\Petro\AppData\Local\Temp\ccGSMZYb.s 			page 4


 148:Generated_Source\PSoC4/UART_XB.c **** }
 149:Generated_Source\PSoC4/UART_XB.c **** 
 150:Generated_Source\PSoC4/UART_XB.c **** 
 151:Generated_Source\PSoC4/UART_XB.c **** /*******************************************************************************
 152:Generated_Source\PSoC4/UART_XB.c **** * Function Name: UART_XB_Enable
 153:Generated_Source\PSoC4/UART_XB.c **** ****************************************************************************//**
 154:Generated_Source\PSoC4/UART_XB.c **** *
 155:Generated_Source\PSoC4/UART_XB.c **** *  Enables UART_XB component operation: activates the hardware and 
 156:Generated_Source\PSoC4/UART_XB.c **** *  internal interrupt. It also restores TX interrupt sources disabled after the 
 157:Generated_Source\PSoC4/UART_XB.c **** *  UART_XB_Stop() function was called (note that level-triggered TX 
 158:Generated_Source\PSoC4/UART_XB.c **** *  interrupt sources remain disabled to not cause code lock-up).
 159:Generated_Source\PSoC4/UART_XB.c **** *  For I2C and EZI2C modes the interrupt is internal and mandatory for 
 160:Generated_Source\PSoC4/UART_XB.c **** *  operation. For SPI and UART modes the interrupt can be configured as none, 
 161:Generated_Source\PSoC4/UART_XB.c **** *  internal or external.
 162:Generated_Source\PSoC4/UART_XB.c **** *  The UART_XB configuration should be not changed when the component
 163:Generated_Source\PSoC4/UART_XB.c **** *  is enabled. Any configuration changes should be made after disabling the 
 164:Generated_Source\PSoC4/UART_XB.c **** *  component.
 165:Generated_Source\PSoC4/UART_XB.c **** *  When configuration is set to “Unconfigured UART_XB”, the component 
 166:Generated_Source\PSoC4/UART_XB.c **** *  must first be initialized to operate in one of the following configurations: 
 167:Generated_Source\PSoC4/UART_XB.c **** *  I2C, SPI, UART or EZ I2C, using the mode-specific initialization API. 
 168:Generated_Source\PSoC4/UART_XB.c **** *  Otherwise this function does not enable the component.
 169:Generated_Source\PSoC4/UART_XB.c **** *
 170:Generated_Source\PSoC4/UART_XB.c **** *******************************************************************************/
 171:Generated_Source\PSoC4/UART_XB.c **** void UART_XB_Enable(void)
 172:Generated_Source\PSoC4/UART_XB.c **** {
 173:Generated_Source\PSoC4/UART_XB.c **** #if (UART_XB_SCB_MODE_UNCONFIG_CONST_CFG)
 174:Generated_Source\PSoC4/UART_XB.c ****     /* Enable SCB block, only if it is already configured */
 175:Generated_Source\PSoC4/UART_XB.c ****     if (!UART_XB_SCB_MODE_UNCONFIG_RUNTM_CFG)
 176:Generated_Source\PSoC4/UART_XB.c ****     {
 177:Generated_Source\PSoC4/UART_XB.c ****         UART_XB_CTRL_REG |= UART_XB_CTRL_ENABLED;
 178:Generated_Source\PSoC4/UART_XB.c **** 
 179:Generated_Source\PSoC4/UART_XB.c ****         UART_XB_ScbEnableIntr();
 180:Generated_Source\PSoC4/UART_XB.c **** 
 181:Generated_Source\PSoC4/UART_XB.c ****         /* Call PostEnable function specific to current operation mode */
 182:Generated_Source\PSoC4/UART_XB.c ****         UART_XB_ScbModePostEnable();
 183:Generated_Source\PSoC4/UART_XB.c ****     }
 184:Generated_Source\PSoC4/UART_XB.c **** #else
 185:Generated_Source\PSoC4/UART_XB.c ****     UART_XB_CTRL_REG |= UART_XB_CTRL_ENABLED;
 186:Generated_Source\PSoC4/UART_XB.c **** 
 187:Generated_Source\PSoC4/UART_XB.c ****     UART_XB_ScbEnableIntr();
 188:Generated_Source\PSoC4/UART_XB.c **** 
 189:Generated_Source\PSoC4/UART_XB.c ****     /* Call PostEnable function specific to current operation mode */
 190:Generated_Source\PSoC4/UART_XB.c ****     UART_XB_ScbModePostEnable();
 191:Generated_Source\PSoC4/UART_XB.c **** #endif /* (UART_XB_SCB_MODE_UNCONFIG_CONST_CFG) */
 192:Generated_Source\PSoC4/UART_XB.c **** }
 193:Generated_Source\PSoC4/UART_XB.c **** 
 194:Generated_Source\PSoC4/UART_XB.c **** 
 195:Generated_Source\PSoC4/UART_XB.c **** /*******************************************************************************
 196:Generated_Source\PSoC4/UART_XB.c **** * Function Name: UART_XB_Start
 197:Generated_Source\PSoC4/UART_XB.c **** ****************************************************************************//**
 198:Generated_Source\PSoC4/UART_XB.c **** *
 199:Generated_Source\PSoC4/UART_XB.c **** *  Invokes UART_XB_Init() and UART_XB_Enable().
 200:Generated_Source\PSoC4/UART_XB.c **** *  After this function call, the component is enabled and ready for operation.
 201:Generated_Source\PSoC4/UART_XB.c **** *  When configuration is set to "Unconfigured SCB", the component must first be
 202:Generated_Source\PSoC4/UART_XB.c **** *  initialized to operate in one of the following configurations: I2C, SPI, UART
 203:Generated_Source\PSoC4/UART_XB.c **** *  or EZI2C. Otherwise this function does not enable the component.
 204:Generated_Source\PSoC4/UART_XB.c **** *
ARM GAS  C:\Users\Petro\AppData\Local\Temp\ccGSMZYb.s 			page 5


 205:Generated_Source\PSoC4/UART_XB.c **** * \globalvars
 206:Generated_Source\PSoC4/UART_XB.c **** *  UART_XB_initVar - used to check initial configuration, modified
 207:Generated_Source\PSoC4/UART_XB.c **** *  on first function call.
 208:Generated_Source\PSoC4/UART_XB.c **** *
 209:Generated_Source\PSoC4/UART_XB.c **** *******************************************************************************/
 210:Generated_Source\PSoC4/UART_XB.c **** void UART_XB_Start(void)
 211:Generated_Source\PSoC4/UART_XB.c **** {
 212:Generated_Source\PSoC4/UART_XB.c ****     if (0u == UART_XB_initVar)
 213:Generated_Source\PSoC4/UART_XB.c ****     {
 214:Generated_Source\PSoC4/UART_XB.c ****         UART_XB_Init();
 215:Generated_Source\PSoC4/UART_XB.c ****         UART_XB_initVar = 1u; /* Component was initialized */
 216:Generated_Source\PSoC4/UART_XB.c ****     }
 217:Generated_Source\PSoC4/UART_XB.c **** 
 218:Generated_Source\PSoC4/UART_XB.c ****     UART_XB_Enable();
 219:Generated_Source\PSoC4/UART_XB.c **** }
 220:Generated_Source\PSoC4/UART_XB.c **** 
 221:Generated_Source\PSoC4/UART_XB.c **** 
 222:Generated_Source\PSoC4/UART_XB.c **** /*******************************************************************************
 223:Generated_Source\PSoC4/UART_XB.c **** * Function Name: UART_XB_Stop
 224:Generated_Source\PSoC4/UART_XB.c **** ****************************************************************************//**
 225:Generated_Source\PSoC4/UART_XB.c **** *
 226:Generated_Source\PSoC4/UART_XB.c **** *  Disables the UART_XB component: disable the hardware and internal 
 227:Generated_Source\PSoC4/UART_XB.c **** *  interrupt. It also disables all TX interrupt sources so as not to cause an 
 228:Generated_Source\PSoC4/UART_XB.c **** *  unexpected interrupt trigger because after the component is enabled, the 
 229:Generated_Source\PSoC4/UART_XB.c **** *  TX FIFO is empty.
 230:Generated_Source\PSoC4/UART_XB.c **** *  Refer to the function UART_XB_Enable() for the interrupt 
 231:Generated_Source\PSoC4/UART_XB.c **** *  configuration details.
 232:Generated_Source\PSoC4/UART_XB.c **** *  This function disables the SCB component without checking to see if 
 233:Generated_Source\PSoC4/UART_XB.c **** *  communication is in progress. Before calling this function it may be 
 234:Generated_Source\PSoC4/UART_XB.c **** *  necessary to check the status of communication to make sure communication 
 235:Generated_Source\PSoC4/UART_XB.c **** *  is complete. If this is not done then communication could be stopped mid 
 236:Generated_Source\PSoC4/UART_XB.c **** *  byte and corrupted data could result.
 237:Generated_Source\PSoC4/UART_XB.c **** *
 238:Generated_Source\PSoC4/UART_XB.c **** *******************************************************************************/
 239:Generated_Source\PSoC4/UART_XB.c **** void UART_XB_Stop(void)
 240:Generated_Source\PSoC4/UART_XB.c **** {
 241:Generated_Source\PSoC4/UART_XB.c **** #if (UART_XB_SCB_IRQ_INTERNAL)
 242:Generated_Source\PSoC4/UART_XB.c ****     UART_XB_DisableInt();
 243:Generated_Source\PSoC4/UART_XB.c **** #endif /* (UART_XB_SCB_IRQ_INTERNAL) */
 244:Generated_Source\PSoC4/UART_XB.c **** 
 245:Generated_Source\PSoC4/UART_XB.c ****     /* Call Stop function specific to current operation mode */
 246:Generated_Source\PSoC4/UART_XB.c ****     UART_XB_ScbModeStop();
 247:Generated_Source\PSoC4/UART_XB.c **** 
 248:Generated_Source\PSoC4/UART_XB.c ****     /* Disable SCB IP */
 249:Generated_Source\PSoC4/UART_XB.c ****     UART_XB_CTRL_REG &= (uint32) ~UART_XB_CTRL_ENABLED;
 250:Generated_Source\PSoC4/UART_XB.c **** 
 251:Generated_Source\PSoC4/UART_XB.c ****     /* Disable all TX interrupt sources so as not to cause an unexpected
 252:Generated_Source\PSoC4/UART_XB.c ****     * interrupt trigger after the component will be enabled because the 
 253:Generated_Source\PSoC4/UART_XB.c ****     * TX FIFO is empty.
 254:Generated_Source\PSoC4/UART_XB.c ****     * For SCB IP v0, it is critical as it does not mask-out interrupt
 255:Generated_Source\PSoC4/UART_XB.c ****     * sources when it is disabled. This can cause a code lock-up in the
 256:Generated_Source\PSoC4/UART_XB.c ****     * interrupt handler because TX FIFO cannot be loaded after the block
 257:Generated_Source\PSoC4/UART_XB.c ****     * is disabled.
 258:Generated_Source\PSoC4/UART_XB.c ****     */
 259:Generated_Source\PSoC4/UART_XB.c ****     UART_XB_SetTxInterruptMode(UART_XB_NO_INTR_SOURCES);
 260:Generated_Source\PSoC4/UART_XB.c **** 
 261:Generated_Source\PSoC4/UART_XB.c **** #if (UART_XB_SCB_IRQ_INTERNAL)
ARM GAS  C:\Users\Petro\AppData\Local\Temp\ccGSMZYb.s 			page 6


 262:Generated_Source\PSoC4/UART_XB.c ****     UART_XB_ClearPendingInt();
 263:Generated_Source\PSoC4/UART_XB.c **** #endif /* (UART_XB_SCB_IRQ_INTERNAL) */
 264:Generated_Source\PSoC4/UART_XB.c **** }
 265:Generated_Source\PSoC4/UART_XB.c **** 
 266:Generated_Source\PSoC4/UART_XB.c **** 
 267:Generated_Source\PSoC4/UART_XB.c **** /*******************************************************************************
 268:Generated_Source\PSoC4/UART_XB.c **** * Function Name: UART_XB_SetRxFifoLevel
 269:Generated_Source\PSoC4/UART_XB.c **** ****************************************************************************//**
 270:Generated_Source\PSoC4/UART_XB.c **** *
 271:Generated_Source\PSoC4/UART_XB.c **** *  Sets level in the RX FIFO to generate a RX level interrupt.
 272:Generated_Source\PSoC4/UART_XB.c **** *  When the RX FIFO has more entries than the RX FIFO level an RX level
 273:Generated_Source\PSoC4/UART_XB.c **** *  interrupt request is generated.
 274:Generated_Source\PSoC4/UART_XB.c **** *
 275:Generated_Source\PSoC4/UART_XB.c **** *  \param level: Level in the RX FIFO to generate RX level interrupt.
 276:Generated_Source\PSoC4/UART_XB.c **** *   The range of valid level values is between 0 and RX FIFO depth - 1.
 277:Generated_Source\PSoC4/UART_XB.c **** *
 278:Generated_Source\PSoC4/UART_XB.c **** *******************************************************************************/
 279:Generated_Source\PSoC4/UART_XB.c **** void UART_XB_SetRxFifoLevel(uint32 level)
 280:Generated_Source\PSoC4/UART_XB.c **** {
 281:Generated_Source\PSoC4/UART_XB.c ****     uint32 rxFifoCtrl;
 282:Generated_Source\PSoC4/UART_XB.c **** 
 283:Generated_Source\PSoC4/UART_XB.c ****     rxFifoCtrl = UART_XB_RX_FIFO_CTRL_REG;
 284:Generated_Source\PSoC4/UART_XB.c **** 
 285:Generated_Source\PSoC4/UART_XB.c ****     rxFifoCtrl &= ((uint32) ~UART_XB_RX_FIFO_CTRL_TRIGGER_LEVEL_MASK); /* Clear level mask bits */
 286:Generated_Source\PSoC4/UART_XB.c ****     rxFifoCtrl |= ((uint32) (UART_XB_RX_FIFO_CTRL_TRIGGER_LEVEL_MASK & level));
 287:Generated_Source\PSoC4/UART_XB.c **** 
 288:Generated_Source\PSoC4/UART_XB.c ****     UART_XB_RX_FIFO_CTRL_REG = rxFifoCtrl;
 289:Generated_Source\PSoC4/UART_XB.c **** }
 290:Generated_Source\PSoC4/UART_XB.c **** 
 291:Generated_Source\PSoC4/UART_XB.c **** 
 292:Generated_Source\PSoC4/UART_XB.c **** /*******************************************************************************
 293:Generated_Source\PSoC4/UART_XB.c **** * Function Name: UART_XB_SetTxFifoLevel
 294:Generated_Source\PSoC4/UART_XB.c **** ****************************************************************************//**
 295:Generated_Source\PSoC4/UART_XB.c **** *
 296:Generated_Source\PSoC4/UART_XB.c **** *  Sets level in the TX FIFO to generate a TX level interrupt.
 297:Generated_Source\PSoC4/UART_XB.c **** *  When the TX FIFO has less entries than the TX FIFO level an TX level
 298:Generated_Source\PSoC4/UART_XB.c **** *  interrupt request is generated.
 299:Generated_Source\PSoC4/UART_XB.c **** *
 300:Generated_Source\PSoC4/UART_XB.c **** *  \param level: Level in the TX FIFO to generate TX level interrupt.
 301:Generated_Source\PSoC4/UART_XB.c **** *   The range of valid level values is between 0 and TX FIFO depth - 1.
 302:Generated_Source\PSoC4/UART_XB.c **** *
 303:Generated_Source\PSoC4/UART_XB.c **** *******************************************************************************/
 304:Generated_Source\PSoC4/UART_XB.c **** void UART_XB_SetTxFifoLevel(uint32 level)
 305:Generated_Source\PSoC4/UART_XB.c **** {
 306:Generated_Source\PSoC4/UART_XB.c ****     uint32 txFifoCtrl;
 307:Generated_Source\PSoC4/UART_XB.c **** 
 308:Generated_Source\PSoC4/UART_XB.c ****     txFifoCtrl = UART_XB_TX_FIFO_CTRL_REG;
 309:Generated_Source\PSoC4/UART_XB.c **** 
 310:Generated_Source\PSoC4/UART_XB.c ****     txFifoCtrl &= ((uint32) ~UART_XB_TX_FIFO_CTRL_TRIGGER_LEVEL_MASK); /* Clear level mask bits */
 311:Generated_Source\PSoC4/UART_XB.c ****     txFifoCtrl |= ((uint32) (UART_XB_TX_FIFO_CTRL_TRIGGER_LEVEL_MASK & level));
 312:Generated_Source\PSoC4/UART_XB.c **** 
 313:Generated_Source\PSoC4/UART_XB.c ****     UART_XB_TX_FIFO_CTRL_REG = txFifoCtrl;
 314:Generated_Source\PSoC4/UART_XB.c **** }
 315:Generated_Source\PSoC4/UART_XB.c **** 
 316:Generated_Source\PSoC4/UART_XB.c **** 
 317:Generated_Source\PSoC4/UART_XB.c **** #if (UART_XB_SCB_IRQ_INTERNAL)
 318:Generated_Source\PSoC4/UART_XB.c ****     /*******************************************************************************
ARM GAS  C:\Users\Petro\AppData\Local\Temp\ccGSMZYb.s 			page 7


 319:Generated_Source\PSoC4/UART_XB.c ****     * Function Name: UART_XB_SetCustomInterruptHandler
 320:Generated_Source\PSoC4/UART_XB.c ****     ****************************************************************************//**
 321:Generated_Source\PSoC4/UART_XB.c ****     *
 322:Generated_Source\PSoC4/UART_XB.c ****     *  Registers a function to be called by the internal interrupt handler.
 323:Generated_Source\PSoC4/UART_XB.c ****     *  First the function that is registered is called, then the internal interrupt
 324:Generated_Source\PSoC4/UART_XB.c ****     *  handler performs any operation such as software buffer management functions
 325:Generated_Source\PSoC4/UART_XB.c ****     *  before the interrupt returns.  It is the user's responsibility not to break
 326:Generated_Source\PSoC4/UART_XB.c ****     *  the software buffer operations. Only one custom handler is supported, which
 327:Generated_Source\PSoC4/UART_XB.c ****     *  is the function provided by the most recent call.
 328:Generated_Source\PSoC4/UART_XB.c ****     *  At the initialization time no custom handler is registered.
 329:Generated_Source\PSoC4/UART_XB.c ****     *
 330:Generated_Source\PSoC4/UART_XB.c ****     *  \param func: Pointer to the function to register.
 331:Generated_Source\PSoC4/UART_XB.c ****     *        The value NULL indicates to remove the current custom interrupt
 332:Generated_Source\PSoC4/UART_XB.c ****     *        handler.
 333:Generated_Source\PSoC4/UART_XB.c ****     *
 334:Generated_Source\PSoC4/UART_XB.c ****     *******************************************************************************/
 335:Generated_Source\PSoC4/UART_XB.c ****     void UART_XB_SetCustomInterruptHandler(void (*func)(void))
 336:Generated_Source\PSoC4/UART_XB.c ****     {
 337:Generated_Source\PSoC4/UART_XB.c ****     #if !defined (CY_REMOVE_UART_XB_CUSTOM_INTR_HANDLER)
 338:Generated_Source\PSoC4/UART_XB.c ****         UART_XB_customIntrHandler = func; /* Register interrupt handler */
 339:Generated_Source\PSoC4/UART_XB.c ****     #else
 340:Generated_Source\PSoC4/UART_XB.c ****         if (NULL != func)
 341:Generated_Source\PSoC4/UART_XB.c ****         {
 342:Generated_Source\PSoC4/UART_XB.c ****             /* Suppress compiler warning */
 343:Generated_Source\PSoC4/UART_XB.c ****         }
 344:Generated_Source\PSoC4/UART_XB.c ****     #endif /* !defined (CY_REMOVE_UART_XB_CUSTOM_INTR_HANDLER) */
 345:Generated_Source\PSoC4/UART_XB.c ****     }
 346:Generated_Source\PSoC4/UART_XB.c **** #endif /* (UART_XB_SCB_IRQ_INTERNAL) */
 347:Generated_Source\PSoC4/UART_XB.c **** 
 348:Generated_Source\PSoC4/UART_XB.c **** 
 349:Generated_Source\PSoC4/UART_XB.c **** /*******************************************************************************
 350:Generated_Source\PSoC4/UART_XB.c **** * Function Name: UART_XB_ScbModeEnableIntr
 351:Generated_Source\PSoC4/UART_XB.c **** ****************************************************************************//**
 352:Generated_Source\PSoC4/UART_XB.c **** *
 353:Generated_Source\PSoC4/UART_XB.c **** *  Enables an interrupt for a specific mode.
 354:Generated_Source\PSoC4/UART_XB.c **** *
 355:Generated_Source\PSoC4/UART_XB.c **** *******************************************************************************/
 356:Generated_Source\PSoC4/UART_XB.c **** static void UART_XB_ScbEnableIntr(void)
 357:Generated_Source\PSoC4/UART_XB.c **** {
  25              		.loc 1 357 0
  26              		.cfi_startproc
  27 0000 08B5     		push	{r3, lr}
  28              		.cfi_def_cfa_offset 8
  29              		.cfi_offset 3, -8
  30              		.cfi_offset 14, -4
 358:Generated_Source\PSoC4/UART_XB.c **** #if (UART_XB_SCB_IRQ_INTERNAL)
 359:Generated_Source\PSoC4/UART_XB.c ****     /* Enable interrupt in NVIC */
 360:Generated_Source\PSoC4/UART_XB.c ****     #if (UART_XB_SCB_MODE_UNCONFIG_CONST_CFG)
 361:Generated_Source\PSoC4/UART_XB.c ****         if (0u != UART_XB_scbEnableIntr)
 362:Generated_Source\PSoC4/UART_XB.c ****         {
 363:Generated_Source\PSoC4/UART_XB.c ****             UART_XB_EnableInt();
 364:Generated_Source\PSoC4/UART_XB.c ****         }
 365:Generated_Source\PSoC4/UART_XB.c **** 
 366:Generated_Source\PSoC4/UART_XB.c ****     #else
 367:Generated_Source\PSoC4/UART_XB.c ****         UART_XB_EnableInt();
  31              		.loc 1 367 0
  32 0002 0A20     		mov	r0, #10
ARM GAS  C:\Users\Petro\AppData\Local\Temp\ccGSMZYb.s 			page 8


  33 0004 FFF7FEFF 		bl	CyIntEnable
  34              	.LVL0:
 368:Generated_Source\PSoC4/UART_XB.c **** 
 369:Generated_Source\PSoC4/UART_XB.c ****     #endif /* (UART_XB_SCB_MODE_UNCONFIG_CONST_CFG) */
 370:Generated_Source\PSoC4/UART_XB.c **** #endif /* (UART_XB_SCB_IRQ_INTERNAL) */
 371:Generated_Source\PSoC4/UART_XB.c **** }
  35              		.loc 1 371 0
  36              		@ sp needed
  37 0008 08BD     		pop	{r3, pc}
  38              		.cfi_endproc
  39              	.LFE9:
  40              		.size	UART_XB_ScbEnableIntr, .-UART_XB_ScbEnableIntr
  41 000a C046     		.section	.text.UART_XB_ScbModePostEnable,"ax",%progbits
  42              		.align	2
  43              		.code	16
  44              		.thumb_func
  45              		.type	UART_XB_ScbModePostEnable, %function
  46              	UART_XB_ScbModePostEnable:
  47              	.LFB10:
 372:Generated_Source\PSoC4/UART_XB.c **** 
 373:Generated_Source\PSoC4/UART_XB.c **** 
 374:Generated_Source\PSoC4/UART_XB.c **** /*******************************************************************************
 375:Generated_Source\PSoC4/UART_XB.c **** * Function Name: UART_XB_ScbModePostEnable
 376:Generated_Source\PSoC4/UART_XB.c **** ****************************************************************************//**
 377:Generated_Source\PSoC4/UART_XB.c **** *
 378:Generated_Source\PSoC4/UART_XB.c **** *  Calls the PostEnable function for a specific operation mode.
 379:Generated_Source\PSoC4/UART_XB.c **** *
 380:Generated_Source\PSoC4/UART_XB.c **** *******************************************************************************/
 381:Generated_Source\PSoC4/UART_XB.c **** static void UART_XB_ScbModePostEnable(void)
 382:Generated_Source\PSoC4/UART_XB.c **** {
  48              		.loc 1 382 0
  49              		.cfi_startproc
  50 0000 08B5     		push	{r3, lr}
  51              		.cfi_def_cfa_offset 8
  52              		.cfi_offset 3, -8
  53              		.cfi_offset 14, -4
 383:Generated_Source\PSoC4/UART_XB.c **** #if (UART_XB_SCB_MODE_UNCONFIG_CONST_CFG)
 384:Generated_Source\PSoC4/UART_XB.c **** #if (!UART_XB_CY_SCBIP_V1)
 385:Generated_Source\PSoC4/UART_XB.c ****     if (UART_XB_SCB_MODE_SPI_RUNTM_CFG)
 386:Generated_Source\PSoC4/UART_XB.c ****     {
 387:Generated_Source\PSoC4/UART_XB.c ****         UART_XB_SpiPostEnable();
 388:Generated_Source\PSoC4/UART_XB.c ****     }
 389:Generated_Source\PSoC4/UART_XB.c ****     else if (UART_XB_SCB_MODE_UART_RUNTM_CFG)
 390:Generated_Source\PSoC4/UART_XB.c ****     {
 391:Generated_Source\PSoC4/UART_XB.c ****         UART_XB_UartPostEnable();
 392:Generated_Source\PSoC4/UART_XB.c ****     }
 393:Generated_Source\PSoC4/UART_XB.c ****     else
 394:Generated_Source\PSoC4/UART_XB.c ****     {
 395:Generated_Source\PSoC4/UART_XB.c ****         /* Unknown mode: do nothing */
 396:Generated_Source\PSoC4/UART_XB.c ****     }
 397:Generated_Source\PSoC4/UART_XB.c **** #endif /* (!UART_XB_CY_SCBIP_V1) */
 398:Generated_Source\PSoC4/UART_XB.c **** 
 399:Generated_Source\PSoC4/UART_XB.c **** #elif (UART_XB_SCB_MODE_SPI_CONST_CFG)
 400:Generated_Source\PSoC4/UART_XB.c ****     UART_XB_SpiPostEnable();
 401:Generated_Source\PSoC4/UART_XB.c **** 
 402:Generated_Source\PSoC4/UART_XB.c **** #elif (UART_XB_SCB_MODE_UART_CONST_CFG)
 403:Generated_Source\PSoC4/UART_XB.c ****     UART_XB_UartPostEnable();
ARM GAS  C:\Users\Petro\AppData\Local\Temp\ccGSMZYb.s 			page 9


  54              		.loc 1 403 0
  55 0002 FFF7FEFF 		bl	UART_XB_UartPostEnable
  56              	.LVL1:
 404:Generated_Source\PSoC4/UART_XB.c **** 
 405:Generated_Source\PSoC4/UART_XB.c **** #else
 406:Generated_Source\PSoC4/UART_XB.c ****     /* Unknown mode: do nothing */
 407:Generated_Source\PSoC4/UART_XB.c **** #endif /* (UART_XB_SCB_MODE_UNCONFIG_CONST_CFG) */
 408:Generated_Source\PSoC4/UART_XB.c **** }
  57              		.loc 1 408 0
  58              		@ sp needed
  59 0006 08BD     		pop	{r3, pc}
  60              		.cfi_endproc
  61              	.LFE10:
  62              		.size	UART_XB_ScbModePostEnable, .-UART_XB_ScbModePostEnable
  63              		.section	.text.UART_XB_ScbModeStop,"ax",%progbits
  64              		.align	2
  65              		.code	16
  66              		.thumb_func
  67              		.type	UART_XB_ScbModeStop, %function
  68              	UART_XB_ScbModeStop:
  69              	.LFB11:
 409:Generated_Source\PSoC4/UART_XB.c **** 
 410:Generated_Source\PSoC4/UART_XB.c **** 
 411:Generated_Source\PSoC4/UART_XB.c **** /*******************************************************************************
 412:Generated_Source\PSoC4/UART_XB.c **** * Function Name: UART_XB_ScbModeStop
 413:Generated_Source\PSoC4/UART_XB.c **** ****************************************************************************//**
 414:Generated_Source\PSoC4/UART_XB.c **** *
 415:Generated_Source\PSoC4/UART_XB.c **** *  Calls the Stop function for a specific operation mode.
 416:Generated_Source\PSoC4/UART_XB.c **** *
 417:Generated_Source\PSoC4/UART_XB.c **** *******************************************************************************/
 418:Generated_Source\PSoC4/UART_XB.c **** static void UART_XB_ScbModeStop(void)
 419:Generated_Source\PSoC4/UART_XB.c **** {
  70              		.loc 1 419 0
  71              		.cfi_startproc
  72 0000 08B5     		push	{r3, lr}
  73              		.cfi_def_cfa_offset 8
  74              		.cfi_offset 3, -8
  75              		.cfi_offset 14, -4
 420:Generated_Source\PSoC4/UART_XB.c **** #if (UART_XB_SCB_MODE_UNCONFIG_CONST_CFG)
 421:Generated_Source\PSoC4/UART_XB.c ****     if (UART_XB_SCB_MODE_I2C_RUNTM_CFG)
 422:Generated_Source\PSoC4/UART_XB.c ****     {
 423:Generated_Source\PSoC4/UART_XB.c ****         UART_XB_I2CStop();
 424:Generated_Source\PSoC4/UART_XB.c ****     }
 425:Generated_Source\PSoC4/UART_XB.c ****     else if (UART_XB_SCB_MODE_EZI2C_RUNTM_CFG)
 426:Generated_Source\PSoC4/UART_XB.c ****     {
 427:Generated_Source\PSoC4/UART_XB.c ****         UART_XB_EzI2CStop();
 428:Generated_Source\PSoC4/UART_XB.c ****     }
 429:Generated_Source\PSoC4/UART_XB.c **** #if (!UART_XB_CY_SCBIP_V1)
 430:Generated_Source\PSoC4/UART_XB.c ****     else if (UART_XB_SCB_MODE_SPI_RUNTM_CFG)
 431:Generated_Source\PSoC4/UART_XB.c ****     {
 432:Generated_Source\PSoC4/UART_XB.c ****         UART_XB_SpiStop();
 433:Generated_Source\PSoC4/UART_XB.c ****     }
 434:Generated_Source\PSoC4/UART_XB.c ****     else if (UART_XB_SCB_MODE_UART_RUNTM_CFG)
 435:Generated_Source\PSoC4/UART_XB.c ****     {
 436:Generated_Source\PSoC4/UART_XB.c ****         UART_XB_UartStop();
 437:Generated_Source\PSoC4/UART_XB.c ****     }
 438:Generated_Source\PSoC4/UART_XB.c **** #endif /* (!UART_XB_CY_SCBIP_V1) */
ARM GAS  C:\Users\Petro\AppData\Local\Temp\ccGSMZYb.s 			page 10


 439:Generated_Source\PSoC4/UART_XB.c ****     else
 440:Generated_Source\PSoC4/UART_XB.c ****     {
 441:Generated_Source\PSoC4/UART_XB.c ****         /* Unknown mode: do nothing */
 442:Generated_Source\PSoC4/UART_XB.c ****     }
 443:Generated_Source\PSoC4/UART_XB.c **** #elif (UART_XB_SCB_MODE_I2C_CONST_CFG)
 444:Generated_Source\PSoC4/UART_XB.c ****     UART_XB_I2CStop();
 445:Generated_Source\PSoC4/UART_XB.c **** 
 446:Generated_Source\PSoC4/UART_XB.c **** #elif (UART_XB_SCB_MODE_EZI2C_CONST_CFG)
 447:Generated_Source\PSoC4/UART_XB.c ****     UART_XB_EzI2CStop();
 448:Generated_Source\PSoC4/UART_XB.c **** 
 449:Generated_Source\PSoC4/UART_XB.c **** #elif (UART_XB_SCB_MODE_SPI_CONST_CFG)
 450:Generated_Source\PSoC4/UART_XB.c ****     UART_XB_SpiStop();
 451:Generated_Source\PSoC4/UART_XB.c **** 
 452:Generated_Source\PSoC4/UART_XB.c **** #elif (UART_XB_SCB_MODE_UART_CONST_CFG)
 453:Generated_Source\PSoC4/UART_XB.c ****     UART_XB_UartStop();
  76              		.loc 1 453 0
  77 0002 FFF7FEFF 		bl	UART_XB_UartStop
  78              	.LVL2:
 454:Generated_Source\PSoC4/UART_XB.c **** 
 455:Generated_Source\PSoC4/UART_XB.c **** #else
 456:Generated_Source\PSoC4/UART_XB.c ****     /* Unknown mode: do nothing */
 457:Generated_Source\PSoC4/UART_XB.c **** #endif /* (UART_XB_SCB_MODE_UNCONFIG_CONST_CFG) */
 458:Generated_Source\PSoC4/UART_XB.c **** }
  79              		.loc 1 458 0
  80              		@ sp needed
  81 0006 08BD     		pop	{r3, pc}
  82              		.cfi_endproc
  83              	.LFE11:
  84              		.size	UART_XB_ScbModeStop, .-UART_XB_ScbModeStop
  85              		.section	.text.UART_XB_Init,"ax",%progbits
  86              		.align	2
  87              		.global	UART_XB_Init
  88              		.code	16
  89              		.thumb_func
  90              		.type	UART_XB_Init, %function
  91              	UART_XB_Init:
  92              	.LFB2:
 124:Generated_Source\PSoC4/UART_XB.c **** #if (UART_XB_SCB_MODE_UNCONFIG_CONST_CFG)
  93              		.loc 1 124 0
  94              		.cfi_startproc
  95 0000 08B5     		push	{r3, lr}
  96              		.cfi_def_cfa_offset 8
  97              		.cfi_offset 3, -8
  98              		.cfi_offset 14, -4
 142:Generated_Source\PSoC4/UART_XB.c **** 
  99              		.loc 1 142 0
 100 0002 FFF7FEFF 		bl	UART_XB_UartInit
 101              	.LVL3:
 148:Generated_Source\PSoC4/UART_XB.c **** 
 102              		.loc 1 148 0
 103              		@ sp needed
 104 0006 08BD     		pop	{r3, pc}
 105              		.cfi_endproc
 106              	.LFE2:
 107              		.size	UART_XB_Init, .-UART_XB_Init
 108              		.section	.text.UART_XB_Enable,"ax",%progbits
 109              		.align	2
ARM GAS  C:\Users\Petro\AppData\Local\Temp\ccGSMZYb.s 			page 11


 110              		.global	UART_XB_Enable
 111              		.code	16
 112              		.thumb_func
 113              		.type	UART_XB_Enable, %function
 114              	UART_XB_Enable:
 115              	.LFB3:
 172:Generated_Source\PSoC4/UART_XB.c **** #if (UART_XB_SCB_MODE_UNCONFIG_CONST_CFG)
 116              		.loc 1 172 0
 117              		.cfi_startproc
 118 0000 08B5     		push	{r3, lr}
 119              		.cfi_def_cfa_offset 8
 120              		.cfi_offset 3, -8
 121              		.cfi_offset 14, -4
 185:Generated_Source\PSoC4/UART_XB.c **** 
 122              		.loc 1 185 0
 123 0002 054A     		ldr	r2, .L6
 124 0004 1368     		ldr	r3, [r2]
 125 0006 8021     		mov	r1, #128
 126 0008 0906     		lsl	r1, r1, #24
 127 000a 0B43     		orr	r3, r1
 128 000c 1360     		str	r3, [r2]
 187:Generated_Source\PSoC4/UART_XB.c **** 
 129              		.loc 1 187 0
 130 000e FFF7FEFF 		bl	UART_XB_ScbEnableIntr
 131              	.LVL4:
 190:Generated_Source\PSoC4/UART_XB.c **** #endif /* (UART_XB_SCB_MODE_UNCONFIG_CONST_CFG) */
 132              		.loc 1 190 0
 133 0012 FFF7FEFF 		bl	UART_XB_ScbModePostEnable
 134              	.LVL5:
 192:Generated_Source\PSoC4/UART_XB.c **** 
 135              		.loc 1 192 0
 136              		@ sp needed
 137 0016 08BD     		pop	{r3, pc}
 138              	.L7:
 139              		.align	2
 140              	.L6:
 141 0018 00002540 		.word	1076166656
 142              		.cfi_endproc
 143              	.LFE3:
 144              		.size	UART_XB_Enable, .-UART_XB_Enable
 145              		.section	.text.UART_XB_Start,"ax",%progbits
 146              		.align	2
 147              		.global	UART_XB_Start
 148              		.code	16
 149              		.thumb_func
 150              		.type	UART_XB_Start, %function
 151              	UART_XB_Start:
 152              	.LFB4:
 211:Generated_Source\PSoC4/UART_XB.c ****     if (0u == UART_XB_initVar)
 153              		.loc 1 211 0
 154              		.cfi_startproc
 155 0000 08B5     		push	{r3, lr}
 156              		.cfi_def_cfa_offset 8
 157              		.cfi_offset 3, -8
 158              		.cfi_offset 14, -4
 212:Generated_Source\PSoC4/UART_XB.c ****     {
 159              		.loc 1 212 0
ARM GAS  C:\Users\Petro\AppData\Local\Temp\ccGSMZYb.s 			page 12


 160 0002 064B     		ldr	r3, .L10
 161 0004 1B78     		ldrb	r3, [r3]
 162 0006 002B     		cmp	r3, #0
 163 0008 04D1     		bne	.L9
 214:Generated_Source\PSoC4/UART_XB.c ****         UART_XB_initVar = 1u; /* Component was initialized */
 164              		.loc 1 214 0
 165 000a FFF7FEFF 		bl	UART_XB_Init
 166              	.LVL6:
 215:Generated_Source\PSoC4/UART_XB.c ****     }
 167              		.loc 1 215 0
 168 000e 0122     		mov	r2, #1
 169 0010 024B     		ldr	r3, .L10
 170 0012 1A70     		strb	r2, [r3]
 171              	.L9:
 218:Generated_Source\PSoC4/UART_XB.c **** }
 172              		.loc 1 218 0
 173 0014 FFF7FEFF 		bl	UART_XB_Enable
 174              	.LVL7:
 219:Generated_Source\PSoC4/UART_XB.c **** 
 175              		.loc 1 219 0
 176              		@ sp needed
 177 0018 08BD     		pop	{r3, pc}
 178              	.L11:
 179 001a C046     		.align	2
 180              	.L10:
 181 001c 00000000 		.word	.LANCHOR0
 182              		.cfi_endproc
 183              	.LFE4:
 184              		.size	UART_XB_Start, .-UART_XB_Start
 185              		.section	.text.UART_XB_Stop,"ax",%progbits
 186              		.align	2
 187              		.global	UART_XB_Stop
 188              		.code	16
 189              		.thumb_func
 190              		.type	UART_XB_Stop, %function
 191              	UART_XB_Stop:
 192              	.LFB5:
 240:Generated_Source\PSoC4/UART_XB.c **** #if (UART_XB_SCB_IRQ_INTERNAL)
 193              		.loc 1 240 0
 194              		.cfi_startproc
 195 0000 08B5     		push	{r3, lr}
 196              		.cfi_def_cfa_offset 8
 197              		.cfi_offset 3, -8
 198              		.cfi_offset 14, -4
 242:Generated_Source\PSoC4/UART_XB.c **** #endif /* (UART_XB_SCB_IRQ_INTERNAL) */
 199              		.loc 1 242 0
 200 0002 0A20     		mov	r0, #10
 201 0004 FFF7FEFF 		bl	CyIntDisable
 202              	.LVL8:
 246:Generated_Source\PSoC4/UART_XB.c **** 
 203              		.loc 1 246 0
 204 0008 FFF7FEFF 		bl	UART_XB_ScbModeStop
 205              	.LVL9:
 249:Generated_Source\PSoC4/UART_XB.c **** 
 206              		.loc 1 249 0
 207 000c 054A     		ldr	r2, .L13
 208 000e 1368     		ldr	r3, [r2]
ARM GAS  C:\Users\Petro\AppData\Local\Temp\ccGSMZYb.s 			page 13


 209 0010 5B00     		lsl	r3, r3, #1
 210 0012 5B08     		lsr	r3, r3, #1
 211 0014 1360     		str	r3, [r2]
 259:Generated_Source\PSoC4/UART_XB.c **** 
 212              		.loc 1 259 0
 213 0016 0022     		mov	r2, #0
 214 0018 034B     		ldr	r3, .L13+4
 215 001a 1A60     		str	r2, [r3]
 262:Generated_Source\PSoC4/UART_XB.c **** #endif /* (UART_XB_SCB_IRQ_INTERNAL) */
 216              		.loc 1 262 0
 217 001c 0A20     		mov	r0, #10
 218 001e FFF7FEFF 		bl	CyIntClearPending
 219              	.LVL10:
 264:Generated_Source\PSoC4/UART_XB.c **** 
 220              		.loc 1 264 0
 221              		@ sp needed
 222 0022 08BD     		pop	{r3, pc}
 223              	.L14:
 224              		.align	2
 225              	.L13:
 226 0024 00002540 		.word	1076166656
 227 0028 880F2540 		.word	1076170632
 228              		.cfi_endproc
 229              	.LFE5:
 230              		.size	UART_XB_Stop, .-UART_XB_Stop
 231              		.section	.text.UART_XB_SetRxFifoLevel,"ax",%progbits
 232              		.align	2
 233              		.global	UART_XB_SetRxFifoLevel
 234              		.code	16
 235              		.thumb_func
 236              		.type	UART_XB_SetRxFifoLevel, %function
 237              	UART_XB_SetRxFifoLevel:
 238              	.LFB6:
 280:Generated_Source\PSoC4/UART_XB.c ****     uint32 rxFifoCtrl;
 239              		.loc 1 280 0
 240              		.cfi_startproc
 241              	.LVL11:
 283:Generated_Source\PSoC4/UART_XB.c **** 
 242              		.loc 1 283 0
 243 0000 034A     		ldr	r2, .L16
 244 0002 1368     		ldr	r3, [r2]
 245              	.LVL12:
 285:Generated_Source\PSoC4/UART_XB.c ****     rxFifoCtrl |= ((uint32) (UART_XB_RX_FIFO_CTRL_TRIGGER_LEVEL_MASK & level));
 246              		.loc 1 285 0
 247 0004 0F21     		mov	r1, #15
 248 0006 8B43     		bic	r3, r1
 249              	.LVL13:
 286:Generated_Source\PSoC4/UART_XB.c **** 
 250              		.loc 1 286 0
 251 0008 0840     		and	r0, r1
 252              	.LVL14:
 253 000a 1843     		orr	r0, r3
 254              	.LVL15:
 288:Generated_Source\PSoC4/UART_XB.c **** }
 255              		.loc 1 288 0
 256 000c 1060     		str	r0, [r2]
 289:Generated_Source\PSoC4/UART_XB.c **** 
ARM GAS  C:\Users\Petro\AppData\Local\Temp\ccGSMZYb.s 			page 14


 257              		.loc 1 289 0
 258              		@ sp needed
 259 000e 7047     		bx	lr
 260              	.L17:
 261              		.align	2
 262              	.L16:
 263 0010 04032540 		.word	1076167428
 264              		.cfi_endproc
 265              	.LFE6:
 266              		.size	UART_XB_SetRxFifoLevel, .-UART_XB_SetRxFifoLevel
 267              		.section	.text.UART_XB_SetTxFifoLevel,"ax",%progbits
 268              		.align	2
 269              		.global	UART_XB_SetTxFifoLevel
 270              		.code	16
 271              		.thumb_func
 272              		.type	UART_XB_SetTxFifoLevel, %function
 273              	UART_XB_SetTxFifoLevel:
 274              	.LFB7:
 305:Generated_Source\PSoC4/UART_XB.c ****     uint32 txFifoCtrl;
 275              		.loc 1 305 0
 276              		.cfi_startproc
 277              	.LVL16:
 308:Generated_Source\PSoC4/UART_XB.c **** 
 278              		.loc 1 308 0
 279 0000 034A     		ldr	r2, .L19
 280 0002 1368     		ldr	r3, [r2]
 281              	.LVL17:
 310:Generated_Source\PSoC4/UART_XB.c ****     txFifoCtrl |= ((uint32) (UART_XB_TX_FIFO_CTRL_TRIGGER_LEVEL_MASK & level));
 282              		.loc 1 310 0
 283 0004 0F21     		mov	r1, #15
 284 0006 8B43     		bic	r3, r1
 285              	.LVL18:
 311:Generated_Source\PSoC4/UART_XB.c **** 
 286              		.loc 1 311 0
 287 0008 0840     		and	r0, r1
 288              	.LVL19:
 289 000a 1843     		orr	r0, r3
 290              	.LVL20:
 313:Generated_Source\PSoC4/UART_XB.c **** }
 291              		.loc 1 313 0
 292 000c 1060     		str	r0, [r2]
 314:Generated_Source\PSoC4/UART_XB.c **** 
 293              		.loc 1 314 0
 294              		@ sp needed
 295 000e 7047     		bx	lr
 296              	.L20:
 297              		.align	2
 298              	.L19:
 299 0010 04022540 		.word	1076167172
 300              		.cfi_endproc
 301              	.LFE7:
 302              		.size	UART_XB_SetTxFifoLevel, .-UART_XB_SetTxFifoLevel
 303              		.section	.text.UART_XB_SetCustomInterruptHandler,"ax",%progbits
 304              		.align	2
 305              		.global	UART_XB_SetCustomInterruptHandler
 306              		.code	16
 307              		.thumb_func
ARM GAS  C:\Users\Petro\AppData\Local\Temp\ccGSMZYb.s 			page 15


 308              		.type	UART_XB_SetCustomInterruptHandler, %function
 309              	UART_XB_SetCustomInterruptHandler:
 310              	.LFB8:
 336:Generated_Source\PSoC4/UART_XB.c ****     #if !defined (CY_REMOVE_UART_XB_CUSTOM_INTR_HANDLER)
 311              		.loc 1 336 0
 312              		.cfi_startproc
 313              	.LVL21:
 338:Generated_Source\PSoC4/UART_XB.c ****     #else
 314              		.loc 1 338 0
 315 0000 014B     		ldr	r3, .L22
 316 0002 5860     		str	r0, [r3, #4]
 345:Generated_Source\PSoC4/UART_XB.c **** #endif /* (UART_XB_SCB_IRQ_INTERNAL) */
 317              		.loc 1 345 0
 318              		@ sp needed
 319 0004 7047     		bx	lr
 320              	.L23:
 321 0006 C046     		.align	2
 322              	.L22:
 323 0008 00000000 		.word	.LANCHOR0
 324              		.cfi_endproc
 325              	.LFE8:
 326              		.size	UART_XB_SetCustomInterruptHandler, .-UART_XB_SetCustomInterruptHandler
 327              		.global	UART_XB_customIntrHandler
 328              		.global	UART_XB_IntrTxMask
 329              		.global	UART_XB_initVar
 330              		.bss
 331              		.align	2
 332              		.set	.LANCHOR0,. + 0
 333              		.type	UART_XB_initVar, %object
 334              		.size	UART_XB_initVar, 1
 335              	UART_XB_initVar:
 336 0000 00       		.space	1
 337 0001 000000   		.space	3
 338              		.type	UART_XB_customIntrHandler, %object
 339              		.size	UART_XB_customIntrHandler, 4
 340              	UART_XB_customIntrHandler:
 341 0004 00000000 		.space	4
 342              		.type	UART_XB_IntrTxMask, %object
 343              		.size	UART_XB_IntrTxMask, 2
 344              	UART_XB_IntrTxMask:
 345 0008 0000     		.space	2
 346 000a 0000     		.text
 347              	.Letext0:
 348              		.file 2 "Generated_Source\\PSoC4/cytypes.h"
 349              		.file 3 "Generated_Source\\PSoC4\\UART_XB_SPI_UART_PVT.h"
 350              		.file 4 "Generated_Source\\PSoC4/CyLib.h"