ARM GAS  C:\Users\Petro\AppData\Local\Temp\ccMT0U8n.s 			page 1


   1              		.cpu cortex-m0
   2              		.fpu softvfp
   3              		.eabi_attribute 20, 1
   4              		.eabi_attribute 21, 1
   5              		.eabi_attribute 23, 3
   6              		.eabi_attribute 24, 1
   7              		.eabi_attribute 25, 1
   8              		.eabi_attribute 26, 1
   9              		.eabi_attribute 30, 6
  10              		.eabi_attribute 34, 0
  11              		.eabi_attribute 18, 4
  12              		.code	16
  13              		.file	"display.c"
  14              		.text
  15              	.Ltext0:
  16              		.cfi_sections	.debug_frame
  17              		.section	.text.RTC_GetSecond,"ax",%progbits
  18              		.align	2
  19              		.code	16
  20              		.thumb_func
  21              		.type	RTC_GetSecond, %function
  22              	RTC_GetSecond:
  23              	.LFB4:
  24              		.file 1 "Generated_Source\\PSoC4/RTC.h"
   1:Generated_Source\PSoC4/RTC.h **** /***************************************************************************//**
   2:Generated_Source\PSoC4/RTC.h **** * \file Name: RTC.h
   3:Generated_Source\PSoC4/RTC.h **** * \version 1.10
   4:Generated_Source\PSoC4/RTC.h **** *
   5:Generated_Source\PSoC4/RTC.h **** * \brief
   6:Generated_Source\PSoC4/RTC.h **** *  This file provides constants and parameter values for the RTC_P4 Component.
   7:Generated_Source\PSoC4/RTC.h **** *
   8:Generated_Source\PSoC4/RTC.h **** ********************************************************************************
   9:Generated_Source\PSoC4/RTC.h **** * Copyright 2015-2016, Cypress Semiconductor Corporation.  All rights reserved.
  10:Generated_Source\PSoC4/RTC.h **** * You may use this file only in accordance with the license, terms, conditions,
  11:Generated_Source\PSoC4/RTC.h **** * disclaimers, and limitations in the end user license agreement accompanying
  12:Generated_Source\PSoC4/RTC.h **** * the software package with which this file was provided.
  13:Generated_Source\PSoC4/RTC.h **** *******************************************************************************/
  14:Generated_Source\PSoC4/RTC.h **** 
  15:Generated_Source\PSoC4/RTC.h **** #if !defined(CY_RTC_P4_RTC_H)
  16:Generated_Source\PSoC4/RTC.h **** #define CY_RTC_P4_RTC_H
  17:Generated_Source\PSoC4/RTC.h **** 
  18:Generated_Source\PSoC4/RTC.h **** #include <cytypes.h>
  19:Generated_Source\PSoC4/RTC.h **** #include <CyLib.h>
  20:Generated_Source\PSoC4/RTC.h **** 
  21:Generated_Source\PSoC4/RTC.h **** 
  22:Generated_Source\PSoC4/RTC.h **** /*******************************************************************************
  23:Generated_Source\PSoC4/RTC.h **** *    Data types definition
  24:Generated_Source\PSoC4/RTC.h **** *******************************************************************************/
  25:Generated_Source\PSoC4/RTC.h **** 
  26:Generated_Source\PSoC4/RTC.h **** typedef enum
  27:Generated_Source\PSoC4/RTC.h **** {
  28:Generated_Source\PSoC4/RTC.h ****     RTC_DST_DATE_RELATIVE = 0u,
  29:Generated_Source\PSoC4/RTC.h ****     RTC_DST_DATE_FIXED = 1u
  30:Generated_Source\PSoC4/RTC.h **** }RTC_DST_DATETYPE_ENUM;
  31:Generated_Source\PSoC4/RTC.h **** 
  32:Generated_Source\PSoC4/RTC.h **** /**
  33:Generated_Source\PSoC4/RTC.h **** * \addtogroup group_structures
ARM GAS  C:\Users\Petro\AppData\Local\Temp\ccMT0U8n.s 			page 2


  34:Generated_Source\PSoC4/RTC.h **** * @{
  35:Generated_Source\PSoC4/RTC.h **** */
  36:Generated_Source\PSoC4/RTC.h **** 
  37:Generated_Source\PSoC4/RTC.h **** /**
  38:Generated_Source\PSoC4/RTC.h **** * This is the data structure that is used to save the current time and date 
  39:Generated_Source\PSoC4/RTC.h **** * (RTC_currentTimeDate), and Alarm time and date (RTC_alarmCfgTimeDate).
  40:Generated_Source\PSoC4/RTC.h **** */
  41:Generated_Source\PSoC4/RTC.h **** typedef struct
  42:Generated_Source\PSoC4/RTC.h **** {
  43:Generated_Source\PSoC4/RTC.h ****     uint32 time;
  44:Generated_Source\PSoC4/RTC.h ****     uint32 date;
  45:Generated_Source\PSoC4/RTC.h ****     uint32 dayOfWeek;
  46:Generated_Source\PSoC4/RTC.h ****     uint32 status;
  47:Generated_Source\PSoC4/RTC.h **** }RTC_DATE_TIME;
  48:Generated_Source\PSoC4/RTC.h **** 
  49:Generated_Source\PSoC4/RTC.h **** /**
  50:Generated_Source\PSoC4/RTC.h **** * This is the data structure that is used to save time and date values for 
  51:Generated_Source\PSoC4/RTC.h **** * Daylight Savings Time Start and Stop (RTC_dstTimeDateStart and 
  52:Generated_Source\PSoC4/RTC.h **** * RTC_dstTimeDateStop).
  53:Generated_Source\PSoC4/RTC.h **** */
  54:Generated_Source\PSoC4/RTC.h **** typedef struct
  55:Generated_Source\PSoC4/RTC.h **** {
  56:Generated_Source\PSoC4/RTC.h ****     uint32 hour;
  57:Generated_Source\PSoC4/RTC.h ****     uint32 dayOfWeek;
  58:Generated_Source\PSoC4/RTC.h ****     uint32 dayOfMonth;
  59:Generated_Source\PSoC4/RTC.h ****     uint32 weekOfMonth;
  60:Generated_Source\PSoC4/RTC.h ****     uint32 month;
  61:Generated_Source\PSoC4/RTC.h ****     uint8  timeFormat;
  62:Generated_Source\PSoC4/RTC.h **** }RTC_DST_TIME;
  63:Generated_Source\PSoC4/RTC.h **** 
  64:Generated_Source\PSoC4/RTC.h **** /** @} structures */
  65:Generated_Source\PSoC4/RTC.h **** 
  66:Generated_Source\PSoC4/RTC.h **** /*******************************************************************************
  67:Generated_Source\PSoC4/RTC.h **** *    Enumerated Types and Parameters
  68:Generated_Source\PSoC4/RTC.h **** *******************************************************************************/
  69:Generated_Source\PSoC4/RTC.h **** /* Time Format setting constants */
  70:Generated_Source\PSoC4/RTC.h **** #define RTC__HOUR_12 1
  71:Generated_Source\PSoC4/RTC.h **** #define RTC__HOUR_24 0
  72:Generated_Source\PSoC4/RTC.h **** 
  73:Generated_Source\PSoC4/RTC.h **** /*  Date Format setting constants */
  74:Generated_Source\PSoC4/RTC.h **** #define RTC__MM_DD_YYYY 0
  75:Generated_Source\PSoC4/RTC.h **** #define RTC__DD_MM_YYYY 1
  76:Generated_Source\PSoC4/RTC.h **** #define RTC__YYYY_MM_DD 2
  77:Generated_Source\PSoC4/RTC.h **** 
  78:Generated_Source\PSoC4/RTC.h **** /* Date Type setting constants */
  79:Generated_Source\PSoC4/RTC.h **** #define RTC__RELATIVE 0
  80:Generated_Source\PSoC4/RTC.h **** #define RTC__FIXED 1
  81:Generated_Source\PSoC4/RTC.h **** 
  82:Generated_Source\PSoC4/RTC.h **** /* DST Hour setting constants */
  83:Generated_Source\PSoC4/RTC.h **** #define RTC__H0000 0
  84:Generated_Source\PSoC4/RTC.h **** #define RTC__H0100 1
  85:Generated_Source\PSoC4/RTC.h **** #define RTC__H0200 2
  86:Generated_Source\PSoC4/RTC.h **** #define RTC__H0300 3
  87:Generated_Source\PSoC4/RTC.h **** #define RTC__H0400 4
  88:Generated_Source\PSoC4/RTC.h **** #define RTC__H0500 5
  89:Generated_Source\PSoC4/RTC.h **** #define RTC__H0600 6
  90:Generated_Source\PSoC4/RTC.h **** #define RTC__H0700 7
ARM GAS  C:\Users\Petro\AppData\Local\Temp\ccMT0U8n.s 			page 3


  91:Generated_Source\PSoC4/RTC.h **** #define RTC__H0800 8
  92:Generated_Source\PSoC4/RTC.h **** #define RTC__H0900 9
  93:Generated_Source\PSoC4/RTC.h **** #define RTC__H1000 10
  94:Generated_Source\PSoC4/RTC.h **** #define RTC__H1100 11
  95:Generated_Source\PSoC4/RTC.h **** #define RTC__H1200 12
  96:Generated_Source\PSoC4/RTC.h **** #define RTC__H1300 13
  97:Generated_Source\PSoC4/RTC.h **** #define RTC__H1400 14
  98:Generated_Source\PSoC4/RTC.h **** #define RTC__H1500 15
  99:Generated_Source\PSoC4/RTC.h **** #define RTC__H1600 16
 100:Generated_Source\PSoC4/RTC.h **** #define RTC__H1700 17
 101:Generated_Source\PSoC4/RTC.h **** #define RTC__H1800 18
 102:Generated_Source\PSoC4/RTC.h **** #define RTC__H1900 19
 103:Generated_Source\PSoC4/RTC.h **** #define RTC__H2000 20
 104:Generated_Source\PSoC4/RTC.h **** #define RTC__H2100 21
 105:Generated_Source\PSoC4/RTC.h **** #define RTC__H2200 22
 106:Generated_Source\PSoC4/RTC.h **** #define RTC__H2300 23
 107:Generated_Source\PSoC4/RTC.h **** 
 108:Generated_Source\PSoC4/RTC.h **** /* DST DayOfWeek setting constants */
 109:Generated_Source\PSoC4/RTC.h **** #define RTC__SUNDAY 1
 110:Generated_Source\PSoC4/RTC.h **** #define RTC__MONDAY 2
 111:Generated_Source\PSoC4/RTC.h **** #define RTC__TUESDAY 3
 112:Generated_Source\PSoC4/RTC.h **** #define RTC__WEDNESDAY 4
 113:Generated_Source\PSoC4/RTC.h **** #define RTC__THURSDAY 5
 114:Generated_Source\PSoC4/RTC.h **** #define RTC__FRIDAY 6
 115:Generated_Source\PSoC4/RTC.h **** #define RTC__SATURDAY 7
 116:Generated_Source\PSoC4/RTC.h **** 
 117:Generated_Source\PSoC4/RTC.h **** /* DST Month setting constants */
 118:Generated_Source\PSoC4/RTC.h **** #define RTC__JAN 1
 119:Generated_Source\PSoC4/RTC.h **** #define RTC__FEB 2
 120:Generated_Source\PSoC4/RTC.h **** #define RTC__MAR 3
 121:Generated_Source\PSoC4/RTC.h **** #define RTC__APR 4
 122:Generated_Source\PSoC4/RTC.h **** #define RTC__MAY 5
 123:Generated_Source\PSoC4/RTC.h **** #define RTC__JUN 6
 124:Generated_Source\PSoC4/RTC.h **** #define RTC__JUL 7
 125:Generated_Source\PSoC4/RTC.h **** #define RTC__AUG 8
 126:Generated_Source\PSoC4/RTC.h **** #define RTC__SEP 9
 127:Generated_Source\PSoC4/RTC.h **** #define RTC__OCT 10
 128:Generated_Source\PSoC4/RTC.h **** #define RTC__NOV 11
 129:Generated_Source\PSoC4/RTC.h **** #define RTC__DEC 12
 130:Generated_Source\PSoC4/RTC.h **** 
 131:Generated_Source\PSoC4/RTC.h **** /* DST WeekOfMonth setting constants */
 132:Generated_Source\PSoC4/RTC.h **** #define RTC__FIRST 1
 133:Generated_Source\PSoC4/RTC.h **** #define RTC__SECOND 2
 134:Generated_Source\PSoC4/RTC.h **** #define RTC__THIRD 3
 135:Generated_Source\PSoC4/RTC.h **** #define RTC__FOURTH 4
 136:Generated_Source\PSoC4/RTC.h **** #define RTC__FIFTH 5
 137:Generated_Source\PSoC4/RTC.h **** #define RTC__LAST 6
 138:Generated_Source\PSoC4/RTC.h **** 
 139:Generated_Source\PSoC4/RTC.h **** 
 140:Generated_Source\PSoC4/RTC.h **** #define RTC_INITIAL_DATA_FORMAT     (0u)
 141:Generated_Source\PSoC4/RTC.h **** #define RTC_INITIAL_TIME_FORMAT     (0u)
 142:Generated_Source\PSoC4/RTC.h **** #define RTC_INITIAL_UPDATE_MODE     (0u)
 143:Generated_Source\PSoC4/RTC.h **** #define RTC_INITIAL_SECOND          (27u)
 144:Generated_Source\PSoC4/RTC.h **** #define RTC_INITIAL_MINUTE          (23u)
 145:Generated_Source\PSoC4/RTC.h **** #define RTC_INITIAL_HOUR            (23u)
 146:Generated_Source\PSoC4/RTC.h **** #define RTC_INITIAL_DAY             (1u)
 147:Generated_Source\PSoC4/RTC.h **** #define RTC_INITIAL_MONTH           (9u)
ARM GAS  C:\Users\Petro\AppData\Local\Temp\ccMT0U8n.s 			page 4


 148:Generated_Source\PSoC4/RTC.h **** #define RTC_INITIAL_YEAR            (2016u)
 149:Generated_Source\PSoC4/RTC.h **** 
 150:Generated_Source\PSoC4/RTC.h **** #define RTC_INITIAL_ALARM_STATUS    (0u)
 151:Generated_Source\PSoC4/RTC.h **** 
 152:Generated_Source\PSoC4/RTC.h **** #define RTC_INITIAL_DST_STATUS      (0u)
 153:Generated_Source\PSoC4/RTC.h **** #define RTC_INITIAL_DST_DATE_TYPE   (0u)
 154:Generated_Source\PSoC4/RTC.h **** #define RTC_INITIAL_DST_START_MONTH (3uL)
 155:Generated_Source\PSoC4/RTC.h **** #define RTC_INITIAL_DST_START_WOM   (6uL)
 156:Generated_Source\PSoC4/RTC.h **** #define RTC_INITIAL_DST_START_DOM   (22uL)
 157:Generated_Source\PSoC4/RTC.h **** #define RTC_INITIAL_DST_START_DOW   (1uL)
 158:Generated_Source\PSoC4/RTC.h **** #define RTC_INITIAL_DST_START_HRS   (0uL)
 159:Generated_Source\PSoC4/RTC.h **** #define RTC_INITIAL_DST_STOP_MONTH  (10uL)
 160:Generated_Source\PSoC4/RTC.h **** #define RTC_INITIAL_DST_STOP_DOM    (22uL)
 161:Generated_Source\PSoC4/RTC.h **** #define RTC_INITIAL_DST_STOP_DOW    (1uL)
 162:Generated_Source\PSoC4/RTC.h **** #define RTC_INITIAL_DST_STOP_WOM    (6uL)
 163:Generated_Source\PSoC4/RTC.h **** #define RTC_INITIAL_DST_STOP_HRS    (0uL)
 164:Generated_Source\PSoC4/RTC.h **** 
 165:Generated_Source\PSoC4/RTC.h **** /* Day of week definitions */
 166:Generated_Source\PSoC4/RTC.h **** #define RTC_SUNDAY     (RTC__SUNDAY)
 167:Generated_Source\PSoC4/RTC.h **** #define RTC_MONDAY     (RTC__MONDAY)
 168:Generated_Source\PSoC4/RTC.h **** #define RTC_TUESDAY    (RTC__TUESDAY)
 169:Generated_Source\PSoC4/RTC.h **** #define RTC_WEDNESDAY  (RTC__WEDNESDAY)
 170:Generated_Source\PSoC4/RTC.h **** #define RTC_THURSDAY   (RTC__THURSDAY)
 171:Generated_Source\PSoC4/RTC.h **** #define RTC_FRIDAY     (RTC__FRIDAY)
 172:Generated_Source\PSoC4/RTC.h **** #define RTC_SATURDAY   (RTC__SATURDAY)
 173:Generated_Source\PSoC4/RTC.h **** 
 174:Generated_Source\PSoC4/RTC.h **** /* DST WeekOfMonth setting constants definitions */
 175:Generated_Source\PSoC4/RTC.h **** #define RTC_FIRST      (RTC__FIRST)
 176:Generated_Source\PSoC4/RTC.h **** #define RTC_SECOND     (RTC__SECOND)
 177:Generated_Source\PSoC4/RTC.h **** #define RTC_THIRD      (RTC__THIRD)
 178:Generated_Source\PSoC4/RTC.h **** #define RTC_FOURTH     (RTC__FOURTH)
 179:Generated_Source\PSoC4/RTC.h **** #define RTC_FIFTH      (RTC__FIFTH)
 180:Generated_Source\PSoC4/RTC.h **** #define RTC_LAST       (RTC__LAST)
 181:Generated_Source\PSoC4/RTC.h **** 
 182:Generated_Source\PSoC4/RTC.h **** /* Month definitions */
 183:Generated_Source\PSoC4/RTC.h **** #define RTC_JANUARY    (RTC__JAN)
 184:Generated_Source\PSoC4/RTC.h **** #define RTC_FEBRUARY   (RTC__FEB)
 185:Generated_Source\PSoC4/RTC.h **** #define RTC_MARCH      (RTC__MAR)
 186:Generated_Source\PSoC4/RTC.h **** #define RTC_APRIL      (RTC__APR)
 187:Generated_Source\PSoC4/RTC.h **** #define RTC_MAY        (RTC__MAY)
 188:Generated_Source\PSoC4/RTC.h **** #define RTC_JUNE       (RTC__JUN)
 189:Generated_Source\PSoC4/RTC.h **** #define RTC_JULY       (RTC__JUL)
 190:Generated_Source\PSoC4/RTC.h **** #define RTC_AUGUST     (RTC__AUG)
 191:Generated_Source\PSoC4/RTC.h **** #define RTC_SEPTEMBER  (RTC__SEP)
 192:Generated_Source\PSoC4/RTC.h **** #define RTC_OCTOBER    (RTC__OCT)
 193:Generated_Source\PSoC4/RTC.h **** #define RTC_NOVEMBER   (RTC__NOV)
 194:Generated_Source\PSoC4/RTC.h **** #define RTC_DECEMBER   (RTC__DEC)
 195:Generated_Source\PSoC4/RTC.h **** 
 196:Generated_Source\PSoC4/RTC.h **** #define RTC_DAYS_PER_WEEK       (7u)
 197:Generated_Source\PSoC4/RTC.h **** 
 198:Generated_Source\PSoC4/RTC.h **** /* Number of days in month definitions */
 199:Generated_Source\PSoC4/RTC.h **** #define RTC_DAYS_IN_JANUARY     (31u)
 200:Generated_Source\PSoC4/RTC.h **** #define RTC_DAYS_IN_FEBRUARY    (28u)
 201:Generated_Source\PSoC4/RTC.h **** #define RTC_DAYS_IN_MARCH       (31u)
 202:Generated_Source\PSoC4/RTC.h **** #define RTC_DAYS_IN_APRIL       (30u)
 203:Generated_Source\PSoC4/RTC.h **** #define RTC_DAYS_IN_MAY         (31u)
 204:Generated_Source\PSoC4/RTC.h **** #define RTC_DAYS_IN_JUNE        (30u)
ARM GAS  C:\Users\Petro\AppData\Local\Temp\ccMT0U8n.s 			page 5


 205:Generated_Source\PSoC4/RTC.h **** #define RTC_DAYS_IN_JULY        (31u)
 206:Generated_Source\PSoC4/RTC.h **** #define RTC_DAYS_IN_AUGUST      (31u)
 207:Generated_Source\PSoC4/RTC.h **** #define RTC_DAYS_IN_SEPTEMBER   (30u)
 208:Generated_Source\PSoC4/RTC.h **** #define RTC_DAYS_IN_OCTOBER     (31u)
 209:Generated_Source\PSoC4/RTC.h **** #define RTC_DAYS_IN_NOVEMBER    (30u)
 210:Generated_Source\PSoC4/RTC.h **** #define RTC_DAYS_IN_DECEMBER    (31u)
 211:Generated_Source\PSoC4/RTC.h **** 
 212:Generated_Source\PSoC4/RTC.h **** #define RTC_MONTHS_PER_YEAR     (12uL)
 213:Generated_Source\PSoC4/RTC.h **** 
 214:Generated_Source\PSoC4/RTC.h **** #define RTC_HOURS_PER_DAY       (24uL)
 215:Generated_Source\PSoC4/RTC.h **** #define RTC_HOURS_PER_HALF_DAY  (12uL)
 216:Generated_Source\PSoC4/RTC.h **** 
 217:Generated_Source\PSoC4/RTC.h **** #define RTC_SECONDS_PER_MINUTE  (60uL)
 218:Generated_Source\PSoC4/RTC.h **** #define RTC_SECONDS_PER_HOUR    (3600uL)
 219:Generated_Source\PSoC4/RTC.h **** #define RTC_SECONDS_PER_DAY     (24uL * 3600uL)
 220:Generated_Source\PSoC4/RTC.h **** 
 221:Generated_Source\PSoC4/RTC.h **** #define RTC_SECONDS_PER_LEAP_YEAR    (366uL * 24uL * 3600uL)
 222:Generated_Source\PSoC4/RTC.h **** #define RTC_SECONDS_PER_NONLEAP_YEAR (365uL * 24uL * 3600uL)
 223:Generated_Source\PSoC4/RTC.h **** 
 224:Generated_Source\PSoC4/RTC.h **** #define RTC_UNIX_TIME_PM   ((12uL * 3600uL) + 1uL)
 225:Generated_Source\PSoC4/RTC.h **** 
 226:Generated_Source\PSoC4/RTC.h **** /* AM/PM status definitions */
 227:Generated_Source\PSoC4/RTC.h **** #define RTC_AM                 (0u)
 228:Generated_Source\PSoC4/RTC.h **** #define RTC_PM                 (1u)
 229:Generated_Source\PSoC4/RTC.h **** 
 230:Generated_Source\PSoC4/RTC.h **** /* Time format definitions */
 231:Generated_Source\PSoC4/RTC.h **** #define RTC_12_HOURS_FORMAT    (RTC__HOUR_12)
 232:Generated_Source\PSoC4/RTC.h **** #define RTC_24_HOURS_FORMAT    (RTC__HOUR_24)
 233:Generated_Source\PSoC4/RTC.h **** 
 234:Generated_Source\PSoC4/RTC.h **** /* UNIX time begins in 1970 year.  */
 235:Generated_Source\PSoC4/RTC.h **** #define RTC_YEAR_0             (1970u)
 236:Generated_Source\PSoC4/RTC.h **** 
 237:Generated_Source\PSoC4/RTC.h **** /* Definition of date register fields */
 238:Generated_Source\PSoC4/RTC.h **** #if(RTC_INITIAL_DATA_FORMAT == RTC__MM_DD_YYYY)
 239:Generated_Source\PSoC4/RTC.h ****     #define RTC_10_MONTH_OFFSET   (28u)
 240:Generated_Source\PSoC4/RTC.h ****     #define RTC_MONTH_OFFSET      (24u)
 241:Generated_Source\PSoC4/RTC.h ****     #define RTC_10_DAY_OFFSET     (20u)
 242:Generated_Source\PSoC4/RTC.h ****     #define RTC_DAY_OFFSET        (16u)
 243:Generated_Source\PSoC4/RTC.h ****     #define RTC_1000_YEAR_OFFSET  (12u)
 244:Generated_Source\PSoC4/RTC.h ****     #define RTC_100_YEAR_OFFSET   (8u)
 245:Generated_Source\PSoC4/RTC.h ****     #define RTC_10_YEAR_OFFSET    (4u)
 246:Generated_Source\PSoC4/RTC.h ****     #define RTC_YEAR_OFFSET       (0u)
 247:Generated_Source\PSoC4/RTC.h **** #elif(RTC_INITIAL_DATA_FORMAT == RTC__DD_MM_YYYY)
 248:Generated_Source\PSoC4/RTC.h ****     #define RTC_10_MONTH_OFFSET   (20u)
 249:Generated_Source\PSoC4/RTC.h ****     #define RTC_MONTH_OFFSET      (16u)
 250:Generated_Source\PSoC4/RTC.h ****     #define RTC_10_DAY_OFFSET     (28u)
 251:Generated_Source\PSoC4/RTC.h ****     #define RTC_DAY_OFFSET        (24u)
 252:Generated_Source\PSoC4/RTC.h ****     #define RTC_1000_YEAR_OFFSET  (12u)
 253:Generated_Source\PSoC4/RTC.h ****     #define RTC_100_YEAR_OFFSET   (8u)
 254:Generated_Source\PSoC4/RTC.h ****     #define RTC_10_YEAR_OFFSET    (4u)
 255:Generated_Source\PSoC4/RTC.h ****     #define RTC_YEAR_OFFSET       (0u)
 256:Generated_Source\PSoC4/RTC.h **** #else
 257:Generated_Source\PSoC4/RTC.h ****     #define RTC_10_MONTH_OFFSET   (12u)
 258:Generated_Source\PSoC4/RTC.h ****     #define RTC_MONTH_OFFSET      (8u)
 259:Generated_Source\PSoC4/RTC.h ****     #define RTC_10_DAY_OFFSET     (4u)
 260:Generated_Source\PSoC4/RTC.h ****     #define RTC_DAY_OFFSET        (0u)
 261:Generated_Source\PSoC4/RTC.h ****     #define RTC_1000_YEAR_OFFSET  (28u)
ARM GAS  C:\Users\Petro\AppData\Local\Temp\ccMT0U8n.s 			page 6


 262:Generated_Source\PSoC4/RTC.h ****     #define RTC_100_YEAR_OFFSET   (24u)
 263:Generated_Source\PSoC4/RTC.h ****     #define RTC_10_YEAR_OFFSET    (20u)
 264:Generated_Source\PSoC4/RTC.h ****     #define RTC_YEAR_OFFSET       (16u)
 265:Generated_Source\PSoC4/RTC.h **** #endif /* (RTC_INITIAL_DATA_FORMAT == RTC__MM_DD_YYYY) */
 266:Generated_Source\PSoC4/RTC.h **** 
 267:Generated_Source\PSoC4/RTC.h **** #define RTC_10_MONTH_MASK          (0x00000001uL << RTC_10_MONTH_OFFSET)
 268:Generated_Source\PSoC4/RTC.h **** #define RTC_MONTH_MASK             (0x0000000FuL << RTC_MONTH_OFFSET)
 269:Generated_Source\PSoC4/RTC.h **** #define RTC_10_DAY_MASK            (0x00000003uL << RTC_10_DAY_OFFSET)
 270:Generated_Source\PSoC4/RTC.h **** #define RTC_DAY_MASK               (0x0000000FuL << RTC_DAY_OFFSET)
 271:Generated_Source\PSoC4/RTC.h **** #define RTC_1000_YEAR_MASK         (0x00000003uL << RTC_1000_YEAR_OFFSET)
 272:Generated_Source\PSoC4/RTC.h **** #define RTC_100_YEAR_MASK          (0x0000000FuL << RTC_100_YEAR_OFFSET)
 273:Generated_Source\PSoC4/RTC.h **** #define RTC_10_YEAR_MASK           (0x0000000FuL << RTC_10_YEAR_OFFSET)
 274:Generated_Source\PSoC4/RTC.h **** #define RTC_YEAR_MASK              (0x0000000FuL << RTC_YEAR_OFFSET)
 275:Generated_Source\PSoC4/RTC.h **** 
 276:Generated_Source\PSoC4/RTC.h **** #define  RTC_MONTH_FULL_MASK       (RTC_10_MONTH_MASK  | RTC_MONTH_MASK)
 277:Generated_Source\PSoC4/RTC.h **** #define  RTC_DAY_FULL_MASK         (RTC_10_DAY_MASK    | RTC_DAY_MASK)
 278:Generated_Source\PSoC4/RTC.h **** #define  RTC_YEAR_FULL_MASK        (RTC_1000_YEAR_MASK | RTC_100_YEAR_MASK |\
 279:Generated_Source\PSoC4/RTC.h ****                                                  RTC_10_YEAR_MASK   | RTC_YEAR_MASK)
 280:Generated_Source\PSoC4/RTC.h **** 
 281:Generated_Source\PSoC4/RTC.h **** 
 282:Generated_Source\PSoC4/RTC.h **** /* Definition of time register fields */
 283:Generated_Source\PSoC4/RTC.h **** #define RTC_TIME_FORMAT_OFFSET     (23u)
 284:Generated_Source\PSoC4/RTC.h **** #define RTC_PERIOD_OF_DAY_OFFSET   (22u)
 285:Generated_Source\PSoC4/RTC.h **** #define RTC_10_HOURS_OFFSET        (20u)
 286:Generated_Source\PSoC4/RTC.h **** #define RTC_HOURS_OFFSET           (16u)
 287:Generated_Source\PSoC4/RTC.h **** #define RTC_10_MINUTES_OFFSET      (12u)
 288:Generated_Source\PSoC4/RTC.h **** #define RTC_MINUTES_OFFSET         (8u)
 289:Generated_Source\PSoC4/RTC.h **** #define RTC_10_SECONDS_OFFSET      (4u)
 290:Generated_Source\PSoC4/RTC.h **** #define RTC_SECONDS_OFFSET         (0u)
 291:Generated_Source\PSoC4/RTC.h **** 
 292:Generated_Source\PSoC4/RTC.h **** #define RTC_TIME_FORMAT_MASK       (0x00000001uL << RTC_TIME_FORMAT_OFFSET)
 293:Generated_Source\PSoC4/RTC.h **** #define RTC_PERIOD_OF_DAY_MASK     (0x00000001uL << RTC_PERIOD_OF_DAY_OFFSET)
 294:Generated_Source\PSoC4/RTC.h **** #define RTC_10_HOURS_MASK          (0x00000003uL << RTC_10_HOURS_OFFSET)
 295:Generated_Source\PSoC4/RTC.h **** #define RTC_HOURS_MASK             (0x0000000FuL << RTC_HOURS_OFFSET)
 296:Generated_Source\PSoC4/RTC.h **** #define RTC_10_MINUTES_MASK        (0x00000007uL << RTC_10_MINUTES_OFFSET)
 297:Generated_Source\PSoC4/RTC.h **** #define RTC_MINUTES_MASK           (0x0000000FuL << RTC_MINUTES_OFFSET)
 298:Generated_Source\PSoC4/RTC.h **** #define RTC_10_SECONDS_MASK        (0x00000007uL << RTC_10_SECONDS_OFFSET)
 299:Generated_Source\PSoC4/RTC.h **** #define RTC_SECONDS_MASK           (0x0000000FuL << RTC_SECONDS_OFFSET)
 300:Generated_Source\PSoC4/RTC.h **** 
 301:Generated_Source\PSoC4/RTC.h **** #define RTC_HOURS_FULL_MASK        (RTC_10_HOURS_MASK   | RTC_HOURS_MASK)
 302:Generated_Source\PSoC4/RTC.h **** #define RTC_MINUTES_FULL_MASK      (RTC_10_MINUTES_MASK | RTC_MINUTES_MASK)
 303:Generated_Source\PSoC4/RTC.h **** #define RTC_SECONDS_FULL_MASK      (RTC_10_SECONDS_MASK | RTC_SECONDS_MASK)
 304:Generated_Source\PSoC4/RTC.h **** 
 305:Generated_Source\PSoC4/RTC.h **** #define RTC_ALARM_SEC_MASK         (0x00000001uL)
 306:Generated_Source\PSoC4/RTC.h **** #define RTC_ALARM_MIN_MASK         (0x00000002uL)
 307:Generated_Source\PSoC4/RTC.h **** #define RTC_ALARM_HOUR_MASK        (0x00000004uL)
 308:Generated_Source\PSoC4/RTC.h **** #define RTC_ALARM_DAYOFWEEK_MASK   (0x00000008uL)
 309:Generated_Source\PSoC4/RTC.h **** #define RTC_ALARM_DAYOFMONTH_MASK  (0x00000010uL)
 310:Generated_Source\PSoC4/RTC.h **** #define RTC_ALARM_MONTH_MASK       (0x00000020uL)
 311:Generated_Source\PSoC4/RTC.h **** #define RTC_ALARM_YEAR_MASK        (0x00000040uL)
 312:Generated_Source\PSoC4/RTC.h **** 
 313:Generated_Source\PSoC4/RTC.h **** #define RTC_STATUS_DST_OFFSET      (1u)
 314:Generated_Source\PSoC4/RTC.h **** #define RTC_STATUS_ALARM_OFFSET    (2u)
 315:Generated_Source\PSoC4/RTC.h **** #define RTC_STATUS_LY_OFFSET       (3u)
 316:Generated_Source\PSoC4/RTC.h **** #define RTC_STATUS_AM_PM_OFFSET    (4u)
 317:Generated_Source\PSoC4/RTC.h **** 
 318:Generated_Source\PSoC4/RTC.h **** /* Definition of the RTC status values. */
ARM GAS  C:\Users\Petro\AppData\Local\Temp\ccMT0U8n.s 			page 7


 319:Generated_Source\PSoC4/RTC.h **** #define RTC_STATUS_DST             (1uL << RTC_STATUS_DST_OFFSET)
 320:Generated_Source\PSoC4/RTC.h **** #define RTC_STATUS_LY              (1uL << RTC_STATUS_LY_OFFSET)
 321:Generated_Source\PSoC4/RTC.h **** #define RTC_STATUS_AM_PM           (1uL << RTC_STATUS_AM_PM_OFFSET)
 322:Generated_Source\PSoC4/RTC.h **** 
 323:Generated_Source\PSoC4/RTC.h **** /* Number of bits per one BCD digit. */
 324:Generated_Source\PSoC4/RTC.h **** #define RTC_BCD_NUMBER_SIZE        (4u)
 325:Generated_Source\PSoC4/RTC.h **** #define RTC_BCD_ONE_DIGIT_MASK     (0x0000000FuL)
 326:Generated_Source\PSoC4/RTC.h **** 
 327:Generated_Source\PSoC4/RTC.h **** /*******************************************************************************
 328:Generated_Source\PSoC4/RTC.h **** *    Function Prototypes
 329:Generated_Source\PSoC4/RTC.h **** *******************************************************************************/
 330:Generated_Source\PSoC4/RTC.h **** /**
 331:Generated_Source\PSoC4/RTC.h **** * \addtogroup group_api
 332:Generated_Source\PSoC4/RTC.h **** * @{
 333:Generated_Source\PSoC4/RTC.h **** */
 334:Generated_Source\PSoC4/RTC.h **** void   RTC_Start(void);
 335:Generated_Source\PSoC4/RTC.h **** void   RTC_Stop(void);
 336:Generated_Source\PSoC4/RTC.h **** void   RTC_Init(void);
 337:Generated_Source\PSoC4/RTC.h **** void   RTC_SetUnixTime(uint64 unixTime);
 338:Generated_Source\PSoC4/RTC.h **** uint64 RTC_GetUnixTime(void);
 339:Generated_Source\PSoC4/RTC.h **** void   RTC_SetPeriod(uint32 ticks, uint32 refOneSecTicks);
 340:Generated_Source\PSoC4/RTC.h **** uint32 RTC_GetPeriod(void);
 341:Generated_Source\PSoC4/RTC.h **** uint32 RTC_GetRefOneSec(void);
 342:Generated_Source\PSoC4/RTC.h **** void   RTC_SetDateAndTime(uint32 inputTime, uint32 inputDate);
 343:Generated_Source\PSoC4/RTC.h **** void   RTC_GetDateAndTime(RTC_DATE_TIME* dateTime);
 344:Generated_Source\PSoC4/RTC.h **** uint32 RTC_GetTime(void);
 345:Generated_Source\PSoC4/RTC.h **** uint32 RTC_GetDate(void);
 346:Generated_Source\PSoC4/RTC.h **** void   RTC_SetAlarmDateAndTime(const RTC_DATE_TIME* alarmTime);
 347:Generated_Source\PSoC4/RTC.h **** void   RTC_GetAlarmDateAndTime(RTC_DATE_TIME* alarmTimeDate);
 348:Generated_Source\PSoC4/RTC.h **** void   RTC_SetAlarmMask(uint32 mask);
 349:Generated_Source\PSoC4/RTC.h **** uint32 RTC_GetAlarmMask(void);
 350:Generated_Source\PSoC4/RTC.h **** uint32 RTC_ReadStatus(void);
 351:Generated_Source\PSoC4/RTC.h **** uint32 RTC_GetAlarmStatus(void);
 352:Generated_Source\PSoC4/RTC.h **** void   RTC_ClearAlarmStatus(void);
 353:Generated_Source\PSoC4/RTC.h **** void   RTC_SetDSTStartTime(const RTC_DST_TIME* dstStartTime,
 354:Generated_Source\PSoC4/RTC.h ****                                               RTC_DST_DATETYPE_ENUM type);
 355:Generated_Source\PSoC4/RTC.h **** void   RTC_SetDSTStopTime(const RTC_DST_TIME* dstStopTime,
 356:Generated_Source\PSoC4/RTC.h ****                                              RTC_DST_DATETYPE_ENUM type);
 357:Generated_Source\PSoC4/RTC.h **** uint32 RTC_ConvertBCDToDec(uint32 bcdNum);
 358:Generated_Source\PSoC4/RTC.h **** uint32 RTC_ConvertDecToBCD(uint32 decNum);
 359:Generated_Source\PSoC4/RTC.h **** void   RTC_Update(void);
 360:Generated_Source\PSoC4/RTC.h **** void*  RTC_SetAlarmHandler(void (*CallbackFunction)(void));
 361:Generated_Source\PSoC4/RTC.h **** 
 362:Generated_Source\PSoC4/RTC.h **** static uint32 RTC_ConstructDate(uint32 month, uint32 day, uint32 year);
 363:Generated_Source\PSoC4/RTC.h **** static uint32 RTC_ConstructTime(uint32 timeFormat, uint32 stateAmPm, uint32 hour, uint32 min, uint3
 364:Generated_Source\PSoC4/RTC.h **** /** @} api */
 365:Generated_Source\PSoC4/RTC.h **** 
 366:Generated_Source\PSoC4/RTC.h **** static uint32 RTC_GetTimeFormat(uint32 inputTime);
 367:Generated_Source\PSoC4/RTC.h **** static uint32 RTC_SetTimeFormat(uint32 inputTime, uint32 timeFormat);
 368:Generated_Source\PSoC4/RTC.h **** 
 369:Generated_Source\PSoC4/RTC.h **** /**
 370:Generated_Source\PSoC4/RTC.h **** * \addtogroup group_api
 371:Generated_Source\PSoC4/RTC.h **** * @{
 372:Generated_Source\PSoC4/RTC.h **** */
 373:Generated_Source\PSoC4/RTC.h **** static uint32 RTC_LeapYear(uint32 year);
 374:Generated_Source\PSoC4/RTC.h **** static uint32 RTC_IsBitSet(uint32 var, uint32 mask);
 375:Generated_Source\PSoC4/RTC.h **** static uint32 RTC_GetSecond(uint32 inputTime);
ARM GAS  C:\Users\Petro\AppData\Local\Temp\ccMT0U8n.s 			page 8


 376:Generated_Source\PSoC4/RTC.h **** static uint32 RTC_GetMinutes(uint32 inputTime);
 377:Generated_Source\PSoC4/RTC.h **** static uint32 RTC_GetHours(uint32 inputTime);
 378:Generated_Source\PSoC4/RTC.h **** static uint32 RTC_GetAmPm(uint32 inputTime);
 379:Generated_Source\PSoC4/RTC.h **** static uint32 RTC_GetDay(uint32 date);
 380:Generated_Source\PSoC4/RTC.h **** static uint32 RTC_GetMonth(uint32 date);
 381:Generated_Source\PSoC4/RTC.h **** static uint32 RTC_GetYear(uint32 date);
 382:Generated_Source\PSoC4/RTC.h **** /** @} api */
 383:Generated_Source\PSoC4/RTC.h **** 
 384:Generated_Source\PSoC4/RTC.h **** static uint32 RTC_SetSecond(uint32 inputTime, uint32 inputSecond);
 385:Generated_Source\PSoC4/RTC.h **** static uint32 RTC_SetMinutes(uint32 inputTime, uint32 inputMinute);
 386:Generated_Source\PSoC4/RTC.h **** static uint32 RTC_SetHours(uint32 inputTime, uint32 inputHours);
 387:Generated_Source\PSoC4/RTC.h **** static uint32 RTC_SetAmPm(uint32 inputTime, uint32 periodOfDay);
 388:Generated_Source\PSoC4/RTC.h **** static uint32 RTC_SetDay(uint32 inputDate, uint32 inputDay);
 389:Generated_Source\PSoC4/RTC.h **** static uint32 RTC_SetMonth(uint32 inputDate, uint32 inputMonth);
 390:Generated_Source\PSoC4/RTC.h **** static uint32 RTC_SetYear(uint32 inputDate, uint32 inputYear);
 391:Generated_Source\PSoC4/RTC.h **** 
 392:Generated_Source\PSoC4/RTC.h **** uint64 RTC_ConstructUnixAlarmTime(const RTC_DATE_TIME* alarmTime, uint8 alarmCfgMask);
 393:Generated_Source\PSoC4/RTC.h **** uint64 RTC_GetDstUnixTime(const RTC_DST_TIME* dstTime);
 394:Generated_Source\PSoC4/RTC.h **** uint64 RTC_GetNexAlarmTime(uint64 curUnixTime, uint8 alarmCfgMask);
 395:Generated_Source\PSoC4/RTC.h **** 
 396:Generated_Source\PSoC4/RTC.h **** static uint32 RTC_GetNextMinSec(uint32 curVal);
 397:Generated_Source\PSoC4/RTC.h **** static uint32 RTC_GetNextHour(uint32 curVal);
 398:Generated_Source\PSoC4/RTC.h **** static uint32 RTC_GetNextDay(uint32 curYear, uint32 curMonth, uint32 curDay, uint32 alarmCfgMask);
 399:Generated_Source\PSoC4/RTC.h **** static uint32 RTC_GetNextMonth(uint32 curMonth);
 400:Generated_Source\PSoC4/RTC.h **** static uint32 RTC_GetNextYear(uint32 curYear);
 401:Generated_Source\PSoC4/RTC.h **** static uint32 RTC_GetDayOfWeek(uint32 day, uint32 month, uint32 year);
 402:Generated_Source\PSoC4/RTC.h **** 
 403:Generated_Source\PSoC4/RTC.h **** uint32 RTC_DaysInMonth(uint32 month, uint32 year);
 404:Generated_Source\PSoC4/RTC.h **** uint32 RTC_DaysBeforeMonth(uint32 month, uint32 year);
 405:Generated_Source\PSoC4/RTC.h **** 
 406:Generated_Source\PSoC4/RTC.h **** /**
 407:Generated_Source\PSoC4/RTC.h **** * \addtogroup group_api
 408:Generated_Source\PSoC4/RTC.h **** * @{
 409:Generated_Source\PSoC4/RTC.h **** */
 410:Generated_Source\PSoC4/RTC.h **** void   RTC_UnixToDateTime(RTC_DATE_TIME* dateTime, uint64 unixTime, uint32 timeFormat);
 411:Generated_Source\PSoC4/RTC.h **** uint64 RTC_DateTimeToUnix(uint32 inputDate, uint32 inputTime);
 412:Generated_Source\PSoC4/RTC.h **** /** @} api */
 413:Generated_Source\PSoC4/RTC.h **** 
 414:Generated_Source\PSoC4/RTC.h **** uint32 RTC_RelativeToFixed(uint32 dayOfWeek, uint32 weekOfMonth, uint32 month, uint32 year);
 415:Generated_Source\PSoC4/RTC.h **** 
 416:Generated_Source\PSoC4/RTC.h **** 
 417:Generated_Source\PSoC4/RTC.h **** #if defined(CYDEV_RTC_SOURCE_WDT)
 418:Generated_Source\PSoC4/RTC.h ****     #if((0u != CYDEV_WDT_GENERATE_ISR) && (0u == RTC_INITIAL_UPDATE_MODE))
 419:Generated_Source\PSoC4/RTC.h ****         static void RTC_CySysRtcSetCallback(uint32 wdtNumber);
 420:Generated_Source\PSoC4/RTC.h ****         static void RTC_CySysRtcResetCallback(uint32 wdtNumber);
 421:Generated_Source\PSoC4/RTC.h ****     #endif /* ((0u != CYDEV_WDT_GENERATE_ISR) && (0u == RTC_INITIAL_UPDATE_MODE)) */
 422:Generated_Source\PSoC4/RTC.h **** #endif /* (CYDEV_RTC_SOURCE_WDT) */
 423:Generated_Source\PSoC4/RTC.h **** 
 424:Generated_Source\PSoC4/RTC.h **** /*******************************************************************************
 425:Generated_Source\PSoC4/RTC.h **** * Function Name: RTC_IsBitSet
 426:Generated_Source\PSoC4/RTC.h **** ****************************************************************************//**
 427:Generated_Source\PSoC4/RTC.h **** *
 428:Generated_Source\PSoC4/RTC.h **** * \brief
 429:Generated_Source\PSoC4/RTC.h **** *  Checks the state of a bit passed through parameter.
 430:Generated_Source\PSoC4/RTC.h **** *
 431:Generated_Source\PSoC4/RTC.h **** * \param
 432:Generated_Source\PSoC4/RTC.h **** *  var The variable to be checked.
ARM GAS  C:\Users\Petro\AppData\Local\Temp\ccMT0U8n.s 			page 9


 433:Generated_Source\PSoC4/RTC.h **** * \param
 434:Generated_Source\PSoC4/RTC.h **** *  mask The mask for a bit to be checked.
 435:Generated_Source\PSoC4/RTC.h **** *
 436:Generated_Source\PSoC4/RTC.h **** * \return
 437:Generated_Source\PSoC4/RTC.h **** *  0u - Bit is not set.
 438:Generated_Source\PSoC4/RTC.h **** * \return
 439:Generated_Source\PSoC4/RTC.h **** *  1u - Bit is set.
 440:Generated_Source\PSoC4/RTC.h **** *
 441:Generated_Source\PSoC4/RTC.h **** *******************************************************************************/
 442:Generated_Source\PSoC4/RTC.h **** static CY_INLINE uint32 RTC_IsBitSet(uint32 var, uint32 mask)
 443:Generated_Source\PSoC4/RTC.h **** {
 444:Generated_Source\PSoC4/RTC.h ****     return ((mask == (var & mask)) ? 1Lu : 0Lu);
 445:Generated_Source\PSoC4/RTC.h **** }
 446:Generated_Source\PSoC4/RTC.h **** 
 447:Generated_Source\PSoC4/RTC.h **** 
 448:Generated_Source\PSoC4/RTC.h **** /*******************************************************************************
 449:Generated_Source\PSoC4/RTC.h **** * Function Name: RTC_LeapYear
 450:Generated_Source\PSoC4/RTC.h **** ****************************************************************************//**
 451:Generated_Source\PSoC4/RTC.h **** *
 452:Generated_Source\PSoC4/RTC.h **** * \brief
 453:Generated_Source\PSoC4/RTC.h **** * Checks whether the year passed through the parameter is
 454:Generated_Source\PSoC4/RTC.h **** * leap or no.
 455:Generated_Source\PSoC4/RTC.h **** *
 456:Generated_Source\PSoC4/RTC.h **** * \param
 457:Generated_Source\PSoC4/RTC.h **** *  year The year to be checked.
 458:Generated_Source\PSoC4/RTC.h **** *
 459:Generated_Source\PSoC4/RTC.h **** *
 460:Generated_Source\PSoC4/RTC.h **** * \return
 461:Generated_Source\PSoC4/RTC.h **** *  0u - The year is not leap.
 462:Generated_Source\PSoC4/RTC.h **** * \return
 463:Generated_Source\PSoC4/RTC.h **** *  1u - The year is leap.
 464:Generated_Source\PSoC4/RTC.h **** *
 465:Generated_Source\PSoC4/RTC.h **** *******************************************************************************/
 466:Generated_Source\PSoC4/RTC.h **** static CY_INLINE uint32 RTC_LeapYear(uint32 year)
 467:Generated_Source\PSoC4/RTC.h **** {
 468:Generated_Source\PSoC4/RTC.h ****     uint32 retVal;
 469:Generated_Source\PSoC4/RTC.h **** 
 470:Generated_Source\PSoC4/RTC.h ****     if(((0u == (year % 4Lu)) && (0u != (year % 100Lu))) || (0u == (year % 400Lu)))
 471:Generated_Source\PSoC4/RTC.h ****     {
 472:Generated_Source\PSoC4/RTC.h ****         retVal = 1uL;
 473:Generated_Source\PSoC4/RTC.h ****     }
 474:Generated_Source\PSoC4/RTC.h ****     else
 475:Generated_Source\PSoC4/RTC.h ****     {
 476:Generated_Source\PSoC4/RTC.h ****         retVal = 0uL;
 477:Generated_Source\PSoC4/RTC.h ****     }
 478:Generated_Source\PSoC4/RTC.h **** 
 479:Generated_Source\PSoC4/RTC.h ****     return(retVal);
 480:Generated_Source\PSoC4/RTC.h **** }
 481:Generated_Source\PSoC4/RTC.h **** 
 482:Generated_Source\PSoC4/RTC.h **** 
 483:Generated_Source\PSoC4/RTC.h **** /*******************************************************************************
 484:Generated_Source\PSoC4/RTC.h **** * Function Name: RTC_GetSecond
 485:Generated_Source\PSoC4/RTC.h **** ****************************************************************************//**
 486:Generated_Source\PSoC4/RTC.h **** *
 487:Generated_Source\PSoC4/RTC.h **** * \brief
 488:Generated_Source\PSoC4/RTC.h **** *  Returns the seconds value from the time value that is passed as a/the parameter.
 489:Generated_Source\PSoC4/RTC.h **** *
ARM GAS  C:\Users\Petro\AppData\Local\Temp\ccMT0U8n.s 			page 10


 490:Generated_Source\PSoC4/RTC.h **** * \param
 491:Generated_Source\PSoC4/RTC.h **** *  time The time value.
 492:Generated_Source\PSoC4/RTC.h **** *
 493:Generated_Source\PSoC4/RTC.h **** * \return
 494:Generated_Source\PSoC4/RTC.h **** *  The seconds value.
 495:Generated_Source\PSoC4/RTC.h **** *
 496:Generated_Source\PSoC4/RTC.h **** *******************************************************************************/
 497:Generated_Source\PSoC4/RTC.h **** static CY_INLINE uint32 RTC_GetSecond(uint32 inputTime)
 498:Generated_Source\PSoC4/RTC.h **** {
  25              		.loc 1 498 0
  26              		.cfi_startproc
  27 0000 80B5     		push	{r7, lr}
  28              		.cfi_def_cfa_offset 8
  29              		.cfi_offset 7, -8
  30              		.cfi_offset 14, -4
  31 0002 84B0     		sub	sp, sp, #16
  32              		.cfi_def_cfa_offset 24
  33 0004 00AF     		add	r7, sp, #0
  34              		.cfi_def_cfa_register 7
  35 0006 7860     		str	r0, [r7, #4]
 499:Generated_Source\PSoC4/RTC.h ****     uint32 retVal;
 500:Generated_Source\PSoC4/RTC.h **** 
 501:Generated_Source\PSoC4/RTC.h ****     retVal  = ((inputTime & RTC_10_SECONDS_MASK) >> RTC_10_SECONDS_OFFSET) * 10u;
  36              		.loc 1 501 0
  37 0008 7B68     		ldr	r3, [r7, #4]
  38 000a 7022     		mov	r2, #112
  39 000c 1340     		and	r3, r2
  40 000e 1A09     		lsr	r2, r3, #4
  41 0010 131C     		mov	r3, r2
  42 0012 9B00     		lsl	r3, r3, #2
  43 0014 9B18     		add	r3, r3, r2
  44 0016 5B00     		lsl	r3, r3, #1
  45 0018 FB60     		str	r3, [r7, #12]
 502:Generated_Source\PSoC4/RTC.h ****     retVal += (inputTime & RTC_SECONDS_MASK) >> RTC_SECONDS_OFFSET;
  46              		.loc 1 502 0
  47 001a 7B68     		ldr	r3, [r7, #4]
  48 001c 0F22     		mov	r2, #15
  49 001e 1340     		and	r3, r2
  50 0020 FA68     		ldr	r2, [r7, #12]
  51 0022 D318     		add	r3, r2, r3
  52 0024 FB60     		str	r3, [r7, #12]
 503:Generated_Source\PSoC4/RTC.h **** 
 504:Generated_Source\PSoC4/RTC.h ****     return (retVal);
  53              		.loc 1 504 0
  54 0026 FB68     		ldr	r3, [r7, #12]
 505:Generated_Source\PSoC4/RTC.h **** }
  55              		.loc 1 505 0
  56 0028 181C     		mov	r0, r3
  57 002a BD46     		mov	sp, r7
  58 002c 04B0     		add	sp, sp, #16
  59              		@ sp needed
  60 002e 80BD     		pop	{r7, pc}
  61              		.cfi_endproc
  62              	.LFE4:
  63              		.size	RTC_GetSecond, .-RTC_GetSecond
  64              		.section	.text.RTC_GetMinutes,"ax",%progbits
  65              		.align	2
ARM GAS  C:\Users\Petro\AppData\Local\Temp\ccMT0U8n.s 			page 11


  66              		.code	16
  67              		.thumb_func
  68              		.type	RTC_GetMinutes, %function
  69              	RTC_GetMinutes:
  70              	.LFB5:
 506:Generated_Source\PSoC4/RTC.h **** 
 507:Generated_Source\PSoC4/RTC.h **** 
 508:Generated_Source\PSoC4/RTC.h **** /*******************************************************************************
 509:Generated_Source\PSoC4/RTC.h **** * Function Name: RTC_GetMinutes
 510:Generated_Source\PSoC4/RTC.h **** ****************************************************************************//**
 511:Generated_Source\PSoC4/RTC.h **** *
 512:Generated_Source\PSoC4/RTC.h **** * \brief
 513:Generated_Source\PSoC4/RTC.h **** *  Returns the minutes value from the time value that is passed as a/the 
 514:Generated_Source\PSoC4/RTC.h **** * parameter.
 515:Generated_Source\PSoC4/RTC.h **** *
 516:Generated_Source\PSoC4/RTC.h **** * \param
 517:Generated_Source\PSoC4/RTC.h **** *  time The time value.
 518:Generated_Source\PSoC4/RTC.h **** *
 519:Generated_Source\PSoC4/RTC.h **** * \return
 520:Generated_Source\PSoC4/RTC.h **** *  The minutes value.
 521:Generated_Source\PSoC4/RTC.h **** *
 522:Generated_Source\PSoC4/RTC.h **** *******************************************************************************/
 523:Generated_Source\PSoC4/RTC.h **** static CY_INLINE uint32 RTC_GetMinutes(uint32 inputTime)
 524:Generated_Source\PSoC4/RTC.h **** {
  71              		.loc 1 524 0
  72              		.cfi_startproc
  73 0000 80B5     		push	{r7, lr}
  74              		.cfi_def_cfa_offset 8
  75              		.cfi_offset 7, -8
  76              		.cfi_offset 14, -4
  77 0002 84B0     		sub	sp, sp, #16
  78              		.cfi_def_cfa_offset 24
  79 0004 00AF     		add	r7, sp, #0
  80              		.cfi_def_cfa_register 7
  81 0006 7860     		str	r0, [r7, #4]
 525:Generated_Source\PSoC4/RTC.h ****     uint32 retVal;
 526:Generated_Source\PSoC4/RTC.h **** 
 527:Generated_Source\PSoC4/RTC.h ****     retVal  = ((inputTime & RTC_10_MINUTES_MASK) >> RTC_10_MINUTES_OFFSET) * 10u;
  82              		.loc 1 527 0
  83 0008 7A68     		ldr	r2, [r7, #4]
  84 000a E023     		mov	r3, #224
  85 000c DB01     		lsl	r3, r3, #7
  86 000e 1340     		and	r3, r2
  87 0010 1A0B     		lsr	r2, r3, #12
  88 0012 131C     		mov	r3, r2
  89 0014 9B00     		lsl	r3, r3, #2
  90 0016 9B18     		add	r3, r3, r2
  91 0018 5B00     		lsl	r3, r3, #1
  92 001a FB60     		str	r3, [r7, #12]
 528:Generated_Source\PSoC4/RTC.h ****     retVal += (inputTime & RTC_MINUTES_MASK) >> RTC_MINUTES_OFFSET;
  93              		.loc 1 528 0
  94 001c 7A68     		ldr	r2, [r7, #4]
  95 001e F023     		mov	r3, #240
  96 0020 1B01     		lsl	r3, r3, #4
  97 0022 1340     		and	r3, r2
  98 0024 1B0A     		lsr	r3, r3, #8
  99 0026 FA68     		ldr	r2, [r7, #12]
ARM GAS  C:\Users\Petro\AppData\Local\Temp\ccMT0U8n.s 			page 12


 100 0028 D318     		add	r3, r2, r3
 101 002a FB60     		str	r3, [r7, #12]
 529:Generated_Source\PSoC4/RTC.h **** 
 530:Generated_Source\PSoC4/RTC.h ****     return (retVal);
 102              		.loc 1 530 0
 103 002c FB68     		ldr	r3, [r7, #12]
 531:Generated_Source\PSoC4/RTC.h **** }
 104              		.loc 1 531 0
 105 002e 181C     		mov	r0, r3
 106 0030 BD46     		mov	sp, r7
 107 0032 04B0     		add	sp, sp, #16
 108              		@ sp needed
 109 0034 80BD     		pop	{r7, pc}
 110              		.cfi_endproc
 111              	.LFE5:
 112              		.size	RTC_GetMinutes, .-RTC_GetMinutes
 113 0036 C046     		.section	.text.RTC_GetHours,"ax",%progbits
 114              		.align	2
 115              		.code	16
 116              		.thumb_func
 117              		.type	RTC_GetHours, %function
 118              	RTC_GetHours:
 119              	.LFB6:
 532:Generated_Source\PSoC4/RTC.h **** 
 533:Generated_Source\PSoC4/RTC.h **** 
 534:Generated_Source\PSoC4/RTC.h **** /*******************************************************************************
 535:Generated_Source\PSoC4/RTC.h **** * Function Name: RTC_GetHours
 536:Generated_Source\PSoC4/RTC.h **** ****************************************************************************//**
 537:Generated_Source\PSoC4/RTC.h **** *
 538:Generated_Source\PSoC4/RTC.h **** * \brief
 539:Generated_Source\PSoC4/RTC.h **** *  Returns the hours value from the time value that is passed as a/the parameter.
 540:Generated_Source\PSoC4/RTC.h **** *
 541:Generated_Source\PSoC4/RTC.h **** * \param
 542:Generated_Source\PSoC4/RTC.h **** *  time The time value.
 543:Generated_Source\PSoC4/RTC.h **** *
 544:Generated_Source\PSoC4/RTC.h **** * \return
 545:Generated_Source\PSoC4/RTC.h **** *  The hours value.
 546:Generated_Source\PSoC4/RTC.h **** *
 547:Generated_Source\PSoC4/RTC.h **** *******************************************************************************/
 548:Generated_Source\PSoC4/RTC.h **** static CY_INLINE uint32 RTC_GetHours(uint32 inputTime)
 549:Generated_Source\PSoC4/RTC.h **** {
 120              		.loc 1 549 0
 121              		.cfi_startproc
 122 0000 80B5     		push	{r7, lr}
 123              		.cfi_def_cfa_offset 8
 124              		.cfi_offset 7, -8
 125              		.cfi_offset 14, -4
 126 0002 84B0     		sub	sp, sp, #16
 127              		.cfi_def_cfa_offset 24
 128 0004 00AF     		add	r7, sp, #0
 129              		.cfi_def_cfa_register 7
 130 0006 7860     		str	r0, [r7, #4]
 550:Generated_Source\PSoC4/RTC.h ****     uint32 retVal;
 551:Generated_Source\PSoC4/RTC.h **** 
 552:Generated_Source\PSoC4/RTC.h ****     retVal  = ((inputTime & RTC_10_HOURS_MASK) >> RTC_10_HOURS_OFFSET) * 10u;
 131              		.loc 1 552 0
 132 0008 7A68     		ldr	r2, [r7, #4]
ARM GAS  C:\Users\Petro\AppData\Local\Temp\ccMT0U8n.s 			page 13


 133 000a C023     		mov	r3, #192
 134 000c 9B03     		lsl	r3, r3, #14
 135 000e 1340     		and	r3, r2
 136 0010 1A0D     		lsr	r2, r3, #20
 137 0012 131C     		mov	r3, r2
 138 0014 9B00     		lsl	r3, r3, #2
 139 0016 9B18     		add	r3, r3, r2
 140 0018 5B00     		lsl	r3, r3, #1
 141 001a FB60     		str	r3, [r7, #12]
 553:Generated_Source\PSoC4/RTC.h ****     retVal += (inputTime & RTC_HOURS_MASK) >> RTC_HOURS_OFFSET;
 142              		.loc 1 553 0
 143 001c 7A68     		ldr	r2, [r7, #4]
 144 001e F023     		mov	r3, #240
 145 0020 1B03     		lsl	r3, r3, #12
 146 0022 1340     		and	r3, r2
 147 0024 1B0C     		lsr	r3, r3, #16
 148 0026 FA68     		ldr	r2, [r7, #12]
 149 0028 D318     		add	r3, r2, r3
 150 002a FB60     		str	r3, [r7, #12]
 554:Generated_Source\PSoC4/RTC.h **** 
 555:Generated_Source\PSoC4/RTC.h ****     return (retVal);
 151              		.loc 1 555 0
 152 002c FB68     		ldr	r3, [r7, #12]
 556:Generated_Source\PSoC4/RTC.h **** }
 153              		.loc 1 556 0
 154 002e 181C     		mov	r0, r3
 155 0030 BD46     		mov	sp, r7
 156 0032 04B0     		add	sp, sp, #16
 157              		@ sp needed
 158 0034 80BD     		pop	{r7, pc}
 159              		.cfi_endproc
 160              	.LFE6:
 161              		.size	RTC_GetHours, .-RTC_GetHours
 162              		.comm	cfont,12,4
 163              		.comm	scrbuf,504,4
 164              		.comm	_sleep,1,1
 165              		.comm	_contrast,4,4
 166 0036 C046     		.bss
 167              		.align	2
 168              	buff:
 169 0000 00000000 		.space	100
 169      00000000 
 169      00000000 
 169      00000000 
 169      00000000 
 170              		.section	.text.DisplayStart,"ax",%progbits
 171              		.align	2
 172              		.global	DisplayStart
 173              		.code	16
 174              		.thumb_func
 175              		.type	DisplayStart, %function
 176              	DisplayStart:
 177              	.LFB63:
 178              		.file 2 "..\\..\\common\\lib\\lib_Display\\display.c"
   1:..\..\common\lib\lib_Display/display.c **** 
   2:..\..\common\lib\lib_Display/display.c **** #include <CyLib.h>
   3:..\..\common\lib\lib_Display/display.c **** #include <stdio.h>
ARM GAS  C:\Users\Petro\AppData\Local\Temp\ccMT0U8n.s 			page 14


   4:..\..\common\lib\lib_Display/display.c **** //#include "lib_RTC\RTC_WDT.h"
   5:..\..\common\lib\lib_Display/display.c **** #include "..\..\common\lib\lib_Display\display.h"
   6:..\..\common\lib\lib_Display/display.c **** #include "..\..\common\lib\nokia5110\LCD5110_Graph.h"
   7:..\..\common\lib\lib_Display/display.c **** #include "project.h"
   8:..\..\common\lib\lib_Display/display.c **** 
   9:..\..\common\lib\lib_Display/display.c **** /*resistive voltage divider 1/10 */
  10:..\..\common\lib\lib_Display/display.c **** #define BATT_0_PERCENT      0.40
  11:..\..\common\lib\lib_Display/display.c **** #define BATT_25_PERCENT     0.42
  12:..\..\common\lib\lib_Display/display.c **** #define BATT_50_PERCENT     0.44
  13:..\..\common\lib\lib_Display/display.c **** #define BATT_75_PERCENT     0.46
  14:..\..\common\lib\lib_Display/display.c **** #define BATT_100_PERCENT    0.48
  15:..\..\common\lib\lib_Display/display.c **** 
  16:..\..\common\lib\lib_Display/display.c **** #define MAX_LEN_DISPLAY     11
  17:..\..\common\lib\lib_Display/display.c **** 
  18:..\..\common\lib\lib_Display/display.c **** /*network quality*/
  19:..\..\common\lib\lib_Display/display.c **** #define NUM_STICK_NETWORK_QUALITY   4
  20:..\..\common\lib\lib_Display/display.c **** 
  21:..\..\common\lib\lib_Display/display.c **** extern unsigned char SmallFont[];
  22:..\..\common\lib\lib_Display/display.c **** extern unsigned char TinyFont[];
  23:..\..\common\lib\lib_Display/display.c **** extern unsigned char BigNumbers[];
  24:..\..\common\lib\lib_Display/display.c **** extern unsigned char MediumNumbers[];
  25:..\..\common\lib\lib_Display/display.c **** extern uint8_t logoCypress[];
  26:..\..\common\lib\lib_Display/display.c **** extern uint8_t homeSkreen[];
  27:..\..\common\lib\lib_Display/display.c **** extern uint8_t homeSkreenNull[];
  28:..\..\common\lib\lib_Display/display.c **** extern uint8_t networkOn[];
  29:..\..\common\lib\lib_Display/display.c **** extern uint8_t SDinsert[];
  30:..\..\common\lib\lib_Display/display.c **** extern uint8_t SDnoInsert[];
  31:..\..\common\lib\lib_Display/display.c **** 
  32:..\..\common\lib\lib_Display/display.c **** /*buffer for print string on LCD*/
  33:..\..\common\lib\lib_Display/display.c **** static  char buff[100];
  34:..\..\common\lib\lib_Display/display.c **** 
  35:..\..\common\lib\lib_Display/display.c **** 
  36:..\..\common\lib\lib_Display/display.c **** /*******************************************************************************
  37:..\..\common\lib\lib_Display/display.c **** * Function name: DisplayConfig
  38:..\..\common\lib\lib_Display/display.c **** ********************************************************************************
  39:..\..\common\lib\lib_Display/display.c **** *
  40:..\..\common\lib\lib_Display/display.c **** * Summary:
  41:..\..\common\lib\lib_Display/display.c **** * initialization display
  42:..\..\common\lib\lib_Display/display.c **** *
  43:..\..\common\lib\lib_Display/display.c **** *******************************************************************************/	
  44:..\..\common\lib\lib_Display/display.c **** void DisplayStart(void)
  45:..\..\common\lib\lib_Display/display.c **** {
 179              		.loc 2 45 0
 180              		.cfi_startproc
 181 0000 80B5     		push	{r7, lr}
 182              		.cfi_def_cfa_offset 8
 183              		.cfi_offset 7, -8
 184              		.cfi_offset 14, -4
 185 0002 82B0     		sub	sp, sp, #8
 186              		.cfi_def_cfa_offset 16
 187 0004 02AF     		add	r7, sp, #8
 188              		.cfi_def_cfa 7, 8
  46:..\..\common\lib\lib_Display/display.c ****     /*backlight off*/
  47:..\..\common\lib\lib_Display/display.c ****     LCD_BL_Write(0);
 189              		.loc 2 47 0
 190 0006 0020     		mov	r0, #0
 191 0008 FFF7FEFF 		bl	LCD_BL_Write
ARM GAS  C:\Users\Petro\AppData\Local\Temp\ccMT0U8n.s 			page 15


  48:..\..\common\lib\lib_Display/display.c ****     
  49:..\..\common\lib\lib_Display/display.c ****     InitLCD(LCD_CONTRAST);
 192              		.loc 2 49 0
 193 000c 4620     		mov	r0, #70
 194 000e FFF7FEFF 		bl	InitLCD
  50:..\..\common\lib\lib_Display/display.c ****     setFont(SmallFont);
 195              		.loc 2 50 0
 196 0012 094B     		ldr	r3, .L8
 197 0014 181C     		mov	r0, r3
 198 0016 FFF7FEFF 		bl	setFont
  51:..\..\common\lib\lib_Display/display.c ****     clrScr();
 199              		.loc 2 51 0
 200 001a FFF7FEFF 		bl	clrScr
  52:..\..\common\lib\lib_Display/display.c ****     drawBitmap(0, 0, homeSkreenNull, 84, 48);
 201              		.loc 2 52 0
 202 001e 074A     		ldr	r2, .L8+4
 203 0020 3023     		mov	r3, #48
 204 0022 0093     		str	r3, [sp]
 205 0024 0020     		mov	r0, #0
 206 0026 0021     		mov	r1, #0
 207 0028 5423     		mov	r3, #84
 208 002a FFF7FEFF 		bl	drawBitmap
  53:..\..\common\lib\lib_Display/display.c ****     update();
 209              		.loc 2 53 0
 210 002e FFF7FEFF 		bl	update
  54:..\..\common\lib\lib_Display/display.c **** }
 211              		.loc 2 54 0
 212 0032 BD46     		mov	sp, r7
 213              		@ sp needed
 214 0034 80BD     		pop	{r7, pc}
 215              	.L9:
 216 0036 C046     		.align	2
 217              	.L8:
 218 0038 00000000 		.word	SmallFont
 219 003c 00000000 		.word	homeSkreenNull
 220              		.cfi_endproc
 221              	.LFE63:
 222              		.size	DisplayStart, .-DisplayStart
 223              		.section	.rodata
 224              		.align	2
 225              	.LC2:
 226 0000 20202020 		.ascii	"           \000"
 226      20202020 
 226      20202000 
 227              		.section	.text.Display,"ax",%progbits
 228              		.align	2
 229              		.global	Display
 230              		.code	16
 231              		.thumb_func
 232              		.type	Display, %function
 233              	Display:
 234              	.LFB64:
  55:..\..\common\lib\lib_Display/display.c **** 	
  56:..\..\common\lib\lib_Display/display.c **** 
  57:..\..\common\lib\lib_Display/display.c **** /*******************************************************************************
  58:..\..\common\lib\lib_Display/display.c **** * Function Name: DisplayPrintf
  59:..\..\common\lib\lib_Display/display.c **** ********************************************************************************
ARM GAS  C:\Users\Petro\AppData\Local\Temp\ccMT0U8n.s 			page 16


  60:..\..\common\lib\lib_Display/display.c **** *
  61:..\..\common\lib\lib_Display/display.c **** * Summary:
  62:..\..\common\lib\lib_Display/display.c **** *   Writes a zero terminated string to the LCD.
  63:..\..\common\lib\lib_Display/display.c **** *
  64:..\..\common\lib\lib_Display/display.c **** * Parameters:
  65:..\..\common\lib\lib_Display/display.c **** *  string: Pointer to head of char8 array to be written to the LCD module
  66:..\..\common\lib\lib_Display/display.c **** * Note:
  67:..\..\common\lib\lib_Display/display.c **** *   print string from position row = 0, column = 0
  68:..\..\common\lib\lib_Display/display.c **** *
  69:..\..\common\lib\lib_Display/display.c **** *******************************************************************************/
  70:..\..\common\lib\lib_Display/display.c **** void Display(char *message)
  71:..\..\common\lib\lib_Display/display.c **** {    
 235              		.loc 2 71 0
 236              		.cfi_startproc
 237 0000 90B5     		push	{r4, r7, lr}
 238              		.cfi_def_cfa_offset 12
 239              		.cfi_offset 4, -12
 240              		.cfi_offset 7, -8
 241              		.cfi_offset 14, -4
 242 0002 87B0     		sub	sp, sp, #28
 243              		.cfi_def_cfa_offset 40
 244 0004 00AF     		add	r7, sp, #0
 245              		.cfi_def_cfa_register 7
 246 0006 7860     		str	r0, [r7, #4]
  72:..\..\common\lib\lib_Display/display.c ****     uint8_t len;
  73:..\..\common\lib\lib_Display/display.c ****     char strNull[11] = {"           "};
 247              		.loc 2 73 0
 248 0008 0C23     		mov	r3, #12
 249 000a FB18     		add	r3, r7, r3
 250 000c 1B4A     		ldr	r2, .L12
 251 000e 03CA     		ldmia	r2!, {r0, r1}
 252 0010 03C3     		stmia	r3!, {r0, r1}
 253 0012 1188     		ldrh	r1, [r2]
 254 0014 1980     		strh	r1, [r3]
 255 0016 9278     		ldrb	r2, [r2, #2]
 256 0018 9A70     		strb	r2, [r3, #2]
  74:..\..\common\lib\lib_Display/display.c ****     strncpy(buff,message,MAX_LEN_DISPLAY);
 257              		.loc 2 74 0
 258 001a 194A     		ldr	r2, .L12+4
 259 001c 7B68     		ldr	r3, [r7, #4]
 260 001e 101C     		mov	r0, r2
 261 0020 191C     		mov	r1, r3
 262 0022 0B22     		mov	r2, #11
 263 0024 FFF7FEFF 		bl	strncpy
  75:..\..\common\lib\lib_Display/display.c ****     len = strlen(message);
 264              		.loc 2 75 0
 265 0028 7B68     		ldr	r3, [r7, #4]
 266 002a 181C     		mov	r0, r3
 267 002c FFF7FEFF 		bl	strlen
 268 0030 021C     		mov	r2, r0
 269 0032 1723     		mov	r3, #23
 270 0034 FB18     		add	r3, r7, r3
 271 0036 1A70     		strb	r2, [r3]
  76:..\..\common\lib\lib_Display/display.c ****     if(len < MAX_LEN_DISPLAY)
 272              		.loc 2 76 0
 273 0038 1723     		mov	r3, #23
 274 003a FB18     		add	r3, r7, r3
ARM GAS  C:\Users\Petro\AppData\Local\Temp\ccMT0U8n.s 			page 17


 275 003c 1B78     		ldrb	r3, [r3]
 276 003e 0A2B     		cmp	r3, #10
 277 0040 0DD8     		bhi	.L11
  77:..\..\common\lib\lib_Display/display.c ****     {
  78:..\..\common\lib\lib_Display/display.c ****         strncat(buff,strNull,MAX_LEN_DISPLAY-len);
 278              		.loc 2 78 0
 279 0042 1723     		mov	r3, #23
 280 0044 FB18     		add	r3, r7, r3
 281 0046 1B78     		ldrb	r3, [r3]
 282 0048 0B22     		mov	r2, #11
 283 004a D31A     		sub	r3, r2, r3
 284 004c 1C1C     		mov	r4, r3
 285 004e 0C4A     		ldr	r2, .L12+4
 286 0050 0C23     		mov	r3, #12
 287 0052 FB18     		add	r3, r7, r3
 288 0054 101C     		mov	r0, r2
 289 0056 191C     		mov	r1, r3
 290 0058 221C     		mov	r2, r4
 291 005a FFF7FEFF 		bl	strncat
 292              	.L11:
  79:..\..\common\lib\lib_Display/display.c ****     }
  80:..\..\common\lib\lib_Display/display.c ****     
  81:..\..\common\lib\lib_Display/display.c ****     setFont(SmallFont);
 293              		.loc 2 81 0
 294 005e 094B     		ldr	r3, .L12+8
 295 0060 181C     		mov	r0, r3
 296 0062 FFF7FEFF 		bl	setFont
  82:..\..\common\lib\lib_Display/display.c ****     print(buff,8,40);
 297              		.loc 2 82 0
 298 0066 064B     		ldr	r3, .L12+4
 299 0068 181C     		mov	r0, r3
 300 006a 0821     		mov	r1, #8
 301 006c 2822     		mov	r2, #40
 302 006e FFF7FEFF 		bl	print
  83:..\..\common\lib\lib_Display/display.c ****     update();
 303              		.loc 2 83 0
 304 0072 FFF7FEFF 		bl	update
  84:..\..\common\lib\lib_Display/display.c **** }
 305              		.loc 2 84 0
 306 0076 BD46     		mov	sp, r7
 307 0078 07B0     		add	sp, sp, #28
 308              		@ sp needed
 309 007a 90BD     		pop	{r4, r7, pc}
 310              	.L13:
 311              		.align	2
 312              	.L12:
 313 007c 00000000 		.word	.LC2
 314 0080 00000000 		.word	buff
 315 0084 00000000 		.word	SmallFont
 316              		.cfi_endproc
 317              	.LFE64:
 318              		.size	Display, .-Display
 319              		.section	.text.DisplayIndicatorSD,"ax",%progbits
 320              		.align	2
 321              		.global	DisplayIndicatorSD
 322              		.code	16
 323              		.thumb_func
ARM GAS  C:\Users\Petro\AppData\Local\Temp\ccMT0U8n.s 			page 18


 324              		.type	DisplayIndicatorSD, %function
 325              	DisplayIndicatorSD:
 326              	.LFB65:
  85:..\..\common\lib\lib_Display/display.c **** 
  86:..\..\common\lib\lib_Display/display.c **** /*******************************************************************************
  87:..\..\common\lib\lib_Display/display.c **** * Function name: DisplayPutIndicatorSD
  88:..\..\common\lib\lib_Display/display.c **** ********************************************************************************
  89:..\..\common\lib\lib_Display/display.c **** *
  90:..\..\common\lib\lib_Display/display.c **** * Summary:
  91:..\..\common\lib\lib_Display/display.c **** *   print incator SD card 
  92:..\..\common\lib\lib_Display/display.c **** *
  93:..\..\common\lib\lib_Display/display.c **** * Parametrs:
  94:..\..\common\lib\lib_Display/display.c **** *   state = SD_INSERT or state = SD_NO_INSERT
  95:..\..\common\lib\lib_Display/display.c **** *******************************************************************************/
  96:..\..\common\lib\lib_Display/display.c **** void DisplayIndicatorSD(SDindicator indicator)
  97:..\..\common\lib\lib_Display/display.c **** {
 327              		.loc 2 97 0
 328              		.cfi_startproc
 329 0000 80B5     		push	{r7, lr}
 330              		.cfi_def_cfa_offset 8
 331              		.cfi_offset 7, -8
 332              		.cfi_offset 14, -4
 333 0002 84B0     		sub	sp, sp, #16
 334              		.cfi_def_cfa_offset 24
 335 0004 02AF     		add	r7, sp, #8
 336              		.cfi_def_cfa 7, 16
 337 0006 021C     		mov	r2, r0
 338 0008 FB1D     		add	r3, r7, #7
 339 000a 1A70     		strb	r2, [r3]
  98:..\..\common\lib\lib_Display/display.c ****     if(indicator == SD_INSERT)
 340              		.loc 2 98 0
 341 000c FB1D     		add	r3, r7, #7
 342 000e 1B78     		ldrb	r3, [r3]
 343 0010 002B     		cmp	r3, #0
 344 0012 08D1     		bne	.L15
  99:..\..\common\lib\lib_Display/display.c ****     {
 100:..\..\common\lib\lib_Display/display.c ****         drawBitmap(64, 1, SDinsert, 10, 8);
 345              		.loc 2 100 0
 346 0014 0A4A     		ldr	r2, .L17
 347 0016 0823     		mov	r3, #8
 348 0018 0093     		str	r3, [sp]
 349 001a 4020     		mov	r0, #64
 350 001c 0121     		mov	r1, #1
 351 001e 0A23     		mov	r3, #10
 352 0020 FFF7FEFF 		bl	drawBitmap
 353 0024 07E0     		b	.L16
 354              	.L15:
 101:..\..\common\lib\lib_Display/display.c ****     }
 102:..\..\common\lib\lib_Display/display.c ****     else
 103:..\..\common\lib\lib_Display/display.c ****     {
 104:..\..\common\lib\lib_Display/display.c ****         drawBitmap(64, 1, SDnoInsert, 10, 8);
 355              		.loc 2 104 0
 356 0026 074A     		ldr	r2, .L17+4
 357 0028 0823     		mov	r3, #8
 358 002a 0093     		str	r3, [sp]
 359 002c 4020     		mov	r0, #64
 360 002e 0121     		mov	r1, #1
ARM GAS  C:\Users\Petro\AppData\Local\Temp\ccMT0U8n.s 			page 19


 361 0030 0A23     		mov	r3, #10
 362 0032 FFF7FEFF 		bl	drawBitmap
 363              	.L16:
 105:..\..\common\lib\lib_Display/display.c ****     }
 106:..\..\common\lib\lib_Display/display.c ****     update();
 364              		.loc 2 106 0
 365 0036 FFF7FEFF 		bl	update
 107:..\..\common\lib\lib_Display/display.c **** }
 366              		.loc 2 107 0
 367 003a BD46     		mov	sp, r7
 368 003c 02B0     		add	sp, sp, #8
 369              		@ sp needed
 370 003e 80BD     		pop	{r7, pc}
 371              	.L18:
 372              		.align	2
 373              	.L17:
 374 0040 00000000 		.word	SDinsert
 375 0044 00000000 		.word	SDnoInsert
 376              		.cfi_endproc
 377              	.LFE65:
 378              		.size	DisplayIndicatorSD, .-DisplayIndicatorSD
 379              		.section	.text.DisplayIndicatorNetwork,"ax",%progbits
 380              		.align	2
 381              		.global	DisplayIndicatorNetwork
 382              		.code	16
 383              		.thumb_func
 384              		.type	DisplayIndicatorNetwork, %function
 385              	DisplayIndicatorNetwork:
 386              	.LFB66:
 108:..\..\common\lib\lib_Display/display.c **** 
 109:..\..\common\lib\lib_Display/display.c **** /*******************************************************************************
 110:..\..\common\lib\lib_Display/display.c **** * Function name: DisplayPutIndicatorNetwork
 111:..\..\common\lib\lib_Display/display.c **** ********************************************************************************
 112:..\..\common\lib\lib_Display/display.c **** *
 113:..\..\common\lib\lib_Display/display.c **** * Summary:
 114:..\..\common\lib\lib_Display/display.c **** *   print incator connect  from position row = 1, column = 15
 115:..\..\common\lib\lib_Display/display.c **** *
 116:..\..\common\lib\lib_Display/display.c **** * Parametrs:
 117:..\..\common\lib\lib_Display/display.c **** *   state = CONNECT or state = DISCONNECT
 118:..\..\common\lib\lib_Display/display.c **** *******************************************************************************/
 119:..\..\common\lib\lib_Display/display.c **** void DisplayIndicatorNetwork(NetworkIndicator indicator)
 120:..\..\common\lib\lib_Display/display.c **** {
 387              		.loc 2 120 0
 388              		.cfi_startproc
 389 0000 80B5     		push	{r7, lr}
 390              		.cfi_def_cfa_offset 8
 391              		.cfi_offset 7, -8
 392              		.cfi_offset 14, -4
 393 0002 84B0     		sub	sp, sp, #16
 394              		.cfi_def_cfa_offset 24
 395 0004 02AF     		add	r7, sp, #8
 396              		.cfi_def_cfa 7, 16
 397 0006 021C     		mov	r2, r0
 398 0008 FB1D     		add	r3, r7, #7
 399 000a 1A70     		strb	r2, [r3]
 121:..\..\common\lib\lib_Display/display.c ****     if(indicator == CONNECT)
 400              		.loc 2 121 0
ARM GAS  C:\Users\Petro\AppData\Local\Temp\ccMT0U8n.s 			page 20


 401 000c FB1D     		add	r3, r7, #7
 402 000e 1B78     		ldrb	r3, [r3]
 403 0010 002B     		cmp	r3, #0
 404 0012 08D1     		bne	.L20
 122:..\..\common\lib\lib_Display/display.c ****     {
 123:..\..\common\lib\lib_Display/display.c ****         drawBitmap(1,3,networkOn,6,35);
 405              		.loc 2 123 0
 406 0014 134A     		ldr	r2, .L22
 407 0016 2323     		mov	r3, #35
 408 0018 0093     		str	r3, [sp]
 409 001a 0120     		mov	r0, #1
 410 001c 0321     		mov	r1, #3
 411 001e 0623     		mov	r3, #6
 412 0020 FFF7FEFF 		bl	drawBitmap
 413 0024 18E0     		b	.L21
 414              	.L20:
 124:..\..\common\lib\lib_Display/display.c ****     }
 125:..\..\common\lib\lib_Display/display.c ****     else
 126:..\..\common\lib\lib_Display/display.c ****     {
 127:..\..\common\lib\lib_Display/display.c ****         clrVLine(1,3,35);
 415              		.loc 2 127 0
 416 0026 0120     		mov	r0, #1
 417 0028 0321     		mov	r1, #3
 418 002a 2322     		mov	r2, #35
 419 002c FFF7FEFF 		bl	clrVLine
 128:..\..\common\lib\lib_Display/display.c ****         clrVLine(2,3,35);
 420              		.loc 2 128 0
 421 0030 0220     		mov	r0, #2
 422 0032 0321     		mov	r1, #3
 423 0034 2322     		mov	r2, #35
 424 0036 FFF7FEFF 		bl	clrVLine
 129:..\..\common\lib\lib_Display/display.c ****         clrVLine(3,3,35);
 425              		.loc 2 129 0
 426 003a 0320     		mov	r0, #3
 427 003c 0321     		mov	r1, #3
 428 003e 2322     		mov	r2, #35
 429 0040 FFF7FEFF 		bl	clrVLine
 130:..\..\common\lib\lib_Display/display.c ****         clrVLine(4,3,35);
 430              		.loc 2 130 0
 431 0044 0420     		mov	r0, #4
 432 0046 0321     		mov	r1, #3
 433 0048 2322     		mov	r2, #35
 434 004a FFF7FEFF 		bl	clrVLine
 131:..\..\common\lib\lib_Display/display.c ****         clrVLine(5,3,35);
 435              		.loc 2 131 0
 436 004e 0520     		mov	r0, #5
 437 0050 0321     		mov	r1, #3
 438 0052 2322     		mov	r2, #35
 439 0054 FFF7FEFF 		bl	clrVLine
 440              	.L21:
 132:..\..\common\lib\lib_Display/display.c ****     }
 133:..\..\common\lib\lib_Display/display.c ****     update();
 441              		.loc 2 133 0
 442 0058 FFF7FEFF 		bl	update
 134:..\..\common\lib\lib_Display/display.c **** }
 443              		.loc 2 134 0
 444 005c BD46     		mov	sp, r7
ARM GAS  C:\Users\Petro\AppData\Local\Temp\ccMT0U8n.s 			page 21


 445 005e 02B0     		add	sp, sp, #8
 446              		@ sp needed
 447 0060 80BD     		pop	{r7, pc}
 448              	.L23:
 449 0062 C046     		.align	2
 450              	.L22:
 451 0064 00000000 		.word	networkOn
 452              		.cfi_endproc
 453              	.LFE66:
 454              		.size	DisplayIndicatorNetwork, .-DisplayIndicatorNetwork
 455              		.section	.text.DisplayNetworkQuality,"ax",%progbits
 456              		.align	2
 457              		.global	DisplayNetworkQuality
 458              		.code	16
 459              		.thumb_func
 460              		.type	DisplayNetworkQuality, %function
 461              	DisplayNetworkQuality:
 462              	.LFB67:
 135:..\..\common\lib\lib_Display/display.c **** 
 136:..\..\common\lib\lib_Display/display.c **** /*******************************************************************************
 137:..\..\common\lib\lib_Display/display.c **** * Function name: DisplayNetworkQuality
 138:..\..\common\lib\lib_Display/display.c **** ********************************************************************************
 139:..\..\common\lib\lib_Display/display.c **** *
 140:..\..\common\lib\lib_Display/display.c **** * Summary:
 141:..\..\common\lib\lib_Display/display.c **** *   print quality network
 142:..\..\common\lib\lib_Display/display.c **** *
 143:..\..\common\lib\lib_Display/display.c **** * Parametrs:
 144:..\..\common\lib\lib_Display/display.c **** *   quality - quality network 0..5
 145:..\..\common\lib\lib_Display/display.c **** *******************************************************************************/
 146:..\..\common\lib\lib_Display/display.c **** void DisplayNetworkQuality(uint8_t quality)
 147:..\..\common\lib\lib_Display/display.c **** {
 463              		.loc 2 147 0
 464              		.cfi_startproc
 465 0000 80B5     		push	{r7, lr}
 466              		.cfi_def_cfa_offset 8
 467              		.cfi_offset 7, -8
 468              		.cfi_offset 14, -4
 469 0002 82B0     		sub	sp, sp, #8
 470              		.cfi_def_cfa_offset 16
 471 0004 00AF     		add	r7, sp, #0
 472              		.cfi_def_cfa_register 7
 473 0006 021C     		mov	r2, r0
 474 0008 FB1D     		add	r3, r7, #7
 475 000a 1A70     		strb	r2, [r3]
 148:..\..\common\lib\lib_Display/display.c ****     clrVLine(1,3,35);
 476              		.loc 2 148 0
 477 000c 0120     		mov	r0, #1
 478 000e 0321     		mov	r1, #3
 479 0010 2322     		mov	r2, #35
 480 0012 FFF7FEFF 		bl	clrVLine
 149:..\..\common\lib\lib_Display/display.c ****     clrVLine(2,3,35);
 481              		.loc 2 149 0
 482 0016 0220     		mov	r0, #2
 483 0018 0321     		mov	r1, #3
 484 001a 2322     		mov	r2, #35
 485 001c FFF7FEFF 		bl	clrVLine
 150:..\..\common\lib\lib_Display/display.c ****     clrVLine(3,3,35);
ARM GAS  C:\Users\Petro\AppData\Local\Temp\ccMT0U8n.s 			page 22


 486              		.loc 2 150 0
 487 0020 0320     		mov	r0, #3
 488 0022 0321     		mov	r1, #3
 489 0024 2322     		mov	r2, #35
 490 0026 FFF7FEFF 		bl	clrVLine
 151:..\..\common\lib\lib_Display/display.c ****     clrVLine(4,3,35);
 491              		.loc 2 151 0
 492 002a 0420     		mov	r0, #4
 493 002c 0321     		mov	r1, #3
 494 002e 2322     		mov	r2, #35
 495 0030 FFF7FEFF 		bl	clrVLine
 152:..\..\common\lib\lib_Display/display.c ****     clrVLine(5,3,35);
 496              		.loc 2 152 0
 497 0034 0520     		mov	r0, #5
 498 0036 0321     		mov	r1, #3
 499 0038 2322     		mov	r2, #35
 500 003a FFF7FEFF 		bl	clrVLine
 153:..\..\common\lib\lib_Display/display.c ****     
 154:..\..\common\lib\lib_Display/display.c ****     if(quality > 1)
 501              		.loc 2 154 0
 502 003e FB1D     		add	r3, r7, #7
 503 0040 1B78     		ldrb	r3, [r3]
 504 0042 012B     		cmp	r3, #1
 505 0044 0ED9     		bls	.L25
 155:..\..\common\lib\lib_Display/display.c ****     {
 156:..\..\common\lib\lib_Display/display.c ****         drawVLine(1,31,7);
 506              		.loc 2 156 0
 507 0046 0120     		mov	r0, #1
 508 0048 1F21     		mov	r1, #31
 509 004a 0722     		mov	r2, #7
 510 004c FFF7FEFF 		bl	drawVLine
 157:..\..\common\lib\lib_Display/display.c ****         drawVLine(2,31,7);
 511              		.loc 2 157 0
 512 0050 0220     		mov	r0, #2
 513 0052 1F21     		mov	r1, #31
 514 0054 0722     		mov	r2, #7
 515 0056 FFF7FEFF 		bl	drawVLine
 158:..\..\common\lib\lib_Display/display.c ****         drawVLine(3,31,7);
 516              		.loc 2 158 0
 517 005a 0320     		mov	r0, #3
 518 005c 1F21     		mov	r1, #31
 519 005e 0722     		mov	r2, #7
 520 0060 FFF7FEFF 		bl	drawVLine
 521              	.L25:
 159:..\..\common\lib\lib_Display/display.c ****     }
 160:..\..\common\lib\lib_Display/display.c ****     if(quality > 2)
 522              		.loc 2 160 0
 523 0064 FB1D     		add	r3, r7, #7
 524 0066 1B78     		ldrb	r3, [r3]
 525 0068 022B     		cmp	r3, #2
 526 006a 0ED9     		bls	.L26
 161:..\..\common\lib\lib_Display/display.c ****     {
 162:..\..\common\lib\lib_Display/display.c ****         drawVLine(1,22,7);
 527              		.loc 2 162 0
 528 006c 0120     		mov	r0, #1
 529 006e 1621     		mov	r1, #22
 530 0070 0722     		mov	r2, #7
ARM GAS  C:\Users\Petro\AppData\Local\Temp\ccMT0U8n.s 			page 23


 531 0072 FFF7FEFF 		bl	drawVLine
 163:..\..\common\lib\lib_Display/display.c ****         drawVLine(2,22,7);
 532              		.loc 2 163 0
 533 0076 0220     		mov	r0, #2
 534 0078 1621     		mov	r1, #22
 535 007a 0722     		mov	r2, #7
 536 007c FFF7FEFF 		bl	drawVLine
 164:..\..\common\lib\lib_Display/display.c ****         drawVLine(3,22,7);
 537              		.loc 2 164 0
 538 0080 0320     		mov	r0, #3
 539 0082 1621     		mov	r1, #22
 540 0084 0722     		mov	r2, #7
 541 0086 FFF7FEFF 		bl	drawVLine
 542              	.L26:
 165:..\..\common\lib\lib_Display/display.c ****     }
 166:..\..\common\lib\lib_Display/display.c ****     if(quality > 3)
 543              		.loc 2 166 0
 544 008a FB1D     		add	r3, r7, #7
 545 008c 1B78     		ldrb	r3, [r3]
 546 008e 032B     		cmp	r3, #3
 547 0090 13D9     		bls	.L27
 167:..\..\common\lib\lib_Display/display.c ****     {
 168:..\..\common\lib\lib_Display/display.c ****         drawVLine(1,13,7);
 548              		.loc 2 168 0
 549 0092 0120     		mov	r0, #1
 550 0094 0D21     		mov	r1, #13
 551 0096 0722     		mov	r2, #7
 552 0098 FFF7FEFF 		bl	drawVLine
 169:..\..\common\lib\lib_Display/display.c ****         drawVLine(2,13,7);
 553              		.loc 2 169 0
 554 009c 0220     		mov	r0, #2
 555 009e 0D21     		mov	r1, #13
 556 00a0 0722     		mov	r2, #7
 557 00a2 FFF7FEFF 		bl	drawVLine
 170:..\..\common\lib\lib_Display/display.c ****         drawVLine(3,13,7);
 558              		.loc 2 170 0
 559 00a6 0320     		mov	r0, #3
 560 00a8 0D21     		mov	r1, #13
 561 00aa 0722     		mov	r2, #7
 562 00ac FFF7FEFF 		bl	drawVLine
 171:..\..\common\lib\lib_Display/display.c ****         drawVLine(4,13,7);
 563              		.loc 2 171 0
 564 00b0 0420     		mov	r0, #4
 565 00b2 0D21     		mov	r1, #13
 566 00b4 0722     		mov	r2, #7
 567 00b6 FFF7FEFF 		bl	drawVLine
 568              	.L27:
 172:..\..\common\lib\lib_Display/display.c ****     }
 173:..\..\common\lib\lib_Display/display.c ****     if(quality > 4)
 569              		.loc 2 173 0
 570 00ba FB1D     		add	r3, r7, #7
 571 00bc 1B78     		ldrb	r3, [r3]
 572 00be 042B     		cmp	r3, #4
 573 00c0 13D9     		bls	.L28
 174:..\..\common\lib\lib_Display/display.c ****     {
 175:..\..\common\lib\lib_Display/display.c ****         drawVLine(1,4,7);
 574              		.loc 2 175 0
ARM GAS  C:\Users\Petro\AppData\Local\Temp\ccMT0U8n.s 			page 24


 575 00c2 0120     		mov	r0, #1
 576 00c4 0421     		mov	r1, #4
 577 00c6 0722     		mov	r2, #7
 578 00c8 FFF7FEFF 		bl	drawVLine
 176:..\..\common\lib\lib_Display/display.c ****         drawVLine(2,4,7);
 579              		.loc 2 176 0
 580 00cc 0220     		mov	r0, #2
 581 00ce 0421     		mov	r1, #4
 582 00d0 0722     		mov	r2, #7
 583 00d2 FFF7FEFF 		bl	drawVLine
 177:..\..\common\lib\lib_Display/display.c ****         drawVLine(3,4,7);
 584              		.loc 2 177 0
 585 00d6 0320     		mov	r0, #3
 586 00d8 0421     		mov	r1, #4
 587 00da 0722     		mov	r2, #7
 588 00dc FFF7FEFF 		bl	drawVLine
 178:..\..\common\lib\lib_Display/display.c ****         drawVLine(4,4,7);
 589              		.loc 2 178 0
 590 00e0 0420     		mov	r0, #4
 591 00e2 0421     		mov	r1, #4
 592 00e4 0722     		mov	r2, #7
 593 00e6 FFF7FEFF 		bl	drawVLine
 594              	.L28:
 179:..\..\common\lib\lib_Display/display.c ****     }
 180:..\..\common\lib\lib_Display/display.c ****     update(); 
 595              		.loc 2 180 0
 596 00ea FFF7FEFF 		bl	update
 181:..\..\common\lib\lib_Display/display.c **** }
 597              		.loc 2 181 0
 598 00ee BD46     		mov	sp, r7
 599 00f0 02B0     		add	sp, sp, #8
 600              		@ sp needed
 601 00f2 80BD     		pop	{r7, pc}
 602              		.cfi_endproc
 603              	.LFE67:
 604              		.size	DisplayNetworkQuality, .-DisplayNetworkQuality
 605              		.section	.rodata
 606              		.align	2
 607              	.LC11:
 608 000c 2530326C 		.ascii	"%02lu:%02lu:%02lu\000"
 608      753A2530 
 608      326C753A 
 608      2530326C 
 608      7500
 609              		.section	.text.DisplayRealTime,"ax",%progbits
 610              		.align	2
 611              		.global	DisplayRealTime
 612              		.code	16
 613              		.thumb_func
 614              		.type	DisplayRealTime, %function
 615              	DisplayRealTime:
 616              	.LFB68:
 182:..\..\common\lib\lib_Display/display.c **** 
 183:..\..\common\lib\lib_Display/display.c **** /*******************************************************************************
 184:..\..\common\lib\lib_Display/display.c **** * Function name: DisplayPrintfRealTime
 185:..\..\common\lib\lib_Display/display.c **** ********************************************************************************
 186:..\..\common\lib\lib_Display/display.c **** *
ARM GAS  C:\Users\Petro\AppData\Local\Temp\ccMT0U8n.s 			page 25


 187:..\..\common\lib\lib_Display/display.c **** * Summary:
 188:..\..\common\lib\lib_Display/display.c **** *   print real time from position row = 1, column = 0
 189:..\..\common\lib\lib_Display/display.c **** *
 190:..\..\common\lib\lib_Display/display.c **** *******************************************************************************/
 191:..\..\common\lib\lib_Display/display.c **** void DisplayRealTime(void)
 192:..\..\common\lib\lib_Display/display.c **** {
 617              		.loc 2 192 0
 618              		.cfi_startproc
 619 0000 B0B5     		push	{r4, r5, r7, lr}
 620              		.cfi_def_cfa_offset 16
 621              		.cfi_offset 4, -16
 622              		.cfi_offset 5, -12
 623              		.cfi_offset 7, -8
 624              		.cfi_offset 14, -4
 625 0002 84B0     		sub	sp, sp, #16
 626              		.cfi_def_cfa_offset 32
 627 0004 02AF     		add	r7, sp, #8
 628              		.cfi_def_cfa 7, 24
 193:..\..\common\lib\lib_Display/display.c ****     uint32_t time;
 194:..\..\common\lib\lib_Display/display.c ****     
 195:..\..\common\lib\lib_Display/display.c ****     setFont(SmallFont);
 629              		.loc 2 195 0
 630 0006 154B     		ldr	r3, .L30
 631 0008 181C     		mov	r0, r3
 632 000a FFF7FEFF 		bl	setFont
 196:..\..\common\lib\lib_Display/display.c ****     time = RTC_GetTime();
 633              		.loc 2 196 0
 634 000e FFF7FEFF 		bl	RTC_GetTime
 635 0012 031C     		mov	r3, r0
 636 0014 7B60     		str	r3, [r7, #4]
 197:..\..\common\lib\lib_Display/display.c ****     sprintf(buff, "%02lu:%02lu:%02lu", RTC_GetHours(time),RTC_GetMinutes(time), RTC_GetSecond(time)
 637              		.loc 2 197 0
 638 0016 7B68     		ldr	r3, [r7, #4]
 639 0018 181C     		mov	r0, r3
 640 001a FFF7FEFF 		bl	RTC_GetHours
 641 001e 051C     		mov	r5, r0
 642 0020 7B68     		ldr	r3, [r7, #4]
 643 0022 181C     		mov	r0, r3
 644 0024 FFF7FEFF 		bl	RTC_GetMinutes
 645 0028 041C     		mov	r4, r0
 646 002a 7B68     		ldr	r3, [r7, #4]
 647 002c 181C     		mov	r0, r3
 648 002e FFF7FEFF 		bl	RTC_GetSecond
 649 0032 011C     		mov	r1, r0
 650 0034 0A4A     		ldr	r2, .L30+4
 651 0036 0B4B     		ldr	r3, .L30+8
 652 0038 0091     		str	r1, [sp]
 653 003a 101C     		mov	r0, r2
 654 003c 191C     		mov	r1, r3
 655 003e 2A1C     		mov	r2, r5
 656 0040 231C     		mov	r3, r4
 657 0042 FFF7FEFF 		bl	sprintf
 198:..\..\common\lib\lib_Display/display.c ****     //sprintf(buff,"%02d:%02d:%02d", 13,59,59);
 199:..\..\common\lib\lib_Display/display.c ****     print(buff,10,0);
 658              		.loc 2 199 0
 659 0046 064B     		ldr	r3, .L30+4
 660 0048 181C     		mov	r0, r3
ARM GAS  C:\Users\Petro\AppData\Local\Temp\ccMT0U8n.s 			page 26


 661 004a 0A21     		mov	r1, #10
 662 004c 0022     		mov	r2, #0
 663 004e FFF7FEFF 		bl	print
 200:..\..\common\lib\lib_Display/display.c ****     update();
 664              		.loc 2 200 0
 665 0052 FFF7FEFF 		bl	update
 201:..\..\common\lib\lib_Display/display.c ****     
 202:..\..\common\lib\lib_Display/display.c **** }
 666              		.loc 2 202 0
 667 0056 BD46     		mov	sp, r7
 668 0058 02B0     		add	sp, sp, #8
 669              		@ sp needed
 670 005a B0BD     		pop	{r4, r5, r7, pc}
 671              	.L31:
 672              		.align	2
 673              	.L30:
 674 005c 00000000 		.word	SmallFont
 675 0060 00000000 		.word	buff
 676 0064 0C000000 		.word	.LC11
 677              		.cfi_endproc
 678              	.LFE68:
 679              		.size	DisplayRealTime, .-DisplayRealTime
 680              		.section	.text.DisplayLoading,"ax",%progbits
 681              		.align	2
 682              		.global	DisplayLoading
 683              		.code	16
 684              		.thumb_func
 685              		.type	DisplayLoading, %function
 686              	DisplayLoading:
 687              	.LFB69:
 203:..\..\common\lib\lib_Display/display.c **** 
 204:..\..\common\lib\lib_Display/display.c **** 
 205:..\..\common\lib\lib_Display/display.c **** /*******************************************************************************
 206:..\..\common\lib\lib_Display/display.c **** * Function name: DisplayPrintfLoading
 207:..\..\common\lib\lib_Display/display.c **** ********************************************************************************
 208:..\..\common\lib\lib_Display/display.c **** *
 209:..\..\common\lib\lib_Display/display.c **** * print loading from position row = 1, column = 0
 210:..\..\common\lib\lib_Display/display.c **** *
 211:..\..\common\lib\lib_Display/display.c **** *******************************************************************************/
 212:..\..\common\lib\lib_Display/display.c **** void DisplayLoading(uint32_t numLoad)
 213:..\..\common\lib\lib_Display/display.c **** {
 688              		.loc 2 213 0
 689              		.cfi_startproc
 690 0000 80B5     		push	{r7, lr}
 691              		.cfi_def_cfa_offset 8
 692              		.cfi_offset 7, -8
 693              		.cfi_offset 14, -4
 694 0002 82B0     		sub	sp, sp, #8
 695              		.cfi_def_cfa_offset 16
 696 0004 00AF     		add	r7, sp, #0
 697              		.cfi_def_cfa_register 7
 698 0006 7860     		str	r0, [r7, #4]
 214:..\..\common\lib\lib_Display/display.c **** //    if(numLoad == 0)
 215:..\..\common\lib\lib_Display/display.c **** //    {
 216:..\..\common\lib\lib_Display/display.c **** //        /*clear row 1*/
 217:..\..\common\lib\lib_Display/display.c **** //        LCD_Position(1,0);
 218:..\..\common\lib\lib_Display/display.c **** //        LCD_PrintString("             ");
ARM GAS  C:\Users\Petro\AppData\Local\Temp\ccMT0U8n.s 			page 27


 219:..\..\common\lib\lib_Display/display.c **** //    }
 220:..\..\common\lib\lib_Display/display.c **** //    if((numLoad > 0) && numLoad < 16)
 221:..\..\common\lib\lib_Display/display.c **** //    {
 222:..\..\common\lib\lib_Display/display.c **** //        LCD_Position(1,numLoad-1);
 223:..\..\common\lib\lib_Display/display.c **** //        LCD_PutChar(LCD_CUSTOM_4);
 224:..\..\common\lib\lib_Display/display.c **** //    }
 225:..\..\common\lib\lib_Display/display.c **** }
 699              		.loc 2 225 0
 700 0008 BD46     		mov	sp, r7
 701 000a 02B0     		add	sp, sp, #8
 702              		@ sp needed
 703 000c 80BD     		pop	{r7, pc}
 704              		.cfi_endproc
 705              	.LFE69:
 706              		.size	DisplayLoading, .-DisplayLoading
 707              		.global	__aeabi_fcmplt
 708              		.global	__aeabi_f2d
 709              		.global	__aeabi_dcmpgt
 710 000e C046     		.section	.text.DisplayBattVoltage,"ax",%progbits
 711              		.align	2
 712              		.global	DisplayBattVoltage
 713              		.code	16
 714              		.thumb_func
 715              		.type	DisplayBattVoltage, %function
 716              	DisplayBattVoltage:
 717              	.LFB70:
 226:..\..\common\lib\lib_Display/display.c **** 
 227:..\..\common\lib\lib_Display/display.c **** /*******************************************************************************
 228:..\..\common\lib\lib_Display/display.c **** * Function name: DisplayBattVoltage
 229:..\..\common\lib\lib_Display/display.c **** ********************************************************************************
 230:..\..\common\lib\lib_Display/display.c **** *
 231:..\..\common\lib\lib_Display/display.c **** * print voltage battery
 232:..\..\common\lib\lib_Display/display.c **** *
 233:..\..\common\lib\lib_Display/display.c **** *******************************************************************************/
 234:..\..\common\lib\lib_Display/display.c **** void DisplayBattVoltage(float voltage)
 235:..\..\common\lib\lib_Display/display.c **** {
 718              		.loc 2 235 0
 719              		.cfi_startproc
 720 0000 90B5     		push	{r4, r7, lr}
 721              		.cfi_def_cfa_offset 12
 722              		.cfi_offset 4, -12
 723              		.cfi_offset 7, -8
 724              		.cfi_offset 14, -4
 725 0002 85B0     		sub	sp, sp, #20
 726              		.cfi_def_cfa_offset 32
 727 0004 00AF     		add	r7, sp, #0
 728              		.cfi_def_cfa_register 7
 729 0006 7860     		str	r0, [r7, #4]
 236:..\..\common\lib\lib_Display/display.c ****     if(voltage < 0)return;
 730              		.loc 2 236 0
 731 0008 7868     		ldr	r0, [r7, #4]
 732 000a 0021     		mov	r1, #0
 733 000c FFF7FEFF 		bl	__aeabi_fcmplt
 734 0010 031E     		sub	r3, r0, #0
 735 0012 00D0     		beq	.L52
 736 0014 9AE0     		b	.L33
 737              	.L52:
ARM GAS  C:\Users\Petro\AppData\Local\Temp\ccMT0U8n.s 			page 28


 237:..\..\common\lib\lib_Display/display.c ****     
 238:..\..\common\lib\lib_Display/display.c ****     /*clear image batt*/
 239:..\..\common\lib\lib_Display/display.c ****     uint8_t i;
 240:..\..\common\lib\lib_Display/display.c ****     for(i=0;i<5;i++)
 738              		.loc 2 240 0
 739 0016 0F23     		mov	r3, #15
 740 0018 FB18     		add	r3, r7, r3
 741 001a 0022     		mov	r2, #0
 742 001c 1A70     		strb	r2, [r3]
 743 001e 0FE0     		b	.L37
 744              	.L38:
 241:..\..\common\lib\lib_Display/display.c ****     {
 242:..\..\common\lib\lib_Display/display.c ****         clrVLine(77+i,4,35);
 745              		.loc 2 242 0 discriminator 3
 746 0020 0F23     		mov	r3, #15
 747 0022 FB18     		add	r3, r7, r3
 748 0024 1B78     		ldrb	r3, [r3]
 749 0026 4D33     		add	r3, r3, #77
 750 0028 181C     		mov	r0, r3
 751 002a 0421     		mov	r1, #4
 752 002c 2322     		mov	r2, #35
 753 002e FFF7FEFF 		bl	clrVLine
 240:..\..\common\lib\lib_Display/display.c ****     {
 754              		.loc 2 240 0 discriminator 3
 755 0032 0F23     		mov	r3, #15
 756 0034 FB18     		add	r3, r7, r3
 757 0036 1A78     		ldrb	r2, [r3]
 758 0038 0F23     		mov	r3, #15
 759 003a FB18     		add	r3, r7, r3
 760 003c 0132     		add	r2, r2, #1
 761 003e 1A70     		strb	r2, [r3]
 762              	.L37:
 240:..\..\common\lib\lib_Display/display.c ****     {
 763              		.loc 2 240 0 is_stmt 0 discriminator 1
 764 0040 0F23     		mov	r3, #15
 765 0042 FB18     		add	r3, r7, r3
 766 0044 1B78     		ldrb	r3, [r3]
 767 0046 042B     		cmp	r3, #4
 768 0048 EAD9     		bls	.L38
 243:..\..\common\lib\lib_Display/display.c ****     }
 244:..\..\common\lib\lib_Display/display.c ****     
 245:..\..\common\lib\lib_Display/display.c ****     if(voltage > BATT_0_PERCENT)
 769              		.loc 2 245 0 is_stmt 1
 770 004a 7868     		ldr	r0, [r7, #4]
 771 004c FFF7FEFF 		bl	__aeabi_f2d
 772 0050 031C     		mov	r3, r0
 773 0052 0C1C     		mov	r4, r1
 774 0054 181C     		mov	r0, r3
 775 0056 211C     		mov	r1, r4
 776 0058 3E4A     		ldr	r2, .L53
 777 005a 3F4B     		ldr	r3, .L53+4
 778 005c FFF7FEFF 		bl	__aeabi_dcmpgt
 779 0060 031E     		sub	r3, r0, #0
 780 0062 0ED0     		beq	.L39
 246:..\..\common\lib\lib_Display/display.c ****     {
 247:..\..\common\lib\lib_Display/display.c ****         drawVLine(79,31,7);
 781              		.loc 2 247 0
ARM GAS  C:\Users\Petro\AppData\Local\Temp\ccMT0U8n.s 			page 29


 782 0064 4F20     		mov	r0, #79
 783 0066 1F21     		mov	r1, #31
 784 0068 0722     		mov	r2, #7
 785 006a FFF7FEFF 		bl	drawVLine
 248:..\..\common\lib\lib_Display/display.c ****         drawVLine(80,31,7);
 786              		.loc 2 248 0
 787 006e 5020     		mov	r0, #80
 788 0070 1F21     		mov	r1, #31
 789 0072 0722     		mov	r2, #7
 790 0074 FFF7FEFF 		bl	drawVLine
 249:..\..\common\lib\lib_Display/display.c ****         drawVLine(81,31,7);
 791              		.loc 2 249 0
 792 0078 5120     		mov	r0, #81
 793 007a 1F21     		mov	r1, #31
 794 007c 0722     		mov	r2, #7
 795 007e FFF7FEFF 		bl	drawVLine
 796              	.L39:
 250:..\..\common\lib\lib_Display/display.c ****     }
 251:..\..\common\lib\lib_Display/display.c ****     if(voltage > BATT_25_PERCENT)
 797              		.loc 2 251 0
 798 0082 7868     		ldr	r0, [r7, #4]
 799 0084 FFF7FEFF 		bl	__aeabi_f2d
 800 0088 031C     		mov	r3, r0
 801 008a 0C1C     		mov	r4, r1
 802 008c 181C     		mov	r0, r3
 803 008e 211C     		mov	r1, r4
 804 0090 324A     		ldr	r2, .L53+8
 805 0092 334B     		ldr	r3, .L53+12
 806 0094 FFF7FEFF 		bl	__aeabi_dcmpgt
 807 0098 031E     		sub	r3, r0, #0
 808 009a 0ED0     		beq	.L41
 252:..\..\common\lib\lib_Display/display.c ****     {
 253:..\..\common\lib\lib_Display/display.c ****         drawVLine(79,22,7);
 809              		.loc 2 253 0
 810 009c 4F20     		mov	r0, #79
 811 009e 1621     		mov	r1, #22
 812 00a0 0722     		mov	r2, #7
 813 00a2 FFF7FEFF 		bl	drawVLine
 254:..\..\common\lib\lib_Display/display.c ****         drawVLine(80,22,7);
 814              		.loc 2 254 0
 815 00a6 5020     		mov	r0, #80
 816 00a8 1621     		mov	r1, #22
 817 00aa 0722     		mov	r2, #7
 818 00ac FFF7FEFF 		bl	drawVLine
 255:..\..\common\lib\lib_Display/display.c ****         drawVLine(81,22,7);
 819              		.loc 2 255 0
 820 00b0 5120     		mov	r0, #81
 821 00b2 1621     		mov	r1, #22
 822 00b4 0722     		mov	r2, #7
 823 00b6 FFF7FEFF 		bl	drawVLine
 824              	.L41:
 256:..\..\common\lib\lib_Display/display.c ****     }
 257:..\..\common\lib\lib_Display/display.c ****     if(voltage > BATT_50_PERCENT)
 825              		.loc 2 257 0
 826 00ba 7868     		ldr	r0, [r7, #4]
 827 00bc FFF7FEFF 		bl	__aeabi_f2d
 828 00c0 031C     		mov	r3, r0
ARM GAS  C:\Users\Petro\AppData\Local\Temp\ccMT0U8n.s 			page 30


 829 00c2 0C1C     		mov	r4, r1
 830 00c4 181C     		mov	r0, r3
 831 00c6 211C     		mov	r1, r4
 832 00c8 264A     		ldr	r2, .L53+16
 833 00ca 274B     		ldr	r3, .L53+20
 834 00cc FFF7FEFF 		bl	__aeabi_dcmpgt
 835 00d0 031E     		sub	r3, r0, #0
 836 00d2 13D0     		beq	.L43
 258:..\..\common\lib\lib_Display/display.c ****     {
 259:..\..\common\lib\lib_Display/display.c ****         drawVLine(78,13,7);
 837              		.loc 2 259 0
 838 00d4 4E20     		mov	r0, #78
 839 00d6 0D21     		mov	r1, #13
 840 00d8 0722     		mov	r2, #7
 841 00da FFF7FEFF 		bl	drawVLine
 260:..\..\common\lib\lib_Display/display.c ****         drawVLine(79,13,7);
 842              		.loc 2 260 0
 843 00de 4F20     		mov	r0, #79
 844 00e0 0D21     		mov	r1, #13
 845 00e2 0722     		mov	r2, #7
 846 00e4 FFF7FEFF 		bl	drawVLine
 261:..\..\common\lib\lib_Display/display.c ****         drawVLine(80,13,7);
 847              		.loc 2 261 0
 848 00e8 5020     		mov	r0, #80
 849 00ea 0D21     		mov	r1, #13
 850 00ec 0722     		mov	r2, #7
 851 00ee FFF7FEFF 		bl	drawVLine
 262:..\..\common\lib\lib_Display/display.c ****         drawVLine(81,13,7);
 852              		.loc 2 262 0
 853 00f2 5120     		mov	r0, #81
 854 00f4 0D21     		mov	r1, #13
 855 00f6 0722     		mov	r2, #7
 856 00f8 FFF7FEFF 		bl	drawVLine
 857              	.L43:
 263:..\..\common\lib\lib_Display/display.c ****     }
 264:..\..\common\lib\lib_Display/display.c ****     if(voltage > BATT_75_PERCENT)
 858              		.loc 2 264 0
 859 00fc 7868     		ldr	r0, [r7, #4]
 860 00fe FFF7FEFF 		bl	__aeabi_f2d
 861 0102 031C     		mov	r3, r0
 862 0104 0C1C     		mov	r4, r1
 863 0106 181C     		mov	r0, r3
 864 0108 211C     		mov	r1, r4
 865 010a 184A     		ldr	r2, .L53+24
 866 010c 184B     		ldr	r3, .L53+28
 867 010e FFF7FEFF 		bl	__aeabi_dcmpgt
 868 0112 031E     		sub	r3, r0, #0
 869 0114 18D0     		beq	.L45
 265:..\..\common\lib\lib_Display/display.c ****     {
 266:..\..\common\lib\lib_Display/display.c ****         drawVLine(77,4,7);
 870              		.loc 2 266 0
 871 0116 4D20     		mov	r0, #77
 872 0118 0421     		mov	r1, #4
 873 011a 0722     		mov	r2, #7
 874 011c FFF7FEFF 		bl	drawVLine
 267:..\..\common\lib\lib_Display/display.c ****         drawVLine(78,4,7);
 875              		.loc 2 267 0
ARM GAS  C:\Users\Petro\AppData\Local\Temp\ccMT0U8n.s 			page 31


 876 0120 4E20     		mov	r0, #78
 877 0122 0421     		mov	r1, #4
 878 0124 0722     		mov	r2, #7
 879 0126 FFF7FEFF 		bl	drawVLine
 268:..\..\common\lib\lib_Display/display.c ****         drawVLine(79,4,7);
 880              		.loc 2 268 0
 881 012a 4F20     		mov	r0, #79
 882 012c 0421     		mov	r1, #4
 883 012e 0722     		mov	r2, #7
 884 0130 FFF7FEFF 		bl	drawVLine
 269:..\..\common\lib\lib_Display/display.c ****         drawVLine(80,4,7);
 885              		.loc 2 269 0
 886 0134 5020     		mov	r0, #80
 887 0136 0421     		mov	r1, #4
 888 0138 0722     		mov	r2, #7
 889 013a FFF7FEFF 		bl	drawVLine
 270:..\..\common\lib\lib_Display/display.c ****         drawVLine(81,4,7);
 890              		.loc 2 270 0
 891 013e 5120     		mov	r0, #81
 892 0140 0421     		mov	r1, #4
 893 0142 0722     		mov	r2, #7
 894 0144 FFF7FEFF 		bl	drawVLine
 895              	.L45:
 271:..\..\common\lib\lib_Display/display.c ****     }
 272:..\..\common\lib\lib_Display/display.c ****     update();
 896              		.loc 2 272 0
 897 0148 FFF7FEFF 		bl	update
 898              	.L33:
 273:..\..\common\lib\lib_Display/display.c **** }
 899              		.loc 2 273 0
 900 014c BD46     		mov	sp, r7
 901 014e 05B0     		add	sp, sp, #20
 902              		@ sp needed
 903 0150 90BD     		pop	{r4, r7, pc}
 904              	.L54:
 905 0152 C046     		.align	2
 906              	.L53:
 907 0154 9A999999 		.word	-1717986918
 908 0158 9999D93F 		.word	1071225241
 909 015c E17A14AE 		.word	-1374389535
 910 0160 47E1DA3F 		.word	1071309127
 911 0164 295C8FC2 		.word	-1030792151
 912 0168 F528DC3F 		.word	1071393013
 913 016c 713D0AD7 		.word	-687194767
 914 0170 A370DD3F 		.word	1071476899
 915              		.cfi_endproc
 916              	.LFE70:
 917              		.size	DisplayBattVoltage, .-DisplayBattVoltage
 918              		.global	__aeabi_uidiv
 919              		.global	__aeabi_uidivmod
 920              		.section	.text.DisplayLastSkierTime,"ax",%progbits
 921              		.align	2
 922              		.global	DisplayLastSkierTime
 923              		.code	16
 924              		.thumb_func
 925              		.type	DisplayLastSkierTime, %function
 926              	DisplayLastSkierTime:
ARM GAS  C:\Users\Petro\AppData\Local\Temp\ccMT0U8n.s 			page 32


 927              	.LFB71:
 274:..\..\common\lib\lib_Display/display.c **** 
 275:..\..\common\lib\lib_Display/display.c **** /*******************************************************************************
 276:..\..\common\lib\lib_Display/display.c **** * Function name: DisplayPrintLastTimeSkier
 277:..\..\common\lib\lib_Display/display.c **** ********************************************************************************
 278:..\..\common\lib\lib_Display/display.c **** *
 279:..\..\common\lib\lib_Display/display.c **** * Summary:
 280:..\..\common\lib\lib_Display/display.c **** *   print time last skier from position row = 1, column = 0
 281:..\..\common\lib\lib_Display/display.c **** *
 282:..\..\common\lib\lib_Display/display.c **** *******************************************************************************/
 283:..\..\common\lib\lib_Display/display.c **** void DisplayLastSkierTime(uint32_t sec, uint16_t milisec)
 284:..\..\common\lib\lib_Display/display.c **** {
 928              		.loc 2 284 0
 929              		.cfi_startproc
 930 0000 80B5     		push	{r7, lr}
 931              		.cfi_def_cfa_offset 8
 932              		.cfi_offset 7, -8
 933              		.cfi_offset 14, -4
 934 0002 84B0     		sub	sp, sp, #16
 935              		.cfi_def_cfa_offset 24
 936 0004 02AF     		add	r7, sp, #8
 937              		.cfi_def_cfa 7, 16
 938 0006 7860     		str	r0, [r7, #4]
 939 0008 0A1C     		mov	r2, r1
 940 000a BB1C     		add	r3, r7, #2
 941 000c 1A80     		strh	r2, [r3]
 285:..\..\common\lib\lib_Display/display.c ****     if(sec > 60000 || milisec >= 1000)return;
 942              		.loc 2 285 0
 943 000e 7B68     		ldr	r3, [r7, #4]
 944 0010 1B4A     		ldr	r2, .L59
 945 0012 9342     		cmp	r3, r2
 946 0014 04D8     		bhi	.L56
 947              		.loc 2 285 0 is_stmt 0 discriminator 1
 948 0016 BB1C     		add	r3, r7, #2
 949 0018 1B88     		ldrh	r3, [r3]
 950 001a 1A4A     		ldr	r2, .L59+4
 951 001c 9342     		cmp	r3, r2
 952 001e 00D9     		bls	.L57
 953              	.L56:
 954              		.loc 2 285 0
 955 0020 2BE0     		b	.L55
 956              	.L57:
 286:..\..\common\lib\lib_Display/display.c ****         
 287:..\..\common\lib\lib_Display/display.c ****     setFont(SmallFont);
 957              		.loc 2 287 0 is_stmt 1
 958 0022 194B     		ldr	r3, .L59+8
 959 0024 181C     		mov	r0, r3
 960 0026 FFF7FEFF 		bl	setFont
 288:..\..\common\lib\lib_Display/display.c ****     printNumI(sec/60,22,11,3,' ');
 961              		.loc 2 288 0
 962 002a 7B68     		ldr	r3, [r7, #4]
 963 002c 181C     		mov	r0, r3
 964 002e 3C21     		mov	r1, #60
 965 0030 FFF7FEFF 		bl	__aeabi_uidiv
 966 0034 031C     		mov	r3, r0
 967 0036 1A1C     		mov	r2, r3
 968 0038 2023     		mov	r3, #32
ARM GAS  C:\Users\Petro\AppData\Local\Temp\ccMT0U8n.s 			page 33


 969 003a 0093     		str	r3, [sp]
 970 003c 101C     		mov	r0, r2
 971 003e 1621     		mov	r1, #22
 972 0040 0B22     		mov	r2, #11
 973 0042 0323     		mov	r3, #3
 974 0044 FFF7FEFF 		bl	printNumI
 289:..\..\common\lib\lib_Display/display.c ****     printNumI(sec%60,28,20,2,' ');
 975              		.loc 2 289 0
 976 0048 7B68     		ldr	r3, [r7, #4]
 977 004a 181C     		mov	r0, r3
 978 004c 3C21     		mov	r1, #60
 979 004e FFF7FEFF 		bl	__aeabi_uidivmod
 980 0052 0B1C     		mov	r3, r1
 981 0054 1A1C     		mov	r2, r3
 982 0056 2023     		mov	r3, #32
 983 0058 0093     		str	r3, [sp]
 984 005a 101C     		mov	r0, r2
 985 005c 1C21     		mov	r1, #28
 986 005e 1422     		mov	r2, #20
 987 0060 0223     		mov	r3, #2
 988 0062 FFF7FEFF 		bl	printNumI
 290:..\..\common\lib\lib_Display/display.c ****     printNumI(milisec,22,29,3,' ');
 989              		.loc 2 290 0
 990 0066 BB1C     		add	r3, r7, #2
 991 0068 1A88     		ldrh	r2, [r3]
 992 006a 2023     		mov	r3, #32
 993 006c 0093     		str	r3, [sp]
 994 006e 101C     		mov	r0, r2
 995 0070 1621     		mov	r1, #22
 996 0072 1D22     		mov	r2, #29
 997 0074 0323     		mov	r3, #3
 998 0076 FFF7FEFF 		bl	printNumI
 999              	.L55:
 291:..\..\common\lib\lib_Display/display.c **** }
 1000              		.loc 2 291 0
 1001 007a BD46     		mov	sp, r7
 1002 007c 02B0     		add	sp, sp, #8
 1003              		@ sp needed
 1004 007e 80BD     		pop	{r7, pc}
 1005              	.L60:
 1006              		.align	2
 1007              	.L59:
 1008 0080 60EA0000 		.word	60000
 1009 0084 E7030000 		.word	999
 1010 0088 00000000 		.word	SmallFont
 1011              		.cfi_endproc
 1012              	.LFE71:
 1013              		.size	DisplayLastSkierTime, .-DisplayLastSkierTime
 1014              		.section	.text.DisplayNumSkierOnWay,"ax",%progbits
 1015              		.align	2
 1016              		.global	DisplayNumSkierOnWay
 1017              		.code	16
 1018              		.thumb_func
 1019              		.type	DisplayNumSkierOnWay, %function
 1020              	DisplayNumSkierOnWay:
 1021              	.LFB72:
 292:..\..\common\lib\lib_Display/display.c **** 
ARM GAS  C:\Users\Petro\AppData\Local\Temp\ccMT0U8n.s 			page 34


 293:..\..\common\lib\lib_Display/display.c **** /*******************************************************************************
 294:..\..\common\lib\lib_Display/display.c **** * Function name: DisplayPrintNumSkierOnWay
 295:..\..\common\lib\lib_Display/display.c **** ********************************************************************************
 296:..\..\common\lib\lib_Display/display.c **** *
 297:..\..\common\lib\lib_Display/display.c **** * Summary:
 298:..\..\common\lib\lib_Display/display.c **** *   print number skier on way from position row = 1, column = 11
 299:..\..\common\lib\lib_Display/display.c **** *
 300:..\..\common\lib\lib_Display/display.c **** *******************************************************************************/
 301:..\..\common\lib\lib_Display/display.c **** void DisplayNumSkierOnWay(uint32_t num)
 302:..\..\common\lib\lib_Display/display.c **** {
 1022              		.loc 2 302 0
 1023              		.cfi_startproc
 1024 0000 80B5     		push	{r7, lr}
 1025              		.cfi_def_cfa_offset 8
 1026              		.cfi_offset 7, -8
 1027              		.cfi_offset 14, -4
 1028 0002 84B0     		sub	sp, sp, #16
 1029              		.cfi_def_cfa_offset 24
 1030 0004 02AF     		add	r7, sp, #8
 1031              		.cfi_def_cfa 7, 16
 1032 0006 7860     		str	r0, [r7, #4]
 303:..\..\common\lib\lib_Display/display.c ****     setFont(MediumNumbers);
 1033              		.loc 2 303 0
 1034 0008 0C4B     		ldr	r3, .L62
 1035 000a 181C     		mov	r0, r3
 1036 000c FFF7FEFF 		bl	setFont
 304:..\..\common\lib\lib_Display/display.c ****     printNumI(num,43,14,1,' ');
 1037              		.loc 2 304 0
 1038 0010 7A68     		ldr	r2, [r7, #4]
 1039 0012 2023     		mov	r3, #32
 1040 0014 0093     		str	r3, [sp]
 1041 0016 101C     		mov	r0, r2
 1042 0018 2B21     		mov	r1, #43
 1043 001a 0E22     		mov	r2, #14
 1044 001c 0123     		mov	r3, #1
 1045 001e FFF7FEFF 		bl	printNumI
 305:..\..\common\lib\lib_Display/display.c ****     printNumI(4,64,14,1,' ');
 1046              		.loc 2 305 0
 1047 0022 2023     		mov	r3, #32
 1048 0024 0093     		str	r3, [sp]
 1049 0026 0420     		mov	r0, #4
 1050 0028 4021     		mov	r1, #64
 1051 002a 0E22     		mov	r2, #14
 1052 002c 0123     		mov	r3, #1
 1053 002e FFF7FEFF 		bl	printNumI
 306:..\..\common\lib\lib_Display/display.c ****     update();
 1054              		.loc 2 306 0
 1055 0032 FFF7FEFF 		bl	update
 307:..\..\common\lib\lib_Display/display.c **** }
 1056              		.loc 2 307 0
 1057 0036 BD46     		mov	sp, r7
 1058 0038 02B0     		add	sp, sp, #8
 1059              		@ sp needed
 1060 003a 80BD     		pop	{r7, pc}
 1061              	.L63:
 1062              		.align	2
 1063              	.L62:
ARM GAS  C:\Users\Petro\AppData\Local\Temp\ccMT0U8n.s 			page 35


 1064 003c 00000000 		.word	MediumNumbers
 1065              		.cfi_endproc
 1066              	.LFE72:
 1067              		.size	DisplayNumSkierOnWay, .-DisplayNumSkierOnWay
 1068              		.section	.rodata
 1069 001e 0000     		.align	2
 1070              	.LC16:
 1071 0020 74657374 		.ascii	"test\000"
 1071      00
 1072 0025 000000   		.align	2
 1073              	.LC18:
 1074 0028 20202020 		.ascii	"    \000"
 1074      00
 1075 002d 000000   		.section	.text.DisplayTestMode,"ax",%progbits
 1076              		.align	2
 1077              		.global	DisplayTestMode
 1078              		.code	16
 1079              		.thumb_func
 1080              		.type	DisplayTestMode, %function
 1081              	DisplayTestMode:
 1082              	.LFB73:
 308:..\..\common\lib\lib_Display/display.c **** 
 309:..\..\common\lib\lib_Display/display.c **** /*******************************************************************************
 310:..\..\common\lib\lib_Display/display.c **** * Function name: DisplayTestMode
 311:..\..\common\lib\lib_Display/display.c **** ********************************************************************************
 312:..\..\common\lib\lib_Display/display.c **** *
 313:..\..\common\lib\lib_Display/display.c **** * Summary:
 314:..\..\common\lib\lib_Display/display.c **** *   display on indicator test mode
 315:..\..\common\lib\lib_Display/display.c **** *
 316:..\..\common\lib\lib_Display/display.c **** *******************************************************************************/
 317:..\..\common\lib\lib_Display/display.c **** void DisplayTestMode(uint8_t state)
 318:..\..\common\lib\lib_Display/display.c **** {
 1083              		.loc 2 318 0
 1084              		.cfi_startproc
 1085 0000 80B5     		push	{r7, lr}
 1086              		.cfi_def_cfa_offset 8
 1087              		.cfi_offset 7, -8
 1088              		.cfi_offset 14, -4
 1089 0002 82B0     		sub	sp, sp, #8
 1090              		.cfi_def_cfa_offset 16
 1091 0004 00AF     		add	r7, sp, #0
 1092              		.cfi_def_cfa_register 7
 1093 0006 021C     		mov	r2, r0
 1094 0008 FB1D     		add	r3, r7, #7
 1095 000a 1A70     		strb	r2, [r3]
 319:..\..\common\lib\lib_Display/display.c ****     setFont(TinyFont);
 1096              		.loc 2 319 0
 1097 000c 0B4B     		ldr	r3, .L67
 1098 000e 181C     		mov	r0, r3
 1099 0010 FFF7FEFF 		bl	setFont
 320:..\..\common\lib\lib_Display/display.c ****     if(state > 0)
 1100              		.loc 2 320 0
 1101 0014 FB1D     		add	r3, r7, #7
 1102 0016 1B78     		ldrb	r3, [r3]
 1103 0018 002B     		cmp	r3, #0
 1104 001a 06D0     		beq	.L65
 321:..\..\common\lib\lib_Display/display.c ****         print("test",43,31);
ARM GAS  C:\Users\Petro\AppData\Local\Temp\ccMT0U8n.s 			page 36


 1105              		.loc 2 321 0
 1106 001c 084B     		ldr	r3, .L67+4
 1107 001e 181C     		mov	r0, r3
 1108 0020 2B21     		mov	r1, #43
 1109 0022 1F22     		mov	r2, #31
 1110 0024 FFF7FEFF 		bl	print
 1111 0028 05E0     		b	.L64
 1112              	.L65:
 322:..\..\common\lib\lib_Display/display.c ****     else
 323:..\..\common\lib\lib_Display/display.c ****         print("    ",43,31); 
 1113              		.loc 2 323 0
 1114 002a 064B     		ldr	r3, .L67+8
 1115 002c 181C     		mov	r0, r3
 1116 002e 2B21     		mov	r1, #43
 1117 0030 1F22     		mov	r2, #31
 1118 0032 FFF7FEFF 		bl	print
 1119              	.L64:
 324:..\..\common\lib\lib_Display/display.c **** }
 1120              		.loc 2 324 0
 1121 0036 BD46     		mov	sp, r7
 1122 0038 02B0     		add	sp, sp, #8
 1123              		@ sp needed
 1124 003a 80BD     		pop	{r7, pc}
 1125              	.L68:
 1126              		.align	2
 1127              	.L67:
 1128 003c 00000000 		.word	TinyFont
 1129 0040 20000000 		.word	.LC16
 1130 0044 28000000 		.word	.LC18
 1131              		.cfi_endproc
 1132              	.LFE73:
 1133              		.size	DisplayTestMode, .-DisplayTestMode
 1134              		.section	.text.DisplaBacklightOn,"ax",%progbits
 1135              		.align	2
 1136              		.global	DisplaBacklightOn
 1137              		.code	16
 1138              		.thumb_func
 1139              		.type	DisplaBacklightOn, %function
 1140              	DisplaBacklightOn:
 1141              	.LFB74:
 325:..\..\common\lib\lib_Display/display.c **** 
 326:..\..\common\lib\lib_Display/display.c **** /*******************************************************************************
 327:..\..\common\lib\lib_Display/display.c **** * Function name: DisplaBacklightOn/DisplaBacklightOff
 328:..\..\common\lib\lib_Display/display.c **** ********************************************************************************
 329:..\..\common\lib\lib_Display/display.c **** *
 330:..\..\common\lib\lib_Display/display.c **** * Summary:
 331:..\..\common\lib\lib_Display/display.c **** *   on and off backlight display
 332:..\..\common\lib\lib_Display/display.c **** *
 333:..\..\common\lib\lib_Display/display.c **** *******************************************************************************/
 334:..\..\common\lib\lib_Display/display.c **** void DisplaBacklightOn(void)
 335:..\..\common\lib\lib_Display/display.c **** {
 1142              		.loc 2 335 0
 1143              		.cfi_startproc
 1144 0000 80B5     		push	{r7, lr}
 1145              		.cfi_def_cfa_offset 8
 1146              		.cfi_offset 7, -8
 1147              		.cfi_offset 14, -4
ARM GAS  C:\Users\Petro\AppData\Local\Temp\ccMT0U8n.s 			page 37


 1148 0002 00AF     		add	r7, sp, #0
 1149              		.cfi_def_cfa_register 7
 336:..\..\common\lib\lib_Display/display.c ****     LCD_BL_Write(1);
 1150              		.loc 2 336 0
 1151 0004 0120     		mov	r0, #1
 1152 0006 FFF7FEFF 		bl	LCD_BL_Write
 337:..\..\common\lib\lib_Display/display.c **** }
 1153              		.loc 2 337 0
 1154 000a BD46     		mov	sp, r7
 1155              		@ sp needed
 1156 000c 80BD     		pop	{r7, pc}
 1157              		.cfi_endproc
 1158              	.LFE74:
 1159              		.size	DisplaBacklightOn, .-DisplaBacklightOn
 1160 000e C046     		.section	.text.DisplaBacklightOff,"ax",%progbits
 1161              		.align	2
 1162              		.global	DisplaBacklightOff
 1163              		.code	16
 1164              		.thumb_func
 1165              		.type	DisplaBacklightOff, %function
 1166              	DisplaBacklightOff:
 1167              	.LFB75:
 338:..\..\common\lib\lib_Display/display.c **** 
 339:..\..\common\lib\lib_Display/display.c **** void DisplaBacklightOff(void)
 340:..\..\common\lib\lib_Display/display.c **** {
 1168              		.loc 2 340 0
 1169              		.cfi_startproc
 1170 0000 80B5     		push	{r7, lr}
 1171              		.cfi_def_cfa_offset 8
 1172              		.cfi_offset 7, -8
 1173              		.cfi_offset 14, -4
 1174 0002 00AF     		add	r7, sp, #0
 1175              		.cfi_def_cfa_register 7
 341:..\..\common\lib\lib_Display/display.c ****     LCD_BL_Write(0);
 1176              		.loc 2 341 0
 1177 0004 0020     		mov	r0, #0
 1178 0006 FFF7FEFF 		bl	LCD_BL_Write
 342:..\..\common\lib\lib_Display/display.c **** }
 1179              		.loc 2 342 0
 1180 000a BD46     		mov	sp, r7
 1181              		@ sp needed
 1182 000c 80BD     		pop	{r7, pc}
 1183              		.cfi_endproc
 1184              	.LFE75:
 1185              		.size	DisplaBacklightOff, .-DisplaBacklightOff
 1186 000e C046     		.text
 1187              	.Letext0:
 1188              		.file 3 "c:\\program files (x86)\\cypress\\psoc creator\\4.0\\psoc creator\\import\\gnu\\arm\\4.9.
 1189              		.file 4 "c:\\program files (x86)\\cypress\\psoc creator\\4.0\\psoc creator\\import\\gnu\\arm\\4.9.
 1190              		.file 5 "Generated_Source\\PSoC4/cytypes.h"
 1191              		.file 6 "./..\\..\\common\\lib\\lib_Display\\display.h"
 1192              		.file 7 "./..\\..\\common\\lib\\nokia5110\\LCD5110_Graph.h"