ARM GAS  C:\Users\Petro\AppData\Local\Temp\cc5qtVMS.s 			page 1


   1              		.cpu cortex-m0
   2              		.fpu softvfp
   3              		.eabi_attribute 20, 1
   4              		.eabi_attribute 21, 1
   5              		.eabi_attribute 23, 3
   6              		.eabi_attribute 24, 1
   7              		.eabi_attribute 25, 1
   8              		.eabi_attribute 26, 1
   9              		.eabi_attribute 30, 6
  10              		.eabi_attribute 34, 0
  11              		.eabi_attribute 18, 4
  12              		.code	16
  13              		.file	"testMode.c"
  14              		.text
  15              	.Ltext0:
  16              		.cfi_sections	.debug_frame
  17              		.comm	currentState,1,1
  18              		.bss
  19              		.align	2
  20              	result:
  21 0000 00000000 		.space	4
  22              		.global	statusTestMode
  23              		.type	statusTestMode, %object
  24              		.size	statusTestMode, 1
  25              	statusTestMode:
  26 0004 00       		.space	1
  27              		.global	switchState
  28              		.data
  29              		.type	switchState, %object
  30              		.size	switchState, 1
  31              	switchState:
  32 0000 03       		.byte	3
  33              		.global	networkState
  34              		.type	networkState, %object
  35              		.size	networkState, 1
  36              	networkState:
  37 0001 03       		.byte	3
  38              		.bss
  39              	enableTestMode:
  40 0005 00       		.space	1
  41              	allowNextTestSkier:
  42 0006 00       		.space	1
  43              		.section	.text.testModeHandler,"ax",%progbits
  44              		.align	2
  45              		.global	testModeHandler
  46              		.code	16
  47              		.thumb_func
  48              		.type	testModeHandler, %function
  49              	testModeHandler:
  50              	.LFB63:
  51              		.file 1 "..\\..\\common\\lib\\lib_testMode\\testMode.c"
   1:..\..\common\lib\lib_testMode/testMode.c **** #include "project.h"
   2:..\..\common\lib\lib_testMode/testMode.c **** #include <stdlib.h>
   3:..\..\common\lib\lib_testMode/testMode.c **** 
   4:..\..\common\lib\lib_testMode/testMode.c **** #include <stdio.h>
   5:..\..\common\lib\lib_testMode/testMode.c **** #include "..\..\common\lib\lib_Display\Display.h"
   6:..\..\common\lib\lib_testMode/testMode.c **** #include <lib_Network\network.h>
ARM GAS  C:\Users\Petro\AppData\Local\Temp\cc5qtVMS.s 			page 2


   7:..\..\common\lib\lib_testMode/testMode.c **** #include <..\..\common\lib\lib_Testmode\testMode.h>
   8:..\..\common\lib\lib_testMode/testMode.c **** #include "appGlobal.h"
   9:..\..\common\lib\lib_testMode/testMode.c **** #ifdef FINISH_MODULE
  10:..\..\common\lib\lib_testMode/testMode.c **** #include "..\..\common\lib\lib_DB\database.h"
  11:..\..\common\lib\lib_testMode/testMode.c **** #endif
  12:..\..\common\lib\lib_testMode/testMode.c **** 
  13:..\..\common\lib\lib_testMode/testMode.c **** #define COUNTER_TEST_MODE_ON   20
  14:..\..\common\lib\lib_testMode/testMode.c **** 
  15:..\..\common\lib\lib_testMode/testMode.c **** enum status {STOPPED=0, RUN};
  16:..\..\common\lib\lib_testMode/testMode.c **** typedef enum {HIGH_LEVEL, RISING_EDGE, FALLING_EDGE, LOW_LEVEL}funcReturnValue;
  17:..\..\common\lib\lib_testMode/testMode.c **** 
  18:..\..\common\lib\lib_testMode/testMode.c **** uint8_t statusTestMode = STOPPED;
  19:..\..\common\lib\lib_testMode/testMode.c **** 
  20:..\..\common\lib\lib_testMode/testMode.c **** funcReturnValue switchState = LOW_LEVEL;
  21:..\..\common\lib\lib_testMode/testMode.c **** funcReturnValue networkState = LOW_LEVEL;
  22:..\..\common\lib\lib_testMode/testMode.c **** 
  23:..\..\common\lib\lib_testMode/testMode.c **** funcReturnValue ReadSwitchState();
  24:..\..\common\lib\lib_testMode/testMode.c **** funcReturnValue ReadNetworkState();
  25:..\..\common\lib\lib_testMode/testMode.c **** 
  26:..\..\common\lib\lib_testMode/testMode.c **** static uint8_t enableTestMode;
  27:..\..\common\lib\lib_testMode/testMode.c **** static uint8_t allowNextTestSkier;
  28:..\..\common\lib\lib_testMode/testMode.c **** 
  29:..\..\common\lib\lib_testMode/testMode.c **** CY_ISR(testModeHandler)
  30:..\..\common\lib\lib_testMode/testMode.c **** {
  52              		.loc 1 30 0
  53              		.cfi_startproc
  54 0000 80B5     		push	{r7, lr}
  55              		.cfi_def_cfa_offset 8
  56              		.cfi_offset 7, -8
  57              		.cfi_offset 14, -4
  58 0002 00AF     		add	r7, sp, #0
  59              		.cfi_def_cfa_register 7
  31:..\..\common\lib\lib_testMode/testMode.c ****     Pin_testMode_Write(0);
  60              		.loc 1 31 0
  61 0004 0020     		mov	r0, #0
  62 0006 FFF7FEFF 		bl	Pin_testMode_Write
  32:..\..\common\lib\lib_testMode/testMode.c ****     Pin_testMode_Write(1);
  63              		.loc 1 32 0
  64 000a 0120     		mov	r0, #1
  65 000c FFF7FEFF 		bl	Pin_testMode_Write
  33:..\..\common\lib\lib_testMode/testMode.c ****     
  34:..\..\common\lib\lib_testMode/testMode.c ****     TimerTestMode_ClearInterrupt(TimerTestMode_INTR_MASK_CC_MATCH);
  66              		.loc 1 34 0
  67 0010 0220     		mov	r0, #2
  68 0012 FFF7FEFF 		bl	TimerTestMode_ClearInterrupt
  35:..\..\common\lib\lib_testMode/testMode.c ****     statusTestMode = STOPPED;
  69              		.loc 1 35 0
  70 0016 044B     		ldr	r3, .L2
  71 0018 0022     		mov	r2, #0
  72 001a 1A70     		strb	r2, [r3]
  36:..\..\common\lib\lib_testMode/testMode.c ****     allowNextTestSkier = 0;
  73              		.loc 1 36 0
  74 001c 034B     		ldr	r3, .L2+4
  75 001e 0022     		mov	r2, #0
  76 0020 1A70     		strb	r2, [r3]
  37:..\..\common\lib\lib_testMode/testMode.c **** }
  77              		.loc 1 37 0
ARM GAS  C:\Users\Petro\AppData\Local\Temp\cc5qtVMS.s 			page 3


  78 0022 BD46     		mov	sp, r7
  79              		@ sp needed
  80 0024 80BD     		pop	{r7, pc}
  81              	.L3:
  82 0026 C046     		.align	2
  83              	.L2:
  84 0028 00000000 		.word	statusTestMode
  85 002c 06000000 		.word	allowNextTestSkier
  86              		.cfi_endproc
  87              	.LFE63:
  88              		.size	testModeHandler, .-testModeHandler
  89              		.section	.text.TestMode,"ax",%progbits
  90              		.align	2
  91              		.global	TestMode
  92              		.code	16
  93              		.thumb_func
  94              		.type	TestMode, %function
  95              	TestMode:
  96              	.LFB64:
  38:..\..\common\lib\lib_testMode/testMode.c **** 
  39:..\..\common\lib\lib_testMode/testMode.c **** 
  40:..\..\common\lib\lib_testMode/testMode.c **** void TestMode()
  41:..\..\common\lib\lib_testMode/testMode.c **** {   
  97              		.loc 1 41 0
  98              		.cfi_startproc
  99 0000 80B5     		push	{r7, lr}
 100              		.cfi_def_cfa_offset 8
 101              		.cfi_offset 7, -8
 102              		.cfi_offset 14, -4
 103 0002 00AF     		add	r7, sp, #0
 104              		.cfi_def_cfa_register 7
  42:..\..\common\lib\lib_testMode/testMode.c ****     ReadSwitchState();
 105              		.loc 1 42 0
 106 0004 FFF7FEFF 		bl	ReadSwitchState
  43:..\..\common\lib\lib_testMode/testMode.c ****     ReadNetworkState();
 107              		.loc 1 43 0
 108 0008 FFF7FEFF 		bl	ReadNetworkState
  44:..\..\common\lib\lib_testMode/testMode.c ****     
  45:..\..\common\lib\lib_testMode/testMode.c ****     if(switchState == RISING_EDGE || networkState == RISING_EDGE)   //enable test mode
 109              		.loc 1 45 0
 110 000c 3A4B     		ldr	r3, .L11
 111 000e 1B78     		ldrb	r3, [r3]
 112 0010 012B     		cmp	r3, #1
 113 0012 03D0     		beq	.L5
 114              		.loc 1 45 0 is_stmt 0 discriminator 1
 115 0014 394B     		ldr	r3, .L11+4
 116 0016 1B78     		ldrb	r3, [r3]
 117 0018 012B     		cmp	r3, #1
 118 001a 21D1     		bne	.L6
 119              	.L5:
  46:..\..\common\lib\lib_testMode/testMode.c ****     {
  47:..\..\common\lib\lib_testMode/testMode.c ****         DisplayTestMode(1);
 120              		.loc 1 47 0 is_stmt 1
 121 001c 0120     		mov	r0, #1
 122 001e FFF7FEFF 		bl	DisplayTestMode
  48:..\..\common\lib\lib_testMode/testMode.c ****         NetworkSendTestModeStatus(1);
 123              		.loc 1 48 0
ARM GAS  C:\Users\Petro\AppData\Local\Temp\cc5qtVMS.s 			page 4


 124 0022 0120     		mov	r0, #1
 125 0024 FFF7FEFF 		bl	NetworkSendTestModeStatus
  49:..\..\common\lib\lib_testMode/testMode.c ****         statusTestMode = STOPPED;
 126              		.loc 1 49 0
 127 0028 354B     		ldr	r3, .L11+8
 128 002a 0022     		mov	r2, #0
 129 002c 1A70     		strb	r2, [r3]
  50:..\..\common\lib\lib_testMode/testMode.c ****         allowNextTestSkier = 1;
 130              		.loc 1 50 0
 131 002e 354B     		ldr	r3, .L11+12
 132 0030 0122     		mov	r2, #1
 133 0032 1A70     		strb	r2, [r3]
  51:..\..\common\lib\lib_testMode/testMode.c **** 		#ifdef FINISH_MODULE
  52:..\..\common\lib\lib_testMode/testMode.c ****         enableTestMode = 1;
  53:..\..\common\lib\lib_testMode/testMode.c **** 		#endif
  54:..\..\common\lib\lib_testMode/testMode.c ****         if(networkState == RISING_EDGE && switchState == LOW_LEVEL)
 134              		.loc 1 54 0
 135 0034 314B     		ldr	r3, .L11+4
 136 0036 1B78     		ldrb	r3, [r3]
 137 0038 012B     		cmp	r3, #1
 138 003a 06D1     		bne	.L7
 139              		.loc 1 54 0 is_stmt 0 discriminator 1
 140 003c 2E4B     		ldr	r3, .L11
 141 003e 1B78     		ldrb	r3, [r3]
 142 0040 032B     		cmp	r3, #3
 143 0042 02D1     		bne	.L7
  55:..\..\common\lib\lib_testMode/testMode.c ****             switchState = RISING_EDGE;
 144              		.loc 1 55 0 is_stmt 1
 145 0044 2C4B     		ldr	r3, .L11
 146 0046 0122     		mov	r2, #1
 147 0048 1A70     		strb	r2, [r3]
 148              	.L7:
  56:..\..\common\lib\lib_testMode/testMode.c ****         if(networkState == LOW_LEVEL && switchState == RISING_EDGE)
 149              		.loc 1 56 0
 150 004a 2C4B     		ldr	r3, .L11+4
 151 004c 1B78     		ldrb	r3, [r3]
 152 004e 032B     		cmp	r3, #3
 153 0050 06D1     		bne	.L6
 154              		.loc 1 56 0 is_stmt 0 discriminator 1
 155 0052 294B     		ldr	r3, .L11
 156 0054 1B78     		ldrb	r3, [r3]
 157 0056 012B     		cmp	r3, #1
 158 0058 02D1     		bne	.L6
  57:..\..\common\lib\lib_testMode/testMode.c ****             networkState = RISING_EDGE;
 159              		.loc 1 57 0 is_stmt 1
 160 005a 284B     		ldr	r3, .L11+4
 161 005c 0122     		mov	r2, #1
 162 005e 1A70     		strb	r2, [r3]
 163              	.L6:
  58:..\..\common\lib\lib_testMode/testMode.c ****     }
  59:..\..\common\lib\lib_testMode/testMode.c ****     if(/*switchState == FALLING_EDGE ||*/ networkState == FALLING_EDGE)        //disable test mode
 164              		.loc 1 59 0
 165 0060 264B     		ldr	r3, .L11+4
 166 0062 1B78     		ldrb	r3, [r3]
 167 0064 022B     		cmp	r3, #2
 168 0066 23D1     		bne	.L8
  60:..\..\common\lib\lib_testMode/testMode.c ****     {
ARM GAS  C:\Users\Petro\AppData\Local\Temp\cc5qtVMS.s 			page 5


  61:..\..\common\lib\lib_testMode/testMode.c ****         TimerTestMode_Stop();
 169              		.loc 1 61 0
 170 0068 FFF7FEFF 		bl	TimerTestMode_Stop
  62:..\..\common\lib\lib_testMode/testMode.c ****         DisplayTestMode(0);
 171              		.loc 1 62 0
 172 006c 0020     		mov	r0, #0
 173 006e FFF7FEFF 		bl	DisplayTestMode
  63:..\..\common\lib\lib_testMode/testMode.c ****         NetworkSendTestModeStatus(0);
 174              		.loc 1 63 0
 175 0072 0020     		mov	r0, #0
 176 0074 FFF7FEFF 		bl	NetworkSendTestModeStatus
  64:..\..\common\lib\lib_testMode/testMode.c ****         statusTestMode = STOPPED;
 177              		.loc 1 64 0
 178 0078 214B     		ldr	r3, .L11+8
 179 007a 0022     		mov	r2, #0
 180 007c 1A70     		strb	r2, [r3]
  65:..\..\common\lib\lib_testMode/testMode.c ****         allowNextTestSkier = 0;
 181              		.loc 1 65 0
 182 007e 214B     		ldr	r3, .L11+12
 183 0080 0022     		mov	r2, #0
 184 0082 1A70     		strb	r2, [r3]
  66:..\..\common\lib\lib_testMode/testMode.c **** 		#ifdef FINISH_MODULE
  67:..\..\common\lib\lib_testMode/testMode.c ****         enableTestMode = 0;
  68:..\..\common\lib\lib_testMode/testMode.c **** 		#endif
  69:..\..\common\lib\lib_testMode/testMode.c ****         if(networkState == FALLING_EDGE && switchState != FALLING_EDGE)
 185              		.loc 1 69 0
 186 0084 1D4B     		ldr	r3, .L11+4
 187 0086 1B78     		ldrb	r3, [r3]
 188 0088 022B     		cmp	r3, #2
 189 008a 06D1     		bne	.L9
 190              		.loc 1 69 0 is_stmt 0 discriminator 1
 191 008c 1A4B     		ldr	r3, .L11
 192 008e 1B78     		ldrb	r3, [r3]
 193 0090 022B     		cmp	r3, #2
 194 0092 02D0     		beq	.L9
  70:..\..\common\lib\lib_testMode/testMode.c ****             switchState = LOW_LEVEL;
 195              		.loc 1 70 0 is_stmt 1
 196 0094 184B     		ldr	r3, .L11
 197 0096 0322     		mov	r2, #3
 198 0098 1A70     		strb	r2, [r3]
 199              	.L9:
  71:..\..\common\lib\lib_testMode/testMode.c ****         if(networkState != FALLING_EDGE && switchState == FALLING_EDGE)
 200              		.loc 1 71 0
 201 009a 184B     		ldr	r3, .L11+4
 202 009c 1B78     		ldrb	r3, [r3]
 203 009e 022B     		cmp	r3, #2
 204 00a0 06D0     		beq	.L8
 205              		.loc 1 71 0 is_stmt 0 discriminator 1
 206 00a2 154B     		ldr	r3, .L11
 207 00a4 1B78     		ldrb	r3, [r3]
 208 00a6 022B     		cmp	r3, #2
 209 00a8 02D1     		bne	.L8
  72:..\..\common\lib\lib_testMode/testMode.c ****             networkState = LOW_LEVEL;
 210              		.loc 1 72 0 is_stmt 1
 211 00aa 144B     		ldr	r3, .L11+4
 212 00ac 0322     		mov	r2, #3
 213 00ae 1A70     		strb	r2, [r3]
ARM GAS  C:\Users\Petro\AppData\Local\Temp\cc5qtVMS.s 			page 6


 214              	.L8:
  73:..\..\common\lib\lib_testMode/testMode.c ****     }
  74:..\..\common\lib\lib_testMode/testMode.c ****     /*update test mode*/
  75:..\..\common\lib\lib_testMode/testMode.c ****     if(networkState == HIGH_LEVEL && switchState == HIGH_LEVEL )
 215              		.loc 1 75 0
 216 00b0 124B     		ldr	r3, .L11+4
 217 00b2 1B78     		ldrb	r3, [r3]
 218 00b4 002B     		cmp	r3, #0
 219 00b6 1CD1     		bne	.L4
 220              		.loc 1 75 0 is_stmt 0 discriminator 1
 221 00b8 0F4B     		ldr	r3, .L11
 222 00ba 1B78     		ldrb	r3, [r3]
 223 00bc 002B     		cmp	r3, #0
 224 00be 18D1     		bne	.L4
  76:..\..\common\lib\lib_testMode/testMode.c ****     {
  77:..\..\common\lib\lib_testMode/testMode.c **** 		#ifdef START_MODULE
  78:..\..\common\lib\lib_testMode/testMode.c ****         if(NetworkStatus() != NETWORK_DISCONN && FinWriteInDB() != NO_WRITE && FinReady() != NO_REA
 225              		.loc 1 78 0 is_stmt 1
 226 00c0 FFF7FEFF 		bl	NetworkStatus
 227 00c4 031E     		sub	r3, r0, #0
 228 00c6 14D0     		beq	.L4
 229              		.loc 1 78 0 is_stmt 0 discriminator 1
 230 00c8 FFF7FEFF 		bl	FinWriteInDB
 231 00cc 031E     		sub	r3, r0, #0
 232 00ce 10D0     		beq	.L4
 233              		.loc 1 78 0 discriminator 2
 234 00d0 FFF7FEFF 		bl	FinReady
 235 00d4 031E     		sub	r3, r0, #0
 236 00d6 0CD0     		beq	.L4
 237              		.loc 1 78 0 discriminator 3
 238 00d8 094B     		ldr	r3, .L11+8
 239 00da 1B78     		ldrb	r3, [r3]
 240 00dc 002B     		cmp	r3, #0
 241 00de 08D1     		bne	.L4
  79:..\..\common\lib\lib_testMode/testMode.c ****         {
  80:..\..\common\lib\lib_testMode/testMode.c ****             /*start timer*/
  81:..\..\common\lib\lib_testMode/testMode.c ****             TestMode_UpdateNewRandomTime();
 242              		.loc 1 81 0 is_stmt 1
 243 00e0 FFF7FEFF 		bl	TestMode_UpdateNewRandomTime
  82:..\..\common\lib\lib_testMode/testMode.c ****             Int_timerTestMode_StartEx(testModeHandler);
 244              		.loc 1 82 0
 245 00e4 084B     		ldr	r3, .L11+16
 246 00e6 181C     		mov	r0, r3
 247 00e8 FFF7FEFF 		bl	Int_timerTestMode_StartEx
  83:..\..\common\lib\lib_testMode/testMode.c ****             statusTestMode = RUN;
 248              		.loc 1 83 0
 249 00ec 044B     		ldr	r3, .L11+8
 250 00ee 0122     		mov	r2, #1
 251 00f0 1A70     		strb	r2, [r3]
 252              	.L4:
  84:..\..\common\lib\lib_testMode/testMode.c ****         }
  85:..\..\common\lib\lib_testMode/testMode.c **** 		#endif
  86:..\..\common\lib\lib_testMode/testMode.c **** 		#ifdef FINISH_MODULE
  87:..\..\common\lib\lib_testMode/testMode.c **** 		if(statusTestMode == STOPPED && SkierOnWay()>0 && allowNextTestSkier)
  88:..\..\common\lib\lib_testMode/testMode.c ****         {
  89:..\..\common\lib\lib_testMode/testMode.c ****             /*start timer*/
  90:..\..\common\lib\lib_testMode/testMode.c ****             TestMode_UpdateNewRandomTime();
ARM GAS  C:\Users\Petro\AppData\Local\Temp\cc5qtVMS.s 			page 7


  91:..\..\common\lib\lib_testMode/testMode.c ****             Int_timerTestMode_StartEx(testModeHandler);
  92:..\..\common\lib\lib_testMode/testMode.c ****             statusTestMode = RUN;
  93:..\..\common\lib\lib_testMode/testMode.c ****             allowNextTestSkier = 0;
  94:..\..\common\lib\lib_testMode/testMode.c ****         }
  95:..\..\common\lib\lib_testMode/testMode.c **** 		#endif
  96:..\..\common\lib\lib_testMode/testMode.c ****     }
  97:..\..\common\lib\lib_testMode/testMode.c **** }
 253              		.loc 1 97 0
 254 00f2 BD46     		mov	sp, r7
 255              		@ sp needed
 256 00f4 80BD     		pop	{r7, pc}
 257              	.L12:
 258 00f6 C046     		.align	2
 259              	.L11:
 260 00f8 00000000 		.word	switchState
 261 00fc 00000000 		.word	networkState
 262 0100 00000000 		.word	statusTestMode
 263 0104 06000000 		.word	allowNextTestSkier
 264 0108 00000000 		.word	testModeHandler
 265              		.cfi_endproc
 266              	.LFE64:
 267              		.size	TestMode, .-TestMode
 268              		.global	__aeabi_idivmod
 269              		.section	.text.TestMode_UpdateNewRandomTime,"ax",%progbits
 270              		.align	2
 271              		.global	TestMode_UpdateNewRandomTime
 272              		.code	16
 273              		.thumb_func
 274              		.type	TestMode_UpdateNewRandomTime, %function
 275              	TestMode_UpdateNewRandomTime:
 276              	.LFB65:
  98:..\..\common\lib\lib_testMode/testMode.c **** 
  99:..\..\common\lib\lib_testMode/testMode.c **** 
 100:..\..\common\lib\lib_testMode/testMode.c **** void TestMode_UpdateNewRandomTime()
 101:..\..\common\lib\lib_testMode/testMode.c **** {
 277              		.loc 1 101 0
 278              		.cfi_startproc
 279 0000 80B5     		push	{r7, lr}
 280              		.cfi_def_cfa_offset 8
 281              		.cfi_offset 7, -8
 282              		.cfi_offset 14, -4
 283 0002 82B0     		sub	sp, sp, #8
 284              		.cfi_def_cfa_offset 16
 285 0004 00AF     		add	r7, sp, #0
 286              		.cfi_def_cfa_register 7
 102:..\..\common\lib\lib_testMode/testMode.c ****     uint8_t num;
 103:..\..\common\lib\lib_testMode/testMode.c ****     
 104:..\..\common\lib\lib_testMode/testMode.c ****     num = 30+rand()%60;
 287              		.loc 1 104 0
 288 0006 FFF7FEFF 		bl	rand
 289 000a 031C     		mov	r3, r0
 290 000c 181C     		mov	r0, r3
 291 000e 3C21     		mov	r1, #60
 292 0010 FFF7FEFF 		bl	__aeabi_idivmod
 293 0014 0B1C     		mov	r3, r1
 294 0016 DAB2     		uxtb	r2, r3
 295 0018 FB1D     		add	r3, r7, #7
ARM GAS  C:\Users\Petro\AppData\Local\Temp\cc5qtVMS.s 			page 8


 296 001a 1E32     		add	r2, r2, #30
 297 001c 1A70     		strb	r2, [r3]
 105:..\..\common\lib\lib_testMode/testMode.c ****     
 106:..\..\common\lib\lib_testMode/testMode.c **** //    char buff[11];
 107:..\..\common\lib\lib_testMode/testMode.c **** //    sprintf(buff,"%d",num);
 108:..\..\common\lib\lib_testMode/testMode.c **** //    Display(buff);
 109:..\..\common\lib\lib_testMode/testMode.c ****     
 110:..\..\common\lib\lib_testMode/testMode.c ****     TimerTestMode_WriteCounter(0);
 298              		.loc 1 110 0
 299 001e 0020     		mov	r0, #0
 300 0020 FFF7FEFF 		bl	TimerTestMode_WriteCounter
 111:..\..\common\lib\lib_testMode/testMode.c ****     TimerTestMode_WriteCompare(num*100);
 301              		.loc 1 111 0
 302 0024 FB1D     		add	r3, r7, #7
 303 0026 1B78     		ldrb	r3, [r3]
 304 0028 6422     		mov	r2, #100
 305 002a 5343     		mul	r3, r2
 306 002c 181C     		mov	r0, r3
 307 002e FFF7FEFF 		bl	TimerTestMode_WriteCompare
 112:..\..\common\lib\lib_testMode/testMode.c ****     TimerTestMode_Start();   
 308              		.loc 1 112 0
 309 0032 FFF7FEFF 		bl	TimerTestMode_Start
 113:..\..\common\lib\lib_testMode/testMode.c **** }
 310              		.loc 1 113 0
 311 0036 BD46     		mov	sp, r7
 312 0038 02B0     		add	sp, sp, #8
 313              		@ sp needed
 314 003a 80BD     		pop	{r7, pc}
 315              		.cfi_endproc
 316              	.LFE65:
 317              		.size	TestMode_UpdateNewRandomTime, .-TestMode_UpdateNewRandomTime
 318              		.section	.text.ReadSwitchState,"ax",%progbits
 319              		.align	2
 320              		.global	ReadSwitchState
 321              		.code	16
 322              		.thumb_func
 323              		.type	ReadSwitchState, %function
 324              	ReadSwitchState:
 325              	.LFB66:
 114:..\..\common\lib\lib_testMode/testMode.c **** 
 115:..\..\common\lib\lib_testMode/testMode.c **** funcReturnValue ReadSwitchState()
 116:..\..\common\lib\lib_testMode/testMode.c **** {  
 326              		.loc 1 116 0
 327              		.cfi_startproc
 328 0000 80B5     		push	{r7, lr}
 329              		.cfi_def_cfa_offset 8
 330              		.cfi_offset 7, -8
 331              		.cfi_offset 14, -4
 332 0002 00AF     		add	r7, sp, #0
 333              		.cfi_def_cfa_register 7
 117:..\..\common\lib\lib_testMode/testMode.c ****     static uint8_t tmpCounter;
 118:..\..\common\lib\lib_testMode/testMode.c ****     
 119:..\..\common\lib\lib_testMode/testMode.c ****     if(SW_RunTestMode_Read() == 0)
 334              		.loc 1 119 0
 335 0004 FFF7FEFF 		bl	SW_RunTestMode_Read
 336 0008 031E     		sub	r3, r0, #0
 337 000a 06D1     		bne	.L15
ARM GAS  C:\Users\Petro\AppData\Local\Temp\cc5qtVMS.s 			page 9


 120:..\..\common\lib\lib_testMode/testMode.c ****     {
 121:..\..\common\lib\lib_testMode/testMode.c ****         tmpCounter++;
 338              		.loc 1 121 0
 339 000c 1A4B     		ldr	r3, .L23
 340 000e 1B78     		ldrb	r3, [r3]
 341 0010 0133     		add	r3, r3, #1
 342 0012 DAB2     		uxtb	r2, r3
 343 0014 184B     		ldr	r3, .L23
 344 0016 1A70     		strb	r2, [r3]
 345 0018 02E0     		b	.L16
 346              	.L15:
 122:..\..\common\lib\lib_testMode/testMode.c ****     }
 123:..\..\common\lib\lib_testMode/testMode.c ****     else
 124:..\..\common\lib\lib_testMode/testMode.c ****     {
 125:..\..\common\lib\lib_testMode/testMode.c ****         tmpCounter = 0;
 347              		.loc 1 125 0
 348 001a 174B     		ldr	r3, .L23
 349 001c 0022     		mov	r2, #0
 350 001e 1A70     		strb	r2, [r3]
 351              	.L16:
 126:..\..\common\lib\lib_testMode/testMode.c ****     }
 127:..\..\common\lib\lib_testMode/testMode.c ****     
 128:..\..\common\lib\lib_testMode/testMode.c ****     if(tmpCounter > COUNTER_TEST_MODE_ON)
 352              		.loc 1 128 0
 353 0020 154B     		ldr	r3, .L23
 354 0022 1B78     		ldrb	r3, [r3]
 355 0024 142B     		cmp	r3, #20
 356 0026 12D9     		bls	.L17
 129:..\..\common\lib\lib_testMode/testMode.c ****     {
 130:..\..\common\lib\lib_testMode/testMode.c **** 		#ifdef START_MODULE
 131:..\..\common\lib\lib_testMode/testMode.c **** 		if(switchState == LOW_LEVEL)switchState = RISING_EDGE;
 357              		.loc 1 131 0
 358 0028 144B     		ldr	r3, .L23+4
 359 002a 1B78     		ldrb	r3, [r3]
 360 002c 032B     		cmp	r3, #3
 361 002e 03D1     		bne	.L18
 362              		.loc 1 131 0 is_stmt 0 discriminator 1
 363 0030 124B     		ldr	r3, .L23+4
 364 0032 0122     		mov	r2, #1
 365 0034 1A70     		strb	r2, [r3]
 366 0036 19E0     		b	.L20
 367              	.L18:
 132:..\..\common\lib\lib_testMode/testMode.c ****         else if(switchState == HIGH_LEVEL)
 368              		.loc 1 132 0 is_stmt 1
 369 0038 104B     		ldr	r3, .L23+4
 370 003a 1B78     		ldrb	r3, [r3]
 371 003c 002B     		cmp	r3, #0
 372 003e 15D1     		bne	.L20
 133:..\..\common\lib\lib_testMode/testMode.c ****         {
 134:..\..\common\lib\lib_testMode/testMode.c ****             switchState = FALLING_EDGE;
 373              		.loc 1 134 0
 374 0040 0E4B     		ldr	r3, .L23+4
 375 0042 0222     		mov	r2, #2
 376 0044 1A70     		strb	r2, [r3]
 135:..\..\common\lib\lib_testMode/testMode.c ****             NetworkSendTestModeStatus(0);
 377              		.loc 1 135 0
 378 0046 0020     		mov	r0, #0
ARM GAS  C:\Users\Petro\AppData\Local\Temp\cc5qtVMS.s 			page 10


 379 0048 FFF7FEFF 		bl	NetworkSendTestModeStatus
 380 004c 0EE0     		b	.L20
 381              	.L17:
 136:..\..\common\lib\lib_testMode/testMode.c ****         }
 137:..\..\common\lib\lib_testMode/testMode.c **** 		#endif
 138:..\..\common\lib\lib_testMode/testMode.c **** 		#ifdef FINISH_MODULE
 139:..\..\common\lib\lib_testMode/testMode.c ****         if(SkierOnWay() != 0 && enableTestMode == 0)
 140:..\..\common\lib\lib_testMode/testMode.c ****         {
 141:..\..\common\lib\lib_testMode/testMode.c ****             //Display("testModeERR");
 142:..\..\common\lib\lib_testMode/testMode.c ****         }
 143:..\..\common\lib\lib_testMode/testMode.c ****         else
 144:..\..\common\lib\lib_testMode/testMode.c ****         {
 145:..\..\common\lib\lib_testMode/testMode.c ****             if(switchState == LOW_LEVEL)switchState = RISING_EDGE;
 146:..\..\common\lib\lib_testMode/testMode.c ****             else if(switchState == HIGH_LEVEL)
 147:..\..\common\lib\lib_testMode/testMode.c ****             {
 148:..\..\common\lib\lib_testMode/testMode.c ****                 switchState = FALLING_EDGE;
 149:..\..\common\lib\lib_testMode/testMode.c ****                 NetworkSendTestModeStatus(0);
 150:..\..\common\lib\lib_testMode/testMode.c ****             }
 151:..\..\common\lib\lib_testMode/testMode.c ****         }
 152:..\..\common\lib\lib_testMode/testMode.c **** 		#endif
 153:..\..\common\lib\lib_testMode/testMode.c ****     }
 154:..\..\common\lib\lib_testMode/testMode.c ****     else
 155:..\..\common\lib\lib_testMode/testMode.c ****     {
 156:..\..\common\lib\lib_testMode/testMode.c ****         if(switchState == RISING_EDGE)switchState = HIGH_LEVEL;
 382              		.loc 1 156 0
 383 004e 0B4B     		ldr	r3, .L23+4
 384 0050 1B78     		ldrb	r3, [r3]
 385 0052 012B     		cmp	r3, #1
 386 0054 03D1     		bne	.L21
 387              		.loc 1 156 0 is_stmt 0 discriminator 1
 388 0056 094B     		ldr	r3, .L23+4
 389 0058 0022     		mov	r2, #0
 390 005a 1A70     		strb	r2, [r3]
 391 005c 06E0     		b	.L20
 392              	.L21:
 157:..\..\common\lib\lib_testMode/testMode.c ****         else if(switchState == FALLING_EDGE)switchState = LOW_LEVEL;
 393              		.loc 1 157 0 is_stmt 1
 394 005e 074B     		ldr	r3, .L23+4
 395 0060 1B78     		ldrb	r3, [r3]
 396 0062 022B     		cmp	r3, #2
 397 0064 02D1     		bne	.L20
 398              		.loc 1 157 0 is_stmt 0 discriminator 1
 399 0066 054B     		ldr	r3, .L23+4
 400 0068 0322     		mov	r2, #3
 401 006a 1A70     		strb	r2, [r3]
 402              	.L20:
 158:..\..\common\lib\lib_testMode/testMode.c ****     }
 159:..\..\common\lib\lib_testMode/testMode.c **** 
 160:..\..\common\lib\lib_testMode/testMode.c ****       
 161:..\..\common\lib\lib_testMode/testMode.c ****     return switchState;
 403              		.loc 1 161 0 is_stmt 1
 404 006c 034B     		ldr	r3, .L23+4
 405 006e 1B78     		ldrb	r3, [r3]
 162:..\..\common\lib\lib_testMode/testMode.c **** }
 406              		.loc 1 162 0
 407 0070 181C     		mov	r0, r3
 408 0072 BD46     		mov	sp, r7
ARM GAS  C:\Users\Petro\AppData\Local\Temp\cc5qtVMS.s 			page 11


 409              		@ sp needed
 410 0074 80BD     		pop	{r7, pc}
 411              	.L24:
 412 0076 C046     		.align	2
 413              	.L23:
 414 0078 07000000 		.word	tmpCounter.7711
 415 007c 00000000 		.word	switchState
 416              		.cfi_endproc
 417              	.LFE66:
 418              		.size	ReadSwitchState, .-ReadSwitchState
 419              		.section	.text.ReadNetworkState,"ax",%progbits
 420              		.align	2
 421              		.global	ReadNetworkState
 422              		.code	16
 423              		.thumb_func
 424              		.type	ReadNetworkState, %function
 425              	ReadNetworkState:
 426              	.LFB67:
 163:..\..\common\lib\lib_testMode/testMode.c **** 
 164:..\..\common\lib\lib_testMode/testMode.c **** 
 165:..\..\common\lib\lib_testMode/testMode.c **** funcReturnValue ReadNetworkState()
 166:..\..\common\lib\lib_testMode/testMode.c **** {
 427              		.loc 1 166 0
 428              		.cfi_startproc
 429 0000 80B5     		push	{r7, lr}
 430              		.cfi_def_cfa_offset 8
 431              		.cfi_offset 7, -8
 432              		.cfi_offset 14, -4
 433 0002 00AF     		add	r7, sp, #0
 434              		.cfi_def_cfa_register 7
 167:..\..\common\lib\lib_testMode/testMode.c ****     if(networkState == LOW_LEVEL && NetworkReadTestModeStatus()==1)  networkState = RISING_EDGE;
 435              		.loc 1 167 0
 436 0004 1A4B     		ldr	r3, .L31
 437 0006 1B78     		ldrb	r3, [r3]
 438 0008 032B     		cmp	r3, #3
 439 000a 08D1     		bne	.L26
 440              		.loc 1 167 0 is_stmt 0 discriminator 1
 441 000c FFF7FEFF 		bl	NetworkReadTestModeStatus
 442 0010 031E     		sub	r3, r0, #0
 443 0012 012B     		cmp	r3, #1
 444 0014 03D1     		bne	.L26
 445              		.loc 1 167 0 discriminator 2
 446 0016 164B     		ldr	r3, .L31
 447 0018 0122     		mov	r2, #1
 448 001a 1A70     		strb	r2, [r3]
 449 001c 23E0     		b	.L27
 450              	.L26:
 168:..\..\common\lib\lib_testMode/testMode.c ****     else if(networkState == HIGH_LEVEL && NetworkReadTestModeStatus() == 0)  networkState = FALLING
 451              		.loc 1 168 0 is_stmt 1
 452 001e 144B     		ldr	r3, .L31
 453 0020 1B78     		ldrb	r3, [r3]
 454 0022 002B     		cmp	r3, #0
 455 0024 07D1     		bne	.L28
 456              		.loc 1 168 0 is_stmt 0 discriminator 1
 457 0026 FFF7FEFF 		bl	NetworkReadTestModeStatus
 458 002a 031E     		sub	r3, r0, #0
 459 002c 03D1     		bne	.L28
ARM GAS  C:\Users\Petro\AppData\Local\Temp\cc5qtVMS.s 			page 12


 460              		.loc 1 168 0 discriminator 2
 461 002e 104B     		ldr	r3, .L31
 462 0030 0222     		mov	r2, #2
 463 0032 1A70     		strb	r2, [r3]
 464 0034 17E0     		b	.L27
 465              	.L28:
 169:..\..\common\lib\lib_testMode/testMode.c ****     else if(networkState == RISING_EDGE && NetworkReadTestModeStatus() ==1)  networkState = HIGH_LE
 466              		.loc 1 169 0 is_stmt 1
 467 0036 0E4B     		ldr	r3, .L31
 468 0038 1B78     		ldrb	r3, [r3]
 469 003a 012B     		cmp	r3, #1
 470 003c 08D1     		bne	.L29
 471              		.loc 1 169 0 is_stmt 0 discriminator 1
 472 003e FFF7FEFF 		bl	NetworkReadTestModeStatus
 473 0042 031E     		sub	r3, r0, #0
 474 0044 012B     		cmp	r3, #1
 475 0046 03D1     		bne	.L29
 476              		.loc 1 169 0 discriminator 2
 477 0048 094B     		ldr	r3, .L31
 478 004a 0022     		mov	r2, #0
 479 004c 1A70     		strb	r2, [r3]
 480 004e 0AE0     		b	.L27
 481              	.L29:
 170:..\..\common\lib\lib_testMode/testMode.c ****     else if(networkState == FALLING_EDGE && NetworkReadTestModeStatus() == 0)  networkState = LOW_L
 482              		.loc 1 170 0 is_stmt 1
 483 0050 074B     		ldr	r3, .L31
 484 0052 1B78     		ldrb	r3, [r3]
 485 0054 022B     		cmp	r3, #2
 486 0056 06D1     		bne	.L27
 487              		.loc 1 170 0 is_stmt 0 discriminator 1
 488 0058 FFF7FEFF 		bl	NetworkReadTestModeStatus
 489 005c 031E     		sub	r3, r0, #0
 490 005e 02D1     		bne	.L27
 491              		.loc 1 170 0 discriminator 2
 492 0060 034B     		ldr	r3, .L31
 493 0062 0322     		mov	r2, #3
 494 0064 1A70     		strb	r2, [r3]
 495              	.L27:
 171:..\..\common\lib\lib_testMode/testMode.c ****     
 172:..\..\common\lib\lib_testMode/testMode.c ****     /*no answer*/
 173:..\..\common\lib\lib_testMode/testMode.c **** 
 174:..\..\common\lib\lib_testMode/testMode.c ****     return networkState;   
 496              		.loc 1 174 0 is_stmt 1
 497 0066 024B     		ldr	r3, .L31
 498 0068 1B78     		ldrb	r3, [r3]
 175:..\..\common\lib\lib_testMode/testMode.c **** }
 499              		.loc 1 175 0
 500 006a 181C     		mov	r0, r3
 501 006c BD46     		mov	sp, r7
 502              		@ sp needed
 503 006e 80BD     		pop	{r7, pc}
 504              	.L32:
 505              		.align	2
 506              	.L31:
 507 0070 00000000 		.word	networkState
 508              		.cfi_endproc
 509              	.LFE67:
ARM GAS  C:\Users\Petro\AppData\Local\Temp\cc5qtVMS.s 			page 13


 510              		.size	ReadNetworkState, .-ReadNetworkState
 511              		.section	.text.AllowNextTestSkier,"ax",%progbits
 512              		.align	2
 513              		.global	AllowNextTestSkier
 514              		.code	16
 515              		.thumb_func
 516              		.type	AllowNextTestSkier, %function
 517              	AllowNextTestSkier:
 518              	.LFB68:
 176:..\..\common\lib\lib_testMode/testMode.c **** 
 177:..\..\common\lib\lib_testMode/testMode.c **** void AllowNextTestSkier()
 178:..\..\common\lib\lib_testMode/testMode.c **** {
 519              		.loc 1 178 0
 520              		.cfi_startproc
 521 0000 80B5     		push	{r7, lr}
 522              		.cfi_def_cfa_offset 8
 523              		.cfi_offset 7, -8
 524              		.cfi_offset 14, -4
 525 0002 00AF     		add	r7, sp, #0
 526              		.cfi_def_cfa_register 7
 179:..\..\common\lib\lib_testMode/testMode.c ****     allowNextTestSkier = 1;
 527              		.loc 1 179 0
 528 0004 024B     		ldr	r3, .L34
 529 0006 0122     		mov	r2, #1
 530 0008 1A70     		strb	r2, [r3]
 180:..\..\common\lib\lib_testMode/testMode.c **** }...
 531              		.loc 1 180 0
 532 000a BD46     		mov	sp, r7
 533              		@ sp needed
 534 000c 80BD     		pop	{r7, pc}
 535              	.L35:
 536 000e C046     		.align	2
 537              	.L34:
 538 0010 06000000 		.word	allowNextTestSkier
 539              		.cfi_endproc
 540              	.LFE68:
 541              		.size	AllowNextTestSkier, .-AllowNextTestSkier
 542              		.bss
 543              	tmpCounter.7711:
 544 0007 00       		.space	1
 545              		.text
 546              	.Letext0:
 547              		.file 2 "c:\\program files (x86)\\cypress\\psoc creator\\4.0\\psoc creator\\import\\gnu\\arm\\4.9.
 548              		.file 3 "c:\\program files (x86)\\cypress\\psoc creator\\4.0\\psoc creator\\import\\gnu\\arm\\4.9.
 549              		.file 4 "Generated_Source\\PSoC4/cytypes.h"
 550              		.file 5 "./appGlobal.h"