ARM GAS  C:\Users\Petro\AppData\Local\Temp\cc5qtVMS.s 			page 1


   1              		.cpu cortex-m0
   2              		.fpu softvfp
   3              		.eabi_attribute 20, 1
   4              		.eabi_attribute 21, 1
   5              		.eabi_attribute 23, 3
   6              		.eabi_attribute 24, 1
   7              		.eabi_attribute 25, 1
   8              		.eabi_attribute 26, 1
   9              		.eabi_attribute 30, 6
  10              		.eabi_attribute 34, 0
  11              		.eabi_attribute 18, 4
  12              		.code	16
  13              		.file	"testMode.c"
  14              		.text
  15              	.Ltext0:
  16              		.cfi_sections	.debug_frame
  17              		.comm	currentState,1,1
  18              		.bss
  19              		.align	2
  20              	result:
  21 0000 00000000 		.space	4
  22              		.global	statusTestMode
  23              		.type	statusTestMode, %object
  24              		.size	statusTestMode, 1
  25              	statusTestMode:
  26 0004 00       		.space	1
  27              		.global	switchState
  28              		.data
  29              		.type	switchState, %object
  30              		.size	switchState, 1
  31              	switchState:
  32 0000 03       		.byte	3
  33              		.global	networkState
  34              		.type	networkState, %object
  35              		.size	networkState, 1
  36              	networkState:
  37 0001 03       		.byte	3
  38              		.bss
  39              	enableTestMode:
  40 0005 00       		.space	1
  41              	allowNextTestSkier:
  42 0006 00       		.space	1
  43              		.section	.text.testModeHandler,"ax",%progbits
  44              		.align	2
  45              		.global	testModeHandler
  46              		.code	16
  47              		.thumb_func
  48              		.type	testModeHandler, %function
  49              	testModeHandler:
  50              	.LFB63:
  51              		.file 1 "..\\..\\common\\lib\\lib_testMode\\testMode.c"
   1:..\..\common\lib\lib_testMode/testMode.c **** #include "project.h"
   2:..\..\common\lib\lib_testMode/testMode.c **** #include <stdlib.h>
   3:..\..\common\lib\lib_testMode/testMode.c **** 
   4:..\..\common\lib\lib_testMode/testMode.c **** #include <stdio.h>
   5:..\..\common\lib\lib_testMode/testMode.c **** #include "..\..\common\lib\lib_Display\Display.h"
   6:..\..\common\lib\lib_testMode/testMode.c **** #include <lib_Network\network.h>
ARM GAS  C:\Users\Petro\AppData\Local\Temp\cc5qtVMS.s 			page 2


   7:..\..\common\lib\lib_testMode/testMode.c **** #include <..\..\common\lib\lib_Testmode\testMode.h>
   8:..\..\common\lib\lib_testMode/testMode.c **** #include "appGlobal.h"
   9:..\..\common\lib\lib_testMode/testMode.c **** #ifdef FINISH_MODULE
  10:..\..\common\lib\lib_testMode/testMode.c **** #include "..\..\common\lib\lib_DB\database.h"
  11:..\..\common\lib\lib_testMode/testMode.c **** #endif
  12:..\..\common\lib\lib_testMode/testMode.c **** 
  13:..\..\common\lib\lib_testMode/testMode.c **** #define COUNTER_TEST_MODE_ON   20
  14:..\..\common\lib\lib_testMode/testMode.c **** 
  15:..\..\common\lib\lib_testMode/testMode.c **** enum status {STOPPED=0, RUN};
  16:..\..\common\lib\lib_testMode/testMode.c **** typedef enum {HIGH_LEVEL, RISING_EDGE, FALLING_EDGE, LOW_LEVEL}funcReturnValue;
  17:..\..\common\lib\lib_testMode/testMode.c **** 
  18:..\..\common\lib\lib_testMode/testMode.c **** uint8_t statusTestMode = STOPPED;
  19:..\..\common\lib\lib_testMode/testMode.c **** 
  20:..\..\common\lib\lib_testMode/testMode.c **** funcReturnValue switchState = LOW_LEVEL;
  21:..\..\common\lib\lib_testMode/testMode.c **** funcReturnValue networkState = LOW_LEVEL;
  22:..\..\common\lib\lib_testMode/testMode.c **** 
  23:..\..\common\lib\lib_testMode/testMode.c **** funcReturnValue ReadSwitchState();
  24:..\..\common\lib\lib_testMode/testMode.c **** funcReturnValue ReadNetworkState();
  25:..\..\common\lib\lib_testMode/testMode.c **** 
  26:..\..\common\lib\lib_testMode/testMode.c **** static uint8_t enableTestMode;
  27:..\..\common\lib\lib_testMode/testMode.c **** static uint8_t allowNextTestSkier;
  28:..\..\common\lib\lib_testMode/testMode.c **** 
  29:..\..\common\lib\lib_testMode/testMode.c **** CY_ISR(testModeHandler)
  30:..\..\common\lib\lib_testMode/testMode.c **** {
  52              		.loc 1 30 0
  53              		.cfi_startproc
  54 0000 80B5     		push	{r7, lr}
  55              		.cfi_def_cfa_offset 8
  56              		.cfi_offset 7, -8
  57              		.cfi_offset 14, -4
  58 0002 00AF     		add	r7, sp, #0
  59              		.cfi_def_cfa_register 7
  31:..\..\common\lib\lib_testMode/testMode.c ****     Pin_testMode_Write(0);
  60              		.loc 1 31 0
  61 0004 0020     		mov	r0, #0
  62 0006 FFF7FEFF 		bl	Pin_testMode_Write
  32:..\..\common\lib\lib_testMode/testMode.c ****     Pin_testMode_Write(1);
  63              		.loc 1 32 0
  64 000a 0120     		mov	r0, #1
  65 000c FFF7FEFF 		bl	Pin_testMode_Write
  33:..\..\common\lib\lib_testMode/testMode.c ****     
  34:..\..\common\lib\lib_testMode/testMode.c ****     TimerTestMode_ClearInterrupt(TimerTestMode_INTR_MASK_CC_MATCH);
  66              		.loc 1 34 0
  67 0010 0220     		mov	r0, #2
  68 0012 FFF7FEFF 		bl	TimerTestMode_ClearInterrupt
  35:..\..\common\lib\lib_testMode/testMode.c ****     statusTestMode = STOPPED;
  69              		.loc 1 35 0
  70 0016 044B     		ldr	r3, .L2
  71 0018 0022     		mov	r2, #0
  72 001a 1A70     		strb	r2, [r3]
  36:..\..\common\lib\lib_testMode/testMode.c ****     allowNextTestSkier = 0;
  73              		.loc 1 36 0
  74 001c 034B     		ldr	r3, .L2+4
  75 001e 0022     		mov	r2, #0
  76 0020 1A70     		strb	r2, [r3]
  37:..\..\common\lib\lib_testMode/testMode.c **** }
  77              		.loc 1 37 0
ARM GAS  C:\Users\Petro\AppData\Local\Temp\cc5qtVMS.s 			page 3


  78 0022 BD46     		mov	sp, r7
  79              		@ sp needed
  80 0024 80BD     		pop	{r7, pc}
  81              	.L3:
  82 0026 C046     		.align	2
  83              	.L2:
  84 0028 00000000 		.word	statusTestMode
  85 002c 06000000 		.word	allowNextTestSkier
  86              		.cfi_endproc
  87              	.LFE63:
  88              		.size	testModeHandler, .-testModeHandler
  89              		.section	.text.TestMode,"ax",%progbits
  90              		.align	2
  91              		.global	TestMode
  92              		.code	16
  93              		.thumb_func
  94              		.type	TestMode, %function
  95              	TestMode:
  96              	.LFB64:
  38:..\..\common\lib\lib_testMode/testMode.c **** 
  39:..\..\common\lib\lib_testMode/testMode.c **** 
  40:..\..\common\lib\lib_testMode/testMode.c **** void TestMode()
  41:..\..\common\lib\lib_testMode/testMode.c **** {   
  97              		.loc 1 41 0
  98              		.cfi_startproc
  99 0000 80B5     		push	{r7, lr}
 100              		.cfi_def_cfa_offset 8
 101              		.cfi_offset 7, -8
 102              		.cfi_offset 14, -4
 103 0002 00AF     		add	r7, sp, #0
 104              		.cfi_def_cfa_register 7
  42:..\..\common\lib\lib_testMode/testMode.c ****     ReadSwitchState();
 105              		.loc 1 42 0
 106 0004 FFF7FEFF 		bl	ReadSwitchState
  43:..\..\common\lib\lib_testMode/testMode.c ****     ReadNetworkState();
 107              		.loc 1 43 0
 108 0008 FFF7FEFF 		bl	ReadNetworkState
  44:..\..\common\lib\lib_testMode/testMode.c ****     
  45:..\..\common\lib\lib_testMode/testMode.c ****     if(switchState == RISING_EDGE || networkState == RISING_EDGE)   //enable test mode
 109              		.loc 1 45 0
 110 000c 3A4B     		ldr	r3, .L11
 111 000e 1B78     		ldrb	r3, [r3]
 112 0010 012B     		cmp	r3, #1
 113 0012 03D0     		beq	.L5
 114              		.loc 1 45 0 is_stmt 0 discriminator 1
 115 0014 394B     		ldr	r3, .L11+4
 116 0016 1B78     		ldrb	r3, [r3]
 117 0018 012B     		cmp	r3, #1
 118 001a 21D1     		bne	.L6
 119              	.L5:
  46:..\..\common\lib\lib_testMode/testMode.c ****     {
  47:..\..\common\lib\lib_testMode/testMode.c ****         DisplayTestMode(1);
 120              		.loc 1 47 0 is_stmt 1
 121 001c 0120     		mov	r0, #1
 122 001e FFF7FEFF 		bl	DisplayTestMode
  48:..\..\common\lib\lib_testMode/testMode.c ****         NetworkSendTestModeStatus(1);
 123              		.loc 1 48 0
ARM GAS  C:\Users\Petro\AppData\Local\Temp\cc5qtVMS.s 			page 4


 124 0022 0120     		mov	r0, #1
 125 0024 FFF7FEFF 		bl	NetworkSendTestModeStatus
  49:..\..\common\lib\lib_testMode/testMode.c ****         statusTestMode = STOPPED;
 126              		.loc 1 49 0
 127 0028 354B     		ldr	r3, .L11+8
 128 002a 0022     		mov	r2, #0
 129 002c 1A70     		strb	r2, [r3]
  50:..\..\common\lib\lib_testMode/testMode.c ****         allowNextTestSkier = 1;
 130              		.loc 1 50 0
 131 002e 354B     		ldr	r3, .L11+12
 132 0030 0122     		mov	r2, #1
 133 0032 1A70     		strb	r2, [r3]
  51:..\..\common\lib\lib_testMode/testMode.c **** 		#ifdef FINISH_MODULE
  52:..\..\common\lib\lib_testMode/testMode.c ****         enableTestMode = 1;
  53:..\..\common\lib\lib_testMode/testMode.c **** 		#endif
  54:..\..\common\lib\lib_testMode/testMode.c ****         if(networkState == RISING_EDGE && switchState == LOW_LEVEL)
 134              		.loc 1 54 0
 135 0034 314B     		ldr	r3, .L11+4
 136 0036 1B78     		ldrb	r3, [r3]
 137 0038 012B     		cmp	r3, #1
 138 003a 06D1     		bne	.L7
 139              		.loc 1 54 0 is_stmt 0 discriminator 1
 140 003c 2E4B     		ldr	r3, .L11
 141 003e 1B78     		ldrb	r3, [r3]
 142 0040 032B     		cmp	r3, #3
 143 0042 02D1     		bne	.L7
  55:..\..\common\lib\lib_testMode/testMode.c ****             switchState = RISING_EDGE;
 144              		.loc 1 55 0 is_stmt 1
 145 0044 2C4B     		ldr	r3, .L11
 146 0046 0122     		mov	r2, #1
 147 0048 1A70     		strb	r2, [r3]
 148              	.L7:
  56:..\..\common\lib\lib_testMode/testMode.c ****         if(networkState == LOW_LEVEL && switchState == RISING_EDGE)
 149              		.loc 1 56 0
 150 004a 2C4B     		ldr	r3, .L11+4
 151 004c 1B78     		ldrb	r3, [r3]
 152 004e 032B     		cmp	r3, #3
 153 0050 06D1     		bne	.L6
 154              		.loc 1 56 0 is_stmt 0 discriminator 1
 155 0052 294B     		ldr	r3, .L11
 156 0054 1B78     		ldrb	r3, [r3]
 157 0056 012B     		cmp	r3, #1
 158 0058 02D1     		bne	.L6
  57:..\..\common\lib\lib_testMode/testMode.c ****             networkState = RISING_EDGE;
 159              		.loc 1 57 0 is_stmt 1
 160 005a 284B     		ldr	r3, .L11+4
 161 005c 0122     		mov	r2, #1
 162 005e 1A70     		strb	r2, [r3]
 163              	.L6:
  58:..\..\common\lib\lib_testMode/testMode.c ****     }
  59:..\..\common\lib\lib_testMode/testMode.c ****     if(/*switchState == FALLING_EDGE ||*/ networkState == FALLING_EDGE)        //disable test mode
 164              		.loc 1 59 0
 165 0060 264B     		ldr	r3, .L11+4
 166 0062 1B78     		ldrb	r3, [r3]
 167 0064 022B     		cmp	r3, #2
 168 0066 23D1     		bne	.L8
  60:..\..\common\lib\lib_testMode/testMode.c ****     {
ARM GAS  C:\Users\Petro\AppData\Local\Temp\cc5qtVMS.s 			page 5


  61:..\..\common\lib\lib_testMode/testMode.c ****         TimerTestMode_Stop();
 169              		.loc 1 61 0
 170 0068 FFF7FEFF 		bl	TimerTestMode_Stop
  62:..\..\common\lib\lib_testMode/testMode.c ****         DisplayTestMode(0);
 171              		.loc 1 62 0
 172 006c 0020     		mov	r0, #0
 173 006e FFF7FEFF 		bl	DisplayTestMode
  63:..\..\common\lib\lib_testMode/testMode.c ****         NetworkSendTestModeStatus(0);
 174              		.loc 1 63 0
 175 0072 0020     		mov	r0, #0
 176 0074 FFF7FEFF 		bl	NetworkSendTestModeStatus
  64:..\..\common\lib\lib_testMode/testMode.c ****         statusTestMode = STOPPED;
 177              		.loc 1 64 0
 178 0078 214B     		ldr	r3, .L11+8
 179 007a 0022     		mov	r2, #0
 180 007c 1A70     		strb	r2, [r3]
  65:..\..\common\lib\lib_testMode/testMode.c ****         allowNextTestSkier = 0;
 181              		.loc 1 65 0
 182 007e 214B     		ldr	r3, .L11+12
 183 0080 0022     		mov	r2, #0
 184 0082 1A70     		strb	r2, [r3]
  66:..\..\common\lib\lib_testMode/testMode.c **** 		#ifdef FINISH_MODULE
  67:..\..\common\lib\lib_testMode/testMode.c ****         enableTestMode = 0;
  68:..\..\common\lib\lib_testMode/testMode.c **** 		#endif
  69:..\..\common\lib\lib_testMode/testMode.c ****         if(networkState == FALLING_EDGE && switchState != FALLING_EDGE)
 185              		.loc 1 69 0
 186 0084 1D4B     		ldr	r3, .L11+4
 187 0086 1B78     		ldrb	r3, [r3]
 188 0088 022B     		cmp	r3, #2
 189 008a 06D1     		bne	.L9
 190              		.loc 1 69 0 is_stmt 0 discriminator 1
 191 008c 1A4B     		ldr	r3, .L11
 192 008e 1B78     		ldrb	r3, [r3]
 193 0090 022B     		cmp	r3, #2
 194 0092 02D0     		beq	.L9
  70:..\..\common\lib\lib_testMode/testMode.c ****             switchState = LOW_LEVEL;
 195              		.loc 1 70 0 is_stmt 1
 196 0094 184B     		ldr	r3, .L11
 197 0096 0322     		mov	r2, #3
 198 0098 1A70     		strb	r2, [r3]
 199              	.L9:
  71:..\..\common\lib\lib_testMode/testMode.c ****         if(networkState != FALLING_EDGE && switchState == FALLING_EDGE)
 200              		.loc 1 71 0
 201 009a 184B     		ldr	r3, .L11+4
 202 009c 1B78     		ldrb	r3, [r3]
 203 009e 022B     		cmp	r3, #2
 204 00a0 06D0     		beq	.L8
 205              		.loc 1 71 0 is_stmt 0 discriminator 1
 206 00a2 154B     		ldr	r3, .L11
 207 00a4 1B78     		ldrb	r3, [r3]
 208 00a6 022B     		cmp	r3, #2
 209 00a8 02D1     		bne	.L8
  72:..\..\common\lib\lib_testMode/testMode.c ****             networkState = LOW_LEVEL;
 210              		.loc 1 72 0 is_stmt 1
 211 00aa 144B     		ldr	r3, .L11+4
 212 00ac 0322     		mov	r2, #3
 213 00ae 1A70     		strb	r2, [r3]
ARM GAS  C:\Users\Petro\AppData\Local\Temp\cc5qtVMS.s 			page 6


 214              	.L8:
  73:..\..\common\lib\lib_testMode/testMode.c ****     }
  74:..\..\common\lib\lib_testMode/testMode.c ****     /*update test mode*/
  75:..\..\common\lib\lib_testMode/testMode.c ****     if(networkState == HIGH_LEVEL && switchState == HIGH_LEVEL )
 215              		.loc 1 75 0
 216 00b0 124B     		ldr	r3, .L11+4
 217 00b2 1B78     		ldrb	r3, [r3]
 218 00b4 002B     		cmp	r3, #0
 219 00b6 1CD1     		bne	.L4
 220              		.loc 1 75 0 is_stmt 0 discriminator 1
 221 00b8 0F4B     		ldr	r3, .L11
 222 00ba 1B78     		ldrb	r3, [r3]
 223 00bc 002B     		cmp	r3, #0
 224 00be 18D1     		bne	.L4
  76:..\..\common\lib\lib_testMode/testMode.c ****     {
  77:..\..\common\lib\lib_testMode/testMode.c **** 		#ifdef START_MODULE
  78:..\..\common\lib\lib_testMode/testMode.c ****         if(NetworkStatus() != NETWORK_DISCONN && FinWriteInDB() != NO_WRITE && FinReady() != NO_REA
 225              		.loc 1 78 0 is_stmt 1
 226 00c0 FFF7FEFF 		bl	NetworkStatus
 227 00c4 031E     		sub	r3, r0, #0
 228 00c6 14D0     		beq	.L4
 229              		.loc 1 78 0 is_stmt 0 discriminator 1
 230 00c8 FFF7FEFF 		bl	FinWriteInDB
 231 00cc 031E     		sub	r3, r0, #0
 232 00ce 10D0     		beq	.L4
 233              		.loc 1 78 0 discriminator 2
 234 00d0 FFF7FEFF 		bl	FinReady
 235 00d4 031E     		sub	r3, r0, #0
 236 00d6 0CD0     		beq	.L4
 237              		.loc 1 78 0 discriminator 3
 238 00d8 094B     		ldr	r3, .L11+8
 239 00da 1B78     		ldrb	r3, [r3]
 240 00dc 002B     		cmp	r3, #0
 241 00de 08D1     		bne	.L4
  79:..\..\common\lib\lib_testMode/testMode.c ****         {
  80:..\..\common\lib\lib_testMode/testMode.c ****             /*start timer*/
  81:..\..\common\lib\lib_testMode/testMode.c ****             TestMode_UpdateNewRandomTime();
 242              		.loc 1 81 0 is_stmt 1
 243 00e0 FFF7FEFF 		bl	TestMode_UpdateNewRandomTime
  82:..\..\common\lib\lib_testMode/testMode.c ****             Int_timerTestMode_StartEx(testModeHandler);
 244              		.loc 1 82 0
 245 00e4 084B     		ldr	r3, .L11+16
 246 00e6 181C     		mov	r0, r3
 247 00e8 FFF7FEFF 		bl	Int_timerTestMode_StartEx
  83:..\..\common\lib\lib_testMode/testMode.c ****             statusTestMode = RUN;
 248              		.loc 1 83 0
 249 00ec 044B     		ldr	r3, .L11+8
 250 00ee 0122     		mov	r2, #1
 251 00f0 1A70     		strb	r2, [r3]
 252              	.L4:
  84:..\..\common\lib\lib_testMode/testMode.c ****         }
  85:..\..\common\lib\lib_testMode/testMode.c **** 		#endif
  86:..\..\common\lib\lib_testMode/testMode.c **** 		#ifdef FINISH_MODULE
  87:..\..\common\lib\lib_testMode/testMode.c **** 		if(statusTestMode == STOPPED && SkierOnWay()>0 && allowNextTestSkier)
  88:..\..\common\lib\lib_testMode/testMode.c ****         {
  89:..\..\common\lib\lib_testMode/testMode.c ****             /*start timer*/
  90:..\..\common\lib\lib_testMode/testMode.c ****             TestMode_UpdateNewRandomTime();
ARM GAS  C:\Users\Petro\AppData\Local\Temp\cc5qtVMS.s 			page 7


  91:..\..\common\lib\lib_testMode/testMode.c ****             Int_timerTestMode_StartEx(testModeHandler);
  92:..\..\common\lib\lib_testMode/testMode.c ****             statusTestMode = RUN;
  93:..\..\common\lib\lib_testMode/testMode.c ****             allowNextTestSkier = 0;
  94:..\..\common\lib\lib_testMode/testMode.c ****         }
  95:..\..\common\lib\lib_testMode/testMode.c **** 		#endif
  96:..\..\common\lib\lib_testMode/testMode.c ****     }
  97:..\..\common\lib\lib_testMode/testMode.c **** }
 253              		.loc 1 97 0
 254 00f2 BD46     		mov	sp, r7
 255              		@ sp needed
 256 00f4 80BD     		pop	{r7, pc}
 257              	.L12:
 258 00f6 C046     		.align	2
 259              	.L11:
 260 00f8 00000000 		.word	switchState
 261 00fc 00000000 		.word	networkState
 262 0100 00000000 		.word	statusTestMode
 263 0104 06000000 		.word	allowNextTestSkier
 264 0108 00000000 		.word	testModeHandler
 265              		.cfi_endproc
 266              	.LFE64:
 267              		.size	TestMode, .-TestMode
 268              		.global	__aeabi_idivmod
 269              		.section	.text.TestMode_UpdateNewRandomTime,"ax",%progbits
 270              		.align	2
 271              		.global	TestMode_UpdateNewRandomTime
 272              		.code	16
 273              		.thumb_func
 274              		.type	TestMode_UpdateNewRandomTime, %function
 275              	TestMode_UpdateNewRandomTime:
 276              	.LFB65:
  98:..\..\common\lib\lib_testMode/testMode.c **** 
  99:..\..\common\lib\lib_testMode/testMode.c **** 
 100:..\..\common\lib\lib_testMode/testMode.c **** void TestMode_UpdateNewRandomTime()
 101:..\..\common\lib\lib_testMode/testMode.c **** {
 277              		.loc 1 101 0
 278              		.cfi_startproc
 279 0000 80B5     		push	{r7, lr}
 280              		.cfi_def_cfa_offset 8
 281              		.cfi_offset 7, -8
 282              		.cfi_offset 14, -4
 283 0002 82B0     		sub	sp, sp, #8
 284              		.cfi_def_cfa_offset 16
 285 0004 00AF     		add	r7, sp, #0
 286              		.cfi_def_cfa_register 7
 102:..\..\common\lib\lib_testMode/testMode.c ****     uint8_t num;
 103:..\..\common\lib\lib_testMode/testMode.c ****     
 104:..\..\common\lib\lib_testMode/testMode.c ****     num = 30+rand()%60;
 287              		.loc 1 104 0
 288 0006 FFF7FEFF 		bl	rand
 289 000a 031C     		mov	r3, r0
 290 000c 181C     		mov	r0, r3
 291 000e 3C21     		mov	r1, #60
 292 0010 FFF7FEFF 		bl	__aeabi_idivmod
 293 0014 0B1C     		mov	r3, r1
 294 0016 DAB2     		uxtb	r2, r3
 295 0018 FB1D     		add	r3, r7, #7
ARM GAS  C:\Users\Petro\AppData\Local\Temp\cc5qtVMS.s 			page 8


 296 001a 1E32     		add	r2, r2, #30
 297 001c 1A70     		strb	r2, [r3]
 105:..\..\common\lib\lib_testMode/testMode.c ****     
 106:..\..\common\lib\lib_testMode/testMode.c **** //    char buff[11];
 107:..\..\common\lib\lib_testMode/testMode.c **** //    sprintf(buff,"%d",num);
 108:..\..\common\lib\lib_testMode/testMode.c **** //    Display(buff);
 109:..\..\common\lib\lib_testMode/testMode.c ****     
 110:..\..\common\lib\lib_testMode/testMode.c ****     TimerTestMode_WriteCounter(0);
 298              		.loc 1 110 0
 299 001e 0020     		mov	r0, #0
 300 0020 FFF7FEFF 		bl	TimerTestMode_WriteCounter
 111:..\..\common\lib\lib_testMode/testMode.c ****     TimerTestMode_WriteCompare(num*100);
 301              		.loc 1 111 0
 302 0024 FB1D     		add	r3, r7, #7
 303 0026 1B78     		ldrb	r3, [r3]
 304 0028 6422     		mov	r2, #100
 305 002a 5343     		mul	r3, r2
 306 002c 181C     		mov	r0, r3
 307 002e FFF7FEFF 		bl	TimerTestMode_WriteCompare
 112:..\..\common\lib\lib_testMode/testMode.c ****     TimerTestMode_Start();   
 308              		.loc 1 112 0
 309 0032 FFF7FEFF 		bl	TimerTestMode_Start
 113:..\..\common\lib\lib_testMode/testMode.c **** }
 310              		.loc 1 113 0
 311 0036 BD46     		mov	sp, r7
 312 0038 02B0     		add	sp, sp, #8
 313              		@ sp needed
 314 003a 80BD     		pop	{r7, pc}
 315              		.cfi_endproc
 316              	.LFE65:
 317              		.size	TestMode_UpdateNewRandomTime, .-TestMode_UpdateNewRandomTime
 318              		.section	.text.ReadSwitchState,"ax",%progbits
 319              		.align	2
 320              		.global	ReadSwitchState
 321              		.code	16
 322              		.thumb_func
 323              		.type	ReadSwitchState, %function
 324              	ReadSwitchState:
 325              	.LFB66:
 114:..\..\common\lib\lib_testMode/testMode.c **** 
 115:..\..\common\lib\lib_testMode/testMode.c **** funcReturnValue ReadSwitchState()
 116:..\..\common\lib\lib_testMode/testMode.c **** {  
 326              		.loc 1 116 0
 327              		.cfi_startproc
 328 0000 80B5     		push	{r7, lr}
 329              		.cfi_def_cfa_offset 8
 330              		.cfi_offset 7, -8
 331              		.cfi_offset 14, -4
 332 0002 00AF     		add	r7, sp, #0
 333              		.cfi_def_cfa_register 7
 117:..\..\common\lib\lib_testMode/testMode.c ****     static uint8_t tmpCounter;
 118:..\..\common\lib\lib_testMode/testMode.c ****     
 119:..\..\common\lib\lib_testMode/testMode.c ****     if(SW_RunTestMode_Read() == 0)
 334              		.loc 1 119 0
 335 0004 FFF7FEFF 		bl	SW_RunTestMode_Read
 336 0008 031E     		sub	r3, r0, #0
 337 000a 06D1     		bne	.L15
ARM GAS  C:\Users\Petro\AppData\Local\Temp\cc5qtVMS.s 			page 9


 120:..\..\common\lib\lib_testMode/testMode.c ****     {
 121:..\..\common\lib\lib_testMode/testMode.c ****         tmpCounter++;
 338              		.loc 1 121 0
 339 000c 1A4B     		ldr	r3, .L23
 340 000e 1B78     		ldrb	r3, [r3]
 341 0010 0133     		add	r3, r3, #1
 342 0012 DAB2     		uxtb	r2, r3
 343 0014 184B     		ldr	r3, .L23
 344 0016 1A70     		strb	r2, [r3]
 345 0018 02E0     		b	.L16
 346              	.L15:
 122:..\..\common\lib\lib_testMode/testMode.c ****     }
 123:..\..\common\lib\lib_testMode/testMode.c ****     else
 124:..\..\common\lib\lib_testMode/testMode.c ****     {
 125:..\..\common\lib\lib_testMode/testMode.c ****         tmpCounter = 0;
 347              		.loc 1 125 0
 348 001a 174B     		ldr	r3, .L23
 349 001c 0022     		mov	r2, #0
 350 001e 1A70     		strb	r2, [r3]
 351              	.L16:
 126:..\..\common\lib\lib_testMode/testMode.c ****     }
 127:..\..\common\lib\lib_testMode/testMode.c ****     
 128:..\..\common\lib\lib_testMode/testMode.c ****     if(tmpCounter > COUNTER_TEST_MODE_ON)
 352              		.loc 1 128 0
 353 0020 154B     		ldr	r3, .L23
 354 0022 1B78     		ldrb	r3, [r3]
 355 0024 142B     		cmp	r3, #20
 356 0026 12D9     		bls	.L17
 129:..\..\common\lib\lib_testMode/testMode.c ****     {
 130:..\..\common\lib\lib_testMode/testMode.c **** 		#ifdef START_MODULE
 131:..\..\common\lib\lib_testMode/testMode.c **** 		if(switchState == LOW_LEVEL)switchState = RISING_EDGE;
 357              		.loc 1 131 0
 358 0028 144B     		ldr	r3, .L23+4
 359 002a 1B78     		ldrb	r3, [r3]
 360 002c 032B     		cmp	r3, #3
 361 002e 03D1     		bne	.L18
 362              		.loc 1 131 0 is_stmt 0 discriminator 1
 363 0030 124B     		ldr	r3, .L23+4
 364 0032 0122     		mov	r2, #1
 365 0034 1A70     		strb	r2, [r3]
 366 0036 19E0     		b	.L20
 367              	.L18:
 132:..\..\common\lib\lib_testMode/testMode.c ****         else if(switchState == HIGH_LEVEL)
 368              		.loc 1 132 0 is_stmt 1
 369 0038 104B     		ldr	r3, .L23+4
 370 003a 1B78     		ldrb	r3, [r3]
 371 003c 002B     		cmp	r3, #0
 372 003e 15D1     		bne	.L20
 133:..\..\common\lib\lib_testMode/testMode.c ****         {
 134:..\..\common\lib\lib_testMode/testMode.c ****             switchState = FALLING_EDGE;
 373              		.loc 1 134 0
 374 0040 0E4B     		ldr	r3, .L23+4
 375 0042 0222     		mov	r2, #2
 376 0044 1A70     		strb	r2, [r3]
 135:..\..\common\lib\lib_testMode/testMode.c ****             NetworkSendTestModeStatus(0);
 377              		.loc 1 135 0
 378 0046 0020     		mov	r0, #0
ARM GAS  C:\Users\Petro\AppData\Local\Temp\cc5qtVMS.s 			page 10


 379 0048 FFF7FEFF 		bl	NetworkSendTestModeStatus
 380 004c 0EE0     		b	.L20
 381              	.L17:
 136:..\..\common\lib\lib_testMode/testMode.c ****         }
 137:..\..\common\lib\lib_testMode/testMode.c **** 		#endif
 138:..\..\common\lib\lib_testMode/testMode.c **** 		#ifdef FINISH_MODULE
 139:..\..\common\lib\lib_testMode/testMode.c ****         if(SkierOnWay() != 0 && enableTestMode == 0)
 140:..\..\common\lib\lib_testMode/testMode.c ****         {
 141:..\..\common\lib\lib_testMode/testMode.c ****             //Display("testModeERR");
 142:..\..\common\lib\lib_testMode/testMode.c ****         }
 143:..\..\common\lib\lib_testMode/testMode.c ****         else
 144:..\..\common\lib\lib_testMode/testMode.c ****         {
 145:..\..\common\lib\lib_testMode/testMode.c ****             if(switchState == LOW_LEVEL)switchState = RISING_EDGE;
 146:..\..\common\lib\lib_testMode/testMode.c ****             else if(switchState == HIGH_LEVEL)
 147:..\..\common\lib\lib_testMode/testMode.c ****             {
 148:..\..\common\lib\lib_testMode/testMode.c ****                 switchState = FALLING_EDGE;
 149:..\..\common\lib\lib_testMode/testMode.c ****                 NetworkSendTestModeStatus(0);
 150:..\..\common\lib\lib_testMode/testMode.c ****             }
 151:..\..\common\lib\lib_testMode/testMode.c ****         }
 152:..\..\common\lib\lib_testMode/testMode.c **** 		#endif
 153:..\..\common\lib\lib_testMode/testMode.c ****     }
 154:..\..\common\lib\lib_testMode/testMode.c ****     else
 155:..\..\common\lib\lib_testMode/testMode.c ****     {
 156:..\..\common\lib\lib_testMode/testMode.c ****         if(switchState == RISING_EDGE)switchState = HIGH_LEVEL;
 382              		.loc 1 156 0
 383 004e 0B4B     		ldr	r3, .L23+4
 384 0050 1B78     		ldrb	r3, [r3]
 385 0052 012B     		cmp	r3, #1
 386 0054 03D1     		bne	.L21
 387              		.loc 1 156 0 is_stmt 0 discriminator 1
 388 0056 094B     		ldr	r3, .L23+4
 389 0058 0022     		mov	r2, #0
 390 005a 1A70     		strb	r2, [r3]
 391 005c 06E0     		b	.L20
 392              	.L21:
 157:..\..\common\lib\lib_testMode/testMode.c ****         else if(switchState == FALLING_EDGE)switchState = LOW_LEVEL;
 393              		.loc 1 157 0 is_stmt 1
 394 005e 074B     		ldr	r3, .L23+4
 395 0060 1B78     		ldrb	r3, [r3]
 396 0062 022B     		cmp	r3, #2
 397 0064 02D1     		bne	.L20
 398              		.loc 1 157 0 is_stmt 0 discriminator 1
 399 0066 054B     		ldr	r3, .L23+4
 400 0068 0322     		mov	r2, #3
 401 006a 1A70     		strb	r2, [r3]
 402              	.L20:
 158:..\..\common\lib\lib_testMode/testMode.c ****     }
 159:..\..\common\lib\lib_testMode/testMode.c **** 
 160:..\..\common\lib\lib_testMode/testMode.c ****       
 161:..\..\common\lib\lib_testMode/testMode.c ****     return switchState;
 403              		.loc 1 161 0 is_stmt 1
 404 006c 034B     		ldr	r3, .L23+4
 405 006e 1B78     		ldrb	r3, [r3]
 162:..\..\common\lib\lib_testMode/testMode.c **** }
 406              		.loc 1 162 0
 407 0070 181C     		mov	r0, r3
 408 0072 BD46     		mov	sp, r7
ARM GAS  C:\Users\Petro\AppData\Local\Temp\cc5qtVMS.s 			page 11


 409              		@ sp needed
 410 0074 80BD     		pop	{r7, pc}
 411              	.L24:
 412 0076 C046     		.align	2
 413              	.L23:
 414 0078 07000000 		.word	tmpCounter.7711
 415 007c 00000000 		.word	switchState
 416              		.cfi_endproc
 417              	.LFE66:
 418              		.size	ReadSwitchState, .-ReadSwitchState
 419              		.section	.text.ReadNetworkState,"ax",%progbits
 420              		.align	2
 421              		.global	ReadNetworkState
 422              		.code	16
 423              		.thumb_func
 424              		.type	ReadNetworkState, %function
 425              	ReadNetworkState:
 426              	.LFB67:
 163:..\..\common\lib\lib_testMode/testMode.c **** 
 164:..\..\common\lib\lib_testMode/testMode.c **** 
 165:..\..\common\lib\lib_testMode/testMode.c **** funcReturnValue ReadNetworkState()
 166:..\..\common\lib\lib_testMode/testMode.c **** {
 427              		.loc 1 166 0
 428              		.cfi_startproc
 429 0000 80B5     		push	{r7, lr}
 430              		.cfi_def_cfa_offset 8
 431              		.cfi_offset 7, -8
 432              		.cfi_offset 14, -4
 433 0002 00AF     		add	r7, sp, #0
 434              		.cfi_def_cfa_register 7
 167:..\..\common\lib\lib_testMode/testMode.c ****     if(networkState == LOW_LEVEL && NetworkReadTestModeStatus()==1)  networkState = RISING_EDGE;
 435              		.loc 1 167 0
 436 0004 1A4B     		ldr	r3, .L31
 437 0006 1B78     		ldrb	r3, [r3]
 438 0008 032B     		cmp	r3, #3
 439 000a 08D1     		bne	.L26
 440              		.loc 1 167 0 is_stmt 0 discriminator 1
 441 000c FFF7FEFF 		bl	NetworkReadTestModeStatus
 442 0010 031E     		sub	r3, r0, #0
 443 0012 012B     		cmp	r3, #1
 444 0014 03D1     		bne	.L26
 445              		.loc 1 167 0 discriminator 2
 446 0016 164B     		ldr	r3, .L31
 447 0018 0122     		mov	r2, #1
 448 001a 1A70     		strb	r2, [r3]
 449 001c 23E0     		b	.L27
 450              	.L26:
 168:..\..\common\lib\lib_testMode/testMode.c ****     else if(networkState == HIGH_LEVEL && NetworkReadTestModeStatus() == 0)  networkState = FALLING
 451              		.loc 1 168 0 is_stmt 1
 452 001e 144B     		ldr	r3, .L31
 453 0020 1B78     		ldrb	r3, [r3]
 454 0022 002B     		cmp	r3, #0
 455 0024 07D1     		bne	.L28
 456              		.loc 1 168 0 is_stmt 0 discriminator 1
 457 0026 FFF7FEFF 		bl	NetworkReadTestModeStatus
 458 002a 031E     		sub	r3, r0, #0
 459 002c 03D1     		bne	.L28
ARM GAS  C:\Users\Petro\AppData\Local\Temp\cc5qtVMS.s 			page 12


 460              		.loc 1 168 0 discriminator 2
 461 002e 104B     		ldr	r3, .L31
 462 0030 0222     		mov	r2, #2
 463 0032 1A70     		strb	r2, [r3]
 464 0034 17E0     		b	.L27
 465              	.L28:
 169:..\..\common\lib\lib_testMode/testMode.c ****     else if(networkState == RISING_EDGE && NetworkReadTestModeStatus() ==1)  networkState = HIGH_LE
 466              		.loc 1 169 0 is_stmt 1
 467 0036 0E4B     		ldr	r3, .L31
 468 0038 1B78     		ldrb	r3, [r3]
 469 003a 012B     		cmp	r3, #1
 470 003c 08D1     		bne	.L29
 471              		.loc 1 169 0 is_stmt 0 discriminator 1
 472 003e FFF7FEFF 		bl	NetworkReadTestModeStatus
 473 0042 031E     		sub	r3, r0, #0
 474 0044 012B     		cmp	r3, #1
 475 0046 03D1     		bne	.L29
 476              		.loc 1 169 0 discriminator 2
 477 0048 094B     		ldr	r3, .L31
 478 004a 0022     		mov	r2, #0
 479 004c 1A70     		strb	r2, [r3]
 480 004e 0AE0     		b	.L27
 481              	.L29:
 170:..\..\common\lib\lib_testMode/testMode.c ****     else if(networkState == FALLING_EDGE && NetworkReadTestModeStatus() == 0)  networkState = LOW_L
 482              		.loc 1 170 0 is_stmt 1
 483 0050 074B     		ldr	r3, .L31
 484 0052 1B78     		ldrb	r3, [r3]
 485 0054 022B     		cmp	r3, #2
 486 0056 06D1     		bne	.L27
 487              		.loc 1 170 0 is_stmt 0 discriminator 1
 488 0058 FFF7FEFF 		bl	NetworkReadTestModeStatus
 489 005c 031E     		sub	r3, r0, #0
 490 005e 02D1     		bne	.L27
 491              		.loc 1 170 0 discriminator 2
 492 0060 034B     		ldr	r3, .L31
 493 0062 0322     		mov	r2, #3
 494 0064 1A70     		strb	r2, [r3]
 495              	.L27:
 171:..\..\common\lib\lib_testMode/testMode.c ****     
 172:..\..\common\lib\lib_testMode/testMode.c ****     /*no answer*/
 173:..\..\common\lib\lib_testMode/testMode.c **** 
 174:..\..\common\lib\lib_testMode/testMode.c ****     return networkState;   
 496              		.loc 1 174 0 is_stmt 1
 497 0066 024B     		ldr	r3, .L31
 498 0068 1B78     		ldrb	r3, [r3]
 175:..\..\common\lib\lib_testMode/testMode.c **** }
 499              		.loc 1 175 0
 500 006a 181C     		mov	r0, r3
 501 006c BD46     		mov	sp, r7
 502              		@ sp needed
 503 006e 80BD     		pop	{r7, pc}
 504              	.L32:
 505              		.align	2
 506              	.L31:
 507 0070 00000000 		.word	networkState
 508              		.cfi_endproc
 509              	.LFE67:
ARM GAS  C:\Users\Petro\AppData\Local\Temp\cc5qtVMS.s 			page 13


 510              		.size	ReadNetworkState, .-ReadNetworkState
 511              		.section	.text.AllowNextTestSkier,"ax",%progbits
 512              		.align	2
 513              		.global	AllowNextTestSkier
 514              		.code	16
 515              		.thumb_func
 516              		.type	AllowNextTestSkier, %function
 517              	AllowNextTestSkier:
 518              	.LFB68:
 176:..\..\common\lib\lib_testMode/testMode.c **** 
 177:..\..\common\lib\lib_testMode/testMode.c **** void AllowNextTestSkier()
 178:..\..\common\lib\lib_testMode/testMode.c **** {
 519              		.loc 1 178 0
 520              		.cfi_startproc
 521 0000 80B5     		push	{r7, lr}
 522              		.cfi_def_cfa_offset 8
 523              		.cfi_offset 7, -8
 524              		.cfi_offset 14, -4
 525 0002 00AF     		add	r7, sp, #0
 526              		.cfi_def_cfa_register 7
 179:..\..\common\lib\lib_testMode/testMode.c ****     allowNextTestSkier = 1;
 527              		.loc 1 179 0
 528 0004 024B     		ldr	r3, .L34
 529 0006 0122     		mov	r2, #1
 530 0008 1A70     		strb	r2, [r3]
 180:..\..\common\lib\lib_testMode/testMode.c **** }...
 531              		.loc 1 180 0
 532 000a BD46     		mov	sp, r7
 533              		@ sp needed
 534 000c 80BD     		pop	{r7, pc}
 535              	.L35:
 536 000e C046     		.align	2
 537              	.L34:
 538 0010 06000000 		.word	allowNextTestSkier
 539              		.cfi_endproc
 540              	.LFE68:
 541              		.size	AllowNextTestSkier, .-AllowNextTestSkier
 542              		.bss
 543              	tmpCounter.7711:
 544 0007 00       		.space	1
 545              		.text
 546              	.Letext0:
 547              		.file 2 "c:\\program files (x86)\\cypress\\psoc creator\\4.0\\psoc creator\\import\\gnu\\arm\\4.9.
 548              		.file 3 "c:\\program files (x86)\\cypress\\psoc creator\\4.0\\psoc creator\\import\\gnu\\arm\\4.9.
 549              		.file 4 "Generated_Source\\PSoC4/cytypes.h"
 550              		.file 5 "./appGlobal.h"
 551              		.section	.debug_info,"",%progbits
 552              	.Ldebug_info0:
 553 0000 3B020000 		.4byte	0x23b
 554 0004 0400     		.2byte	0x4
 555 0006 00000000 		.4byte	.Ldebug_abbrev0
 556 000a 04       		.byte	0x4
 557 000b 01       		.uleb128 0x1
 558 000c 8E010000 		.4byte	.LASF41
 559 0010 01       		.byte	0x1
 560 0011 35000000 		.4byte	.LASF42
 561 0015 E3000000 		.4byte	.LASF43
ARM GAS  C:\Users\Petro\AppData\Local\Temp\cc5qtVMS.s 			page 14


 562 0019 00000000 		.4byte	.Ldebug_ranges0+0
 563 001d 00000000 		.4byte	0
 564 0021 00000000 		.4byte	.Ldebug_line0
 565 0025 02       		.uleb128 0x2
 566 0026 01       		.byte	0x1
 567 0027 06       		.byte	0x6
 568 0028 91000000 		.4byte	.LASF0
 569 002c 03       		.uleb128 0x3
 570 002d 0C000000 		.4byte	.LASF5
 571 0031 02       		.byte	0x2
 572 0032 1D       		.byte	0x1d
 573 0033 37000000 		.4byte	0x37
 574 0037 02       		.uleb128 0x2
 575 0038 01       		.byte	0x1
 576 0039 08       		.byte	0x8
 577 003a 9D000000 		.4byte	.LASF1
 578 003e 02       		.uleb128 0x2
 579 003f 02       		.byte	0x2
 580 0040 05       		.byte	0x5
 581 0041 AF020000 		.4byte	.LASF2
 582 0045 02       		.uleb128 0x2
 583 0046 02       		.byte	0x2
 584 0047 07       		.byte	0x7
 585 0048 D0000000 		.4byte	.LASF3
 586 004c 02       		.uleb128 0x2
 587 004d 04       		.byte	0x4
 588 004e 05       		.byte	0x5
 589 004f D2020000 		.4byte	.LASF4
 590 0053 03       		.uleb128 0x3
 591 0054 72010000 		.4byte	.LASF6
 592 0058 02       		.byte	0x2
 593 0059 41       		.byte	0x41
 594 005a 5E000000 		.4byte	0x5e
 595 005e 02       		.uleb128 0x2
 596 005f 04       		.byte	0x4
 597 0060 07       		.byte	0x7
 598 0061 BE000000 		.4byte	.LASF7
 599 0065 02       		.uleb128 0x2
 600 0066 08       		.byte	0x8
 601 0067 05       		.byte	0x5
 602 0068 83020000 		.4byte	.LASF8
 603 006c 02       		.uleb128 0x2
 604 006d 08       		.byte	0x8
 605 006e 07       		.byte	0x7
 606 006f 3A020000 		.4byte	.LASF9
 607 0073 04       		.uleb128 0x4
 608 0074 04       		.byte	0x4
 609 0075 05       		.byte	0x5
 610 0076 696E7400 		.ascii	"int\000"
 611 007a 02       		.uleb128 0x2
 612 007b 04       		.byte	0x4
 613 007c 07       		.byte	0x7
 614 007d 2D020000 		.4byte	.LASF10
 615 0081 03       		.uleb128 0x3
 616 0082 51020000 		.4byte	.LASF11
 617 0086 03       		.byte	0x3
 618 0087 15       		.byte	0x15
ARM GAS  C:\Users\Petro\AppData\Local\Temp\cc5qtVMS.s 			page 15


 619 0088 2C000000 		.4byte	0x2c
 620 008c 03       		.uleb128 0x3
 621 008d C9020000 		.4byte	.LASF12
 622 0091 03       		.byte	0x3
 623 0092 2D       		.byte	0x2d
 624 0093 53000000 		.4byte	0x53
 625 0097 05       		.uleb128 0x5
 626 0098 26020000 		.4byte	.LASF13
 627 009c 04       		.byte	0x4
 628 009d 9A01     		.2byte	0x19a
 629 009f 5E000000 		.4byte	0x5e
 630 00a3 02       		.uleb128 0x2
 631 00a4 04       		.byte	0x4
 632 00a5 04       		.byte	0x4
 633 00a6 8B000000 		.4byte	.LASF14
 634 00aa 02       		.uleb128 0x2
 635 00ab 08       		.byte	0x8
 636 00ac 04       		.byte	0x4
 637 00ad 44010000 		.4byte	.LASF15
 638 00b1 02       		.uleb128 0x2
 639 00b2 01       		.byte	0x1
 640 00b3 08       		.byte	0x8
 641 00b4 91020000 		.4byte	.LASF16
 642 00b8 02       		.uleb128 0x2
 643 00b9 04       		.byte	0x4
 644 00ba 07       		.byte	0x7
 645 00bb 7A020000 		.4byte	.LASF17
 646 00bf 06       		.uleb128 0x6
 647 00c0 01       		.byte	0x1
 648 00c1 05       		.byte	0x5
 649 00c2 17       		.byte	0x17
 650 00c3 E0000000 		.4byte	0xe0
 651 00c7 07       		.uleb128 0x7
 652 00c8 68010000 		.4byte	.LASF18
 653 00cc 00       		.sleb128 0
 654 00cd 07       		.uleb128 0x7
 655 00ce 35010000 		.4byte	.LASF19
 656 00d2 01       		.sleb128 1
 657 00d3 07       		.uleb128 0x7
 658 00d4 2A010000 		.4byte	.LASF20
 659 00d8 02       		.sleb128 2
 660 00d9 07       		.uleb128 0x7
 661 00da FD020000 		.4byte	.LASF21
 662 00de 03       		.sleb128 3
 663 00df 00       		.byte	0
 664 00e0 03       		.uleb128 0x3
 665 00e1 1C020000 		.4byte	.LASF22
 666 00e5 05       		.byte	0x5
 667 00e6 17       		.byte	0x17
 668 00e7 BF000000 		.4byte	0xbf
 669 00eb 08       		.uleb128 0x8
 670 00ec 6B000000 		.4byte	.LASF44
 671 00f0 01       		.byte	0x1
 672 00f1 01       		.byte	0x1
 673 00f2 0F       		.byte	0xf
 674 00f3 04010000 		.4byte	0x104
 675 00f7 07       		.uleb128 0x7
ARM GAS  C:\Users\Petro\AppData\Local\Temp\cc5qtVMS.s 			page 16


 676 00f8 2D000000 		.4byte	.LASF23
 677 00fc 00       		.sleb128 0
 678 00fd 09       		.uleb128 0x9
 679 00fe 52554E00 		.ascii	"RUN\000"
 680 0102 01       		.sleb128 1
 681 0103 00       		.byte	0
 682 0104 06       		.uleb128 0x6
 683 0105 01       		.byte	0x1
 684 0106 01       		.byte	0x1
 685 0107 10       		.byte	0x10
 686 0108 25010000 		.4byte	0x125
 687 010c 07       		.uleb128 0x7
 688 010d 1F010000 		.4byte	.LASF24
 689 0111 00       		.sleb128 0
 690 0112 07       		.uleb128 0x7
 691 0113 00000000 		.4byte	.LASF25
 692 0117 01       		.sleb128 1
 693 0118 07       		.uleb128 0x7
 694 0119 7E000000 		.4byte	.LASF26
 695 011d 02       		.sleb128 2
 696 011e 07       		.uleb128 0x7
 697 011f 16000000 		.4byte	.LASF27
 698 0123 03       		.sleb128 3
 699 0124 00       		.byte	0
 700 0125 03       		.uleb128 0x3
 701 0126 09030000 		.4byte	.LASF28
 702 012a 01       		.byte	0x1
 703 012b 10       		.byte	0x10
 704 012c 04010000 		.4byte	0x104
 705 0130 0A       		.uleb128 0xa
 706 0131 9F020000 		.4byte	.LASF30
 707 0135 01       		.byte	0x1
 708 0136 1D       		.byte	0x1d
 709 0137 00000000 		.4byte	.LFB63
 710 013b 30000000 		.4byte	.LFE63-.LFB63
 711 013f 01       		.uleb128 0x1
 712 0140 9C       		.byte	0x9c
 713 0141 0B       		.uleb128 0xb
 714 0142 96020000 		.4byte	.LASF32
 715 0146 01       		.byte	0x1
 716 0147 28       		.byte	0x28
 717 0148 00000000 		.4byte	.LFB64
 718 014c 0C010000 		.4byte	.LFE64-.LFB64
 719 0150 01       		.uleb128 0x1
 720 0151 9C       		.byte	0x9c
 721 0152 0C       		.uleb128 0xc
 722 0153 4B010000 		.4byte	.LASF45
 723 0157 01       		.byte	0x1
 724 0158 64       		.byte	0x64
 725 0159 00000000 		.4byte	.LFB65
 726 015d 3C000000 		.4byte	.LFE65-.LFB65
 727 0161 01       		.uleb128 0x1
 728 0162 9C       		.byte	0x9c
 729 0163 76010000 		.4byte	0x176
 730 0167 0D       		.uleb128 0xd
 731 0168 6E756D00 		.ascii	"num\000"
 732 016c 01       		.byte	0x1
ARM GAS  C:\Users\Petro\AppData\Local\Temp\cc5qtVMS.s 			page 17


 733 016d 66       		.byte	0x66
 734 016e 81000000 		.4byte	0x81
 735 0172 02       		.uleb128 0x2
 736 0173 91       		.byte	0x91
 737 0174 77       		.sleb128 -9
 738 0175 00       		.byte	0
 739 0176 0E       		.uleb128 0xe
 740 0177 B9020000 		.4byte	.LASF46
 741 017b 01       		.byte	0x1
 742 017c 73       		.byte	0x73
 743 017d 25010000 		.4byte	0x125
 744 0181 00000000 		.4byte	.LFB66
 745 0185 80000000 		.4byte	.LFE66-.LFB66
 746 0189 01       		.uleb128 0x1
 747 018a 9C       		.byte	0x9c
 748 018b A1010000 		.4byte	0x1a1
 749 018f 0F       		.uleb128 0xf
 750 0190 6F020000 		.4byte	.LASF29
 751 0194 01       		.byte	0x1
 752 0195 75       		.byte	0x75
 753 0196 81000000 		.4byte	0x81
 754 019a 05       		.uleb128 0x5
 755 019b 03       		.byte	0x3
 756 019c 07000000 		.4byte	tmpCounter.7711
 757 01a0 00       		.byte	0
 758 01a1 10       		.uleb128 0x10
 759 01a2 7D010000 		.4byte	.LASF31
 760 01a6 01       		.byte	0x1
 761 01a7 A5       		.byte	0xa5
 762 01a8 25010000 		.4byte	0x125
 763 01ac 00000000 		.4byte	.LFB67
 764 01b0 74000000 		.4byte	.LFE67-.LFB67
 765 01b4 01       		.uleb128 0x1
 766 01b5 9C       		.byte	0x9c
 767 01b6 11       		.uleb128 0x11
 768 01b7 AB000000 		.4byte	.LASF33
 769 01bb 01       		.byte	0x1
 770 01bc B1       		.byte	0xb1
 771 01bd 00000000 		.4byte	.LFB68
 772 01c1 14000000 		.4byte	.LFE68-.LFB68
 773 01c5 01       		.uleb128 0x1
 774 01c6 9C       		.byte	0x9c
 775 01c7 0F       		.uleb128 0xf
 776 01c8 59020000 		.4byte	.LASF34
 777 01cc 05       		.byte	0x5
 778 01cd 1A       		.byte	0x1a
 779 01ce 8C000000 		.4byte	0x8c
 780 01d2 05       		.uleb128 0x5
 781 01d3 03       		.byte	0x3
 782 01d4 00000000 		.4byte	result
 783 01d8 0F       		.uleb128 0xf
 784 01d9 60020000 		.4byte	.LASF35
 785 01dd 01       		.byte	0x1
 786 01de 1A       		.byte	0x1a
 787 01df 81000000 		.4byte	0x81
 788 01e3 05       		.uleb128 0x5
 789 01e4 03       		.byte	0x3
ARM GAS  C:\Users\Petro\AppData\Local\Temp\cc5qtVMS.s 			page 18


 790 01e5 05000000 		.4byte	enableTestMode
 791 01e9 0F       		.uleb128 0xf
 792 01ea DB020000 		.4byte	.LASF36
 793 01ee 01       		.byte	0x1
 794 01ef 1B       		.byte	0x1b
 795 01f0 81000000 		.4byte	0x81
 796 01f4 05       		.uleb128 0x5
 797 01f5 03       		.byte	0x3
 798 01f6 06000000 		.4byte	allowNextTestSkier
 799 01fa 12       		.uleb128 0x12
 800 01fb 20000000 		.4byte	.LASF37
 801 01ff 05       		.byte	0x5
 802 0200 18       		.byte	0x18
 803 0201 E0000000 		.4byte	0xe0
 804 0205 05       		.uleb128 0x5
 805 0206 03       		.byte	0x3
 806 0207 00000000 		.4byte	currentState
 807 020b 12       		.uleb128 0x12
 808 020c EE020000 		.4byte	.LASF38
 809 0210 01       		.byte	0x1
 810 0211 12       		.byte	0x12
 811 0212 81000000 		.4byte	0x81
 812 0216 05       		.uleb128 0x5
 813 0217 03       		.byte	0x3
 814 0218 00000000 		.4byte	statusTestMode
 815 021c 12       		.uleb128 0x12
 816 021d 72000000 		.4byte	.LASF39
 817 0221 01       		.byte	0x1
 818 0222 14       		.byte	0x14
 819 0223 25010000 		.4byte	0x125
 820 0227 05       		.uleb128 0x5
 821 0228 03       		.byte	0x3
 822 0229 00000000 		.4byte	switchState
 823 022d 12       		.uleb128 0x12
 824 022e 5E000000 		.4byte	.LASF40
 825 0232 01       		.byte	0x1
 826 0233 15       		.byte	0x15
 827 0234 25010000 		.4byte	0x125
 828 0238 05       		.uleb128 0x5
 829 0239 03       		.byte	0x3
 830 023a 00000000 		.4byte	networkState
 831 023e 00       		.byte	0
 832              		.section	.debug_abbrev,"",%progbits
 833              	.Ldebug_abbrev0:
 834 0000 01       		.uleb128 0x1
 835 0001 11       		.uleb128 0x11
 836 0002 01       		.byte	0x1
 837 0003 25       		.uleb128 0x25
 838 0004 0E       		.uleb128 0xe
 839 0005 13       		.uleb128 0x13
 840 0006 0B       		.uleb128 0xb
 841 0007 03       		.uleb128 0x3
 842 0008 0E       		.uleb128 0xe
 843 0009 1B       		.uleb128 0x1b
 844 000a 0E       		.uleb128 0xe
 845 000b 55       		.uleb128 0x55
 846 000c 17       		.uleb128 0x17
ARM GAS  C:\Users\Petro\AppData\Local\Temp\cc5qtVMS.s 			page 19


 847 000d 11       		.uleb128 0x11
 848 000e 01       		.uleb128 0x1
 849 000f 10       		.uleb128 0x10
 850 0010 17       		.uleb128 0x17
 851 0011 00       		.byte	0
 852 0012 00       		.byte	0
 853 0013 02       		.uleb128 0x2
 854 0014 24       		.uleb128 0x24
 855 0015 00       		.byte	0
 856 0016 0B       		.uleb128 0xb
 857 0017 0B       		.uleb128 0xb
 858 0018 3E       		.uleb128 0x3e
 859 0019 0B       		.uleb128 0xb
 860 001a 03       		.uleb128 0x3
 861 001b 0E       		.uleb128 0xe
 862 001c 00       		.byte	0
 863 001d 00       		.byte	0
 864 001e 03       		.uleb128 0x3
 865 001f 16       		.uleb128 0x16
 866 0020 00       		.byte	0
 867 0021 03       		.uleb128 0x3
 868 0022 0E       		.uleb128 0xe
 869 0023 3A       		.uleb128 0x3a
 870 0024 0B       		.uleb128 0xb
 871 0025 3B       		.uleb128 0x3b
 872 0026 0B       		.uleb128 0xb
 873 0027 49       		.uleb128 0x49
 874 0028 13       		.uleb128 0x13
 875 0029 00       		.byte	0
 876 002a 00       		.byte	0
 877 002b 04       		.uleb128 0x4
 878 002c 24       		.uleb128 0x24
 879 002d 00       		.byte	0
 880 002e 0B       		.uleb128 0xb
 881 002f 0B       		.uleb128 0xb
 882 0030 3E       		.uleb128 0x3e
 883 0031 0B       		.uleb128 0xb
 884 0032 03       		.uleb128 0x3
 885 0033 08       		.uleb128 0x8
 886 0034 00       		.byte	0
 887 0035 00       		.byte	0
 888 0036 05       		.uleb128 0x5
 889 0037 16       		.uleb128 0x16
 890 0038 00       		.byte	0
 891 0039 03       		.uleb128 0x3
 892 003a 0E       		.uleb128 0xe
 893 003b 3A       		.uleb128 0x3a
 894 003c 0B       		.uleb128 0xb
 895 003d 3B       		.uleb128 0x3b
 896 003e 05       		.uleb128 0x5
 897 003f 49       		.uleb128 0x49
 898 0040 13       		.uleb128 0x13
 899 0041 00       		.byte	0
 900 0042 00       		.byte	0
 901 0043 06       		.uleb128 0x6
 902 0044 04       		.uleb128 0x4
 903 0045 01       		.byte	0x1
ARM GAS  C:\Users\Petro\AppData\Local\Temp\cc5qtVMS.s 			page 20


 904 0046 0B       		.uleb128 0xb
 905 0047 0B       		.uleb128 0xb
 906 0048 3A       		.uleb128 0x3a
 907 0049 0B       		.uleb128 0xb
 908 004a 3B       		.uleb128 0x3b
 909 004b 0B       		.uleb128 0xb
 910 004c 01       		.uleb128 0x1
 911 004d 13       		.uleb128 0x13
 912 004e 00       		.byte	0
 913 004f 00       		.byte	0
 914 0050 07       		.uleb128 0x7
 915 0051 28       		.uleb128 0x28
 916 0052 00       		.byte	0
 917 0053 03       		.uleb128 0x3
 918 0054 0E       		.uleb128 0xe
 919 0055 1C       		.uleb128 0x1c
 920 0056 0D       		.uleb128 0xd
 921 0057 00       		.byte	0
 922 0058 00       		.byte	0
 923 0059 08       		.uleb128 0x8
 924 005a 04       		.uleb128 0x4
 925 005b 01       		.byte	0x1
 926 005c 03       		.uleb128 0x3
 927 005d 0E       		.uleb128 0xe
 928 005e 0B       		.uleb128 0xb
 929 005f 0B       		.uleb128 0xb
 930 0060 3A       		.uleb128 0x3a
 931 0061 0B       		.uleb128 0xb
 932 0062 3B       		.uleb128 0x3b
 933 0063 0B       		.uleb128 0xb
 934 0064 01       		.uleb128 0x1
 935 0065 13       		.uleb128 0x13
 936 0066 00       		.byte	0
 937 0067 00       		.byte	0
 938 0068 09       		.uleb128 0x9
 939 0069 28       		.uleb128 0x28
 940 006a 00       		.byte	0
 941 006b 03       		.uleb128 0x3
 942 006c 08       		.uleb128 0x8
 943 006d 1C       		.uleb128 0x1c
 944 006e 0D       		.uleb128 0xd
 945 006f 00       		.byte	0
 946 0070 00       		.byte	0
 947 0071 0A       		.uleb128 0xa
 948 0072 2E       		.uleb128 0x2e
 949 0073 00       		.byte	0
 950 0074 3F       		.uleb128 0x3f
 951 0075 19       		.uleb128 0x19
 952 0076 03       		.uleb128 0x3
 953 0077 0E       		.uleb128 0xe
 954 0078 3A       		.uleb128 0x3a
 955 0079 0B       		.uleb128 0xb
 956 007a 3B       		.uleb128 0x3b
 957 007b 0B       		.uleb128 0xb
 958 007c 27       		.uleb128 0x27
 959 007d 19       		.uleb128 0x19
 960 007e 11       		.uleb128 0x11
ARM GAS  C:\Users\Petro\AppData\Local\Temp\cc5qtVMS.s 			page 21


 961 007f 01       		.uleb128 0x1
 962 0080 12       		.uleb128 0x12
 963 0081 06       		.uleb128 0x6
 964 0082 40       		.uleb128 0x40
 965 0083 18       		.uleb128 0x18
 966 0084 9642     		.uleb128 0x2116
 967 0086 19       		.uleb128 0x19
 968 0087 00       		.byte	0
 969 0088 00       		.byte	0
 970 0089 0B       		.uleb128 0xb
 971 008a 2E       		.uleb128 0x2e
 972 008b 00       		.byte	0
 973 008c 3F       		.uleb128 0x3f
 974 008d 19       		.uleb128 0x19
 975 008e 03       		.uleb128 0x3
 976 008f 0E       		.uleb128 0xe
 977 0090 3A       		.uleb128 0x3a
 978 0091 0B       		.uleb128 0xb
 979 0092 3B       		.uleb128 0x3b
 980 0093 0B       		.uleb128 0xb
 981 0094 11       		.uleb128 0x11
 982 0095 01       		.uleb128 0x1
 983 0096 12       		.uleb128 0x12
 984 0097 06       		.uleb128 0x6
 985 0098 40       		.uleb128 0x40
 986 0099 18       		.uleb128 0x18
 987 009a 9642     		.uleb128 0x2116
 988 009c 19       		.uleb128 0x19
 989 009d 00       		.byte	0
 990 009e 00       		.byte	0
 991 009f 0C       		.uleb128 0xc
 992 00a0 2E       		.uleb128 0x2e
 993 00a1 01       		.byte	0x1
 994 00a2 3F       		.uleb128 0x3f
 995 00a3 19       		.uleb128 0x19
 996 00a4 03       		.uleb128 0x3
 997 00a5 0E       		.uleb128 0xe
 998 00a6 3A       		.uleb128 0x3a
 999 00a7 0B       		.uleb128 0xb
 1000 00a8 3B       		.uleb128 0x3b
 1001 00a9 0B       		.uleb128 0xb
 1002 00aa 11       		.uleb128 0x11
 1003 00ab 01       		.uleb128 0x1
 1004 00ac 12       		.uleb128 0x12
 1005 00ad 06       		.uleb128 0x6
 1006 00ae 40       		.uleb128 0x40
 1007 00af 18       		.uleb128 0x18
 1008 00b0 9642     		.uleb128 0x2116
 1009 00b2 19       		.uleb128 0x19
 1010 00b3 01       		.uleb128 0x1
 1011 00b4 13       		.uleb128 0x13
 1012 00b5 00       		.byte	0
 1013 00b6 00       		.byte	0
 1014 00b7 0D       		.uleb128 0xd
 1015 00b8 34       		.uleb128 0x34
 1016 00b9 00       		.byte	0
 1017 00ba 03       		.uleb128 0x3
ARM GAS  C:\Users\Petro\AppData\Local\Temp\cc5qtVMS.s 			page 22


 1018 00bb 08       		.uleb128 0x8
 1019 00bc 3A       		.uleb128 0x3a
 1020 00bd 0B       		.uleb128 0xb
 1021 00be 3B       		.uleb128 0x3b
 1022 00bf 0B       		.uleb128 0xb
 1023 00c0 49       		.uleb128 0x49
 1024 00c1 13       		.uleb128 0x13
 1025 00c2 02       		.uleb128 0x2
 1026 00c3 18       		.uleb128 0x18
 1027 00c4 00       		.byte	0
 1028 00c5 00       		.byte	0
 1029 00c6 0E       		.uleb128 0xe
 1030 00c7 2E       		.uleb128 0x2e
 1031 00c8 01       		.byte	0x1
 1032 00c9 3F       		.uleb128 0x3f
 1033 00ca 19       		.uleb128 0x19
 1034 00cb 03       		.uleb128 0x3
 1035 00cc 0E       		.uleb128 0xe
 1036 00cd 3A       		.uleb128 0x3a
 1037 00ce 0B       		.uleb128 0xb
 1038 00cf 3B       		.uleb128 0x3b
 1039 00d0 0B       		.uleb128 0xb
 1040 00d1 49       		.uleb128 0x49
 1041 00d2 13       		.uleb128 0x13
 1042 00d3 11       		.uleb128 0x11
 1043 00d4 01       		.uleb128 0x1
 1044 00d5 12       		.uleb128 0x12
 1045 00d6 06       		.uleb128 0x6
 1046 00d7 40       		.uleb128 0x40
 1047 00d8 18       		.uleb128 0x18
 1048 00d9 9642     		.uleb128 0x2116
 1049 00db 19       		.uleb128 0x19
 1050 00dc 01       		.uleb128 0x1
 1051 00dd 13       		.uleb128 0x13
 1052 00de 00       		.byte	0
 1053 00df 00       		.byte	0
 1054 00e0 0F       		.uleb128 0xf
 1055 00e1 34       		.uleb128 0x34
 1056 00e2 00       		.byte	0
 1057 00e3 03       		.uleb128 0x3
 1058 00e4 0E       		.uleb128 0xe
 1059 00e5 3A       		.uleb128 0x3a
 1060 00e6 0B       		.uleb128 0xb
 1061 00e7 3B       		.uleb128 0x3b
 1062 00e8 0B       		.uleb128 0xb
 1063 00e9 49       		.uleb128 0x49
 1064 00ea 13       		.uleb128 0x13
 1065 00eb 02       		.uleb128 0x2
 1066 00ec 18       		.uleb128 0x18
 1067 00ed 00       		.byte	0
 1068 00ee 00       		.byte	0
 1069 00ef 10       		.uleb128 0x10
 1070 00f0 2E       		.uleb128 0x2e
 1071 00f1 00       		.byte	0
 1072 00f2 3F       		.uleb128 0x3f
 1073 00f3 19       		.uleb128 0x19
 1074 00f4 03       		.uleb128 0x3
ARM GAS  C:\Users\Petro\AppData\Local\Temp\cc5qtVMS.s 			page 23


 1075 00f5 0E       		.uleb128 0xe
 1076 00f6 3A       		.uleb128 0x3a
 1077 00f7 0B       		.uleb128 0xb
 1078 00f8 3B       		.uleb128 0x3b
 1079 00f9 0B       		.uleb128 0xb
 1080 00fa 49       		.uleb128 0x49
 1081 00fb 13       		.uleb128 0x13
 1082 00fc 11       		.uleb128 0x11
 1083 00fd 01       		.uleb128 0x1
 1084 00fe 12       		.uleb128 0x12
 1085 00ff 06       		.uleb128 0x6
 1086 0100 40       		.uleb128 0x40
 1087 0101 18       		.uleb128 0x18
 1088 0102 9642     		.uleb128 0x2116
 1089 0104 19       		.uleb128 0x19
 1090 0105 00       		.byte	0
 1091 0106 00       		.byte	0
 1092 0107 11       		.uleb128 0x11
 1093 0108 2E       		.uleb128 0x2e
 1094 0109 00       		.byte	0
 1095 010a 3F       		.uleb128 0x3f
 1096 010b 19       		.uleb128 0x19
 1097 010c 03       		.uleb128 0x3
 1098 010d 0E       		.uleb128 0xe
 1099 010e 3A       		.uleb128 0x3a
 1100 010f 0B       		.uleb128 0xb
 1101 0110 3B       		.uleb128 0x3b
 1102 0111 0B       		.uleb128 0xb
 1103 0112 11       		.uleb128 0x11
 1104 0113 01       		.uleb128 0x1
 1105 0114 12       		.uleb128 0x12
 1106 0115 06       		.uleb128 0x6
 1107 0116 40       		.uleb128 0x40
 1108 0117 18       		.uleb128 0x18
 1109 0118 9742     		.uleb128 0x2117
 1110 011a 19       		.uleb128 0x19
 1111 011b 00       		.byte	0
 1112 011c 00       		.byte	0
 1113 011d 12       		.uleb128 0x12
 1114 011e 34       		.uleb128 0x34
 1115 011f 00       		.byte	0
 1116 0120 03       		.uleb128 0x3
 1117 0121 0E       		.uleb128 0xe
 1118 0122 3A       		.uleb128 0x3a
 1119 0123 0B       		.uleb128 0xb
 1120 0124 3B       		.uleb128 0x3b
 1121 0125 0B       		.uleb128 0xb
 1122 0126 49       		.uleb128 0x49
 1123 0127 13       		.uleb128 0x13
 1124 0128 3F       		.uleb128 0x3f
 1125 0129 19       		.uleb128 0x19
 1126 012a 02       		.uleb128 0x2
 1127 012b 18       		.uleb128 0x18
 1128 012c 00       		.byte	0
 1129 012d 00       		.byte	0
 1130 012e 00       		.byte	0
 1131              		.section	.debug_aranges,"",%progbits
ARM GAS  C:\Users\Petro\AppData\Local\Temp\cc5qtVMS.s 			page 24


 1132 0000 44000000 		.4byte	0x44
 1133 0004 0200     		.2byte	0x2
 1134 0006 00000000 		.4byte	.Ldebug_info0
 1135 000a 04       		.byte	0x4
 1136 000b 00       		.byte	0
 1137 000c 0000     		.2byte	0
 1138 000e 0000     		.2byte	0
 1139 0010 00000000 		.4byte	.LFB63
 1140 0014 30000000 		.4byte	.LFE63-.LFB63
 1141 0018 00000000 		.4byte	.LFB64
 1142 001c 0C010000 		.4byte	.LFE64-.LFB64
 1143 0020 00000000 		.4byte	.LFB65
 1144 0024 3C000000 		.4byte	.LFE65-.LFB65
 1145 0028 00000000 		.4byte	.LFB66
 1146 002c 80000000 		.4byte	.LFE66-.LFB66
 1147 0030 00000000 		.4byte	.LFB67
 1148 0034 74000000 		.4byte	.LFE67-.LFB67
 1149 0038 00000000 		.4byte	.LFB68
 1150 003c 14000000 		.4byte	.LFE68-.LFB68
 1151 0040 00000000 		.4byte	0
 1152 0044 00000000 		.4byte	0
 1153              		.section	.debug_ranges,"",%progbits
 1154              	.Ldebug_ranges0:
 1155 0000 00000000 		.4byte	.LFB63
 1156 0004 30000000 		.4byte	.LFE63
 1157 0008 00000000 		.4byte	.LFB64
 1158 000c 0C010000 		.4byte	.LFE64
 1159 0010 00000000 		.4byte	.LFB65
 1160 0014 3C000000 		.4byte	.LFE65
 1161 0018 00000000 		.4byte	.LFB66
 1162 001c 80000000 		.4byte	.LFE66
 1163 0020 00000000 		.4byte	.LFB67
 1164 0024 74000000 		.4byte	.LFE67
 1165 0028 00000000 		.4byte	.LFB68
 1166 002c 14000000 		.4byte	.LFE68
 1167 0030 00000000 		.4byte	0
 1168 0034 00000000 		.4byte	0
 1169              		.section	.debug_line,"",%progbits
 1170              	.Ldebug_line0:
 1171 0000 8E020000 		.section	.debug_str,"MS",%progbits,1
 1171      02006C01 
 1171      00000201 
 1171      FB0E0D00 
 1171      01010101 
 1172              	.LASF25:
 1173 0000 52495349 		.ascii	"RISING_EDGE\000"
 1173      4E475F45 
 1173      44474500 
 1174              	.LASF5:
 1175 000c 5F5F7569 		.ascii	"__uint8_t\000"
 1175      6E74385F 
 1175      7400
 1176              	.LASF27:
 1177 0016 4C4F575F 		.ascii	"LOW_LEVEL\000"
 1177      4C455645 
 1177      4C00
 1178              	.LASF37:
ARM GAS  C:\Users\Petro\AppData\Local\Temp\cc5qtVMS.s 			page 25


 1179 0020 63757272 		.ascii	"currentState\000"
 1179      656E7453 
 1179      74617465 
 1179      00
 1180              	.LASF23:
 1181 002d 53544F50 		.ascii	"STOPPED\000"
 1181      50454400 
 1182              	.LASF42:
 1183 0035 2E2E5C2E 		.ascii	"..\\..\\common\\lib\\lib_testMode\\testMode.c\000"
 1183      2E5C636F 
 1183      6D6D6F6E 
 1183      5C6C6962 
 1183      5C6C6962 
 1184              	.LASF40:
 1185 005e 6E657477 		.ascii	"networkState\000"
 1185      6F726B53 
 1185      74617465 
 1185      00
 1186              	.LASF44:
 1187 006b 73746174 		.ascii	"status\000"
 1187      757300
 1188              	.LASF39:
 1189 0072 73776974 		.ascii	"switchState\000"
 1189      63685374 
 1189      61746500 
 1190              	.LASF26:
 1191 007e 46414C4C 		.ascii	"FALLING_EDGE\000"
 1191      494E475F 
 1191      45444745 
 1191      00
 1192              	.LASF14:
 1193 008b 666C6F61 		.ascii	"float\000"
 1193      7400
 1194              	.LASF0:
 1195 0091 7369676E 		.ascii	"signed char\000"
 1195      65642063 
 1195      68617200 
 1196              	.LASF1:
 1197 009d 756E7369 		.ascii	"unsigned char\000"
 1197      676E6564 
 1197      20636861 
 1197      7200
 1198              	.LASF33:
 1199 00ab 416C6C6F 		.ascii	"AllowNextTestSkier\000"
 1199      774E6578 
 1199      74546573 
 1199      74536B69 
 1199      657200
 1200              	.LASF7:
 1201 00be 6C6F6E67 		.ascii	"long unsigned int\000"
 1201      20756E73 
 1201      69676E65 
 1201      6420696E 
 1201      7400
 1202              	.LASF3:
 1203 00d0 73686F72 		.ascii	"short unsigned int\000"
 1203      7420756E 
ARM GAS  C:\Users\Petro\AppData\Local\Temp\cc5qtVMS.s 			page 26


 1203      7369676E 
 1203      65642069 
 1203      6E7400
 1204              	.LASF43:
 1205 00e3 443A5C43 		.ascii	"D:\\Cypress\\system-start-finish\\dev\\FW\\start\\s"
 1205      79707265 
 1205      73735C73 
 1205      79737465 
 1205      6D2D7374 
 1206 0110 74617274 		.ascii	"tart_v11.cydsn\000"
 1206      5F763131 
 1206      2E637964 
 1206      736E00
 1207              	.LASF24:
 1208 011f 48494748 		.ascii	"HIGH_LEVEL\000"
 1208      5F4C4556 
 1208      454C00
 1209              	.LASF20:
 1210 012a 43484543 		.ascii	"CHECK_GATE\000"
 1210      4B5F4741 
 1210      544500
 1211              	.LASF19:
 1212 0135 4745545F 		.ascii	"GET_FIN_STATUS\000"
 1212      46494E5F 
 1212      53544154 
 1212      555300
 1213              	.LASF15:
 1214 0144 646F7562 		.ascii	"double\000"
 1214      6C6500
 1215              	.LASF45:
 1216 014b 54657374 		.ascii	"TestMode_UpdateNewRandomTime\000"
 1216      4D6F6465 
 1216      5F557064 
 1216      6174654E 
 1216      65775261 
 1217              	.LASF18:
 1218 0168 54494D45 		.ascii	"TIME_SYNC\000"
 1218      5F53594E 
 1218      4300
 1219              	.LASF6:
 1220 0172 5F5F7569 		.ascii	"__uint32_t\000"
 1220      6E743332 
 1220      5F7400
 1221              	.LASF31:
 1222 017d 52656164 		.ascii	"ReadNetworkState\000"
 1222      4E657477 
 1222      6F726B53 
 1222      74617465 
 1222      00
 1223              	.LASF41:
 1224 018e 474E5520 		.ascii	"GNU C 4.9.3 20150303 (release) [ARM/embedded-4_9-br"
 1224      4320342E 
 1224      392E3320 
 1224      32303135 
 1224      30333033 
 1225 01c1 616E6368 		.ascii	"anch revision 221220] -mcpu=cortex-m0 -mthumb -g -O"
 1225      20726576 
ARM GAS  C:\Users\Petro\AppData\Local\Temp\cc5qtVMS.s 			page 27


 1225      6973696F 
 1225      6E203232 
 1225      31323230 
 1226 01f4 30202D66 		.ascii	"0 -ffunction-sections -ffat-lto-objects\000"
 1226      66756E63 
 1226      74696F6E 
 1226      2D736563 
 1226      74696F6E 
 1227              	.LASF22:
 1228 021c 53746174 		.ascii	"StateType\000"
 1228      65547970 
 1228      6500
 1229              	.LASF13:
 1230 0226 75696E74 		.ascii	"uint32\000"
 1230      333200
 1231              	.LASF10:
 1232 022d 756E7369 		.ascii	"unsigned int\000"
 1232      676E6564 
 1232      20696E74 
 1232      00
 1233              	.LASF9:
 1234 023a 6C6F6E67 		.ascii	"long long unsigned int\000"
 1234      206C6F6E 
 1234      6720756E 
 1234      7369676E 
 1234      65642069 
 1235              	.LASF11:
 1236 0251 75696E74 		.ascii	"uint8_t\000"
 1236      385F7400 
 1237              	.LASF34:
 1238 0259 72657375 		.ascii	"result\000"
 1238      6C7400
 1239              	.LASF35:
 1240 0260 656E6162 		.ascii	"enableTestMode\000"
 1240      6C655465 
 1240      73744D6F 
 1240      646500
 1241              	.LASF29:
 1242 026f 746D7043 		.ascii	"tmpCounter\000"
 1242      6F756E74 
 1242      657200
 1243              	.LASF17:
 1244 027a 73697A65 		.ascii	"sizetype\000"
 1244      74797065 
 1244      00
 1245              	.LASF8:
 1246 0283 6C6F6E67 		.ascii	"long long int\000"
 1246      206C6F6E 
 1246      6720696E 
 1246      7400
 1247              	.LASF16:
 1248 0291 63686172 		.ascii	"char\000"
 1248      00
 1249              	.LASF32:
 1250 0296 54657374 		.ascii	"TestMode\000"
 1250      4D6F6465 
 1250      00
ARM GAS  C:\Users\Petro\AppData\Local\Temp\cc5qtVMS.s 			page 28


 1251              	.LASF30:
 1252 029f 74657374 		.ascii	"testModeHandler\000"
 1252      4D6F6465 
 1252      48616E64 
 1252      6C657200 
 1253              	.LASF2:
 1254 02af 73686F72 		.ascii	"short int\000"
 1254      7420696E 
 1254      7400
 1255              	.LASF46:
 1256 02b9 52656164 		.ascii	"ReadSwitchState\000"
 1256      53776974 
 1256      63685374 
 1256      61746500 
 1257              	.LASF12:
 1258 02c9 75696E74 		.ascii	"uint32_t\000"
 1258      33325F74 
 1258      00
 1259              	.LASF4:
 1260 02d2 6C6F6E67 		.ascii	"long int\000"
 1260      20696E74 
 1260      00
 1261              	.LASF36:
 1262 02db 616C6C6F 		.ascii	"allowNextTestSkier\000"
 1262      774E6578 
 1262      74546573 
 1262      74536B69 
 1262      657200
 1263              	.LASF38:
 1264 02ee 73746174 		.ascii	"statusTestMode\000"
 1264      75735465 
 1264      73744D6F 
 1264      646500
 1265              	.LASF21:
 1266 02fd 53415645 		.ascii	"SAVE_RESULT\000"
 1266      5F524553 
 1266      554C5400 
 1267              	.LASF28:
 1268 0309 66756E63 		.ascii	"funcReturnValue\000"
 1268      52657475 
 1268      726E5661 
 1268      6C756500 
 1269              		.ident	"GCC: (GNU Tools for ARM Embedded Processors) 4.9.3 20150303 (release) [ARM/embedded-4_9-br
