ARM GAS  C:\Users\Petro\AppData\Local\Temp\cc6ZLuiO.s 			page 1


   1              		.cpu cortex-m0
   2              		.fpu softvfp
   3              		.eabi_attribute 20, 1
   4              		.eabi_attribute 21, 1
   5              		.eabi_attribute 23, 3
   6              		.eabi_attribute 24, 1
   7              		.eabi_attribute 25, 1
   8              		.eabi_attribute 26, 1
   9              		.eabi_attribute 30, 6
  10              		.eabi_attribute 34, 0
  11              		.eabi_attribute 18, 4
  12              		.code	16
  13              		.file	"display.c"
  14              		.text
  15              	.Ltext0:
  16              		.cfi_sections	.debug_frame
  17              		.section	.text.RTC_IsBitSet,"ax",%progbits
  18              		.align	2
  19              		.code	16
  20              		.thumb_func
  21              		.type	RTC_IsBitSet, %function
  22              	RTC_IsBitSet:
  23              	.LFB2:
  24              		.file 1 "Generated_Source\\PSoC4/rtc.H"
   1:Generated_Source\PSoC4/rtc.H **** /***************************************************************************//**
   2:Generated_Source\PSoC4/rtc.H **** * \file Name: RTC.h
   3:Generated_Source\PSoC4/rtc.H **** * \version 1.10
   4:Generated_Source\PSoC4/rtc.H **** *
   5:Generated_Source\PSoC4/rtc.H **** * \brief
   6:Generated_Source\PSoC4/rtc.H **** *  This file provides constants and parameter values for the RTC_P4 Component.
   7:Generated_Source\PSoC4/rtc.H **** *
   8:Generated_Source\PSoC4/rtc.H **** ********************************************************************************
   9:Generated_Source\PSoC4/rtc.H **** * Copyright 2015-2016, Cypress Semiconductor Corporation.  All rights reserved.
  10:Generated_Source\PSoC4/rtc.H **** * You may use this file only in accordance with the license, terms, conditions,
  11:Generated_Source\PSoC4/rtc.H **** * disclaimers, and limitations in the end user license agreement accompanying
  12:Generated_Source\PSoC4/rtc.H **** * the software package with which this file was provided.
  13:Generated_Source\PSoC4/rtc.H **** *******************************************************************************/
  14:Generated_Source\PSoC4/rtc.H **** 
  15:Generated_Source\PSoC4/rtc.H **** #if !defined(CY_RTC_P4_RTC_H)
  16:Generated_Source\PSoC4/rtc.H **** #define CY_RTC_P4_RTC_H
  17:Generated_Source\PSoC4/rtc.H **** 
  18:Generated_Source\PSoC4/rtc.H **** #include <cytypes.h>
  19:Generated_Source\PSoC4/rtc.H **** #include <CyLib.h>
  20:Generated_Source\PSoC4/rtc.H **** 
  21:Generated_Source\PSoC4/rtc.H **** 
  22:Generated_Source\PSoC4/rtc.H **** /*******************************************************************************
  23:Generated_Source\PSoC4/rtc.H **** *    Data types definition
  24:Generated_Source\PSoC4/rtc.H **** *******************************************************************************/
  25:Generated_Source\PSoC4/rtc.H **** 
  26:Generated_Source\PSoC4/rtc.H **** typedef enum
  27:Generated_Source\PSoC4/rtc.H **** {
  28:Generated_Source\PSoC4/rtc.H ****     RTC_DST_DATE_RELATIVE = 0u,
  29:Generated_Source\PSoC4/rtc.H ****     RTC_DST_DATE_FIXED = 1u
  30:Generated_Source\PSoC4/rtc.H **** }RTC_DST_DATETYPE_ENUM;
  31:Generated_Source\PSoC4/rtc.H **** 
  32:Generated_Source\PSoC4/rtc.H **** /**
  33:Generated_Source\PSoC4/rtc.H **** * \addtogroup group_structures
ARM GAS  C:\Users\Petro\AppData\Local\Temp\cc6ZLuiO.s 			page 2


  34:Generated_Source\PSoC4/rtc.H **** * @{
  35:Generated_Source\PSoC4/rtc.H **** */
  36:Generated_Source\PSoC4/rtc.H **** 
  37:Generated_Source\PSoC4/rtc.H **** /**
  38:Generated_Source\PSoC4/rtc.H **** * This is the data structure that is used to save the current time and date 
  39:Generated_Source\PSoC4/rtc.H **** * (RTC_currentTimeDate), and Alarm time and date (RTC_alarmCfgTimeDate).
  40:Generated_Source\PSoC4/rtc.H **** */
  41:Generated_Source\PSoC4/rtc.H **** typedef struct
  42:Generated_Source\PSoC4/rtc.H **** {
  43:Generated_Source\PSoC4/rtc.H ****     uint32 time;
  44:Generated_Source\PSoC4/rtc.H ****     uint32 date;
  45:Generated_Source\PSoC4/rtc.H ****     uint32 dayOfWeek;
  46:Generated_Source\PSoC4/rtc.H ****     uint32 status;
  47:Generated_Source\PSoC4/rtc.H **** }RTC_DATE_TIME;
  48:Generated_Source\PSoC4/rtc.H **** 
  49:Generated_Source\PSoC4/rtc.H **** /**
  50:Generated_Source\PSoC4/rtc.H **** * This is the data structure that is used to save time and date values for 
  51:Generated_Source\PSoC4/rtc.H **** * Daylight Savings Time Start and Stop (RTC_dstTimeDateStart and 
  52:Generated_Source\PSoC4/rtc.H **** * RTC_dstTimeDateStop).
  53:Generated_Source\PSoC4/rtc.H **** */
  54:Generated_Source\PSoC4/rtc.H **** typedef struct
  55:Generated_Source\PSoC4/rtc.H **** {
  56:Generated_Source\PSoC4/rtc.H ****     uint32 hour;
  57:Generated_Source\PSoC4/rtc.H ****     uint32 dayOfWeek;
  58:Generated_Source\PSoC4/rtc.H ****     uint32 dayOfMonth;
  59:Generated_Source\PSoC4/rtc.H ****     uint32 weekOfMonth;
  60:Generated_Source\PSoC4/rtc.H ****     uint32 month;
  61:Generated_Source\PSoC4/rtc.H ****     uint8  timeFormat;
  62:Generated_Source\PSoC4/rtc.H **** }RTC_DST_TIME;
  63:Generated_Source\PSoC4/rtc.H **** 
  64:Generated_Source\PSoC4/rtc.H **** /** @} structures */
  65:Generated_Source\PSoC4/rtc.H **** 
  66:Generated_Source\PSoC4/rtc.H **** /*******************************************************************************
  67:Generated_Source\PSoC4/rtc.H **** *    Enumerated Types and Parameters
  68:Generated_Source\PSoC4/rtc.H **** *******************************************************************************/
  69:Generated_Source\PSoC4/rtc.H **** /* Time Format setting constants */
  70:Generated_Source\PSoC4/rtc.H **** #define RTC__HOUR_12 1
  71:Generated_Source\PSoC4/rtc.H **** #define RTC__HOUR_24 0
  72:Generated_Source\PSoC4/rtc.H **** 
  73:Generated_Source\PSoC4/rtc.H **** /*  Date Format setting constants */
  74:Generated_Source\PSoC4/rtc.H **** #define RTC__MM_DD_YYYY 0
  75:Generated_Source\PSoC4/rtc.H **** #define RTC__DD_MM_YYYY 1
  76:Generated_Source\PSoC4/rtc.H **** #define RTC__YYYY_MM_DD 2
  77:Generated_Source\PSoC4/rtc.H **** 
  78:Generated_Source\PSoC4/rtc.H **** /* Date Type setting constants */
  79:Generated_Source\PSoC4/rtc.H **** #define RTC__RELATIVE 0
  80:Generated_Source\PSoC4/rtc.H **** #define RTC__FIXED 1
  81:Generated_Source\PSoC4/rtc.H **** 
  82:Generated_Source\PSoC4/rtc.H **** /* DST Hour setting constants */
  83:Generated_Source\PSoC4/rtc.H **** #define RTC__H0000 0
  84:Generated_Source\PSoC4/rtc.H **** #define RTC__H0100 1
  85:Generated_Source\PSoC4/rtc.H **** #define RTC__H0200 2
  86:Generated_Source\PSoC4/rtc.H **** #define RTC__H0300 3
  87:Generated_Source\PSoC4/rtc.H **** #define RTC__H0400 4
  88:Generated_Source\PSoC4/rtc.H **** #define RTC__H0500 5
  89:Generated_Source\PSoC4/rtc.H **** #define RTC__H0600 6
  90:Generated_Source\PSoC4/rtc.H **** #define RTC__H0700 7
ARM GAS  C:\Users\Petro\AppData\Local\Temp\cc6ZLuiO.s 			page 3


  91:Generated_Source\PSoC4/rtc.H **** #define RTC__H0800 8
  92:Generated_Source\PSoC4/rtc.H **** #define RTC__H0900 9
  93:Generated_Source\PSoC4/rtc.H **** #define RTC__H1000 10
  94:Generated_Source\PSoC4/rtc.H **** #define RTC__H1100 11
  95:Generated_Source\PSoC4/rtc.H **** #define RTC__H1200 12
  96:Generated_Source\PSoC4/rtc.H **** #define RTC__H1300 13
  97:Generated_Source\PSoC4/rtc.H **** #define RTC__H1400 14
  98:Generated_Source\PSoC4/rtc.H **** #define RTC__H1500 15
  99:Generated_Source\PSoC4/rtc.H **** #define RTC__H1600 16
 100:Generated_Source\PSoC4/rtc.H **** #define RTC__H1700 17
 101:Generated_Source\PSoC4/rtc.H **** #define RTC__H1800 18
 102:Generated_Source\PSoC4/rtc.H **** #define RTC__H1900 19
 103:Generated_Source\PSoC4/rtc.H **** #define RTC__H2000 20
 104:Generated_Source\PSoC4/rtc.H **** #define RTC__H2100 21
 105:Generated_Source\PSoC4/rtc.H **** #define RTC__H2200 22
 106:Generated_Source\PSoC4/rtc.H **** #define RTC__H2300 23
 107:Generated_Source\PSoC4/rtc.H **** 
 108:Generated_Source\PSoC4/rtc.H **** /* DST DayOfWeek setting constants */
 109:Generated_Source\PSoC4/rtc.H **** #define RTC__SUNDAY 1
 110:Generated_Source\PSoC4/rtc.H **** #define RTC__MONDAY 2
 111:Generated_Source\PSoC4/rtc.H **** #define RTC__TUESDAY 3
 112:Generated_Source\PSoC4/rtc.H **** #define RTC__WEDNESDAY 4
 113:Generated_Source\PSoC4/rtc.H **** #define RTC__THURSDAY 5
 114:Generated_Source\PSoC4/rtc.H **** #define RTC__FRIDAY 6
 115:Generated_Source\PSoC4/rtc.H **** #define RTC__SATURDAY 7
 116:Generated_Source\PSoC4/rtc.H **** 
 117:Generated_Source\PSoC4/rtc.H **** /* DST Month setting constants */
 118:Generated_Source\PSoC4/rtc.H **** #define RTC__JAN 1
 119:Generated_Source\PSoC4/rtc.H **** #define RTC__FEB 2
 120:Generated_Source\PSoC4/rtc.H **** #define RTC__MAR 3
 121:Generated_Source\PSoC4/rtc.H **** #define RTC__APR 4
 122:Generated_Source\PSoC4/rtc.H **** #define RTC__MAY 5
 123:Generated_Source\PSoC4/rtc.H **** #define RTC__JUN 6
 124:Generated_Source\PSoC4/rtc.H **** #define RTC__JUL 7
 125:Generated_Source\PSoC4/rtc.H **** #define RTC__AUG 8
 126:Generated_Source\PSoC4/rtc.H **** #define RTC__SEP 9
 127:Generated_Source\PSoC4/rtc.H **** #define RTC__OCT 10
 128:Generated_Source\PSoC4/rtc.H **** #define RTC__NOV 11
 129:Generated_Source\PSoC4/rtc.H **** #define RTC__DEC 12
 130:Generated_Source\PSoC4/rtc.H **** 
 131:Generated_Source\PSoC4/rtc.H **** /* DST WeekOfMonth setting constants */
 132:Generated_Source\PSoC4/rtc.H **** #define RTC__FIRST 1
 133:Generated_Source\PSoC4/rtc.H **** #define RTC__SECOND 2
 134:Generated_Source\PSoC4/rtc.H **** #define RTC__THIRD 3
 135:Generated_Source\PSoC4/rtc.H **** #define RTC__FOURTH 4
 136:Generated_Source\PSoC4/rtc.H **** #define RTC__FIFTH 5
 137:Generated_Source\PSoC4/rtc.H **** #define RTC__LAST 6
 138:Generated_Source\PSoC4/rtc.H **** 
 139:Generated_Source\PSoC4/rtc.H **** 
 140:Generated_Source\PSoC4/rtc.H **** #define RTC_INITIAL_DATA_FORMAT     (0u)
 141:Generated_Source\PSoC4/rtc.H **** #define RTC_INITIAL_TIME_FORMAT     (0u)
 142:Generated_Source\PSoC4/rtc.H **** #define RTC_INITIAL_UPDATE_MODE     (0u)
 143:Generated_Source\PSoC4/rtc.H **** #define RTC_INITIAL_SECOND          (0u)
 144:Generated_Source\PSoC4/rtc.H **** #define RTC_INITIAL_MINUTE          (16u)
 145:Generated_Source\PSoC4/rtc.H **** #define RTC_INITIAL_HOUR            (10u)
 146:Generated_Source\PSoC4/rtc.H **** #define RTC_INITIAL_DAY             (9u)
 147:Generated_Source\PSoC4/rtc.H **** #define RTC_INITIAL_MONTH           (8u)
ARM GAS  C:\Users\Petro\AppData\Local\Temp\cc6ZLuiO.s 			page 4


 148:Generated_Source\PSoC4/rtc.H **** #define RTC_INITIAL_YEAR            (2016u)
 149:Generated_Source\PSoC4/rtc.H **** 
 150:Generated_Source\PSoC4/rtc.H **** #define RTC_INITIAL_ALARM_STATUS    (0u)
 151:Generated_Source\PSoC4/rtc.H **** 
 152:Generated_Source\PSoC4/rtc.H **** #define RTC_INITIAL_DST_STATUS      (0u)
 153:Generated_Source\PSoC4/rtc.H **** #define RTC_INITIAL_DST_DATE_TYPE   (0u)
 154:Generated_Source\PSoC4/rtc.H **** #define RTC_INITIAL_DST_START_MONTH (3uL)
 155:Generated_Source\PSoC4/rtc.H **** #define RTC_INITIAL_DST_START_WOM   (6uL)
 156:Generated_Source\PSoC4/rtc.H **** #define RTC_INITIAL_DST_START_DOM   (22uL)
 157:Generated_Source\PSoC4/rtc.H **** #define RTC_INITIAL_DST_START_DOW   (1uL)
 158:Generated_Source\PSoC4/rtc.H **** #define RTC_INITIAL_DST_START_HRS   (0uL)
 159:Generated_Source\PSoC4/rtc.H **** #define RTC_INITIAL_DST_STOP_MONTH  (10uL)
 160:Generated_Source\PSoC4/rtc.H **** #define RTC_INITIAL_DST_STOP_DOM    (22uL)
 161:Generated_Source\PSoC4/rtc.H **** #define RTC_INITIAL_DST_STOP_DOW    (1uL)
 162:Generated_Source\PSoC4/rtc.H **** #define RTC_INITIAL_DST_STOP_WOM    (6uL)
 163:Generated_Source\PSoC4/rtc.H **** #define RTC_INITIAL_DST_STOP_HRS    (0uL)
 164:Generated_Source\PSoC4/rtc.H **** 
 165:Generated_Source\PSoC4/rtc.H **** /* Day of week definitions */
 166:Generated_Source\PSoC4/rtc.H **** #define RTC_SUNDAY     (RTC__SUNDAY)
 167:Generated_Source\PSoC4/rtc.H **** #define RTC_MONDAY     (RTC__MONDAY)
 168:Generated_Source\PSoC4/rtc.H **** #define RTC_TUESDAY    (RTC__TUESDAY)
 169:Generated_Source\PSoC4/rtc.H **** #define RTC_WEDNESDAY  (RTC__WEDNESDAY)
 170:Generated_Source\PSoC4/rtc.H **** #define RTC_THURSDAY   (RTC__THURSDAY)
 171:Generated_Source\PSoC4/rtc.H **** #define RTC_FRIDAY     (RTC__FRIDAY)
 172:Generated_Source\PSoC4/rtc.H **** #define RTC_SATURDAY   (RTC__SATURDAY)
 173:Generated_Source\PSoC4/rtc.H **** 
 174:Generated_Source\PSoC4/rtc.H **** /* DST WeekOfMonth setting constants definitions */
 175:Generated_Source\PSoC4/rtc.H **** #define RTC_FIRST      (RTC__FIRST)
 176:Generated_Source\PSoC4/rtc.H **** #define RTC_SECOND     (RTC__SECOND)
 177:Generated_Source\PSoC4/rtc.H **** #define RTC_THIRD      (RTC__THIRD)
 178:Generated_Source\PSoC4/rtc.H **** #define RTC_FOURTH     (RTC__FOURTH)
 179:Generated_Source\PSoC4/rtc.H **** #define RTC_FIFTH      (RTC__FIFTH)
 180:Generated_Source\PSoC4/rtc.H **** #define RTC_LAST       (RTC__LAST)
 181:Generated_Source\PSoC4/rtc.H **** 
 182:Generated_Source\PSoC4/rtc.H **** /* Month definitions */
 183:Generated_Source\PSoC4/rtc.H **** #define RTC_JANUARY    (RTC__JAN)
 184:Generated_Source\PSoC4/rtc.H **** #define RTC_FEBRUARY   (RTC__FEB)
 185:Generated_Source\PSoC4/rtc.H **** #define RTC_MARCH      (RTC__MAR)
 186:Generated_Source\PSoC4/rtc.H **** #define RTC_APRIL      (RTC__APR)
 187:Generated_Source\PSoC4/rtc.H **** #define RTC_MAY        (RTC__MAY)
 188:Generated_Source\PSoC4/rtc.H **** #define RTC_JUNE       (RTC__JUN)
 189:Generated_Source\PSoC4/rtc.H **** #define RTC_JULY       (RTC__JUL)
 190:Generated_Source\PSoC4/rtc.H **** #define RTC_AUGUST     (RTC__AUG)
 191:Generated_Source\PSoC4/rtc.H **** #define RTC_SEPTEMBER  (RTC__SEP)
 192:Generated_Source\PSoC4/rtc.H **** #define RTC_OCTOBER    (RTC__OCT)
 193:Generated_Source\PSoC4/rtc.H **** #define RTC_NOVEMBER   (RTC__NOV)
 194:Generated_Source\PSoC4/rtc.H **** #define RTC_DECEMBER   (RTC__DEC)
 195:Generated_Source\PSoC4/rtc.H **** 
 196:Generated_Source\PSoC4/rtc.H **** #define RTC_DAYS_PER_WEEK       (7u)
 197:Generated_Source\PSoC4/rtc.H **** 
 198:Generated_Source\PSoC4/rtc.H **** /* Number of days in month definitions */
 199:Generated_Source\PSoC4/rtc.H **** #define RTC_DAYS_IN_JANUARY     (31u)
 200:Generated_Source\PSoC4/rtc.H **** #define RTC_DAYS_IN_FEBRUARY    (28u)
 201:Generated_Source\PSoC4/rtc.H **** #define RTC_DAYS_IN_MARCH       (31u)
 202:Generated_Source\PSoC4/rtc.H **** #define RTC_DAYS_IN_APRIL       (30u)
 203:Generated_Source\PSoC4/rtc.H **** #define RTC_DAYS_IN_MAY         (31u)
 204:Generated_Source\PSoC4/rtc.H **** #define RTC_DAYS_IN_JUNE        (30u)
ARM GAS  C:\Users\Petro\AppData\Local\Temp\cc6ZLuiO.s 			page 5


 205:Generated_Source\PSoC4/rtc.H **** #define RTC_DAYS_IN_JULY        (31u)
 206:Generated_Source\PSoC4/rtc.H **** #define RTC_DAYS_IN_AUGUST      (31u)
 207:Generated_Source\PSoC4/rtc.H **** #define RTC_DAYS_IN_SEPTEMBER   (30u)
 208:Generated_Source\PSoC4/rtc.H **** #define RTC_DAYS_IN_OCTOBER     (31u)
 209:Generated_Source\PSoC4/rtc.H **** #define RTC_DAYS_IN_NOVEMBER    (30u)
 210:Generated_Source\PSoC4/rtc.H **** #define RTC_DAYS_IN_DECEMBER    (31u)
 211:Generated_Source\PSoC4/rtc.H **** 
 212:Generated_Source\PSoC4/rtc.H **** #define RTC_MONTHS_PER_YEAR     (12uL)
 213:Generated_Source\PSoC4/rtc.H **** 
 214:Generated_Source\PSoC4/rtc.H **** #define RTC_HOURS_PER_DAY       (24uL)
 215:Generated_Source\PSoC4/rtc.H **** #define RTC_HOURS_PER_HALF_DAY  (12uL)
 216:Generated_Source\PSoC4/rtc.H **** 
 217:Generated_Source\PSoC4/rtc.H **** #define RTC_SECONDS_PER_MINUTE  (60uL)
 218:Generated_Source\PSoC4/rtc.H **** #define RTC_SECONDS_PER_HOUR    (3600uL)
 219:Generated_Source\PSoC4/rtc.H **** #define RTC_SECONDS_PER_DAY     (24uL * 3600uL)
 220:Generated_Source\PSoC4/rtc.H **** 
 221:Generated_Source\PSoC4/rtc.H **** #define RTC_SECONDS_PER_LEAP_YEAR    (366uL * 24uL * 3600uL)
 222:Generated_Source\PSoC4/rtc.H **** #define RTC_SECONDS_PER_NONLEAP_YEAR (365uL * 24uL * 3600uL)
 223:Generated_Source\PSoC4/rtc.H **** 
 224:Generated_Source\PSoC4/rtc.H **** #define RTC_UNIX_TIME_PM   ((12uL * 3600uL) + 1uL)
 225:Generated_Source\PSoC4/rtc.H **** 
 226:Generated_Source\PSoC4/rtc.H **** /* AM/PM status definitions */
 227:Generated_Source\PSoC4/rtc.H **** #define RTC_AM                 (0u)
 228:Generated_Source\PSoC4/rtc.H **** #define RTC_PM                 (1u)
 229:Generated_Source\PSoC4/rtc.H **** 
 230:Generated_Source\PSoC4/rtc.H **** /* Time format definitions */
 231:Generated_Source\PSoC4/rtc.H **** #define RTC_12_HOURS_FORMAT    (RTC__HOUR_12)
 232:Generated_Source\PSoC4/rtc.H **** #define RTC_24_HOURS_FORMAT    (RTC__HOUR_24)
 233:Generated_Source\PSoC4/rtc.H **** 
 234:Generated_Source\PSoC4/rtc.H **** /* UNIX time begins in 1970 year.  */
 235:Generated_Source\PSoC4/rtc.H **** #define RTC_YEAR_0             (1970u)
 236:Generated_Source\PSoC4/rtc.H **** 
 237:Generated_Source\PSoC4/rtc.H **** /* Definition of date register fields */
 238:Generated_Source\PSoC4/rtc.H **** #if(RTC_INITIAL_DATA_FORMAT == RTC__MM_DD_YYYY)
 239:Generated_Source\PSoC4/rtc.H ****     #define RTC_10_MONTH_OFFSET   (28u)
 240:Generated_Source\PSoC4/rtc.H ****     #define RTC_MONTH_OFFSET      (24u)
 241:Generated_Source\PSoC4/rtc.H ****     #define RTC_10_DAY_OFFSET     (20u)
 242:Generated_Source\PSoC4/rtc.H ****     #define RTC_DAY_OFFSET        (16u)
 243:Generated_Source\PSoC4/rtc.H ****     #define RTC_1000_YEAR_OFFSET  (12u)
 244:Generated_Source\PSoC4/rtc.H ****     #define RTC_100_YEAR_OFFSET   (8u)
 245:Generated_Source\PSoC4/rtc.H ****     #define RTC_10_YEAR_OFFSET    (4u)
 246:Generated_Source\PSoC4/rtc.H ****     #define RTC_YEAR_OFFSET       (0u)
 247:Generated_Source\PSoC4/rtc.H **** #elif(RTC_INITIAL_DATA_FORMAT == RTC__DD_MM_YYYY)
 248:Generated_Source\PSoC4/rtc.H ****     #define RTC_10_MONTH_OFFSET   (20u)
 249:Generated_Source\PSoC4/rtc.H ****     #define RTC_MONTH_OFFSET      (16u)
 250:Generated_Source\PSoC4/rtc.H ****     #define RTC_10_DAY_OFFSET     (28u)
 251:Generated_Source\PSoC4/rtc.H ****     #define RTC_DAY_OFFSET        (24u)
 252:Generated_Source\PSoC4/rtc.H ****     #define RTC_1000_YEAR_OFFSET  (12u)
 253:Generated_Source\PSoC4/rtc.H ****     #define RTC_100_YEAR_OFFSET   (8u)
 254:Generated_Source\PSoC4/rtc.H ****     #define RTC_10_YEAR_OFFSET    (4u)
 255:Generated_Source\PSoC4/rtc.H ****     #define RTC_YEAR_OFFSET       (0u)
 256:Generated_Source\PSoC4/rtc.H **** #else
 257:Generated_Source\PSoC4/rtc.H ****     #define RTC_10_MONTH_OFFSET   (12u)
 258:Generated_Source\PSoC4/rtc.H ****     #define RTC_MONTH_OFFSET      (8u)
 259:Generated_Source\PSoC4/rtc.H ****     #define RTC_10_DAY_OFFSET     (4u)
 260:Generated_Source\PSoC4/rtc.H ****     #define RTC_DAY_OFFSET        (0u)
 261:Generated_Source\PSoC4/rtc.H ****     #define RTC_1000_YEAR_OFFSET  (28u)
ARM GAS  C:\Users\Petro\AppData\Local\Temp\cc6ZLuiO.s 			page 6


 262:Generated_Source\PSoC4/rtc.H ****     #define RTC_100_YEAR_OFFSET   (24u)
 263:Generated_Source\PSoC4/rtc.H ****     #define RTC_10_YEAR_OFFSET    (20u)
 264:Generated_Source\PSoC4/rtc.H ****     #define RTC_YEAR_OFFSET       (16u)
 265:Generated_Source\PSoC4/rtc.H **** #endif /* (RTC_INITIAL_DATA_FORMAT == RTC__MM_DD_YYYY) */
 266:Generated_Source\PSoC4/rtc.H **** 
 267:Generated_Source\PSoC4/rtc.H **** #define RTC_10_MONTH_MASK          (0x00000001uL << RTC_10_MONTH_OFFSET)
 268:Generated_Source\PSoC4/rtc.H **** #define RTC_MONTH_MASK             (0x0000000FuL << RTC_MONTH_OFFSET)
 269:Generated_Source\PSoC4/rtc.H **** #define RTC_10_DAY_MASK            (0x00000003uL << RTC_10_DAY_OFFSET)
 270:Generated_Source\PSoC4/rtc.H **** #define RTC_DAY_MASK               (0x0000000FuL << RTC_DAY_OFFSET)
 271:Generated_Source\PSoC4/rtc.H **** #define RTC_1000_YEAR_MASK         (0x00000003uL << RTC_1000_YEAR_OFFSET)
 272:Generated_Source\PSoC4/rtc.H **** #define RTC_100_YEAR_MASK          (0x0000000FuL << RTC_100_YEAR_OFFSET)
 273:Generated_Source\PSoC4/rtc.H **** #define RTC_10_YEAR_MASK           (0x0000000FuL << RTC_10_YEAR_OFFSET)
 274:Generated_Source\PSoC4/rtc.H **** #define RTC_YEAR_MASK              (0x0000000FuL << RTC_YEAR_OFFSET)
 275:Generated_Source\PSoC4/rtc.H **** 
 276:Generated_Source\PSoC4/rtc.H **** #define  RTC_MONTH_FULL_MASK       (RTC_10_MONTH_MASK  | RTC_MONTH_MASK)
 277:Generated_Source\PSoC4/rtc.H **** #define  RTC_DAY_FULL_MASK         (RTC_10_DAY_MASK    | RTC_DAY_MASK)
 278:Generated_Source\PSoC4/rtc.H **** #define  RTC_YEAR_FULL_MASK        (RTC_1000_YEAR_MASK | RTC_100_YEAR_MASK |\
 279:Generated_Source\PSoC4/rtc.H ****                                                  RTC_10_YEAR_MASK   | RTC_YEAR_MASK)
 280:Generated_Source\PSoC4/rtc.H **** 
 281:Generated_Source\PSoC4/rtc.H **** 
 282:Generated_Source\PSoC4/rtc.H **** /* Definition of time register fields */
 283:Generated_Source\PSoC4/rtc.H **** #define RTC_TIME_FORMAT_OFFSET     (23u)
 284:Generated_Source\PSoC4/rtc.H **** #define RTC_PERIOD_OF_DAY_OFFSET   (22u)
 285:Generated_Source\PSoC4/rtc.H **** #define RTC_10_HOURS_OFFSET        (20u)
 286:Generated_Source\PSoC4/rtc.H **** #define RTC_HOURS_OFFSET           (16u)
 287:Generated_Source\PSoC4/rtc.H **** #define RTC_10_MINUTES_OFFSET      (12u)
 288:Generated_Source\PSoC4/rtc.H **** #define RTC_MINUTES_OFFSET         (8u)
 289:Generated_Source\PSoC4/rtc.H **** #define RTC_10_SECONDS_OFFSET      (4u)
 290:Generated_Source\PSoC4/rtc.H **** #define RTC_SECONDS_OFFSET         (0u)
 291:Generated_Source\PSoC4/rtc.H **** 
 292:Generated_Source\PSoC4/rtc.H **** #define RTC_TIME_FORMAT_MASK       (0x00000001uL << RTC_TIME_FORMAT_OFFSET)
 293:Generated_Source\PSoC4/rtc.H **** #define RTC_PERIOD_OF_DAY_MASK     (0x00000001uL << RTC_PERIOD_OF_DAY_OFFSET)
 294:Generated_Source\PSoC4/rtc.H **** #define RTC_10_HOURS_MASK          (0x00000003uL << RTC_10_HOURS_OFFSET)
 295:Generated_Source\PSoC4/rtc.H **** #define RTC_HOURS_MASK             (0x0000000FuL << RTC_HOURS_OFFSET)
 296:Generated_Source\PSoC4/rtc.H **** #define RTC_10_MINUTES_MASK        (0x00000007uL << RTC_10_MINUTES_OFFSET)
 297:Generated_Source\PSoC4/rtc.H **** #define RTC_MINUTES_MASK           (0x0000000FuL << RTC_MINUTES_OFFSET)
 298:Generated_Source\PSoC4/rtc.H **** #define RTC_10_SECONDS_MASK        (0x00000007uL << RTC_10_SECONDS_OFFSET)
 299:Generated_Source\PSoC4/rtc.H **** #define RTC_SECONDS_MASK           (0x0000000FuL << RTC_SECONDS_OFFSET)
 300:Generated_Source\PSoC4/rtc.H **** 
 301:Generated_Source\PSoC4/rtc.H **** #define RTC_HOURS_FULL_MASK        (RTC_10_HOURS_MASK   | RTC_HOURS_MASK)
 302:Generated_Source\PSoC4/rtc.H **** #define RTC_MINUTES_FULL_MASK      (RTC_10_MINUTES_MASK | RTC_MINUTES_MASK)
 303:Generated_Source\PSoC4/rtc.H **** #define RTC_SECONDS_FULL_MASK      (RTC_10_SECONDS_MASK | RTC_SECONDS_MASK)
 304:Generated_Source\PSoC4/rtc.H **** 
 305:Generated_Source\PSoC4/rtc.H **** #define RTC_ALARM_SEC_MASK         (0x00000001uL)
 306:Generated_Source\PSoC4/rtc.H **** #define RTC_ALARM_MIN_MASK         (0x00000002uL)
 307:Generated_Source\PSoC4/rtc.H **** #define RTC_ALARM_HOUR_MASK        (0x00000004uL)
 308:Generated_Source\PSoC4/rtc.H **** #define RTC_ALARM_DAYOFWEEK_MASK   (0x00000008uL)
 309:Generated_Source\PSoC4/rtc.H **** #define RTC_ALARM_DAYOFMONTH_MASK  (0x00000010uL)
 310:Generated_Source\PSoC4/rtc.H **** #define RTC_ALARM_MONTH_MASK       (0x00000020uL)
 311:Generated_Source\PSoC4/rtc.H **** #define RTC_ALARM_YEAR_MASK        (0x00000040uL)
 312:Generated_Source\PSoC4/rtc.H **** 
 313:Generated_Source\PSoC4/rtc.H **** #define RTC_STATUS_DST_OFFSET      (1u)
 314:Generated_Source\PSoC4/rtc.H **** #define RTC_STATUS_ALARM_OFFSET    (2u)
 315:Generated_Source\PSoC4/rtc.H **** #define RTC_STATUS_LY_OFFSET       (3u)
 316:Generated_Source\PSoC4/rtc.H **** #define RTC_STATUS_AM_PM_OFFSET    (4u)
 317:Generated_Source\PSoC4/rtc.H **** 
 318:Generated_Source\PSoC4/rtc.H **** /* Definition of the RTC status values. */
ARM GAS  C:\Users\Petro\AppData\Local\Temp\cc6ZLuiO.s 			page 7


 319:Generated_Source\PSoC4/rtc.H **** #define RTC_STATUS_DST             (1uL << RTC_STATUS_DST_OFFSET)
 320:Generated_Source\PSoC4/rtc.H **** #define RTC_STATUS_LY              (1uL << RTC_STATUS_LY_OFFSET)
 321:Generated_Source\PSoC4/rtc.H **** #define RTC_STATUS_AM_PM           (1uL << RTC_STATUS_AM_PM_OFFSET)
 322:Generated_Source\PSoC4/rtc.H **** 
 323:Generated_Source\PSoC4/rtc.H **** /* Number of bits per one BCD digit. */
 324:Generated_Source\PSoC4/rtc.H **** #define RTC_BCD_NUMBER_SIZE        (4u)
 325:Generated_Source\PSoC4/rtc.H **** #define RTC_BCD_ONE_DIGIT_MASK     (0x0000000FuL)
 326:Generated_Source\PSoC4/rtc.H **** 
 327:Generated_Source\PSoC4/rtc.H **** /*******************************************************************************
 328:Generated_Source\PSoC4/rtc.H **** *    Function Prototypes
 329:Generated_Source\PSoC4/rtc.H **** *******************************************************************************/
 330:Generated_Source\PSoC4/rtc.H **** /**
 331:Generated_Source\PSoC4/rtc.H **** * \addtogroup group_api
 332:Generated_Source\PSoC4/rtc.H **** * @{
 333:Generated_Source\PSoC4/rtc.H **** */
 334:Generated_Source\PSoC4/rtc.H **** void   RTC_Start(void);
 335:Generated_Source\PSoC4/rtc.H **** void   RTC_Stop(void);
 336:Generated_Source\PSoC4/rtc.H **** void   RTC_Init(void);
 337:Generated_Source\PSoC4/rtc.H **** void   RTC_SetUnixTime(uint64 unixTime);
 338:Generated_Source\PSoC4/rtc.H **** uint64 RTC_GetUnixTime(void);
 339:Generated_Source\PSoC4/rtc.H **** void   RTC_SetPeriod(uint32 ticks, uint32 refOneSecTicks);
 340:Generated_Source\PSoC4/rtc.H **** uint32 RTC_GetPeriod(void);
 341:Generated_Source\PSoC4/rtc.H **** uint32 RTC_GetRefOneSec(void);
 342:Generated_Source\PSoC4/rtc.H **** void   RTC_SetDateAndTime(uint32 inputTime, uint32 inputDate);
 343:Generated_Source\PSoC4/rtc.H **** void   RTC_GetDateAndTime(RTC_DATE_TIME* dateTime);
 344:Generated_Source\PSoC4/rtc.H **** uint32 RTC_GetTime(void);
 345:Generated_Source\PSoC4/rtc.H **** uint32 RTC_GetDate(void);
 346:Generated_Source\PSoC4/rtc.H **** void   RTC_SetAlarmDateAndTime(const RTC_DATE_TIME* alarmTime);
 347:Generated_Source\PSoC4/rtc.H **** void   RTC_GetAlarmDateAndTime(RTC_DATE_TIME* alarmTimeDate);
 348:Generated_Source\PSoC4/rtc.H **** void   RTC_SetAlarmMask(uint32 mask);
 349:Generated_Source\PSoC4/rtc.H **** uint32 RTC_GetAlarmMask(void);
 350:Generated_Source\PSoC4/rtc.H **** uint32 RTC_ReadStatus(void);
 351:Generated_Source\PSoC4/rtc.H **** uint32 RTC_GetAlarmStatus(void);
 352:Generated_Source\PSoC4/rtc.H **** void   RTC_ClearAlarmStatus(void);
 353:Generated_Source\PSoC4/rtc.H **** void   RTC_SetDSTStartTime(const RTC_DST_TIME* dstStartTime,
 354:Generated_Source\PSoC4/rtc.H ****                                               RTC_DST_DATETYPE_ENUM type);
 355:Generated_Source\PSoC4/rtc.H **** void   RTC_SetDSTStopTime(const RTC_DST_TIME* dstStopTime,
 356:Generated_Source\PSoC4/rtc.H ****                                              RTC_DST_DATETYPE_ENUM type);
 357:Generated_Source\PSoC4/rtc.H **** uint32 RTC_ConvertBCDToDec(uint32 bcdNum);
 358:Generated_Source\PSoC4/rtc.H **** uint32 RTC_ConvertDecToBCD(uint32 decNum);
 359:Generated_Source\PSoC4/rtc.H **** void   RTC_Update(void);
 360:Generated_Source\PSoC4/rtc.H **** void*  RTC_SetAlarmHandler(void (*CallbackFunction)(void));
 361:Generated_Source\PSoC4/rtc.H **** 
 362:Generated_Source\PSoC4/rtc.H **** static uint32 RTC_ConstructDate(uint32 month, uint32 day, uint32 year);
 363:Generated_Source\PSoC4/rtc.H **** static uint32 RTC_ConstructTime(uint32 timeFormat, uint32 stateAmPm, uint32 hour, uint32 min, uint3
 364:Generated_Source\PSoC4/rtc.H **** /** @} api */
 365:Generated_Source\PSoC4/rtc.H **** 
 366:Generated_Source\PSoC4/rtc.H **** static uint32 RTC_GetTimeFormat(uint32 inputTime);
 367:Generated_Source\PSoC4/rtc.H **** static uint32 RTC_SetTimeFormat(uint32 inputTime, uint32 timeFormat);
 368:Generated_Source\PSoC4/rtc.H **** 
 369:Generated_Source\PSoC4/rtc.H **** /**
 370:Generated_Source\PSoC4/rtc.H **** * \addtogroup group_api
 371:Generated_Source\PSoC4/rtc.H **** * @{
 372:Generated_Source\PSoC4/rtc.H **** */
 373:Generated_Source\PSoC4/rtc.H **** static uint32 RTC_LeapYear(uint32 year);
 374:Generated_Source\PSoC4/rtc.H **** static uint32 RTC_IsBitSet(uint32 var, uint32 mask);
 375:Generated_Source\PSoC4/rtc.H **** static uint32 RTC_GetSecond(uint32 inputTime);
ARM GAS  C:\Users\Petro\AppData\Local\Temp\cc6ZLuiO.s 			page 8


 376:Generated_Source\PSoC4/rtc.H **** static uint32 RTC_GetMinutes(uint32 inputTime);
 377:Generated_Source\PSoC4/rtc.H **** static uint32 RTC_GetHours(uint32 inputTime);
 378:Generated_Source\PSoC4/rtc.H **** static uint32 RTC_GetAmPm(uint32 inputTime);
 379:Generated_Source\PSoC4/rtc.H **** static uint32 RTC_GetDay(uint32 date);
 380:Generated_Source\PSoC4/rtc.H **** static uint32 RTC_GetMonth(uint32 date);
 381:Generated_Source\PSoC4/rtc.H **** static uint32 RTC_GetYear(uint32 date);
 382:Generated_Source\PSoC4/rtc.H **** /** @} api */
 383:Generated_Source\PSoC4/rtc.H **** 
 384:Generated_Source\PSoC4/rtc.H **** static uint32 RTC_SetSecond(uint32 inputTime, uint32 inputSecond);
 385:Generated_Source\PSoC4/rtc.H **** static uint32 RTC_SetMinutes(uint32 inputTime, uint32 inputMinute);
 386:Generated_Source\PSoC4/rtc.H **** static uint32 RTC_SetHours(uint32 inputTime, uint32 inputHours);
 387:Generated_Source\PSoC4/rtc.H **** static uint32 RTC_SetAmPm(uint32 inputTime, uint32 periodOfDay);
 388:Generated_Source\PSoC4/rtc.H **** static uint32 RTC_SetDay(uint32 inputDate, uint32 inputDay);
 389:Generated_Source\PSoC4/rtc.H **** static uint32 RTC_SetMonth(uint32 inputDate, uint32 inputMonth);
 390:Generated_Source\PSoC4/rtc.H **** static uint32 RTC_SetYear(uint32 inputDate, uint32 inputYear);
 391:Generated_Source\PSoC4/rtc.H **** 
 392:Generated_Source\PSoC4/rtc.H **** uint64 RTC_ConstructUnixAlarmTime(const RTC_DATE_TIME* alarmTime, uint8 alarmCfgMask);
 393:Generated_Source\PSoC4/rtc.H **** uint64 RTC_GetDstUnixTime(const RTC_DST_TIME* dstTime);
 394:Generated_Source\PSoC4/rtc.H **** uint64 RTC_GetNexAlarmTime(uint64 curUnixTime, uint8 alarmCfgMask);
 395:Generated_Source\PSoC4/rtc.H **** 
 396:Generated_Source\PSoC4/rtc.H **** static uint32 RTC_GetNextMinSec(uint32 curVal);
 397:Generated_Source\PSoC4/rtc.H **** static uint32 RTC_GetNextHour(uint32 curVal);
 398:Generated_Source\PSoC4/rtc.H **** static uint32 RTC_GetNextDay(uint32 curYear, uint32 curMonth, uint32 curDay, uint32 alarmCfgMask);
 399:Generated_Source\PSoC4/rtc.H **** static uint32 RTC_GetNextMonth(uint32 curMonth);
 400:Generated_Source\PSoC4/rtc.H **** static uint32 RTC_GetNextYear(uint32 curYear);
 401:Generated_Source\PSoC4/rtc.H **** static uint32 RTC_GetDayOfWeek(uint32 day, uint32 month, uint32 year);
 402:Generated_Source\PSoC4/rtc.H **** 
 403:Generated_Source\PSoC4/rtc.H **** uint32 RTC_DaysInMonth(uint32 month, uint32 year);
 404:Generated_Source\PSoC4/rtc.H **** uint32 RTC_DaysBeforeMonth(uint32 month, uint32 year);
 405:Generated_Source\PSoC4/rtc.H **** 
 406:Generated_Source\PSoC4/rtc.H **** /**
 407:Generated_Source\PSoC4/rtc.H **** * \addtogroup group_api
 408:Generated_Source\PSoC4/rtc.H **** * @{
 409:Generated_Source\PSoC4/rtc.H **** */
 410:Generated_Source\PSoC4/rtc.H **** void   RTC_UnixToDateTime(RTC_DATE_TIME* dateTime, uint64 unixTime, uint32 timeFormat);
 411:Generated_Source\PSoC4/rtc.H **** uint64 RTC_DateTimeToUnix(uint32 inputDate, uint32 inputTime);
 412:Generated_Source\PSoC4/rtc.H **** /** @} api */
 413:Generated_Source\PSoC4/rtc.H **** 
 414:Generated_Source\PSoC4/rtc.H **** uint32 RTC_RelativeToFixed(uint32 dayOfWeek, uint32 weekOfMonth, uint32 month, uint32 year);
 415:Generated_Source\PSoC4/rtc.H **** 
 416:Generated_Source\PSoC4/rtc.H **** 
 417:Generated_Source\PSoC4/rtc.H **** #if defined(CYDEV_RTC_SOURCE_WDT)
 418:Generated_Source\PSoC4/rtc.H ****     #if((0u != CYDEV_WDT_GENERATE_ISR) && (0u == RTC_INITIAL_UPDATE_MODE))
 419:Generated_Source\PSoC4/rtc.H ****         static void RTC_CySysRtcSetCallback(uint32 wdtNumber);
 420:Generated_Source\PSoC4/rtc.H ****         static void RTC_CySysRtcResetCallback(uint32 wdtNumber);
 421:Generated_Source\PSoC4/rtc.H ****     #endif /* ((0u != CYDEV_WDT_GENERATE_ISR) && (0u == RTC_INITIAL_UPDATE_MODE)) */
 422:Generated_Source\PSoC4/rtc.H **** #endif /* (CYDEV_RTC_SOURCE_WDT) */
 423:Generated_Source\PSoC4/rtc.H **** 
 424:Generated_Source\PSoC4/rtc.H **** /*******************************************************************************
 425:Generated_Source\PSoC4/rtc.H **** * Function Name: RTC_IsBitSet
 426:Generated_Source\PSoC4/rtc.H **** ****************************************************************************//**
 427:Generated_Source\PSoC4/rtc.H **** *
 428:Generated_Source\PSoC4/rtc.H **** * \brief
 429:Generated_Source\PSoC4/rtc.H **** *  Checks the state of a bit passed through parameter.
 430:Generated_Source\PSoC4/rtc.H **** *
 431:Generated_Source\PSoC4/rtc.H **** * \param
 432:Generated_Source\PSoC4/rtc.H **** *  var The variable to be checked.
ARM GAS  C:\Users\Petro\AppData\Local\Temp\cc6ZLuiO.s 			page 9


 433:Generated_Source\PSoC4/rtc.H **** * \param
 434:Generated_Source\PSoC4/rtc.H **** *  mask The mask for a bit to be checked.
 435:Generated_Source\PSoC4/rtc.H **** *
 436:Generated_Source\PSoC4/rtc.H **** * \return
 437:Generated_Source\PSoC4/rtc.H **** *  0u - Bit is not set.
 438:Generated_Source\PSoC4/rtc.H **** * \return
 439:Generated_Source\PSoC4/rtc.H **** *  1u - Bit is set.
 440:Generated_Source\PSoC4/rtc.H **** *
 441:Generated_Source\PSoC4/rtc.H **** *******************************************************************************/
 442:Generated_Source\PSoC4/rtc.H **** static CY_INLINE uint32 RTC_IsBitSet(uint32 var, uint32 mask)
 443:Generated_Source\PSoC4/rtc.H **** {
  25              		.loc 1 443 0
  26              		.cfi_startproc
  27 0000 80B5     		push	{r7, lr}
  28              		.cfi_def_cfa_offset 8
  29              		.cfi_offset 7, -8
  30              		.cfi_offset 14, -4
  31 0002 82B0     		sub	sp, sp, #8
  32              		.cfi_def_cfa_offset 16
  33 0004 00AF     		add	r7, sp, #0
  34              		.cfi_def_cfa_register 7
  35 0006 7860     		str	r0, [r7, #4]
  36 0008 3960     		str	r1, [r7]
 444:Generated_Source\PSoC4/rtc.H ****     return ((mask == (var & mask)) ? 1Lu : 0Lu);
  37              		.loc 1 444 0
  38 000a 7B68     		ldr	r3, [r7, #4]
  39 000c 3A68     		ldr	r2, [r7]
  40 000e 1A40     		and	r2, r3
  41 0010 3B68     		ldr	r3, [r7]
  42 0012 9A42     		cmp	r2, r3
  43 0014 01D1     		bne	.L2
  44              		.loc 1 444 0 is_stmt 0 discriminator 1
  45 0016 0123     		mov	r3, #1
  46 0018 00E0     		b	.L3
  47              	.L2:
  48              		.loc 1 444 0 discriminator 2
  49 001a 0023     		mov	r3, #0
  50              	.L3:
 445:Generated_Source\PSoC4/rtc.H **** }
  51              		.loc 1 445 0 is_stmt 1 discriminator 4
  52 001c 181C     		mov	r0, r3
  53 001e BD46     		mov	sp, r7
  54 0020 02B0     		add	sp, sp, #8
  55              		@ sp needed
  56 0022 80BD     		pop	{r7, pc}
  57              		.cfi_endproc
  58              	.LFE2:
  59              		.size	RTC_IsBitSet, .-RTC_IsBitSet
  60              		.section	.text.RTC_GetSecond,"ax",%progbits
  61              		.align	2
  62              		.code	16
  63              		.thumb_func
  64              		.type	RTC_GetSecond, %function
  65              	RTC_GetSecond:
  66              	.LFB4:
 446:Generated_Source\PSoC4/rtc.H **** 
 447:Generated_Source\PSoC4/rtc.H **** 
ARM GAS  C:\Users\Petro\AppData\Local\Temp\cc6ZLuiO.s 			page 10


 448:Generated_Source\PSoC4/rtc.H **** /*******************************************************************************
 449:Generated_Source\PSoC4/rtc.H **** * Function Name: RTC_LeapYear
 450:Generated_Source\PSoC4/rtc.H **** ****************************************************************************//**
 451:Generated_Source\PSoC4/rtc.H **** *
 452:Generated_Source\PSoC4/rtc.H **** * \brief
 453:Generated_Source\PSoC4/rtc.H **** * Checks whether the year passed through the parameter is
 454:Generated_Source\PSoC4/rtc.H **** * leap or no.
 455:Generated_Source\PSoC4/rtc.H **** *
 456:Generated_Source\PSoC4/rtc.H **** * \param
 457:Generated_Source\PSoC4/rtc.H **** *  year The year to be checked.
 458:Generated_Source\PSoC4/rtc.H **** *
 459:Generated_Source\PSoC4/rtc.H **** *
 460:Generated_Source\PSoC4/rtc.H **** * \return
 461:Generated_Source\PSoC4/rtc.H **** *  0u - The year is not leap.
 462:Generated_Source\PSoC4/rtc.H **** * \return
 463:Generated_Source\PSoC4/rtc.H **** *  1u - The year is leap.
 464:Generated_Source\PSoC4/rtc.H **** *
 465:Generated_Source\PSoC4/rtc.H **** *******************************************************************************/
 466:Generated_Source\PSoC4/rtc.H **** static CY_INLINE uint32 RTC_LeapYear(uint32 year)
 467:Generated_Source\PSoC4/rtc.H **** {
 468:Generated_Source\PSoC4/rtc.H ****     uint32 retVal;
 469:Generated_Source\PSoC4/rtc.H **** 
 470:Generated_Source\PSoC4/rtc.H ****     if(((0u == (year % 4Lu)) && (0u != (year % 100Lu))) || (0u == (year % 400Lu)))
 471:Generated_Source\PSoC4/rtc.H ****     {
 472:Generated_Source\PSoC4/rtc.H ****         retVal = 1uL;
 473:Generated_Source\PSoC4/rtc.H ****     }
 474:Generated_Source\PSoC4/rtc.H ****     else
 475:Generated_Source\PSoC4/rtc.H ****     {
 476:Generated_Source\PSoC4/rtc.H ****         retVal = 0uL;
 477:Generated_Source\PSoC4/rtc.H ****     }
 478:Generated_Source\PSoC4/rtc.H **** 
 479:Generated_Source\PSoC4/rtc.H ****     return(retVal);
 480:Generated_Source\PSoC4/rtc.H **** }
 481:Generated_Source\PSoC4/rtc.H **** 
 482:Generated_Source\PSoC4/rtc.H **** 
 483:Generated_Source\PSoC4/rtc.H **** /*******************************************************************************
 484:Generated_Source\PSoC4/rtc.H **** * Function Name: RTC_GetSecond
 485:Generated_Source\PSoC4/rtc.H **** ****************************************************************************//**
 486:Generated_Source\PSoC4/rtc.H **** *
 487:Generated_Source\PSoC4/rtc.H **** * \brief
 488:Generated_Source\PSoC4/rtc.H **** *  Returns the seconds value from the time value that is passed as a/the parameter.
 489:Generated_Source\PSoC4/rtc.H **** *
 490:Generated_Source\PSoC4/rtc.H **** * \param
 491:Generated_Source\PSoC4/rtc.H **** *  time The time value.
 492:Generated_Source\PSoC4/rtc.H **** *
 493:Generated_Source\PSoC4/rtc.H **** * \return
 494:Generated_Source\PSoC4/rtc.H **** *  The seconds value.
 495:Generated_Source\PSoC4/rtc.H **** *
 496:Generated_Source\PSoC4/rtc.H **** *******************************************************************************/
 497:Generated_Source\PSoC4/rtc.H **** static CY_INLINE uint32 RTC_GetSecond(uint32 inputTime)
 498:Generated_Source\PSoC4/rtc.H **** {
  67              		.loc 1 498 0
  68              		.cfi_startproc
  69 0000 80B5     		push	{r7, lr}
  70              		.cfi_def_cfa_offset 8
  71              		.cfi_offset 7, -8
  72              		.cfi_offset 14, -4
ARM GAS  C:\Users\Petro\AppData\Local\Temp\cc6ZLuiO.s 			page 11


  73 0002 84B0     		sub	sp, sp, #16
  74              		.cfi_def_cfa_offset 24
  75 0004 00AF     		add	r7, sp, #0
  76              		.cfi_def_cfa_register 7
  77 0006 7860     		str	r0, [r7, #4]
 499:Generated_Source\PSoC4/rtc.H ****     uint32 retVal;
 500:Generated_Source\PSoC4/rtc.H **** 
 501:Generated_Source\PSoC4/rtc.H ****     retVal  = ((inputTime & RTC_10_SECONDS_MASK) >> RTC_10_SECONDS_OFFSET) * 10u;
  78              		.loc 1 501 0
  79 0008 7B68     		ldr	r3, [r7, #4]
  80 000a 7022     		mov	r2, #112
  81 000c 1340     		and	r3, r2
  82 000e 1A09     		lsr	r2, r3, #4
  83 0010 131C     		mov	r3, r2
  84 0012 9B00     		lsl	r3, r3, #2
  85 0014 9B18     		add	r3, r3, r2
  86 0016 5B00     		lsl	r3, r3, #1
  87 0018 FB60     		str	r3, [r7, #12]
 502:Generated_Source\PSoC4/rtc.H ****     retVal += (inputTime & RTC_SECONDS_MASK) >> RTC_SECONDS_OFFSET;
  88              		.loc 1 502 0
  89 001a 7B68     		ldr	r3, [r7, #4]
  90 001c 0F22     		mov	r2, #15
  91 001e 1340     		and	r3, r2
  92 0020 FA68     		ldr	r2, [r7, #12]
  93 0022 D318     		add	r3, r2, r3
  94 0024 FB60     		str	r3, [r7, #12]
 503:Generated_Source\PSoC4/rtc.H **** 
 504:Generated_Source\PSoC4/rtc.H ****     return (retVal);
  95              		.loc 1 504 0
  96 0026 FB68     		ldr	r3, [r7, #12]
 505:Generated_Source\PSoC4/rtc.H **** }
  97              		.loc 1 505 0
  98 0028 181C     		mov	r0, r3
  99 002a BD46     		mov	sp, r7
 100 002c 04B0     		add	sp, sp, #16
 101              		@ sp needed
 102 002e 80BD     		pop	{r7, pc}
 103              		.cfi_endproc
 104              	.LFE4:
 105              		.size	RTC_GetSecond, .-RTC_GetSecond
 106              		.section	.text.RTC_GetMinutes,"ax",%progbits
 107              		.align	2
 108              		.code	16
 109              		.thumb_func
 110              		.type	RTC_GetMinutes, %function
 111              	RTC_GetMinutes:
 112              	.LFB5:
 506:Generated_Source\PSoC4/rtc.H **** 
 507:Generated_Source\PSoC4/rtc.H **** 
 508:Generated_Source\PSoC4/rtc.H **** /*******************************************************************************
 509:Generated_Source\PSoC4/rtc.H **** * Function Name: RTC_GetMinutes
 510:Generated_Source\PSoC4/rtc.H **** ****************************************************************************//**
 511:Generated_Source\PSoC4/rtc.H **** *
 512:Generated_Source\PSoC4/rtc.H **** * \brief
 513:Generated_Source\PSoC4/rtc.H **** *  Returns the minutes value from the time value that is passed as a/the 
 514:Generated_Source\PSoC4/rtc.H **** * parameter.
 515:Generated_Source\PSoC4/rtc.H **** *
ARM GAS  C:\Users\Petro\AppData\Local\Temp\cc6ZLuiO.s 			page 12


 516:Generated_Source\PSoC4/rtc.H **** * \param
 517:Generated_Source\PSoC4/rtc.H **** *  time The time value.
 518:Generated_Source\PSoC4/rtc.H **** *
 519:Generated_Source\PSoC4/rtc.H **** * \return
 520:Generated_Source\PSoC4/rtc.H **** *  The minutes value.
 521:Generated_Source\PSoC4/rtc.H **** *
 522:Generated_Source\PSoC4/rtc.H **** *******************************************************************************/
 523:Generated_Source\PSoC4/rtc.H **** static CY_INLINE uint32 RTC_GetMinutes(uint32 inputTime)
 524:Generated_Source\PSoC4/rtc.H **** {
 113              		.loc 1 524 0
 114              		.cfi_startproc
 115 0000 80B5     		push	{r7, lr}
 116              		.cfi_def_cfa_offset 8
 117              		.cfi_offset 7, -8
 118              		.cfi_offset 14, -4
 119 0002 84B0     		sub	sp, sp, #16
 120              		.cfi_def_cfa_offset 24
 121 0004 00AF     		add	r7, sp, #0
 122              		.cfi_def_cfa_register 7
 123 0006 7860     		str	r0, [r7, #4]
 525:Generated_Source\PSoC4/rtc.H ****     uint32 retVal;
 526:Generated_Source\PSoC4/rtc.H **** 
 527:Generated_Source\PSoC4/rtc.H ****     retVal  = ((inputTime & RTC_10_MINUTES_MASK) >> RTC_10_MINUTES_OFFSET) * 10u;
 124              		.loc 1 527 0
 125 0008 7A68     		ldr	r2, [r7, #4]
 126 000a E023     		mov	r3, #224
 127 000c DB01     		lsl	r3, r3, #7
 128 000e 1340     		and	r3, r2
 129 0010 1A0B     		lsr	r2, r3, #12
 130 0012 131C     		mov	r3, r2
 131 0014 9B00     		lsl	r3, r3, #2
 132 0016 9B18     		add	r3, r3, r2
 133 0018 5B00     		lsl	r3, r3, #1
 134 001a FB60     		str	r3, [r7, #12]
 528:Generated_Source\PSoC4/rtc.H ****     retVal += (inputTime & RTC_MINUTES_MASK) >> RTC_MINUTES_OFFSET;
 135              		.loc 1 528 0
 136 001c 7A68     		ldr	r2, [r7, #4]
 137 001e F023     		mov	r3, #240
 138 0020 1B01     		lsl	r3, r3, #4
 139 0022 1340     		and	r3, r2
 140 0024 1B0A     		lsr	r3, r3, #8
 141 0026 FA68     		ldr	r2, [r7, #12]
 142 0028 D318     		add	r3, r2, r3
 143 002a FB60     		str	r3, [r7, #12]
 529:Generated_Source\PSoC4/rtc.H **** 
 530:Generated_Source\PSoC4/rtc.H ****     return (retVal);
 144              		.loc 1 530 0
 145 002c FB68     		ldr	r3, [r7, #12]
 531:Generated_Source\PSoC4/rtc.H **** }
 146              		.loc 1 531 0
 147 002e 181C     		mov	r0, r3
 148 0030 BD46     		mov	sp, r7
 149 0032 04B0     		add	sp, sp, #16
 150              		@ sp needed
 151 0034 80BD     		pop	{r7, pc}
 152              		.cfi_endproc
 153              	.LFE5:
ARM GAS  C:\Users\Petro\AppData\Local\Temp\cc6ZLuiO.s 			page 13


 154              		.size	RTC_GetMinutes, .-RTC_GetMinutes
 155 0036 C046     		.section	.text.RTC_GetHours,"ax",%progbits
 156              		.align	2
 157              		.code	16
 158              		.thumb_func
 159              		.type	RTC_GetHours, %function
 160              	RTC_GetHours:
 161              	.LFB6:
 532:Generated_Source\PSoC4/rtc.H **** 
 533:Generated_Source\PSoC4/rtc.H **** 
 534:Generated_Source\PSoC4/rtc.H **** /*******************************************************************************
 535:Generated_Source\PSoC4/rtc.H **** * Function Name: RTC_GetHours
 536:Generated_Source\PSoC4/rtc.H **** ****************************************************************************//**
 537:Generated_Source\PSoC4/rtc.H **** *
 538:Generated_Source\PSoC4/rtc.H **** * \brief
 539:Generated_Source\PSoC4/rtc.H **** *  Returns the hours value from the time value that is passed as a/the parameter.
 540:Generated_Source\PSoC4/rtc.H **** *
 541:Generated_Source\PSoC4/rtc.H **** * \param
 542:Generated_Source\PSoC4/rtc.H **** *  time The time value.
 543:Generated_Source\PSoC4/rtc.H **** *
 544:Generated_Source\PSoC4/rtc.H **** * \return
 545:Generated_Source\PSoC4/rtc.H **** *  The hours value.
 546:Generated_Source\PSoC4/rtc.H **** *
 547:Generated_Source\PSoC4/rtc.H **** *******************************************************************************/
 548:Generated_Source\PSoC4/rtc.H **** static CY_INLINE uint32 RTC_GetHours(uint32 inputTime)
 549:Generated_Source\PSoC4/rtc.H **** {
 162              		.loc 1 549 0
 163              		.cfi_startproc
 164 0000 80B5     		push	{r7, lr}
 165              		.cfi_def_cfa_offset 8
 166              		.cfi_offset 7, -8
 167              		.cfi_offset 14, -4
 168 0002 84B0     		sub	sp, sp, #16
 169              		.cfi_def_cfa_offset 24
 170 0004 00AF     		add	r7, sp, #0
 171              		.cfi_def_cfa_register 7
 172 0006 7860     		str	r0, [r7, #4]
 550:Generated_Source\PSoC4/rtc.H ****     uint32 retVal;
 551:Generated_Source\PSoC4/rtc.H **** 
 552:Generated_Source\PSoC4/rtc.H ****     retVal  = ((inputTime & RTC_10_HOURS_MASK) >> RTC_10_HOURS_OFFSET) * 10u;
 173              		.loc 1 552 0
 174 0008 7A68     		ldr	r2, [r7, #4]
 175 000a C023     		mov	r3, #192
 176 000c 9B03     		lsl	r3, r3, #14
 177 000e 1340     		and	r3, r2
 178 0010 1A0D     		lsr	r2, r3, #20
 179 0012 131C     		mov	r3, r2
 180 0014 9B00     		lsl	r3, r3, #2
 181 0016 9B18     		add	r3, r3, r2
 182 0018 5B00     		lsl	r3, r3, #1
 183 001a FB60     		str	r3, [r7, #12]
 553:Generated_Source\PSoC4/rtc.H ****     retVal += (inputTime & RTC_HOURS_MASK) >> RTC_HOURS_OFFSET;
 184              		.loc 1 553 0
 185 001c 7A68     		ldr	r2, [r7, #4]
 186 001e F023     		mov	r3, #240
 187 0020 1B03     		lsl	r3, r3, #12
 188 0022 1340     		and	r3, r2
ARM GAS  C:\Users\Petro\AppData\Local\Temp\cc6ZLuiO.s 			page 14


 189 0024 1B0C     		lsr	r3, r3, #16
 190 0026 FA68     		ldr	r2, [r7, #12]
 191 0028 D318     		add	r3, r2, r3
 192 002a FB60     		str	r3, [r7, #12]
 554:Generated_Source\PSoC4/rtc.H **** 
 555:Generated_Source\PSoC4/rtc.H ****     return (retVal);
 193              		.loc 1 555 0
 194 002c FB68     		ldr	r3, [r7, #12]
 556:Generated_Source\PSoC4/rtc.H **** }
 195              		.loc 1 556 0
 196 002e 181C     		mov	r0, r3
 197 0030 BD46     		mov	sp, r7
 198 0032 04B0     		add	sp, sp, #16
 199              		@ sp needed
 200 0034 80BD     		pop	{r7, pc}
 201              		.cfi_endproc
 202              	.LFE6:
 203              		.size	RTC_GetHours, .-RTC_GetHours
 204 0036 C046     		.section	.text.RTC_GetAmPm,"ax",%progbits
 205              		.align	2
 206              		.code	16
 207              		.thumb_func
 208              		.type	RTC_GetAmPm, %function
 209              	RTC_GetAmPm:
 210              	.LFB7:
 557:Generated_Source\PSoC4/rtc.H **** 
 558:Generated_Source\PSoC4/rtc.H **** 
 559:Generated_Source\PSoC4/rtc.H **** /*******************************************************************************
 560:Generated_Source\PSoC4/rtc.H **** * Function Name: RTC_GetAmPm
 561:Generated_Source\PSoC4/rtc.H **** ****************************************************************************//**
 562:Generated_Source\PSoC4/rtc.H **** *
 563:Generated_Source\PSoC4/rtc.H **** * \brief
 564:Generated_Source\PSoC4/rtc.H **** *  Returns the AM/PM status from the time value that is passed as parameter.
 565:Generated_Source\PSoC4/rtc.H **** *
 566:Generated_Source\PSoC4/rtc.H **** * \param
 567:Generated_Source\PSoC4/rtc.H **** *  time The time value.
 568:Generated_Source\PSoC4/rtc.H **** *
 569:Generated_Source\PSoC4/rtc.H **** * \return
 570:Generated_Source\PSoC4/rtc.H **** *  RTC_AM - AM.
 571:Generated_Source\PSoC4/rtc.H **** * \return
 572:Generated_Source\PSoC4/rtc.H **** *  RTC_PM - PM.
 573:Generated_Source\PSoC4/rtc.H **** *
 574:Generated_Source\PSoC4/rtc.H **** *******************************************************************************/
 575:Generated_Source\PSoC4/rtc.H **** static CY_INLINE uint32 RTC_GetAmPm(uint32 inputTime)
 576:Generated_Source\PSoC4/rtc.H **** {
 211              		.loc 1 576 0
 212              		.cfi_startproc
 213 0000 80B5     		push	{r7, lr}
 214              		.cfi_def_cfa_offset 8
 215              		.cfi_offset 7, -8
 216              		.cfi_offset 14, -4
 217 0002 82B0     		sub	sp, sp, #8
 218              		.cfi_def_cfa_offset 16
 219 0004 00AF     		add	r7, sp, #0
 220              		.cfi_def_cfa_register 7
 221 0006 7860     		str	r0, [r7, #4]
 577:Generated_Source\PSoC4/rtc.H ****     return (RTC_IsBitSet(inputTime, RTC_PERIOD_OF_DAY_MASK));
ARM GAS  C:\Users\Petro\AppData\Local\Temp\cc6ZLuiO.s 			page 15


 222              		.loc 1 577 0
 223 0008 7A68     		ldr	r2, [r7, #4]
 224 000a 8023     		mov	r3, #128
 225 000c DB03     		lsl	r3, r3, #15
 226 000e 101C     		mov	r0, r2
 227 0010 191C     		mov	r1, r3
 228 0012 FFF7FEFF 		bl	RTC_IsBitSet
 229 0016 031C     		mov	r3, r0
 578:Generated_Source\PSoC4/rtc.H **** }
 230              		.loc 1 578 0
 231 0018 181C     		mov	r0, r3
 232 001a BD46     		mov	sp, r7
 233 001c 02B0     		add	sp, sp, #8
 234              		@ sp needed
 235 001e 80BD     		pop	{r7, pc}
 236              		.cfi_endproc
 237              	.LFE7:
 238              		.size	RTC_GetAmPm, .-RTC_GetAmPm
 239              		.bss
 240              		.align	1
 241              	minMs:
 242 0000 0000     		.space	2
 243              		.align	1
 244              	maxMs:
 245 0002 0000     		.space	2
 246              		.comm	tmpMs,2,2
 247              		.align	2
 248              	buff:
 249 0004 00000000 		.space	100
 249      00000000 
 249      00000000 
 249      00000000 
 249      00000000 
 250              		.section	.text.DisplayStart,"ax",%progbits
 251              		.align	2
 252              		.global	DisplayStart
 253              		.code	16
 254              		.thumb_func
 255              		.type	DisplayStart, %function
 256              	DisplayStart:
 257              	.LFB63:
 258              		.file 2 "lib_Display\\display.c"
   1:lib_Display/display.c **** 
   2:lib_Display/display.c **** #include <CyLib.h>
   3:lib_Display/display.c **** #include <LCD.h>
   4:lib_Display/display.c **** #include <rtc.H>
   5:lib_Display/display.c **** #include <stdio.h>
   6:lib_Display/display.c **** #include "lib_DB\database.h"
   7:lib_Display/display.c **** #include "lib_RTC\RTC_WDT.h"
   8:lib_Display/display.c **** #include "lib_Display\display.h"
   9:lib_Display/display.c **** 
  10:lib_Display/display.c **** 
  11:lib_Display/display.c **** /*buffer for print string on LCD*/
  12:lib_Display/display.c **** static  char buff[100];
  13:lib_Display/display.c **** 
  14:lib_Display/display.c **** 
  15:lib_Display/display.c **** /*******************************************************************************
ARM GAS  C:\Users\Petro\AppData\Local\Temp\cc6ZLuiO.s 			page 16


  16:lib_Display/display.c **** * Function name: DisplayConfig
  17:lib_Display/display.c **** ********************************************************************************
  18:lib_Display/display.c **** *
  19:lib_Display/display.c **** * Summary:
  20:lib_Display/display.c **** * initialization display
  21:lib_Display/display.c **** *
  22:lib_Display/display.c **** *******************************************************************************/	
  23:lib_Display/display.c **** void DisplayStart(void)
  24:lib_Display/display.c **** {
 259              		.loc 2 24 0
 260              		.cfi_startproc
 261 0000 80B5     		push	{r7, lr}
 262              		.cfi_def_cfa_offset 8
 263              		.cfi_offset 7, -8
 264              		.cfi_offset 14, -4
 265 0002 00AF     		add	r7, sp, #0
 266              		.cfi_def_cfa_register 7
  25:lib_Display/display.c ****     LCD_Start();
 267              		.loc 2 25 0
 268 0004 FFF7FEFF 		bl	LCD_Start
  26:lib_Display/display.c **** }
 269              		.loc 2 26 0
 270 0008 BD46     		mov	sp, r7
 271              		@ sp needed
 272 000a 80BD     		pop	{r7, pc}
 273              		.cfi_endproc
 274              	.LFE63:
 275              		.size	DisplayStart, .-DisplayStart
 276              		.section	.rodata
 277              		.align	2
 278              	.LC0:
 279 0000 20202020 		.ascii	"          \000"
 279      20202020 
 279      202000
 280              		.section	.text.Display,"ax",%progbits
 281              		.align	2
 282              		.global	Display
 283              		.code	16
 284              		.thumb_func
 285              		.type	Display, %function
 286              	Display:
 287              	.LFB64:
  27:lib_Display/display.c **** 	
  28:lib_Display/display.c **** 
  29:lib_Display/display.c **** /*******************************************************************************
  30:lib_Display/display.c **** * Function Name: DisplayPrintf
  31:lib_Display/display.c **** ********************************************************************************
  32:lib_Display/display.c **** *
  33:lib_Display/display.c **** * Summary:
  34:lib_Display/display.c **** *   Writes a zero terminated string to the LCD.
  35:lib_Display/display.c **** *
  36:lib_Display/display.c **** * Parameters:
  37:lib_Display/display.c **** *  string: Pointer to head of char8 array to be written to the LCD module
  38:lib_Display/display.c **** * Note:
  39:lib_Display/display.c **** *   print string from position row = 0, column = 0
  40:lib_Display/display.c **** *
  41:lib_Display/display.c **** *******************************************************************************/
ARM GAS  C:\Users\Petro\AppData\Local\Temp\cc6ZLuiO.s 			page 17


  42:lib_Display/display.c **** void Display(char *message)
  43:lib_Display/display.c **** {    
 288              		.loc 2 43 0
 289              		.cfi_startproc
 290 0000 80B5     		push	{r7, lr}
 291              		.cfi_def_cfa_offset 8
 292              		.cfi_offset 7, -8
 293              		.cfi_offset 14, -4
 294 0002 82B0     		sub	sp, sp, #8
 295              		.cfi_def_cfa_offset 16
 296 0004 00AF     		add	r7, sp, #0
 297              		.cfi_def_cfa_register 7
 298 0006 7860     		str	r0, [r7, #4]
  44:lib_Display/display.c ****     LCD_Position(0,0);
 299              		.loc 2 44 0
 300 0008 0020     		mov	r0, #0
 301 000a 0021     		mov	r1, #0
 302 000c FFF7FEFF 		bl	LCD_Position
  45:lib_Display/display.c ****     LCD_PrintString(message);
 303              		.loc 2 45 0
 304 0010 7B68     		ldr	r3, [r7, #4]
 305 0012 181C     		mov	r0, r3
 306 0014 FFF7FEFF 		bl	LCD_PrintString
  46:lib_Display/display.c ****     LCD_PrintString("          ");
 307              		.loc 2 46 0
 308 0018 034B     		ldr	r3, .L15
 309 001a 181C     		mov	r0, r3
 310 001c FFF7FEFF 		bl	LCD_PrintString
  47:lib_Display/display.c **** }
 311              		.loc 2 47 0
 312 0020 BD46     		mov	sp, r7
 313 0022 02B0     		add	sp, sp, #8
 314              		@ sp needed
 315 0024 80BD     		pop	{r7, pc}
 316              	.L16:
 317 0026 C046     		.align	2
 318              	.L15:
 319 0028 00000000 		.word	.LC0
 320              		.cfi_endproc
 321              	.LFE64:
 322              		.size	Display, .-Display
 323              		.section	.text.DisplayIndicatorSD,"ax",%progbits
 324              		.align	2
 325              		.global	DisplayIndicatorSD
 326              		.code	16
 327              		.thumb_func
 328              		.type	DisplayIndicatorSD, %function
 329              	DisplayIndicatorSD:
 330              	.LFB65:
  48:lib_Display/display.c **** 
  49:lib_Display/display.c **** /*******************************************************************************
  50:lib_Display/display.c **** * Function name: DisplayPutIndicatorSD
  51:lib_Display/display.c **** ********************************************************************************
  52:lib_Display/display.c **** *
  53:lib_Display/display.c **** * Summary:
  54:lib_Display/display.c **** *   print incator SD card from position row = 1, column = 15
  55:lib_Display/display.c **** *
ARM GAS  C:\Users\Petro\AppData\Local\Temp\cc6ZLuiO.s 			page 18


  56:lib_Display/display.c **** * Parametrs:
  57:lib_Display/display.c **** *   state = SD_INSERT or state = SD_NO_INSERT
  58:lib_Display/display.c **** *******************************************************************************/
  59:lib_Display/display.c **** void DisplayIndicatorSD(SDindicator indicator)
  60:lib_Display/display.c **** {
 331              		.loc 2 60 0
 332              		.cfi_startproc
 333 0000 80B5     		push	{r7, lr}
 334              		.cfi_def_cfa_offset 8
 335              		.cfi_offset 7, -8
 336              		.cfi_offset 14, -4
 337 0002 82B0     		sub	sp, sp, #8
 338              		.cfi_def_cfa_offset 16
 339 0004 00AF     		add	r7, sp, #0
 340              		.cfi_def_cfa_register 7
 341 0006 021C     		mov	r2, r0
 342 0008 FB1D     		add	r3, r7, #7
 343 000a 1A70     		strb	r2, [r3]
  61:lib_Display/display.c ****     LCD_Position(1,15);
 344              		.loc 2 61 0
 345 000c 0120     		mov	r0, #1
 346 000e 0F21     		mov	r1, #15
 347 0010 FFF7FEFF 		bl	LCD_Position
  62:lib_Display/display.c ****     if(indicator == SD_INSERT)
 348              		.loc 2 62 0
 349 0014 FB1D     		add	r3, r7, #7
 350 0016 1B78     		ldrb	r3, [r3]
 351 0018 002B     		cmp	r3, #0
 352 001a 03D1     		bne	.L18
  63:lib_Display/display.c ****     {
  64:lib_Display/display.c ****         LCD_PutChar(LCD_CUSTOM_0);
 353              		.loc 2 64 0
 354 001c 0020     		mov	r0, #0
 355 001e FFF7FEFF 		bl	LCD_PutChar
 356 0022 02E0     		b	.L17
 357              	.L18:
  65:lib_Display/display.c ****     }
  66:lib_Display/display.c ****     else
  67:lib_Display/display.c ****     {
  68:lib_Display/display.c ****         LCD_PutChar(LCD_CUSTOM_1);
 358              		.loc 2 68 0
 359 0024 0120     		mov	r0, #1
 360 0026 FFF7FEFF 		bl	LCD_PutChar
 361              	.L17:
  69:lib_Display/display.c ****     }
  70:lib_Display/display.c **** }
 362              		.loc 2 70 0
 363 002a BD46     		mov	sp, r7
 364 002c 02B0     		add	sp, sp, #8
 365              		@ sp needed
 366 002e 80BD     		pop	{r7, pc}
 367              		.cfi_endproc
 368              	.LFE65:
 369              		.size	DisplayIndicatorSD, .-DisplayIndicatorSD
 370              		.section	.text.DisplayIndicatorNetwork,"ax",%progbits
 371              		.align	2
 372              		.global	DisplayIndicatorNetwork
ARM GAS  C:\Users\Petro\AppData\Local\Temp\cc6ZLuiO.s 			page 19


 373              		.code	16
 374              		.thumb_func
 375              		.type	DisplayIndicatorNetwork, %function
 376              	DisplayIndicatorNetwork:
 377              	.LFB66:
  71:lib_Display/display.c **** 
  72:lib_Display/display.c **** /*******************************************************************************
  73:lib_Display/display.c **** * Function name: DisplayPutIndicatorNetwork
  74:lib_Display/display.c **** ********************************************************************************
  75:lib_Display/display.c **** *
  76:lib_Display/display.c **** * Summary:
  77:lib_Display/display.c **** *   print incator connect  from position row = 1, column = 15
  78:lib_Display/display.c **** *
  79:lib_Display/display.c **** * Parametrs:
  80:lib_Display/display.c **** *   state = CONNECT or state = DISCONNECT
  81:lib_Display/display.c **** *******************************************************************************/
  82:lib_Display/display.c **** void DisplayIndicatorNetwork(NetworkIndicator indicator)
  83:lib_Display/display.c **** {
 378              		.loc 2 83 0
 379              		.cfi_startproc
 380 0000 80B5     		push	{r7, lr}
 381              		.cfi_def_cfa_offset 8
 382              		.cfi_offset 7, -8
 383              		.cfi_offset 14, -4
 384 0002 82B0     		sub	sp, sp, #8
 385              		.cfi_def_cfa_offset 16
 386 0004 00AF     		add	r7, sp, #0
 387              		.cfi_def_cfa_register 7
 388 0006 021C     		mov	r2, r0
 389 0008 FB1D     		add	r3, r7, #7
 390 000a 1A70     		strb	r2, [r3]
  84:lib_Display/display.c ****     LCD_Position(1,14);
 391              		.loc 2 84 0
 392 000c 0120     		mov	r0, #1
 393 000e 0E21     		mov	r1, #14
 394 0010 FFF7FEFF 		bl	LCD_Position
  85:lib_Display/display.c ****     if(indicator == CONNECT)
 395              		.loc 2 85 0
 396 0014 FB1D     		add	r3, r7, #7
 397 0016 1B78     		ldrb	r3, [r3]
 398 0018 002B     		cmp	r3, #0
 399 001a 03D1     		bne	.L21
  86:lib_Display/display.c ****     {
  87:lib_Display/display.c ****         LCD_PutChar(LCD_CUSTOM_2);
 400              		.loc 2 87 0
 401 001c 0220     		mov	r0, #2
 402 001e FFF7FEFF 		bl	LCD_PutChar
 403 0022 02E0     		b	.L20
 404              	.L21:
  88:lib_Display/display.c ****     }
  89:lib_Display/display.c ****     else
  90:lib_Display/display.c ****     {
  91:lib_Display/display.c ****         LCD_PutChar(LCD_CUSTOM_3);
 405              		.loc 2 91 0
 406 0024 0320     		mov	r0, #3
 407 0026 FFF7FEFF 		bl	LCD_PutChar
 408              	.L20:
ARM GAS  C:\Users\Petro\AppData\Local\Temp\cc6ZLuiO.s 			page 20


  92:lib_Display/display.c ****     }
  93:lib_Display/display.c **** }
 409              		.loc 2 93 0
 410 002a BD46     		mov	sp, r7
 411 002c 02B0     		add	sp, sp, #8
 412              		@ sp needed
 413 002e 80BD     		pop	{r7, pc}
 414              		.cfi_endproc
 415              	.LFE66:
 416              		.size	DisplayIndicatorNetwork, .-DisplayIndicatorNetwork
 417              		.section	.rodata
 418 000b 00       		.align	2
 419              	.LC3:
 420 000c 2530326C 		.ascii	"%02lu:%02lu:%02lu      \000"
 420      753A2530 
 420      326C753A 
 420      2530326C 
 420      75202020 
 421              		.section	.text.DisplayRealTime,"ax",%progbits
 422              		.align	2
 423              		.global	DisplayRealTime
 424              		.code	16
 425              		.thumb_func
 426              		.type	DisplayRealTime, %function
 427              	DisplayRealTime:
 428              	.LFB67:
  94:lib_Display/display.c **** 
  95:lib_Display/display.c **** /*******************************************************************************
  96:lib_Display/display.c **** * Function name: DisplayPrintfRealTime
  97:lib_Display/display.c **** ********************************************************************************
  98:lib_Display/display.c **** *
  99:lib_Display/display.c **** * Summary:
 100:lib_Display/display.c **** *   print real time from position row = 1, column = 0
 101:lib_Display/display.c **** *
 102:lib_Display/display.c **** *******************************************************************************/
 103:lib_Display/display.c **** void DisplayRealTime(void)
 104:lib_Display/display.c **** {
 429              		.loc 2 104 0
 430              		.cfi_startproc
 431 0000 B0B5     		push	{r4, r5, r7, lr}
 432              		.cfi_def_cfa_offset 16
 433              		.cfi_offset 4, -16
 434              		.cfi_offset 5, -12
 435              		.cfi_offset 7, -8
 436              		.cfi_offset 14, -4
 437 0002 84B0     		sub	sp, sp, #16
 438              		.cfi_def_cfa_offset 32
 439 0004 02AF     		add	r7, sp, #8
 440              		.cfi_def_cfa 7, 24
 105:lib_Display/display.c ****     uint32_t time;
 106:lib_Display/display.c ****     
 107:lib_Display/display.c ****     time = RTC_GetTime();
 441              		.loc 2 107 0
 442 0006 FFF7FEFF 		bl	RTC_GetTime
 443 000a 031C     		mov	r3, r0
 444 000c 7B60     		str	r3, [r7, #4]
 108:lib_Display/display.c ****     if(RTC_GetAmPm(time) == RTC_AM)
ARM GAS  C:\Users\Petro\AppData\Local\Temp\cc6ZLuiO.s 			page 21


 445              		.loc 2 108 0
 446 000e 7B68     		ldr	r3, [r7, #4]
 447 0010 181C     		mov	r0, r3
 448 0012 FFF7FEFF 		bl	RTC_GetAmPm
 449 0016 031E     		sub	r3, r0, #0
 450 0018 18D1     		bne	.L24
 109:lib_Display/display.c ****     {
 110:lib_Display/display.c ****         sprintf(buff, "%02lu:%02lu:%02lu      ", RTC_GetHours(time),RTC_GetMinutes(time), RTC_GetSe
 451              		.loc 2 110 0
 452 001a 7B68     		ldr	r3, [r7, #4]
 453 001c 181C     		mov	r0, r3
 454 001e FFF7FEFF 		bl	RTC_GetHours
 455 0022 051C     		mov	r5, r0
 456 0024 7B68     		ldr	r3, [r7, #4]
 457 0026 181C     		mov	r0, r3
 458 0028 FFF7FEFF 		bl	RTC_GetMinutes
 459 002c 041C     		mov	r4, r0
 460 002e 7B68     		ldr	r3, [r7, #4]
 461 0030 181C     		mov	r0, r3
 462 0032 FFF7FEFF 		bl	RTC_GetSecond
 463 0036 011C     		mov	r1, r0
 464 0038 174A     		ldr	r2, .L26
 465 003a 184B     		ldr	r3, .L26+4
 466 003c 0091     		str	r1, [sp]
 467 003e 101C     		mov	r0, r2
 468 0040 191C     		mov	r1, r3
 469 0042 2A1C     		mov	r2, r5
 470 0044 231C     		mov	r3, r4
 471 0046 FFF7FEFF 		bl	sprintf
 472 004a 19E0     		b	.L25
 473              	.L24:
 111:lib_Display/display.c ****     }
 112:lib_Display/display.c ****     else
 113:lib_Display/display.c ****     {
 114:lib_Display/display.c ****         sprintf(buff, "%02lu:%02lu:%02lu      ", RTC_GetHours(time)+12,RTC_GetMinutes(time), RTC_Ge
 474              		.loc 2 114 0
 475 004c 7B68     		ldr	r3, [r7, #4]
 476 004e 181C     		mov	r0, r3
 477 0050 FFF7FEFF 		bl	RTC_GetHours
 478 0054 031C     		mov	r3, r0
 479 0056 0C33     		add	r3, r3, #12
 480 0058 1C1C     		mov	r4, r3
 481 005a 7B68     		ldr	r3, [r7, #4]
 482 005c 181C     		mov	r0, r3
 483 005e FFF7FEFF 		bl	RTC_GetMinutes
 484 0062 051C     		mov	r5, r0
 485 0064 7B68     		ldr	r3, [r7, #4]
 486 0066 181C     		mov	r0, r3
 487 0068 FFF7FEFF 		bl	RTC_GetSecond
 488 006c 011C     		mov	r1, r0
 489 006e 0A4A     		ldr	r2, .L26
 490 0070 0A4B     		ldr	r3, .L26+4
 491 0072 0091     		str	r1, [sp]
 492 0074 101C     		mov	r0, r2
 493 0076 191C     		mov	r1, r3
 494 0078 221C     		mov	r2, r4
 495 007a 2B1C     		mov	r3, r5
ARM GAS  C:\Users\Petro\AppData\Local\Temp\cc6ZLuiO.s 			page 22


 496 007c FFF7FEFF 		bl	sprintf
 497              	.L25:
 115:lib_Display/display.c ****     }
 116:lib_Display/display.c ****     LCD_Position(1,0);
 498              		.loc 2 116 0
 499 0080 0120     		mov	r0, #1
 500 0082 0021     		mov	r1, #0
 501 0084 FFF7FEFF 		bl	LCD_Position
 117:lib_Display/display.c ****     LCD_PrintString(buff);
 502              		.loc 2 117 0
 503 0088 034B     		ldr	r3, .L26
 504 008a 181C     		mov	r0, r3
 505 008c FFF7FEFF 		bl	LCD_PrintString
 118:lib_Display/display.c **** }
 506              		.loc 2 118 0
 507 0090 BD46     		mov	sp, r7
 508 0092 02B0     		add	sp, sp, #8
 509              		@ sp needed
 510 0094 B0BD     		pop	{r4, r5, r7, pc}
 511              	.L27:
 512 0096 C046     		.align	2
 513              	.L26:
 514 0098 04000000 		.word	buff
 515 009c 0C000000 		.word	.LC3
 516              		.cfi_endproc
 517              	.LFE67:
 518              		.size	DisplayRealTime, .-DisplayRealTime
 519              		.global	__aeabi_uidiv
 520              		.global	__aeabi_uidivmod
 521              		.section	.rodata
 522              		.align	2
 523              	.LC6:
 524 0024 52657375 		.ascii	"Result %02u:%02u:%03u\000"
 524      6C742025 
 524      3032753A 
 524      25303275 
 524      3A253033 
 525              		.section	.text.DisplayLastSkierTime,"ax",%progbits
 526              		.align	2
 527              		.global	DisplayLastSkierTime
 528              		.code	16
 529              		.thumb_func
 530              		.type	DisplayLastSkierTime, %function
 531              	DisplayLastSkierTime:
 532              	.LFB68:
 119:lib_Display/display.c **** 
 120:lib_Display/display.c **** /*******************************************************************************
 121:lib_Display/display.c **** * Function name: DisplayPrintLastTimeSkier
 122:lib_Display/display.c **** ********************************************************************************
 123:lib_Display/display.c **** *
 124:lib_Display/display.c **** * Summary:
 125:lib_Display/display.c **** *   print time last skier from position row = 1, column = 0
 126:lib_Display/display.c **** *
 127:lib_Display/display.c **** *******************************************************************************/
 128:lib_Display/display.c **** void DisplayLastSkierTime(uint32_t sec, uint16_t milisec)
 129:lib_Display/display.c **** {
 533              		.loc 2 129 0
ARM GAS  C:\Users\Petro\AppData\Local\Temp\cc6ZLuiO.s 			page 23


 534              		.cfi_startproc
 535 0000 B0B5     		push	{r4, r5, r7, lr}
 536              		.cfi_def_cfa_offset 16
 537              		.cfi_offset 4, -16
 538              		.cfi_offset 5, -12
 539              		.cfi_offset 7, -8
 540              		.cfi_offset 14, -4
 541 0002 84B0     		sub	sp, sp, #16
 542              		.cfi_def_cfa_offset 32
 543 0004 02AF     		add	r7, sp, #8
 544              		.cfi_def_cfa 7, 24
 545 0006 7860     		str	r0, [r7, #4]
 546 0008 0A1C     		mov	r2, r1
 547 000a BB1C     		add	r3, r7, #2
 548 000c 1A80     		strh	r2, [r3]
 130:lib_Display/display.c ****     /*printf time in format mm:ss:msmsms*/
 131:lib_Display/display.c ****     sprintf(buff, "Result %02u:%02u:%03u",sec/60,sec%60, milisec);
 549              		.loc 2 131 0
 550 000e 7B68     		ldr	r3, [r7, #4]
 551 0010 181C     		mov	r0, r3
 552 0012 3C21     		mov	r1, #60
 553 0014 FFF7FEFF 		bl	__aeabi_uidiv
 554 0018 031C     		mov	r3, r0
 555 001a 1D1C     		mov	r5, r3
 556 001c 7B68     		ldr	r3, [r7, #4]
 557 001e 181C     		mov	r0, r3
 558 0020 3C21     		mov	r1, #60
 559 0022 FFF7FEFF 		bl	__aeabi_uidivmod
 560 0026 0B1C     		mov	r3, r1
 561 0028 1C1C     		mov	r4, r3
 562 002a BB1C     		add	r3, r7, #2
 563 002c 1B88     		ldrh	r3, [r3]
 564 002e 0A49     		ldr	r1, .L29
 565 0030 0A4A     		ldr	r2, .L29+4
 566 0032 0093     		str	r3, [sp]
 567 0034 081C     		mov	r0, r1
 568 0036 111C     		mov	r1, r2
 569 0038 2A1C     		mov	r2, r5
 570 003a 231C     		mov	r3, r4
 571 003c FFF7FEFF 		bl	sprintf
 132:lib_Display/display.c ****     LCD_Position(0,0);
 572              		.loc 2 132 0
 573 0040 0020     		mov	r0, #0
 574 0042 0021     		mov	r1, #0
 575 0044 FFF7FEFF 		bl	LCD_Position
 133:lib_Display/display.c ****     LCD_PrintString(buff);
 576              		.loc 2 133 0
 577 0048 034B     		ldr	r3, .L29
 578 004a 181C     		mov	r0, r3
 579 004c FFF7FEFF 		bl	LCD_PrintString
 134:lib_Display/display.c **** }
 580              		.loc 2 134 0
 581 0050 BD46     		mov	sp, r7
 582 0052 02B0     		add	sp, sp, #8
 583              		@ sp needed
 584 0054 B0BD     		pop	{r4, r5, r7, pc}
 585              	.L30:
ARM GAS  C:\Users\Petro\AppData\Local\Temp\cc6ZLuiO.s 			page 24


 586 0056 C046     		.align	2
 587              	.L29:
 588 0058 04000000 		.word	buff
 589 005c 24000000 		.word	.LC6
 590              		.cfi_endproc
 591              	.LFE68:
 592              		.size	DisplayLastSkierTime, .-DisplayLastSkierTime
 593              		.section	.rodata
 594 003a 0000     		.align	2
 595              	.LC9:
 596 003c 25752F25 		.ascii	"%u/%u\000"
 596      7500
 597              		.section	.text.DisplayNumSkierOnWay,"ax",%progbits
 598              		.align	2
 599              		.global	DisplayNumSkierOnWay
 600              		.code	16
 601              		.thumb_func
 602              		.type	DisplayNumSkierOnWay, %function
 603              	DisplayNumSkierOnWay:
 604              	.LFB69:
 135:lib_Display/display.c **** 
 136:lib_Display/display.c **** /*******************************************************************************
 137:lib_Display/display.c **** * Function name: DisplayPrintNumSkierOnWay
 138:lib_Display/display.c **** ********************************************************************************
 139:lib_Display/display.c **** *
 140:lib_Display/display.c **** * Summary:
 141:lib_Display/display.c **** *   print number skier on way from position row = 1, column = 11
 142:lib_Display/display.c **** *
 143:lib_Display/display.c **** *******************************************************************************/
 144:lib_Display/display.c **** void DisplayNumSkierOnWay(uint32_t num)
 145:lib_Display/display.c **** {
 605              		.loc 2 145 0
 606              		.cfi_startproc
 607 0000 80B5     		push	{r7, lr}
 608              		.cfi_def_cfa_offset 8
 609              		.cfi_offset 7, -8
 610              		.cfi_offset 14, -4
 611 0002 82B0     		sub	sp, sp, #8
 612              		.cfi_def_cfa_offset 16
 613 0004 00AF     		add	r7, sp, #0
 614              		.cfi_def_cfa_register 7
 615 0006 7860     		str	r0, [r7, #4]
 146:lib_Display/display.c ****     sprintf(buff, "%u/%u", num, MAX_SKIERS_ON_WAY);
 616              		.loc 2 146 0
 617 0008 0949     		ldr	r1, .L32
 618 000a 0A4A     		ldr	r2, .L32+4
 619 000c 7B68     		ldr	r3, [r7, #4]
 620 000e 081C     		mov	r0, r1
 621 0010 111C     		mov	r1, r2
 622 0012 1A1C     		mov	r2, r3
 623 0014 0423     		mov	r3, #4
 624 0016 FFF7FEFF 		bl	sprintf
 147:lib_Display/display.c ****     LCD_Position(1,10);
 625              		.loc 2 147 0
 626 001a 0120     		mov	r0, #1
 627 001c 0A21     		mov	r1, #10
 628 001e FFF7FEFF 		bl	LCD_Position
ARM GAS  C:\Users\Petro\AppData\Local\Temp\cc6ZLuiO.s 			page 25


 148:lib_Display/display.c ****     LCD_PrintString(buff);
 629              		.loc 2 148 0
 630 0022 034B     		ldr	r3, .L32
 631 0024 181C     		mov	r0, r3
 632 0026 FFF7FEFF 		bl	LCD_PrintString
 149:lib_Display/display.c **** }
 633              		.loc 2 149 0
 634 002a BD46     		mov	sp, r7
 635 002c 02B0     		add	sp, sp, #8
 636              		@ sp needed
 637 002e 80BD     		pop	{r7, pc}
 638              	.L33:
 639              		.align	2
 640              	.L32:
 641 0030 04000000 		.word	buff
 642 0034 3C000000 		.word	.LC9
 643              		.cfi_endproc
 644              	.LFE69:
 645              		.size	DisplayNumSkierOnWay, .-DisplayNumSkierOnWay
 646              		.section	.rodata
 647 0042 0000     		.align	2
 648              	.LC11:
 649 0044 20202020 		.ascii	"             \000"
 649      20202020 
 649      20202020 
 649      2000
 650 0052 0000     		.section	.text.DisplayLoading,"ax",%progbits
 651              		.align	2
 652              		.global	DisplayLoading
 653              		.code	16
 654              		.thumb_func
 655              		.type	DisplayLoading, %function
 656              	DisplayLoading:
 657              	.LFB70:
 150:lib_Display/display.c **** 
 151:lib_Display/display.c **** 
 152:lib_Display/display.c **** /*******************************************************************************
 153:lib_Display/display.c **** * Function name: DisplayPrintfLoading
 154:lib_Display/display.c **** ********************************************************************************
 155:lib_Display/display.c **** *
 156:lib_Display/display.c **** * print loading from position row = 1, column = 0
 157:lib_Display/display.c **** *
 158:lib_Display/display.c **** *******************************************************************************/
 159:lib_Display/display.c **** void DisplayLoading(uint32_t numLoad)
 160:lib_Display/display.c **** {
 658              		.loc 2 160 0
 659              		.cfi_startproc
 660 0000 80B5     		push	{r7, lr}
 661              		.cfi_def_cfa_offset 8
 662              		.cfi_offset 7, -8
 663              		.cfi_offset 14, -4
 664 0002 82B0     		sub	sp, sp, #8
 665              		.cfi_def_cfa_offset 16
 666 0004 00AF     		add	r7, sp, #0
 667              		.cfi_def_cfa_register 7
 668 0006 7860     		str	r0, [r7, #4]
 161:lib_Display/display.c ****     if(numLoad == 0)
ARM GAS  C:\Users\Petro\AppData\Local\Temp\cc6ZLuiO.s 			page 26


 669              		.loc 2 161 0
 670 0008 7B68     		ldr	r3, [r7, #4]
 671 000a 002B     		cmp	r3, #0
 672 000c 07D1     		bne	.L35
 162:lib_Display/display.c ****     {
 163:lib_Display/display.c ****         /*clear row 1*/
 164:lib_Display/display.c ****         LCD_Position(1,0);
 673              		.loc 2 164 0
 674 000e 0120     		mov	r0, #1
 675 0010 0021     		mov	r1, #0
 676 0012 FFF7FEFF 		bl	LCD_Position
 165:lib_Display/display.c ****         LCD_PrintString("             ");
 677              		.loc 2 165 0
 678 0016 0C4B     		ldr	r3, .L37
 679 0018 181C     		mov	r0, r3
 680 001a FFF7FEFF 		bl	LCD_PrintString
 681              	.L35:
 166:lib_Display/display.c ****     }
 167:lib_Display/display.c ****     if((numLoad > 0) && numLoad < 16)
 682              		.loc 2 167 0
 683 001e 7B68     		ldr	r3, [r7, #4]
 684 0020 002B     		cmp	r3, #0
 685 0022 0DD0     		beq	.L34
 686              		.loc 2 167 0 is_stmt 0 discriminator 1
 687 0024 7B68     		ldr	r3, [r7, #4]
 688 0026 0F2B     		cmp	r3, #15
 689 0028 0AD8     		bhi	.L34
 168:lib_Display/display.c ****     {
 169:lib_Display/display.c ****         LCD_Position(1,numLoad-1);
 690              		.loc 2 169 0 is_stmt 1
 691 002a 7B68     		ldr	r3, [r7, #4]
 692 002c DBB2     		uxtb	r3, r3
 693 002e 013B     		sub	r3, r3, #1
 694 0030 DBB2     		uxtb	r3, r3
 695 0032 0120     		mov	r0, #1
 696 0034 191C     		mov	r1, r3
 697 0036 FFF7FEFF 		bl	LCD_Position
 170:lib_Display/display.c ****         LCD_PutChar(LCD_CUSTOM_4);
 698              		.loc 2 170 0
 699 003a 0420     		mov	r0, #4
 700 003c FFF7FEFF 		bl	LCD_PutChar
 701              	.L34:
 171:lib_Display/display.c ****     }
 172:lib_Display/display.c **** }
 702              		.loc 2 172 0
 703 0040 BD46     		mov	sp, r7
 704 0042 02B0     		add	sp, sp, #8
 705              		@ sp needed
 706 0044 80BD     		pop	{r7, pc}
 707              	.L38:
 708 0046 C046     		.align	2
 709              	.L37:
 710 0048 44000000 		.word	.LC11
 711              		.cfi_endproc
 712              	.LFE70:
 713              		.size	DisplayLoading, .-DisplayLoading
 714              		.text
ARM GAS  C:\Users\Petro\AppData\Local\Temp\cc6ZLuiO.s 			page 27


 715              	.Letext0:
 716              		.file 3 "c:\\program files (x86)\\cypress\\psoc creator\\4.0\\psoc creator\\import\\gnu\\arm\\4.9.
 717              		.file 4 "c:\\program files (x86)\\cypress\\psoc creator\\4.0\\psoc creator\\import\\gnu\\arm\\4.9.
 718              		.file 5 "Generated_Source\\PSoC4/cytypes.h"
 719              		.file 6 "./lib_Display\\display.h"
 720              		.file 7 "./debug.h"
 721              		.section	.debug_info,"",%progbits
 722              	.Ldebug_info0:
 723 0000 7F030000 		.4byte	0x37f
 724 0004 0400     		.2byte	0x4
 725 0006 00000000 		.4byte	.Ldebug_abbrev0
 726 000a 04       		.byte	0x4
 727 000b 01       		.uleb128 0x1
 728 000c 20010000 		.4byte	.LASF47
 729 0010 01       		.byte	0x1
 730 0011 7C000000 		.4byte	.LASF48
 731 0015 D0010000 		.4byte	.LASF49
 732 0019 00000000 		.4byte	.Ldebug_ranges0+0
 733 001d 00000000 		.4byte	0
 734 0021 00000000 		.4byte	.Ldebug_line0
 735 0025 02       		.uleb128 0x2
 736 0026 01       		.byte	0x1
 737 0027 06       		.byte	0x6
 738 0028 18030000 		.4byte	.LASF0
 739 002c 02       		.uleb128 0x2
 740 002d 01       		.byte	0x1
 741 002e 08       		.byte	0x8
 742 002f B5010000 		.4byte	.LASF1
 743 0033 02       		.uleb128 0x2
 744 0034 02       		.byte	0x2
 745 0035 05       		.byte	0x5
 746 0036 BC020000 		.4byte	.LASF2
 747 003a 03       		.uleb128 0x3
 748 003b D3000000 		.4byte	.LASF5
 749 003f 03       		.byte	0x3
 750 0040 2B       		.byte	0x2b
 751 0041 45000000 		.4byte	0x45
 752 0045 02       		.uleb128 0x2
 753 0046 02       		.byte	0x2
 754 0047 07       		.byte	0x7
 755 0048 AE000000 		.4byte	.LASF3
 756 004c 02       		.uleb128 0x2
 757 004d 04       		.byte	0x4
 758 004e 05       		.byte	0x5
 759 004f 03030000 		.4byte	.LASF4
 760 0053 03       		.uleb128 0x3
 761 0054 0D010000 		.4byte	.LASF6
 762 0058 03       		.byte	0x3
 763 0059 41       		.byte	0x41
 764 005a 5E000000 		.4byte	0x5e
 765 005e 02       		.uleb128 0x2
 766 005f 04       		.byte	0x4
 767 0060 07       		.byte	0x7
 768 0061 9C000000 		.4byte	.LASF7
 769 0065 02       		.uleb128 0x2
 770 0066 08       		.byte	0x8
 771 0067 05       		.byte	0x5
ARM GAS  C:\Users\Petro\AppData\Local\Temp\cc6ZLuiO.s 			page 28


 772 0068 79020000 		.4byte	.LASF8
 773 006c 02       		.uleb128 0x2
 774 006d 08       		.byte	0x8
 775 006e 07       		.byte	0x7
 776 006f 30020000 		.4byte	.LASF9
 777 0073 04       		.uleb128 0x4
 778 0074 04       		.byte	0x4
 779 0075 05       		.byte	0x5
 780 0076 696E7400 		.ascii	"int\000"
 781 007a 02       		.uleb128 0x2
 782 007b 04       		.byte	0x4
 783 007c 07       		.byte	0x7
 784 007d C3010000 		.4byte	.LASF10
 785 0081 03       		.uleb128 0x3
 786 0082 D4020000 		.4byte	.LASF11
 787 0086 04       		.byte	0x4
 788 0087 21       		.byte	0x21
 789 0088 3A000000 		.4byte	0x3a
 790 008c 03       		.uleb128 0x3
 791 008d FA020000 		.4byte	.LASF12
 792 0091 04       		.byte	0x4
 793 0092 2D       		.byte	0x2d
 794 0093 53000000 		.4byte	0x53
 795 0097 05       		.uleb128 0x5
 796 0098 AE010000 		.4byte	.LASF13
 797 009c 05       		.byte	0x5
 798 009d 9A01     		.2byte	0x19a
 799 009f 5E000000 		.4byte	0x5e
 800 00a3 02       		.uleb128 0x2
 801 00a4 04       		.byte	0x4
 802 00a5 04       		.byte	0x4
 803 00a6 76000000 		.4byte	.LASF14
 804 00aa 02       		.uleb128 0x2
 805 00ab 08       		.byte	0x8
 806 00ac 04       		.byte	0x4
 807 00ad DE000000 		.4byte	.LASF15
 808 00b1 02       		.uleb128 0x2
 809 00b2 01       		.byte	0x1
 810 00b3 08       		.byte	0x8
 811 00b4 87020000 		.4byte	.LASF16
 812 00b8 02       		.uleb128 0x2
 813 00b9 04       		.byte	0x4
 814 00ba 07       		.byte	0x7
 815 00bb 70020000 		.4byte	.LASF17
 816 00bf 06       		.uleb128 0x6
 817 00c0 04       		.byte	0x4
 818 00c1 B1000000 		.4byte	0xb1
 819 00c5 07       		.uleb128 0x7
 820 00c6 01       		.byte	0x1
 821 00c7 06       		.byte	0x6
 822 00c8 08       		.byte	0x8
 823 00c9 DA000000 		.4byte	0xda
 824 00cd 08       		.uleb128 0x8
 825 00ce 18000000 		.4byte	.LASF18
 826 00d2 00       		.sleb128 0
 827 00d3 08       		.uleb128 0x8
 828 00d4 27000000 		.4byte	.LASF19
ARM GAS  C:\Users\Petro\AppData\Local\Temp\cc6ZLuiO.s 			page 29


 829 00d8 01       		.sleb128 1
 830 00d9 00       		.byte	0
 831 00da 03       		.uleb128 0x3
 832 00db 45000000 		.4byte	.LASF20
 833 00df 06       		.byte	0x6
 834 00e0 08       		.byte	0x8
 835 00e1 C5000000 		.4byte	0xc5
 836 00e5 07       		.uleb128 0x7
 837 00e6 01       		.byte	0x1
 838 00e7 06       		.byte	0x6
 839 00e8 09       		.byte	0x9
 840 00e9 FA000000 		.4byte	0xfa
 841 00ed 08       		.uleb128 0x8
 842 00ee 63020000 		.4byte	.LASF21
 843 00f2 00       		.sleb128 0
 844 00f3 08       		.uleb128 0x8
 845 00f4 34000000 		.4byte	.LASF22
 846 00f8 01       		.sleb128 1
 847 00f9 00       		.byte	0
 848 00fa 03       		.uleb128 0x3
 849 00fb AB020000 		.4byte	.LASF23
 850 00ff 06       		.byte	0x6
 851 0100 09       		.byte	0x9
 852 0101 E5000000 		.4byte	0xe5
 853 0105 09       		.uleb128 0x9
 854 0106 47020000 		.4byte	.LASF25
 855 010a 01       		.byte	0x1
 856 010b BA01     		.2byte	0x1ba
 857 010d 97000000 		.4byte	0x97
 858 0111 00000000 		.4byte	.LFB2
 859 0115 24000000 		.4byte	.LFE2-.LFB2
 860 0119 01       		.uleb128 0x1
 861 011a 9C       		.byte	0x9c
 862 011b 3E010000 		.4byte	0x13e
 863 011f 0A       		.uleb128 0xa
 864 0120 76617200 		.ascii	"var\000"
 865 0124 01       		.byte	0x1
 866 0125 BA01     		.2byte	0x1ba
 867 0127 97000000 		.4byte	0x97
 868 012b 02       		.uleb128 0x2
 869 012c 91       		.byte	0x91
 870 012d 74       		.sleb128 -12
 871 012e 0B       		.uleb128 0xb
 872 012f 22000000 		.4byte	.LASF24
 873 0133 01       		.byte	0x1
 874 0134 BA01     		.2byte	0x1ba
 875 0136 97000000 		.4byte	0x97
 876 013a 02       		.uleb128 0x2
 877 013b 91       		.byte	0x91
 878 013c 70       		.sleb128 -16
 879 013d 00       		.byte	0
 880 013e 09       		.uleb128 0x9
 881 013f C6020000 		.4byte	.LASF26
 882 0143 01       		.byte	0x1
 883 0144 F101     		.2byte	0x1f1
 884 0146 97000000 		.4byte	0x97
 885 014a 00000000 		.4byte	.LFB4
ARM GAS  C:\Users\Petro\AppData\Local\Temp\cc6ZLuiO.s 			page 30


 886 014e 30000000 		.4byte	.LFE4-.LFB4
 887 0152 01       		.uleb128 0x1
 888 0153 9C       		.byte	0x9c
 889 0154 77010000 		.4byte	0x177
 890 0158 0B       		.uleb128 0xb
 891 0159 92000000 		.4byte	.LASF27
 892 015d 01       		.byte	0x1
 893 015e F101     		.2byte	0x1f1
 894 0160 97000000 		.4byte	0x97
 895 0164 02       		.uleb128 0x2
 896 0165 91       		.byte	0x91
 897 0166 6C       		.sleb128 -20
 898 0167 0C       		.uleb128 0xc
 899 0168 57000000 		.4byte	.LASF29
 900 016c 01       		.byte	0x1
 901 016d F301     		.2byte	0x1f3
 902 016f 97000000 		.4byte	0x97
 903 0173 02       		.uleb128 0x2
 904 0174 91       		.byte	0x91
 905 0175 74       		.sleb128 -12
 906 0176 00       		.byte	0
 907 0177 09       		.uleb128 0x9
 908 0178 54020000 		.4byte	.LASF28
 909 017c 01       		.byte	0x1
 910 017d 0B02     		.2byte	0x20b
 911 017f 97000000 		.4byte	0x97
 912 0183 00000000 		.4byte	.LFB5
 913 0187 36000000 		.4byte	.LFE5-.LFB5
 914 018b 01       		.uleb128 0x1
 915 018c 9C       		.byte	0x9c
 916 018d B0010000 		.4byte	0x1b0
 917 0191 0B       		.uleb128 0xb
 918 0192 92000000 		.4byte	.LASF27
 919 0196 01       		.byte	0x1
 920 0197 0B02     		.2byte	0x20b
 921 0199 97000000 		.4byte	0x97
 922 019d 02       		.uleb128 0x2
 923 019e 91       		.byte	0x91
 924 019f 6C       		.sleb128 -20
 925 01a0 0C       		.uleb128 0xc
 926 01a1 57000000 		.4byte	.LASF29
 927 01a5 01       		.byte	0x1
 928 01a6 0D02     		.2byte	0x20d
 929 01a8 97000000 		.4byte	0x97
 930 01ac 02       		.uleb128 0x2
 931 01ad 91       		.byte	0x91
 932 01ae 74       		.sleb128 -12
 933 01af 00       		.byte	0
 934 01b0 09       		.uleb128 0x9
 935 01b1 2C030000 		.4byte	.LASF30
 936 01b5 01       		.byte	0x1
 937 01b6 2402     		.2byte	0x224
 938 01b8 97000000 		.4byte	0x97
 939 01bc 00000000 		.4byte	.LFB6
 940 01c0 36000000 		.4byte	.LFE6-.LFB6
 941 01c4 01       		.uleb128 0x1
 942 01c5 9C       		.byte	0x9c
ARM GAS  C:\Users\Petro\AppData\Local\Temp\cc6ZLuiO.s 			page 31


 943 01c6 E9010000 		.4byte	0x1e9
 944 01ca 0B       		.uleb128 0xb
 945 01cb 92000000 		.4byte	.LASF27
 946 01cf 01       		.byte	0x1
 947 01d0 2402     		.2byte	0x224
 948 01d2 97000000 		.4byte	0x97
 949 01d6 02       		.uleb128 0x2
 950 01d7 91       		.byte	0x91
 951 01d8 6C       		.sleb128 -20
 952 01d9 0C       		.uleb128 0xc
 953 01da 57000000 		.4byte	.LASF29
 954 01de 01       		.byte	0x1
 955 01df 2602     		.2byte	0x226
 956 01e1 97000000 		.4byte	0x97
 957 01e5 02       		.uleb128 0x2
 958 01e6 91       		.byte	0x91
 959 01e7 74       		.sleb128 -12
 960 01e8 00       		.byte	0
 961 01e9 0D       		.uleb128 0xd
 962 01ea 0C030000 		.4byte	.LASF31
 963 01ee 01       		.byte	0x1
 964 01ef 3F02     		.2byte	0x23f
 965 01f1 97000000 		.4byte	0x97
 966 01f5 00000000 		.4byte	.LFB7
 967 01f9 20000000 		.4byte	.LFE7-.LFB7
 968 01fd 01       		.uleb128 0x1
 969 01fe 9C       		.byte	0x9c
 970 01ff 13020000 		.4byte	0x213
 971 0203 0B       		.uleb128 0xb
 972 0204 92000000 		.4byte	.LASF27
 973 0208 01       		.byte	0x1
 974 0209 3F02     		.2byte	0x23f
 975 020b 97000000 		.4byte	0x97
 976 020f 02       		.uleb128 0x2
 977 0210 91       		.byte	0x91
 978 0211 74       		.sleb128 -12
 979 0212 00       		.byte	0
 980 0213 0E       		.uleb128 0xe
 981 0214 C1000000 		.4byte	.LASF50
 982 0218 02       		.byte	0x2
 983 0219 17       		.byte	0x17
 984 021a 00000000 		.4byte	.LFB63
 985 021e 0C000000 		.4byte	.LFE63-.LFB63
 986 0222 01       		.uleb128 0x1
 987 0223 9C       		.byte	0x9c
 988 0224 0F       		.uleb128 0xf
 989 0225 DD020000 		.4byte	.LASF33
 990 0229 02       		.byte	0x2
 991 022a 2A       		.byte	0x2a
 992 022b 00000000 		.4byte	.LFB64
 993 022f 2C000000 		.4byte	.LFE64-.LFB64
 994 0233 01       		.uleb128 0x1
 995 0234 9C       		.byte	0x9c
 996 0235 48020000 		.4byte	0x248
 997 0239 10       		.uleb128 0x10
 998 023a 00000000 		.4byte	.LASF32
 999 023e 02       		.byte	0x2
ARM GAS  C:\Users\Petro\AppData\Local\Temp\cc6ZLuiO.s 			page 32


 1000 023f 2A       		.byte	0x2a
 1001 0240 BF000000 		.4byte	0xbf
 1002 0244 02       		.uleb128 0x2
 1003 0245 91       		.byte	0x91
 1004 0246 74       		.sleb128 -12
 1005 0247 00       		.byte	0
 1006 0248 0F       		.uleb128 0xf
 1007 0249 E5000000 		.4byte	.LASF34
 1008 024d 02       		.byte	0x2
 1009 024e 3B       		.byte	0x3b
 1010 024f 00000000 		.4byte	.LFB65
 1011 0253 30000000 		.4byte	.LFE65-.LFB65
 1012 0257 01       		.uleb128 0x1
 1013 0258 9C       		.byte	0x9c
 1014 0259 6C020000 		.4byte	0x26c
 1015 025d 10       		.uleb128 0x10
 1016 025e 08000000 		.4byte	.LASF35
 1017 0262 02       		.byte	0x2
 1018 0263 3B       		.byte	0x3b
 1019 0264 DA000000 		.4byte	0xda
 1020 0268 02       		.uleb128 0x2
 1021 0269 91       		.byte	0x91
 1022 026a 77       		.sleb128 -9
 1023 026b 00       		.byte	0
 1024 026c 0F       		.uleb128 0xf
 1025 026d 5E000000 		.4byte	.LASF36
 1026 0271 02       		.byte	0x2
 1027 0272 52       		.byte	0x52
 1028 0273 00000000 		.4byte	.LFB66
 1029 0277 30000000 		.4byte	.LFE66-.LFB66
 1030 027b 01       		.uleb128 0x1
 1031 027c 9C       		.byte	0x9c
 1032 027d 90020000 		.4byte	0x290
 1033 0281 10       		.uleb128 0x10
 1034 0282 08000000 		.4byte	.LASF35
 1035 0286 02       		.byte	0x2
 1036 0287 52       		.byte	0x52
 1037 0288 FA000000 		.4byte	0xfa
 1038 028c 02       		.uleb128 0x2
 1039 028d 91       		.byte	0x91
 1040 028e 77       		.sleb128 -9
 1041 028f 00       		.byte	0
 1042 0290 0F       		.uleb128 0xf
 1043 0291 8C020000 		.4byte	.LASF37
 1044 0295 02       		.byte	0x2
 1045 0296 67       		.byte	0x67
 1046 0297 00000000 		.4byte	.LFB67
 1047 029b A0000000 		.4byte	.LFE67-.LFB67
 1048 029f 01       		.uleb128 0x1
 1049 02a0 9C       		.byte	0x9c
 1050 02a1 B4020000 		.4byte	0x2b4
 1051 02a5 11       		.uleb128 0x11
 1052 02a6 6B020000 		.4byte	.LASF38
 1053 02aa 02       		.byte	0x2
 1054 02ab 69       		.byte	0x69
 1055 02ac 8C000000 		.4byte	0x8c
 1056 02b0 02       		.uleb128 0x2
ARM GAS  C:\Users\Petro\AppData\Local\Temp\cc6ZLuiO.s 			page 33


 1057 02b1 91       		.byte	0x91
 1058 02b2 6C       		.sleb128 -20
 1059 02b3 00       		.byte	0
 1060 02b4 0F       		.uleb128 0xf
 1061 02b5 E5020000 		.4byte	.LASF39
 1062 02b9 02       		.byte	0x2
 1063 02ba 80       		.byte	0x80
 1064 02bb 00000000 		.4byte	.LFB68
 1065 02bf 60000000 		.4byte	.LFE68-.LFB68
 1066 02c3 01       		.uleb128 0x1
 1067 02c4 9C       		.byte	0x9c
 1068 02c5 E6020000 		.4byte	0x2e6
 1069 02c9 12       		.uleb128 0x12
 1070 02ca 73656300 		.ascii	"sec\000"
 1071 02ce 02       		.byte	0x2
 1072 02cf 80       		.byte	0x80
 1073 02d0 8C000000 		.4byte	0x8c
 1074 02d4 02       		.uleb128 0x2
 1075 02d5 91       		.byte	0x91
 1076 02d6 6C       		.sleb128 -20
 1077 02d7 10       		.uleb128 0x10
 1078 02d8 18010000 		.4byte	.LASF40
 1079 02dc 02       		.byte	0x2
 1080 02dd 80       		.byte	0x80
 1081 02de 81000000 		.4byte	0x81
 1082 02e2 02       		.uleb128 0x2
 1083 02e3 91       		.byte	0x91
 1084 02e4 6A       		.sleb128 -22
 1085 02e5 00       		.byte	0
 1086 02e6 0F       		.uleb128 0xf
 1087 02e7 F8000000 		.4byte	.LASF41
 1088 02eb 02       		.byte	0x2
 1089 02ec 90       		.byte	0x90
 1090 02ed 00000000 		.4byte	.LFB69
 1091 02f1 38000000 		.4byte	.LFE69-.LFB69
 1092 02f5 01       		.uleb128 0x1
 1093 02f6 9C       		.byte	0x9c
 1094 02f7 0A030000 		.4byte	0x30a
 1095 02fb 12       		.uleb128 0x12
 1096 02fc 6E756D00 		.ascii	"num\000"
 1097 0300 02       		.byte	0x2
 1098 0301 90       		.byte	0x90
 1099 0302 8C000000 		.4byte	0x8c
 1100 0306 02       		.uleb128 0x2
 1101 0307 91       		.byte	0x91
 1102 0308 74       		.sleb128 -12
 1103 0309 00       		.byte	0
 1104 030a 0F       		.uleb128 0xf
 1105 030b 9C020000 		.4byte	.LASF42
 1106 030f 02       		.byte	0x2
 1107 0310 9F       		.byte	0x9f
 1108 0311 00000000 		.4byte	.LFB70
 1109 0315 4C000000 		.4byte	.LFE70-.LFB70
 1110 0319 01       		.uleb128 0x1
 1111 031a 9C       		.byte	0x9c
 1112 031b 2E030000 		.4byte	0x32e
 1113 031f 10       		.uleb128 0x10
ARM GAS  C:\Users\Petro\AppData\Local\Temp\cc6ZLuiO.s 			page 34


 1114 0320 24030000 		.4byte	.LASF43
 1115 0324 02       		.byte	0x2
 1116 0325 9F       		.byte	0x9f
 1117 0326 8C000000 		.4byte	0x8c
 1118 032a 02       		.uleb128 0x2
 1119 032b 91       		.byte	0x91
 1120 032c 74       		.sleb128 -12
 1121 032d 00       		.byte	0
 1122 032e 11       		.uleb128 0x11
 1123 032f 12000000 		.4byte	.LASF44
 1124 0333 07       		.byte	0x7
 1125 0334 04       		.byte	0x4
 1126 0335 81000000 		.4byte	0x81
 1127 0339 05       		.uleb128 0x5
 1128 033a 03       		.byte	0x3
 1129 033b 00000000 		.4byte	minMs
 1130 033f 11       		.uleb128 0x11
 1131 0340 51000000 		.4byte	.LASF45
 1132 0344 07       		.byte	0x7
 1133 0345 05       		.byte	0x5
 1134 0346 81000000 		.4byte	0x81
 1135 034a 05       		.uleb128 0x5
 1136 034b 03       		.byte	0x3
 1137 034c 02000000 		.4byte	maxMs
 1138 0350 13       		.uleb128 0x13
 1139 0351 B1000000 		.4byte	0xb1
 1140 0355 60030000 		.4byte	0x360
 1141 0359 14       		.uleb128 0x14
 1142 035a B8000000 		.4byte	0xb8
 1143 035e 63       		.byte	0x63
 1144 035f 00       		.byte	0
 1145 0360 11       		.uleb128 0x11
 1146 0361 CE000000 		.4byte	.LASF46
 1147 0365 02       		.byte	0x2
 1148 0366 0C       		.byte	0xc
 1149 0367 50030000 		.4byte	0x350
 1150 036b 05       		.uleb128 0x5
 1151 036c 03       		.byte	0x3
 1152 036d 04000000 		.4byte	buff
 1153 0371 15       		.uleb128 0x15
 1154 0372 3F000000 		.4byte	.LASF51
 1155 0376 07       		.byte	0x7
 1156 0377 06       		.byte	0x6
 1157 0378 81000000 		.4byte	0x81
 1158 037c 05       		.uleb128 0x5
 1159 037d 03       		.byte	0x3
 1160 037e 00000000 		.4byte	tmpMs
 1161 0382 00       		.byte	0
 1162              		.section	.debug_abbrev,"",%progbits
 1163              	.Ldebug_abbrev0:
 1164 0000 01       		.uleb128 0x1
 1165 0001 11       		.uleb128 0x11
 1166 0002 01       		.byte	0x1
 1167 0003 25       		.uleb128 0x25
 1168 0004 0E       		.uleb128 0xe
 1169 0005 13       		.uleb128 0x13
 1170 0006 0B       		.uleb128 0xb
ARM GAS  C:\Users\Petro\AppData\Local\Temp\cc6ZLuiO.s 			page 35


 1171 0007 03       		.uleb128 0x3
 1172 0008 0E       		.uleb128 0xe
 1173 0009 1B       		.uleb128 0x1b
 1174 000a 0E       		.uleb128 0xe
 1175 000b 55       		.uleb128 0x55
 1176 000c 17       		.uleb128 0x17
 1177 000d 11       		.uleb128 0x11
 1178 000e 01       		.uleb128 0x1
 1179 000f 10       		.uleb128 0x10
 1180 0010 17       		.uleb128 0x17
 1181 0011 00       		.byte	0
 1182 0012 00       		.byte	0
 1183 0013 02       		.uleb128 0x2
 1184 0014 24       		.uleb128 0x24
 1185 0015 00       		.byte	0
 1186 0016 0B       		.uleb128 0xb
 1187 0017 0B       		.uleb128 0xb
 1188 0018 3E       		.uleb128 0x3e
 1189 0019 0B       		.uleb128 0xb
 1190 001a 03       		.uleb128 0x3
 1191 001b 0E       		.uleb128 0xe
 1192 001c 00       		.byte	0
 1193 001d 00       		.byte	0
 1194 001e 03       		.uleb128 0x3
 1195 001f 16       		.uleb128 0x16
 1196 0020 00       		.byte	0
 1197 0021 03       		.uleb128 0x3
 1198 0022 0E       		.uleb128 0xe
 1199 0023 3A       		.uleb128 0x3a
 1200 0024 0B       		.uleb128 0xb
 1201 0025 3B       		.uleb128 0x3b
 1202 0026 0B       		.uleb128 0xb
 1203 0027 49       		.uleb128 0x49
 1204 0028 13       		.uleb128 0x13
 1205 0029 00       		.byte	0
 1206 002a 00       		.byte	0
 1207 002b 04       		.uleb128 0x4
 1208 002c 24       		.uleb128 0x24
 1209 002d 00       		.byte	0
 1210 002e 0B       		.uleb128 0xb
 1211 002f 0B       		.uleb128 0xb
 1212 0030 3E       		.uleb128 0x3e
 1213 0031 0B       		.uleb128 0xb
 1214 0032 03       		.uleb128 0x3
 1215 0033 08       		.uleb128 0x8
 1216 0034 00       		.byte	0
 1217 0035 00       		.byte	0
 1218 0036 05       		.uleb128 0x5
 1219 0037 16       		.uleb128 0x16
 1220 0038 00       		.byte	0
 1221 0039 03       		.uleb128 0x3
 1222 003a 0E       		.uleb128 0xe
 1223 003b 3A       		.uleb128 0x3a
 1224 003c 0B       		.uleb128 0xb
 1225 003d 3B       		.uleb128 0x3b
 1226 003e 05       		.uleb128 0x5
 1227 003f 49       		.uleb128 0x49
ARM GAS  C:\Users\Petro\AppData\Local\Temp\cc6ZLuiO.s 			page 36


 1228 0040 13       		.uleb128 0x13
 1229 0041 00       		.byte	0
 1230 0042 00       		.byte	0
 1231 0043 06       		.uleb128 0x6
 1232 0044 0F       		.uleb128 0xf
 1233 0045 00       		.byte	0
 1234 0046 0B       		.uleb128 0xb
 1235 0047 0B       		.uleb128 0xb
 1236 0048 49       		.uleb128 0x49
 1237 0049 13       		.uleb128 0x13
 1238 004a 00       		.byte	0
 1239 004b 00       		.byte	0
 1240 004c 07       		.uleb128 0x7
 1241 004d 04       		.uleb128 0x4
 1242 004e 01       		.byte	0x1
 1243 004f 0B       		.uleb128 0xb
 1244 0050 0B       		.uleb128 0xb
 1245 0051 3A       		.uleb128 0x3a
 1246 0052 0B       		.uleb128 0xb
 1247 0053 3B       		.uleb128 0x3b
 1248 0054 0B       		.uleb128 0xb
 1249 0055 01       		.uleb128 0x1
 1250 0056 13       		.uleb128 0x13
 1251 0057 00       		.byte	0
 1252 0058 00       		.byte	0
 1253 0059 08       		.uleb128 0x8
 1254 005a 28       		.uleb128 0x28
 1255 005b 00       		.byte	0
 1256 005c 03       		.uleb128 0x3
 1257 005d 0E       		.uleb128 0xe
 1258 005e 1C       		.uleb128 0x1c
 1259 005f 0D       		.uleb128 0xd
 1260 0060 00       		.byte	0
 1261 0061 00       		.byte	0
 1262 0062 09       		.uleb128 0x9
 1263 0063 2E       		.uleb128 0x2e
 1264 0064 01       		.byte	0x1
 1265 0065 03       		.uleb128 0x3
 1266 0066 0E       		.uleb128 0xe
 1267 0067 3A       		.uleb128 0x3a
 1268 0068 0B       		.uleb128 0xb
 1269 0069 3B       		.uleb128 0x3b
 1270 006a 05       		.uleb128 0x5
 1271 006b 27       		.uleb128 0x27
 1272 006c 19       		.uleb128 0x19
 1273 006d 49       		.uleb128 0x49
 1274 006e 13       		.uleb128 0x13
 1275 006f 11       		.uleb128 0x11
 1276 0070 01       		.uleb128 0x1
 1277 0071 12       		.uleb128 0x12
 1278 0072 06       		.uleb128 0x6
 1279 0073 40       		.uleb128 0x40
 1280 0074 18       		.uleb128 0x18
 1281 0075 9742     		.uleb128 0x2117
 1282 0077 19       		.uleb128 0x19
 1283 0078 01       		.uleb128 0x1
 1284 0079 13       		.uleb128 0x13
ARM GAS  C:\Users\Petro\AppData\Local\Temp\cc6ZLuiO.s 			page 37


 1285 007a 00       		.byte	0
 1286 007b 00       		.byte	0
 1287 007c 0A       		.uleb128 0xa
 1288 007d 05       		.uleb128 0x5
 1289 007e 00       		.byte	0
 1290 007f 03       		.uleb128 0x3
 1291 0080 08       		.uleb128 0x8
 1292 0081 3A       		.uleb128 0x3a
 1293 0082 0B       		.uleb128 0xb
 1294 0083 3B       		.uleb128 0x3b
 1295 0084 05       		.uleb128 0x5
 1296 0085 49       		.uleb128 0x49
 1297 0086 13       		.uleb128 0x13
 1298 0087 02       		.uleb128 0x2
 1299 0088 18       		.uleb128 0x18
 1300 0089 00       		.byte	0
 1301 008a 00       		.byte	0
 1302 008b 0B       		.uleb128 0xb
 1303 008c 05       		.uleb128 0x5
 1304 008d 00       		.byte	0
 1305 008e 03       		.uleb128 0x3
 1306 008f 0E       		.uleb128 0xe
 1307 0090 3A       		.uleb128 0x3a
 1308 0091 0B       		.uleb128 0xb
 1309 0092 3B       		.uleb128 0x3b
 1310 0093 05       		.uleb128 0x5
 1311 0094 49       		.uleb128 0x49
 1312 0095 13       		.uleb128 0x13
 1313 0096 02       		.uleb128 0x2
 1314 0097 18       		.uleb128 0x18
 1315 0098 00       		.byte	0
 1316 0099 00       		.byte	0
 1317 009a 0C       		.uleb128 0xc
 1318 009b 34       		.uleb128 0x34
 1319 009c 00       		.byte	0
 1320 009d 03       		.uleb128 0x3
 1321 009e 0E       		.uleb128 0xe
 1322 009f 3A       		.uleb128 0x3a
 1323 00a0 0B       		.uleb128 0xb
 1324 00a1 3B       		.uleb128 0x3b
 1325 00a2 05       		.uleb128 0x5
 1326 00a3 49       		.uleb128 0x49
 1327 00a4 13       		.uleb128 0x13
 1328 00a5 02       		.uleb128 0x2
 1329 00a6 18       		.uleb128 0x18
 1330 00a7 00       		.byte	0
 1331 00a8 00       		.byte	0
 1332 00a9 0D       		.uleb128 0xd
 1333 00aa 2E       		.uleb128 0x2e
 1334 00ab 01       		.byte	0x1
 1335 00ac 03       		.uleb128 0x3
 1336 00ad 0E       		.uleb128 0xe
 1337 00ae 3A       		.uleb128 0x3a
 1338 00af 0B       		.uleb128 0xb
 1339 00b0 3B       		.uleb128 0x3b
 1340 00b1 05       		.uleb128 0x5
 1341 00b2 27       		.uleb128 0x27
ARM GAS  C:\Users\Petro\AppData\Local\Temp\cc6ZLuiO.s 			page 38


 1342 00b3 19       		.uleb128 0x19
 1343 00b4 49       		.uleb128 0x49
 1344 00b5 13       		.uleb128 0x13
 1345 00b6 11       		.uleb128 0x11
 1346 00b7 01       		.uleb128 0x1
 1347 00b8 12       		.uleb128 0x12
 1348 00b9 06       		.uleb128 0x6
 1349 00ba 40       		.uleb128 0x40
 1350 00bb 18       		.uleb128 0x18
 1351 00bc 9642     		.uleb128 0x2116
 1352 00be 19       		.uleb128 0x19
 1353 00bf 01       		.uleb128 0x1
 1354 00c0 13       		.uleb128 0x13
 1355 00c1 00       		.byte	0
 1356 00c2 00       		.byte	0
 1357 00c3 0E       		.uleb128 0xe
 1358 00c4 2E       		.uleb128 0x2e
 1359 00c5 00       		.byte	0
 1360 00c6 3F       		.uleb128 0x3f
 1361 00c7 19       		.uleb128 0x19
 1362 00c8 03       		.uleb128 0x3
 1363 00c9 0E       		.uleb128 0xe
 1364 00ca 3A       		.uleb128 0x3a
 1365 00cb 0B       		.uleb128 0xb
 1366 00cc 3B       		.uleb128 0x3b
 1367 00cd 0B       		.uleb128 0xb
 1368 00ce 27       		.uleb128 0x27
 1369 00cf 19       		.uleb128 0x19
 1370 00d0 11       		.uleb128 0x11
 1371 00d1 01       		.uleb128 0x1
 1372 00d2 12       		.uleb128 0x12
 1373 00d3 06       		.uleb128 0x6
 1374 00d4 40       		.uleb128 0x40
 1375 00d5 18       		.uleb128 0x18
 1376 00d6 9642     		.uleb128 0x2116
 1377 00d8 19       		.uleb128 0x19
 1378 00d9 00       		.byte	0
 1379 00da 00       		.byte	0
 1380 00db 0F       		.uleb128 0xf
 1381 00dc 2E       		.uleb128 0x2e
 1382 00dd 01       		.byte	0x1
 1383 00de 3F       		.uleb128 0x3f
 1384 00df 19       		.uleb128 0x19
 1385 00e0 03       		.uleb128 0x3
 1386 00e1 0E       		.uleb128 0xe
 1387 00e2 3A       		.uleb128 0x3a
 1388 00e3 0B       		.uleb128 0xb
 1389 00e4 3B       		.uleb128 0x3b
 1390 00e5 0B       		.uleb128 0xb
 1391 00e6 27       		.uleb128 0x27
 1392 00e7 19       		.uleb128 0x19
 1393 00e8 11       		.uleb128 0x11
 1394 00e9 01       		.uleb128 0x1
 1395 00ea 12       		.uleb128 0x12
 1396 00eb 06       		.uleb128 0x6
 1397 00ec 40       		.uleb128 0x40
 1398 00ed 18       		.uleb128 0x18
ARM GAS  C:\Users\Petro\AppData\Local\Temp\cc6ZLuiO.s 			page 39


 1399 00ee 9642     		.uleb128 0x2116
 1400 00f0 19       		.uleb128 0x19
 1401 00f1 01       		.uleb128 0x1
 1402 00f2 13       		.uleb128 0x13
 1403 00f3 00       		.byte	0
 1404 00f4 00       		.byte	0
 1405 00f5 10       		.uleb128 0x10
 1406 00f6 05       		.uleb128 0x5
 1407 00f7 00       		.byte	0
 1408 00f8 03       		.uleb128 0x3
 1409 00f9 0E       		.uleb128 0xe
 1410 00fa 3A       		.uleb128 0x3a
 1411 00fb 0B       		.uleb128 0xb
 1412 00fc 3B       		.uleb128 0x3b
 1413 00fd 0B       		.uleb128 0xb
 1414 00fe 49       		.uleb128 0x49
 1415 00ff 13       		.uleb128 0x13
 1416 0100 02       		.uleb128 0x2
 1417 0101 18       		.uleb128 0x18
 1418 0102 00       		.byte	0
 1419 0103 00       		.byte	0
 1420 0104 11       		.uleb128 0x11
 1421 0105 34       		.uleb128 0x34
 1422 0106 00       		.byte	0
 1423 0107 03       		.uleb128 0x3
 1424 0108 0E       		.uleb128 0xe
 1425 0109 3A       		.uleb128 0x3a
 1426 010a 0B       		.uleb128 0xb
 1427 010b 3B       		.uleb128 0x3b
 1428 010c 0B       		.uleb128 0xb
 1429 010d 49       		.uleb128 0x49
 1430 010e 13       		.uleb128 0x13
 1431 010f 02       		.uleb128 0x2
 1432 0110 18       		.uleb128 0x18
 1433 0111 00       		.byte	0
 1434 0112 00       		.byte	0
 1435 0113 12       		.uleb128 0x12
 1436 0114 05       		.uleb128 0x5
 1437 0115 00       		.byte	0
 1438 0116 03       		.uleb128 0x3
 1439 0117 08       		.uleb128 0x8
 1440 0118 3A       		.uleb128 0x3a
 1441 0119 0B       		.uleb128 0xb
 1442 011a 3B       		.uleb128 0x3b
 1443 011b 0B       		.uleb128 0xb
 1444 011c 49       		.uleb128 0x49
 1445 011d 13       		.uleb128 0x13
 1446 011e 02       		.uleb128 0x2
 1447 011f 18       		.uleb128 0x18
 1448 0120 00       		.byte	0
 1449 0121 00       		.byte	0
 1450 0122 13       		.uleb128 0x13
 1451 0123 01       		.uleb128 0x1
 1452 0124 01       		.byte	0x1
 1453 0125 49       		.uleb128 0x49
 1454 0126 13       		.uleb128 0x13
 1455 0127 01       		.uleb128 0x1
ARM GAS  C:\Users\Petro\AppData\Local\Temp\cc6ZLuiO.s 			page 40


 1456 0128 13       		.uleb128 0x13
 1457 0129 00       		.byte	0
 1458 012a 00       		.byte	0
 1459 012b 14       		.uleb128 0x14
 1460 012c 21       		.uleb128 0x21
 1461 012d 00       		.byte	0
 1462 012e 49       		.uleb128 0x49
 1463 012f 13       		.uleb128 0x13
 1464 0130 2F       		.uleb128 0x2f
 1465 0131 0B       		.uleb128 0xb
 1466 0132 00       		.byte	0
 1467 0133 00       		.byte	0
 1468 0134 15       		.uleb128 0x15
 1469 0135 34       		.uleb128 0x34
 1470 0136 00       		.byte	0
 1471 0137 03       		.uleb128 0x3
 1472 0138 0E       		.uleb128 0xe
 1473 0139 3A       		.uleb128 0x3a
 1474 013a 0B       		.uleb128 0xb
 1475 013b 3B       		.uleb128 0x3b
 1476 013c 0B       		.uleb128 0xb
 1477 013d 49       		.uleb128 0x49
 1478 013e 13       		.uleb128 0x13
 1479 013f 3F       		.uleb128 0x3f
 1480 0140 19       		.uleb128 0x19
 1481 0141 02       		.uleb128 0x2
 1482 0142 18       		.uleb128 0x18
 1483 0143 00       		.byte	0
 1484 0144 00       		.byte	0
 1485 0145 00       		.byte	0
 1486              		.section	.debug_aranges,"",%progbits
 1487 0000 7C000000 		.4byte	0x7c
 1488 0004 0200     		.2byte	0x2
 1489 0006 00000000 		.4byte	.Ldebug_info0
 1490 000a 04       		.byte	0x4
 1491 000b 00       		.byte	0
 1492 000c 0000     		.2byte	0
 1493 000e 0000     		.2byte	0
 1494 0010 00000000 		.4byte	.LFB2
 1495 0014 24000000 		.4byte	.LFE2-.LFB2
 1496 0018 00000000 		.4byte	.LFB4
 1497 001c 30000000 		.4byte	.LFE4-.LFB4
 1498 0020 00000000 		.4byte	.LFB5
 1499 0024 36000000 		.4byte	.LFE5-.LFB5
 1500 0028 00000000 		.4byte	.LFB6
 1501 002c 36000000 		.4byte	.LFE6-.LFB6
 1502 0030 00000000 		.4byte	.LFB7
 1503 0034 20000000 		.4byte	.LFE7-.LFB7
 1504 0038 00000000 		.4byte	.LFB63
 1505 003c 0C000000 		.4byte	.LFE63-.LFB63
 1506 0040 00000000 		.4byte	.LFB64
 1507 0044 2C000000 		.4byte	.LFE64-.LFB64
 1508 0048 00000000 		.4byte	.LFB65
 1509 004c 30000000 		.4byte	.LFE65-.LFB65
 1510 0050 00000000 		.4byte	.LFB66
 1511 0054 30000000 		.4byte	.LFE66-.LFB66
 1512 0058 00000000 		.4byte	.LFB67
ARM GAS  C:\Users\Petro\AppData\Local\Temp\cc6ZLuiO.s 			page 41


 1513 005c A0000000 		.4byte	.LFE67-.LFB67
 1514 0060 00000000 		.4byte	.LFB68
 1515 0064 60000000 		.4byte	.LFE68-.LFB68
 1516 0068 00000000 		.4byte	.LFB69
 1517 006c 38000000 		.4byte	.LFE69-.LFB69
 1518 0070 00000000 		.4byte	.LFB70
 1519 0074 4C000000 		.4byte	.LFE70-.LFB70
 1520 0078 00000000 		.4byte	0
 1521 007c 00000000 		.4byte	0
 1522              		.section	.debug_ranges,"",%progbits
 1523              	.Ldebug_ranges0:
 1524 0000 00000000 		.4byte	.LFB2
 1525 0004 24000000 		.4byte	.LFE2
 1526 0008 00000000 		.4byte	.LFB4
 1527 000c 30000000 		.4byte	.LFE4
 1528 0010 00000000 		.4byte	.LFB5
 1529 0014 36000000 		.4byte	.LFE5
 1530 0018 00000000 		.4byte	.LFB6
 1531 001c 36000000 		.4byte	.LFE6
 1532 0020 00000000 		.4byte	.LFB7
 1533 0024 20000000 		.4byte	.LFE7
 1534 0028 00000000 		.4byte	.LFB63
 1535 002c 0C000000 		.4byte	.LFE63
 1536 0030 00000000 		.4byte	.LFB64
 1537 0034 2C000000 		.4byte	.LFE64
 1538 0038 00000000 		.4byte	.LFB65
 1539 003c 30000000 		.4byte	.LFE65
 1540 0040 00000000 		.4byte	.LFB66
 1541 0044 30000000 		.4byte	.LFE66
 1542 0048 00000000 		.4byte	.LFB67
 1543 004c A0000000 		.4byte	.LFE67
 1544 0050 00000000 		.4byte	.LFB68
 1545 0054 60000000 		.4byte	.LFE68
 1546 0058 00000000 		.4byte	.LFB69
 1547 005c 38000000 		.4byte	.LFE69
 1548 0060 00000000 		.4byte	.LFB70
 1549 0064 4C000000 		.4byte	.LFE70
 1550 0068 00000000 		.4byte	0
 1551 006c 00000000 		.4byte	0
 1552              		.section	.debug_line,"",%progbits
 1553              	.Ldebug_line0:
 1554 0000 AC020000 		.section	.debug_str,"MS",%progbits,1
 1554      02007901 
 1554      00000201 
 1554      FB0E0D00 
 1554      01010101 
 1555              	.LASF32:
 1556 0000 6D657373 		.ascii	"message\000"
 1556      61676500 
 1557              	.LASF35:
 1558 0008 696E6469 		.ascii	"indicator\000"
 1558      6361746F 
 1558      7200
 1559              	.LASF44:
 1560 0012 6D696E4D 		.ascii	"minMs\000"
 1560      7300
 1561              	.LASF18:
ARM GAS  C:\Users\Petro\AppData\Local\Temp\cc6ZLuiO.s 			page 42


 1562 0018 53445F49 		.ascii	"SD_INSERT\000"
 1562      4E534552 
 1562      5400
 1563              	.LASF24:
 1564 0022 6D61736B 		.ascii	"mask\000"
 1564      00
 1565              	.LASF19:
 1566 0027 53445F4E 		.ascii	"SD_NO_INSERT\000"
 1566      4F5F494E 
 1566      53455254 
 1566      00
 1567              	.LASF22:
 1568 0034 44495343 		.ascii	"DISCONNECT\000"
 1568      4F4E4E45 
 1568      435400
 1569              	.LASF51:
 1570 003f 746D704D 		.ascii	"tmpMs\000"
 1570      7300
 1571              	.LASF20:
 1572 0045 5344696E 		.ascii	"SDindicator\000"
 1572      64696361 
 1572      746F7200 
 1573              	.LASF45:
 1574 0051 6D61784D 		.ascii	"maxMs\000"
 1574      7300
 1575              	.LASF29:
 1576 0057 72657456 		.ascii	"retVal\000"
 1576      616C00
 1577              	.LASF36:
 1578 005e 44697370 		.ascii	"DisplayIndicatorNetwork\000"
 1578      6C617949 
 1578      6E646963 
 1578      61746F72 
 1578      4E657477 
 1579              	.LASF14:
 1580 0076 666C6F61 		.ascii	"float\000"
 1580      7400
 1581              	.LASF48:
 1582 007c 6C69625F 		.ascii	"lib_Display\\display.c\000"
 1582      44697370 
 1582      6C61795C 
 1582      64697370 
 1582      6C61792E 
 1583              	.LASF27:
 1584 0092 696E7075 		.ascii	"inputTime\000"
 1584      7454696D 
 1584      6500
 1585              	.LASF7:
 1586 009c 6C6F6E67 		.ascii	"long unsigned int\000"
 1586      20756E73 
 1586      69676E65 
 1586      6420696E 
 1586      7400
 1587              	.LASF3:
 1588 00ae 73686F72 		.ascii	"short unsigned int\000"
 1588      7420756E 
 1588      7369676E 
ARM GAS  C:\Users\Petro\AppData\Local\Temp\cc6ZLuiO.s 			page 43


 1588      65642069 
 1588      6E7400
 1589              	.LASF50:
 1590 00c1 44697370 		.ascii	"DisplayStart\000"
 1590      6C617953 
 1590      74617274 
 1590      00
 1591              	.LASF46:
 1592 00ce 62756666 		.ascii	"buff\000"
 1592      00
 1593              	.LASF5:
 1594 00d3 5F5F7569 		.ascii	"__uint16_t\000"
 1594      6E743136 
 1594      5F7400
 1595              	.LASF15:
 1596 00de 646F7562 		.ascii	"double\000"
 1596      6C6500
 1597              	.LASF34:
 1598 00e5 44697370 		.ascii	"DisplayIndicatorSD\000"
 1598      6C617949 
 1598      6E646963 
 1598      61746F72 
 1598      534400
 1599              	.LASF41:
 1600 00f8 44697370 		.ascii	"DisplayNumSkierOnWay\000"
 1600      6C61794E 
 1600      756D536B 
 1600      6965724F 
 1600      6E576179 
 1601              	.LASF6:
 1602 010d 5F5F7569 		.ascii	"__uint32_t\000"
 1602      6E743332 
 1602      5F7400
 1603              	.LASF40:
 1604 0118 6D696C69 		.ascii	"milisec\000"
 1604      73656300 
 1605              	.LASF47:
 1606 0120 474E5520 		.ascii	"GNU C 4.9.3 20150303 (release) [ARM/embedded-4_9-br"
 1606      4320342E 
 1606      392E3320 
 1606      32303135 
 1606      30333033 
 1607 0153 616E6368 		.ascii	"anch revision 221220] -mcpu=cortex-m0 -mthumb -g -O"
 1607      20726576 
 1607      6973696F 
 1607      6E203232 
 1607      31323230 
 1608 0186 30202D66 		.ascii	"0 -ffunction-sections -ffat-lto-objects\000"
 1608      66756E63 
 1608      74696F6E 
 1608      2D736563 
 1608      74696F6E 
 1609              	.LASF13:
 1610 01ae 75696E74 		.ascii	"uint32\000"
 1610      333200
 1611              	.LASF1:
 1612 01b5 756E7369 		.ascii	"unsigned char\000"
ARM GAS  C:\Users\Petro\AppData\Local\Temp\cc6ZLuiO.s 			page 44


 1612      676E6564 
 1612      20636861 
 1612      7200
 1613              	.LASF10:
 1614 01c3 756E7369 		.ascii	"unsigned int\000"
 1614      676E6564 
 1614      20696E74 
 1614      00
 1615              	.LASF49:
 1616 01d0 443A5C43 		.ascii	"D:\\Cypress\\system-start-finish\\vesion 2\\fw\\fin"
 1616      79707265 
 1616      73735C73 
 1616      79737465 
 1616      6D2D7374 
 1617 01fe 6973685C 		.ascii	"ish\\sandbox\\v4\\Finish(state machine)\\fin_v0.cyd"
 1617      73616E64 
 1617      626F785C 
 1617      76345C46 
 1617      696E6973 
 1618 022d 736E00   		.ascii	"sn\000"
 1619              	.LASF9:
 1620 0230 6C6F6E67 		.ascii	"long long unsigned int\000"
 1620      206C6F6E 
 1620      6720756E 
 1620      7369676E 
 1620      65642069 
 1621              	.LASF25:
 1622 0247 5254435F 		.ascii	"RTC_IsBitSet\000"
 1622      49734269 
 1622      74536574 
 1622      00
 1623              	.LASF28:
 1624 0254 5254435F 		.ascii	"RTC_GetMinutes\000"
 1624      4765744D 
 1624      696E7574 
 1624      657300
 1625              	.LASF21:
 1626 0263 434F4E4E 		.ascii	"CONNECT\000"
 1626      45435400 
 1627              	.LASF38:
 1628 026b 74696D65 		.ascii	"time\000"
 1628      00
 1629              	.LASF17:
 1630 0270 73697A65 		.ascii	"sizetype\000"
 1630      74797065 
 1630      00
 1631              	.LASF8:
 1632 0279 6C6F6E67 		.ascii	"long long int\000"
 1632      206C6F6E 
 1632      6720696E 
 1632      7400
 1633              	.LASF16:
 1634 0287 63686172 		.ascii	"char\000"
 1634      00
 1635              	.LASF37:
 1636 028c 44697370 		.ascii	"DisplayRealTime\000"
 1636      6C617952 
ARM GAS  C:\Users\Petro\AppData\Local\Temp\cc6ZLuiO.s 			page 45


 1636      65616C54 
 1636      696D6500 
 1637              	.LASF42:
 1638 029c 44697370 		.ascii	"DisplayLoading\000"
 1638      6C61794C 
 1638      6F616469 
 1638      6E6700
 1639              	.LASF23:
 1640 02ab 4E657477 		.ascii	"NetworkIndicator\000"
 1640      6F726B49 
 1640      6E646963 
 1640      61746F72 
 1640      00
 1641              	.LASF2:
 1642 02bc 73686F72 		.ascii	"short int\000"
 1642      7420696E 
 1642      7400
 1643              	.LASF26:
 1644 02c6 5254435F 		.ascii	"RTC_GetSecond\000"
 1644      47657453 
 1644      65636F6E 
 1644      6400
 1645              	.LASF11:
 1646 02d4 75696E74 		.ascii	"uint16_t\000"
 1646      31365F74 
 1646      00
 1647              	.LASF33:
 1648 02dd 44697370 		.ascii	"Display\000"
 1648      6C617900 
 1649              	.LASF39:
 1650 02e5 44697370 		.ascii	"DisplayLastSkierTime\000"
 1650      6C61794C 
 1650      61737453 
 1650      6B696572 
 1650      54696D65 
 1651              	.LASF12:
 1652 02fa 75696E74 		.ascii	"uint32_t\000"
 1652      33325F74 
 1652      00
 1653              	.LASF4:
 1654 0303 6C6F6E67 		.ascii	"long int\000"
 1654      20696E74 
 1654      00
 1655              	.LASF31:
 1656 030c 5254435F 		.ascii	"RTC_GetAmPm\000"
 1656      47657441 
 1656      6D506D00 
 1657              	.LASF0:
 1658 0318 7369676E 		.ascii	"signed char\000"
 1658      65642063 
 1658      68617200 
 1659              	.LASF43:
 1660 0324 6E756D4C 		.ascii	"numLoad\000"
 1660      6F616400 
 1661              	.LASF30:
 1662 032c 5254435F 		.ascii	"RTC_GetHours\000"
 1662      47657448 
ARM GAS  C:\Users\Petro\AppData\Local\Temp\cc6ZLuiO.s 			page 46


 1662      6F757273 
 1662      00
 1663              		.ident	"GCC: (GNU Tools for ARM Embedded Processors) 4.9.3 20150303 (release) [ARM/embedded-4_9-br
