ARM GAS  C:\Users\Petro\AppData\Local\Temp\ccKTSRUQ.s 			page 1


   1              		.cpu cortex-m0
   2              		.fpu softvfp
   3              		.eabi_attribute 20, 1
   4              		.eabi_attribute 21, 1
   5              		.eabi_attribute 23, 3
   6              		.eabi_attribute 24, 1
   7              		.eabi_attribute 25, 1
   8              		.eabi_attribute 26, 1
   9              		.eabi_attribute 30, 6
  10              		.eabi_attribute 34, 0
  11              		.eabi_attribute 18, 4
  12              		.code	16
  13              		.file	"main.c"
  14              		.text
  15              	.Ltext0:
  16              		.cfi_sections	.debug_frame
  17              		.bss
  18              		.align	1
  19              	minMs:
  20 0000 0000     		.space	2
  21              		.align	1
  22              	maxMs:
  23 0002 0000     		.space	2
  24              		.comm	tmpMs,2,2
  25              		.comm	currentState,1,1
  26              		.align	2
  27              	result:
  28 0004 00000000 		.space	4
  29              		.section	.text.main,"ax",%progbits
  30              		.align	2
  31              		.global	main
  32              		.code	16
  33              		.thumb_func
  34              		.type	main, %function
  35              	main:
  36              	.LFB63:
  37              		.file 1 "main.c"
   1:main.c        **** 
   2:main.c        **** #include "appGlobal.h"
   3:main.c        **** 
   4:main.c        **** 
   5:main.c        **** int main()
   6:main.c        **** {      
  38              		.loc 1 6 0
  39              		.cfi_startproc
  40 0000 80B5     		push	{r7, lr}
  41              		.cfi_def_cfa_offset 8
  42              		.cfi_offset 7, -8
  43              		.cfi_offset 14, -4
  44 0002 00AF     		add	r7, sp, #0
  45              		.cfi_def_cfa_register 7
   7:main.c        ****     while(SystemInit() == ERROR);
  46              		.loc 1 7 0
  47 0004 C046     		mov	r8, r8
  48              	.L2:
  49              		.loc 1 7 0 is_stmt 0 discriminator 1
  50 0006 FFF7FEFF 		bl	SystemInit
ARM GAS  C:\Users\Petro\AppData\Local\Temp\ccKTSRUQ.s 			page 2


  51 000a 031E     		sub	r3, r0, #0
  52 000c FBD0     		beq	.L2
   8:main.c        ****     SystemInit();
  53              		.loc 1 8 0 is_stmt 1
  54 000e FFF7FEFF 		bl	SystemInit
   9:main.c        ****     currentState = TIME_SYNC;
  55              		.loc 1 9 0
  56 0012 284B     		ldr	r3, .L15
  57 0014 0022     		mov	r2, #0
  58 0016 1A70     		strb	r2, [r3]
  59              	.L14:
  10:main.c        ****     
  11:main.c        ****     for(;;)
  12:main.c        ****     {
  13:main.c        ****         switch (currentState)
  60              		.loc 1 13 0
  61 0018 264B     		ldr	r3, .L15
  62 001a 1B78     		ldrb	r3, [r3]
  63 001c 012B     		cmp	r3, #1
  64 001e 16D0     		beq	.L4
  65 0020 02DC     		bgt	.L5
  66 0022 002B     		cmp	r3, #0
  67 0024 05D0     		beq	.L6
  68 0026 3FE0     		b	.L3
  69              	.L5:
  70 0028 022B     		cmp	r3, #2
  71 002a 26D0     		beq	.L7
  72 002c 032B     		cmp	r3, #3
  73 002e 35D0     		beq	.L8
  74 0030 3AE0     		b	.L3
  75              	.L6:
  14:main.c        ****         {
  15:main.c        ****             case TIME_SYNC:
  16:main.c        ****             {
  17:main.c        ****                 result = TimeSynchronize();
  76              		.loc 1 17 0
  77 0032 FFF7FEFF 		bl	TimeSynchronize
  78 0036 021C     		mov	r2, r0
  79 0038 1F4B     		ldr	r3, .L15+4
  80 003a 1A60     		str	r2, [r3]
  18:main.c        ****                 if(result == TIME_SYNC_OK)
  81              		.loc 1 18 0
  82 003c 1E4B     		ldr	r3, .L15+4
  83 003e 1B68     		ldr	r3, [r3]
  84 0040 002B     		cmp	r3, #0
  85 0042 03D1     		bne	.L9
  19:main.c        ****                 {
  20:main.c        ****                     currentState = READY;
  86              		.loc 1 20 0
  87 0044 1B4B     		ldr	r3, .L15
  88 0046 0122     		mov	r2, #1
  89 0048 1A70     		strb	r2, [r3]
  21:main.c        ****                 }
  22:main.c        ****                 break;
  90              		.loc 1 22 0
  91 004a 2DE0     		b	.L3
  92              	.L9:
ARM GAS  C:\Users\Petro\AppData\Local\Temp\ccKTSRUQ.s 			page 3


  93 004c 2CE0     		b	.L3
  94              	.L4:
  23:main.c        ****             }
  24:main.c        ****             case READY:
  25:main.c        ****             {
  26:main.c        ****                 result = CheckReady();
  95              		.loc 1 26 0
  96 004e FFF7FEFF 		bl	CheckReady
  97 0052 021C     		mov	r2, r0
  98 0054 184B     		ldr	r3, .L15+4
  99 0056 1A60     		str	r2, [r3]
  27:main.c        ****                 if(result == NO_ERROR)
 100              		.loc 1 27 0
 101 0058 174B     		ldr	r3, .L15+4
 102 005a 1B68     		ldr	r3, [r3]
 103 005c 012B     		cmp	r3, #1
 104 005e 03D1     		bne	.L10
  28:main.c        ****                 {
  29:main.c        ****                     currentState = CHECK_GATE;
 105              		.loc 1 29 0
 106 0060 144B     		ldr	r3, .L15
 107 0062 0222     		mov	r2, #2
 108 0064 1A70     		strb	r2, [r3]
 109 0066 07E0     		b	.L11
 110              	.L10:
  30:main.c        ****                 }
  31:main.c        ****                 else if(result == REBOOT)  
 111              		.loc 1 31 0
 112 0068 134B     		ldr	r3, .L15+4
 113 006a 1B68     		ldr	r3, [r3]
 114 006c FF2B     		cmp	r3, #255
 115 006e 03D1     		bne	.L11
  32:main.c        ****                 {
  33:main.c        ****                     currentState = TIME_SYNC;
 116              		.loc 1 33 0
 117 0070 104B     		ldr	r3, .L15
 118 0072 0022     		mov	r2, #0
 119 0074 1A70     		strb	r2, [r3]
  34:main.c        ****                 }
  35:main.c        ****                 break;
 120              		.loc 1 35 0
 121 0076 17E0     		b	.L3
 122              	.L11:
 123 0078 16E0     		b	.L3
 124              	.L7:
  36:main.c        ****             }
  37:main.c        ****             case CHECK_GATE:
  38:main.c        ****             {
  39:main.c        ****                 result = CheckGate();
 125              		.loc 1 39 0
 126 007a FFF7FEFF 		bl	CheckGate
 127 007e 021C     		mov	r2, r0
 128 0080 0D4B     		ldr	r3, .L15+4
 129 0082 1A60     		str	r2, [r3]
  40:main.c        ****                 if(result == GATE_OPEN)
 130              		.loc 1 40 0
 131 0084 0C4B     		ldr	r3, .L15+4
ARM GAS  C:\Users\Petro\AppData\Local\Temp\ccKTSRUQ.s 			page 4


 132 0086 1B68     		ldr	r3, [r3]
 133 0088 012B     		cmp	r3, #1
 134 008a 03D1     		bne	.L12
  41:main.c        ****                 {
  42:main.c        ****                     currentState = SAVE_RESULT;
 135              		.loc 1 42 0
 136 008c 094B     		ldr	r3, .L15
 137 008e 0322     		mov	r2, #3
 138 0090 1A70     		strb	r2, [r3]
  43:main.c        ****                 }
  44:main.c        ****                 else
  45:main.c        ****                 {
  46:main.c        ****                     currentState = READY;
  47:main.c        ****                 }
  48:main.c        ****                 break;
 139              		.loc 1 48 0
 140 0092 09E0     		b	.L3
 141              	.L12:
  46:main.c        ****                 }
 142              		.loc 1 46 0
 143 0094 074B     		ldr	r3, .L15
 144 0096 0122     		mov	r2, #1
 145 0098 1A70     		strb	r2, [r3]
 146              		.loc 1 48 0
 147 009a 05E0     		b	.L3
 148              	.L8:
  49:main.c        ****             }
  50:main.c        ****             case SAVE_RESULT:
  51:main.c        ****             {
  52:main.c        ****                 SaveResult();
 149              		.loc 1 52 0
 150 009c FFF7FEFF 		bl	SaveResult
  53:main.c        ****                 currentState = READY;
 151              		.loc 1 53 0
 152 00a0 044B     		ldr	r3, .L15
 153 00a2 0122     		mov	r2, #1
 154 00a4 1A70     		strb	r2, [r3]
  54:main.c        ****                 break;
 155              		.loc 1 54 0
 156 00a6 C046     		mov	r8, r8
 157              	.L3:
  55:main.c        ****             }            
  56:main.c        ****         }
  57:main.c        ****         MyDelay(TIMEOUT_DELAY);
 158              		.loc 1 57 0
 159 00a8 FA23     		mov	r3, #250
 160 00aa 5B00     		lsl	r3, r3, #1
 161 00ac 181C     		mov	r0, r3
 162 00ae FFF7FEFF 		bl	MyDelay
  58:main.c        ****     }
 163              		.loc 1 58 0
 164 00b2 B1E7     		b	.L14
 165              	.L16:
 166              		.align	2
 167              	.L15:
 168 00b4 00000000 		.word	currentState
 169 00b8 04000000 		.word	result
ARM GAS  C:\Users\Petro\AppData\Local\Temp\ccKTSRUQ.s 			page 5


 170              		.cfi_endproc
 171              	.LFE63:
 172              		.size	main, .-main
 173              		.section	.rodata
 174              		.align	2
 175              	.LC2:
 176 0000 53797374 		.ascii	"System init...\000"
 176      656D2069 
 176      6E69742E 
 176      2E2E00
 177 000f 00       		.align	2
 178              	.LC4:
 179 0010 506C6561 		.ascii	"Please insert SD\000"
 179      73652069 
 179      6E736572 
 179      74205344 
 179      00
 180 0021 000000   		.align	2
 181              	.LC6:
 182 0024 4572726F 		.ascii	"Error sync time\000"
 182      72207379 
 182      6E632074 
 182      696D6500 
 183              		.section	.text.SystemInit,"ax",%progbits
 184              		.align	2
 185              		.global	SystemInit
 186              		.code	16
 187              		.thumb_func
 188              		.type	SystemInit, %function
 189              	SystemInit:
 190              	.LFB64:
  59:main.c        **** }
  60:main.c        **** 
  61:main.c        **** 
  62:main.c        **** uint32_t SystemInit(void)
  63:main.c        **** {
 191              		.loc 1 63 0
 192              		.cfi_startproc
 193 0000 90B5     		push	{r4, r7, lr}
 194              		.cfi_def_cfa_offset 12
 195              		.cfi_offset 4, -12
 196              		.cfi_offset 7, -8
 197              		.cfi_offset 14, -4
 198 0002 85B0     		sub	sp, sp, #20
 199              		.cfi_def_cfa_offset 32
 200 0004 00AF     		add	r7, sp, #0
 201              		.cfi_def_cfa_register 7
  64:main.c        ****     uint32_t result;
  65:main.c        ****     uint64_t unixTime;
  66:main.c        ****         
  67:main.c        ****     SetRebootFlag();
 202              		.loc 1 67 0
 203 0006 FFF7FEFF 		bl	SetRebootFlag
  68:main.c        ****     LedInit();   
 204              		.loc 1 68 0
 205 000a FFF7FEFF 		bl	LedInit
  69:main.c        ****     DisplayStart();   
ARM GAS  C:\Users\Petro\AppData\Local\Temp\ccKTSRUQ.s 			page 6


 206              		.loc 1 69 0
 207 000e FFF7FEFF 		bl	DisplayStart
  70:main.c        ****     RTC_WDT_Init(); 
 208              		.loc 1 70 0
 209 0012 FFF7FEFF 		bl	RTC_WDT_Init
  71:main.c        ****     InitNetwork();
 210              		.loc 1 71 0
 211 0016 FFF7FEFF 		bl	InitNetwork
  72:main.c        ****     GateInit();
 212              		.loc 1 72 0
 213 001a FFF7FEFF 		bl	GateInit
  73:main.c        ****     InitBuff();
 214              		.loc 1 73 0
 215 001e FFF7FEFF 		bl	InitBuff
  74:main.c        **** 
  75:main.c        ****     /* Enable global interrupts */
  76:main.c        ****     CyGlobalIntEnable;
 216              		.loc 1 76 0
 217              	@ 76 "main.c" 1
 218 0022 62B6     		CPSIE   i
 219              	@ 0 "" 2
  77:main.c        ****     
  78:main.c        ****     /*set unix time in RTC DS1307*/
  79:main.c        ****     //DS1307_SetUnixTime(1476097337);
  80:main.c        ****     /*sync real time*/
  81:main.c        ****     unixTime = DS1307_GetUnixTime();
 220              		.loc 1 81 0
 221              		.code	16
 222 0024 FFF7FEFF 		bl	DS1307_GetUnixTime
 223 0028 031C     		mov	r3, r0
 224 002a 0C1C     		mov	r4, r1
 225 002c 3B60     		str	r3, [r7]
 226 002e 7C60     		str	r4, [r7, #4]
  82:main.c        ****     
  83:main.c        ****     if(unixTime > 0)
 227              		.loc 1 83 0
 228 0030 3B68     		ldr	r3, [r7]
 229 0032 7A68     		ldr	r2, [r7, #4]
 230 0034 1343     		orr	r3, r2
 231 0036 1DD0     		beq	.L18
  84:main.c        ****     {      
  85:main.c        ****         RTC_SetUnixTime(unixTime);
 232              		.loc 1 85 0
 233 0038 3B68     		ldr	r3, [r7]
 234 003a 7C68     		ldr	r4, [r7, #4]
 235 003c 181C     		mov	r0, r3
 236 003e 211C     		mov	r1, r4
 237 0040 FFF7FEFF 		bl	RTC_SetUnixTime
  86:main.c        ****         result = DataBaseStart();
 238              		.loc 1 86 0
 239 0044 FFF7FEFF 		bl	DataBaseStart
 240 0048 031C     		mov	r3, r0
 241 004a FB60     		str	r3, [r7, #12]
  87:main.c        ****         
  88:main.c        ****         if(result == DB_NO_ERROR)
 242              		.loc 1 88 0
 243 004c FB68     		ldr	r3, [r7, #12]
ARM GAS  C:\Users\Petro\AppData\Local\Temp\ccKTSRUQ.s 			page 7


 244 004e 012B     		cmp	r3, #1
 245 0050 06D1     		bne	.L20
  89:main.c        ****         {
  90:main.c        ****             Display("System init...");
 246              		.loc 1 90 0
 247 0052 0F4B     		ldr	r3, .L24
 248 0054 181C     		mov	r0, r3
 249 0056 FFF7FEFF 		bl	Display
  91:main.c        ****             result = NO_ERROR;
 250              		.loc 1 91 0
 251 005a 0123     		mov	r3, #1
 252 005c FB60     		str	r3, [r7, #12]
 253 005e 12E0     		b	.L22
 254              	.L20:
  92:main.c        ****         }
  93:main.c        ****         else
  94:main.c        ****         {
  95:main.c        ****             Display("Please insert SD");
 255              		.loc 1 95 0
 256 0060 0C4B     		ldr	r3, .L24+4
 257 0062 181C     		mov	r0, r3
 258 0064 FFF7FEFF 		bl	Display
  96:main.c        ****             result = ERROR;
 259              		.loc 1 96 0
 260 0068 0023     		mov	r3, #0
 261 006a FB60     		str	r3, [r7, #12]
  97:main.c        ****             SendFinStatus(FIN_NO_READY);
 262              		.loc 1 97 0
 263 006c 0020     		mov	r0, #0
 264 006e FFF7FEFF 		bl	SendFinStatus
 265 0072 08E0     		b	.L22
 266              	.L18:
  98:main.c        ****         }
  99:main.c        ****     }
 100:main.c        ****     else
 101:main.c        ****     {
 102:main.c        ****         Display("Error sync time");
 267              		.loc 1 102 0
 268 0074 084B     		ldr	r3, .L24+8
 269 0076 181C     		mov	r0, r3
 270 0078 FFF7FEFF 		bl	Display
 103:main.c        ****         result = ERROR;
 271              		.loc 1 103 0
 272 007c 0023     		mov	r3, #0
 273 007e FB60     		str	r3, [r7, #12]
 104:main.c        ****         SendFinStatus(FIN_NO_READY);
 274              		.loc 1 104 0
 275 0080 0020     		mov	r0, #0
 276 0082 FFF7FEFF 		bl	SendFinStatus
 277              	.L22:
 105:main.c        ****     }
 106:main.c        ****     
 107:main.c        ****     return result;    
 278              		.loc 1 107 0
 279 0086 FB68     		ldr	r3, [r7, #12]
 108:main.c        **** }
 280              		.loc 1 108 0
ARM GAS  C:\Users\Petro\AppData\Local\Temp\ccKTSRUQ.s 			page 8


 281 0088 181C     		mov	r0, r3
 282 008a BD46     		mov	sp, r7
 283 008c 05B0     		add	sp, sp, #20
 284              		@ sp needed
 285 008e 90BD     		pop	{r4, r7, pc}
 286              	.L25:
 287              		.align	2
 288              	.L24:
 289 0090 00000000 		.word	.LC2
 290 0094 10000000 		.word	.LC4
 291 0098 24000000 		.word	.LC6
 292              		.cfi_endproc
 293              	.LFE64:
 294              		.size	SystemInit, .-SystemInit
 295              		.section	.rodata
 296              		.align	2
 297              	.LC8:
 298 0034 4E657477 		.ascii	"Network conn...\000"
 298      6F726B20 
 298      636F6E6E 
 298      2E2E2E00 
 299              		.align	2
 300              	.LC10:
 301 0044 53796E63 		.ascii	"Sync time...\000"
 301      2074696D 
 301      652E2E2E 
 301      00
 302 0051 000000   		.align	2
 303              	.LC12:
 304 0054 53796E63 		.ascii	"Sync ok\000"
 304      206F6B00 
 305              		.align	2
 306              	.LC14:
 307 005c 53796E63 		.ascii	"Sync time error\000"
 307      2074696D 
 307      65206572 
 307      726F7200 
 308              		.section	.text.TimeSynchronize,"ax",%progbits
 309              		.align	2
 310              		.global	TimeSynchronize
 311              		.code	16
 312              		.thumb_func
 313              		.type	TimeSynchronize, %function
 314              	TimeSynchronize:
 315              	.LFB65:
 109:main.c        **** 
 110:main.c        **** uint32_t TimeSynchronize(void)
 111:main.c        **** {
 316              		.loc 1 111 0
 317              		.cfi_startproc
 318 0000 80B5     		push	{r7, lr}
 319              		.cfi_def_cfa_offset 8
 320              		.cfi_offset 7, -8
 321              		.cfi_offset 14, -4
 322 0002 82B0     		sub	sp, sp, #8
 323              		.cfi_def_cfa_offset 16
 324 0004 00AF     		add	r7, sp, #0
ARM GAS  C:\Users\Petro\AppData\Local\Temp\ccKTSRUQ.s 			page 9


 325              		.cfi_def_cfa_register 7
 112:main.c        ****     uint32_t result;
 113:main.c        ****     
 114:main.c        ****     LedBlink(FREQ_INIT_BLINK);
 326              		.loc 1 114 0
 327 0006 0A20     		mov	r0, #10
 328 0008 FFF7FEFF 		bl	LedBlink
 115:main.c        ****     
 116:main.c        ****     /* network connect */
 117:main.c        ****     if(NetworkStatus() == NETWORK_DISCONNECT)
 329              		.loc 1 117 0
 330 000c FFF7FEFF 		bl	NetworkStatus
 331 0010 031E     		sub	r3, r0, #0
 332 0012 09D1     		bne	.L27
 118:main.c        ****     {
 119:main.c        ****         Display("Network conn...");
 333              		.loc 1 119 0
 334 0014 184B     		ldr	r3, .L31
 335 0016 181C     		mov	r0, r3
 336 0018 FFF7FEFF 		bl	Display
 120:main.c        ****         MyDelay(TIMEOUT_DELAY);
 337              		.loc 1 120 0
 338 001c FA23     		mov	r3, #250
 339 001e 5B00     		lsl	r3, r3, #1
 340 0020 181C     		mov	r0, r3
 341 0022 FFF7FEFF 		bl	MyDelay
 342 0026 22E0     		b	.L28
 343              	.L27:
 121:main.c        ****     }
 122:main.c        ****     else
 123:main.c        ****     {  
 124:main.c        ****         /* time sync */
 125:main.c        ****         Display("Sync time...");
 344              		.loc 1 125 0
 345 0028 144B     		ldr	r3, .L31+4
 346 002a 181C     		mov	r0, r3
 347 002c FFF7FEFF 		bl	Display
 126:main.c        ****         if(NTPsync() == TIME_SYNC_OK)
 348              		.loc 1 126 0
 349 0030 FFF7FEFF 		bl	NTPsync
 350 0034 031E     		sub	r3, r0, #0
 351 0036 0DD1     		bne	.L29
 127:main.c        ****         {
 128:main.c        ****             Display("Sync ok");
 352              		.loc 1 128 0
 353 0038 114B     		ldr	r3, .L31+8
 354 003a 181C     		mov	r0, r3
 355 003c FFF7FEFF 		bl	Display
 129:main.c        ****             ClearRebootFlag();
 356              		.loc 1 129 0
 357 0040 FFF7FEFF 		bl	ClearRebootFlag
 130:main.c        ****             MyDelay(4 * TIMEOUT_USER_READ_INFO);
 358              		.loc 1 130 0
 359 0044 FA23     		mov	r3, #250
 360 0046 DB00     		lsl	r3, r3, #3
 361 0048 181C     		mov	r0, r3
 362 004a FFF7FEFF 		bl	MyDelay
ARM GAS  C:\Users\Petro\AppData\Local\Temp\ccKTSRUQ.s 			page 10


 131:main.c        ****             
 132:main.c        ****             result = TIME_SYNC_OK;
 363              		.loc 1 132 0
 364 004e 0023     		mov	r3, #0
 365 0050 7B60     		str	r3, [r7, #4]
 366 0052 0CE0     		b	.L28
 367              	.L29:
 133:main.c        ****         }
 134:main.c        ****         else
 135:main.c        ****         {
 136:main.c        ****             Display("Sync time error");
 368              		.loc 1 136 0
 369 0054 0B4B     		ldr	r3, .L31+12
 370 0056 181C     		mov	r0, r3
 371 0058 FFF7FEFF 		bl	Display
 137:main.c        ****             SetRebootFlag();
 372              		.loc 1 137 0
 373 005c FFF7FEFF 		bl	SetRebootFlag
 138:main.c        ****             MyDelay(4 * TIMEOUT_USER_READ_INFO);
 374              		.loc 1 138 0
 375 0060 FA23     		mov	r3, #250
 376 0062 DB00     		lsl	r3, r3, #3
 377 0064 181C     		mov	r0, r3
 378 0066 FFF7FEFF 		bl	MyDelay
 139:main.c        ****             
 140:main.c        ****             result = TIME_SYNC_ERR;
 379              		.loc 1 140 0
 380 006a 0123     		mov	r3, #1
 381 006c 7B60     		str	r3, [r7, #4]
 382              	.L28:
 141:main.c        ****         }
 142:main.c        ****     }
 143:main.c        ****     
 144:main.c        ****     return result;
 383              		.loc 1 144 0
 384 006e 7B68     		ldr	r3, [r7, #4]
 145:main.c        **** }
 385              		.loc 1 145 0
 386 0070 181C     		mov	r0, r3
 387 0072 BD46     		mov	sp, r7
 388 0074 02B0     		add	sp, sp, #8
 389              		@ sp needed
 390 0076 80BD     		pop	{r7, pc}
 391              	.L32:
 392              		.align	2
 393              	.L31:
 394 0078 34000000 		.word	.LC8
 395 007c 44000000 		.word	.LC10
 396 0080 54000000 		.word	.LC12
 397 0084 5C000000 		.word	.LC14
 398              		.cfi_endproc
 399              	.LFE65:
 400              		.size	TimeSynchronize, .-TimeSynchronize
 401              		.section	.rodata
 402              		.align	2
 403              	.LC16:
 404 006c 4572726F 		.ascii	"Error SD Card!\000"
ARM GAS  C:\Users\Petro\AppData\Local\Temp\ccKTSRUQ.s 			page 11


 404      72205344 
 404      20436172 
 404      642100
 405 007b 00       		.align	2
 406              	.LC18:
 407 007c 4D617820 		.ascii	"Max skier on way\000"
 407      736B6965 
 407      72206F6E 
 407      20776179 
 407      00
 408 008d 000000   		.align	2
 409              	.LC20:
 410 0090 46696E69 		.ascii	"Finish Ready\000"
 410      73682052 
 410      65616479 
 410      00
 411              		.section	.text.CheckReady,"ax",%progbits
 412              		.align	2
 413              		.global	CheckReady
 414              		.code	16
 415              		.thumb_func
 416              		.type	CheckReady, %function
 417              	CheckReady:
 418              	.LFB66:
 146:main.c        **** 
 147:main.c        **** 
 148:main.c        **** uint32_t CheckReady(void)
 149:main.c        **** {
 419              		.loc 1 149 0
 420              		.cfi_startproc
 421 0000 80B5     		push	{r7, lr}
 422              		.cfi_def_cfa_offset 8
 423              		.cfi_offset 7, -8
 424              		.cfi_offset 14, -4
 425 0002 82B0     		sub	sp, sp, #8
 426              		.cfi_def_cfa_offset 16
 427 0004 00AF     		add	r7, sp, #0
 428              		.cfi_def_cfa_register 7
 150:main.c        ****     uint32_t result;   
 151:main.c        ****  
 152:main.c        ****     /*sise FIFO*/
 153:main.c        ****     if ((FifoGetSize() >= MAX_SKIERS_ON_BUF/*main_db_buffer) */)&& (FifoGetSize() <= MAX_FIFO_SIZE)
 429              		.loc 1 153 0
 430 0006 FFF7FEFF 		bl	FifoGetSize
 431 000a 031E     		sub	r3, r0, #0
 432 000c 072B     		cmp	r3, #7
 433 000e 15D9     		bls	.L34
 434              		.loc 1 153 0 is_stmt 0 discriminator 1
 435 0010 FFF7FEFF 		bl	FifoGetSize
 436 0014 031E     		sub	r3, r0, #0
 437 0016 0C2B     		cmp	r3, #12
 438 0018 10D8     		bhi	.L34
 154:main.c        ****     {
 155:main.c        ****         /*skier finish successful*/
 156:main.c        ****         Display("Error SD Card!");
 439              		.loc 1 156 0 is_stmt 1
 440 001a 2D4B     		ldr	r3, .L43
ARM GAS  C:\Users\Petro\AppData\Local\Temp\ccKTSRUQ.s 			page 12


 441 001c 181C     		mov	r0, r3
 442 001e FFF7FEFF 		bl	Display
 157:main.c        ****         SendFinStatus(FIN_NO_READY); 
 443              		.loc 1 157 0
 444 0022 0020     		mov	r0, #0
 445 0024 FFF7FEFF 		bl	SendFinStatus
 158:main.c        ****         
 159:main.c        ****         if (SkierOnWay() != 0)
 446              		.loc 1 159 0
 447 0028 FFF7FEFF 		bl	SkierOnWay
 448 002c 031E     		sub	r3, r0, #0
 449 002e 02D0     		beq	.L35
 160:main.c        ****         {
 161:main.c        ****             /*if skiers on way*/
 162:main.c        ****             result = NO_ERROR;
 450              		.loc 1 162 0
 451 0030 0123     		mov	r3, #1
 452 0032 7B60     		str	r3, [r7, #4]
 159:main.c        ****         {
 453              		.loc 1 159 0
 454 0034 3FE0     		b	.L37
 455              	.L35:
 163:main.c        ****         }
 164:main.c        ****         else
 165:main.c        ****         {
 166:main.c        ****             /*if not skiers on way*/
 167:main.c        ****             result = ERROR;
 456              		.loc 1 167 0
 457 0036 0023     		mov	r3, #0
 458 0038 7B60     		str	r3, [r7, #4]
 159:main.c        ****         {
 459              		.loc 1 159 0
 460 003a 3CE0     		b	.L37
 461              	.L34:
 168:main.c        ****         }        
 169:main.c        ****     }
 170:main.c        ****     else if(FifoGetSize() > MAX_FIFO_SIZE)
 462              		.loc 1 170 0
 463 003c FFF7FEFF 		bl	FifoGetSize
 464 0040 031E     		sub	r3, r0, #0
 465 0042 0C2B     		cmp	r3, #12
 466 0044 09D9     		bls	.L38
 171:main.c        ****     {
 172:main.c        ****         /*skier finish no successful*/
 173:main.c        ****         Display("Error SD Card!");
 467              		.loc 1 173 0
 468 0046 224B     		ldr	r3, .L43
 469 0048 181C     		mov	r0, r3
 470 004a FFF7FEFF 		bl	Display
 174:main.c        ****         SendFinStatus(FIN_NO_READY); 
 471              		.loc 1 174 0
 472 004e 0020     		mov	r0, #0
 473 0050 FFF7FEFF 		bl	SendFinStatus
 175:main.c        ****         
 176:main.c        ****         result = ERROR;                
 474              		.loc 1 176 0
 475 0054 0023     		mov	r3, #0
ARM GAS  C:\Users\Petro\AppData\Local\Temp\ccKTSRUQ.s 			page 13


 476 0056 7B60     		str	r3, [r7, #4]
 477 0058 2DE0     		b	.L37
 478              	.L38:
 177:main.c        ****     }
 178:main.c        ****     else if(SkierOnWay() >= MAX_SKIERS_ON_WAY/*MAX_COUNT, TRACK_OVERFLOW*/)
 479              		.loc 1 178 0
 480 005a FFF7FEFF 		bl	SkierOnWay
 481 005e 031E     		sub	r3, r0, #0
 482 0060 032B     		cmp	r3, #3
 483 0062 0ED9     		bls	.L39
 179:main.c        ****     {
 180:main.c        ****         /*max skier on way*/
 181:main.c        ****      
 182:main.c        ****         Display("Max skier on way");
 484              		.loc 1 182 0
 485 0064 1B4B     		ldr	r3, .L43+4
 486 0066 181C     		mov	r0, r3
 487 0068 FFF7FEFF 		bl	Display
 183:main.c        ****         SendFinStatus(FIN_NO_READY);
 488              		.loc 1 183 0
 489 006c 0020     		mov	r0, #0
 490 006e FFF7FEFF 		bl	SendFinStatus
 184:main.c        ****         MyDelay(TIMEOUT_USER_READ_INFO);
 491              		.loc 1 184 0
 492 0072 FA23     		mov	r3, #250
 493 0074 5B00     		lsl	r3, r3, #1
 494 0076 181C     		mov	r0, r3
 495 0078 FFF7FEFF 		bl	MyDelay
 185:main.c        ****         
 186:main.c        ****         result = NO_ERROR;      
 496              		.loc 1 186 0
 497 007c 0123     		mov	r3, #1
 498 007e 7B60     		str	r3, [r7, #4]
 499 0080 19E0     		b	.L37
 500              	.L39:
 187:main.c        ****     }
 188:main.c        ****     else if(SkierOnWay() == 0)
 501              		.loc 1 188 0
 502 0082 FFF7FEFF 		bl	SkierOnWay
 503 0086 031E     		sub	r3, r0, #0
 504 0088 0CD1     		bne	.L40
 189:main.c        ****     {
 190:main.c        ****         Display("Finish Ready");
 505              		.loc 1 190 0
 506 008a 134B     		ldr	r3, .L43+8
 507 008c 181C     		mov	r0, r3
 508 008e FFF7FEFF 		bl	Display
 191:main.c        ****         SendFinStatus(FIN_READY);
 509              		.loc 1 191 0
 510 0092 0120     		mov	r0, #1
 511 0094 FFF7FEFF 		bl	SendFinStatus
 192:main.c        ****         SetLedState(LED_DISABLE);        
 512              		.loc 1 192 0
 513 0098 0020     		mov	r0, #0
 514 009a FFF7FEFF 		bl	SetLedState
 193:main.c        ****         
 194:main.c        ****         result = ERROR;      
ARM GAS  C:\Users\Petro\AppData\Local\Temp\ccKTSRUQ.s 			page 14


 515              		.loc 1 194 0
 516 009e 0023     		mov	r3, #0
 517 00a0 7B60     		str	r3, [r7, #4]
 518 00a2 08E0     		b	.L37
 519              	.L40:
 195:main.c        ****     }
 196:main.c        ****     else
 197:main.c        ****     {
 198:main.c        ****         /*finish ready*/
 199:main.c        ****         SendFinStatus(FIN_READY);
 520              		.loc 1 199 0
 521 00a4 0120     		mov	r0, #1
 522 00a6 FFF7FEFF 		bl	SendFinStatus
 200:main.c        ****         Display("Finish Ready");
 523              		.loc 1 200 0
 524 00aa 0B4B     		ldr	r3, .L43+8
 525 00ac 181C     		mov	r0, r3
 526 00ae FFF7FEFF 		bl	Display
 201:main.c        ****         
 202:main.c        ****         result = NO_ERROR;
 527              		.loc 1 202 0
 528 00b2 0123     		mov	r3, #1
 529 00b4 7B60     		str	r3, [r7, #4]
 530              	.L37:
 203:main.c        ****     }
 204:main.c        ****     
 205:main.c        ****     //if(ReadRebootStartFlag() == REBOOT/*IS*/)
 206:main.c        ****     if(IsRebootStartFlag() == REBOOT)
 531              		.loc 1 206 0
 532 00b6 FFF7FEFF 		bl	IsRebootStartFlag
 533 00ba 031E     		sub	r3, r0, #0
 534 00bc FF2B     		cmp	r3, #255
 535 00be 01D1     		bne	.L41
 207:main.c        ****     {
 208:main.c        ****         result = REBOOT;
 536              		.loc 1 208 0
 537 00c0 FF23     		mov	r3, #255
 538 00c2 7B60     		str	r3, [r7, #4]
 539              	.L41:
 209:main.c        ****     }
 210:main.c        ****        
 211:main.c        ****     return result;
 540              		.loc 1 211 0
 541 00c4 7B68     		ldr	r3, [r7, #4]
 212:main.c        **** }
 542              		.loc 1 212 0
 543 00c6 181C     		mov	r0, r3
 544 00c8 BD46     		mov	sp, r7
 545 00ca 02B0     		add	sp, sp, #8
 546              		@ sp needed
 547 00cc 80BD     		pop	{r7, pc}
 548              	.L44:
 549 00ce C046     		.align	2
 550              	.L43:
 551 00d0 6C000000 		.word	.LC16
 552 00d4 7C000000 		.word	.LC18
 553 00d8 90000000 		.word	.LC20
ARM GAS  C:\Users\Petro\AppData\Local\Temp\ccKTSRUQ.s 			page 15


 554              		.cfi_endproc
 555              	.LFE66:
 556              		.size	CheckReady, .-CheckReady
 557              		.section	.rodata
 558 009d 000000   		.align	2
 559              	.LC22:
 560 00a0 536B6965 		.ascii	"Skier Finished\000"
 560      72204669 
 560      6E697368 
 560      656400
 561              		.section	.text.CheckGate,"ax",%progbits
 562              		.align	2
 563              		.global	CheckGate
 564              		.code	16
 565              		.thumb_func
 566              		.type	CheckGate, %function
 567              	CheckGate:
 568              	.LFB67:
 213:main.c        **** 
 214:main.c        **** uint32_t CheckGate(void)
 215:main.c        **** {
 569              		.loc 1 215 0
 570              		.cfi_startproc
 571 0000 80B5     		push	{r7, lr}
 572              		.cfi_def_cfa_offset 8
 573              		.cfi_offset 7, -8
 574              		.cfi_offset 14, -4
 575 0002 82B0     		sub	sp, sp, #8
 576              		.cfi_def_cfa_offset 16
 577 0004 00AF     		add	r7, sp, #0
 578              		.cfi_def_cfa_register 7
 216:main.c        ****     uint32_t result;
 217:main.c        ****     
 218:main.c        ****     SetLedState(LED_ENABLE);
 579              		.loc 1 218 0
 580 0006 0120     		mov	r0, #1
 581 0008 FFF7FEFF 		bl	SetLedState
 219:main.c        ****     result = GateIsOpen();/*IsGateOpen(), CheckGateStatus()*/
 582              		.loc 1 219 0
 583 000c FFF7FEFF 		bl	GateIsOpen
 584 0010 031C     		mov	r3, r0
 585 0012 7B60     		str	r3, [r7, #4]
 220:main.c        ****     
 221:main.c        ****     if(result == GATE_OPEN)
 586              		.loc 1 221 0
 587 0014 7B68     		ldr	r3, [r7, #4]
 588 0016 012B     		cmp	r3, #1
 589 0018 09D1     		bne	.L46
 222:main.c        ****     {
 223:main.c        ****         Display("Skier Finished");
 590              		.loc 1 223 0
 591 001a 084B     		ldr	r3, .L49
 592 001c 181C     		mov	r0, r3
 593 001e FFF7FEFF 		bl	Display
 224:main.c        ****         MyDelay(TIMEOUT_USER_READ_INFO);
 594              		.loc 1 224 0
 595 0022 FA23     		mov	r3, #250
ARM GAS  C:\Users\Petro\AppData\Local\Temp\ccKTSRUQ.s 			page 16


 596 0024 5B00     		lsl	r3, r3, #1
 597 0026 181C     		mov	r0, r3
 598 0028 FFF7FEFF 		bl	MyDelay
 599 002c 01E0     		b	.L47
 600              	.L46:
 225:main.c        ****     }
 226:main.c        ****     else
 227:main.c        ****     {
 228:main.c        ****         AllowNextSkier();
 601              		.loc 1 228 0
 602 002e FFF7FEFF 		bl	AllowNextSkier
 603              	.L47:
 229:main.c        ****     }
 230:main.c        ****     
 231:main.c        ****     return result;  
 604              		.loc 1 231 0
 605 0032 7B68     		ldr	r3, [r7, #4]
 232:main.c        **** }
 606              		.loc 1 232 0
 607 0034 181C     		mov	r0, r3
 608 0036 BD46     		mov	sp, r7
 609 0038 02B0     		add	sp, sp, #8
 610              		@ sp needed
 611 003a 80BD     		pop	{r7, pc}
 612              	.L50:
 613              		.align	2
 614              	.L49:
 615 003c A0000000 		.word	.LC22
 616              		.cfi_endproc
 617              	.LFE67:
 618              		.size	CheckGate, .-CheckGate
 619              		.section	.rodata
 620 00af 00       		.align	2
 621              	.LC24:
 622 00b0 53617665 		.ascii	"Save data\000"
 622      20646174 
 622      6100
 623 00ba 0000     		.section	.text.SaveResult,"ax",%progbits
 624              		.align	2
 625              		.global	SaveResult
 626              		.code	16
 627              		.thumb_func
 628              		.type	SaveResult, %function
 629              	SaveResult:
 630              	.LFB68:
 233:main.c        **** 
 234:main.c        **** void SaveResult(void)
 235:main.c        **** {
 631              		.loc 1 235 0
 632              		.cfi_startproc
 633 0000 90B5     		push	{r4, r7, lr}
 634              		.cfi_def_cfa_offset 12
 635              		.cfi_offset 4, -12
 636              		.cfi_offset 7, -8
 637              		.cfi_offset 14, -4
 638 0002 85B0     		sub	sp, sp, #20
 639              		.cfi_def_cfa_offset 32
ARM GAS  C:\Users\Petro\AppData\Local\Temp\ccKTSRUQ.s 			page 17


 640 0004 00AF     		add	r7, sp, #0
 641              		.cfi_def_cfa_register 7
 236:main.c        ****     uint64_t finUnixTime;
 237:main.c        ****     uint32_t finRecentMs;
 238:main.c        ****     
 239:main.c        ****     SendFinStatus(FIN_READY);
 642              		.loc 1 239 0
 643 0006 0120     		mov	r0, #1
 644 0008 FFF7FEFF 		bl	SendFinStatus
 240:main.c        ****     LedBlink(FREQ_INIT_BLINK);
 645              		.loc 1 240 0
 646 000c 0A20     		mov	r0, #10
 647 000e FFF7FEFF 		bl	LedBlink
 241:main.c        ****     Display("Save data");
 648              		.loc 1 241 0
 649 0012 164B     		ldr	r3, .L52
 650 0014 181C     		mov	r0, r3
 651 0016 FFF7FEFF 		bl	Display
 242:main.c        ****     MyDelay(TIMEOUT_USER_READ_INFO);
 652              		.loc 1 242 0
 653 001a FA23     		mov	r3, #250
 654 001c 5B00     		lsl	r3, r3, #1
 655 001e 181C     		mov	r0, r3
 656 0020 FFF7FEFF 		bl	MyDelay
 243:main.c        ****     
 244:main.c        ****     /*write time in fifo*/
 245:main.c        ****     GetFinTime(&finUnixTime, &finRecentMs);
 657              		.loc 1 245 0
 658 0024 0823     		mov	r3, #8
 659 0026 FA18     		add	r2, r7, r3
 660 0028 3B1D     		add	r3, r7, #4
 661 002a 101C     		mov	r0, r2
 662 002c 191C     		mov	r1, r3
 663 002e FFF7FEFF 		bl	GetFinTime
 246:main.c        ****     WriteFinishTime(finUnixTime,finRecentMs);
 664              		.loc 1 246 0
 665 0032 BB68     		ldr	r3, [r7, #8]
 666 0034 FC68     		ldr	r4, [r7, #12]
 667 0036 7A68     		ldr	r2, [r7, #4]
 668 0038 92B2     		uxth	r2, r2
 669 003a 181C     		mov	r0, r3
 670 003c 211C     		mov	r1, r4
 671 003e FFF7FEFF 		bl	WriteFinishTime
 247:main.c        ****     
 248:main.c        ****     FifoPushLastFinished();
 672              		.loc 1 248 0
 673 0042 FFF7FEFF 		bl	FifoPushLastFinished
 249:main.c        ****     
 250:main.c        ****     /*print time result last skier finished*/
 251:main.c        ****     DisplayLastSkierTime(LastSecTimeOnWay(),LastMillsTimeOnWay());/*LastTimeOnWaySecs(), LastTimeOn
 674              		.loc 1 251 0
 675 0046 FFF7FEFF 		bl	LastSecTimeOnWay
 676 004a 041C     		mov	r4, r0
 677 004c FFF7FEFF 		bl	LastMillsTimeOnWay
 678 0050 031C     		mov	r3, r0
 679 0052 9BB2     		uxth	r3, r3
 680 0054 201C     		mov	r0, r4
ARM GAS  C:\Users\Petro\AppData\Local\Temp\ccKTSRUQ.s 			page 18


 681 0056 191C     		mov	r1, r3
 682 0058 FFF7FEFF 		bl	DisplayLastSkierTime
 252:main.c        ****     MyDelay(2*TIMEOUT_USER_READ_INFO);
 683              		.loc 1 252 0
 684 005c FA23     		mov	r3, #250
 685 005e 9B00     		lsl	r3, r3, #2
 686 0060 181C     		mov	r0, r3
 687 0062 FFF7FEFF 		bl	MyDelay
 253:main.c        ****   
 254:main.c        **** }
 688              		.loc 1 254 0
 689 0066 BD46     		mov	sp, r7
 690 0068 05B0     		add	sp, sp, #20
 691              		@ sp needed
 692 006a 90BD     		pop	{r4, r7, pc}
 693              	.L53:
 694              		.align	2
 695              	.L52:
 696 006c B0000000 		.word	.LC24
 697              		.cfi_endproc
 698              	.LFE68:
 699              		.size	SaveResult, .-SaveResult
 700              		.text
 701              	.Letext0:
 702              		.file 2 "c:\\program files (x86)\\cypress\\psoc creator\\4.0\\psoc creator\\import\\gnu\\arm\\4.9.
 703              		.file 3 "c:\\program files (x86)\\cypress\\psoc creator\\4.0\\psoc creator\\import\\gnu\\arm\\4.9.
 704              		.file 4 "appGlobal.h"
 705              		.file 5 "./debug.h"
 706              		.section	.debug_info,"",%progbits
 707              	.Ldebug_info0:
 708 0000 3C020000 		.4byte	0x23c
 709 0004 0400     		.2byte	0x4
 710 0006 00000000 		.4byte	.Ldebug_abbrev0
 711 000a 04       		.byte	0x4
 712 000b 01       		.uleb128 0x1
 713 000c AF000000 		.4byte	.LASF36
 714 0010 01       		.byte	0x1
 715 0011 2B020000 		.4byte	.LASF37
 716 0015 6F010000 		.4byte	.LASF38
 717 0019 00000000 		.4byte	.Ldebug_ranges0+0
 718 001d 00000000 		.4byte	0
 719 0021 00000000 		.4byte	.Ldebug_line0
 720 0025 02       		.uleb128 0x2
 721 0026 01       		.byte	0x1
 722 0027 06       		.byte	0x6
 723 0028 70020000 		.4byte	.LASF0
 724 002c 02       		.uleb128 0x2
 725 002d 01       		.byte	0x1
 726 002e 08       		.byte	0x8
 727 002f 38000000 		.4byte	.LASF1
 728 0033 02       		.uleb128 0x2
 729 0034 02       		.byte	0x2
 730 0035 05       		.byte	0x5
 731 0036 37020000 		.4byte	.LASF2
 732 003a 03       		.uleb128 0x3
 733 003b 88000000 		.4byte	.LASF5
 734 003f 02       		.byte	0x2
ARM GAS  C:\Users\Petro\AppData\Local\Temp\ccKTSRUQ.s 			page 19


 735 0040 2B       		.byte	0x2b
 736 0041 45000000 		.4byte	0x45
 737 0045 02       		.uleb128 0x2
 738 0046 02       		.byte	0x2
 739 0047 07       		.byte	0x7
 740 0048 63000000 		.4byte	.LASF3
 741 004c 02       		.uleb128 0x2
 742 004d 04       		.byte	0x4
 743 004e 05       		.byte	0x5
 744 004f 67020000 		.4byte	.LASF4
 745 0053 03       		.uleb128 0x3
 746 0054 A4000000 		.4byte	.LASF6
 747 0058 02       		.byte	0x2
 748 0059 41       		.byte	0x41
 749 005a 5E000000 		.4byte	0x5e
 750 005e 02       		.uleb128 0x2
 751 005f 04       		.byte	0x4
 752 0060 07       		.byte	0x7
 753 0061 51000000 		.4byte	.LASF7
 754 0065 02       		.uleb128 0x2
 755 0066 08       		.byte	0x8
 756 0067 05       		.byte	0x5
 757 0068 1D020000 		.4byte	.LASF8
 758 006c 03       		.uleb128 0x3
 759 006d 41020000 		.4byte	.LASF9
 760 0071 02       		.byte	0x2
 761 0072 5B       		.byte	0x5b
 762 0073 77000000 		.4byte	0x77
 763 0077 02       		.uleb128 0x2
 764 0078 08       		.byte	0x8
 765 0079 07       		.byte	0x7
 766 007a CF010000 		.4byte	.LASF10
 767 007e 04       		.uleb128 0x4
 768 007f 04       		.byte	0x4
 769 0080 05       		.byte	0x5
 770 0081 696E7400 		.ascii	"int\000"
 771 0085 02       		.uleb128 0x2
 772 0086 04       		.byte	0x4
 773 0087 07       		.byte	0x7
 774 0088 62010000 		.4byte	.LASF11
 775 008c 03       		.uleb128 0x3
 776 008d 4C020000 		.4byte	.LASF12
 777 0091 03       		.byte	0x3
 778 0092 21       		.byte	0x21
 779 0093 3A000000 		.4byte	0x3a
 780 0097 03       		.uleb128 0x3
 781 0098 5E020000 		.4byte	.LASF13
 782 009c 03       		.byte	0x3
 783 009d 2D       		.byte	0x2d
 784 009e 53000000 		.4byte	0x53
 785 00a2 03       		.uleb128 0x3
 786 00a3 55020000 		.4byte	.LASF14
 787 00a7 03       		.byte	0x3
 788 00a8 39       		.byte	0x39
 789 00a9 6C000000 		.4byte	0x6c
 790 00ad 02       		.uleb128 0x2
 791 00ae 04       		.byte	0x4
ARM GAS  C:\Users\Petro\AppData\Local\Temp\ccKTSRUQ.s 			page 20


 792 00af 04       		.byte	0x4
 793 00b0 0D000000 		.4byte	.LASF15
 794 00b4 02       		.uleb128 0x2
 795 00b5 08       		.byte	0x8
 796 00b6 04       		.byte	0x4
 797 00b7 93000000 		.4byte	.LASF16
 798 00bb 02       		.uleb128 0x2
 799 00bc 01       		.byte	0x1
 800 00bd 08       		.byte	0x8
 801 00be 32020000 		.4byte	.LASF17
 802 00c2 02       		.uleb128 0x2
 803 00c3 04       		.byte	0x4
 804 00c4 07       		.byte	0x7
 805 00c5 09020000 		.4byte	.LASF18
 806 00c9 05       		.uleb128 0x5
 807 00ca 01       		.byte	0x1
 808 00cb 04       		.byte	0x4
 809 00cc 19       		.byte	0x19
 810 00cd EA000000 		.4byte	0xea
 811 00d1 06       		.uleb128 0x6
 812 00d2 9A000000 		.4byte	.LASF19
 813 00d6 00       		.sleb128 0
 814 00d7 06       		.uleb128 0x6
 815 00d8 F8010000 		.4byte	.LASF20
 816 00dc 01       		.sleb128 1
 817 00dd 06       		.uleb128 0x6
 818 00de 46000000 		.4byte	.LASF21
 819 00e2 02       		.sleb128 2
 820 00e3 06       		.uleb128 0x6
 821 00e4 7C020000 		.4byte	.LASF22
 822 00e8 03       		.sleb128 3
 823 00e9 00       		.byte	0
 824 00ea 03       		.uleb128 0x3
 825 00eb 3D010000 		.4byte	.LASF23
 826 00ef 04       		.byte	0x4
 827 00f0 19       		.byte	0x19
 828 00f1 C9000000 		.4byte	0xc9
 829 00f5 07       		.uleb128 0x7
 830 00f6 57010000 		.4byte	.LASF39
 831 00fa 01       		.byte	0x1
 832 00fb 05       		.byte	0x5
 833 00fc 7E000000 		.4byte	0x7e
 834 0100 00000000 		.4byte	.LFB63
 835 0104 BC000000 		.4byte	.LFE63-.LFB63
 836 0108 01       		.uleb128 0x1
 837 0109 9C       		.byte	0x9c
 838 010a 08       		.uleb128 0x8
 839 010b FE010000 		.4byte	.LASF26
 840 010f 01       		.byte	0x1
 841 0110 3E       		.byte	0x3e
 842 0111 97000000 		.4byte	0x97
 843 0115 00000000 		.4byte	.LFB64
 844 0119 9C000000 		.4byte	.LFE64-.LFB64
 845 011d 01       		.uleb128 0x1
 846 011e 9C       		.byte	0x9c
 847 011f 40010000 		.4byte	0x140
 848 0123 09       		.uleb128 0x9
ARM GAS  C:\Users\Petro\AppData\Local\Temp\ccKTSRUQ.s 			page 21


 849 0124 F1010000 		.4byte	.LASF24
 850 0128 01       		.byte	0x1
 851 0129 40       		.byte	0x40
 852 012a 97000000 		.4byte	0x97
 853 012e 02       		.uleb128 0x2
 854 012f 91       		.byte	0x91
 855 0130 6C       		.sleb128 -20
 856 0131 09       		.uleb128 0x9
 857 0132 13000000 		.4byte	.LASF25
 858 0136 01       		.byte	0x1
 859 0137 41       		.byte	0x41
 860 0138 A2000000 		.4byte	0xa2
 861 013c 02       		.uleb128 0x2
 862 013d 91       		.byte	0x91
 863 013e 60       		.sleb128 -32
 864 013f 00       		.byte	0
 865 0140 08       		.uleb128 0x8
 866 0141 47010000 		.4byte	.LASF27
 867 0145 01       		.byte	0x1
 868 0146 6E       		.byte	0x6e
 869 0147 97000000 		.4byte	0x97
 870 014b 00000000 		.4byte	.LFB65
 871 014f 88000000 		.4byte	.LFE65-.LFB65
 872 0153 01       		.uleb128 0x1
 873 0154 9C       		.byte	0x9c
 874 0155 68010000 		.4byte	0x168
 875 0159 09       		.uleb128 0x9
 876 015a F1010000 		.4byte	.LASF24
 877 015e 01       		.byte	0x1
 878 015f 70       		.byte	0x70
 879 0160 97000000 		.4byte	0x97
 880 0164 02       		.uleb128 0x2
 881 0165 91       		.byte	0x91
 882 0166 74       		.sleb128 -12
 883 0167 00       		.byte	0
 884 0168 08       		.uleb128 0x8
 885 0169 12020000 		.4byte	.LASF28
 886 016d 01       		.byte	0x1
 887 016e 94       		.byte	0x94
 888 016f 97000000 		.4byte	0x97
 889 0173 00000000 		.4byte	.LFB66
 890 0177 DC000000 		.4byte	.LFE66-.LFB66
 891 017b 01       		.uleb128 0x1
 892 017c 9C       		.byte	0x9c
 893 017d 90010000 		.4byte	0x190
 894 0181 09       		.uleb128 0x9
 895 0182 F1010000 		.4byte	.LASF24
 896 0186 01       		.byte	0x1
 897 0187 96       		.byte	0x96
 898 0188 97000000 		.4byte	0x97
 899 018c 02       		.uleb128 0x2
 900 018d 91       		.byte	0x91
 901 018e 74       		.sleb128 -12
 902 018f 00       		.byte	0
 903 0190 08       		.uleb128 0x8
 904 0191 1C000000 		.4byte	.LASF29
 905 0195 01       		.byte	0x1
ARM GAS  C:\Users\Petro\AppData\Local\Temp\ccKTSRUQ.s 			page 22


 906 0196 D6       		.byte	0xd6
 907 0197 97000000 		.4byte	0x97
 908 019b 00000000 		.4byte	.LFB67
 909 019f 40000000 		.4byte	.LFE67-.LFB67
 910 01a3 01       		.uleb128 0x1
 911 01a4 9C       		.byte	0x9c
 912 01a5 B8010000 		.4byte	0x1b8
 913 01a9 09       		.uleb128 0x9
 914 01aa F1010000 		.4byte	.LASF24
 915 01ae 01       		.byte	0x1
 916 01af D8       		.byte	0xd8
 917 01b0 97000000 		.4byte	0x97
 918 01b4 02       		.uleb128 0x2
 919 01b5 91       		.byte	0x91
 920 01b6 74       		.sleb128 -12
 921 01b7 00       		.byte	0
 922 01b8 0A       		.uleb128 0xa
 923 01b9 E6010000 		.4byte	.LASF40
 924 01bd 01       		.byte	0x1
 925 01be EA       		.byte	0xea
 926 01bf 00000000 		.4byte	.LFB68
 927 01c3 70000000 		.4byte	.LFE68-.LFB68
 928 01c7 01       		.uleb128 0x1
 929 01c8 9C       		.byte	0x9c
 930 01c9 EA010000 		.4byte	0x1ea
 931 01cd 09       		.uleb128 0x9
 932 01ce 76000000 		.4byte	.LASF30
 933 01d2 01       		.byte	0x1
 934 01d3 EC       		.byte	0xec
 935 01d4 A2000000 		.4byte	0xa2
 936 01d8 02       		.uleb128 0x2
 937 01d9 91       		.byte	0x91
 938 01da 68       		.sleb128 -24
 939 01db 09       		.uleb128 0x9
 940 01dc 2C000000 		.4byte	.LASF31
 941 01e0 01       		.byte	0x1
 942 01e1 ED       		.byte	0xed
 943 01e2 97000000 		.4byte	0x97
 944 01e6 02       		.uleb128 0x2
 945 01e7 91       		.byte	0x91
 946 01e8 64       		.sleb128 -28
 947 01e9 00       		.byte	0
 948 01ea 09       		.uleb128 0x9
 949 01eb 82000000 		.4byte	.LASF32
 950 01ef 05       		.byte	0x5
 951 01f0 04       		.byte	0x4
 952 01f1 8C000000 		.4byte	0x8c
 953 01f5 05       		.uleb128 0x5
 954 01f6 03       		.byte	0x3
 955 01f7 00000000 		.4byte	minMs
 956 01fb 09       		.uleb128 0x9
 957 01fc 26000000 		.4byte	.LASF33
 958 0200 05       		.byte	0x5
 959 0201 05       		.byte	0x5
 960 0202 8C000000 		.4byte	0x8c
 961 0206 05       		.uleb128 0x5
 962 0207 03       		.byte	0x3
ARM GAS  C:\Users\Petro\AppData\Local\Temp\ccKTSRUQ.s 			page 23


 963 0208 02000000 		.4byte	maxMs
 964 020c 09       		.uleb128 0x9
 965 020d F1010000 		.4byte	.LASF24
 966 0211 04       		.byte	0x4
 967 0212 1C       		.byte	0x1c
 968 0213 97000000 		.4byte	0x97
 969 0217 05       		.uleb128 0x5
 970 0218 03       		.byte	0x3
 971 0219 04000000 		.4byte	result
 972 021d 0B       		.uleb128 0xb
 973 021e 5C010000 		.4byte	.LASF34
 974 0222 05       		.byte	0x5
 975 0223 06       		.byte	0x6
 976 0224 8C000000 		.4byte	0x8c
 977 0228 05       		.uleb128 0x5
 978 0229 03       		.byte	0x3
 979 022a 00000000 		.4byte	tmpMs
 980 022e 0B       		.uleb128 0xb
 981 022f 00000000 		.4byte	.LASF35
 982 0233 04       		.byte	0x4
 983 0234 1A       		.byte	0x1a
 984 0235 EA000000 		.4byte	0xea
 985 0239 05       		.uleb128 0x5
 986 023a 03       		.byte	0x3
 987 023b 00000000 		.4byte	currentState
 988 023f 00       		.byte	0
 989              		.section	.debug_abbrev,"",%progbits
 990              	.Ldebug_abbrev0:
 991 0000 01       		.uleb128 0x1
 992 0001 11       		.uleb128 0x11
 993 0002 01       		.byte	0x1
 994 0003 25       		.uleb128 0x25
 995 0004 0E       		.uleb128 0xe
 996 0005 13       		.uleb128 0x13
 997 0006 0B       		.uleb128 0xb
 998 0007 03       		.uleb128 0x3
 999 0008 0E       		.uleb128 0xe
 1000 0009 1B       		.uleb128 0x1b
 1001 000a 0E       		.uleb128 0xe
 1002 000b 55       		.uleb128 0x55
 1003 000c 17       		.uleb128 0x17
 1004 000d 11       		.uleb128 0x11
 1005 000e 01       		.uleb128 0x1
 1006 000f 10       		.uleb128 0x10
 1007 0010 17       		.uleb128 0x17
 1008 0011 00       		.byte	0
 1009 0012 00       		.byte	0
 1010 0013 02       		.uleb128 0x2
 1011 0014 24       		.uleb128 0x24
 1012 0015 00       		.byte	0
 1013 0016 0B       		.uleb128 0xb
 1014 0017 0B       		.uleb128 0xb
 1015 0018 3E       		.uleb128 0x3e
 1016 0019 0B       		.uleb128 0xb
 1017 001a 03       		.uleb128 0x3
 1018 001b 0E       		.uleb128 0xe
 1019 001c 00       		.byte	0
ARM GAS  C:\Users\Petro\AppData\Local\Temp\ccKTSRUQ.s 			page 24


 1020 001d 00       		.byte	0
 1021 001e 03       		.uleb128 0x3
 1022 001f 16       		.uleb128 0x16
 1023 0020 00       		.byte	0
 1024 0021 03       		.uleb128 0x3
 1025 0022 0E       		.uleb128 0xe
 1026 0023 3A       		.uleb128 0x3a
 1027 0024 0B       		.uleb128 0xb
 1028 0025 3B       		.uleb128 0x3b
 1029 0026 0B       		.uleb128 0xb
 1030 0027 49       		.uleb128 0x49
 1031 0028 13       		.uleb128 0x13
 1032 0029 00       		.byte	0
 1033 002a 00       		.byte	0
 1034 002b 04       		.uleb128 0x4
 1035 002c 24       		.uleb128 0x24
 1036 002d 00       		.byte	0
 1037 002e 0B       		.uleb128 0xb
 1038 002f 0B       		.uleb128 0xb
 1039 0030 3E       		.uleb128 0x3e
 1040 0031 0B       		.uleb128 0xb
 1041 0032 03       		.uleb128 0x3
 1042 0033 08       		.uleb128 0x8
 1043 0034 00       		.byte	0
 1044 0035 00       		.byte	0
 1045 0036 05       		.uleb128 0x5
 1046 0037 04       		.uleb128 0x4
 1047 0038 01       		.byte	0x1
 1048 0039 0B       		.uleb128 0xb
 1049 003a 0B       		.uleb128 0xb
 1050 003b 3A       		.uleb128 0x3a
 1051 003c 0B       		.uleb128 0xb
 1052 003d 3B       		.uleb128 0x3b
 1053 003e 0B       		.uleb128 0xb
 1054 003f 01       		.uleb128 0x1
 1055 0040 13       		.uleb128 0x13
 1056 0041 00       		.byte	0
 1057 0042 00       		.byte	0
 1058 0043 06       		.uleb128 0x6
 1059 0044 28       		.uleb128 0x28
 1060 0045 00       		.byte	0
 1061 0046 03       		.uleb128 0x3
 1062 0047 0E       		.uleb128 0xe
 1063 0048 1C       		.uleb128 0x1c
 1064 0049 0D       		.uleb128 0xd
 1065 004a 00       		.byte	0
 1066 004b 00       		.byte	0
 1067 004c 07       		.uleb128 0x7
 1068 004d 2E       		.uleb128 0x2e
 1069 004e 00       		.byte	0
 1070 004f 3F       		.uleb128 0x3f
 1071 0050 19       		.uleb128 0x19
 1072 0051 03       		.uleb128 0x3
 1073 0052 0E       		.uleb128 0xe
 1074 0053 3A       		.uleb128 0x3a
 1075 0054 0B       		.uleb128 0xb
 1076 0055 3B       		.uleb128 0x3b
ARM GAS  C:\Users\Petro\AppData\Local\Temp\ccKTSRUQ.s 			page 25


 1077 0056 0B       		.uleb128 0xb
 1078 0057 49       		.uleb128 0x49
 1079 0058 13       		.uleb128 0x13
 1080 0059 11       		.uleb128 0x11
 1081 005a 01       		.uleb128 0x1
 1082 005b 12       		.uleb128 0x12
 1083 005c 06       		.uleb128 0x6
 1084 005d 40       		.uleb128 0x40
 1085 005e 18       		.uleb128 0x18
 1086 005f 9642     		.uleb128 0x2116
 1087 0061 19       		.uleb128 0x19
 1088 0062 00       		.byte	0
 1089 0063 00       		.byte	0
 1090 0064 08       		.uleb128 0x8
 1091 0065 2E       		.uleb128 0x2e
 1092 0066 01       		.byte	0x1
 1093 0067 3F       		.uleb128 0x3f
 1094 0068 19       		.uleb128 0x19
 1095 0069 03       		.uleb128 0x3
 1096 006a 0E       		.uleb128 0xe
 1097 006b 3A       		.uleb128 0x3a
 1098 006c 0B       		.uleb128 0xb
 1099 006d 3B       		.uleb128 0x3b
 1100 006e 0B       		.uleb128 0xb
 1101 006f 27       		.uleb128 0x27
 1102 0070 19       		.uleb128 0x19
 1103 0071 49       		.uleb128 0x49
 1104 0072 13       		.uleb128 0x13
 1105 0073 11       		.uleb128 0x11
 1106 0074 01       		.uleb128 0x1
 1107 0075 12       		.uleb128 0x12
 1108 0076 06       		.uleb128 0x6
 1109 0077 40       		.uleb128 0x40
 1110 0078 18       		.uleb128 0x18
 1111 0079 9642     		.uleb128 0x2116
 1112 007b 19       		.uleb128 0x19
 1113 007c 01       		.uleb128 0x1
 1114 007d 13       		.uleb128 0x13
 1115 007e 00       		.byte	0
 1116 007f 00       		.byte	0
 1117 0080 09       		.uleb128 0x9
 1118 0081 34       		.uleb128 0x34
 1119 0082 00       		.byte	0
 1120 0083 03       		.uleb128 0x3
 1121 0084 0E       		.uleb128 0xe
 1122 0085 3A       		.uleb128 0x3a
 1123 0086 0B       		.uleb128 0xb
 1124 0087 3B       		.uleb128 0x3b
 1125 0088 0B       		.uleb128 0xb
 1126 0089 49       		.uleb128 0x49
 1127 008a 13       		.uleb128 0x13
 1128 008b 02       		.uleb128 0x2
 1129 008c 18       		.uleb128 0x18
 1130 008d 00       		.byte	0
 1131 008e 00       		.byte	0
 1132 008f 0A       		.uleb128 0xa
 1133 0090 2E       		.uleb128 0x2e
ARM GAS  C:\Users\Petro\AppData\Local\Temp\ccKTSRUQ.s 			page 26


 1134 0091 01       		.byte	0x1
 1135 0092 3F       		.uleb128 0x3f
 1136 0093 19       		.uleb128 0x19
 1137 0094 03       		.uleb128 0x3
 1138 0095 0E       		.uleb128 0xe
 1139 0096 3A       		.uleb128 0x3a
 1140 0097 0B       		.uleb128 0xb
 1141 0098 3B       		.uleb128 0x3b
 1142 0099 0B       		.uleb128 0xb
 1143 009a 27       		.uleb128 0x27
 1144 009b 19       		.uleb128 0x19
 1145 009c 11       		.uleb128 0x11
 1146 009d 01       		.uleb128 0x1
 1147 009e 12       		.uleb128 0x12
 1148 009f 06       		.uleb128 0x6
 1149 00a0 40       		.uleb128 0x40
 1150 00a1 18       		.uleb128 0x18
 1151 00a2 9642     		.uleb128 0x2116
 1152 00a4 19       		.uleb128 0x19
 1153 00a5 01       		.uleb128 0x1
 1154 00a6 13       		.uleb128 0x13
 1155 00a7 00       		.byte	0
 1156 00a8 00       		.byte	0
 1157 00a9 0B       		.uleb128 0xb
 1158 00aa 34       		.uleb128 0x34
 1159 00ab 00       		.byte	0
 1160 00ac 03       		.uleb128 0x3
 1161 00ad 0E       		.uleb128 0xe
 1162 00ae 3A       		.uleb128 0x3a
 1163 00af 0B       		.uleb128 0xb
 1164 00b0 3B       		.uleb128 0x3b
 1165 00b1 0B       		.uleb128 0xb
 1166 00b2 49       		.uleb128 0x49
 1167 00b3 13       		.uleb128 0x13
 1168 00b4 3F       		.uleb128 0x3f
 1169 00b5 19       		.uleb128 0x19
 1170 00b6 02       		.uleb128 0x2
 1171 00b7 18       		.uleb128 0x18
 1172 00b8 00       		.byte	0
 1173 00b9 00       		.byte	0
 1174 00ba 00       		.byte	0
 1175              		.section	.debug_aranges,"",%progbits
 1176 0000 44000000 		.4byte	0x44
 1177 0004 0200     		.2byte	0x2
 1178 0006 00000000 		.4byte	.Ldebug_info0
 1179 000a 04       		.byte	0x4
 1180 000b 00       		.byte	0
 1181 000c 0000     		.2byte	0
 1182 000e 0000     		.2byte	0
 1183 0010 00000000 		.4byte	.LFB63
 1184 0014 BC000000 		.4byte	.LFE63-.LFB63
 1185 0018 00000000 		.4byte	.LFB64
 1186 001c 9C000000 		.4byte	.LFE64-.LFB64
 1187 0020 00000000 		.4byte	.LFB65
 1188 0024 88000000 		.4byte	.LFE65-.LFB65
 1189 0028 00000000 		.4byte	.LFB66
 1190 002c DC000000 		.4byte	.LFE66-.LFB66
ARM GAS  C:\Users\Petro\AppData\Local\Temp\ccKTSRUQ.s 			page 27


 1191 0030 00000000 		.4byte	.LFB67
 1192 0034 40000000 		.4byte	.LFE67-.LFB67
 1193 0038 00000000 		.4byte	.LFB68
 1194 003c 70000000 		.4byte	.LFE68-.LFB68
 1195 0040 00000000 		.4byte	0
 1196 0044 00000000 		.4byte	0
 1197              		.section	.debug_ranges,"",%progbits
 1198              	.Ldebug_ranges0:
 1199 0000 00000000 		.4byte	.LFB63
 1200 0004 BC000000 		.4byte	.LFE63
 1201 0008 00000000 		.4byte	.LFB64
 1202 000c 9C000000 		.4byte	.LFE64
 1203 0010 00000000 		.4byte	.LFB65
 1204 0014 88000000 		.4byte	.LFE65
 1205 0018 00000000 		.4byte	.LFB66
 1206 001c DC000000 		.4byte	.LFE66
 1207 0020 00000000 		.4byte	.LFB67
 1208 0024 40000000 		.4byte	.LFE67
 1209 0028 00000000 		.4byte	.LFB68
 1210 002c 70000000 		.4byte	.LFE68
 1211 0030 00000000 		.4byte	0
 1212 0034 00000000 		.4byte	0
 1213              		.section	.debug_line,"",%progbits
 1214              	.Ldebug_line0:
 1215 0000 14020000 		.section	.debug_str,"MS",%progbits,1
 1215      02003101 
 1215      00000201 
 1215      FB0E0D00 
 1215      01010101 
 1216              	.LASF35:
 1217 0000 63757272 		.ascii	"currentState\000"
 1217      656E7453 
 1217      74617465 
 1217      00
 1218              	.LASF15:
 1219 000d 666C6F61 		.ascii	"float\000"
 1219      7400
 1220              	.LASF25:
 1221 0013 756E6978 		.ascii	"unixTime\000"
 1221      54696D65 
 1221      00
 1222              	.LASF29:
 1223 001c 43686563 		.ascii	"CheckGate\000"
 1223      6B476174 
 1223      6500
 1224              	.LASF33:
 1225 0026 6D61784D 		.ascii	"maxMs\000"
 1225      7300
 1226              	.LASF31:
 1227 002c 66696E52 		.ascii	"finRecentMs\000"
 1227      6563656E 
 1227      744D7300 
 1228              	.LASF1:
 1229 0038 756E7369 		.ascii	"unsigned char\000"
 1229      676E6564 
 1229      20636861 
 1229      7200
ARM GAS  C:\Users\Petro\AppData\Local\Temp\ccKTSRUQ.s 			page 28


 1230              	.LASF21:
 1231 0046 43484543 		.ascii	"CHECK_GATE\000"
 1231      4B5F4741 
 1231      544500
 1232              	.LASF7:
 1233 0051 6C6F6E67 		.ascii	"long unsigned int\000"
 1233      20756E73 
 1233      69676E65 
 1233      6420696E 
 1233      7400
 1234              	.LASF3:
 1235 0063 73686F72 		.ascii	"short unsigned int\000"
 1235      7420756E 
 1235      7369676E 
 1235      65642069 
 1235      6E7400
 1236              	.LASF30:
 1237 0076 66696E55 		.ascii	"finUnixTime\000"
 1237      6E697854 
 1237      696D6500 
 1238              	.LASF32:
 1239 0082 6D696E4D 		.ascii	"minMs\000"
 1239      7300
 1240              	.LASF5:
 1241 0088 5F5F7569 		.ascii	"__uint16_t\000"
 1241      6E743136 
 1241      5F7400
 1242              	.LASF16:
 1243 0093 646F7562 		.ascii	"double\000"
 1243      6C6500
 1244              	.LASF19:
 1245 009a 54494D45 		.ascii	"TIME_SYNC\000"
 1245      5F53594E 
 1245      4300
 1246              	.LASF6:
 1247 00a4 5F5F7569 		.ascii	"__uint32_t\000"
 1247      6E743332 
 1247      5F7400
 1248              	.LASF36:
 1249 00af 474E5520 		.ascii	"GNU C 4.9.3 20150303 (release) [ARM/embedded-4_9-br"
 1249      4320342E 
 1249      392E3320 
 1249      32303135 
 1249      30333033 
 1250 00e2 616E6368 		.ascii	"anch revision 221220] -mcpu=cortex-m0 -mthumb -g -O"
 1250      20726576 
 1250      6973696F 
 1250      6E203232 
 1250      31323230 
 1251 0115 30202D66 		.ascii	"0 -ffunction-sections -ffat-lto-objects\000"
 1251      66756E63 
 1251      74696F6E 
 1251      2D736563 
 1251      74696F6E 
 1252              	.LASF23:
 1253 013d 53746174 		.ascii	"StateType\000"
 1253      65547970 
ARM GAS  C:\Users\Petro\AppData\Local\Temp\ccKTSRUQ.s 			page 29


 1253      6500
 1254              	.LASF27:
 1255 0147 54696D65 		.ascii	"TimeSynchronize\000"
 1255      53796E63 
 1255      68726F6E 
 1255      697A6500 
 1256              	.LASF39:
 1257 0157 6D61696E 		.ascii	"main\000"
 1257      00
 1258              	.LASF34:
 1259 015c 746D704D 		.ascii	"tmpMs\000"
 1259      7300
 1260              	.LASF11:
 1261 0162 756E7369 		.ascii	"unsigned int\000"
 1261      676E6564 
 1261      20696E74 
 1261      00
 1262              	.LASF38:
 1263 016f 443A5C43 		.ascii	"D:\\Cypress\\system-start-finish\\vesion 2\\fw\\fin"
 1263      79707265 
 1263      73735C73 
 1263      79737465 
 1263      6D2D7374 
 1264 019d 6973685C 		.ascii	"ish\\sandbox\\v4\\Finish(state machine)\\fin_v0.cyd"
 1264      73616E64 
 1264      626F785C 
 1264      76345C46 
 1264      696E6973 
 1265 01cc 736E00   		.ascii	"sn\000"
 1266              	.LASF10:
 1267 01cf 6C6F6E67 		.ascii	"long long unsigned int\000"
 1267      206C6F6E 
 1267      6720756E 
 1267      7369676E 
 1267      65642069 
 1268              	.LASF40:
 1269 01e6 53617665 		.ascii	"SaveResult\000"
 1269      52657375 
 1269      6C7400
 1270              	.LASF24:
 1271 01f1 72657375 		.ascii	"result\000"
 1271      6C7400
 1272              	.LASF20:
 1273 01f8 52454144 		.ascii	"READY\000"
 1273      5900
 1274              	.LASF26:
 1275 01fe 53797374 		.ascii	"SystemInit\000"
 1275      656D496E 
 1275      697400
 1276              	.LASF18:
 1277 0209 73697A65 		.ascii	"sizetype\000"
 1277      74797065 
 1277      00
 1278              	.LASF28:
 1279 0212 43686563 		.ascii	"CheckReady\000"
 1279      6B526561 
 1279      647900
ARM GAS  C:\Users\Petro\AppData\Local\Temp\ccKTSRUQ.s 			page 30


 1280              	.LASF8:
 1281 021d 6C6F6E67 		.ascii	"long long int\000"
 1281      206C6F6E 
 1281      6720696E 
 1281      7400
 1282              	.LASF37:
 1283 022b 6D61696E 		.ascii	"main.c\000"
 1283      2E6300
 1284              	.LASF17:
 1285 0232 63686172 		.ascii	"char\000"
 1285      00
 1286              	.LASF2:
 1287 0237 73686F72 		.ascii	"short int\000"
 1287      7420696E 
 1287      7400
 1288              	.LASF9:
 1289 0241 5F5F7569 		.ascii	"__uint64_t\000"
 1289      6E743634 
 1289      5F7400
 1290              	.LASF12:
 1291 024c 75696E74 		.ascii	"uint16_t\000"
 1291      31365F74 
 1291      00
 1292              	.LASF14:
 1293 0255 75696E74 		.ascii	"uint64_t\000"
 1293      36345F74 
 1293      00
 1294              	.LASF13:
 1295 025e 75696E74 		.ascii	"uint32_t\000"
 1295      33325F74 
 1295      00
 1296              	.LASF4:
 1297 0267 6C6F6E67 		.ascii	"long int\000"
 1297      20696E74 
 1297      00
 1298              	.LASF0:
 1299 0270 7369676E 		.ascii	"signed char\000"
 1299      65642063 
 1299      68617200 
 1300              	.LASF22:
 1301 027c 53415645 		.ascii	"SAVE_RESULT\000"
 1301      5F524553 
 1301      554C5400 
 1302              		.ident	"GCC: (GNU Tools for ARM Embedded Processors) 4.9.3 20150303 (release) [ARM/embedded-4_9-br
