ARM GAS  C:\Users\Petro\AppData\Local\Temp\ccJj3IiC.s 			page 1


   1              		.cpu cortex-m0
   2              		.fpu softvfp
   3              		.eabi_attribute 20, 1
   4              		.eabi_attribute 21, 1
   5              		.eabi_attribute 23, 3
   6              		.eabi_attribute 24, 1
   7              		.eabi_attribute 25, 1
   8              		.eabi_attribute 26, 1
   9              		.eabi_attribute 30, 6
  10              		.eabi_attribute 34, 0
  11              		.eabi_attribute 18, 4
  12              		.code	16
  13              		.file	"network.c"
  14              		.text
  15              	.Ltext0:
  16              		.cfi_sections	.debug_frame
  17              		.bss
  18              		.align	1
  19              	minMs:
  20 0000 0000     		.space	2
  21              		.align	1
  22              	maxMs:
  23 0002 0000     		.space	2
  24              		.comm	tmpMs,2,2
  25              		.comm	outData,24,8
  26              		.comm	inData,24,8
  27              		.comm	numAttemps,4,4
  28              		.comm	noConnect,4,4
  29              		.comm	networkStatus,4,4
  30              		.comm	unixTime,16,4
  31              		.comm	millisTime,8,4
  32              		.section	.text.InitNetwork,"ax",%progbits
  33              		.align	2
  34              		.global	InitNetwork
  35              		.code	16
  36              		.thumb_func
  37              		.type	InitNetwork, %function
  38              	InitNetwork:
  39              	.LFB63:
  40              		.file 1 "lib_Network\\network.c"
   1:lib_Network/network.c **** 
   2:lib_Network/network.c **** #include "lib_Network\network.h"
   3:lib_Network/network.c **** #include <UART_XB.h>
   4:lib_Network/network.c **** #include <UART_XB_SPI_UART.h>
   5:lib_Network/network.c **** 
   6:lib_Network/network.c **** #ifdef DEBUG_INFO
   7:lib_Network/network.c ****     #include <SW_UART_DEBUG.h>
   8:lib_Network/network.c **** #endif
   9:lib_Network/network.c **** #ifdef DEBUG_TIME
  10:lib_Network/network.c ****     #include <debug.h>
  11:lib_Network/network.c **** #endif
  12:lib_Network/network.c **** #ifdef DEBUG_NTP
  13:lib_Network/network.c ****     #include <debugntp.h>
  14:lib_Network/network.c **** #endif
  15:lib_Network/network.c **** 
  16:lib_Network/network.c **** #include "lib_Network\svt.h"
  17:lib_Network/network.c **** #include "lib_DB\database.h"
ARM GAS  C:\Users\Petro\AppData\Local\Temp\ccJj3IiC.s 			page 2


  18:lib_Network/network.c **** #include "lib_RTC\RTC_WDT.h"
  19:lib_Network/network.c **** #include "lib_Network\ntp.h"
  20:lib_Network/network.c **** #include "lib_Display\display.h"
  21:lib_Network/network.c **** 
  22:lib_Network/network.c **** 
  23:lib_Network/network.c **** /*size buffer*/
  24:lib_Network/network.c **** #define DATA_BUFFER   50
  25:lib_Network/network.c ****  
  26:lib_Network/network.c **** #define ADRESS_READY        8
  27:lib_Network/network.c **** #define ADRESS_REBOOT       9
  28:lib_Network/network.c **** #define ADRESS_COUNT_SK     10
  29:lib_Network/network.c **** 
  30:lib_Network/network.c **** #define NETWORK_TIMEOUT     50
  31:lib_Network/network.c **** 
  32:lib_Network/network.c **** /*for NTP protocol*/
  33:lib_Network/network.c **** #define NUM_TRY_SYNC        14
  34:lib_Network/network.c **** #define NUM_CONNECT_ATTEMPS 50
  35:lib_Network/network.c **** #define NUM_TRU_SEND_PACKET 6
  36:lib_Network/network.c ****     
  37:lib_Network/network.c **** /*segment time for NTP*/
  38:lib_Network/network.c **** #define T1                  0
  39:lib_Network/network.c **** #define T2                  1
  40:lib_Network/network.c **** #define T3                  2
  41:lib_Network/network.c **** #define T4                  3
  42:lib_Network/network.c **** 
  43:lib_Network/network.c **** typedef struct
  44:lib_Network/network.c **** {
  45:lib_Network/network.c ****     /*data to transmit*/
  46:lib_Network/network.c ****     uint8_t IDpacket;    
  47:lib_Network/network.c ****     uint8_t ready;          /*flag readu finish*/
  48:lib_Network/network.c ****     uint8_t reboot;         /*flag finish reboot*/
  49:lib_Network/network.c ****     uint8_t countSkiers;
  50:lib_Network/network.c ****     
  51:lib_Network/network.c ****     uint64_t tmpTime;
  52:lib_Network/network.c ****     uint16_t tmpMsTime;
  53:lib_Network/network.c ****     uint8_t writeStatus;    /*flag transmitt data*/
  54:lib_Network/network.c **** }FinishData;
  55:lib_Network/network.c **** 
  56:lib_Network/network.c **** typedef struct
  57:lib_Network/network.c **** {
  58:lib_Network/network.c ****     /*data to receive*/
  59:lib_Network/network.c ****     uint8_t IDpacket;
  60:lib_Network/network.c ****     uint64_t unixStartTime;
  61:lib_Network/network.c ****     uint16_t startMsTime;
  62:lib_Network/network.c ****     uint8_t newSkier;
  63:lib_Network/network.c ****     uint8_t reboot;     /*reboot=1, no reboot=0*/
  64:lib_Network/network.c ****     
  65:lib_Network/network.c ****     uint8_t readStatus;     /*flag successful read data in start*/
  66:lib_Network/network.c **** }StartData;
  67:lib_Network/network.c **** 
  68:lib_Network/network.c **** FinishData outData ;
  69:lib_Network/network.c **** StartData inData;
  70:lib_Network/network.c **** 
  71:lib_Network/network.c **** uint32_t numAttemps,noConnect, networkStatus;
  72:lib_Network/network.c **** uint32_t unixTime[4];
  73:lib_Network/network.c **** uint16_t millisTime[4];
  74:lib_Network/network.c **** 
ARM GAS  C:\Users\Petro\AppData\Local\Temp\ccJj3IiC.s 			page 3


  75:lib_Network/network.c **** 
  76:lib_Network/network.c **** uint32_t SendRealTimeToStart(void);
  77:lib_Network/network.c **** void NTPsendTime(uint32_t unixTime1,uint16_t millis1, uint16_t ID);
  78:lib_Network/network.c **** uint32_t NTPreceiveTime(uint32_t *unixTime2,uint16_t *millis2, uint32_t *unixTime3, uint16_t *milli
  79:lib_Network/network.c **** uint32_t NTPsetTimeToStart(uint32_t unixTime4,uint16_t millis4,  uint16_t ID);
  80:lib_Network/network.c **** void NTPcalculateTime(uint32_t unixTime[], uint16_t msTime[], int32_t *sumTime, int32_t *sumMs);
  81:lib_Network/network.c **** 
  82:lib_Network/network.c **** 
  83:lib_Network/network.c **** 
  84:lib_Network/network.c **** /*******************************************************************************
  85:lib_Network/network.c **** * Function Name: InitNetwork
  86:lib_Network/network.c **** ********************************************************************************
  87:lib_Network/network.c **** *
  88:lib_Network/network.c **** * Summary:
  89:lib_Network/network.c **** *   initialization UART for XBee module
  90:lib_Network/network.c **** *
  91:lib_Network/network.c **** *******************************************************************************/
  92:lib_Network/network.c **** void InitNetwork(void)
  93:lib_Network/network.c **** {
  41              		.loc 1 93 0
  42              		.cfi_startproc
  43 0000 80B5     		push	{r7, lr}
  44              		.cfi_def_cfa_offset 8
  45              		.cfi_offset 7, -8
  46              		.cfi_offset 14, -4
  47 0002 00AF     		add	r7, sp, #0
  48              		.cfi_def_cfa_register 7
  94:lib_Network/network.c ****     UART_XB_Start();
  49              		.loc 1 94 0
  50 0004 FFF7FEFF 		bl	UART_XB_Start
  95:lib_Network/network.c ****     #ifdef DEBUG_INFO
  96:lib_Network/network.c ****     SW_UART_DEBUG_Start();     
  97:lib_Network/network.c ****     SW_UART_DEBUG_PutString("HElLO, IM READY(fin)\n\r");
  98:lib_Network/network.c ****     #endif
  99:lib_Network/network.c ****     
 100:lib_Network/network.c ****     inData.readStatus = READ_OK;
  51              		.loc 1 100 0
  52 0008 044B     		ldr	r3, .L2
  53 000a 0122     		mov	r2, #1
  54 000c 1A75     		strb	r2, [r3, #20]
 101:lib_Network/network.c ****     outData.writeStatus = NO_WRITE;
  55              		.loc 1 101 0
  56 000e 044B     		ldr	r3, .L2+4
  57 0010 0022     		mov	r2, #0
  58 0012 9A74     		strb	r2, [r3, #18]
 102:lib_Network/network.c ****     UART_XB_SpiUartClearRxBuffer();
  59              		.loc 1 102 0
  60 0014 FFF7FEFF 		bl	UART_XB_SpiUartClearRxBuffer
 103:lib_Network/network.c ****     
 104:lib_Network/network.c **** }
  61              		.loc 1 104 0
  62 0018 BD46     		mov	sp, r7
  63              		@ sp needed
  64 001a 80BD     		pop	{r7, pc}
  65              	.L3:
  66              		.align	2
  67              	.L2:
ARM GAS  C:\Users\Petro\AppData\Local\Temp\ccJj3IiC.s 			page 4


  68 001c 00000000 		.word	inData
  69 0020 00000000 		.word	outData
  70              		.cfi_endproc
  71              	.LFE63:
  72              		.size	InitNetwork, .-InitNetwork
  73              		.section	.rodata
  74              		.align	2
  75              	.LC4:
  76 0000 25303258 		.ascii	"%02X:%016X%02X%02X%02X%02X\000"
  76      3A253031 
  76      36582530 
  76      32582530 
  76      32582530 
  77              		.section	.text.SendData,"ax",%progbits
  78              		.align	2
  79              		.global	SendData
  80              		.code	16
  81              		.thumb_func
  82              		.type	SendData, %function
  83              	SendData:
  84              	.LFB64:
 105:lib_Network/network.c **** 
 106:lib_Network/network.c **** /*******************************************************************************
 107:lib_Network/network.c **** * Function Name: SendData
 108:lib_Network/network.c **** ********************************************************************************
 109:lib_Network/network.c **** *
 110:lib_Network/network.c **** * Summary:
 111:lib_Network/network.c **** *   send data to start from struct "outData"
 112:lib_Network/network.c **** *
 113:lib_Network/network.c **** *******************************************************************************/
 114:lib_Network/network.c **** void SendData(void)
 115:lib_Network/network.c **** {   
  85              		.loc 1 115 0
  86              		.cfi_startproc
  87 0000 90B5     		push	{r4, r7, lr}
  88              		.cfi_def_cfa_offset 12
  89              		.cfi_offset 4, -12
  90              		.cfi_offset 7, -8
  91              		.cfi_offset 14, -4
  92 0002 9FB0     		sub	sp, sp, #124
  93              		.cfi_def_cfa_offset 136
  94 0004 04AF     		add	r7, sp, #16
  95              		.cfi_def_cfa 7, 120
 116:lib_Network/network.c ****     if( outData.writeStatus == NO_WRITE || inData.readStatus == READ_OK)
  96              		.loc 1 116 0
  97 0006 214B     		ldr	r3, .L7
  98 0008 9B7C     		ldrb	r3, [r3, #18]
  99 000a 002B     		cmp	r3, #0
 100 000c 03D0     		beq	.L5
 101              		.loc 1 116 0 is_stmt 0 discriminator 1
 102 000e 204B     		ldr	r3, .L7+4
 103 0010 1B7D     		ldrb	r3, [r3, #20]
 104 0012 012B     		cmp	r3, #1
 105 0014 36D1     		bne	.L4
 106              	.L5:
 107              	.LBB2:
 117:lib_Network/network.c ****     {
ARM GAS  C:\Users\Petro\AppData\Local\Temp\ccJj3IiC.s 			page 5


 118:lib_Network/network.c ****         char sendBuffer[DATA_BUFFER];
 119:lib_Network/network.c ****         char sendData[DATA_BUFFER];
 120:lib_Network/network.c ****         
 121:lib_Network/network.c ****         outData.countSkiers = SkierOnWay();
 108              		.loc 1 121 0 is_stmt 1
 109 0016 FFF7FEFF 		bl	SkierOnWay
 110 001a 031C     		mov	r3, r0
 111 001c DAB2     		uxtb	r2, r3
 112 001e 1B4B     		ldr	r3, .L7
 113 0020 DA70     		strb	r2, [r3, #3]
 122:lib_Network/network.c ****         
 123:lib_Network/network.c ****         /*pack data*/
 124:lib_Network/network.c ****         sprintf(sendData,"%02X:%016X%02X%02X%02X%02X", 0u, 0u, outData.ready, outData.reboot, \
 114              		.loc 1 124 0
 115 0022 1A4B     		ldr	r3, .L7
 116 0024 5B78     		ldrb	r3, [r3, #1]
 117 0026 1C1C     		mov	r4, r3
 118 0028 184B     		ldr	r3, .L7
 119 002a 9B78     		ldrb	r3, [r3, #2]
 120 002c 181C     		mov	r0, r3
 125:lib_Network/network.c ****             outData.countSkiers, 0u);    
 121              		.loc 1 125 0
 122 002e 174B     		ldr	r3, .L7
 123 0030 DB78     		ldrb	r3, [r3, #3]
 124:lib_Network/network.c ****             outData.countSkiers, 0u);    
 124              		.loc 1 124 0
 125 0032 3422     		mov	r2, #52
 126 0034 B918     		add	r1, r7, r2
 127 0036 174A     		ldr	r2, .L7+8
 128 0038 0094     		str	r4, [sp]
 129 003a 0190     		str	r0, [sp, #4]
 130 003c 0293     		str	r3, [sp, #8]
 131 003e 0023     		mov	r3, #0
 132 0040 0393     		str	r3, [sp, #12]
 133 0042 081C     		mov	r0, r1
 134 0044 111C     		mov	r1, r2
 135 0046 0022     		mov	r2, #0
 136 0048 0023     		mov	r3, #0
 137 004a FFF7FEFF 		bl	sprintf
 126:lib_Network/network.c ****         PackData(sendBuffer, (uint8_t *)sendData, outData.IDpacket);
 138              		.loc 1 126 0
 139 004e 0F4B     		ldr	r3, .L7
 140 0050 1B78     		ldrb	r3, [r3]
 141 0052 9BB2     		uxth	r3, r3
 142 0054 391C     		mov	r1, r7
 143 0056 3422     		mov	r2, #52
 144 0058 BA18     		add	r2, r7, r2
 145 005a 081C     		mov	r0, r1
 146 005c 111C     		mov	r1, r2
 147 005e 1A1C     		mov	r2, r3
 148 0060 FFF7FEFF 		bl	PackData
 127:lib_Network/network.c ****         UART_XB_UartPutString(sendBuffer);
 149              		.loc 1 127 0
 150 0064 3B1C     		mov	r3, r7
 151 0066 181C     		mov	r0, r3
 152 0068 FFF7FEFF 		bl	UART_XB_UartPutString
 128:lib_Network/network.c ****         
ARM GAS  C:\Users\Petro\AppData\Local\Temp\ccJj3IiC.s 			page 6


 129:lib_Network/network.c ****         
 130:lib_Network/network.c ****         /*flag transmit data*/
 131:lib_Network/network.c ****         outData.writeStatus = WRITE_OK;
 153              		.loc 1 131 0
 154 006c 074B     		ldr	r3, .L7
 155 006e 0122     		mov	r2, #1
 156 0070 9A74     		strb	r2, [r3, #18]
 132:lib_Network/network.c ****         inData.readStatus = NO_READ;
 157              		.loc 1 132 0
 158 0072 074B     		ldr	r3, .L7+4
 159 0074 0022     		mov	r2, #0
 160 0076 1A75     		strb	r2, [r3, #20]
 133:lib_Network/network.c ****         
 134:lib_Network/network.c ****         /*set timeout*/
 135:lib_Network/network.c ****         noConnect = 0; 
 161              		.loc 1 135 0
 162 0078 074B     		ldr	r3, .L7+12
 163 007a 0022     		mov	r2, #0
 164 007c 1A60     		str	r2, [r3]
 136:lib_Network/network.c ****         
 137:lib_Network/network.c ****         CyDelay(50);
 165              		.loc 1 137 0
 166 007e 3220     		mov	r0, #50
 167 0080 FFF7FEFF 		bl	CyDelay
 168              	.L4:
 169              	.LBE2:
 138:lib_Network/network.c ****     }
 139:lib_Network/network.c **** }
 170              		.loc 1 139 0
 171 0084 BD46     		mov	sp, r7
 172 0086 1BB0     		add	sp, sp, #108
 173              		@ sp needed
 174 0088 90BD     		pop	{r4, r7, pc}
 175              	.L8:
 176 008a C046     		.align	2
 177              	.L7:
 178 008c 00000000 		.word	outData
 179 0090 00000000 		.word	inData
 180 0094 00000000 		.word	.LC4
 181 0098 00000000 		.word	noConnect
 182              		.cfi_endproc
 183              	.LFE64:
 184              		.size	SendData, .-SendData
 185              		.section	.text.ReceiveData,"ax",%progbits
 186              		.align	2
 187              		.global	ReceiveData
 188              		.code	16
 189              		.thumb_func
 190              		.type	ReceiveData, %function
 191              	ReceiveData:
 192              	.LFB65:
 140:lib_Network/network.c **** 
 141:lib_Network/network.c **** /*******************************************************************************
 142:lib_Network/network.c **** * Function Name: ReceiveData
 143:lib_Network/network.c **** ********************************************************************************
 144:lib_Network/network.c **** *
 145:lib_Network/network.c **** * Summary:
ARM GAS  C:\Users\Petro\AppData\Local\Temp\ccJj3IiC.s 			page 7


 146:lib_Network/network.c **** *   receive data from start in struct "inData"
 147:lib_Network/network.c **** * Return:
 148:lib_Network/network.c **** *   NETWORK_CONNECT or NETWORK_DISCONNECT
 149:lib_Network/network.c **** *
 150:lib_Network/network.c **** *******************************************************************************/
 151:lib_Network/network.c **** uint32_t  ReceiveData(void)
 152:lib_Network/network.c **** {   
 193              		.loc 1 152 0
 194              		.cfi_startproc
 195 0000 90B5     		push	{r4, r7, lr}
 196              		.cfi_def_cfa_offset 12
 197              		.cfi_offset 4, -12
 198              		.cfi_offset 7, -8
 199              		.cfi_offset 14, -4
 200 0002 8BB0     		sub	sp, sp, #44
 201              		.cfi_def_cfa_offset 56
 202 0004 00AF     		add	r7, sp, #0
 203              		.cfi_def_cfa_register 7
 153:lib_Network/network.c ****     if(inData.readStatus == NO_READ && outData.writeStatus == WRITE_OK)
 204              		.loc 1 153 0
 205 0006 564B     		ldr	r3, .L20
 206 0008 1B7D     		ldrb	r3, [r3, #20]
 207 000a 002B     		cmp	r3, #0
 208 000c 00D0     		beq	.LCB143
 209 000e A2E0     		b	.L10	@long jump
 210              	.LCB143:
 211              		.loc 1 153 0 is_stmt 0 discriminator 1
 212 0010 544B     		ldr	r3, .L20+4
 213 0012 9B7C     		ldrb	r3, [r3, #18]
 214 0014 012B     		cmp	r3, #1
 215 0016 00D0     		beq	.LCB147
 216 0018 9DE0     		b	.L10	@long jump
 217              	.LCB147:
 218              	.LBB3:
 154:lib_Network/network.c ****     {
 155:lib_Network/network.c ****         uint32_t result = 0;
 219              		.loc 1 155 0 is_stmt 1
 220 001a 0023     		mov	r3, #0
 221 001c 7B62     		str	r3, [r7, #36]
 156:lib_Network/network.c ****         int i;
 157:lib_Network/network.c ****         uint8_t byte;
 158:lib_Network/network.c ****         struct Resp recvData;
 159:lib_Network/network.c ****           
 160:lib_Network/network.c ****         while((UART_XB_SpiUartGetRxBufferSize() > 0) && ((byte=UART_XB_UartGetChar()) != 0))
 222              		.loc 1 160 0
 223 001e 76E0     		b	.L11
 224              	.L17:
 161:lib_Network/network.c ****         { 
 162:lib_Network/network.c ****             result = UnpackData(&recvData, (uint8_t)(byte & 0xFF));
 225              		.loc 1 162 0
 226 0020 3A1C     		mov	r2, r7
 227 0022 2323     		mov	r3, #35
 228 0024 FB18     		add	r3, r7, r3
 229 0026 1B78     		ldrb	r3, [r3]
 230 0028 101C     		mov	r0, r2
 231 002a 191C     		mov	r1, r3
 232 002c FFF7FEFF 		bl	UnpackData
ARM GAS  C:\Users\Petro\AppData\Local\Temp\ccJj3IiC.s 			page 8


 233 0030 031C     		mov	r3, r0
 234 0032 7B62     		str	r3, [r7, #36]
 163:lib_Network/network.c ****             CyDelay(2);
 235              		.loc 1 163 0
 236 0034 0220     		mov	r0, #2
 237 0036 FFF7FEFF 		bl	CyDelay
 164:lib_Network/network.c ****             
 165:lib_Network/network.c ****             
 166:lib_Network/network.c ****             if(recvData.EndPacket == 1)
 238              		.loc 1 166 0
 239 003a 3B1C     		mov	r3, r7
 240 003c 1B7E     		ldrb	r3, [r3, #24]
 241 003e 012B     		cmp	r3, #1
 242 0040 65D1     		bne	.L11
 167:lib_Network/network.c ****             {
 168:lib_Network/network.c ****                 inData.IDpacket = recvData.Seq;
 243              		.loc 1 168 0
 244 0042 3B1C     		mov	r3, r7
 245 0044 1B88     		ldrh	r3, [r3]
 246 0046 DAB2     		uxtb	r2, r3
 247 0048 454B     		ldr	r3, .L20
 248 004a 1A70     		strb	r2, [r3]
 169:lib_Network/network.c ****                 
 170:lib_Network/network.c ****                 /*id packet ok*/
 171:lib_Network/network.c ****                 if(outData.IDpacket == inData.IDpacket)
 249              		.loc 1 171 0
 250 004c 454B     		ldr	r3, .L20+4
 251 004e 1A78     		ldrb	r2, [r3]
 252 0050 434B     		ldr	r3, .L20
 253 0052 1B78     		ldrb	r3, [r3]
 254 0054 9A42     		cmp	r2, r3
 255 0056 38D1     		bne	.L12
 172:lib_Network/network.c ****                 {
 173:lib_Network/network.c ****                     inData.readStatus = READ_OK;
 256              		.loc 1 173 0
 257 0058 414B     		ldr	r3, .L20
 258 005a 0122     		mov	r2, #1
 259 005c 1A75     		strb	r2, [r3, #20]
 174:lib_Network/network.c ****                     outData.writeStatus = NO_WRITE;
 260              		.loc 1 174 0
 261 005e 414B     		ldr	r3, .L20+4
 262 0060 0022     		mov	r2, #0
 263 0062 9A74     		strb	r2, [r3, #18]
 175:lib_Network/network.c ****                     
 176:lib_Network/network.c ****                     /*connect network*/
 177:lib_Network/network.c ****                     networkStatus = NETWORK_CONNECT;
 264              		.loc 1 177 0
 265 0064 404B     		ldr	r3, .L20+8
 266 0066 0122     		mov	r2, #1
 267 0068 1A60     		str	r2, [r3]
 178:lib_Network/network.c ****                     noConnect = 0;
 268              		.loc 1 178 0
 269 006a 404B     		ldr	r3, .L20+12
 270 006c 0022     		mov	r2, #0
 271 006e 1A60     		str	r2, [r3]
 179:lib_Network/network.c ****                     
 180:lib_Network/network.c ****                     /*write data*/
ARM GAS  C:\Users\Petro\AppData\Local\Temp\ccJj3IiC.s 			page 9


 181:lib_Network/network.c ****                     inData.newSkier = (recvData.Data3 & 0xFF00) >> 8;
 272              		.loc 1 181 0
 273 0070 3B1C     		mov	r3, r7
 274 0072 5B8A     		ldrh	r3, [r3, #18]
 275 0074 1B0A     		lsr	r3, r3, #8
 276 0076 9BB2     		uxth	r3, r3
 277 0078 DAB2     		uxtb	r2, r3
 278 007a 394B     		ldr	r3, .L20
 279 007c 9A74     		strb	r2, [r3, #18]
 182:lib_Network/network.c ****                     inData.unixStartTime = recvData.Data1;
 280              		.loc 1 182 0
 281 007e 3B1C     		mov	r3, r7
 282 0080 DC68     		ldr	r4, [r3, #12]
 283 0082 9B68     		ldr	r3, [r3, #8]
 284 0084 364A     		ldr	r2, .L20
 285 0086 9360     		str	r3, [r2, #8]
 286 0088 D460     		str	r4, [r2, #12]
 183:lib_Network/network.c ****                     inData.startMsTime = recvData.Data2;
 287              		.loc 1 183 0
 288 008a 3B1C     		mov	r3, r7
 289 008c 1A8A     		ldrh	r2, [r3, #16]
 290 008e 344B     		ldr	r3, .L20
 291 0090 1A82     		strh	r2, [r3, #16]
 184:lib_Network/network.c ****                     inData.reboot = (recvData.Data3 & 0x00FF);
 292              		.loc 1 184 0
 293 0092 3B1C     		mov	r3, r7
 294 0094 5B8A     		ldrh	r3, [r3, #18]
 295 0096 DAB2     		uxtb	r2, r3
 296 0098 314B     		ldr	r3, .L20
 297 009a DA74     		strb	r2, [r3, #19]
 185:lib_Network/network.c ****                     
 186:lib_Network/network.c ****                     /*if new skier on track*/
 187:lib_Network/network.c ****                     if(inData.newSkier == NEW_SKIER_IN_TARCK )
 298              		.loc 1 187 0
 299 009c 304B     		ldr	r3, .L20
 300 009e 9B7C     		ldrb	r3, [r3, #18]
 301 00a0 012B     		cmp	r3, #1
 302 00a2 08D1     		bne	.L13
 188:lib_Network/network.c ****                     {
 189:lib_Network/network.c ****                         WriteStartTime(inData.unixStartTime, inData.startMsTime);
 303              		.loc 1 189 0
 304 00a4 2E4B     		ldr	r3, .L20
 305 00a6 DC68     		ldr	r4, [r3, #12]
 306 00a8 9B68     		ldr	r3, [r3, #8]
 307 00aa 2D4A     		ldr	r2, .L20
 308 00ac 128A     		ldrh	r2, [r2, #16]
 309 00ae 181C     		mov	r0, r3
 310 00b0 211C     		mov	r1, r4
 311 00b2 FFF7FEFF 		bl	WriteStartTime
 312              	.L13:
 190:lib_Network/network.c ****                     }
 191:lib_Network/network.c ****                     
 192:lib_Network/network.c ****                     /*next packet*/
 193:lib_Network/network.c ****                     outData.IDpacket++;
 313              		.loc 1 193 0
 314 00b6 2B4B     		ldr	r3, .L20+4
 315 00b8 1B78     		ldrb	r3, [r3]
ARM GAS  C:\Users\Petro\AppData\Local\Temp\ccJj3IiC.s 			page 10


 316 00ba 0133     		add	r3, r3, #1
 317 00bc DAB2     		uxtb	r2, r3
 318 00be 294B     		ldr	r3, .L20+4
 319 00c0 1A70     		strb	r2, [r3]
 194:lib_Network/network.c ****                     CyDelay(50);
 320              		.loc 1 194 0
 321 00c2 3220     		mov	r0, #50
 322 00c4 FFF7FEFF 		bl	CyDelay
 323 00c8 1FE0     		b	.L14
 324              	.L12:
 195:lib_Network/network.c ****                 }  
 196:lib_Network/network.c ****                 /* if prev packet late*/
 197:lib_Network/network.c ****                 else if(outData.IDpacket == (inData.IDpacket + 1))
 325              		.loc 1 197 0
 326 00ca 264B     		ldr	r3, .L20+4
 327 00cc 1B78     		ldrb	r3, [r3]
 328 00ce 1A1C     		mov	r2, r3
 329 00d0 234B     		ldr	r3, .L20
 330 00d2 1B78     		ldrb	r3, [r3]
 331 00d4 0133     		add	r3, r3, #1
 332 00d6 9A42     		cmp	r2, r3
 333 00d8 17D1     		bne	.L14
 198:lib_Network/network.c ****                 {
 199:lib_Network/network.c ****                     inData.newSkier = recvData.Data3;
 334              		.loc 1 199 0
 335 00da 3B1C     		mov	r3, r7
 336 00dc 5B8A     		ldrh	r3, [r3, #18]
 337 00de DAB2     		uxtb	r2, r3
 338 00e0 1F4B     		ldr	r3, .L20
 339 00e2 9A74     		strb	r2, [r3, #18]
 200:lib_Network/network.c ****                     inData.unixStartTime = recvData.Data1;
 340              		.loc 1 200 0
 341 00e4 3B1C     		mov	r3, r7
 342 00e6 DC68     		ldr	r4, [r3, #12]
 343 00e8 9B68     		ldr	r3, [r3, #8]
 344 00ea 1D4A     		ldr	r2, .L20
 345 00ec 9360     		str	r3, [r2, #8]
 346 00ee D460     		str	r4, [r2, #12]
 201:lib_Network/network.c ****                     inData.startMsTime = recvData.Data2;
 347              		.loc 1 201 0
 348 00f0 3B1C     		mov	r3, r7
 349 00f2 1A8A     		ldrh	r2, [r3, #16]
 350 00f4 1A4B     		ldr	r3, .L20
 351 00f6 1A82     		strh	r2, [r3, #16]
 202:lib_Network/network.c ****                     
 203:lib_Network/network.c ****                     networkStatus = NETWORK_CONNECT;
 352              		.loc 1 203 0
 353 00f8 1B4B     		ldr	r3, .L20+8
 354 00fa 0122     		mov	r2, #1
 355 00fc 1A60     		str	r2, [r3]
 204:lib_Network/network.c ****                     noConnect = 0;
 356              		.loc 1 204 0
 357 00fe 1B4B     		ldr	r3, .L20+12
 358 0100 0022     		mov	r2, #0
 359 0102 1A60     		str	r2, [r3]
 205:lib_Network/network.c ****                     CyDelay(50);
 360              		.loc 1 205 0
ARM GAS  C:\Users\Petro\AppData\Local\Temp\ccJj3IiC.s 			page 11


 361 0104 3220     		mov	r0, #50
 362 0106 FFF7FEFF 		bl	CyDelay
 363              	.L14:
 206:lib_Network/network.c ****                 }
 207:lib_Network/network.c ****                 return  NETWORK_CONNECT;  
 364              		.loc 1 207 0
 365 010a 0123     		mov	r3, #1
 366 010c 24E0     		b	.L19
 367              	.L11:
 160:lib_Network/network.c ****         { 
 368              		.loc 1 160 0
 369 010e FFF7FEFF 		bl	UART_XB_SpiUartGetRxBufferSize
 370 0112 031E     		sub	r3, r0, #0
 371 0114 0BD0     		beq	.L16
 160:lib_Network/network.c ****         { 
 372              		.loc 1 160 0 is_stmt 0 discriminator 1
 373 0116 FFF7FEFF 		bl	UART_XB_UartGetChar
 374 011a 021C     		mov	r2, r0
 375 011c 2323     		mov	r3, #35
 376 011e FB18     		add	r3, r7, r3
 377 0120 1A70     		strb	r2, [r3]
 378 0122 2323     		mov	r3, #35
 379 0124 FB18     		add	r3, r7, r3
 380 0126 1B78     		ldrb	r3, [r3]
 381 0128 002B     		cmp	r3, #0
 382 012a 00D0     		beq	.LCB287
 383 012c 78E7     		b	.L17	@long jump
 384              	.LCB287:
 385              	.L16:
 208:lib_Network/network.c ****             }
 209:lib_Network/network.c ****         }
 210:lib_Network/network.c ****         
 211:lib_Network/network.c ****         noConnect++;
 386              		.loc 1 211 0 is_stmt 1
 387 012e 0F4B     		ldr	r3, .L20+12
 388 0130 1B68     		ldr	r3, [r3]
 389 0132 5A1C     		add	r2, r3, #1
 390 0134 0D4B     		ldr	r3, .L20+12
 391 0136 1A60     		str	r2, [r3]
 212:lib_Network/network.c ****         if(noConnect >= NETWORK_TIMEOUT)
 392              		.loc 1 212 0
 393 0138 0C4B     		ldr	r3, .L20+12
 394 013a 1B68     		ldr	r3, [r3]
 395 013c 312B     		cmp	r3, #49
 396 013e 08D9     		bls	.L18
 213:lib_Network/network.c ****         {
 214:lib_Network/network.c ****             outData.writeStatus = NO_WRITE;
 397              		.loc 1 214 0
 398 0140 084B     		ldr	r3, .L20+4
 399 0142 0022     		mov	r2, #0
 400 0144 9A74     		strb	r2, [r3, #18]
 215:lib_Network/network.c ****             inData.readStatus = NO_READ;
 401              		.loc 1 215 0
 402 0146 064B     		ldr	r3, .L20
 403 0148 0022     		mov	r2, #0
 404 014a 1A75     		strb	r2, [r3, #20]
 216:lib_Network/network.c ****             networkStatus = NETWORK_DISCONNECT;
ARM GAS  C:\Users\Petro\AppData\Local\Temp\ccJj3IiC.s 			page 12


 405              		.loc 1 216 0
 406 014c 064B     		ldr	r3, .L20+8
 407 014e 0022     		mov	r2, #0
 408 0150 1A60     		str	r2, [r3]
 409              	.L18:
 217:lib_Network/network.c ****         }
 218:lib_Network/network.c ****         
 219:lib_Network/network.c ****         return  NETWORK_DISCONNECT;
 410              		.loc 1 219 0
 411 0152 0023     		mov	r3, #0
 412 0154 00E0     		b	.L19
 413              	.L10:
 414              	.LBE3:
 220:lib_Network/network.c ****     }
 221:lib_Network/network.c ****     return 0;
 415              		.loc 1 221 0
 416 0156 0023     		mov	r3, #0
 417              	.L19:
 222:lib_Network/network.c **** }
 418              		.loc 1 222 0 discriminator 1
 419 0158 181C     		mov	r0, r3
 420 015a BD46     		mov	sp, r7
 421 015c 0BB0     		add	sp, sp, #44
 422              		@ sp needed
 423 015e 90BD     		pop	{r4, r7, pc}
 424              	.L21:
 425              		.align	2
 426              	.L20:
 427 0160 00000000 		.word	inData
 428 0164 00000000 		.word	outData
 429 0168 00000000 		.word	networkStatus
 430 016c 00000000 		.word	noConnect
 431              		.cfi_endproc
 432              	.LFE65:
 433              		.size	ReceiveData, .-ReceiveData
 434              		.section	.text.SendFinStatus,"ax",%progbits
 435              		.align	2
 436              		.global	SendFinStatus
 437              		.code	16
 438              		.thumb_func
 439              		.type	SendFinStatus, %function
 440              	SendFinStatus:
 441              	.LFB66:
 223:lib_Network/network.c **** 
 224:lib_Network/network.c **** 
 225:lib_Network/network.c **** /*******************************************************************************
 226:lib_Network/network.c **** * Function Name: SendFinStatus
 227:lib_Network/network.c **** ********************************************************************************
 228:lib_Network/network.c **** *
 229:lib_Network/network.c **** * Summary:
 230:lib_Network/network.c **** *   set fin status
 231:lib_Network/network.c **** * Parametrs:
 232:lib_Network/network.c **** *   FIN_READY or FIN_NO_READY
 233:lib_Network/network.c **** *
 234:lib_Network/network.c **** *******************************************************************************/
 235:lib_Network/network.c **** void SendFinStatus(uint32_t ready)
 236:lib_Network/network.c **** {
ARM GAS  C:\Users\Petro\AppData\Local\Temp\ccJj3IiC.s 			page 13


 442              		.loc 1 236 0
 443              		.cfi_startproc
 444 0000 80B5     		push	{r7, lr}
 445              		.cfi_def_cfa_offset 8
 446              		.cfi_offset 7, -8
 447              		.cfi_offset 14, -4
 448 0002 82B0     		sub	sp, sp, #8
 449              		.cfi_def_cfa_offset 16
 450 0004 00AF     		add	r7, sp, #0
 451              		.cfi_def_cfa_register 7
 452 0006 7860     		str	r0, [r7, #4]
 237:lib_Network/network.c ****     outData.ready = ready;
 453              		.loc 1 237 0
 454 0008 7B68     		ldr	r3, [r7, #4]
 455 000a DAB2     		uxtb	r2, r3
 456 000c 024B     		ldr	r3, .L23
 457 000e 5A70     		strb	r2, [r3, #1]
 238:lib_Network/network.c **** }
 458              		.loc 1 238 0
 459 0010 BD46     		mov	sp, r7
 460 0012 02B0     		add	sp, sp, #8
 461              		@ sp needed
 462 0014 80BD     		pop	{r7, pc}
 463              	.L24:
 464 0016 C046     		.align	2
 465              	.L23:
 466 0018 00000000 		.word	outData
 467              		.cfi_endproc
 468              	.LFE66:
 469              		.size	SendFinStatus, .-SendFinStatus
 470              		.section	.text.NetworkStatus,"ax",%progbits
 471              		.align	2
 472              		.global	NetworkStatus
 473              		.code	16
 474              		.thumb_func
 475              		.type	NetworkStatus, %function
 476              	NetworkStatus:
 477              	.LFB67:
 239:lib_Network/network.c **** 
 240:lib_Network/network.c **** /*******************************************************************************
 241:lib_Network/network.c **** * Function Name: NetworkStatus
 242:lib_Network/network.c **** ********************************************************************************
 243:lib_Network/network.c **** *
 244:lib_Network/network.c **** * Summary:
 245:lib_Network/network.c **** *   read network status
 246:lib_Network/network.c **** * Return:
 247:lib_Network/network.c **** *   NETWORK_CONNECT or NETWORK_DISCONNECT
 248:lib_Network/network.c **** *
 249:lib_Network/network.c **** *******************************************************************************/
 250:lib_Network/network.c **** uint32_t NetworkStatus(void)
 251:lib_Network/network.c **** {
 478              		.loc 1 251 0
 479              		.cfi_startproc
 480 0000 80B5     		push	{r7, lr}
 481              		.cfi_def_cfa_offset 8
 482              		.cfi_offset 7, -8
 483              		.cfi_offset 14, -4
ARM GAS  C:\Users\Petro\AppData\Local\Temp\ccJj3IiC.s 			page 14


 484 0002 00AF     		add	r7, sp, #0
 485              		.cfi_def_cfa_register 7
 252:lib_Network/network.c ****     return networkStatus;
 486              		.loc 1 252 0
 487 0004 024B     		ldr	r3, .L27
 488 0006 1B68     		ldr	r3, [r3]
 253:lib_Network/network.c **** }
 489              		.loc 1 253 0
 490 0008 181C     		mov	r0, r3
 491 000a BD46     		mov	sp, r7
 492              		@ sp needed
 493 000c 80BD     		pop	{r7, pc}
 494              	.L28:
 495 000e C046     		.align	2
 496              	.L27:
 497 0010 00000000 		.word	networkStatus
 498              		.cfi_endproc
 499              	.LFE67:
 500              		.size	NetworkStatus, .-NetworkStatus
 501              		.section	.text.IsRebootStartFlag,"ax",%progbits
 502              		.align	2
 503              		.global	IsRebootStartFlag
 504              		.code	16
 505              		.thumb_func
 506              		.type	IsRebootStartFlag, %function
 507              	IsRebootStartFlag:
 508              	.LFB68:
 254:lib_Network/network.c **** 
 255:lib_Network/network.c **** /*******************************************************************************
 256:lib_Network/network.c **** * Function Name: ReadRebootStartFlag
 257:lib_Network/network.c **** ********************************************************************************
 258:lib_Network/network.c **** *
 259:lib_Network/network.c **** * Summary:
 260:lib_Network/network.c **** *   read reboot flag from start
 261:lib_Network/network.c **** * Return:
 262:lib_Network/network.c **** *   REBOOT or NO_REBOOT
 263:lib_Network/network.c **** *
 264:lib_Network/network.c **** *******************************************************************************/
 265:lib_Network/network.c **** uint32_t IsRebootStartFlag(void)
 266:lib_Network/network.c **** {
 509              		.loc 1 266 0
 510              		.cfi_startproc
 511 0000 80B5     		push	{r7, lr}
 512              		.cfi_def_cfa_offset 8
 513              		.cfi_offset 7, -8
 514              		.cfi_offset 14, -4
 515 0002 82B0     		sub	sp, sp, #8
 516              		.cfi_def_cfa_offset 16
 517 0004 00AF     		add	r7, sp, #0
 518              		.cfi_def_cfa_register 7
 267:lib_Network/network.c ****     uint32_t result;
 268:lib_Network/network.c ****     
 269:lib_Network/network.c ****     if(inData.reboot == 1 && outData.reboot == 0)
 519              		.loc 1 269 0
 520 0006 0D4B     		ldr	r3, .L33
 521 0008 DB7C     		ldrb	r3, [r3, #19]
 522 000a 012B     		cmp	r3, #1
ARM GAS  C:\Users\Petro\AppData\Local\Temp\ccJj3IiC.s 			page 15


 523 000c 09D1     		bne	.L30
 524              		.loc 1 269 0 is_stmt 0 discriminator 1
 525 000e 0C4B     		ldr	r3, .L33+4
 526 0010 9B78     		ldrb	r3, [r3, #2]
 527 0012 002B     		cmp	r3, #0
 528 0014 05D1     		bne	.L30
 270:lib_Network/network.c ****     {
 271:lib_Network/network.c ****         result = REBOOT;
 529              		.loc 1 271 0 is_stmt 1
 530 0016 FF23     		mov	r3, #255
 531 0018 7B60     		str	r3, [r7, #4]
 272:lib_Network/network.c ****         inData.reboot = 0;
 532              		.loc 1 272 0
 533 001a 084B     		ldr	r3, .L33
 534 001c 0022     		mov	r2, #0
 535 001e DA74     		strb	r2, [r3, #19]
 536 0020 07E0     		b	.L31
 537              	.L30:
 273:lib_Network/network.c ****     }
 274:lib_Network/network.c ****     else 
 275:lib_Network/network.c ****     {
 276:lib_Network/network.c ****         outData.reboot = 0;
 538              		.loc 1 276 0
 539 0022 074B     		ldr	r3, .L33+4
 540 0024 0022     		mov	r2, #0
 541 0026 9A70     		strb	r2, [r3, #2]
 277:lib_Network/network.c ****         inData.reboot = 0;
 542              		.loc 1 277 0
 543 0028 044B     		ldr	r3, .L33
 544 002a 0022     		mov	r2, #0
 545 002c DA74     		strb	r2, [r3, #19]
 278:lib_Network/network.c ****         result = NO_REBOOT;
 546              		.loc 1 278 0
 547 002e FE23     		mov	r3, #254
 548 0030 7B60     		str	r3, [r7, #4]
 549              	.L31:
 279:lib_Network/network.c ****     }
 280:lib_Network/network.c ****     return result;
 550              		.loc 1 280 0
 551 0032 7B68     		ldr	r3, [r7, #4]
 281:lib_Network/network.c **** }
 552              		.loc 1 281 0
 553 0034 181C     		mov	r0, r3
 554 0036 BD46     		mov	sp, r7
 555 0038 02B0     		add	sp, sp, #8
 556              		@ sp needed
 557 003a 80BD     		pop	{r7, pc}
 558              	.L34:
 559              		.align	2
 560              	.L33:
 561 003c 00000000 		.word	inData
 562 0040 00000000 		.word	outData
 563              		.cfi_endproc
 564              	.LFE68:
 565              		.size	IsRebootStartFlag, .-IsRebootStartFlag
 566              		.section	.text.ClearRebootFlag,"ax",%progbits
 567              		.align	2
ARM GAS  C:\Users\Petro\AppData\Local\Temp\ccJj3IiC.s 			page 16


 568              		.global	ClearRebootFlag
 569              		.code	16
 570              		.thumb_func
 571              		.type	ClearRebootFlag, %function
 572              	ClearRebootFlag:
 573              	.LFB69:
 282:lib_Network/network.c **** 
 283:lib_Network/network.c **** void ClearRebootFlag(void)
 284:lib_Network/network.c **** {
 574              		.loc 1 284 0
 575              		.cfi_startproc
 576 0000 80B5     		push	{r7, lr}
 577              		.cfi_def_cfa_offset 8
 578              		.cfi_offset 7, -8
 579              		.cfi_offset 14, -4
 580 0002 00AF     		add	r7, sp, #0
 581              		.cfi_def_cfa_register 7
 285:lib_Network/network.c ****     outData.reboot = 0;
 582              		.loc 1 285 0
 583 0004 034B     		ldr	r3, .L36
 584 0006 0022     		mov	r2, #0
 585 0008 9A70     		strb	r2, [r3, #2]
 286:lib_Network/network.c ****     inData.reboot = 0;
 586              		.loc 1 286 0
 587 000a 034B     		ldr	r3, .L36+4
 588 000c 0022     		mov	r2, #0
 589 000e DA74     		strb	r2, [r3, #19]
 287:lib_Network/network.c **** }
 590              		.loc 1 287 0
 591 0010 BD46     		mov	sp, r7
 592              		@ sp needed
 593 0012 80BD     		pop	{r7, pc}
 594              	.L37:
 595              		.align	2
 596              	.L36:
 597 0014 00000000 		.word	outData
 598 0018 00000000 		.word	inData
 599              		.cfi_endproc
 600              	.LFE69:
 601              		.size	ClearRebootFlag, .-ClearRebootFlag
 602              		.section	.text.SetRebootFlag,"ax",%progbits
 603              		.align	2
 604              		.global	SetRebootFlag
 605              		.code	16
 606              		.thumb_func
 607              		.type	SetRebootFlag, %function
 608              	SetRebootFlag:
 609              	.LFB70:
 288:lib_Network/network.c **** /*******************************************************************************
 289:lib_Network/network.c **** * Function Name: WriteRebootFlag
 290:lib_Network/network.c **** ********************************************************************************
 291:lib_Network/network.c **** *
 292:lib_Network/network.c **** * Summary:
 293:lib_Network/network.c **** *   write reboot flag to start
 294:lib_Network/network.c **** *
 295:lib_Network/network.c **** *******************************************************************************/
 296:lib_Network/network.c **** void SetRebootFlag(void)
ARM GAS  C:\Users\Petro\AppData\Local\Temp\ccJj3IiC.s 			page 17


 297:lib_Network/network.c **** {
 610              		.loc 1 297 0
 611              		.cfi_startproc
 612 0000 80B5     		push	{r7, lr}
 613              		.cfi_def_cfa_offset 8
 614              		.cfi_offset 7, -8
 615              		.cfi_offset 14, -4
 616 0002 00AF     		add	r7, sp, #0
 617              		.cfi_def_cfa_register 7
 298:lib_Network/network.c ****     outData.reboot = 1;
 618              		.loc 1 298 0
 619 0004 024B     		ldr	r3, .L39
 620 0006 0122     		mov	r2, #1
 621 0008 9A70     		strb	r2, [r3, #2]
 299:lib_Network/network.c **** }
 622              		.loc 1 299 0
 623 000a BD46     		mov	sp, r7
 624              		@ sp needed
 625 000c 80BD     		pop	{r7, pc}
 626              	.L40:
 627 000e C046     		.align	2
 628              	.L39:
 629 0010 00000000 		.word	outData
 630              		.cfi_endproc
 631              	.LFE70:
 632              		.size	SetRebootFlag, .-SetRebootFlag
 633              		.section	.text.NTPsync,"ax",%progbits
 634              		.align	2
 635              		.global	NTPsync
 636              		.code	16
 637              		.thumb_func
 638              		.type	NTPsync, %function
 639              	NTPsync:
 640              	.LFB71:
 300:lib_Network/network.c **** 
 301:lib_Network/network.c **** 
 302:lib_Network/network.c **** /*******************************************************************************
 303:lib_Network/network.c **** * Function Name: NTPsync
 304:lib_Network/network.c **** ********************************************************************************
 305:lib_Network/network.c **** *
 306:lib_Network/network.c **** * Summary:
 307:lib_Network/network.c **** *   NTP time synchronization protocol on
 308:lib_Network/network.c **** * Return:
 309:lib_Network/network.c **** *   TIME_SYNC_OK or TIME_SYNC_ERR
 310:lib_Network/network.c **** *
 311:lib_Network/network.c **** *******************************************************************************/
 312:lib_Network/network.c **** uint32_t NTPsync(void)
 313:lib_Network/network.c **** {
 641              		.loc 1 313 0
 642              		.cfi_startproc
 643 0000 90B5     		push	{r4, r7, lr}
 644              		.cfi_def_cfa_offset 12
 645              		.cfi_offset 4, -12
 646              		.cfi_offset 7, -8
 647              		.cfi_offset 14, -4
 648 0002 91B0     		sub	sp, sp, #68
 649              		.cfi_def_cfa_offset 80
ARM GAS  C:\Users\Petro\AppData\Local\Temp\ccJj3IiC.s 			page 18


 650 0004 02AF     		add	r7, sp, #8
 651              		.cfi_def_cfa 7, 72
 314:lib_Network/network.c ****     uint16_t result;
 315:lib_Network/network.c ****     uint32_t resultReceive; 
 316:lib_Network/network.c ****     int i;
 317:lib_Network/network.c ****     uint16_t IDpacket;
 318:lib_Network/network.c ****     uint16_t IDreceivePacket;
 319:lib_Network/network.c ****     uint32_t unixTime[4];
 320:lib_Network/network.c ****     uint16_t millisTime[4];
 321:lib_Network/network.c ****     int32_t sumTime;
 322:lib_Network/network.c ****     int32_t sumMillis;   
 323:lib_Network/network.c ****     uint32_t numAttempsReseive;
 324:lib_Network/network.c ****     uint32_t numTruReceive;
 325:lib_Network/network.c ****     
 326:lib_Network/network.c ****     #ifdef DEBUG_INFO
 327:lib_Network/network.c ****         char uartBuff[100];
 328:lib_Network/network.c ****     #endif  
 329:lib_Network/network.c ****     
 330:lib_Network/network.c ****     IDpacket = 1;
 652              		.loc 1 330 0
 653 0006 2A23     		mov	r3, #42
 654 0008 FB18     		add	r3, r7, r3
 655 000a 0122     		mov	r2, #1
 656 000c 1A80     		strh	r2, [r3]
 331:lib_Network/network.c ****     IDreceivePacket = 0;
 657              		.loc 1 331 0
 658 000e 2223     		mov	r3, #34
 659 0010 FB18     		add	r3, r7, r3
 660 0012 0022     		mov	r2, #0
 661 0014 1A80     		strh	r2, [r3]
 332:lib_Network/network.c ****     numAttempsReseive = 0;
 662              		.loc 1 332 0
 663 0016 0023     		mov	r3, #0
 664 0018 7B62     		str	r3, [r7, #36]
 333:lib_Network/network.c ****     result = TIME_SYNC_ERR;
 665              		.loc 1 333 0
 666 001a 3623     		mov	r3, #54
 667 001c FB18     		add	r3, r7, r3
 668 001e 0122     		mov	r2, #1
 669 0020 1A80     		strh	r2, [r3]
 334:lib_Network/network.c ****     
 335:lib_Network/network.c ****     #ifdef DEBUG_INFO
 336:lib_Network/network.c ****         SW_UART_DEBUG_PutString("start ntp sync\n\r");
 337:lib_Network/network.c ****     #endif  
 338:lib_Network/network.c ****     /*sync milisecond and second*/
 339:lib_Network/network.c ****     for(i=1; i < NUM_TRY_SYNC; )
 670              		.loc 1 339 0
 671 0022 0123     		mov	r3, #1
 672 0024 FB62     		str	r3, [r7, #44]
 673 0026 CEE0     		b	.L42
 674              	.L51:
 340:lib_Network/network.c ****     {
 341:lib_Network/network.c ****         /*send time T1*/
 342:lib_Network/network.c ****         unixTime[T1] = RTCGetUnixTime();
 675              		.loc 1 342 0
 676 0028 FFF7FEFF 		bl	RTCGetUnixTime
 677 002c 031C     		mov	r3, r0
ARM GAS  C:\Users\Petro\AppData\Local\Temp\ccJj3IiC.s 			page 19


 678 002e 0C1C     		mov	r4, r1
 679 0030 1A1C     		mov	r2, r3
 680 0032 1023     		mov	r3, #16
 681 0034 FB18     		add	r3, r7, r3
 682 0036 1A60     		str	r2, [r3]
 343:lib_Network/network.c ****         millisTime[T1] = RTCgetRecentMs();
 683              		.loc 1 343 0
 684 0038 FFF7FEFF 		bl	RTCgetRecentMs
 685 003c 031C     		mov	r3, r0
 686 003e 9AB2     		uxth	r2, r3
 687 0040 0823     		mov	r3, #8
 688 0042 FB18     		add	r3, r7, r3
 689 0044 1A80     		strh	r2, [r3]
 344:lib_Network/network.c ****         
 345:lib_Network/network.c ****         #ifdef DEBUG_NTP
 346:lib_Network/network.c ****             debugntp_Write(1);
 690              		.loc 1 346 0
 691 0046 0120     		mov	r0, #1
 692 0048 FFF7FEFF 		bl	debugntp_Write
 347:lib_Network/network.c ****             debugntp_Write(0);
 693              		.loc 1 347 0
 694 004c 0020     		mov	r0, #0
 695 004e FFF7FEFF 		bl	debugntp_Write
 348:lib_Network/network.c ****         #endif
 349:lib_Network/network.c ****         
 350:lib_Network/network.c ****         NTPsendTime(unixTime[T1], millisTime[T1], IDpacket);
 696              		.loc 1 350 0
 697 0052 1023     		mov	r3, #16
 698 0054 FB18     		add	r3, r7, r3
 699 0056 1968     		ldr	r1, [r3]
 700 0058 0823     		mov	r3, #8
 701 005a FB18     		add	r3, r7, r3
 702 005c 1A88     		ldrh	r2, [r3]
 703 005e 2A23     		mov	r3, #42
 704 0060 FB18     		add	r3, r7, r3
 705 0062 1B88     		ldrh	r3, [r3]
 706 0064 081C     		mov	r0, r1
 707 0066 111C     		mov	r1, r2
 708 0068 1A1C     		mov	r2, r3
 709 006a FFF7FEFF 		bl	NTPsendTime
 351:lib_Network/network.c ****         
 352:lib_Network/network.c ****         /*reseive data*/
 353:lib_Network/network.c ****         resultReceive = NO_READ;
 710              		.loc 1 353 0
 711 006e 0023     		mov	r3, #0
 712 0070 3B63     		str	r3, [r7, #48]
 354:lib_Network/network.c ****         numAttempsReseive = 0;
 713              		.loc 1 354 0
 714 0072 0023     		mov	r3, #0
 715 0074 7B62     		str	r3, [r7, #36]
 355:lib_Network/network.c ****         while((resultReceive == NO_READ) && (numAttempsReseive < NUM_CONNECT_ATTEMPS*4))
 716              		.loc 1 355 0
 717 0076 92E0     		b	.L43
 718              	.L50:
 356:lib_Network/network.c ****         {
 357:lib_Network/network.c ****             /*receive time from start*/
 358:lib_Network/network.c ****             resultReceive = NTPreceiveTime(&unixTime[T2],&millisTime[T2], &unixTime[T3], &millisTim
ARM GAS  C:\Users\Petro\AppData\Local\Temp\ccJj3IiC.s 			page 20


 719              		.loc 1 358 0
 720 0078 1023     		mov	r3, #16
 721 007a FB18     		add	r3, r7, r3
 722 007c 181D     		add	r0, r3, #4
 723 007e 0823     		mov	r3, #8
 724 0080 FB18     		add	r3, r7, r3
 725 0082 991C     		add	r1, r3, #2
 726 0084 1023     		mov	r3, #16
 727 0086 FB18     		add	r3, r7, r3
 728 0088 0833     		add	r3, r3, #8
 729 008a 1A1C     		mov	r2, r3
 730 008c 0823     		mov	r3, #8
 731 008e FB18     		add	r3, r7, r3
 732 0090 1C1D     		add	r4, r3, #4
 733 0092 2223     		mov	r3, #34
 734 0094 FB18     		add	r3, r7, r3
 735 0096 0093     		str	r3, [sp]
 736 0098 231C     		mov	r3, r4
 737 009a FFF7FEFF 		bl	NTPreceiveTime
 738 009e 031C     		mov	r3, r0
 739 00a0 3B63     		str	r3, [r7, #48]
 359:lib_Network/network.c ****                     
 360:lib_Network/network.c ****             if((resultReceive == READ_OK) && (IDreceivePacket == IDpacket))
 740              		.loc 1 360 0
 741 00a2 3B6B     		ldr	r3, [r7, #48]
 742 00a4 012B     		cmp	r3, #1
 743 00a6 66D1     		bne	.L44
 744              		.loc 1 360 0 is_stmt 0 discriminator 1
 745 00a8 2223     		mov	r3, #34
 746 00aa FB18     		add	r3, r7, r3
 747 00ac 1B88     		ldrh	r3, [r3]
 748 00ae 2A22     		mov	r2, #42
 749 00b0 BA18     		add	r2, r7, r2
 750 00b2 1288     		ldrh	r2, [r2]
 751 00b4 9A42     		cmp	r2, r3
 752 00b6 5ED1     		bne	.L44
 361:lib_Network/network.c ****             {
 362:lib_Network/network.c ****                 /*delivery timing*/
 363:lib_Network/network.c ****                 unixTime[T4] = RTCGetUnixTime();
 753              		.loc 1 363 0 is_stmt 1
 754 00b8 FFF7FEFF 		bl	RTCGetUnixTime
 755 00bc 031C     		mov	r3, r0
 756 00be 0C1C     		mov	r4, r1
 757 00c0 1A1C     		mov	r2, r3
 758 00c2 1023     		mov	r3, #16
 759 00c4 FB18     		add	r3, r7, r3
 760 00c6 DA60     		str	r2, [r3, #12]
 364:lib_Network/network.c ****                 millisTime[T4] = RTCgetRecentMs();
 761              		.loc 1 364 0
 762 00c8 FFF7FEFF 		bl	RTCgetRecentMs
 763 00cc 031C     		mov	r3, r0
 764 00ce 9AB2     		uxth	r2, r3
 765 00d0 0823     		mov	r3, #8
 766 00d2 FB18     		add	r3, r7, r3
 767 00d4 DA80     		strh	r2, [r3, #6]
 365:lib_Network/network.c ****                 
 366:lib_Network/network.c ****                 #ifdef DEBUG_NTP
ARM GAS  C:\Users\Petro\AppData\Local\Temp\ccJj3IiC.s 			page 21


 367:lib_Network/network.c **** //                    millisTime[T4] = millisTime[T1]+193;
 368:lib_Network/network.c **** //                    unixTime[T4] = unixTime[T1];
 369:lib_Network/network.c **** //                    if(millisTime[T4] >= 1000)
 370:lib_Network/network.c **** //                    {
 371:lib_Network/network.c **** //                        millisTime[T4] -= 1000;
 372:lib_Network/network.c **** //                        unixTime[T4]++;
 373:lib_Network/network.c **** //                    }
 374:lib_Network/network.c ****                     debugntp_Write(1);
 768              		.loc 1 374 0
 769 00d6 0120     		mov	r0, #1
 770 00d8 FFF7FEFF 		bl	debugntp_Write
 375:lib_Network/network.c ****                     debugntp_Write(0);
 771              		.loc 1 375 0
 772 00dc 0020     		mov	r0, #0
 773 00de FFF7FEFF 		bl	debugntp_Write
 376:lib_Network/network.c ****                     debugntp_Write(1);
 774              		.loc 1 376 0
 775 00e2 0120     		mov	r0, #1
 776 00e4 FFF7FEFF 		bl	debugntp_Write
 377:lib_Network/network.c ****                     debugntp_Write(0);                    
 777              		.loc 1 377 0
 778 00e8 0020     		mov	r0, #0
 779 00ea FFF7FEFF 		bl	debugntp_Write
 378:lib_Network/network.c ****                 #endif
 379:lib_Network/network.c ****                 NTPcalculateTime(unixTime, millisTime,&sumTime, &sumMillis);
 780              		.loc 1 379 0
 781 00ee 1023     		mov	r3, #16
 782 00f0 F818     		add	r0, r7, r3
 783 00f2 0823     		mov	r3, #8
 784 00f4 F918     		add	r1, r7, r3
 785 00f6 3A1D     		add	r2, r7, #4
 786 00f8 3B1C     		mov	r3, r7
 787 00fa FFF7FEFF 		bl	NTPcalculateTime
 380:lib_Network/network.c ****                 CyDelay(1000); 
 788              		.loc 1 380 0
 789 00fe FA23     		mov	r3, #250
 790 0100 9B00     		lsl	r3, r3, #2
 791 0102 181C     		mov	r0, r3
 792 0104 FFF7FEFF 		bl	CyDelay
 381:lib_Network/network.c ****                 #ifdef DEBUG_INFO 
 382:lib_Network/network.c ****                     SW_UART_DEBUG_PutString("calculate time\n\r");
 383:lib_Network/network.c ****                 #endif  
 384:lib_Network/network.c ****                 
 385:lib_Network/network.c ****                 /* send delivery time */
 386:lib_Network/network.c ****                 IDpacket = 0;
 793              		.loc 1 386 0
 794 0108 2A23     		mov	r3, #42
 795 010a FB18     		add	r3, r7, r3
 796 010c 0022     		mov	r2, #0
 797 010e 1A80     		strh	r2, [r3]
 387:lib_Network/network.c ****                 result = NTPsetTimeToStart(sumTime, sumMillis, IDpacket);
 798              		.loc 1 387 0
 799 0110 7B68     		ldr	r3, [r7, #4]
 800 0112 191C     		mov	r1, r3
 801 0114 3B68     		ldr	r3, [r7]
 802 0116 9AB2     		uxth	r2, r3
 803 0118 2A23     		mov	r3, #42
ARM GAS  C:\Users\Petro\AppData\Local\Temp\ccJj3IiC.s 			page 22


 804 011a FB18     		add	r3, r7, r3
 805 011c 1B88     		ldrh	r3, [r3]
 806 011e 081C     		mov	r0, r1
 807 0120 111C     		mov	r1, r2
 808 0122 1A1C     		mov	r2, r3
 809 0124 FFF7FEFF 		bl	NTPsetTimeToStart
 810 0128 021C     		mov	r2, r0
 811 012a 3623     		mov	r3, #54
 812 012c FB18     		add	r3, r7, r3
 813 012e 1A80     		strh	r2, [r3]
 388:lib_Network/network.c ****                 
 389:lib_Network/network.c ****                 if(result == WRITE_OK)
 814              		.loc 1 389 0
 815 0130 3623     		mov	r3, #54
 816 0132 FB18     		add	r3, r7, r3
 817 0134 1B88     		ldrh	r3, [r3]
 818 0136 012B     		cmp	r3, #1
 819 0138 14D1     		bne	.L45
 390:lib_Network/network.c ****                 {
 391:lib_Network/network.c ****                     /*display loading sync time*/
 392:lib_Network/network.c ****                     for(i=0;i<13;i++)
 820              		.loc 1 392 0
 821 013a 0023     		mov	r3, #0
 822 013c FB62     		str	r3, [r7, #44]
 823 013e 09E0     		b	.L46
 824              	.L47:
 393:lib_Network/network.c ****                     {
 394:lib_Network/network.c ****                         DisplayLoading(i);
 825              		.loc 1 394 0 discriminator 3
 826 0140 FB6A     		ldr	r3, [r7, #44]
 827 0142 181C     		mov	r0, r3
 828 0144 FFF7FEFF 		bl	DisplayLoading
 395:lib_Network/network.c ****                         CyDelay(100);
 829              		.loc 1 395 0 discriminator 3
 830 0148 6420     		mov	r0, #100
 831 014a FFF7FEFF 		bl	CyDelay
 392:lib_Network/network.c ****                     {
 832              		.loc 1 392 0 discriminator 3
 833 014e FB6A     		ldr	r3, [r7, #44]
 834 0150 0133     		add	r3, r3, #1
 835 0152 FB62     		str	r3, [r7, #44]
 836              	.L46:
 392:lib_Network/network.c ****                     {
 837              		.loc 1 392 0 is_stmt 0 discriminator 1
 838 0154 FB6A     		ldr	r3, [r7, #44]
 839 0156 0C2B     		cmp	r3, #12
 840 0158 F2DD     		ble	.L47
 396:lib_Network/network.c ****                     }
 397:lib_Network/network.c ****                     result = TIME_SYNC_OK;
 841              		.loc 1 397 0 is_stmt 1
 842 015a 3623     		mov	r3, #54
 843 015c FB18     		add	r3, r7, r3
 844 015e 0022     		mov	r2, #0
 845 0160 1A80     		strh	r2, [r3]
 846 0162 03E0     		b	.L48
 847              	.L45:
 398:lib_Network/network.c ****                 }
ARM GAS  C:\Users\Petro\AppData\Local\Temp\ccJj3IiC.s 			page 23


 399:lib_Network/network.c ****                 else
 400:lib_Network/network.c ****                 {
 401:lib_Network/network.c ****                     result = TIME_SYNC_ERR;
 848              		.loc 1 401 0
 849 0164 3623     		mov	r3, #54
 850 0166 FB18     		add	r3, r7, r3
 851 0168 0122     		mov	r2, #1
 852 016a 1A80     		strh	r2, [r3]
 853              	.L48:
 402:lib_Network/network.c ****                 }
 403:lib_Network/network.c ****                                             
 404:lib_Network/network.c ****                 i = NUM_TRY_SYNC; 
 854              		.loc 1 404 0
 855 016c 0E23     		mov	r3, #14
 856 016e FB62     		str	r3, [r7, #44]
 405:lib_Network/network.c ****                 resultReceive = READ_OK;
 857              		.loc 1 405 0
 858 0170 0123     		mov	r3, #1
 859 0172 3B63     		str	r3, [r7, #48]
 860 0174 13E0     		b	.L43
 861              	.L44:
 406:lib_Network/network.c ****             }
 407:lib_Network/network.c ****             else
 408:lib_Network/network.c ****             {
 409:lib_Network/network.c ****                 numAttempsReseive++;
 862              		.loc 1 409 0
 863 0176 7B6A     		ldr	r3, [r7, #36]
 864 0178 0133     		add	r3, r3, #1
 865 017a 7B62     		str	r3, [r7, #36]
 410:lib_Network/network.c ****                 resultReceive = NO_READ;
 866              		.loc 1 410 0
 867 017c 0023     		mov	r3, #0
 868 017e 3B63     		str	r3, [r7, #48]
 411:lib_Network/network.c ****                 CyDelay(10);
 869              		.loc 1 411 0
 870 0180 0A20     		mov	r0, #10
 871 0182 FFF7FEFF 		bl	CyDelay
 872 0186 3623     		mov	r3, #54
 873 0188 FB18     		add	r3, r7, r3
 874 018a 3622     		mov	r2, #54
 875 018c BA18     		add	r2, r7, r2
 876 018e 1288     		ldrh	r2, [r2]
 877 0190 1A80     		strh	r2, [r3]
 878 0192 2A23     		mov	r3, #42
 879 0194 FB18     		add	r3, r7, r3
 880 0196 2A22     		mov	r2, #42
 881 0198 BA18     		add	r2, r7, r2
 882 019a 1288     		ldrh	r2, [r2]
 883 019c 1A80     		strh	r2, [r3]
 884              	.L43:
 355:lib_Network/network.c ****         {
 885              		.loc 1 355 0
 886 019e 3B6B     		ldr	r3, [r7, #48]
 887 01a0 002B     		cmp	r3, #0
 888 01a2 03D1     		bne	.L49
 355:lib_Network/network.c ****         {
 889              		.loc 1 355 0 is_stmt 0 discriminator 1
ARM GAS  C:\Users\Petro\AppData\Local\Temp\ccJj3IiC.s 			page 24


 890 01a4 7B6A     		ldr	r3, [r7, #36]
 891 01a6 C72B     		cmp	r3, #199
 892 01a8 00D8     		bhi	.LCB742
 893 01aa 65E7     		b	.L50	@long jump
 894              	.LCB742:
 895              	.L49:
 412:lib_Network/network.c ****             }
 413:lib_Network/network.c ****         }
 414:lib_Network/network.c ****         
 415:lib_Network/network.c ****         CyDelay(100);
 896              		.loc 1 415 0 is_stmt 1
 897 01ac 6420     		mov	r0, #100
 898 01ae FFF7FEFF 		bl	CyDelay
 416:lib_Network/network.c ****         
 417:lib_Network/network.c ****         IDpacket++;
 899              		.loc 1 417 0
 900 01b2 2A23     		mov	r3, #42
 901 01b4 FB18     		add	r3, r7, r3
 902 01b6 1A88     		ldrh	r2, [r3]
 903 01b8 2A23     		mov	r3, #42
 904 01ba FB18     		add	r3, r7, r3
 905 01bc 0132     		add	r2, r2, #1
 906 01be 1A80     		strh	r2, [r3]
 418:lib_Network/network.c ****         i++;  
 907              		.loc 1 418 0
 908 01c0 FB6A     		ldr	r3, [r7, #44]
 909 01c2 0133     		add	r3, r3, #1
 910 01c4 FB62     		str	r3, [r7, #44]
 911              	.L42:
 339:lib_Network/network.c ****     {
 912              		.loc 1 339 0 discriminator 1
 913 01c6 FB6A     		ldr	r3, [r7, #44]
 914 01c8 0D2B     		cmp	r3, #13
 915 01ca 00DC     		bgt	.LCB760
 916 01cc 2CE7     		b	.L51	@long jump
 917              	.LCB760:
 419:lib_Network/network.c ****     }
 420:lib_Network/network.c **** 
 421:lib_Network/network.c ****     return result;
 918              		.loc 1 421 0
 919 01ce 3623     		mov	r3, #54
 920 01d0 FB18     		add	r3, r7, r3
 921 01d2 1B88     		ldrh	r3, [r3]
 422:lib_Network/network.c **** }
 922              		.loc 1 422 0
 923 01d4 181C     		mov	r0, r3
 924 01d6 BD46     		mov	sp, r7
 925 01d8 0FB0     		add	sp, sp, #60
 926              		@ sp needed
 927 01da 90BD     		pop	{r4, r7, pc}
 928              		.cfi_endproc
 929              	.LFE71:
 930              		.size	NTPsync, .-NTPsync
 931              		.section	.rodata
 932 001b 00       		.align	2
 933              	.LC18:
 934 001c 25303858 		.ascii	"%08X%03X\000"
ARM GAS  C:\Users\Petro\AppData\Local\Temp\ccJj3IiC.s 			page 25


 934      25303358 
 934      00
 935 0025 000000   		.section	.text.NTPsendTime,"ax",%progbits
 936              		.align	2
 937              		.global	NTPsendTime
 938              		.code	16
 939              		.thumb_func
 940              		.type	NTPsendTime, %function
 941              	NTPsendTime:
 942              	.LFB72:
 423:lib_Network/network.c **** 
 424:lib_Network/network.c **** 
 425:lib_Network/network.c **** /*******************************************************************************
 426:lib_Network/network.c **** * Function Name: NTPsendTime
 427:lib_Network/network.c **** ********************************************************************************
 428:lib_Network/network.c **** *
 429:lib_Network/network.c **** * Summary:
 430:lib_Network/network.c **** *   send time to NTP protocol
 431:lib_Network/network.c **** * Parametrs:
 432:lib_Network/network.c **** *   unixTime - time in unix format
 433:lib_Network/network.c **** *   millis - millis time
 434:lib_Network/network.c **** *   ID - ID packet
 435:lib_Network/network.c **** *
 436:lib_Network/network.c **** *******************************************************************************/
 437:lib_Network/network.c **** void NTPsendTime(uint32_t unixTime,uint16_t millis, uint16_t ID)
 438:lib_Network/network.c **** {
 943              		.loc 1 438 0
 944              		.cfi_startproc
 945 0000 80B5     		push	{r7, lr}
 946              		.cfi_def_cfa_offset 8
 947              		.cfi_offset 7, -8
 948              		.cfi_offset 14, -4
 949 0002 9CB0     		sub	sp, sp, #112
 950              		.cfi_def_cfa_offset 120
 951 0004 00AF     		add	r7, sp, #0
 952              		.cfi_def_cfa_register 7
 953 0006 7860     		str	r0, [r7, #4]
 954 0008 081C     		mov	r0, r1
 955 000a 111C     		mov	r1, r2
 956 000c BB1C     		add	r3, r7, #2
 957 000e 021C     		add	r2, r0, #0
 958 0010 1A80     		strh	r2, [r3]
 959 0012 3B1C     		mov	r3, r7
 960 0014 0A1C     		add	r2, r1, #0
 961 0016 1A80     		strh	r2, [r3]
 439:lib_Network/network.c ****     char sendBuffer[DATA_BUFFER];
 440:lib_Network/network.c ****     char sendData[DATA_BUFFER];
 441:lib_Network/network.c ****     
 442:lib_Network/network.c ****     /*pack data*/
 443:lib_Network/network.c ****     sprintf(sendData,"%08X%03X", unixTime,millis); 
 962              		.loc 1 443 0
 963 0018 BB1C     		add	r3, r7, #2
 964 001a 1B88     		ldrh	r3, [r3]
 965 001c 0822     		mov	r2, #8
 966 001e B818     		add	r0, r7, r2
 967 0020 0B49     		ldr	r1, .L54
 968 0022 7A68     		ldr	r2, [r7, #4]
ARM GAS  C:\Users\Petro\AppData\Local\Temp\ccJj3IiC.s 			page 26


 969 0024 FFF7FEFF 		bl	sprintf
 444:lib_Network/network.c ****     PackData(sendBuffer, (uint8_t *)sendData, ID);
 970              		.loc 1 444 0
 971 0028 3C23     		mov	r3, #60
 972 002a F918     		add	r1, r7, r3
 973 002c 0823     		mov	r3, #8
 974 002e FA18     		add	r2, r7, r3
 975 0030 3B1C     		mov	r3, r7
 976 0032 1B88     		ldrh	r3, [r3]
 977 0034 081C     		mov	r0, r1
 978 0036 111C     		mov	r1, r2
 979 0038 1A1C     		mov	r2, r3
 980 003a FFF7FEFF 		bl	PackData
 445:lib_Network/network.c ****     UART_XB_UartPutString(sendBuffer);
 981              		.loc 1 445 0
 982 003e 3C23     		mov	r3, #60
 983 0040 FB18     		add	r3, r7, r3
 984 0042 181C     		mov	r0, r3
 985 0044 FFF7FEFF 		bl	UART_XB_UartPutString
 446:lib_Network/network.c ****     
 447:lib_Network/network.c ****     #ifdef DEBUG_INFO 
 448:lib_Network/network.c ****         SW_UART_DEBUG_PutString(sendBuffer);
 449:lib_Network/network.c ****         SW_UART_DEBUG_PutString("\n\r");
 450:lib_Network/network.c ****     #endif  
 451:lib_Network/network.c **** }
 986              		.loc 1 451 0
 987 0048 BD46     		mov	sp, r7
 988 004a 1CB0     		add	sp, sp, #112
 989              		@ sp needed
 990 004c 80BD     		pop	{r7, pc}
 991              	.L55:
 992 004e C046     		.align	2
 993              	.L54:
 994 0050 1C000000 		.word	.LC18
 995              		.cfi_endproc
 996              	.LFE72:
 997              		.size	NTPsendTime, .-NTPsendTime
 998              		.section	.text.NTPreceiveTime,"ax",%progbits
 999              		.align	2
 1000              		.global	NTPreceiveTime
 1001              		.code	16
 1002              		.thumb_func
 1003              		.type	NTPreceiveTime, %function
 1004              	NTPreceiveTime:
 1005              	.LFB73:
 452:lib_Network/network.c **** 
 453:lib_Network/network.c **** /*******************************************************************************
 454:lib_Network/network.c **** * Function Name: NTPreceiveTime
 455:lib_Network/network.c **** ********************************************************************************
 456:lib_Network/network.c **** *
 457:lib_Network/network.c **** * Summary:
 458:lib_Network/network.c **** *   receive time to NTP protocol
 459:lib_Network/network.c **** * Parametrs:
 460:lib_Network/network.c **** *   *unixTime2,unixTime3 - time in unix format
 461:lib_Network/network.c **** *   *millisTime2,millisTime3 - millis time
 462:lib_Network/network.c **** *   *IDreceive - ID packet
 463:lib_Network/network.c **** * Return:
ARM GAS  C:\Users\Petro\AppData\Local\Temp\ccJj3IiC.s 			page 27


 464:lib_Network/network.c **** *   READ_OK or NO_READ
 465:lib_Network/network.c **** *
 466:lib_Network/network.c **** *******************************************************************************/
 467:lib_Network/network.c **** uint32_t NTPreceiveTime(uint32_t *unixTime2, uint16_t *millisTime2, uint32_t *unixTime3, uint16_t *
 468:lib_Network/network.c **** {
 1006              		.loc 1 468 0
 1007              		.cfi_startproc
 1008 0000 80B5     		push	{r7, lr}
 1009              		.cfi_def_cfa_offset 8
 1010              		.cfi_offset 7, -8
 1011              		.cfi_offset 14, -4
 1012 0002 8CB0     		sub	sp, sp, #48
 1013              		.cfi_def_cfa_offset 56
 1014 0004 00AF     		add	r7, sp, #0
 1015              		.cfi_def_cfa_register 7
 1016 0006 F860     		str	r0, [r7, #12]
 1017 0008 B960     		str	r1, [r7, #8]
 1018 000a 7A60     		str	r2, [r7, #4]
 1019 000c 3B60     		str	r3, [r7]
 469:lib_Network/network.c ****     uint8_t byte;
 470:lib_Network/network.c ****     uint32_t result;
 471:lib_Network/network.c ****     
 472:lib_Network/network.c ****     result = READ_OK;   
 1020              		.loc 1 472 0
 1021 000e 0123     		mov	r3, #1
 1022 0010 FB62     		str	r3, [r7, #44]
 473:lib_Network/network.c ****     NtpResp recvDataNTP;
 474:lib_Network/network.c ****     while((UART_XB_SpiUartGetRxBufferSize() > 0) && ((byte = UART_XB_UartGetChar()) != 0))
 1023              		.loc 1 474 0
 1024 0012 2FE0     		b	.L57
 1025              	.L61:
 475:lib_Network/network.c ****     {
 476:lib_Network/network.c ****         result = NtpUnpackData(&recvDataNTP, (uint8_t)(byte & 0xFF));
 1026              		.loc 1 476 0
 1027 0014 1023     		mov	r3, #16
 1028 0016 FA18     		add	r2, r7, r3
 1029 0018 2B23     		mov	r3, #43
 1030 001a FB18     		add	r3, r7, r3
 1031 001c 1B78     		ldrb	r3, [r3]
 1032 001e 101C     		mov	r0, r2
 1033 0020 191C     		mov	r1, r3
 1034 0022 FFF7FEFF 		bl	NtpUnpackData
 1035 0026 031C     		mov	r3, r0
 1036 0028 FB62     		str	r3, [r7, #44]
 477:lib_Network/network.c ****         CyDelay(1);
 1037              		.loc 1 477 0
 1038 002a 0120     		mov	r0, #1
 1039 002c FFF7FEFF 		bl	CyDelay
 478:lib_Network/network.c ****         #ifdef DEBUG_INFO
 479:lib_Network/network.c ****             //SW_UART_DEBUG_PutChar(byte);
 480:lib_Network/network.c ****         #endif
 481:lib_Network/network.c ****             
 482:lib_Network/network.c ****         if(recvDataNTP.EndPacket == 1)
 1040              		.loc 1 482 0
 1041 0030 1023     		mov	r3, #16
 1042 0032 FB18     		add	r3, r7, r3
 1043 0034 1B7D     		ldrb	r3, [r3, #20]
ARM GAS  C:\Users\Petro\AppData\Local\Temp\ccJj3IiC.s 			page 28


 1044 0036 012B     		cmp	r3, #1
 1045 0038 1AD1     		bne	.L58
 483:lib_Network/network.c ****         {
 484:lib_Network/network.c ****             /*save unix time*/
 485:lib_Network/network.c ****             *IDreceive = recvDataNTP.Id;
 1046              		.loc 1 485 0
 1047 003a 1023     		mov	r3, #16
 1048 003c FB18     		add	r3, r7, r3
 1049 003e 1A88     		ldrh	r2, [r3]
 1050 0040 BB6B     		ldr	r3, [r7, #56]
 1051 0042 1A80     		strh	r2, [r3]
 486:lib_Network/network.c ****             *unixTime2 = recvDataNTP.Data1;
 1052              		.loc 1 486 0
 1053 0044 1023     		mov	r3, #16
 1054 0046 FB18     		add	r3, r7, r3
 1055 0048 5A68     		ldr	r2, [r3, #4]
 1056 004a FB68     		ldr	r3, [r7, #12]
 1057 004c 1A60     		str	r2, [r3]
 487:lib_Network/network.c ****             *millisTime2 = recvDataNTP.DataMs1;
 1058              		.loc 1 487 0
 1059 004e 1023     		mov	r3, #16
 1060 0050 FB18     		add	r3, r7, r3
 1061 0052 1A89     		ldrh	r2, [r3, #8]
 1062 0054 BB68     		ldr	r3, [r7, #8]
 1063 0056 1A80     		strh	r2, [r3]
 488:lib_Network/network.c ****             *unixTime3 = recvDataNTP.Data2;
 1064              		.loc 1 488 0
 1065 0058 1023     		mov	r3, #16
 1066 005a FB18     		add	r3, r7, r3
 1067 005c DA68     		ldr	r2, [r3, #12]
 1068 005e 7B68     		ldr	r3, [r7, #4]
 1069 0060 1A60     		str	r2, [r3]
 489:lib_Network/network.c ****             *millisTime3 = recvDataNTP.DataMs2;
 1070              		.loc 1 489 0
 1071 0062 1023     		mov	r3, #16
 1072 0064 FB18     		add	r3, r7, r3
 1073 0066 5A89     		ldrh	r2, [r3, #10]
 1074 0068 3B68     		ldr	r3, [r7]
 1075 006a 1A80     		strh	r2, [r3]
 490:lib_Network/network.c **** 
 491:lib_Network/network.c ****             #ifdef DEBUG_INFO
 492:lib_Network/network.c ****                 char uartBuff[100];
 493:lib_Network/network.c ****                 sprintf(uartBuff,"id receive=%u\n\r",recvDataNTP.Id);
 494:lib_Network/network.c ****                 SW_UART_DEBUG_PutString(uartBuff);
 495:lib_Network/network.c ****             #endif
 496:lib_Network/network.c ****         
 497:lib_Network/network.c ****             return READ_OK;
 1076              		.loc 1 497 0
 1077 006c 0123     		mov	r3, #1
 1078 006e 13E0     		b	.L62
 1079              	.L58:
 498:lib_Network/network.c ****         }
 499:lib_Network/network.c ****         result = NO_READ;
 1080              		.loc 1 499 0
 1081 0070 0023     		mov	r3, #0
 1082 0072 FB62     		str	r3, [r7, #44]
 1083              	.L57:
ARM GAS  C:\Users\Petro\AppData\Local\Temp\ccJj3IiC.s 			page 29


 474:lib_Network/network.c ****     {
 1084              		.loc 1 474 0
 1085 0074 FFF7FEFF 		bl	UART_XB_SpiUartGetRxBufferSize
 1086 0078 031E     		sub	r3, r0, #0
 1087 007a 0AD0     		beq	.L60
 474:lib_Network/network.c ****     {
 1088              		.loc 1 474 0 is_stmt 0 discriminator 1
 1089 007c FFF7FEFF 		bl	UART_XB_UartGetChar
 1090 0080 021C     		mov	r2, r0
 1091 0082 2B23     		mov	r3, #43
 1092 0084 FB18     		add	r3, r7, r3
 1093 0086 1A70     		strb	r2, [r3]
 1094 0088 2B23     		mov	r3, #43
 1095 008a FB18     		add	r3, r7, r3
 1096 008c 1B78     		ldrb	r3, [r3]
 1097 008e 002B     		cmp	r3, #0
 1098 0090 C0D1     		bne	.L61
 1099              	.L60:
 500:lib_Network/network.c ****     }
 501:lib_Network/network.c ****     result = NO_READ;
 1100              		.loc 1 501 0 is_stmt 1
 1101 0092 0023     		mov	r3, #0
 1102 0094 FB62     		str	r3, [r7, #44]
 502:lib_Network/network.c ****     
 503:lib_Network/network.c ****     return result;
 1103              		.loc 1 503 0
 1104 0096 FB6A     		ldr	r3, [r7, #44]
 1105              	.L62:
 504:lib_Network/network.c **** }
 1106              		.loc 1 504 0 discriminator 1
 1107 0098 181C     		mov	r0, r3
 1108 009a BD46     		mov	sp, r7
 1109 009c 0CB0     		add	sp, sp, #48
 1110              		@ sp needed
 1111 009e 80BD     		pop	{r7, pc}
 1112              		.cfi_endproc
 1113              	.LFE73:
 1114              		.size	NTPreceiveTime, .-NTPreceiveTime
 1115              		.section	.text.NTPsetTimeToStart,"ax",%progbits
 1116              		.align	2
 1117              		.global	NTPsetTimeToStart
 1118              		.code	16
 1119              		.thumb_func
 1120              		.type	NTPsetTimeToStart, %function
 1121              	NTPsetTimeToStart:
 1122              	.LFB74:
 505:lib_Network/network.c **** 
 506:lib_Network/network.c **** /*******************************************************************************
 507:lib_Network/network.c **** * Function Name: NTPsetTimeToStart
 508:lib_Network/network.c **** ********************************************************************************
 509:lib_Network/network.c **** *
 510:lib_Network/network.c **** * Summary:
 511:lib_Network/network.c **** *   sending start time based on the time of delivery
 512:lib_Network/network.c **** * Parametrs:
 513:lib_Network/network.c **** *   unixTime4 - time in unix format
 514:lib_Network/network.c **** *   millisTime4 - millis time
 515:lib_Network/network.c **** *   ID - ID packet
ARM GAS  C:\Users\Petro\AppData\Local\Temp\ccJj3IiC.s 			page 30


 516:lib_Network/network.c **** *
 517:lib_Network/network.c **** *******************************************************************************/
 518:lib_Network/network.c **** uint32_t NTPsetTimeToStart(uint32_t unixTime4, uint16_t millisTime4, uint16_t ID)
 519:lib_Network/network.c **** {
 1123              		.loc 1 519 0
 1124              		.cfi_startproc
 1125 0000 90B5     		push	{r4, r7, lr}
 1126              		.cfi_def_cfa_offset 12
 1127              		.cfi_offset 4, -12
 1128              		.cfi_offset 7, -8
 1129              		.cfi_offset 14, -4
 1130 0002 89B0     		sub	sp, sp, #36
 1131              		.cfi_def_cfa_offset 48
 1132 0004 02AF     		add	r7, sp, #8
 1133              		.cfi_def_cfa 7, 40
 1134 0006 7860     		str	r0, [r7, #4]
 1135 0008 081C     		mov	r0, r1
 1136 000a 111C     		mov	r1, r2
 1137 000c BB1C     		add	r3, r7, #2
 1138 000e 021C     		add	r2, r0, #0
 1139 0010 1A80     		strh	r2, [r3]
 1140 0012 3B1C     		mov	r3, r7
 1141 0014 0A1C     		add	r2, r1, #0
 1142 0016 1A80     		strh	r2, [r3]
 520:lib_Network/network.c ****     
 521:lib_Network/network.c ****     uint32_t resultReceive;
 522:lib_Network/network.c ****     uint16_t IDreceivePacket;
 523:lib_Network/network.c ****     uint32_t result;
 524:lib_Network/network.c ****     
 525:lib_Network/network.c ****     noConnect = 0;
 1143              		.loc 1 525 0
 1144 0018 224B     		ldr	r3, .L69
 1145 001a 0022     		mov	r2, #0
 1146 001c 1A60     		str	r2, [r3]
 526:lib_Network/network.c ****     result = NO_WRITE;
 1147              		.loc 1 526 0
 1148 001e 0023     		mov	r3, #0
 1149 0020 7B61     		str	r3, [r7, #20]
 527:lib_Network/network.c ****     
 528:lib_Network/network.c ****     while((result == NO_WRITE) && (noConnect < 10))
 1150              		.loc 1 528 0
 1151 0022 33E0     		b	.L64
 1152              	.L67:
 529:lib_Network/network.c ****     {      
 530:lib_Network/network.c ****         NTPsendTime(unixTime4, millisTime4,ID); 
 1153              		.loc 1 530 0
 1154 0024 7968     		ldr	r1, [r7, #4]
 1155 0026 BB1C     		add	r3, r7, #2
 1156 0028 1A88     		ldrh	r2, [r3]
 1157 002a 3B1C     		mov	r3, r7
 1158 002c 1B88     		ldrh	r3, [r3]
 1159 002e 081C     		mov	r0, r1
 1160 0030 111C     		mov	r1, r2
 1161 0032 1A1C     		mov	r2, r3
 1162 0034 FFF7FEFF 		bl	NTPsendTime
 531:lib_Network/network.c ****         
 532:lib_Network/network.c ****         CyDelay(500);
ARM GAS  C:\Users\Petro\AppData\Local\Temp\ccJj3IiC.s 			page 31


 1163              		.loc 1 532 0
 1164 0038 FA23     		mov	r3, #250
 1165 003a 5B00     		lsl	r3, r3, #1
 1166 003c 181C     		mov	r0, r3
 1167 003e FFF7FEFF 		bl	CyDelay
 533:lib_Network/network.c ****         resultReceive = NTPreceiveTime(&unixTime[T2], &millisTime[T2], &unixTime[T3], &millisTime[T
 1168              		.loc 1 533 0
 1169 0042 1948     		ldr	r0, .L69+4
 1170 0044 1949     		ldr	r1, .L69+8
 1171 0046 1A4A     		ldr	r2, .L69+12
 1172 0048 1A4C     		ldr	r4, .L69+16
 1173 004a 0E23     		mov	r3, #14
 1174 004c FB18     		add	r3, r7, r3
 1175 004e 0093     		str	r3, [sp]
 1176 0050 231C     		mov	r3, r4
 1177 0052 FFF7FEFF 		bl	NTPreceiveTime
 1178 0056 031C     		mov	r3, r0
 1179 0058 3B61     		str	r3, [r7, #16]
 534:lib_Network/network.c ****         if((resultReceive == READ_OK) && (IDreceivePacket == ID))
 1180              		.loc 1 534 0
 1181 005a 3B69     		ldr	r3, [r7, #16]
 1182 005c 012B     		cmp	r3, #1
 1183 005e 09D1     		bne	.L65
 1184              		.loc 1 534 0 is_stmt 0 discriminator 1
 1185 0060 0E23     		mov	r3, #14
 1186 0062 FB18     		add	r3, r7, r3
 1187 0064 1B88     		ldrh	r3, [r3]
 1188 0066 3A1C     		mov	r2, r7
 1189 0068 1288     		ldrh	r2, [r2]
 1190 006a 9A42     		cmp	r2, r3
 1191 006c 02D1     		bne	.L65
 535:lib_Network/network.c ****         {
 536:lib_Network/network.c ****             result = WRITE_OK;
 1192              		.loc 1 536 0 is_stmt 1
 1193 006e 0123     		mov	r3, #1
 1194 0070 7B61     		str	r3, [r7, #20]
 1195 0072 0BE0     		b	.L64
 1196              	.L65:
 537:lib_Network/network.c ****             #ifdef DEBUG_INFO 
 538:lib_Network/network.c ****                 SW_UART_DEBUG_PutString("send delivery time ok\n\r");
 539:lib_Network/network.c ****             #endif 
 540:lib_Network/network.c ****         }
 541:lib_Network/network.c ****         else
 542:lib_Network/network.c ****         {
 543:lib_Network/network.c ****             result = NO_WRITE;
 1197              		.loc 1 543 0
 1198 0074 0023     		mov	r3, #0
 1199 0076 7B61     		str	r3, [r7, #20]
 544:lib_Network/network.c ****             noConnect++;
 1200              		.loc 1 544 0
 1201 0078 0A4B     		ldr	r3, .L69
 1202 007a 1B68     		ldr	r3, [r3]
 1203 007c 5A1C     		add	r2, r3, #1
 1204 007e 094B     		ldr	r3, .L69
 1205 0080 1A60     		str	r2, [r3]
 545:lib_Network/network.c ****             CyDelay(500);
 1206              		.loc 1 545 0
ARM GAS  C:\Users\Petro\AppData\Local\Temp\ccJj3IiC.s 			page 32


 1207 0082 FA23     		mov	r3, #250
 1208 0084 5B00     		lsl	r3, r3, #1
 1209 0086 181C     		mov	r0, r3
 1210 0088 FFF7FEFF 		bl	CyDelay
 1211              	.L64:
 528:lib_Network/network.c ****     {      
 1212              		.loc 1 528 0
 1213 008c 7B69     		ldr	r3, [r7, #20]
 1214 008e 002B     		cmp	r3, #0
 1215 0090 03D1     		bne	.L66
 528:lib_Network/network.c ****     {      
 1216              		.loc 1 528 0 is_stmt 0 discriminator 1
 1217 0092 044B     		ldr	r3, .L69
 1218 0094 1B68     		ldr	r3, [r3]
 1219 0096 092B     		cmp	r3, #9
 1220 0098 C4D9     		bls	.L67
 1221              	.L66:
 546:lib_Network/network.c ****             
 547:lib_Network/network.c ****             #ifdef DEBUG_INFO 
 548:lib_Network/network.c ****                 char uartBuff[100];
 549:lib_Network/network.c ****                 sprintf(uartBuff,"noConnect=%u",noConnect);
 550:lib_Network/network.c ****                 SW_UART_DEBUG_PutString(uartBuff);
 551:lib_Network/network.c ****             #endif             
 552:lib_Network/network.c ****         }
 553:lib_Network/network.c ****     }
 554:lib_Network/network.c ****     
 555:lib_Network/network.c ****     return result;
 1222              		.loc 1 555 0 is_stmt 1
 1223 009a 7B69     		ldr	r3, [r7, #20]
 556:lib_Network/network.c **** }
 1224              		.loc 1 556 0
 1225 009c 181C     		mov	r0, r3
 1226 009e BD46     		mov	sp, r7
 1227 00a0 07B0     		add	sp, sp, #28
 1228              		@ sp needed
 1229 00a2 90BD     		pop	{r4, r7, pc}
 1230              	.L70:
 1231              		.align	2
 1232              	.L69:
 1233 00a4 00000000 		.word	noConnect
 1234 00a8 04000000 		.word	unixTime+4
 1235 00ac 02000000 		.word	millisTime+2
 1236 00b0 08000000 		.word	unixTime+8
 1237 00b4 04000000 		.word	millisTime+4
 1238              		.cfi_endproc
 1239              	.LFE74:
 1240              		.size	NTPsetTimeToStart, .-NTPsetTimeToStart
 1241              		.section	.text.NTPcalculateTime,"ax",%progbits
 1242              		.align	2
 1243              		.global	NTPcalculateTime
 1244              		.code	16
 1245              		.thumb_func
 1246              		.type	NTPcalculateTime, %function
 1247              	NTPcalculateTime:
 1248              	.LFB75:
 557:lib_Network/network.c **** 
 558:lib_Network/network.c **** void NTPcalculateTime(uint32_t unixTime[], uint16_t msTime[], int32_t *sumTime, int32_t *sumMs)
ARM GAS  C:\Users\Petro\AppData\Local\Temp\ccJj3IiC.s 			page 33


 559:lib_Network/network.c **** {
 1249              		.loc 1 559 0
 1250              		.cfi_startproc
 1251 0000 80B5     		push	{r7, lr}
 1252              		.cfi_def_cfa_offset 8
 1253              		.cfi_offset 7, -8
 1254              		.cfi_offset 14, -4
 1255 0002 8AB0     		sub	sp, sp, #40
 1256              		.cfi_def_cfa_offset 48
 1257 0004 00AF     		add	r7, sp, #0
 1258              		.cfi_def_cfa_register 7
 1259 0006 F860     		str	r0, [r7, #12]
 1260 0008 B960     		str	r1, [r7, #8]
 1261 000a 7A60     		str	r2, [r7, #4]
 1262 000c 3B60     		str	r3, [r7]
 560:lib_Network/network.c ****     /*calculate ms time*/
 561:lib_Network/network.c ****     int32_t tmpMsMaster;
 562:lib_Network/network.c ****     int32_t tmpTimeMaster;    
 563:lib_Network/network.c ****     int32_t tmpMsSlave;
 564:lib_Network/network.c ****     int32_t tmpTimeSlave;
 565:lib_Network/network.c ****     int32_t tmpDiffTime;
 566:lib_Network/network.c ****     int32_t tmpDiffMs;
 567:lib_Network/network.c ****     
 568:lib_Network/network.c ****     tmpTimeMaster = unixTime[T4] - unixTime[T1];
 1263              		.loc 1 568 0
 1264 000e FB68     		ldr	r3, [r7, #12]
 1265 0010 0C33     		add	r3, r3, #12
 1266 0012 1A68     		ldr	r2, [r3]
 1267 0014 FB68     		ldr	r3, [r7, #12]
 1268 0016 1B68     		ldr	r3, [r3]
 1269 0018 D31A     		sub	r3, r2, r3
 1270 001a 3B62     		str	r3, [r7, #32]
 569:lib_Network/network.c ****     tmpMsMaster = (msTime[T4] - msTime[T1]);
 1271              		.loc 1 569 0
 1272 001c BB68     		ldr	r3, [r7, #8]
 1273 001e 0633     		add	r3, r3, #6
 1274 0020 1B88     		ldrh	r3, [r3]
 1275 0022 1A1C     		mov	r2, r3
 1276 0024 BB68     		ldr	r3, [r7, #8]
 1277 0026 1B88     		ldrh	r3, [r3]
 1278 0028 D31A     		sub	r3, r2, r3
 1279 002a 7B62     		str	r3, [r7, #36]
 570:lib_Network/network.c ****     if(tmpMsMaster < 0)
 1280              		.loc 1 570 0
 1281 002c 7B6A     		ldr	r3, [r7, #36]
 1282 002e 002B     		cmp	r3, #0
 1283 0030 08DA     		bge	.L72
 571:lib_Network/network.c ****     {
 572:lib_Network/network.c ****         tmpMsMaster += 1000;
 1284              		.loc 1 572 0
 1285 0032 7B6A     		ldr	r3, [r7, #36]
 1286 0034 FA22     		mov	r2, #250
 1287 0036 9200     		lsl	r2, r2, #2
 1288 0038 9446     		mov	ip, r2
 1289 003a 6344     		add	r3, r3, ip
 1290 003c 7B62     		str	r3, [r7, #36]
 573:lib_Network/network.c ****         tmpTimeMaster--;
ARM GAS  C:\Users\Petro\AppData\Local\Temp\ccJj3IiC.s 			page 34


 1291              		.loc 1 573 0
 1292 003e 3B6A     		ldr	r3, [r7, #32]
 1293 0040 013B     		sub	r3, r3, #1
 1294 0042 3B62     		str	r3, [r7, #32]
 1295              	.L72:
 574:lib_Network/network.c ****     }
 575:lib_Network/network.c ****     
 576:lib_Network/network.c ****     tmpTimeSlave = unixTime[T3] - unixTime[T2];
 1296              		.loc 1 576 0
 1297 0044 FB68     		ldr	r3, [r7, #12]
 1298 0046 0833     		add	r3, r3, #8
 1299 0048 1A68     		ldr	r2, [r3]
 1300 004a FB68     		ldr	r3, [r7, #12]
 1301 004c 0433     		add	r3, r3, #4
 1302 004e 1B68     		ldr	r3, [r3]
 1303 0050 D31A     		sub	r3, r2, r3
 1304 0052 BB61     		str	r3, [r7, #24]
 577:lib_Network/network.c ****     tmpMsSlave = msTime[T3] - msTime[T2];
 1305              		.loc 1 577 0
 1306 0054 BB68     		ldr	r3, [r7, #8]
 1307 0056 0433     		add	r3, r3, #4
 1308 0058 1B88     		ldrh	r3, [r3]
 1309 005a 1A1C     		mov	r2, r3
 1310 005c BB68     		ldr	r3, [r7, #8]
 1311 005e 0233     		add	r3, r3, #2
 1312 0060 1B88     		ldrh	r3, [r3]
 1313 0062 D31A     		sub	r3, r2, r3
 1314 0064 FB61     		str	r3, [r7, #28]
 578:lib_Network/network.c ****     if(tmpMsSlave < 0)
 1315              		.loc 1 578 0
 1316 0066 FB69     		ldr	r3, [r7, #28]
 1317 0068 002B     		cmp	r3, #0
 1318 006a 08DA     		bge	.L73
 579:lib_Network/network.c ****     {
 580:lib_Network/network.c ****         tmpMsSlave += 1000;
 1319              		.loc 1 580 0
 1320 006c FB69     		ldr	r3, [r7, #28]
 1321 006e FA22     		mov	r2, #250
 1322 0070 9200     		lsl	r2, r2, #2
 1323 0072 9446     		mov	ip, r2
 1324 0074 6344     		add	r3, r3, ip
 1325 0076 FB61     		str	r3, [r7, #28]
 581:lib_Network/network.c ****         tmpTimeSlave--;
 1326              		.loc 1 581 0
 1327 0078 BB69     		ldr	r3, [r7, #24]
 1328 007a 013B     		sub	r3, r3, #1
 1329 007c BB61     		str	r3, [r7, #24]
 1330              	.L73:
 582:lib_Network/network.c ****     }
 583:lib_Network/network.c ****     
 584:lib_Network/network.c ****     tmpDiffTime = tmpTimeMaster - tmpTimeSlave;
 1331              		.loc 1 584 0
 1332 007e 3A6A     		ldr	r2, [r7, #32]
 1333 0080 BB69     		ldr	r3, [r7, #24]
 1334 0082 D31A     		sub	r3, r2, r3
 1335 0084 3B61     		str	r3, [r7, #16]
 585:lib_Network/network.c ****     tmpDiffMs = tmpMsMaster - tmpMsSlave;
ARM GAS  C:\Users\Petro\AppData\Local\Temp\ccJj3IiC.s 			page 35


 1336              		.loc 1 585 0
 1337 0086 7A6A     		ldr	r2, [r7, #36]
 1338 0088 FB69     		ldr	r3, [r7, #28]
 1339 008a D31A     		sub	r3, r2, r3
 1340 008c 7B61     		str	r3, [r7, #20]
 586:lib_Network/network.c ****     
 587:lib_Network/network.c ****     tmpDiffMs /= 2;
 1341              		.loc 1 587 0
 1342 008e 7B69     		ldr	r3, [r7, #20]
 1343 0090 002B     		cmp	r3, #0
 1344 0092 00DA     		bge	.L74
 1345 0094 0133     		add	r3, r3, #1
 1346              	.L74:
 1347 0096 5B10     		asr	r3, r3, #1
 1348 0098 7B61     		str	r3, [r7, #20]
 588:lib_Network/network.c ****     if(tmpDiffTime%2 == 1)
 1349              		.loc 1 588 0
 1350 009a 3B69     		ldr	r3, [r7, #16]
 1351 009c 0E4A     		ldr	r2, .L78
 1352 009e 1340     		and	r3, r2
 1353 00a0 04D5     		bpl	.L75
 1354 00a2 013B     		sub	r3, r3, #1
 1355 00a4 0222     		mov	r2, #2
 1356 00a6 5242     		neg	r2, r2
 1357 00a8 1343     		orr	r3, r2
 1358 00aa 0133     		add	r3, r3, #1
 1359              	.L75:
 1360 00ac 012B     		cmp	r3, #1
 1361 00ae 03D1     		bne	.L76
 589:lib_Network/network.c ****     {
 590:lib_Network/network.c ****         tmpDiffMs += 500;
 1362              		.loc 1 590 0
 1363 00b0 7B69     		ldr	r3, [r7, #20]
 1364 00b2 F533     		add	r3, r3, #245
 1365 00b4 FF33     		add	r3, r3, #255
 1366 00b6 7B61     		str	r3, [r7, #20]
 1367              	.L76:
 591:lib_Network/network.c ****     }
 592:lib_Network/network.c ****     tmpDiffTime /= 2;
 1368              		.loc 1 592 0
 1369 00b8 3B69     		ldr	r3, [r7, #16]
 1370 00ba 002B     		cmp	r3, #0
 1371 00bc 00DA     		bge	.L77
 1372 00be 0133     		add	r3, r3, #1
 1373              	.L77:
 1374 00c0 5B10     		asr	r3, r3, #1
 1375 00c2 3B61     		str	r3, [r7, #16]
 593:lib_Network/network.c ****     
 594:lib_Network/network.c ****     *sumTime = tmpDiffTime;
 1376              		.loc 1 594 0
 1377 00c4 7B68     		ldr	r3, [r7, #4]
 1378 00c6 3A69     		ldr	r2, [r7, #16]
 1379 00c8 1A60     		str	r2, [r3]
 595:lib_Network/network.c ****     *sumMs = tmpDiffMs;   
 1380              		.loc 1 595 0
 1381 00ca 3B68     		ldr	r3, [r7]
 1382 00cc 7A69     		ldr	r2, [r7, #20]
ARM GAS  C:\Users\Petro\AppData\Local\Temp\ccJj3IiC.s 			page 36


 1383 00ce 1A60     		str	r2, [r3]
 596:lib_Network/network.c **** }
 1384              		.loc 1 596 0
 1385 00d0 BD46     		mov	sp, r7
 1386 00d2 0AB0     		add	sp, sp, #40
 1387              		@ sp needed
 1388 00d4 80BD     		pop	{r7, pc}
 1389              	.L79:
 1390 00d6 C046     		.align	2
 1391              	.L78:
 1392 00d8 01000080 		.word	-2147483647
 1393              		.cfi_endproc
 1394              	.LFE75:
 1395              		.size	NTPcalculateTime, .-NTPcalculateTime
 1396              		.text
 1397              	.Letext0:
 1398              		.file 2 "c:\\program files (x86)\\cypress\\psoc creator\\4.0\\psoc creator\\import\\gnu\\arm\\4.9.
 1399              		.file 3 "c:\\program files (x86)\\cypress\\psoc creator\\4.0\\psoc creator\\import\\gnu\\arm\\4.9.
 1400              		.file 4 "./lib_Network\\svt.h"
 1401              		.file 5 "./lib_Network\\ntp.h"
 1402              		.file 6 "./debug.h"
 1403              		.section	.debug_info,"",%progbits
 1404              	.Ldebug_info0:
 1405 0000 6D070000 		.4byte	0x76d
 1406 0004 0400     		.2byte	0x4
 1407 0006 00000000 		.4byte	.Ldebug_abbrev0
 1408 000a 04       		.byte	0x4
 1409 000b 01       		.uleb128 0x1
 1410 000c EC020000 		.4byte	.LASF95
 1411 0010 01       		.byte	0x1
 1412 0011 B4020000 		.4byte	.LASF96
 1413 0015 BF030000 		.4byte	.LASF97
 1414 0019 00000000 		.4byte	.Ldebug_ranges0+0
 1415 001d 00000000 		.4byte	0
 1416 0021 00000000 		.4byte	.Ldebug_line0
 1417 0025 02       		.uleb128 0x2
 1418 0026 01       		.byte	0x1
 1419 0027 06       		.byte	0x6
 1420 0028 17020000 		.4byte	.LASF0
 1421 002c 03       		.uleb128 0x3
 1422 002d A3010000 		.4byte	.LASF3
 1423 0031 02       		.byte	0x2
 1424 0032 1D       		.byte	0x1d
 1425 0033 37000000 		.4byte	0x37
 1426 0037 02       		.uleb128 0x2
 1427 0038 01       		.byte	0x1
 1428 0039 08       		.byte	0x8
 1429 003a CF010000 		.4byte	.LASF1
 1430 003e 02       		.uleb128 0x2
 1431 003f 02       		.byte	0x2
 1432 0040 05       		.byte	0x5
 1433 0041 E7000000 		.4byte	.LASF2
 1434 0045 03       		.uleb128 0x3
 1435 0046 D5000000 		.4byte	.LASF4
 1436 004a 02       		.byte	0x2
 1437 004b 2B       		.byte	0x2b
 1438 004c 50000000 		.4byte	0x50
ARM GAS  C:\Users\Petro\AppData\Local\Temp\ccJj3IiC.s 			page 37


 1439 0050 02       		.uleb128 0x2
 1440 0051 02       		.byte	0x2
 1441 0052 07       		.byte	0x7
 1442 0053 88030000 		.4byte	.LASF5
 1443 0057 03       		.uleb128 0x3
 1444 0058 79040000 		.4byte	.LASF6
 1445 005c 02       		.byte	0x2
 1446 005d 3F       		.byte	0x3f
 1447 005e 62000000 		.4byte	0x62
 1448 0062 02       		.uleb128 0x2
 1449 0063 04       		.byte	0x4
 1450 0064 05       		.byte	0x5
 1451 0065 79010000 		.4byte	.LASF7
 1452 0069 03       		.uleb128 0x3
 1453 006a CA000000 		.4byte	.LASF8
 1454 006e 02       		.byte	0x2
 1455 006f 41       		.byte	0x41
 1456 0070 74000000 		.4byte	0x74
 1457 0074 02       		.uleb128 0x2
 1458 0075 04       		.byte	0x4
 1459 0076 07       		.byte	0x7
 1460 0077 67020000 		.4byte	.LASF9
 1461 007b 02       		.uleb128 0x2
 1462 007c 08       		.byte	0x8
 1463 007d 05       		.byte	0x5
 1464 007e 4E010000 		.4byte	.LASF10
 1465 0082 03       		.uleb128 0x3
 1466 0083 25040000 		.4byte	.LASF11
 1467 0087 02       		.byte	0x2
 1468 0088 5B       		.byte	0x5b
 1469 0089 8D000000 		.4byte	0x8d
 1470 008d 02       		.uleb128 0x2
 1471 008e 08       		.byte	0x8
 1472 008f 07       		.byte	0x7
 1473 0090 2B020000 		.4byte	.LASF12
 1474 0094 04       		.uleb128 0x4
 1475 0095 04       		.byte	0x4
 1476 0096 05       		.byte	0x5
 1477 0097 696E7400 		.ascii	"int\000"
 1478 009b 02       		.uleb128 0x2
 1479 009c 04       		.byte	0x4
 1480 009d 07       		.byte	0x7
 1481 009e 51020000 		.4byte	.LASF13
 1482 00a2 03       		.uleb128 0x3
 1483 00a3 0A010000 		.4byte	.LASF14
 1484 00a7 03       		.byte	0x3
 1485 00a8 15       		.byte	0x15
 1486 00a9 2C000000 		.4byte	0x2c
 1487 00ad 03       		.uleb128 0x3
 1488 00ae 5E020000 		.4byte	.LASF15
 1489 00b2 03       		.byte	0x3
 1490 00b3 21       		.byte	0x21
 1491 00b4 45000000 		.4byte	0x45
 1492 00b8 03       		.uleb128 0x3
 1493 00b9 23020000 		.4byte	.LASF16
 1494 00bd 03       		.byte	0x3
 1495 00be 2C       		.byte	0x2c
ARM GAS  C:\Users\Petro\AppData\Local\Temp\ccJj3IiC.s 			page 38


 1496 00bf 57000000 		.4byte	0x57
 1497 00c3 03       		.uleb128 0x3
 1498 00c4 48020000 		.4byte	.LASF17
 1499 00c8 03       		.byte	0x3
 1500 00c9 2D       		.byte	0x2d
 1501 00ca 69000000 		.4byte	0x69
 1502 00ce 03       		.uleb128 0x3
 1503 00cf 74000000 		.4byte	.LASF18
 1504 00d3 03       		.byte	0x3
 1505 00d4 39       		.byte	0x39
 1506 00d5 82000000 		.4byte	0x82
 1507 00d9 02       		.uleb128 0x2
 1508 00da 04       		.byte	0x4
 1509 00db 04       		.byte	0x4
 1510 00dc 3E010000 		.4byte	.LASF19
 1511 00e0 02       		.uleb128 0x2
 1512 00e1 08       		.byte	0x8
 1513 00e2 04       		.byte	0x4
 1514 00e3 E0000000 		.4byte	.LASF20
 1515 00e7 02       		.uleb128 0x2
 1516 00e8 01       		.byte	0x1
 1517 00e9 08       		.byte	0x8
 1518 00ea AF020000 		.4byte	.LASF21
 1519 00ee 02       		.uleb128 0x2
 1520 00ef 04       		.byte	0x4
 1521 00f0 07       		.byte	0x7
 1522 00f1 9C000000 		.4byte	.LASF22
 1523 00f5 05       		.uleb128 0x5
 1524 00f6 83040000 		.4byte	.LASF98
 1525 00fa 20       		.byte	0x20
 1526 00fb 04       		.byte	0x4
 1527 00fc 08       		.byte	0x8
 1528 00fd 56010000 		.4byte	0x156
 1529 0101 06       		.uleb128 0x6
 1530 0102 53657100 		.ascii	"Seq\000"
 1531 0106 04       		.byte	0x4
 1532 0107 0A       		.byte	0xa
 1533 0108 AD000000 		.4byte	0xad
 1534 010c 00       		.byte	0
 1535 010d 07       		.uleb128 0x7
 1536 010e 9C020000 		.4byte	.LASF23
 1537 0112 04       		.byte	0x4
 1538 0113 0B       		.byte	0xb
 1539 0114 94000000 		.4byte	0x94
 1540 0118 04       		.byte	0x4
 1541 0119 07       		.uleb128 0x7
 1542 011a F9000000 		.4byte	.LASF24
 1543 011e 04       		.byte	0x4
 1544 011f 0C       		.byte	0xc
 1545 0120 CE000000 		.4byte	0xce
 1546 0124 08       		.byte	0x8
 1547 0125 07       		.uleb128 0x7
 1548 0126 1F040000 		.4byte	.LASF25
 1549 012a 04       		.byte	0x4
 1550 012b 0D       		.byte	0xd
 1551 012c AD000000 		.4byte	0xad
 1552 0130 10       		.byte	0x10
ARM GAS  C:\Users\Petro\AppData\Local\Temp\ccJj3IiC.s 			page 39


 1553 0131 07       		.uleb128 0x7
 1554 0132 AC040000 		.4byte	.LASF26
 1555 0136 04       		.byte	0x4
 1556 0137 0E       		.byte	0xe
 1557 0138 AD000000 		.4byte	0xad
 1558 013c 12       		.byte	0x12
 1559 013d 07       		.uleb128 0x7
 1560 013e BE010000 		.4byte	.LASF27
 1561 0142 04       		.byte	0x4
 1562 0143 0F       		.byte	0xf
 1563 0144 C3000000 		.4byte	0xc3
 1564 0148 14       		.byte	0x14
 1565 0149 07       		.uleb128 0x7
 1566 014a 44010000 		.4byte	.LASF28
 1567 014e 04       		.byte	0x4
 1568 014f 10       		.byte	0x10
 1569 0150 A2000000 		.4byte	0xa2
 1570 0154 18       		.byte	0x18
 1571 0155 00       		.byte	0
 1572 0156 08       		.uleb128 0x8
 1573 0157 18       		.byte	0x18
 1574 0158 05       		.byte	0x5
 1575 0159 18       		.byte	0x18
 1576 015a B2010000 		.4byte	0x1b2
 1577 015e 06       		.uleb128 0x6
 1578 015f 496400   		.ascii	"Id\000"
 1579 0162 05       		.byte	0x5
 1580 0163 1A       		.byte	0x1a
 1581 0164 AD000000 		.4byte	0xad
 1582 0168 00       		.byte	0
 1583 0169 07       		.uleb128 0x7
 1584 016a F9000000 		.4byte	.LASF24
 1585 016e 05       		.byte	0x5
 1586 016f 1B       		.byte	0x1b
 1587 0170 C3000000 		.4byte	0xc3
 1588 0174 04       		.byte	0x4
 1589 0175 07       		.uleb128 0x7
 1590 0176 3E000000 		.4byte	.LASF29
 1591 017a 05       		.byte	0x5
 1592 017b 1C       		.byte	0x1c
 1593 017c AD000000 		.4byte	0xad
 1594 0180 08       		.byte	0x8
 1595 0181 07       		.uleb128 0x7
 1596 0182 F1000000 		.4byte	.LASF30
 1597 0186 05       		.byte	0x5
 1598 0187 1D       		.byte	0x1d
 1599 0188 AD000000 		.4byte	0xad
 1600 018c 0A       		.byte	0xa
 1601 018d 07       		.uleb128 0x7
 1602 018e 1F040000 		.4byte	.LASF25
 1603 0192 05       		.byte	0x5
 1604 0193 1E       		.byte	0x1e
 1605 0194 C3000000 		.4byte	0xc3
 1606 0198 0C       		.byte	0xc
 1607 0199 07       		.uleb128 0x7
 1608 019a BE010000 		.4byte	.LASF27
 1609 019e 05       		.byte	0x5
ARM GAS  C:\Users\Petro\AppData\Local\Temp\ccJj3IiC.s 			page 40


 1610 019f 1F       		.byte	0x1f
 1611 01a0 C3000000 		.4byte	0xc3
 1612 01a4 10       		.byte	0x10
 1613 01a5 07       		.uleb128 0x7
 1614 01a6 44010000 		.4byte	.LASF28
 1615 01aa 05       		.byte	0x5
 1616 01ab 20       		.byte	0x20
 1617 01ac A2000000 		.4byte	0xa2
 1618 01b0 14       		.byte	0x14
 1619 01b1 00       		.byte	0
 1620 01b2 03       		.uleb128 0x3
 1621 01b3 0E000000 		.4byte	.LASF31
 1622 01b7 05       		.byte	0x5
 1623 01b8 21       		.byte	0x21
 1624 01b9 56010000 		.4byte	0x156
 1625 01bd 08       		.uleb128 0x8
 1626 01be 18       		.byte	0x18
 1627 01bf 01       		.byte	0x1
 1628 01c0 2B       		.byte	0x2b
 1629 01c1 1A020000 		.4byte	0x21a
 1630 01c5 07       		.uleb128 0x7
 1631 01c6 93020000 		.4byte	.LASF32
 1632 01ca 01       		.byte	0x1
 1633 01cb 2E       		.byte	0x2e
 1634 01cc A2000000 		.4byte	0xa2
 1635 01d0 00       		.byte	0
 1636 01d1 07       		.uleb128 0x7
 1637 01d2 E6020000 		.4byte	.LASF33
 1638 01d6 01       		.byte	0x1
 1639 01d7 2F       		.byte	0x2f
 1640 01d8 A2000000 		.4byte	0xa2
 1641 01dc 01       		.byte	0x1
 1642 01dd 07       		.uleb128 0x7
 1643 01de 95000000 		.4byte	.LASF34
 1644 01e2 01       		.byte	0x1
 1645 01e3 30       		.byte	0x30
 1646 01e4 A2000000 		.4byte	0xa2
 1647 01e8 02       		.byte	0x2
 1648 01e9 07       		.uleb128 0x7
 1649 01ea F0040000 		.4byte	.LASF35
 1650 01ee 01       		.byte	0x1
 1651 01ef 31       		.byte	0x31
 1652 01f0 A2000000 		.4byte	0xa2
 1653 01f4 03       		.byte	0x3
 1654 01f5 07       		.uleb128 0x7
 1655 01f6 85020000 		.4byte	.LASF36
 1656 01fa 01       		.byte	0x1
 1657 01fb 33       		.byte	0x33
 1658 01fc CE000000 		.4byte	0xce
 1659 0200 08       		.byte	0x8
 1660 0201 07       		.uleb128 0x7
 1661 0202 B4010000 		.4byte	.LASF37
 1662 0206 01       		.byte	0x1
 1663 0207 34       		.byte	0x34
 1664 0208 AD000000 		.4byte	0xad
 1665 020c 10       		.byte	0x10
 1666 020d 07       		.uleb128 0x7
ARM GAS  C:\Users\Petro\AppData\Local\Temp\ccJj3IiC.s 			page 41


 1667 020e 97010000 		.4byte	.LASF38
 1668 0212 01       		.byte	0x1
 1669 0213 35       		.byte	0x35
 1670 0214 A2000000 		.4byte	0xa2
 1671 0218 12       		.byte	0x12
 1672 0219 00       		.byte	0
 1673 021a 03       		.uleb128 0x3
 1674 021b 5C010000 		.4byte	.LASF39
 1675 021f 01       		.byte	0x1
 1676 0220 36       		.byte	0x36
 1677 0221 BD010000 		.4byte	0x1bd
 1678 0225 08       		.uleb128 0x8
 1679 0226 18       		.byte	0x18
 1680 0227 01       		.byte	0x1
 1681 0228 38       		.byte	0x38
 1682 0229 76020000 		.4byte	0x276
 1683 022d 07       		.uleb128 0x7
 1684 022e 93020000 		.4byte	.LASF32
 1685 0232 01       		.byte	0x1
 1686 0233 3B       		.byte	0x3b
 1687 0234 A2000000 		.4byte	0xa2
 1688 0238 00       		.byte	0
 1689 0239 07       		.uleb128 0x7
 1690 023a 7A030000 		.4byte	.LASF40
 1691 023e 01       		.byte	0x1
 1692 023f 3C       		.byte	0x3c
 1693 0240 CE000000 		.4byte	0xce
 1694 0244 08       		.byte	0x8
 1695 0245 07       		.uleb128 0x7
 1696 0246 BE000000 		.4byte	.LASF41
 1697 024a 01       		.byte	0x1
 1698 024b 3D       		.byte	0x3d
 1699 024c AD000000 		.4byte	0xad
 1700 0250 10       		.byte	0x10
 1701 0251 07       		.uleb128 0x7
 1702 0252 23000000 		.4byte	.LASF42
 1703 0256 01       		.byte	0x1
 1704 0257 3E       		.byte	0x3e
 1705 0258 A2000000 		.4byte	0xa2
 1706 025c 12       		.byte	0x12
 1707 025d 07       		.uleb128 0x7
 1708 025e 95000000 		.4byte	.LASF34
 1709 0262 01       		.byte	0x1
 1710 0263 3F       		.byte	0x3f
 1711 0264 A2000000 		.4byte	0xa2
 1712 0268 13       		.byte	0x13
 1713 0269 07       		.uleb128 0x7
 1714 026a A4020000 		.4byte	.LASF43
 1715 026e 01       		.byte	0x1
 1716 026f 41       		.byte	0x41
 1717 0270 A2000000 		.4byte	0xa2
 1718 0274 14       		.byte	0x14
 1719 0275 00       		.byte	0
 1720 0276 03       		.uleb128 0x3
 1721 0277 20010000 		.4byte	.LASF44
 1722 027b 01       		.byte	0x1
 1723 027c 42       		.byte	0x42
ARM GAS  C:\Users\Petro\AppData\Local\Temp\ccJj3IiC.s 			page 42


 1724 027d 25020000 		.4byte	0x225
 1725 0281 09       		.uleb128 0x9
 1726 0282 79020000 		.4byte	.LASF54
 1727 0286 01       		.byte	0x1
 1728 0287 5C       		.byte	0x5c
 1729 0288 00000000 		.4byte	.LFB63
 1730 028c 24000000 		.4byte	.LFE63-.LFB63
 1731 0290 01       		.uleb128 0x1
 1732 0291 9C       		.byte	0x9c
 1733 0292 0A       		.uleb128 0xa
 1734 0293 54000000 		.4byte	.LASF50
 1735 0297 01       		.byte	0x1
 1736 0298 72       		.byte	0x72
 1737 0299 00000000 		.4byte	.LFB64
 1738 029d 9C000000 		.4byte	.LFE64-.LFB64
 1739 02a1 01       		.uleb128 0x1
 1740 02a2 9C       		.byte	0x9c
 1741 02a3 D0020000 		.4byte	0x2d0
 1742 02a7 0B       		.uleb128 0xb
 1743 02a8 16000000 		.4byte	.LBB2
 1744 02ac 6E000000 		.4byte	.LBE2-.LBB2
 1745 02b0 0C       		.uleb128 0xc
 1746 02b1 FF000000 		.4byte	.LASF45
 1747 02b5 01       		.byte	0x1
 1748 02b6 76       		.byte	0x76
 1749 02b7 D0020000 		.4byte	0x2d0
 1750 02bb 03       		.uleb128 0x3
 1751 02bc 91       		.byte	0x91
 1752 02bd 887F     		.sleb128 -120
 1753 02bf 0C       		.uleb128 0xc
 1754 02c0 5D000000 		.4byte	.LASF46
 1755 02c4 01       		.byte	0x1
 1756 02c5 77       		.byte	0x77
 1757 02c6 D0020000 		.4byte	0x2d0
 1758 02ca 03       		.uleb128 0x3
 1759 02cb 91       		.byte	0x91
 1760 02cc BC7F     		.sleb128 -68
 1761 02ce 00       		.byte	0
 1762 02cf 00       		.byte	0
 1763 02d0 0D       		.uleb128 0xd
 1764 02d1 E7000000 		.4byte	0xe7
 1765 02d5 E0020000 		.4byte	0x2e0
 1766 02d9 0E       		.uleb128 0xe
 1767 02da EE000000 		.4byte	0xee
 1768 02de 31       		.byte	0x31
 1769 02df 00       		.byte	0
 1770 02e0 0F       		.uleb128 0xf
 1771 02e1 B2040000 		.4byte	.LASF52
 1772 02e5 01       		.byte	0x1
 1773 02e6 97       		.byte	0x97
 1774 02e7 C3000000 		.4byte	0xc3
 1775 02eb 00000000 		.4byte	.LFB65
 1776 02ef 70010000 		.4byte	.LFE65-.LFB65
 1777 02f3 01       		.uleb128 0x1
 1778 02f4 9C       		.byte	0x9c
 1779 02f5 37030000 		.4byte	0x337
 1780 02f9 0B       		.uleb128 0xb
ARM GAS  C:\Users\Petro\AppData\Local\Temp\ccJj3IiC.s 			page 43


 1781 02fa 1A000000 		.4byte	.LBB3
 1782 02fe 3C010000 		.4byte	.LBE3-.LBB3
 1783 0302 0C       		.uleb128 0xc
 1784 0303 00000000 		.4byte	.LASF47
 1785 0307 01       		.byte	0x1
 1786 0308 9B       		.byte	0x9b
 1787 0309 C3000000 		.4byte	0xc3
 1788 030d 02       		.uleb128 0x2
 1789 030e 91       		.byte	0x91
 1790 030f 6C       		.sleb128 -20
 1791 0310 10       		.uleb128 0x10
 1792 0311 6900     		.ascii	"i\000"
 1793 0313 01       		.byte	0x1
 1794 0314 9C       		.byte	0x9c
 1795 0315 94000000 		.4byte	0x94
 1796 0319 0C       		.uleb128 0xc
 1797 031a 74040000 		.4byte	.LASF48
 1798 031e 01       		.byte	0x1
 1799 031f 9D       		.byte	0x9d
 1800 0320 A2000000 		.4byte	0xa2
 1801 0324 02       		.uleb128 0x2
 1802 0325 91       		.byte	0x91
 1803 0326 6B       		.sleb128 -21
 1804 0327 0C       		.uleb128 0xc
 1805 0328 A5000000 		.4byte	.LASF49
 1806 032c 01       		.byte	0x1
 1807 032d 9E       		.byte	0x9e
 1808 032e F5000000 		.4byte	0xf5
 1809 0332 02       		.uleb128 0x2
 1810 0333 91       		.byte	0x91
 1811 0334 48       		.sleb128 -56
 1812 0335 00       		.byte	0
 1813 0336 00       		.byte	0
 1814 0337 11       		.uleb128 0x11
 1815 0338 7D000000 		.4byte	.LASF51
 1816 033c 01       		.byte	0x1
 1817 033d EB       		.byte	0xeb
 1818 033e 00000000 		.4byte	.LFB66
 1819 0342 1C000000 		.4byte	.LFE66-.LFB66
 1820 0346 01       		.uleb128 0x1
 1821 0347 9C       		.byte	0x9c
 1822 0348 5B030000 		.4byte	0x35b
 1823 034c 12       		.uleb128 0x12
 1824 034d E6020000 		.4byte	.LASF33
 1825 0351 01       		.byte	0x1
 1826 0352 EB       		.byte	0xeb
 1827 0353 C3000000 		.4byte	0xc3
 1828 0357 02       		.uleb128 0x2
 1829 0358 91       		.byte	0x91
 1830 0359 74       		.sleb128 -12
 1831 035a 00       		.byte	0
 1832 035b 13       		.uleb128 0x13
 1833 035c 12010000 		.4byte	.LASF99
 1834 0360 01       		.byte	0x1
 1835 0361 FA       		.byte	0xfa
 1836 0362 C3000000 		.4byte	0xc3
 1837 0366 00000000 		.4byte	.LFB67
ARM GAS  C:\Users\Petro\AppData\Local\Temp\ccJj3IiC.s 			page 44


 1838 036a 14000000 		.4byte	.LFE67-.LFB67
 1839 036e 01       		.uleb128 0x1
 1840 036f 9C       		.byte	0x9c
 1841 0370 14       		.uleb128 0x14
 1842 0371 2C000000 		.4byte	.LASF53
 1843 0375 01       		.byte	0x1
 1844 0376 0901     		.2byte	0x109
 1845 0378 C3000000 		.4byte	0xc3
 1846 037c 00000000 		.4byte	.LFB68
 1847 0380 44000000 		.4byte	.LFE68-.LFB68
 1848 0384 01       		.uleb128 0x1
 1849 0385 9C       		.byte	0x9c
 1850 0386 9A030000 		.4byte	0x39a
 1851 038a 15       		.uleb128 0x15
 1852 038b 00000000 		.4byte	.LASF47
 1853 038f 01       		.byte	0x1
 1854 0390 0B01     		.2byte	0x10b
 1855 0392 C3000000 		.4byte	0xc3
 1856 0396 02       		.uleb128 0x2
 1857 0397 91       		.byte	0x91
 1858 0398 74       		.sleb128 -12
 1859 0399 00       		.byte	0
 1860 039a 16       		.uleb128 0x16
 1861 039b 3B040000 		.4byte	.LASF55
 1862 039f 01       		.byte	0x1
 1863 03a0 1B01     		.2byte	0x11b
 1864 03a2 00000000 		.4byte	.LFB69
 1865 03a6 1C000000 		.4byte	.LFE69-.LFB69
 1866 03aa 01       		.uleb128 0x1
 1867 03ab 9C       		.byte	0x9c
 1868 03ac 16       		.uleb128 0x16
 1869 03ad 89010000 		.4byte	.LASF56
 1870 03b1 01       		.byte	0x1
 1871 03b2 2801     		.2byte	0x128
 1872 03b4 00000000 		.4byte	.LFB70
 1873 03b8 14000000 		.4byte	.LFE70-.LFB70
 1874 03bc 01       		.uleb128 0x1
 1875 03bd 9C       		.byte	0x9c
 1876 03be 17       		.uleb128 0x17
 1877 03bf 92040000 		.4byte	.LASF57
 1878 03c3 01       		.byte	0x1
 1879 03c4 3801     		.2byte	0x138
 1880 03c6 C3000000 		.4byte	0xc3
 1881 03ca 00000000 		.4byte	.LFB71
 1882 03ce DC010000 		.4byte	.LFE71-.LFB71
 1883 03d2 01       		.uleb128 0x1
 1884 03d3 9C       		.byte	0x9c
 1885 03d4 7B040000 		.4byte	0x47b
 1886 03d8 15       		.uleb128 0x15
 1887 03d9 00000000 		.4byte	.LASF47
 1888 03dd 01       		.byte	0x1
 1889 03de 3A01     		.2byte	0x13a
 1890 03e0 AD000000 		.4byte	0xad
 1891 03e4 02       		.uleb128 0x2
 1892 03e5 91       		.byte	0x91
 1893 03e6 6E       		.sleb128 -18
 1894 03e7 15       		.uleb128 0x15
ARM GAS  C:\Users\Petro\AppData\Local\Temp\ccJj3IiC.s 			page 45


 1895 03e8 66000000 		.4byte	.LASF58
 1896 03ec 01       		.byte	0x1
 1897 03ed 3B01     		.2byte	0x13b
 1898 03ef C3000000 		.4byte	0xc3
 1899 03f3 02       		.uleb128 0x2
 1900 03f4 91       		.byte	0x91
 1901 03f5 68       		.sleb128 -24
 1902 03f6 18       		.uleb128 0x18
 1903 03f7 6900     		.ascii	"i\000"
 1904 03f9 01       		.byte	0x1
 1905 03fa 3C01     		.2byte	0x13c
 1906 03fc 94000000 		.4byte	0x94
 1907 0400 02       		.uleb128 0x2
 1908 0401 91       		.byte	0x91
 1909 0402 64       		.sleb128 -28
 1910 0403 15       		.uleb128 0x15
 1911 0404 93020000 		.4byte	.LASF32
 1912 0408 01       		.byte	0x1
 1913 0409 3D01     		.2byte	0x13d
 1914 040b AD000000 		.4byte	0xad
 1915 040f 02       		.uleb128 0x2
 1916 0410 91       		.byte	0x91
 1917 0411 62       		.sleb128 -30
 1918 0412 15       		.uleb128 0x15
 1919 0413 AE000000 		.4byte	.LASF59
 1920 0417 01       		.byte	0x1
 1921 0418 3E01     		.2byte	0x13e
 1922 041a AD000000 		.4byte	0xad
 1923 041e 02       		.uleb128 0x2
 1924 041f 91       		.byte	0x91
 1925 0420 5A       		.sleb128 -38
 1926 0421 15       		.uleb128 0x15
 1927 0422 4B040000 		.4byte	.LASF60
 1928 0426 01       		.byte	0x1
 1929 0427 3F01     		.2byte	0x13f
 1930 0429 7B040000 		.4byte	0x47b
 1931 042d 02       		.uleb128 0x2
 1932 042e 91       		.byte	0x91
 1933 042f 48       		.sleb128 -56
 1934 0430 15       		.uleb128 0x15
 1935 0431 30040000 		.4byte	.LASF61
 1936 0435 01       		.byte	0x1
 1937 0436 4001     		.2byte	0x140
 1938 0438 8B040000 		.4byte	0x48b
 1939 043c 02       		.uleb128 0x2
 1940 043d 91       		.byte	0x91
 1941 043e 40       		.sleb128 -64
 1942 043f 15       		.uleb128 0x15
 1943 0440 C7010000 		.4byte	.LASF62
 1944 0444 01       		.byte	0x1
 1945 0445 4101     		.2byte	0x141
 1946 0447 B8000000 		.4byte	0xb8
 1947 044b 03       		.uleb128 0x3
 1948 044c 91       		.byte	0x91
 1949 044d BC7F     		.sleb128 -68
 1950 044f 15       		.uleb128 0x15
 1951 0450 88040000 		.4byte	.LASF63
ARM GAS  C:\Users\Petro\AppData\Local\Temp\ccJj3IiC.s 			page 46


 1952 0454 01       		.byte	0x1
 1953 0455 4201     		.2byte	0x142
 1954 0457 B8000000 		.4byte	0xb8
 1955 045b 03       		.uleb128 0x3
 1956 045c 91       		.byte	0x91
 1957 045d B87F     		.sleb128 -72
 1958 045f 15       		.uleb128 0x15
 1959 0460 67010000 		.4byte	.LASF64
 1960 0464 01       		.byte	0x1
 1961 0465 4301     		.2byte	0x143
 1962 0467 C3000000 		.4byte	0xc3
 1963 046b 02       		.uleb128 0x2
 1964 046c 91       		.byte	0x91
 1965 046d 5C       		.sleb128 -36
 1966 046e 19       		.uleb128 0x19
 1967 046f E2040000 		.4byte	.LASF65
 1968 0473 01       		.byte	0x1
 1969 0474 4401     		.2byte	0x144
 1970 0476 C3000000 		.4byte	0xc3
 1971 047a 00       		.byte	0
 1972 047b 0D       		.uleb128 0xd
 1973 047c C3000000 		.4byte	0xc3
 1974 0480 8B040000 		.4byte	0x48b
 1975 0484 0E       		.uleb128 0xe
 1976 0485 EE000000 		.4byte	0xee
 1977 0489 03       		.byte	0x3
 1978 048a 00       		.byte	0
 1979 048b 0D       		.uleb128 0xd
 1980 048c AD000000 		.4byte	0xad
 1981 0490 9B040000 		.4byte	0x49b
 1982 0494 0E       		.uleb128 0xe
 1983 0495 EE000000 		.4byte	0xee
 1984 0499 03       		.byte	0x3
 1985 049a 00       		.byte	0
 1986 049b 1A       		.uleb128 0x1a
 1987 049c FC040000 		.4byte	.LASF66
 1988 04a0 01       		.byte	0x1
 1989 04a1 B501     		.2byte	0x1b5
 1990 04a3 00000000 		.4byte	.LFB72
 1991 04a7 54000000 		.4byte	.LFE72-.LFB72
 1992 04ab 01       		.uleb128 0x1
 1993 04ac 9C       		.byte	0x9c
 1994 04ad 00050000 		.4byte	0x500
 1995 04b1 1B       		.uleb128 0x1b
 1996 04b2 4B040000 		.4byte	.LASF60
 1997 04b6 01       		.byte	0x1
 1998 04b7 B501     		.2byte	0x1b5
 1999 04b9 C3000000 		.4byte	0xc3
 2000 04bd 03       		.uleb128 0x3
 2001 04be 91       		.byte	0x91
 2002 04bf 8C7F     		.sleb128 -116
 2003 04c1 1B       		.uleb128 0x1b
 2004 04c2 82010000 		.4byte	.LASF67
 2005 04c6 01       		.byte	0x1
 2006 04c7 B501     		.2byte	0x1b5
 2007 04c9 AD000000 		.4byte	0xad
 2008 04cd 03       		.uleb128 0x3
ARM GAS  C:\Users\Petro\AppData\Local\Temp\ccJj3IiC.s 			page 47


 2009 04ce 91       		.byte	0x91
 2010 04cf 8A7F     		.sleb128 -118
 2011 04d1 1C       		.uleb128 0x1c
 2012 04d2 494400   		.ascii	"ID\000"
 2013 04d5 01       		.byte	0x1
 2014 04d6 B501     		.2byte	0x1b5
 2015 04d8 AD000000 		.4byte	0xad
 2016 04dc 03       		.uleb128 0x3
 2017 04dd 91       		.byte	0x91
 2018 04de 887F     		.sleb128 -120
 2019 04e0 15       		.uleb128 0x15
 2020 04e1 FF000000 		.4byte	.LASF45
 2021 04e5 01       		.byte	0x1
 2022 04e6 B701     		.2byte	0x1b7
 2023 04e8 D0020000 		.4byte	0x2d0
 2024 04ec 02       		.uleb128 0x2
 2025 04ed 91       		.byte	0x91
 2026 04ee 44       		.sleb128 -60
 2027 04ef 15       		.uleb128 0x15
 2028 04f0 5D000000 		.4byte	.LASF46
 2029 04f4 01       		.byte	0x1
 2030 04f5 B801     		.2byte	0x1b8
 2031 04f7 D0020000 		.4byte	0x2d0
 2032 04fb 03       		.uleb128 0x3
 2033 04fc 91       		.byte	0x91
 2034 04fd 907F     		.sleb128 -112
 2035 04ff 00       		.byte	0
 2036 0500 17       		.uleb128 0x17
 2037 0501 C8040000 		.4byte	.LASF68
 2038 0505 01       		.byte	0x1
 2039 0506 D301     		.2byte	0x1d3
 2040 0508 C3000000 		.4byte	0xc3
 2041 050c 00000000 		.4byte	.LFB73
 2042 0510 A0000000 		.4byte	.LFE73-.LFB73
 2043 0514 01       		.uleb128 0x1
 2044 0515 9C       		.byte	0x9c
 2045 0516 93050000 		.4byte	0x593
 2046 051a 1B       		.uleb128 0x1b
 2047 051b DD010000 		.4byte	.LASF69
 2048 051f 01       		.byte	0x1
 2049 0520 D301     		.2byte	0x1d3
 2050 0522 93050000 		.4byte	0x593
 2051 0526 02       		.uleb128 0x2
 2052 0527 91       		.byte	0x91
 2053 0528 54       		.sleb128 -44
 2054 0529 1B       		.uleb128 0x1b
 2055 052a 9B030000 		.4byte	.LASF70
 2056 052e 01       		.byte	0x1
 2057 052f D301     		.2byte	0x1d3
 2058 0531 99050000 		.4byte	0x599
 2059 0535 02       		.uleb128 0x2
 2060 0536 91       		.byte	0x91
 2061 0537 50       		.sleb128 -48
 2062 0538 1B       		.uleb128 0x1b
 2063 0539 E7010000 		.4byte	.LASF71
 2064 053d 01       		.byte	0x1
 2065 053e D301     		.2byte	0x1d3
ARM GAS  C:\Users\Petro\AppData\Local\Temp\ccJj3IiC.s 			page 48


 2066 0540 93050000 		.4byte	0x593
 2067 0544 02       		.uleb128 0x2
 2068 0545 91       		.byte	0x91
 2069 0546 4C       		.sleb128 -52
 2070 0547 1B       		.uleb128 0x1b
 2071 0548 A7030000 		.4byte	.LASF72
 2072 054c 01       		.byte	0x1
 2073 054d D301     		.2byte	0x1d3
 2074 054f 99050000 		.4byte	0x599
 2075 0553 02       		.uleb128 0x2
 2076 0554 91       		.byte	0x91
 2077 0555 48       		.sleb128 -56
 2078 0556 1B       		.uleb128 0x1b
 2079 0557 BE040000 		.4byte	.LASF73
 2080 055b 01       		.byte	0x1
 2081 055c D301     		.2byte	0x1d3
 2082 055e 99050000 		.4byte	0x599
 2083 0562 02       		.uleb128 0x2
 2084 0563 91       		.byte	0x91
 2085 0564 00       		.sleb128 0
 2086 0565 15       		.uleb128 0x15
 2087 0566 74040000 		.4byte	.LASF48
 2088 056a 01       		.byte	0x1
 2089 056b D501     		.2byte	0x1d5
 2090 056d A2000000 		.4byte	0xa2
 2091 0571 02       		.uleb128 0x2
 2092 0572 91       		.byte	0x91
 2093 0573 73       		.sleb128 -13
 2094 0574 15       		.uleb128 0x15
 2095 0575 00000000 		.4byte	.LASF47
 2096 0579 01       		.byte	0x1
 2097 057a D601     		.2byte	0x1d6
 2098 057c C3000000 		.4byte	0xc3
 2099 0580 02       		.uleb128 0x2
 2100 0581 91       		.byte	0x91
 2101 0582 74       		.sleb128 -12
 2102 0583 15       		.uleb128 0x15
 2103 0584 32010000 		.4byte	.LASF74
 2104 0588 01       		.byte	0x1
 2105 0589 D901     		.2byte	0x1d9
 2106 058b B2010000 		.4byte	0x1b2
 2107 058f 02       		.uleb128 0x2
 2108 0590 91       		.byte	0x91
 2109 0591 58       		.sleb128 -40
 2110 0592 00       		.byte	0
 2111 0593 1D       		.uleb128 0x1d
 2112 0594 04       		.byte	0x4
 2113 0595 C3000000 		.4byte	0xc3
 2114 0599 1D       		.uleb128 0x1d
 2115 059a 04       		.byte	0x4
 2116 059b AD000000 		.4byte	0xad
 2117 059f 17       		.uleb128 0x17
 2118 05a0 05020000 		.4byte	.LASF75
 2119 05a4 01       		.byte	0x1
 2120 05a5 0602     		.2byte	0x206
 2121 05a7 C3000000 		.4byte	0xc3
 2122 05ab 00000000 		.4byte	.LFB74
ARM GAS  C:\Users\Petro\AppData\Local\Temp\ccJj3IiC.s 			page 49


 2123 05af B8000000 		.4byte	.LFE74-.LFB74
 2124 05b3 01       		.uleb128 0x1
 2125 05b4 9C       		.byte	0x9c
 2126 05b5 13060000 		.4byte	0x613
 2127 05b9 1B       		.uleb128 0x1b
 2128 05ba F1010000 		.4byte	.LASF76
 2129 05be 01       		.byte	0x1
 2130 05bf 0602     		.2byte	0x206
 2131 05c1 C3000000 		.4byte	0xc3
 2132 05c5 02       		.uleb128 0x2
 2133 05c6 91       		.byte	0x91
 2134 05c7 5C       		.sleb128 -36
 2135 05c8 1B       		.uleb128 0x1b
 2136 05c9 B3030000 		.4byte	.LASF77
 2137 05cd 01       		.byte	0x1
 2138 05ce 0602     		.2byte	0x206
 2139 05d0 AD000000 		.4byte	0xad
 2140 05d4 02       		.uleb128 0x2
 2141 05d5 91       		.byte	0x91
 2142 05d6 5A       		.sleb128 -38
 2143 05d7 1C       		.uleb128 0x1c
 2144 05d8 494400   		.ascii	"ID\000"
 2145 05db 01       		.byte	0x1
 2146 05dc 0602     		.2byte	0x206
 2147 05de AD000000 		.4byte	0xad
 2148 05e2 02       		.uleb128 0x2
 2149 05e3 91       		.byte	0x91
 2150 05e4 58       		.sleb128 -40
 2151 05e5 15       		.uleb128 0x15
 2152 05e6 66000000 		.4byte	.LASF58
 2153 05ea 01       		.byte	0x1
 2154 05eb 0902     		.2byte	0x209
 2155 05ed C3000000 		.4byte	0xc3
 2156 05f1 02       		.uleb128 0x2
 2157 05f2 91       		.byte	0x91
 2158 05f3 68       		.sleb128 -24
 2159 05f4 15       		.uleb128 0x15
 2160 05f5 AE000000 		.4byte	.LASF59
 2161 05f9 01       		.byte	0x1
 2162 05fa 0A02     		.2byte	0x20a
 2163 05fc AD000000 		.4byte	0xad
 2164 0600 02       		.uleb128 0x2
 2165 0601 91       		.byte	0x91
 2166 0602 66       		.sleb128 -26
 2167 0603 15       		.uleb128 0x15
 2168 0604 00000000 		.4byte	.LASF47
 2169 0608 01       		.byte	0x1
 2170 0609 0B02     		.2byte	0x20b
 2171 060b C3000000 		.4byte	0xc3
 2172 060f 02       		.uleb128 0x2
 2173 0610 91       		.byte	0x91
 2174 0611 6C       		.sleb128 -20
 2175 0612 00       		.byte	0
 2176 0613 1E       		.uleb128 0x1e
 2177 0614 D5020000 		.4byte	.LASF78
 2178 0618 01       		.byte	0x1
 2179 0619 2E02     		.2byte	0x22e
ARM GAS  C:\Users\Petro\AppData\Local\Temp\ccJj3IiC.s 			page 50


 2180 061b 00000000 		.4byte	.LFB75
 2181 061f DC000000 		.4byte	.LFE75-.LFB75
 2182 0623 01       		.uleb128 0x1
 2183 0624 9C       		.byte	0x9c
 2184 0625 C0060000 		.4byte	0x6c0
 2185 0629 1B       		.uleb128 0x1b
 2186 062a 4B040000 		.4byte	.LASF60
 2187 062e 01       		.byte	0x1
 2188 062f 2E02     		.2byte	0x22e
 2189 0631 93050000 		.4byte	0x593
 2190 0635 02       		.uleb128 0x2
 2191 0636 91       		.byte	0x91
 2192 0637 5C       		.sleb128 -36
 2193 0638 1B       		.uleb128 0x1b
 2194 0639 07000000 		.4byte	.LASF79
 2195 063d 01       		.byte	0x1
 2196 063e 2E02     		.2byte	0x22e
 2197 0640 99050000 		.4byte	0x599
 2198 0644 02       		.uleb128 0x2
 2199 0645 91       		.byte	0x91
 2200 0646 58       		.sleb128 -40
 2201 0647 1B       		.uleb128 0x1b
 2202 0648 C7010000 		.4byte	.LASF62
 2203 064c 01       		.byte	0x1
 2204 064d 2E02     		.2byte	0x22e
 2205 064f C0060000 		.4byte	0x6c0
 2206 0653 02       		.uleb128 0x2
 2207 0654 91       		.byte	0x91
 2208 0655 54       		.sleb128 -44
 2209 0656 1B       		.uleb128 0x1b
 2210 0657 8D020000 		.4byte	.LASF80
 2211 065b 01       		.byte	0x1
 2212 065c 2E02     		.2byte	0x22e
 2213 065e C0060000 		.4byte	0x6c0
 2214 0662 02       		.uleb128 0x2
 2215 0663 91       		.byte	0x91
 2216 0664 50       		.sleb128 -48
 2217 0665 15       		.uleb128 0x15
 2218 0666 9A040000 		.4byte	.LASF81
 2219 066a 01       		.byte	0x1
 2220 066b 3102     		.2byte	0x231
 2221 066d B8000000 		.4byte	0xb8
 2222 0671 02       		.uleb128 0x2
 2223 0672 91       		.byte	0x91
 2224 0673 74       		.sleb128 -12
 2225 0674 15       		.uleb128 0x15
 2226 0675 46000000 		.4byte	.LASF82
 2227 0679 01       		.byte	0x1
 2228 067a 3202     		.2byte	0x232
 2229 067c B8000000 		.4byte	0xb8
 2230 0680 02       		.uleb128 0x2
 2231 0681 91       		.byte	0x91
 2232 0682 70       		.sleb128 -16
 2233 0683 15       		.uleb128 0x15
 2234 0684 D7040000 		.4byte	.LASF83
 2235 0688 01       		.byte	0x1
 2236 0689 3302     		.2byte	0x233
ARM GAS  C:\Users\Petro\AppData\Local\Temp\ccJj3IiC.s 			page 51


 2237 068b B8000000 		.4byte	0xb8
 2238 068f 02       		.uleb128 0x2
 2239 0690 91       		.byte	0x91
 2240 0691 6C       		.sleb128 -20
 2241 0692 15       		.uleb128 0x15
 2242 0693 16000000 		.4byte	.LASF84
 2243 0697 01       		.byte	0x1
 2244 0698 3402     		.2byte	0x234
 2245 069a B8000000 		.4byte	0xb8
 2246 069e 02       		.uleb128 0x2
 2247 069f 91       		.byte	0x91
 2248 06a0 68       		.sleb128 -24
 2249 06a1 15       		.uleb128 0x15
 2250 06a2 5A040000 		.4byte	.LASF85
 2251 06a6 01       		.byte	0x1
 2252 06a7 3502     		.2byte	0x235
 2253 06a9 B8000000 		.4byte	0xb8
 2254 06ad 02       		.uleb128 0x2
 2255 06ae 91       		.byte	0x91
 2256 06af 60       		.sleb128 -32
 2257 06b0 15       		.uleb128 0x15
 2258 06b1 FB010000 		.4byte	.LASF86
 2259 06b5 01       		.byte	0x1
 2260 06b6 3602     		.2byte	0x236
 2261 06b8 B8000000 		.4byte	0xb8
 2262 06bc 02       		.uleb128 0x2
 2263 06bd 91       		.byte	0x91
 2264 06be 64       		.sleb128 -28
 2265 06bf 00       		.byte	0
 2266 06c0 1D       		.uleb128 0x1d
 2267 06c1 04       		.byte	0x4
 2268 06c2 B8000000 		.4byte	0xb8
 2269 06c6 0C       		.uleb128 0xc
 2270 06c7 54040000 		.4byte	.LASF87
 2271 06cb 06       		.byte	0x6
 2272 06cc 04       		.byte	0x4
 2273 06cd AD000000 		.4byte	0xad
 2274 06d1 05       		.uleb128 0x5
 2275 06d2 03       		.byte	0x3
 2276 06d3 00000000 		.4byte	minMs
 2277 06d7 0C       		.uleb128 0xc
 2278 06d8 42020000 		.4byte	.LASF88
 2279 06dc 06       		.byte	0x6
 2280 06dd 05       		.byte	0x5
 2281 06de AD000000 		.4byte	0xad
 2282 06e2 05       		.uleb128 0x5
 2283 06e3 03       		.byte	0x3
 2284 06e4 02000000 		.4byte	maxMs
 2285 06e8 1F       		.uleb128 0x1f
 2286 06e9 A6040000 		.4byte	.LASF89
 2287 06ed 06       		.byte	0x6
 2288 06ee 06       		.byte	0x6
 2289 06ef AD000000 		.4byte	0xad
 2290 06f3 05       		.uleb128 0x5
 2291 06f4 03       		.byte	0x3
 2292 06f5 00000000 		.4byte	tmpMs
 2293 06f9 1F       		.uleb128 0x1f
ARM GAS  C:\Users\Petro\AppData\Local\Temp\ccJj3IiC.s 			page 52


 2294 06fa 2A010000 		.4byte	.LASF90
 2295 06fe 01       		.byte	0x1
 2296 06ff 44       		.byte	0x44
 2297 0700 1A020000 		.4byte	0x21a
 2298 0704 05       		.uleb128 0x5
 2299 0705 03       		.byte	0x3
 2300 0706 00000000 		.4byte	outData
 2301 070a 1F       		.uleb128 0x1f
 2302 070b AD010000 		.4byte	.LASF91
 2303 070f 01       		.byte	0x1
 2304 0710 45       		.byte	0x45
 2305 0711 76020000 		.4byte	0x276
 2306 0715 05       		.uleb128 0x5
 2307 0716 03       		.byte	0x3
 2308 0717 00000000 		.4byte	inData
 2309 071b 1F       		.uleb128 0x1f
 2310 071c CA020000 		.4byte	.LASF92
 2311 0720 01       		.byte	0x1
 2312 0721 47       		.byte	0x47
 2313 0722 C3000000 		.4byte	0xc3
 2314 0726 05       		.uleb128 0x5
 2315 0727 03       		.byte	0x3
 2316 0728 00000000 		.4byte	numAttemps
 2317 072c 1F       		.uleb128 0x1f
 2318 072d 8B000000 		.4byte	.LASF93
 2319 0731 01       		.byte	0x1
 2320 0732 47       		.byte	0x47
 2321 0733 C3000000 		.4byte	0xc3
 2322 0737 05       		.uleb128 0x5
 2323 0738 03       		.byte	0x3
 2324 0739 00000000 		.4byte	noConnect
 2325 073d 1F       		.uleb128 0x1f
 2326 073e 66040000 		.4byte	.LASF94
 2327 0742 01       		.byte	0x1
 2328 0743 47       		.byte	0x47
 2329 0744 C3000000 		.4byte	0xc3
 2330 0748 05       		.uleb128 0x5
 2331 0749 03       		.byte	0x3
 2332 074a 00000000 		.4byte	networkStatus
 2333 074e 1F       		.uleb128 0x1f
 2334 074f 4B040000 		.4byte	.LASF60
 2335 0753 01       		.byte	0x1
 2336 0754 48       		.byte	0x48
 2337 0755 7B040000 		.4byte	0x47b
 2338 0759 05       		.uleb128 0x5
 2339 075a 03       		.byte	0x3
 2340 075b 00000000 		.4byte	unixTime
 2341 075f 1F       		.uleb128 0x1f
 2342 0760 30040000 		.4byte	.LASF61
 2343 0764 01       		.byte	0x1
 2344 0765 49       		.byte	0x49
 2345 0766 8B040000 		.4byte	0x48b
 2346 076a 05       		.uleb128 0x5
 2347 076b 03       		.byte	0x3
 2348 076c 00000000 		.4byte	millisTime
 2349 0770 00       		.byte	0
 2350              		.section	.debug_abbrev,"",%progbits
ARM GAS  C:\Users\Petro\AppData\Local\Temp\ccJj3IiC.s 			page 53


 2351              	.Ldebug_abbrev0:
 2352 0000 01       		.uleb128 0x1
 2353 0001 11       		.uleb128 0x11
 2354 0002 01       		.byte	0x1
 2355 0003 25       		.uleb128 0x25
 2356 0004 0E       		.uleb128 0xe
 2357 0005 13       		.uleb128 0x13
 2358 0006 0B       		.uleb128 0xb
 2359 0007 03       		.uleb128 0x3
 2360 0008 0E       		.uleb128 0xe
 2361 0009 1B       		.uleb128 0x1b
 2362 000a 0E       		.uleb128 0xe
 2363 000b 55       		.uleb128 0x55
 2364 000c 17       		.uleb128 0x17
 2365 000d 11       		.uleb128 0x11
 2366 000e 01       		.uleb128 0x1
 2367 000f 10       		.uleb128 0x10
 2368 0010 17       		.uleb128 0x17
 2369 0011 00       		.byte	0
 2370 0012 00       		.byte	0
 2371 0013 02       		.uleb128 0x2
 2372 0014 24       		.uleb128 0x24
 2373 0015 00       		.byte	0
 2374 0016 0B       		.uleb128 0xb
 2375 0017 0B       		.uleb128 0xb
 2376 0018 3E       		.uleb128 0x3e
 2377 0019 0B       		.uleb128 0xb
 2378 001a 03       		.uleb128 0x3
 2379 001b 0E       		.uleb128 0xe
 2380 001c 00       		.byte	0
 2381 001d 00       		.byte	0
 2382 001e 03       		.uleb128 0x3
 2383 001f 16       		.uleb128 0x16
 2384 0020 00       		.byte	0
 2385 0021 03       		.uleb128 0x3
 2386 0022 0E       		.uleb128 0xe
 2387 0023 3A       		.uleb128 0x3a
 2388 0024 0B       		.uleb128 0xb
 2389 0025 3B       		.uleb128 0x3b
 2390 0026 0B       		.uleb128 0xb
 2391 0027 49       		.uleb128 0x49
 2392 0028 13       		.uleb128 0x13
 2393 0029 00       		.byte	0
 2394 002a 00       		.byte	0
 2395 002b 04       		.uleb128 0x4
 2396 002c 24       		.uleb128 0x24
 2397 002d 00       		.byte	0
 2398 002e 0B       		.uleb128 0xb
 2399 002f 0B       		.uleb128 0xb
 2400 0030 3E       		.uleb128 0x3e
 2401 0031 0B       		.uleb128 0xb
 2402 0032 03       		.uleb128 0x3
 2403 0033 08       		.uleb128 0x8
 2404 0034 00       		.byte	0
 2405 0035 00       		.byte	0
 2406 0036 05       		.uleb128 0x5
 2407 0037 13       		.uleb128 0x13
ARM GAS  C:\Users\Petro\AppData\Local\Temp\ccJj3IiC.s 			page 54


 2408 0038 01       		.byte	0x1
 2409 0039 03       		.uleb128 0x3
 2410 003a 0E       		.uleb128 0xe
 2411 003b 0B       		.uleb128 0xb
 2412 003c 0B       		.uleb128 0xb
 2413 003d 3A       		.uleb128 0x3a
 2414 003e 0B       		.uleb128 0xb
 2415 003f 3B       		.uleb128 0x3b
 2416 0040 0B       		.uleb128 0xb
 2417 0041 01       		.uleb128 0x1
 2418 0042 13       		.uleb128 0x13
 2419 0043 00       		.byte	0
 2420 0044 00       		.byte	0
 2421 0045 06       		.uleb128 0x6
 2422 0046 0D       		.uleb128 0xd
 2423 0047 00       		.byte	0
 2424 0048 03       		.uleb128 0x3
 2425 0049 08       		.uleb128 0x8
 2426 004a 3A       		.uleb128 0x3a
 2427 004b 0B       		.uleb128 0xb
 2428 004c 3B       		.uleb128 0x3b
 2429 004d 0B       		.uleb128 0xb
 2430 004e 49       		.uleb128 0x49
 2431 004f 13       		.uleb128 0x13
 2432 0050 38       		.uleb128 0x38
 2433 0051 0B       		.uleb128 0xb
 2434 0052 00       		.byte	0
 2435 0053 00       		.byte	0
 2436 0054 07       		.uleb128 0x7
 2437 0055 0D       		.uleb128 0xd
 2438 0056 00       		.byte	0
 2439 0057 03       		.uleb128 0x3
 2440 0058 0E       		.uleb128 0xe
 2441 0059 3A       		.uleb128 0x3a
 2442 005a 0B       		.uleb128 0xb
 2443 005b 3B       		.uleb128 0x3b
 2444 005c 0B       		.uleb128 0xb
 2445 005d 49       		.uleb128 0x49
 2446 005e 13       		.uleb128 0x13
 2447 005f 38       		.uleb128 0x38
 2448 0060 0B       		.uleb128 0xb
 2449 0061 00       		.byte	0
 2450 0062 00       		.byte	0
 2451 0063 08       		.uleb128 0x8
 2452 0064 13       		.uleb128 0x13
 2453 0065 01       		.byte	0x1
 2454 0066 0B       		.uleb128 0xb
 2455 0067 0B       		.uleb128 0xb
 2456 0068 3A       		.uleb128 0x3a
 2457 0069 0B       		.uleb128 0xb
 2458 006a 3B       		.uleb128 0x3b
 2459 006b 0B       		.uleb128 0xb
 2460 006c 01       		.uleb128 0x1
 2461 006d 13       		.uleb128 0x13
 2462 006e 00       		.byte	0
 2463 006f 00       		.byte	0
 2464 0070 09       		.uleb128 0x9
ARM GAS  C:\Users\Petro\AppData\Local\Temp\ccJj3IiC.s 			page 55


 2465 0071 2E       		.uleb128 0x2e
 2466 0072 00       		.byte	0
 2467 0073 3F       		.uleb128 0x3f
 2468 0074 19       		.uleb128 0x19
 2469 0075 03       		.uleb128 0x3
 2470 0076 0E       		.uleb128 0xe
 2471 0077 3A       		.uleb128 0x3a
 2472 0078 0B       		.uleb128 0xb
 2473 0079 3B       		.uleb128 0x3b
 2474 007a 0B       		.uleb128 0xb
 2475 007b 27       		.uleb128 0x27
 2476 007c 19       		.uleb128 0x19
 2477 007d 11       		.uleb128 0x11
 2478 007e 01       		.uleb128 0x1
 2479 007f 12       		.uleb128 0x12
 2480 0080 06       		.uleb128 0x6
 2481 0081 40       		.uleb128 0x40
 2482 0082 18       		.uleb128 0x18
 2483 0083 9642     		.uleb128 0x2116
 2484 0085 19       		.uleb128 0x19
 2485 0086 00       		.byte	0
 2486 0087 00       		.byte	0
 2487 0088 0A       		.uleb128 0xa
 2488 0089 2E       		.uleb128 0x2e
 2489 008a 01       		.byte	0x1
 2490 008b 3F       		.uleb128 0x3f
 2491 008c 19       		.uleb128 0x19
 2492 008d 03       		.uleb128 0x3
 2493 008e 0E       		.uleb128 0xe
 2494 008f 3A       		.uleb128 0x3a
 2495 0090 0B       		.uleb128 0xb
 2496 0091 3B       		.uleb128 0x3b
 2497 0092 0B       		.uleb128 0xb
 2498 0093 27       		.uleb128 0x27
 2499 0094 19       		.uleb128 0x19
 2500 0095 11       		.uleb128 0x11
 2501 0096 01       		.uleb128 0x1
 2502 0097 12       		.uleb128 0x12
 2503 0098 06       		.uleb128 0x6
 2504 0099 40       		.uleb128 0x40
 2505 009a 18       		.uleb128 0x18
 2506 009b 9642     		.uleb128 0x2116
 2507 009d 19       		.uleb128 0x19
 2508 009e 01       		.uleb128 0x1
 2509 009f 13       		.uleb128 0x13
 2510 00a0 00       		.byte	0
 2511 00a1 00       		.byte	0
 2512 00a2 0B       		.uleb128 0xb
 2513 00a3 0B       		.uleb128 0xb
 2514 00a4 01       		.byte	0x1
 2515 00a5 11       		.uleb128 0x11
 2516 00a6 01       		.uleb128 0x1
 2517 00a7 12       		.uleb128 0x12
 2518 00a8 06       		.uleb128 0x6
 2519 00a9 00       		.byte	0
 2520 00aa 00       		.byte	0
 2521 00ab 0C       		.uleb128 0xc
ARM GAS  C:\Users\Petro\AppData\Local\Temp\ccJj3IiC.s 			page 56


 2522 00ac 34       		.uleb128 0x34
 2523 00ad 00       		.byte	0
 2524 00ae 03       		.uleb128 0x3
 2525 00af 0E       		.uleb128 0xe
 2526 00b0 3A       		.uleb128 0x3a
 2527 00b1 0B       		.uleb128 0xb
 2528 00b2 3B       		.uleb128 0x3b
 2529 00b3 0B       		.uleb128 0xb
 2530 00b4 49       		.uleb128 0x49
 2531 00b5 13       		.uleb128 0x13
 2532 00b6 02       		.uleb128 0x2
 2533 00b7 18       		.uleb128 0x18
 2534 00b8 00       		.byte	0
 2535 00b9 00       		.byte	0
 2536 00ba 0D       		.uleb128 0xd
 2537 00bb 01       		.uleb128 0x1
 2538 00bc 01       		.byte	0x1
 2539 00bd 49       		.uleb128 0x49
 2540 00be 13       		.uleb128 0x13
 2541 00bf 01       		.uleb128 0x1
 2542 00c0 13       		.uleb128 0x13
 2543 00c1 00       		.byte	0
 2544 00c2 00       		.byte	0
 2545 00c3 0E       		.uleb128 0xe
 2546 00c4 21       		.uleb128 0x21
 2547 00c5 00       		.byte	0
 2548 00c6 49       		.uleb128 0x49
 2549 00c7 13       		.uleb128 0x13
 2550 00c8 2F       		.uleb128 0x2f
 2551 00c9 0B       		.uleb128 0xb
 2552 00ca 00       		.byte	0
 2553 00cb 00       		.byte	0
 2554 00cc 0F       		.uleb128 0xf
 2555 00cd 2E       		.uleb128 0x2e
 2556 00ce 01       		.byte	0x1
 2557 00cf 3F       		.uleb128 0x3f
 2558 00d0 19       		.uleb128 0x19
 2559 00d1 03       		.uleb128 0x3
 2560 00d2 0E       		.uleb128 0xe
 2561 00d3 3A       		.uleb128 0x3a
 2562 00d4 0B       		.uleb128 0xb
 2563 00d5 3B       		.uleb128 0x3b
 2564 00d6 0B       		.uleb128 0xb
 2565 00d7 27       		.uleb128 0x27
 2566 00d8 19       		.uleb128 0x19
 2567 00d9 49       		.uleb128 0x49
 2568 00da 13       		.uleb128 0x13
 2569 00db 11       		.uleb128 0x11
 2570 00dc 01       		.uleb128 0x1
 2571 00dd 12       		.uleb128 0x12
 2572 00de 06       		.uleb128 0x6
 2573 00df 40       		.uleb128 0x40
 2574 00e0 18       		.uleb128 0x18
 2575 00e1 9642     		.uleb128 0x2116
 2576 00e3 19       		.uleb128 0x19
 2577 00e4 01       		.uleb128 0x1
 2578 00e5 13       		.uleb128 0x13
ARM GAS  C:\Users\Petro\AppData\Local\Temp\ccJj3IiC.s 			page 57


 2579 00e6 00       		.byte	0
 2580 00e7 00       		.byte	0
 2581 00e8 10       		.uleb128 0x10
 2582 00e9 34       		.uleb128 0x34
 2583 00ea 00       		.byte	0
 2584 00eb 03       		.uleb128 0x3
 2585 00ec 08       		.uleb128 0x8
 2586 00ed 3A       		.uleb128 0x3a
 2587 00ee 0B       		.uleb128 0xb
 2588 00ef 3B       		.uleb128 0x3b
 2589 00f0 0B       		.uleb128 0xb
 2590 00f1 49       		.uleb128 0x49
 2591 00f2 13       		.uleb128 0x13
 2592 00f3 00       		.byte	0
 2593 00f4 00       		.byte	0
 2594 00f5 11       		.uleb128 0x11
 2595 00f6 2E       		.uleb128 0x2e
 2596 00f7 01       		.byte	0x1
 2597 00f8 3F       		.uleb128 0x3f
 2598 00f9 19       		.uleb128 0x19
 2599 00fa 03       		.uleb128 0x3
 2600 00fb 0E       		.uleb128 0xe
 2601 00fc 3A       		.uleb128 0x3a
 2602 00fd 0B       		.uleb128 0xb
 2603 00fe 3B       		.uleb128 0x3b
 2604 00ff 0B       		.uleb128 0xb
 2605 0100 27       		.uleb128 0x27
 2606 0101 19       		.uleb128 0x19
 2607 0102 11       		.uleb128 0x11
 2608 0103 01       		.uleb128 0x1
 2609 0104 12       		.uleb128 0x12
 2610 0105 06       		.uleb128 0x6
 2611 0106 40       		.uleb128 0x40
 2612 0107 18       		.uleb128 0x18
 2613 0108 9742     		.uleb128 0x2117
 2614 010a 19       		.uleb128 0x19
 2615 010b 01       		.uleb128 0x1
 2616 010c 13       		.uleb128 0x13
 2617 010d 00       		.byte	0
 2618 010e 00       		.byte	0
 2619 010f 12       		.uleb128 0x12
 2620 0110 05       		.uleb128 0x5
 2621 0111 00       		.byte	0
 2622 0112 03       		.uleb128 0x3
 2623 0113 0E       		.uleb128 0xe
 2624 0114 3A       		.uleb128 0x3a
 2625 0115 0B       		.uleb128 0xb
 2626 0116 3B       		.uleb128 0x3b
 2627 0117 0B       		.uleb128 0xb
 2628 0118 49       		.uleb128 0x49
 2629 0119 13       		.uleb128 0x13
 2630 011a 02       		.uleb128 0x2
 2631 011b 18       		.uleb128 0x18
 2632 011c 00       		.byte	0
 2633 011d 00       		.byte	0
 2634 011e 13       		.uleb128 0x13
 2635 011f 2E       		.uleb128 0x2e
ARM GAS  C:\Users\Petro\AppData\Local\Temp\ccJj3IiC.s 			page 58


 2636 0120 00       		.byte	0
 2637 0121 3F       		.uleb128 0x3f
 2638 0122 19       		.uleb128 0x19
 2639 0123 03       		.uleb128 0x3
 2640 0124 0E       		.uleb128 0xe
 2641 0125 3A       		.uleb128 0x3a
 2642 0126 0B       		.uleb128 0xb
 2643 0127 3B       		.uleb128 0x3b
 2644 0128 0B       		.uleb128 0xb
 2645 0129 27       		.uleb128 0x27
 2646 012a 19       		.uleb128 0x19
 2647 012b 49       		.uleb128 0x49
 2648 012c 13       		.uleb128 0x13
 2649 012d 11       		.uleb128 0x11
 2650 012e 01       		.uleb128 0x1
 2651 012f 12       		.uleb128 0x12
 2652 0130 06       		.uleb128 0x6
 2653 0131 40       		.uleb128 0x40
 2654 0132 18       		.uleb128 0x18
 2655 0133 9742     		.uleb128 0x2117
 2656 0135 19       		.uleb128 0x19
 2657 0136 00       		.byte	0
 2658 0137 00       		.byte	0
 2659 0138 14       		.uleb128 0x14
 2660 0139 2E       		.uleb128 0x2e
 2661 013a 01       		.byte	0x1
 2662 013b 3F       		.uleb128 0x3f
 2663 013c 19       		.uleb128 0x19
 2664 013d 03       		.uleb128 0x3
 2665 013e 0E       		.uleb128 0xe
 2666 013f 3A       		.uleb128 0x3a
 2667 0140 0B       		.uleb128 0xb
 2668 0141 3B       		.uleb128 0x3b
 2669 0142 05       		.uleb128 0x5
 2670 0143 27       		.uleb128 0x27
 2671 0144 19       		.uleb128 0x19
 2672 0145 49       		.uleb128 0x49
 2673 0146 13       		.uleb128 0x13
 2674 0147 11       		.uleb128 0x11
 2675 0148 01       		.uleb128 0x1
 2676 0149 12       		.uleb128 0x12
 2677 014a 06       		.uleb128 0x6
 2678 014b 40       		.uleb128 0x40
 2679 014c 18       		.uleb128 0x18
 2680 014d 9742     		.uleb128 0x2117
 2681 014f 19       		.uleb128 0x19
 2682 0150 01       		.uleb128 0x1
 2683 0151 13       		.uleb128 0x13
 2684 0152 00       		.byte	0
 2685 0153 00       		.byte	0
 2686 0154 15       		.uleb128 0x15
 2687 0155 34       		.uleb128 0x34
 2688 0156 00       		.byte	0
 2689 0157 03       		.uleb128 0x3
 2690 0158 0E       		.uleb128 0xe
 2691 0159 3A       		.uleb128 0x3a
 2692 015a 0B       		.uleb128 0xb
ARM GAS  C:\Users\Petro\AppData\Local\Temp\ccJj3IiC.s 			page 59


 2693 015b 3B       		.uleb128 0x3b
 2694 015c 05       		.uleb128 0x5
 2695 015d 49       		.uleb128 0x49
 2696 015e 13       		.uleb128 0x13
 2697 015f 02       		.uleb128 0x2
 2698 0160 18       		.uleb128 0x18
 2699 0161 00       		.byte	0
 2700 0162 00       		.byte	0
 2701 0163 16       		.uleb128 0x16
 2702 0164 2E       		.uleb128 0x2e
 2703 0165 00       		.byte	0
 2704 0166 3F       		.uleb128 0x3f
 2705 0167 19       		.uleb128 0x19
 2706 0168 03       		.uleb128 0x3
 2707 0169 0E       		.uleb128 0xe
 2708 016a 3A       		.uleb128 0x3a
 2709 016b 0B       		.uleb128 0xb
 2710 016c 3B       		.uleb128 0x3b
 2711 016d 05       		.uleb128 0x5
 2712 016e 27       		.uleb128 0x27
 2713 016f 19       		.uleb128 0x19
 2714 0170 11       		.uleb128 0x11
 2715 0171 01       		.uleb128 0x1
 2716 0172 12       		.uleb128 0x12
 2717 0173 06       		.uleb128 0x6
 2718 0174 40       		.uleb128 0x40
 2719 0175 18       		.uleb128 0x18
 2720 0176 9742     		.uleb128 0x2117
 2721 0178 19       		.uleb128 0x19
 2722 0179 00       		.byte	0
 2723 017a 00       		.byte	0
 2724 017b 17       		.uleb128 0x17
 2725 017c 2E       		.uleb128 0x2e
 2726 017d 01       		.byte	0x1
 2727 017e 3F       		.uleb128 0x3f
 2728 017f 19       		.uleb128 0x19
 2729 0180 03       		.uleb128 0x3
 2730 0181 0E       		.uleb128 0xe
 2731 0182 3A       		.uleb128 0x3a
 2732 0183 0B       		.uleb128 0xb
 2733 0184 3B       		.uleb128 0x3b
 2734 0185 05       		.uleb128 0x5
 2735 0186 27       		.uleb128 0x27
 2736 0187 19       		.uleb128 0x19
 2737 0188 49       		.uleb128 0x49
 2738 0189 13       		.uleb128 0x13
 2739 018a 11       		.uleb128 0x11
 2740 018b 01       		.uleb128 0x1
 2741 018c 12       		.uleb128 0x12
 2742 018d 06       		.uleb128 0x6
 2743 018e 40       		.uleb128 0x40
 2744 018f 18       		.uleb128 0x18
 2745 0190 9642     		.uleb128 0x2116
 2746 0192 19       		.uleb128 0x19
 2747 0193 01       		.uleb128 0x1
 2748 0194 13       		.uleb128 0x13
 2749 0195 00       		.byte	0
ARM GAS  C:\Users\Petro\AppData\Local\Temp\ccJj3IiC.s 			page 60


 2750 0196 00       		.byte	0
 2751 0197 18       		.uleb128 0x18
 2752 0198 34       		.uleb128 0x34
 2753 0199 00       		.byte	0
 2754 019a 03       		.uleb128 0x3
 2755 019b 08       		.uleb128 0x8
 2756 019c 3A       		.uleb128 0x3a
 2757 019d 0B       		.uleb128 0xb
 2758 019e 3B       		.uleb128 0x3b
 2759 019f 05       		.uleb128 0x5
 2760 01a0 49       		.uleb128 0x49
 2761 01a1 13       		.uleb128 0x13
 2762 01a2 02       		.uleb128 0x2
 2763 01a3 18       		.uleb128 0x18
 2764 01a4 00       		.byte	0
 2765 01a5 00       		.byte	0
 2766 01a6 19       		.uleb128 0x19
 2767 01a7 34       		.uleb128 0x34
 2768 01a8 00       		.byte	0
 2769 01a9 03       		.uleb128 0x3
 2770 01aa 0E       		.uleb128 0xe
 2771 01ab 3A       		.uleb128 0x3a
 2772 01ac 0B       		.uleb128 0xb
 2773 01ad 3B       		.uleb128 0x3b
 2774 01ae 05       		.uleb128 0x5
 2775 01af 49       		.uleb128 0x49
 2776 01b0 13       		.uleb128 0x13
 2777 01b1 00       		.byte	0
 2778 01b2 00       		.byte	0
 2779 01b3 1A       		.uleb128 0x1a
 2780 01b4 2E       		.uleb128 0x2e
 2781 01b5 01       		.byte	0x1
 2782 01b6 3F       		.uleb128 0x3f
 2783 01b7 19       		.uleb128 0x19
 2784 01b8 03       		.uleb128 0x3
 2785 01b9 0E       		.uleb128 0xe
 2786 01ba 3A       		.uleb128 0x3a
 2787 01bb 0B       		.uleb128 0xb
 2788 01bc 3B       		.uleb128 0x3b
 2789 01bd 05       		.uleb128 0x5
 2790 01be 27       		.uleb128 0x27
 2791 01bf 19       		.uleb128 0x19
 2792 01c0 11       		.uleb128 0x11
 2793 01c1 01       		.uleb128 0x1
 2794 01c2 12       		.uleb128 0x12
 2795 01c3 06       		.uleb128 0x6
 2796 01c4 40       		.uleb128 0x40
 2797 01c5 18       		.uleb128 0x18
 2798 01c6 9642     		.uleb128 0x2116
 2799 01c8 19       		.uleb128 0x19
 2800 01c9 01       		.uleb128 0x1
 2801 01ca 13       		.uleb128 0x13
 2802 01cb 00       		.byte	0
 2803 01cc 00       		.byte	0
 2804 01cd 1B       		.uleb128 0x1b
 2805 01ce 05       		.uleb128 0x5
 2806 01cf 00       		.byte	0
ARM GAS  C:\Users\Petro\AppData\Local\Temp\ccJj3IiC.s 			page 61


 2807 01d0 03       		.uleb128 0x3
 2808 01d1 0E       		.uleb128 0xe
 2809 01d2 3A       		.uleb128 0x3a
 2810 01d3 0B       		.uleb128 0xb
 2811 01d4 3B       		.uleb128 0x3b
 2812 01d5 05       		.uleb128 0x5
 2813 01d6 49       		.uleb128 0x49
 2814 01d7 13       		.uleb128 0x13
 2815 01d8 02       		.uleb128 0x2
 2816 01d9 18       		.uleb128 0x18
 2817 01da 00       		.byte	0
 2818 01db 00       		.byte	0
 2819 01dc 1C       		.uleb128 0x1c
 2820 01dd 05       		.uleb128 0x5
 2821 01de 00       		.byte	0
 2822 01df 03       		.uleb128 0x3
 2823 01e0 08       		.uleb128 0x8
 2824 01e1 3A       		.uleb128 0x3a
 2825 01e2 0B       		.uleb128 0xb
 2826 01e3 3B       		.uleb128 0x3b
 2827 01e4 05       		.uleb128 0x5
 2828 01e5 49       		.uleb128 0x49
 2829 01e6 13       		.uleb128 0x13
 2830 01e7 02       		.uleb128 0x2
 2831 01e8 18       		.uleb128 0x18
 2832 01e9 00       		.byte	0
 2833 01ea 00       		.byte	0
 2834 01eb 1D       		.uleb128 0x1d
 2835 01ec 0F       		.uleb128 0xf
 2836 01ed 00       		.byte	0
 2837 01ee 0B       		.uleb128 0xb
 2838 01ef 0B       		.uleb128 0xb
 2839 01f0 49       		.uleb128 0x49
 2840 01f1 13       		.uleb128 0x13
 2841 01f2 00       		.byte	0
 2842 01f3 00       		.byte	0
 2843 01f4 1E       		.uleb128 0x1e
 2844 01f5 2E       		.uleb128 0x2e
 2845 01f6 01       		.byte	0x1
 2846 01f7 3F       		.uleb128 0x3f
 2847 01f8 19       		.uleb128 0x19
 2848 01f9 03       		.uleb128 0x3
 2849 01fa 0E       		.uleb128 0xe
 2850 01fb 3A       		.uleb128 0x3a
 2851 01fc 0B       		.uleb128 0xb
 2852 01fd 3B       		.uleb128 0x3b
 2853 01fe 05       		.uleb128 0x5
 2854 01ff 27       		.uleb128 0x27
 2855 0200 19       		.uleb128 0x19
 2856 0201 11       		.uleb128 0x11
 2857 0202 01       		.uleb128 0x1
 2858 0203 12       		.uleb128 0x12
 2859 0204 06       		.uleb128 0x6
 2860 0205 40       		.uleb128 0x40
 2861 0206 18       		.uleb128 0x18
 2862 0207 9742     		.uleb128 0x2117
 2863 0209 19       		.uleb128 0x19
ARM GAS  C:\Users\Petro\AppData\Local\Temp\ccJj3IiC.s 			page 62


 2864 020a 01       		.uleb128 0x1
 2865 020b 13       		.uleb128 0x13
 2866 020c 00       		.byte	0
 2867 020d 00       		.byte	0
 2868 020e 1F       		.uleb128 0x1f
 2869 020f 34       		.uleb128 0x34
 2870 0210 00       		.byte	0
 2871 0211 03       		.uleb128 0x3
 2872 0212 0E       		.uleb128 0xe
 2873 0213 3A       		.uleb128 0x3a
 2874 0214 0B       		.uleb128 0xb
 2875 0215 3B       		.uleb128 0x3b
 2876 0216 0B       		.uleb128 0xb
 2877 0217 49       		.uleb128 0x49
 2878 0218 13       		.uleb128 0x13
 2879 0219 3F       		.uleb128 0x3f
 2880 021a 19       		.uleb128 0x19
 2881 021b 02       		.uleb128 0x2
 2882 021c 18       		.uleb128 0x18
 2883 021d 00       		.byte	0
 2884 021e 00       		.byte	0
 2885 021f 00       		.byte	0
 2886              		.section	.debug_aranges,"",%progbits
 2887 0000 7C000000 		.4byte	0x7c
 2888 0004 0200     		.2byte	0x2
 2889 0006 00000000 		.4byte	.Ldebug_info0
 2890 000a 04       		.byte	0x4
 2891 000b 00       		.byte	0
 2892 000c 0000     		.2byte	0
 2893 000e 0000     		.2byte	0
 2894 0010 00000000 		.4byte	.LFB63
 2895 0014 24000000 		.4byte	.LFE63-.LFB63
 2896 0018 00000000 		.4byte	.LFB64
 2897 001c 9C000000 		.4byte	.LFE64-.LFB64
 2898 0020 00000000 		.4byte	.LFB65
 2899 0024 70010000 		.4byte	.LFE65-.LFB65
 2900 0028 00000000 		.4byte	.LFB66
 2901 002c 1C000000 		.4byte	.LFE66-.LFB66
 2902 0030 00000000 		.4byte	.LFB67
 2903 0034 14000000 		.4byte	.LFE67-.LFB67
 2904 0038 00000000 		.4byte	.LFB68
 2905 003c 44000000 		.4byte	.LFE68-.LFB68
 2906 0040 00000000 		.4byte	.LFB69
 2907 0044 1C000000 		.4byte	.LFE69-.LFB69
 2908 0048 00000000 		.4byte	.LFB70
 2909 004c 14000000 		.4byte	.LFE70-.LFB70
 2910 0050 00000000 		.4byte	.LFB71
 2911 0054 DC010000 		.4byte	.LFE71-.LFB71
 2912 0058 00000000 		.4byte	.LFB72
 2913 005c 54000000 		.4byte	.LFE72-.LFB72
 2914 0060 00000000 		.4byte	.LFB73
 2915 0064 A0000000 		.4byte	.LFE73-.LFB73
 2916 0068 00000000 		.4byte	.LFB74
 2917 006c B8000000 		.4byte	.LFE74-.LFB74
 2918 0070 00000000 		.4byte	.LFB75
 2919 0074 DC000000 		.4byte	.LFE75-.LFB75
 2920 0078 00000000 		.4byte	0
ARM GAS  C:\Users\Petro\AppData\Local\Temp\ccJj3IiC.s 			page 63


 2921 007c 00000000 		.4byte	0
 2922              		.section	.debug_ranges,"",%progbits
 2923              	.Ldebug_ranges0:
 2924 0000 00000000 		.4byte	.LFB63
 2925 0004 24000000 		.4byte	.LFE63
 2926 0008 00000000 		.4byte	.LFB64
 2927 000c 9C000000 		.4byte	.LFE64
 2928 0010 00000000 		.4byte	.LFB65
 2929 0014 70010000 		.4byte	.LFE65
 2930 0018 00000000 		.4byte	.LFB66
 2931 001c 1C000000 		.4byte	.LFE66
 2932 0020 00000000 		.4byte	.LFB67
 2933 0024 14000000 		.4byte	.LFE67
 2934 0028 00000000 		.4byte	.LFB68
 2935 002c 44000000 		.4byte	.LFE68
 2936 0030 00000000 		.4byte	.LFB69
 2937 0034 1C000000 		.4byte	.LFE69
 2938 0038 00000000 		.4byte	.LFB70
 2939 003c 14000000 		.4byte	.LFE70
 2940 0040 00000000 		.4byte	.LFB71
 2941 0044 DC010000 		.4byte	.LFE71
 2942 0048 00000000 		.4byte	.LFB72
 2943 004c 54000000 		.4byte	.LFE72
 2944 0050 00000000 		.4byte	.LFB73
 2945 0054 A0000000 		.4byte	.LFE73
 2946 0058 00000000 		.4byte	.LFB74
 2947 005c B8000000 		.4byte	.LFE74
 2948 0060 00000000 		.4byte	.LFB75
 2949 0064 DC000000 		.4byte	.LFE75
 2950 0068 00000000 		.4byte	0
 2951 006c 00000000 		.4byte	0
 2952              		.section	.debug_line,"",%progbits
 2953              	.Ldebug_line0:
 2954 0000 4A030000 		.section	.debug_str,"MS",%progbits,1
 2954      02005101 
 2954      00000201 
 2954      FB0E0D00 
 2954      01010101 
 2955              	.LASF47:
 2956 0000 72657375 		.ascii	"result\000"
 2956      6C7400
 2957              	.LASF79:
 2958 0007 6D735469 		.ascii	"msTime\000"
 2958      6D6500
 2959              	.LASF31:
 2960 000e 4E747052 		.ascii	"NtpResp\000"
 2960      65737000 
 2961              	.LASF84:
 2962 0016 746D7054 		.ascii	"tmpTimeSlave\000"
 2962      696D6553 
 2962      6C617665 
 2962      00
 2963              	.LASF42:
 2964 0023 6E657753 		.ascii	"newSkier\000"
 2964      6B696572 
 2964      00
 2965              	.LASF53:
ARM GAS  C:\Users\Petro\AppData\Local\Temp\ccJj3IiC.s 			page 64


 2966 002c 49735265 		.ascii	"IsRebootStartFlag\000"
 2966      626F6F74 
 2966      53746172 
 2966      74466C61 
 2966      6700
 2967              	.LASF29:
 2968 003e 44617461 		.ascii	"DataMs1\000"
 2968      4D733100 
 2969              	.LASF82:
 2970 0046 746D7054 		.ascii	"tmpTimeMaster\000"
 2970      696D654D 
 2970      61737465 
 2970      7200
 2971              	.LASF50:
 2972 0054 53656E64 		.ascii	"SendData\000"
 2972      44617461 
 2972      00
 2973              	.LASF46:
 2974 005d 73656E64 		.ascii	"sendData\000"
 2974      44617461 
 2974      00
 2975              	.LASF58:
 2976 0066 72657375 		.ascii	"resultReceive\000"
 2976      6C745265 
 2976      63656976 
 2976      6500
 2977              	.LASF18:
 2978 0074 75696E74 		.ascii	"uint64_t\000"
 2978      36345F74 
 2978      00
 2979              	.LASF51:
 2980 007d 53656E64 		.ascii	"SendFinStatus\000"
 2980      46696E53 
 2980      74617475 
 2980      7300
 2981              	.LASF93:
 2982 008b 6E6F436F 		.ascii	"noConnect\000"
 2982      6E6E6563 
 2982      7400
 2983              	.LASF34:
 2984 0095 7265626F 		.ascii	"reboot\000"
 2984      6F7400
 2985              	.LASF22:
 2986 009c 73697A65 		.ascii	"sizetype\000"
 2986      74797065 
 2986      00
 2987              	.LASF49:
 2988 00a5 72656376 		.ascii	"recvData\000"
 2988      44617461 
 2988      00
 2989              	.LASF59:
 2990 00ae 49447265 		.ascii	"IDreceivePacket\000"
 2990      63656976 
 2990      65506163 
 2990      6B657400 
 2991              	.LASF41:
 2992 00be 73746172 		.ascii	"startMsTime\000"
ARM GAS  C:\Users\Petro\AppData\Local\Temp\ccJj3IiC.s 			page 65


 2992      744D7354 
 2992      696D6500 
 2993              	.LASF8:
 2994 00ca 5F5F7569 		.ascii	"__uint32_t\000"
 2994      6E743332 
 2994      5F7400
 2995              	.LASF4:
 2996 00d5 5F5F7569 		.ascii	"__uint16_t\000"
 2996      6E743136 
 2996      5F7400
 2997              	.LASF20:
 2998 00e0 646F7562 		.ascii	"double\000"
 2998      6C6500
 2999              	.LASF2:
 3000 00e7 73686F72 		.ascii	"short int\000"
 3000      7420696E 
 3000      7400
 3001              	.LASF30:
 3002 00f1 44617461 		.ascii	"DataMs2\000"
 3002      4D733200 
 3003              	.LASF24:
 3004 00f9 44617461 		.ascii	"Data1\000"
 3004      3100
 3005              	.LASF45:
 3006 00ff 73656E64 		.ascii	"sendBuffer\000"
 3006      42756666 
 3006      657200
 3007              	.LASF14:
 3008 010a 75696E74 		.ascii	"uint8_t\000"
 3008      385F7400 
 3009              	.LASF99:
 3010 0112 4E657477 		.ascii	"NetworkStatus\000"
 3010      6F726B53 
 3010      74617475 
 3010      7300
 3011              	.LASF44:
 3012 0120 53746172 		.ascii	"StartData\000"
 3012      74446174 
 3012      6100
 3013              	.LASF90:
 3014 012a 6F757444 		.ascii	"outData\000"
 3014      61746100 
 3015              	.LASF74:
 3016 0132 72656376 		.ascii	"recvDataNTP\000"
 3016      44617461 
 3016      4E545000 
 3017              	.LASF19:
 3018 013e 666C6F61 		.ascii	"float\000"
 3018      7400
 3019              	.LASF28:
 3020 0144 456E6450 		.ascii	"EndPacket\000"
 3020      61636B65 
 3020      7400
 3021              	.LASF10:
 3022 014e 6C6F6E67 		.ascii	"long long int\000"
 3022      206C6F6E 
 3022      6720696E 
ARM GAS  C:\Users\Petro\AppData\Local\Temp\ccJj3IiC.s 			page 66


 3022      7400
 3023              	.LASF39:
 3024 015c 46696E69 		.ascii	"FinishData\000"
 3024      73684461 
 3024      746100
 3025              	.LASF64:
 3026 0167 6E756D41 		.ascii	"numAttempsReseive\000"
 3026      7474656D 
 3026      70735265 
 3026      73656976 
 3026      6500
 3027              	.LASF7:
 3028 0179 6C6F6E67 		.ascii	"long int\000"
 3028      20696E74 
 3028      00
 3029              	.LASF67:
 3030 0182 6D696C6C 		.ascii	"millis\000"
 3030      697300
 3031              	.LASF56:
 3032 0189 53657452 		.ascii	"SetRebootFlag\000"
 3032      65626F6F 
 3032      74466C61 
 3032      6700
 3033              	.LASF38:
 3034 0197 77726974 		.ascii	"writeStatus\000"
 3034      65537461 
 3034      74757300 
 3035              	.LASF3:
 3036 01a3 5F5F7569 		.ascii	"__uint8_t\000"
 3036      6E74385F 
 3036      7400
 3037              	.LASF91:
 3038 01ad 696E4461 		.ascii	"inData\000"
 3038      746100
 3039              	.LASF37:
 3040 01b4 746D704D 		.ascii	"tmpMsTime\000"
 3040      7354696D 
 3040      6500
 3041              	.LASF27:
 3042 01be 43686563 		.ascii	"CheckSum\000"
 3042      6B53756D 
 3042      00
 3043              	.LASF62:
 3044 01c7 73756D54 		.ascii	"sumTime\000"
 3044      696D6500 
 3045              	.LASF1:
 3046 01cf 756E7369 		.ascii	"unsigned char\000"
 3046      676E6564 
 3046      20636861 
 3046      7200
 3047              	.LASF69:
 3048 01dd 756E6978 		.ascii	"unixTime2\000"
 3048      54696D65 
 3048      3200
 3049              	.LASF71:
 3050 01e7 756E6978 		.ascii	"unixTime3\000"
 3050      54696D65 
ARM GAS  C:\Users\Petro\AppData\Local\Temp\ccJj3IiC.s 			page 67


 3050      3300
 3051              	.LASF76:
 3052 01f1 756E6978 		.ascii	"unixTime4\000"
 3052      54696D65 
 3052      3400
 3053              	.LASF86:
 3054 01fb 746D7044 		.ascii	"tmpDiffMs\000"
 3054      6966664D 
 3054      7300
 3055              	.LASF75:
 3056 0205 4E545073 		.ascii	"NTPsetTimeToStart\000"
 3056      65745469 
 3056      6D65546F 
 3056      53746172 
 3056      7400
 3057              	.LASF0:
 3058 0217 7369676E 		.ascii	"signed char\000"
 3058      65642063 
 3058      68617200 
 3059              	.LASF16:
 3060 0223 696E7433 		.ascii	"int32_t\000"
 3060      325F7400 
 3061              	.LASF12:
 3062 022b 6C6F6E67 		.ascii	"long long unsigned int\000"
 3062      206C6F6E 
 3062      6720756E 
 3062      7369676E 
 3062      65642069 
 3063              	.LASF88:
 3064 0242 6D61784D 		.ascii	"maxMs\000"
 3064      7300
 3065              	.LASF17:
 3066 0248 75696E74 		.ascii	"uint32_t\000"
 3066      33325F74 
 3066      00
 3067              	.LASF13:
 3068 0251 756E7369 		.ascii	"unsigned int\000"
 3068      676E6564 
 3068      20696E74 
 3068      00
 3069              	.LASF15:
 3070 025e 75696E74 		.ascii	"uint16_t\000"
 3070      31365F74 
 3070      00
 3071              	.LASF9:
 3072 0267 6C6F6E67 		.ascii	"long unsigned int\000"
 3072      20756E73 
 3072      69676E65 
 3072      6420696E 
 3072      7400
 3073              	.LASF54:
 3074 0279 496E6974 		.ascii	"InitNetwork\000"
 3074      4E657477 
 3074      6F726B00 
 3075              	.LASF36:
 3076 0285 746D7054 		.ascii	"tmpTime\000"
 3076      696D6500 
ARM GAS  C:\Users\Petro\AppData\Local\Temp\ccJj3IiC.s 			page 68


 3077              	.LASF80:
 3078 028d 73756D4D 		.ascii	"sumMs\000"
 3078      7300
 3079              	.LASF32:
 3080 0293 49447061 		.ascii	"IDpacket\000"
 3080      636B6574 
 3080      00
 3081              	.LASF23:
 3082 029c 436F6D6D 		.ascii	"Command\000"
 3082      616E6400 
 3083              	.LASF43:
 3084 02a4 72656164 		.ascii	"readStatus\000"
 3084      53746174 
 3084      757300
 3085              	.LASF21:
 3086 02af 63686172 		.ascii	"char\000"
 3086      00
 3087              	.LASF96:
 3088 02b4 6C69625F 		.ascii	"lib_Network\\network.c\000"
 3088      4E657477 
 3088      6F726B5C 
 3088      6E657477 
 3088      6F726B2E 
 3089              	.LASF92:
 3090 02ca 6E756D41 		.ascii	"numAttemps\000"
 3090      7474656D 
 3090      707300
 3091              	.LASF78:
 3092 02d5 4E545063 		.ascii	"NTPcalculateTime\000"
 3092      616C6375 
 3092      6C617465 
 3092      54696D65 
 3092      00
 3093              	.LASF33:
 3094 02e6 72656164 		.ascii	"ready\000"
 3094      7900
 3095              	.LASF95:
 3096 02ec 474E5520 		.ascii	"GNU C 4.9.3 20150303 (release) [ARM/embedded-4_9-br"
 3096      4320342E 
 3096      392E3320 
 3096      32303135 
 3096      30333033 
 3097 031f 616E6368 		.ascii	"anch revision 221220] -mcpu=cortex-m0 -mthumb -g -O"
 3097      20726576 
 3097      6973696F 
 3097      6E203232 
 3097      31323230 
 3098 0352 30202D66 		.ascii	"0 -ffunction-sections -ffat-lto-objects\000"
 3098      66756E63 
 3098      74696F6E 
 3098      2D736563 
 3098      74696F6E 
 3099              	.LASF40:
 3100 037a 756E6978 		.ascii	"unixStartTime\000"
 3100      53746172 
 3100      7454696D 
 3100      6500
ARM GAS  C:\Users\Petro\AppData\Local\Temp\ccJj3IiC.s 			page 69


 3101              	.LASF5:
 3102 0388 73686F72 		.ascii	"short unsigned int\000"
 3102      7420756E 
 3102      7369676E 
 3102      65642069 
 3102      6E7400
 3103              	.LASF70:
 3104 039b 6D696C6C 		.ascii	"millisTime2\000"
 3104      69735469 
 3104      6D653200 
 3105              	.LASF72:
 3106 03a7 6D696C6C 		.ascii	"millisTime3\000"
 3106      69735469 
 3106      6D653300 
 3107              	.LASF77:
 3108 03b3 6D696C6C 		.ascii	"millisTime4\000"
 3108      69735469 
 3108      6D653400 
 3109              	.LASF97:
 3110 03bf 443A5C43 		.ascii	"D:\\Cypress\\system-start-finish\\vesion 2\\fw\\fin"
 3110      79707265 
 3110      73735C73 
 3110      79737465 
 3110      6D2D7374 
 3111 03ed 6973685C 		.ascii	"ish\\sandbox\\v4\\Finish(state machine)\\fin_v0.cyd"
 3111      73616E64 
 3111      626F785C 
 3111      76345C46 
 3111      696E6973 
 3112 041c 736E00   		.ascii	"sn\000"
 3113              	.LASF25:
 3114 041f 44617461 		.ascii	"Data2\000"
 3114      3200
 3115              	.LASF11:
 3116 0425 5F5F7569 		.ascii	"__uint64_t\000"
 3116      6E743634 
 3116      5F7400
 3117              	.LASF61:
 3118 0430 6D696C6C 		.ascii	"millisTime\000"
 3118      69735469 
 3118      6D6500
 3119              	.LASF55:
 3120 043b 436C6561 		.ascii	"ClearRebootFlag\000"
 3120      72526562 
 3120      6F6F7446 
 3120      6C616700 
 3121              	.LASF60:
 3122 044b 756E6978 		.ascii	"unixTime\000"
 3122      54696D65 
 3122      00
 3123              	.LASF87:
 3124 0454 6D696E4D 		.ascii	"minMs\000"
 3124      7300
 3125              	.LASF85:
 3126 045a 746D7044 		.ascii	"tmpDiffTime\000"
 3126      69666654 
 3126      696D6500 
ARM GAS  C:\Users\Petro\AppData\Local\Temp\ccJj3IiC.s 			page 70


 3127              	.LASF94:
 3128 0466 6E657477 		.ascii	"networkStatus\000"
 3128      6F726B53 
 3128      74617475 
 3128      7300
 3129              	.LASF48:
 3130 0474 62797465 		.ascii	"byte\000"
 3130      00
 3131              	.LASF6:
 3132 0479 5F5F696E 		.ascii	"__int32_t\000"
 3132      7433325F 
 3132      7400
 3133              	.LASF98:
 3134 0483 52657370 		.ascii	"Resp\000"
 3134      00
 3135              	.LASF63:
 3136 0488 73756D4D 		.ascii	"sumMillis\000"
 3136      696C6C69 
 3136      7300
 3137              	.LASF57:
 3138 0492 4E545073 		.ascii	"NTPsync\000"
 3138      796E6300 
 3139              	.LASF81:
 3140 049a 746D704D 		.ascii	"tmpMsMaster\000"
 3140      734D6173 
 3140      74657200 
 3141              	.LASF89:
 3142 04a6 746D704D 		.ascii	"tmpMs\000"
 3142      7300
 3143              	.LASF26:
 3144 04ac 44617461 		.ascii	"Data3\000"
 3144      3300
 3145              	.LASF52:
 3146 04b2 52656365 		.ascii	"ReceiveData\000"
 3146      69766544 
 3146      61746100 
 3147              	.LASF73:
 3148 04be 49447265 		.ascii	"IDreceive\000"
 3148      63656976 
 3148      6500
 3149              	.LASF68:
 3150 04c8 4E545072 		.ascii	"NTPreceiveTime\000"
 3150      65636569 
 3150      76655469 
 3150      6D6500
 3151              	.LASF83:
 3152 04d7 746D704D 		.ascii	"tmpMsSlave\000"
 3152      73536C61 
 3152      766500
 3153              	.LASF65:
 3154 04e2 6E756D54 		.ascii	"numTruReceive\000"
 3154      72755265 
 3154      63656976 
 3154      6500
 3155              	.LASF35:
 3156 04f0 636F756E 		.ascii	"countSkiers\000"
 3156      74536B69 
ARM GAS  C:\Users\Petro\AppData\Local\Temp\ccJj3IiC.s 			page 71


 3156      65727300 
 3157              	.LASF66:
 3158 04fc 4E545073 		.ascii	"NTPsendTime\000"
 3158      656E6454 
 3158      696D6500 
 3159              		.ident	"GCC: (GNU Tools for ARM Embedded Processors) 4.9.3 20150303 (release) [ARM/embedded-4_9-br
