ARM GAS  C:\Users\Petro\AppData\Local\Temp\ccJj3IiC.s 			page 1


   1              		.cpu cortex-m0
   2              		.fpu softvfp
   3              		.eabi_attribute 20, 1
   4              		.eabi_attribute 21, 1
   5              		.eabi_attribute 23, 3
   6              		.eabi_attribute 24, 1
   7              		.eabi_attribute 25, 1
   8              		.eabi_attribute 26, 1
   9              		.eabi_attribute 30, 6
  10              		.eabi_attribute 34, 0
  11              		.eabi_attribute 18, 4
  12              		.code	16
  13              		.file	"network.c"
  14              		.text
  15              	.Ltext0:
  16              		.cfi_sections	.debug_frame
  17              		.bss
  18              		.align	1
  19              	minMs:
  20 0000 0000     		.space	2
  21              		.align	1
  22              	maxMs:
  23 0002 0000     		.space	2
  24              		.comm	tmpMs,2,2
  25              		.comm	outData,24,8
  26              		.comm	inData,24,8
  27              		.comm	numAttemps,4,4
  28              		.comm	noConnect,4,4
  29              		.comm	networkStatus,4,4
  30              		.comm	unixTime,16,4
  31              		.comm	millisTime,8,4
  32              		.section	.text.InitNetwork,"ax",%progbits
  33              		.align	2
  34              		.global	InitNetwork
  35              		.code	16
  36              		.thumb_func
  37              		.type	InitNetwork, %function
  38              	InitNetwork:
  39              	.LFB63:
  40              		.file 1 "lib_Network\\network.c"
   1:lib_Network/network.c **** 
   2:lib_Network/network.c **** #include "lib_Network\network.h"
   3:lib_Network/network.c **** #include <UART_XB.h>
   4:lib_Network/network.c **** #include <UART_XB_SPI_UART.h>
   5:lib_Network/network.c **** 
   6:lib_Network/network.c **** #ifdef DEBUG_INFO
   7:lib_Network/network.c ****     #include <SW_UART_DEBUG.h>
   8:lib_Network/network.c **** #endif
   9:lib_Network/network.c **** #ifdef DEBUG_TIME
  10:lib_Network/network.c ****     #include <debug.h>
  11:lib_Network/network.c **** #endif
  12:lib_Network/network.c **** #ifdef DEBUG_NTP
  13:lib_Network/network.c ****     #include <debugntp.h>
  14:lib_Network/network.c **** #endif
  15:lib_Network/network.c **** 
  16:lib_Network/network.c **** #include "lib_Network\svt.h"
  17:lib_Network/network.c **** #include "lib_DB\database.h"
ARM GAS  C:\Users\Petro\AppData\Local\Temp\ccJj3IiC.s 			page 2


  18:lib_Network/network.c **** #include "lib_RTC\RTC_WDT.h"
  19:lib_Network/network.c **** #include "lib_Network\ntp.h"
  20:lib_Network/network.c **** #include "lib_Display\display.h"
  21:lib_Network/network.c **** 
  22:lib_Network/network.c **** 
  23:lib_Network/network.c **** /*size buffer*/
  24:lib_Network/network.c **** #define DATA_BUFFER   50
  25:lib_Network/network.c ****  
  26:lib_Network/network.c **** #define ADRESS_READY        8
  27:lib_Network/network.c **** #define ADRESS_REBOOT       9
  28:lib_Network/network.c **** #define ADRESS_COUNT_SK     10
  29:lib_Network/network.c **** 
  30:lib_Network/network.c **** #define NETWORK_TIMEOUT     50
  31:lib_Network/network.c **** 
  32:lib_Network/network.c **** /*for NTP protocol*/
  33:lib_Network/network.c **** #define NUM_TRY_SYNC        14
  34:lib_Network/network.c **** #define NUM_CONNECT_ATTEMPS 50
  35:lib_Network/network.c **** #define NUM_TRU_SEND_PACKET 6
  36:lib_Network/network.c ****     
  37:lib_Network/network.c **** /*segment time for NTP*/
  38:lib_Network/network.c **** #define T1                  0
  39:lib_Network/network.c **** #define T2                  1
  40:lib_Network/network.c **** #define T3                  2
  41:lib_Network/network.c **** #define T4                  3
  42:lib_Network/network.c **** 
  43:lib_Network/network.c **** typedef struct
  44:lib_Network/network.c **** {
  45:lib_Network/network.c ****     /*data to transmit*/
  46:lib_Network/network.c ****     uint8_t IDpacket;    
  47:lib_Network/network.c ****     uint8_t ready;          /*flag readu finish*/
  48:lib_Network/network.c ****     uint8_t reboot;         /*flag finish reboot*/
  49:lib_Network/network.c ****     uint8_t countSkiers;
  50:lib_Network/network.c ****     
  51:lib_Network/network.c ****     uint64_t tmpTime;
  52:lib_Network/network.c ****     uint16_t tmpMsTime;
  53:lib_Network/network.c ****     uint8_t writeStatus;    /*flag transmitt data*/
  54:lib_Network/network.c **** }FinishData;
  55:lib_Network/network.c **** 
  56:lib_Network/network.c **** typedef struct
  57:lib_Network/network.c **** {
  58:lib_Network/network.c ****     /*data to receive*/
  59:lib_Network/network.c ****     uint8_t IDpacket;
  60:lib_Network/network.c ****     uint64_t unixStartTime;
  61:lib_Network/network.c ****     uint16_t startMsTime;
  62:lib_Network/network.c ****     uint8_t newSkier;
  63:lib_Network/network.c ****     uint8_t reboot;     /*reboot=1, no reboot=0*/
  64:lib_Network/network.c ****     
  65:lib_Network/network.c ****     uint8_t readStatus;     /*flag successful read data in start*/
  66:lib_Network/network.c **** }StartData;
  67:lib_Network/network.c **** 
  68:lib_Network/network.c **** FinishData outData ;
  69:lib_Network/network.c **** StartData inData;
  70:lib_Network/network.c **** 
  71:lib_Network/network.c **** uint32_t numAttemps,noConnect, networkStatus;
  72:lib_Network/network.c **** uint32_t unixTime[4];
  73:lib_Network/network.c **** uint16_t millisTime[4];
  74:lib_Network/network.c **** 
ARM GAS  C:\Users\Petro\AppData\Local\Temp\ccJj3IiC.s 			page 3


  75:lib_Network/network.c **** 
  76:lib_Network/network.c **** uint32_t SendRealTimeToStart(void);
  77:lib_Network/network.c **** void NTPsendTime(uint32_t unixTime1,uint16_t millis1, uint16_t ID);
  78:lib_Network/network.c **** uint32_t NTPreceiveTime(uint32_t *unixTime2,uint16_t *millis2, uint32_t *unixTime3, uint16_t *milli
  79:lib_Network/network.c **** uint32_t NTPsetTimeToStart(uint32_t unixTime4,uint16_t millis4,  uint16_t ID);
  80:lib_Network/network.c **** void NTPcalculateTime(uint32_t unixTime[], uint16_t msTime[], int32_t *sumTime, int32_t *sumMs);
  81:lib_Network/network.c **** 
  82:lib_Network/network.c **** 
  83:lib_Network/network.c **** 
  84:lib_Network/network.c **** /*******************************************************************************
  85:lib_Network/network.c **** * Function Name: InitNetwork
  86:lib_Network/network.c **** ********************************************************************************
  87:lib_Network/network.c **** *
  88:lib_Network/network.c **** * Summary:
  89:lib_Network/network.c **** *   initialization UART for XBee module
  90:lib_Network/network.c **** *
  91:lib_Network/network.c **** *******************************************************************************/
  92:lib_Network/network.c **** void InitNetwork(void)
  93:lib_Network/network.c **** {
  41              		.loc 1 93 0
  42              		.cfi_startproc
  43 0000 80B5     		push	{r7, lr}
  44              		.cfi_def_cfa_offset 8
  45              		.cfi_offset 7, -8
  46              		.cfi_offset 14, -4
  47 0002 00AF     		add	r7, sp, #0
  48              		.cfi_def_cfa_register 7
  94:lib_Network/network.c ****     UART_XB_Start();
  49              		.loc 1 94 0
  50 0004 FFF7FEFF 		bl	UART_XB_Start
  95:lib_Network/network.c ****     #ifdef DEBUG_INFO
  96:lib_Network/network.c ****     SW_UART_DEBUG_Start();     
  97:lib_Network/network.c ****     SW_UART_DEBUG_PutString("HElLO, IM READY(fin)\n\r");
  98:lib_Network/network.c ****     #endif
  99:lib_Network/network.c ****     
 100:lib_Network/network.c ****     inData.readStatus = READ_OK;
  51              		.loc 1 100 0
  52 0008 044B     		ldr	r3, .L2
  53 000a 0122     		mov	r2, #1
  54 000c 1A75     		strb	r2, [r3, #20]
 101:lib_Network/network.c ****     outData.writeStatus = NO_WRITE;
  55              		.loc 1 101 0
  56 000e 044B     		ldr	r3, .L2+4
  57 0010 0022     		mov	r2, #0
  58 0012 9A74     		strb	r2, [r3, #18]
 102:lib_Network/network.c ****     UART_XB_SpiUartClearRxBuffer();
  59              		.loc 1 102 0
  60 0014 FFF7FEFF 		bl	UART_XB_SpiUartClearRxBuffer
 103:lib_Network/network.c ****     
 104:lib_Network/network.c **** }
  61              		.loc 1 104 0
  62 0018 BD46     		mov	sp, r7
  63              		@ sp needed
  64 001a 80BD     		pop	{r7, pc}
  65              	.L3:
  66              		.align	2
  67              	.L2:
ARM GAS  C:\Users\Petro\AppData\Local\Temp\ccJj3IiC.s 			page 4


  68 001c 00000000 		.word	inData
  69 0020 00000000 		.word	outData
  70              		.cfi_endproc
  71              	.LFE63:
  72              		.size	InitNetwork, .-InitNetwork
  73              		.section	.rodata
  74              		.align	2
  75              	.LC4:
  76 0000 25303258 		.ascii	"%02X:%016X%02X%02X%02X%02X\000"
  76      3A253031 
  76      36582530 
  76      32582530 
  76      32582530 
  77              		.section	.text.SendData,"ax",%progbits
  78              		.align	2
  79              		.global	SendData
  80              		.code	16
  81              		.thumb_func
  82              		.type	SendData, %function
  83              	SendData:
  84              	.LFB64:
 105:lib_Network/network.c **** 
 106:lib_Network/network.c **** /*******************************************************************************
 107:lib_Network/network.c **** * Function Name: SendData
 108:lib_Network/network.c **** ********************************************************************************
 109:lib_Network/network.c **** *
 110:lib_Network/network.c **** * Summary:
 111:lib_Network/network.c **** *   send data to start from struct "outData"
 112:lib_Network/network.c **** *
 113:lib_Network/network.c **** *******************************************************************************/
 114:lib_Network/network.c **** void SendData(void)
 115:lib_Network/network.c **** {   
  85              		.loc 1 115 0
  86              		.cfi_startproc
  87 0000 90B5     		push	{r4, r7, lr}
  88              		.cfi_def_cfa_offset 12
  89              		.cfi_offset 4, -12
  90              		.cfi_offset 7, -8
  91              		.cfi_offset 14, -4
  92 0002 9FB0     		sub	sp, sp, #124
  93              		.cfi_def_cfa_offset 136
  94 0004 04AF     		add	r7, sp, #16
  95              		.cfi_def_cfa 7, 120
 116:lib_Network/network.c ****     if( outData.writeStatus == NO_WRITE || inData.readStatus == READ_OK)
  96              		.loc 1 116 0
  97 0006 214B     		ldr	r3, .L7
  98 0008 9B7C     		ldrb	r3, [r3, #18]
  99 000a 002B     		cmp	r3, #0
 100 000c 03D0     		beq	.L5
 101              		.loc 1 116 0 is_stmt 0 discriminator 1
 102 000e 204B     		ldr	r3, .L7+4
 103 0010 1B7D     		ldrb	r3, [r3, #20]
 104 0012 012B     		cmp	r3, #1
 105 0014 36D1     		bne	.L4
 106              	.L5:
 107              	.LBB2:
 117:lib_Network/network.c ****     {
ARM GAS  C:\Users\Petro\AppData\Local\Temp\ccJj3IiC.s 			page 5


 118:lib_Network/network.c ****         char sendBuffer[DATA_BUFFER];
 119:lib_Network/network.c ****         char sendData[DATA_BUFFER];
 120:lib_Network/network.c ****         
 121:lib_Network/network.c ****         outData.countSkiers = SkierOnWay();
 108              		.loc 1 121 0 is_stmt 1
 109 0016 FFF7FEFF 		bl	SkierOnWay
 110 001a 031C     		mov	r3, r0
 111 001c DAB2     		uxtb	r2, r3
 112 001e 1B4B     		ldr	r3, .L7
 113 0020 DA70     		strb	r2, [r3, #3]
 122:lib_Network/network.c ****         
 123:lib_Network/network.c ****         /*pack data*/
 124:lib_Network/network.c ****         sprintf(sendData,"%02X:%016X%02X%02X%02X%02X", 0u, 0u, outData.ready, outData.reboot, \
 114              		.loc 1 124 0
 115 0022 1A4B     		ldr	r3, .L7
 116 0024 5B78     		ldrb	r3, [r3, #1]
 117 0026 1C1C     		mov	r4, r3
 118 0028 184B     		ldr	r3, .L7
 119 002a 9B78     		ldrb	r3, [r3, #2]
 120 002c 181C     		mov	r0, r3
 125:lib_Network/network.c ****             outData.countSkiers, 0u);    
 121              		.loc 1 125 0
 122 002e 174B     		ldr	r3, .L7
 123 0030 DB78     		ldrb	r3, [r3, #3]
 124:lib_Network/network.c ****             outData.countSkiers, 0u);    
 124              		.loc 1 124 0
 125 0032 3422     		mov	r2, #52
 126 0034 B918     		add	r1, r7, r2
 127 0036 174A     		ldr	r2, .L7+8
 128 0038 0094     		str	r4, [sp]
 129 003a 0190     		str	r0, [sp, #4]
 130 003c 0293     		str	r3, [sp, #8]
 131 003e 0023     		mov	r3, #0
 132 0040 0393     		str	r3, [sp, #12]
 133 0042 081C     		mov	r0, r1
 134 0044 111C     		mov	r1, r2
 135 0046 0022     		mov	r2, #0
 136 0048 0023     		mov	r3, #0
 137 004a FFF7FEFF 		bl	sprintf
 126:lib_Network/network.c ****         PackData(sendBuffer, (uint8_t *)sendData, outData.IDpacket);
 138              		.loc 1 126 0
 139 004e 0F4B     		ldr	r3, .L7
 140 0050 1B78     		ldrb	r3, [r3]
 141 0052 9BB2     		uxth	r3, r3
 142 0054 391C     		mov	r1, r7
 143 0056 3422     		mov	r2, #52
 144 0058 BA18     		add	r2, r7, r2
 145 005a 081C     		mov	r0, r1
 146 005c 111C     		mov	r1, r2
 147 005e 1A1C     		mov	r2, r3
 148 0060 FFF7FEFF 		bl	PackData
 127:lib_Network/network.c ****         UART_XB_UartPutString(sendBuffer);
 149              		.loc 1 127 0
 150 0064 3B1C     		mov	r3, r7
 151 0066 181C     		mov	r0, r3
 152 0068 FFF7FEFF 		bl	UART_XB_UartPutString
 128:lib_Network/network.c ****         
ARM GAS  C:\Users\Petro\AppData\Local\Temp\ccJj3IiC.s 			page 6


 129:lib_Network/network.c ****         
 130:lib_Network/network.c ****         /*flag transmit data*/
 131:lib_Network/network.c ****         outData.writeStatus = WRITE_OK;
 153              		.loc 1 131 0
 154 006c 074B     		ldr	r3, .L7
 155 006e 0122     		mov	r2, #1
 156 0070 9A74     		strb	r2, [r3, #18]
 132:lib_Network/network.c ****         inData.readStatus = NO_READ;
 157              		.loc 1 132 0
 158 0072 074B     		ldr	r3, .L7+4
 159 0074 0022     		mov	r2, #0
 160 0076 1A75     		strb	r2, [r3, #20]
 133:lib_Network/network.c ****         
 134:lib_Network/network.c ****         /*set timeout*/
 135:lib_Network/network.c ****         noConnect = 0; 
 161              		.loc 1 135 0
 162 0078 074B     		ldr	r3, .L7+12
 163 007a 0022     		mov	r2, #0
 164 007c 1A60     		str	r2, [r3]
 136:lib_Network/network.c ****         
 137:lib_Network/network.c ****         CyDelay(50);
 165              		.loc 1 137 0
 166 007e 3220     		mov	r0, #50
 167 0080 FFF7FEFF 		bl	CyDelay
 168              	.L4:
 169              	.LBE2:
 138:lib_Network/network.c ****     }
 139:lib_Network/network.c **** }
 170              		.loc 1 139 0
 171 0084 BD46     		mov	sp, r7
 172 0086 1BB0     		add	sp, sp, #108
 173              		@ sp needed
 174 0088 90BD     		pop	{r4, r7, pc}
 175              	.L8:
 176 008a C046     		.align	2
 177              	.L7:
 178 008c 00000000 		.word	outData
 179 0090 00000000 		.word	inData
 180 0094 00000000 		.word	.LC4
 181 0098 00000000 		.word	noConnect
 182              		.cfi_endproc
 183              	.LFE64:
 184              		.size	SendData, .-SendData
 185              		.section	.text.ReceiveData,"ax",%progbits
 186              		.align	2
 187              		.global	ReceiveData
 188              		.code	16
 189              		.thumb_func
 190              		.type	ReceiveData, %function
 191              	ReceiveData:
 192              	.LFB65:
 140:lib_Network/network.c **** 
 141:lib_Network/network.c **** /*******************************************************************************
 142:lib_Network/network.c **** * Function Name: ReceiveData
 143:lib_Network/network.c **** ********************************************************************************
 144:lib_Network/network.c **** *
 145:lib_Network/network.c **** * Summary:
ARM GAS  C:\Users\Petro\AppData\Local\Temp\ccJj3IiC.s 			page 7


 146:lib_Network/network.c **** *   receive data from start in struct "inData"
 147:lib_Network/network.c **** * Return:
 148:lib_Network/network.c **** *   NETWORK_CONNECT or NETWORK_DISCONNECT
 149:lib_Network/network.c **** *
 150:lib_Network/network.c **** *******************************************************************************/
 151:lib_Network/network.c **** uint32_t  ReceiveData(void)
 152:lib_Network/network.c **** {   
 193              		.loc 1 152 0
 194              		.cfi_startproc
 195 0000 90B5     		push	{r4, r7, lr}
 196              		.cfi_def_cfa_offset 12
 197              		.cfi_offset 4, -12
 198              		.cfi_offset 7, -8
 199              		.cfi_offset 14, -4
 200 0002 8BB0     		sub	sp, sp, #44
 201              		.cfi_def_cfa_offset 56
 202 0004 00AF     		add	r7, sp, #0
 203              		.cfi_def_cfa_register 7
 153:lib_Network/network.c ****     if(inData.readStatus == NO_READ && outData.writeStatus == WRITE_OK)
 204              		.loc 1 153 0
 205 0006 564B     		ldr	r3, .L20
 206 0008 1B7D     		ldrb	r3, [r3, #20]
 207 000a 002B     		cmp	r3, #0
 208 000c 00D0     		beq	.LCB143
 209 000e A2E0     		b	.L10	@long jump
 210              	.LCB143:
 211              		.loc 1 153 0 is_stmt 0 discriminator 1
 212 0010 544B     		ldr	r3, .L20+4
 213 0012 9B7C     		ldrb	r3, [r3, #18]
 214 0014 012B     		cmp	r3, #1
 215 0016 00D0     		beq	.LCB147
 216 0018 9DE0     		b	.L10	@long jump
 217              	.LCB147:
 218              	.LBB3:
 154:lib_Network/network.c ****     {
 155:lib_Network/network.c ****         uint32_t result = 0;
 219              		.loc 1 155 0 is_stmt 1
 220 001a 0023     		mov	r3, #0
 221 001c 7B62     		str	r3, [r7, #36]
 156:lib_Network/network.c ****         int i;
 157:lib_Network/network.c ****         uint8_t byte;
 158:lib_Network/network.c ****         struct Resp recvData;
 159:lib_Network/network.c ****           
 160:lib_Network/network.c ****         while((UART_XB_SpiUartGetRxBufferSize() > 0) && ((byte=UART_XB_UartGetChar()) != 0))
 222              		.loc 1 160 0
 223 001e 76E0     		b	.L11
 224              	.L17:
 161:lib_Network/network.c ****         { 
 162:lib_Network/network.c ****             result = UnpackData(&recvData, (uint8_t)(byte & 0xFF));
 225              		.loc 1 162 0
 226 0020 3A1C     		mov	r2, r7
 227 0022 2323     		mov	r3, #35
 228 0024 FB18     		add	r3, r7, r3
 229 0026 1B78     		ldrb	r3, [r3]
 230 0028 101C     		mov	r0, r2
 231 002a 191C     		mov	r1, r3
 232 002c FFF7FEFF 		bl	UnpackData
ARM GAS  C:\Users\Petro\AppData\Local\Temp\ccJj3IiC.s 			page 8


 233 0030 031C     		mov	r3, r0
 234 0032 7B62     		str	r3, [r7, #36]
 163:lib_Network/network.c ****             CyDelay(2);
 235              		.loc 1 163 0
 236 0034 0220     		mov	r0, #2
 237 0036 FFF7FEFF 		bl	CyDelay
 164:lib_Network/network.c ****             
 165:lib_Network/network.c ****             
 166:lib_Network/network.c ****             if(recvData.EndPacket == 1)
 238              		.loc 1 166 0
 239 003a 3B1C     		mov	r3, r7
 240 003c 1B7E     		ldrb	r3, [r3, #24]
 241 003e 012B     		cmp	r3, #1
 242 0040 65D1     		bne	.L11
 167:lib_Network/network.c ****             {
 168:lib_Network/network.c ****                 inData.IDpacket = recvData.Seq;
 243              		.loc 1 168 0
 244 0042 3B1C     		mov	r3, r7
 245 0044 1B88     		ldrh	r3, [r3]
 246 0046 DAB2     		uxtb	r2, r3
 247 0048 454B     		ldr	r3, .L20
 248 004a 1A70     		strb	r2, [r3]
 169:lib_Network/network.c ****                 
 170:lib_Network/network.c ****                 /*id packet ok*/
 171:lib_Network/network.c ****                 if(outData.IDpacket == inData.IDpacket)
 249              		.loc 1 171 0
 250 004c 454B     		ldr	r3, .L20+4
 251 004e 1A78     		ldrb	r2, [r3]
 252 0050 434B     		ldr	r3, .L20
 253 0052 1B78     		ldrb	r3, [r3]
 254 0054 9A42     		cmp	r2, r3
 255 0056 38D1     		bne	.L12
 172:lib_Network/network.c ****                 {
 173:lib_Network/network.c ****                     inData.readStatus = READ_OK;
 256              		.loc 1 173 0
 257 0058 414B     		ldr	r3, .L20
 258 005a 0122     		mov	r2, #1
 259 005c 1A75     		strb	r2, [r3, #20]
 174:lib_Network/network.c ****                     outData.writeStatus = NO_WRITE;
 260              		.loc 1 174 0
 261 005e 414B     		ldr	r3, .L20+4
 262 0060 0022     		mov	r2, #0
 263 0062 9A74     		strb	r2, [r3, #18]
 175:lib_Network/network.c ****                     
 176:lib_Network/network.c ****                     /*connect network*/
 177:lib_Network/network.c ****                     networkStatus = NETWORK_CONNECT;
 264              		.loc 1 177 0
 265 0064 404B     		ldr	r3, .L20+8
 266 0066 0122     		mov	r2, #1
 267 0068 1A60     		str	r2, [r3]
 178:lib_Network/network.c ****                     noConnect = 0;
 268              		.loc 1 178 0
 269 006a 404B     		ldr	r3, .L20+12
 270 006c 0022     		mov	r2, #0
 271 006e 1A60     		str	r2, [r3]
 179:lib_Network/network.c ****                     
 180:lib_Network/network.c ****                     /*write data*/
ARM GAS  C:\Users\Petro\AppData\Local\Temp\ccJj3IiC.s 			page 9


 181:lib_Network/network.c ****                     inData.newSkier = (recvData.Data3 & 0xFF00) >> 8;
 272              		.loc 1 181 0
 273 0070 3B1C     		mov	r3, r7
 274 0072 5B8A     		ldrh	r3, [r3, #18]
 275 0074 1B0A     		lsr	r3, r3, #8
 276 0076 9BB2     		uxth	r3, r3
 277 0078 DAB2     		uxtb	r2, r3
 278 007a 394B     		ldr	r3, .L20
 279 007c 9A74     		strb	r2, [r3, #18]
 182:lib_Network/network.c ****                     inData.unixStartTime = recvData.Data1;
 280              		.loc 1 182 0
 281 007e 3B1C     		mov	r3, r7
 282 0080 DC68     		ldr	r4, [r3, #12]
 283 0082 9B68     		ldr	r3, [r3, #8]
 284 0084 364A     		ldr	r2, .L20
 285 0086 9360     		str	r3, [r2, #8]
 286 0088 D460     		str	r4, [r2, #12]
 183:lib_Network/network.c ****                     inData.startMsTime = recvData.Data2;
 287              		.loc 1 183 0
 288 008a 3B1C     		mov	r3, r7
 289 008c 1A8A     		ldrh	r2, [r3, #16]
 290 008e 344B     		ldr	r3, .L20
 291 0090 1A82     		strh	r2, [r3, #16]
 184:lib_Network/network.c ****                     inData.reboot = (recvData.Data3 & 0x00FF);
 292              		.loc 1 184 0
 293 0092 3B1C     		mov	r3, r7
 294 0094 5B8A     		ldrh	r3, [r3, #18]
 295 0096 DAB2     		uxtb	r2, r3
 296 0098 314B     		ldr	r3, .L20
 297 009a DA74     		strb	r2, [r3, #19]
 185:lib_Network/network.c ****                     
 186:lib_Network/network.c ****                     /*if new skier on track*/
 187:lib_Network/network.c ****                     if(inData.newSkier == NEW_SKIER_IN_TARCK )
 298              		.loc 1 187 0
 299 009c 304B     		ldr	r3, .L20
 300 009e 9B7C     		ldrb	r3, [r3, #18]
 301 00a0 012B     		cmp	r3, #1
 302 00a2 08D1     		bne	.L13
 188:lib_Network/network.c ****                     {
 189:lib_Network/network.c ****                         WriteStartTime(inData.unixStartTime, inData.startMsTime);
 303              		.loc 1 189 0
 304 00a4 2E4B     		ldr	r3, .L20
 305 00a6 DC68     		ldr	r4, [r3, #12]
 306 00a8 9B68     		ldr	r3, [r3, #8]
 307 00aa 2D4A     		ldr	r2, .L20
 308 00ac 128A     		ldrh	r2, [r2, #16]
 309 00ae 181C     		mov	r0, r3
 310 00b0 211C     		mov	r1, r4
 311 00b2 FFF7FEFF 		bl	WriteStartTime
 312              	.L13:
 190:lib_Network/network.c ****                     }
 191:lib_Network/network.c ****                     
 192:lib_Network/network.c ****                     /*next packet*/
 193:lib_Network/network.c ****                     outData.IDpacket++;
 313              		.loc 1 193 0
 314 00b6 2B4B     		ldr	r3, .L20+4
 315 00b8 1B78     		ldrb	r3, [r3]
ARM GAS  C:\Users\Petro\AppData\Local\Temp\ccJj3IiC.s 			page 10


 316 00ba 0133     		add	r3, r3, #1
 317 00bc DAB2     		uxtb	r2, r3
 318 00be 294B     		ldr	r3, .L20+4
 319 00c0 1A70     		strb	r2, [r3]
 194:lib_Network/network.c ****                     CyDelay(50);
 320              		.loc 1 194 0
 321 00c2 3220     		mov	r0, #50
 322 00c4 FFF7FEFF 		bl	CyDelay
 323 00c8 1FE0     		b	.L14
 324              	.L12:
 195:lib_Network/network.c ****                 }  
 196:lib_Network/network.c ****                 /* if prev packet late*/
 197:lib_Network/network.c ****                 else if(outData.IDpacket == (inData.IDpacket + 1))
 325              		.loc 1 197 0
 326 00ca 264B     		ldr	r3, .L20+4
 327 00cc 1B78     		ldrb	r3, [r3]
 328 00ce 1A1C     		mov	r2, r3
 329 00d0 234B     		ldr	r3, .L20
 330 00d2 1B78     		ldrb	r3, [r3]
 331 00d4 0133     		add	r3, r3, #1
 332 00d6 9A42     		cmp	r2, r3
 333 00d8 17D1     		bne	.L14
 198:lib_Network/network.c ****                 {
 199:lib_Network/network.c ****                     inData.newSkier = recvData.Data3;
 334              		.loc 1 199 0
 335 00da 3B1C     		mov	r3, r7
 336 00dc 5B8A     		ldrh	r3, [r3, #18]
 337 00de DAB2     		uxtb	r2, r3
 338 00e0 1F4B     		ldr	r3, .L20
 339 00e2 9A74     		strb	r2, [r3, #18]
 200:lib_Network/network.c ****                     inData.unixStartTime = recvData.Data1;
 340              		.loc 1 200 0
 341 00e4 3B1C     		mov	r3, r7
 342 00e6 DC68     		ldr	r4, [r3, #12]
 343 00e8 9B68     		ldr	r3, [r3, #8]
 344 00ea 1D4A     		ldr	r2, .L20
 345 00ec 9360     		str	r3, [r2, #8]
 346 00ee D460     		str	r4, [r2, #12]
 201:lib_Network/network.c ****                     inData.startMsTime = recvData.Data2;
 347              		.loc 1 201 0
 348 00f0 3B1C     		mov	r3, r7
 349 00f2 1A8A     		ldrh	r2, [r3, #16]
 350 00f4 1A4B     		ldr	r3, .L20
 351 00f6 1A82     		strh	r2, [r3, #16]
 202:lib_Network/network.c ****                     
 203:lib_Network/network.c ****                     networkStatus = NETWORK_CONNECT;
 352              		.loc 1 203 0
 353 00f8 1B4B     		ldr	r3, .L20+8
 354 00fa 0122     		mov	r2, #1
 355 00fc 1A60     		str	r2, [r3]
 204:lib_Network/network.c ****                     noConnect = 0;
 356              		.loc 1 204 0
 357 00fe 1B4B     		ldr	r3, .L20+12
 358 0100 0022     		mov	r2, #0
 359 0102 1A60     		str	r2, [r3]
 205:lib_Network/network.c ****                     CyDelay(50);
 360              		.loc 1 205 0
ARM GAS  C:\Users\Petro\AppData\Local\Temp\ccJj3IiC.s 			page 11


 361 0104 3220     		mov	r0, #50
 362 0106 FFF7FEFF 		bl	CyDelay
 363              	.L14:
 206:lib_Network/network.c ****                 }
 207:lib_Network/network.c ****                 return  NETWORK_CONNECT;  
 364              		.loc 1 207 0
 365 010a 0123     		mov	r3, #1
 366 010c 24E0     		b	.L19
 367              	.L11:
 160:lib_Network/network.c ****         { 
 368              		.loc 1 160 0
 369 010e FFF7FEFF 		bl	UART_XB_SpiUartGetRxBufferSize
 370 0112 031E     		sub	r3, r0, #0
 371 0114 0BD0     		beq	.L16
 160:lib_Network/network.c ****         { 
 372              		.loc 1 160 0 is_stmt 0 discriminator 1
 373 0116 FFF7FEFF 		bl	UART_XB_UartGetChar
 374 011a 021C     		mov	r2, r0
 375 011c 2323     		mov	r3, #35
 376 011e FB18     		add	r3, r7, r3
 377 0120 1A70     		strb	r2, [r3]
 378 0122 2323     		mov	r3, #35
 379 0124 FB18     		add	r3, r7, r3
 380 0126 1B78     		ldrb	r3, [r3]
 381 0128 002B     		cmp	r3, #0
 382 012a 00D0     		beq	.LCB287
 383 012c 78E7     		b	.L17	@long jump
 384              	.LCB287:
 385              	.L16:
 208:lib_Network/network.c ****             }
 209:lib_Network/network.c ****         }
 210:lib_Network/network.c ****         
 211:lib_Network/network.c ****         noConnect++;
 386              		.loc 1 211 0 is_stmt 1
 387 012e 0F4B     		ldr	r3, .L20+12
 388 0130 1B68     		ldr	r3, [r3]
 389 0132 5A1C     		add	r2, r3, #1
 390 0134 0D4B     		ldr	r3, .L20+12
 391 0136 1A60     		str	r2, [r3]
 212:lib_Network/network.c ****         if(noConnect >= NETWORK_TIMEOUT)
 392              		.loc 1 212 0
 393 0138 0C4B     		ldr	r3, .L20+12
 394 013a 1B68     		ldr	r3, [r3]
 395 013c 312B     		cmp	r3, #49
 396 013e 08D9     		bls	.L18
 213:lib_Network/network.c ****         {
 214:lib_Network/network.c ****             outData.writeStatus = NO_WRITE;
 397              		.loc 1 214 0
 398 0140 084B     		ldr	r3, .L20+4
 399 0142 0022     		mov	r2, #0
 400 0144 9A74     		strb	r2, [r3, #18]
 215:lib_Network/network.c ****             inData.readStatus = NO_READ;
 401              		.loc 1 215 0
 402 0146 064B     		ldr	r3, .L20
 403 0148 0022     		mov	r2, #0
 404 014a 1A75     		strb	r2, [r3, #20]
 216:lib_Network/network.c ****             networkStatus = NETWORK_DISCONNECT;
ARM GAS  C:\Users\Petro\AppData\Local\Temp\ccJj3IiC.s 			page 12


 405              		.loc 1 216 0
 406 014c 064B     		ldr	r3, .L20+8
 407 014e 0022     		mov	r2, #0
 408 0150 1A60     		str	r2, [r3]
 409              	.L18:
 217:lib_Network/network.c ****         }
 218:lib_Network/network.c ****         
 219:lib_Network/network.c ****         return  NETWORK_DISCONNECT;
 410              		.loc 1 219 0
 411 0152 0023     		mov	r3, #0
 412 0154 00E0     		b	.L19
 413              	.L10:
 414              	.LBE3:
 220:lib_Network/network.c ****     }
 221:lib_Network/network.c ****     return 0;
 415              		.loc 1 221 0
 416 0156 0023     		mov	r3, #0
 417              	.L19:
 222:lib_Network/network.c **** }
 418              		.loc 1 222 0 discriminator 1
 419 0158 181C     		mov	r0, r3
 420 015a BD46     		mov	sp, r7
 421 015c 0BB0     		add	sp, sp, #44
 422              		@ sp needed
 423 015e 90BD     		pop	{r4, r7, pc}
 424              	.L21:
 425              		.align	2
 426              	.L20:
 427 0160 00000000 		.word	inData
 428 0164 00000000 		.word	outData
 429 0168 00000000 		.word	networkStatus
 430 016c 00000000 		.word	noConnect
 431              		.cfi_endproc
 432              	.LFE65:
 433              		.size	ReceiveData, .-ReceiveData
 434              		.section	.text.SendFinStatus,"ax",%progbits
 435              		.align	2
 436              		.global	SendFinStatus
 437              		.code	16
 438              		.thumb_func
 439              		.type	SendFinStatus, %function
 440              	SendFinStatus:
 441              	.LFB66:
 223:lib_Network/network.c **** 
 224:lib_Network/network.c **** 
 225:lib_Network/network.c **** /*******************************************************************************
 226:lib_Network/network.c **** * Function Name: SendFinStatus
 227:lib_Network/network.c **** ********************************************************************************
 228:lib_Network/network.c **** *
 229:lib_Network/network.c **** * Summary:
 230:lib_Network/network.c **** *   set fin status
 231:lib_Network/network.c **** * Parametrs:
 232:lib_Network/network.c **** *   FIN_READY or FIN_NO_READY
 233:lib_Network/network.c **** *
 234:lib_Network/network.c **** *******************************************************************************/
 235:lib_Network/network.c **** void SendFinStatus(uint32_t ready)
 236:lib_Network/network.c **** {
ARM GAS  C:\Users\Petro\AppData\Local\Temp\ccJj3IiC.s 			page 13


 442              		.loc 1 236 0
 443              		.cfi_startproc
 444 0000 80B5     		push	{r7, lr}
 445              		.cfi_def_cfa_offset 8
 446              		.cfi_offset 7, -8
 447              		.cfi_offset 14, -4
 448 0002 82B0     		sub	sp, sp, #8
 449              		.cfi_def_cfa_offset 16
 450 0004 00AF     		add	r7, sp, #0
 451              		.cfi_def_cfa_register 7
 452 0006 7860     		str	r0, [r7, #4]
 237:lib_Network/network.c ****     outData.ready = ready;
 453              		.loc 1 237 0
 454 0008 7B68     		ldr	r3, [r7, #4]
 455 000a DAB2     		uxtb	r2, r3
 456 000c 024B     		ldr	r3, .L23
 457 000e 5A70     		strb	r2, [r3, #1]
 238:lib_Network/network.c **** }
 458              		.loc 1 238 0
 459 0010 BD46     		mov	sp, r7
 460 0012 02B0     		add	sp, sp, #8
 461              		@ sp needed
 462 0014 80BD     		pop	{r7, pc}
 463              	.L24:
 464 0016 C046     		.align	2
 465              	.L23:
 466 0018 00000000 		.word	outData
 467              		.cfi_endproc
 468              	.LFE66:
 469              		.size	SendFinStatus, .-SendFinStatus
 470              		.section	.text.NetworkStatus,"ax",%progbits
 471              		.align	2
 472              		.global	NetworkStatus
 473              		.code	16
 474              		.thumb_func
 475              		.type	NetworkStatus, %function
 476              	NetworkStatus:
 477              	.LFB67:
 239:lib_Network/network.c **** 
 240:lib_Network/network.c **** /*******************************************************************************
 241:lib_Network/network.c **** * Function Name: NetworkStatus
 242:lib_Network/network.c **** ********************************************************************************
 243:lib_Network/network.c **** *
 244:lib_Network/network.c **** * Summary:
 245:lib_Network/network.c **** *   read network status
 246:lib_Network/network.c **** * Return:
 247:lib_Network/network.c **** *   NETWORK_CONNECT or NETWORK_DISCONNECT
 248:lib_Network/network.c **** *
 249:lib_Network/network.c **** *******************************************************************************/
 250:lib_Network/network.c **** uint32_t NetworkStatus(void)
 251:lib_Network/network.c **** {
 478              		.loc 1 251 0
 479              		.cfi_startproc
 480 0000 80B5     		push	{r7, lr}
 481              		.cfi_def_cfa_offset 8
 482              		.cfi_offset 7, -8
 483              		.cfi_offset 14, -4
ARM GAS  C:\Users\Petro\AppData\Local\Temp\ccJj3IiC.s 			page 14


 484 0002 00AF     		add	r7, sp, #0
 485              		.cfi_def_cfa_register 7
 252:lib_Network/network.c ****     return networkStatus;
 486              		.loc 1 252 0
 487 0004 024B     		ldr	r3, .L27
 488 0006 1B68     		ldr	r3, [r3]
 253:lib_Network/network.c **** }
 489              		.loc 1 253 0
 490 0008 181C     		mov	r0, r3
 491 000a BD46     		mov	sp, r7
 492              		@ sp needed
 493 000c 80BD     		pop	{r7, pc}
 494              	.L28:
 495 000e C046     		.align	2
 496              	.L27:
 497 0010 00000000 		.word	networkStatus
 498              		.cfi_endproc
 499              	.LFE67:
 500              		.size	NetworkStatus, .-NetworkStatus
 501              		.section	.text.IsRebootStartFlag,"ax",%progbits
 502              		.align	2
 503              		.global	IsRebootStartFlag
 504              		.code	16
 505              		.thumb_func
 506              		.type	IsRebootStartFlag, %function
 507              	IsRebootStartFlag:
 508              	.LFB68:
 254:lib_Network/network.c **** 
 255:lib_Network/network.c **** /*******************************************************************************
 256:lib_Network/network.c **** * Function Name: ReadRebootStartFlag
 257:lib_Network/network.c **** ********************************************************************************
 258:lib_Network/network.c **** *
 259:lib_Network/network.c **** * Summary:
 260:lib_Network/network.c **** *   read reboot flag from start
 261:lib_Network/network.c **** * Return:
 262:lib_Network/network.c **** *   REBOOT or NO_REBOOT
 263:lib_Network/network.c **** *
 264:lib_Network/network.c **** *******************************************************************************/
 265:lib_Network/network.c **** uint32_t IsRebootStartFlag(void)
 266:lib_Network/network.c **** {
 509              		.loc 1 266 0
 510              		.cfi_startproc
 511 0000 80B5     		push	{r7, lr}
 512              		.cfi_def_cfa_offset 8
 513              		.cfi_offset 7, -8
 514              		.cfi_offset 14, -4
 515 0002 82B0     		sub	sp, sp, #8
 516              		.cfi_def_cfa_offset 16
 517 0004 00AF     		add	r7, sp, #0
 518              		.cfi_def_cfa_register 7
 267:lib_Network/network.c ****     uint32_t result;
 268:lib_Network/network.c ****     
 269:lib_Network/network.c ****     if(inData.reboot == 1 && outData.reboot == 0)
 519              		.loc 1 269 0
 520 0006 0D4B     		ldr	r3, .L33
 521 0008 DB7C     		ldrb	r3, [r3, #19]
 522 000a 012B     		cmp	r3, #1
ARM GAS  C:\Users\Petro\AppData\Local\Temp\ccJj3IiC.s 			page 15


 523 000c 09D1     		bne	.L30
 524              		.loc 1 269 0 is_stmt 0 discriminator 1
 525 000e 0C4B     		ldr	r3, .L33+4
 526 0010 9B78     		ldrb	r3, [r3, #2]
 527 0012 002B     		cmp	r3, #0
 528 0014 05D1     		bne	.L30
 270:lib_Network/network.c ****     {
 271:lib_Network/network.c ****         result = REBOOT;
 529              		.loc 1 271 0 is_stmt 1
 530 0016 FF23     		mov	r3, #255
 531 0018 7B60     		str	r3, [r7, #4]
 272:lib_Network/network.c ****         inData.reboot = 0;
 532              		.loc 1 272 0
 533 001a 084B     		ldr	r3, .L33
 534 001c 0022     		mov	r2, #0
 535 001e DA74     		strb	r2, [r3, #19]
 536 0020 07E0     		b	.L31
 537              	.L30:
 273:lib_Network/network.c ****     }
 274:lib_Network/network.c ****     else 
 275:lib_Network/network.c ****     {
 276:lib_Network/network.c ****         outData.reboot = 0;
 538              		.loc 1 276 0
 539 0022 074B     		ldr	r3, .L33+4
 540 0024 0022     		mov	r2, #0
 541 0026 9A70     		strb	r2, [r3, #2]
 277:lib_Network/network.c ****         inData.reboot = 0;
 542              		.loc 1 277 0
 543 0028 044B     		ldr	r3, .L33
 544 002a 0022     		mov	r2, #0
 545 002c DA74     		strb	r2, [r3, #19]
 278:lib_Network/network.c ****         result = NO_REBOOT;
 546              		.loc 1 278 0
 547 002e FE23     		mov	r3, #254
 548 0030 7B60     		str	r3, [r7, #4]
 549              	.L31:
 279:lib_Network/network.c ****     }
 280:lib_Network/network.c ****     return result;
 550              		.loc 1 280 0
 551 0032 7B68     		ldr	r3, [r7, #4]
 281:lib_Network/network.c **** }
 552              		.loc 1 281 0
 553 0034 181C     		mov	r0, r3
 554 0036 BD46     		mov	sp, r7
 555 0038 02B0     		add	sp, sp, #8
 556              		@ sp needed
 557 003a 80BD     		pop	{r7, pc}
 558              	.L34:
 559              		.align	2
 560              	.L33:
 561 003c 00000000 		.word	inData
 562 0040 00000000 		.word	outData
 563              		.cfi_endproc
 564              	.LFE68:
 565              		.size	IsRebootStartFlag, .-IsRebootStartFlag
 566              		.section	.text.ClearRebootFlag,"ax",%progbits
 567              		.align	2
ARM GAS  C:\Users\Petro\AppData\Local\Temp\ccJj3IiC.s 			page 16


 568              		.global	ClearRebootFlag
 569              		.code	16
 570              		.thumb_func
 571              		.type	ClearRebootFlag, %function
 572              	ClearRebootFlag:
 573              	.LFB69:
 282:lib_Network/network.c **** 
 283:lib_Network/network.c **** void ClearRebootFlag(void)
 284:lib_Network/network.c **** {
 574              		.loc 1 284 0
 575              		.cfi_startproc
 576 0000 80B5     		push	{r7, lr}
 577              		.cfi_def_cfa_offset 8
 578              		.cfi_offset 7, -8
 579              		.cfi_offset 14, -4
 580 0002 00AF     		add	r7, sp, #0
 581              		.cfi_def_cfa_register 7
 285:lib_Network/network.c ****     outData.reboot = 0;
 582              		.loc 1 285 0
 583 0004 034B     		ldr	r3, .L36
 584 0006 0022     		mov	r2, #0
 585 0008 9A70     		strb	r2, [r3, #2]
 286:lib_Network/network.c ****     inData.reboot = 0;
 586              		.loc 1 286 0
 587 000a 034B     		ldr	r3, .L36+4
 588 000c 0022     		mov	r2, #0
 589 000e DA74     		strb	r2, [r3, #19]
 287:lib_Network/network.c **** }
 590              		.loc 1 287 0
 591 0010 BD46     		mov	sp, r7
 592              		@ sp needed
 593 0012 80BD     		pop	{r7, pc}
 594              	.L37:
 595              		.align	2
 596              	.L36:
 597 0014 00000000 		.word	outData
 598 0018 00000000 		.word	inData
 599              		.cfi_endproc
 600              	.LFE69:
 601              		.size	ClearRebootFlag, .-ClearRebootFlag
 602              		.section	.text.SetRebootFlag,"ax",%progbits
 603              		.align	2
 604              		.global	SetRebootFlag
 605              		.code	16
 606              		.thumb_func
 607              		.type	SetRebootFlag, %function
 608              	SetRebootFlag:
 609              	.LFB70:
 288:lib_Network/network.c **** /*******************************************************************************
 289:lib_Network/network.c **** * Function Name: WriteRebootFlag
 290:lib_Network/network.c **** ********************************************************************************
 291:lib_Network/network.c **** *
 292:lib_Network/network.c **** * Summary:
 293:lib_Network/network.c **** *   write reboot flag to start
 294:lib_Network/network.c **** *
 295:lib_Network/network.c **** *******************************************************************************/
 296:lib_Network/network.c **** void SetRebootFlag(void)
ARM GAS  C:\Users\Petro\AppData\Local\Temp\ccJj3IiC.s 			page 17


 297:lib_Network/network.c **** {
 610              		.loc 1 297 0
 611              		.cfi_startproc
 612 0000 80B5     		push	{r7, lr}
 613              		.cfi_def_cfa_offset 8
 614              		.cfi_offset 7, -8
 615              		.cfi_offset 14, -4
 616 0002 00AF     		add	r7, sp, #0
 617              		.cfi_def_cfa_register 7
 298:lib_Network/network.c ****     outData.reboot = 1;
 618              		.loc 1 298 0
 619 0004 024B     		ldr	r3, .L39
 620 0006 0122     		mov	r2, #1
 621 0008 9A70     		strb	r2, [r3, #2]
 299:lib_Network/network.c **** }
 622              		.loc 1 299 0
 623 000a BD46     		mov	sp, r7
 624              		@ sp needed
 625 000c 80BD     		pop	{r7, pc}
 626              	.L40:
 627 000e C046     		.align	2
 628              	.L39:
 629 0010 00000000 		.word	outData
 630              		.cfi_endproc
 631              	.LFE70:
 632              		.size	SetRebootFlag, .-SetRebootFlag
 633              		.section	.text.NTPsync,"ax",%progbits
 634              		.align	2
 635              		.global	NTPsync
 636              		.code	16
 637              		.thumb_func
 638              		.type	NTPsync, %function
 639              	NTPsync:
 640              	.LFB71:
 300:lib_Network/network.c **** 
 301:lib_Network/network.c **** 
 302:lib_Network/network.c **** /*******************************************************************************
 303:lib_Network/network.c **** * Function Name: NTPsync
 304:lib_Network/network.c **** ********************************************************************************
 305:lib_Network/network.c **** *
 306:lib_Network/network.c **** * Summary:
 307:lib_Network/network.c **** *   NTP time synchronization protocol on
 308:lib_Network/network.c **** * Return:
 309:lib_Network/network.c **** *   TIME_SYNC_OK or TIME_SYNC_ERR
 310:lib_Network/network.c **** *
 311:lib_Network/network.c **** *******************************************************************************/
 312:lib_Network/network.c **** uint32_t NTPsync(void)
 313:lib_Network/network.c **** {
 641              		.loc 1 313 0
 642              		.cfi_startproc
 643 0000 90B5     		push	{r4, r7, lr}
 644              		.cfi_def_cfa_offset 12
 645              		.cfi_offset 4, -12
 646              		.cfi_offset 7, -8
 647              		.cfi_offset 14, -4
 648 0002 91B0     		sub	sp, sp, #68
 649              		.cfi_def_cfa_offset 80
ARM GAS  C:\Users\Petro\AppData\Local\Temp\ccJj3IiC.s 			page 18


 650 0004 02AF     		add	r7, sp, #8
 651              		.cfi_def_cfa 7, 72
 314:lib_Network/network.c ****     uint16_t result;
 315:lib_Network/network.c ****     uint32_t resultReceive; 
 316:lib_Network/network.c ****     int i;
 317:lib_Network/network.c ****     uint16_t IDpacket;
 318:lib_Network/network.c ****     uint16_t IDreceivePacket;
 319:lib_Network/network.c ****     uint32_t unixTime[4];
 320:lib_Network/network.c ****     uint16_t millisTime[4];
 321:lib_Network/network.c ****     int32_t sumTime;
 322:lib_Network/network.c ****     int32_t sumMillis;   
 323:lib_Network/network.c ****     uint32_t numAttempsReseive;
 324:lib_Network/network.c ****     uint32_t numTruReceive;
 325:lib_Network/network.c ****     
 326:lib_Network/network.c ****     #ifdef DEBUG_INFO
 327:lib_Network/network.c ****         char uartBuff[100];
 328:lib_Network/network.c ****     #endif  
 329:lib_Network/network.c ****     
 330:lib_Network/network.c ****     IDpacket = 1;
 652              		.loc 1 330 0
 653 0006 2A23     		mov	r3, #42
 654 0008 FB18     		add	r3, r7, r3
 655 000a 0122     		mov	r2, #1
 656 000c 1A80     		strh	r2, [r3]
 331:lib_Network/network.c ****     IDreceivePacket = 0;
 657              		.loc 1 331 0
 658 000e 2223     		mov	r3, #34
 659 0010 FB18     		add	r3, r7, r3
 660 0012 0022     		mov	r2, #0
 661 0014 1A80     		strh	r2, [r3]
 332:lib_Network/network.c ****     numAttempsReseive = 0;
 662              		.loc 1 332 0
 663 0016 0023     		mov	r3, #0
 664 0018 7B62     		str	r3, [r7, #36]
 333:lib_Network/network.c ****     result = TIME_SYNC_ERR;
 665              		.loc 1 333 0
 666 001a 3623     		mov	r3, #54
 667 001c FB18     		add	r3, r7, r3
 668 001e 0122     		mov	r2, #1
 669 0020 1A80     		strh	r2, [r3]
 334:lib_Network/network.c ****     
 335:lib_Network/network.c ****     #ifdef DEBUG_INFO
 336:lib_Network/network.c ****         SW_UART_DEBUG_PutString("start ntp sync\n\r");
 337:lib_Network/network.c ****     #endif  
 338:lib_Network/network.c ****     /*sync milisecond and second*/
 339:lib_Network/network.c ****     for(i=1; i < NUM_TRY_SYNC; )
 670              		.loc 1 339 0
 671 0022 0123     		mov	r3, #1
 672 0024 FB62     		str	r3, [r7, #44]
 673 0026 CEE0     		b	.L42
 674              	.L51:
 340:lib_Network/network.c ****     {
 341:lib_Network/network.c ****         /*send time T1*/
 342:lib_Network/network.c ****         unixTime[T1] = RTCGetUnixTime();
 675              		.loc 1 342 0
 676 0028 FFF7FEFF 		bl	RTCGetUnixTime
 677 002c 031C     		mov	r3, r0
ARM GAS  C:\Users\Petro\AppData\Local\Temp\ccJj3IiC.s 			page 19


 678 002e 0C1C     		mov	r4, r1
 679 0030 1A1C     		mov	r2, r3
 680 0032 1023     		mov	r3, #16
 681 0034 FB18     		add	r3, r7, r3
 682 0036 1A60     		str	r2, [r3]
 343:lib_Network/network.c ****         millisTime[T1] = RTCgetRecentMs();
 683              		.loc 1 343 0
 684 0038 FFF7FEFF 		bl	RTCgetRecentMs
 685 003c 031C     		mov	r3, r0
 686 003e 9AB2     		uxth	r2, r3
 687 0040 0823     		mov	r3, #8
 688 0042 FB18     		add	r3, r7, r3
 689 0044 1A80     		strh	r2, [r3]
 344:lib_Network/network.c ****         
 345:lib_Network/network.c ****         #ifdef DEBUG_NTP
 346:lib_Network/network.c ****             debugntp_Write(1);
 690              		.loc 1 346 0
 691 0046 0120     		mov	r0, #1
 692 0048 FFF7FEFF 		bl	debugntp_Write
 347:lib_Network/network.c ****             debugntp_Write(0);
 693              		.loc 1 347 0
 694 004c 0020     		mov	r0, #0
 695 004e FFF7FEFF 		bl	debugntp_Write
 348:lib_Network/network.c ****         #endif
 349:lib_Network/network.c ****         
 350:lib_Network/network.c ****         NTPsendTime(unixTime[T1], millisTime[T1], IDpacket);
 696              		.loc 1 350 0
 697 0052 1023     		mov	r3, #16
 698 0054 FB18     		add	r3, r7, r3
 699 0056 1968     		ldr	r1, [r3]
 700 0058 0823     		mov	r3, #8
 701 005a FB18     		add	r3, r7, r3
 702 005c 1A88     		ldrh	r2, [r3]
 703 005e 2A23     		mov	r3, #42
 704 0060 FB18     		add	r3, r7, r3
 705 0062 1B88     		ldrh	r3, [r3]
 706 0064 081C     		mov	r0, r1
 707 0066 111C     		mov	r1, r2
 708 0068 1A1C     		mov	r2, r3
 709 006a FFF7FEFF 		bl	NTPsendTime
 351:lib_Network/network.c ****         
 352:lib_Network/network.c ****         /*reseive data*/
 353:lib_Network/network.c ****         resultReceive = NO_READ;
 710              		.loc 1 353 0
 711 006e 0023     		mov	r3, #0
 712 0070 3B63     		str	r3, [r7, #48]
 354:lib_Network/network.c ****         numAttempsReseive = 0;
 713              		.loc 1 354 0
 714 0072 0023     		mov	r3, #0
 715 0074 7B62     		str	r3, [r7, #36]
 355:lib_Network/network.c ****         while((resultReceive == NO_READ) && (numAttempsReseive < NUM_CONNECT_ATTEMPS*4))
 716              		.loc 1 355 0
 717 0076 92E0     		b	.L43
 718              	.L50:
 356:lib_Network/network.c ****         {
 357:lib_Network/network.c ****             /*receive time from start*/
 358:lib_Network/network.c ****             resultReceive = NTPreceiveTime(&unixTime[T2],&millisTime[T2], &unixTime[T3], &millisTim
ARM GAS  C:\Users\Petro\AppData\Local\Temp\ccJj3IiC.s 			page 20


 719              		.loc 1 358 0
 720 0078 1023     		mov	r3, #16
 721 007a FB18     		add	r3, r7, r3
 722 007c 181D     		add	r0, r3, #4
 723 007e 0823     		mov	r3, #8
 724 0080 FB18     		add	r3, r7, r3
 725 0082 991C     		add	r1, r3, #2
 726 0084 1023     		mov	r3, #16
 727 0086 FB18     		add	r3, r7, r3
 728 0088 0833     		add	r3, r3, #8
 729 008a 1A1C     		mov	r2, r3
 730 008c 0823     		mov	r3, #8
 731 008e FB18     		add	r3, r7, r3
 732 0090 1C1D     		add	r4, r3, #4
 733 0092 2223     		mov	r3, #34
 734 0094 FB18     		add	r3, r7, r3
 735 0096 0093     		str	r3, [sp]
 736 0098 231C     		mov	r3, r4
 737 009a FFF7FEFF 		bl	NTPreceiveTime
 738 009e 031C     		mov	r3, r0
 739 00a0 3B63     		str	r3, [r7, #48]
 359:lib_Network/network.c ****                     
 360:lib_Network/network.c ****             if((resultReceive == READ_OK) && (IDreceivePacket == IDpacket))
 740              		.loc 1 360 0
 741 00a2 3B6B     		ldr	r3, [r7, #48]
 742 00a4 012B     		cmp	r3, #1
 743 00a6 66D1     		bne	.L44
 744              		.loc 1 360 0 is_stmt 0 discriminator 1
 745 00a8 2223     		mov	r3, #34
 746 00aa FB18     		add	r3, r7, r3
 747 00ac 1B88     		ldrh	r3, [r3]
 748 00ae 2A22     		mov	r2, #42
 749 00b0 BA18     		add	r2, r7, r2
 750 00b2 1288     		ldrh	r2, [r2]
 751 00b4 9A42     		cmp	r2, r3
 752 00b6 5ED1     		bne	.L44
 361:lib_Network/network.c ****             {
 362:lib_Network/network.c ****                 /*delivery timing*/
 363:lib_Network/network.c ****                 unixTime[T4] = RTCGetUnixTime();
 753              		.loc 1 363 0 is_stmt 1
 754 00b8 FFF7FEFF 		bl	RTCGetUnixTime
 755 00bc 031C     		mov	r3, r0
 756 00be 0C1C     		mov	r4, r1
 757 00c0 1A1C     		mov	r2, r3
 758 00c2 1023     		mov	r3, #16
 759 00c4 FB18     		add	r3, r7, r3
 760 00c6 DA60     		str	r2, [r3, #12]
 364:lib_Network/network.c ****                 millisTime[T4] = RTCgetRecentMs();
 761              		.loc 1 364 0
 762 00c8 FFF7FEFF 		bl	RTCgetRecentMs
 763 00cc 031C     		mov	r3, r0
 764 00ce 9AB2     		uxth	r2, r3
 765 00d0 0823     		mov	r3, #8
 766 00d2 FB18     		add	r3, r7, r3
 767 00d4 DA80     		strh	r2, [r3, #6]
 365:lib_Network/network.c ****                 
 366:lib_Network/network.c ****                 #ifdef DEBUG_NTP
ARM GAS  C:\Users\Petro\AppData\Local\Temp\ccJj3IiC.s 			page 21


 367:lib_Network/network.c **** //                    millisTime[T4] = millisTime[T1]+193;
 368:lib_Network/network.c **** //                    unixTime[T4] = unixTime[T1];
 369:lib_Network/network.c **** //                    if(millisTime[T4] >= 1000)
 370:lib_Network/network.c **** //                    {
 371:lib_Network/network.c **** //                        millisTime[T4] -= 1000;
 372:lib_Network/network.c **** //                        unixTime[T4]++;
 373:lib_Network/network.c **** //                    }
 374:lib_Network/network.c ****                     debugntp_Write(1);
 768              		.loc 1 374 0
 769 00d6 0120     		mov	r0, #1
 770 00d8 FFF7FEFF 		bl	debugntp_Write
 375:lib_Network/network.c ****                     debugntp_Write(0);
 771              		.loc 1 375 0
 772 00dc 0020     		mov	r0, #0
 773 00de FFF7FEFF 		bl	debugntp_Write
 376:lib_Network/network.c ****                     debugntp_Write(1);
 774              		.loc 1 376 0
 775 00e2 0120     		mov	r0, #1
 776 00e4 FFF7FEFF 		bl	debugntp_Write
 377:lib_Network/network.c ****                     debugntp_Write(0);                    
 777              		.loc 1 377 0
 778 00e8 0020     		mov	r0, #0
 779 00ea FFF7FEFF 		bl	debugntp_Write
 378:lib_Network/network.c ****                 #endif
 379:lib_Network/network.c ****                 NTPcalculateTime(unixTime, millisTime,&sumTime, &sumMillis);
 780              		.loc 1 379 0
 781 00ee 1023     		mov	r3, #16
 782 00f0 F818     		add	r0, r7, r3
 783 00f2 0823     		mov	r3, #8
 784 00f4 F918     		add	r1, r7, r3
 785 00f6 3A1D     		add	r2, r7, #4
 786 00f8 3B1C     		mov	r3, r7
 787 00fa FFF7FEFF 		bl	NTPcalculateTime
 380:lib_Network/network.c ****                 CyDelay(1000); 
 788              		.loc 1 380 0
 789 00fe FA23     		mov	r3, #250
 790 0100 9B00     		lsl	r3, r3, #2
 791 0102 181C     		mov	r0, r3
 792 0104 FFF7FEFF 		bl	CyDelay
 381:lib_Network/network.c ****                 #ifdef DEBUG_INFO 
 382:lib_Network/network.c ****                     SW_UART_DEBUG_PutString("calculate time\n\r");
 383:lib_Network/network.c ****                 #endif  
 384:lib_Network/network.c ****                 
 385:lib_Network/network.c ****                 /* send delivery time */
 386:lib_Network/network.c ****                 IDpacket = 0;
 793              		.loc 1 386 0
 794 0108 2A23     		mov	r3, #42
 795 010a FB18     		add	r3, r7, r3
 796 010c 0022     		mov	r2, #0
 797 010e 1A80     		strh	r2, [r3]
 387:lib_Network/network.c ****                 result = NTPsetTimeToStart(sumTime, sumMillis, IDpacket);
 798              		.loc 1 387 0
 799 0110 7B68     		ldr	r3, [r7, #4]
 800 0112 191C     		mov	r1, r3
 801 0114 3B68     		ldr	r3, [r7]
 802 0116 9AB2     		uxth	r2, r3
 803 0118 2A23     		mov	r3, #42
ARM GAS  C:\Users\Petro\AppData\Local\Temp\ccJj3IiC.s 			page 22


 804 011a FB18     		add	r3, r7, r3
 805 011c 1B88     		ldrh	r3, [r3]
 806 011e 081C     		mov	r0, r1
 807 0120 111C     		mov	r1, r2
 808 0122 1A1C     		mov	r2, r3
 809 0124 FFF7FEFF 		bl	NTPsetTimeToStart
 810 0128 021C     		mov	r2, r0
 811 012a 3623     		mov	r3, #54
 812 012c FB18     		add	r3, r7, r3
 813 012e 1A80     		strh	r2, [r3]
 388:lib_Network/network.c ****                 
 389:lib_Network/network.c ****                 if(result == WRITE_OK)
 814              		.loc 1 389 0
 815 0130 3623     		mov	r3, #54
 816 0132 FB18     		add	r3, r7, r3
 817 0134 1B88     		ldrh	r3, [r3]
 818 0136 012B     		cmp	r3, #1
 819 0138 14D1     		bne	.L45
 390:lib_Network/network.c ****                 {
 391:lib_Network/network.c ****                     /*display loading sync time*/
 392:lib_Network/network.c ****                     for(i=0;i<13;i++)
 820              		.loc 1 392 0
 821 013a 0023     		mov	r3, #0
 822 013c FB62     		str	r3, [r7, #44]
 823 013e 09E0     		b	.L46
 824              	.L47:
 393:lib_Network/network.c ****                     {
 394:lib_Network/network.c ****                         DisplayLoading(i);
 825              		.loc 1 394 0 discriminator 3
 826 0140 FB6A     		ldr	r3, [r7, #44]
 827 0142 181C     		mov	r0, r3
 828 0144 FFF7FEFF 		bl	DisplayLoading
 395:lib_Network/network.c ****                         CyDelay(100);
 829              		.loc 1 395 0 discriminator 3
 830 0148 6420     		mov	r0, #100
 831 014a FFF7FEFF 		bl	CyDelay
 392:lib_Network/network.c ****                     {
 832              		.loc 1 392 0 discriminator 3
 833 014e FB6A     		ldr	r3, [r7, #44]
 834 0150 0133     		add	r3, r3, #1
 835 0152 FB62     		str	r3, [r7, #44]
 836              	.L46:
 392:lib_Network/network.c ****                     {
 837              		.loc 1 392 0 is_stmt 0 discriminator 1
 838 0154 FB6A     		ldr	r3, [r7, #44]
 839 0156 0C2B     		cmp	r3, #12
 840 0158 F2DD     		ble	.L47
 396:lib_Network/network.c ****                     }
 397:lib_Network/network.c ****                     result = TIME_SYNC_OK;
 841              		.loc 1 397 0 is_stmt 1
 842 015a 3623     		mov	r3, #54
 843 015c FB18     		add	r3, r7, r3
 844 015e 0022     		mov	r2, #0
 845 0160 1A80     		strh	r2, [r3]
 846 0162 03E0     		b	.L48
 847              	.L45:
 398:lib_Network/network.c ****                 }
ARM GAS  C:\Users\Petro\AppData\Local\Temp\ccJj3IiC.s 			page 23


 399:lib_Network/network.c ****                 else
 400:lib_Network/network.c ****                 {
 401:lib_Network/network.c ****                     result = TIME_SYNC_ERR;
 848              		.loc 1 401 0
 849 0164 3623     		mov	r3, #54
 850 0166 FB18     		add	r3, r7, r3
 851 0168 0122     		mov	r2, #1
 852 016a 1A80     		strh	r2, [r3]
 853              	.L48:
 402:lib_Network/network.c ****                 }
 403:lib_Network/network.c ****                                             
 404:lib_Network/network.c ****                 i = NUM_TRY_SYNC; 
 854              		.loc 1 404 0
 855 016c 0E23     		mov	r3, #14
 856 016e FB62     		str	r3, [r7, #44]
 405:lib_Network/network.c ****                 resultReceive = READ_OK;
 857              		.loc 1 405 0
 858 0170 0123     		mov	r3, #1
 859 0172 3B63     		str	r3, [r7, #48]
 860 0174 13E0     		b	.L43
 861              	.L44:
 406:lib_Network/network.c ****             }
 407:lib_Network/network.c ****             else
 408:lib_Network/network.c ****             {
 409:lib_Network/network.c ****                 numAttempsReseive++;
 862              		.loc 1 409 0
 863 0176 7B6A     		ldr	r3, [r7, #36]
 864 0178 0133     		add	r3, r3, #1
 865 017a 7B62     		str	r3, [r7, #36]
 410:lib_Network/network.c ****                 resultReceive = NO_READ;
 866              		.loc 1 410 0
 867 017c 0023     		mov	r3, #0
 868 017e 3B63     		str	r3, [r7, #48]
 411:lib_Network/network.c ****                 CyDelay(10);
 869              		.loc 1 411 0
 870 0180 0A20     		mov	r0, #10
 871 0182 FFF7FEFF 		bl	CyDelay
 872 0186 3623     		mov	r3, #54
 873 0188 FB18     		add	r3, r7, r3
 874 018a 3622     		mov	r2, #54
 875 018c BA18     		add	r2, r7, r2
 876 018e 1288     		ldrh	r2, [r2]
 877 0190 1A80     		strh	r2, [r3]
 878 0192 2A23     		mov	r3, #42
 879 0194 FB18     		add	r3, r7, r3
 880 0196 2A22     		mov	r2, #42
 881 0198 BA18     		add	r2, r7, r2
 882 019a 1288     		ldrh	r2, [r2]
 883 019c 1A80     		strh	r2, [r3]
 884              	.L43:
 355:lib_Network/network.c ****         {
 885              		.loc 1 355 0
 886 019e 3B6B     		ldr	r3, [r7, #48]
 887 01a0 002B     		cmp	r3, #0
 888 01a2 03D1     		bne	.L49
 355:lib_Network/network.c ****         {
 889              		.loc 1 355 0 is_stmt 0 discriminator 1
ARM GAS  C:\Users\Petro\AppData\Local\Temp\ccJj3IiC.s 			page 24


 890 01a4 7B6A     		ldr	r3, [r7, #36]
 891 01a6 C72B     		cmp	r3, #199
 892 01a8 00D8     		bhi	.LCB742
 893 01aa 65E7     		b	.L50	@long jump
 894              	.LCB742:
 895              	.L49:
 412:lib_Network/network.c ****             }
 413:lib_Network/network.c ****         }
 414:lib_Network/network.c ****         
 415:lib_Network/network.c ****         CyDelay(100);
 896              		.loc 1 415 0 is_stmt 1
 897 01ac 6420     		mov	r0, #100
 898 01ae FFF7FEFF 		bl	CyDelay
 416:lib_Network/network.c ****         
 417:lib_Network/network.c ****         IDpacket++;
 899              		.loc 1 417 0
 900 01b2 2A23     		mov	r3, #42
 901 01b4 FB18     		add	r3, r7, r3
 902 01b6 1A88     		ldrh	r2, [r3]
 903 01b8 2A23     		mov	r3, #42
 904 01ba FB18     		add	r3, r7, r3
 905 01bc 0132     		add	r2, r2, #1
 906 01be 1A80     		strh	r2, [r3]
 418:lib_Network/network.c ****         i++;  
 907              		.loc 1 418 0
 908 01c0 FB6A     		ldr	r3, [r7, #44]
 909 01c2 0133     		add	r3, r3, #1
 910 01c4 FB62     		str	r3, [r7, #44]
 911              	.L42:
 339:lib_Network/network.c ****     {
 912              		.loc 1 339 0 discriminator 1
 913 01c6 FB6A     		ldr	r3, [r7, #44]
 914 01c8 0D2B     		cmp	r3, #13
 915 01ca 00DC     		bgt	.LCB760
 916 01cc 2CE7     		b	.L51	@long jump
 917              	.LCB760:
 419:lib_Network/network.c ****     }
 420:lib_Network/network.c **** 
 421:lib_Network/network.c ****     return result;
 918              		.loc 1 421 0
 919 01ce 3623     		mov	r3, #54
 920 01d0 FB18     		add	r3, r7, r3
 921 01d2 1B88     		ldrh	r3, [r3]
 422:lib_Network/network.c **** }
 922              		.loc 1 422 0
 923 01d4 181C     		mov	r0, r3
 924 01d6 BD46     		mov	sp, r7
 925 01d8 0FB0     		add	sp, sp, #60
 926              		@ sp needed
 927 01da 90BD     		pop	{r4, r7, pc}
 928              		.cfi_endproc
 929              	.LFE71:
 930              		.size	NTPsync, .-NTPsync
 931              		.section	.rodata
 932 001b 00       		.align	2
 933              	.LC18:
 934 001c 25303858 		.ascii	"%08X%03X\000"
ARM GAS  C:\Users\Petro\AppData\Local\Temp\ccJj3IiC.s 			page 25


 934      25303358 
 934      00
 935 0025 000000   		.section	.text.NTPsendTime,"ax",%progbits
 936              		.align	2
 937              		.global	NTPsendTime
 938              		.code	16
 939              		.thumb_func
 940              		.type	NTPsendTime, %function
 941              	NTPsendTime:
 942              	.LFB72:
 423:lib_Network/network.c **** 
 424:lib_Network/network.c **** 
 425:lib_Network/network.c **** /*******************************************************************************
 426:lib_Network/network.c **** * Function Name: NTPsendTime
 427:lib_Network/network.c **** ********************************************************************************
 428:lib_Network/network.c **** *
 429:lib_Network/network.c **** * Summary:
 430:lib_Network/network.c **** *   send time to NTP protocol
 431:lib_Network/network.c **** * Parametrs:
 432:lib_Network/network.c **** *   unixTime - time in unix format
 433:lib_Network/network.c **** *   millis - millis time
 434:lib_Network/network.c **** *   ID - ID packet
 435:lib_Network/network.c **** *
 436:lib_Network/network.c **** *******************************************************************************/
 437:lib_Network/network.c **** void NTPsendTime(uint32_t unixTime,uint16_t millis, uint16_t ID)
 438:lib_Network/network.c **** {
 943              		.loc 1 438 0
 944              		.cfi_startproc
 945 0000 80B5     		push	{r7, lr}
 946              		.cfi_def_cfa_offset 8
 947              		.cfi_offset 7, -8
 948              		.cfi_offset 14, -4
 949 0002 9CB0     		sub	sp, sp, #112
 950              		.cfi_def_cfa_offset 120
 951 0004 00AF     		add	r7, sp, #0
 952              		.cfi_def_cfa_register 7
 953 0006 7860     		str	r0, [r7, #4]
 954 0008 081C     		mov	r0, r1
 955 000a 111C     		mov	r1, r2
 956 000c BB1C     		add	r3, r7, #2
 957 000e 021C     		add	r2, r0, #0
 958 0010 1A80     		strh	r2, [r3]
 959 0012 3B1C     		mov	r3, r7
 960 0014 0A1C     		add	r2, r1, #0
 961 0016 1A80     		strh	r2, [r3]
 439:lib_Network/network.c ****     char sendBuffer[DATA_BUFFER];
 440:lib_Network/network.c ****     char sendData[DATA_BUFFER];
 441:lib_Network/network.c ****     
 442:lib_Network/network.c ****     /*pack data*/
 443:lib_Network/network.c ****     sprintf(sendData,"%08X%03X", unixTime,millis); 
 962              		.loc 1 443 0
 963 0018 BB1C     		add	r3, r7, #2
 964 001a 1B88     		ldrh	r3, [r3]
 965 001c 0822     		mov	r2, #8
 966 001e B818     		add	r0, r7, r2
 967 0020 0B49     		ldr	r1, .L54
 968 0022 7A68     		ldr	r2, [r7, #4]
ARM GAS  C:\Users\Petro\AppData\Local\Temp\ccJj3IiC.s 			page 26


 969 0024 FFF7FEFF 		bl	sprintf
 444:lib_Network/network.c ****     PackData(sendBuffer, (uint8_t *)sendData, ID);
 970              		.loc 1 444 0
 971 0028 3C23     		mov	r3, #60
 972 002a F918     		add	r1, r7, r3
 973 002c 0823     		mov	r3, #8
 974 002e FA18     		add	r2, r7, r3
 975 0030 3B1C     		mov	r3, r7
 976 0032 1B88     		ldrh	r3, [r3]
 977 0034 081C     		mov	r0, r1
 978 0036 111C     		mov	r1, r2
 979 0038 1A1C     		mov	r2, r3
 980 003a FFF7FEFF 		bl	PackData
 445:lib_Network/network.c ****     UART_XB_UartPutString(sendBuffer);
 981              		.loc 1 445 0
 982 003e 3C23     		mov	r3, #60
 983 0040 FB18     		add	r3, r7, r3
 984 0042 181C     		mov	r0, r3
 985 0044 FFF7FEFF 		bl	UART_XB_UartPutString
 446:lib_Network/network.c ****     
 447:lib_Network/network.c ****     #ifdef DEBUG_INFO 
 448:lib_Network/network.c ****         SW_UART_DEBUG_PutString(sendBuffer);
 449:lib_Network/network.c ****         SW_UART_DEBUG_PutString("\n\r");
 450:lib_Network/network.c ****     #endif  
 451:lib_Network/network.c **** }
 986              		.loc 1 451 0
 987 0048 BD46     		mov	sp, r7
 988 004a 1CB0     		add	sp, sp, #112
 989              		@ sp needed
 990 004c 80BD     		pop	{r7, pc}
 991              	.L55:
 992 004e C046     		.align	2
 993              	.L54:
 994 0050 1C000000 		.word	.LC18
 995              		.cfi_endproc
 996              	.LFE72:
 997              		.size	NTPsendTime, .-NTPsendTime
 998              		.section	.text.NTPreceiveTime,"ax",%progbits
 999              		.align	2
 1000              		.global	NTPreceiveTime
 1001              		.code	16
 1002              		.thumb_func
 1003              		.type	NTPreceiveTime, %function
 1004              	NTPreceiveTime:
 1005              	.LFB73:
 452:lib_Network/network.c **** 
 453:lib_Network/network.c **** /*******************************************************************************
 454:lib_Network/network.c **** * Function Name: NTPreceiveTime
 455:lib_Network/network.c **** ********************************************************************************
 456:lib_Network/network.c **** *
 457:lib_Network/network.c **** * Summary:
 458:lib_Network/network.c **** *   receive time to NTP protocol
 459:lib_Network/network.c **** * Parametrs:
 460:lib_Network/network.c **** *   *unixTime2,unixTime3 - time in unix format
 461:lib_Network/network.c **** *   *millisTime2,millisTime3 - millis time
 462:lib_Network/network.c **** *   *IDreceive - ID packet
 463:lib_Network/network.c **** * Return:
ARM GAS  C:\Users\Petro\AppData\Local\Temp\ccJj3IiC.s 			page 27


 464:lib_Network/network.c **** *   READ_OK or NO_READ
 465:lib_Network/network.c **** *
 466:lib_Network/network.c **** *******************************************************************************/
 467:lib_Network/network.c **** uint32_t NTPreceiveTime(uint32_t *unixTime2, uint16_t *millisTime2, uint32_t *unixTime3, uint16_t *
 468:lib_Network/network.c **** {
 1006              		.loc 1 468 0
 1007              		.cfi_startproc
 1008 0000 80B5     		push	{r7, lr}
 1009              		.cfi_def_cfa_offset 8
 1010              		.cfi_offset 7, -8
 1011              		.cfi_offset 14, -4
 1012 0002 8CB0     		sub	sp, sp, #48
 1013              		.cfi_def_cfa_offset 56
 1014 0004 00AF     		add	r7, sp, #0
 1015              		.cfi_def_cfa_register 7
 1016 0006 F860     		str	r0, [r7, #12]
 1017 0008 B960     		str	r1, [r7, #8]
 1018 000a 7A60     		str	r2, [r7, #4]
 1019 000c 3B60     		str	r3, [r7]
 469:lib_Network/network.c ****     uint8_t byte;
 470:lib_Network/network.c ****     uint32_t result;
 471:lib_Network/network.c ****     
 472:lib_Network/network.c ****     result = READ_OK;   
 1020              		.loc 1 472 0
 1021 000e 0123     		mov	r3, #1
 1022 0010 FB62     		str	r3, [r7, #44]
 473:lib_Network/network.c ****     NtpResp recvDataNTP;
 474:lib_Network/network.c ****     while((UART_XB_SpiUartGetRxBufferSize() > 0) && ((byte = UART_XB_UartGetChar()) != 0))
 1023              		.loc 1 474 0
 1024 0012 2FE0     		b	.L57
 1025              	.L61:
 475:lib_Network/network.c ****     {
 476:lib_Network/network.c ****         result = NtpUnpackData(&recvDataNTP, (uint8_t)(byte & 0xFF));
 1026              		.loc 1 476 0
 1027 0014 1023     		mov	r3, #16
 1028 0016 FA18     		add	r2, r7, r3
 1029 0018 2B23     		mov	r3, #43
 1030 001a FB18     		add	r3, r7, r3
 1031 001c 1B78     		ldrb	r3, [r3]
 1032 001e 101C     		mov	r0, r2
 1033 0020 191C     		mov	r1, r3
 1034 0022 FFF7FEFF 		bl	NtpUnpackData
 1035 0026 031C     		mov	r3, r0
 1036 0028 FB62     		str	r3, [r7, #44]
 477:lib_Network/network.c ****         CyDelay(1);
 1037              		.loc 1 477 0
 1038 002a 0120     		mov	r0, #1
 1039 002c FFF7FEFF 		bl	CyDelay
 478:lib_Network/network.c ****         #ifdef DEBUG_INFO
 479:lib_Network/network.c ****             //SW_UART_DEBUG_PutChar(byte);
 480:lib_Network/network.c ****         #endif
 481:lib_Network/network.c ****             
 482:lib_Network/network.c ****         if(recvDataNTP.EndPacket == 1)
 1040              		.loc 1 482 0
 1041 0030 1023     		mov	r3, #16
 1042 0032 FB18     		add	r3, r7, r3
 1043 0034 1B7D     		ldrb	r3, [r3, #20]
ARM GAS  C:\Users\Petro\AppData\Local\Temp\ccJj3IiC.s 			page 28


 1044 0036 012B     		cmp	r3, #1
 1045 0038 1AD1     		bne	.L58
 483:lib_Network/network.c ****         {
 484:lib_Network/network.c ****             /*save unix time*/
 485:lib_Network/network.c ****             *IDreceive = recvDataNTP.Id;
 1046              		.loc 1 485 0
 1047 003a 1023     		mov	r3, #16
 1048 003c FB18     		add	r3, r7, r3
 1049 003e 1A88     		ldrh	r2, [r3]
 1050 0040 BB6B     		ldr	r3, [r7, #56]
 1051 0042 1A80     		strh	r2, [r3]
 486:lib_Network/network.c ****             *unixTime2 = recvDataNTP.Data1;
 1052              		.loc 1 486 0
 1053 0044 1023     		mov	r3, #16
 1054 0046 FB18     		add	r3, r7, r3
 1055 0048 5A68     		ldr	r2, [r3, #4]
 1056 004a FB68     		ldr	r3, [r7, #12]
 1057 004c 1A60     		str	r2, [r3]
 487:lib_Network/network.c ****             *millisTime2 = recvDataNTP.DataMs1;
 1058              		.loc 1 487 0
 1059 004e 1023     		mov	r3, #16
 1060 0050 FB18     		add	r3, r7, r3
 1061 0052 1A89     		ldrh	r2, [r3, #8]
 1062 0054 BB68     		ldr	r3, [r7, #8]
 1063 0056 1A80     		strh	r2, [r3]
 488:lib_Network/network.c ****             *unixTime3 = recvDataNTP.Data2;
 1064              		.loc 1 488 0
 1065 0058 1023     		mov	r3, #16
 1066 005a FB18     		add	r3, r7, r3
 1067 005c DA68     		ldr	r2, [r3, #12]
 1068 005e 7B68     		ldr	r3, [r7, #4]
 1069 0060 1A60     		str	r2, [r3]
 489:lib_Network/network.c ****             *millisTime3 = recvDataNTP.DataMs2;
 1070              		.loc 1 489 0
 1071 0062 1023     		mov	r3, #16
 1072 0064 FB18     		add	r3, r7, r3
 1073 0066 5A89     		ldrh	r2, [r3, #10]
 1074 0068 3B68     		ldr	r3, [r7]
 1075 006a 1A80     		strh	r2, [r3]
 490:lib_Network/network.c **** 
 491:lib_Network/network.c ****             #ifdef DEBUG_INFO
 492:lib_Network/network.c ****                 char uartBuff[100];
 493:lib_Network/network.c ****                 sprintf(uartBuff,"id receive=%u\n\r",recvDataNTP.Id);
 494:lib_Network/network.c ****                 SW_UART_DEBUG_PutString(uartBuff);
 495:lib_Network/network.c ****             #endif
 496:lib_Network/network.c ****         
 497:lib_Network/network.c ****             return READ_OK;
 1076              		.loc 1 497 0
 1077 006c 0123     		mov	r3, #1
 1078 006e 13E0     		b	.L62
 1079              	.L58:
 498:lib_Network/network.c ****         }
 499:lib_Network/network.c ****         result = NO_READ;
 1080              		.loc 1 499 0
 1081 0070 0023     		mov	r3, #0
 1082 0072 FB62     		str	r3, [r7, #44]
 1083              	.L57:
ARM GAS  C:\Users\Petro\AppData\Local\Temp\ccJj3IiC.s 			page 29


 474:lib_Network/network.c ****     {
 1084              		.loc 1 474 0
 1085 0074 FFF7FEFF 		bl	UART_XB_SpiUartGetRxBufferSize
 1086 0078 031E     		sub	r3, r0, #0
 1087 007a 0AD0     		beq	.L60
 474:lib_Network/network.c ****     {
 1088              		.loc 1 474 0 is_stmt 0 discriminator 1
 1089 007c FFF7FEFF 		bl	UART_XB_UartGetChar
 1090 0080 021C     		mov	r2, r0
 1091 0082 2B23     		mov	r3, #43
 1092 0084 FB18     		add	r3, r7, r3
 1093 0086 1A70     		strb	r2, [r3]
 1094 0088 2B23     		mov	r3, #43
 1095 008a FB18     		add	r3, r7, r3
 1096 008c 1B78     		ldrb	r3, [r3]
 1097 008e 002B     		cmp	r3, #0
 1098 0090 C0D1     		bne	.L61
 1099              	.L60:
 500:lib_Network/network.c ****     }
 501:lib_Network/network.c ****     result = NO_READ;
 1100              		.loc 1 501 0 is_stmt 1
 1101 0092 0023     		mov	r3, #0
 1102 0094 FB62     		str	r3, [r7, #44]
 502:lib_Network/network.c ****     
 503:lib_Network/network.c ****     return result;
 1103              		.loc 1 503 0
 1104 0096 FB6A     		ldr	r3, [r7, #44]
 1105              	.L62:
 504:lib_Network/network.c **** }
 1106              		.loc 1 504 0 discriminator 1
 1107 0098 181C     		mov	r0, r3
 1108 009a BD46     		mov	sp, r7
 1109 009c 0CB0     		add	sp, sp, #48
 1110              		@ sp needed
 1111 009e 80BD     		pop	{r7, pc}
 1112              		.cfi_endproc
 1113              	.LFE73:
 1114              		.size	NTPreceiveTime, .-NTPreceiveTime
 1115              		.section	.text.NTPsetTimeToStart,"ax",%progbits
 1116              		.align	2
 1117              		.global	NTPsetTimeToStart
 1118              		.code	16
 1119              		.thumb_func
 1120              		.type	NTPsetTimeToStart, %function
 1121              	NTPsetTimeToStart:
 1122              	.LFB74:
 505:lib_Network/network.c **** 
 506:lib_Network/network.c **** /*******************************************************************************
 507:lib_Network/network.c **** * Function Name: NTPsetTimeToStart
 508:lib_Network/network.c **** ********************************************************************************
 509:lib_Network/network.c **** *
 510:lib_Network/network.c **** * Summary:
 511:lib_Network/network.c **** *   sending start time based on the time of delivery
 512:lib_Network/network.c **** * Parametrs:
 513:lib_Network/network.c **** *   unixTime4 - time in unix format
 514:lib_Network/network.c **** *   millisTime4 - millis time
 515:lib_Network/network.c **** *   ID - ID packet
ARM GAS  C:\Users\Petro\AppData\Local\Temp\ccJj3IiC.s 			page 30


 516:lib_Network/network.c **** *
 517:lib_Network/network.c **** *******************************************************************************/
 518:lib_Network/network.c **** uint32_t NTPsetTimeToStart(uint32_t unixTime4, uint16_t millisTime4, uint16_t ID)
 519:lib_Network/network.c **** {
 1123              		.loc 1 519 0
 1124              		.cfi_startproc
 1125 0000 90B5     		push	{r4, r7, lr}
 1126              		.cfi_def_cfa_offset 12
 1127              		.cfi_offset 4, -12
 1128              		.cfi_offset 7, -8
 1129              		.cfi_offset 14, -4
 1130 0002 89B0     		sub	sp, sp, #36
 1131              		.cfi_def_cfa_offset 48
 1132 0004 02AF     		add	r7, sp, #8
 1133              		.cfi_def_cfa 7, 40
 1134 0006 7860     		str	r0, [r7, #4]
 1135 0008 081C     		mov	r0, r1
 1136 000a 111C     		mov	r1, r2
 1137 000c BB1C     		add	r3, r7, #2
 1138 000e 021C     		add	r2, r0, #0
 1139 0010 1A80     		strh	r2, [r3]
 1140 0012 3B1C     		mov	r3, r7
 1141 0014 0A1C     		add	r2, r1, #0
 1142 0016 1A80     		strh	r2, [r3]
 520:lib_Network/network.c ****     
 521:lib_Network/network.c ****     uint32_t resultReceive;
 522:lib_Network/network.c ****     uint16_t IDreceivePacket;
 523:lib_Network/network.c ****     uint32_t result;
 524:lib_Network/network.c ****     
 525:lib_Network/network.c ****     noConnect = 0;
 1143              		.loc 1 525 0
 1144 0018 224B     		ldr	r3, .L69
 1145 001a 0022     		mov	r2, #0
 1146 001c 1A60     		str	r2, [r3]
 526:lib_Network/network.c ****     result = NO_WRITE;
 1147              		.loc 1 526 0
 1148 001e 0023     		mov	r3, #0
 1149 0020 7B61     		str	r3, [r7, #20]
 527:lib_Network/network.c ****     
 528:lib_Network/network.c ****     while((result == NO_WRITE) && (noConnect < 10))
 1150              		.loc 1 528 0
 1151 0022 33E0     		b	.L64
 1152              	.L67:
 529:lib_Network/network.c ****     {      
 530:lib_Network/network.c ****         NTPsendTime(unixTime4, millisTime4,ID); 
 1153              		.loc 1 530 0
 1154 0024 7968     		ldr	r1, [r7, #4]
 1155 0026 BB1C     		add	r3, r7, #2
 1156 0028 1A88     		ldrh	r2, [r3]
 1157 002a 3B1C     		mov	r3, r7
 1158 002c 1B88     		ldrh	r3, [r3]
 1159 002e 081C     		mov	r0, r1
 1160 0030 111C     		mov	r1, r2
 1161 0032 1A1C     		mov	r2, r3
 1162 0034 FFF7FEFF 		bl	NTPsendTime
 531:lib_Network/network.c ****         
 532:lib_Network/network.c ****         CyDelay(500);
ARM GAS  C:\Users\Petro\AppData\Local\Temp\ccJj3IiC.s 			page 31


 1163              		.loc 1 532 0
 1164 0038 FA23     		mov	r3, #250
 1165 003a 5B00     		lsl	r3, r3, #1
 1166 003c 181C     		mov	r0, r3
 1167 003e FFF7FEFF 		bl	CyDelay
 533:lib_Network/network.c ****         resultReceive = NTPreceiveTime(&unixTime[T2], &millisTime[T2], &unixTime[T3], &millisTime[T
 1168              		.loc 1 533 0
 1169 0042 1948     		ldr	r0, .L69+4
 1170 0044 1949     		ldr	r1, .L69+8
 1171 0046 1A4A     		ldr	r2, .L69+12
 1172 0048 1A4C     		ldr	r4, .L69+16
 1173 004a 0E23     		mov	r3, #14
 1174 004c FB18     		add	r3, r7, r3
 1175 004e 0093     		str	r3, [sp]
 1176 0050 231C     		mov	r3, r4
 1177 0052 FFF7FEFF 		bl	NTPreceiveTime
 1178 0056 031C     		mov	r3, r0
 1179 0058 3B61     		str	r3, [r7, #16]
 534:lib_Network/network.c ****         if((resultReceive == READ_OK) && (IDreceivePacket == ID))
 1180              		.loc 1 534 0
 1181 005a 3B69     		ldr	r3, [r7, #16]
 1182 005c 012B     		cmp	r3, #1
 1183 005e 09D1     		bne	.L65
 1184              		.loc 1 534 0 is_stmt 0 discriminator 1
 1185 0060 0E23     		mov	r3, #14
 1186 0062 FB18     		add	r3, r7, r3
 1187 0064 1B88     		ldrh	r3, [r3]
 1188 0066 3A1C     		mov	r2, r7
 1189 0068 1288     		ldrh	r2, [r2]
 1190 006a 9A42     		cmp	r2, r3
 1191 006c 02D1     		bne	.L65
 535:lib_Network/network.c ****         {
 536:lib_Network/network.c ****             result = WRITE_OK;
 1192              		.loc 1 536 0 is_stmt 1
 1193 006e 0123     		mov	r3, #1
 1194 0070 7B61     		str	r3, [r7, #20]
 1195 0072 0BE0     		b	.L64
 1196              	.L65:
 537:lib_Network/network.c ****             #ifdef DEBUG_INFO 
 538:lib_Network/network.c ****                 SW_UART_DEBUG_PutString("send delivery time ok\n\r");
 539:lib_Network/network.c ****             #endif 
 540:lib_Network/network.c ****         }
 541:lib_Network/network.c ****         else
 542:lib_Network/network.c ****         {
 543:lib_Network/network.c ****             result = NO_WRITE;
 1197              		.loc 1 543 0
 1198 0074 0023     		mov	r3, #0
 1199 0076 7B61     		str	r3, [r7, #20]
 544:lib_Network/network.c ****             noConnect++;
 1200              		.loc 1 544 0
 1201 0078 0A4B     		ldr	r3, .L69
 1202 007a 1B68     		ldr	r3, [r3]
 1203 007c 5A1C     		add	r2, r3, #1
 1204 007e 094B     		ldr	r3, .L69
 1205 0080 1A60     		str	r2, [r3]
 545:lib_Network/network.c ****             CyDelay(500);
 1206              		.loc 1 545 0
ARM GAS  C:\Users\Petro\AppData\Local\Temp\ccJj3IiC.s 			page 32


 1207 0082 FA23     		mov	r3, #250
 1208 0084 5B00     		lsl	r3, r3, #1
 1209 0086 181C     		mov	r0, r3
 1210 0088 FFF7FEFF 		bl	CyDelay
 1211              	.L64:
 528:lib_Network/network.c ****     {      
 1212              		.loc 1 528 0
 1213 008c 7B69     		ldr	r3, [r7, #20]
 1214 008e 002B     		cmp	r3, #0
 1215 0090 03D1     		bne	.L66
 528:lib_Network/network.c ****     {      
 1216              		.loc 1 528 0 is_stmt 0 discriminator 1
 1217 0092 044B     		ldr	r3, .L69
 1218 0094 1B68     		ldr	r3, [r3]
 1219 0096 092B     		cmp	r3, #9
 1220 0098 C4D9     		bls	.L67
 1221              	.L66:
 546:lib_Network/network.c ****             
 547:lib_Network/network.c ****             #ifdef DEBUG_INFO 
 548:lib_Network/network.c ****                 char uartBuff[100];
 549:lib_Network/network.c ****                 sprintf(uartBuff,"noConnect=%u",noConnect);
 550:lib_Network/network.c ****                 SW_UART_DEBUG_PutString(uartBuff);
 551:lib_Network/network.c ****             #endif             
 552:lib_Network/network.c ****         }
 553:lib_Network/network.c ****     }
 554:lib_Network/network.c ****     
 555:lib_Network/network.c ****     return result;
 1222              		.loc 1 555 0 is_stmt 1
 1223 009a 7B69     		ldr	r3, [r7, #20]
 556:lib_Network/network.c **** }
 1224              		.loc 1 556 0
 1225 009c 181C     		mov	r0, r3
 1226 009e BD46     		mov	sp, r7
 1227 00a0 07B0     		add	sp, sp, #28
 1228              		@ sp needed
 1229 00a2 90BD     		pop	{r4, r7, pc}
 1230              	.L70:
 1231              		.align	2
 1232              	.L69:
 1233 00a4 00000000 		.word	noConnect
 1234 00a8 04000000 		.word	unixTime+4
 1235 00ac 02000000 		.word	millisTime+2
 1236 00b0 08000000 		.word	unixTime+8
 1237 00b4 04000000 		.word	millisTime+4
 1238              		.cfi_endproc
 1239              	.LFE74:
 1240              		.size	NTPsetTimeToStart, .-NTPsetTimeToStart
 1241              		.section	.text.NTPcalculateTime,"ax",%progbits
 1242              		.align	2
 1243              		.global	NTPcalculateTime
 1244              		.code	16
 1245              		.thumb_func
 1246              		.type	NTPcalculateTime, %function
 1247              	NTPcalculateTime:
 1248              	.LFB75:
 557:lib_Network/network.c **** 
 558:lib_Network/network.c **** void NTPcalculateTime(uint32_t unixTime[], uint16_t msTime[], int32_t *sumTime, int32_t *sumMs)
ARM GAS  C:\Users\Petro\AppData\Local\Temp\ccJj3IiC.s 			page 33


 559:lib_Network/network.c **** {
 1249              		.loc 1 559 0
 1250              		.cfi_startproc
 1251 0000 80B5     		push	{r7, lr}
 1252              		.cfi_def_cfa_offset 8
 1253              		.cfi_offset 7, -8
 1254              		.cfi_offset 14, -4
 1255 0002 8AB0     		sub	sp, sp, #40
 1256              		.cfi_def_cfa_offset 48
 1257 0004 00AF     		add	r7, sp, #0
 1258              		.cfi_def_cfa_register 7
 1259 0006 F860     		str	r0, [r7, #12]
 1260 0008 B960     		str	r1, [r7, #8]
 1261 000a 7A60     		str	r2, [r7, #4]
 1262 000c 3B60     		str	r3, [r7]
 560:lib_Network/network.c ****     /*calculate ms time*/
 561:lib_Network/network.c ****     int32_t tmpMsMaster;
 562:lib_Network/network.c ****     int32_t tmpTimeMaster;    
 563:lib_Network/network.c ****     int32_t tmpMsSlave;
 564:lib_Network/network.c ****     int32_t tmpTimeSlave;
 565:lib_Network/network.c ****     int32_t tmpDiffTime;
 566:lib_Network/network.c ****     int32_t tmpDiffMs;
 567:lib_Network/network.c ****     
 568:lib_Network/network.c ****     tmpTimeMaster = unixTime[T4] - unixTime[T1];
 1263              		.loc 1 568 0
 1264 000e FB68     		ldr	r3, [r7, #12]
 1265 0010 0C33     		add	r3, r3, #12
 1266 0012 1A68     		ldr	r2, [r3]
 1267 0014 FB68     		ldr	r3, [r7, #12]
 1268 0016 1B68     		ldr	r3, [r3]
 1269 0018 D31A     		sub	r3, r2, r3
 1270 001a 3B62     		str	r3, [r7, #32]
 569:lib_Network/network.c ****     tmpMsMaster = (msTime[T4] - msTime[T1]);
 1271              		.loc 1 569 0
 1272 001c BB68     		ldr	r3, [r7, #8]
 1273 001e 0633     		add	r3, r3, #6
 1274 0020 1B88     		ldrh	r3, [r3]
 1275 0022 1A1C     		mov	r2, r3
 1276 0024 BB68     		ldr	r3, [r7, #8]
 1277 0026 1B88     		ldrh	r3, [r3]
 1278 0028 D31A     		sub	r3, r2, r3
 1279 002a 7B62     		str	r3, [r7, #36]
 570:lib_Network/network.c ****     if(tmpMsMaster < 0)
 1280              		.loc 1 570 0
 1281 002c 7B6A     		ldr	r3, [r7, #36]
 1282 002e 002B     		cmp	r3, #0
 1283 0030 08DA     		bge	.L72
 571:lib_Network/network.c ****     {
 572:lib_Network/network.c ****         tmpMsMaster += 1000;
 1284              		.loc 1 572 0
 1285 0032 7B6A     		ldr	r3, [r7, #36]
 1286 0034 FA22     		mov	r2, #250
 1287 0036 9200     		lsl	r2, r2, #2
 1288 0038 9446     		mov	ip, r2
 1289 003a 6344     		add	r3, r3, ip
 1290 003c 7B62     		str	r3, [r7, #36]
 573:lib_Network/network.c ****         tmpTimeMaster--;
ARM GAS  C:\Users\Petro\AppData\Local\Temp\ccJj3IiC.s 			page 34


 1291              		.loc 1 573 0
 1292 003e 3B6A     		ldr	r3, [r7, #32]
 1293 0040 013B     		sub	r3, r3, #1
 1294 0042 3B62     		str	r3, [r7, #32]
 1295              	.L72:
 574:lib_Network/network.c ****     }
 575:lib_Network/network.c ****     
 576:lib_Network/network.c ****     tmpTimeSlave = unixTime[T3] - unixTime[T2];
 1296              		.loc 1 576 0
 1297 0044 FB68     		ldr	r3, [r7, #12]
 1298 0046 0833     		add	r3, r3, #8
 1299 0048 1A68     		ldr	r2, [r3]
 1300 004a FB68     		ldr	r3, [r7, #12]
 1301 004c 0433     		add	r3, r3, #4
 1302 004e 1B68     		ldr	r3, [r3]
 1303 0050 D31A     		sub	r3, r2, r3
 1304 0052 BB61     		str	r3, [r7, #24]
 577:lib_Network/network.c ****     tmpMsSlave = msTime[T3] - msTime[T2];
 1305              		.loc 1 577 0
 1306 0054 BB68     		ldr	r3, [r7, #8]
 1307 0056 0433     		add	r3, r3, #4
 1308 0058 1B88     		ldrh	r3, [r3]
 1309 005a 1A1C     		mov	r2, r3
 1310 005c BB68     		ldr	r3, [r7, #8]
 1311 005e 0233     		add	r3, r3, #2
 1312 0060 1B88     		ldrh	r3, [r3]
 1313 0062 D31A     		sub	r3, r2, r3
 1314 0064 FB61     		str	r3, [r7, #28]
 578:lib_Network/network.c ****     if(tmpMsSlave < 0)
 1315              		.loc 1 578 0
 1316 0066 FB69     		ldr	r3, [r7, #28]
 1317 0068 002B     		cmp	r3, #0
 1318 006a 08DA     		bge	.L73
 579:lib_Network/network.c ****     {
 580:lib_Network/network.c ****         tmpMsSlave += 1000;
 1319              		.loc 1 580 0
 1320 006c FB69     		ldr	r3, [r7, #28]
 1321 006e FA22     		mov	r2, #250
 1322 0070 9200     		lsl	r2, r2, #2
 1323 0072 9446     		mov	ip, r2
 1324 0074 6344     		add	r3, r3, ip
 1325 0076 FB61     		str	r3, [r7, #28]
 581:lib_Network/network.c ****         tmpTimeSlave--;
 1326              		.loc 1 581 0
 1327 0078 BB69     		ldr	r3, [r7, #24]
 1328 007a 013B     		sub	r3, r3, #1
 1329 007c BB61     		str	r3, [r7, #24]
 1330              	.L73:
 582:lib_Network/network.c ****     }
 583:lib_Network/network.c ****     
 584:lib_Network/network.c ****     tmpDiffTime = tmpTimeMaster - tmpTimeSlave;
 1331              		.loc 1 584 0
 1332 007e 3A6A     		ldr	r2, [r7, #32]
 1333 0080 BB69     		ldr	r3, [r7, #24]
 1334 0082 D31A     		sub	r3, r2, r3
 1335 0084 3B61     		str	r3, [r7, #16]
 585:lib_Network/network.c ****     tmpDiffMs = tmpMsMaster - tmpMsSlave;
ARM GAS  C:\Users\Petro\AppData\Local\Temp\ccJj3IiC.s 			page 35


 1336              		.loc 1 585 0
 1337 0086 7A6A     		ldr	r2, [r7, #36]
 1338 0088 FB69     		ldr	r3, [r7, #28]
 1339 008a D31A     		sub	r3, r2, r3
 1340 008c 7B61     		str	r3, [r7, #20]
 586:lib_Network/network.c ****     
 587:lib_Network/network.c ****     tmpDiffMs /= 2;
 1341              		.loc 1 587 0
 1342 008e 7B69     		ldr	r3, [r7, #20]
 1343 0090 002B     		cmp	r3, #0
 1344 0092 00DA     		bge	.L74
 1345 0094 0133     		add	r3, r3, #1
 1346              	.L74:
 1347 0096 5B10     		asr	r3, r3, #1
 1348 0098 7B61     		str	r3, [r7, #20]
 588:lib_Network/network.c ****     if(tmpDiffTime%2 == 1)
 1349              		.loc 1 588 0
 1350 009a 3B69     		ldr	r3, [r7, #16]
 1351 009c 0E4A     		ldr	r2, .L78
 1352 009e 1340     		and	r3, r2
 1353 00a0 04D5     		bpl	.L75
 1354 00a2 013B     		sub	r3, r3, #1
 1355 00a4 0222     		mov	r2, #2
 1356 00a6 5242     		neg	r2, r2
 1357 00a8 1343     		orr	r3, r2
 1358 00aa 0133     		add	r3, r3, #1
 1359              	.L75:
 1360 00ac 012B     		cmp	r3, #1
 1361 00ae 03D1     		bne	.L76
 589:lib_Network/network.c ****     {
 590:lib_Network/network.c ****         tmpDiffMs += 500;
 1362              		.loc 1 590 0
 1363 00b0 7B69     		ldr	r3, [r7, #20]
 1364 00b2 F533     		add	r3, r3, #245
 1365 00b4 FF33     		add	r3, r3, #255
 1366 00b6 7B61     		str	r3, [r7, #20]
 1367              	.L76:
 591:lib_Network/network.c ****     }
 592:lib_Network/network.c ****     tmpDiffTime /= 2;
 1368              		.loc 1 592 0
 1369 00b8 3B69     		ldr	r3, [r7, #16]
 1370 00ba 002B     		cmp	r3, #0
 1371 00bc 00DA     		bge	.L77
 1372 00be 0133     		add	r3, r3, #1
 1373              	.L77:
 1374 00c0 5B10     		asr	r3, r3, #1
 1375 00c2 3B61     		str	r3, [r7, #16]
 593:lib_Network/network.c ****     
 594:lib_Network/network.c ****     *sumTime = tmpDiffTime;
 1376              		.loc 1 594 0
 1377 00c4 7B68     		ldr	r3, [r7, #4]
 1378 00c6 3A69     		ldr	r2, [r7, #16]
 1379 00c8 1A60     		str	r2, [r3]
 595:lib_Network/network.c ****     *sumMs = tmpDiffMs;   
 1380              		.loc 1 595 0
 1381 00ca 3B68     		ldr	r3, [r7]
 1382 00cc 7A69     		ldr	r2, [r7, #20]
ARM GAS  C:\Users\Petro\AppData\Local\Temp\ccJj3IiC.s 			page 36


 1383 00ce 1A60     		str	r2, [r3]
 596:lib_Network/network.c **** }
 1384              		.loc 1 596 0
 1385 00d0 BD46     		mov	sp, r7
 1386 00d2 0AB0     		add	sp, sp, #40
 1387              		@ sp needed
 1388 00d4 80BD     		pop	{r7, pc}
 1389              	.L79:
 1390 00d6 C046     		.align	2
 1391              	.L78:
 1392 00d8 01000080 		.word	-2147483647
 1393              		.cfi_endproc
 1394              	.LFE75:
 1395              		.size	NTPcalculateTime, .-NTPcalculateTime
 1396              		.text
 1397              	.Letext0:
 1398              		.file 2 "c:\\program files (x86)\\cypress\\psoc creator\\4.0\\psoc creator\\import\\gnu\\arm\\4.9.
 1399              		.file 3 "c:\\program files (x86)\\cypress\\psoc creator\\4.0\\psoc creator\\import\\gnu\\arm\\4.9.
 1400              		.file 4 "./lib_Network\\svt.h"
 1401              		.file 5 "./lib_Network\\ntp.h"
 1402              		.file 6 "./debug.h"