ARM GAS  C:\Users\Petro\AppData\Local\Temp\ccOLLjqi.s 			page 1


   1              		.cpu cortex-m0
   2              		.fpu softvfp
   3              		.eabi_attribute 20, 1
   4              		.eabi_attribute 21, 1
   5              		.eabi_attribute 23, 3
   6              		.eabi_attribute 24, 1
   7              		.eabi_attribute 25, 1
   8              		.eabi_attribute 26, 1
   9              		.eabi_attribute 30, 1
  10              		.eabi_attribute 34, 0
  11              		.eabi_attribute 18, 4
  12              		.code	16
  13              		.file	"DEBUG_UART_UART.c"
  14              		.text
  15              	.Ltext0:
  16              		.cfi_sections	.debug_frame
  17              		.section	.text.DEBUG_UART_UartInit,"ax",%progbits
  18              		.align	2
  19              		.global	DEBUG_UART_UartInit
  20              		.code	16
  21              		.thumb_func
  22              		.type	DEBUG_UART_UartInit, %function
  23              	DEBUG_UART_UartInit:
  24              	.LFB2:
  25              		.file 1 "Generated_Source\\PSoC4\\DEBUG_UART_UART.c"
   1:Generated_Source\PSoC4/DEBUG_UART_UART.c **** /***************************************************************************//**
   2:Generated_Source\PSoC4/DEBUG_UART_UART.c **** * \file DEBUG_UART_UART.c
   3:Generated_Source\PSoC4/DEBUG_UART_UART.c **** * \version 3.20
   4:Generated_Source\PSoC4/DEBUG_UART_UART.c **** *
   5:Generated_Source\PSoC4/DEBUG_UART_UART.c **** * \brief
   6:Generated_Source\PSoC4/DEBUG_UART_UART.c **** *  This file provides the source code to the API for the SCB Component in
   7:Generated_Source\PSoC4/DEBUG_UART_UART.c **** *  UART mode.
   8:Generated_Source\PSoC4/DEBUG_UART_UART.c **** *
   9:Generated_Source\PSoC4/DEBUG_UART_UART.c **** * Note:
  10:Generated_Source\PSoC4/DEBUG_UART_UART.c **** *
  11:Generated_Source\PSoC4/DEBUG_UART_UART.c **** *******************************************************************************
  12:Generated_Source\PSoC4/DEBUG_UART_UART.c **** * \copyright
  13:Generated_Source\PSoC4/DEBUG_UART_UART.c **** * Copyright 2013-2016, Cypress Semiconductor Corporation.  All rights reserved.
  14:Generated_Source\PSoC4/DEBUG_UART_UART.c **** * You may use this file only in accordance with the license, terms, conditions,
  15:Generated_Source\PSoC4/DEBUG_UART_UART.c **** * disclaimers, and limitations in the end user license agreement accompanying
  16:Generated_Source\PSoC4/DEBUG_UART_UART.c **** * the software package with which this file was provided.
  17:Generated_Source\PSoC4/DEBUG_UART_UART.c **** *******************************************************************************/
  18:Generated_Source\PSoC4/DEBUG_UART_UART.c **** 
  19:Generated_Source\PSoC4/DEBUG_UART_UART.c **** #include "DEBUG_UART_PVT.h"
  20:Generated_Source\PSoC4/DEBUG_UART_UART.c **** #include "DEBUG_UART_SPI_UART_PVT.h"
  21:Generated_Source\PSoC4/DEBUG_UART_UART.c **** #include "cyapicallbacks.h"
  22:Generated_Source\PSoC4/DEBUG_UART_UART.c **** 
  23:Generated_Source\PSoC4/DEBUG_UART_UART.c **** #if (DEBUG_UART_UART_WAKE_ENABLE_CONST && DEBUG_UART_UART_RX_WAKEUP_IRQ)
  24:Generated_Source\PSoC4/DEBUG_UART_UART.c ****     /**
  25:Generated_Source\PSoC4/DEBUG_UART_UART.c ****     * \addtogroup group_globals
  26:Generated_Source\PSoC4/DEBUG_UART_UART.c ****     * \{
  27:Generated_Source\PSoC4/DEBUG_UART_UART.c ****     */
  28:Generated_Source\PSoC4/DEBUG_UART_UART.c ****     /** This global variable determines whether to enable Skip Start
  29:Generated_Source\PSoC4/DEBUG_UART_UART.c ****     * functionality when DEBUG_UART_Sleep() function is called:
  30:Generated_Source\PSoC4/DEBUG_UART_UART.c ****     * 0 – disable, other values – enable. Default value is 1.
  31:Generated_Source\PSoC4/DEBUG_UART_UART.c ****     * It is only available when Enable wakeup from Deep Sleep Mode is enabled.
  32:Generated_Source\PSoC4/DEBUG_UART_UART.c ****     */
ARM GAS  C:\Users\Petro\AppData\Local\Temp\ccOLLjqi.s 			page 2


  33:Generated_Source\PSoC4/DEBUG_UART_UART.c ****     uint8 DEBUG_UART_skipStart = 1u;
  34:Generated_Source\PSoC4/DEBUG_UART_UART.c ****     /** \} globals */
  35:Generated_Source\PSoC4/DEBUG_UART_UART.c **** #endif /* (DEBUG_UART_UART_WAKE_ENABLE_CONST && DEBUG_UART_UART_RX_WAKEUP_IRQ) */
  36:Generated_Source\PSoC4/DEBUG_UART_UART.c **** 
  37:Generated_Source\PSoC4/DEBUG_UART_UART.c **** #if(DEBUG_UART_SCB_MODE_UNCONFIG_CONST_CFG)
  38:Generated_Source\PSoC4/DEBUG_UART_UART.c **** 
  39:Generated_Source\PSoC4/DEBUG_UART_UART.c ****     /***************************************
  40:Generated_Source\PSoC4/DEBUG_UART_UART.c ****     *  Configuration Structure Initialization
  41:Generated_Source\PSoC4/DEBUG_UART_UART.c ****     ***************************************/
  42:Generated_Source\PSoC4/DEBUG_UART_UART.c **** 
  43:Generated_Source\PSoC4/DEBUG_UART_UART.c ****     const DEBUG_UART_UART_INIT_STRUCT DEBUG_UART_configUart =
  44:Generated_Source\PSoC4/DEBUG_UART_UART.c ****     {
  45:Generated_Source\PSoC4/DEBUG_UART_UART.c ****         DEBUG_UART_UART_SUB_MODE,
  46:Generated_Source\PSoC4/DEBUG_UART_UART.c ****         DEBUG_UART_UART_DIRECTION,
  47:Generated_Source\PSoC4/DEBUG_UART_UART.c ****         DEBUG_UART_UART_DATA_BITS_NUM,
  48:Generated_Source\PSoC4/DEBUG_UART_UART.c ****         DEBUG_UART_UART_PARITY_TYPE,
  49:Generated_Source\PSoC4/DEBUG_UART_UART.c ****         DEBUG_UART_UART_STOP_BITS_NUM,
  50:Generated_Source\PSoC4/DEBUG_UART_UART.c ****         DEBUG_UART_UART_OVS_FACTOR,
  51:Generated_Source\PSoC4/DEBUG_UART_UART.c ****         DEBUG_UART_UART_IRDA_LOW_POWER,
  52:Generated_Source\PSoC4/DEBUG_UART_UART.c ****         DEBUG_UART_UART_MEDIAN_FILTER_ENABLE,
  53:Generated_Source\PSoC4/DEBUG_UART_UART.c ****         DEBUG_UART_UART_RETRY_ON_NACK,
  54:Generated_Source\PSoC4/DEBUG_UART_UART.c ****         DEBUG_UART_UART_IRDA_POLARITY,
  55:Generated_Source\PSoC4/DEBUG_UART_UART.c ****         DEBUG_UART_UART_DROP_ON_PARITY_ERR,
  56:Generated_Source\PSoC4/DEBUG_UART_UART.c ****         DEBUG_UART_UART_DROP_ON_FRAME_ERR,
  57:Generated_Source\PSoC4/DEBUG_UART_UART.c ****         DEBUG_UART_UART_WAKE_ENABLE,
  58:Generated_Source\PSoC4/DEBUG_UART_UART.c ****         0u,
  59:Generated_Source\PSoC4/DEBUG_UART_UART.c ****         NULL,
  60:Generated_Source\PSoC4/DEBUG_UART_UART.c ****         0u,
  61:Generated_Source\PSoC4/DEBUG_UART_UART.c ****         NULL,
  62:Generated_Source\PSoC4/DEBUG_UART_UART.c ****         DEBUG_UART_UART_MP_MODE_ENABLE,
  63:Generated_Source\PSoC4/DEBUG_UART_UART.c ****         DEBUG_UART_UART_MP_ACCEPT_ADDRESS,
  64:Generated_Source\PSoC4/DEBUG_UART_UART.c ****         DEBUG_UART_UART_MP_RX_ADDRESS,
  65:Generated_Source\PSoC4/DEBUG_UART_UART.c ****         DEBUG_UART_UART_MP_RX_ADDRESS_MASK,
  66:Generated_Source\PSoC4/DEBUG_UART_UART.c ****         (uint32) DEBUG_UART_SCB_IRQ_INTERNAL,
  67:Generated_Source\PSoC4/DEBUG_UART_UART.c ****         DEBUG_UART_UART_INTR_RX_MASK,
  68:Generated_Source\PSoC4/DEBUG_UART_UART.c ****         DEBUG_UART_UART_RX_TRIGGER_LEVEL,
  69:Generated_Source\PSoC4/DEBUG_UART_UART.c ****         DEBUG_UART_UART_INTR_TX_MASK,
  70:Generated_Source\PSoC4/DEBUG_UART_UART.c ****         DEBUG_UART_UART_TX_TRIGGER_LEVEL,
  71:Generated_Source\PSoC4/DEBUG_UART_UART.c ****         (uint8) DEBUG_UART_UART_BYTE_MODE_ENABLE,
  72:Generated_Source\PSoC4/DEBUG_UART_UART.c ****         (uint8) DEBUG_UART_UART_CTS_ENABLE,
  73:Generated_Source\PSoC4/DEBUG_UART_UART.c ****         (uint8) DEBUG_UART_UART_CTS_POLARITY,
  74:Generated_Source\PSoC4/DEBUG_UART_UART.c ****         (uint8) DEBUG_UART_UART_RTS_POLARITY,
  75:Generated_Source\PSoC4/DEBUG_UART_UART.c ****         (uint8) DEBUG_UART_UART_RTS_FIFO_LEVEL
  76:Generated_Source\PSoC4/DEBUG_UART_UART.c ****     };
  77:Generated_Source\PSoC4/DEBUG_UART_UART.c **** 
  78:Generated_Source\PSoC4/DEBUG_UART_UART.c **** 
  79:Generated_Source\PSoC4/DEBUG_UART_UART.c ****     /*******************************************************************************
  80:Generated_Source\PSoC4/DEBUG_UART_UART.c ****     * Function Name: DEBUG_UART_UartInit
  81:Generated_Source\PSoC4/DEBUG_UART_UART.c ****     ****************************************************************************//**
  82:Generated_Source\PSoC4/DEBUG_UART_UART.c ****     *
  83:Generated_Source\PSoC4/DEBUG_UART_UART.c ****     *  Configures the DEBUG_UART for UART operation.
  84:Generated_Source\PSoC4/DEBUG_UART_UART.c ****     *
  85:Generated_Source\PSoC4/DEBUG_UART_UART.c ****     *  This function is intended specifically to be used when the DEBUG_UART
  86:Generated_Source\PSoC4/DEBUG_UART_UART.c ****     *  configuration is set to “Unconfigured DEBUG_UART” in the customizer.
  87:Generated_Source\PSoC4/DEBUG_UART_UART.c ****     *  After initializing the DEBUG_UART in UART mode using this function,
  88:Generated_Source\PSoC4/DEBUG_UART_UART.c ****     *  the component can be enabled using the DEBUG_UART_Start() or
  89:Generated_Source\PSoC4/DEBUG_UART_UART.c ****     * DEBUG_UART_Enable() function.
ARM GAS  C:\Users\Petro\AppData\Local\Temp\ccOLLjqi.s 			page 3


  90:Generated_Source\PSoC4/DEBUG_UART_UART.c ****     *  This function uses a pointer to a structure that provides the configuration
  91:Generated_Source\PSoC4/DEBUG_UART_UART.c ****     *  settings. This structure contains the same information that would otherwise
  92:Generated_Source\PSoC4/DEBUG_UART_UART.c ****     *  be provided by the customizer settings.
  93:Generated_Source\PSoC4/DEBUG_UART_UART.c ****     *
  94:Generated_Source\PSoC4/DEBUG_UART_UART.c ****     *  \param config: pointer to a structure that contains the following list of
  95:Generated_Source\PSoC4/DEBUG_UART_UART.c ****     *   fields. These fields match the selections available in the customizer.
  96:Generated_Source\PSoC4/DEBUG_UART_UART.c ****     *   Refer to the customizer for further description of the settings.
  97:Generated_Source\PSoC4/DEBUG_UART_UART.c ****     *
  98:Generated_Source\PSoC4/DEBUG_UART_UART.c ****     *******************************************************************************/
  99:Generated_Source\PSoC4/DEBUG_UART_UART.c ****     void DEBUG_UART_UartInit(const DEBUG_UART_UART_INIT_STRUCT *config)
 100:Generated_Source\PSoC4/DEBUG_UART_UART.c ****     {
 101:Generated_Source\PSoC4/DEBUG_UART_UART.c ****         uint32 pinsConfig;
 102:Generated_Source\PSoC4/DEBUG_UART_UART.c **** 
 103:Generated_Source\PSoC4/DEBUG_UART_UART.c ****         if (NULL == config)
 104:Generated_Source\PSoC4/DEBUG_UART_UART.c ****         {
 105:Generated_Source\PSoC4/DEBUG_UART_UART.c ****             CYASSERT(0u != 0u); /* Halt execution due to bad function parameter */
 106:Generated_Source\PSoC4/DEBUG_UART_UART.c ****         }
 107:Generated_Source\PSoC4/DEBUG_UART_UART.c ****         else
 108:Generated_Source\PSoC4/DEBUG_UART_UART.c ****         {
 109:Generated_Source\PSoC4/DEBUG_UART_UART.c ****             /* Get direction to configure UART pins: TX, RX or TX+RX */
 110:Generated_Source\PSoC4/DEBUG_UART_UART.c ****             pinsConfig  = config->direction;
 111:Generated_Source\PSoC4/DEBUG_UART_UART.c **** 
 112:Generated_Source\PSoC4/DEBUG_UART_UART.c ****         #if !(DEBUG_UART_CY_SCBIP_V0 || DEBUG_UART_CY_SCBIP_V1)
 113:Generated_Source\PSoC4/DEBUG_UART_UART.c ****             /* Add RTS and CTS pins to configure */
 114:Generated_Source\PSoC4/DEBUG_UART_UART.c ****             pinsConfig |= (0u != config->rtsRxFifoLevel) ? (DEBUG_UART_UART_RTS_PIN_ENABLE) : (0u);
 115:Generated_Source\PSoC4/DEBUG_UART_UART.c ****             pinsConfig |= (0u != config->enableCts)      ? (DEBUG_UART_UART_CTS_PIN_ENABLE) : (0u);
 116:Generated_Source\PSoC4/DEBUG_UART_UART.c ****         #endif /* !(DEBUG_UART_CY_SCBIP_V0 || DEBUG_UART_CY_SCBIP_V1) */
 117:Generated_Source\PSoC4/DEBUG_UART_UART.c **** 
 118:Generated_Source\PSoC4/DEBUG_UART_UART.c ****             /* Configure pins */
 119:Generated_Source\PSoC4/DEBUG_UART_UART.c ****             DEBUG_UART_SetPins(DEBUG_UART_SCB_MODE_UART, config->mode, pinsConfig);
 120:Generated_Source\PSoC4/DEBUG_UART_UART.c **** 
 121:Generated_Source\PSoC4/DEBUG_UART_UART.c ****             /* Store internal configuration */
 122:Generated_Source\PSoC4/DEBUG_UART_UART.c ****             DEBUG_UART_scbMode       = (uint8) DEBUG_UART_SCB_MODE_UART;
 123:Generated_Source\PSoC4/DEBUG_UART_UART.c ****             DEBUG_UART_scbEnableWake = (uint8) config->enableWake;
 124:Generated_Source\PSoC4/DEBUG_UART_UART.c ****             DEBUG_UART_scbEnableIntr = (uint8) config->enableInterrupt;
 125:Generated_Source\PSoC4/DEBUG_UART_UART.c **** 
 126:Generated_Source\PSoC4/DEBUG_UART_UART.c ****             /* Set RX direction internal variables */
 127:Generated_Source\PSoC4/DEBUG_UART_UART.c ****             DEBUG_UART_rxBuffer      =         config->rxBuffer;
 128:Generated_Source\PSoC4/DEBUG_UART_UART.c ****             DEBUG_UART_rxDataBits    = (uint8) config->dataBits;
 129:Generated_Source\PSoC4/DEBUG_UART_UART.c ****             DEBUG_UART_rxBufferSize  = (uint8) config->rxBufferSize;
 130:Generated_Source\PSoC4/DEBUG_UART_UART.c **** 
 131:Generated_Source\PSoC4/DEBUG_UART_UART.c ****             /* Set TX direction internal variables */
 132:Generated_Source\PSoC4/DEBUG_UART_UART.c ****             DEBUG_UART_txBuffer      =         config->txBuffer;
 133:Generated_Source\PSoC4/DEBUG_UART_UART.c ****             DEBUG_UART_txDataBits    = (uint8) config->dataBits;
 134:Generated_Source\PSoC4/DEBUG_UART_UART.c ****             DEBUG_UART_txBufferSize  = (uint8) config->txBufferSize;
 135:Generated_Source\PSoC4/DEBUG_UART_UART.c **** 
 136:Generated_Source\PSoC4/DEBUG_UART_UART.c ****             /* Configure UART interface */
 137:Generated_Source\PSoC4/DEBUG_UART_UART.c ****             if(DEBUG_UART_UART_MODE_IRDA == config->mode)
 138:Generated_Source\PSoC4/DEBUG_UART_UART.c ****             {
 139:Generated_Source\PSoC4/DEBUG_UART_UART.c ****                 /* OVS settings: IrDA */
 140:Generated_Source\PSoC4/DEBUG_UART_UART.c ****                 DEBUG_UART_CTRL_REG  = ((0u != config->enableIrdaLowPower) ?
 141:Generated_Source\PSoC4/DEBUG_UART_UART.c ****                                                 (DEBUG_UART_UART_GET_CTRL_OVS_IRDA_LP(config->overs
 142:Generated_Source\PSoC4/DEBUG_UART_UART.c ****                                                 (DEBUG_UART_CTRL_OVS_IRDA_OVS16));
 143:Generated_Source\PSoC4/DEBUG_UART_UART.c ****             }
 144:Generated_Source\PSoC4/DEBUG_UART_UART.c ****             else
 145:Generated_Source\PSoC4/DEBUG_UART_UART.c ****             {
 146:Generated_Source\PSoC4/DEBUG_UART_UART.c ****                 /* OVS settings: UART and SmartCard */
ARM GAS  C:\Users\Petro\AppData\Local\Temp\ccOLLjqi.s 			page 4


 147:Generated_Source\PSoC4/DEBUG_UART_UART.c ****                 DEBUG_UART_CTRL_REG  = DEBUG_UART_GET_CTRL_OVS(config->oversample);
 148:Generated_Source\PSoC4/DEBUG_UART_UART.c ****             }
 149:Generated_Source\PSoC4/DEBUG_UART_UART.c **** 
 150:Generated_Source\PSoC4/DEBUG_UART_UART.c ****             DEBUG_UART_CTRL_REG     |= DEBUG_UART_GET_CTRL_BYTE_MODE  (config->enableByteMode)     
 151:Generated_Source\PSoC4/DEBUG_UART_UART.c ****                                              DEBUG_UART_GET_CTRL_ADDR_ACCEPT(config->multiprocAccep
 152:Generated_Source\PSoC4/DEBUG_UART_UART.c ****                                              DEBUG_UART_CTRL_UART;
 153:Generated_Source\PSoC4/DEBUG_UART_UART.c **** 
 154:Generated_Source\PSoC4/DEBUG_UART_UART.c ****             /* Configure sub-mode: UART, SmartCard or IrDA */
 155:Generated_Source\PSoC4/DEBUG_UART_UART.c ****             DEBUG_UART_UART_CTRL_REG = DEBUG_UART_GET_UART_CTRL_MODE(config->mode);
 156:Generated_Source\PSoC4/DEBUG_UART_UART.c **** 
 157:Generated_Source\PSoC4/DEBUG_UART_UART.c ****             /* Configure RX direction */
 158:Generated_Source\PSoC4/DEBUG_UART_UART.c ****             DEBUG_UART_UART_RX_CTRL_REG = DEBUG_UART_GET_UART_RX_CTRL_MODE(config->stopBits)       
 159:Generated_Source\PSoC4/DEBUG_UART_UART.c ****                                         DEBUG_UART_GET_UART_RX_CTRL_POLARITY(config->enableInverted
 160:Generated_Source\PSoC4/DEBUG_UART_UART.c ****                                         DEBUG_UART_GET_UART_RX_CTRL_MP_MODE(config->enableMultiproc
 161:Generated_Source\PSoC4/DEBUG_UART_UART.c ****                                         DEBUG_UART_GET_UART_RX_CTRL_DROP_ON_PARITY_ERR(config->drop
 162:Generated_Source\PSoC4/DEBUG_UART_UART.c ****                                         DEBUG_UART_GET_UART_RX_CTRL_DROP_ON_FRAME_ERR(config->dropO
 163:Generated_Source\PSoC4/DEBUG_UART_UART.c **** 
 164:Generated_Source\PSoC4/DEBUG_UART_UART.c ****             if(DEBUG_UART_UART_PARITY_NONE != config->parity)
 165:Generated_Source\PSoC4/DEBUG_UART_UART.c ****             {
 166:Generated_Source\PSoC4/DEBUG_UART_UART.c ****                DEBUG_UART_UART_RX_CTRL_REG |= DEBUG_UART_GET_UART_RX_CTRL_PARITY(config->parity) |
 167:Generated_Source\PSoC4/DEBUG_UART_UART.c ****                                                     DEBUG_UART_UART_RX_CTRL_PARITY_ENABLED;
 168:Generated_Source\PSoC4/DEBUG_UART_UART.c ****             }
 169:Generated_Source\PSoC4/DEBUG_UART_UART.c **** 
 170:Generated_Source\PSoC4/DEBUG_UART_UART.c ****             DEBUG_UART_RX_CTRL_REG      = DEBUG_UART_GET_RX_CTRL_DATA_WIDTH(config->dataBits)      
 171:Generated_Source\PSoC4/DEBUG_UART_UART.c ****                                                 DEBUG_UART_GET_RX_CTRL_MEDIAN(config->enableMedianF
 172:Generated_Source\PSoC4/DEBUG_UART_UART.c ****                                                 DEBUG_UART_GET_UART_RX_CTRL_ENABLED(config->directi
 173:Generated_Source\PSoC4/DEBUG_UART_UART.c **** 
 174:Generated_Source\PSoC4/DEBUG_UART_UART.c ****             DEBUG_UART_RX_FIFO_CTRL_REG = DEBUG_UART_GET_RX_FIFO_CTRL_TRIGGER_LEVEL(config->rxTrigg
 175:Generated_Source\PSoC4/DEBUG_UART_UART.c **** 
 176:Generated_Source\PSoC4/DEBUG_UART_UART.c ****             /* Configure MP address */
 177:Generated_Source\PSoC4/DEBUG_UART_UART.c ****             DEBUG_UART_RX_MATCH_REG     = DEBUG_UART_GET_RX_MATCH_ADDR(config->multiprocAddr) |
 178:Generated_Source\PSoC4/DEBUG_UART_UART.c ****                                                 DEBUG_UART_GET_RX_MATCH_MASK(config->multiprocAddrM
 179:Generated_Source\PSoC4/DEBUG_UART_UART.c **** 
 180:Generated_Source\PSoC4/DEBUG_UART_UART.c ****             /* Configure RX direction */
 181:Generated_Source\PSoC4/DEBUG_UART_UART.c ****             DEBUG_UART_UART_TX_CTRL_REG = DEBUG_UART_GET_UART_TX_CTRL_MODE(config->stopBits) |
 182:Generated_Source\PSoC4/DEBUG_UART_UART.c ****                                                 DEBUG_UART_GET_UART_TX_CTRL_RETRY_NACK(config->enab
 183:Generated_Source\PSoC4/DEBUG_UART_UART.c **** 
 184:Generated_Source\PSoC4/DEBUG_UART_UART.c ****             if(DEBUG_UART_UART_PARITY_NONE != config->parity)
 185:Generated_Source\PSoC4/DEBUG_UART_UART.c ****             {
 186:Generated_Source\PSoC4/DEBUG_UART_UART.c ****                DEBUG_UART_UART_TX_CTRL_REG |= DEBUG_UART_GET_UART_TX_CTRL_PARITY(config->parity) |
 187:Generated_Source\PSoC4/DEBUG_UART_UART.c ****                                                     DEBUG_UART_UART_TX_CTRL_PARITY_ENABLED;
 188:Generated_Source\PSoC4/DEBUG_UART_UART.c ****             }
 189:Generated_Source\PSoC4/DEBUG_UART_UART.c **** 
 190:Generated_Source\PSoC4/DEBUG_UART_UART.c ****             DEBUG_UART_TX_CTRL_REG      = DEBUG_UART_GET_TX_CTRL_DATA_WIDTH(config->dataBits)    |
 191:Generated_Source\PSoC4/DEBUG_UART_UART.c ****                                                 DEBUG_UART_GET_UART_TX_CTRL_ENABLED(config->directi
 192:Generated_Source\PSoC4/DEBUG_UART_UART.c **** 
 193:Generated_Source\PSoC4/DEBUG_UART_UART.c ****             DEBUG_UART_TX_FIFO_CTRL_REG = DEBUG_UART_GET_TX_FIFO_CTRL_TRIGGER_LEVEL(config->txTrigg
 194:Generated_Source\PSoC4/DEBUG_UART_UART.c **** 
 195:Generated_Source\PSoC4/DEBUG_UART_UART.c ****         #if !(DEBUG_UART_CY_SCBIP_V0 || DEBUG_UART_CY_SCBIP_V1)
 196:Generated_Source\PSoC4/DEBUG_UART_UART.c ****             DEBUG_UART_UART_FLOW_CTRL_REG = DEBUG_UART_GET_UART_FLOW_CTRL_CTS_ENABLE(config->enable
 197:Generated_Source\PSoC4/DEBUG_UART_UART.c ****                                             DEBUG_UART_GET_UART_FLOW_CTRL_CTS_POLARITY (config->cts
 198:Generated_Source\PSoC4/DEBUG_UART_UART.c ****                                             DEBUG_UART_GET_UART_FLOW_CTRL_RTS_POLARITY (config->rts
 199:Generated_Source\PSoC4/DEBUG_UART_UART.c ****                                             DEBUG_UART_GET_UART_FLOW_CTRL_TRIGGER_LEVEL(config->rts
 200:Generated_Source\PSoC4/DEBUG_UART_UART.c ****         #endif /* !(DEBUG_UART_CY_SCBIP_V0 || DEBUG_UART_CY_SCBIP_V1) */
 201:Generated_Source\PSoC4/DEBUG_UART_UART.c **** 
 202:Generated_Source\PSoC4/DEBUG_UART_UART.c ****             /* Configure interrupt with UART handler but do not enable it */
 203:Generated_Source\PSoC4/DEBUG_UART_UART.c ****             CyIntDisable    (DEBUG_UART_ISR_NUMBER);
ARM GAS  C:\Users\Petro\AppData\Local\Temp\ccOLLjqi.s 			page 5


 204:Generated_Source\PSoC4/DEBUG_UART_UART.c ****             CyIntSetPriority(DEBUG_UART_ISR_NUMBER, DEBUG_UART_ISR_PRIORITY);
 205:Generated_Source\PSoC4/DEBUG_UART_UART.c ****             (void) CyIntSetVector(DEBUG_UART_ISR_NUMBER, &DEBUG_UART_SPI_UART_ISR);
 206:Generated_Source\PSoC4/DEBUG_UART_UART.c **** 
 207:Generated_Source\PSoC4/DEBUG_UART_UART.c ****             /* Configure WAKE interrupt */
 208:Generated_Source\PSoC4/DEBUG_UART_UART.c ****         #if(DEBUG_UART_UART_RX_WAKEUP_IRQ)
 209:Generated_Source\PSoC4/DEBUG_UART_UART.c ****             CyIntDisable    (DEBUG_UART_RX_WAKE_ISR_NUMBER);
 210:Generated_Source\PSoC4/DEBUG_UART_UART.c ****             CyIntSetPriority(DEBUG_UART_RX_WAKE_ISR_NUMBER, DEBUG_UART_RX_WAKE_ISR_PRIORITY);
 211:Generated_Source\PSoC4/DEBUG_UART_UART.c ****             (void) CyIntSetVector(DEBUG_UART_RX_WAKE_ISR_NUMBER, &DEBUG_UART_UART_WAKEUP_ISR);
 212:Generated_Source\PSoC4/DEBUG_UART_UART.c ****         #endif /* (DEBUG_UART_UART_RX_WAKEUP_IRQ) */
 213:Generated_Source\PSoC4/DEBUG_UART_UART.c **** 
 214:Generated_Source\PSoC4/DEBUG_UART_UART.c ****             /* Configure interrupt sources */
 215:Generated_Source\PSoC4/DEBUG_UART_UART.c ****             DEBUG_UART_INTR_I2C_EC_MASK_REG = DEBUG_UART_NO_INTR_SOURCES;
 216:Generated_Source\PSoC4/DEBUG_UART_UART.c ****             DEBUG_UART_INTR_SPI_EC_MASK_REG = DEBUG_UART_NO_INTR_SOURCES;
 217:Generated_Source\PSoC4/DEBUG_UART_UART.c ****             DEBUG_UART_INTR_SLAVE_MASK_REG  = DEBUG_UART_NO_INTR_SOURCES;
 218:Generated_Source\PSoC4/DEBUG_UART_UART.c ****             DEBUG_UART_INTR_MASTER_MASK_REG = DEBUG_UART_NO_INTR_SOURCES;
 219:Generated_Source\PSoC4/DEBUG_UART_UART.c ****             DEBUG_UART_INTR_RX_MASK_REG     = config->rxInterruptMask;
 220:Generated_Source\PSoC4/DEBUG_UART_UART.c ****             DEBUG_UART_INTR_TX_MASK_REG     = config->txInterruptMask;
 221:Generated_Source\PSoC4/DEBUG_UART_UART.c ****         
 222:Generated_Source\PSoC4/DEBUG_UART_UART.c ****             /* Configure TX interrupt sources to restore. */
 223:Generated_Source\PSoC4/DEBUG_UART_UART.c ****             DEBUG_UART_IntrTxMask = LO16(DEBUG_UART_INTR_TX_MASK_REG);
 224:Generated_Source\PSoC4/DEBUG_UART_UART.c **** 
 225:Generated_Source\PSoC4/DEBUG_UART_UART.c ****             /* Clear RX buffer indexes */
 226:Generated_Source\PSoC4/DEBUG_UART_UART.c ****             DEBUG_UART_rxBufferHead     = 0u;
 227:Generated_Source\PSoC4/DEBUG_UART_UART.c ****             DEBUG_UART_rxBufferTail     = 0u;
 228:Generated_Source\PSoC4/DEBUG_UART_UART.c ****             DEBUG_UART_rxBufferOverflow = 0u;
 229:Generated_Source\PSoC4/DEBUG_UART_UART.c **** 
 230:Generated_Source\PSoC4/DEBUG_UART_UART.c ****             /* Clear TX buffer indexes */
 231:Generated_Source\PSoC4/DEBUG_UART_UART.c ****             DEBUG_UART_txBufferHead = 0u;
 232:Generated_Source\PSoC4/DEBUG_UART_UART.c ****             DEBUG_UART_txBufferTail = 0u;
 233:Generated_Source\PSoC4/DEBUG_UART_UART.c ****         }
 234:Generated_Source\PSoC4/DEBUG_UART_UART.c ****     }
 235:Generated_Source\PSoC4/DEBUG_UART_UART.c **** 
 236:Generated_Source\PSoC4/DEBUG_UART_UART.c **** #else
 237:Generated_Source\PSoC4/DEBUG_UART_UART.c **** 
 238:Generated_Source\PSoC4/DEBUG_UART_UART.c ****     /*******************************************************************************
 239:Generated_Source\PSoC4/DEBUG_UART_UART.c ****     * Function Name: DEBUG_UART_UartInit
 240:Generated_Source\PSoC4/DEBUG_UART_UART.c ****     ****************************************************************************//**
 241:Generated_Source\PSoC4/DEBUG_UART_UART.c ****     *
 242:Generated_Source\PSoC4/DEBUG_UART_UART.c ****     *  Configures the SCB for the UART operation.
 243:Generated_Source\PSoC4/DEBUG_UART_UART.c ****     *
 244:Generated_Source\PSoC4/DEBUG_UART_UART.c ****     *******************************************************************************/
 245:Generated_Source\PSoC4/DEBUG_UART_UART.c ****     void DEBUG_UART_UartInit(void)
 246:Generated_Source\PSoC4/DEBUG_UART_UART.c ****     {
  26              		.loc 1 246 0
  27              		.cfi_startproc
  28 0000 38B5     		push	{r3, r4, r5, lr}
  29              		.cfi_def_cfa_offset 16
  30              		.cfi_offset 3, -16
  31              		.cfi_offset 4, -12
  32              		.cfi_offset 5, -8
  33              		.cfi_offset 14, -4
 247:Generated_Source\PSoC4/DEBUG_UART_UART.c ****         /* Configure UART interface */
 248:Generated_Source\PSoC4/DEBUG_UART_UART.c ****         DEBUG_UART_CTRL_REG = DEBUG_UART_UART_DEFAULT_CTRL;
  34              		.loc 1 248 0
  35 0002 1F4A     		ldr	r2, .L2
  36 0004 1F4B     		ldr	r3, .L2+4
  37 0006 1A60     		str	r2, [r3]
ARM GAS  C:\Users\Petro\AppData\Local\Temp\ccOLLjqi.s 			page 6


 249:Generated_Source\PSoC4/DEBUG_UART_UART.c **** 
 250:Generated_Source\PSoC4/DEBUG_UART_UART.c ****         /* Configure sub-mode: UART, SmartCard or IrDA */
 251:Generated_Source\PSoC4/DEBUG_UART_UART.c ****         DEBUG_UART_UART_CTRL_REG = DEBUG_UART_UART_DEFAULT_UART_CTRL;
  38              		.loc 1 251 0
  39 0008 0024     		mov	r4, #0
  40 000a 1F4B     		ldr	r3, .L2+8
  41 000c 1C60     		str	r4, [r3]
 252:Generated_Source\PSoC4/DEBUG_UART_UART.c **** 
 253:Generated_Source\PSoC4/DEBUG_UART_UART.c ****         /* Configure RX direction */
 254:Generated_Source\PSoC4/DEBUG_UART_UART.c ****         DEBUG_UART_UART_RX_CTRL_REG = DEBUG_UART_UART_DEFAULT_UART_RX_CTRL;
  42              		.loc 1 254 0
  43 000e 0122     		mov	r2, #1
  44 0010 1E4B     		ldr	r3, .L2+12
  45 0012 1A60     		str	r2, [r3]
 255:Generated_Source\PSoC4/DEBUG_UART_UART.c ****         DEBUG_UART_RX_CTRL_REG      = DEBUG_UART_UART_DEFAULT_RX_CTRL;
  46              		.loc 1 255 0
  47 0014 1E4B     		ldr	r3, .L2+16
  48 0016 1F49     		ldr	r1, .L2+20
  49 0018 0B60     		str	r3, [r1]
 256:Generated_Source\PSoC4/DEBUG_UART_UART.c ****         DEBUG_UART_RX_FIFO_CTRL_REG = DEBUG_UART_UART_DEFAULT_RX_FIFO_CTRL;
  50              		.loc 1 256 0
  51 001a 0720     		mov	r0, #7
  52 001c 1E49     		ldr	r1, .L2+24
  53 001e 0860     		str	r0, [r1]
 257:Generated_Source\PSoC4/DEBUG_UART_UART.c ****         DEBUG_UART_RX_MATCH_REG     = DEBUG_UART_UART_DEFAULT_RX_MATCH_REG;
  54              		.loc 1 257 0
  55 0020 1E49     		ldr	r1, .L2+28
  56 0022 0C60     		str	r4, [r1]
 258:Generated_Source\PSoC4/DEBUG_UART_UART.c **** 
 259:Generated_Source\PSoC4/DEBUG_UART_UART.c ****         /* Configure TX direction */
 260:Generated_Source\PSoC4/DEBUG_UART_UART.c ****         DEBUG_UART_UART_TX_CTRL_REG = DEBUG_UART_UART_DEFAULT_UART_TX_CTRL;
  57              		.loc 1 260 0
  58 0024 1E49     		ldr	r1, .L2+32
  59 0026 0A60     		str	r2, [r1]
 261:Generated_Source\PSoC4/DEBUG_UART_UART.c ****         DEBUG_UART_TX_CTRL_REG      = DEBUG_UART_UART_DEFAULT_TX_CTRL;
  60              		.loc 1 261 0
  61 0028 1E4A     		ldr	r2, .L2+36
  62 002a 1360     		str	r3, [r2]
 262:Generated_Source\PSoC4/DEBUG_UART_UART.c ****         DEBUG_UART_TX_FIFO_CTRL_REG = DEBUG_UART_UART_DEFAULT_TX_FIFO_CTRL;
  63              		.loc 1 262 0
  64 002c 1E4B     		ldr	r3, .L2+40
  65 002e 1C60     		str	r4, [r3]
 263:Generated_Source\PSoC4/DEBUG_UART_UART.c **** 
 264:Generated_Source\PSoC4/DEBUG_UART_UART.c ****     #if !(DEBUG_UART_CY_SCBIP_V0 || DEBUG_UART_CY_SCBIP_V1)
 265:Generated_Source\PSoC4/DEBUG_UART_UART.c ****         DEBUG_UART_UART_FLOW_CTRL_REG = DEBUG_UART_UART_DEFAULT_FLOW_CTRL;
  66              		.loc 1 265 0
  67 0030 0425     		mov	r5, #4
  68 0032 1E4B     		ldr	r3, .L2+44
  69 0034 1D60     		str	r5, [r3]
 266:Generated_Source\PSoC4/DEBUG_UART_UART.c ****     #endif /* !(DEBUG_UART_CY_SCBIP_V0 || DEBUG_UART_CY_SCBIP_V1) */
 267:Generated_Source\PSoC4/DEBUG_UART_UART.c **** 
 268:Generated_Source\PSoC4/DEBUG_UART_UART.c ****         /* Configure interrupt with UART handler but do not enable it */
 269:Generated_Source\PSoC4/DEBUG_UART_UART.c ****     #if(DEBUG_UART_SCB_IRQ_INTERNAL)
 270:Generated_Source\PSoC4/DEBUG_UART_UART.c ****         CyIntDisable    (DEBUG_UART_ISR_NUMBER);
  70              		.loc 1 270 0
  71 0036 0230     		add	r0, r0, #2
  72 0038 FFF7FEFF 		bl	CyIntDisable
ARM GAS  C:\Users\Petro\AppData\Local\Temp\ccOLLjqi.s 			page 7


  73              	.LVL0:
 271:Generated_Source\PSoC4/DEBUG_UART_UART.c ****         CyIntSetPriority(DEBUG_UART_ISR_NUMBER, DEBUG_UART_ISR_PRIORITY);
  74              		.loc 1 271 0
  75 003c 0920     		mov	r0, #9
  76 003e 0321     		mov	r1, #3
  77 0040 FFF7FEFF 		bl	CyIntSetPriority
  78              	.LVL1:
 272:Generated_Source\PSoC4/DEBUG_UART_UART.c ****         (void) CyIntSetVector(DEBUG_UART_ISR_NUMBER, &DEBUG_UART_SPI_UART_ISR);
  79              		.loc 1 272 0
  80 0044 0920     		mov	r0, #9
  81 0046 1A49     		ldr	r1, .L2+48
  82 0048 FFF7FEFF 		bl	CyIntSetVector
  83              	.LVL2:
 273:Generated_Source\PSoC4/DEBUG_UART_UART.c ****     #endif /* (DEBUG_UART_SCB_IRQ_INTERNAL) */
 274:Generated_Source\PSoC4/DEBUG_UART_UART.c **** 
 275:Generated_Source\PSoC4/DEBUG_UART_UART.c ****         /* Configure WAKE interrupt */
 276:Generated_Source\PSoC4/DEBUG_UART_UART.c ****     #if(DEBUG_UART_UART_RX_WAKEUP_IRQ)
 277:Generated_Source\PSoC4/DEBUG_UART_UART.c ****         CyIntDisable    (DEBUG_UART_RX_WAKE_ISR_NUMBER);
 278:Generated_Source\PSoC4/DEBUG_UART_UART.c ****         CyIntSetPriority(DEBUG_UART_RX_WAKE_ISR_NUMBER, DEBUG_UART_RX_WAKE_ISR_PRIORITY);
 279:Generated_Source\PSoC4/DEBUG_UART_UART.c ****         (void) CyIntSetVector(DEBUG_UART_RX_WAKE_ISR_NUMBER, &DEBUG_UART_UART_WAKEUP_ISR);
 280:Generated_Source\PSoC4/DEBUG_UART_UART.c ****     #endif /* (DEBUG_UART_UART_RX_WAKEUP_IRQ) */
 281:Generated_Source\PSoC4/DEBUG_UART_UART.c **** 
 282:Generated_Source\PSoC4/DEBUG_UART_UART.c ****         /* Configure interrupt sources */
 283:Generated_Source\PSoC4/DEBUG_UART_UART.c ****         DEBUG_UART_INTR_I2C_EC_MASK_REG = DEBUG_UART_UART_DEFAULT_INTR_I2C_EC_MASK;
  84              		.loc 1 283 0
  85 004c 194B     		ldr	r3, .L2+52
  86 004e 1C60     		str	r4, [r3]
 284:Generated_Source\PSoC4/DEBUG_UART_UART.c ****         DEBUG_UART_INTR_SPI_EC_MASK_REG = DEBUG_UART_UART_DEFAULT_INTR_SPI_EC_MASK;
  87              		.loc 1 284 0
  88 0050 194B     		ldr	r3, .L2+56
  89 0052 1C60     		str	r4, [r3]
 285:Generated_Source\PSoC4/DEBUG_UART_UART.c ****         DEBUG_UART_INTR_SLAVE_MASK_REG  = DEBUG_UART_UART_DEFAULT_INTR_SLAVE_MASK;
  90              		.loc 1 285 0
  91 0054 194B     		ldr	r3, .L2+60
  92 0056 1C60     		str	r4, [r3]
 286:Generated_Source\PSoC4/DEBUG_UART_UART.c ****         DEBUG_UART_INTR_MASTER_MASK_REG = DEBUG_UART_UART_DEFAULT_INTR_MASTER_MASK;
  93              		.loc 1 286 0
  94 0058 194B     		ldr	r3, .L2+64
  95 005a 1C60     		str	r4, [r3]
 287:Generated_Source\PSoC4/DEBUG_UART_UART.c ****         DEBUG_UART_INTR_RX_MASK_REG     = DEBUG_UART_UART_DEFAULT_INTR_RX_MASK;
  96              		.loc 1 287 0
  97 005c 194B     		ldr	r3, .L2+68
  98 005e 1D60     		str	r5, [r3]
 288:Generated_Source\PSoC4/DEBUG_UART_UART.c ****         DEBUG_UART_INTR_TX_MASK_REG     = DEBUG_UART_UART_DEFAULT_INTR_TX_MASK;
  99              		.loc 1 288 0
 100 0060 194B     		ldr	r3, .L2+72
 101 0062 1C60     		str	r4, [r3]
 289:Generated_Source\PSoC4/DEBUG_UART_UART.c ****     
 290:Generated_Source\PSoC4/DEBUG_UART_UART.c ****         /* Configure TX interrupt sources to restore. */
 291:Generated_Source\PSoC4/DEBUG_UART_UART.c ****         DEBUG_UART_IntrTxMask = LO16(DEBUG_UART_INTR_TX_MASK_REG);
 102              		.loc 1 291 0
 103 0064 1A68     		ldr	r2, [r3]
 104 0066 194B     		ldr	r3, .L2+76
 105 0068 1A80     		strh	r2, [r3]
 292:Generated_Source\PSoC4/DEBUG_UART_UART.c **** 
 293:Generated_Source\PSoC4/DEBUG_UART_UART.c ****     #if(DEBUG_UART_INTERNAL_RX_SW_BUFFER_CONST)
 294:Generated_Source\PSoC4/DEBUG_UART_UART.c ****         DEBUG_UART_rxBufferHead     = 0u;
ARM GAS  C:\Users\Petro\AppData\Local\Temp\ccOLLjqi.s 			page 8


 106              		.loc 1 294 0
 107 006a 194B     		ldr	r3, .L2+80
 108 006c 1C60     		str	r4, [r3]
 295:Generated_Source\PSoC4/DEBUG_UART_UART.c ****         DEBUG_UART_rxBufferTail     = 0u;
 109              		.loc 1 295 0
 110 006e 194B     		ldr	r3, .L2+84
 111 0070 1C60     		str	r4, [r3]
 296:Generated_Source\PSoC4/DEBUG_UART_UART.c ****         DEBUG_UART_rxBufferOverflow = 0u;
 112              		.loc 1 296 0
 113 0072 194B     		ldr	r3, .L2+88
 114 0074 1C70     		strb	r4, [r3]
 297:Generated_Source\PSoC4/DEBUG_UART_UART.c ****     #endif /* (DEBUG_UART_INTERNAL_RX_SW_BUFFER_CONST) */
 298:Generated_Source\PSoC4/DEBUG_UART_UART.c **** 
 299:Generated_Source\PSoC4/DEBUG_UART_UART.c ****     #if(DEBUG_UART_INTERNAL_TX_SW_BUFFER_CONST)
 300:Generated_Source\PSoC4/DEBUG_UART_UART.c ****         DEBUG_UART_txBufferHead = 0u;
 115              		.loc 1 300 0
 116 0076 194B     		ldr	r3, .L2+92
 117 0078 1C60     		str	r4, [r3]
 301:Generated_Source\PSoC4/DEBUG_UART_UART.c ****         DEBUG_UART_txBufferTail = 0u;
 118              		.loc 1 301 0
 119 007a 194B     		ldr	r3, .L2+96
 120 007c 1C60     		str	r4, [r3]
 302:Generated_Source\PSoC4/DEBUG_UART_UART.c ****     #endif /* (DEBUG_UART_INTERNAL_TX_SW_BUFFER_CONST) */
 303:Generated_Source\PSoC4/DEBUG_UART_UART.c ****     }
 121              		.loc 1 303 0
 122              		@ sp needed
 123 007e 38BD     		pop	{r3, r4, r5, pc}
 124              	.L3:
 125              		.align	2
 126              	.L2:
 127 0080 0B000002 		.word	33554443
 128 0084 00002440 		.word	1076101120
 129 0088 40002440 		.word	1076101184
 130 008c 48002440 		.word	1076101192
 131 0090 07000080 		.word	-2147483641
 132 0094 00032440 		.word	1076101888
 133 0098 04032440 		.word	1076101892
 134 009c 10032440 		.word	1076101904
 135 00a0 44002440 		.word	1076101188
 136 00a4 00022440 		.word	1076101632
 137 00a8 04022440 		.word	1076101636
 138 00ac 50002440 		.word	1076101200
 139 00b0 00000000 		.word	DEBUG_UART_SPI_UART_ISR
 140 00b4 880E2440 		.word	1076104840
 141 00b8 C80E2440 		.word	1076104904
 142 00bc 480F2440 		.word	1076105032
 143 00c0 080F2440 		.word	1076104968
 144 00c4 C80F2440 		.word	1076105160
 145 00c8 880F2440 		.word	1076105096
 146 00cc 00000000 		.word	DEBUG_UART_IntrTxMask
 147 00d0 00000000 		.word	DEBUG_UART_rxBufferHead
 148 00d4 00000000 		.word	DEBUG_UART_rxBufferTail
 149 00d8 00000000 		.word	DEBUG_UART_rxBufferOverflow
 150 00dc 00000000 		.word	DEBUG_UART_txBufferHead
 151 00e0 00000000 		.word	DEBUG_UART_txBufferTail
 152              		.cfi_endproc
 153              	.LFE2:
ARM GAS  C:\Users\Petro\AppData\Local\Temp\ccOLLjqi.s 			page 9


 154              		.size	DEBUG_UART_UartInit, .-DEBUG_UART_UartInit
 155              		.section	.text.DEBUG_UART_UartPostEnable,"ax",%progbits
 156              		.align	2
 157              		.global	DEBUG_UART_UartPostEnable
 158              		.code	16
 159              		.thumb_func
 160              		.type	DEBUG_UART_UartPostEnable, %function
 161              	DEBUG_UART_UartPostEnable:
 162              	.LFB3:
 304:Generated_Source\PSoC4/DEBUG_UART_UART.c **** #endif /* (DEBUG_UART_SCB_MODE_UNCONFIG_CONST_CFG) */
 305:Generated_Source\PSoC4/DEBUG_UART_UART.c **** 
 306:Generated_Source\PSoC4/DEBUG_UART_UART.c **** 
 307:Generated_Source\PSoC4/DEBUG_UART_UART.c **** /*******************************************************************************
 308:Generated_Source\PSoC4/DEBUG_UART_UART.c **** * Function Name: DEBUG_UART_UartPostEnable
 309:Generated_Source\PSoC4/DEBUG_UART_UART.c **** ****************************************************************************//**
 310:Generated_Source\PSoC4/DEBUG_UART_UART.c **** *
 311:Generated_Source\PSoC4/DEBUG_UART_UART.c **** *  Restores HSIOM settings for the UART output pins (TX and/or RTS) to be
 312:Generated_Source\PSoC4/DEBUG_UART_UART.c **** *  controlled by the SCB UART.
 313:Generated_Source\PSoC4/DEBUG_UART_UART.c **** *
 314:Generated_Source\PSoC4/DEBUG_UART_UART.c **** *******************************************************************************/
 315:Generated_Source\PSoC4/DEBUG_UART_UART.c **** void DEBUG_UART_UartPostEnable(void)
 316:Generated_Source\PSoC4/DEBUG_UART_UART.c **** {
 163              		.loc 1 316 0
 164              		.cfi_startproc
 317:Generated_Source\PSoC4/DEBUG_UART_UART.c **** #if (DEBUG_UART_SCB_MODE_UNCONFIG_CONST_CFG)
 318:Generated_Source\PSoC4/DEBUG_UART_UART.c ****     #if (DEBUG_UART_TX_SCL_MISO_PIN)
 319:Generated_Source\PSoC4/DEBUG_UART_UART.c ****         if (DEBUG_UART_CHECK_TX_SCL_MISO_PIN_USED)
 320:Generated_Source\PSoC4/DEBUG_UART_UART.c ****         {
 321:Generated_Source\PSoC4/DEBUG_UART_UART.c ****             /* Set SCB UART to drive the output pin */
 322:Generated_Source\PSoC4/DEBUG_UART_UART.c ****             DEBUG_UART_SET_HSIOM_SEL(DEBUG_UART_TX_SCL_MISO_HSIOM_REG, DEBUG_UART_TX_SCL_MISO_HSIOM
 323:Generated_Source\PSoC4/DEBUG_UART_UART.c ****                                            DEBUG_UART_TX_SCL_MISO_HSIOM_POS, DEBUG_UART_TX_SCL_MISO
 324:Generated_Source\PSoC4/DEBUG_UART_UART.c ****         }
 325:Generated_Source\PSoC4/DEBUG_UART_UART.c ****     #endif /* (DEBUG_UART_TX_SCL_MISO_PIN_PIN) */
 326:Generated_Source\PSoC4/DEBUG_UART_UART.c **** 
 327:Generated_Source\PSoC4/DEBUG_UART_UART.c ****     #if !(DEBUG_UART_CY_SCBIP_V0 || DEBUG_UART_CY_SCBIP_V1)
 328:Generated_Source\PSoC4/DEBUG_UART_UART.c ****         #if (DEBUG_UART_RTS_SS0_PIN)
 329:Generated_Source\PSoC4/DEBUG_UART_UART.c ****             if (DEBUG_UART_CHECK_RTS_SS0_PIN_USED)
 330:Generated_Source\PSoC4/DEBUG_UART_UART.c ****             {
 331:Generated_Source\PSoC4/DEBUG_UART_UART.c ****                 /* Set SCB UART to drive the output pin */
 332:Generated_Source\PSoC4/DEBUG_UART_UART.c ****                 DEBUG_UART_SET_HSIOM_SEL(DEBUG_UART_RTS_SS0_HSIOM_REG, DEBUG_UART_RTS_SS0_HSIOM_MAS
 333:Generated_Source\PSoC4/DEBUG_UART_UART.c ****                                                DEBUG_UART_RTS_SS0_HSIOM_POS, DEBUG_UART_RTS_SS0_HSI
 334:Generated_Source\PSoC4/DEBUG_UART_UART.c ****             }
 335:Generated_Source\PSoC4/DEBUG_UART_UART.c ****         #endif /* (DEBUG_UART_RTS_SS0_PIN) */
 336:Generated_Source\PSoC4/DEBUG_UART_UART.c ****     #endif /* !(DEBUG_UART_CY_SCBIP_V0 || DEBUG_UART_CY_SCBIP_V1) */
 337:Generated_Source\PSoC4/DEBUG_UART_UART.c **** 
 338:Generated_Source\PSoC4/DEBUG_UART_UART.c **** #else
 339:Generated_Source\PSoC4/DEBUG_UART_UART.c ****     #if (DEBUG_UART_UART_TX_PIN)
 340:Generated_Source\PSoC4/DEBUG_UART_UART.c ****          /* Set SCB UART to drive the output pin */
 341:Generated_Source\PSoC4/DEBUG_UART_UART.c ****         DEBUG_UART_SET_HSIOM_SEL(DEBUG_UART_TX_HSIOM_REG, DEBUG_UART_TX_HSIOM_MASK,
 165              		.loc 1 341 0
 166 0000 064A     		ldr	r2, .L5
 167 0002 1168     		ldr	r1, [r2]
 168 0004 064B     		ldr	r3, .L5+4
 169 0006 0B40     		and	r3, r1
 170 0008 9021     		mov	r1, #144
 171 000a 0904     		lsl	r1, r1, #16
 172 000c 0B43     		orr	r3, r1
ARM GAS  C:\Users\Petro\AppData\Local\Temp\ccOLLjqi.s 			page 10


 173 000e 1360     		str	r3, [r2]
 342:Generated_Source\PSoC4/DEBUG_UART_UART.c ****                                        DEBUG_UART_TX_HSIOM_POS, DEBUG_UART_TX_HSIOM_SEL_UART);
 343:Generated_Source\PSoC4/DEBUG_UART_UART.c ****     #endif /* (DEBUG_UART_UART_TX_PIN) */
 344:Generated_Source\PSoC4/DEBUG_UART_UART.c **** 
 345:Generated_Source\PSoC4/DEBUG_UART_UART.c ****     #if (DEBUG_UART_UART_RTS_PIN)
 346:Generated_Source\PSoC4/DEBUG_UART_UART.c ****         /* Set SCB UART to drive the output pin */
 347:Generated_Source\PSoC4/DEBUG_UART_UART.c ****         DEBUG_UART_SET_HSIOM_SEL(DEBUG_UART_RTS_HSIOM_REG, DEBUG_UART_RTS_HSIOM_MASK,
 348:Generated_Source\PSoC4/DEBUG_UART_UART.c ****                                        DEBUG_UART_RTS_HSIOM_POS, DEBUG_UART_RTS_HSIOM_SEL_UART);
 349:Generated_Source\PSoC4/DEBUG_UART_UART.c ****     #endif /* (DEBUG_UART_UART_RTS_PIN) */
 350:Generated_Source\PSoC4/DEBUG_UART_UART.c **** #endif /* (DEBUG_UART_SCB_MODE_UNCONFIG_CONST_CFG) */
 351:Generated_Source\PSoC4/DEBUG_UART_UART.c **** 
 352:Generated_Source\PSoC4/DEBUG_UART_UART.c ****     /* Restore TX interrupt sources. */
 353:Generated_Source\PSoC4/DEBUG_UART_UART.c ****     DEBUG_UART_SetTxInterruptMode(DEBUG_UART_IntrTxMask);
 174              		.loc 1 353 0
 175 0010 044B     		ldr	r3, .L5+8
 176 0012 1A88     		ldrh	r2, [r3]
 177 0014 044B     		ldr	r3, .L5+12
 178 0016 1A60     		str	r2, [r3]
 354:Generated_Source\PSoC4/DEBUG_UART_UART.c **** }
 179              		.loc 1 354 0
 180              		@ sp needed
 181 0018 7047     		bx	lr
 182              	.L6:
 183 001a C046     		.align	2
 184              	.L5:
 185 001c 00000240 		.word	1073872896
 186 0020 FFFF0FFF 		.word	-15728641
 187 0024 00000000 		.word	DEBUG_UART_IntrTxMask
 188 0028 880F2440 		.word	1076105096
 189              		.cfi_endproc
 190              	.LFE3:
 191              		.size	DEBUG_UART_UartPostEnable, .-DEBUG_UART_UartPostEnable
 192              		.section	.text.DEBUG_UART_UartStop,"ax",%progbits
 193              		.align	2
 194              		.global	DEBUG_UART_UartStop
 195              		.code	16
 196              		.thumb_func
 197              		.type	DEBUG_UART_UartStop, %function
 198              	DEBUG_UART_UartStop:
 199              	.LFB4:
 355:Generated_Source\PSoC4/DEBUG_UART_UART.c **** 
 356:Generated_Source\PSoC4/DEBUG_UART_UART.c **** 
 357:Generated_Source\PSoC4/DEBUG_UART_UART.c **** /*******************************************************************************
 358:Generated_Source\PSoC4/DEBUG_UART_UART.c **** * Function Name: DEBUG_UART_UartStop
 359:Generated_Source\PSoC4/DEBUG_UART_UART.c **** ****************************************************************************//**
 360:Generated_Source\PSoC4/DEBUG_UART_UART.c **** *
 361:Generated_Source\PSoC4/DEBUG_UART_UART.c **** *  Changes the HSIOM settings for the UART output pins (TX and/or RTS) to keep
 362:Generated_Source\PSoC4/DEBUG_UART_UART.c **** *  them inactive after the block is disabled. The output pins are controlled by
 363:Generated_Source\PSoC4/DEBUG_UART_UART.c **** *  the GPIO data register. Also, the function disables the skip start feature
 364:Generated_Source\PSoC4/DEBUG_UART_UART.c **** *  to not cause it to trigger after the component is enabled.
 365:Generated_Source\PSoC4/DEBUG_UART_UART.c **** *
 366:Generated_Source\PSoC4/DEBUG_UART_UART.c **** *******************************************************************************/
 367:Generated_Source\PSoC4/DEBUG_UART_UART.c **** void DEBUG_UART_UartStop(void)
 368:Generated_Source\PSoC4/DEBUG_UART_UART.c **** {
 200              		.loc 1 368 0
 201              		.cfi_startproc
 369:Generated_Source\PSoC4/DEBUG_UART_UART.c **** #if(DEBUG_UART_SCB_MODE_UNCONFIG_CONST_CFG)
ARM GAS  C:\Users\Petro\AppData\Local\Temp\ccOLLjqi.s 			page 11


 370:Generated_Source\PSoC4/DEBUG_UART_UART.c ****     #if (DEBUG_UART_TX_SCL_MISO_PIN)
 371:Generated_Source\PSoC4/DEBUG_UART_UART.c ****         if (DEBUG_UART_CHECK_TX_SCL_MISO_PIN_USED)
 372:Generated_Source\PSoC4/DEBUG_UART_UART.c ****         {
 373:Generated_Source\PSoC4/DEBUG_UART_UART.c ****             /* Set GPIO to drive output pin */
 374:Generated_Source\PSoC4/DEBUG_UART_UART.c ****             DEBUG_UART_SET_HSIOM_SEL(DEBUG_UART_TX_SCL_MISO_HSIOM_REG, DEBUG_UART_TX_SCL_MISO_HSIOM
 375:Generated_Source\PSoC4/DEBUG_UART_UART.c ****                                            DEBUG_UART_TX_SCL_MISO_HSIOM_POS, DEBUG_UART_TX_SCL_MISO
 376:Generated_Source\PSoC4/DEBUG_UART_UART.c ****         }
 377:Generated_Source\PSoC4/DEBUG_UART_UART.c ****     #endif /* (DEBUG_UART_TX_SCL_MISO_PIN_PIN) */
 378:Generated_Source\PSoC4/DEBUG_UART_UART.c **** 
 379:Generated_Source\PSoC4/DEBUG_UART_UART.c ****     #if !(DEBUG_UART_CY_SCBIP_V0 || DEBUG_UART_CY_SCBIP_V1)
 380:Generated_Source\PSoC4/DEBUG_UART_UART.c ****         #if (DEBUG_UART_RTS_SS0_PIN)
 381:Generated_Source\PSoC4/DEBUG_UART_UART.c ****             if (DEBUG_UART_CHECK_RTS_SS0_PIN_USED)
 382:Generated_Source\PSoC4/DEBUG_UART_UART.c ****             {
 383:Generated_Source\PSoC4/DEBUG_UART_UART.c ****                 /* Set output pin state after block is disabled */
 384:Generated_Source\PSoC4/DEBUG_UART_UART.c ****                 DEBUG_UART_uart_rts_spi_ss0_Write(DEBUG_UART_GET_UART_RTS_INACTIVE);
 385:Generated_Source\PSoC4/DEBUG_UART_UART.c **** 
 386:Generated_Source\PSoC4/DEBUG_UART_UART.c ****                 /* Set GPIO to drive output pin */
 387:Generated_Source\PSoC4/DEBUG_UART_UART.c ****                 DEBUG_UART_SET_HSIOM_SEL(DEBUG_UART_RTS_SS0_HSIOM_REG, DEBUG_UART_RTS_SS0_HSIOM_MAS
 388:Generated_Source\PSoC4/DEBUG_UART_UART.c ****                                                DEBUG_UART_RTS_SS0_HSIOM_POS, DEBUG_UART_RTS_SS0_HSI
 389:Generated_Source\PSoC4/DEBUG_UART_UART.c ****             }
 390:Generated_Source\PSoC4/DEBUG_UART_UART.c ****         #endif /* (DEBUG_UART_RTS_SS0_PIN) */
 391:Generated_Source\PSoC4/DEBUG_UART_UART.c ****     #endif /* !(DEBUG_UART_CY_SCBIP_V0 || DEBUG_UART_CY_SCBIP_V1) */
 392:Generated_Source\PSoC4/DEBUG_UART_UART.c **** 
 393:Generated_Source\PSoC4/DEBUG_UART_UART.c **** #else
 394:Generated_Source\PSoC4/DEBUG_UART_UART.c ****     #if (DEBUG_UART_UART_TX_PIN)
 395:Generated_Source\PSoC4/DEBUG_UART_UART.c ****         /* Set GPIO to drive output pin */
 396:Generated_Source\PSoC4/DEBUG_UART_UART.c ****         DEBUG_UART_SET_HSIOM_SEL(DEBUG_UART_TX_HSIOM_REG, DEBUG_UART_TX_HSIOM_MASK,
 202              		.loc 1 396 0
 203 0000 064A     		ldr	r2, .L8
 204 0002 1168     		ldr	r1, [r2]
 205 0004 064B     		ldr	r3, .L8+4
 206 0006 0B40     		and	r3, r1
 207 0008 1360     		str	r3, [r2]
 397:Generated_Source\PSoC4/DEBUG_UART_UART.c ****                                        DEBUG_UART_TX_HSIOM_POS, DEBUG_UART_TX_HSIOM_SEL_GPIO);
 398:Generated_Source\PSoC4/DEBUG_UART_UART.c ****     #endif /* (DEBUG_UART_UART_TX_PIN) */
 399:Generated_Source\PSoC4/DEBUG_UART_UART.c **** 
 400:Generated_Source\PSoC4/DEBUG_UART_UART.c ****     #if (DEBUG_UART_UART_RTS_PIN)
 401:Generated_Source\PSoC4/DEBUG_UART_UART.c ****         /* Set output pin state after block is disabled */
 402:Generated_Source\PSoC4/DEBUG_UART_UART.c ****         DEBUG_UART_rts_Write(DEBUG_UART_GET_UART_RTS_INACTIVE);
 403:Generated_Source\PSoC4/DEBUG_UART_UART.c **** 
 404:Generated_Source\PSoC4/DEBUG_UART_UART.c ****         /* Set GPIO to drive output pin */
 405:Generated_Source\PSoC4/DEBUG_UART_UART.c ****         DEBUG_UART_SET_HSIOM_SEL(DEBUG_UART_RTS_HSIOM_REG, DEBUG_UART_RTS_HSIOM_MASK,
 406:Generated_Source\PSoC4/DEBUG_UART_UART.c ****                                        DEBUG_UART_RTS_HSIOM_POS, DEBUG_UART_RTS_HSIOM_SEL_GPIO);
 407:Generated_Source\PSoC4/DEBUG_UART_UART.c ****     #endif /* (DEBUG_UART_UART_RTS_PIN) */
 408:Generated_Source\PSoC4/DEBUG_UART_UART.c **** 
 409:Generated_Source\PSoC4/DEBUG_UART_UART.c **** #endif /* (DEBUG_UART_SCB_MODE_UNCONFIG_CONST_CFG) */
 410:Generated_Source\PSoC4/DEBUG_UART_UART.c **** 
 411:Generated_Source\PSoC4/DEBUG_UART_UART.c **** #if (DEBUG_UART_UART_WAKE_ENABLE_CONST)
 412:Generated_Source\PSoC4/DEBUG_UART_UART.c ****     /* Disable skip start feature used for wakeup */
 413:Generated_Source\PSoC4/DEBUG_UART_UART.c ****     DEBUG_UART_UART_RX_CTRL_REG &= (uint32) ~DEBUG_UART_UART_RX_CTRL_SKIP_START;
 414:Generated_Source\PSoC4/DEBUG_UART_UART.c **** #endif /* (DEBUG_UART_UART_WAKE_ENABLE_CONST) */
 415:Generated_Source\PSoC4/DEBUG_UART_UART.c **** 
 416:Generated_Source\PSoC4/DEBUG_UART_UART.c ****     /* Store TX interrupt sources (exclude level triggered). */
 417:Generated_Source\PSoC4/DEBUG_UART_UART.c ****     DEBUG_UART_IntrTxMask = LO16(DEBUG_UART_GetTxInterruptMode() & DEBUG_UART_INTR_UART_TX_RESTORE)
 208              		.loc 1 417 0
 209 000a 064B     		ldr	r3, .L8+8
 210 000c 1A68     		ldr	r2, [r3]
ARM GAS  C:\Users\Petro\AppData\Local\Temp\ccOLLjqi.s 			page 12


 211 000e E423     		mov	r3, #228
 212 0010 DB00     		lsl	r3, r3, #3
 213 0012 1340     		and	r3, r2
 214 0014 044A     		ldr	r2, .L8+12
 215 0016 1380     		strh	r3, [r2]
 418:Generated_Source\PSoC4/DEBUG_UART_UART.c **** }
 216              		.loc 1 418 0
 217              		@ sp needed
 218 0018 7047     		bx	lr
 219              	.L9:
 220 001a C046     		.align	2
 221              	.L8:
 222 001c 00000240 		.word	1073872896
 223 0020 FFFF0FFF 		.word	-15728641
 224 0024 880F2440 		.word	1076105096
 225 0028 00000000 		.word	DEBUG_UART_IntrTxMask
 226              		.cfi_endproc
 227              	.LFE4:
 228              		.size	DEBUG_UART_UartStop, .-DEBUG_UART_UartStop
 229              		.section	.text.DEBUG_UART_UartSetRxAddress,"ax",%progbits
 230              		.align	2
 231              		.global	DEBUG_UART_UartSetRxAddress
 232              		.code	16
 233              		.thumb_func
 234              		.type	DEBUG_UART_UartSetRxAddress, %function
 235              	DEBUG_UART_UartSetRxAddress:
 236              	.LFB5:
 419:Generated_Source\PSoC4/DEBUG_UART_UART.c **** 
 420:Generated_Source\PSoC4/DEBUG_UART_UART.c **** 
 421:Generated_Source\PSoC4/DEBUG_UART_UART.c **** /*******************************************************************************
 422:Generated_Source\PSoC4/DEBUG_UART_UART.c **** * Function Name: DEBUG_UART_UartSetRxAddress
 423:Generated_Source\PSoC4/DEBUG_UART_UART.c **** ****************************************************************************//**
 424:Generated_Source\PSoC4/DEBUG_UART_UART.c **** *
 425:Generated_Source\PSoC4/DEBUG_UART_UART.c **** *  Sets the hardware detectable receiver address for the UART in the
 426:Generated_Source\PSoC4/DEBUG_UART_UART.c **** *  Multiprocessor mode.
 427:Generated_Source\PSoC4/DEBUG_UART_UART.c **** *
 428:Generated_Source\PSoC4/DEBUG_UART_UART.c **** *  \param address: Address for hardware address detection.
 429:Generated_Source\PSoC4/DEBUG_UART_UART.c **** *
 430:Generated_Source\PSoC4/DEBUG_UART_UART.c **** *******************************************************************************/
 431:Generated_Source\PSoC4/DEBUG_UART_UART.c **** void DEBUG_UART_UartSetRxAddress(uint32 address)
 432:Generated_Source\PSoC4/DEBUG_UART_UART.c **** {
 237              		.loc 1 432 0
 238              		.cfi_startproc
 239              	.LVL3:
 433:Generated_Source\PSoC4/DEBUG_UART_UART.c ****      uint32 matchReg;
 434:Generated_Source\PSoC4/DEBUG_UART_UART.c **** 
 435:Generated_Source\PSoC4/DEBUG_UART_UART.c ****     matchReg = DEBUG_UART_RX_MATCH_REG;
 240              		.loc 1 435 0
 241 0000 034A     		ldr	r2, .L11
 242 0002 1368     		ldr	r3, [r2]
 243              	.LVL4:
 436:Generated_Source\PSoC4/DEBUG_UART_UART.c **** 
 437:Generated_Source\PSoC4/DEBUG_UART_UART.c ****     matchReg &= ((uint32) ~DEBUG_UART_RX_MATCH_ADDR_MASK); /* Clear address bits */
 244              		.loc 1 437 0
 245 0004 FF21     		mov	r1, #255
 246 0006 8B43     		bic	r3, r1
 247              	.LVL5:
ARM GAS  C:\Users\Petro\AppData\Local\Temp\ccOLLjqi.s 			page 13


 438:Generated_Source\PSoC4/DEBUG_UART_UART.c ****     matchReg |= ((uint32)  (address & DEBUG_UART_RX_MATCH_ADDR_MASK)); /* Set address  */
 248              		.loc 1 438 0
 249 0008 0840     		and	r0, r1
 250              	.LVL6:
 251 000a 1843     		orr	r0, r3
 252              	.LVL7:
 439:Generated_Source\PSoC4/DEBUG_UART_UART.c **** 
 440:Generated_Source\PSoC4/DEBUG_UART_UART.c ****     DEBUG_UART_RX_MATCH_REG = matchReg;
 253              		.loc 1 440 0
 254 000c 1060     		str	r0, [r2]
 441:Generated_Source\PSoC4/DEBUG_UART_UART.c **** }
 255              		.loc 1 441 0
 256              		@ sp needed
 257 000e 7047     		bx	lr
 258              	.L12:
 259              		.align	2
 260              	.L11:
 261 0010 10032440 		.word	1076101904
 262              		.cfi_endproc
 263              	.LFE5:
 264              		.size	DEBUG_UART_UartSetRxAddress, .-DEBUG_UART_UartSetRxAddress
 265              		.section	.text.DEBUG_UART_UartSetRxAddressMask,"ax",%progbits
 266              		.align	2
 267              		.global	DEBUG_UART_UartSetRxAddressMask
 268              		.code	16
 269              		.thumb_func
 270              		.type	DEBUG_UART_UartSetRxAddressMask, %function
 271              	DEBUG_UART_UartSetRxAddressMask:
 272              	.LFB6:
 442:Generated_Source\PSoC4/DEBUG_UART_UART.c **** 
 443:Generated_Source\PSoC4/DEBUG_UART_UART.c **** 
 444:Generated_Source\PSoC4/DEBUG_UART_UART.c **** /*******************************************************************************
 445:Generated_Source\PSoC4/DEBUG_UART_UART.c **** * Function Name: DEBUG_UART_UartSetRxAddressMask
 446:Generated_Source\PSoC4/DEBUG_UART_UART.c **** ****************************************************************************//**
 447:Generated_Source\PSoC4/DEBUG_UART_UART.c **** *
 448:Generated_Source\PSoC4/DEBUG_UART_UART.c **** *  Sets the hardware address mask for the UART in the Multiprocessor mode.
 449:Generated_Source\PSoC4/DEBUG_UART_UART.c **** *
 450:Generated_Source\PSoC4/DEBUG_UART_UART.c **** *  \param addressMask: Address mask.
 451:Generated_Source\PSoC4/DEBUG_UART_UART.c **** *   - Bit value 0 – excludes bit from address comparison.
 452:Generated_Source\PSoC4/DEBUG_UART_UART.c **** *   - Bit value 1 – the bit needs to match with the corresponding bit
 453:Generated_Source\PSoC4/DEBUG_UART_UART.c **** *     of the address.
 454:Generated_Source\PSoC4/DEBUG_UART_UART.c **** *
 455:Generated_Source\PSoC4/DEBUG_UART_UART.c **** *******************************************************************************/
 456:Generated_Source\PSoC4/DEBUG_UART_UART.c **** void DEBUG_UART_UartSetRxAddressMask(uint32 addressMask)
 457:Generated_Source\PSoC4/DEBUG_UART_UART.c **** {
 273              		.loc 1 457 0
 274              		.cfi_startproc
 275              	.LVL8:
 458:Generated_Source\PSoC4/DEBUG_UART_UART.c ****     uint32 matchReg;
 459:Generated_Source\PSoC4/DEBUG_UART_UART.c **** 
 460:Generated_Source\PSoC4/DEBUG_UART_UART.c ****     matchReg = DEBUG_UART_RX_MATCH_REG;
 276              		.loc 1 460 0
 277 0000 034A     		ldr	r2, .L14
 278 0002 1168     		ldr	r1, [r2]
 279              	.LVL9:
 461:Generated_Source\PSoC4/DEBUG_UART_UART.c **** 
 462:Generated_Source\PSoC4/DEBUG_UART_UART.c ****     matchReg &= ((uint32) ~DEBUG_UART_RX_MATCH_MASK_MASK); /* Clear address mask bits */
ARM GAS  C:\Users\Petro\AppData\Local\Temp\ccOLLjqi.s 			page 14


 280              		.loc 1 462 0
 281 0004 034B     		ldr	r3, .L14+4
 282 0006 0B40     		and	r3, r1
 283              	.LVL10:
 463:Generated_Source\PSoC4/DEBUG_UART_UART.c ****     matchReg |= ((uint32) (addressMask << DEBUG_UART_RX_MATCH_MASK_POS));
 284              		.loc 1 463 0
 285 0008 0004     		lsl	r0, r0, #16
 286              	.LVL11:
 287 000a 1843     		orr	r0, r3
 288              	.LVL12:
 464:Generated_Source\PSoC4/DEBUG_UART_UART.c **** 
 465:Generated_Source\PSoC4/DEBUG_UART_UART.c ****     DEBUG_UART_RX_MATCH_REG = matchReg;
 289              		.loc 1 465 0
 290 000c 1060     		str	r0, [r2]
 466:Generated_Source\PSoC4/DEBUG_UART_UART.c **** }
 291              		.loc 1 466 0
 292              		@ sp needed
 293 000e 7047     		bx	lr
 294              	.L15:
 295              		.align	2
 296              	.L14:
 297 0010 10032440 		.word	1076101904
 298 0014 FFFF00FF 		.word	-16711681
 299              		.cfi_endproc
 300              	.LFE6:
 301              		.size	DEBUG_UART_UartSetRxAddressMask, .-DEBUG_UART_UartSetRxAddressMask
 302              		.section	.text.DEBUG_UART_UartGetChar,"ax",%progbits
 303              		.align	2
 304              		.global	DEBUG_UART_UartGetChar
 305              		.code	16
 306              		.thumb_func
 307              		.type	DEBUG_UART_UartGetChar, %function
 308              	DEBUG_UART_UartGetChar:
 309              	.LFB7:
 467:Generated_Source\PSoC4/DEBUG_UART_UART.c **** 
 468:Generated_Source\PSoC4/DEBUG_UART_UART.c **** 
 469:Generated_Source\PSoC4/DEBUG_UART_UART.c **** #if(DEBUG_UART_UART_RX_DIRECTION)
 470:Generated_Source\PSoC4/DEBUG_UART_UART.c ****     /*******************************************************************************
 471:Generated_Source\PSoC4/DEBUG_UART_UART.c ****     * Function Name: DEBUG_UART_UartGetChar
 472:Generated_Source\PSoC4/DEBUG_UART_UART.c ****     ****************************************************************************//**
 473:Generated_Source\PSoC4/DEBUG_UART_UART.c ****     *
 474:Generated_Source\PSoC4/DEBUG_UART_UART.c ****     *  Retrieves next data element from receive buffer.
 475:Generated_Source\PSoC4/DEBUG_UART_UART.c ****     *  This function is designed for ASCII characters and returns a char where
 476:Generated_Source\PSoC4/DEBUG_UART_UART.c ****     *  1 to 255 are valid characters and 0 indicates an error occurred or no data
 477:Generated_Source\PSoC4/DEBUG_UART_UART.c ****     *  is present.
 478:Generated_Source\PSoC4/DEBUG_UART_UART.c ****     *  - RX software buffer is disabled: Returns data element retrieved from RX
 479:Generated_Source\PSoC4/DEBUG_UART_UART.c ****     *    FIFO.
 480:Generated_Source\PSoC4/DEBUG_UART_UART.c ****     *  - RX software buffer is enabled: Returns data element from the software
 481:Generated_Source\PSoC4/DEBUG_UART_UART.c ****     *    receive buffer.
 482:Generated_Source\PSoC4/DEBUG_UART_UART.c ****     *
 483:Generated_Source\PSoC4/DEBUG_UART_UART.c ****     *  \return
 484:Generated_Source\PSoC4/DEBUG_UART_UART.c ****     *   Next data element from the receive buffer. ASCII character values from
 485:Generated_Source\PSoC4/DEBUG_UART_UART.c ****     *   1 to 255 are valid. A returned zero signifies an error condition or no
 486:Generated_Source\PSoC4/DEBUG_UART_UART.c ****     *   data available.
 487:Generated_Source\PSoC4/DEBUG_UART_UART.c ****     *
 488:Generated_Source\PSoC4/DEBUG_UART_UART.c ****     *  \sideeffect
 489:Generated_Source\PSoC4/DEBUG_UART_UART.c ****     *   The errors bits may not correspond with reading characters due to
ARM GAS  C:\Users\Petro\AppData\Local\Temp\ccOLLjqi.s 			page 15


 490:Generated_Source\PSoC4/DEBUG_UART_UART.c ****     *   RX FIFO and software buffer usage.
 491:Generated_Source\PSoC4/DEBUG_UART_UART.c ****     *   RX software buffer is enabled: The internal software buffer overflow
 492:Generated_Source\PSoC4/DEBUG_UART_UART.c ****     *   is not treated as an error condition.
 493:Generated_Source\PSoC4/DEBUG_UART_UART.c ****     *   Check DEBUG_UART_rxBufferOverflow to capture that error condition.
 494:Generated_Source\PSoC4/DEBUG_UART_UART.c ****     *
 495:Generated_Source\PSoC4/DEBUG_UART_UART.c ****     *******************************************************************************/
 496:Generated_Source\PSoC4/DEBUG_UART_UART.c ****     uint32 DEBUG_UART_UartGetChar(void)
 497:Generated_Source\PSoC4/DEBUG_UART_UART.c ****     {
 310              		.loc 1 497 0
 311              		.cfi_startproc
 312 0000 08B5     		push	{r3, lr}
 313              		.cfi_def_cfa_offset 8
 314              		.cfi_offset 3, -8
 315              		.cfi_offset 14, -4
 316              	.LVL13:
 498:Generated_Source\PSoC4/DEBUG_UART_UART.c ****         uint32 rxData = 0u;
 499:Generated_Source\PSoC4/DEBUG_UART_UART.c **** 
 500:Generated_Source\PSoC4/DEBUG_UART_UART.c ****         /* Reads data only if there is data to read */
 501:Generated_Source\PSoC4/DEBUG_UART_UART.c ****         if (0u != DEBUG_UART_SpiUartGetRxBufferSize())
 317              		.loc 1 501 0
 318 0002 FFF7FEFF 		bl	DEBUG_UART_SpiUartGetRxBufferSize
 319              	.LVL14:
 320 0006 0028     		cmp	r0, #0
 321 0008 02D0     		beq	.L19
 502:Generated_Source\PSoC4/DEBUG_UART_UART.c ****         {
 503:Generated_Source\PSoC4/DEBUG_UART_UART.c ****             rxData = DEBUG_UART_SpiUartReadRxData();
 322              		.loc 1 503 0
 323 000a FFF7FEFF 		bl	DEBUG_UART_SpiUartReadRxData
 324              	.LVL15:
 325 000e 00E0     		b	.L17
 326              	.LVL16:
 327              	.L19:
 498:Generated_Source\PSoC4/DEBUG_UART_UART.c ****         uint32 rxData = 0u;
 328              		.loc 1 498 0
 329 0010 0020     		mov	r0, #0
 330              	.LVL17:
 331              	.L17:
 504:Generated_Source\PSoC4/DEBUG_UART_UART.c ****         }
 505:Generated_Source\PSoC4/DEBUG_UART_UART.c **** 
 506:Generated_Source\PSoC4/DEBUG_UART_UART.c ****         if (DEBUG_UART_CHECK_INTR_RX(DEBUG_UART_INTR_RX_ERR))
 332              		.loc 1 506 0
 333 0012 054B     		ldr	r3, .L20
 334 0014 1A68     		ldr	r2, [r3]
 335 0016 D823     		mov	r3, #216
 336 0018 9B00     		lsl	r3, r3, #2
 337 001a 1A42     		tst	r2, r3
 338 001c 03D0     		beq	.L18
 339              	.LVL18:
 507:Generated_Source\PSoC4/DEBUG_UART_UART.c ****         {
 508:Generated_Source\PSoC4/DEBUG_UART_UART.c ****             rxData = 0u; /* Error occurred: returns zero */
 509:Generated_Source\PSoC4/DEBUG_UART_UART.c ****             DEBUG_UART_ClearRxInterruptSource(DEBUG_UART_INTR_RX_ERR);
 340              		.loc 1 509 0
 341 001e 1A1C     		mov	r2, r3
 342 0020 014B     		ldr	r3, .L20
 343 0022 1A60     		str	r2, [r3]
 508:Generated_Source\PSoC4/DEBUG_UART_UART.c ****             DEBUG_UART_ClearRxInterruptSource(DEBUG_UART_INTR_RX_ERR);
 344              		.loc 1 508 0
ARM GAS  C:\Users\Petro\AppData\Local\Temp\ccOLLjqi.s 			page 16


 345 0024 0020     		mov	r0, #0
 346              	.LVL19:
 347              	.L18:
 510:Generated_Source\PSoC4/DEBUG_UART_UART.c ****         }
 511:Generated_Source\PSoC4/DEBUG_UART_UART.c **** 
 512:Generated_Source\PSoC4/DEBUG_UART_UART.c ****         return (rxData);
 513:Generated_Source\PSoC4/DEBUG_UART_UART.c ****     }
 348              		.loc 1 513 0
 349              		@ sp needed
 350 0026 08BD     		pop	{r3, pc}
 351              	.L21:
 352              		.align	2
 353              	.L20:
 354 0028 C00F2440 		.word	1076105152
 355              		.cfi_endproc
 356              	.LFE7:
 357              		.size	DEBUG_UART_UartGetChar, .-DEBUG_UART_UartGetChar
 358              		.section	.text.DEBUG_UART_UartGetByte,"ax",%progbits
 359              		.align	2
 360              		.global	DEBUG_UART_UartGetByte
 361              		.code	16
 362              		.thumb_func
 363              		.type	DEBUG_UART_UartGetByte, %function
 364              	DEBUG_UART_UartGetByte:
 365              	.LFB8:
 514:Generated_Source\PSoC4/DEBUG_UART_UART.c **** 
 515:Generated_Source\PSoC4/DEBUG_UART_UART.c **** 
 516:Generated_Source\PSoC4/DEBUG_UART_UART.c ****     /*******************************************************************************
 517:Generated_Source\PSoC4/DEBUG_UART_UART.c ****     * Function Name: DEBUG_UART_UartGetByte
 518:Generated_Source\PSoC4/DEBUG_UART_UART.c ****     ****************************************************************************//**
 519:Generated_Source\PSoC4/DEBUG_UART_UART.c ****     *
 520:Generated_Source\PSoC4/DEBUG_UART_UART.c ****     *  Retrieves the next data element from the receive buffer, returns the
 521:Generated_Source\PSoC4/DEBUG_UART_UART.c ****     *  received byte and error condition.
 522:Generated_Source\PSoC4/DEBUG_UART_UART.c ****     *   - The RX software buffer is disabled: returns the data element retrieved
 523:Generated_Source\PSoC4/DEBUG_UART_UART.c ****     *     from the RX FIFO. Undefined data will be returned if the RX FIFO is
 524:Generated_Source\PSoC4/DEBUG_UART_UART.c ****     *     empty.
 525:Generated_Source\PSoC4/DEBUG_UART_UART.c ****     *   - The RX software buffer is enabled: returns data element from the
 526:Generated_Source\PSoC4/DEBUG_UART_UART.c ****     *     software receive buffer.
 527:Generated_Source\PSoC4/DEBUG_UART_UART.c ****     *
 528:Generated_Source\PSoC4/DEBUG_UART_UART.c ****     *  \return
 529:Generated_Source\PSoC4/DEBUG_UART_UART.c ****     *   Bits 7-0 contain the next data element from the receive buffer and
 530:Generated_Source\PSoC4/DEBUG_UART_UART.c ****     *   other bits contain the error condition.
 531:Generated_Source\PSoC4/DEBUG_UART_UART.c ****     *   - DEBUG_UART_UART_RX_OVERFLOW - Attempt to write to a full
 532:Generated_Source\PSoC4/DEBUG_UART_UART.c ****     *     receiver FIFO.
 533:Generated_Source\PSoC4/DEBUG_UART_UART.c ****     *   - DEBUG_UART_UART_RX_UNDERFLOW	Attempt to read from an empty
 534:Generated_Source\PSoC4/DEBUG_UART_UART.c ****     *     receiver FIFO.
 535:Generated_Source\PSoC4/DEBUG_UART_UART.c ****     *   - DEBUG_UART_UART_RX_FRAME_ERROR - UART framing error detected.
 536:Generated_Source\PSoC4/DEBUG_UART_UART.c ****     *   - DEBUG_UART_UART_RX_PARITY_ERROR - UART parity error detected.
 537:Generated_Source\PSoC4/DEBUG_UART_UART.c ****     *
 538:Generated_Source\PSoC4/DEBUG_UART_UART.c ****     *  \sideeffect
 539:Generated_Source\PSoC4/DEBUG_UART_UART.c ****     *   The errors bits may not correspond with reading characters due to
 540:Generated_Source\PSoC4/DEBUG_UART_UART.c ****     *   RX FIFO and software buffer usage.
 541:Generated_Source\PSoC4/DEBUG_UART_UART.c ****     *   RX software buffer is enabled: The internal software buffer overflow
 542:Generated_Source\PSoC4/DEBUG_UART_UART.c ****     *   is not treated as an error condition.
 543:Generated_Source\PSoC4/DEBUG_UART_UART.c ****     *   Check DEBUG_UART_rxBufferOverflow to capture that error condition.
 544:Generated_Source\PSoC4/DEBUG_UART_UART.c ****     *
 545:Generated_Source\PSoC4/DEBUG_UART_UART.c ****     *******************************************************************************/
ARM GAS  C:\Users\Petro\AppData\Local\Temp\ccOLLjqi.s 			page 17


 546:Generated_Source\PSoC4/DEBUG_UART_UART.c ****     uint32 DEBUG_UART_UartGetByte(void)
 547:Generated_Source\PSoC4/DEBUG_UART_UART.c ****     {
 366              		.loc 1 547 0
 367              		.cfi_startproc
 368 0000 10B5     		push	{r4, lr}
 369              		.cfi_def_cfa_offset 8
 370              		.cfi_offset 4, -8
 371              		.cfi_offset 14, -4
 548:Generated_Source\PSoC4/DEBUG_UART_UART.c ****         uint32 rxData;
 549:Generated_Source\PSoC4/DEBUG_UART_UART.c ****         uint32 tmpStatus;
 550:Generated_Source\PSoC4/DEBUG_UART_UART.c **** 
 551:Generated_Source\PSoC4/DEBUG_UART_UART.c ****         #if (DEBUG_UART_CHECK_RX_SW_BUFFER)
 552:Generated_Source\PSoC4/DEBUG_UART_UART.c ****         {
 553:Generated_Source\PSoC4/DEBUG_UART_UART.c ****             DEBUG_UART_DisableInt();
 372              		.loc 1 553 0
 373 0002 0920     		mov	r0, #9
 374 0004 FFF7FEFF 		bl	CyIntDisable
 375              	.LVL20:
 554:Generated_Source\PSoC4/DEBUG_UART_UART.c ****         }
 555:Generated_Source\PSoC4/DEBUG_UART_UART.c ****         #endif
 556:Generated_Source\PSoC4/DEBUG_UART_UART.c **** 
 557:Generated_Source\PSoC4/DEBUG_UART_UART.c ****         if (0u != DEBUG_UART_SpiUartGetRxBufferSize())
 376              		.loc 1 557 0
 377 0008 FFF7FEFF 		bl	DEBUG_UART_SpiUartGetRxBufferSize
 378              	.LVL21:
 379 000c 0028     		cmp	r0, #0
 380 000e 06D0     		beq	.L23
 558:Generated_Source\PSoC4/DEBUG_UART_UART.c ****         {
 559:Generated_Source\PSoC4/DEBUG_UART_UART.c ****             /* Enables interrupt to receive more bytes: at least one byte is in
 560:Generated_Source\PSoC4/DEBUG_UART_UART.c ****             * buffer.
 561:Generated_Source\PSoC4/DEBUG_UART_UART.c ****             */
 562:Generated_Source\PSoC4/DEBUG_UART_UART.c ****             #if (DEBUG_UART_CHECK_RX_SW_BUFFER)
 563:Generated_Source\PSoC4/DEBUG_UART_UART.c ****             {
 564:Generated_Source\PSoC4/DEBUG_UART_UART.c ****                 DEBUG_UART_EnableInt();
 381              		.loc 1 564 0
 382 0010 0920     		mov	r0, #9
 383 0012 FFF7FEFF 		bl	CyIntEnable
 384              	.LVL22:
 565:Generated_Source\PSoC4/DEBUG_UART_UART.c ****             }
 566:Generated_Source\PSoC4/DEBUG_UART_UART.c ****             #endif
 567:Generated_Source\PSoC4/DEBUG_UART_UART.c **** 
 568:Generated_Source\PSoC4/DEBUG_UART_UART.c ****             /* Get received byte */
 569:Generated_Source\PSoC4/DEBUG_UART_UART.c ****             rxData = DEBUG_UART_SpiUartReadRxData();
 385              		.loc 1 569 0
 386 0016 FFF7FEFF 		bl	DEBUG_UART_SpiUartReadRxData
 387              	.LVL23:
 388 001a 041C     		mov	r4, r0
 389              	.LVL24:
 390 001c 07E0     		b	.L24
 391              	.LVL25:
 392              	.L23:
 570:Generated_Source\PSoC4/DEBUG_UART_UART.c ****         }
 571:Generated_Source\PSoC4/DEBUG_UART_UART.c ****         else
 572:Generated_Source\PSoC4/DEBUG_UART_UART.c ****         {
 573:Generated_Source\PSoC4/DEBUG_UART_UART.c ****             /* Reads a byte directly from RX FIFO: underflow is raised in the
 574:Generated_Source\PSoC4/DEBUG_UART_UART.c ****             * case of empty. Otherwise the first received byte will be read.
 575:Generated_Source\PSoC4/DEBUG_UART_UART.c ****             */
ARM GAS  C:\Users\Petro\AppData\Local\Temp\ccOLLjqi.s 			page 18


 576:Generated_Source\PSoC4/DEBUG_UART_UART.c ****             rxData = DEBUG_UART_RX_FIFO_RD_REG;
 393              		.loc 1 576 0
 394 001e 084B     		ldr	r3, .L25
 395 0020 1C68     		ldr	r4, [r3]
 396              	.LVL26:
 577:Generated_Source\PSoC4/DEBUG_UART_UART.c **** 
 578:Generated_Source\PSoC4/DEBUG_UART_UART.c **** 
 579:Generated_Source\PSoC4/DEBUG_UART_UART.c ****             /* Enables interrupt to receive more bytes. */
 580:Generated_Source\PSoC4/DEBUG_UART_UART.c ****             #if (DEBUG_UART_CHECK_RX_SW_BUFFER)
 581:Generated_Source\PSoC4/DEBUG_UART_UART.c ****             {
 582:Generated_Source\PSoC4/DEBUG_UART_UART.c **** 
 583:Generated_Source\PSoC4/DEBUG_UART_UART.c ****                 /* The byte has been read from RX FIFO. Clear RX interrupt to
 584:Generated_Source\PSoC4/DEBUG_UART_UART.c ****                 * not involve interrupt handler when RX FIFO is empty.
 585:Generated_Source\PSoC4/DEBUG_UART_UART.c ****                 */
 586:Generated_Source\PSoC4/DEBUG_UART_UART.c ****                 DEBUG_UART_ClearRxInterruptSource(DEBUG_UART_INTR_RX_NOT_EMPTY);
 397              		.loc 1 586 0
 398 0022 0422     		mov	r2, #4
 399 0024 074B     		ldr	r3, .L25+4
 400 0026 1A60     		str	r2, [r3]
 587:Generated_Source\PSoC4/DEBUG_UART_UART.c **** 
 588:Generated_Source\PSoC4/DEBUG_UART_UART.c ****                 DEBUG_UART_EnableInt();
 401              		.loc 1 588 0
 402 0028 0920     		mov	r0, #9
 403 002a FFF7FEFF 		bl	CyIntEnable
 404              	.LVL27:
 405              	.L24:
 589:Generated_Source\PSoC4/DEBUG_UART_UART.c ****             }
 590:Generated_Source\PSoC4/DEBUG_UART_UART.c ****             #endif
 591:Generated_Source\PSoC4/DEBUG_UART_UART.c ****         }
 592:Generated_Source\PSoC4/DEBUG_UART_UART.c **** 
 593:Generated_Source\PSoC4/DEBUG_UART_UART.c ****         /* Get and clear RX error mask */
 594:Generated_Source\PSoC4/DEBUG_UART_UART.c ****         tmpStatus = (DEBUG_UART_GetRxInterruptSource() & DEBUG_UART_INTR_RX_ERR);
 406              		.loc 1 594 0
 407 002e 054B     		ldr	r3, .L25+4
 408 0030 1868     		ldr	r0, [r3]
 409 0032 D822     		mov	r2, #216
 410 0034 9200     		lsl	r2, r2, #2
 411 0036 1040     		and	r0, r2
 412              	.LVL28:
 595:Generated_Source\PSoC4/DEBUG_UART_UART.c ****         DEBUG_UART_ClearRxInterruptSource(DEBUG_UART_INTR_RX_ERR);
 413              		.loc 1 595 0
 414 0038 1A60     		str	r2, [r3]
 596:Generated_Source\PSoC4/DEBUG_UART_UART.c **** 
 597:Generated_Source\PSoC4/DEBUG_UART_UART.c ****         /* Puts together data and error status:
 598:Generated_Source\PSoC4/DEBUG_UART_UART.c ****         * MP mode and accept address: 9th bit is set to notify mark.
 599:Generated_Source\PSoC4/DEBUG_UART_UART.c ****         */
 600:Generated_Source\PSoC4/DEBUG_UART_UART.c ****         rxData |= ((uint32) (tmpStatus << 8u));
 415              		.loc 1 600 0
 416 003a 0002     		lsl	r0, r0, #8
 417              	.LVL29:
 418 003c 2043     		orr	r0, r4
 419              	.LVL30:
 601:Generated_Source\PSoC4/DEBUG_UART_UART.c **** 
 602:Generated_Source\PSoC4/DEBUG_UART_UART.c ****         return (rxData);
 603:Generated_Source\PSoC4/DEBUG_UART_UART.c ****     }
 420              		.loc 1 603 0
 421              		@ sp needed
ARM GAS  C:\Users\Petro\AppData\Local\Temp\ccOLLjqi.s 			page 19


 422 003e 10BD     		pop	{r4, pc}
 423              	.L26:
 424              		.align	2
 425              	.L25:
 426 0040 40032440 		.word	1076101952
 427 0044 C00F2440 		.word	1076105152
 428              		.cfi_endproc
 429              	.LFE8:
 430              		.size	DEBUG_UART_UartGetByte, .-DEBUG_UART_UartGetByte
 431              		.section	.text.DEBUG_UART_UartSetRtsPolarity,"ax",%progbits
 432              		.align	2
 433              		.global	DEBUG_UART_UartSetRtsPolarity
 434              		.code	16
 435              		.thumb_func
 436              		.type	DEBUG_UART_UartSetRtsPolarity, %function
 437              	DEBUG_UART_UartSetRtsPolarity:
 438              	.LFB9:
 604:Generated_Source\PSoC4/DEBUG_UART_UART.c **** 
 605:Generated_Source\PSoC4/DEBUG_UART_UART.c **** 
 606:Generated_Source\PSoC4/DEBUG_UART_UART.c ****     #if !(DEBUG_UART_CY_SCBIP_V0 || DEBUG_UART_CY_SCBIP_V1)
 607:Generated_Source\PSoC4/DEBUG_UART_UART.c ****         /*******************************************************************************
 608:Generated_Source\PSoC4/DEBUG_UART_UART.c ****         * Function Name: DEBUG_UART_UartSetRtsPolarity
 609:Generated_Source\PSoC4/DEBUG_UART_UART.c ****         ****************************************************************************//**
 610:Generated_Source\PSoC4/DEBUG_UART_UART.c ****         *
 611:Generated_Source\PSoC4/DEBUG_UART_UART.c ****         *  Sets active polarity of RTS output signal.
 612:Generated_Source\PSoC4/DEBUG_UART_UART.c ****         *  Only available for PSoC 4100 BLE / PSoC 4200 BLE / PSoC 4100M / PSoC 4200M /
 613:Generated_Source\PSoC4/DEBUG_UART_UART.c ****         *  PSoC 4200L / PSoC 4000S / PSoC 4100S / PSoC Analog Coprocessor devices.
 614:Generated_Source\PSoC4/DEBUG_UART_UART.c ****         *
 615:Generated_Source\PSoC4/DEBUG_UART_UART.c ****         *  \param polarity: Active polarity of RTS output signal.
 616:Generated_Source\PSoC4/DEBUG_UART_UART.c ****         *   - DEBUG_UART_UART_RTS_ACTIVE_LOW  - RTS signal is active low.
 617:Generated_Source\PSoC4/DEBUG_UART_UART.c ****         *   - DEBUG_UART_UART_RTS_ACTIVE_HIGH - RTS signal is active high.
 618:Generated_Source\PSoC4/DEBUG_UART_UART.c ****         *
 619:Generated_Source\PSoC4/DEBUG_UART_UART.c ****         *******************************************************************************/
 620:Generated_Source\PSoC4/DEBUG_UART_UART.c ****         void DEBUG_UART_UartSetRtsPolarity(uint32 polarity)
 621:Generated_Source\PSoC4/DEBUG_UART_UART.c ****         {
 439              		.loc 1 621 0
 440              		.cfi_startproc
 441              	.LVL31:
 622:Generated_Source\PSoC4/DEBUG_UART_UART.c ****             if(0u != polarity)
 442              		.loc 1 622 0
 443 0000 0028     		cmp	r0, #0
 444 0002 06D0     		beq	.L28
 623:Generated_Source\PSoC4/DEBUG_UART_UART.c ****             {
 624:Generated_Source\PSoC4/DEBUG_UART_UART.c ****                 DEBUG_UART_UART_FLOW_CTRL_REG |= (uint32)  DEBUG_UART_UART_FLOW_CTRL_RTS_POLARITY;
 445              		.loc 1 624 0
 446 0004 064A     		ldr	r2, .L30
 447 0006 1368     		ldr	r3, [r2]
 448 0008 8021     		mov	r1, #128
 449 000a 4902     		lsl	r1, r1, #9
 450 000c 0B43     		orr	r3, r1
 451 000e 1360     		str	r3, [r2]
 452 0010 04E0     		b	.L27
 453              	.L28:
 625:Generated_Source\PSoC4/DEBUG_UART_UART.c ****             }
 626:Generated_Source\PSoC4/DEBUG_UART_UART.c ****             else
 627:Generated_Source\PSoC4/DEBUG_UART_UART.c ****             {
 628:Generated_Source\PSoC4/DEBUG_UART_UART.c ****                 DEBUG_UART_UART_FLOW_CTRL_REG &= (uint32) ~DEBUG_UART_UART_FLOW_CTRL_RTS_POLARITY;
ARM GAS  C:\Users\Petro\AppData\Local\Temp\ccOLLjqi.s 			page 20


 454              		.loc 1 628 0
 455 0012 034A     		ldr	r2, .L30
 456 0014 1168     		ldr	r1, [r2]
 457 0016 034B     		ldr	r3, .L30+4
 458 0018 0B40     		and	r3, r1
 459 001a 1360     		str	r3, [r2]
 460              	.L27:
 629:Generated_Source\PSoC4/DEBUG_UART_UART.c ****             }
 630:Generated_Source\PSoC4/DEBUG_UART_UART.c ****         }
 461              		.loc 1 630 0
 462              		@ sp needed
 463 001c 7047     		bx	lr
 464              	.L31:
 465 001e C046     		.align	2
 466              	.L30:
 467 0020 50002440 		.word	1076101200
 468 0024 FFFFFEFF 		.word	-65537
 469              		.cfi_endproc
 470              	.LFE9:
 471              		.size	DEBUG_UART_UartSetRtsPolarity, .-DEBUG_UART_UartSetRtsPolarity
 472              		.section	.text.DEBUG_UART_UartSetRtsFifoLevel,"ax",%progbits
 473              		.align	2
 474              		.global	DEBUG_UART_UartSetRtsFifoLevel
 475              		.code	16
 476              		.thumb_func
 477              		.type	DEBUG_UART_UartSetRtsFifoLevel, %function
 478              	DEBUG_UART_UartSetRtsFifoLevel:
 479              	.LFB10:
 631:Generated_Source\PSoC4/DEBUG_UART_UART.c **** 
 632:Generated_Source\PSoC4/DEBUG_UART_UART.c **** 
 633:Generated_Source\PSoC4/DEBUG_UART_UART.c ****         /*******************************************************************************
 634:Generated_Source\PSoC4/DEBUG_UART_UART.c ****         * Function Name: DEBUG_UART_UartSetRtsFifoLevel
 635:Generated_Source\PSoC4/DEBUG_UART_UART.c ****         ****************************************************************************//**
 636:Generated_Source\PSoC4/DEBUG_UART_UART.c ****         *
 637:Generated_Source\PSoC4/DEBUG_UART_UART.c ****         *  Sets level in the RX FIFO for RTS signal activation.
 638:Generated_Source\PSoC4/DEBUG_UART_UART.c ****         *  While the RX FIFO has fewer entries than the RX FIFO level the RTS signal
 639:Generated_Source\PSoC4/DEBUG_UART_UART.c ****         *  remains active, otherwise the RTS signal becomes inactive.
 640:Generated_Source\PSoC4/DEBUG_UART_UART.c ****         *  Only available for PSoC 4100 BLE / PSoC 4200 BLE / PSoC 4100M / PSoC 4200M /
 641:Generated_Source\PSoC4/DEBUG_UART_UART.c ****         *  PSoC 4200L / PSoC 4000S / PSoC 4100S / PSoC Analog Coprocessor devices.
 642:Generated_Source\PSoC4/DEBUG_UART_UART.c ****         *
 643:Generated_Source\PSoC4/DEBUG_UART_UART.c ****         *  \param level: Level in the RX FIFO for RTS signal activation.
 644:Generated_Source\PSoC4/DEBUG_UART_UART.c ****         *   The range of valid level values is between 0 and RX FIFO depth - 1.
 645:Generated_Source\PSoC4/DEBUG_UART_UART.c ****         *   Setting level value to 0 disables RTS signal activation.
 646:Generated_Source\PSoC4/DEBUG_UART_UART.c ****         *
 647:Generated_Source\PSoC4/DEBUG_UART_UART.c ****         *******************************************************************************/
 648:Generated_Source\PSoC4/DEBUG_UART_UART.c ****         void DEBUG_UART_UartSetRtsFifoLevel(uint32 level)
 649:Generated_Source\PSoC4/DEBUG_UART_UART.c ****         {
 480              		.loc 1 649 0
 481              		.cfi_startproc
 482              	.LVL32:
 650:Generated_Source\PSoC4/DEBUG_UART_UART.c ****             uint32 uartFlowCtrl;
 651:Generated_Source\PSoC4/DEBUG_UART_UART.c **** 
 652:Generated_Source\PSoC4/DEBUG_UART_UART.c ****             uartFlowCtrl = DEBUG_UART_UART_FLOW_CTRL_REG;
 483              		.loc 1 652 0
 484 0000 034A     		ldr	r2, .L33
 485 0002 1368     		ldr	r3, [r2]
 486              	.LVL33:
ARM GAS  C:\Users\Petro\AppData\Local\Temp\ccOLLjqi.s 			page 21


 653:Generated_Source\PSoC4/DEBUG_UART_UART.c **** 
 654:Generated_Source\PSoC4/DEBUG_UART_UART.c ****             uartFlowCtrl &= ((uint32) ~DEBUG_UART_UART_FLOW_CTRL_TRIGGER_LEVEL_MASK); /* Clear leve
 487              		.loc 1 654 0
 488 0004 0F21     		mov	r1, #15
 489 0006 8B43     		bic	r3, r1
 490              	.LVL34:
 655:Generated_Source\PSoC4/DEBUG_UART_UART.c ****             uartFlowCtrl |= ((uint32) (DEBUG_UART_UART_FLOW_CTRL_TRIGGER_LEVEL_MASK & level));
 491              		.loc 1 655 0
 492 0008 0840     		and	r0, r1
 493              	.LVL35:
 494 000a 1843     		orr	r0, r3
 495              	.LVL36:
 656:Generated_Source\PSoC4/DEBUG_UART_UART.c **** 
 657:Generated_Source\PSoC4/DEBUG_UART_UART.c ****             DEBUG_UART_UART_FLOW_CTRL_REG = uartFlowCtrl;
 496              		.loc 1 657 0
 497 000c 1060     		str	r0, [r2]
 658:Generated_Source\PSoC4/DEBUG_UART_UART.c ****         }
 498              		.loc 1 658 0
 499              		@ sp needed
 500 000e 7047     		bx	lr
 501              	.L34:
 502              		.align	2
 503              	.L33:
 504 0010 50002440 		.word	1076101200
 505              		.cfi_endproc
 506              	.LFE10:
 507              		.size	DEBUG_UART_UartSetRtsFifoLevel, .-DEBUG_UART_UartSetRtsFifoLevel
 508              		.section	.text.DEBUG_UART_UartPutString,"ax",%progbits
 509              		.align	2
 510              		.global	DEBUG_UART_UartPutString
 511              		.code	16
 512              		.thumb_func
 513              		.type	DEBUG_UART_UartPutString, %function
 514              	DEBUG_UART_UartPutString:
 515              	.LFB11:
 659:Generated_Source\PSoC4/DEBUG_UART_UART.c ****     #endif /* !(DEBUG_UART_CY_SCBIP_V0 || DEBUG_UART_CY_SCBIP_V1) */
 660:Generated_Source\PSoC4/DEBUG_UART_UART.c **** 
 661:Generated_Source\PSoC4/DEBUG_UART_UART.c **** #endif /* (DEBUG_UART_UART_RX_DIRECTION) */
 662:Generated_Source\PSoC4/DEBUG_UART_UART.c **** 
 663:Generated_Source\PSoC4/DEBUG_UART_UART.c **** 
 664:Generated_Source\PSoC4/DEBUG_UART_UART.c **** #if(DEBUG_UART_UART_TX_DIRECTION)
 665:Generated_Source\PSoC4/DEBUG_UART_UART.c ****     /*******************************************************************************
 666:Generated_Source\PSoC4/DEBUG_UART_UART.c ****     * Function Name: DEBUG_UART_UartPutString
 667:Generated_Source\PSoC4/DEBUG_UART_UART.c ****     ****************************************************************************//**
 668:Generated_Source\PSoC4/DEBUG_UART_UART.c ****     *
 669:Generated_Source\PSoC4/DEBUG_UART_UART.c ****     *  Places a NULL terminated string in the transmit buffer to be sent at the
 670:Generated_Source\PSoC4/DEBUG_UART_UART.c ****     *  next available bus time.
 671:Generated_Source\PSoC4/DEBUG_UART_UART.c ****     *  This function is blocking and waits until there is a space available to put
 672:Generated_Source\PSoC4/DEBUG_UART_UART.c ****     *  requested data in transmit buffer.
 673:Generated_Source\PSoC4/DEBUG_UART_UART.c ****     *
 674:Generated_Source\PSoC4/DEBUG_UART_UART.c ****     *  \param string: pointer to the null terminated string array to be placed in the
 675:Generated_Source\PSoC4/DEBUG_UART_UART.c ****     *   transmit buffer.
 676:Generated_Source\PSoC4/DEBUG_UART_UART.c ****     *
 677:Generated_Source\PSoC4/DEBUG_UART_UART.c ****     *******************************************************************************/
 678:Generated_Source\PSoC4/DEBUG_UART_UART.c ****     void DEBUG_UART_UartPutString(const char8 string[])
 679:Generated_Source\PSoC4/DEBUG_UART_UART.c ****     {
 516              		.loc 1 679 0
ARM GAS  C:\Users\Petro\AppData\Local\Temp\ccOLLjqi.s 			page 22


 517              		.cfi_startproc
 518              	.LVL37:
 519 0000 38B5     		push	{r3, r4, r5, lr}
 520              		.cfi_def_cfa_offset 16
 521              		.cfi_offset 3, -16
 522              		.cfi_offset 4, -12
 523              		.cfi_offset 5, -8
 524              		.cfi_offset 14, -4
 525 0002 051C     		mov	r5, r0
 526              	.LVL38:
 680:Generated_Source\PSoC4/DEBUG_UART_UART.c ****         uint32 bufIndex;
 681:Generated_Source\PSoC4/DEBUG_UART_UART.c **** 
 682:Generated_Source\PSoC4/DEBUG_UART_UART.c ****         bufIndex = 0u;
 527              		.loc 1 682 0
 528 0004 0024     		mov	r4, #0
 683:Generated_Source\PSoC4/DEBUG_UART_UART.c **** 
 684:Generated_Source\PSoC4/DEBUG_UART_UART.c ****         /* Blocks the control flow until all data has been sent */
 685:Generated_Source\PSoC4/DEBUG_UART_UART.c ****         while(string[bufIndex] != ((char8) 0))
 529              		.loc 1 685 0
 530 0006 02E0     		b	.L36
 531              	.LVL39:
 532              	.L37:
 686:Generated_Source\PSoC4/DEBUG_UART_UART.c ****         {
 687:Generated_Source\PSoC4/DEBUG_UART_UART.c ****             DEBUG_UART_UartPutChar((uint32) string[bufIndex]);
 533              		.loc 1 687 0
 534 0008 FFF7FEFF 		bl	DEBUG_UART_SpiUartWriteTxData
 535              	.LVL40:
 688:Generated_Source\PSoC4/DEBUG_UART_UART.c ****             bufIndex++;
 536              		.loc 1 688 0
 537 000c 0134     		add	r4, r4, #1
 538              	.LVL41:
 539              	.L36:
 685:Generated_Source\PSoC4/DEBUG_UART_UART.c ****         {
 540              		.loc 1 685 0
 541 000e 285D     		ldrb	r0, [r5, r4]
 542 0010 0028     		cmp	r0, #0
 543 0012 F9D1     		bne	.L37
 689:Generated_Source\PSoC4/DEBUG_UART_UART.c ****         }
 690:Generated_Source\PSoC4/DEBUG_UART_UART.c ****     }
 544              		.loc 1 690 0
 545              		@ sp needed
 546              	.LVL42:
 547              	.LVL43:
 548 0014 38BD     		pop	{r3, r4, r5, pc}
 549              		.cfi_endproc
 550              	.LFE11:
 551              		.size	DEBUG_UART_UartPutString, .-DEBUG_UART_UartPutString
 552 0016 C046     		.section	.text.DEBUG_UART_UartPutCRLF,"ax",%progbits
 553              		.align	2
 554              		.global	DEBUG_UART_UartPutCRLF
 555              		.code	16
 556              		.thumb_func
 557              		.type	DEBUG_UART_UartPutCRLF, %function
 558              	DEBUG_UART_UartPutCRLF:
 559              	.LFB12:
 691:Generated_Source\PSoC4/DEBUG_UART_UART.c **** 
 692:Generated_Source\PSoC4/DEBUG_UART_UART.c **** 
ARM GAS  C:\Users\Petro\AppData\Local\Temp\ccOLLjqi.s 			page 23


 693:Generated_Source\PSoC4/DEBUG_UART_UART.c ****     /*******************************************************************************
 694:Generated_Source\PSoC4/DEBUG_UART_UART.c ****     * Function Name: DEBUG_UART_UartPutCRLF
 695:Generated_Source\PSoC4/DEBUG_UART_UART.c ****     ****************************************************************************//**
 696:Generated_Source\PSoC4/DEBUG_UART_UART.c ****     *
 697:Generated_Source\PSoC4/DEBUG_UART_UART.c ****     *  Places byte of data followed by a carriage return (0x0D) and line feed
 698:Generated_Source\PSoC4/DEBUG_UART_UART.c ****     *  (0x0A) in the transmit buffer.
 699:Generated_Source\PSoC4/DEBUG_UART_UART.c ****     *  This function is blocking and waits until there is a space available to put
 700:Generated_Source\PSoC4/DEBUG_UART_UART.c ****     *  all requested data in transmit buffer.
 701:Generated_Source\PSoC4/DEBUG_UART_UART.c ****     *
 702:Generated_Source\PSoC4/DEBUG_UART_UART.c ****     *  \param txDataByte: the data to be transmitted.
 703:Generated_Source\PSoC4/DEBUG_UART_UART.c ****     *
 704:Generated_Source\PSoC4/DEBUG_UART_UART.c ****     *******************************************************************************/
 705:Generated_Source\PSoC4/DEBUG_UART_UART.c ****     void DEBUG_UART_UartPutCRLF(uint32 txDataByte)
 706:Generated_Source\PSoC4/DEBUG_UART_UART.c ****     {
 560              		.loc 1 706 0
 561              		.cfi_startproc
 562              	.LVL44:
 563 0000 08B5     		push	{r3, lr}
 564              		.cfi_def_cfa_offset 8
 565              		.cfi_offset 3, -8
 566              		.cfi_offset 14, -4
 707:Generated_Source\PSoC4/DEBUG_UART_UART.c ****         DEBUG_UART_UartPutChar(txDataByte);  /* Blocks control flow until all data has been sent */
 567              		.loc 1 707 0
 568 0002 FFF7FEFF 		bl	DEBUG_UART_SpiUartWriteTxData
 569              	.LVL45:
 708:Generated_Source\PSoC4/DEBUG_UART_UART.c ****         DEBUG_UART_UartPutChar(0x0Du);       /* Blocks control flow until all data has been sent */
 570              		.loc 1 708 0
 571 0006 0D20     		mov	r0, #13
 572 0008 FFF7FEFF 		bl	DEBUG_UART_SpiUartWriteTxData
 573              	.LVL46:
 709:Generated_Source\PSoC4/DEBUG_UART_UART.c ****         DEBUG_UART_UartPutChar(0x0Au);       /* Blocks control flow until all data has been sent */
 574              		.loc 1 709 0
 575 000c 0A20     		mov	r0, #10
 576 000e FFF7FEFF 		bl	DEBUG_UART_SpiUartWriteTxData
 577              	.LVL47:
 710:Generated_Source\PSoC4/DEBUG_UART_UART.c ****     }
 578              		.loc 1 710 0
 579              		@ sp needed
 580 0012 08BD     		pop	{r3, pc}
 581              		.cfi_endproc
 582              	.LFE12:
 583              		.size	DEBUG_UART_UartPutCRLF, .-DEBUG_UART_UartPutCRLF
 584              		.section	.text.DEBUG_UART_UartEnableCts,"ax",%progbits
 585              		.align	2
 586              		.global	DEBUG_UART_UartEnableCts
 587              		.code	16
 588              		.thumb_func
 589              		.type	DEBUG_UART_UartEnableCts, %function
 590              	DEBUG_UART_UartEnableCts:
 591              	.LFB13:
 711:Generated_Source\PSoC4/DEBUG_UART_UART.c **** 
 712:Generated_Source\PSoC4/DEBUG_UART_UART.c **** 
 713:Generated_Source\PSoC4/DEBUG_UART_UART.c ****     #if !(DEBUG_UART_CY_SCBIP_V0 || DEBUG_UART_CY_SCBIP_V1)
 714:Generated_Source\PSoC4/DEBUG_UART_UART.c ****         /*******************************************************************************
 715:Generated_Source\PSoC4/DEBUG_UART_UART.c ****         * Function Name: DEBUG_UARTSCB_UartEnableCts
 716:Generated_Source\PSoC4/DEBUG_UART_UART.c ****         ****************************************************************************//**
 717:Generated_Source\PSoC4/DEBUG_UART_UART.c ****         *
ARM GAS  C:\Users\Petro\AppData\Local\Temp\ccOLLjqi.s 			page 24


 718:Generated_Source\PSoC4/DEBUG_UART_UART.c ****         *  Enables usage of CTS input signal by the UART transmitter.
 719:Generated_Source\PSoC4/DEBUG_UART_UART.c ****         *  Only available for PSoC 4100 BLE / PSoC 4200 BLE / PSoC 4100M / PSoC 4200M /
 720:Generated_Source\PSoC4/DEBUG_UART_UART.c ****         *  PSoC 4200L / PSoC 4000S / PSoC 4100S / PSoC Analog Coprocessor devices.
 721:Generated_Source\PSoC4/DEBUG_UART_UART.c ****         *
 722:Generated_Source\PSoC4/DEBUG_UART_UART.c ****         *******************************************************************************/
 723:Generated_Source\PSoC4/DEBUG_UART_UART.c ****         void DEBUG_UART_UartEnableCts(void)
 724:Generated_Source\PSoC4/DEBUG_UART_UART.c ****         {
 592              		.loc 1 724 0
 593              		.cfi_startproc
 725:Generated_Source\PSoC4/DEBUG_UART_UART.c ****             DEBUG_UART_UART_FLOW_CTRL_REG |= (uint32)  DEBUG_UART_UART_FLOW_CTRL_CTS_ENABLE;
 594              		.loc 1 725 0
 595 0000 034A     		ldr	r2, .L40
 596 0002 1368     		ldr	r3, [r2]
 597 0004 8021     		mov	r1, #128
 598 0006 8904     		lsl	r1, r1, #18
 599 0008 0B43     		orr	r3, r1
 600 000a 1360     		str	r3, [r2]
 726:Generated_Source\PSoC4/DEBUG_UART_UART.c ****         }
 601              		.loc 1 726 0
 602              		@ sp needed
 603 000c 7047     		bx	lr
 604              	.L41:
 605 000e C046     		.align	2
 606              	.L40:
 607 0010 50002440 		.word	1076101200
 608              		.cfi_endproc
 609              	.LFE13:
 610              		.size	DEBUG_UART_UartEnableCts, .-DEBUG_UART_UartEnableCts
 611              		.section	.text.DEBUG_UART_UartDisableCts,"ax",%progbits
 612              		.align	2
 613              		.global	DEBUG_UART_UartDisableCts
 614              		.code	16
 615              		.thumb_func
 616              		.type	DEBUG_UART_UartDisableCts, %function
 617              	DEBUG_UART_UartDisableCts:
 618              	.LFB14:
 727:Generated_Source\PSoC4/DEBUG_UART_UART.c **** 
 728:Generated_Source\PSoC4/DEBUG_UART_UART.c **** 
 729:Generated_Source\PSoC4/DEBUG_UART_UART.c ****         /*******************************************************************************
 730:Generated_Source\PSoC4/DEBUG_UART_UART.c ****         * Function Name: DEBUG_UART_UartDisableCts
 731:Generated_Source\PSoC4/DEBUG_UART_UART.c ****         ****************************************************************************//**
 732:Generated_Source\PSoC4/DEBUG_UART_UART.c ****         *
 733:Generated_Source\PSoC4/DEBUG_UART_UART.c ****         *  Disables usage of CTS input signal by the UART transmitter.
 734:Generated_Source\PSoC4/DEBUG_UART_UART.c ****         *  Only available for PSoC 4100 BLE / PSoC 4200 BLE / PSoC 4100M / PSoC 4200M /
 735:Generated_Source\PSoC4/DEBUG_UART_UART.c ****         *  PSoC 4200L / PSoC 4000S / PSoC 4100S / PSoC Analog Coprocessor devices.
 736:Generated_Source\PSoC4/DEBUG_UART_UART.c ****         *
 737:Generated_Source\PSoC4/DEBUG_UART_UART.c ****         *******************************************************************************/
 738:Generated_Source\PSoC4/DEBUG_UART_UART.c ****         void DEBUG_UART_UartDisableCts(void)
 739:Generated_Source\PSoC4/DEBUG_UART_UART.c ****         {
 619              		.loc 1 739 0
 620              		.cfi_startproc
 740:Generated_Source\PSoC4/DEBUG_UART_UART.c ****             DEBUG_UART_UART_FLOW_CTRL_REG &= (uint32) ~DEBUG_UART_UART_FLOW_CTRL_CTS_ENABLE;
 621              		.loc 1 740 0
 622 0000 024A     		ldr	r2, .L43
 623 0002 1168     		ldr	r1, [r2]
 624 0004 024B     		ldr	r3, .L43+4
 625 0006 0B40     		and	r3, r1
ARM GAS  C:\Users\Petro\AppData\Local\Temp\ccOLLjqi.s 			page 25


 626 0008 1360     		str	r3, [r2]
 741:Generated_Source\PSoC4/DEBUG_UART_UART.c ****         }
 627              		.loc 1 741 0
 628              		@ sp needed
 629 000a 7047     		bx	lr
 630              	.L44:
 631              		.align	2
 632              	.L43:
 633 000c 50002440 		.word	1076101200
 634 0010 FFFFFFFD 		.word	-33554433
 635              		.cfi_endproc
 636              	.LFE14:
 637              		.size	DEBUG_UART_UartDisableCts, .-DEBUG_UART_UartDisableCts
 638              		.section	.text.DEBUG_UART_UartSetCtsPolarity,"ax",%progbits
 639              		.align	2
 640              		.global	DEBUG_UART_UartSetCtsPolarity
 641              		.code	16
 642              		.thumb_func
 643              		.type	DEBUG_UART_UartSetCtsPolarity, %function
 644              	DEBUG_UART_UartSetCtsPolarity:
 645              	.LFB15:
 742:Generated_Source\PSoC4/DEBUG_UART_UART.c **** 
 743:Generated_Source\PSoC4/DEBUG_UART_UART.c **** 
 744:Generated_Source\PSoC4/DEBUG_UART_UART.c ****         /*******************************************************************************
 745:Generated_Source\PSoC4/DEBUG_UART_UART.c ****         * Function Name: DEBUG_UART_UartSetCtsPolarity
 746:Generated_Source\PSoC4/DEBUG_UART_UART.c ****         ****************************************************************************//**
 747:Generated_Source\PSoC4/DEBUG_UART_UART.c ****         *
 748:Generated_Source\PSoC4/DEBUG_UART_UART.c ****         *  Sets active polarity of CTS input signal.
 749:Generated_Source\PSoC4/DEBUG_UART_UART.c ****         *  Only available for PSoC 4100 BLE / PSoC 4200 BLE / PSoC 4100M / PSoC 4200M /
 750:Generated_Source\PSoC4/DEBUG_UART_UART.c ****         *  PSoC 4200L / PSoC 4000S / PSoC 4100S / PSoC Analog Coprocessor devices.
 751:Generated_Source\PSoC4/DEBUG_UART_UART.c ****         *
 752:Generated_Source\PSoC4/DEBUG_UART_UART.c ****         *  \param polarity: Active polarity of CTS output signal.
 753:Generated_Source\PSoC4/DEBUG_UART_UART.c ****         *   - DEBUG_UART_UART_CTS_ACTIVE_LOW  - CTS signal is active low.
 754:Generated_Source\PSoC4/DEBUG_UART_UART.c ****         *   - DEBUG_UART_UART_CTS_ACTIVE_HIGH - CTS signal is active high.
 755:Generated_Source\PSoC4/DEBUG_UART_UART.c ****         *
 756:Generated_Source\PSoC4/DEBUG_UART_UART.c ****         *******************************************************************************/
 757:Generated_Source\PSoC4/DEBUG_UART_UART.c ****         void DEBUG_UART_UartSetCtsPolarity(uint32 polarity)
 758:Generated_Source\PSoC4/DEBUG_UART_UART.c ****         {
 646              		.loc 1 758 0
 647              		.cfi_startproc
 648              	.LVL48:
 759:Generated_Source\PSoC4/DEBUG_UART_UART.c ****             if (0u != polarity)
 649              		.loc 1 759 0
 650 0000 0028     		cmp	r0, #0
 651 0002 06D0     		beq	.L46
 760:Generated_Source\PSoC4/DEBUG_UART_UART.c ****             {
 761:Generated_Source\PSoC4/DEBUG_UART_UART.c ****                 DEBUG_UART_UART_FLOW_CTRL_REG |= (uint32)  DEBUG_UART_UART_FLOW_CTRL_CTS_POLARITY;
 652              		.loc 1 761 0
 653 0004 064A     		ldr	r2, .L48
 654 0006 1368     		ldr	r3, [r2]
 655 0008 8021     		mov	r1, #128
 656 000a 4904     		lsl	r1, r1, #17
 657 000c 0B43     		orr	r3, r1
 658 000e 1360     		str	r3, [r2]
 659 0010 04E0     		b	.L45
 660              	.L46:
 762:Generated_Source\PSoC4/DEBUG_UART_UART.c ****             }
ARM GAS  C:\Users\Petro\AppData\Local\Temp\ccOLLjqi.s 			page 26


 763:Generated_Source\PSoC4/DEBUG_UART_UART.c ****             else
 764:Generated_Source\PSoC4/DEBUG_UART_UART.c ****             {
 765:Generated_Source\PSoC4/DEBUG_UART_UART.c ****                 DEBUG_UART_UART_FLOW_CTRL_REG &= (uint32) ~DEBUG_UART_UART_FLOW_CTRL_CTS_POLARITY;
 661              		.loc 1 765 0
 662 0012 034A     		ldr	r2, .L48
 663 0014 1168     		ldr	r1, [r2]
 664 0016 034B     		ldr	r3, .L48+4
 665 0018 0B40     		and	r3, r1
 666 001a 1360     		str	r3, [r2]
 667              	.L45:
 766:Generated_Source\PSoC4/DEBUG_UART_UART.c ****             }
 767:Generated_Source\PSoC4/DEBUG_UART_UART.c ****         }
 668              		.loc 1 767 0
 669              		@ sp needed
 670 001c 7047     		bx	lr
 671              	.L49:
 672 001e C046     		.align	2
 673              	.L48:
 674 0020 50002440 		.word	1076101200
 675 0024 FFFFFFFE 		.word	-16777217
 676              		.cfi_endproc
 677              	.LFE15:
 678              		.size	DEBUG_UART_UartSetCtsPolarity, .-DEBUG_UART_UartSetCtsPolarity
 679              		.text
 680              	.Letext0:
 681              		.file 2 "Generated_Source\\PSoC4/cytypes.h"
 682              		.file 3 "Generated_Source\\PSoC4\\DEBUG_UART_PVT.h"
 683              		.file 4 "Generated_Source\\PSoC4\\DEBUG_UART_SPI_UART_PVT.h"
 684              		.file 5 "Generated_Source\\PSoC4/CyLib.h"
 685              		.file 6 "Generated_Source\\PSoC4\\DEBUG_UART_SPI_UART.h"