ARM GAS  C:\Users\Petro\AppData\Local\Temp\ccGTDDaf.s 			page 1


   1              		.cpu cortex-m0
   2              		.fpu softvfp
   3              		.eabi_attribute 20, 1
   4              		.eabi_attribute 21, 1
   5              		.eabi_attribute 23, 3
   6              		.eabi_attribute 24, 1
   7              		.eabi_attribute 25, 1
   8              		.eabi_attribute 26, 1
   9              		.eabi_attribute 30, 6
  10              		.eabi_attribute 34, 0
  11              		.eabi_attribute 18, 4
  12              		.code	16
  13              		.file	"debug.c"
  14              		.text
  15              	.Ltext0:
  16              		.cfi_sections	.debug_frame
  17              		.global _printf_float
  18              		.code	16
  19              		.section	.text._write,"ax",%progbits
  20              		.align	2
  21              		.global	_write
  22              		.code	16
  23              		.thumb_func
  24              		.type	_write, %function
  25              	_write:
  26              	.LFB37:
  27              		.file 1 ".\\debug.c"
   1:.\debug.c     **** /*******************************************************************************
   2:.\debug.c     **** * File Name: debug.c
   3:.\debug.c     **** *
   4:.\debug.c     **** * Version: 1.0
   5:.\debug.c     **** *
   6:.\debug.c     **** * Description:
   7:.\debug.c     **** *  This file contains functions for printf functionality.
   8:.\debug.c     **** *
   9:.\debug.c     **** * Hardware Dependency:
  10:.\debug.c     **** *  CY8CKIT-042 BLE
  11:.\debug.c     **** * 
  12:.\debug.c     **** ********************************************************************************
  13:.\debug.c     **** * Copyright 2015, Cypress Semiconductor Corporation.  All rights reserved.
  14:.\debug.c     **** * You may use this file only in accordance with the license, terms, conditions,
  15:.\debug.c     **** * disclaimers, and limitations in the end user license agreement accompanying
  16:.\debug.c     **** * the software package with which this file was provided.
  17:.\debug.c     **** *******************************************************************************/
  18:.\debug.c     **** 
  19:.\debug.c     **** 
  20:.\debug.c     **** #include "common.h"
  21:.\debug.c     **** 
  22:.\debug.c     **** #if (DEBUG_UART_ENABLED == ENABLED)
  23:.\debug.c     **** 
  24:.\debug.c     **** #if defined(__ARMCC_VERSION)
  25:.\debug.c     ****     
  26:.\debug.c     **** /* For MDK/RVDS compiler revise fputc function for printf functionality */
  27:.\debug.c     **** struct __FILE 
  28:.\debug.c     **** {
  29:.\debug.c     ****     int handle;  
  30:.\debug.c     **** };
ARM GAS  C:\Users\Petro\AppData\Local\Temp\ccGTDDaf.s 			page 2


  31:.\debug.c     **** 
  32:.\debug.c     **** enum 
  33:.\debug.c     **** {
  34:.\debug.c     ****     STDIN_HANDLE,
  35:.\debug.c     ****     STDOUT_HANDLE,
  36:.\debug.c     ****     STDERR_HANDLE
  37:.\debug.c     **** };
  38:.\debug.c     **** 
  39:.\debug.c     **** FILE __stdin = {STDIN_HANDLE};
  40:.\debug.c     **** FILE __stdout = {STDOUT_HANDLE};
  41:.\debug.c     **** FILE __stderr = {STDERR_HANDLE};
  42:.\debug.c     **** 
  43:.\debug.c     **** int fputc(int ch, FILE *file) 
  44:.\debug.c     **** {
  45:.\debug.c     ****     int ret = EOF;
  46:.\debug.c     **** 
  47:.\debug.c     ****     switch( file->handle )
  48:.\debug.c     ****     {
  49:.\debug.c     ****         case STDOUT_HANDLE:
  50:.\debug.c     ****             UART_DEB_UartPutChar(ch);
  51:.\debug.c     ****             ret = ch ;
  52:.\debug.c     ****             break ;
  53:.\debug.c     **** 
  54:.\debug.c     ****         case STDERR_HANDLE:
  55:.\debug.c     ****             ret = ch ;
  56:.\debug.c     ****             break ;
  57:.\debug.c     **** 
  58:.\debug.c     ****         default:
  59:.\debug.c     ****             file = file;
  60:.\debug.c     ****             break ;
  61:.\debug.c     ****     }
  62:.\debug.c     ****     return ret ;
  63:.\debug.c     **** }
  64:.\debug.c     **** 
  65:.\debug.c     **** #elif defined (__ICCARM__)      /* IAR */
  66:.\debug.c     **** 
  67:.\debug.c     **** /* For IAR compiler revise __write() function for printf functionality */
  68:.\debug.c     **** size_t __write(int handle, const unsigned char * buffer, size_t size)
  69:.\debug.c     **** {
  70:.\debug.c     ****     size_t nChars = 0;
  71:.\debug.c     **** 
  72:.\debug.c     ****     if (buffer == 0)
  73:.\debug.c     ****     {
  74:.\debug.c     ****         /*
  75:.\debug.c     ****          * This means that we should flush internal buffers.  Since we
  76:.\debug.c     ****          * don't we just return.  (Remember, "handle" == -1 means that all
  77:.\debug.c     ****          * handles should be flushed.)
  78:.\debug.c     ****          */
  79:.\debug.c     ****         return (0);
  80:.\debug.c     ****     }
  81:.\debug.c     **** 
  82:.\debug.c     ****     for (/* Empty */; size != 0; --size)
  83:.\debug.c     ****     {
  84:.\debug.c     ****         UART_DEB_UartPutChar(*buffer++);
  85:.\debug.c     ****         ++nChars;
  86:.\debug.c     ****     }
  87:.\debug.c     **** 
ARM GAS  C:\Users\Petro\AppData\Local\Temp\ccGTDDaf.s 			page 3


  88:.\debug.c     ****     return (nChars);
  89:.\debug.c     **** }
  90:.\debug.c     **** 
  91:.\debug.c     **** #else  /* (__GNUC__)  GCC */
  92:.\debug.c     **** 
  93:.\debug.c     **** /* For GCC compiler revise _write() function for printf functionality */
  94:.\debug.c     **** int _write(int file, char *ptr, int len)
  95:.\debug.c     **** {
  28              		.loc 1 95 0
  29              		.cfi_startproc
  30 0000 80B5     		push	{r7, lr}
  31              		.cfi_def_cfa_offset 8
  32              		.cfi_offset 7, -8
  33              		.cfi_offset 14, -4
  34 0002 86B0     		sub	sp, sp, #24
  35              		.cfi_def_cfa_offset 32
  36 0004 00AF     		add	r7, sp, #0
  37              		.cfi_def_cfa_register 7
  38 0006 F860     		str	r0, [r7, #12]
  39 0008 B960     		str	r1, [r7, #8]
  40 000a 7A60     		str	r2, [r7, #4]
  96:.\debug.c     ****     int i;
  97:.\debug.c     ****     file = file;
  98:.\debug.c     ****     for (i = 0; i < len; i++)
  41              		.loc 1 98 0
  42 000c 0023     		mov	r3, #0
  43 000e 7B61     		str	r3, [r7, #20]
  44 0010 09E0     		b	.L2
  45              	.L3:
  99:.\debug.c     ****     {
 100:.\debug.c     ****         UART_DEB_UartPutChar(*ptr++);
  46              		.loc 1 100 0 discriminator 3
  47 0012 BB68     		ldr	r3, [r7, #8]
  48 0014 5A1C     		add	r2, r3, #1
  49 0016 BA60     		str	r2, [r7, #8]
  50 0018 1B78     		ldrb	r3, [r3]
  51 001a 181C     		mov	r0, r3
  52 001c FFF7FEFF 		bl	UART_DEB_SpiUartWriteTxData
  98:.\debug.c     ****     {
  53              		.loc 1 98 0 discriminator 3
  54 0020 7B69     		ldr	r3, [r7, #20]
  55 0022 0133     		add	r3, r3, #1
  56 0024 7B61     		str	r3, [r7, #20]
  57              	.L2:
  98:.\debug.c     ****     {
  58              		.loc 1 98 0 is_stmt 0 discriminator 1
  59 0026 7A69     		ldr	r2, [r7, #20]
  60 0028 7B68     		ldr	r3, [r7, #4]
  61 002a 9A42     		cmp	r2, r3
  62 002c F1DB     		blt	.L3
 101:.\debug.c     ****     }
 102:.\debug.c     ****     return len;
  63              		.loc 1 102 0 is_stmt 1
  64 002e 7B68     		ldr	r3, [r7, #4]
 103:.\debug.c     **** }
  65              		.loc 1 103 0
  66 0030 181C     		mov	r0, r3
ARM GAS  C:\Users\Petro\AppData\Local\Temp\ccGTDDaf.s 			page 4


  67 0032 BD46     		mov	sp, r7
  68 0034 06B0     		add	sp, sp, #24
  69              		@ sp needed
  70 0036 80BD     		pop	{r7, pc}
  71              		.cfi_endproc
  72              	.LFE37:
  73              		.size	_write, .-_write
  74              		.section	.rodata
  75              		.align	2
  76              	.LC0:
  77 0000 25322E32 		.ascii	"%2.2x \000"
  77      782000
  78 0007 00       		.align	2
  79              	.LC2:
  80 0008 0D00     		.ascii	"\015\000"
  81 000a 0000     		.section	.text.ShowValue,"ax",%progbits
  82              		.align	2
  83              		.global	ShowValue
  84              		.code	16
  85              		.thumb_func
  86              		.type	ShowValue, %function
  87              	ShowValue:
  88              	.LFB38:
 104:.\debug.c     **** 
 105:.\debug.c     **** 
 106:.\debug.c     **** #endif  /* (__ARMCC_VERSION) */   
 107:.\debug.c     **** 
 108:.\debug.c     **** #endif /* DEBUG_UART_ENABLED == ENABLED */
 109:.\debug.c     **** 
 110:.\debug.c     **** 
 111:.\debug.c     **** void ShowValue(CYBLE_GATT_VALUE_T *value)
 112:.\debug.c     **** {
  89              		.loc 1 112 0
  90              		.cfi_startproc
  91 0000 80B5     		push	{r7, lr}
  92              		.cfi_def_cfa_offset 8
  93              		.cfi_offset 7, -8
  94              		.cfi_offset 14, -4
  95 0002 84B0     		sub	sp, sp, #16
  96              		.cfi_def_cfa_offset 24
  97 0004 00AF     		add	r7, sp, #0
  98              		.cfi_def_cfa_register 7
  99 0006 7860     		str	r0, [r7, #4]
 113:.\debug.c     ****     int16 i;
 114:.\debug.c     ****     
 115:.\debug.c     ****     for(i = 0; i < value->len; i++)
 100              		.loc 1 115 0
 101 0008 0E23     		mov	r3, #14
 102 000a FB18     		add	r3, r7, r3
 103 000c 0022     		mov	r2, #0
 104 000e 1A80     		strh	r2, [r3]
 105 0010 16E0     		b	.L6
 106              	.L7:
 116:.\debug.c     ****     {
 117:.\debug.c     ****         DBG_PRINTF("%2.2x ", value->val[i]);
 107              		.loc 1 117 0 discriminator 3
 108 0012 7B68     		ldr	r3, [r7, #4]
ARM GAS  C:\Users\Petro\AppData\Local\Temp\ccGTDDaf.s 			page 5


 109 0014 1A68     		ldr	r2, [r3]
 110 0016 0E23     		mov	r3, #14
 111 0018 FB18     		add	r3, r7, r3
 112 001a 0021     		mov	r1, #0
 113 001c 5B5E     		ldrsh	r3, [r3, r1]
 114 001e D318     		add	r3, r2, r3
 115 0020 1B78     		ldrb	r3, [r3]
 116 0022 1A1C     		mov	r2, r3
 117 0024 0E4B     		ldr	r3, .L8
 118 0026 181C     		mov	r0, r3
 119 0028 111C     		mov	r1, r2
 120 002a FFF7FEFF 		bl	printf
 115:.\debug.c     ****     {
 121              		.loc 1 115 0 discriminator 3
 122 002e 0E23     		mov	r3, #14
 123 0030 FB18     		add	r3, r7, r3
 124 0032 1B88     		ldrh	r3, [r3]
 125 0034 9BB2     		uxth	r3, r3
 126 0036 0133     		add	r3, r3, #1
 127 0038 9AB2     		uxth	r2, r3
 128 003a 0E23     		mov	r3, #14
 129 003c FB18     		add	r3, r7, r3
 130 003e 1A80     		strh	r2, [r3]
 131              	.L6:
 115:.\debug.c     ****     {
 132              		.loc 1 115 0 is_stmt 0 discriminator 1
 133 0040 0E23     		mov	r3, #14
 134 0042 FB18     		add	r3, r7, r3
 135 0044 0022     		mov	r2, #0
 136 0046 9B5E     		ldrsh	r3, [r3, r2]
 137 0048 7A68     		ldr	r2, [r7, #4]
 138 004a 9288     		ldrh	r2, [r2, #4]
 139 004c 9342     		cmp	r3, r2
 140 004e E0DB     		blt	.L7
 118:.\debug.c     ****     }
 119:.\debug.c     ****     DBG_PRINTF("\r\n");
 141              		.loc 1 119 0 is_stmt 1
 142 0050 044B     		ldr	r3, .L8+4
 143 0052 181C     		mov	r0, r3
 144 0054 FFF7FEFF 		bl	puts
 120:.\debug.c     **** }
 145              		.loc 1 120 0
 146 0058 BD46     		mov	sp, r7
 147 005a 04B0     		add	sp, sp, #16
 148              		@ sp needed
 149 005c 80BD     		pop	{r7, pc}
 150              	.L9:
 151 005e C046     		.align	2
 152              	.L8:
 153 0060 00000000 		.word	.LC0
 154 0064 08000000 		.word	.LC2
 155              		.cfi_endproc
 156              	.LFE38:
 157              		.size	ShowValue, .-ShowValue
 158              		.section	.text.Set32ByPtr,"ax",%progbits
 159              		.align	2
 160              		.global	Set32ByPtr
ARM GAS  C:\Users\Petro\AppData\Local\Temp\ccGTDDaf.s 			page 6


 161              		.code	16
 162              		.thumb_func
 163              		.type	Set32ByPtr, %function
 164              	Set32ByPtr:
 165              	.LFB39:
 121:.\debug.c     **** 
 122:.\debug.c     **** 
 123:.\debug.c     **** void Set32ByPtr(uint8 ptr[], uint32 value)
 124:.\debug.c     **** {
 166              		.loc 1 124 0
 167              		.cfi_startproc
 168 0000 80B5     		push	{r7, lr}
 169              		.cfi_def_cfa_offset 8
 170              		.cfi_offset 7, -8
 171              		.cfi_offset 14, -4
 172 0002 82B0     		sub	sp, sp, #8
 173              		.cfi_def_cfa_offset 16
 174 0004 00AF     		add	r7, sp, #0
 175              		.cfi_def_cfa_register 7
 176 0006 7860     		str	r0, [r7, #4]
 177 0008 3960     		str	r1, [r7]
 125:.\debug.c     ****     ptr[0u] = (uint8) value;
 178              		.loc 1 125 0
 179 000a 3B68     		ldr	r3, [r7]
 180 000c DAB2     		uxtb	r2, r3
 181 000e 7B68     		ldr	r3, [r7, #4]
 182 0010 1A70     		strb	r2, [r3]
 126:.\debug.c     ****     ptr[1u] = (uint8) (value >> 8u);    
 183              		.loc 1 126 0
 184 0012 7B68     		ldr	r3, [r7, #4]
 185 0014 0133     		add	r3, r3, #1
 186 0016 3A68     		ldr	r2, [r7]
 187 0018 120A     		lsr	r2, r2, #8
 188 001a D2B2     		uxtb	r2, r2
 189 001c 1A70     		strb	r2, [r3]
 127:.\debug.c     ****     ptr[2u] = (uint8) (value >> 16u);    
 190              		.loc 1 127 0
 191 001e 7B68     		ldr	r3, [r7, #4]
 192 0020 0233     		add	r3, r3, #2
 193 0022 3A68     		ldr	r2, [r7]
 194 0024 120C     		lsr	r2, r2, #16
 195 0026 D2B2     		uxtb	r2, r2
 196 0028 1A70     		strb	r2, [r3]
 128:.\debug.c     ****     ptr[3u] = (uint8) (value >> 24u);
 197              		.loc 1 128 0
 198 002a 7B68     		ldr	r3, [r7, #4]
 199 002c 0333     		add	r3, r3, #3
 200 002e 3A68     		ldr	r2, [r7]
 201 0030 120E     		lsr	r2, r2, #24
 202 0032 D2B2     		uxtb	r2, r2
 203 0034 1A70     		strb	r2, [r3]
 129:.\debug.c     **** }
 204              		.loc 1 129 0
 205 0036 BD46     		mov	sp, r7
 206 0038 02B0     		add	sp, sp, #8
 207              		@ sp needed
 208 003a 80BD     		pop	{r7, pc}
ARM GAS  C:\Users\Petro\AppData\Local\Temp\ccGTDDaf.s 			page 7


 209              		.cfi_endproc
 210              	.LFE39:
 211              		.size	Set32ByPtr, .-Set32ByPtr
 212              		.text
 213              	.Letext0:
 214              		.file 2 "Generated_Source\\PSoC4/cytypes.h"
 215              		.file 3 "Generated_Source\\PSoC4/BLE_StackGatt.h"