ARM GAS  C:\Users\Petro\AppData\Local\Temp\cc4lpBuc.s 			page 1


   1              		.cpu cortex-m0
   2              		.fpu softvfp
   3              		.eabi_attribute 20, 1
   4              		.eabi_attribute 21, 1
   5              		.eabi_attribute 23, 3
   6              		.eabi_attribute 24, 1
   7              		.eabi_attribute 25, 1
   8              		.eabi_attribute 26, 1
   9              		.eabi_attribute 30, 6
  10              		.eabi_attribute 34, 0
  11              		.eabi_attribute 18, 4
  12              		.code	16
  13              		.file	"logResult.c"
  14              		.text
  15              	.Ltext0:
  16              		.cfi_sections	.debug_frame
  17              		.section	.text.RTC_GetSecond,"ax",%progbits
  18              		.align	2
  19              		.code	16
  20              		.thumb_func
  21              		.type	RTC_GetSecond, %function
  22              	RTC_GetSecond:
  23              	.LFB4:
  24              		.file 1 "Generated_Source\\PSoC4/RTC.h"
   1:Generated_Source\PSoC4/RTC.h **** /***************************************************************************//**
   2:Generated_Source\PSoC4/RTC.h **** * \file Name: RTC.h
   3:Generated_Source\PSoC4/RTC.h **** * \version 1.10
   4:Generated_Source\PSoC4/RTC.h **** *
   5:Generated_Source\PSoC4/RTC.h **** * \brief
   6:Generated_Source\PSoC4/RTC.h **** *  This file provides constants and parameter values for the RTC_P4 Component.
   7:Generated_Source\PSoC4/RTC.h **** *
   8:Generated_Source\PSoC4/RTC.h **** ********************************************************************************
   9:Generated_Source\PSoC4/RTC.h **** * Copyright 2015-2016, Cypress Semiconductor Corporation.  All rights reserved.
  10:Generated_Source\PSoC4/RTC.h **** * You may use this file only in accordance with the license, terms, conditions,
  11:Generated_Source\PSoC4/RTC.h **** * disclaimers, and limitations in the end user license agreement accompanying
  12:Generated_Source\PSoC4/RTC.h **** * the software package with which this file was provided.
  13:Generated_Source\PSoC4/RTC.h **** *******************************************************************************/
  14:Generated_Source\PSoC4/RTC.h **** 
  15:Generated_Source\PSoC4/RTC.h **** #if !defined(CY_RTC_P4_RTC_H)
  16:Generated_Source\PSoC4/RTC.h **** #define CY_RTC_P4_RTC_H
  17:Generated_Source\PSoC4/RTC.h **** 
  18:Generated_Source\PSoC4/RTC.h **** #include <cytypes.h>
  19:Generated_Source\PSoC4/RTC.h **** #include <CyLib.h>
  20:Generated_Source\PSoC4/RTC.h **** 
  21:Generated_Source\PSoC4/RTC.h **** 
  22:Generated_Source\PSoC4/RTC.h **** /*******************************************************************************
  23:Generated_Source\PSoC4/RTC.h **** *    Data types definition
  24:Generated_Source\PSoC4/RTC.h **** *******************************************************************************/
  25:Generated_Source\PSoC4/RTC.h **** 
  26:Generated_Source\PSoC4/RTC.h **** typedef enum
  27:Generated_Source\PSoC4/RTC.h **** {
  28:Generated_Source\PSoC4/RTC.h ****     RTC_DST_DATE_RELATIVE = 0u,
  29:Generated_Source\PSoC4/RTC.h ****     RTC_DST_DATE_FIXED = 1u
  30:Generated_Source\PSoC4/RTC.h **** }RTC_DST_DATETYPE_ENUM;
  31:Generated_Source\PSoC4/RTC.h **** 
  32:Generated_Source\PSoC4/RTC.h **** /**
  33:Generated_Source\PSoC4/RTC.h **** * \addtogroup group_structures
ARM GAS  C:\Users\Petro\AppData\Local\Temp\cc4lpBuc.s 			page 2


  34:Generated_Source\PSoC4/RTC.h **** * @{
  35:Generated_Source\PSoC4/RTC.h **** */
  36:Generated_Source\PSoC4/RTC.h **** 
  37:Generated_Source\PSoC4/RTC.h **** /**
  38:Generated_Source\PSoC4/RTC.h **** * This is the data structure that is used to save the current time and date 
  39:Generated_Source\PSoC4/RTC.h **** * (RTC_currentTimeDate), and Alarm time and date (RTC_alarmCfgTimeDate).
  40:Generated_Source\PSoC4/RTC.h **** */
  41:Generated_Source\PSoC4/RTC.h **** typedef struct
  42:Generated_Source\PSoC4/RTC.h **** {
  43:Generated_Source\PSoC4/RTC.h ****     uint32 time;
  44:Generated_Source\PSoC4/RTC.h ****     uint32 date;
  45:Generated_Source\PSoC4/RTC.h ****     uint32 dayOfWeek;
  46:Generated_Source\PSoC4/RTC.h ****     uint32 status;
  47:Generated_Source\PSoC4/RTC.h **** }RTC_DATE_TIME;
  48:Generated_Source\PSoC4/RTC.h **** 
  49:Generated_Source\PSoC4/RTC.h **** /**
  50:Generated_Source\PSoC4/RTC.h **** * This is the data structure that is used to save time and date values for 
  51:Generated_Source\PSoC4/RTC.h **** * Daylight Savings Time Start and Stop (RTC_dstTimeDateStart and 
  52:Generated_Source\PSoC4/RTC.h **** * RTC_dstTimeDateStop).
  53:Generated_Source\PSoC4/RTC.h **** */
  54:Generated_Source\PSoC4/RTC.h **** typedef struct
  55:Generated_Source\PSoC4/RTC.h **** {
  56:Generated_Source\PSoC4/RTC.h ****     uint32 hour;
  57:Generated_Source\PSoC4/RTC.h ****     uint32 dayOfWeek;
  58:Generated_Source\PSoC4/RTC.h ****     uint32 dayOfMonth;
  59:Generated_Source\PSoC4/RTC.h ****     uint32 weekOfMonth;
  60:Generated_Source\PSoC4/RTC.h ****     uint32 month;
  61:Generated_Source\PSoC4/RTC.h ****     uint8  timeFormat;
  62:Generated_Source\PSoC4/RTC.h **** }RTC_DST_TIME;
  63:Generated_Source\PSoC4/RTC.h **** 
  64:Generated_Source\PSoC4/RTC.h **** /** @} structures */
  65:Generated_Source\PSoC4/RTC.h **** 
  66:Generated_Source\PSoC4/RTC.h **** /*******************************************************************************
  67:Generated_Source\PSoC4/RTC.h **** *    Enumerated Types and Parameters
  68:Generated_Source\PSoC4/RTC.h **** *******************************************************************************/
  69:Generated_Source\PSoC4/RTC.h **** /* Time Format setting constants */
  70:Generated_Source\PSoC4/RTC.h **** #define RTC__HOUR_12 1
  71:Generated_Source\PSoC4/RTC.h **** #define RTC__HOUR_24 0
  72:Generated_Source\PSoC4/RTC.h **** 
  73:Generated_Source\PSoC4/RTC.h **** /*  Date Format setting constants */
  74:Generated_Source\PSoC4/RTC.h **** #define RTC__MM_DD_YYYY 0
  75:Generated_Source\PSoC4/RTC.h **** #define RTC__DD_MM_YYYY 1
  76:Generated_Source\PSoC4/RTC.h **** #define RTC__YYYY_MM_DD 2
  77:Generated_Source\PSoC4/RTC.h **** 
  78:Generated_Source\PSoC4/RTC.h **** /* Date Type setting constants */
  79:Generated_Source\PSoC4/RTC.h **** #define RTC__RELATIVE 0
  80:Generated_Source\PSoC4/RTC.h **** #define RTC__FIXED 1
  81:Generated_Source\PSoC4/RTC.h **** 
  82:Generated_Source\PSoC4/RTC.h **** /* DST Hour setting constants */
  83:Generated_Source\PSoC4/RTC.h **** #define RTC__H0000 0
  84:Generated_Source\PSoC4/RTC.h **** #define RTC__H0100 1
  85:Generated_Source\PSoC4/RTC.h **** #define RTC__H0200 2
  86:Generated_Source\PSoC4/RTC.h **** #define RTC__H0300 3
  87:Generated_Source\PSoC4/RTC.h **** #define RTC__H0400 4
  88:Generated_Source\PSoC4/RTC.h **** #define RTC__H0500 5
  89:Generated_Source\PSoC4/RTC.h **** #define RTC__H0600 6
  90:Generated_Source\PSoC4/RTC.h **** #define RTC__H0700 7
ARM GAS  C:\Users\Petro\AppData\Local\Temp\cc4lpBuc.s 			page 3


  91:Generated_Source\PSoC4/RTC.h **** #define RTC__H0800 8
  92:Generated_Source\PSoC4/RTC.h **** #define RTC__H0900 9
  93:Generated_Source\PSoC4/RTC.h **** #define RTC__H1000 10
  94:Generated_Source\PSoC4/RTC.h **** #define RTC__H1100 11
  95:Generated_Source\PSoC4/RTC.h **** #define RTC__H1200 12
  96:Generated_Source\PSoC4/RTC.h **** #define RTC__H1300 13
  97:Generated_Source\PSoC4/RTC.h **** #define RTC__H1400 14
  98:Generated_Source\PSoC4/RTC.h **** #define RTC__H1500 15
  99:Generated_Source\PSoC4/RTC.h **** #define RTC__H1600 16
 100:Generated_Source\PSoC4/RTC.h **** #define RTC__H1700 17
 101:Generated_Source\PSoC4/RTC.h **** #define RTC__H1800 18
 102:Generated_Source\PSoC4/RTC.h **** #define RTC__H1900 19
 103:Generated_Source\PSoC4/RTC.h **** #define RTC__H2000 20
 104:Generated_Source\PSoC4/RTC.h **** #define RTC__H2100 21
 105:Generated_Source\PSoC4/RTC.h **** #define RTC__H2200 22
 106:Generated_Source\PSoC4/RTC.h **** #define RTC__H2300 23
 107:Generated_Source\PSoC4/RTC.h **** 
 108:Generated_Source\PSoC4/RTC.h **** /* DST DayOfWeek setting constants */
 109:Generated_Source\PSoC4/RTC.h **** #define RTC__SUNDAY 1
 110:Generated_Source\PSoC4/RTC.h **** #define RTC__MONDAY 2
 111:Generated_Source\PSoC4/RTC.h **** #define RTC__TUESDAY 3
 112:Generated_Source\PSoC4/RTC.h **** #define RTC__WEDNESDAY 4
 113:Generated_Source\PSoC4/RTC.h **** #define RTC__THURSDAY 5
 114:Generated_Source\PSoC4/RTC.h **** #define RTC__FRIDAY 6
 115:Generated_Source\PSoC4/RTC.h **** #define RTC__SATURDAY 7
 116:Generated_Source\PSoC4/RTC.h **** 
 117:Generated_Source\PSoC4/RTC.h **** /* DST Month setting constants */
 118:Generated_Source\PSoC4/RTC.h **** #define RTC__JAN 1
 119:Generated_Source\PSoC4/RTC.h **** #define RTC__FEB 2
 120:Generated_Source\PSoC4/RTC.h **** #define RTC__MAR 3
 121:Generated_Source\PSoC4/RTC.h **** #define RTC__APR 4
 122:Generated_Source\PSoC4/RTC.h **** #define RTC__MAY 5
 123:Generated_Source\PSoC4/RTC.h **** #define RTC__JUN 6
 124:Generated_Source\PSoC4/RTC.h **** #define RTC__JUL 7
 125:Generated_Source\PSoC4/RTC.h **** #define RTC__AUG 8
 126:Generated_Source\PSoC4/RTC.h **** #define RTC__SEP 9
 127:Generated_Source\PSoC4/RTC.h **** #define RTC__OCT 10
 128:Generated_Source\PSoC4/RTC.h **** #define RTC__NOV 11
 129:Generated_Source\PSoC4/RTC.h **** #define RTC__DEC 12
 130:Generated_Source\PSoC4/RTC.h **** 
 131:Generated_Source\PSoC4/RTC.h **** /* DST WeekOfMonth setting constants */
 132:Generated_Source\PSoC4/RTC.h **** #define RTC__FIRST 1
 133:Generated_Source\PSoC4/RTC.h **** #define RTC__SECOND 2
 134:Generated_Source\PSoC4/RTC.h **** #define RTC__THIRD 3
 135:Generated_Source\PSoC4/RTC.h **** #define RTC__FOURTH 4
 136:Generated_Source\PSoC4/RTC.h **** #define RTC__FIFTH 5
 137:Generated_Source\PSoC4/RTC.h **** #define RTC__LAST 6
 138:Generated_Source\PSoC4/RTC.h **** 
 139:Generated_Source\PSoC4/RTC.h **** 
 140:Generated_Source\PSoC4/RTC.h **** #define RTC_INITIAL_DATA_FORMAT     (0u)
 141:Generated_Source\PSoC4/RTC.h **** #define RTC_INITIAL_TIME_FORMAT     (1u)
 142:Generated_Source\PSoC4/RTC.h **** #define RTC_INITIAL_UPDATE_MODE     (0u)
 143:Generated_Source\PSoC4/RTC.h **** #define RTC_INITIAL_SECOND          (0u)
 144:Generated_Source\PSoC4/RTC.h **** #define RTC_INITIAL_MINUTE          (0u)
 145:Generated_Source\PSoC4/RTC.h **** #define RTC_INITIAL_HOUR            (0u)
 146:Generated_Source\PSoC4/RTC.h **** #define RTC_INITIAL_DAY             (1u)
 147:Generated_Source\PSoC4/RTC.h **** #define RTC_INITIAL_MONTH           (1u)
ARM GAS  C:\Users\Petro\AppData\Local\Temp\cc4lpBuc.s 			page 4


 148:Generated_Source\PSoC4/RTC.h **** #define RTC_INITIAL_YEAR            (1970u)
 149:Generated_Source\PSoC4/RTC.h **** 
 150:Generated_Source\PSoC4/RTC.h **** #define RTC_INITIAL_ALARM_STATUS    (0u)
 151:Generated_Source\PSoC4/RTC.h **** 
 152:Generated_Source\PSoC4/RTC.h **** #define RTC_INITIAL_DST_STATUS      (0u)
 153:Generated_Source\PSoC4/RTC.h **** #define RTC_INITIAL_DST_DATE_TYPE   (0u)
 154:Generated_Source\PSoC4/RTC.h **** #define RTC_INITIAL_DST_START_MONTH (3uL)
 155:Generated_Source\PSoC4/RTC.h **** #define RTC_INITIAL_DST_START_WOM   (6uL)
 156:Generated_Source\PSoC4/RTC.h **** #define RTC_INITIAL_DST_START_DOM   (22uL)
 157:Generated_Source\PSoC4/RTC.h **** #define RTC_INITIAL_DST_START_DOW   (1uL)
 158:Generated_Source\PSoC4/RTC.h **** #define RTC_INITIAL_DST_START_HRS   (0uL)
 159:Generated_Source\PSoC4/RTC.h **** #define RTC_INITIAL_DST_STOP_MONTH  (10uL)
 160:Generated_Source\PSoC4/RTC.h **** #define RTC_INITIAL_DST_STOP_DOM    (22uL)
 161:Generated_Source\PSoC4/RTC.h **** #define RTC_INITIAL_DST_STOP_DOW    (1uL)
 162:Generated_Source\PSoC4/RTC.h **** #define RTC_INITIAL_DST_STOP_WOM    (6uL)
 163:Generated_Source\PSoC4/RTC.h **** #define RTC_INITIAL_DST_STOP_HRS    (0uL)
 164:Generated_Source\PSoC4/RTC.h **** 
 165:Generated_Source\PSoC4/RTC.h **** /* Day of week definitions */
 166:Generated_Source\PSoC4/RTC.h **** #define RTC_SUNDAY     (RTC__SUNDAY)
 167:Generated_Source\PSoC4/RTC.h **** #define RTC_MONDAY     (RTC__MONDAY)
 168:Generated_Source\PSoC4/RTC.h **** #define RTC_TUESDAY    (RTC__TUESDAY)
 169:Generated_Source\PSoC4/RTC.h **** #define RTC_WEDNESDAY  (RTC__WEDNESDAY)
 170:Generated_Source\PSoC4/RTC.h **** #define RTC_THURSDAY   (RTC__THURSDAY)
 171:Generated_Source\PSoC4/RTC.h **** #define RTC_FRIDAY     (RTC__FRIDAY)
 172:Generated_Source\PSoC4/RTC.h **** #define RTC_SATURDAY   (RTC__SATURDAY)
 173:Generated_Source\PSoC4/RTC.h **** 
 174:Generated_Source\PSoC4/RTC.h **** /* DST WeekOfMonth setting constants definitions */
 175:Generated_Source\PSoC4/RTC.h **** #define RTC_FIRST      (RTC__FIRST)
 176:Generated_Source\PSoC4/RTC.h **** #define RTC_SECOND     (RTC__SECOND)
 177:Generated_Source\PSoC4/RTC.h **** #define RTC_THIRD      (RTC__THIRD)
 178:Generated_Source\PSoC4/RTC.h **** #define RTC_FOURTH     (RTC__FOURTH)
 179:Generated_Source\PSoC4/RTC.h **** #define RTC_FIFTH      (RTC__FIFTH)
 180:Generated_Source\PSoC4/RTC.h **** #define RTC_LAST       (RTC__LAST)
 181:Generated_Source\PSoC4/RTC.h **** 
 182:Generated_Source\PSoC4/RTC.h **** /* Month definitions */
 183:Generated_Source\PSoC4/RTC.h **** #define RTC_JANUARY    (RTC__JAN)
 184:Generated_Source\PSoC4/RTC.h **** #define RTC_FEBRUARY   (RTC__FEB)
 185:Generated_Source\PSoC4/RTC.h **** #define RTC_MARCH      (RTC__MAR)
 186:Generated_Source\PSoC4/RTC.h **** #define RTC_APRIL      (RTC__APR)
 187:Generated_Source\PSoC4/RTC.h **** #define RTC_MAY        (RTC__MAY)
 188:Generated_Source\PSoC4/RTC.h **** #define RTC_JUNE       (RTC__JUN)
 189:Generated_Source\PSoC4/RTC.h **** #define RTC_JULY       (RTC__JUL)
 190:Generated_Source\PSoC4/RTC.h **** #define RTC_AUGUST     (RTC__AUG)
 191:Generated_Source\PSoC4/RTC.h **** #define RTC_SEPTEMBER  (RTC__SEP)
 192:Generated_Source\PSoC4/RTC.h **** #define RTC_OCTOBER    (RTC__OCT)
 193:Generated_Source\PSoC4/RTC.h **** #define RTC_NOVEMBER   (RTC__NOV)
 194:Generated_Source\PSoC4/RTC.h **** #define RTC_DECEMBER   (RTC__DEC)
 195:Generated_Source\PSoC4/RTC.h **** 
 196:Generated_Source\PSoC4/RTC.h **** #define RTC_DAYS_PER_WEEK       (7u)
 197:Generated_Source\PSoC4/RTC.h **** 
 198:Generated_Source\PSoC4/RTC.h **** /* Number of days in month definitions */
 199:Generated_Source\PSoC4/RTC.h **** #define RTC_DAYS_IN_JANUARY     (31u)
 200:Generated_Source\PSoC4/RTC.h **** #define RTC_DAYS_IN_FEBRUARY    (28u)
 201:Generated_Source\PSoC4/RTC.h **** #define RTC_DAYS_IN_MARCH       (31u)
 202:Generated_Source\PSoC4/RTC.h **** #define RTC_DAYS_IN_APRIL       (30u)
 203:Generated_Source\PSoC4/RTC.h **** #define RTC_DAYS_IN_MAY         (31u)
 204:Generated_Source\PSoC4/RTC.h **** #define RTC_DAYS_IN_JUNE        (30u)
ARM GAS  C:\Users\Petro\AppData\Local\Temp\cc4lpBuc.s 			page 5


 205:Generated_Source\PSoC4/RTC.h **** #define RTC_DAYS_IN_JULY        (31u)
 206:Generated_Source\PSoC4/RTC.h **** #define RTC_DAYS_IN_AUGUST      (31u)
 207:Generated_Source\PSoC4/RTC.h **** #define RTC_DAYS_IN_SEPTEMBER   (30u)
 208:Generated_Source\PSoC4/RTC.h **** #define RTC_DAYS_IN_OCTOBER     (31u)
 209:Generated_Source\PSoC4/RTC.h **** #define RTC_DAYS_IN_NOVEMBER    (30u)
 210:Generated_Source\PSoC4/RTC.h **** #define RTC_DAYS_IN_DECEMBER    (31u)
 211:Generated_Source\PSoC4/RTC.h **** 
 212:Generated_Source\PSoC4/RTC.h **** #define RTC_MONTHS_PER_YEAR     (12uL)
 213:Generated_Source\PSoC4/RTC.h **** 
 214:Generated_Source\PSoC4/RTC.h **** #define RTC_HOURS_PER_DAY       (24uL)
 215:Generated_Source\PSoC4/RTC.h **** #define RTC_HOURS_PER_HALF_DAY  (12uL)
 216:Generated_Source\PSoC4/RTC.h **** 
 217:Generated_Source\PSoC4/RTC.h **** #define RTC_SECONDS_PER_MINUTE  (60uL)
 218:Generated_Source\PSoC4/RTC.h **** #define RTC_SECONDS_PER_HOUR    (3600uL)
 219:Generated_Source\PSoC4/RTC.h **** #define RTC_SECONDS_PER_DAY     (24uL * 3600uL)
 220:Generated_Source\PSoC4/RTC.h **** 
 221:Generated_Source\PSoC4/RTC.h **** #define RTC_SECONDS_PER_LEAP_YEAR    (366uL * 24uL * 3600uL)
 222:Generated_Source\PSoC4/RTC.h **** #define RTC_SECONDS_PER_NONLEAP_YEAR (365uL * 24uL * 3600uL)
 223:Generated_Source\PSoC4/RTC.h **** 
 224:Generated_Source\PSoC4/RTC.h **** #define RTC_UNIX_TIME_PM   ((12uL * 3600uL) + 1uL)
 225:Generated_Source\PSoC4/RTC.h **** 
 226:Generated_Source\PSoC4/RTC.h **** /* AM/PM status definitions */
 227:Generated_Source\PSoC4/RTC.h **** #define RTC_AM                 (0u)
 228:Generated_Source\PSoC4/RTC.h **** #define RTC_PM                 (1u)
 229:Generated_Source\PSoC4/RTC.h **** 
 230:Generated_Source\PSoC4/RTC.h **** /* Time format definitions */
 231:Generated_Source\PSoC4/RTC.h **** #define RTC_12_HOURS_FORMAT    (RTC__HOUR_12)
 232:Generated_Source\PSoC4/RTC.h **** #define RTC_24_HOURS_FORMAT    (RTC__HOUR_24)
 233:Generated_Source\PSoC4/RTC.h **** 
 234:Generated_Source\PSoC4/RTC.h **** /* UNIX time begins in 1970 year.  */
 235:Generated_Source\PSoC4/RTC.h **** #define RTC_YEAR_0             (1970u)
 236:Generated_Source\PSoC4/RTC.h **** 
 237:Generated_Source\PSoC4/RTC.h **** /* Definition of date register fields */
 238:Generated_Source\PSoC4/RTC.h **** #if(RTC_INITIAL_DATA_FORMAT == RTC__MM_DD_YYYY)
 239:Generated_Source\PSoC4/RTC.h ****     #define RTC_10_MONTH_OFFSET   (28u)
 240:Generated_Source\PSoC4/RTC.h ****     #define RTC_MONTH_OFFSET      (24u)
 241:Generated_Source\PSoC4/RTC.h ****     #define RTC_10_DAY_OFFSET     (20u)
 242:Generated_Source\PSoC4/RTC.h ****     #define RTC_DAY_OFFSET        (16u)
 243:Generated_Source\PSoC4/RTC.h ****     #define RTC_1000_YEAR_OFFSET  (12u)
 244:Generated_Source\PSoC4/RTC.h ****     #define RTC_100_YEAR_OFFSET   (8u)
 245:Generated_Source\PSoC4/RTC.h ****     #define RTC_10_YEAR_OFFSET    (4u)
 246:Generated_Source\PSoC4/RTC.h ****     #define RTC_YEAR_OFFSET       (0u)
 247:Generated_Source\PSoC4/RTC.h **** #elif(RTC_INITIAL_DATA_FORMAT == RTC__DD_MM_YYYY)
 248:Generated_Source\PSoC4/RTC.h ****     #define RTC_10_MONTH_OFFSET   (20u)
 249:Generated_Source\PSoC4/RTC.h ****     #define RTC_MONTH_OFFSET      (16u)
 250:Generated_Source\PSoC4/RTC.h ****     #define RTC_10_DAY_OFFSET     (28u)
 251:Generated_Source\PSoC4/RTC.h ****     #define RTC_DAY_OFFSET        (24u)
 252:Generated_Source\PSoC4/RTC.h ****     #define RTC_1000_YEAR_OFFSET  (12u)
 253:Generated_Source\PSoC4/RTC.h ****     #define RTC_100_YEAR_OFFSET   (8u)
 254:Generated_Source\PSoC4/RTC.h ****     #define RTC_10_YEAR_OFFSET    (4u)
 255:Generated_Source\PSoC4/RTC.h ****     #define RTC_YEAR_OFFSET       (0u)
 256:Generated_Source\PSoC4/RTC.h **** #else
 257:Generated_Source\PSoC4/RTC.h ****     #define RTC_10_MONTH_OFFSET   (12u)
 258:Generated_Source\PSoC4/RTC.h ****     #define RTC_MONTH_OFFSET      (8u)
 259:Generated_Source\PSoC4/RTC.h ****     #define RTC_10_DAY_OFFSET     (4u)
 260:Generated_Source\PSoC4/RTC.h ****     #define RTC_DAY_OFFSET        (0u)
 261:Generated_Source\PSoC4/RTC.h ****     #define RTC_1000_YEAR_OFFSET  (28u)
ARM GAS  C:\Users\Petro\AppData\Local\Temp\cc4lpBuc.s 			page 6


 262:Generated_Source\PSoC4/RTC.h ****     #define RTC_100_YEAR_OFFSET   (24u)
 263:Generated_Source\PSoC4/RTC.h ****     #define RTC_10_YEAR_OFFSET    (20u)
 264:Generated_Source\PSoC4/RTC.h ****     #define RTC_YEAR_OFFSET       (16u)
 265:Generated_Source\PSoC4/RTC.h **** #endif /* (RTC_INITIAL_DATA_FORMAT == RTC__MM_DD_YYYY) */
 266:Generated_Source\PSoC4/RTC.h **** 
 267:Generated_Source\PSoC4/RTC.h **** #define RTC_10_MONTH_MASK          (0x00000001uL << RTC_10_MONTH_OFFSET)
 268:Generated_Source\PSoC4/RTC.h **** #define RTC_MONTH_MASK             (0x0000000FuL << RTC_MONTH_OFFSET)
 269:Generated_Source\PSoC4/RTC.h **** #define RTC_10_DAY_MASK            (0x00000003uL << RTC_10_DAY_OFFSET)
 270:Generated_Source\PSoC4/RTC.h **** #define RTC_DAY_MASK               (0x0000000FuL << RTC_DAY_OFFSET)
 271:Generated_Source\PSoC4/RTC.h **** #define RTC_1000_YEAR_MASK         (0x00000003uL << RTC_1000_YEAR_OFFSET)
 272:Generated_Source\PSoC4/RTC.h **** #define RTC_100_YEAR_MASK          (0x0000000FuL << RTC_100_YEAR_OFFSET)
 273:Generated_Source\PSoC4/RTC.h **** #define RTC_10_YEAR_MASK           (0x0000000FuL << RTC_10_YEAR_OFFSET)
 274:Generated_Source\PSoC4/RTC.h **** #define RTC_YEAR_MASK              (0x0000000FuL << RTC_YEAR_OFFSET)
 275:Generated_Source\PSoC4/RTC.h **** 
 276:Generated_Source\PSoC4/RTC.h **** #define  RTC_MONTH_FULL_MASK       (RTC_10_MONTH_MASK  | RTC_MONTH_MASK)
 277:Generated_Source\PSoC4/RTC.h **** #define  RTC_DAY_FULL_MASK         (RTC_10_DAY_MASK    | RTC_DAY_MASK)
 278:Generated_Source\PSoC4/RTC.h **** #define  RTC_YEAR_FULL_MASK        (RTC_1000_YEAR_MASK | RTC_100_YEAR_MASK |\
 279:Generated_Source\PSoC4/RTC.h ****                                                  RTC_10_YEAR_MASK   | RTC_YEAR_MASK)
 280:Generated_Source\PSoC4/RTC.h **** 
 281:Generated_Source\PSoC4/RTC.h **** 
 282:Generated_Source\PSoC4/RTC.h **** /* Definition of time register fields */
 283:Generated_Source\PSoC4/RTC.h **** #define RTC_TIME_FORMAT_OFFSET     (23u)
 284:Generated_Source\PSoC4/RTC.h **** #define RTC_PERIOD_OF_DAY_OFFSET   (22u)
 285:Generated_Source\PSoC4/RTC.h **** #define RTC_10_HOURS_OFFSET        (20u)
 286:Generated_Source\PSoC4/RTC.h **** #define RTC_HOURS_OFFSET           (16u)
 287:Generated_Source\PSoC4/RTC.h **** #define RTC_10_MINUTES_OFFSET      (12u)
 288:Generated_Source\PSoC4/RTC.h **** #define RTC_MINUTES_OFFSET         (8u)
 289:Generated_Source\PSoC4/RTC.h **** #define RTC_10_SECONDS_OFFSET      (4u)
 290:Generated_Source\PSoC4/RTC.h **** #define RTC_SECONDS_OFFSET         (0u)
 291:Generated_Source\PSoC4/RTC.h **** 
 292:Generated_Source\PSoC4/RTC.h **** #define RTC_TIME_FORMAT_MASK       (0x00000001uL << RTC_TIME_FORMAT_OFFSET)
 293:Generated_Source\PSoC4/RTC.h **** #define RTC_PERIOD_OF_DAY_MASK     (0x00000001uL << RTC_PERIOD_OF_DAY_OFFSET)
 294:Generated_Source\PSoC4/RTC.h **** #define RTC_10_HOURS_MASK          (0x00000003uL << RTC_10_HOURS_OFFSET)
 295:Generated_Source\PSoC4/RTC.h **** #define RTC_HOURS_MASK             (0x0000000FuL << RTC_HOURS_OFFSET)
 296:Generated_Source\PSoC4/RTC.h **** #define RTC_10_MINUTES_MASK        (0x00000007uL << RTC_10_MINUTES_OFFSET)
 297:Generated_Source\PSoC4/RTC.h **** #define RTC_MINUTES_MASK           (0x0000000FuL << RTC_MINUTES_OFFSET)
 298:Generated_Source\PSoC4/RTC.h **** #define RTC_10_SECONDS_MASK        (0x00000007uL << RTC_10_SECONDS_OFFSET)
 299:Generated_Source\PSoC4/RTC.h **** #define RTC_SECONDS_MASK           (0x0000000FuL << RTC_SECONDS_OFFSET)
 300:Generated_Source\PSoC4/RTC.h **** 
 301:Generated_Source\PSoC4/RTC.h **** #define RTC_HOURS_FULL_MASK        (RTC_10_HOURS_MASK   | RTC_HOURS_MASK)
 302:Generated_Source\PSoC4/RTC.h **** #define RTC_MINUTES_FULL_MASK      (RTC_10_MINUTES_MASK | RTC_MINUTES_MASK)
 303:Generated_Source\PSoC4/RTC.h **** #define RTC_SECONDS_FULL_MASK      (RTC_10_SECONDS_MASK | RTC_SECONDS_MASK)
 304:Generated_Source\PSoC4/RTC.h **** 
 305:Generated_Source\PSoC4/RTC.h **** #define RTC_ALARM_SEC_MASK         (0x00000001uL)
 306:Generated_Source\PSoC4/RTC.h **** #define RTC_ALARM_MIN_MASK         (0x00000002uL)
 307:Generated_Source\PSoC4/RTC.h **** #define RTC_ALARM_HOUR_MASK        (0x00000004uL)
 308:Generated_Source\PSoC4/RTC.h **** #define RTC_ALARM_DAYOFWEEK_MASK   (0x00000008uL)
 309:Generated_Source\PSoC4/RTC.h **** #define RTC_ALARM_DAYOFMONTH_MASK  (0x00000010uL)
 310:Generated_Source\PSoC4/RTC.h **** #define RTC_ALARM_MONTH_MASK       (0x00000020uL)
 311:Generated_Source\PSoC4/RTC.h **** #define RTC_ALARM_YEAR_MASK        (0x00000040uL)
 312:Generated_Source\PSoC4/RTC.h **** 
 313:Generated_Source\PSoC4/RTC.h **** #define RTC_STATUS_DST_OFFSET      (1u)
 314:Generated_Source\PSoC4/RTC.h **** #define RTC_STATUS_ALARM_OFFSET    (2u)
 315:Generated_Source\PSoC4/RTC.h **** #define RTC_STATUS_LY_OFFSET       (3u)
 316:Generated_Source\PSoC4/RTC.h **** #define RTC_STATUS_AM_PM_OFFSET    (4u)
 317:Generated_Source\PSoC4/RTC.h **** 
 318:Generated_Source\PSoC4/RTC.h **** /* Definition of the RTC status values. */
ARM GAS  C:\Users\Petro\AppData\Local\Temp\cc4lpBuc.s 			page 7


 319:Generated_Source\PSoC4/RTC.h **** #define RTC_STATUS_DST             (1uL << RTC_STATUS_DST_OFFSET)
 320:Generated_Source\PSoC4/RTC.h **** #define RTC_STATUS_LY              (1uL << RTC_STATUS_LY_OFFSET)
 321:Generated_Source\PSoC4/RTC.h **** #define RTC_STATUS_AM_PM           (1uL << RTC_STATUS_AM_PM_OFFSET)
 322:Generated_Source\PSoC4/RTC.h **** 
 323:Generated_Source\PSoC4/RTC.h **** /* Number of bits per one BCD digit. */
 324:Generated_Source\PSoC4/RTC.h **** #define RTC_BCD_NUMBER_SIZE        (4u)
 325:Generated_Source\PSoC4/RTC.h **** #define RTC_BCD_ONE_DIGIT_MASK     (0x0000000FuL)
 326:Generated_Source\PSoC4/RTC.h **** 
 327:Generated_Source\PSoC4/RTC.h **** /*******************************************************************************
 328:Generated_Source\PSoC4/RTC.h **** *    Function Prototypes
 329:Generated_Source\PSoC4/RTC.h **** *******************************************************************************/
 330:Generated_Source\PSoC4/RTC.h **** /**
 331:Generated_Source\PSoC4/RTC.h **** * \addtogroup group_api
 332:Generated_Source\PSoC4/RTC.h **** * @{
 333:Generated_Source\PSoC4/RTC.h **** */
 334:Generated_Source\PSoC4/RTC.h **** void   RTC_Start(void);
 335:Generated_Source\PSoC4/RTC.h **** void   RTC_Stop(void);
 336:Generated_Source\PSoC4/RTC.h **** void   RTC_Init(void);
 337:Generated_Source\PSoC4/RTC.h **** void   RTC_SetUnixTime(uint64 unixTime);
 338:Generated_Source\PSoC4/RTC.h **** uint64 RTC_GetUnixTime(void);
 339:Generated_Source\PSoC4/RTC.h **** void   RTC_SetPeriod(uint32 ticks, uint32 refOneSecTicks);
 340:Generated_Source\PSoC4/RTC.h **** uint32 RTC_GetPeriod(void);
 341:Generated_Source\PSoC4/RTC.h **** uint32 RTC_GetRefOneSec(void);
 342:Generated_Source\PSoC4/RTC.h **** void   RTC_SetDateAndTime(uint32 inputTime, uint32 inputDate);
 343:Generated_Source\PSoC4/RTC.h **** void   RTC_GetDateAndTime(RTC_DATE_TIME* dateTime);
 344:Generated_Source\PSoC4/RTC.h **** uint32 RTC_GetTime(void);
 345:Generated_Source\PSoC4/RTC.h **** uint32 RTC_GetDate(void);
 346:Generated_Source\PSoC4/RTC.h **** void   RTC_SetAlarmDateAndTime(const RTC_DATE_TIME* alarmTime);
 347:Generated_Source\PSoC4/RTC.h **** void   RTC_GetAlarmDateAndTime(RTC_DATE_TIME* alarmTimeDate);
 348:Generated_Source\PSoC4/RTC.h **** void   RTC_SetAlarmMask(uint32 mask);
 349:Generated_Source\PSoC4/RTC.h **** uint32 RTC_GetAlarmMask(void);
 350:Generated_Source\PSoC4/RTC.h **** uint32 RTC_ReadStatus(void);
 351:Generated_Source\PSoC4/RTC.h **** uint32 RTC_GetAlarmStatus(void);
 352:Generated_Source\PSoC4/RTC.h **** void   RTC_ClearAlarmStatus(void);
 353:Generated_Source\PSoC4/RTC.h **** void   RTC_SetDSTStartTime(const RTC_DST_TIME* dstStartTime,
 354:Generated_Source\PSoC4/RTC.h ****                                               RTC_DST_DATETYPE_ENUM type);
 355:Generated_Source\PSoC4/RTC.h **** void   RTC_SetDSTStopTime(const RTC_DST_TIME* dstStopTime,
 356:Generated_Source\PSoC4/RTC.h ****                                              RTC_DST_DATETYPE_ENUM type);
 357:Generated_Source\PSoC4/RTC.h **** uint32 RTC_ConvertBCDToDec(uint32 bcdNum);
 358:Generated_Source\PSoC4/RTC.h **** uint32 RTC_ConvertDecToBCD(uint32 decNum);
 359:Generated_Source\PSoC4/RTC.h **** void   RTC_Update(void);
 360:Generated_Source\PSoC4/RTC.h **** void*  RTC_SetAlarmHandler(void (*CallbackFunction)(void));
 361:Generated_Source\PSoC4/RTC.h **** 
 362:Generated_Source\PSoC4/RTC.h **** static uint32 RTC_ConstructDate(uint32 month, uint32 day, uint32 year);
 363:Generated_Source\PSoC4/RTC.h **** static uint32 RTC_ConstructTime(uint32 timeFormat, uint32 stateAmPm, uint32 hour, uint32 min, uint3
 364:Generated_Source\PSoC4/RTC.h **** /** @} api */
 365:Generated_Source\PSoC4/RTC.h **** 
 366:Generated_Source\PSoC4/RTC.h **** static uint32 RTC_GetTimeFormat(uint32 inputTime);
 367:Generated_Source\PSoC4/RTC.h **** static uint32 RTC_SetTimeFormat(uint32 inputTime, uint32 timeFormat);
 368:Generated_Source\PSoC4/RTC.h **** 
 369:Generated_Source\PSoC4/RTC.h **** /**
 370:Generated_Source\PSoC4/RTC.h **** * \addtogroup group_api
 371:Generated_Source\PSoC4/RTC.h **** * @{
 372:Generated_Source\PSoC4/RTC.h **** */
 373:Generated_Source\PSoC4/RTC.h **** static uint32 RTC_LeapYear(uint32 year);
 374:Generated_Source\PSoC4/RTC.h **** static uint32 RTC_IsBitSet(uint32 var, uint32 mask);
 375:Generated_Source\PSoC4/RTC.h **** static uint32 RTC_GetSecond(uint32 inputTime);
ARM GAS  C:\Users\Petro\AppData\Local\Temp\cc4lpBuc.s 			page 8


 376:Generated_Source\PSoC4/RTC.h **** static uint32 RTC_GetMinutes(uint32 inputTime);
 377:Generated_Source\PSoC4/RTC.h **** static uint32 RTC_GetHours(uint32 inputTime);
 378:Generated_Source\PSoC4/RTC.h **** static uint32 RTC_GetAmPm(uint32 inputTime);
 379:Generated_Source\PSoC4/RTC.h **** static uint32 RTC_GetDay(uint32 date);
 380:Generated_Source\PSoC4/RTC.h **** static uint32 RTC_GetMonth(uint32 date);
 381:Generated_Source\PSoC4/RTC.h **** static uint32 RTC_GetYear(uint32 date);
 382:Generated_Source\PSoC4/RTC.h **** /** @} api */
 383:Generated_Source\PSoC4/RTC.h **** 
 384:Generated_Source\PSoC4/RTC.h **** static uint32 RTC_SetSecond(uint32 inputTime, uint32 inputSecond);
 385:Generated_Source\PSoC4/RTC.h **** static uint32 RTC_SetMinutes(uint32 inputTime, uint32 inputMinute);
 386:Generated_Source\PSoC4/RTC.h **** static uint32 RTC_SetHours(uint32 inputTime, uint32 inputHours);
 387:Generated_Source\PSoC4/RTC.h **** static uint32 RTC_SetAmPm(uint32 inputTime, uint32 periodOfDay);
 388:Generated_Source\PSoC4/RTC.h **** static uint32 RTC_SetDay(uint32 inputDate, uint32 inputDay);
 389:Generated_Source\PSoC4/RTC.h **** static uint32 RTC_SetMonth(uint32 inputDate, uint32 inputMonth);
 390:Generated_Source\PSoC4/RTC.h **** static uint32 RTC_SetYear(uint32 inputDate, uint32 inputYear);
 391:Generated_Source\PSoC4/RTC.h **** 
 392:Generated_Source\PSoC4/RTC.h **** uint64 RTC_ConstructUnixAlarmTime(const RTC_DATE_TIME* alarmTime, uint8 alarmCfgMask);
 393:Generated_Source\PSoC4/RTC.h **** uint64 RTC_GetDstUnixTime(const RTC_DST_TIME* dstTime);
 394:Generated_Source\PSoC4/RTC.h **** uint64 RTC_GetNexAlarmTime(uint64 curUnixTime, uint8 alarmCfgMask);
 395:Generated_Source\PSoC4/RTC.h **** 
 396:Generated_Source\PSoC4/RTC.h **** static uint32 RTC_GetNextMinSec(uint32 curVal);
 397:Generated_Source\PSoC4/RTC.h **** static uint32 RTC_GetNextHour(uint32 curVal);
 398:Generated_Source\PSoC4/RTC.h **** static uint32 RTC_GetNextDay(uint32 curYear, uint32 curMonth, uint32 curDay, uint32 alarmCfgMask);
 399:Generated_Source\PSoC4/RTC.h **** static uint32 RTC_GetNextMonth(uint32 curMonth);
 400:Generated_Source\PSoC4/RTC.h **** static uint32 RTC_GetNextYear(uint32 curYear);
 401:Generated_Source\PSoC4/RTC.h **** static uint32 RTC_GetDayOfWeek(uint32 day, uint32 month, uint32 year);
 402:Generated_Source\PSoC4/RTC.h **** 
 403:Generated_Source\PSoC4/RTC.h **** uint32 RTC_DaysInMonth(uint32 month, uint32 year);
 404:Generated_Source\PSoC4/RTC.h **** uint32 RTC_DaysBeforeMonth(uint32 month, uint32 year);
 405:Generated_Source\PSoC4/RTC.h **** 
 406:Generated_Source\PSoC4/RTC.h **** /**
 407:Generated_Source\PSoC4/RTC.h **** * \addtogroup group_api
 408:Generated_Source\PSoC4/RTC.h **** * @{
 409:Generated_Source\PSoC4/RTC.h **** */
 410:Generated_Source\PSoC4/RTC.h **** void   RTC_UnixToDateTime(RTC_DATE_TIME* dateTime, uint64 unixTime, uint32 timeFormat);
 411:Generated_Source\PSoC4/RTC.h **** uint64 RTC_DateTimeToUnix(uint32 inputDate, uint32 inputTime);
 412:Generated_Source\PSoC4/RTC.h **** /** @} api */
 413:Generated_Source\PSoC4/RTC.h **** 
 414:Generated_Source\PSoC4/RTC.h **** uint32 RTC_RelativeToFixed(uint32 dayOfWeek, uint32 weekOfMonth, uint32 month, uint32 year);
 415:Generated_Source\PSoC4/RTC.h **** 
 416:Generated_Source\PSoC4/RTC.h **** 
 417:Generated_Source\PSoC4/RTC.h **** #if defined(CYDEV_RTC_SOURCE_WDT)
 418:Generated_Source\PSoC4/RTC.h ****     #if((0u != CYDEV_WDT_GENERATE_ISR) && (0u == RTC_INITIAL_UPDATE_MODE))
 419:Generated_Source\PSoC4/RTC.h ****         static void RTC_CySysRtcSetCallback(uint32 wdtNumber);
 420:Generated_Source\PSoC4/RTC.h ****         static void RTC_CySysRtcResetCallback(uint32 wdtNumber);
 421:Generated_Source\PSoC4/RTC.h ****     #endif /* ((0u != CYDEV_WDT_GENERATE_ISR) && (0u == RTC_INITIAL_UPDATE_MODE)) */
 422:Generated_Source\PSoC4/RTC.h **** #endif /* (CYDEV_RTC_SOURCE_WDT) */
 423:Generated_Source\PSoC4/RTC.h **** 
 424:Generated_Source\PSoC4/RTC.h **** /*******************************************************************************
 425:Generated_Source\PSoC4/RTC.h **** * Function Name: RTC_IsBitSet
 426:Generated_Source\PSoC4/RTC.h **** ****************************************************************************//**
 427:Generated_Source\PSoC4/RTC.h **** *
 428:Generated_Source\PSoC4/RTC.h **** * \brief
 429:Generated_Source\PSoC4/RTC.h **** *  Checks the state of a bit passed through parameter.
 430:Generated_Source\PSoC4/RTC.h **** *
 431:Generated_Source\PSoC4/RTC.h **** * \param
 432:Generated_Source\PSoC4/RTC.h **** *  var The variable to be checked.
ARM GAS  C:\Users\Petro\AppData\Local\Temp\cc4lpBuc.s 			page 9


 433:Generated_Source\PSoC4/RTC.h **** * \param
 434:Generated_Source\PSoC4/RTC.h **** *  mask The mask for a bit to be checked.
 435:Generated_Source\PSoC4/RTC.h **** *
 436:Generated_Source\PSoC4/RTC.h **** * \return
 437:Generated_Source\PSoC4/RTC.h **** *  0u - Bit is not set.
 438:Generated_Source\PSoC4/RTC.h **** * \return
 439:Generated_Source\PSoC4/RTC.h **** *  1u - Bit is set.
 440:Generated_Source\PSoC4/RTC.h **** *
 441:Generated_Source\PSoC4/RTC.h **** *******************************************************************************/
 442:Generated_Source\PSoC4/RTC.h **** static CY_INLINE uint32 RTC_IsBitSet(uint32 var, uint32 mask)
 443:Generated_Source\PSoC4/RTC.h **** {
 444:Generated_Source\PSoC4/RTC.h ****     return ((mask == (var & mask)) ? 1Lu : 0Lu);
 445:Generated_Source\PSoC4/RTC.h **** }
 446:Generated_Source\PSoC4/RTC.h **** 
 447:Generated_Source\PSoC4/RTC.h **** 
 448:Generated_Source\PSoC4/RTC.h **** /*******************************************************************************
 449:Generated_Source\PSoC4/RTC.h **** * Function Name: RTC_LeapYear
 450:Generated_Source\PSoC4/RTC.h **** ****************************************************************************//**
 451:Generated_Source\PSoC4/RTC.h **** *
 452:Generated_Source\PSoC4/RTC.h **** * \brief
 453:Generated_Source\PSoC4/RTC.h **** * Checks whether the year passed through the parameter is
 454:Generated_Source\PSoC4/RTC.h **** * leap or no.
 455:Generated_Source\PSoC4/RTC.h **** *
 456:Generated_Source\PSoC4/RTC.h **** * \param
 457:Generated_Source\PSoC4/RTC.h **** *  year The year to be checked.
 458:Generated_Source\PSoC4/RTC.h **** *
 459:Generated_Source\PSoC4/RTC.h **** *
 460:Generated_Source\PSoC4/RTC.h **** * \return
 461:Generated_Source\PSoC4/RTC.h **** *  0u - The year is not leap.
 462:Generated_Source\PSoC4/RTC.h **** * \return
 463:Generated_Source\PSoC4/RTC.h **** *  1u - The year is leap.
 464:Generated_Source\PSoC4/RTC.h **** *
 465:Generated_Source\PSoC4/RTC.h **** *******************************************************************************/
 466:Generated_Source\PSoC4/RTC.h **** static CY_INLINE uint32 RTC_LeapYear(uint32 year)
 467:Generated_Source\PSoC4/RTC.h **** {
 468:Generated_Source\PSoC4/RTC.h ****     uint32 retVal;
 469:Generated_Source\PSoC4/RTC.h **** 
 470:Generated_Source\PSoC4/RTC.h ****     if(((0u == (year % 4Lu)) && (0u != (year % 100Lu))) || (0u == (year % 400Lu)))
 471:Generated_Source\PSoC4/RTC.h ****     {
 472:Generated_Source\PSoC4/RTC.h ****         retVal = 1uL;
 473:Generated_Source\PSoC4/RTC.h ****     }
 474:Generated_Source\PSoC4/RTC.h ****     else
 475:Generated_Source\PSoC4/RTC.h ****     {
 476:Generated_Source\PSoC4/RTC.h ****         retVal = 0uL;
 477:Generated_Source\PSoC4/RTC.h ****     }
 478:Generated_Source\PSoC4/RTC.h **** 
 479:Generated_Source\PSoC4/RTC.h ****     return(retVal);
 480:Generated_Source\PSoC4/RTC.h **** }
 481:Generated_Source\PSoC4/RTC.h **** 
 482:Generated_Source\PSoC4/RTC.h **** 
 483:Generated_Source\PSoC4/RTC.h **** /*******************************************************************************
 484:Generated_Source\PSoC4/RTC.h **** * Function Name: RTC_GetSecond
 485:Generated_Source\PSoC4/RTC.h **** ****************************************************************************//**
 486:Generated_Source\PSoC4/RTC.h **** *
 487:Generated_Source\PSoC4/RTC.h **** * \brief
 488:Generated_Source\PSoC4/RTC.h **** *  Returns the seconds value from the time value that is passed as a/the parameter.
 489:Generated_Source\PSoC4/RTC.h **** *
ARM GAS  C:\Users\Petro\AppData\Local\Temp\cc4lpBuc.s 			page 10


 490:Generated_Source\PSoC4/RTC.h **** * \param
 491:Generated_Source\PSoC4/RTC.h **** *  time The time value.
 492:Generated_Source\PSoC4/RTC.h **** *
 493:Generated_Source\PSoC4/RTC.h **** * \return
 494:Generated_Source\PSoC4/RTC.h **** *  The seconds value.
 495:Generated_Source\PSoC4/RTC.h **** *
 496:Generated_Source\PSoC4/RTC.h **** *******************************************************************************/
 497:Generated_Source\PSoC4/RTC.h **** static CY_INLINE uint32 RTC_GetSecond(uint32 inputTime)
 498:Generated_Source\PSoC4/RTC.h **** {
  25              		.loc 1 498 0
  26              		.cfi_startproc
  27 0000 80B5     		push	{r7, lr}
  28              		.cfi_def_cfa_offset 8
  29              		.cfi_offset 7, -8
  30              		.cfi_offset 14, -4
  31 0002 84B0     		sub	sp, sp, #16
  32              		.cfi_def_cfa_offset 24
  33 0004 00AF     		add	r7, sp, #0
  34              		.cfi_def_cfa_register 7
  35 0006 7860     		str	r0, [r7, #4]
 499:Generated_Source\PSoC4/RTC.h ****     uint32 retVal;
 500:Generated_Source\PSoC4/RTC.h **** 
 501:Generated_Source\PSoC4/RTC.h ****     retVal  = ((inputTime & RTC_10_SECONDS_MASK) >> RTC_10_SECONDS_OFFSET) * 10u;
  36              		.loc 1 501 0
  37 0008 7B68     		ldr	r3, [r7, #4]
  38 000a 7022     		mov	r2, #112
  39 000c 1340     		and	r3, r2
  40 000e 1A09     		lsr	r2, r3, #4
  41 0010 131C     		mov	r3, r2
  42 0012 9B00     		lsl	r3, r3, #2
  43 0014 9B18     		add	r3, r3, r2
  44 0016 5B00     		lsl	r3, r3, #1
  45 0018 FB60     		str	r3, [r7, #12]
 502:Generated_Source\PSoC4/RTC.h ****     retVal += (inputTime & RTC_SECONDS_MASK) >> RTC_SECONDS_OFFSET;
  46              		.loc 1 502 0
  47 001a 7B68     		ldr	r3, [r7, #4]
  48 001c 0F22     		mov	r2, #15
  49 001e 1340     		and	r3, r2
  50 0020 FA68     		ldr	r2, [r7, #12]
  51 0022 D318     		add	r3, r2, r3
  52 0024 FB60     		str	r3, [r7, #12]
 503:Generated_Source\PSoC4/RTC.h **** 
 504:Generated_Source\PSoC4/RTC.h ****     return (retVal);
  53              		.loc 1 504 0
  54 0026 FB68     		ldr	r3, [r7, #12]
 505:Generated_Source\PSoC4/RTC.h **** }
  55              		.loc 1 505 0
  56 0028 181C     		mov	r0, r3
  57 002a BD46     		mov	sp, r7
  58 002c 04B0     		add	sp, sp, #16
  59              		@ sp needed
  60 002e 80BD     		pop	{r7, pc}
  61              		.cfi_endproc
  62              	.LFE4:
  63              		.size	RTC_GetSecond, .-RTC_GetSecond
  64              		.section	.text.RTC_GetMinutes,"ax",%progbits
  65              		.align	2
ARM GAS  C:\Users\Petro\AppData\Local\Temp\cc4lpBuc.s 			page 11


  66              		.code	16
  67              		.thumb_func
  68              		.type	RTC_GetMinutes, %function
  69              	RTC_GetMinutes:
  70              	.LFB5:
 506:Generated_Source\PSoC4/RTC.h **** 
 507:Generated_Source\PSoC4/RTC.h **** 
 508:Generated_Source\PSoC4/RTC.h **** /*******************************************************************************
 509:Generated_Source\PSoC4/RTC.h **** * Function Name: RTC_GetMinutes
 510:Generated_Source\PSoC4/RTC.h **** ****************************************************************************//**
 511:Generated_Source\PSoC4/RTC.h **** *
 512:Generated_Source\PSoC4/RTC.h **** * \brief
 513:Generated_Source\PSoC4/RTC.h **** *  Returns the minutes value from the time value that is passed as a/the 
 514:Generated_Source\PSoC4/RTC.h **** * parameter.
 515:Generated_Source\PSoC4/RTC.h **** *
 516:Generated_Source\PSoC4/RTC.h **** * \param
 517:Generated_Source\PSoC4/RTC.h **** *  time The time value.
 518:Generated_Source\PSoC4/RTC.h **** *
 519:Generated_Source\PSoC4/RTC.h **** * \return
 520:Generated_Source\PSoC4/RTC.h **** *  The minutes value.
 521:Generated_Source\PSoC4/RTC.h **** *
 522:Generated_Source\PSoC4/RTC.h **** *******************************************************************************/
 523:Generated_Source\PSoC4/RTC.h **** static CY_INLINE uint32 RTC_GetMinutes(uint32 inputTime)
 524:Generated_Source\PSoC4/RTC.h **** {
  71              		.loc 1 524 0
  72              		.cfi_startproc
  73 0000 80B5     		push	{r7, lr}
  74              		.cfi_def_cfa_offset 8
  75              		.cfi_offset 7, -8
  76              		.cfi_offset 14, -4
  77 0002 84B0     		sub	sp, sp, #16
  78              		.cfi_def_cfa_offset 24
  79 0004 00AF     		add	r7, sp, #0
  80              		.cfi_def_cfa_register 7
  81 0006 7860     		str	r0, [r7, #4]
 525:Generated_Source\PSoC4/RTC.h ****     uint32 retVal;
 526:Generated_Source\PSoC4/RTC.h **** 
 527:Generated_Source\PSoC4/RTC.h ****     retVal  = ((inputTime & RTC_10_MINUTES_MASK) >> RTC_10_MINUTES_OFFSET) * 10u;
  82              		.loc 1 527 0
  83 0008 7A68     		ldr	r2, [r7, #4]
  84 000a E023     		mov	r3, #224
  85 000c DB01     		lsl	r3, r3, #7
  86 000e 1340     		and	r3, r2
  87 0010 1A0B     		lsr	r2, r3, #12
  88 0012 131C     		mov	r3, r2
  89 0014 9B00     		lsl	r3, r3, #2
  90 0016 9B18     		add	r3, r3, r2
  91 0018 5B00     		lsl	r3, r3, #1
  92 001a FB60     		str	r3, [r7, #12]
 528:Generated_Source\PSoC4/RTC.h ****     retVal += (inputTime & RTC_MINUTES_MASK) >> RTC_MINUTES_OFFSET;
  93              		.loc 1 528 0
  94 001c 7A68     		ldr	r2, [r7, #4]
  95 001e F023     		mov	r3, #240
  96 0020 1B01     		lsl	r3, r3, #4
  97 0022 1340     		and	r3, r2
  98 0024 1B0A     		lsr	r3, r3, #8
  99 0026 FA68     		ldr	r2, [r7, #12]
ARM GAS  C:\Users\Petro\AppData\Local\Temp\cc4lpBuc.s 			page 12


 100 0028 D318     		add	r3, r2, r3
 101 002a FB60     		str	r3, [r7, #12]
 529:Generated_Source\PSoC4/RTC.h **** 
 530:Generated_Source\PSoC4/RTC.h ****     return (retVal);
 102              		.loc 1 530 0
 103 002c FB68     		ldr	r3, [r7, #12]
 531:Generated_Source\PSoC4/RTC.h **** }
 104              		.loc 1 531 0
 105 002e 181C     		mov	r0, r3
 106 0030 BD46     		mov	sp, r7
 107 0032 04B0     		add	sp, sp, #16
 108              		@ sp needed
 109 0034 80BD     		pop	{r7, pc}
 110              		.cfi_endproc
 111              	.LFE5:
 112              		.size	RTC_GetMinutes, .-RTC_GetMinutes
 113 0036 C046     		.section	.text.RTC_GetHours,"ax",%progbits
 114              		.align	2
 115              		.code	16
 116              		.thumb_func
 117              		.type	RTC_GetHours, %function
 118              	RTC_GetHours:
 119              	.LFB6:
 532:Generated_Source\PSoC4/RTC.h **** 
 533:Generated_Source\PSoC4/RTC.h **** 
 534:Generated_Source\PSoC4/RTC.h **** /*******************************************************************************
 535:Generated_Source\PSoC4/RTC.h **** * Function Name: RTC_GetHours
 536:Generated_Source\PSoC4/RTC.h **** ****************************************************************************//**
 537:Generated_Source\PSoC4/RTC.h **** *
 538:Generated_Source\PSoC4/RTC.h **** * \brief
 539:Generated_Source\PSoC4/RTC.h **** *  Returns the hours value from the time value that is passed as a/the parameter.
 540:Generated_Source\PSoC4/RTC.h **** *
 541:Generated_Source\PSoC4/RTC.h **** * \param
 542:Generated_Source\PSoC4/RTC.h **** *  time The time value.
 543:Generated_Source\PSoC4/RTC.h **** *
 544:Generated_Source\PSoC4/RTC.h **** * \return
 545:Generated_Source\PSoC4/RTC.h **** *  The hours value.
 546:Generated_Source\PSoC4/RTC.h **** *
 547:Generated_Source\PSoC4/RTC.h **** *******************************************************************************/
 548:Generated_Source\PSoC4/RTC.h **** static CY_INLINE uint32 RTC_GetHours(uint32 inputTime)
 549:Generated_Source\PSoC4/RTC.h **** {
 120              		.loc 1 549 0
 121              		.cfi_startproc
 122 0000 80B5     		push	{r7, lr}
 123              		.cfi_def_cfa_offset 8
 124              		.cfi_offset 7, -8
 125              		.cfi_offset 14, -4
 126 0002 84B0     		sub	sp, sp, #16
 127              		.cfi_def_cfa_offset 24
 128 0004 00AF     		add	r7, sp, #0
 129              		.cfi_def_cfa_register 7
 130 0006 7860     		str	r0, [r7, #4]
 550:Generated_Source\PSoC4/RTC.h ****     uint32 retVal;
 551:Generated_Source\PSoC4/RTC.h **** 
 552:Generated_Source\PSoC4/RTC.h ****     retVal  = ((inputTime & RTC_10_HOURS_MASK) >> RTC_10_HOURS_OFFSET) * 10u;
 131              		.loc 1 552 0
 132 0008 7A68     		ldr	r2, [r7, #4]
ARM GAS  C:\Users\Petro\AppData\Local\Temp\cc4lpBuc.s 			page 13


 133 000a C023     		mov	r3, #192
 134 000c 9B03     		lsl	r3, r3, #14
 135 000e 1340     		and	r3, r2
 136 0010 1A0D     		lsr	r2, r3, #20
 137 0012 131C     		mov	r3, r2
 138 0014 9B00     		lsl	r3, r3, #2
 139 0016 9B18     		add	r3, r3, r2
 140 0018 5B00     		lsl	r3, r3, #1
 141 001a FB60     		str	r3, [r7, #12]
 553:Generated_Source\PSoC4/RTC.h ****     retVal += (inputTime & RTC_HOURS_MASK) >> RTC_HOURS_OFFSET;
 142              		.loc 1 553 0
 143 001c 7A68     		ldr	r2, [r7, #4]
 144 001e F023     		mov	r3, #240
 145 0020 1B03     		lsl	r3, r3, #12
 146 0022 1340     		and	r3, r2
 147 0024 1B0C     		lsr	r3, r3, #16
 148 0026 FA68     		ldr	r2, [r7, #12]
 149 0028 D318     		add	r3, r2, r3
 150 002a FB60     		str	r3, [r7, #12]
 554:Generated_Source\PSoC4/RTC.h **** 
 555:Generated_Source\PSoC4/RTC.h ****     return (retVal);
 151              		.loc 1 555 0
 152 002c FB68     		ldr	r3, [r7, #12]
 556:Generated_Source\PSoC4/RTC.h **** }
 153              		.loc 1 556 0
 154 002e 181C     		mov	r0, r3
 155 0030 BD46     		mov	sp, r7
 156 0032 04B0     		add	sp, sp, #16
 157              		@ sp needed
 158 0034 80BD     		pop	{r7, pc}
 159              		.cfi_endproc
 160              	.LFE6:
 161              		.size	RTC_GetHours, .-RTC_GetHours
 162 0036 C046     		.section	.text.RTC_GetDay,"ax",%progbits
 163              		.align	2
 164              		.code	16
 165              		.thumb_func
 166              		.type	RTC_GetDay, %function
 167              	RTC_GetDay:
 168              	.LFB8:
 557:Generated_Source\PSoC4/RTC.h **** 
 558:Generated_Source\PSoC4/RTC.h **** 
 559:Generated_Source\PSoC4/RTC.h **** /*******************************************************************************
 560:Generated_Source\PSoC4/RTC.h **** * Function Name: RTC_GetAmPm
 561:Generated_Source\PSoC4/RTC.h **** ****************************************************************************//**
 562:Generated_Source\PSoC4/RTC.h **** *
 563:Generated_Source\PSoC4/RTC.h **** * \brief
 564:Generated_Source\PSoC4/RTC.h **** *  Returns the AM/PM status from the time value that is passed as parameter.
 565:Generated_Source\PSoC4/RTC.h **** *
 566:Generated_Source\PSoC4/RTC.h **** * \param
 567:Generated_Source\PSoC4/RTC.h **** *  time The time value.
 568:Generated_Source\PSoC4/RTC.h **** *
 569:Generated_Source\PSoC4/RTC.h **** * \return
 570:Generated_Source\PSoC4/RTC.h **** *  RTC_AM - AM.
 571:Generated_Source\PSoC4/RTC.h **** * \return
 572:Generated_Source\PSoC4/RTC.h **** *  RTC_PM - PM.
 573:Generated_Source\PSoC4/RTC.h **** *
ARM GAS  C:\Users\Petro\AppData\Local\Temp\cc4lpBuc.s 			page 14


 574:Generated_Source\PSoC4/RTC.h **** *******************************************************************************/
 575:Generated_Source\PSoC4/RTC.h **** static CY_INLINE uint32 RTC_GetAmPm(uint32 inputTime)
 576:Generated_Source\PSoC4/RTC.h **** {
 577:Generated_Source\PSoC4/RTC.h ****     return (RTC_IsBitSet(inputTime, RTC_PERIOD_OF_DAY_MASK));
 578:Generated_Source\PSoC4/RTC.h **** }
 579:Generated_Source\PSoC4/RTC.h **** 
 580:Generated_Source\PSoC4/RTC.h **** 
 581:Generated_Source\PSoC4/RTC.h **** /*******************************************************************************
 582:Generated_Source\PSoC4/RTC.h **** * Function Name: RTC_GetDay
 583:Generated_Source\PSoC4/RTC.h **** ****************************************************************************//**
 584:Generated_Source\PSoC4/RTC.h **** *
 585:Generated_Source\PSoC4/RTC.h **** * \brief
 586:Generated_Source\PSoC4/RTC.h **** *  Returns the day value from the date value that is passed as parameter.
 587:Generated_Source\PSoC4/RTC.h **** *
 588:Generated_Source\PSoC4/RTC.h **** * \param
 589:Generated_Source\PSoC4/RTC.h **** *  date The date value.
 590:Generated_Source\PSoC4/RTC.h **** *
 591:Generated_Source\PSoC4/RTC.h **** * \return
 592:Generated_Source\PSoC4/RTC.h **** *  The day value.
 593:Generated_Source\PSoC4/RTC.h **** *
 594:Generated_Source\PSoC4/RTC.h **** *******************************************************************************/
 595:Generated_Source\PSoC4/RTC.h **** static CY_INLINE uint32 RTC_GetDay(uint32 date)
 596:Generated_Source\PSoC4/RTC.h **** {
 169              		.loc 1 596 0
 170              		.cfi_startproc
 171 0000 80B5     		push	{r7, lr}
 172              		.cfi_def_cfa_offset 8
 173              		.cfi_offset 7, -8
 174              		.cfi_offset 14, -4
 175 0002 84B0     		sub	sp, sp, #16
 176              		.cfi_def_cfa_offset 24
 177 0004 00AF     		add	r7, sp, #0
 178              		.cfi_def_cfa_register 7
 179 0006 7860     		str	r0, [r7, #4]
 597:Generated_Source\PSoC4/RTC.h ****     uint32 retVal;
 598:Generated_Source\PSoC4/RTC.h **** 
 599:Generated_Source\PSoC4/RTC.h ****     retVal  = ((date & RTC_10_DAY_MASK) >> RTC_10_DAY_OFFSET) * 10u;
 180              		.loc 1 599 0
 181 0008 7A68     		ldr	r2, [r7, #4]
 182 000a C023     		mov	r3, #192
 183 000c 9B03     		lsl	r3, r3, #14
 184 000e 1340     		and	r3, r2
 185 0010 1A0D     		lsr	r2, r3, #20
 186 0012 131C     		mov	r3, r2
 187 0014 9B00     		lsl	r3, r3, #2
 188 0016 9B18     		add	r3, r3, r2
 189 0018 5B00     		lsl	r3, r3, #1
 190 001a FB60     		str	r3, [r7, #12]
 600:Generated_Source\PSoC4/RTC.h ****     retVal += (date & RTC_DAY_MASK) >> RTC_DAY_OFFSET;
 191              		.loc 1 600 0
 192 001c 7A68     		ldr	r2, [r7, #4]
 193 001e F023     		mov	r3, #240
 194 0020 1B03     		lsl	r3, r3, #12
 195 0022 1340     		and	r3, r2
 196 0024 1B0C     		lsr	r3, r3, #16
 197 0026 FA68     		ldr	r2, [r7, #12]
 198 0028 D318     		add	r3, r2, r3
ARM GAS  C:\Users\Petro\AppData\Local\Temp\cc4lpBuc.s 			page 15


 199 002a FB60     		str	r3, [r7, #12]
 601:Generated_Source\PSoC4/RTC.h **** 
 602:Generated_Source\PSoC4/RTC.h ****     return (retVal);
 200              		.loc 1 602 0
 201 002c FB68     		ldr	r3, [r7, #12]
 603:Generated_Source\PSoC4/RTC.h **** }
 202              		.loc 1 603 0
 203 002e 181C     		mov	r0, r3
 204 0030 BD46     		mov	sp, r7
 205 0032 04B0     		add	sp, sp, #16
 206              		@ sp needed
 207 0034 80BD     		pop	{r7, pc}
 208              		.cfi_endproc
 209              	.LFE8:
 210              		.size	RTC_GetDay, .-RTC_GetDay
 211 0036 C046     		.section	.text.RTC_GetMonth,"ax",%progbits
 212              		.align	2
 213              		.code	16
 214              		.thumb_func
 215              		.type	RTC_GetMonth, %function
 216              	RTC_GetMonth:
 217              	.LFB9:
 604:Generated_Source\PSoC4/RTC.h **** 
 605:Generated_Source\PSoC4/RTC.h **** 
 606:Generated_Source\PSoC4/RTC.h **** /*******************************************************************************
 607:Generated_Source\PSoC4/RTC.h **** * Function Name: RTC_GetMonth
 608:Generated_Source\PSoC4/RTC.h **** ****************************************************************************//**
 609:Generated_Source\PSoC4/RTC.h **** *
 610:Generated_Source\PSoC4/RTC.h **** * \brief
 611:Generated_Source\PSoC4/RTC.h **** *  Returns the month value from the date value that is passed as parameter.
 612:Generated_Source\PSoC4/RTC.h **** *
 613:Generated_Source\PSoC4/RTC.h **** * \param
 614:Generated_Source\PSoC4/RTC.h **** *  date The date value.
 615:Generated_Source\PSoC4/RTC.h **** *
 616:Generated_Source\PSoC4/RTC.h **** * \return
 617:Generated_Source\PSoC4/RTC.h **** *  The month value.
 618:Generated_Source\PSoC4/RTC.h **** *
 619:Generated_Source\PSoC4/RTC.h **** *******************************************************************************/
 620:Generated_Source\PSoC4/RTC.h **** static CY_INLINE uint32 RTC_GetMonth(uint32 date)
 621:Generated_Source\PSoC4/RTC.h **** {
 218              		.loc 1 621 0
 219              		.cfi_startproc
 220 0000 80B5     		push	{r7, lr}
 221              		.cfi_def_cfa_offset 8
 222              		.cfi_offset 7, -8
 223              		.cfi_offset 14, -4
 224 0002 84B0     		sub	sp, sp, #16
 225              		.cfi_def_cfa_offset 24
 226 0004 00AF     		add	r7, sp, #0
 227              		.cfi_def_cfa_register 7
 228 0006 7860     		str	r0, [r7, #4]
 622:Generated_Source\PSoC4/RTC.h ****     uint32 retVal;
 623:Generated_Source\PSoC4/RTC.h **** 
 624:Generated_Source\PSoC4/RTC.h ****     retVal  = ((date & RTC_10_MONTH_MASK) >> RTC_10_MONTH_OFFSET) * 10u;
 229              		.loc 1 624 0
 230 0008 7A68     		ldr	r2, [r7, #4]
 231 000a 8023     		mov	r3, #128
ARM GAS  C:\Users\Petro\AppData\Local\Temp\cc4lpBuc.s 			page 16


 232 000c 5B05     		lsl	r3, r3, #21
 233 000e 1340     		and	r3, r2
 234 0010 1A0F     		lsr	r2, r3, #28
 235 0012 131C     		mov	r3, r2
 236 0014 9B00     		lsl	r3, r3, #2
 237 0016 9B18     		add	r3, r3, r2
 238 0018 5B00     		lsl	r3, r3, #1
 239 001a FB60     		str	r3, [r7, #12]
 625:Generated_Source\PSoC4/RTC.h ****     retVal += (date & RTC_MONTH_MASK) >> RTC_MONTH_OFFSET;
 240              		.loc 1 625 0
 241 001c 7A68     		ldr	r2, [r7, #4]
 242 001e F023     		mov	r3, #240
 243 0020 1B05     		lsl	r3, r3, #20
 244 0022 1340     		and	r3, r2
 245 0024 1B0E     		lsr	r3, r3, #24
 246 0026 FA68     		ldr	r2, [r7, #12]
 247 0028 D318     		add	r3, r2, r3
 248 002a FB60     		str	r3, [r7, #12]
 626:Generated_Source\PSoC4/RTC.h **** 
 627:Generated_Source\PSoC4/RTC.h ****     return (retVal);
 249              		.loc 1 627 0
 250 002c FB68     		ldr	r3, [r7, #12]
 628:Generated_Source\PSoC4/RTC.h **** }
 251              		.loc 1 628 0
 252 002e 181C     		mov	r0, r3
 253 0030 BD46     		mov	sp, r7
 254 0032 04B0     		add	sp, sp, #16
 255              		@ sp needed
 256 0034 80BD     		pop	{r7, pc}
 257              		.cfi_endproc
 258              	.LFE9:
 259              		.size	RTC_GetMonth, .-RTC_GetMonth
 260 0036 C046     		.section	.text.RTC_GetYear,"ax",%progbits
 261              		.align	2
 262              		.code	16
 263              		.thumb_func
 264              		.type	RTC_GetYear, %function
 265              	RTC_GetYear:
 266              	.LFB10:
 629:Generated_Source\PSoC4/RTC.h **** 
 630:Generated_Source\PSoC4/RTC.h **** 
 631:Generated_Source\PSoC4/RTC.h **** /*******************************************************************************
 632:Generated_Source\PSoC4/RTC.h **** * Function Name: RTC_GetYear
 633:Generated_Source\PSoC4/RTC.h **** ****************************************************************************//**
 634:Generated_Source\PSoC4/RTC.h **** *
 635:Generated_Source\PSoC4/RTC.h **** * \brief
 636:Generated_Source\PSoC4/RTC.h **** *  Returns the year value from the date value that is passed as parameter.
 637:Generated_Source\PSoC4/RTC.h **** *
 638:Generated_Source\PSoC4/RTC.h **** * \param
 639:Generated_Source\PSoC4/RTC.h **** *  date The date value.
 640:Generated_Source\PSoC4/RTC.h **** *
 641:Generated_Source\PSoC4/RTC.h **** * \return
 642:Generated_Source\PSoC4/RTC.h **** *  The year value.
 643:Generated_Source\PSoC4/RTC.h **** *
 644:Generated_Source\PSoC4/RTC.h **** *******************************************************************************/
 645:Generated_Source\PSoC4/RTC.h **** static CY_INLINE uint32 RTC_GetYear(uint32 date)
 646:Generated_Source\PSoC4/RTC.h **** {
ARM GAS  C:\Users\Petro\AppData\Local\Temp\cc4lpBuc.s 			page 17


 267              		.loc 1 646 0
 268              		.cfi_startproc
 269 0000 80B5     		push	{r7, lr}
 270              		.cfi_def_cfa_offset 8
 271              		.cfi_offset 7, -8
 272              		.cfi_offset 14, -4
 273 0002 84B0     		sub	sp, sp, #16
 274              		.cfi_def_cfa_offset 24
 275 0004 00AF     		add	r7, sp, #0
 276              		.cfi_def_cfa_register 7
 277 0006 7860     		str	r0, [r7, #4]
 647:Generated_Source\PSoC4/RTC.h ****     uint32 retVal;
 648:Generated_Source\PSoC4/RTC.h **** 
 649:Generated_Source\PSoC4/RTC.h ****     retVal  = ((date & RTC_1000_YEAR_MASK) >> RTC_1000_YEAR_OFFSET) * 1000u;
 278              		.loc 1 649 0
 279 0008 7A68     		ldr	r2, [r7, #4]
 280 000a C023     		mov	r3, #192
 281 000c 9B01     		lsl	r3, r3, #6
 282 000e 1340     		and	r3, r2
 283 0010 1B0B     		lsr	r3, r3, #12
 284 0012 FA22     		mov	r2, #250
 285 0014 9200     		lsl	r2, r2, #2
 286 0016 5343     		mul	r3, r2
 287 0018 FB60     		str	r3, [r7, #12]
 650:Generated_Source\PSoC4/RTC.h ****     retVal += ((date & RTC_100_YEAR_MASK) >> RTC_100_YEAR_OFFSET) * 100u;
 288              		.loc 1 650 0
 289 001a 7A68     		ldr	r2, [r7, #4]
 290 001c F023     		mov	r3, #240
 291 001e 1B01     		lsl	r3, r3, #4
 292 0020 1340     		and	r3, r2
 293 0022 1B0A     		lsr	r3, r3, #8
 294 0024 6422     		mov	r2, #100
 295 0026 5343     		mul	r3, r2
 296 0028 FA68     		ldr	r2, [r7, #12]
 297 002a D318     		add	r3, r2, r3
 298 002c FB60     		str	r3, [r7, #12]
 651:Generated_Source\PSoC4/RTC.h ****     retVal += ((date & RTC_10_YEAR_MASK) >> RTC_10_YEAR_OFFSET) * 10u;
 299              		.loc 1 651 0
 300 002e 7B68     		ldr	r3, [r7, #4]
 301 0030 F022     		mov	r2, #240
 302 0032 1340     		and	r3, r2
 303 0034 1A09     		lsr	r2, r3, #4
 304 0036 131C     		mov	r3, r2
 305 0038 9B00     		lsl	r3, r3, #2
 306 003a 9B18     		add	r3, r3, r2
 307 003c 5B00     		lsl	r3, r3, #1
 308 003e 1A1C     		mov	r2, r3
 309 0040 FB68     		ldr	r3, [r7, #12]
 310 0042 9B18     		add	r3, r3, r2
 311 0044 FB60     		str	r3, [r7, #12]
 652:Generated_Source\PSoC4/RTC.h ****     retVal += (date & RTC_YEAR_MASK) >> RTC_YEAR_OFFSET;
 312              		.loc 1 652 0
 313 0046 7B68     		ldr	r3, [r7, #4]
 314 0048 0F22     		mov	r2, #15
 315 004a 1340     		and	r3, r2
 316 004c FA68     		ldr	r2, [r7, #12]
 317 004e D318     		add	r3, r2, r3
ARM GAS  C:\Users\Petro\AppData\Local\Temp\cc4lpBuc.s 			page 18


 318 0050 FB60     		str	r3, [r7, #12]
 653:Generated_Source\PSoC4/RTC.h **** 
 654:Generated_Source\PSoC4/RTC.h ****     return (retVal);
 319              		.loc 1 654 0
 320 0052 FB68     		ldr	r3, [r7, #12]
 655:Generated_Source\PSoC4/RTC.h **** }
 321              		.loc 1 655 0
 322 0054 181C     		mov	r0, r3
 323 0056 BD46     		mov	sp, r7
 324 0058 04B0     		add	sp, sp, #16
 325              		@ sp needed
 326 005a 80BD     		pop	{r7, pc}
 327              		.cfi_endproc
 328              	.LFE10:
 329              		.size	RTC_GetYear, .-RTC_GetYear
 330              		.comm	fatFs,560,4
 331              		.comm	fileO,552,4
 332              		.comm	createFlag,4,4
 333              		.comm	skiersStarted,2,2
 334              		.comm	skiersFinished,2,2
 335              		.comm	skierDB,2400,8
 336              		.section	.rodata
 337              		.align	2
 338              	.LC1:
 339 0000 00       		.ascii	"\000"
 340              		.section	.text.logStart,"ax",%progbits
 341              		.align	2
 342              		.global	logStart
 343              		.code	16
 344              		.thumb_func
 345              		.type	logStart, %function
 346              	logStart:
 347              	.LFB63:
 348              		.file 2 ".\\lib_DB\\logResult.c"
   1:.\lib_DB/logResult.c **** /* ========================================
   2:.\lib_DB/logResult.c ****  *
   3:.\lib_DB/logResult.c ****  * Copyright YOUR COMPANY, THE YEAR
   4:.\lib_DB/logResult.c ****  * All Rights Reserved
   5:.\lib_DB/logResult.c ****  * UNPUBLISHED, LICENSED SOFTWARE.
   6:.\lib_DB/logResult.c ****  *
   7:.\lib_DB/logResult.c ****  * CONFIDENTIAL AND PROPRIETARY INFORMATION
   8:.\lib_DB/logResult.c ****  * WHICH IS THE PROPERTY OF your company.
   9:.\lib_DB/logResult.c ****  *
  10:.\lib_DB/logResult.c ****  * ========================================
  11:.\lib_DB/logResult.c **** */
  12:.\lib_DB/logResult.c **** #include "logResult.h"
  13:.\lib_DB/logResult.c **** 
  14:.\lib_DB/logResult.c **** 
  15:.\lib_DB/logResult.c **** uint32_t logStart(void)
  16:.\lib_DB/logResult.c **** {
 349              		.loc 2 16 0
 350              		.cfi_startproc
 351 0000 90B5     		push	{r4, r7, lr}
 352              		.cfi_def_cfa_offset 12
 353              		.cfi_offset 4, -12
 354              		.cfi_offset 7, -8
 355              		.cfi_offset 14, -4
ARM GAS  C:\Users\Petro\AppData\Local\Temp\cc4lpBuc.s 			page 19


 356 0002 83B0     		sub	sp, sp, #12
 357              		.cfi_def_cfa_offset 24
 358 0004 00AF     		add	r7, sp, #0
 359              		.cfi_def_cfa_register 7
  17:.\lib_DB/logResult.c ****     uint8 resultF;
  18:.\lib_DB/logResult.c ****     
  19:.\lib_DB/logResult.c ****     /*/* Register work area to the default drive */
  20:.\lib_DB/logResult.c ****     resultF = f_mount(&fatFs, "", 1);
 360              		.loc 2 20 0
 361 0006 FC1D     		add	r4, r7, #7
 362 0008 074A     		ldr	r2, .L15
 363 000a 084B     		ldr	r3, .L15+4
 364 000c 101C     		mov	r0, r2
 365 000e 191C     		mov	r1, r3
 366 0010 0122     		mov	r2, #1
 367 0012 FFF7FEFF 		bl	f_mount
 368 0016 031C     		mov	r3, r0
 369 0018 2370     		strb	r3, [r4]
  21:.\lib_DB/logResult.c ****     
  22:.\lib_DB/logResult.c ****     return resultF;   
 370              		.loc 2 22 0
 371 001a FB1D     		add	r3, r7, #7
 372 001c 1B78     		ldrb	r3, [r3]
  23:.\lib_DB/logResult.c **** }
 373              		.loc 2 23 0
 374 001e 181C     		mov	r0, r3
 375 0020 BD46     		mov	sp, r7
 376 0022 03B0     		add	sp, sp, #12
 377              		@ sp needed
 378 0024 90BD     		pop	{r4, r7, pc}
 379              	.L16:
 380 0026 C046     		.align	2
 381              	.L15:
 382 0028 00000000 		.word	fatFs
 383 002c 00000000 		.word	.LC1
 384              		.cfi_endproc
 385              	.LFE63:
 386              		.size	logStart, .-logStart
 387              		.section	.rodata
 388 0001 000000   		.align	2
 389              	.LC3:
 390 0004 25303264 		.ascii	"%02d_%02d_%d.txt\000"
 390      5F253032 
 390      645F2564 
 390      2E747874 
 390      00
 391 0015 000000   		.align	2
 392              	.LC7:
 393 0018 09092530 		.ascii	"\011\011%02lu:%02lu:%02lu:%03u\000"
 393      326C753A 
 393      2530326C 
 393      753A2530 
 393      326C753A 
 394 0031 000000   		.align	2
 395              	.LC9:
 396 0034 09092530 		.ascii	"\011\011%02lu:%03u\000"
 396      326C753A 
ARM GAS  C:\Users\Petro\AppData\Local\Temp\cc4lpBuc.s 			page 20


 396      25303375 
 396      00
 397 0041 000000   		.align	2
 398              	.LC12:
 399 0044 25642573 		.ascii	"%d%s%s%s\012\000"
 399      25732573 
 399      0A00
 400 004e 0000     		.align	2
 401              	.LC14:
 402 0050 0A537973 		.ascii	"\012System started %02d:%02d:%02d\012\000"
 402      74656D20 
 402      73746172 
 402      74656420 
 402      25303264 
 403              		.align	2
 404              	.LC16:
 405 0070 2D2D2D2D 		.ascii	"--------------------------------------------------\012"
 405      2D2D2D2D 
 405      2D2D2D2D 
 405      2D2D2D2D 
 405      2D2D2D2D 
 406 00a3 00       		.ascii	"\000"
 407              		.align	2
 408              	.LC18:
 409 00a4 4E554D09 		.ascii	"NUM\011\011START\011\011\011FINISH\011\011\011RESUL"
 409      09535441 
 409      52540909 
 409      0946494E 
 409      49534809 
 410 00bf 540A00   		.ascii	"T\012\000"
 411 00c2 0000     		.section	.text.WriteSkierResult,"ax",%progbits
 412              		.align	2
 413              		.global	WriteSkierResult
 414              		.code	16
 415              		.thumb_func
 416              		.type	WriteSkierResult, %function
 417              	WriteSkierResult:
 418              	.LFB64:
  24:.\lib_DB/logResult.c **** 
  25:.\lib_DB/logResult.c **** 
  26:.\lib_DB/logResult.c **** uint32_t WriteSkierResult(skierDB_El *data)
  27:.\lib_DB/logResult.c **** {
 419              		.loc 2 27 0
 420              		.cfi_startproc
 421 0000 B0B5     		push	{r4, r5, r7, lr}
 422              		.cfi_def_cfa_offset 16
 423              		.cfi_offset 4, -16
 424              		.cfi_offset 5, -12
 425              		.cfi_offset 7, -8
 426              		.cfi_offset 14, -4
 427 0002 BCB0     		sub	sp, sp, #240
 428              		.cfi_def_cfa_offset 256
 429 0004 02AF     		add	r7, sp, #8
 430              		.cfi_def_cfa 7, 248
 431 0006 7860     		str	r0, [r7, #4]
  28:.\lib_DB/logResult.c ****     uint8 resultF;
  29:.\lib_DB/logResult.c ****     uint count;
ARM GAS  C:\Users\Petro\AppData\Local\Temp\cc4lpBuc.s 			page 21


  30:.\lib_DB/logResult.c ****     
  31:.\lib_DB/logResult.c ****     char nameFile[LEN_NAME];
  32:.\lib_DB/logResult.c ****     uint32_t nameYear;
  33:.\lib_DB/logResult.c ****     uint32_t nameMonth;
  34:.\lib_DB/logResult.c ****     uint32_t nameDay;
  35:.\lib_DB/logResult.c ****     uint32_t date;
  36:.\lib_DB/logResult.c ****     
  37:.\lib_DB/logResult.c ****     date = RTC_GetDate();
 432              		.loc 2 37 0
 433 0008 FFF7FEFF 		bl	RTC_GetDate
 434 000c 031C     		mov	r3, r0
 435 000e E022     		mov	r2, #224
 436 0010 BA18     		add	r2, r7, r2
 437 0012 1360     		str	r3, [r2]
  38:.\lib_DB/logResult.c ****     nameYear = RTC_GetYear(date)-2000;
 438              		.loc 2 38 0
 439 0014 E023     		mov	r3, #224
 440 0016 FB18     		add	r3, r7, r3
 441 0018 1B68     		ldr	r3, [r3]
 442 001a 181C     		mov	r0, r3
 443 001c FFF7FEFF 		bl	RTC_GetYear
 444 0020 031C     		mov	r3, r0
 445 0022 914A     		ldr	r2, .L22
 446 0024 9446     		mov	ip, r2
 447 0026 6344     		add	r3, r3, ip
 448 0028 DC22     		mov	r2, #220
 449 002a BA18     		add	r2, r7, r2
 450 002c 1360     		str	r3, [r2]
  39:.\lib_DB/logResult.c ****     nameMonth = RTC_GetMonth(date);
 451              		.loc 2 39 0
 452 002e E023     		mov	r3, #224
 453 0030 FB18     		add	r3, r7, r3
 454 0032 1B68     		ldr	r3, [r3]
 455 0034 181C     		mov	r0, r3
 456 0036 FFF7FEFF 		bl	RTC_GetMonth
 457 003a 031C     		mov	r3, r0
 458 003c D822     		mov	r2, #216
 459 003e BA18     		add	r2, r7, r2
 460 0040 1360     		str	r3, [r2]
  40:.\lib_DB/logResult.c ****     nameDay = RTC_GetDay(date);
 461              		.loc 2 40 0
 462 0042 E023     		mov	r3, #224
 463 0044 FB18     		add	r3, r7, r3
 464 0046 1B68     		ldr	r3, [r3]
 465 0048 181C     		mov	r0, r3
 466 004a FFF7FEFF 		bl	RTC_GetDay
 467 004e 031C     		mov	r3, r0
 468 0050 D422     		mov	r2, #212
 469 0052 BA18     		add	r2, r7, r2
 470 0054 1360     		str	r3, [r2]
  41:.\lib_DB/logResult.c ****     
  42:.\lib_DB/logResult.c ****     /*Construct name of file in format ddmmyyyy*/
  43:.\lib_DB/logResult.c ****     sprintf(nameFile,"%02d_%02d_%d.txt",nameDay,nameMonth,nameYear);
 471              		.loc 2 43 0
 472 0056 B823     		mov	r3, #184
 473 0058 F818     		add	r0, r7, r3
 474 005a 8449     		ldr	r1, .L22+4
ARM GAS  C:\Users\Petro\AppData\Local\Temp\cc4lpBuc.s 			page 22


 475 005c D423     		mov	r3, #212
 476 005e FB18     		add	r3, r7, r3
 477 0060 1A68     		ldr	r2, [r3]
 478 0062 D823     		mov	r3, #216
 479 0064 FB18     		add	r3, r7, r3
 480 0066 1C68     		ldr	r4, [r3]
 481 0068 DC23     		mov	r3, #220
 482 006a FB18     		add	r3, r7, r3
 483 006c 1B68     		ldr	r3, [r3]
 484 006e 0093     		str	r3, [sp]
 485 0070 231C     		mov	r3, r4
 486 0072 FFF7FEFF 		bl	sprintf
  44:.\lib_DB/logResult.c ****     createFlag = 0;
 487              		.loc 2 44 0
 488 0076 7E4B     		ldr	r3, .L22+8
 489 0078 0022     		mov	r2, #0
 490 007a 1A60     		str	r2, [r3]
  45:.\lib_DB/logResult.c ****     resultF = f_open(&fileO, nameFile, FA_WRITE | FA_OPEN_APPEND, &createFlag);
 491              		.loc 2 45 0
 492 007c E723     		mov	r3, #231
 493 007e FC18     		add	r4, r7, r3
 494 0080 7C49     		ldr	r1, .L22+12
 495 0082 B823     		mov	r3, #184
 496 0084 FA18     		add	r2, r7, r3
 497 0086 7A4B     		ldr	r3, .L22+8
 498 0088 081C     		mov	r0, r1
 499 008a 111C     		mov	r1, r2
 500 008c 3222     		mov	r2, #50
 501 008e FFF7FEFF 		bl	f_open
 502 0092 031C     		mov	r3, r0
 503 0094 2370     		strb	r3, [r4]
  46:.\lib_DB/logResult.c ****     
  47:.\lib_DB/logResult.c ****     if(resultF == RES_OK)
 504              		.loc 2 47 0
 505 0096 E723     		mov	r3, #231
 506 0098 FB18     		add	r3, r7, r3
 507 009a 1B78     		ldrb	r3, [r3]
 508 009c 002B     		cmp	r3, #0
 509 009e 00D0     		beq	.LCB407
 510 00a0 DAE0     		b	.L18	@long jump
 511              	.LCB407:
 512              	.LBB2:
  48:.\lib_DB/logResult.c ****     {
  49:.\lib_DB/logResult.c ****         /*Construct save data*/
  50:.\lib_DB/logResult.c ****         char start[LEN_DATA];
  51:.\lib_DB/logResult.c ****         char finish[LEN_DATA];
  52:.\lib_DB/logResult.c ****         char result[LEN_DATA];
  53:.\lib_DB/logResult.c ****         char writeData[LEN_DATA_ALL];
  54:.\lib_DB/logResult.c ****         
  55:.\lib_DB/logResult.c ****         RTC_DATE_TIME time;
  56:.\lib_DB/logResult.c ****         static uint32_t position = 1;
  57:.\lib_DB/logResult.c ****                 
  58:.\lib_DB/logResult.c ****         RTC_UnixToDateTime(&time, data->unixStartSkier, RTC_24_HOURS_FORMAT);
 513              		.loc 2 58 0
 514 00a2 7B68     		ldr	r3, [r7, #4]
 515 00a4 5C68     		ldr	r4, [r3, #4]
 516 00a6 1B68     		ldr	r3, [r3]
ARM GAS  C:\Users\Petro\AppData\Local\Temp\cc4lpBuc.s 			page 23


 517 00a8 6C22     		mov	r2, #108
 518 00aa B918     		add	r1, r7, r2
 519 00ac 0022     		mov	r2, #0
 520 00ae 0092     		str	r2, [sp]
 521 00b0 081C     		mov	r0, r1
 522 00b2 1A1C     		mov	r2, r3
 523 00b4 231C     		mov	r3, r4
 524 00b6 FFF7FEFF 		bl	RTC_UnixToDateTime
  59:.\lib_DB/logResult.c ****         sprintf(start, "\t\t%02lu:%02lu:%02lu:%03u",RTC_GetHours(time.time),RTC_GetMinutes(time.tim
 525              		.loc 2 59 0
 526 00ba 6C23     		mov	r3, #108
 527 00bc FB18     		add	r3, r7, r3
 528 00be 1B68     		ldr	r3, [r3]
 529 00c0 181C     		mov	r0, r3
 530 00c2 FFF7FEFF 		bl	RTC_GetHours
 531 00c6 051C     		mov	r5, r0
 532 00c8 6C23     		mov	r3, #108
 533 00ca FB18     		add	r3, r7, r3
 534 00cc 1B68     		ldr	r3, [r3]
 535 00ce 181C     		mov	r0, r3
 536 00d0 FFF7FEFF 		bl	RTC_GetMinutes
 537 00d4 041C     		mov	r4, r0
 538 00d6 6C23     		mov	r3, #108
 539 00d8 FB18     		add	r3, r7, r3
 540 00da 1B68     		ldr	r3, [r3]
 541 00dc 181C     		mov	r0, r3
 542 00de FFF7FEFF 		bl	RTC_GetSecond
 543 00e2 7B68     		ldr	r3, [r7, #4]
 544 00e4 1B89     		ldrh	r3, [r3, #8]
 545 00e6 191C     		mov	r1, r3
 546 00e8 A423     		mov	r3, #164
 547 00ea FA18     		add	r2, r7, r3
 548 00ec 624B     		ldr	r3, .L22+16
 549 00ee 0090     		str	r0, [sp]
 550 00f0 0191     		str	r1, [sp, #4]
 551 00f2 101C     		mov	r0, r2
 552 00f4 191C     		mov	r1, r3
 553 00f6 2A1C     		mov	r2, r5
 554 00f8 231C     		mov	r3, r4
 555 00fa FFF7FEFF 		bl	sprintf
  60:.\lib_DB/logResult.c ****         RTC_UnixToDateTime(&time, data->unixFinishSkier, RTC_24_HOURS_FORMAT);
 556              		.loc 2 60 0
 557 00fe 7B68     		ldr	r3, [r7, #4]
 558 0100 5C69     		ldr	r4, [r3, #20]
 559 0102 1B69     		ldr	r3, [r3, #16]
 560 0104 6C22     		mov	r2, #108
 561 0106 B918     		add	r1, r7, r2
 562 0108 0022     		mov	r2, #0
 563 010a 0092     		str	r2, [sp]
 564 010c 081C     		mov	r0, r1
 565 010e 1A1C     		mov	r2, r3
 566 0110 231C     		mov	r3, r4
 567 0112 FFF7FEFF 		bl	RTC_UnixToDateTime
  61:.\lib_DB/logResult.c ****         sprintf(finish, "\t\t%02lu:%02lu:%02lu:%03u",RTC_GetHours(time.time),RTC_GetMinutes(time.ti
 568              		.loc 2 61 0
 569 0116 6C23     		mov	r3, #108
 570 0118 FB18     		add	r3, r7, r3
ARM GAS  C:\Users\Petro\AppData\Local\Temp\cc4lpBuc.s 			page 24


 571 011a 1B68     		ldr	r3, [r3]
 572 011c 181C     		mov	r0, r3
 573 011e FFF7FEFF 		bl	RTC_GetHours
 574 0122 051C     		mov	r5, r0
 575 0124 6C23     		mov	r3, #108
 576 0126 FB18     		add	r3, r7, r3
 577 0128 1B68     		ldr	r3, [r3]
 578 012a 181C     		mov	r0, r3
 579 012c FFF7FEFF 		bl	RTC_GetMinutes
 580 0130 041C     		mov	r4, r0
 581 0132 6C23     		mov	r3, #108
 582 0134 FB18     		add	r3, r7, r3
 583 0136 1B68     		ldr	r3, [r3]
 584 0138 181C     		mov	r0, r3
 585 013a FFF7FEFF 		bl	RTC_GetSecond
 586 013e 7B68     		ldr	r3, [r7, #4]
 587 0140 1B8B     		ldrh	r3, [r3, #24]
 588 0142 191C     		mov	r1, r3
 589 0144 9023     		mov	r3, #144
 590 0146 FA18     		add	r2, r7, r3
 591 0148 4B4B     		ldr	r3, .L22+16
 592 014a 0090     		str	r0, [sp]
 593 014c 0191     		str	r1, [sp, #4]
 594 014e 101C     		mov	r0, r2
 595 0150 191C     		mov	r1, r3
 596 0152 2A1C     		mov	r2, r5
 597 0154 231C     		mov	r3, r4
 598 0156 FFF7FEFF 		bl	sprintf
  62:.\lib_DB/logResult.c ****         sprintf(result, "\t\t%02lu:%03u",(uint32)data->SecondsWay,data->millsWay);
 599              		.loc 2 62 0
 600 015a 7B68     		ldr	r3, [r7, #4]
 601 015c 5C6A     		ldr	r4, [r3, #36]
 602 015e 1B6A     		ldr	r3, [r3, #32]
 603 0160 1D1C     		mov	r5, r3
 604 0162 7B68     		ldr	r3, [r7, #4]
 605 0164 1B8D     		ldrh	r3, [r3, #40]
 606 0166 1C1C     		mov	r4, r3
 607 0168 7C23     		mov	r3, #124
 608 016a FA18     		add	r2, r7, r3
 609 016c 434B     		ldr	r3, .L22+20
 610 016e 101C     		mov	r0, r2
 611 0170 191C     		mov	r1, r3
 612 0172 2A1C     		mov	r2, r5
 613 0174 231C     		mov	r3, r4
 614 0176 FFF7FEFF 		bl	sprintf
  63:.\lib_DB/logResult.c ****         sprintf(writeData,"%d%s%s%s\n",position, start, finish, result); 
 615              		.loc 2 63 0
 616 017a 414B     		ldr	r3, .L22+24
 617 017c 1A68     		ldr	r2, [r3]
 618 017e 0823     		mov	r3, #8
 619 0180 F818     		add	r0, r7, r3
 620 0182 4049     		ldr	r1, .L22+28
 621 0184 A423     		mov	r3, #164
 622 0186 FC18     		add	r4, r7, r3
 623 0188 9023     		mov	r3, #144
 624 018a FB18     		add	r3, r7, r3
 625 018c 0093     		str	r3, [sp]
ARM GAS  C:\Users\Petro\AppData\Local\Temp\cc4lpBuc.s 			page 25


 626 018e 7C23     		mov	r3, #124
 627 0190 FB18     		add	r3, r7, r3
 628 0192 0193     		str	r3, [sp, #4]
 629 0194 231C     		mov	r3, r4
 630 0196 FFF7FEFF 		bl	sprintf
  64:.\lib_DB/logResult.c ****         
  65:.\lib_DB/logResult.c ****         if((position == 1) || (createFlag == 1))
 631              		.loc 2 65 0
 632 019a 394B     		ldr	r3, .L22+24
 633 019c 1B68     		ldr	r3, [r3]
 634 019e 012B     		cmp	r3, #1
 635 01a0 03D0     		beq	.L19
 636              		.loc 2 65 0 is_stmt 0 discriminator 1
 637 01a2 334B     		ldr	r3, .L22+8
 638 01a4 1B68     		ldr	r3, [r3]
 639 01a6 012B     		cmp	r3, #1
 640 01a8 35D1     		bne	.L20
 641              	.L19:
 642              	.LBB3:
  66:.\lib_DB/logResult.c ****         {
  67:.\lib_DB/logResult.c ****             uint32_t tmpTime ;
  68:.\lib_DB/logResult.c ****             
  69:.\lib_DB/logResult.c ****             tmpTime = RTC_GetTime();
 643              		.loc 2 69 0 is_stmt 1
 644 01aa FFF7FEFF 		bl	RTC_GetTime
 645 01ae 031C     		mov	r3, r0
 646 01b0 D022     		mov	r2, #208
 647 01b2 BA18     		add	r2, r7, r2
 648 01b4 1360     		str	r3, [r2]
  70:.\lib_DB/logResult.c ****             f_printf(&fileO,"\nSystem started %02d:%02d:%02d\n", RTC_GetHours(tmpTime),RTC_GetMinut
 649              		.loc 2 70 0
 650 01b6 D023     		mov	r3, #208
 651 01b8 FB18     		add	r3, r7, r3
 652 01ba 1B68     		ldr	r3, [r3]
 653 01bc 181C     		mov	r0, r3
 654 01be FFF7FEFF 		bl	RTC_GetHours
 655 01c2 051C     		mov	r5, r0
 656 01c4 D023     		mov	r3, #208
 657 01c6 FB18     		add	r3, r7, r3
 658 01c8 1B68     		ldr	r3, [r3]
 659 01ca 181C     		mov	r0, r3
 660 01cc FFF7FEFF 		bl	RTC_GetMinutes
 661 01d0 041C     		mov	r4, r0
 662 01d2 D023     		mov	r3, #208
 663 01d4 FB18     		add	r3, r7, r3
 664 01d6 1B68     		ldr	r3, [r3]
 665 01d8 181C     		mov	r0, r3
 666 01da FFF7FEFF 		bl	RTC_GetSecond
 667 01de 011C     		mov	r1, r0
 668 01e0 244A     		ldr	r2, .L22+12
 669 01e2 294B     		ldr	r3, .L22+32
 670 01e4 0091     		str	r1, [sp]
 671 01e6 101C     		mov	r0, r2
 672 01e8 191C     		mov	r1, r3
 673 01ea 2A1C     		mov	r2, r5
 674 01ec 231C     		mov	r3, r4
 675 01ee FFF7FEFF 		bl	f_printf
ARM GAS  C:\Users\Petro\AppData\Local\Temp\cc4lpBuc.s 			page 26


  71:.\lib_DB/logResult.c ****             f_printf(&fileO,"--------------------------------------------------\n");
 676              		.loc 2 71 0
 677 01f2 204A     		ldr	r2, .L22+12
 678 01f4 254B     		ldr	r3, .L22+36
 679 01f6 101C     		mov	r0, r2
 680 01f8 191C     		mov	r1, r3
 681 01fa FFF7FEFF 		bl	f_printf
  72:.\lib_DB/logResult.c ****             f_printf(&fileO,"NUM\t\tSTART\t\t\tFINISH\t\t\tRESULT\n");
 682              		.loc 2 72 0
 683 01fe 1D4A     		ldr	r2, .L22+12
 684 0200 234B     		ldr	r3, .L22+40
 685 0202 101C     		mov	r0, r2
 686 0204 191C     		mov	r1, r3
 687 0206 FFF7FEFF 		bl	f_printf
  73:.\lib_DB/logResult.c ****             f_printf(&fileO,"--------------------------------------------------\n");
 688              		.loc 2 73 0
 689 020a 1A4A     		ldr	r2, .L22+12
 690 020c 1F4B     		ldr	r3, .L22+36
 691 020e 101C     		mov	r0, r2
 692 0210 191C     		mov	r1, r3
 693 0212 FFF7FEFF 		bl	f_printf
 694              	.L20:
 695              	.LBE3:
  74:.\lib_DB/logResult.c ****             
  75:.\lib_DB/logResult.c ****         }
  76:.\lib_DB/logResult.c ****         
  77:.\lib_DB/logResult.c ****         /*write data*/
  78:.\lib_DB/logResult.c ****         resultF = f_write(&fileO, writeData, strlen(writeData),&count);
 696              		.loc 2 78 0
 697 0216 0823     		mov	r3, #8
 698 0218 FB18     		add	r3, r7, r3
 699 021a 181C     		mov	r0, r3
 700 021c FFF7FEFF 		bl	strlen
 701 0220 051C     		mov	r5, r0
 702 0222 E723     		mov	r3, #231
 703 0224 FC18     		add	r4, r7, r3
 704 0226 1349     		ldr	r1, .L22+12
 705 0228 0823     		mov	r3, #8
 706 022a FA18     		add	r2, r7, r3
 707 022c CC23     		mov	r3, #204
 708 022e FB18     		add	r3, r7, r3
 709 0230 081C     		mov	r0, r1
 710 0232 111C     		mov	r1, r2
 711 0234 2A1C     		mov	r2, r5
 712 0236 FFF7FEFF 		bl	f_write
 713 023a 031C     		mov	r3, r0
 714 023c 2370     		strb	r3, [r4]
  79:.\lib_DB/logResult.c ****         resultF = f_close(&fileO);
 715              		.loc 2 79 0
 716 023e E723     		mov	r3, #231
 717 0240 FC18     		add	r4, r7, r3
 718 0242 0C4B     		ldr	r3, .L22+12
 719 0244 181C     		mov	r0, r3
 720 0246 FFF7FEFF 		bl	f_close
 721 024a 031C     		mov	r3, r0
 722 024c 2370     		strb	r3, [r4]
  80:.\lib_DB/logResult.c ****         position++;
ARM GAS  C:\Users\Petro\AppData\Local\Temp\cc4lpBuc.s 			page 27


 723              		.loc 2 80 0
 724 024e 0C4B     		ldr	r3, .L22+24
 725 0250 1B68     		ldr	r3, [r3]
 726 0252 5A1C     		add	r2, r3, #1
 727 0254 0A4B     		ldr	r3, .L22+24
 728 0256 1A60     		str	r2, [r3]
 729              	.L18:
 730              	.LBE2:
  81:.\lib_DB/logResult.c ****     }
  82:.\lib_DB/logResult.c ****     
  83:.\lib_DB/logResult.c ****     return resultF;
 731              		.loc 2 83 0
 732 0258 E723     		mov	r3, #231
 733 025a FB18     		add	r3, r7, r3
 734 025c 1B78     		ldrb	r3, [r3]
  84:.\lib_DB/logResult.c **** }
 735              		.loc 2 84 0
 736 025e 181C     		mov	r0, r3
 737 0260 BD46     		mov	sp, r7
 738 0262 3AB0     		add	sp, sp, #232
 739              		@ sp needed
 740 0264 B0BD     		pop	{r4, r5, r7, pc}
 741              	.L23:
 742 0266 C046     		.align	2
 743              	.L22:
 744 0268 30F8FFFF 		.word	-2000
 745 026c 04000000 		.word	.LC3
 746 0270 00000000 		.word	createFlag
 747 0274 00000000 		.word	fileO
 748 0278 18000000 		.word	.LC7
 749 027c 34000000 		.word	.LC9
 750 0280 00000000 		.word	position.6871
 751 0284 44000000 		.word	.LC12
 752 0288 50000000 		.word	.LC14
 753 028c 70000000 		.word	.LC16
 754 0290 A4000000 		.word	.LC18
 755              		.cfi_endproc
 756              	.LFE64:
 757              		.size	WriteSkierResult, .-WriteSkierResult
 758              		.data
 759              		.align	2
 760              		.type	position.6871, %object
 761              		.size	position.6871, 4
 762              	position.6871:
 763 0000 01000000 		.word	1
 764              		.text
 765              	.Letext0:
 766              		.file 3 "c:\\program files (x86)\\cypress\\psoc creator\\3.3\\psoc creator\\import\\gnu\\arm\\4.9.
 767              		.file 4 "c:\\program files (x86)\\cypress\\psoc creator\\3.3\\psoc creator\\import\\gnu\\arm\\4.9.
 768              		.file 5 "Generated_Source\\PSoC4/cytypes.h"
 769              		.file 6 "c:\\program files (x86)\\cypress\\psoc creator\\3.3\\psoc creator\\import\\gnu\\arm\\4.9.
 770              		.file 7 "./lib_Fat\\integer.h"
 771              		.file 8 "./lib_Fat\\ff.h"
 772              		.file 9 "./lib_DB\\database.h"
 773              		.file 10 ".\\lib_DB\\logResult.h"
 774              		.file 11 "./lib_Fat\\diskio.h"
 775              		.section	.debug_info,"",%progbits
ARM GAS  C:\Users\Petro\AppData\Local\Temp\cc4lpBuc.s 			page 28


 776              	.Ldebug_info0:
 777 0000 E3060000 		.4byte	0x6e3
 778 0004 0400     		.2byte	0x4
 779 0006 00000000 		.4byte	.Ldebug_abbrev0
 780 000a 04       		.byte	0x4
 781 000b 01       		.uleb128 0x1
 782 000c 82020000 		.4byte	.LASF99
 783 0010 01       		.byte	0x1
 784 0011 AB010000 		.4byte	.LASF100
 785 0015 51030000 		.4byte	.LASF101
 786 0019 00000000 		.4byte	.Ldebug_ranges0+0
 787 001d 00000000 		.4byte	0
 788 0021 00000000 		.4byte	.Ldebug_line0
 789 0025 02       		.uleb128 0x2
 790 0026 01       		.byte	0x1
 791 0027 06       		.byte	0x6
 792 0028 10010000 		.4byte	.LASF0
 793 002c 02       		.uleb128 0x2
 794 002d 01       		.byte	0x1
 795 002e 08       		.byte	0x8
 796 002f D5010000 		.4byte	.LASF1
 797 0033 02       		.uleb128 0x2
 798 0034 02       		.byte	0x2
 799 0035 05       		.byte	0x5
 800 0036 6B000000 		.4byte	.LASF2
 801 003a 03       		.uleb128 0x3
 802 003b 94000000 		.4byte	.LASF5
 803 003f 03       		.byte	0x3
 804 0040 2B       		.byte	0x2b
 805 0041 45000000 		.4byte	0x45
 806 0045 02       		.uleb128 0x2
 807 0046 02       		.byte	0x2
 808 0047 07       		.byte	0x7
 809 0048 5B020000 		.4byte	.LASF3
 810 004c 02       		.uleb128 0x2
 811 004d 04       		.byte	0x4
 812 004e 05       		.byte	0x5
 813 004f 5A010000 		.4byte	.LASF4
 814 0053 03       		.uleb128 0x3
 815 0054 9F000000 		.4byte	.LASF6
 816 0058 03       		.byte	0x3
 817 0059 41       		.byte	0x41
 818 005a 5E000000 		.4byte	0x5e
 819 005e 02       		.uleb128 0x2
 820 005f 04       		.byte	0x4
 821 0060 07       		.byte	0x7
 822 0061 14040000 		.4byte	.LASF7
 823 0065 02       		.uleb128 0x2
 824 0066 08       		.byte	0x8
 825 0067 05       		.byte	0x5
 826 0068 2B010000 		.4byte	.LASF8
 827 006c 03       		.uleb128 0x3
 828 006d 41030000 		.4byte	.LASF9
 829 0071 03       		.byte	0x3
 830 0072 5B       		.byte	0x5b
 831 0073 77000000 		.4byte	0x77
 832 0077 02       		.uleb128 0x2
ARM GAS  C:\Users\Petro\AppData\Local\Temp\cc4lpBuc.s 			page 29


 833 0078 08       		.byte	0x8
 834 0079 07       		.byte	0x7
 835 007a FD010000 		.4byte	.LASF10
 836 007e 04       		.uleb128 0x4
 837 007f 04       		.byte	0x4
 838 0080 05       		.byte	0x5
 839 0081 696E7400 		.ascii	"int\000"
 840 0085 02       		.uleb128 0x2
 841 0086 04       		.byte	0x4
 842 0087 07       		.byte	0x7
 843 0088 1D020000 		.4byte	.LASF11
 844 008c 03       		.uleb128 0x3
 845 008d 05040000 		.4byte	.LASF12
 846 0091 04       		.byte	0x4
 847 0092 21       		.byte	0x21
 848 0093 3A000000 		.4byte	0x3a
 849 0097 03       		.uleb128 0x3
 850 0098 14020000 		.4byte	.LASF13
 851 009c 04       		.byte	0x4
 852 009d 2D       		.byte	0x2d
 853 009e 53000000 		.4byte	0x53
 854 00a2 03       		.uleb128 0x3
 855 00a3 5B000000 		.4byte	.LASF14
 856 00a7 04       		.byte	0x4
 857 00a8 39       		.byte	0x39
 858 00a9 6C000000 		.4byte	0x6c
 859 00ad 05       		.uleb128 0x5
 860 00ae 05010000 		.4byte	.LASF15
 861 00b2 05       		.byte	0x5
 862 00b3 9801     		.2byte	0x198
 863 00b5 2C000000 		.4byte	0x2c
 864 00b9 05       		.uleb128 0x5
 865 00ba EB030000 		.4byte	.LASF16
 866 00be 05       		.byte	0x5
 867 00bf 9A01     		.2byte	0x19a
 868 00c1 5E000000 		.4byte	0x5e
 869 00c5 02       		.uleb128 0x2
 870 00c6 04       		.byte	0x4
 871 00c7 04       		.byte	0x4
 872 00c8 25010000 		.4byte	.LASF17
 873 00cc 02       		.uleb128 0x2
 874 00cd 08       		.byte	0x8
 875 00ce 04       		.byte	0x4
 876 00cf 4A040000 		.4byte	.LASF18
 877 00d3 02       		.uleb128 0x2
 878 00d4 01       		.byte	0x1
 879 00d5 08       		.byte	0x8
 880 00d6 75020000 		.4byte	.LASF19
 881 00da 02       		.uleb128 0x2
 882 00db 04       		.byte	0x4
 883 00dc 07       		.byte	0x7
 884 00dd 75000000 		.4byte	.LASF20
 885 00e1 06       		.uleb128 0x6
 886 00e2 10       		.byte	0x10
 887 00e3 01       		.byte	0x1
 888 00e4 29       		.byte	0x29
 889 00e5 1A010000 		.4byte	0x11a
ARM GAS  C:\Users\Petro\AppData\Local\Temp\cc4lpBuc.s 			page 30


 890 00e9 07       		.uleb128 0x7
 891 00ea 46020000 		.4byte	.LASF21
 892 00ee 01       		.byte	0x1
 893 00ef 2B       		.byte	0x2b
 894 00f0 B9000000 		.4byte	0xb9
 895 00f4 00       		.byte	0
 896 00f5 07       		.uleb128 0x7
 897 00f6 B1030000 		.4byte	.LASF22
 898 00fa 01       		.byte	0x1
 899 00fb 2C       		.byte	0x2c
 900 00fc B9000000 		.4byte	0xb9
 901 0100 04       		.byte	0x4
 902 0101 07       		.uleb128 0x7
 903 0102 10030000 		.4byte	.LASF23
 904 0106 01       		.byte	0x1
 905 0107 2D       		.byte	0x2d
 906 0108 B9000000 		.4byte	0xb9
 907 010c 08       		.byte	0x8
 908 010d 07       		.uleb128 0x7
 909 010e 6E020000 		.4byte	.LASF24
 910 0112 01       		.byte	0x1
 911 0113 2E       		.byte	0x2e
 912 0114 B9000000 		.4byte	0xb9
 913 0118 0C       		.byte	0xc
 914 0119 00       		.byte	0
 915 011a 03       		.uleb128 0x3
 916 011b 2B030000 		.4byte	.LASF25
 917 011f 01       		.byte	0x1
 918 0120 2F       		.byte	0x2f
 919 0121 E1000000 		.4byte	0xe1
 920 0125 03       		.uleb128 0x3
 921 0126 AA000000 		.4byte	.LASF26
 922 012a 06       		.byte	0x6
 923 012b 70       		.byte	0x70
 924 012c 85000000 		.4byte	0x85
 925 0130 03       		.uleb128 0x3
 926 0131 AF000000 		.4byte	.LASF27
 927 0135 07       		.byte	0x7
 928 0136 10       		.byte	0x10
 929 0137 2C000000 		.4byte	0x2c
 930 013b 03       		.uleb128 0x3
 931 013c 00010000 		.4byte	.LASF28
 932 0140 07       		.byte	0x7
 933 0141 14       		.byte	0x14
 934 0142 45000000 		.4byte	0x45
 935 0146 03       		.uleb128 0x3
 936 0147 C0010000 		.4byte	.LASF29
 937 014b 07       		.byte	0x7
 938 014c 1D       		.byte	0x1d
 939 014d 5E000000 		.4byte	0x5e
 940 0151 08       		.uleb128 0x8
 941 0152 01       		.byte	0x1
 942 0153 0B       		.byte	0xb
 943 0154 16       		.byte	0x16
 944 0155 78010000 		.4byte	0x178
 945 0159 09       		.uleb128 0x9
 946 015a 64000000 		.4byte	.LASF30
ARM GAS  C:\Users\Petro\AppData\Local\Temp\cc4lpBuc.s 			page 31


 947 015e 00       		.sleb128 0
 948 015f 09       		.uleb128 0x9
 949 0160 28000000 		.4byte	.LASF31
 950 0164 01       		.sleb128 1
 951 0165 09       		.uleb128 0x9
 952 0166 2A020000 		.4byte	.LASF32
 953 016a 02       		.sleb128 2
 954 016b 09       		.uleb128 0x9
 955 016c 1A030000 		.4byte	.LASF33
 956 0170 03       		.sleb128 3
 957 0171 09       		.uleb128 0x9
 958 0172 8D040000 		.4byte	.LASF34
 959 0176 04       		.sleb128 4
 960 0177 00       		.byte	0
 961 0178 03       		.uleb128 0x3
 962 0179 39030000 		.4byte	.LASF35
 963 017d 08       		.byte	0x8
 964 017e 55       		.byte	0x55
 965 017f 46010000 		.4byte	0x146
 966 0183 0A       		.uleb128 0xa
 967 0184 3002     		.2byte	0x230
 968 0186 08       		.byte	0x8
 969 0187 5C       		.byte	0x5c
 970 0188 64020000 		.4byte	0x264
 971 018c 07       		.uleb128 0x7
 972 018d 3B000000 		.4byte	.LASF36
 973 0191 08       		.byte	0x8
 974 0192 5D       		.byte	0x5d
 975 0193 30010000 		.4byte	0x130
 976 0197 00       		.byte	0
 977 0198 0B       		.uleb128 0xb
 978 0199 64727600 		.ascii	"drv\000"
 979 019d 08       		.byte	0x8
 980 019e 5E       		.byte	0x5e
 981 019f 30010000 		.4byte	0x130
 982 01a3 01       		.byte	0x1
 983 01a4 07       		.uleb128 0x7
 984 01a5 00000000 		.4byte	.LASF37
 985 01a9 08       		.byte	0x8
 986 01aa 5F       		.byte	0x5f
 987 01ab 30010000 		.4byte	0x130
 988 01af 02       		.byte	0x2
 989 01b0 07       		.uleb128 0x7
 990 01b1 F7010000 		.4byte	.LASF38
 991 01b5 08       		.byte	0x8
 992 01b6 60       		.byte	0x60
 993 01b7 30010000 		.4byte	0x130
 994 01bb 03       		.byte	0x3
 995 01bc 07       		.uleb128 0x7
 996 01bd C6010000 		.4byte	.LASF39
 997 01c1 08       		.byte	0x8
 998 01c2 61       		.byte	0x61
 999 01c3 30010000 		.4byte	0x130
 1000 01c7 04       		.byte	0x4
 1001 01c8 0B       		.uleb128 0xb
 1002 01c9 696400   		.ascii	"id\000"
 1003 01cc 08       		.byte	0x8
ARM GAS  C:\Users\Petro\AppData\Local\Temp\cc4lpBuc.s 			page 32


 1004 01cd 62       		.byte	0x62
 1005 01ce 3B010000 		.4byte	0x13b
 1006 01d2 06       		.byte	0x6
 1007 01d3 07       		.uleb128 0x7
 1008 01d4 F6000000 		.4byte	.LASF40
 1009 01d8 08       		.byte	0x8
 1010 01d9 63       		.byte	0x63
 1011 01da 3B010000 		.4byte	0x13b
 1012 01de 08       		.byte	0x8
 1013 01df 07       		.uleb128 0x7
 1014 01e0 69010000 		.4byte	.LASF41
 1015 01e4 08       		.byte	0x8
 1016 01e5 64       		.byte	0x64
 1017 01e6 3B010000 		.4byte	0x13b
 1018 01ea 0A       		.byte	0xa
 1019 01eb 07       		.uleb128 0x7
 1020 01ec 3C020000 		.4byte	.LASF42
 1021 01f0 08       		.byte	0x8
 1022 01f1 72       		.byte	0x72
 1023 01f2 46010000 		.4byte	0x146
 1024 01f6 0C       		.byte	0xc
 1025 01f7 07       		.uleb128 0x7
 1026 01f8 CF000000 		.4byte	.LASF43
 1027 01fc 08       		.byte	0x8
 1028 01fd 73       		.byte	0x73
 1029 01fe 46010000 		.4byte	0x146
 1030 0202 10       		.byte	0x10
 1031 0203 07       		.uleb128 0x7
 1032 0204 32000000 		.4byte	.LASF44
 1033 0208 08       		.byte	0x8
 1034 0209 7D       		.byte	0x7d
 1035 020a 46010000 		.4byte	0x146
 1036 020e 14       		.byte	0x14
 1037 020f 07       		.uleb128 0x7
 1038 0210 95010000 		.4byte	.LASF45
 1039 0214 08       		.byte	0x8
 1040 0215 7E       		.byte	0x7e
 1041 0216 46010000 		.4byte	0x146
 1042 021a 18       		.byte	0x18
 1043 021b 07       		.uleb128 0x7
 1044 021c 5B040000 		.4byte	.LASF46
 1045 0220 08       		.byte	0x8
 1046 0221 7F       		.byte	0x7f
 1047 0222 46010000 		.4byte	0x146
 1048 0226 1C       		.byte	0x1c
 1049 0227 07       		.uleb128 0x7
 1050 0228 7A020000 		.4byte	.LASF47
 1051 022c 08       		.byte	0x8
 1052 022d 80       		.byte	0x80
 1053 022e 46010000 		.4byte	0x146
 1054 0232 20       		.byte	0x20
 1055 0233 07       		.uleb128 0x7
 1056 0234 F2030000 		.4byte	.LASF48
 1057 0238 08       		.byte	0x8
 1058 0239 81       		.byte	0x81
 1059 023a 46010000 		.4byte	0x146
 1060 023e 24       		.byte	0x24
ARM GAS  C:\Users\Petro\AppData\Local\Temp\cc4lpBuc.s 			page 33


 1061 023f 07       		.uleb128 0x7
 1062 0240 98040000 		.4byte	.LASF49
 1063 0244 08       		.byte	0x8
 1064 0245 82       		.byte	0x82
 1065 0246 46010000 		.4byte	0x146
 1066 024a 28       		.byte	0x28
 1067 024b 07       		.uleb128 0x7
 1068 024c 6B040000 		.4byte	.LASF50
 1069 0250 08       		.byte	0x8
 1070 0251 83       		.byte	0x83
 1071 0252 46010000 		.4byte	0x146
 1072 0256 2C       		.byte	0x2c
 1073 0257 0B       		.uleb128 0xb
 1074 0258 77696E00 		.ascii	"win\000"
 1075 025c 08       		.byte	0x8
 1076 025d 84       		.byte	0x84
 1077 025e 64020000 		.4byte	0x264
 1078 0262 30       		.byte	0x30
 1079 0263 00       		.byte	0
 1080 0264 0C       		.uleb128 0xc
 1081 0265 30010000 		.4byte	0x130
 1082 0269 75020000 		.4byte	0x275
 1083 026d 0D       		.uleb128 0xd
 1084 026e DA000000 		.4byte	0xda
 1085 0272 FF01     		.2byte	0x1ff
 1086 0274 00       		.byte	0
 1087 0275 03       		.uleb128 0x3
 1088 0276 B6030000 		.4byte	.LASF51
 1089 027a 08       		.byte	0x8
 1090 027b 85       		.byte	0x85
 1091 027c 83010000 		.4byte	0x183
 1092 0280 06       		.uleb128 0x6
 1093 0281 10       		.byte	0x10
 1094 0282 08       		.byte	0x8
 1095 0283 8B       		.byte	0x8b
 1096 0284 CF020000 		.4byte	0x2cf
 1097 0288 0B       		.uleb128 0xb
 1098 0289 667300   		.ascii	"fs\000"
 1099 028c 08       		.byte	0x8
 1100 028d 8C       		.byte	0x8c
 1101 028e CF020000 		.4byte	0x2cf
 1102 0292 00       		.byte	0
 1103 0293 0B       		.uleb128 0xb
 1104 0294 696400   		.ascii	"id\000"
 1105 0297 08       		.byte	0x8
 1106 0298 8D       		.byte	0x8d
 1107 0299 3B010000 		.4byte	0x13b
 1108 029d 04       		.byte	0x4
 1109 029e 07       		.uleb128 0x7
 1110 029f 00040000 		.4byte	.LASF52
 1111 02a3 08       		.byte	0x8
 1112 02a4 8E       		.byte	0x8e
 1113 02a5 30010000 		.4byte	0x130
 1114 02a9 06       		.byte	0x6
 1115 02aa 07       		.uleb128 0x7
 1116 02ab 56040000 		.4byte	.LASF53
 1117 02af 08       		.byte	0x8
ARM GAS  C:\Users\Petro\AppData\Local\Temp\cc4lpBuc.s 			page 34


 1118 02b0 8F       		.byte	0x8f
 1119 02b1 30010000 		.4byte	0x130
 1120 02b5 07       		.byte	0x7
 1121 02b6 07       		.uleb128 0x7
 1122 02b7 34040000 		.4byte	.LASF54
 1123 02bb 08       		.byte	0x8
 1124 02bc 90       		.byte	0x90
 1125 02bd 46010000 		.4byte	0x146
 1126 02c1 08       		.byte	0x8
 1127 02c2 07       		.uleb128 0x7
 1128 02c3 48010000 		.4byte	.LASF55
 1129 02c7 08       		.byte	0x8
 1130 02c8 91       		.byte	0x91
 1131 02c9 78010000 		.4byte	0x178
 1132 02cd 0C       		.byte	0xc
 1133 02ce 00       		.byte	0
 1134 02cf 0E       		.uleb128 0xe
 1135 02d0 04       		.byte	0x4
 1136 02d1 75020000 		.4byte	0x275
 1137 02d5 03       		.uleb128 0x3
 1138 02d6 6F010000 		.4byte	.LASF56
 1139 02da 08       		.byte	0x8
 1140 02db 9B       		.byte	0x9b
 1141 02dc 80020000 		.4byte	0x280
 1142 02e0 0A       		.uleb128 0xa
 1143 02e1 2802     		.2byte	0x228
 1144 02e3 08       		.byte	0x8
 1145 02e4 A1       		.byte	0xa1
 1146 02e5 56030000 		.4byte	0x356
 1147 02e9 0B       		.uleb128 0xb
 1148 02ea 6F626A00 		.ascii	"obj\000"
 1149 02ee 08       		.byte	0x8
 1150 02ef A2       		.byte	0xa2
 1151 02f0 D5020000 		.4byte	0x2d5
 1152 02f4 00       		.byte	0
 1153 02f5 07       		.uleb128 0x7
 1154 02f6 51040000 		.4byte	.LASF57
 1155 02fa 08       		.byte	0x8
 1156 02fb A3       		.byte	0xa3
 1157 02fc 30010000 		.4byte	0x130
 1158 0300 10       		.byte	0x10
 1159 0301 0B       		.uleb128 0xb
 1160 0302 65727200 		.ascii	"err\000"
 1161 0306 08       		.byte	0x8
 1162 0307 A4       		.byte	0xa4
 1163 0308 30010000 		.4byte	0x130
 1164 030c 11       		.byte	0x11
 1165 030d 07       		.uleb128 0x7
 1166 030e 0B010000 		.4byte	.LASF58
 1167 0312 08       		.byte	0x8
 1168 0313 A5       		.byte	0xa5
 1169 0314 78010000 		.4byte	0x178
 1170 0318 14       		.byte	0x14
 1171 0319 07       		.uleb128 0x7
 1172 031a 63010000 		.4byte	.LASF59
 1173 031e 08       		.byte	0x8
 1174 031f A6       		.byte	0xa6
ARM GAS  C:\Users\Petro\AppData\Local\Temp\cc4lpBuc.s 			page 35


 1175 0320 46010000 		.4byte	0x146
 1176 0324 18       		.byte	0x18
 1177 0325 07       		.uleb128 0x7
 1178 0326 2F040000 		.4byte	.LASF60
 1179 032a 08       		.byte	0x8
 1180 032b A7       		.byte	0xa7
 1181 032c 46010000 		.4byte	0x146
 1182 0330 1C       		.byte	0x1c
 1183 0331 07       		.uleb128 0x7
 1184 0332 84040000 		.4byte	.LASF61
 1185 0336 08       		.byte	0x8
 1186 0337 A9       		.byte	0xa9
 1187 0338 46010000 		.4byte	0x146
 1188 033c 20       		.byte	0x20
 1189 033d 07       		.uleb128 0x7
 1190 033e 53020000 		.4byte	.LASF62
 1191 0342 08       		.byte	0x8
 1192 0343 AA       		.byte	0xaa
 1193 0344 56030000 		.4byte	0x356
 1194 0348 24       		.byte	0x24
 1195 0349 0B       		.uleb128 0xb
 1196 034a 62756600 		.ascii	"buf\000"
 1197 034e 08       		.byte	0x8
 1198 034f B0       		.byte	0xb0
 1199 0350 64020000 		.4byte	0x264
 1200 0354 28       		.byte	0x28
 1201 0355 00       		.byte	0
 1202 0356 0E       		.uleb128 0xe
 1203 0357 04       		.byte	0x4
 1204 0358 30010000 		.4byte	0x130
 1205 035c 0F       		.uleb128 0xf
 1206 035d 46494C00 		.ascii	"FIL\000"
 1207 0361 08       		.byte	0x8
 1208 0362 B2       		.byte	0xb2
 1209 0363 E0020000 		.4byte	0x2e0
 1210 0367 06       		.uleb128 0x6
 1211 0368 30       		.byte	0x30
 1212 0369 09       		.byte	0x9
 1213 036a 13       		.byte	0x13
 1214 036b B8030000 		.4byte	0x3b8
 1215 036f 07       		.uleb128 0x7
 1216 0370 75010000 		.4byte	.LASF63
 1217 0374 09       		.byte	0x9
 1218 0375 15       		.byte	0x15
 1219 0376 A2000000 		.4byte	0xa2
 1220 037a 00       		.byte	0
 1221 037b 07       		.uleb128 0x7
 1222 037c B4000000 		.4byte	.LASF64
 1223 0380 09       		.byte	0x9
 1224 0381 16       		.byte	0x16
 1225 0382 8C000000 		.4byte	0x8c
 1226 0386 08       		.byte	0x8
 1227 0387 07       		.uleb128 0x7
 1228 0388 9B010000 		.4byte	.LASF65
 1229 038c 09       		.byte	0x9
 1230 038d 17       		.byte	0x17
 1231 038e A2000000 		.4byte	0xa2
ARM GAS  C:\Users\Petro\AppData\Local\Temp\cc4lpBuc.s 			page 36


 1232 0392 10       		.byte	0x10
 1233 0393 07       		.uleb128 0x7
 1234 0394 73040000 		.4byte	.LASF66
 1235 0398 09       		.byte	0x9
 1236 0399 18       		.byte	0x18
 1237 039a 8C000000 		.4byte	0x8c
 1238 039e 18       		.byte	0x18
 1239 039f 07       		.uleb128 0x7
 1240 03a0 43000000 		.4byte	.LASF67
 1241 03a4 09       		.byte	0x9
 1242 03a5 19       		.byte	0x19
 1243 03a6 A2000000 		.4byte	0xa2
 1244 03aa 20       		.byte	0x20
 1245 03ab 07       		.uleb128 0x7
 1246 03ac 26040000 		.4byte	.LASF68
 1247 03b0 09       		.byte	0x9
 1248 03b1 1A       		.byte	0x1a
 1249 03b2 8C000000 		.4byte	0x8c
 1250 03b6 28       		.byte	0x28
 1251 03b7 00       		.byte	0
 1252 03b8 03       		.uleb128 0x3
 1253 03b9 C4000000 		.4byte	.LASF69
 1254 03bd 09       		.byte	0x9
 1255 03be 1B       		.byte	0x1b
 1256 03bf 67030000 		.4byte	0x367
 1257 03c3 10       		.uleb128 0x10
 1258 03c4 E8000000 		.4byte	.LASF70
 1259 03c8 01       		.byte	0x1
 1260 03c9 F101     		.2byte	0x1f1
 1261 03cb B9000000 		.4byte	0xb9
 1262 03cf 00000000 		.4byte	.LFB4
 1263 03d3 30000000 		.4byte	.LFE4-.LFB4
 1264 03d7 01       		.uleb128 0x1
 1265 03d8 9C       		.byte	0x9c
 1266 03d9 FC030000 		.4byte	0x3fc
 1267 03dd 11       		.uleb128 0x11
 1268 03de 50010000 		.4byte	.LASF72
 1269 03e2 01       		.byte	0x1
 1270 03e3 F101     		.2byte	0x1f1
 1271 03e5 B9000000 		.4byte	0xb9
 1272 03e9 02       		.uleb128 0x2
 1273 03ea 91       		.byte	0x91
 1274 03eb 6C       		.sleb128 -20
 1275 03ec 12       		.uleb128 0x12
 1276 03ed 3B040000 		.4byte	.LASF73
 1277 03f1 01       		.byte	0x1
 1278 03f2 F301     		.2byte	0x1f3
 1279 03f4 B9000000 		.4byte	0xb9
 1280 03f8 02       		.uleb128 0x2
 1281 03f9 91       		.byte	0x91
 1282 03fa 74       		.sleb128 -12
 1283 03fb 00       		.byte	0
 1284 03fc 10       		.uleb128 0x10
 1285 03fd 39010000 		.4byte	.LASF71
 1286 0401 01       		.byte	0x1
 1287 0402 0B02     		.2byte	0x20b
 1288 0404 B9000000 		.4byte	0xb9
ARM GAS  C:\Users\Petro\AppData\Local\Temp\cc4lpBuc.s 			page 37


 1289 0408 00000000 		.4byte	.LFB5
 1290 040c 36000000 		.4byte	.LFE5-.LFB5
 1291 0410 01       		.uleb128 0x1
 1292 0411 9C       		.byte	0x9c
 1293 0412 35040000 		.4byte	0x435
 1294 0416 11       		.uleb128 0x11
 1295 0417 50010000 		.4byte	.LASF72
 1296 041b 01       		.byte	0x1
 1297 041c 0B02     		.2byte	0x20b
 1298 041e B9000000 		.4byte	0xb9
 1299 0422 02       		.uleb128 0x2
 1300 0423 91       		.byte	0x91
 1301 0424 6C       		.sleb128 -20
 1302 0425 12       		.uleb128 0x12
 1303 0426 3B040000 		.4byte	.LASF73
 1304 042a 01       		.byte	0x1
 1305 042b 0D02     		.2byte	0x20d
 1306 042d B9000000 		.4byte	0xb9
 1307 0431 02       		.uleb128 0x2
 1308 0432 91       		.byte	0x91
 1309 0433 74       		.sleb128 -12
 1310 0434 00       		.byte	0
 1311 0435 10       		.uleb128 0x10
 1312 0436 4E000000 		.4byte	.LASF74
 1313 043a 01       		.byte	0x1
 1314 043b 2402     		.2byte	0x224
 1315 043d B9000000 		.4byte	0xb9
 1316 0441 00000000 		.4byte	.LFB6
 1317 0445 36000000 		.4byte	.LFE6-.LFB6
 1318 0449 01       		.uleb128 0x1
 1319 044a 9C       		.byte	0x9c
 1320 044b 6E040000 		.4byte	0x46e
 1321 044f 11       		.uleb128 0x11
 1322 0450 50010000 		.4byte	.LASF72
 1323 0454 01       		.byte	0x1
 1324 0455 2402     		.2byte	0x224
 1325 0457 B9000000 		.4byte	0xb9
 1326 045b 02       		.uleb128 0x2
 1327 045c 91       		.byte	0x91
 1328 045d 6C       		.sleb128 -20
 1329 045e 12       		.uleb128 0x12
 1330 045f 3B040000 		.4byte	.LASF73
 1331 0463 01       		.byte	0x1
 1332 0464 2602     		.2byte	0x226
 1333 0466 B9000000 		.4byte	0xb9
 1334 046a 02       		.uleb128 0x2
 1335 046b 91       		.byte	0x91
 1336 046c 74       		.sleb128 -12
 1337 046d 00       		.byte	0
 1338 046e 10       		.uleb128 0x10
 1339 046f BC030000 		.4byte	.LASF75
 1340 0473 01       		.byte	0x1
 1341 0474 5302     		.2byte	0x253
 1342 0476 B9000000 		.4byte	0xb9
 1343 047a 00000000 		.4byte	.LFB8
 1344 047e 36000000 		.4byte	.LFE8-.LFB8
 1345 0482 01       		.uleb128 0x1
ARM GAS  C:\Users\Petro\AppData\Local\Temp\cc4lpBuc.s 			page 38


 1346 0483 9C       		.byte	0x9c
 1347 0484 A7040000 		.4byte	0x4a7
 1348 0488 11       		.uleb128 0x11
 1349 0489 B1030000 		.4byte	.LASF22
 1350 048d 01       		.byte	0x1
 1351 048e 5302     		.2byte	0x253
 1352 0490 B9000000 		.4byte	0xb9
 1353 0494 02       		.uleb128 0x2
 1354 0495 91       		.byte	0x91
 1355 0496 6C       		.sleb128 -20
 1356 0497 12       		.uleb128 0x12
 1357 0498 3B040000 		.4byte	.LASF73
 1358 049c 01       		.byte	0x1
 1359 049d 5502     		.2byte	0x255
 1360 049f B9000000 		.4byte	0xb9
 1361 04a3 02       		.uleb128 0x2
 1362 04a4 91       		.byte	0x91
 1363 04a5 74       		.sleb128 -12
 1364 04a6 00       		.byte	0
 1365 04a7 10       		.uleb128 0x10
 1366 04a8 7E000000 		.4byte	.LASF76
 1367 04ac 01       		.byte	0x1
 1368 04ad 6C02     		.2byte	0x26c
 1369 04af B9000000 		.4byte	0xb9
 1370 04b3 00000000 		.4byte	.LFB9
 1371 04b7 36000000 		.4byte	.LFE9-.LFB9
 1372 04bb 01       		.uleb128 0x1
 1373 04bc 9C       		.byte	0x9c
 1374 04bd E0040000 		.4byte	0x4e0
 1375 04c1 11       		.uleb128 0x11
 1376 04c2 B1030000 		.4byte	.LASF22
 1377 04c6 01       		.byte	0x1
 1378 04c7 6C02     		.2byte	0x26c
 1379 04c9 B9000000 		.4byte	0xb9
 1380 04cd 02       		.uleb128 0x2
 1381 04ce 91       		.byte	0x91
 1382 04cf 6C       		.sleb128 -20
 1383 04d0 12       		.uleb128 0x12
 1384 04d1 3B040000 		.4byte	.LASF73
 1385 04d5 01       		.byte	0x1
 1386 04d6 6E02     		.2byte	0x26e
 1387 04d8 B9000000 		.4byte	0xb9
 1388 04dc 02       		.uleb128 0x2
 1389 04dd 91       		.byte	0x91
 1390 04de 74       		.sleb128 -12
 1391 04df 00       		.byte	0
 1392 04e0 10       		.uleb128 0x10
 1393 04e1 D5030000 		.4byte	.LASF77
 1394 04e5 01       		.byte	0x1
 1395 04e6 8502     		.2byte	0x285
 1396 04e8 B9000000 		.4byte	0xb9
 1397 04ec 00000000 		.4byte	.LFB10
 1398 04f0 5C000000 		.4byte	.LFE10-.LFB10
 1399 04f4 01       		.uleb128 0x1
 1400 04f5 9C       		.byte	0x9c
 1401 04f6 19050000 		.4byte	0x519
 1402 04fa 11       		.uleb128 0x11
ARM GAS  C:\Users\Petro\AppData\Local\Temp\cc4lpBuc.s 			page 39


 1403 04fb B1030000 		.4byte	.LASF22
 1404 04ff 01       		.byte	0x1
 1405 0500 8502     		.2byte	0x285
 1406 0502 B9000000 		.4byte	0xb9
 1407 0506 02       		.uleb128 0x2
 1408 0507 91       		.byte	0x91
 1409 0508 6C       		.sleb128 -20
 1410 0509 12       		.uleb128 0x12
 1411 050a 3B040000 		.4byte	.LASF73
 1412 050e 01       		.byte	0x1
 1413 050f 8702     		.2byte	0x287
 1414 0511 B9000000 		.4byte	0xb9
 1415 0515 02       		.uleb128 0x2
 1416 0516 91       		.byte	0x91
 1417 0517 74       		.sleb128 -12
 1418 0518 00       		.byte	0
 1419 0519 13       		.uleb128 0x13
 1420 051a 8B000000 		.4byte	.LASF79
 1421 051e 02       		.byte	0x2
 1422 051f 0F       		.byte	0xf
 1423 0520 97000000 		.4byte	0x97
 1424 0524 00000000 		.4byte	.LFB63
 1425 0528 30000000 		.4byte	.LFE63-.LFB63
 1426 052c 01       		.uleb128 0x1
 1427 052d 9C       		.byte	0x9c
 1428 052e 41050000 		.4byte	0x541
 1429 0532 14       		.uleb128 0x14
 1430 0533 34020000 		.4byte	.LASF78
 1431 0537 02       		.byte	0x2
 1432 0538 11       		.byte	0x11
 1433 0539 AD000000 		.4byte	0xad
 1434 053d 02       		.uleb128 0x2
 1435 053e 91       		.byte	0x91
 1436 053f 6F       		.sleb128 -17
 1437 0540 00       		.byte	0
 1438 0541 13       		.uleb128 0x13
 1439 0542 17000000 		.4byte	.LASF80
 1440 0546 02       		.byte	0x2
 1441 0547 1A       		.byte	0x1a
 1442 0548 97000000 		.4byte	0x97
 1443 054c 00000000 		.4byte	.LFB64
 1444 0550 94020000 		.4byte	.LFE64-.LFB64
 1445 0554 01       		.uleb128 0x1
 1446 0555 9C       		.byte	0x9c
 1447 0556 4A060000 		.4byte	0x64a
 1448 055a 15       		.uleb128 0x15
 1449 055b 4C030000 		.4byte	.LASF81
 1450 055f 02       		.byte	0x2
 1451 0560 1A       		.byte	0x1a
 1452 0561 4A060000 		.4byte	0x64a
 1453 0565 03       		.uleb128 0x3
 1454 0566 91       		.byte	0x91
 1455 0567 8C7E     		.sleb128 -244
 1456 0569 14       		.uleb128 0x14
 1457 056a 34020000 		.4byte	.LASF78
 1458 056e 02       		.byte	0x2
 1459 056f 1C       		.byte	0x1c
ARM GAS  C:\Users\Petro\AppData\Local\Temp\cc4lpBuc.s 			page 40


 1460 0570 AD000000 		.4byte	0xad
 1461 0574 02       		.uleb128 0x2
 1462 0575 91       		.byte	0x91
 1463 0576 6F       		.sleb128 -17
 1464 0577 14       		.uleb128 0x14
 1465 0578 0E040000 		.4byte	.LASF82
 1466 057c 02       		.byte	0x2
 1467 057d 1D       		.byte	0x1d
 1468 057e 25010000 		.4byte	0x125
 1469 0582 02       		.uleb128 0x2
 1470 0583 91       		.byte	0x91
 1471 0584 54       		.sleb128 -44
 1472 0585 14       		.uleb128 0x14
 1473 0586 07000000 		.4byte	.LASF83
 1474 058a 02       		.byte	0x2
 1475 058b 1F       		.byte	0x1f
 1476 058c 50060000 		.4byte	0x650
 1477 0590 02       		.uleb128 0x2
 1478 0591 91       		.byte	0x91
 1479 0592 40       		.sleb128 -64
 1480 0593 14       		.uleb128 0x14
 1481 0594 EE010000 		.4byte	.LASF84
 1482 0598 02       		.byte	0x2
 1483 0599 20       		.byte	0x20
 1484 059a 97000000 		.4byte	0x97
 1485 059e 02       		.uleb128 0x2
 1486 059f 91       		.byte	0x91
 1487 05a0 64       		.sleb128 -28
 1488 05a1 14       		.uleb128 0x14
 1489 05a2 E1030000 		.4byte	.LASF85
 1490 05a6 02       		.byte	0x2
 1491 05a7 21       		.byte	0x21
 1492 05a8 97000000 		.4byte	0x97
 1493 05ac 02       		.uleb128 0x2
 1494 05ad 91       		.byte	0x91
 1495 05ae 60       		.sleb128 -32
 1496 05af 14       		.uleb128 0x14
 1497 05b0 63040000 		.4byte	.LASF86
 1498 05b4 02       		.byte	0x2
 1499 05b5 22       		.byte	0x22
 1500 05b6 97000000 		.4byte	0x97
 1501 05ba 02       		.uleb128 0x2
 1502 05bb 91       		.byte	0x91
 1503 05bc 5C       		.sleb128 -36
 1504 05bd 14       		.uleb128 0x14
 1505 05be B1030000 		.4byte	.LASF22
 1506 05c2 02       		.byte	0x2
 1507 05c3 23       		.byte	0x23
 1508 05c4 97000000 		.4byte	0x97
 1509 05c8 02       		.uleb128 0x2
 1510 05c9 91       		.byte	0x91
 1511 05ca 68       		.sleb128 -24
 1512 05cb 16       		.uleb128 0x16
 1513 05cc A2000000 		.4byte	.LBB2
 1514 05d0 B6010000 		.4byte	.LBE2-.LBB2
 1515 05d4 14       		.uleb128 0x14
 1516 05d5 CF010000 		.4byte	.LASF87
ARM GAS  C:\Users\Petro\AppData\Local\Temp\cc4lpBuc.s 			page 41


 1517 05d9 02       		.byte	0x2
 1518 05da 32       		.byte	0x32
 1519 05db 50060000 		.4byte	0x650
 1520 05df 03       		.uleb128 0x3
 1521 05e0 91       		.byte	0x91
 1522 05e1 AC7F     		.sleb128 -84
 1523 05e3 14       		.uleb128 0x14
 1524 05e4 84010000 		.4byte	.LASF88
 1525 05e8 02       		.byte	0x2
 1526 05e9 33       		.byte	0x33
 1527 05ea 50060000 		.4byte	0x650
 1528 05ee 03       		.uleb128 0x3
 1529 05ef 91       		.byte	0x91
 1530 05f0 987F     		.sleb128 -104
 1531 05f2 14       		.uleb128 0x14
 1532 05f3 10000000 		.4byte	.LASF89
 1533 05f7 02       		.byte	0x2
 1534 05f8 34       		.byte	0x34
 1535 05f9 50060000 		.4byte	0x650
 1536 05fd 03       		.uleb128 0x3
 1537 05fe 91       		.byte	0x91
 1538 05ff 847F     		.sleb128 -124
 1539 0601 14       		.uleb128 0x14
 1540 0602 8B010000 		.4byte	.LASF90
 1541 0606 02       		.byte	0x2
 1542 0607 35       		.byte	0x35
 1543 0608 60060000 		.4byte	0x660
 1544 060c 03       		.uleb128 0x3
 1545 060d 91       		.byte	0x91
 1546 060e 907E     		.sleb128 -240
 1547 0610 14       		.uleb128 0x14
 1548 0611 46020000 		.4byte	.LASF21
 1549 0615 02       		.byte	0x2
 1550 0616 37       		.byte	0x37
 1551 0617 1A010000 		.4byte	0x11a
 1552 061b 03       		.uleb128 0x3
 1553 061c 91       		.byte	0x91
 1554 061d F47E     		.sleb128 -140
 1555 061f 14       		.uleb128 0x14
 1556 0620 1C010000 		.4byte	.LASF91
 1557 0624 02       		.byte	0x2
 1558 0625 38       		.byte	0x38
 1559 0626 97000000 		.4byte	0x97
 1560 062a 05       		.uleb128 0x5
 1561 062b 03       		.byte	0x3
 1562 062c 00000000 		.4byte	position.6871
 1563 0630 16       		.uleb128 0x16
 1564 0631 AA010000 		.4byte	.LBB3
 1565 0635 6C000000 		.4byte	.LBE3-.LBB3
 1566 0639 14       		.uleb128 0x14
 1567 063a 4B020000 		.4byte	.LASF92
 1568 063e 02       		.byte	0x2
 1569 063f 43       		.byte	0x43
 1570 0640 97000000 		.4byte	0x97
 1571 0644 02       		.uleb128 0x2
 1572 0645 91       		.byte	0x91
 1573 0646 58       		.sleb128 -40
ARM GAS  C:\Users\Petro\AppData\Local\Temp\cc4lpBuc.s 			page 42


 1574 0647 00       		.byte	0
 1575 0648 00       		.byte	0
 1576 0649 00       		.byte	0
 1577 064a 0E       		.uleb128 0xe
 1578 064b 04       		.byte	0x4
 1579 064c B8030000 		.4byte	0x3b8
 1580 0650 0C       		.uleb128 0xc
 1581 0651 D3000000 		.4byte	0xd3
 1582 0655 60060000 		.4byte	0x660
 1583 0659 17       		.uleb128 0x17
 1584 065a DA000000 		.4byte	0xda
 1585 065e 13       		.byte	0x13
 1586 065f 00       		.byte	0
 1587 0660 0C       		.uleb128 0xc
 1588 0661 D3000000 		.4byte	0xd3
 1589 0665 70060000 		.4byte	0x670
 1590 0669 17       		.uleb128 0x17
 1591 066a DA000000 		.4byte	0xda
 1592 066e 63       		.byte	0x63
 1593 066f 00       		.byte	0
 1594 0670 18       		.uleb128 0x18
 1595 0671 25030000 		.4byte	.LASF93
 1596 0675 0A       		.byte	0xa
 1597 0676 18       		.byte	0x18
 1598 0677 75020000 		.4byte	0x275
 1599 067b 05       		.uleb128 0x5
 1600 067c 03       		.byte	0x3
 1601 067d 00000000 		.4byte	fatFs
 1602 0681 18       		.uleb128 0x18
 1603 0682 FA030000 		.4byte	.LASF94
 1604 0686 0A       		.byte	0xa
 1605 0687 19       		.byte	0x19
 1606 0688 5C030000 		.4byte	0x35c
 1607 068c 05       		.uleb128 0x5
 1608 068d 03       		.byte	0x3
 1609 068e 00000000 		.4byte	fileO
 1610 0692 18       		.uleb128 0x18
 1611 0693 E3010000 		.4byte	.LASF95
 1612 0697 0A       		.byte	0xa
 1613 0698 1C       		.byte	0x1c
 1614 0699 46010000 		.4byte	0x146
 1615 069d 05       		.uleb128 0x5
 1616 069e 03       		.byte	0x3
 1617 069f 00000000 		.4byte	createFlag
 1618 06a3 18       		.uleb128 0x18
 1619 06a4 C7030000 		.4byte	.LASF96
 1620 06a8 09       		.byte	0x9
 1621 06a9 1F       		.byte	0x1f
 1622 06aa 8C000000 		.4byte	0x8c
 1623 06ae 05       		.uleb128 0x5
 1624 06af 03       		.byte	0x3
 1625 06b0 00000000 		.4byte	skiersStarted
 1626 06b4 18       		.uleb128 0x18
 1627 06b5 D9000000 		.4byte	.LASF97
 1628 06b9 09       		.byte	0x9
 1629 06ba 20       		.byte	0x20
 1630 06bb 8C000000 		.4byte	0x8c
ARM GAS  C:\Users\Petro\AppData\Local\Temp\cc4lpBuc.s 			page 43


 1631 06bf 05       		.uleb128 0x5
 1632 06c0 03       		.byte	0x3
 1633 06c1 00000000 		.4byte	skiersFinished
 1634 06c5 0C       		.uleb128 0xc
 1635 06c6 B8030000 		.4byte	0x3b8
 1636 06ca D5060000 		.4byte	0x6d5
 1637 06ce 17       		.uleb128 0x17
 1638 06cf DA000000 		.4byte	0xda
 1639 06d3 31       		.byte	0x31
 1640 06d4 00       		.byte	0
 1641 06d5 18       		.uleb128 0x18
 1642 06d6 42040000 		.4byte	.LASF98
 1643 06da 09       		.byte	0x9
 1644 06db 22       		.byte	0x22
 1645 06dc C5060000 		.4byte	0x6c5
 1646 06e0 05       		.uleb128 0x5
 1647 06e1 03       		.byte	0x3
 1648 06e2 00000000 		.4byte	skierDB
 1649 06e6 00       		.byte	0
 1650              		.section	.debug_abbrev,"",%progbits
 1651              	.Ldebug_abbrev0:
 1652 0000 01       		.uleb128 0x1
 1653 0001 11       		.uleb128 0x11
 1654 0002 01       		.byte	0x1
 1655 0003 25       		.uleb128 0x25
 1656 0004 0E       		.uleb128 0xe
 1657 0005 13       		.uleb128 0x13
 1658 0006 0B       		.uleb128 0xb
 1659 0007 03       		.uleb128 0x3
 1660 0008 0E       		.uleb128 0xe
 1661 0009 1B       		.uleb128 0x1b
 1662 000a 0E       		.uleb128 0xe
 1663 000b 55       		.uleb128 0x55
 1664 000c 17       		.uleb128 0x17
 1665 000d 11       		.uleb128 0x11
 1666 000e 01       		.uleb128 0x1
 1667 000f 10       		.uleb128 0x10
 1668 0010 17       		.uleb128 0x17
 1669 0011 00       		.byte	0
 1670 0012 00       		.byte	0
 1671 0013 02       		.uleb128 0x2
 1672 0014 24       		.uleb128 0x24
 1673 0015 00       		.byte	0
 1674 0016 0B       		.uleb128 0xb
 1675 0017 0B       		.uleb128 0xb
 1676 0018 3E       		.uleb128 0x3e
 1677 0019 0B       		.uleb128 0xb
 1678 001a 03       		.uleb128 0x3
 1679 001b 0E       		.uleb128 0xe
 1680 001c 00       		.byte	0
 1681 001d 00       		.byte	0
 1682 001e 03       		.uleb128 0x3
 1683 001f 16       		.uleb128 0x16
 1684 0020 00       		.byte	0
 1685 0021 03       		.uleb128 0x3
 1686 0022 0E       		.uleb128 0xe
 1687 0023 3A       		.uleb128 0x3a
ARM GAS  C:\Users\Petro\AppData\Local\Temp\cc4lpBuc.s 			page 44


 1688 0024 0B       		.uleb128 0xb
 1689 0025 3B       		.uleb128 0x3b
 1690 0026 0B       		.uleb128 0xb
 1691 0027 49       		.uleb128 0x49
 1692 0028 13       		.uleb128 0x13
 1693 0029 00       		.byte	0
 1694 002a 00       		.byte	0
 1695 002b 04       		.uleb128 0x4
 1696 002c 24       		.uleb128 0x24
 1697 002d 00       		.byte	0
 1698 002e 0B       		.uleb128 0xb
 1699 002f 0B       		.uleb128 0xb
 1700 0030 3E       		.uleb128 0x3e
 1701 0031 0B       		.uleb128 0xb
 1702 0032 03       		.uleb128 0x3
 1703 0033 08       		.uleb128 0x8
 1704 0034 00       		.byte	0
 1705 0035 00       		.byte	0
 1706 0036 05       		.uleb128 0x5
 1707 0037 16       		.uleb128 0x16
 1708 0038 00       		.byte	0
 1709 0039 03       		.uleb128 0x3
 1710 003a 0E       		.uleb128 0xe
 1711 003b 3A       		.uleb128 0x3a
 1712 003c 0B       		.uleb128 0xb
 1713 003d 3B       		.uleb128 0x3b
 1714 003e 05       		.uleb128 0x5
 1715 003f 49       		.uleb128 0x49
 1716 0040 13       		.uleb128 0x13
 1717 0041 00       		.byte	0
 1718 0042 00       		.byte	0
 1719 0043 06       		.uleb128 0x6
 1720 0044 13       		.uleb128 0x13
 1721 0045 01       		.byte	0x1
 1722 0046 0B       		.uleb128 0xb
 1723 0047 0B       		.uleb128 0xb
 1724 0048 3A       		.uleb128 0x3a
 1725 0049 0B       		.uleb128 0xb
 1726 004a 3B       		.uleb128 0x3b
 1727 004b 0B       		.uleb128 0xb
 1728 004c 01       		.uleb128 0x1
 1729 004d 13       		.uleb128 0x13
 1730 004e 00       		.byte	0
 1731 004f 00       		.byte	0
 1732 0050 07       		.uleb128 0x7
 1733 0051 0D       		.uleb128 0xd
 1734 0052 00       		.byte	0
 1735 0053 03       		.uleb128 0x3
 1736 0054 0E       		.uleb128 0xe
 1737 0055 3A       		.uleb128 0x3a
 1738 0056 0B       		.uleb128 0xb
 1739 0057 3B       		.uleb128 0x3b
 1740 0058 0B       		.uleb128 0xb
 1741 0059 49       		.uleb128 0x49
 1742 005a 13       		.uleb128 0x13
 1743 005b 38       		.uleb128 0x38
 1744 005c 0B       		.uleb128 0xb
ARM GAS  C:\Users\Petro\AppData\Local\Temp\cc4lpBuc.s 			page 45


 1745 005d 00       		.byte	0
 1746 005e 00       		.byte	0
 1747 005f 08       		.uleb128 0x8
 1748 0060 04       		.uleb128 0x4
 1749 0061 01       		.byte	0x1
 1750 0062 0B       		.uleb128 0xb
 1751 0063 0B       		.uleb128 0xb
 1752 0064 3A       		.uleb128 0x3a
 1753 0065 0B       		.uleb128 0xb
 1754 0066 3B       		.uleb128 0x3b
 1755 0067 0B       		.uleb128 0xb
 1756 0068 01       		.uleb128 0x1
 1757 0069 13       		.uleb128 0x13
 1758 006a 00       		.byte	0
 1759 006b 00       		.byte	0
 1760 006c 09       		.uleb128 0x9
 1761 006d 28       		.uleb128 0x28
 1762 006e 00       		.byte	0
 1763 006f 03       		.uleb128 0x3
 1764 0070 0E       		.uleb128 0xe
 1765 0071 1C       		.uleb128 0x1c
 1766 0072 0D       		.uleb128 0xd
 1767 0073 00       		.byte	0
 1768 0074 00       		.byte	0
 1769 0075 0A       		.uleb128 0xa
 1770 0076 13       		.uleb128 0x13
 1771 0077 01       		.byte	0x1
 1772 0078 0B       		.uleb128 0xb
 1773 0079 05       		.uleb128 0x5
 1774 007a 3A       		.uleb128 0x3a
 1775 007b 0B       		.uleb128 0xb
 1776 007c 3B       		.uleb128 0x3b
 1777 007d 0B       		.uleb128 0xb
 1778 007e 01       		.uleb128 0x1
 1779 007f 13       		.uleb128 0x13
 1780 0080 00       		.byte	0
 1781 0081 00       		.byte	0
 1782 0082 0B       		.uleb128 0xb
 1783 0083 0D       		.uleb128 0xd
 1784 0084 00       		.byte	0
 1785 0085 03       		.uleb128 0x3
 1786 0086 08       		.uleb128 0x8
 1787 0087 3A       		.uleb128 0x3a
 1788 0088 0B       		.uleb128 0xb
 1789 0089 3B       		.uleb128 0x3b
 1790 008a 0B       		.uleb128 0xb
 1791 008b 49       		.uleb128 0x49
 1792 008c 13       		.uleb128 0x13
 1793 008d 38       		.uleb128 0x38
 1794 008e 0B       		.uleb128 0xb
 1795 008f 00       		.byte	0
 1796 0090 00       		.byte	0
 1797 0091 0C       		.uleb128 0xc
 1798 0092 01       		.uleb128 0x1
 1799 0093 01       		.byte	0x1
 1800 0094 49       		.uleb128 0x49
 1801 0095 13       		.uleb128 0x13
ARM GAS  C:\Users\Petro\AppData\Local\Temp\cc4lpBuc.s 			page 46


 1802 0096 01       		.uleb128 0x1
 1803 0097 13       		.uleb128 0x13
 1804 0098 00       		.byte	0
 1805 0099 00       		.byte	0
 1806 009a 0D       		.uleb128 0xd
 1807 009b 21       		.uleb128 0x21
 1808 009c 00       		.byte	0
 1809 009d 49       		.uleb128 0x49
 1810 009e 13       		.uleb128 0x13
 1811 009f 2F       		.uleb128 0x2f
 1812 00a0 05       		.uleb128 0x5
 1813 00a1 00       		.byte	0
 1814 00a2 00       		.byte	0
 1815 00a3 0E       		.uleb128 0xe
 1816 00a4 0F       		.uleb128 0xf
 1817 00a5 00       		.byte	0
 1818 00a6 0B       		.uleb128 0xb
 1819 00a7 0B       		.uleb128 0xb
 1820 00a8 49       		.uleb128 0x49
 1821 00a9 13       		.uleb128 0x13
 1822 00aa 00       		.byte	0
 1823 00ab 00       		.byte	0
 1824 00ac 0F       		.uleb128 0xf
 1825 00ad 16       		.uleb128 0x16
 1826 00ae 00       		.byte	0
 1827 00af 03       		.uleb128 0x3
 1828 00b0 08       		.uleb128 0x8
 1829 00b1 3A       		.uleb128 0x3a
 1830 00b2 0B       		.uleb128 0xb
 1831 00b3 3B       		.uleb128 0x3b
 1832 00b4 0B       		.uleb128 0xb
 1833 00b5 49       		.uleb128 0x49
 1834 00b6 13       		.uleb128 0x13
 1835 00b7 00       		.byte	0
 1836 00b8 00       		.byte	0
 1837 00b9 10       		.uleb128 0x10
 1838 00ba 2E       		.uleb128 0x2e
 1839 00bb 01       		.byte	0x1
 1840 00bc 03       		.uleb128 0x3
 1841 00bd 0E       		.uleb128 0xe
 1842 00be 3A       		.uleb128 0x3a
 1843 00bf 0B       		.uleb128 0xb
 1844 00c0 3B       		.uleb128 0x3b
 1845 00c1 05       		.uleb128 0x5
 1846 00c2 27       		.uleb128 0x27
 1847 00c3 19       		.uleb128 0x19
 1848 00c4 49       		.uleb128 0x49
 1849 00c5 13       		.uleb128 0x13
 1850 00c6 11       		.uleb128 0x11
 1851 00c7 01       		.uleb128 0x1
 1852 00c8 12       		.uleb128 0x12
 1853 00c9 06       		.uleb128 0x6
 1854 00ca 40       		.uleb128 0x40
 1855 00cb 18       		.uleb128 0x18
 1856 00cc 9742     		.uleb128 0x2117
 1857 00ce 19       		.uleb128 0x19
 1858 00cf 01       		.uleb128 0x1
ARM GAS  C:\Users\Petro\AppData\Local\Temp\cc4lpBuc.s 			page 47


 1859 00d0 13       		.uleb128 0x13
 1860 00d1 00       		.byte	0
 1861 00d2 00       		.byte	0
 1862 00d3 11       		.uleb128 0x11
 1863 00d4 05       		.uleb128 0x5
 1864 00d5 00       		.byte	0
 1865 00d6 03       		.uleb128 0x3
 1866 00d7 0E       		.uleb128 0xe
 1867 00d8 3A       		.uleb128 0x3a
 1868 00d9 0B       		.uleb128 0xb
 1869 00da 3B       		.uleb128 0x3b
 1870 00db 05       		.uleb128 0x5
 1871 00dc 49       		.uleb128 0x49
 1872 00dd 13       		.uleb128 0x13
 1873 00de 02       		.uleb128 0x2
 1874 00df 18       		.uleb128 0x18
 1875 00e0 00       		.byte	0
 1876 00e1 00       		.byte	0
 1877 00e2 12       		.uleb128 0x12
 1878 00e3 34       		.uleb128 0x34
 1879 00e4 00       		.byte	0
 1880 00e5 03       		.uleb128 0x3
 1881 00e6 0E       		.uleb128 0xe
 1882 00e7 3A       		.uleb128 0x3a
 1883 00e8 0B       		.uleb128 0xb
 1884 00e9 3B       		.uleb128 0x3b
 1885 00ea 05       		.uleb128 0x5
 1886 00eb 49       		.uleb128 0x49
 1887 00ec 13       		.uleb128 0x13
 1888 00ed 02       		.uleb128 0x2
 1889 00ee 18       		.uleb128 0x18
 1890 00ef 00       		.byte	0
 1891 00f0 00       		.byte	0
 1892 00f1 13       		.uleb128 0x13
 1893 00f2 2E       		.uleb128 0x2e
 1894 00f3 01       		.byte	0x1
 1895 00f4 3F       		.uleb128 0x3f
 1896 00f5 19       		.uleb128 0x19
 1897 00f6 03       		.uleb128 0x3
 1898 00f7 0E       		.uleb128 0xe
 1899 00f8 3A       		.uleb128 0x3a
 1900 00f9 0B       		.uleb128 0xb
 1901 00fa 3B       		.uleb128 0x3b
 1902 00fb 0B       		.uleb128 0xb
 1903 00fc 27       		.uleb128 0x27
 1904 00fd 19       		.uleb128 0x19
 1905 00fe 49       		.uleb128 0x49
 1906 00ff 13       		.uleb128 0x13
 1907 0100 11       		.uleb128 0x11
 1908 0101 01       		.uleb128 0x1
 1909 0102 12       		.uleb128 0x12
 1910 0103 06       		.uleb128 0x6
 1911 0104 40       		.uleb128 0x40
 1912 0105 18       		.uleb128 0x18
 1913 0106 9642     		.uleb128 0x2116
 1914 0108 19       		.uleb128 0x19
 1915 0109 01       		.uleb128 0x1
ARM GAS  C:\Users\Petro\AppData\Local\Temp\cc4lpBuc.s 			page 48


 1916 010a 13       		.uleb128 0x13
 1917 010b 00       		.byte	0
 1918 010c 00       		.byte	0
 1919 010d 14       		.uleb128 0x14
 1920 010e 34       		.uleb128 0x34
 1921 010f 00       		.byte	0
 1922 0110 03       		.uleb128 0x3
 1923 0111 0E       		.uleb128 0xe
 1924 0112 3A       		.uleb128 0x3a
 1925 0113 0B       		.uleb128 0xb
 1926 0114 3B       		.uleb128 0x3b
 1927 0115 0B       		.uleb128 0xb
 1928 0116 49       		.uleb128 0x49
 1929 0117 13       		.uleb128 0x13
 1930 0118 02       		.uleb128 0x2
 1931 0119 18       		.uleb128 0x18
 1932 011a 00       		.byte	0
 1933 011b 00       		.byte	0
 1934 011c 15       		.uleb128 0x15
 1935 011d 05       		.uleb128 0x5
 1936 011e 00       		.byte	0
 1937 011f 03       		.uleb128 0x3
 1938 0120 0E       		.uleb128 0xe
 1939 0121 3A       		.uleb128 0x3a
 1940 0122 0B       		.uleb128 0xb
 1941 0123 3B       		.uleb128 0x3b
 1942 0124 0B       		.uleb128 0xb
 1943 0125 49       		.uleb128 0x49
 1944 0126 13       		.uleb128 0x13
 1945 0127 02       		.uleb128 0x2
 1946 0128 18       		.uleb128 0x18
 1947 0129 00       		.byte	0
 1948 012a 00       		.byte	0
 1949 012b 16       		.uleb128 0x16
 1950 012c 0B       		.uleb128 0xb
 1951 012d 01       		.byte	0x1
 1952 012e 11       		.uleb128 0x11
 1953 012f 01       		.uleb128 0x1
 1954 0130 12       		.uleb128 0x12
 1955 0131 06       		.uleb128 0x6
 1956 0132 00       		.byte	0
 1957 0133 00       		.byte	0
 1958 0134 17       		.uleb128 0x17
 1959 0135 21       		.uleb128 0x21
 1960 0136 00       		.byte	0
 1961 0137 49       		.uleb128 0x49
 1962 0138 13       		.uleb128 0x13
 1963 0139 2F       		.uleb128 0x2f
 1964 013a 0B       		.uleb128 0xb
 1965 013b 00       		.byte	0
 1966 013c 00       		.byte	0
 1967 013d 18       		.uleb128 0x18
 1968 013e 34       		.uleb128 0x34
 1969 013f 00       		.byte	0
 1970 0140 03       		.uleb128 0x3
 1971 0141 0E       		.uleb128 0xe
 1972 0142 3A       		.uleb128 0x3a
ARM GAS  C:\Users\Petro\AppData\Local\Temp\cc4lpBuc.s 			page 49


 1973 0143 0B       		.uleb128 0xb
 1974 0144 3B       		.uleb128 0x3b
 1975 0145 0B       		.uleb128 0xb
 1976 0146 49       		.uleb128 0x49
 1977 0147 13       		.uleb128 0x13
 1978 0148 3F       		.uleb128 0x3f
 1979 0149 19       		.uleb128 0x19
 1980 014a 02       		.uleb128 0x2
 1981 014b 18       		.uleb128 0x18
 1982 014c 00       		.byte	0
 1983 014d 00       		.byte	0
 1984 014e 00       		.byte	0
 1985              		.section	.debug_aranges,"",%progbits
 1986 0000 54000000 		.4byte	0x54
 1987 0004 0200     		.2byte	0x2
 1988 0006 00000000 		.4byte	.Ldebug_info0
 1989 000a 04       		.byte	0x4
 1990 000b 00       		.byte	0
 1991 000c 0000     		.2byte	0
 1992 000e 0000     		.2byte	0
 1993 0010 00000000 		.4byte	.LFB4
 1994 0014 30000000 		.4byte	.LFE4-.LFB4
 1995 0018 00000000 		.4byte	.LFB5
 1996 001c 36000000 		.4byte	.LFE5-.LFB5
 1997 0020 00000000 		.4byte	.LFB6
 1998 0024 36000000 		.4byte	.LFE6-.LFB6
 1999 0028 00000000 		.4byte	.LFB8
 2000 002c 36000000 		.4byte	.LFE8-.LFB8
 2001 0030 00000000 		.4byte	.LFB9
 2002 0034 36000000 		.4byte	.LFE9-.LFB9
 2003 0038 00000000 		.4byte	.LFB10
 2004 003c 5C000000 		.4byte	.LFE10-.LFB10
 2005 0040 00000000 		.4byte	.LFB63
 2006 0044 30000000 		.4byte	.LFE63-.LFB63
 2007 0048 00000000 		.4byte	.LFB64
 2008 004c 94020000 		.4byte	.LFE64-.LFB64
 2009 0050 00000000 		.4byte	0
 2010 0054 00000000 		.4byte	0
 2011              		.section	.debug_ranges,"",%progbits
 2012              	.Ldebug_ranges0:
 2013 0000 00000000 		.4byte	.LFB4
 2014 0004 30000000 		.4byte	.LFE4
 2015 0008 00000000 		.4byte	.LFB5
 2016 000c 36000000 		.4byte	.LFE5
 2017 0010 00000000 		.4byte	.LFB6
 2018 0014 36000000 		.4byte	.LFE6
 2019 0018 00000000 		.4byte	.LFB8
 2020 001c 36000000 		.4byte	.LFE8
 2021 0020 00000000 		.4byte	.LFB9
 2022 0024 36000000 		.4byte	.LFE9
 2023 0028 00000000 		.4byte	.LFB10
 2024 002c 5C000000 		.4byte	.LFE10
 2025 0030 00000000 		.4byte	.LFB63
 2026 0034 30000000 		.4byte	.LFE63
 2027 0038 00000000 		.4byte	.LFB64
 2028 003c 94020000 		.4byte	.LFE64
 2029 0040 00000000 		.4byte	0
ARM GAS  C:\Users\Petro\AppData\Local\Temp\cc4lpBuc.s 			page 50


 2030 0044 00000000 		.4byte	0
 2031              		.section	.debug_line,"",%progbits
 2032              	.Ldebug_line0:
 2033 0000 DE020000 		.section	.debug_str,"MS",%progbits,1
 2033      02000F02 
 2033      00000201 
 2033      FB0E0D00 
 2033      01010101 
 2034              	.LASF37:
 2035 0000 6E5F6661 		.ascii	"n_fats\000"
 2035      747300
 2036              	.LASF83:
 2037 0007 6E616D65 		.ascii	"nameFile\000"
 2037      46696C65 
 2037      00
 2038              	.LASF89:
 2039 0010 72657375 		.ascii	"result\000"
 2039      6C7400
 2040              	.LASF80:
 2041 0017 57726974 		.ascii	"WriteSkierResult\000"
 2041      65536B69 
 2041      65725265 
 2041      73756C74 
 2041      00
 2042              	.LASF31:
 2043 0028 5245535F 		.ascii	"RES_ERROR\000"
 2043      4552524F 
 2043      5200
 2044              	.LASF44:
 2045 0032 6E5F6661 		.ascii	"n_fatent\000"
 2045      74656E74 
 2045      00
 2046              	.LASF36:
 2047 003b 66735F74 		.ascii	"fs_type\000"
 2047      79706500 
 2048              	.LASF67:
 2049 0043 5365636F 		.ascii	"SecondsWay\000"
 2049      6E647357 
 2049      617900
 2050              	.LASF74:
 2051 004e 5254435F 		.ascii	"RTC_GetHours\000"
 2051      47657448 
 2051      6F757273 
 2051      00
 2052              	.LASF14:
 2053 005b 75696E74 		.ascii	"uint64_t\000"
 2053      36345F74 
 2053      00
 2054              	.LASF30:
 2055 0064 5245535F 		.ascii	"RES_OK\000"
 2055      4F4B00
 2056              	.LASF2:
 2057 006b 73686F72 		.ascii	"short int\000"
 2057      7420696E 
 2057      7400
 2058              	.LASF20:
 2059 0075 73697A65 		.ascii	"sizetype\000"
ARM GAS  C:\Users\Petro\AppData\Local\Temp\cc4lpBuc.s 			page 51


 2059      74797065 
 2059      00
 2060              	.LASF76:
 2061 007e 5254435F 		.ascii	"RTC_GetMonth\000"
 2061      4765744D 
 2061      6F6E7468 
 2061      00
 2062              	.LASF79:
 2063 008b 6C6F6753 		.ascii	"logStart\000"
 2063      74617274 
 2063      00
 2064              	.LASF5:
 2065 0094 5F5F7569 		.ascii	"__uint16_t\000"
 2065      6E743136 
 2065      5F7400
 2066              	.LASF6:
 2067 009f 5F5F7569 		.ascii	"__uint32_t\000"
 2067      6E743332 
 2067      5F7400
 2068              	.LASF26:
 2069 00aa 75696E74 		.ascii	"uint\000"
 2069      00
 2070              	.LASF27:
 2071 00af 42595445 		.ascii	"BYTE\000"
 2071      00
 2072              	.LASF64:
 2073 00b4 6D696C6C 		.ascii	"millsStartSkier\000"
 2073      73537461 
 2073      7274536B 
 2073      69657200 
 2074              	.LASF69:
 2075 00c4 736B6965 		.ascii	"skierDB_El\000"
 2075      7244425F 
 2075      456C00
 2076              	.LASF43:
 2077 00cf 66726565 		.ascii	"free_clst\000"
 2077      5F636C73 
 2077      7400
 2078              	.LASF97:
 2079 00d9 736B6965 		.ascii	"skiersFinished\000"
 2079      72734669 
 2079      6E697368 
 2079      656400
 2080              	.LASF70:
 2081 00e8 5254435F 		.ascii	"RTC_GetSecond\000"
 2081      47657453 
 2081      65636F6E 
 2081      6400
 2082              	.LASF40:
 2083 00f6 6E5F726F 		.ascii	"n_rootdir\000"
 2083      6F746469 
 2083      7200
 2084              	.LASF28:
 2085 0100 574F5244 		.ascii	"WORD\000"
 2085      00
 2086              	.LASF15:
 2087 0105 75696E74 		.ascii	"uint8\000"
ARM GAS  C:\Users\Petro\AppData\Local\Temp\cc4lpBuc.s 			page 52


 2087      3800
 2088              	.LASF58:
 2089 010b 66707472 		.ascii	"fptr\000"
 2089      00
 2090              	.LASF0:
 2091 0110 7369676E 		.ascii	"signed char\000"
 2091      65642063 
 2091      68617200 
 2092              	.LASF91:
 2093 011c 706F7369 		.ascii	"position\000"
 2093      74696F6E 
 2093      00
 2094              	.LASF17:
 2095 0125 666C6F61 		.ascii	"float\000"
 2095      7400
 2096              	.LASF8:
 2097 012b 6C6F6E67 		.ascii	"long long int\000"
 2097      206C6F6E 
 2097      6720696E 
 2097      7400
 2098              	.LASF71:
 2099 0139 5254435F 		.ascii	"RTC_GetMinutes\000"
 2099      4765744D 
 2099      696E7574 
 2099      657300
 2100              	.LASF55:
 2101 0148 6F626A73 		.ascii	"objsize\000"
 2101      697A6500 
 2102              	.LASF72:
 2103 0150 696E7075 		.ascii	"inputTime\000"
 2103      7454696D 
 2103      6500
 2104              	.LASF4:
 2105 015a 6C6F6E67 		.ascii	"long int\000"
 2105      20696E74 
 2105      00
 2106              	.LASF59:
 2107 0163 636C7573 		.ascii	"clust\000"
 2107      7400
 2108              	.LASF41:
 2109 0169 6373697A 		.ascii	"csize\000"
 2109      6500
 2110              	.LASF56:
 2111 016f 5F464449 		.ascii	"_FDID\000"
 2111      4400
 2112              	.LASF63:
 2113 0175 756E6978 		.ascii	"unixStartSkier\000"
 2113      53746172 
 2113      74536B69 
 2113      657200
 2114              	.LASF88:
 2115 0184 66696E69 		.ascii	"finish\000"
 2115      736800
 2116              	.LASF90:
 2117 018b 77726974 		.ascii	"writeData\000"
 2117      65446174 
 2117      6100
ARM GAS  C:\Users\Petro\AppData\Local\Temp\cc4lpBuc.s 			page 53


 2118              	.LASF45:
 2119 0195 6673697A 		.ascii	"fsize\000"
 2119      6500
 2120              	.LASF65:
 2121 019b 756E6978 		.ascii	"unixFinishSkier\000"
 2121      46696E69 
 2121      7368536B 
 2121      69657200 
 2122              	.LASF100:
 2123 01ab 2E5C6C69 		.ascii	".\\lib_DB\\logResult.c\000"
 2123      625F4442 
 2123      5C6C6F67 
 2123      52657375 
 2123      6C742E63 
 2124              	.LASF29:
 2125 01c0 44574F52 		.ascii	"DWORD\000"
 2125      4400
 2126              	.LASF39:
 2127 01c6 6673695F 		.ascii	"fsi_flag\000"
 2127      666C6167 
 2127      00
 2128              	.LASF87:
 2129 01cf 73746172 		.ascii	"start\000"
 2129      7400
 2130              	.LASF1:
 2131 01d5 756E7369 		.ascii	"unsigned char\000"
 2131      676E6564 
 2131      20636861 
 2131      7200
 2132              	.LASF95:
 2133 01e3 63726561 		.ascii	"createFlag\000"
 2133      7465466C 
 2133      616700
 2134              	.LASF84:
 2135 01ee 6E616D65 		.ascii	"nameYear\000"
 2135      59656172 
 2135      00
 2136              	.LASF38:
 2137 01f7 77666C61 		.ascii	"wflag\000"
 2137      6700
 2138              	.LASF10:
 2139 01fd 6C6F6E67 		.ascii	"long long unsigned int\000"
 2139      206C6F6E 
 2139      6720756E 
 2139      7369676E 
 2139      65642069 
 2140              	.LASF13:
 2141 0214 75696E74 		.ascii	"uint32_t\000"
 2141      33325F74 
 2141      00
 2142              	.LASF11:
 2143 021d 756E7369 		.ascii	"unsigned int\000"
 2143      676E6564 
 2143      20696E74 
 2143      00
 2144              	.LASF32:
 2145 022a 5245535F 		.ascii	"RES_WRPRT\000"
ARM GAS  C:\Users\Petro\AppData\Local\Temp\cc4lpBuc.s 			page 54


 2145      57525052 
 2145      5400
 2146              	.LASF78:
 2147 0234 72657375 		.ascii	"resultF\000"
 2147      6C744600 
 2148              	.LASF42:
 2149 023c 6C617374 		.ascii	"last_clst\000"
 2149      5F636C73 
 2149      7400
 2150              	.LASF21:
 2151 0246 74696D65 		.ascii	"time\000"
 2151      00
 2152              	.LASF92:
 2153 024b 746D7054 		.ascii	"tmpTime\000"
 2153      696D6500 
 2154              	.LASF62:
 2155 0253 6469725F 		.ascii	"dir_ptr\000"
 2155      70747200 
 2156              	.LASF3:
 2157 025b 73686F72 		.ascii	"short unsigned int\000"
 2157      7420756E 
 2157      7369676E 
 2157      65642069 
 2157      6E7400
 2158              	.LASF24:
 2159 026e 73746174 		.ascii	"status\000"
 2159      757300
 2160              	.LASF19:
 2161 0275 63686172 		.ascii	"char\000"
 2161      00
 2162              	.LASF47:
 2163 027a 66617462 		.ascii	"fatbase\000"
 2163      61736500 
 2164              	.LASF99:
 2165 0282 474E5520 		.ascii	"GNU C 4.9.3 20150303 (release) [ARM/embedded-4_9-br"
 2165      4320342E 
 2165      392E3320 
 2165      32303135 
 2165      30333033 
 2166 02b5 616E6368 		.ascii	"anch revision 221220] -mcpu=cortex-m0 -mthumb -g -O"
 2166      20726576 
 2166      6973696F 
 2166      6E203232 
 2166      31323230 
 2167 02e8 30202D66 		.ascii	"0 -ffunction-sections -ffat-lto-objects\000"
 2167      66756E63 
 2167      74696F6E 
 2167      2D736563 
 2167      74696F6E 
 2168              	.LASF23:
 2169 0310 6461794F 		.ascii	"dayOfWeek\000"
 2169      66576565 
 2169      6B00
 2170              	.LASF33:
 2171 031a 5245535F 		.ascii	"RES_NOTRDY\000"
 2171      4E4F5452 
 2171      445900
ARM GAS  C:\Users\Petro\AppData\Local\Temp\cc4lpBuc.s 			page 55


 2172              	.LASF93:
 2173 0325 66617446 		.ascii	"fatFs\000"
 2173      7300
 2174              	.LASF25:
 2175 032b 5254435F 		.ascii	"RTC_DATE_TIME\000"
 2175      44415445 
 2175      5F54494D 
 2175      4500
 2176              	.LASF35:
 2177 0339 4653495A 		.ascii	"FSIZE_t\000"
 2177      455F7400 
 2178              	.LASF9:
 2179 0341 5F5F7569 		.ascii	"__uint64_t\000"
 2179      6E743634 
 2179      5F7400
 2180              	.LASF81:
 2181 034c 64617461 		.ascii	"data\000"
 2181      00
 2182              	.LASF101:
 2183 0351 443A5C43 		.ascii	"D:\\Cypress\\system-start-finish\\vesion 2\\fw\\sta"
 2183      79707265 
 2183      73735C73 
 2183      79737465 
 2183      6D2D7374 
 2184 037f 72745C73 		.ascii	"rt\\sandbox\\v3\\Start(state machine)\\start_v0.cyd"
 2184      616E6462 
 2184      6F785C76 
 2184      335C5374 
 2184      61727428 
 2185 03ae 736E00   		.ascii	"sn\000"
 2186              	.LASF22:
 2187 03b1 64617465 		.ascii	"date\000"
 2187      00
 2188              	.LASF51:
 2189 03b6 46415446 		.ascii	"FATFS\000"
 2189      5300
 2190              	.LASF75:
 2191 03bc 5254435F 		.ascii	"RTC_GetDay\000"
 2191      47657444 
 2191      617900
 2192              	.LASF96:
 2193 03c7 736B6965 		.ascii	"skiersStarted\000"
 2193      72735374 
 2193      61727465 
 2193      6400
 2194              	.LASF77:
 2195 03d5 5254435F 		.ascii	"RTC_GetYear\000"
 2195      47657459 
 2195      65617200 
 2196              	.LASF85:
 2197 03e1 6E616D65 		.ascii	"nameMonth\000"
 2197      4D6F6E74 
 2197      6800
 2198              	.LASF16:
 2199 03eb 75696E74 		.ascii	"uint32\000"
 2199      333200
 2200              	.LASF48:
ARM GAS  C:\Users\Petro\AppData\Local\Temp\cc4lpBuc.s 			page 56


 2201 03f2 64697262 		.ascii	"dirbase\000"
 2201      61736500 
 2202              	.LASF94:
 2203 03fa 66696C65 		.ascii	"fileO\000"
 2203      4F00
 2204              	.LASF52:
 2205 0400 61747472 		.ascii	"attr\000"
 2205      00
 2206              	.LASF12:
 2207 0405 75696E74 		.ascii	"uint16_t\000"
 2207      31365F74 
 2207      00
 2208              	.LASF82:
 2209 040e 636F756E 		.ascii	"count\000"
 2209      7400
 2210              	.LASF7:
 2211 0414 6C6F6E67 		.ascii	"long unsigned int\000"
 2211      20756E73 
 2211      69676E65 
 2211      6420696E 
 2211      7400
 2212              	.LASF68:
 2213 0426 6D696C6C 		.ascii	"millsWay\000"
 2213      73576179 
 2213      00
 2214              	.LASF60:
 2215 042f 73656374 		.ascii	"sect\000"
 2215      00
 2216              	.LASF54:
 2217 0434 73636C75 		.ascii	"sclust\000"
 2217      737400
 2218              	.LASF73:
 2219 043b 72657456 		.ascii	"retVal\000"
 2219      616C00
 2220              	.LASF98:
 2221 0442 736B6965 		.ascii	"skierDB\000"
 2221      72444200 
 2222              	.LASF18:
 2223 044a 646F7562 		.ascii	"double\000"
 2223      6C6500
 2224              	.LASF57:
 2225 0451 666C6167 		.ascii	"flag\000"
 2225      00
 2226              	.LASF53:
 2227 0456 73746174 		.ascii	"stat\000"
 2227      00
 2228              	.LASF46:
 2229 045b 766F6C62 		.ascii	"volbase\000"
 2229      61736500 
 2230              	.LASF86:
 2231 0463 6E616D65 		.ascii	"nameDay\000"
 2231      44617900 
 2232              	.LASF50:
 2233 046b 77696E73 		.ascii	"winsect\000"
 2233      65637400 
 2234              	.LASF66:
 2235 0473 6D696C6C 		.ascii	"millsFinishSkier\000"
ARM GAS  C:\Users\Petro\AppData\Local\Temp\cc4lpBuc.s 			page 57


 2235      7346696E 
 2235      69736853 
 2235      6B696572 
 2235      00
 2236              	.LASF61:
 2237 0484 6469725F 		.ascii	"dir_sect\000"
 2237      73656374 
 2237      00
 2238              	.LASF34:
 2239 048d 5245535F 		.ascii	"RES_PARERR\000"
 2239      50415245 
 2239      525200
 2240              	.LASF49:
 2241 0498 64617461 		.ascii	"database\000"
 2241      62617365 
 2241      00
 2242              		.ident	"GCC: (GNU Tools for ARM Embedded Processors) 4.9.3 20150303 (release) [ARM/embedded-4_9-br
