ARM GAS  C:\Users\Petro\AppData\Local\Temp\cc4lpBuc.s 			page 1


   1              		.cpu cortex-m0
   2              		.fpu softvfp
   3              		.eabi_attribute 20, 1
   4              		.eabi_attribute 21, 1
   5              		.eabi_attribute 23, 3
   6              		.eabi_attribute 24, 1
   7              		.eabi_attribute 25, 1
   8              		.eabi_attribute 26, 1
   9              		.eabi_attribute 30, 6
  10              		.eabi_attribute 34, 0
  11              		.eabi_attribute 18, 4
  12              		.code	16
  13              		.file	"logResult.c"
  14              		.text
  15              	.Ltext0:
  16              		.cfi_sections	.debug_frame
  17              		.section	.text.RTC_GetSecond,"ax",%progbits
  18              		.align	2
  19              		.code	16
  20              		.thumb_func
  21              		.type	RTC_GetSecond, %function
  22              	RTC_GetSecond:
  23              	.LFB4:
  24              		.file 1 "Generated_Source\\PSoC4/RTC.h"
   1:Generated_Source\PSoC4/RTC.h **** /***************************************************************************//**
   2:Generated_Source\PSoC4/RTC.h **** * \file Name: RTC.h
   3:Generated_Source\PSoC4/RTC.h **** * \version 1.10
   4:Generated_Source\PSoC4/RTC.h **** *
   5:Generated_Source\PSoC4/RTC.h **** * \brief
   6:Generated_Source\PSoC4/RTC.h **** *  This file provides constants and parameter values for the RTC_P4 Component.
   7:Generated_Source\PSoC4/RTC.h **** *
   8:Generated_Source\PSoC4/RTC.h **** ********************************************************************************
   9:Generated_Source\PSoC4/RTC.h **** * Copyright 2015-2016, Cypress Semiconductor Corporation.  All rights reserved.
  10:Generated_Source\PSoC4/RTC.h **** * You may use this file only in accordance with the license, terms, conditions,
  11:Generated_Source\PSoC4/RTC.h **** * disclaimers, and limitations in the end user license agreement accompanying
  12:Generated_Source\PSoC4/RTC.h **** * the software package with which this file was provided.
  13:Generated_Source\PSoC4/RTC.h **** *******************************************************************************/
  14:Generated_Source\PSoC4/RTC.h **** 
  15:Generated_Source\PSoC4/RTC.h **** #if !defined(CY_RTC_P4_RTC_H)
  16:Generated_Source\PSoC4/RTC.h **** #define CY_RTC_P4_RTC_H
  17:Generated_Source\PSoC4/RTC.h **** 
  18:Generated_Source\PSoC4/RTC.h **** #include <cytypes.h>
  19:Generated_Source\PSoC4/RTC.h **** #include <CyLib.h>
  20:Generated_Source\PSoC4/RTC.h **** 
  21:Generated_Source\PSoC4/RTC.h **** 
  22:Generated_Source\PSoC4/RTC.h **** /*******************************************************************************
  23:Generated_Source\PSoC4/RTC.h **** *    Data types definition
  24:Generated_Source\PSoC4/RTC.h **** *******************************************************************************/
  25:Generated_Source\PSoC4/RTC.h **** 
  26:Generated_Source\PSoC4/RTC.h **** typedef enum
  27:Generated_Source\PSoC4/RTC.h **** {
  28:Generated_Source\PSoC4/RTC.h ****     RTC_DST_DATE_RELATIVE = 0u,
  29:Generated_Source\PSoC4/RTC.h ****     RTC_DST_DATE_FIXED = 1u
  30:Generated_Source\PSoC4/RTC.h **** }RTC_DST_DATETYPE_ENUM;
  31:Generated_Source\PSoC4/RTC.h **** 
  32:Generated_Source\PSoC4/RTC.h **** /**
  33:Generated_Source\PSoC4/RTC.h **** * \addtogroup group_structures
ARM GAS  C:\Users\Petro\AppData\Local\Temp\cc4lpBuc.s 			page 2


  34:Generated_Source\PSoC4/RTC.h **** * @{
  35:Generated_Source\PSoC4/RTC.h **** */
  36:Generated_Source\PSoC4/RTC.h **** 
  37:Generated_Source\PSoC4/RTC.h **** /**
  38:Generated_Source\PSoC4/RTC.h **** * This is the data structure that is used to save the current time and date 
  39:Generated_Source\PSoC4/RTC.h **** * (RTC_currentTimeDate), and Alarm time and date (RTC_alarmCfgTimeDate).
  40:Generated_Source\PSoC4/RTC.h **** */
  41:Generated_Source\PSoC4/RTC.h **** typedef struct
  42:Generated_Source\PSoC4/RTC.h **** {
  43:Generated_Source\PSoC4/RTC.h ****     uint32 time;
  44:Generated_Source\PSoC4/RTC.h ****     uint32 date;
  45:Generated_Source\PSoC4/RTC.h ****     uint32 dayOfWeek;
  46:Generated_Source\PSoC4/RTC.h ****     uint32 status;
  47:Generated_Source\PSoC4/RTC.h **** }RTC_DATE_TIME;
  48:Generated_Source\PSoC4/RTC.h **** 
  49:Generated_Source\PSoC4/RTC.h **** /**
  50:Generated_Source\PSoC4/RTC.h **** * This is the data structure that is used to save time and date values for 
  51:Generated_Source\PSoC4/RTC.h **** * Daylight Savings Time Start and Stop (RTC_dstTimeDateStart and 
  52:Generated_Source\PSoC4/RTC.h **** * RTC_dstTimeDateStop).
  53:Generated_Source\PSoC4/RTC.h **** */
  54:Generated_Source\PSoC4/RTC.h **** typedef struct
  55:Generated_Source\PSoC4/RTC.h **** {
  56:Generated_Source\PSoC4/RTC.h ****     uint32 hour;
  57:Generated_Source\PSoC4/RTC.h ****     uint32 dayOfWeek;
  58:Generated_Source\PSoC4/RTC.h ****     uint32 dayOfMonth;
  59:Generated_Source\PSoC4/RTC.h ****     uint32 weekOfMonth;
  60:Generated_Source\PSoC4/RTC.h ****     uint32 month;
  61:Generated_Source\PSoC4/RTC.h ****     uint8  timeFormat;
  62:Generated_Source\PSoC4/RTC.h **** }RTC_DST_TIME;
  63:Generated_Source\PSoC4/RTC.h **** 
  64:Generated_Source\PSoC4/RTC.h **** /** @} structures */
  65:Generated_Source\PSoC4/RTC.h **** 
  66:Generated_Source\PSoC4/RTC.h **** /*******************************************************************************
  67:Generated_Source\PSoC4/RTC.h **** *    Enumerated Types and Parameters
  68:Generated_Source\PSoC4/RTC.h **** *******************************************************************************/
  69:Generated_Source\PSoC4/RTC.h **** /* Time Format setting constants */
  70:Generated_Source\PSoC4/RTC.h **** #define RTC__HOUR_12 1
  71:Generated_Source\PSoC4/RTC.h **** #define RTC__HOUR_24 0
  72:Generated_Source\PSoC4/RTC.h **** 
  73:Generated_Source\PSoC4/RTC.h **** /*  Date Format setting constants */
  74:Generated_Source\PSoC4/RTC.h **** #define RTC__MM_DD_YYYY 0
  75:Generated_Source\PSoC4/RTC.h **** #define RTC__DD_MM_YYYY 1
  76:Generated_Source\PSoC4/RTC.h **** #define RTC__YYYY_MM_DD 2
  77:Generated_Source\PSoC4/RTC.h **** 
  78:Generated_Source\PSoC4/RTC.h **** /* Date Type setting constants */
  79:Generated_Source\PSoC4/RTC.h **** #define RTC__RELATIVE 0
  80:Generated_Source\PSoC4/RTC.h **** #define RTC__FIXED 1
  81:Generated_Source\PSoC4/RTC.h **** 
  82:Generated_Source\PSoC4/RTC.h **** /* DST Hour setting constants */
  83:Generated_Source\PSoC4/RTC.h **** #define RTC__H0000 0
  84:Generated_Source\PSoC4/RTC.h **** #define RTC__H0100 1
  85:Generated_Source\PSoC4/RTC.h **** #define RTC__H0200 2
  86:Generated_Source\PSoC4/RTC.h **** #define RTC__H0300 3
  87:Generated_Source\PSoC4/RTC.h **** #define RTC__H0400 4
  88:Generated_Source\PSoC4/RTC.h **** #define RTC__H0500 5
  89:Generated_Source\PSoC4/RTC.h **** #define RTC__H0600 6
  90:Generated_Source\PSoC4/RTC.h **** #define RTC__H0700 7
ARM GAS  C:\Users\Petro\AppData\Local\Temp\cc4lpBuc.s 			page 3


  91:Generated_Source\PSoC4/RTC.h **** #define RTC__H0800 8
  92:Generated_Source\PSoC4/RTC.h **** #define RTC__H0900 9
  93:Generated_Source\PSoC4/RTC.h **** #define RTC__H1000 10
  94:Generated_Source\PSoC4/RTC.h **** #define RTC__H1100 11
  95:Generated_Source\PSoC4/RTC.h **** #define RTC__H1200 12
  96:Generated_Source\PSoC4/RTC.h **** #define RTC__H1300 13
  97:Generated_Source\PSoC4/RTC.h **** #define RTC__H1400 14
  98:Generated_Source\PSoC4/RTC.h **** #define RTC__H1500 15
  99:Generated_Source\PSoC4/RTC.h **** #define RTC__H1600 16
 100:Generated_Source\PSoC4/RTC.h **** #define RTC__H1700 17
 101:Generated_Source\PSoC4/RTC.h **** #define RTC__H1800 18
 102:Generated_Source\PSoC4/RTC.h **** #define RTC__H1900 19
 103:Generated_Source\PSoC4/RTC.h **** #define RTC__H2000 20
 104:Generated_Source\PSoC4/RTC.h **** #define RTC__H2100 21
 105:Generated_Source\PSoC4/RTC.h **** #define RTC__H2200 22
 106:Generated_Source\PSoC4/RTC.h **** #define RTC__H2300 23
 107:Generated_Source\PSoC4/RTC.h **** 
 108:Generated_Source\PSoC4/RTC.h **** /* DST DayOfWeek setting constants */
 109:Generated_Source\PSoC4/RTC.h **** #define RTC__SUNDAY 1
 110:Generated_Source\PSoC4/RTC.h **** #define RTC__MONDAY 2
 111:Generated_Source\PSoC4/RTC.h **** #define RTC__TUESDAY 3
 112:Generated_Source\PSoC4/RTC.h **** #define RTC__WEDNESDAY 4
 113:Generated_Source\PSoC4/RTC.h **** #define RTC__THURSDAY 5
 114:Generated_Source\PSoC4/RTC.h **** #define RTC__FRIDAY 6
 115:Generated_Source\PSoC4/RTC.h **** #define RTC__SATURDAY 7
 116:Generated_Source\PSoC4/RTC.h **** 
 117:Generated_Source\PSoC4/RTC.h **** /* DST Month setting constants */
 118:Generated_Source\PSoC4/RTC.h **** #define RTC__JAN 1
 119:Generated_Source\PSoC4/RTC.h **** #define RTC__FEB 2
 120:Generated_Source\PSoC4/RTC.h **** #define RTC__MAR 3
 121:Generated_Source\PSoC4/RTC.h **** #define RTC__APR 4
 122:Generated_Source\PSoC4/RTC.h **** #define RTC__MAY 5
 123:Generated_Source\PSoC4/RTC.h **** #define RTC__JUN 6
 124:Generated_Source\PSoC4/RTC.h **** #define RTC__JUL 7
 125:Generated_Source\PSoC4/RTC.h **** #define RTC__AUG 8
 126:Generated_Source\PSoC4/RTC.h **** #define RTC__SEP 9
 127:Generated_Source\PSoC4/RTC.h **** #define RTC__OCT 10
 128:Generated_Source\PSoC4/RTC.h **** #define RTC__NOV 11
 129:Generated_Source\PSoC4/RTC.h **** #define RTC__DEC 12
 130:Generated_Source\PSoC4/RTC.h **** 
 131:Generated_Source\PSoC4/RTC.h **** /* DST WeekOfMonth setting constants */
 132:Generated_Source\PSoC4/RTC.h **** #define RTC__FIRST 1
 133:Generated_Source\PSoC4/RTC.h **** #define RTC__SECOND 2
 134:Generated_Source\PSoC4/RTC.h **** #define RTC__THIRD 3
 135:Generated_Source\PSoC4/RTC.h **** #define RTC__FOURTH 4
 136:Generated_Source\PSoC4/RTC.h **** #define RTC__FIFTH 5
 137:Generated_Source\PSoC4/RTC.h **** #define RTC__LAST 6
 138:Generated_Source\PSoC4/RTC.h **** 
 139:Generated_Source\PSoC4/RTC.h **** 
 140:Generated_Source\PSoC4/RTC.h **** #define RTC_INITIAL_DATA_FORMAT     (0u)
 141:Generated_Source\PSoC4/RTC.h **** #define RTC_INITIAL_TIME_FORMAT     (1u)
 142:Generated_Source\PSoC4/RTC.h **** #define RTC_INITIAL_UPDATE_MODE     (0u)
 143:Generated_Source\PSoC4/RTC.h **** #define RTC_INITIAL_SECOND          (0u)
 144:Generated_Source\PSoC4/RTC.h **** #define RTC_INITIAL_MINUTE          (0u)
 145:Generated_Source\PSoC4/RTC.h **** #define RTC_INITIAL_HOUR            (0u)
 146:Generated_Source\PSoC4/RTC.h **** #define RTC_INITIAL_DAY             (1u)
 147:Generated_Source\PSoC4/RTC.h **** #define RTC_INITIAL_MONTH           (1u)
ARM GAS  C:\Users\Petro\AppData\Local\Temp\cc4lpBuc.s 			page 4


 148:Generated_Source\PSoC4/RTC.h **** #define RTC_INITIAL_YEAR            (1970u)
 149:Generated_Source\PSoC4/RTC.h **** 
 150:Generated_Source\PSoC4/RTC.h **** #define RTC_INITIAL_ALARM_STATUS    (0u)
 151:Generated_Source\PSoC4/RTC.h **** 
 152:Generated_Source\PSoC4/RTC.h **** #define RTC_INITIAL_DST_STATUS      (0u)
 153:Generated_Source\PSoC4/RTC.h **** #define RTC_INITIAL_DST_DATE_TYPE   (0u)
 154:Generated_Source\PSoC4/RTC.h **** #define RTC_INITIAL_DST_START_MONTH (3uL)
 155:Generated_Source\PSoC4/RTC.h **** #define RTC_INITIAL_DST_START_WOM   (6uL)
 156:Generated_Source\PSoC4/RTC.h **** #define RTC_INITIAL_DST_START_DOM   (22uL)
 157:Generated_Source\PSoC4/RTC.h **** #define RTC_INITIAL_DST_START_DOW   (1uL)
 158:Generated_Source\PSoC4/RTC.h **** #define RTC_INITIAL_DST_START_HRS   (0uL)
 159:Generated_Source\PSoC4/RTC.h **** #define RTC_INITIAL_DST_STOP_MONTH  (10uL)
 160:Generated_Source\PSoC4/RTC.h **** #define RTC_INITIAL_DST_STOP_DOM    (22uL)
 161:Generated_Source\PSoC4/RTC.h **** #define RTC_INITIAL_DST_STOP_DOW    (1uL)
 162:Generated_Source\PSoC4/RTC.h **** #define RTC_INITIAL_DST_STOP_WOM    (6uL)
 163:Generated_Source\PSoC4/RTC.h **** #define RTC_INITIAL_DST_STOP_HRS    (0uL)
 164:Generated_Source\PSoC4/RTC.h **** 
 165:Generated_Source\PSoC4/RTC.h **** /* Day of week definitions */
 166:Generated_Source\PSoC4/RTC.h **** #define RTC_SUNDAY     (RTC__SUNDAY)
 167:Generated_Source\PSoC4/RTC.h **** #define RTC_MONDAY     (RTC__MONDAY)
 168:Generated_Source\PSoC4/RTC.h **** #define RTC_TUESDAY    (RTC__TUESDAY)
 169:Generated_Source\PSoC4/RTC.h **** #define RTC_WEDNESDAY  (RTC__WEDNESDAY)
 170:Generated_Source\PSoC4/RTC.h **** #define RTC_THURSDAY   (RTC__THURSDAY)
 171:Generated_Source\PSoC4/RTC.h **** #define RTC_FRIDAY     (RTC__FRIDAY)
 172:Generated_Source\PSoC4/RTC.h **** #define RTC_SATURDAY   (RTC__SATURDAY)
 173:Generated_Source\PSoC4/RTC.h **** 
 174:Generated_Source\PSoC4/RTC.h **** /* DST WeekOfMonth setting constants definitions */
 175:Generated_Source\PSoC4/RTC.h **** #define RTC_FIRST      (RTC__FIRST)
 176:Generated_Source\PSoC4/RTC.h **** #define RTC_SECOND     (RTC__SECOND)
 177:Generated_Source\PSoC4/RTC.h **** #define RTC_THIRD      (RTC__THIRD)
 178:Generated_Source\PSoC4/RTC.h **** #define RTC_FOURTH     (RTC__FOURTH)
 179:Generated_Source\PSoC4/RTC.h **** #define RTC_FIFTH      (RTC__FIFTH)
 180:Generated_Source\PSoC4/RTC.h **** #define RTC_LAST       (RTC__LAST)
 181:Generated_Source\PSoC4/RTC.h **** 
 182:Generated_Source\PSoC4/RTC.h **** /* Month definitions */
 183:Generated_Source\PSoC4/RTC.h **** #define RTC_JANUARY    (RTC__JAN)
 184:Generated_Source\PSoC4/RTC.h **** #define RTC_FEBRUARY   (RTC__FEB)
 185:Generated_Source\PSoC4/RTC.h **** #define RTC_MARCH      (RTC__MAR)
 186:Generated_Source\PSoC4/RTC.h **** #define RTC_APRIL      (RTC__APR)
 187:Generated_Source\PSoC4/RTC.h **** #define RTC_MAY        (RTC__MAY)
 188:Generated_Source\PSoC4/RTC.h **** #define RTC_JUNE       (RTC__JUN)
 189:Generated_Source\PSoC4/RTC.h **** #define RTC_JULY       (RTC__JUL)
 190:Generated_Source\PSoC4/RTC.h **** #define RTC_AUGUST     (RTC__AUG)
 191:Generated_Source\PSoC4/RTC.h **** #define RTC_SEPTEMBER  (RTC__SEP)
 192:Generated_Source\PSoC4/RTC.h **** #define RTC_OCTOBER    (RTC__OCT)
 193:Generated_Source\PSoC4/RTC.h **** #define RTC_NOVEMBER   (RTC__NOV)
 194:Generated_Source\PSoC4/RTC.h **** #define RTC_DECEMBER   (RTC__DEC)
 195:Generated_Source\PSoC4/RTC.h **** 
 196:Generated_Source\PSoC4/RTC.h **** #define RTC_DAYS_PER_WEEK       (7u)
 197:Generated_Source\PSoC4/RTC.h **** 
 198:Generated_Source\PSoC4/RTC.h **** /* Number of days in month definitions */
 199:Generated_Source\PSoC4/RTC.h **** #define RTC_DAYS_IN_JANUARY     (31u)
 200:Generated_Source\PSoC4/RTC.h **** #define RTC_DAYS_IN_FEBRUARY    (28u)
 201:Generated_Source\PSoC4/RTC.h **** #define RTC_DAYS_IN_MARCH       (31u)
 202:Generated_Source\PSoC4/RTC.h **** #define RTC_DAYS_IN_APRIL       (30u)
 203:Generated_Source\PSoC4/RTC.h **** #define RTC_DAYS_IN_MAY         (31u)
 204:Generated_Source\PSoC4/RTC.h **** #define RTC_DAYS_IN_JUNE        (30u)
ARM GAS  C:\Users\Petro\AppData\Local\Temp\cc4lpBuc.s 			page 5


 205:Generated_Source\PSoC4/RTC.h **** #define RTC_DAYS_IN_JULY        (31u)
 206:Generated_Source\PSoC4/RTC.h **** #define RTC_DAYS_IN_AUGUST      (31u)
 207:Generated_Source\PSoC4/RTC.h **** #define RTC_DAYS_IN_SEPTEMBER   (30u)
 208:Generated_Source\PSoC4/RTC.h **** #define RTC_DAYS_IN_OCTOBER     (31u)
 209:Generated_Source\PSoC4/RTC.h **** #define RTC_DAYS_IN_NOVEMBER    (30u)
 210:Generated_Source\PSoC4/RTC.h **** #define RTC_DAYS_IN_DECEMBER    (31u)
 211:Generated_Source\PSoC4/RTC.h **** 
 212:Generated_Source\PSoC4/RTC.h **** #define RTC_MONTHS_PER_YEAR     (12uL)
 213:Generated_Source\PSoC4/RTC.h **** 
 214:Generated_Source\PSoC4/RTC.h **** #define RTC_HOURS_PER_DAY       (24uL)
 215:Generated_Source\PSoC4/RTC.h **** #define RTC_HOURS_PER_HALF_DAY  (12uL)
 216:Generated_Source\PSoC4/RTC.h **** 
 217:Generated_Source\PSoC4/RTC.h **** #define RTC_SECONDS_PER_MINUTE  (60uL)
 218:Generated_Source\PSoC4/RTC.h **** #define RTC_SECONDS_PER_HOUR    (3600uL)
 219:Generated_Source\PSoC4/RTC.h **** #define RTC_SECONDS_PER_DAY     (24uL * 3600uL)
 220:Generated_Source\PSoC4/RTC.h **** 
 221:Generated_Source\PSoC4/RTC.h **** #define RTC_SECONDS_PER_LEAP_YEAR    (366uL * 24uL * 3600uL)
 222:Generated_Source\PSoC4/RTC.h **** #define RTC_SECONDS_PER_NONLEAP_YEAR (365uL * 24uL * 3600uL)
 223:Generated_Source\PSoC4/RTC.h **** 
 224:Generated_Source\PSoC4/RTC.h **** #define RTC_UNIX_TIME_PM   ((12uL * 3600uL) + 1uL)
 225:Generated_Source\PSoC4/RTC.h **** 
 226:Generated_Source\PSoC4/RTC.h **** /* AM/PM status definitions */
 227:Generated_Source\PSoC4/RTC.h **** #define RTC_AM                 (0u)
 228:Generated_Source\PSoC4/RTC.h **** #define RTC_PM                 (1u)
 229:Generated_Source\PSoC4/RTC.h **** 
 230:Generated_Source\PSoC4/RTC.h **** /* Time format definitions */
 231:Generated_Source\PSoC4/RTC.h **** #define RTC_12_HOURS_FORMAT    (RTC__HOUR_12)
 232:Generated_Source\PSoC4/RTC.h **** #define RTC_24_HOURS_FORMAT    (RTC__HOUR_24)
 233:Generated_Source\PSoC4/RTC.h **** 
 234:Generated_Source\PSoC4/RTC.h **** /* UNIX time begins in 1970 year.  */
 235:Generated_Source\PSoC4/RTC.h **** #define RTC_YEAR_0             (1970u)
 236:Generated_Source\PSoC4/RTC.h **** 
 237:Generated_Source\PSoC4/RTC.h **** /* Definition of date register fields */
 238:Generated_Source\PSoC4/RTC.h **** #if(RTC_INITIAL_DATA_FORMAT == RTC__MM_DD_YYYY)
 239:Generated_Source\PSoC4/RTC.h ****     #define RTC_10_MONTH_OFFSET   (28u)
 240:Generated_Source\PSoC4/RTC.h ****     #define RTC_MONTH_OFFSET      (24u)
 241:Generated_Source\PSoC4/RTC.h ****     #define RTC_10_DAY_OFFSET     (20u)
 242:Generated_Source\PSoC4/RTC.h ****     #define RTC_DAY_OFFSET        (16u)
 243:Generated_Source\PSoC4/RTC.h ****     #define RTC_1000_YEAR_OFFSET  (12u)
 244:Generated_Source\PSoC4/RTC.h ****     #define RTC_100_YEAR_OFFSET   (8u)
 245:Generated_Source\PSoC4/RTC.h ****     #define RTC_10_YEAR_OFFSET    (4u)
 246:Generated_Source\PSoC4/RTC.h ****     #define RTC_YEAR_OFFSET       (0u)
 247:Generated_Source\PSoC4/RTC.h **** #elif(RTC_INITIAL_DATA_FORMAT == RTC__DD_MM_YYYY)
 248:Generated_Source\PSoC4/RTC.h ****     #define RTC_10_MONTH_OFFSET   (20u)
 249:Generated_Source\PSoC4/RTC.h ****     #define RTC_MONTH_OFFSET      (16u)
 250:Generated_Source\PSoC4/RTC.h ****     #define RTC_10_DAY_OFFSET     (28u)
 251:Generated_Source\PSoC4/RTC.h ****     #define RTC_DAY_OFFSET        (24u)
 252:Generated_Source\PSoC4/RTC.h ****     #define RTC_1000_YEAR_OFFSET  (12u)
 253:Generated_Source\PSoC4/RTC.h ****     #define RTC_100_YEAR_OFFSET   (8u)
 254:Generated_Source\PSoC4/RTC.h ****     #define RTC_10_YEAR_OFFSET    (4u)
 255:Generated_Source\PSoC4/RTC.h ****     #define RTC_YEAR_OFFSET       (0u)
 256:Generated_Source\PSoC4/RTC.h **** #else
 257:Generated_Source\PSoC4/RTC.h ****     #define RTC_10_MONTH_OFFSET   (12u)
 258:Generated_Source\PSoC4/RTC.h ****     #define RTC_MONTH_OFFSET      (8u)
 259:Generated_Source\PSoC4/RTC.h ****     #define RTC_10_DAY_OFFSET     (4u)
 260:Generated_Source\PSoC4/RTC.h ****     #define RTC_DAY_OFFSET        (0u)
 261:Generated_Source\PSoC4/RTC.h ****     #define RTC_1000_YEAR_OFFSET  (28u)
ARM GAS  C:\Users\Petro\AppData\Local\Temp\cc4lpBuc.s 			page 6


 262:Generated_Source\PSoC4/RTC.h ****     #define RTC_100_YEAR_OFFSET   (24u)
 263:Generated_Source\PSoC4/RTC.h ****     #define RTC_10_YEAR_OFFSET    (20u)
 264:Generated_Source\PSoC4/RTC.h ****     #define RTC_YEAR_OFFSET       (16u)
 265:Generated_Source\PSoC4/RTC.h **** #endif /* (RTC_INITIAL_DATA_FORMAT == RTC__MM_DD_YYYY) */
 266:Generated_Source\PSoC4/RTC.h **** 
 267:Generated_Source\PSoC4/RTC.h **** #define RTC_10_MONTH_MASK          (0x00000001uL << RTC_10_MONTH_OFFSET)
 268:Generated_Source\PSoC4/RTC.h **** #define RTC_MONTH_MASK             (0x0000000FuL << RTC_MONTH_OFFSET)
 269:Generated_Source\PSoC4/RTC.h **** #define RTC_10_DAY_MASK            (0x00000003uL << RTC_10_DAY_OFFSET)
 270:Generated_Source\PSoC4/RTC.h **** #define RTC_DAY_MASK               (0x0000000FuL << RTC_DAY_OFFSET)
 271:Generated_Source\PSoC4/RTC.h **** #define RTC_1000_YEAR_MASK         (0x00000003uL << RTC_1000_YEAR_OFFSET)
 272:Generated_Source\PSoC4/RTC.h **** #define RTC_100_YEAR_MASK          (0x0000000FuL << RTC_100_YEAR_OFFSET)
 273:Generated_Source\PSoC4/RTC.h **** #define RTC_10_YEAR_MASK           (0x0000000FuL << RTC_10_YEAR_OFFSET)
 274:Generated_Source\PSoC4/RTC.h **** #define RTC_YEAR_MASK              (0x0000000FuL << RTC_YEAR_OFFSET)
 275:Generated_Source\PSoC4/RTC.h **** 
 276:Generated_Source\PSoC4/RTC.h **** #define  RTC_MONTH_FULL_MASK       (RTC_10_MONTH_MASK  | RTC_MONTH_MASK)
 277:Generated_Source\PSoC4/RTC.h **** #define  RTC_DAY_FULL_MASK         (RTC_10_DAY_MASK    | RTC_DAY_MASK)
 278:Generated_Source\PSoC4/RTC.h **** #define  RTC_YEAR_FULL_MASK        (RTC_1000_YEAR_MASK | RTC_100_YEAR_MASK |\
 279:Generated_Source\PSoC4/RTC.h ****                                                  RTC_10_YEAR_MASK   | RTC_YEAR_MASK)
 280:Generated_Source\PSoC4/RTC.h **** 
 281:Generated_Source\PSoC4/RTC.h **** 
 282:Generated_Source\PSoC4/RTC.h **** /* Definition of time register fields */
 283:Generated_Source\PSoC4/RTC.h **** #define RTC_TIME_FORMAT_OFFSET     (23u)
 284:Generated_Source\PSoC4/RTC.h **** #define RTC_PERIOD_OF_DAY_OFFSET   (22u)
 285:Generated_Source\PSoC4/RTC.h **** #define RTC_10_HOURS_OFFSET        (20u)
 286:Generated_Source\PSoC4/RTC.h **** #define RTC_HOURS_OFFSET           (16u)
 287:Generated_Source\PSoC4/RTC.h **** #define RTC_10_MINUTES_OFFSET      (12u)
 288:Generated_Source\PSoC4/RTC.h **** #define RTC_MINUTES_OFFSET         (8u)
 289:Generated_Source\PSoC4/RTC.h **** #define RTC_10_SECONDS_OFFSET      (4u)
 290:Generated_Source\PSoC4/RTC.h **** #define RTC_SECONDS_OFFSET         (0u)
 291:Generated_Source\PSoC4/RTC.h **** 
 292:Generated_Source\PSoC4/RTC.h **** #define RTC_TIME_FORMAT_MASK       (0x00000001uL << RTC_TIME_FORMAT_OFFSET)
 293:Generated_Source\PSoC4/RTC.h **** #define RTC_PERIOD_OF_DAY_MASK     (0x00000001uL << RTC_PERIOD_OF_DAY_OFFSET)
 294:Generated_Source\PSoC4/RTC.h **** #define RTC_10_HOURS_MASK          (0x00000003uL << RTC_10_HOURS_OFFSET)
 295:Generated_Source\PSoC4/RTC.h **** #define RTC_HOURS_MASK             (0x0000000FuL << RTC_HOURS_OFFSET)
 296:Generated_Source\PSoC4/RTC.h **** #define RTC_10_MINUTES_MASK        (0x00000007uL << RTC_10_MINUTES_OFFSET)
 297:Generated_Source\PSoC4/RTC.h **** #define RTC_MINUTES_MASK           (0x0000000FuL << RTC_MINUTES_OFFSET)
 298:Generated_Source\PSoC4/RTC.h **** #define RTC_10_SECONDS_MASK        (0x00000007uL << RTC_10_SECONDS_OFFSET)
 299:Generated_Source\PSoC4/RTC.h **** #define RTC_SECONDS_MASK           (0x0000000FuL << RTC_SECONDS_OFFSET)
 300:Generated_Source\PSoC4/RTC.h **** 
 301:Generated_Source\PSoC4/RTC.h **** #define RTC_HOURS_FULL_MASK        (RTC_10_HOURS_MASK   | RTC_HOURS_MASK)
 302:Generated_Source\PSoC4/RTC.h **** #define RTC_MINUTES_FULL_MASK      (RTC_10_MINUTES_MASK | RTC_MINUTES_MASK)
 303:Generated_Source\PSoC4/RTC.h **** #define RTC_SECONDS_FULL_MASK      (RTC_10_SECONDS_MASK | RTC_SECONDS_MASK)
 304:Generated_Source\PSoC4/RTC.h **** 
 305:Generated_Source\PSoC4/RTC.h **** #define RTC_ALARM_SEC_MASK         (0x00000001uL)
 306:Generated_Source\PSoC4/RTC.h **** #define RTC_ALARM_MIN_MASK         (0x00000002uL)
 307:Generated_Source\PSoC4/RTC.h **** #define RTC_ALARM_HOUR_MASK        (0x00000004uL)
 308:Generated_Source\PSoC4/RTC.h **** #define RTC_ALARM_DAYOFWEEK_MASK   (0x00000008uL)
 309:Generated_Source\PSoC4/RTC.h **** #define RTC_ALARM_DAYOFMONTH_MASK  (0x00000010uL)
 310:Generated_Source\PSoC4/RTC.h **** #define RTC_ALARM_MONTH_MASK       (0x00000020uL)
 311:Generated_Source\PSoC4/RTC.h **** #define RTC_ALARM_YEAR_MASK        (0x00000040uL)
 312:Generated_Source\PSoC4/RTC.h **** 
 313:Generated_Source\PSoC4/RTC.h **** #define RTC_STATUS_DST_OFFSET      (1u)
 314:Generated_Source\PSoC4/RTC.h **** #define RTC_STATUS_ALARM_OFFSET    (2u)
 315:Generated_Source\PSoC4/RTC.h **** #define RTC_STATUS_LY_OFFSET       (3u)
 316:Generated_Source\PSoC4/RTC.h **** #define RTC_STATUS_AM_PM_OFFSET    (4u)
 317:Generated_Source\PSoC4/RTC.h **** 
 318:Generated_Source\PSoC4/RTC.h **** /* Definition of the RTC status values. */
ARM GAS  C:\Users\Petro\AppData\Local\Temp\cc4lpBuc.s 			page 7


 319:Generated_Source\PSoC4/RTC.h **** #define RTC_STATUS_DST             (1uL << RTC_STATUS_DST_OFFSET)
 320:Generated_Source\PSoC4/RTC.h **** #define RTC_STATUS_LY              (1uL << RTC_STATUS_LY_OFFSET)
 321:Generated_Source\PSoC4/RTC.h **** #define RTC_STATUS_AM_PM           (1uL << RTC_STATUS_AM_PM_OFFSET)
 322:Generated_Source\PSoC4/RTC.h **** 
 323:Generated_Source\PSoC4/RTC.h **** /* Number of bits per one BCD digit. */
 324:Generated_Source\PSoC4/RTC.h **** #define RTC_BCD_NUMBER_SIZE        (4u)
 325:Generated_Source\PSoC4/RTC.h **** #define RTC_BCD_ONE_DIGIT_MASK     (0x0000000FuL)
 326:Generated_Source\PSoC4/RTC.h **** 
 327:Generated_Source\PSoC4/RTC.h **** /*******************************************************************************
 328:Generated_Source\PSoC4/RTC.h **** *    Function Prototypes
 329:Generated_Source\PSoC4/RTC.h **** *******************************************************************************/
 330:Generated_Source\PSoC4/RTC.h **** /**
 331:Generated_Source\PSoC4/RTC.h **** * \addtogroup group_api
 332:Generated_Source\PSoC4/RTC.h **** * @{
 333:Generated_Source\PSoC4/RTC.h **** */
 334:Generated_Source\PSoC4/RTC.h **** void   RTC_Start(void);
 335:Generated_Source\PSoC4/RTC.h **** void   RTC_Stop(void);
 336:Generated_Source\PSoC4/RTC.h **** void   RTC_Init(void);
 337:Generated_Source\PSoC4/RTC.h **** void   RTC_SetUnixTime(uint64 unixTime);
 338:Generated_Source\PSoC4/RTC.h **** uint64 RTC_GetUnixTime(void);
 339:Generated_Source\PSoC4/RTC.h **** void   RTC_SetPeriod(uint32 ticks, uint32 refOneSecTicks);
 340:Generated_Source\PSoC4/RTC.h **** uint32 RTC_GetPeriod(void);
 341:Generated_Source\PSoC4/RTC.h **** uint32 RTC_GetRefOneSec(void);
 342:Generated_Source\PSoC4/RTC.h **** void   RTC_SetDateAndTime(uint32 inputTime, uint32 inputDate);
 343:Generated_Source\PSoC4/RTC.h **** void   RTC_GetDateAndTime(RTC_DATE_TIME* dateTime);
 344:Generated_Source\PSoC4/RTC.h **** uint32 RTC_GetTime(void);
 345:Generated_Source\PSoC4/RTC.h **** uint32 RTC_GetDate(void);
 346:Generated_Source\PSoC4/RTC.h **** void   RTC_SetAlarmDateAndTime(const RTC_DATE_TIME* alarmTime);
 347:Generated_Source\PSoC4/RTC.h **** void   RTC_GetAlarmDateAndTime(RTC_DATE_TIME* alarmTimeDate);
 348:Generated_Source\PSoC4/RTC.h **** void   RTC_SetAlarmMask(uint32 mask);
 349:Generated_Source\PSoC4/RTC.h **** uint32 RTC_GetAlarmMask(void);
 350:Generated_Source\PSoC4/RTC.h **** uint32 RTC_ReadStatus(void);
 351:Generated_Source\PSoC4/RTC.h **** uint32 RTC_GetAlarmStatus(void);
 352:Generated_Source\PSoC4/RTC.h **** void   RTC_ClearAlarmStatus(void);
 353:Generated_Source\PSoC4/RTC.h **** void   RTC_SetDSTStartTime(const RTC_DST_TIME* dstStartTime,
 354:Generated_Source\PSoC4/RTC.h ****                                               RTC_DST_DATETYPE_ENUM type);
 355:Generated_Source\PSoC4/RTC.h **** void   RTC_SetDSTStopTime(const RTC_DST_TIME* dstStopTime,
 356:Generated_Source\PSoC4/RTC.h ****                                              RTC_DST_DATETYPE_ENUM type);
 357:Generated_Source\PSoC4/RTC.h **** uint32 RTC_ConvertBCDToDec(uint32 bcdNum);
 358:Generated_Source\PSoC4/RTC.h **** uint32 RTC_ConvertDecToBCD(uint32 decNum);
 359:Generated_Source\PSoC4/RTC.h **** void   RTC_Update(void);
 360:Generated_Source\PSoC4/RTC.h **** void*  RTC_SetAlarmHandler(void (*CallbackFunction)(void));
 361:Generated_Source\PSoC4/RTC.h **** 
 362:Generated_Source\PSoC4/RTC.h **** static uint32 RTC_ConstructDate(uint32 month, uint32 day, uint32 year);
 363:Generated_Source\PSoC4/RTC.h **** static uint32 RTC_ConstructTime(uint32 timeFormat, uint32 stateAmPm, uint32 hour, uint32 min, uint3
 364:Generated_Source\PSoC4/RTC.h **** /** @} api */
 365:Generated_Source\PSoC4/RTC.h **** 
 366:Generated_Source\PSoC4/RTC.h **** static uint32 RTC_GetTimeFormat(uint32 inputTime);
 367:Generated_Source\PSoC4/RTC.h **** static uint32 RTC_SetTimeFormat(uint32 inputTime, uint32 timeFormat);
 368:Generated_Source\PSoC4/RTC.h **** 
 369:Generated_Source\PSoC4/RTC.h **** /**
 370:Generated_Source\PSoC4/RTC.h **** * \addtogroup group_api
 371:Generated_Source\PSoC4/RTC.h **** * @{
 372:Generated_Source\PSoC4/RTC.h **** */
 373:Generated_Source\PSoC4/RTC.h **** static uint32 RTC_LeapYear(uint32 year);
 374:Generated_Source\PSoC4/RTC.h **** static uint32 RTC_IsBitSet(uint32 var, uint32 mask);
 375:Generated_Source\PSoC4/RTC.h **** static uint32 RTC_GetSecond(uint32 inputTime);
ARM GAS  C:\Users\Petro\AppData\Local\Temp\cc4lpBuc.s 			page 8


 376:Generated_Source\PSoC4/RTC.h **** static uint32 RTC_GetMinutes(uint32 inputTime);
 377:Generated_Source\PSoC4/RTC.h **** static uint32 RTC_GetHours(uint32 inputTime);
 378:Generated_Source\PSoC4/RTC.h **** static uint32 RTC_GetAmPm(uint32 inputTime);
 379:Generated_Source\PSoC4/RTC.h **** static uint32 RTC_GetDay(uint32 date);
 380:Generated_Source\PSoC4/RTC.h **** static uint32 RTC_GetMonth(uint32 date);
 381:Generated_Source\PSoC4/RTC.h **** static uint32 RTC_GetYear(uint32 date);
 382:Generated_Source\PSoC4/RTC.h **** /** @} api */
 383:Generated_Source\PSoC4/RTC.h **** 
 384:Generated_Source\PSoC4/RTC.h **** static uint32 RTC_SetSecond(uint32 inputTime, uint32 inputSecond);
 385:Generated_Source\PSoC4/RTC.h **** static uint32 RTC_SetMinutes(uint32 inputTime, uint32 inputMinute);
 386:Generated_Source\PSoC4/RTC.h **** static uint32 RTC_SetHours(uint32 inputTime, uint32 inputHours);
 387:Generated_Source\PSoC4/RTC.h **** static uint32 RTC_SetAmPm(uint32 inputTime, uint32 periodOfDay);
 388:Generated_Source\PSoC4/RTC.h **** static uint32 RTC_SetDay(uint32 inputDate, uint32 inputDay);
 389:Generated_Source\PSoC4/RTC.h **** static uint32 RTC_SetMonth(uint32 inputDate, uint32 inputMonth);
 390:Generated_Source\PSoC4/RTC.h **** static uint32 RTC_SetYear(uint32 inputDate, uint32 inputYear);
 391:Generated_Source\PSoC4/RTC.h **** 
 392:Generated_Source\PSoC4/RTC.h **** uint64 RTC_ConstructUnixAlarmTime(const RTC_DATE_TIME* alarmTime, uint8 alarmCfgMask);
 393:Generated_Source\PSoC4/RTC.h **** uint64 RTC_GetDstUnixTime(const RTC_DST_TIME* dstTime);
 394:Generated_Source\PSoC4/RTC.h **** uint64 RTC_GetNexAlarmTime(uint64 curUnixTime, uint8 alarmCfgMask);
 395:Generated_Source\PSoC4/RTC.h **** 
 396:Generated_Source\PSoC4/RTC.h **** static uint32 RTC_GetNextMinSec(uint32 curVal);
 397:Generated_Source\PSoC4/RTC.h **** static uint32 RTC_GetNextHour(uint32 curVal);
 398:Generated_Source\PSoC4/RTC.h **** static uint32 RTC_GetNextDay(uint32 curYear, uint32 curMonth, uint32 curDay, uint32 alarmCfgMask);
 399:Generated_Source\PSoC4/RTC.h **** static uint32 RTC_GetNextMonth(uint32 curMonth);
 400:Generated_Source\PSoC4/RTC.h **** static uint32 RTC_GetNextYear(uint32 curYear);
 401:Generated_Source\PSoC4/RTC.h **** static uint32 RTC_GetDayOfWeek(uint32 day, uint32 month, uint32 year);
 402:Generated_Source\PSoC4/RTC.h **** 
 403:Generated_Source\PSoC4/RTC.h **** uint32 RTC_DaysInMonth(uint32 month, uint32 year);
 404:Generated_Source\PSoC4/RTC.h **** uint32 RTC_DaysBeforeMonth(uint32 month, uint32 year);
 405:Generated_Source\PSoC4/RTC.h **** 
 406:Generated_Source\PSoC4/RTC.h **** /**
 407:Generated_Source\PSoC4/RTC.h **** * \addtogroup group_api
 408:Generated_Source\PSoC4/RTC.h **** * @{
 409:Generated_Source\PSoC4/RTC.h **** */
 410:Generated_Source\PSoC4/RTC.h **** void   RTC_UnixToDateTime(RTC_DATE_TIME* dateTime, uint64 unixTime, uint32 timeFormat);
 411:Generated_Source\PSoC4/RTC.h **** uint64 RTC_DateTimeToUnix(uint32 inputDate, uint32 inputTime);
 412:Generated_Source\PSoC4/RTC.h **** /** @} api */
 413:Generated_Source\PSoC4/RTC.h **** 
 414:Generated_Source\PSoC4/RTC.h **** uint32 RTC_RelativeToFixed(uint32 dayOfWeek, uint32 weekOfMonth, uint32 month, uint32 year);
 415:Generated_Source\PSoC4/RTC.h **** 
 416:Generated_Source\PSoC4/RTC.h **** 
 417:Generated_Source\PSoC4/RTC.h **** #if defined(CYDEV_RTC_SOURCE_WDT)
 418:Generated_Source\PSoC4/RTC.h ****     #if((0u != CYDEV_WDT_GENERATE_ISR) && (0u == RTC_INITIAL_UPDATE_MODE))
 419:Generated_Source\PSoC4/RTC.h ****         static void RTC_CySysRtcSetCallback(uint32 wdtNumber);
 420:Generated_Source\PSoC4/RTC.h ****         static void RTC_CySysRtcResetCallback(uint32 wdtNumber);
 421:Generated_Source\PSoC4/RTC.h ****     #endif /* ((0u != CYDEV_WDT_GENERATE_ISR) && (0u == RTC_INITIAL_UPDATE_MODE)) */
 422:Generated_Source\PSoC4/RTC.h **** #endif /* (CYDEV_RTC_SOURCE_WDT) */
 423:Generated_Source\PSoC4/RTC.h **** 
 424:Generated_Source\PSoC4/RTC.h **** /*******************************************************************************
 425:Generated_Source\PSoC4/RTC.h **** * Function Name: RTC_IsBitSet
 426:Generated_Source\PSoC4/RTC.h **** ****************************************************************************//**
 427:Generated_Source\PSoC4/RTC.h **** *
 428:Generated_Source\PSoC4/RTC.h **** * \brief
 429:Generated_Source\PSoC4/RTC.h **** *  Checks the state of a bit passed through parameter.
 430:Generated_Source\PSoC4/RTC.h **** *
 431:Generated_Source\PSoC4/RTC.h **** * \param
 432:Generated_Source\PSoC4/RTC.h **** *  var The variable to be checked.
ARM GAS  C:\Users\Petro\AppData\Local\Temp\cc4lpBuc.s 			page 9


 433:Generated_Source\PSoC4/RTC.h **** * \param
 434:Generated_Source\PSoC4/RTC.h **** *  mask The mask for a bit to be checked.
 435:Generated_Source\PSoC4/RTC.h **** *
 436:Generated_Source\PSoC4/RTC.h **** * \return
 437:Generated_Source\PSoC4/RTC.h **** *  0u - Bit is not set.
 438:Generated_Source\PSoC4/RTC.h **** * \return
 439:Generated_Source\PSoC4/RTC.h **** *  1u - Bit is set.
 440:Generated_Source\PSoC4/RTC.h **** *
 441:Generated_Source\PSoC4/RTC.h **** *******************************************************************************/
 442:Generated_Source\PSoC4/RTC.h **** static CY_INLINE uint32 RTC_IsBitSet(uint32 var, uint32 mask)
 443:Generated_Source\PSoC4/RTC.h **** {
 444:Generated_Source\PSoC4/RTC.h ****     return ((mask == (var & mask)) ? 1Lu : 0Lu);
 445:Generated_Source\PSoC4/RTC.h **** }
 446:Generated_Source\PSoC4/RTC.h **** 
 447:Generated_Source\PSoC4/RTC.h **** 
 448:Generated_Source\PSoC4/RTC.h **** /*******************************************************************************
 449:Generated_Source\PSoC4/RTC.h **** * Function Name: RTC_LeapYear
 450:Generated_Source\PSoC4/RTC.h **** ****************************************************************************//**
 451:Generated_Source\PSoC4/RTC.h **** *
 452:Generated_Source\PSoC4/RTC.h **** * \brief
 453:Generated_Source\PSoC4/RTC.h **** * Checks whether the year passed through the parameter is
 454:Generated_Source\PSoC4/RTC.h **** * leap or no.
 455:Generated_Source\PSoC4/RTC.h **** *
 456:Generated_Source\PSoC4/RTC.h **** * \param
 457:Generated_Source\PSoC4/RTC.h **** *  year The year to be checked.
 458:Generated_Source\PSoC4/RTC.h **** *
 459:Generated_Source\PSoC4/RTC.h **** *
 460:Generated_Source\PSoC4/RTC.h **** * \return
 461:Generated_Source\PSoC4/RTC.h **** *  0u - The year is not leap.
 462:Generated_Source\PSoC4/RTC.h **** * \return
 463:Generated_Source\PSoC4/RTC.h **** *  1u - The year is leap.
 464:Generated_Source\PSoC4/RTC.h **** *
 465:Generated_Source\PSoC4/RTC.h **** *******************************************************************************/
 466:Generated_Source\PSoC4/RTC.h **** static CY_INLINE uint32 RTC_LeapYear(uint32 year)
 467:Generated_Source\PSoC4/RTC.h **** {
 468:Generated_Source\PSoC4/RTC.h ****     uint32 retVal;
 469:Generated_Source\PSoC4/RTC.h **** 
 470:Generated_Source\PSoC4/RTC.h ****     if(((0u == (year % 4Lu)) && (0u != (year % 100Lu))) || (0u == (year % 400Lu)))
 471:Generated_Source\PSoC4/RTC.h ****     {
 472:Generated_Source\PSoC4/RTC.h ****         retVal = 1uL;
 473:Generated_Source\PSoC4/RTC.h ****     }
 474:Generated_Source\PSoC4/RTC.h ****     else
 475:Generated_Source\PSoC4/RTC.h ****     {
 476:Generated_Source\PSoC4/RTC.h ****         retVal = 0uL;
 477:Generated_Source\PSoC4/RTC.h ****     }
 478:Generated_Source\PSoC4/RTC.h **** 
 479:Generated_Source\PSoC4/RTC.h ****     return(retVal);
 480:Generated_Source\PSoC4/RTC.h **** }
 481:Generated_Source\PSoC4/RTC.h **** 
 482:Generated_Source\PSoC4/RTC.h **** 
 483:Generated_Source\PSoC4/RTC.h **** /*******************************************************************************
 484:Generated_Source\PSoC4/RTC.h **** * Function Name: RTC_GetSecond
 485:Generated_Source\PSoC4/RTC.h **** ****************************************************************************//**
 486:Generated_Source\PSoC4/RTC.h **** *
 487:Generated_Source\PSoC4/RTC.h **** * \brief
 488:Generated_Source\PSoC4/RTC.h **** *  Returns the seconds value from the time value that is passed as a/the parameter.
 489:Generated_Source\PSoC4/RTC.h **** *
ARM GAS  C:\Users\Petro\AppData\Local\Temp\cc4lpBuc.s 			page 10


 490:Generated_Source\PSoC4/RTC.h **** * \param
 491:Generated_Source\PSoC4/RTC.h **** *  time The time value.
 492:Generated_Source\PSoC4/RTC.h **** *
 493:Generated_Source\PSoC4/RTC.h **** * \return
 494:Generated_Source\PSoC4/RTC.h **** *  The seconds value.
 495:Generated_Source\PSoC4/RTC.h **** *
 496:Generated_Source\PSoC4/RTC.h **** *******************************************************************************/
 497:Generated_Source\PSoC4/RTC.h **** static CY_INLINE uint32 RTC_GetSecond(uint32 inputTime)
 498:Generated_Source\PSoC4/RTC.h **** {
  25              		.loc 1 498 0
  26              		.cfi_startproc
  27 0000 80B5     		push	{r7, lr}
  28              		.cfi_def_cfa_offset 8
  29              		.cfi_offset 7, -8
  30              		.cfi_offset 14, -4
  31 0002 84B0     		sub	sp, sp, #16
  32              		.cfi_def_cfa_offset 24
  33 0004 00AF     		add	r7, sp, #0
  34              		.cfi_def_cfa_register 7
  35 0006 7860     		str	r0, [r7, #4]
 499:Generated_Source\PSoC4/RTC.h ****     uint32 retVal;
 500:Generated_Source\PSoC4/RTC.h **** 
 501:Generated_Source\PSoC4/RTC.h ****     retVal  = ((inputTime & RTC_10_SECONDS_MASK) >> RTC_10_SECONDS_OFFSET) * 10u;
  36              		.loc 1 501 0
  37 0008 7B68     		ldr	r3, [r7, #4]
  38 000a 7022     		mov	r2, #112
  39 000c 1340     		and	r3, r2
  40 000e 1A09     		lsr	r2, r3, #4
  41 0010 131C     		mov	r3, r2
  42 0012 9B00     		lsl	r3, r3, #2
  43 0014 9B18     		add	r3, r3, r2
  44 0016 5B00     		lsl	r3, r3, #1
  45 0018 FB60     		str	r3, [r7, #12]
 502:Generated_Source\PSoC4/RTC.h ****     retVal += (inputTime & RTC_SECONDS_MASK) >> RTC_SECONDS_OFFSET;
  46              		.loc 1 502 0
  47 001a 7B68     		ldr	r3, [r7, #4]
  48 001c 0F22     		mov	r2, #15
  49 001e 1340     		and	r3, r2
  50 0020 FA68     		ldr	r2, [r7, #12]
  51 0022 D318     		add	r3, r2, r3
  52 0024 FB60     		str	r3, [r7, #12]
 503:Generated_Source\PSoC4/RTC.h **** 
 504:Generated_Source\PSoC4/RTC.h ****     return (retVal);
  53              		.loc 1 504 0
  54 0026 FB68     		ldr	r3, [r7, #12]
 505:Generated_Source\PSoC4/RTC.h **** }
  55              		.loc 1 505 0
  56 0028 181C     		mov	r0, r3
  57 002a BD46     		mov	sp, r7
  58 002c 04B0     		add	sp, sp, #16
  59              		@ sp needed
  60 002e 80BD     		pop	{r7, pc}
  61              		.cfi_endproc
  62              	.LFE4:
  63              		.size	RTC_GetSecond, .-RTC_GetSecond
  64              		.section	.text.RTC_GetMinutes,"ax",%progbits
  65              		.align	2
ARM GAS  C:\Users\Petro\AppData\Local\Temp\cc4lpBuc.s 			page 11


  66              		.code	16
  67              		.thumb_func
  68              		.type	RTC_GetMinutes, %function
  69              	RTC_GetMinutes:
  70              	.LFB5:
 506:Generated_Source\PSoC4/RTC.h **** 
 507:Generated_Source\PSoC4/RTC.h **** 
 508:Generated_Source\PSoC4/RTC.h **** /*******************************************************************************
 509:Generated_Source\PSoC4/RTC.h **** * Function Name: RTC_GetMinutes
 510:Generated_Source\PSoC4/RTC.h **** ****************************************************************************//**
 511:Generated_Source\PSoC4/RTC.h **** *
 512:Generated_Source\PSoC4/RTC.h **** * \brief
 513:Generated_Source\PSoC4/RTC.h **** *  Returns the minutes value from the time value that is passed as a/the 
 514:Generated_Source\PSoC4/RTC.h **** * parameter.
 515:Generated_Source\PSoC4/RTC.h **** *
 516:Generated_Source\PSoC4/RTC.h **** * \param
 517:Generated_Source\PSoC4/RTC.h **** *  time The time value.
 518:Generated_Source\PSoC4/RTC.h **** *
 519:Generated_Source\PSoC4/RTC.h **** * \return
 520:Generated_Source\PSoC4/RTC.h **** *  The minutes value.
 521:Generated_Source\PSoC4/RTC.h **** *
 522:Generated_Source\PSoC4/RTC.h **** *******************************************************************************/
 523:Generated_Source\PSoC4/RTC.h **** static CY_INLINE uint32 RTC_GetMinutes(uint32 inputTime)
 524:Generated_Source\PSoC4/RTC.h **** {
  71              		.loc 1 524 0
  72              		.cfi_startproc
  73 0000 80B5     		push	{r7, lr}
  74              		.cfi_def_cfa_offset 8
  75              		.cfi_offset 7, -8
  76              		.cfi_offset 14, -4
  77 0002 84B0     		sub	sp, sp, #16
  78              		.cfi_def_cfa_offset 24
  79 0004 00AF     		add	r7, sp, #0
  80              		.cfi_def_cfa_register 7
  81 0006 7860     		str	r0, [r7, #4]
 525:Generated_Source\PSoC4/RTC.h ****     uint32 retVal;
 526:Generated_Source\PSoC4/RTC.h **** 
 527:Generated_Source\PSoC4/RTC.h ****     retVal  = ((inputTime & RTC_10_MINUTES_MASK) >> RTC_10_MINUTES_OFFSET) * 10u;
  82              		.loc 1 527 0
  83 0008 7A68     		ldr	r2, [r7, #4]
  84 000a E023     		mov	r3, #224
  85 000c DB01     		lsl	r3, r3, #7
  86 000e 1340     		and	r3, r2
  87 0010 1A0B     		lsr	r2, r3, #12
  88 0012 131C     		mov	r3, r2
  89 0014 9B00     		lsl	r3, r3, #2
  90 0016 9B18     		add	r3, r3, r2
  91 0018 5B00     		lsl	r3, r3, #1
  92 001a FB60     		str	r3, [r7, #12]
 528:Generated_Source\PSoC4/RTC.h ****     retVal += (inputTime & RTC_MINUTES_MASK) >> RTC_MINUTES_OFFSET;
  93              		.loc 1 528 0
  94 001c 7A68     		ldr	r2, [r7, #4]
  95 001e F023     		mov	r3, #240
  96 0020 1B01     		lsl	r3, r3, #4
  97 0022 1340     		and	r3, r2
  98 0024 1B0A     		lsr	r3, r3, #8
  99 0026 FA68     		ldr	r2, [r7, #12]
ARM GAS  C:\Users\Petro\AppData\Local\Temp\cc4lpBuc.s 			page 12


 100 0028 D318     		add	r3, r2, r3
 101 002a FB60     		str	r3, [r7, #12]
 529:Generated_Source\PSoC4/RTC.h **** 
 530:Generated_Source\PSoC4/RTC.h ****     return (retVal);
 102              		.loc 1 530 0
 103 002c FB68     		ldr	r3, [r7, #12]
 531:Generated_Source\PSoC4/RTC.h **** }
 104              		.loc 1 531 0
 105 002e 181C     		mov	r0, r3
 106 0030 BD46     		mov	sp, r7
 107 0032 04B0     		add	sp, sp, #16
 108              		@ sp needed
 109 0034 80BD     		pop	{r7, pc}
 110              		.cfi_endproc
 111              	.LFE5:
 112              		.size	RTC_GetMinutes, .-RTC_GetMinutes
 113 0036 C046     		.section	.text.RTC_GetHours,"ax",%progbits
 114              		.align	2
 115              		.code	16
 116              		.thumb_func
 117              		.type	RTC_GetHours, %function
 118              	RTC_GetHours:
 119              	.LFB6:
 532:Generated_Source\PSoC4/RTC.h **** 
 533:Generated_Source\PSoC4/RTC.h **** 
 534:Generated_Source\PSoC4/RTC.h **** /*******************************************************************************
 535:Generated_Source\PSoC4/RTC.h **** * Function Name: RTC_GetHours
 536:Generated_Source\PSoC4/RTC.h **** ****************************************************************************//**
 537:Generated_Source\PSoC4/RTC.h **** *
 538:Generated_Source\PSoC4/RTC.h **** * \brief
 539:Generated_Source\PSoC4/RTC.h **** *  Returns the hours value from the time value that is passed as a/the parameter.
 540:Generated_Source\PSoC4/RTC.h **** *
 541:Generated_Source\PSoC4/RTC.h **** * \param
 542:Generated_Source\PSoC4/RTC.h **** *  time The time value.
 543:Generated_Source\PSoC4/RTC.h **** *
 544:Generated_Source\PSoC4/RTC.h **** * \return
 545:Generated_Source\PSoC4/RTC.h **** *  The hours value.
 546:Generated_Source\PSoC4/RTC.h **** *
 547:Generated_Source\PSoC4/RTC.h **** *******************************************************************************/
 548:Generated_Source\PSoC4/RTC.h **** static CY_INLINE uint32 RTC_GetHours(uint32 inputTime)
 549:Generated_Source\PSoC4/RTC.h **** {
 120              		.loc 1 549 0
 121              		.cfi_startproc
 122 0000 80B5     		push	{r7, lr}
 123              		.cfi_def_cfa_offset 8
 124              		.cfi_offset 7, -8
 125              		.cfi_offset 14, -4
 126 0002 84B0     		sub	sp, sp, #16
 127              		.cfi_def_cfa_offset 24
 128 0004 00AF     		add	r7, sp, #0
 129              		.cfi_def_cfa_register 7
 130 0006 7860     		str	r0, [r7, #4]
 550:Generated_Source\PSoC4/RTC.h ****     uint32 retVal;
 551:Generated_Source\PSoC4/RTC.h **** 
 552:Generated_Source\PSoC4/RTC.h ****     retVal  = ((inputTime & RTC_10_HOURS_MASK) >> RTC_10_HOURS_OFFSET) * 10u;
 131              		.loc 1 552 0
 132 0008 7A68     		ldr	r2, [r7, #4]
ARM GAS  C:\Users\Petro\AppData\Local\Temp\cc4lpBuc.s 			page 13


 133 000a C023     		mov	r3, #192
 134 000c 9B03     		lsl	r3, r3, #14
 135 000e 1340     		and	r3, r2
 136 0010 1A0D     		lsr	r2, r3, #20
 137 0012 131C     		mov	r3, r2
 138 0014 9B00     		lsl	r3, r3, #2
 139 0016 9B18     		add	r3, r3, r2
 140 0018 5B00     		lsl	r3, r3, #1
 141 001a FB60     		str	r3, [r7, #12]
 553:Generated_Source\PSoC4/RTC.h ****     retVal += (inputTime & RTC_HOURS_MASK) >> RTC_HOURS_OFFSET;
 142              		.loc 1 553 0
 143 001c 7A68     		ldr	r2, [r7, #4]
 144 001e F023     		mov	r3, #240
 145 0020 1B03     		lsl	r3, r3, #12
 146 0022 1340     		and	r3, r2
 147 0024 1B0C     		lsr	r3, r3, #16
 148 0026 FA68     		ldr	r2, [r7, #12]
 149 0028 D318     		add	r3, r2, r3
 150 002a FB60     		str	r3, [r7, #12]
 554:Generated_Source\PSoC4/RTC.h **** 
 555:Generated_Source\PSoC4/RTC.h ****     return (retVal);
 151              		.loc 1 555 0
 152 002c FB68     		ldr	r3, [r7, #12]
 556:Generated_Source\PSoC4/RTC.h **** }
 153              		.loc 1 556 0
 154 002e 181C     		mov	r0, r3
 155 0030 BD46     		mov	sp, r7
 156 0032 04B0     		add	sp, sp, #16
 157              		@ sp needed
 158 0034 80BD     		pop	{r7, pc}
 159              		.cfi_endproc
 160              	.LFE6:
 161              		.size	RTC_GetHours, .-RTC_GetHours
 162 0036 C046     		.section	.text.RTC_GetDay,"ax",%progbits
 163              		.align	2
 164              		.code	16
 165              		.thumb_func
 166              		.type	RTC_GetDay, %function
 167              	RTC_GetDay:
 168              	.LFB8:
 557:Generated_Source\PSoC4/RTC.h **** 
 558:Generated_Source\PSoC4/RTC.h **** 
 559:Generated_Source\PSoC4/RTC.h **** /*******************************************************************************
 560:Generated_Source\PSoC4/RTC.h **** * Function Name: RTC_GetAmPm
 561:Generated_Source\PSoC4/RTC.h **** ****************************************************************************//**
 562:Generated_Source\PSoC4/RTC.h **** *
 563:Generated_Source\PSoC4/RTC.h **** * \brief
 564:Generated_Source\PSoC4/RTC.h **** *  Returns the AM/PM status from the time value that is passed as parameter.
 565:Generated_Source\PSoC4/RTC.h **** *
 566:Generated_Source\PSoC4/RTC.h **** * \param
 567:Generated_Source\PSoC4/RTC.h **** *  time The time value.
 568:Generated_Source\PSoC4/RTC.h **** *
 569:Generated_Source\PSoC4/RTC.h **** * \return
 570:Generated_Source\PSoC4/RTC.h **** *  RTC_AM - AM.
 571:Generated_Source\PSoC4/RTC.h **** * \return
 572:Generated_Source\PSoC4/RTC.h **** *  RTC_PM - PM.
 573:Generated_Source\PSoC4/RTC.h **** *
ARM GAS  C:\Users\Petro\AppData\Local\Temp\cc4lpBuc.s 			page 14


 574:Generated_Source\PSoC4/RTC.h **** *******************************************************************************/
 575:Generated_Source\PSoC4/RTC.h **** static CY_INLINE uint32 RTC_GetAmPm(uint32 inputTime)
 576:Generated_Source\PSoC4/RTC.h **** {
 577:Generated_Source\PSoC4/RTC.h ****     return (RTC_IsBitSet(inputTime, RTC_PERIOD_OF_DAY_MASK));
 578:Generated_Source\PSoC4/RTC.h **** }
 579:Generated_Source\PSoC4/RTC.h **** 
 580:Generated_Source\PSoC4/RTC.h **** 
 581:Generated_Source\PSoC4/RTC.h **** /*******************************************************************************
 582:Generated_Source\PSoC4/RTC.h **** * Function Name: RTC_GetDay
 583:Generated_Source\PSoC4/RTC.h **** ****************************************************************************//**
 584:Generated_Source\PSoC4/RTC.h **** *
 585:Generated_Source\PSoC4/RTC.h **** * \brief
 586:Generated_Source\PSoC4/RTC.h **** *  Returns the day value from the date value that is passed as parameter.
 587:Generated_Source\PSoC4/RTC.h **** *
 588:Generated_Source\PSoC4/RTC.h **** * \param
 589:Generated_Source\PSoC4/RTC.h **** *  date The date value.
 590:Generated_Source\PSoC4/RTC.h **** *
 591:Generated_Source\PSoC4/RTC.h **** * \return
 592:Generated_Source\PSoC4/RTC.h **** *  The day value.
 593:Generated_Source\PSoC4/RTC.h **** *
 594:Generated_Source\PSoC4/RTC.h **** *******************************************************************************/
 595:Generated_Source\PSoC4/RTC.h **** static CY_INLINE uint32 RTC_GetDay(uint32 date)
 596:Generated_Source\PSoC4/RTC.h **** {
 169              		.loc 1 596 0
 170              		.cfi_startproc
 171 0000 80B5     		push	{r7, lr}
 172              		.cfi_def_cfa_offset 8
 173              		.cfi_offset 7, -8
 174              		.cfi_offset 14, -4
 175 0002 84B0     		sub	sp, sp, #16
 176              		.cfi_def_cfa_offset 24
 177 0004 00AF     		add	r7, sp, #0
 178              		.cfi_def_cfa_register 7
 179 0006 7860     		str	r0, [r7, #4]
 597:Generated_Source\PSoC4/RTC.h ****     uint32 retVal;
 598:Generated_Source\PSoC4/RTC.h **** 
 599:Generated_Source\PSoC4/RTC.h ****     retVal  = ((date & RTC_10_DAY_MASK) >> RTC_10_DAY_OFFSET) * 10u;
 180              		.loc 1 599 0
 181 0008 7A68     		ldr	r2, [r7, #4]
 182 000a C023     		mov	r3, #192
 183 000c 9B03     		lsl	r3, r3, #14
 184 000e 1340     		and	r3, r2
 185 0010 1A0D     		lsr	r2, r3, #20
 186 0012 131C     		mov	r3, r2
 187 0014 9B00     		lsl	r3, r3, #2
 188 0016 9B18     		add	r3, r3, r2
 189 0018 5B00     		lsl	r3, r3, #1
 190 001a FB60     		str	r3, [r7, #12]
 600:Generated_Source\PSoC4/RTC.h ****     retVal += (date & RTC_DAY_MASK) >> RTC_DAY_OFFSET;
 191              		.loc 1 600 0
 192 001c 7A68     		ldr	r2, [r7, #4]
 193 001e F023     		mov	r3, #240
 194 0020 1B03     		lsl	r3, r3, #12
 195 0022 1340     		and	r3, r2
 196 0024 1B0C     		lsr	r3, r3, #16
 197 0026 FA68     		ldr	r2, [r7, #12]
 198 0028 D318     		add	r3, r2, r3
ARM GAS  C:\Users\Petro\AppData\Local\Temp\cc4lpBuc.s 			page 15


 199 002a FB60     		str	r3, [r7, #12]
 601:Generated_Source\PSoC4/RTC.h **** 
 602:Generated_Source\PSoC4/RTC.h ****     return (retVal);
 200              		.loc 1 602 0
 201 002c FB68     		ldr	r3, [r7, #12]
 603:Generated_Source\PSoC4/RTC.h **** }
 202              		.loc 1 603 0
 203 002e 181C     		mov	r0, r3
 204 0030 BD46     		mov	sp, r7
 205 0032 04B0     		add	sp, sp, #16
 206              		@ sp needed
 207 0034 80BD     		pop	{r7, pc}
 208              		.cfi_endproc
 209              	.LFE8:
 210              		.size	RTC_GetDay, .-RTC_GetDay
 211 0036 C046     		.section	.text.RTC_GetMonth,"ax",%progbits
 212              		.align	2
 213              		.code	16
 214              		.thumb_func
 215              		.type	RTC_GetMonth, %function
 216              	RTC_GetMonth:
 217              	.LFB9:
 604:Generated_Source\PSoC4/RTC.h **** 
 605:Generated_Source\PSoC4/RTC.h **** 
 606:Generated_Source\PSoC4/RTC.h **** /*******************************************************************************
 607:Generated_Source\PSoC4/RTC.h **** * Function Name: RTC_GetMonth
 608:Generated_Source\PSoC4/RTC.h **** ****************************************************************************//**
 609:Generated_Source\PSoC4/RTC.h **** *
 610:Generated_Source\PSoC4/RTC.h **** * \brief
 611:Generated_Source\PSoC4/RTC.h **** *  Returns the month value from the date value that is passed as parameter.
 612:Generated_Source\PSoC4/RTC.h **** *
 613:Generated_Source\PSoC4/RTC.h **** * \param
 614:Generated_Source\PSoC4/RTC.h **** *  date The date value.
 615:Generated_Source\PSoC4/RTC.h **** *
 616:Generated_Source\PSoC4/RTC.h **** * \return
 617:Generated_Source\PSoC4/RTC.h **** *  The month value.
 618:Generated_Source\PSoC4/RTC.h **** *
 619:Generated_Source\PSoC4/RTC.h **** *******************************************************************************/
 620:Generated_Source\PSoC4/RTC.h **** static CY_INLINE uint32 RTC_GetMonth(uint32 date)
 621:Generated_Source\PSoC4/RTC.h **** {
 218              		.loc 1 621 0
 219              		.cfi_startproc
 220 0000 80B5     		push	{r7, lr}
 221              		.cfi_def_cfa_offset 8
 222              		.cfi_offset 7, -8
 223              		.cfi_offset 14, -4
 224 0002 84B0     		sub	sp, sp, #16
 225              		.cfi_def_cfa_offset 24
 226 0004 00AF     		add	r7, sp, #0
 227              		.cfi_def_cfa_register 7
 228 0006 7860     		str	r0, [r7, #4]
 622:Generated_Source\PSoC4/RTC.h ****     uint32 retVal;
 623:Generated_Source\PSoC4/RTC.h **** 
 624:Generated_Source\PSoC4/RTC.h ****     retVal  = ((date & RTC_10_MONTH_MASK) >> RTC_10_MONTH_OFFSET) * 10u;
 229              		.loc 1 624 0
 230 0008 7A68     		ldr	r2, [r7, #4]
 231 000a 8023     		mov	r3, #128
ARM GAS  C:\Users\Petro\AppData\Local\Temp\cc4lpBuc.s 			page 16


 232 000c 5B05     		lsl	r3, r3, #21
 233 000e 1340     		and	r3, r2
 234 0010 1A0F     		lsr	r2, r3, #28
 235 0012 131C     		mov	r3, r2
 236 0014 9B00     		lsl	r3, r3, #2
 237 0016 9B18     		add	r3, r3, r2
 238 0018 5B00     		lsl	r3, r3, #1
 239 001a FB60     		str	r3, [r7, #12]
 625:Generated_Source\PSoC4/RTC.h ****     retVal += (date & RTC_MONTH_MASK) >> RTC_MONTH_OFFSET;
 240              		.loc 1 625 0
 241 001c 7A68     		ldr	r2, [r7, #4]
 242 001e F023     		mov	r3, #240
 243 0020 1B05     		lsl	r3, r3, #20
 244 0022 1340     		and	r3, r2
 245 0024 1B0E     		lsr	r3, r3, #24
 246 0026 FA68     		ldr	r2, [r7, #12]
 247 0028 D318     		add	r3, r2, r3
 248 002a FB60     		str	r3, [r7, #12]
 626:Generated_Source\PSoC4/RTC.h **** 
 627:Generated_Source\PSoC4/RTC.h ****     return (retVal);
 249              		.loc 1 627 0
 250 002c FB68     		ldr	r3, [r7, #12]
 628:Generated_Source\PSoC4/RTC.h **** }
 251              		.loc 1 628 0
 252 002e 181C     		mov	r0, r3
 253 0030 BD46     		mov	sp, r7
 254 0032 04B0     		add	sp, sp, #16
 255              		@ sp needed
 256 0034 80BD     		pop	{r7, pc}
 257              		.cfi_endproc
 258              	.LFE9:
 259              		.size	RTC_GetMonth, .-RTC_GetMonth
 260 0036 C046     		.section	.text.RTC_GetYear,"ax",%progbits
 261              		.align	2
 262              		.code	16
 263              		.thumb_func
 264              		.type	RTC_GetYear, %function
 265              	RTC_GetYear:
 266              	.LFB10:
 629:Generated_Source\PSoC4/RTC.h **** 
 630:Generated_Source\PSoC4/RTC.h **** 
 631:Generated_Source\PSoC4/RTC.h **** /*******************************************************************************
 632:Generated_Source\PSoC4/RTC.h **** * Function Name: RTC_GetYear
 633:Generated_Source\PSoC4/RTC.h **** ****************************************************************************//**
 634:Generated_Source\PSoC4/RTC.h **** *
 635:Generated_Source\PSoC4/RTC.h **** * \brief
 636:Generated_Source\PSoC4/RTC.h **** *  Returns the year value from the date value that is passed as parameter.
 637:Generated_Source\PSoC4/RTC.h **** *
 638:Generated_Source\PSoC4/RTC.h **** * \param
 639:Generated_Source\PSoC4/RTC.h **** *  date The date value.
 640:Generated_Source\PSoC4/RTC.h **** *
 641:Generated_Source\PSoC4/RTC.h **** * \return
 642:Generated_Source\PSoC4/RTC.h **** *  The year value.
 643:Generated_Source\PSoC4/RTC.h **** *
 644:Generated_Source\PSoC4/RTC.h **** *******************************************************************************/
 645:Generated_Source\PSoC4/RTC.h **** static CY_INLINE uint32 RTC_GetYear(uint32 date)
 646:Generated_Source\PSoC4/RTC.h **** {
ARM GAS  C:\Users\Petro\AppData\Local\Temp\cc4lpBuc.s 			page 17


 267              		.loc 1 646 0
 268              		.cfi_startproc
 269 0000 80B5     		push	{r7, lr}
 270              		.cfi_def_cfa_offset 8
 271              		.cfi_offset 7, -8
 272              		.cfi_offset 14, -4
 273 0002 84B0     		sub	sp, sp, #16
 274              		.cfi_def_cfa_offset 24
 275 0004 00AF     		add	r7, sp, #0
 276              		.cfi_def_cfa_register 7
 277 0006 7860     		str	r0, [r7, #4]
 647:Generated_Source\PSoC4/RTC.h ****     uint32 retVal;
 648:Generated_Source\PSoC4/RTC.h **** 
 649:Generated_Source\PSoC4/RTC.h ****     retVal  = ((date & RTC_1000_YEAR_MASK) >> RTC_1000_YEAR_OFFSET) * 1000u;
 278              		.loc 1 649 0
 279 0008 7A68     		ldr	r2, [r7, #4]
 280 000a C023     		mov	r3, #192
 281 000c 9B01     		lsl	r3, r3, #6
 282 000e 1340     		and	r3, r2
 283 0010 1B0B     		lsr	r3, r3, #12
 284 0012 FA22     		mov	r2, #250
 285 0014 9200     		lsl	r2, r2, #2
 286 0016 5343     		mul	r3, r2
 287 0018 FB60     		str	r3, [r7, #12]
 650:Generated_Source\PSoC4/RTC.h ****     retVal += ((date & RTC_100_YEAR_MASK) >> RTC_100_YEAR_OFFSET) * 100u;
 288              		.loc 1 650 0
 289 001a 7A68     		ldr	r2, [r7, #4]
 290 001c F023     		mov	r3, #240
 291 001e 1B01     		lsl	r3, r3, #4
 292 0020 1340     		and	r3, r2
 293 0022 1B0A     		lsr	r3, r3, #8
 294 0024 6422     		mov	r2, #100
 295 0026 5343     		mul	r3, r2
 296 0028 FA68     		ldr	r2, [r7, #12]
 297 002a D318     		add	r3, r2, r3
 298 002c FB60     		str	r3, [r7, #12]
 651:Generated_Source\PSoC4/RTC.h ****     retVal += ((date & RTC_10_YEAR_MASK) >> RTC_10_YEAR_OFFSET) * 10u;
 299              		.loc 1 651 0
 300 002e 7B68     		ldr	r3, [r7, #4]
 301 0030 F022     		mov	r2, #240
 302 0032 1340     		and	r3, r2
 303 0034 1A09     		lsr	r2, r3, #4
 304 0036 131C     		mov	r3, r2
 305 0038 9B00     		lsl	r3, r3, #2
 306 003a 9B18     		add	r3, r3, r2
 307 003c 5B00     		lsl	r3, r3, #1
 308 003e 1A1C     		mov	r2, r3
 309 0040 FB68     		ldr	r3, [r7, #12]
 310 0042 9B18     		add	r3, r3, r2
 311 0044 FB60     		str	r3, [r7, #12]
 652:Generated_Source\PSoC4/RTC.h ****     retVal += (date & RTC_YEAR_MASK) >> RTC_YEAR_OFFSET;
 312              		.loc 1 652 0
 313 0046 7B68     		ldr	r3, [r7, #4]
 314 0048 0F22     		mov	r2, #15
 315 004a 1340     		and	r3, r2
 316 004c FA68     		ldr	r2, [r7, #12]
 317 004e D318     		add	r3, r2, r3
ARM GAS  C:\Users\Petro\AppData\Local\Temp\cc4lpBuc.s 			page 18


 318 0050 FB60     		str	r3, [r7, #12]
 653:Generated_Source\PSoC4/RTC.h **** 
 654:Generated_Source\PSoC4/RTC.h ****     return (retVal);
 319              		.loc 1 654 0
 320 0052 FB68     		ldr	r3, [r7, #12]
 655:Generated_Source\PSoC4/RTC.h **** }
 321              		.loc 1 655 0
 322 0054 181C     		mov	r0, r3
 323 0056 BD46     		mov	sp, r7
 324 0058 04B0     		add	sp, sp, #16
 325              		@ sp needed
 326 005a 80BD     		pop	{r7, pc}
 327              		.cfi_endproc
 328              	.LFE10:
 329              		.size	RTC_GetYear, .-RTC_GetYear
 330              		.comm	fatFs,560,4
 331              		.comm	fileO,552,4
 332              		.comm	createFlag,4,4
 333              		.comm	skiersStarted,2,2
 334              		.comm	skiersFinished,2,2
 335              		.comm	skierDB,2400,8
 336              		.section	.rodata
 337              		.align	2
 338              	.LC1:
 339 0000 00       		.ascii	"\000"
 340              		.section	.text.logStart,"ax",%progbits
 341              		.align	2
 342              		.global	logStart
 343              		.code	16
 344              		.thumb_func
 345              		.type	logStart, %function
 346              	logStart:
 347              	.LFB63:
 348              		.file 2 ".\\lib_DB\\logResult.c"
   1:.\lib_DB/logResult.c **** /* ========================================
   2:.\lib_DB/logResult.c ****  *
   3:.\lib_DB/logResult.c ****  * Copyright YOUR COMPANY, THE YEAR
   4:.\lib_DB/logResult.c ****  * All Rights Reserved
   5:.\lib_DB/logResult.c ****  * UNPUBLISHED, LICENSED SOFTWARE.
   6:.\lib_DB/logResult.c ****  *
   7:.\lib_DB/logResult.c ****  * CONFIDENTIAL AND PROPRIETARY INFORMATION
   8:.\lib_DB/logResult.c ****  * WHICH IS THE PROPERTY OF your company.
   9:.\lib_DB/logResult.c ****  *
  10:.\lib_DB/logResult.c ****  * ========================================
  11:.\lib_DB/logResult.c **** */
  12:.\lib_DB/logResult.c **** #include "logResult.h"
  13:.\lib_DB/logResult.c **** 
  14:.\lib_DB/logResult.c **** 
  15:.\lib_DB/logResult.c **** uint32_t logStart(void)
  16:.\lib_DB/logResult.c **** {
 349              		.loc 2 16 0
 350              		.cfi_startproc
 351 0000 90B5     		push	{r4, r7, lr}
 352              		.cfi_def_cfa_offset 12
 353              		.cfi_offset 4, -12
 354              		.cfi_offset 7, -8
 355              		.cfi_offset 14, -4
ARM GAS  C:\Users\Petro\AppData\Local\Temp\cc4lpBuc.s 			page 19


 356 0002 83B0     		sub	sp, sp, #12
 357              		.cfi_def_cfa_offset 24
 358 0004 00AF     		add	r7, sp, #0
 359              		.cfi_def_cfa_register 7
  17:.\lib_DB/logResult.c ****     uint8 resultF;
  18:.\lib_DB/logResult.c ****     
  19:.\lib_DB/logResult.c ****     /*/* Register work area to the default drive */
  20:.\lib_DB/logResult.c ****     resultF = f_mount(&fatFs, "", 1);
 360              		.loc 2 20 0
 361 0006 FC1D     		add	r4, r7, #7
 362 0008 074A     		ldr	r2, .L15
 363 000a 084B     		ldr	r3, .L15+4
 364 000c 101C     		mov	r0, r2
 365 000e 191C     		mov	r1, r3
 366 0010 0122     		mov	r2, #1
 367 0012 FFF7FEFF 		bl	f_mount
 368 0016 031C     		mov	r3, r0
 369 0018 2370     		strb	r3, [r4]
  21:.\lib_DB/logResult.c ****     
  22:.\lib_DB/logResult.c ****     return resultF;   
 370              		.loc 2 22 0
 371 001a FB1D     		add	r3, r7, #7
 372 001c 1B78     		ldrb	r3, [r3]
  23:.\lib_DB/logResult.c **** }
 373              		.loc 2 23 0
 374 001e 181C     		mov	r0, r3
 375 0020 BD46     		mov	sp, r7
 376 0022 03B0     		add	sp, sp, #12
 377              		@ sp needed
 378 0024 90BD     		pop	{r4, r7, pc}
 379              	.L16:
 380 0026 C046     		.align	2
 381              	.L15:
 382 0028 00000000 		.word	fatFs
 383 002c 00000000 		.word	.LC1
 384              		.cfi_endproc
 385              	.LFE63:
 386              		.size	logStart, .-logStart
 387              		.section	.rodata
 388 0001 000000   		.align	2
 389              	.LC3:
 390 0004 25303264 		.ascii	"%02d_%02d_%d.txt\000"
 390      5F253032 
 390      645F2564 
 390      2E747874 
 390      00
 391 0015 000000   		.align	2
 392              	.LC7:
 393 0018 09092530 		.ascii	"\011\011%02lu:%02lu:%02lu:%03u\000"
 393      326C753A 
 393      2530326C 
 393      753A2530 
 393      326C753A 
 394 0031 000000   		.align	2
 395              	.LC9:
 396 0034 09092530 		.ascii	"\011\011%02lu:%03u\000"
 396      326C753A 
ARM GAS  C:\Users\Petro\AppData\Local\Temp\cc4lpBuc.s 			page 20


 396      25303375 
 396      00
 397 0041 000000   		.align	2
 398              	.LC12:
 399 0044 25642573 		.ascii	"%d%s%s%s\012\000"
 399      25732573 
 399      0A00
 400 004e 0000     		.align	2
 401              	.LC14:
 402 0050 0A537973 		.ascii	"\012System started %02d:%02d:%02d\012\000"
 402      74656D20 
 402      73746172 
 402      74656420 
 402      25303264 
 403              		.align	2
 404              	.LC16:
 405 0070 2D2D2D2D 		.ascii	"--------------------------------------------------\012"
 405      2D2D2D2D 
 405      2D2D2D2D 
 405      2D2D2D2D 
 405      2D2D2D2D 
 406 00a3 00       		.ascii	"\000"
 407              		.align	2
 408              	.LC18:
 409 00a4 4E554D09 		.ascii	"NUM\011\011START\011\011\011FINISH\011\011\011RESUL"
 409      09535441 
 409      52540909 
 409      0946494E 
 409      49534809 
 410 00bf 540A00   		.ascii	"T\012\000"
 411 00c2 0000     		.section	.text.WriteSkierResult,"ax",%progbits
 412              		.align	2
 413              		.global	WriteSkierResult
 414              		.code	16
 415              		.thumb_func
 416              		.type	WriteSkierResult, %function
 417              	WriteSkierResult:
 418              	.LFB64:
  24:.\lib_DB/logResult.c **** 
  25:.\lib_DB/logResult.c **** 
  26:.\lib_DB/logResult.c **** uint32_t WriteSkierResult(skierDB_El *data)
  27:.\lib_DB/logResult.c **** {
 419              		.loc 2 27 0
 420              		.cfi_startproc
 421 0000 B0B5     		push	{r4, r5, r7, lr}
 422              		.cfi_def_cfa_offset 16
 423              		.cfi_offset 4, -16
 424              		.cfi_offset 5, -12
 425              		.cfi_offset 7, -8
 426              		.cfi_offset 14, -4
 427 0002 BCB0     		sub	sp, sp, #240
 428              		.cfi_def_cfa_offset 256
 429 0004 02AF     		add	r7, sp, #8
 430              		.cfi_def_cfa 7, 248
 431 0006 7860     		str	r0, [r7, #4]
  28:.\lib_DB/logResult.c ****     uint8 resultF;
  29:.\lib_DB/logResult.c ****     uint count;
ARM GAS  C:\Users\Petro\AppData\Local\Temp\cc4lpBuc.s 			page 21


  30:.\lib_DB/logResult.c ****     
  31:.\lib_DB/logResult.c ****     char nameFile[LEN_NAME];
  32:.\lib_DB/logResult.c ****     uint32_t nameYear;
  33:.\lib_DB/logResult.c ****     uint32_t nameMonth;
  34:.\lib_DB/logResult.c ****     uint32_t nameDay;
  35:.\lib_DB/logResult.c ****     uint32_t date;
  36:.\lib_DB/logResult.c ****     
  37:.\lib_DB/logResult.c ****     date = RTC_GetDate();
 432              		.loc 2 37 0
 433 0008 FFF7FEFF 		bl	RTC_GetDate
 434 000c 031C     		mov	r3, r0
 435 000e E022     		mov	r2, #224
 436 0010 BA18     		add	r2, r7, r2
 437 0012 1360     		str	r3, [r2]
  38:.\lib_DB/logResult.c ****     nameYear = RTC_GetYear(date)-2000;
 438              		.loc 2 38 0
 439 0014 E023     		mov	r3, #224
 440 0016 FB18     		add	r3, r7, r3
 441 0018 1B68     		ldr	r3, [r3]
 442 001a 181C     		mov	r0, r3
 443 001c FFF7FEFF 		bl	RTC_GetYear
 444 0020 031C     		mov	r3, r0
 445 0022 914A     		ldr	r2, .L22
 446 0024 9446     		mov	ip, r2
 447 0026 6344     		add	r3, r3, ip
 448 0028 DC22     		mov	r2, #220
 449 002a BA18     		add	r2, r7, r2
 450 002c 1360     		str	r3, [r2]
  39:.\lib_DB/logResult.c ****     nameMonth = RTC_GetMonth(date);
 451              		.loc 2 39 0
 452 002e E023     		mov	r3, #224
 453 0030 FB18     		add	r3, r7, r3
 454 0032 1B68     		ldr	r3, [r3]
 455 0034 181C     		mov	r0, r3
 456 0036 FFF7FEFF 		bl	RTC_GetMonth
 457 003a 031C     		mov	r3, r0
 458 003c D822     		mov	r2, #216
 459 003e BA18     		add	r2, r7, r2
 460 0040 1360     		str	r3, [r2]
  40:.\lib_DB/logResult.c ****     nameDay = RTC_GetDay(date);
 461              		.loc 2 40 0
 462 0042 E023     		mov	r3, #224
 463 0044 FB18     		add	r3, r7, r3
 464 0046 1B68     		ldr	r3, [r3]
 465 0048 181C     		mov	r0, r3
 466 004a FFF7FEFF 		bl	RTC_GetDay
 467 004e 031C     		mov	r3, r0
 468 0050 D422     		mov	r2, #212
 469 0052 BA18     		add	r2, r7, r2
 470 0054 1360     		str	r3, [r2]
  41:.\lib_DB/logResult.c ****     
  42:.\lib_DB/logResult.c ****     /*Construct name of file in format ddmmyyyy*/
  43:.\lib_DB/logResult.c ****     sprintf(nameFile,"%02d_%02d_%d.txt",nameDay,nameMonth,nameYear);
 471              		.loc 2 43 0
 472 0056 B823     		mov	r3, #184
 473 0058 F818     		add	r0, r7, r3
 474 005a 8449     		ldr	r1, .L22+4
ARM GAS  C:\Users\Petro\AppData\Local\Temp\cc4lpBuc.s 			page 22


 475 005c D423     		mov	r3, #212
 476 005e FB18     		add	r3, r7, r3
 477 0060 1A68     		ldr	r2, [r3]
 478 0062 D823     		mov	r3, #216
 479 0064 FB18     		add	r3, r7, r3
 480 0066 1C68     		ldr	r4, [r3]
 481 0068 DC23     		mov	r3, #220
 482 006a FB18     		add	r3, r7, r3
 483 006c 1B68     		ldr	r3, [r3]
 484 006e 0093     		str	r3, [sp]
 485 0070 231C     		mov	r3, r4
 486 0072 FFF7FEFF 		bl	sprintf
  44:.\lib_DB/logResult.c ****     createFlag = 0;
 487              		.loc 2 44 0
 488 0076 7E4B     		ldr	r3, .L22+8
 489 0078 0022     		mov	r2, #0
 490 007a 1A60     		str	r2, [r3]
  45:.\lib_DB/logResult.c ****     resultF = f_open(&fileO, nameFile, FA_WRITE | FA_OPEN_APPEND, &createFlag);
 491              		.loc 2 45 0
 492 007c E723     		mov	r3, #231
 493 007e FC18     		add	r4, r7, r3
 494 0080 7C49     		ldr	r1, .L22+12
 495 0082 B823     		mov	r3, #184
 496 0084 FA18     		add	r2, r7, r3
 497 0086 7A4B     		ldr	r3, .L22+8
 498 0088 081C     		mov	r0, r1
 499 008a 111C     		mov	r1, r2
 500 008c 3222     		mov	r2, #50
 501 008e FFF7FEFF 		bl	f_open
 502 0092 031C     		mov	r3, r0
 503 0094 2370     		strb	r3, [r4]
  46:.\lib_DB/logResult.c ****     
  47:.\lib_DB/logResult.c ****     if(resultF == RES_OK)
 504              		.loc 2 47 0
 505 0096 E723     		mov	r3, #231
 506 0098 FB18     		add	r3, r7, r3
 507 009a 1B78     		ldrb	r3, [r3]
 508 009c 002B     		cmp	r3, #0
 509 009e 00D0     		beq	.LCB407
 510 00a0 DAE0     		b	.L18	@long jump
 511              	.LCB407:
 512              	.LBB2:
  48:.\lib_DB/logResult.c ****     {
  49:.\lib_DB/logResult.c ****         /*Construct save data*/
  50:.\lib_DB/logResult.c ****         char start[LEN_DATA];
  51:.\lib_DB/logResult.c ****         char finish[LEN_DATA];
  52:.\lib_DB/logResult.c ****         char result[LEN_DATA];
  53:.\lib_DB/logResult.c ****         char writeData[LEN_DATA_ALL];
  54:.\lib_DB/logResult.c ****         
  55:.\lib_DB/logResult.c ****         RTC_DATE_TIME time;
  56:.\lib_DB/logResult.c ****         static uint32_t position = 1;
  57:.\lib_DB/logResult.c ****                 
  58:.\lib_DB/logResult.c ****         RTC_UnixToDateTime(&time, data->unixStartSkier, RTC_24_HOURS_FORMAT);
 513              		.loc 2 58 0
 514 00a2 7B68     		ldr	r3, [r7, #4]
 515 00a4 5C68     		ldr	r4, [r3, #4]
 516 00a6 1B68     		ldr	r3, [r3]
ARM GAS  C:\Users\Petro\AppData\Local\Temp\cc4lpBuc.s 			page 23


 517 00a8 6C22     		mov	r2, #108
 518 00aa B918     		add	r1, r7, r2
 519 00ac 0022     		mov	r2, #0
 520 00ae 0092     		str	r2, [sp]
 521 00b0 081C     		mov	r0, r1
 522 00b2 1A1C     		mov	r2, r3
 523 00b4 231C     		mov	r3, r4
 524 00b6 FFF7FEFF 		bl	RTC_UnixToDateTime
  59:.\lib_DB/logResult.c ****         sprintf(start, "\t\t%02lu:%02lu:%02lu:%03u",RTC_GetHours(time.time),RTC_GetMinutes(time.tim
 525              		.loc 2 59 0
 526 00ba 6C23     		mov	r3, #108
 527 00bc FB18     		add	r3, r7, r3
 528 00be 1B68     		ldr	r3, [r3]
 529 00c0 181C     		mov	r0, r3
 530 00c2 FFF7FEFF 		bl	RTC_GetHours
 531 00c6 051C     		mov	r5, r0
 532 00c8 6C23     		mov	r3, #108
 533 00ca FB18     		add	r3, r7, r3
 534 00cc 1B68     		ldr	r3, [r3]
 535 00ce 181C     		mov	r0, r3
 536 00d0 FFF7FEFF 		bl	RTC_GetMinutes
 537 00d4 041C     		mov	r4, r0
 538 00d6 6C23     		mov	r3, #108
 539 00d8 FB18     		add	r3, r7, r3
 540 00da 1B68     		ldr	r3, [r3]
 541 00dc 181C     		mov	r0, r3
 542 00de FFF7FEFF 		bl	RTC_GetSecond
 543 00e2 7B68     		ldr	r3, [r7, #4]
 544 00e4 1B89     		ldrh	r3, [r3, #8]
 545 00e6 191C     		mov	r1, r3
 546 00e8 A423     		mov	r3, #164
 547 00ea FA18     		add	r2, r7, r3
 548 00ec 624B     		ldr	r3, .L22+16
 549 00ee 0090     		str	r0, [sp]
 550 00f0 0191     		str	r1, [sp, #4]
 551 00f2 101C     		mov	r0, r2
 552 00f4 191C     		mov	r1, r3
 553 00f6 2A1C     		mov	r2, r5
 554 00f8 231C     		mov	r3, r4
 555 00fa FFF7FEFF 		bl	sprintf
  60:.\lib_DB/logResult.c ****         RTC_UnixToDateTime(&time, data->unixFinishSkier, RTC_24_HOURS_FORMAT);
 556              		.loc 2 60 0
 557 00fe 7B68     		ldr	r3, [r7, #4]
 558 0100 5C69     		ldr	r4, [r3, #20]
 559 0102 1B69     		ldr	r3, [r3, #16]
 560 0104 6C22     		mov	r2, #108
 561 0106 B918     		add	r1, r7, r2
 562 0108 0022     		mov	r2, #0
 563 010a 0092     		str	r2, [sp]
 564 010c 081C     		mov	r0, r1
 565 010e 1A1C     		mov	r2, r3
 566 0110 231C     		mov	r3, r4
 567 0112 FFF7FEFF 		bl	RTC_UnixToDateTime
  61:.\lib_DB/logResult.c ****         sprintf(finish, "\t\t%02lu:%02lu:%02lu:%03u",RTC_GetHours(time.time),RTC_GetMinutes(time.ti
 568              		.loc 2 61 0
 569 0116 6C23     		mov	r3, #108
 570 0118 FB18     		add	r3, r7, r3
ARM GAS  C:\Users\Petro\AppData\Local\Temp\cc4lpBuc.s 			page 24


 571 011a 1B68     		ldr	r3, [r3]
 572 011c 181C     		mov	r0, r3
 573 011e FFF7FEFF 		bl	RTC_GetHours
 574 0122 051C     		mov	r5, r0
 575 0124 6C23     		mov	r3, #108
 576 0126 FB18     		add	r3, r7, r3
 577 0128 1B68     		ldr	r3, [r3]
 578 012a 181C     		mov	r0, r3
 579 012c FFF7FEFF 		bl	RTC_GetMinutes
 580 0130 041C     		mov	r4, r0
 581 0132 6C23     		mov	r3, #108
 582 0134 FB18     		add	r3, r7, r3
 583 0136 1B68     		ldr	r3, [r3]
 584 0138 181C     		mov	r0, r3
 585 013a FFF7FEFF 		bl	RTC_GetSecond
 586 013e 7B68     		ldr	r3, [r7, #4]
 587 0140 1B8B     		ldrh	r3, [r3, #24]
 588 0142 191C     		mov	r1, r3
 589 0144 9023     		mov	r3, #144
 590 0146 FA18     		add	r2, r7, r3
 591 0148 4B4B     		ldr	r3, .L22+16
 592 014a 0090     		str	r0, [sp]
 593 014c 0191     		str	r1, [sp, #4]
 594 014e 101C     		mov	r0, r2
 595 0150 191C     		mov	r1, r3
 596 0152 2A1C     		mov	r2, r5
 597 0154 231C     		mov	r3, r4
 598 0156 FFF7FEFF 		bl	sprintf
  62:.\lib_DB/logResult.c ****         sprintf(result, "\t\t%02lu:%03u",(uint32)data->SecondsWay,data->millsWay);
 599              		.loc 2 62 0
 600 015a 7B68     		ldr	r3, [r7, #4]
 601 015c 5C6A     		ldr	r4, [r3, #36]
 602 015e 1B6A     		ldr	r3, [r3, #32]
 603 0160 1D1C     		mov	r5, r3
 604 0162 7B68     		ldr	r3, [r7, #4]
 605 0164 1B8D     		ldrh	r3, [r3, #40]
 606 0166 1C1C     		mov	r4, r3
 607 0168 7C23     		mov	r3, #124
 608 016a FA18     		add	r2, r7, r3
 609 016c 434B     		ldr	r3, .L22+20
 610 016e 101C     		mov	r0, r2
 611 0170 191C     		mov	r1, r3
 612 0172 2A1C     		mov	r2, r5
 613 0174 231C     		mov	r3, r4
 614 0176 FFF7FEFF 		bl	sprintf
  63:.\lib_DB/logResult.c ****         sprintf(writeData,"%d%s%s%s\n",position, start, finish, result); 
 615              		.loc 2 63 0
 616 017a 414B     		ldr	r3, .L22+24
 617 017c 1A68     		ldr	r2, [r3]
 618 017e 0823     		mov	r3, #8
 619 0180 F818     		add	r0, r7, r3
 620 0182 4049     		ldr	r1, .L22+28
 621 0184 A423     		mov	r3, #164
 622 0186 FC18     		add	r4, r7, r3
 623 0188 9023     		mov	r3, #144
 624 018a FB18     		add	r3, r7, r3
 625 018c 0093     		str	r3, [sp]
ARM GAS  C:\Users\Petro\AppData\Local\Temp\cc4lpBuc.s 			page 25


 626 018e 7C23     		mov	r3, #124
 627 0190 FB18     		add	r3, r7, r3
 628 0192 0193     		str	r3, [sp, #4]
 629 0194 231C     		mov	r3, r4
 630 0196 FFF7FEFF 		bl	sprintf
  64:.\lib_DB/logResult.c ****         
  65:.\lib_DB/logResult.c ****         if((position == 1) || (createFlag == 1))
 631              		.loc 2 65 0
 632 019a 394B     		ldr	r3, .L22+24
 633 019c 1B68     		ldr	r3, [r3]
 634 019e 012B     		cmp	r3, #1
 635 01a0 03D0     		beq	.L19
 636              		.loc 2 65 0 is_stmt 0 discriminator 1
 637 01a2 334B     		ldr	r3, .L22+8
 638 01a4 1B68     		ldr	r3, [r3]
 639 01a6 012B     		cmp	r3, #1
 640 01a8 35D1     		bne	.L20
 641              	.L19:
 642              	.LBB3:
  66:.\lib_DB/logResult.c ****         {
  67:.\lib_DB/logResult.c ****             uint32_t tmpTime ;
  68:.\lib_DB/logResult.c ****             
  69:.\lib_DB/logResult.c ****             tmpTime = RTC_GetTime();
 643              		.loc 2 69 0 is_stmt 1
 644 01aa FFF7FEFF 		bl	RTC_GetTime
 645 01ae 031C     		mov	r3, r0
 646 01b0 D022     		mov	r2, #208
 647 01b2 BA18     		add	r2, r7, r2
 648 01b4 1360     		str	r3, [r2]
  70:.\lib_DB/logResult.c ****             f_printf(&fileO,"\nSystem started %02d:%02d:%02d\n", RTC_GetHours(tmpTime),RTC_GetMinut
 649              		.loc 2 70 0
 650 01b6 D023     		mov	r3, #208
 651 01b8 FB18     		add	r3, r7, r3
 652 01ba 1B68     		ldr	r3, [r3]
 653 01bc 181C     		mov	r0, r3
 654 01be FFF7FEFF 		bl	RTC_GetHours
 655 01c2 051C     		mov	r5, r0
 656 01c4 D023     		mov	r3, #208
 657 01c6 FB18     		add	r3, r7, r3
 658 01c8 1B68     		ldr	r3, [r3]
 659 01ca 181C     		mov	r0, r3
 660 01cc FFF7FEFF 		bl	RTC_GetMinutes
 661 01d0 041C     		mov	r4, r0
 662 01d2 D023     		mov	r3, #208
 663 01d4 FB18     		add	r3, r7, r3
 664 01d6 1B68     		ldr	r3, [r3]
 665 01d8 181C     		mov	r0, r3
 666 01da FFF7FEFF 		bl	RTC_GetSecond
 667 01de 011C     		mov	r1, r0
 668 01e0 244A     		ldr	r2, .L22+12
 669 01e2 294B     		ldr	r3, .L22+32
 670 01e4 0091     		str	r1, [sp]
 671 01e6 101C     		mov	r0, r2
 672 01e8 191C     		mov	r1, r3
 673 01ea 2A1C     		mov	r2, r5
 674 01ec 231C     		mov	r3, r4
 675 01ee FFF7FEFF 		bl	f_printf
ARM GAS  C:\Users\Petro\AppData\Local\Temp\cc4lpBuc.s 			page 26


  71:.\lib_DB/logResult.c ****             f_printf(&fileO,"--------------------------------------------------\n");
 676              		.loc 2 71 0
 677 01f2 204A     		ldr	r2, .L22+12
 678 01f4 254B     		ldr	r3, .L22+36
 679 01f6 101C     		mov	r0, r2
 680 01f8 191C     		mov	r1, r3
 681 01fa FFF7FEFF 		bl	f_printf
  72:.\lib_DB/logResult.c ****             f_printf(&fileO,"NUM\t\tSTART\t\t\tFINISH\t\t\tRESULT\n");
 682              		.loc 2 72 0
 683 01fe 1D4A     		ldr	r2, .L22+12
 684 0200 234B     		ldr	r3, .L22+40
 685 0202 101C     		mov	r0, r2
 686 0204 191C     		mov	r1, r3
 687 0206 FFF7FEFF 		bl	f_printf
  73:.\lib_DB/logResult.c ****             f_printf(&fileO,"--------------------------------------------------\n");
 688              		.loc 2 73 0
 689 020a 1A4A     		ldr	r2, .L22+12
 690 020c 1F4B     		ldr	r3, .L22+36
 691 020e 101C     		mov	r0, r2
 692 0210 191C     		mov	r1, r3
 693 0212 FFF7FEFF 		bl	f_printf
 694              	.L20:
 695              	.LBE3:
  74:.\lib_DB/logResult.c ****             
  75:.\lib_DB/logResult.c ****         }
  76:.\lib_DB/logResult.c ****         
  77:.\lib_DB/logResult.c ****         /*write data*/
  78:.\lib_DB/logResult.c ****         resultF = f_write(&fileO, writeData, strlen(writeData),&count);
 696              		.loc 2 78 0
 697 0216 0823     		mov	r3, #8
 698 0218 FB18     		add	r3, r7, r3
 699 021a 181C     		mov	r0, r3
 700 021c FFF7FEFF 		bl	strlen
 701 0220 051C     		mov	r5, r0
 702 0222 E723     		mov	r3, #231
 703 0224 FC18     		add	r4, r7, r3
 704 0226 1349     		ldr	r1, .L22+12
 705 0228 0823     		mov	r3, #8
 706 022a FA18     		add	r2, r7, r3
 707 022c CC23     		mov	r3, #204
 708 022e FB18     		add	r3, r7, r3
 709 0230 081C     		mov	r0, r1
 710 0232 111C     		mov	r1, r2
 711 0234 2A1C     		mov	r2, r5
 712 0236 FFF7FEFF 		bl	f_write
 713 023a 031C     		mov	r3, r0
 714 023c 2370     		strb	r3, [r4]
  79:.\lib_DB/logResult.c ****         resultF = f_close(&fileO);
 715              		.loc 2 79 0
 716 023e E723     		mov	r3, #231
 717 0240 FC18     		add	r4, r7, r3
 718 0242 0C4B     		ldr	r3, .L22+12
 719 0244 181C     		mov	r0, r3
 720 0246 FFF7FEFF 		bl	f_close
 721 024a 031C     		mov	r3, r0
 722 024c 2370     		strb	r3, [r4]
  80:.\lib_DB/logResult.c ****         position++;
ARM GAS  C:\Users\Petro\AppData\Local\Temp\cc4lpBuc.s 			page 27


 723              		.loc 2 80 0
 724 024e 0C4B     		ldr	r3, .L22+24
 725 0250 1B68     		ldr	r3, [r3]
 726 0252 5A1C     		add	r2, r3, #1
 727 0254 0A4B     		ldr	r3, .L22+24
 728 0256 1A60     		str	r2, [r3]
 729              	.L18:
 730              	.LBE2:
  81:.\lib_DB/logResult.c ****     }
  82:.\lib_DB/logResult.c ****     
  83:.\lib_DB/logResult.c ****     return resultF;
 731              		.loc 2 83 0
 732 0258 E723     		mov	r3, #231
 733 025a FB18     		add	r3, r7, r3
 734 025c 1B78     		ldrb	r3, [r3]
  84:.\lib_DB/logResult.c **** }
 735              		.loc 2 84 0
 736 025e 181C     		mov	r0, r3
 737 0260 BD46     		mov	sp, r7
 738 0262 3AB0     		add	sp, sp, #232
 739              		@ sp needed
 740 0264 B0BD     		pop	{r4, r5, r7, pc}
 741              	.L23:
 742 0266 C046     		.align	2
 743              	.L22:
 744 0268 30F8FFFF 		.word	-2000
 745 026c 04000000 		.word	.LC3
 746 0270 00000000 		.word	createFlag
 747 0274 00000000 		.word	fileO
 748 0278 18000000 		.word	.LC7
 749 027c 34000000 		.word	.LC9
 750 0280 00000000 		.word	position.6871
 751 0284 44000000 		.word	.LC12
 752 0288 50000000 		.word	.LC14
 753 028c 70000000 		.word	.LC16
 754 0290 A4000000 		.word	.LC18
 755              		.cfi_endproc
 756              	.LFE64:
 757              		.size	WriteSkierResult, .-WriteSkierResult
 758              		.data
 759              		.align	2
 760              		.type	position.6871, %object
 761              		.size	position.6871, 4
 762              	position.6871:
 763 0000 01000000 		.word	1
 764              		.text
 765              	.Letext0:
 766              		.file 3 "c:\\program files (x86)\\cypress\\psoc creator\\3.3\\psoc creator\\import\\gnu\\arm\\4.9.
 767              		.file 4 "c:\\program files (x86)\\cypress\\psoc creator\\3.3\\psoc creator\\import\\gnu\\arm\\4.9.
 768              		.file 5 "Generated_Source\\PSoC4/cytypes.h"
 769              		.file 6 "c:\\program files (x86)\\cypress\\psoc creator\\3.3\\psoc creator\\import\\gnu\\arm\\4.9.
 770              		.file 7 "./lib_Fat\\integer.h"
 771              		.file 8 "./lib_Fat\\ff.h"
 772              		.file 9 "./lib_DB\\database.h"
 773              		.file 10 ".\\lib_DB\\logResult.h"
 774              		.file 11 "./lib_Fat\\diskio.h"