ARM GAS  C:\Users\Petro\AppData\Local\Temp\ccv8NJOC.s 			page 1


   1              		.cpu cortex-m0
   2              		.fpu softvfp
   3              		.eabi_attribute 20, 1
   4              		.eabi_attribute 21, 1
   5              		.eabi_attribute 23, 3
   6              		.eabi_attribute 24, 1
   7              		.eabi_attribute 25, 1
   8              		.eabi_attribute 26, 1
   9              		.eabi_attribute 30, 4
  10              		.eabi_attribute 34, 0
  11              		.eabi_attribute 18, 4
  12              		.code	16
  13              		.file	"bluetooth.c"
  14              		.text
  15              	.Ltext0:
  16              		.cfi_sections	.debug_frame
  17              		.section	.text.updateData,"ax",%progbits
  18              		.align	1
  19              		.global	updateData
  20              		.code	16
  21              		.thumb_func
  22              		.type	updateData, %function
  23              	updateData:
  24              	.LFB64:
  25              		.file 1 "lib_BLE\\bluetooth.c"
   1:lib_BLE/bluetooth.c **** #include <lib_BLE/bluetooth.h>
   2:lib_BLE/bluetooth.c **** #include "lib_Network\network.h"
   3:lib_BLE/bluetooth.c **** #include "stdio.h"
   4:lib_BLE/bluetooth.c **** #include "project.h"
   5:lib_BLE/bluetooth.c **** 
   6:lib_BLE/bluetooth.c **** #define LENGHT_DATA_BUFFER 4
   7:lib_BLE/bluetooth.c **** #define LENGHT_STATUS_BUFFER 7
   8:lib_BLE/bluetooth.c **** 
   9:lib_BLE/bluetooth.c **** int notifycaiton;
  10:lib_BLE/bluetooth.c **** uint32_t bleUnixTime = 0;
  11:lib_BLE/bluetooth.c **** uint8_t adminIsOnly = 0;
  12:lib_BLE/bluetooth.c **** 
  13:lib_BLE/bluetooth.c **** uint16_t sendIdSkier = 0;
  14:lib_BLE/bluetooth.c **** uint16_t sendBufferStart[LENGHT_DATA_BUFFER];
  15:lib_BLE/bluetooth.c **** uint16_t sendBufferFinish[LENGHT_DATA_BUFFER];
  16:lib_BLE/bluetooth.c **** uint16_t sendBufferResult[LENGHT_DATA_BUFFER];
  17:lib_BLE/bluetooth.c **** uint8_t sendBufferStatus[LENGHT_STATUS_BUFFER];
  18:lib_BLE/bluetooth.c **** 
  19:lib_BLE/bluetooth.c **** char uartBuffer[30];
  20:lib_BLE/bluetooth.c **** 
  21:lib_BLE/bluetooth.c **** void updateData(void);
  22:lib_BLE/bluetooth.c **** 
  23:lib_BLE/bluetooth.c **** 
  24:lib_BLE/bluetooth.c **** void BleCallBack(uint32 event, void* eventParam)
  25:lib_BLE/bluetooth.c **** {
  26:lib_BLE/bluetooth.c ****     CYBLE_GATTS_WRITE_REQ_PARAM_T *wrReqParam;
  27:lib_BLE/bluetooth.c **** 
  28:lib_BLE/bluetooth.c ****     switch(event)
  29:lib_BLE/bluetooth.c ****     {
  30:lib_BLE/bluetooth.c ****         /* if there is a disconnect or the stack just turned on from a reset then start the adverti
  31:lib_BLE/bluetooth.c ****         case CYBLE_EVT_STACK_ON:
  32:lib_BLE/bluetooth.c ****         case CYBLE_EVT_GAP_DEVICE_DISCONNECTED:
ARM GAS  C:\Users\Petro\AppData\Local\Temp\ccv8NJOC.s 			page 2


  33:lib_BLE/bluetooth.c ****             notifycaiton = 0;
  34:lib_BLE/bluetooth.c ****             CyBle_GappStartAdvertisement(CYBLE_ADVERTISING_FAST);
  35:lib_BLE/bluetooth.c ****             pwm_Start();
  36:lib_BLE/bluetooth.c ****         break;
  37:lib_BLE/bluetooth.c ****         
  38:lib_BLE/bluetooth.c ****         /* when a connection is made*/    
  39:lib_BLE/bluetooth.c ****         case CYBLE_EVT_GATT_CONNECT_IND:
  40:lib_BLE/bluetooth.c ****             pwm_Stop();
  41:lib_BLE/bluetooth.c ****             updateData();
  42:lib_BLE/bluetooth.c **** 		break;
  43:lib_BLE/bluetooth.c **** 
  44:lib_BLE/bluetooth.c ****         /* handle a write request */
  45:lib_BLE/bluetooth.c ****         case CYBLE_EVT_GATTS_WRITE_REQ:
  46:lib_BLE/bluetooth.c ****             wrReqParam = (CYBLE_GATTS_WRITE_REQ_PARAM_T *) eventParam;	
  47:lib_BLE/bluetooth.c ****             
  48:lib_BLE/bluetooth.c ****             /* request write the unixTime value */
  49:lib_BLE/bluetooth.c ****             if(wrReqParam->handleValPair.attrHandle == CYBLE_SFSYSTEMSERVICE_UNIXTIME_CHAR_HANDLE)
  50:lib_BLE/bluetooth.c ****             {
  51:lib_BLE/bluetooth.c ****                 /* only update the value and write the response if the requested write is allowed *
  52:lib_BLE/bluetooth.c ****                 if(CYBLE_GATT_ERR_NONE == CyBle_GattsWriteAttributeValue(&wrReqParam->handleValPair
  53:lib_BLE/bluetooth.c ****                 {
  54:lib_BLE/bluetooth.c ****                     int i;
  55:lib_BLE/bluetooth.c ****                     bleUnixTime = 0;
  56:lib_BLE/bluetooth.c ****                     for(i=3;i>=0;i--)
  57:lib_BLE/bluetooth.c ****                     {
  58:lib_BLE/bluetooth.c ****                         uint8_t tmpData;
  59:lib_BLE/bluetooth.c ****                         tmpData = wrReqParam->handleValPair.value.val[i];
  60:lib_BLE/bluetooth.c ****                         bleUnixTime = (bleUnixTime << 8) | tmpData;
  61:lib_BLE/bluetooth.c ****                     }
  62:lib_BLE/bluetooth.c ****                     
  63:lib_BLE/bluetooth.c ****                     /*+2 hour - ukraine*/
  64:lib_BLE/bluetooth.c ****                     bleUnixTime += 7200;
  65:lib_BLE/bluetooth.c ****                     #ifdef DEBUG_BLE
  66:lib_BLE/bluetooth.c ****                         sprintf(uartBuffer,"unix: %d",bleUnixTime);
  67:lib_BLE/bluetooth.c ****                         SW_UART_DEBUG_PutString(uartBuffer);
  68:lib_BLE/bluetooth.c ****                     #endif
  69:lib_BLE/bluetooth.c ****                   
  70:lib_BLE/bluetooth.c ****                     CyBle_GattsWriteRsp(cyBle_connHandle);
  71:lib_BLE/bluetooth.c ****                 }
  72:lib_BLE/bluetooth.c ****             }
  73:lib_BLE/bluetooth.c ****             
  74:lib_BLE/bluetooth.c **** //            /* request write the Admin only value */
  75:lib_BLE/bluetooth.c ****             if(wrReqParam->handleValPair.attrHandle == CYBLE_SFSYSTEMSERVICE_ADMINONLY_CHAR_HANDLE)
  76:lib_BLE/bluetooth.c ****             {
  77:lib_BLE/bluetooth.c ****                 /* only update the value and write the response if the requested write is allowed *
  78:lib_BLE/bluetooth.c ****                 if(CYBLE_GATT_ERR_NONE == CyBle_GattsWriteAttributeValue(&wrReqParam->handleValPair
  79:lib_BLE/bluetooth.c ****                 {
  80:lib_BLE/bluetooth.c ****                     adminIsOnly = wrReqParam->handleValPair.value.val[0];
  81:lib_BLE/bluetooth.c ****                     CyBle_GattsWriteRsp(cyBle_connHandle);
  82:lib_BLE/bluetooth.c ****                 }
  83:lib_BLE/bluetooth.c ****             }
  84:lib_BLE/bluetooth.c ****             
  85:lib_BLE/bluetooth.c ****             /* request to update the  notification */
  86:lib_BLE/bluetooth.c ****             if(wrReqParam->handleValPair.attrHandle == CYBLE_SFSYSTEMSERVICE_ID_ID_CCCD_DESC_HANDLE
  87:lib_BLE/bluetooth.c ****             wrReqParam->handleValPair.attrHandle == CYBLE_SFSYSTEMSERVICE_TIME_START_TIMESTARTCCCD_
  88:lib_BLE/bluetooth.c ****             wrReqParam->handleValPair.attrHandle == CYBLE_SFSYSTEMSERVICE_TIME_FINISH_TIMEFINISHCCC
  89:lib_BLE/bluetooth.c ****             wrReqParam->handleValPair.attrHandle == CYBLE_SFSYSTEMSERVICE_TIME_RESULT_TIMERESULTCCC
ARM GAS  C:\Users\Petro\AppData\Local\Temp\ccv8NJOC.s 			page 3


  90:lib_BLE/bluetooth.c ****             wrReqParam->handleValPair.attrHandle == CYBLE_SFSYSTEMSERVICE_SYSTEM_STATUS_STATUSCCCD_
  91:lib_BLE/bluetooth.c ****             {
  92:lib_BLE/bluetooth.c ****                 CyBle_GattsWriteAttributeValue(&wrReqParam->handleValPair, 0, &cyBle_connHandle, CY
  93:lib_BLE/bluetooth.c ****                 notifycaiton = wrReqParam->handleValPair.value.val[0] & 0x01;
  94:lib_BLE/bluetooth.c ****                 CyBle_GattsWriteRsp(cyBle_connHandle);
  95:lib_BLE/bluetooth.c ****             }
  96:lib_BLE/bluetooth.c **** 			break;  
  97:lib_BLE/bluetooth.c ****         
  98:lib_BLE/bluetooth.c ****         default:
  99:lib_BLE/bluetooth.c ****             break;
 100:lib_BLE/bluetooth.c ****     }
 101:lib_BLE/bluetooth.c **** } 
 102:lib_BLE/bluetooth.c **** 
 103:lib_BLE/bluetooth.c **** /***************************************************************
 104:lib_BLE/bluetooth.c ****  * Function to update the id skier state in the GATT database
 105:lib_BLE/bluetooth.c ****  **************************************************************/
 106:lib_BLE/bluetooth.c **** void updateData(void)
 107:lib_BLE/bluetooth.c **** {
  26              		.loc 1 107 0
  27              		.cfi_startproc
  28 0000 7FB5     		push	{r0, r1, r2, r3, r4, r5, r6, lr}
  29              		.cfi_def_cfa_offset 32
  30              		.cfi_offset 0, -32
  31              		.cfi_offset 1, -28
  32              		.cfi_offset 2, -24
  33              		.cfi_offset 3, -20
  34              		.cfi_offset 4, -16
  35              		.cfi_offset 5, -12
  36              		.cfi_offset 6, -8
  37              		.cfi_offset 14, -4
 108:lib_BLE/bluetooth.c ****     CYBLE_GATTS_HANDLE_VALUE_NTF_T 	tempHandle;
 109:lib_BLE/bluetooth.c ****     
 110:lib_BLE/bluetooth.c ****     if(CyBle_GetState() != CYBLE_STATE_CONNECTED)
  38              		.loc 1 110 0
  39 0002 454B     		ldr	r3, .L24
  40 0004 1B78     		ldrb	r3, [r3]
  41 0006 022B     		cmp	r3, #2
  42 0008 00D0     		beq	.LCB17
  43 000a 83E0     		b	.L1	@long jump
  44              	.LCB17:
  45              	.LBB6:
  46              	.LBB7:
 111:lib_BLE/bluetooth.c ****         return;
 112:lib_BLE/bluetooth.c ****     
 113:lib_BLE/bluetooth.c ****     tempHandle.attrHandle = CYBLE_SFSYSTEMSERVICE_ID_CHAR_HANDLE;
  47              		.loc 1 113 0
  48 000c 0E22     		mov	r2, #14
 114:lib_BLE/bluetooth.c ****   	tempHandle.value.val = (uint8 *) &sendIdSkier;
 115:lib_BLE/bluetooth.c ****     tempHandle.value.len = 2;
 116:lib_BLE/bluetooth.c ****     CyBle_GattsWriteAttributeValue(&tempHandle,0,&cyBle_connHandle,CYBLE_GATT_DB_LOCALLY_INITIATED 
  49              		.loc 1 116 0
  50 000e 0021     		mov	r1, #0
 113:lib_BLE/bluetooth.c ****   	tempHandle.value.val = (uint8 *) &sendIdSkier;
  51              		.loc 1 113 0
  52 0010 01AC     		add	r4, sp, #4
  53 0012 2281     		strh	r2, [r4, #8]
  54              		.loc 1 116 0
ARM GAS  C:\Users\Petro\AppData\Local\Temp\ccv8NJOC.s 			page 4


  55 0014 414D     		ldr	r5, .L24+4
 114:lib_BLE/bluetooth.c ****   	tempHandle.value.val = (uint8 *) &sendIdSkier;
  56              		.loc 1 114 0
  57 0016 424A     		ldr	r2, .L24+8
 115:lib_BLE/bluetooth.c ****     CyBle_GattsWriteAttributeValue(&tempHandle,0,&cyBle_connHandle,CYBLE_GATT_DB_LOCALLY_INITIATED 
  58              		.loc 1 115 0
  59 0018 A380     		strh	r3, [r4, #4]
 114:lib_BLE/bluetooth.c ****   	tempHandle.value.val = (uint8 *) &sendIdSkier;
  60              		.loc 1 114 0
  61 001a 0192     		str	r2, [sp, #4]
  62              		.loc 1 116 0
  63 001c 0B1C     		mov	r3, r1
  64 001e 201C     		mov	r0, r4
  65 0020 2A1C     		mov	r2, r5
  66 0022 FFF7FEFF 		bl	CyBle_GattsWriteAttributeValue
  67              	.LVL0:
 117:lib_BLE/bluetooth.c ****     if (notifycaiton  )
  68              		.loc 1 117 0
  69 0026 3F4E     		ldr	r6, .L24+12
  70 0028 3368     		ldr	r3, [r6]
  71 002a 002B     		cmp	r3, #0
  72 002c 06D0     		beq	.L3
 118:lib_BLE/bluetooth.c ****         CyBle_GattsNotification(cyBle_connHandle,&tempHandle);
  73              		.loc 1 118 0
  74 002e 6878     		ldrb	r0, [r5, #1]
  75 0030 2B78     		ldrb	r3, [r5]
  76 0032 0002     		lsl	r0, r0, #8
  77 0034 1843     		orr	r0, r3
  78 0036 211C     		mov	r1, r4
  79 0038 FFF7FEFF 		bl	CyBle_GattsNotification
  80              	.LVL1:
  81              	.L3:
 119:lib_BLE/bluetooth.c ****         
 120:lib_BLE/bluetooth.c ****     CyDelay(50);
  82              		.loc 1 120 0
  83 003c 3220     		mov	r0, #50
  84 003e FFF7FEFF 		bl	CyDelay
  85              	.LVL2:
 121:lib_BLE/bluetooth.c ****     CyBle_ProcessEvents();
  86              		.loc 1 121 0
  87 0042 FFF7FEFF 		bl	CyBle_ProcessEvents
  88              	.LVL3:
 122:lib_BLE/bluetooth.c ****         
 123:lib_BLE/bluetooth.c ****     tempHandle.attrHandle = CYBLE_SFSYSTEMSERVICE_TIME_START_CHAR_HANDLE;
  89              		.loc 1 123 0
  90 0046 1223     		mov	r3, #18
  91 0048 2381     		strh	r3, [r4, #8]
 124:lib_BLE/bluetooth.c ****   	tempHandle.value.val = (uint8 *) &sendBufferStart;
  92              		.loc 1 124 0
  93 004a 374B     		ldr	r3, .L24+16
 125:lib_BLE/bluetooth.c ****     tempHandle.value.len = 8;
 126:lib_BLE/bluetooth.c ****     CyBle_GattsWriteAttributeValue(&tempHandle,0,&cyBle_connHandle,CYBLE_GATT_DB_LOCALLY_INITIATED 
  94              		.loc 1 126 0
  95 004c 0021     		mov	r1, #0
 124:lib_BLE/bluetooth.c ****   	tempHandle.value.val = (uint8 *) &sendBufferStart;
  96              		.loc 1 124 0
  97 004e 0193     		str	r3, [sp, #4]
ARM GAS  C:\Users\Petro\AppData\Local\Temp\ccv8NJOC.s 			page 5


 125:lib_BLE/bluetooth.c ****     tempHandle.value.len = 8;
  98              		.loc 1 125 0
  99 0050 0823     		mov	r3, #8
 100              		.loc 1 126 0
 101 0052 201C     		mov	r0, r4
 125:lib_BLE/bluetooth.c ****     tempHandle.value.len = 8;
 102              		.loc 1 125 0
 103 0054 A380     		strh	r3, [r4, #4]
 104              		.loc 1 126 0
 105 0056 2A1C     		mov	r2, r5
 106 0058 0B1C     		mov	r3, r1
 107 005a FFF7FEFF 		bl	CyBle_GattsWriteAttributeValue
 108              	.LVL4:
 127:lib_BLE/bluetooth.c ****     if (notifycaiton  )
 109              		.loc 1 127 0
 110 005e 3368     		ldr	r3, [r6]
 111 0060 002B     		cmp	r3, #0
 112 0062 06D0     		beq	.L4
 128:lib_BLE/bluetooth.c ****         CyBle_GattsNotification(cyBle_connHandle,&tempHandle);
 113              		.loc 1 128 0
 114 0064 6878     		ldrb	r0, [r5, #1]
 115 0066 2B78     		ldrb	r3, [r5]
 116 0068 0002     		lsl	r0, r0, #8
 117 006a 1843     		orr	r0, r3
 118 006c 211C     		mov	r1, r4
 119 006e FFF7FEFF 		bl	CyBle_GattsNotification
 120              	.LVL5:
 121              	.L4:
 129:lib_BLE/bluetooth.c ****         
 130:lib_BLE/bluetooth.c ****     CyDelay(50);
 122              		.loc 1 130 0
 123 0072 3220     		mov	r0, #50
 124 0074 FFF7FEFF 		bl	CyDelay
 125              	.LVL6:
 131:lib_BLE/bluetooth.c ****     CyBle_ProcessEvents();
 126              		.loc 1 131 0
 127 0078 FFF7FEFF 		bl	CyBle_ProcessEvents
 128              	.LVL7:
 132:lib_BLE/bluetooth.c ****     
 133:lib_BLE/bluetooth.c ****     tempHandle.attrHandle = CYBLE_SFSYSTEMSERVICE_TIME_FINISH_CHAR_HANDLE;
 129              		.loc 1 133 0
 130 007c 1623     		mov	r3, #22
 131 007e 2381     		strh	r3, [r4, #8]
 134:lib_BLE/bluetooth.c ****   	tempHandle.value.val = (uint8 *) &sendBufferFinish;
 132              		.loc 1 134 0
 133 0080 2A4B     		ldr	r3, .L24+20
 135:lib_BLE/bluetooth.c ****     tempHandle.value.len = 8;
 136:lib_BLE/bluetooth.c ****     CyBle_GattsWriteAttributeValue(&tempHandle,0,&cyBle_connHandle,CYBLE_GATT_DB_LOCALLY_INITIATED 
 134              		.loc 1 136 0
 135 0082 0021     		mov	r1, #0
 134:lib_BLE/bluetooth.c ****   	tempHandle.value.val = (uint8 *) &sendBufferFinish;
 136              		.loc 1 134 0
 137 0084 0193     		str	r3, [sp, #4]
 135:lib_BLE/bluetooth.c ****     tempHandle.value.len = 8;
 138              		.loc 1 135 0
 139 0086 0823     		mov	r3, #8
 140              		.loc 1 136 0
ARM GAS  C:\Users\Petro\AppData\Local\Temp\ccv8NJOC.s 			page 6


 141 0088 201C     		mov	r0, r4
 135:lib_BLE/bluetooth.c ****     tempHandle.value.len = 8;
 142              		.loc 1 135 0
 143 008a A380     		strh	r3, [r4, #4]
 144              		.loc 1 136 0
 145 008c 2A1C     		mov	r2, r5
 146 008e 0B1C     		mov	r3, r1
 147 0090 FFF7FEFF 		bl	CyBle_GattsWriteAttributeValue
 148              	.LVL8:
 137:lib_BLE/bluetooth.c ****     if (notifycaiton  )
 149              		.loc 1 137 0
 150 0094 3368     		ldr	r3, [r6]
 151 0096 002B     		cmp	r3, #0
 152 0098 06D0     		beq	.L5
 138:lib_BLE/bluetooth.c ****         CyBle_GattsNotification(cyBle_connHandle,&tempHandle); 
 153              		.loc 1 138 0
 154 009a 6878     		ldrb	r0, [r5, #1]
 155 009c 2B78     		ldrb	r3, [r5]
 156 009e 0002     		lsl	r0, r0, #8
 157 00a0 1843     		orr	r0, r3
 158 00a2 211C     		mov	r1, r4
 159 00a4 FFF7FEFF 		bl	CyBle_GattsNotification
 160              	.LVL9:
 161              	.L5:
 139:lib_BLE/bluetooth.c ****         
 140:lib_BLE/bluetooth.c ****     CyDelay(50);
 162              		.loc 1 140 0
 163 00a8 3220     		mov	r0, #50
 164 00aa FFF7FEFF 		bl	CyDelay
 165              	.LVL10:
 141:lib_BLE/bluetooth.c ****     CyBle_ProcessEvents();
 166              		.loc 1 141 0
 167 00ae FFF7FEFF 		bl	CyBle_ProcessEvents
 168              	.LVL11:
 142:lib_BLE/bluetooth.c ****     
 143:lib_BLE/bluetooth.c ****     tempHandle.attrHandle = CYBLE_SFSYSTEMSERVICE_TIME_RESULT_CHAR_HANDLE;
 169              		.loc 1 143 0
 170 00b2 1A23     		mov	r3, #26
 171 00b4 2381     		strh	r3, [r4, #8]
 144:lib_BLE/bluetooth.c ****   	tempHandle.value.val = (uint8 *) &sendBufferResult;
 172              		.loc 1 144 0
 173 00b6 1E4B     		ldr	r3, .L24+24
 145:lib_BLE/bluetooth.c ****     tempHandle.value.len = 8;
 146:lib_BLE/bluetooth.c ****     CyBle_GattsWriteAttributeValue(&tempHandle,0,&cyBle_connHandle,CYBLE_GATT_DB_LOCALLY_INITIATED 
 174              		.loc 1 146 0
 175 00b8 0021     		mov	r1, #0
 144:lib_BLE/bluetooth.c ****   	tempHandle.value.val = (uint8 *) &sendBufferResult;
 176              		.loc 1 144 0
 177 00ba 0193     		str	r3, [sp, #4]
 145:lib_BLE/bluetooth.c ****     tempHandle.value.len = 8;
 178              		.loc 1 145 0
 179 00bc 0823     		mov	r3, #8
 180              		.loc 1 146 0
 181 00be 201C     		mov	r0, r4
 145:lib_BLE/bluetooth.c ****     tempHandle.value.len = 8;
 182              		.loc 1 145 0
 183 00c0 A380     		strh	r3, [r4, #4]
ARM GAS  C:\Users\Petro\AppData\Local\Temp\ccv8NJOC.s 			page 7


 184              		.loc 1 146 0
 185 00c2 2A1C     		mov	r2, r5
 186 00c4 0B1C     		mov	r3, r1
 187 00c6 FFF7FEFF 		bl	CyBle_GattsWriteAttributeValue
 188              	.LVL12:
 147:lib_BLE/bluetooth.c ****     if (notifycaiton  )
 189              		.loc 1 147 0
 190 00ca 3368     		ldr	r3, [r6]
 191 00cc 002B     		cmp	r3, #0
 192 00ce 06D0     		beq	.L6
 148:lib_BLE/bluetooth.c ****         CyBle_GattsNotification(cyBle_connHandle,&tempHandle);
 193              		.loc 1 148 0
 194 00d0 6878     		ldrb	r0, [r5, #1]
 195 00d2 2B78     		ldrb	r3, [r5]
 196 00d4 0002     		lsl	r0, r0, #8
 197 00d6 1843     		orr	r0, r3
 198 00d8 211C     		mov	r1, r4
 199 00da FFF7FEFF 		bl	CyBle_GattsNotification
 200              	.LVL13:
 201              	.L6:
 149:lib_BLE/bluetooth.c ****         
 150:lib_BLE/bluetooth.c ****     CyDelay(50);
 202              		.loc 1 150 0
 203 00de 3220     		mov	r0, #50
 204 00e0 FFF7FEFF 		bl	CyDelay
 205              	.LVL14:
 151:lib_BLE/bluetooth.c ****     CyBle_ProcessEvents();
 206              		.loc 1 151 0
 207 00e4 FFF7FEFF 		bl	CyBle_ProcessEvents
 208              	.LVL15:
 152:lib_BLE/bluetooth.c ****         
 153:lib_BLE/bluetooth.c ****     tempHandle.attrHandle = CYBLE_SFSYSTEMSERVICE_SYSTEM_STATUS_CHAR_HANDLE;
 209              		.loc 1 153 0
 210 00e8 1E23     		mov	r3, #30
 211 00ea 2381     		strh	r3, [r4, #8]
 154:lib_BLE/bluetooth.c ****   	tempHandle.value.val = (uint8 *) &sendBufferStatus;
 212              		.loc 1 154 0
 213 00ec 114B     		ldr	r3, .L24+28
 155:lib_BLE/bluetooth.c ****     tempHandle.value.len = 7;
 156:lib_BLE/bluetooth.c ****     CyBle_GattsWriteAttributeValue(&tempHandle,0,&cyBle_connHandle,CYBLE_GATT_DB_LOCALLY_INITIATED 
 214              		.loc 1 156 0
 215 00ee 0021     		mov	r1, #0
 154:lib_BLE/bluetooth.c ****   	tempHandle.value.val = (uint8 *) &sendBufferStatus;
 216              		.loc 1 154 0
 217 00f0 0193     		str	r3, [sp, #4]
 155:lib_BLE/bluetooth.c ****     tempHandle.value.len = 7;
 218              		.loc 1 155 0
 219 00f2 0723     		mov	r3, #7
 220              		.loc 1 156 0
 221 00f4 201C     		mov	r0, r4
 155:lib_BLE/bluetooth.c ****     tempHandle.value.len = 7;
 222              		.loc 1 155 0
 223 00f6 A380     		strh	r3, [r4, #4]
 224              		.loc 1 156 0
 225 00f8 2A1C     		mov	r2, r5
 226 00fa 0B1C     		mov	r3, r1
 227 00fc FFF7FEFF 		bl	CyBle_GattsWriteAttributeValue
ARM GAS  C:\Users\Petro\AppData\Local\Temp\ccv8NJOC.s 			page 8


 228              	.LVL16:
 157:lib_BLE/bluetooth.c ****     if (notifycaiton  )
 229              		.loc 1 157 0
 230 0100 3368     		ldr	r3, [r6]
 231 0102 002B     		cmp	r3, #0
 232 0104 06D0     		beq	.L1
 158:lib_BLE/bluetooth.c ****         CyBle_GattsNotification(cyBle_connHandle,&tempHandle);
 233              		.loc 1 158 0
 234 0106 6878     		ldrb	r0, [r5, #1]
 235 0108 2B78     		ldrb	r3, [r5]
 236 010a 0002     		lsl	r0, r0, #8
 237 010c 1843     		orr	r0, r3
 238 010e 211C     		mov	r1, r4
 239 0110 FFF7FEFF 		bl	CyBle_GattsNotification
 240              	.LVL17:
 241              	.L1:
 242              	.LBE7:
 243              	.LBE6:
 159:lib_BLE/bluetooth.c **** }
 244              		.loc 1 159 0
 245              		@ sp needed
 246 0114 7FBD     		pop	{r0, r1, r2, r3, r4, r5, r6, pc}
 247              	.L25:
 248 0116 C046     		.align	2
 249              	.L24:
 250 0118 00000000 		.word	cyBle_state
 251 011c 00000000 		.word	cyBle_connHandle
 252 0120 00000000 		.word	.LANCHOR0
 253 0124 00000000 		.word	notifycaiton
 254 0128 00000000 		.word	sendBufferStart
 255 012c 00000000 		.word	sendBufferFinish
 256 0130 00000000 		.word	sendBufferResult
 257 0134 00000000 		.word	sendBufferStatus
 258              		.cfi_endproc
 259              	.LFE64:
 260              		.size	updateData, .-updateData
 261              		.section	.text.BleCallBack,"ax",%progbits
 262              		.align	1
 263              		.global	BleCallBack
 264              		.code	16
 265              		.thumb_func
 266              		.type	BleCallBack, %function
 267              	BleCallBack:
 268              	.LFB63:
  25:lib_BLE/bluetooth.c ****     CYBLE_GATTS_WRITE_REQ_PARAM_T *wrReqParam;
 269              		.loc 1 25 0
 270              		.cfi_startproc
 271              	.LVL18:
 272 0000 70B5     		push	{r4, r5, r6, lr}
 273              		.cfi_def_cfa_offset 16
 274              		.cfi_offset 4, -16
 275              		.cfi_offset 5, -12
 276              		.cfi_offset 6, -8
 277              		.cfi_offset 14, -4
  25:lib_BLE/bluetooth.c ****     CYBLE_GATTS_WRITE_REQ_PARAM_T *wrReqParam;
 278              		.loc 1 25 0
 279 0002 0C1C     		mov	r4, r1
ARM GAS  C:\Users\Petro\AppData\Local\Temp\ccv8NJOC.s 			page 9


  28:lib_BLE/bluetooth.c ****     {
 280              		.loc 1 28 0
 281 0004 2828     		cmp	r0, #40
 282 0006 08D0     		beq	.L28
 283 0008 02D8     		bhi	.L29
 284 000a 0128     		cmp	r0, #1
 285 000c 05D0     		beq	.L28
 286 000e 66E0     		b	.L26
 287              	.L29:
 288 0010 4128     		cmp	r0, #65
 289 0012 0AD0     		beq	.L30
 290 0014 4C28     		cmp	r0, #76
 291 0016 0DD0     		beq	.L31
 292 0018 61E0     		b	.L26
 293              	.L28:
  33:lib_BLE/bluetooth.c ****             CyBle_GappStartAdvertisement(CYBLE_ADVERTISING_FAST);
 294              		.loc 1 33 0
 295 001a 0020     		mov	r0, #0
 296              	.LVL19:
 297 001c 304B     		ldr	r3, .L49
 298 001e 1860     		str	r0, [r3]
  34:lib_BLE/bluetooth.c ****             pwm_Start();
 299              		.loc 1 34 0
 300 0020 FFF7FEFF 		bl	CyBle_GappStartAdvertisement
 301              	.LVL20:
  35:lib_BLE/bluetooth.c ****         break;
 302              		.loc 1 35 0
 303 0024 FFF7FEFF 		bl	pwm_Start
 304              	.LVL21:
  36:lib_BLE/bluetooth.c ****         
 305              		.loc 1 36 0
 306 0028 59E0     		b	.L26
 307              	.LVL22:
 308              	.L30:
  40:lib_BLE/bluetooth.c ****             updateData();
 309              		.loc 1 40 0
 310 002a FFF7FEFF 		bl	pwm_Stop
 311              	.LVL23:
  41:lib_BLE/bluetooth.c **** 		break;
 312              		.loc 1 41 0
 313 002e FFF7FEFF 		bl	updateData
 314              	.LVL24:
  42:lib_BLE/bluetooth.c **** 
 315              		.loc 1 42 0
 316 0032 54E0     		b	.L26
 317              	.LVL25:
 318              	.L31:
 319              	.LBB12:
 320              	.LBB13:
  49:lib_BLE/bluetooth.c ****             {
 321              		.loc 1 49 0
 322 0034 8B89     		ldrh	r3, [r1, #12]
 323 0036 222B     		cmp	r3, #34
 324 0038 20D1     		bne	.L33
  52:lib_BLE/bluetooth.c ****                 {
 325              		.loc 1 52 0
 326 003a 2A4D     		ldr	r5, .L49+4
ARM GAS  C:\Users\Petro\AppData\Local\Temp\ccv8NJOC.s 			page 10


 327 003c 081D     		add	r0, r1, #4
 328              	.LVL26:
 329 003e 2A1C     		mov	r2, r5
 330 0040 0021     		mov	r1, #0
 331              	.LVL27:
 332 0042 1E33     		add	r3, r3, #30
 333 0044 FFF7FEFF 		bl	CyBle_GattsWriteAttributeValue
 334              	.LVL28:
 335 0048 2A1C     		mov	r2, r5
 336 004a 0028     		cmp	r0, #0
 337 004c 16D1     		bne	.L33
 338              	.LBB14:
 339              	.LBB15:
  59:lib_BLE/bluetooth.c ****                         bleUnixTime = (bleUnixTime << 8) | tmpData;
 340              		.loc 1 59 0
 341 004e 6368     		ldr	r3, [r4, #4]
 342              	.LBE15:
  55:lib_BLE/bluetooth.c ****                     for(i=3;i>=0;i--)
 343              		.loc 1 55 0
 344 0050 2549     		ldr	r1, .L49+8
 345 0052 DD1C     		add	r5, r3, #3
 346 0054 4860     		str	r0, [r1, #4]
 347              	.LVL29:
 348 0056 581E     		sub	r0, r3, #1
 349              	.LVL30:
 350              	.L35:
 351              	.LBB16:
  60:lib_BLE/bluetooth.c ****                     }
 352              		.loc 1 60 0
 353 0058 4B68     		ldr	r3, [r1, #4]
 354 005a 2E78     		ldrb	r6, [r5]
 355 005c 1B02     		lsl	r3, r3, #8
 356 005e 3343     		orr	r3, r6
 357 0060 013D     		sub	r5, r5, #1
 358              	.LVL31:
 359 0062 4B60     		str	r3, [r1, #4]
 360              	.LVL32:
 361              	.LBE16:
  56:lib_BLE/bluetooth.c ****                     {
 362              		.loc 1 56 0
 363 0064 8542     		cmp	r5, r0
 364 0066 F7D1     		bne	.L35
  64:lib_BLE/bluetooth.c ****                     #ifdef DEBUG_BLE
 365              		.loc 1 64 0
 366 0068 E120     		mov	r0, #225
 367 006a 4001     		lsl	r0, r0, #5
 368 006c 1B18     		add	r3, r3, r0
  70:lib_BLE/bluetooth.c ****                 }
 369              		.loc 1 70 0
 370 006e 5078     		ldrb	r0, [r2, #1]
  64:lib_BLE/bluetooth.c ****                     #ifdef DEBUG_BLE
 371              		.loc 1 64 0
 372 0070 4B60     		str	r3, [r1, #4]
  70:lib_BLE/bluetooth.c ****                 }
 373              		.loc 1 70 0
 374 0072 1378     		ldrb	r3, [r2]
 375 0074 0002     		lsl	r0, r0, #8
ARM GAS  C:\Users\Petro\AppData\Local\Temp\ccv8NJOC.s 			page 11


 376 0076 1843     		orr	r0, r3
 377 0078 FFF7FEFF 		bl	CyBle_GattsWriteRsp
 378              	.LVL33:
 379              	.L33:
 380              	.LBE14:
  75:lib_BLE/bluetooth.c ****             {
 381              		.loc 1 75 0
 382 007c A389     		ldrh	r3, [r4, #12]
 383 007e 252B     		cmp	r3, #37
 384 0080 12D1     		bne	.L37
  78:lib_BLE/bluetooth.c ****                 {
 385              		.loc 1 78 0
 386 0082 184D     		ldr	r5, .L49+4
 387 0084 201D     		add	r0, r4, #4
 388 0086 0021     		mov	r1, #0
 389 0088 2A1C     		mov	r2, r5
 390 008a 1B33     		add	r3, r3, #27
 391 008c FFF7FEFF 		bl	CyBle_GattsWriteAttributeValue
 392              	.LVL34:
 393 0090 0028     		cmp	r0, #0
 394 0092 09D1     		bne	.L37
  80:lib_BLE/bluetooth.c ****                     CyBle_GattsWriteRsp(cyBle_connHandle);
 395              		.loc 1 80 0
 396 0094 6368     		ldr	r3, [r4, #4]
  81:lib_BLE/bluetooth.c ****                 }
 397              		.loc 1 81 0
 398 0096 6878     		ldrb	r0, [r5, #1]
  80:lib_BLE/bluetooth.c ****                     CyBle_GattsWriteRsp(cyBle_connHandle);
 399              		.loc 1 80 0
 400 0098 1A78     		ldrb	r2, [r3]
 401 009a 134B     		ldr	r3, .L49+8
  81:lib_BLE/bluetooth.c ****                 }
 402              		.loc 1 81 0
 403 009c 0002     		lsl	r0, r0, #8
  80:lib_BLE/bluetooth.c ****                     CyBle_GattsWriteRsp(cyBle_connHandle);
 404              		.loc 1 80 0
 405 009e 1A72     		strb	r2, [r3, #8]
  81:lib_BLE/bluetooth.c ****                 }
 406              		.loc 1 81 0
 407 00a0 2B78     		ldrb	r3, [r5]
 408 00a2 1843     		orr	r0, r3
 409 00a4 FFF7FEFF 		bl	CyBle_GattsWriteRsp
 410              	.LVL35:
 411              	.L37:
  86:lib_BLE/bluetooth.c ****             wrReqParam->handleValPair.attrHandle == CYBLE_SFSYSTEMSERVICE_TIME_START_TIMESTARTCCCD_
 412              		.loc 1 86 0
 413 00a8 A389     		ldrh	r3, [r4, #12]
 414 00aa 0C22     		mov	r2, #12
 415 00ac 191C     		mov	r1, r3
 416 00ae 9143     		bic	r1, r2
 417 00b0 1029     		cmp	r1, #16
 418 00b2 01D0     		beq	.L39
  89:lib_BLE/bluetooth.c ****             wrReqParam->handleValPair.attrHandle == CYBLE_SFSYSTEMSERVICE_SYSTEM_STATUS_STATUSCCCD_
 419              		.loc 1 89 0
 420 00b4 202B     		cmp	r3, #32
 421 00b6 12D1     		bne	.L26
 422              	.L39:
ARM GAS  C:\Users\Petro\AppData\Local\Temp\ccv8NJOC.s 			page 12


  92:lib_BLE/bluetooth.c ****                 notifycaiton = wrReqParam->handleValPair.value.val[0] & 0x01;
 423              		.loc 1 92 0
 424 00b8 0A4D     		ldr	r5, .L49+4
 425 00ba 4023     		mov	r3, #64
 426 00bc 2A1C     		mov	r2, r5
 427 00be 201D     		add	r0, r4, #4
 428 00c0 0021     		mov	r1, #0
 429 00c2 FFF7FEFF 		bl	CyBle_GattsWriteAttributeValue
 430              	.LVL36:
  93:lib_BLE/bluetooth.c ****                 CyBle_GattsWriteRsp(cyBle_connHandle);
 431              		.loc 1 93 0
 432 00c6 6368     		ldr	r3, [r4, #4]
  94:lib_BLE/bluetooth.c ****             }
 433              		.loc 1 94 0
 434 00c8 6878     		ldrb	r0, [r5, #1]
  93:lib_BLE/bluetooth.c ****                 CyBle_GattsWriteRsp(cyBle_connHandle);
 435              		.loc 1 93 0
 436 00ca 1A78     		ldrb	r2, [r3]
 437 00cc 0123     		mov	r3, #1
 438 00ce 1340     		and	r3, r2
 439 00d0 034A     		ldr	r2, .L49
  94:lib_BLE/bluetooth.c ****             }
 440              		.loc 1 94 0
 441 00d2 0002     		lsl	r0, r0, #8
  93:lib_BLE/bluetooth.c ****                 CyBle_GattsWriteRsp(cyBle_connHandle);
 442              		.loc 1 93 0
 443 00d4 1360     		str	r3, [r2]
  94:lib_BLE/bluetooth.c ****             }
 444              		.loc 1 94 0
 445 00d6 2B78     		ldrb	r3, [r5]
 446 00d8 1843     		orr	r0, r3
 447 00da FFF7FEFF 		bl	CyBle_GattsWriteRsp
 448              	.LVL37:
 449              	.L26:
 450              	.LBE13:
 451              	.LBE12:
 101:lib_BLE/bluetooth.c **** 
 452              		.loc 1 101 0
 453              		@ sp needed
 454              	.LVL38:
 455 00de 70BD     		pop	{r4, r5, r6, pc}
 456              	.L50:
 457              		.align	2
 458              	.L49:
 459 00e0 00000000 		.word	notifycaiton
 460 00e4 00000000 		.word	cyBle_connHandle
 461 00e8 00000000 		.word	.LANCHOR0
 462              		.cfi_endproc
 463              	.LFE63:
 464              		.size	BleCallBack, .-BleCallBack
 465              		.section	.text.updateStatusData,"ax",%progbits
 466              		.align	1
 467              		.global	updateStatusData
 468              		.code	16
 469              		.thumb_func
 470              		.type	updateStatusData, %function
 471              	updateStatusData:
ARM GAS  C:\Users\Petro\AppData\Local\Temp\ccv8NJOC.s 			page 13


 472              	.LFB65:
 160:lib_BLE/bluetooth.c **** 
 161:lib_BLE/bluetooth.c **** 
 162:lib_BLE/bluetooth.c **** /***************************************************************
 163:lib_BLE/bluetooth.c ****  * Function to update the id skier state in the GATT database
 164:lib_BLE/bluetooth.c ****  **************************************************************/
 165:lib_BLE/bluetooth.c **** void updateStatusData(void)
 166:lib_BLE/bluetooth.c **** {
 473              		.loc 1 166 0
 474              		.cfi_startproc
 475 0000 30B5     		push	{r4, r5, lr}
 476              		.cfi_def_cfa_offset 12
 477              		.cfi_offset 4, -12
 478              		.cfi_offset 5, -8
 479              		.cfi_offset 14, -4
 167:lib_BLE/bluetooth.c ****     CYBLE_GATTS_HANDLE_VALUE_NTF_T 	tempHandle;
 168:lib_BLE/bluetooth.c ****     
 169:lib_BLE/bluetooth.c ****     if(CyBle_GetState() != CYBLE_STATE_CONNECTED)
 480              		.loc 1 169 0
 481 0002 104B     		ldr	r3, .L57
 166:lib_BLE/bluetooth.c ****     CYBLE_GATTS_HANDLE_VALUE_NTF_T 	tempHandle;
 482              		.loc 1 166 0
 483 0004 85B0     		sub	sp, sp, #20
 484              		.cfi_def_cfa_offset 32
 485              		.loc 1 169 0
 486 0006 1B78     		ldrb	r3, [r3]
 487 0008 022B     		cmp	r3, #2
 488 000a 18D1     		bne	.L51
 489              	.LBB19:
 490              	.LBB20:
 170:lib_BLE/bluetooth.c ****         return;
 171:lib_BLE/bluetooth.c ****            
 172:lib_BLE/bluetooth.c ****     tempHandle.attrHandle = CYBLE_SFSYSTEMSERVICE_SYSTEM_STATUS_CHAR_HANDLE;
 491              		.loc 1 172 0
 492 000c 01AC     		add	r4, sp, #4
 493 000e 1C33     		add	r3, r3, #28
 494 0010 2381     		strh	r3, [r4, #8]
 173:lib_BLE/bluetooth.c ****   	tempHandle.value.val = (uint8 *) &sendBufferStatus;
 495              		.loc 1 173 0
 496 0012 0D4B     		ldr	r3, .L57+4
 174:lib_BLE/bluetooth.c ****     tempHandle.value.len = 7;
 175:lib_BLE/bluetooth.c ****     CyBle_GattsWriteAttributeValue(&tempHandle,0,&cyBle_connHandle,CYBLE_GATT_DB_LOCALLY_INITIATED 
 497              		.loc 1 175 0
 498 0014 0021     		mov	r1, #0
 173:lib_BLE/bluetooth.c ****   	tempHandle.value.val = (uint8 *) &sendBufferStatus;
 499              		.loc 1 173 0
 500 0016 0193     		str	r3, [sp, #4]
 174:lib_BLE/bluetooth.c ****     tempHandle.value.len = 7;
 501              		.loc 1 174 0
 502 0018 0723     		mov	r3, #7
 503              		.loc 1 175 0
 504 001a 0C4D     		ldr	r5, .L57+8
 174:lib_BLE/bluetooth.c ****     tempHandle.value.len = 7;
 505              		.loc 1 174 0
 506 001c A380     		strh	r3, [r4, #4]
 507              		.loc 1 175 0
 508 001e 201C     		mov	r0, r4
ARM GAS  C:\Users\Petro\AppData\Local\Temp\ccv8NJOC.s 			page 14


 509 0020 0B1C     		mov	r3, r1
 510 0022 2A1C     		mov	r2, r5
 511 0024 FFF7FEFF 		bl	CyBle_GattsWriteAttributeValue
 512              	.LVL39:
 176:lib_BLE/bluetooth.c ****     if (notifycaiton  )
 513              		.loc 1 176 0
 514 0028 094B     		ldr	r3, .L57+12
 515 002a 1B68     		ldr	r3, [r3]
 516 002c 002B     		cmp	r3, #0
 517 002e 06D0     		beq	.L51
 177:lib_BLE/bluetooth.c ****         CyBle_GattsNotification(cyBle_connHandle,&tempHandle);
 518              		.loc 1 177 0
 519 0030 6878     		ldrb	r0, [r5, #1]
 520 0032 2B78     		ldrb	r3, [r5]
 521 0034 0002     		lsl	r0, r0, #8
 522 0036 1843     		orr	r0, r3
 523 0038 211C     		mov	r1, r4
 524 003a FFF7FEFF 		bl	CyBle_GattsNotification
 525              	.LVL40:
 526              	.L51:
 527              	.LBE20:
 528              	.LBE19:
 178:lib_BLE/bluetooth.c **** }
 529              		.loc 1 178 0
 530 003e 05B0     		add	sp, sp, #20
 531              		@ sp needed
 532 0040 30BD     		pop	{r4, r5, pc}
 533              	.L58:
 534 0042 C046     		.align	2
 535              	.L57:
 536 0044 00000000 		.word	cyBle_state
 537 0048 00000000 		.word	sendBufferStatus
 538 004c 00000000 		.word	cyBle_connHandle
 539 0050 00000000 		.word	notifycaiton
 540              		.cfi_endproc
 541              	.LFE65:
 542              		.size	updateStatusData, .-updateStatusData
 543              		.section	.text.BLE_start,"ax",%progbits
 544              		.align	1
 545              		.global	BLE_start
 546              		.code	16
 547              		.thumb_func
 548              		.type	BLE_start, %function
 549              	BLE_start:
 550              	.LFB66:
 179:lib_BLE/bluetooth.c **** 
 180:lib_BLE/bluetooth.c **** void BLE_start(void)
 181:lib_BLE/bluetooth.c **** {
 551              		.loc 1 181 0
 552              		.cfi_startproc
 553 0000 08B5     		push	{r3, lr}
 554              		.cfi_def_cfa_offset 8
 555              		.cfi_offset 3, -8
 556              		.cfi_offset 14, -4
 182:lib_BLE/bluetooth.c ****     CyBle_Start(BleCallBack);
 557              		.loc 1 182 0
 558 0002 0248     		ldr	r0, .L60
ARM GAS  C:\Users\Petro\AppData\Local\Temp\ccv8NJOC.s 			page 15


 559 0004 FFF7FEFF 		bl	CyBle_Start
 560              	.LVL41:
 183:lib_BLE/bluetooth.c ****     
 184:lib_BLE/bluetooth.c ****     #ifdef DEBUG_BLE
 185:lib_BLE/bluetooth.c ****         SW_UART_DEBUG_Start();
 186:lib_BLE/bluetooth.c ****         SW_UART_DEBUG_PutString("Im ready\n\r");
 187:lib_BLE/bluetooth.c ****     #endif
 188:lib_BLE/bluetooth.c **** }
 561              		.loc 1 188 0
 562              		@ sp needed
 563 0008 08BD     		pop	{r3, pc}
 564              	.L61:
 565 000a C046     		.align	2
 566              	.L60:
 567 000c 00000000 		.word	BleCallBack
 568              		.cfi_endproc
 569              	.LFE66:
 570              		.size	BLE_start, .-BLE_start
 571              		.section	.text.BLE_processEvents,"ax",%progbits
 572              		.align	1
 573              		.global	BLE_processEvents
 574              		.code	16
 575              		.thumb_func
 576              		.type	BLE_processEvents, %function
 577              	BLE_processEvents:
 578              	.LFB67:
 189:lib_BLE/bluetooth.c **** 
 190:lib_BLE/bluetooth.c **** 
 191:lib_BLE/bluetooth.c **** void BLE_processEvents(void)
 192:lib_BLE/bluetooth.c **** {
 579              		.loc 1 192 0
 580              		.cfi_startproc
 581 0000 08B5     		push	{r3, lr}
 582              		.cfi_def_cfa_offset 8
 583              		.cfi_offset 3, -8
 584              		.cfi_offset 14, -4
 193:lib_BLE/bluetooth.c ****     CyBle_ProcessEvents();
 585              		.loc 1 193 0
 586 0002 FFF7FEFF 		bl	CyBle_ProcessEvents
 587              	.LVL42:
 194:lib_BLE/bluetooth.c ****     CyBle_EnterLPM(CYBLE_BLESS_DEEPSLEEP);
 588              		.loc 1 194 0
 589 0006 0320     		mov	r0, #3
 590 0008 FFF7FEFF 		bl	CyBle_EnterLPM
 591              	.LVL43:
 195:lib_BLE/bluetooth.c **** }
 592              		.loc 1 195 0
 593              		@ sp needed
 594 000c 08BD     		pop	{r3, pc}
 595              		.cfi_endproc
 596              	.LFE67:
 597              		.size	BLE_processEvents, .-BLE_processEvents
 598              		.section	.text.BLE_getUnixTime,"ax",%progbits
 599              		.align	1
 600              		.global	BLE_getUnixTime
 601              		.code	16
 602              		.thumb_func
ARM GAS  C:\Users\Petro\AppData\Local\Temp\ccv8NJOC.s 			page 16


 603              		.type	BLE_getUnixTime, %function
 604              	BLE_getUnixTime:
 605              	.LFB68:
 196:lib_BLE/bluetooth.c **** 
 197:lib_BLE/bluetooth.c **** 
 198:lib_BLE/bluetooth.c **** uint32_t BLE_getUnixTime(void)
 199:lib_BLE/bluetooth.c **** {
 606              		.loc 1 199 0
 607              		.cfi_startproc
 200:lib_BLE/bluetooth.c ****     if(bleUnixTime == 0)
 608              		.loc 1 200 0
 609 0000 014B     		ldr	r3, .L64
 201:lib_BLE/bluetooth.c ****     {
 202:lib_BLE/bluetooth.c ****         return 0;
 203:lib_BLE/bluetooth.c ****     }
 204:lib_BLE/bluetooth.c ****     else
 205:lib_BLE/bluetooth.c ****     {
 206:lib_BLE/bluetooth.c ****         return bleUnixTime;
 207:lib_BLE/bluetooth.c ****     }
 208:lib_BLE/bluetooth.c **** }
 610              		.loc 1 208 0
 611              		@ sp needed
 612 0002 5868     		ldr	r0, [r3, #4]
 613 0004 7047     		bx	lr
 614              	.L65:
 615 0006 C046     		.align	2
 616              	.L64:
 617 0008 00000000 		.word	.LANCHOR0
 618              		.cfi_endproc
 619              	.LFE68:
 620              		.size	BLE_getUnixTime, .-BLE_getUnixTime
 621              		.section	.text.BLE_getFlagAdminOnly,"ax",%progbits
 622              		.align	1
 623              		.global	BLE_getFlagAdminOnly
 624              		.code	16
 625              		.thumb_func
 626              		.type	BLE_getFlagAdminOnly, %function
 627              	BLE_getFlagAdminOnly:
 628              	.LFB69:
 209:lib_BLE/bluetooth.c **** 
 210:lib_BLE/bluetooth.c **** uint8_t BLE_getFlagAdminOnly(void)
 211:lib_BLE/bluetooth.c **** {
 629              		.loc 1 211 0
 630              		.cfi_startproc
 212:lib_BLE/bluetooth.c **** //    if((CyBle_GetState() != CYBLE_STATE_CONNECTED) || statusBLE == 0)
 213:lib_BLE/bluetooth.c **** //        return 0;
 214:lib_BLE/bluetooth.c ****     
 215:lib_BLE/bluetooth.c ****     if(adminIsOnly == 0)
 631              		.loc 1 215 0
 632 0000 034B     		ldr	r3, .L71
 633 0002 187A     		ldrb	r0, [r3, #8]
 634 0004 0028     		cmp	r0, #0
 635 0006 02D0     		beq	.L67
 216:lib_BLE/bluetooth.c ****     {
 217:lib_BLE/bluetooth.c ****         #ifdef DEBUG_BLE
 218:lib_BLE/bluetooth.c ****         SW_UART_DEBUG_PutString("admin only 0\n\r");
 219:lib_BLE/bluetooth.c ****         #endif
ARM GAS  C:\Users\Petro\AppData\Local\Temp\ccv8NJOC.s 			page 17


 220:lib_BLE/bluetooth.c ****         return 0;
 221:lib_BLE/bluetooth.c ****     }
 222:lib_BLE/bluetooth.c ****     else
 223:lib_BLE/bluetooth.c ****     {
 224:lib_BLE/bluetooth.c ****         adminIsOnly = 0;
 636              		.loc 1 224 0
 637 0008 0022     		mov	r2, #0
 225:lib_BLE/bluetooth.c ****         #ifdef DEBUG_BLE
 226:lib_BLE/bluetooth.c ****         SW_UART_DEBUG_PutString("admin only 1\n\r");
 227:lib_BLE/bluetooth.c ****         #endif
 228:lib_BLE/bluetooth.c ****         return 1;
 638              		.loc 1 228 0
 639 000a 0120     		mov	r0, #1
 224:lib_BLE/bluetooth.c ****         #ifdef DEBUG_BLE
 640              		.loc 1 224 0
 641 000c 1A72     		strb	r2, [r3, #8]
 642              	.L67:
 229:lib_BLE/bluetooth.c ****     }
 230:lib_BLE/bluetooth.c **** }
 643              		.loc 1 230 0
 644              		@ sp needed
 645 000e 7047     		bx	lr
 646              	.L72:
 647              		.align	2
 648              	.L71:
 649 0010 00000000 		.word	.LANCHOR0
 650              		.cfi_endproc
 651              	.LFE69:
 652              		.size	BLE_getFlagAdminOnly, .-BLE_getFlagAdminOnly
 653              		.global	__aeabi_uldivmod
 654              		.global	__aeabi_uidiv
 655              		.global	__aeabi_uidivmod
 656              		.section	.text.BLE_sendOneSkierTimeResult,"ax",%progbits
 657              		.align	1
 658              		.global	BLE_sendOneSkierTimeResult
 659              		.code	16
 660              		.thumb_func
 661              		.type	BLE_sendOneSkierTimeResult, %function
 662              	BLE_sendOneSkierTimeResult:
 663              	.LFB70:
 231:lib_BLE/bluetooth.c **** 
 232:lib_BLE/bluetooth.c **** void BLE_sendOneSkierTimeResult(skierDB_El *data, uint8_t idSkier,
 233:lib_BLE/bluetooth.c ****                             uint8_t numSkierOnWay, uint8_t maxSkierOnWay)
 234:lib_BLE/bluetooth.c **** {   
 664              		.loc 1 234 0
 665              		.cfi_startproc
 666              	.LVL44:
 667 0000 F0B5     		push	{r4, r5, r6, r7, lr}
 668              		.cfi_def_cfa_offset 20
 669              		.cfi_offset 4, -20
 670              		.cfi_offset 5, -16
 671              		.cfi_offset 6, -12
 672              		.cfi_offset 7, -8
 673              		.cfi_offset 14, -4
 674 0002 8BB0     		sub	sp, sp, #44
 675              		.cfi_def_cfa_offset 64
 676              		.loc 1 234 0
ARM GAS  C:\Users\Petro\AppData\Local\Temp\ccv8NJOC.s 			page 18


 677 0004 061C     		mov	r6, r0
 678 0006 0493     		str	r3, [sp, #16]
 235:lib_BLE/bluetooth.c ****     RTC_DATE_TIME time;
 236:lib_BLE/bluetooth.c ****     
 237:lib_BLE/bluetooth.c ****     /*read unix time*/
 238:lib_BLE/bluetooth.c ****     RTC_UnixToDateTime(&time, data->unixStartSkier, RTC_24_HOURS_FORMAT);
 679              		.loc 1 238 0
 680 0008 0023     		mov	r3, #0
 681              	.LVL45:
 234:lib_BLE/bluetooth.c ****     RTC_DATE_TIME time;
 682              		.loc 1 234 0
 683 000a 0392     		str	r2, [sp, #12]
 684              		.loc 1 238 0
 685 000c 0093     		str	r3, [sp]
 686 000e 06A8     		add	r0, sp, #24
 687              	.LVL46:
 688 0010 3268     		ldr	r2, [r6]
 689 0012 7368     		ldr	r3, [r6, #4]
 690              	.LVL47:
 234:lib_BLE/bluetooth.c ****     RTC_DATE_TIME time;
 691              		.loc 1 234 0
 692 0014 0591     		str	r1, [sp, #20]
 693              		.loc 1 238 0
 694 0016 FFF7FEFF 		bl	RTC_UnixToDateTime
 695              	.LVL48:
 239:lib_BLE/bluetooth.c ****     sendBufferStart[BLE_SEND_HOUR] = RTC_GetHours(time.time);
 696              		.loc 1 239 0
 697 001a 069B     		ldr	r3, [sp, #24]
 698              	.LVL49:
 699              	.LBB33:
 700              	.LBB34:
 701              		.file 2 "Generated_Source\\PSoC4/RTC.h"
   1:Generated_Source\PSoC4/RTC.h **** /***************************************************************************//**
   2:Generated_Source\PSoC4/RTC.h **** * \file Name: RTC.h
   3:Generated_Source\PSoC4/RTC.h **** * \version 1.10
   4:Generated_Source\PSoC4/RTC.h **** *
   5:Generated_Source\PSoC4/RTC.h **** * \brief
   6:Generated_Source\PSoC4/RTC.h **** *  This file provides constants and parameter values for the RTC_P4 Component.
   7:Generated_Source\PSoC4/RTC.h **** *
   8:Generated_Source\PSoC4/RTC.h **** ********************************************************************************
   9:Generated_Source\PSoC4/RTC.h **** * Copyright 2015-2016, Cypress Semiconductor Corporation.  All rights reserved.
  10:Generated_Source\PSoC4/RTC.h **** * You may use this file only in accordance with the license, terms, conditions,
  11:Generated_Source\PSoC4/RTC.h **** * disclaimers, and limitations in the end user license agreement accompanying
  12:Generated_Source\PSoC4/RTC.h **** * the software package with which this file was provided.
  13:Generated_Source\PSoC4/RTC.h **** *******************************************************************************/
  14:Generated_Source\PSoC4/RTC.h **** 
  15:Generated_Source\PSoC4/RTC.h **** #if !defined(CY_RTC_P4_RTC_H)
  16:Generated_Source\PSoC4/RTC.h **** #define CY_RTC_P4_RTC_H
  17:Generated_Source\PSoC4/RTC.h **** 
  18:Generated_Source\PSoC4/RTC.h **** #include <cytypes.h>
  19:Generated_Source\PSoC4/RTC.h **** #include <CyLib.h>
  20:Generated_Source\PSoC4/RTC.h **** 
  21:Generated_Source\PSoC4/RTC.h **** 
  22:Generated_Source\PSoC4/RTC.h **** /*******************************************************************************
  23:Generated_Source\PSoC4/RTC.h **** *    Data types definition
  24:Generated_Source\PSoC4/RTC.h **** *******************************************************************************/
  25:Generated_Source\PSoC4/RTC.h **** 
ARM GAS  C:\Users\Petro\AppData\Local\Temp\ccv8NJOC.s 			page 19


  26:Generated_Source\PSoC4/RTC.h **** typedef enum
  27:Generated_Source\PSoC4/RTC.h **** {
  28:Generated_Source\PSoC4/RTC.h ****     RTC_DST_DATE_RELATIVE = 0u,
  29:Generated_Source\PSoC4/RTC.h ****     RTC_DST_DATE_FIXED = 1u
  30:Generated_Source\PSoC4/RTC.h **** }RTC_DST_DATETYPE_ENUM;
  31:Generated_Source\PSoC4/RTC.h **** 
  32:Generated_Source\PSoC4/RTC.h **** /**
  33:Generated_Source\PSoC4/RTC.h **** * \addtogroup group_structures
  34:Generated_Source\PSoC4/RTC.h **** * @{
  35:Generated_Source\PSoC4/RTC.h **** */
  36:Generated_Source\PSoC4/RTC.h **** 
  37:Generated_Source\PSoC4/RTC.h **** /**
  38:Generated_Source\PSoC4/RTC.h **** * This is the data structure that is used to save the current time and date 
  39:Generated_Source\PSoC4/RTC.h **** * (RTC_currentTimeDate), and Alarm time and date (RTC_alarmCfgTimeDate).
  40:Generated_Source\PSoC4/RTC.h **** */
  41:Generated_Source\PSoC4/RTC.h **** typedef struct
  42:Generated_Source\PSoC4/RTC.h **** {
  43:Generated_Source\PSoC4/RTC.h ****     uint32 time;
  44:Generated_Source\PSoC4/RTC.h ****     uint32 date;
  45:Generated_Source\PSoC4/RTC.h ****     uint32 dayOfWeek;
  46:Generated_Source\PSoC4/RTC.h ****     uint32 status;
  47:Generated_Source\PSoC4/RTC.h **** }RTC_DATE_TIME;
  48:Generated_Source\PSoC4/RTC.h **** 
  49:Generated_Source\PSoC4/RTC.h **** /**
  50:Generated_Source\PSoC4/RTC.h **** * This is the data structure that is used to save time and date values for 
  51:Generated_Source\PSoC4/RTC.h **** * Daylight Savings Time Start and Stop (RTC_dstTimeDateStart and 
  52:Generated_Source\PSoC4/RTC.h **** * RTC_dstTimeDateStop).
  53:Generated_Source\PSoC4/RTC.h **** */
  54:Generated_Source\PSoC4/RTC.h **** typedef struct
  55:Generated_Source\PSoC4/RTC.h **** {
  56:Generated_Source\PSoC4/RTC.h ****     uint32 hour;
  57:Generated_Source\PSoC4/RTC.h ****     uint32 dayOfWeek;
  58:Generated_Source\PSoC4/RTC.h ****     uint32 dayOfMonth;
  59:Generated_Source\PSoC4/RTC.h ****     uint32 weekOfMonth;
  60:Generated_Source\PSoC4/RTC.h ****     uint32 month;
  61:Generated_Source\PSoC4/RTC.h ****     uint8  timeFormat;
  62:Generated_Source\PSoC4/RTC.h **** }RTC_DST_TIME;
  63:Generated_Source\PSoC4/RTC.h **** 
  64:Generated_Source\PSoC4/RTC.h **** /** @} structures */
  65:Generated_Source\PSoC4/RTC.h **** 
  66:Generated_Source\PSoC4/RTC.h **** /*******************************************************************************
  67:Generated_Source\PSoC4/RTC.h **** *    Enumerated Types and Parameters
  68:Generated_Source\PSoC4/RTC.h **** *******************************************************************************/
  69:Generated_Source\PSoC4/RTC.h **** /* Time Format setting constants */
  70:Generated_Source\PSoC4/RTC.h **** #define RTC__HOUR_12 1
  71:Generated_Source\PSoC4/RTC.h **** #define RTC__HOUR_24 0
  72:Generated_Source\PSoC4/RTC.h **** 
  73:Generated_Source\PSoC4/RTC.h **** /*  Date Format setting constants */
  74:Generated_Source\PSoC4/RTC.h **** #define RTC__MM_DD_YYYY 0
  75:Generated_Source\PSoC4/RTC.h **** #define RTC__DD_MM_YYYY 1
  76:Generated_Source\PSoC4/RTC.h **** #define RTC__YYYY_MM_DD 2
  77:Generated_Source\PSoC4/RTC.h **** 
  78:Generated_Source\PSoC4/RTC.h **** /* Date Type setting constants */
  79:Generated_Source\PSoC4/RTC.h **** #define RTC__RELATIVE 0
  80:Generated_Source\PSoC4/RTC.h **** #define RTC__FIXED 1
  81:Generated_Source\PSoC4/RTC.h **** 
  82:Generated_Source\PSoC4/RTC.h **** /* DST Hour setting constants */
ARM GAS  C:\Users\Petro\AppData\Local\Temp\ccv8NJOC.s 			page 20


  83:Generated_Source\PSoC4/RTC.h **** #define RTC__H0000 0
  84:Generated_Source\PSoC4/RTC.h **** #define RTC__H0100 1
  85:Generated_Source\PSoC4/RTC.h **** #define RTC__H0200 2
  86:Generated_Source\PSoC4/RTC.h **** #define RTC__H0300 3
  87:Generated_Source\PSoC4/RTC.h **** #define RTC__H0400 4
  88:Generated_Source\PSoC4/RTC.h **** #define RTC__H0500 5
  89:Generated_Source\PSoC4/RTC.h **** #define RTC__H0600 6
  90:Generated_Source\PSoC4/RTC.h **** #define RTC__H0700 7
  91:Generated_Source\PSoC4/RTC.h **** #define RTC__H0800 8
  92:Generated_Source\PSoC4/RTC.h **** #define RTC__H0900 9
  93:Generated_Source\PSoC4/RTC.h **** #define RTC__H1000 10
  94:Generated_Source\PSoC4/RTC.h **** #define RTC__H1100 11
  95:Generated_Source\PSoC4/RTC.h **** #define RTC__H1200 12
  96:Generated_Source\PSoC4/RTC.h **** #define RTC__H1300 13
  97:Generated_Source\PSoC4/RTC.h **** #define RTC__H1400 14
  98:Generated_Source\PSoC4/RTC.h **** #define RTC__H1500 15
  99:Generated_Source\PSoC4/RTC.h **** #define RTC__H1600 16
 100:Generated_Source\PSoC4/RTC.h **** #define RTC__H1700 17
 101:Generated_Source\PSoC4/RTC.h **** #define RTC__H1800 18
 102:Generated_Source\PSoC4/RTC.h **** #define RTC__H1900 19
 103:Generated_Source\PSoC4/RTC.h **** #define RTC__H2000 20
 104:Generated_Source\PSoC4/RTC.h **** #define RTC__H2100 21
 105:Generated_Source\PSoC4/RTC.h **** #define RTC__H2200 22
 106:Generated_Source\PSoC4/RTC.h **** #define RTC__H2300 23
 107:Generated_Source\PSoC4/RTC.h **** 
 108:Generated_Source\PSoC4/RTC.h **** /* DST DayOfWeek setting constants */
 109:Generated_Source\PSoC4/RTC.h **** #define RTC__SUNDAY 1
 110:Generated_Source\PSoC4/RTC.h **** #define RTC__MONDAY 2
 111:Generated_Source\PSoC4/RTC.h **** #define RTC__TUESDAY 3
 112:Generated_Source\PSoC4/RTC.h **** #define RTC__WEDNESDAY 4
 113:Generated_Source\PSoC4/RTC.h **** #define RTC__THURSDAY 5
 114:Generated_Source\PSoC4/RTC.h **** #define RTC__FRIDAY 6
 115:Generated_Source\PSoC4/RTC.h **** #define RTC__SATURDAY 7
 116:Generated_Source\PSoC4/RTC.h **** 
 117:Generated_Source\PSoC4/RTC.h **** /* DST Month setting constants */
 118:Generated_Source\PSoC4/RTC.h **** #define RTC__JAN 1
 119:Generated_Source\PSoC4/RTC.h **** #define RTC__FEB 2
 120:Generated_Source\PSoC4/RTC.h **** #define RTC__MAR 3
 121:Generated_Source\PSoC4/RTC.h **** #define RTC__APR 4
 122:Generated_Source\PSoC4/RTC.h **** #define RTC__MAY 5
 123:Generated_Source\PSoC4/RTC.h **** #define RTC__JUN 6
 124:Generated_Source\PSoC4/RTC.h **** #define RTC__JUL 7
 125:Generated_Source\PSoC4/RTC.h **** #define RTC__AUG 8
 126:Generated_Source\PSoC4/RTC.h **** #define RTC__SEP 9
 127:Generated_Source\PSoC4/RTC.h **** #define RTC__OCT 10
 128:Generated_Source\PSoC4/RTC.h **** #define RTC__NOV 11
 129:Generated_Source\PSoC4/RTC.h **** #define RTC__DEC 12
 130:Generated_Source\PSoC4/RTC.h **** 
 131:Generated_Source\PSoC4/RTC.h **** /* DST WeekOfMonth setting constants */
 132:Generated_Source\PSoC4/RTC.h **** #define RTC__FIRST 1
 133:Generated_Source\PSoC4/RTC.h **** #define RTC__SECOND 2
 134:Generated_Source\PSoC4/RTC.h **** #define RTC__THIRD 3
 135:Generated_Source\PSoC4/RTC.h **** #define RTC__FOURTH 4
 136:Generated_Source\PSoC4/RTC.h **** #define RTC__FIFTH 5
 137:Generated_Source\PSoC4/RTC.h **** #define RTC__LAST 6
 138:Generated_Source\PSoC4/RTC.h **** 
 139:Generated_Source\PSoC4/RTC.h **** 
ARM GAS  C:\Users\Petro\AppData\Local\Temp\ccv8NJOC.s 			page 21


 140:Generated_Source\PSoC4/RTC.h **** #define RTC_INITIAL_DATA_FORMAT     (0u)
 141:Generated_Source\PSoC4/RTC.h **** #define RTC_INITIAL_TIME_FORMAT     (0u)
 142:Generated_Source\PSoC4/RTC.h **** #define RTC_INITIAL_UPDATE_MODE     (0u)
 143:Generated_Source\PSoC4/RTC.h **** #define RTC_INITIAL_SECOND          (0u)
 144:Generated_Source\PSoC4/RTC.h **** #define RTC_INITIAL_MINUTE          (16u)
 145:Generated_Source\PSoC4/RTC.h **** #define RTC_INITIAL_HOUR            (10u)
 146:Generated_Source\PSoC4/RTC.h **** #define RTC_INITIAL_DAY             (9u)
 147:Generated_Source\PSoC4/RTC.h **** #define RTC_INITIAL_MONTH           (8u)
 148:Generated_Source\PSoC4/RTC.h **** #define RTC_INITIAL_YEAR            (2016u)
 149:Generated_Source\PSoC4/RTC.h **** 
 150:Generated_Source\PSoC4/RTC.h **** #define RTC_INITIAL_ALARM_STATUS    (0u)
 151:Generated_Source\PSoC4/RTC.h **** 
 152:Generated_Source\PSoC4/RTC.h **** #define RTC_INITIAL_DST_STATUS      (0u)
 153:Generated_Source\PSoC4/RTC.h **** #define RTC_INITIAL_DST_DATE_TYPE   (0u)
 154:Generated_Source\PSoC4/RTC.h **** #define RTC_INITIAL_DST_START_MONTH (3uL)
 155:Generated_Source\PSoC4/RTC.h **** #define RTC_INITIAL_DST_START_WOM   (6uL)
 156:Generated_Source\PSoC4/RTC.h **** #define RTC_INITIAL_DST_START_DOM   (22uL)
 157:Generated_Source\PSoC4/RTC.h **** #define RTC_INITIAL_DST_START_DOW   (1uL)
 158:Generated_Source\PSoC4/RTC.h **** #define RTC_INITIAL_DST_START_HRS   (0uL)
 159:Generated_Source\PSoC4/RTC.h **** #define RTC_INITIAL_DST_STOP_MONTH  (10uL)
 160:Generated_Source\PSoC4/RTC.h **** #define RTC_INITIAL_DST_STOP_DOM    (22uL)
 161:Generated_Source\PSoC4/RTC.h **** #define RTC_INITIAL_DST_STOP_DOW    (1uL)
 162:Generated_Source\PSoC4/RTC.h **** #define RTC_INITIAL_DST_STOP_WOM    (6uL)
 163:Generated_Source\PSoC4/RTC.h **** #define RTC_INITIAL_DST_STOP_HRS    (0uL)
 164:Generated_Source\PSoC4/RTC.h **** 
 165:Generated_Source\PSoC4/RTC.h **** /* Day of week definitions */
 166:Generated_Source\PSoC4/RTC.h **** #define RTC_SUNDAY     (RTC__SUNDAY)
 167:Generated_Source\PSoC4/RTC.h **** #define RTC_MONDAY     (RTC__MONDAY)
 168:Generated_Source\PSoC4/RTC.h **** #define RTC_TUESDAY    (RTC__TUESDAY)
 169:Generated_Source\PSoC4/RTC.h **** #define RTC_WEDNESDAY  (RTC__WEDNESDAY)
 170:Generated_Source\PSoC4/RTC.h **** #define RTC_THURSDAY   (RTC__THURSDAY)
 171:Generated_Source\PSoC4/RTC.h **** #define RTC_FRIDAY     (RTC__FRIDAY)
 172:Generated_Source\PSoC4/RTC.h **** #define RTC_SATURDAY   (RTC__SATURDAY)
 173:Generated_Source\PSoC4/RTC.h **** 
 174:Generated_Source\PSoC4/RTC.h **** /* DST WeekOfMonth setting constants definitions */
 175:Generated_Source\PSoC4/RTC.h **** #define RTC_FIRST      (RTC__FIRST)
 176:Generated_Source\PSoC4/RTC.h **** #define RTC_SECOND     (RTC__SECOND)
 177:Generated_Source\PSoC4/RTC.h **** #define RTC_THIRD      (RTC__THIRD)
 178:Generated_Source\PSoC4/RTC.h **** #define RTC_FOURTH     (RTC__FOURTH)
 179:Generated_Source\PSoC4/RTC.h **** #define RTC_FIFTH      (RTC__FIFTH)
 180:Generated_Source\PSoC4/RTC.h **** #define RTC_LAST       (RTC__LAST)
 181:Generated_Source\PSoC4/RTC.h **** 
 182:Generated_Source\PSoC4/RTC.h **** /* Month definitions */
 183:Generated_Source\PSoC4/RTC.h **** #define RTC_JANUARY    (RTC__JAN)
 184:Generated_Source\PSoC4/RTC.h **** #define RTC_FEBRUARY   (RTC__FEB)
 185:Generated_Source\PSoC4/RTC.h **** #define RTC_MARCH      (RTC__MAR)
 186:Generated_Source\PSoC4/RTC.h **** #define RTC_APRIL      (RTC__APR)
 187:Generated_Source\PSoC4/RTC.h **** #define RTC_MAY        (RTC__MAY)
 188:Generated_Source\PSoC4/RTC.h **** #define RTC_JUNE       (RTC__JUN)
 189:Generated_Source\PSoC4/RTC.h **** #define RTC_JULY       (RTC__JUL)
 190:Generated_Source\PSoC4/RTC.h **** #define RTC_AUGUST     (RTC__AUG)
 191:Generated_Source\PSoC4/RTC.h **** #define RTC_SEPTEMBER  (RTC__SEP)
 192:Generated_Source\PSoC4/RTC.h **** #define RTC_OCTOBER    (RTC__OCT)
 193:Generated_Source\PSoC4/RTC.h **** #define RTC_NOVEMBER   (RTC__NOV)
 194:Generated_Source\PSoC4/RTC.h **** #define RTC_DECEMBER   (RTC__DEC)
 195:Generated_Source\PSoC4/RTC.h **** 
 196:Generated_Source\PSoC4/RTC.h **** #define RTC_DAYS_PER_WEEK       (7u)
ARM GAS  C:\Users\Petro\AppData\Local\Temp\ccv8NJOC.s 			page 22


 197:Generated_Source\PSoC4/RTC.h **** 
 198:Generated_Source\PSoC4/RTC.h **** /* Number of days in month definitions */
 199:Generated_Source\PSoC4/RTC.h **** #define RTC_DAYS_IN_JANUARY     (31u)
 200:Generated_Source\PSoC4/RTC.h **** #define RTC_DAYS_IN_FEBRUARY    (28u)
 201:Generated_Source\PSoC4/RTC.h **** #define RTC_DAYS_IN_MARCH       (31u)
 202:Generated_Source\PSoC4/RTC.h **** #define RTC_DAYS_IN_APRIL       (30u)
 203:Generated_Source\PSoC4/RTC.h **** #define RTC_DAYS_IN_MAY         (31u)
 204:Generated_Source\PSoC4/RTC.h **** #define RTC_DAYS_IN_JUNE        (30u)
 205:Generated_Source\PSoC4/RTC.h **** #define RTC_DAYS_IN_JULY        (31u)
 206:Generated_Source\PSoC4/RTC.h **** #define RTC_DAYS_IN_AUGUST      (31u)
 207:Generated_Source\PSoC4/RTC.h **** #define RTC_DAYS_IN_SEPTEMBER   (30u)
 208:Generated_Source\PSoC4/RTC.h **** #define RTC_DAYS_IN_OCTOBER     (31u)
 209:Generated_Source\PSoC4/RTC.h **** #define RTC_DAYS_IN_NOVEMBER    (30u)
 210:Generated_Source\PSoC4/RTC.h **** #define RTC_DAYS_IN_DECEMBER    (31u)
 211:Generated_Source\PSoC4/RTC.h **** 
 212:Generated_Source\PSoC4/RTC.h **** #define RTC_MONTHS_PER_YEAR     (12uL)
 213:Generated_Source\PSoC4/RTC.h **** 
 214:Generated_Source\PSoC4/RTC.h **** #define RTC_HOURS_PER_DAY       (24uL)
 215:Generated_Source\PSoC4/RTC.h **** #define RTC_HOURS_PER_HALF_DAY  (12uL)
 216:Generated_Source\PSoC4/RTC.h **** 
 217:Generated_Source\PSoC4/RTC.h **** #define RTC_SECONDS_PER_MINUTE  (60uL)
 218:Generated_Source\PSoC4/RTC.h **** #define RTC_SECONDS_PER_HOUR    (3600uL)
 219:Generated_Source\PSoC4/RTC.h **** #define RTC_SECONDS_PER_DAY     (24uL * 3600uL)
 220:Generated_Source\PSoC4/RTC.h **** 
 221:Generated_Source\PSoC4/RTC.h **** #define RTC_SECONDS_PER_LEAP_YEAR    (366uL * 24uL * 3600uL)
 222:Generated_Source\PSoC4/RTC.h **** #define RTC_SECONDS_PER_NONLEAP_YEAR (365uL * 24uL * 3600uL)
 223:Generated_Source\PSoC4/RTC.h **** 
 224:Generated_Source\PSoC4/RTC.h **** #define RTC_UNIX_TIME_PM   ((12uL * 3600uL) + 1uL)
 225:Generated_Source\PSoC4/RTC.h **** 
 226:Generated_Source\PSoC4/RTC.h **** /* AM/PM status definitions */
 227:Generated_Source\PSoC4/RTC.h **** #define RTC_AM                 (0u)
 228:Generated_Source\PSoC4/RTC.h **** #define RTC_PM                 (1u)
 229:Generated_Source\PSoC4/RTC.h **** 
 230:Generated_Source\PSoC4/RTC.h **** /* Time format definitions */
 231:Generated_Source\PSoC4/RTC.h **** #define RTC_12_HOURS_FORMAT    (RTC__HOUR_12)
 232:Generated_Source\PSoC4/RTC.h **** #define RTC_24_HOURS_FORMAT    (RTC__HOUR_24)
 233:Generated_Source\PSoC4/RTC.h **** 
 234:Generated_Source\PSoC4/RTC.h **** /* UNIX time begins in 1970 year.  */
 235:Generated_Source\PSoC4/RTC.h **** #define RTC_YEAR_0             (1970u)
 236:Generated_Source\PSoC4/RTC.h **** 
 237:Generated_Source\PSoC4/RTC.h **** /* Definition of date register fields */
 238:Generated_Source\PSoC4/RTC.h **** #if(RTC_INITIAL_DATA_FORMAT == RTC__MM_DD_YYYY)
 239:Generated_Source\PSoC4/RTC.h ****     #define RTC_10_MONTH_OFFSET   (28u)
 240:Generated_Source\PSoC4/RTC.h ****     #define RTC_MONTH_OFFSET      (24u)
 241:Generated_Source\PSoC4/RTC.h ****     #define RTC_10_DAY_OFFSET     (20u)
 242:Generated_Source\PSoC4/RTC.h ****     #define RTC_DAY_OFFSET        (16u)
 243:Generated_Source\PSoC4/RTC.h ****     #define RTC_1000_YEAR_OFFSET  (12u)
 244:Generated_Source\PSoC4/RTC.h ****     #define RTC_100_YEAR_OFFSET   (8u)
 245:Generated_Source\PSoC4/RTC.h ****     #define RTC_10_YEAR_OFFSET    (4u)
 246:Generated_Source\PSoC4/RTC.h ****     #define RTC_YEAR_OFFSET       (0u)
 247:Generated_Source\PSoC4/RTC.h **** #elif(RTC_INITIAL_DATA_FORMAT == RTC__DD_MM_YYYY)
 248:Generated_Source\PSoC4/RTC.h ****     #define RTC_10_MONTH_OFFSET   (20u)
 249:Generated_Source\PSoC4/RTC.h ****     #define RTC_MONTH_OFFSET      (16u)
 250:Generated_Source\PSoC4/RTC.h ****     #define RTC_10_DAY_OFFSET     (28u)
 251:Generated_Source\PSoC4/RTC.h ****     #define RTC_DAY_OFFSET        (24u)
 252:Generated_Source\PSoC4/RTC.h ****     #define RTC_1000_YEAR_OFFSET  (12u)
 253:Generated_Source\PSoC4/RTC.h ****     #define RTC_100_YEAR_OFFSET   (8u)
ARM GAS  C:\Users\Petro\AppData\Local\Temp\ccv8NJOC.s 			page 23


 254:Generated_Source\PSoC4/RTC.h ****     #define RTC_10_YEAR_OFFSET    (4u)
 255:Generated_Source\PSoC4/RTC.h ****     #define RTC_YEAR_OFFSET       (0u)
 256:Generated_Source\PSoC4/RTC.h **** #else
 257:Generated_Source\PSoC4/RTC.h ****     #define RTC_10_MONTH_OFFSET   (12u)
 258:Generated_Source\PSoC4/RTC.h ****     #define RTC_MONTH_OFFSET      (8u)
 259:Generated_Source\PSoC4/RTC.h ****     #define RTC_10_DAY_OFFSET     (4u)
 260:Generated_Source\PSoC4/RTC.h ****     #define RTC_DAY_OFFSET        (0u)
 261:Generated_Source\PSoC4/RTC.h ****     #define RTC_1000_YEAR_OFFSET  (28u)
 262:Generated_Source\PSoC4/RTC.h ****     #define RTC_100_YEAR_OFFSET   (24u)
 263:Generated_Source\PSoC4/RTC.h ****     #define RTC_10_YEAR_OFFSET    (20u)
 264:Generated_Source\PSoC4/RTC.h ****     #define RTC_YEAR_OFFSET       (16u)
 265:Generated_Source\PSoC4/RTC.h **** #endif /* (RTC_INITIAL_DATA_FORMAT == RTC__MM_DD_YYYY) */
 266:Generated_Source\PSoC4/RTC.h **** 
 267:Generated_Source\PSoC4/RTC.h **** #define RTC_10_MONTH_MASK          (0x00000001uL << RTC_10_MONTH_OFFSET)
 268:Generated_Source\PSoC4/RTC.h **** #define RTC_MONTH_MASK             (0x0000000FuL << RTC_MONTH_OFFSET)
 269:Generated_Source\PSoC4/RTC.h **** #define RTC_10_DAY_MASK            (0x00000003uL << RTC_10_DAY_OFFSET)
 270:Generated_Source\PSoC4/RTC.h **** #define RTC_DAY_MASK               (0x0000000FuL << RTC_DAY_OFFSET)
 271:Generated_Source\PSoC4/RTC.h **** #define RTC_1000_YEAR_MASK         (0x00000003uL << RTC_1000_YEAR_OFFSET)
 272:Generated_Source\PSoC4/RTC.h **** #define RTC_100_YEAR_MASK          (0x0000000FuL << RTC_100_YEAR_OFFSET)
 273:Generated_Source\PSoC4/RTC.h **** #define RTC_10_YEAR_MASK           (0x0000000FuL << RTC_10_YEAR_OFFSET)
 274:Generated_Source\PSoC4/RTC.h **** #define RTC_YEAR_MASK              (0x0000000FuL << RTC_YEAR_OFFSET)
 275:Generated_Source\PSoC4/RTC.h **** 
 276:Generated_Source\PSoC4/RTC.h **** #define  RTC_MONTH_FULL_MASK       (RTC_10_MONTH_MASK  | RTC_MONTH_MASK)
 277:Generated_Source\PSoC4/RTC.h **** #define  RTC_DAY_FULL_MASK         (RTC_10_DAY_MASK    | RTC_DAY_MASK)
 278:Generated_Source\PSoC4/RTC.h **** #define  RTC_YEAR_FULL_MASK        (RTC_1000_YEAR_MASK | RTC_100_YEAR_MASK |\
 279:Generated_Source\PSoC4/RTC.h ****                                                  RTC_10_YEAR_MASK   | RTC_YEAR_MASK)
 280:Generated_Source\PSoC4/RTC.h **** 
 281:Generated_Source\PSoC4/RTC.h **** 
 282:Generated_Source\PSoC4/RTC.h **** /* Definition of time register fields */
 283:Generated_Source\PSoC4/RTC.h **** #define RTC_TIME_FORMAT_OFFSET     (23u)
 284:Generated_Source\PSoC4/RTC.h **** #define RTC_PERIOD_OF_DAY_OFFSET   (22u)
 285:Generated_Source\PSoC4/RTC.h **** #define RTC_10_HOURS_OFFSET        (20u)
 286:Generated_Source\PSoC4/RTC.h **** #define RTC_HOURS_OFFSET           (16u)
 287:Generated_Source\PSoC4/RTC.h **** #define RTC_10_MINUTES_OFFSET      (12u)
 288:Generated_Source\PSoC4/RTC.h **** #define RTC_MINUTES_OFFSET         (8u)
 289:Generated_Source\PSoC4/RTC.h **** #define RTC_10_SECONDS_OFFSET      (4u)
 290:Generated_Source\PSoC4/RTC.h **** #define RTC_SECONDS_OFFSET         (0u)
 291:Generated_Source\PSoC4/RTC.h **** 
 292:Generated_Source\PSoC4/RTC.h **** #define RTC_TIME_FORMAT_MASK       (0x00000001uL << RTC_TIME_FORMAT_OFFSET)
 293:Generated_Source\PSoC4/RTC.h **** #define RTC_PERIOD_OF_DAY_MASK     (0x00000001uL << RTC_PERIOD_OF_DAY_OFFSET)
 294:Generated_Source\PSoC4/RTC.h **** #define RTC_10_HOURS_MASK          (0x00000003uL << RTC_10_HOURS_OFFSET)
 295:Generated_Source\PSoC4/RTC.h **** #define RTC_HOURS_MASK             (0x0000000FuL << RTC_HOURS_OFFSET)
 296:Generated_Source\PSoC4/RTC.h **** #define RTC_10_MINUTES_MASK        (0x00000007uL << RTC_10_MINUTES_OFFSET)
 297:Generated_Source\PSoC4/RTC.h **** #define RTC_MINUTES_MASK           (0x0000000FuL << RTC_MINUTES_OFFSET)
 298:Generated_Source\PSoC4/RTC.h **** #define RTC_10_SECONDS_MASK        (0x00000007uL << RTC_10_SECONDS_OFFSET)
 299:Generated_Source\PSoC4/RTC.h **** #define RTC_SECONDS_MASK           (0x0000000FuL << RTC_SECONDS_OFFSET)
 300:Generated_Source\PSoC4/RTC.h **** 
 301:Generated_Source\PSoC4/RTC.h **** #define RTC_HOURS_FULL_MASK        (RTC_10_HOURS_MASK   | RTC_HOURS_MASK)
 302:Generated_Source\PSoC4/RTC.h **** #define RTC_MINUTES_FULL_MASK      (RTC_10_MINUTES_MASK | RTC_MINUTES_MASK)
 303:Generated_Source\PSoC4/RTC.h **** #define RTC_SECONDS_FULL_MASK      (RTC_10_SECONDS_MASK | RTC_SECONDS_MASK)
 304:Generated_Source\PSoC4/RTC.h **** 
 305:Generated_Source\PSoC4/RTC.h **** #define RTC_ALARM_SEC_MASK         (0x00000001uL)
 306:Generated_Source\PSoC4/RTC.h **** #define RTC_ALARM_MIN_MASK         (0x00000002uL)
 307:Generated_Source\PSoC4/RTC.h **** #define RTC_ALARM_HOUR_MASK        (0x00000004uL)
 308:Generated_Source\PSoC4/RTC.h **** #define RTC_ALARM_DAYOFWEEK_MASK   (0x00000008uL)
 309:Generated_Source\PSoC4/RTC.h **** #define RTC_ALARM_DAYOFMONTH_MASK  (0x00000010uL)
 310:Generated_Source\PSoC4/RTC.h **** #define RTC_ALARM_MONTH_MASK       (0x00000020uL)
ARM GAS  C:\Users\Petro\AppData\Local\Temp\ccv8NJOC.s 			page 24


 311:Generated_Source\PSoC4/RTC.h **** #define RTC_ALARM_YEAR_MASK        (0x00000040uL)
 312:Generated_Source\PSoC4/RTC.h **** 
 313:Generated_Source\PSoC4/RTC.h **** #define RTC_STATUS_DST_OFFSET      (1u)
 314:Generated_Source\PSoC4/RTC.h **** #define RTC_STATUS_ALARM_OFFSET    (2u)
 315:Generated_Source\PSoC4/RTC.h **** #define RTC_STATUS_LY_OFFSET       (3u)
 316:Generated_Source\PSoC4/RTC.h **** #define RTC_STATUS_AM_PM_OFFSET    (4u)
 317:Generated_Source\PSoC4/RTC.h **** 
 318:Generated_Source\PSoC4/RTC.h **** /* Definition of the RTC status values. */
 319:Generated_Source\PSoC4/RTC.h **** #define RTC_STATUS_DST             (1uL << RTC_STATUS_DST_OFFSET)
 320:Generated_Source\PSoC4/RTC.h **** #define RTC_STATUS_LY              (1uL << RTC_STATUS_LY_OFFSET)
 321:Generated_Source\PSoC4/RTC.h **** #define RTC_STATUS_AM_PM           (1uL << RTC_STATUS_AM_PM_OFFSET)
 322:Generated_Source\PSoC4/RTC.h **** 
 323:Generated_Source\PSoC4/RTC.h **** /* Number of bits per one BCD digit. */
 324:Generated_Source\PSoC4/RTC.h **** #define RTC_BCD_NUMBER_SIZE        (4u)
 325:Generated_Source\PSoC4/RTC.h **** #define RTC_BCD_ONE_DIGIT_MASK     (0x0000000FuL)
 326:Generated_Source\PSoC4/RTC.h **** 
 327:Generated_Source\PSoC4/RTC.h **** /*******************************************************************************
 328:Generated_Source\PSoC4/RTC.h **** *    Function Prototypes
 329:Generated_Source\PSoC4/RTC.h **** *******************************************************************************/
 330:Generated_Source\PSoC4/RTC.h **** /**
 331:Generated_Source\PSoC4/RTC.h **** * \addtogroup group_api
 332:Generated_Source\PSoC4/RTC.h **** * @{
 333:Generated_Source\PSoC4/RTC.h **** */
 334:Generated_Source\PSoC4/RTC.h **** void   RTC_Start(void);
 335:Generated_Source\PSoC4/RTC.h **** void   RTC_Stop(void);
 336:Generated_Source\PSoC4/RTC.h **** void   RTC_Init(void);
 337:Generated_Source\PSoC4/RTC.h **** void   RTC_SetUnixTime(uint64 unixTime);
 338:Generated_Source\PSoC4/RTC.h **** uint64 RTC_GetUnixTime(void);
 339:Generated_Source\PSoC4/RTC.h **** void   RTC_SetPeriod(uint32 ticks, uint32 refOneSecTicks);
 340:Generated_Source\PSoC4/RTC.h **** uint32 RTC_GetPeriod(void);
 341:Generated_Source\PSoC4/RTC.h **** uint32 RTC_GetRefOneSec(void);
 342:Generated_Source\PSoC4/RTC.h **** void   RTC_SetDateAndTime(uint32 inputTime, uint32 inputDate);
 343:Generated_Source\PSoC4/RTC.h **** void   RTC_GetDateAndTime(RTC_DATE_TIME* dateTime);
 344:Generated_Source\PSoC4/RTC.h **** uint32 RTC_GetTime(void);
 345:Generated_Source\PSoC4/RTC.h **** uint32 RTC_GetDate(void);
 346:Generated_Source\PSoC4/RTC.h **** void   RTC_SetAlarmDateAndTime(const RTC_DATE_TIME* alarmTime);
 347:Generated_Source\PSoC4/RTC.h **** void   RTC_GetAlarmDateAndTime(RTC_DATE_TIME* alarmTimeDate);
 348:Generated_Source\PSoC4/RTC.h **** void   RTC_SetAlarmMask(uint32 mask);
 349:Generated_Source\PSoC4/RTC.h **** uint32 RTC_GetAlarmMask(void);
 350:Generated_Source\PSoC4/RTC.h **** uint32 RTC_ReadStatus(void);
 351:Generated_Source\PSoC4/RTC.h **** uint32 RTC_GetAlarmStatus(void);
 352:Generated_Source\PSoC4/RTC.h **** void   RTC_ClearAlarmStatus(void);
 353:Generated_Source\PSoC4/RTC.h **** void   RTC_SetDSTStartTime(const RTC_DST_TIME* dstStartTime,
 354:Generated_Source\PSoC4/RTC.h ****                                               RTC_DST_DATETYPE_ENUM type);
 355:Generated_Source\PSoC4/RTC.h **** void   RTC_SetDSTStopTime(const RTC_DST_TIME* dstStopTime,
 356:Generated_Source\PSoC4/RTC.h ****                                              RTC_DST_DATETYPE_ENUM type);
 357:Generated_Source\PSoC4/RTC.h **** uint32 RTC_ConvertBCDToDec(uint32 bcdNum);
 358:Generated_Source\PSoC4/RTC.h **** uint32 RTC_ConvertDecToBCD(uint32 decNum);
 359:Generated_Source\PSoC4/RTC.h **** void   RTC_Update(void);
 360:Generated_Source\PSoC4/RTC.h **** void*  RTC_SetAlarmHandler(void (*CallbackFunction)(void));
 361:Generated_Source\PSoC4/RTC.h **** 
 362:Generated_Source\PSoC4/RTC.h **** static uint32 RTC_ConstructDate(uint32 month, uint32 day, uint32 year);
 363:Generated_Source\PSoC4/RTC.h **** static uint32 RTC_ConstructTime(uint32 timeFormat, uint32 stateAmPm, uint32 hour, uint32 min, uint3
 364:Generated_Source\PSoC4/RTC.h **** /** @} api */
 365:Generated_Source\PSoC4/RTC.h **** 
 366:Generated_Source\PSoC4/RTC.h **** static uint32 RTC_GetTimeFormat(uint32 inputTime);
 367:Generated_Source\PSoC4/RTC.h **** static uint32 RTC_SetTimeFormat(uint32 inputTime, uint32 timeFormat);
ARM GAS  C:\Users\Petro\AppData\Local\Temp\ccv8NJOC.s 			page 25


 368:Generated_Source\PSoC4/RTC.h **** 
 369:Generated_Source\PSoC4/RTC.h **** /**
 370:Generated_Source\PSoC4/RTC.h **** * \addtogroup group_api
 371:Generated_Source\PSoC4/RTC.h **** * @{
 372:Generated_Source\PSoC4/RTC.h **** */
 373:Generated_Source\PSoC4/RTC.h **** static uint32 RTC_LeapYear(uint32 year);
 374:Generated_Source\PSoC4/RTC.h **** static uint32 RTC_IsBitSet(uint32 var, uint32 mask);
 375:Generated_Source\PSoC4/RTC.h **** static uint32 RTC_GetSecond(uint32 inputTime);
 376:Generated_Source\PSoC4/RTC.h **** static uint32 RTC_GetMinutes(uint32 inputTime);
 377:Generated_Source\PSoC4/RTC.h **** static uint32 RTC_GetHours(uint32 inputTime);
 378:Generated_Source\PSoC4/RTC.h **** static uint32 RTC_GetAmPm(uint32 inputTime);
 379:Generated_Source\PSoC4/RTC.h **** static uint32 RTC_GetDay(uint32 date);
 380:Generated_Source\PSoC4/RTC.h **** static uint32 RTC_GetMonth(uint32 date);
 381:Generated_Source\PSoC4/RTC.h **** static uint32 RTC_GetYear(uint32 date);
 382:Generated_Source\PSoC4/RTC.h **** /** @} api */
 383:Generated_Source\PSoC4/RTC.h **** 
 384:Generated_Source\PSoC4/RTC.h **** static uint32 RTC_SetSecond(uint32 inputTime, uint32 inputSecond);
 385:Generated_Source\PSoC4/RTC.h **** static uint32 RTC_SetMinutes(uint32 inputTime, uint32 inputMinute);
 386:Generated_Source\PSoC4/RTC.h **** static uint32 RTC_SetHours(uint32 inputTime, uint32 inputHours);
 387:Generated_Source\PSoC4/RTC.h **** static uint32 RTC_SetAmPm(uint32 inputTime, uint32 periodOfDay);
 388:Generated_Source\PSoC4/RTC.h **** static uint32 RTC_SetDay(uint32 inputDate, uint32 inputDay);
 389:Generated_Source\PSoC4/RTC.h **** static uint32 RTC_SetMonth(uint32 inputDate, uint32 inputMonth);
 390:Generated_Source\PSoC4/RTC.h **** static uint32 RTC_SetYear(uint32 inputDate, uint32 inputYear);
 391:Generated_Source\PSoC4/RTC.h **** 
 392:Generated_Source\PSoC4/RTC.h **** uint64 RTC_ConstructUnixAlarmTime(const RTC_DATE_TIME* alarmTime, uint8 alarmCfgMask);
 393:Generated_Source\PSoC4/RTC.h **** uint64 RTC_GetDstUnixTime(const RTC_DST_TIME* dstTime);
 394:Generated_Source\PSoC4/RTC.h **** uint64 RTC_GetNexAlarmTime(uint64 curUnixTime, uint8 alarmCfgMask);
 395:Generated_Source\PSoC4/RTC.h **** 
 396:Generated_Source\PSoC4/RTC.h **** static uint32 RTC_GetNextMinSec(uint32 curVal);
 397:Generated_Source\PSoC4/RTC.h **** static uint32 RTC_GetNextHour(uint32 curVal);
 398:Generated_Source\PSoC4/RTC.h **** static uint32 RTC_GetNextDay(uint32 curYear, uint32 curMonth, uint32 curDay, uint32 alarmCfgMask);
 399:Generated_Source\PSoC4/RTC.h **** static uint32 RTC_GetNextMonth(uint32 curMonth);
 400:Generated_Source\PSoC4/RTC.h **** static uint32 RTC_GetNextYear(uint32 curYear);
 401:Generated_Source\PSoC4/RTC.h **** static uint32 RTC_GetDayOfWeek(uint32 day, uint32 month, uint32 year);
 402:Generated_Source\PSoC4/RTC.h **** 
 403:Generated_Source\PSoC4/RTC.h **** uint32 RTC_DaysInMonth(uint32 month, uint32 year);
 404:Generated_Source\PSoC4/RTC.h **** uint32 RTC_DaysBeforeMonth(uint32 month, uint32 year);
 405:Generated_Source\PSoC4/RTC.h **** 
 406:Generated_Source\PSoC4/RTC.h **** /**
 407:Generated_Source\PSoC4/RTC.h **** * \addtogroup group_api
 408:Generated_Source\PSoC4/RTC.h **** * @{
 409:Generated_Source\PSoC4/RTC.h **** */
 410:Generated_Source\PSoC4/RTC.h **** void   RTC_UnixToDateTime(RTC_DATE_TIME* dateTime, uint64 unixTime, uint32 timeFormat);
 411:Generated_Source\PSoC4/RTC.h **** uint64 RTC_DateTimeToUnix(uint32 inputDate, uint32 inputTime);
 412:Generated_Source\PSoC4/RTC.h **** /** @} api */
 413:Generated_Source\PSoC4/RTC.h **** 
 414:Generated_Source\PSoC4/RTC.h **** uint32 RTC_RelativeToFixed(uint32 dayOfWeek, uint32 weekOfMonth, uint32 month, uint32 year);
 415:Generated_Source\PSoC4/RTC.h **** 
 416:Generated_Source\PSoC4/RTC.h **** 
 417:Generated_Source\PSoC4/RTC.h **** #if defined(CYDEV_RTC_SOURCE_WDT)
 418:Generated_Source\PSoC4/RTC.h ****     #if((0u != CYDEV_WDT_GENERATE_ISR) && (0u == RTC_INITIAL_UPDATE_MODE))
 419:Generated_Source\PSoC4/RTC.h ****         static void RTC_CySysRtcSetCallback(uint32 wdtNumber);
 420:Generated_Source\PSoC4/RTC.h ****         static void RTC_CySysRtcResetCallback(uint32 wdtNumber);
 421:Generated_Source\PSoC4/RTC.h ****     #endif /* ((0u != CYDEV_WDT_GENERATE_ISR) && (0u == RTC_INITIAL_UPDATE_MODE)) */
 422:Generated_Source\PSoC4/RTC.h **** #endif /* (CYDEV_RTC_SOURCE_WDT) */
 423:Generated_Source\PSoC4/RTC.h **** 
 424:Generated_Source\PSoC4/RTC.h **** /*******************************************************************************
ARM GAS  C:\Users\Petro\AppData\Local\Temp\ccv8NJOC.s 			page 26


 425:Generated_Source\PSoC4/RTC.h **** * Function Name: RTC_IsBitSet
 426:Generated_Source\PSoC4/RTC.h **** ****************************************************************************//**
 427:Generated_Source\PSoC4/RTC.h **** *
 428:Generated_Source\PSoC4/RTC.h **** * \brief
 429:Generated_Source\PSoC4/RTC.h **** *  Checks the state of a bit passed through parameter.
 430:Generated_Source\PSoC4/RTC.h **** *
 431:Generated_Source\PSoC4/RTC.h **** * \param
 432:Generated_Source\PSoC4/RTC.h **** *  var The variable to be checked.
 433:Generated_Source\PSoC4/RTC.h **** * \param
 434:Generated_Source\PSoC4/RTC.h **** *  mask The mask for a bit to be checked.
 435:Generated_Source\PSoC4/RTC.h **** *
 436:Generated_Source\PSoC4/RTC.h **** * \return
 437:Generated_Source\PSoC4/RTC.h **** *  0u - Bit is not set.
 438:Generated_Source\PSoC4/RTC.h **** * \return
 439:Generated_Source\PSoC4/RTC.h **** *  1u - Bit is set.
 440:Generated_Source\PSoC4/RTC.h **** *
 441:Generated_Source\PSoC4/RTC.h **** *******************************************************************************/
 442:Generated_Source\PSoC4/RTC.h **** static CY_INLINE uint32 RTC_IsBitSet(uint32 var, uint32 mask)
 443:Generated_Source\PSoC4/RTC.h **** {
 444:Generated_Source\PSoC4/RTC.h ****     return ((mask == (var & mask)) ? 1Lu : 0Lu);
 445:Generated_Source\PSoC4/RTC.h **** }
 446:Generated_Source\PSoC4/RTC.h **** 
 447:Generated_Source\PSoC4/RTC.h **** 
 448:Generated_Source\PSoC4/RTC.h **** /*******************************************************************************
 449:Generated_Source\PSoC4/RTC.h **** * Function Name: RTC_LeapYear
 450:Generated_Source\PSoC4/RTC.h **** ****************************************************************************//**
 451:Generated_Source\PSoC4/RTC.h **** *
 452:Generated_Source\PSoC4/RTC.h **** * \brief
 453:Generated_Source\PSoC4/RTC.h **** * Checks whether the year passed through the parameter is
 454:Generated_Source\PSoC4/RTC.h **** * leap or no.
 455:Generated_Source\PSoC4/RTC.h **** *
 456:Generated_Source\PSoC4/RTC.h **** * \param
 457:Generated_Source\PSoC4/RTC.h **** *  year The year to be checked.
 458:Generated_Source\PSoC4/RTC.h **** *
 459:Generated_Source\PSoC4/RTC.h **** *
 460:Generated_Source\PSoC4/RTC.h **** * \return
 461:Generated_Source\PSoC4/RTC.h **** *  0u - The year is not leap.
 462:Generated_Source\PSoC4/RTC.h **** * \return
 463:Generated_Source\PSoC4/RTC.h **** *  1u - The year is leap.
 464:Generated_Source\PSoC4/RTC.h **** *
 465:Generated_Source\PSoC4/RTC.h **** *******************************************************************************/
 466:Generated_Source\PSoC4/RTC.h **** static CY_INLINE uint32 RTC_LeapYear(uint32 year)
 467:Generated_Source\PSoC4/RTC.h **** {
 468:Generated_Source\PSoC4/RTC.h ****     uint32 retVal;
 469:Generated_Source\PSoC4/RTC.h **** 
 470:Generated_Source\PSoC4/RTC.h ****     if(((0u == (year % 4Lu)) && (0u != (year % 100Lu))) || (0u == (year % 400Lu)))
 471:Generated_Source\PSoC4/RTC.h ****     {
 472:Generated_Source\PSoC4/RTC.h ****         retVal = 1uL;
 473:Generated_Source\PSoC4/RTC.h ****     }
 474:Generated_Source\PSoC4/RTC.h ****     else
 475:Generated_Source\PSoC4/RTC.h ****     {
 476:Generated_Source\PSoC4/RTC.h ****         retVal = 0uL;
 477:Generated_Source\PSoC4/RTC.h ****     }
 478:Generated_Source\PSoC4/RTC.h **** 
 479:Generated_Source\PSoC4/RTC.h ****     return(retVal);
 480:Generated_Source\PSoC4/RTC.h **** }
 481:Generated_Source\PSoC4/RTC.h **** 
ARM GAS  C:\Users\Petro\AppData\Local\Temp\ccv8NJOC.s 			page 27


 482:Generated_Source\PSoC4/RTC.h **** 
 483:Generated_Source\PSoC4/RTC.h **** /*******************************************************************************
 484:Generated_Source\PSoC4/RTC.h **** * Function Name: RTC_GetSecond
 485:Generated_Source\PSoC4/RTC.h **** ****************************************************************************//**
 486:Generated_Source\PSoC4/RTC.h **** *
 487:Generated_Source\PSoC4/RTC.h **** * \brief
 488:Generated_Source\PSoC4/RTC.h **** *  Returns the seconds value from the time value that is passed as a/the parameter.
 489:Generated_Source\PSoC4/RTC.h **** *
 490:Generated_Source\PSoC4/RTC.h **** * \param
 491:Generated_Source\PSoC4/RTC.h **** *  time The time value.
 492:Generated_Source\PSoC4/RTC.h **** *
 493:Generated_Source\PSoC4/RTC.h **** * \return
 494:Generated_Source\PSoC4/RTC.h **** *  The seconds value.
 495:Generated_Source\PSoC4/RTC.h **** *
 496:Generated_Source\PSoC4/RTC.h **** *******************************************************************************/
 497:Generated_Source\PSoC4/RTC.h **** static CY_INLINE uint32 RTC_GetSecond(uint32 inputTime)
 498:Generated_Source\PSoC4/RTC.h **** {
 499:Generated_Source\PSoC4/RTC.h ****     uint32 retVal;
 500:Generated_Source\PSoC4/RTC.h **** 
 501:Generated_Source\PSoC4/RTC.h ****     retVal  = ((inputTime & RTC_10_SECONDS_MASK) >> RTC_10_SECONDS_OFFSET) * 10u;
 502:Generated_Source\PSoC4/RTC.h ****     retVal += (inputTime & RTC_SECONDS_MASK) >> RTC_SECONDS_OFFSET;
 503:Generated_Source\PSoC4/RTC.h **** 
 504:Generated_Source\PSoC4/RTC.h ****     return (retVal);
 505:Generated_Source\PSoC4/RTC.h **** }
 506:Generated_Source\PSoC4/RTC.h **** 
 507:Generated_Source\PSoC4/RTC.h **** 
 508:Generated_Source\PSoC4/RTC.h **** /*******************************************************************************
 509:Generated_Source\PSoC4/RTC.h **** * Function Name: RTC_GetMinutes
 510:Generated_Source\PSoC4/RTC.h **** ****************************************************************************//**
 511:Generated_Source\PSoC4/RTC.h **** *
 512:Generated_Source\PSoC4/RTC.h **** * \brief
 513:Generated_Source\PSoC4/RTC.h **** *  Returns the minutes value from the time value that is passed as a/the 
 514:Generated_Source\PSoC4/RTC.h **** * parameter.
 515:Generated_Source\PSoC4/RTC.h **** *
 516:Generated_Source\PSoC4/RTC.h **** * \param
 517:Generated_Source\PSoC4/RTC.h **** *  time The time value.
 518:Generated_Source\PSoC4/RTC.h **** *
 519:Generated_Source\PSoC4/RTC.h **** * \return
 520:Generated_Source\PSoC4/RTC.h **** *  The minutes value.
 521:Generated_Source\PSoC4/RTC.h **** *
 522:Generated_Source\PSoC4/RTC.h **** *******************************************************************************/
 523:Generated_Source\PSoC4/RTC.h **** static CY_INLINE uint32 RTC_GetMinutes(uint32 inputTime)
 524:Generated_Source\PSoC4/RTC.h **** {
 525:Generated_Source\PSoC4/RTC.h ****     uint32 retVal;
 526:Generated_Source\PSoC4/RTC.h **** 
 527:Generated_Source\PSoC4/RTC.h ****     retVal  = ((inputTime & RTC_10_MINUTES_MASK) >> RTC_10_MINUTES_OFFSET) * 10u;
 528:Generated_Source\PSoC4/RTC.h ****     retVal += (inputTime & RTC_MINUTES_MASK) >> RTC_MINUTES_OFFSET;
 529:Generated_Source\PSoC4/RTC.h **** 
 530:Generated_Source\PSoC4/RTC.h ****     return (retVal);
 531:Generated_Source\PSoC4/RTC.h **** }
 532:Generated_Source\PSoC4/RTC.h **** 
 533:Generated_Source\PSoC4/RTC.h **** 
 534:Generated_Source\PSoC4/RTC.h **** /*******************************************************************************
 535:Generated_Source\PSoC4/RTC.h **** * Function Name: RTC_GetHours
 536:Generated_Source\PSoC4/RTC.h **** ****************************************************************************//**
 537:Generated_Source\PSoC4/RTC.h **** *
 538:Generated_Source\PSoC4/RTC.h **** * \brief
ARM GAS  C:\Users\Petro\AppData\Local\Temp\ccv8NJOC.s 			page 28


 539:Generated_Source\PSoC4/RTC.h **** *  Returns the hours value from the time value that is passed as a/the parameter.
 540:Generated_Source\PSoC4/RTC.h **** *
 541:Generated_Source\PSoC4/RTC.h **** * \param
 542:Generated_Source\PSoC4/RTC.h **** *  time The time value.
 543:Generated_Source\PSoC4/RTC.h **** *
 544:Generated_Source\PSoC4/RTC.h **** * \return
 545:Generated_Source\PSoC4/RTC.h **** *  The hours value.
 546:Generated_Source\PSoC4/RTC.h **** *
 547:Generated_Source\PSoC4/RTC.h **** *******************************************************************************/
 548:Generated_Source\PSoC4/RTC.h **** static CY_INLINE uint32 RTC_GetHours(uint32 inputTime)
 549:Generated_Source\PSoC4/RTC.h **** {
 550:Generated_Source\PSoC4/RTC.h ****     uint32 retVal;
 551:Generated_Source\PSoC4/RTC.h **** 
 552:Generated_Source\PSoC4/RTC.h ****     retVal  = ((inputTime & RTC_10_HOURS_MASK) >> RTC_10_HOURS_OFFSET) * 10u;
 702              		.loc 2 552 0
 703 001c C025     		mov	r5, #192
 704 001e 1A1C     		mov	r2, r3
 705 0020 0A24     		mov	r4, #10
 706 0022 AD03     		lsl	r5, r5, #14
 707 0024 2A40     		and	r2, r5
 708 0026 120D     		lsr	r2, r2, #20
 709 0028 6243     		mul	r2, r4
 710 002a 171C     		mov	r7, r2
 711              	.LVL50:
 553:Generated_Source\PSoC4/RTC.h ****     retVal += (inputTime & RTC_HOURS_MASK) >> RTC_HOURS_OFFSET;
 712              		.loc 2 553 0
 713 002c F022     		mov	r2, #240
 714              	.LVL51:
 715 002e 1203     		lsl	r2, r2, #12
 716 0030 1A40     		and	r2, r3
 717              	.LBE34:
 718              	.LBE33:
 719              		.loc 1 239 0
 720 0032 3849     		ldr	r1, .L74
 721              	.LBB36:
 722              	.LBB35:
 723              		.loc 2 553 0
 724 0034 100C     		lsr	r0, r2, #16
 725 0036 3A18     		add	r2, r7, r0
 726              	.LBE35:
 727              	.LBE36:
 728              		.loc 1 239 0
 729 0038 0A80     		strh	r2, [r1]
 730              	.LVL52:
 731              	.LBB37:
 732              	.LBB38:
 527:Generated_Source\PSoC4/RTC.h ****     retVal += (inputTime & RTC_MINUTES_MASK) >> RTC_MINUTES_OFFSET;
 733              		.loc 2 527 0
 734 003a E022     		mov	r2, #224
 735 003c D201     		lsl	r2, r2, #7
 736 003e 1A40     		and	r2, r3
 737 0040 120B     		lsr	r2, r2, #12
 738 0042 6243     		mul	r2, r4
 739 0044 171C     		mov	r7, r2
 740              	.LVL53:
 528:Generated_Source\PSoC4/RTC.h **** 
 741              		.loc 2 528 0
ARM GAS  C:\Users\Petro\AppData\Local\Temp\ccv8NJOC.s 			page 29


 742 0046 F022     		mov	r2, #240
 743              	.LVL54:
 744 0048 1201     		lsl	r2, r2, #4
 745 004a 1A40     		and	r2, r3
 746 004c 100A     		lsr	r0, r2, #8
 747 004e 3A18     		add	r2, r7, r0
 748              	.LBE38:
 749              	.LBE37:
 240:lib_BLE/bluetooth.c ****     sendBufferStart[BLE_SEND_MIN] = RTC_GetMinutes(time.time);
 750              		.loc 1 240 0
 751 0050 4A80     		strh	r2, [r1, #2]
 752              	.LVL55:
 753              	.LBB39:
 754              	.LBB40:
 501:Generated_Source\PSoC4/RTC.h ****     retVal += (inputTime & RTC_SECONDS_MASK) >> RTC_SECONDS_OFFSET;
 755              		.loc 2 501 0
 756 0052 7022     		mov	r2, #112
 502:Generated_Source\PSoC4/RTC.h **** 
 757              		.loc 2 502 0
 758 0054 0F27     		mov	r7, #15
 759              	.LVL56:
 501:Generated_Source\PSoC4/RTC.h ****     retVal += (inputTime & RTC_SECONDS_MASK) >> RTC_SECONDS_OFFSET;
 760              		.loc 2 501 0
 761 0056 1A40     		and	r2, r3
 762 0058 1209     		lsr	r2, r2, #4
 763 005a 6243     		mul	r2, r4
 764              	.LVL57:
 502:Generated_Source\PSoC4/RTC.h **** 
 765              		.loc 2 502 0
 766 005c 3B40     		and	r3, r7
 767              	.LVL58:
 768 005e D318     		add	r3, r2, r3
 769              	.LVL59:
 770              	.LBE40:
 771              	.LBE39:
 241:lib_BLE/bluetooth.c ****     sendBufferStart[BLE_SEND_SEC] = RTC_GetSecond(time.time);
 772              		.loc 1 241 0
 773 0060 8B80     		strh	r3, [r1, #4]
 242:lib_BLE/bluetooth.c ****     sendBufferStart[BLE_SEND_MS] = data->millsStartSkier;
 774              		.loc 1 242 0
 775 0062 3389     		ldrh	r3, [r6, #8]
 776              	.LVL60:
 243:lib_BLE/bluetooth.c ****     
 244:lib_BLE/bluetooth.c ****     RTC_UnixToDateTime(&time, data->unixFinishSkier, RTC_24_HOURS_FORMAT);
 777              		.loc 1 244 0
 778 0064 06A8     		add	r0, sp, #24
 779              	.LVL61:
 242:lib_BLE/bluetooth.c ****     sendBufferStart[BLE_SEND_MS] = data->millsStartSkier;
 780              		.loc 1 242 0
 781 0066 CB80     		strh	r3, [r1, #6]
 782              		.loc 1 244 0
 783 0068 0023     		mov	r3, #0
 784 006a 0093     		str	r3, [sp]
 785 006c 3269     		ldr	r2, [r6, #16]
 786 006e 7369     		ldr	r3, [r6, #20]
 787              	.LVL62:
 788 0070 FFF7FEFF 		bl	RTC_UnixToDateTime
ARM GAS  C:\Users\Petro\AppData\Local\Temp\ccv8NJOC.s 			page 30


 789              	.LVL63:
 790              	.LBB41:
 791              	.LBB42:
 792              		.loc 2 553 0
 793 0074 F023     		mov	r3, #240
 794              	.LBE42:
 795              	.LBE41:
 245:lib_BLE/bluetooth.c ****     sendBufferFinish[BLE_SEND_HOUR] = RTC_GetHours(time.time);
 796              		.loc 1 245 0
 797 0076 069A     		ldr	r2, [sp, #24]
 798              	.LVL64:
 799              	.LBB44:
 800              	.LBB43:
 801              		.loc 2 553 0
 802 0078 1B03     		lsl	r3, r3, #12
 552:Generated_Source\PSoC4/RTC.h ****     retVal += (inputTime & RTC_HOURS_MASK) >> RTC_HOURS_OFFSET;
 803              		.loc 2 552 0
 804 007a 1540     		and	r5, r2
 805 007c 2D0D     		lsr	r5, r5, #20
 806 007e 6543     		mul	r5, r4
 807              	.LVL65:
 808              		.loc 2 553 0
 809 0080 1340     		and	r3, r2
 810 0082 1B0C     		lsr	r3, r3, #16
 811 0084 ED18     		add	r5, r5, r3
 812              	.LVL66:
 813              	.LBE43:
 814              	.LBE44:
 815              	.LBB45:
 816              	.LBB46:
 527:Generated_Source\PSoC4/RTC.h ****     retVal += (inputTime & RTC_MINUTES_MASK) >> RTC_MINUTES_OFFSET;
 817              		.loc 2 527 0
 818 0086 E023     		mov	r3, #224
 819 0088 DB01     		lsl	r3, r3, #7
 820 008a 1340     		and	r3, r2
 821 008c 1B0B     		lsr	r3, r3, #12
 822 008e 6343     		mul	r3, r4
 823              	.LBE46:
 824              	.LBE45:
 825              		.loc 1 245 0
 826 0090 2149     		ldr	r1, .L74+4
 827              	.LBB48:
 828              	.LBB49:
 502:Generated_Source\PSoC4/RTC.h **** 
 829              		.loc 2 502 0
 830 0092 1740     		and	r7, r2
 831              	.LBE49:
 832              	.LBE48:
 833              		.loc 1 245 0
 834 0094 0D80     		strh	r5, [r1]
 835              	.LVL67:
 836              	.LBB51:
 837              	.LBB47:
 527:Generated_Source\PSoC4/RTC.h ****     retVal += (inputTime & RTC_MINUTES_MASK) >> RTC_MINUTES_OFFSET;
 838              		.loc 2 527 0
 839 0096 1D1C     		mov	r5, r3
 840              	.LVL68:
ARM GAS  C:\Users\Petro\AppData\Local\Temp\ccv8NJOC.s 			page 31


 528:Generated_Source\PSoC4/RTC.h **** 
 841              		.loc 2 528 0
 842 0098 F023     		mov	r3, #240
 843              	.LVL69:
 844 009a 1B01     		lsl	r3, r3, #4
 845 009c 1340     		and	r3, r2
 846 009e 180A     		lsr	r0, r3, #8
 847 00a0 2B18     		add	r3, r5, r0
 848              	.LBE47:
 849              	.LBE51:
 246:lib_BLE/bluetooth.c ****     sendBufferFinish[BLE_SEND_MIN] = RTC_GetMinutes(time.time);
 850              		.loc 1 246 0
 851 00a2 4B80     		strh	r3, [r1, #2]
 852              	.LVL70:
 853              	.LBB52:
 854              	.LBB50:
 501:Generated_Source\PSoC4/RTC.h ****     retVal += (inputTime & RTC_SECONDS_MASK) >> RTC_SECONDS_OFFSET;
 855              		.loc 2 501 0
 856 00a4 7023     		mov	r3, #112
 857 00a6 1340     		and	r3, r2
 858 00a8 1B09     		lsr	r3, r3, #4
 859 00aa 6343     		mul	r3, r4
 860              	.LVL71:
 502:Generated_Source\PSoC4/RTC.h **** 
 861              		.loc 2 502 0
 862 00ac DB19     		add	r3, r3, r7
 863              	.LVL72:
 864              	.LBE50:
 865              	.LBE52:
 247:lib_BLE/bluetooth.c ****     sendBufferFinish[BLE_SEND_SEC] = RTC_GetSecond(time.time);
 866              		.loc 1 247 0
 867 00ae 8B80     		strh	r3, [r1, #4]
 248:lib_BLE/bluetooth.c ****     sendBufferFinish[BLE_SEND_MS] = data->millsFinishSkier;
 868              		.loc 1 248 0
 869 00b0 338B     		ldrh	r3, [r6, #24]
 870              	.LVL73:
 249:lib_BLE/bluetooth.c ****     
 250:lib_BLE/bluetooth.c ****     uint16_t minResult = (data->secondsWay)/60;
 871              		.loc 1 250 0
 872 00b2 356A     		ldr	r5, [r6, #32]
 873              	.LVL74:
 248:lib_BLE/bluetooth.c ****     sendBufferFinish[BLE_SEND_MS] = data->millsFinishSkier;
 874              		.loc 1 248 0
 875 00b4 CB80     		strh	r3, [r1, #6]
 876              		.loc 1 250 0
 877 00b6 281C     		mov	r0, r5
 878 00b8 716A     		ldr	r1, [r6, #36]
 879 00ba 3C22     		mov	r2, #60
 880              	.LVL75:
 881 00bc 0023     		mov	r3, #0
 882 00be FFF7FEFF 		bl	__aeabi_uldivmod
 883              	.LVL76:
 251:lib_BLE/bluetooth.c ****     sendBufferResult[BLE_SEND_HOUR] = 0;
 884              		.loc 1 251 0
 885 00c2 0022     		mov	r2, #0
 886 00c4 154B     		ldr	r3, .L74+8
 250:lib_BLE/bluetooth.c ****     sendBufferResult[BLE_SEND_HOUR] = 0;
ARM GAS  C:\Users\Petro\AppData\Local\Temp\ccv8NJOC.s 			page 32


 887              		.loc 1 250 0
 888 00c6 80B2     		uxth	r0, r0
 889              	.LVL77:
 890              		.loc 1 251 0
 891 00c8 1A80     		strh	r2, [r3]
 252:lib_BLE/bluetooth.c ****     sendBufferResult[BLE_SEND_MIN] = minResult;
 253:lib_BLE/bluetooth.c ****     sendBufferResult[BLE_SEND_SEC] = (data->secondsWay) - minResult*60;
 892              		.loc 1 253 0
 893 00ca 3C32     		add	r2, r2, #60
 252:lib_BLE/bluetooth.c ****     sendBufferResult[BLE_SEND_MIN] = minResult;
 894              		.loc 1 252 0
 895 00cc 5880     		strh	r0, [r3, #2]
 896              		.loc 1 253 0
 897 00ce 5043     		mul	r0, r2
 898              	.LVL78:
 899 00d0 2D1A     		sub	r5, r5, r0
 900 00d2 9D80     		strh	r5, [r3, #4]
 254:lib_BLE/bluetooth.c ****     sendBufferResult[BLE_SEND_MS] = data->millsWay;
 901              		.loc 1 254 0
 902 00d4 328D     		ldrh	r2, [r6, #40]
 255:lib_BLE/bluetooth.c ****     
 256:lib_BLE/bluetooth.c ****     sendIdSkier = idSkier;
 257:lib_BLE/bluetooth.c ****     
 258:lib_BLE/bluetooth.c ****     sendBufferStatus[3] = numSkierOnWay/10;
 903              		.loc 1 258 0
 904 00d6 0398     		ldr	r0, [sp, #12]
 254:lib_BLE/bluetooth.c ****     sendBufferResult[BLE_SEND_MS] = data->millsWay;
 905              		.loc 1 254 0
 906 00d8 DA80     		strh	r2, [r3, #6]
 256:lib_BLE/bluetooth.c ****     
 907              		.loc 1 256 0
 908 00da 6A46     		mov	r2, sp
 909 00dc 104B     		ldr	r3, .L74+12
 910 00de 928A     		ldrh	r2, [r2, #20]
 911              		.loc 1 258 0
 912 00e0 211C     		mov	r1, r4
 256:lib_BLE/bluetooth.c ****     
 913              		.loc 1 256 0
 914 00e2 1A80     		strh	r2, [r3]
 915              		.loc 1 258 0
 916 00e4 FFF7FEFF 		bl	__aeabi_uidiv
 917              	.LVL79:
 918 00e8 0E4D     		ldr	r5, .L74+16
 259:lib_BLE/bluetooth.c ****     sendBufferStatus[4] = numSkierOnWay%10;
 919              		.loc 1 259 0
 920 00ea 211C     		mov	r1, r4
 258:lib_BLE/bluetooth.c ****     sendBufferStatus[4] = numSkierOnWay%10;
 921              		.loc 1 258 0
 922 00ec E870     		strb	r0, [r5, #3]
 923              		.loc 1 259 0
 924 00ee 0398     		ldr	r0, [sp, #12]
 925 00f0 FFF7FEFF 		bl	__aeabi_uidivmod
 926              	.LVL80:
 260:lib_BLE/bluetooth.c ****     sendBufferStatus[5] = maxSkierOnWay/10;
 927              		.loc 1 260 0
 928 00f4 0498     		ldr	r0, [sp, #16]
 259:lib_BLE/bluetooth.c ****     sendBufferStatus[4] = numSkierOnWay%10;
ARM GAS  C:\Users\Petro\AppData\Local\Temp\ccv8NJOC.s 			page 33


 929              		.loc 1 259 0
 930 00f6 2971     		strb	r1, [r5, #4]
 931              		.loc 1 260 0
 932 00f8 211C     		mov	r1, r4
 933 00fa FFF7FEFF 		bl	__aeabi_uidiv
 934              	.LVL81:
 261:lib_BLE/bluetooth.c ****     sendBufferStatus[6] = maxSkierOnWay%10;
 935              		.loc 1 261 0
 936 00fe 211C     		mov	r1, r4
 260:lib_BLE/bluetooth.c ****     sendBufferStatus[5] = maxSkierOnWay/10;
 937              		.loc 1 260 0
 938 0100 6871     		strb	r0, [r5, #5]
 939              		.loc 1 261 0
 940 0102 0498     		ldr	r0, [sp, #16]
 941 0104 FFF7FEFF 		bl	__aeabi_uidivmod
 942              	.LVL82:
 943 0108 A971     		strb	r1, [r5, #6]
 262:lib_BLE/bluetooth.c **** 
 263:lib_BLE/bluetooth.c ****     updateData();
 944              		.loc 1 263 0
 945 010a FFF7FEFF 		bl	updateData
 946              	.LVL83:
 264:lib_BLE/bluetooth.c **** 
 265:lib_BLE/bluetooth.c **** }
 947              		.loc 1 265 0
 948 010e 0BB0     		add	sp, sp, #44
 949              		@ sp needed
 950              	.LVL84:
 951 0110 F0BD     		pop	{r4, r5, r6, r7, pc}
 952              	.L75:
 953 0112 C046     		.align	2
 954              	.L74:
 955 0114 00000000 		.word	sendBufferStart
 956 0118 00000000 		.word	sendBufferFinish
 957 011c 00000000 		.word	sendBufferResult
 958 0120 00000000 		.word	.LANCHOR0
 959 0124 00000000 		.word	sendBufferStatus
 960              		.cfi_endproc
 961              	.LFE70:
 962              		.size	BLE_sendOneSkierTimeResult, .-BLE_sendOneSkierTimeResult
 963              		.section	.text.BLE_sendOneSkierTimeStart,"ax",%progbits
 964              		.align	1
 965              		.global	BLE_sendOneSkierTimeStart
 966              		.code	16
 967              		.thumb_func
 968              		.type	BLE_sendOneSkierTimeStart, %function
 969              	BLE_sendOneSkierTimeStart:
 970              	.LFB71:
 266:lib_BLE/bluetooth.c **** 
 267:lib_BLE/bluetooth.c **** void BLE_sendOneSkierTimeStart(uint64_t unixTime, uint16_t mills, uint8_t idSkier,
 268:lib_BLE/bluetooth.c ****                                     uint8_t numSkierOnWay, uint8_t maxSkierOnWay)
 269:lib_BLE/bluetooth.c **** {
 971              		.loc 1 269 0
 972              		.cfi_startproc
 973              	.LVL85:
 974 0000 F0B5     		push	{r4, r5, r6, r7, lr}
 975              		.cfi_def_cfa_offset 20
ARM GAS  C:\Users\Petro\AppData\Local\Temp\ccv8NJOC.s 			page 34


 976              		.cfi_offset 4, -20
 977              		.cfi_offset 5, -16
 978              		.cfi_offset 6, -12
 979              		.cfi_offset 7, -8
 980              		.cfi_offset 14, -4
 981 0002 061C     		mov	r6, r0
 270:lib_BLE/bluetooth.c ****     RTC_DATE_TIME time;
 271:lib_BLE/bluetooth.c ****     
 272:lib_BLE/bluetooth.c ****     /*read unix time*/
 273:lib_BLE/bluetooth.c ****     RTC_UnixToDateTime(&time, unixTime, RTC_24_HOURS_FORMAT);
 982              		.loc 1 273 0
 983 0004 0024     		mov	r4, #0
 269:lib_BLE/bluetooth.c ****     RTC_DATE_TIME time;
 984              		.loc 1 269 0
 985 0006 8BB0     		sub	sp, sp, #44
 986              		.cfi_def_cfa_offset 64
 269:lib_BLE/bluetooth.c ****     RTC_DATE_TIME time;
 987              		.loc 1 269 0
 988 0008 0492     		str	r2, [sp, #16]
 989              		.loc 1 273 0
 990 000a 321C     		mov	r2, r6
 991              	.LVL86:
 992              	.LBB59:
 993              	.LBB60:
 552:Generated_Source\PSoC4/RTC.h ****     retVal += (inputTime & RTC_HOURS_MASK) >> RTC_HOURS_OFFSET;
 994              		.loc 2 552 0
 995 000c 0A26     		mov	r6, #10
 996              	.LBE60:
 997              	.LBE59:
 269:lib_BLE/bluetooth.c ****     RTC_DATE_TIME time;
 998              		.loc 1 269 0
 999 000e 0593     		str	r3, [sp, #20]
 1000 0010 10AB     		add	r3, sp, #64
 1001              	.LVL87:
 1002 0012 1D78     		ldrb	r5, [r3]
 1003 0014 11AB     		add	r3, sp, #68
 1004              	.LVL88:
 1005 0016 1B78     		ldrb	r3, [r3]
 1006              	.LVL89:
 1007              		.loc 1 273 0
 1008 0018 06A8     		add	r0, sp, #24
 1009              	.LVL90:
 269:lib_BLE/bluetooth.c ****     RTC_DATE_TIME time;
 1010              		.loc 1 269 0
 1011 001a 0393     		str	r3, [sp, #12]
 1012              		.loc 1 273 0
 1013 001c 0094     		str	r4, [sp]
 1014 001e 0B1C     		mov	r3, r1
 1015 0020 FFF7FEFF 		bl	RTC_UnixToDateTime
 1016              	.LVL91:
 274:lib_BLE/bluetooth.c ****     sendBufferStart[0] = RTC_GetHours(time.time);
 1017              		.loc 1 274 0
 1018 0024 069B     		ldr	r3, [sp, #24]
 1019              	.LVL92:
 1020 0026 2149     		ldr	r1, .L77
 1021              	.LBB62:
 1022              	.LBB61:
ARM GAS  C:\Users\Petro\AppData\Local\Temp\ccv8NJOC.s 			page 35


 552:Generated_Source\PSoC4/RTC.h ****     retVal += (inputTime & RTC_HOURS_MASK) >> RTC_HOURS_OFFSET;
 1023              		.loc 2 552 0
 1024 0028 9A02     		lsl	r2, r3, #10
 1025 002a 920F     		lsr	r2, r2, #30
 1026 002c 7243     		mul	r2, r6
 1027 002e 171C     		mov	r7, r2
 1028              	.LVL93:
 1029              		.loc 2 553 0
 1030 0030 1A03     		lsl	r2, r3, #12
 1031              	.LVL94:
 1032 0032 100F     		lsr	r0, r2, #28
 1033 0034 3A18     		add	r2, r7, r0
 1034              	.LBE61:
 1035              	.LBE62:
 1036              		.loc 1 274 0
 1037 0036 0A80     		strh	r2, [r1]
 1038              	.LVL95:
 1039              	.LBB63:
 1040              	.LBB64:
 527:Generated_Source\PSoC4/RTC.h ****     retVal += (inputTime & RTC_MINUTES_MASK) >> RTC_MINUTES_OFFSET;
 1041              		.loc 2 527 0
 1042 0038 5A04     		lsl	r2, r3, #17
 1043 003a 520F     		lsr	r2, r2, #29
 1044 003c 7243     		mul	r2, r6
 1045 003e 171C     		mov	r7, r2
 1046              	.LVL96:
 528:Generated_Source\PSoC4/RTC.h **** 
 1047              		.loc 2 528 0
 1048 0040 1A05     		lsl	r2, r3, #20
 1049              	.LVL97:
 1050 0042 100F     		lsr	r0, r2, #28
 1051 0044 3A18     		add	r2, r7, r0
 1052              	.LBE64:
 1053              	.LBE63:
 275:lib_BLE/bluetooth.c ****     sendBufferStart[1] = RTC_GetMinutes(time.time);
 1054              		.loc 1 275 0
 1055 0046 4A80     		strh	r2, [r1, #2]
 1056              	.LVL98:
 1057              	.LBB65:
 1058              	.LBB66:
 502:Generated_Source\PSoC4/RTC.h **** 
 1059              		.loc 2 502 0
 1060 0048 0F22     		mov	r2, #15
 501:Generated_Source\PSoC4/RTC.h ****     retVal += (inputTime & RTC_SECONDS_MASK) >> RTC_SECONDS_OFFSET;
 1061              		.loc 2 501 0
 1062 004a 5806     		lsl	r0, r3, #25
 1063 004c 400F     		lsr	r0, r0, #29
 1064 004e 7043     		mul	r0, r6
 1065              	.LVL99:
 502:Generated_Source\PSoC4/RTC.h **** 
 1066              		.loc 2 502 0
 1067 0050 1340     		and	r3, r2
 1068              	.LVL100:
 1069 0052 C318     		add	r3, r0, r3
 1070              	.LVL101:
 1071              	.LBE66:
 1072              	.LBE65:
ARM GAS  C:\Users\Petro\AppData\Local\Temp\ccv8NJOC.s 			page 36


 276:lib_BLE/bluetooth.c ****     sendBufferStart[2] = RTC_GetSecond(time.time);
 1073              		.loc 1 276 0
 1074 0054 8B80     		strh	r3, [r1, #4]
 277:lib_BLE/bluetooth.c ****     sendBufferStart[3] = mills;
 1075              		.loc 1 277 0
 1076 0056 6B46     		mov	r3, sp
 1077              	.LVL102:
 278:lib_BLE/bluetooth.c ****     
 279:lib_BLE/bluetooth.c ****     int i;
 280:lib_BLE/bluetooth.c ****     for(i=0;i<4;i++)
 281:lib_BLE/bluetooth.c ****     {
 282:lib_BLE/bluetooth.c ****         sendBufferFinish[i] = 0;
 1078              		.loc 1 282 0
 1079 0058 154A     		ldr	r2, .L77+4
 277:lib_BLE/bluetooth.c ****     sendBufferStart[3] = mills;
 1080              		.loc 1 277 0
 1081 005a 1B8A     		ldrh	r3, [r3, #16]
 1082              		.loc 1 282 0
 1083 005c 1480     		strh	r4, [r2]
 1084 005e 5480     		strh	r4, [r2, #2]
 1085 0060 9480     		strh	r4, [r2, #4]
 1086 0062 D480     		strh	r4, [r2, #6]
 283:lib_BLE/bluetooth.c ****         sendBufferResult[i] = 0;
 284:lib_BLE/bluetooth.c ****     }
 285:lib_BLE/bluetooth.c ****     
 286:lib_BLE/bluetooth.c ****     sendIdSkier = idSkier;
 1087              		.loc 1 286 0
 1088 0064 6A46     		mov	r2, sp
 277:lib_BLE/bluetooth.c ****     
 1089              		.loc 1 277 0
 1090 0066 CB80     		strh	r3, [r1, #6]
 1091              	.LVL103:
 283:lib_BLE/bluetooth.c ****         sendBufferResult[i] = 0;
 1092              		.loc 1 283 0
 1093 0068 124B     		ldr	r3, .L77+8
 1094              		.loc 1 286 0
 1095 006a 928A     		ldrh	r2, [r2, #20]
 283:lib_BLE/bluetooth.c ****         sendBufferResult[i] = 0;
 1096              		.loc 1 283 0
 1097 006c 1C80     		strh	r4, [r3]
 1098              	.LVL104:
 1099 006e 5C80     		strh	r4, [r3, #2]
 1100              	.LVL105:
 1101 0070 9C80     		strh	r4, [r3, #4]
 1102              	.LVL106:
 1103 0072 DC80     		strh	r4, [r3, #6]
 1104              	.LVL107:
 1105              		.loc 1 286 0
 1106 0074 104B     		ldr	r3, .L77+12
 287:lib_BLE/bluetooth.c ****     
 288:lib_BLE/bluetooth.c ****     sendBufferStatus[3] = numSkierOnWay/10;
 1107              		.loc 1 288 0
 1108 0076 311C     		mov	r1, r6
 286:lib_BLE/bluetooth.c ****     
 1109              		.loc 1 286 0
 1110 0078 1A80     		strh	r2, [r3]
 1111              		.loc 1 288 0
ARM GAS  C:\Users\Petro\AppData\Local\Temp\ccv8NJOC.s 			page 37


 1112 007a 281C     		mov	r0, r5
 1113              	.LVL108:
 1114 007c FFF7FEFF 		bl	__aeabi_uidiv
 1115              	.LVL109:
 1116 0080 0E4C     		ldr	r4, .L77+16
 289:lib_BLE/bluetooth.c ****     sendBufferStatus[4] = numSkierOnWay%10;
 1117              		.loc 1 289 0
 1118 0082 311C     		mov	r1, r6
 288:lib_BLE/bluetooth.c ****     sendBufferStatus[4] = numSkierOnWay%10;
 1119              		.loc 1 288 0
 1120 0084 E070     		strb	r0, [r4, #3]
 1121              		.loc 1 289 0
 1122 0086 281C     		mov	r0, r5
 1123 0088 FFF7FEFF 		bl	__aeabi_uidivmod
 1124              	.LVL110:
 290:lib_BLE/bluetooth.c ****     sendBufferStatus[5] = maxSkierOnWay/10;
 1125              		.loc 1 290 0
 1126 008c 0398     		ldr	r0, [sp, #12]
 289:lib_BLE/bluetooth.c ****     sendBufferStatus[4] = numSkierOnWay%10;
 1127              		.loc 1 289 0
 1128 008e 2171     		strb	r1, [r4, #4]
 1129              		.loc 1 290 0
 1130 0090 311C     		mov	r1, r6
 1131 0092 FFF7FEFF 		bl	__aeabi_uidiv
 1132              	.LVL111:
 291:lib_BLE/bluetooth.c ****     sendBufferStatus[6] = maxSkierOnWay%10;
 1133              		.loc 1 291 0
 1134 0096 311C     		mov	r1, r6
 290:lib_BLE/bluetooth.c ****     sendBufferStatus[5] = maxSkierOnWay/10;
 1135              		.loc 1 290 0
 1136 0098 6071     		strb	r0, [r4, #5]
 1137              		.loc 1 291 0
 1138 009a 0398     		ldr	r0, [sp, #12]
 1139 009c FFF7FEFF 		bl	__aeabi_uidivmod
 1140              	.LVL112:
 1141 00a0 A171     		strb	r1, [r4, #6]
 292:lib_BLE/bluetooth.c ****     
 293:lib_BLE/bluetooth.c ****     updateData();
 1142              		.loc 1 293 0
 1143 00a2 FFF7FEFF 		bl	updateData
 1144              	.LVL113:
 294:lib_BLE/bluetooth.c **** }
 1145              		.loc 1 294 0
 1146 00a6 0BB0     		add	sp, sp, #44
 1147              		@ sp needed
 1148 00a8 F0BD     		pop	{r4, r5, r6, r7, pc}
 1149              	.L78:
 1150 00aa C046     		.align	2
 1151              	.L77:
 1152 00ac 00000000 		.word	sendBufferStart
 1153 00b0 00000000 		.word	sendBufferFinish
 1154 00b4 00000000 		.word	sendBufferResult
 1155 00b8 00000000 		.word	.LANCHOR0
 1156 00bc 00000000 		.word	sendBufferStatus
 1157              		.cfi_endproc
 1158              	.LFE71:
 1159              		.size	BLE_sendOneSkierTimeStart, .-BLE_sendOneSkierTimeStart
ARM GAS  C:\Users\Petro\AppData\Local\Temp\ccv8NJOC.s 			page 38


 1160              		.section	.text.BLE_sendOneSkierTimeAll,"ax",%progbits
 1161              		.align	1
 1162              		.global	BLE_sendOneSkierTimeAll
 1163              		.code	16
 1164              		.thumb_func
 1165              		.type	BLE_sendOneSkierTimeAll, %function
 1166              	BLE_sendOneSkierTimeAll:
 1167              	.LFB72:
 295:lib_BLE/bluetooth.c **** 
 296:lib_BLE/bluetooth.c **** 
 297:lib_BLE/bluetooth.c **** void BLE_sendOneSkierTimeAll(uint16_t IdSkier,uint16_t sendStartTime[],uint16_t sendFinishTime[],
 298:lib_BLE/bluetooth.c ****                           uint16_t sendResultTime[])
 299:lib_BLE/bluetooth.c **** {
 1168              		.loc 1 299 0
 1169              		.cfi_startproc
 1170              	.LVL114:
 1171 0000 10B5     		push	{r4, lr}
 1172              		.cfi_def_cfa_offset 8
 1173              		.cfi_offset 4, -8
 1174              		.cfi_offset 14, -4
 300:lib_BLE/bluetooth.c ****     sendIdSkier = IdSkier;
 1175              		.loc 1 300 0
 1176 0002 104C     		ldr	r4, .L80
 301:lib_BLE/bluetooth.c ****   
 302:lib_BLE/bluetooth.c ****     sendBufferStart[0] = sendStartTime[0];
 303:lib_BLE/bluetooth.c ****     sendBufferStart[1] = sendStartTime[1];
 304:lib_BLE/bluetooth.c ****     sendBufferStart[2] = sendStartTime[2];
 305:lib_BLE/bluetooth.c ****     sendBufferStart[3] = sendStartTime[3];
 306:lib_BLE/bluetooth.c ****     
 307:lib_BLE/bluetooth.c ****     sendBufferFinish[0] = sendFinishTime[0];
 308:lib_BLE/bluetooth.c ****     sendBufferFinish[1] = sendFinishTime[1];
 309:lib_BLE/bluetooth.c ****     sendBufferFinish[2] = sendFinishTime[2];
 310:lib_BLE/bluetooth.c ****     sendBufferFinish[3] = sendFinishTime[3];
 311:lib_BLE/bluetooth.c ****     
 312:lib_BLE/bluetooth.c ****     sendBufferResult[0] = sendResultTime[0];
 313:lib_BLE/bluetooth.c ****     sendBufferResult[1] = sendResultTime[1];
 314:lib_BLE/bluetooth.c ****     sendBufferResult[2] = sendResultTime[2];
 315:lib_BLE/bluetooth.c ****     sendBufferResult[3] = sendResultTime[3];
 316:lib_BLE/bluetooth.c ****       
 317:lib_BLE/bluetooth.c ****     updateData();
 318:lib_BLE/bluetooth.c **** }
 1177              		.loc 1 318 0
 1178              		@ sp needed
 300:lib_BLE/bluetooth.c ****     sendIdSkier = IdSkier;
 1179              		.loc 1 300 0
 1180 0004 2080     		strh	r0, [r4]
 302:lib_BLE/bluetooth.c ****     sendBufferStart[1] = sendStartTime[1];
 1181              		.loc 1 302 0
 1182 0006 0C88     		ldrh	r4, [r1]
 1183 0008 0F48     		ldr	r0, .L80+4
 1184              	.LVL115:
 1185 000a 0480     		strh	r4, [r0]
 303:lib_BLE/bluetooth.c ****     sendBufferStart[2] = sendStartTime[2];
 1186              		.loc 1 303 0
 1187 000c 4C88     		ldrh	r4, [r1, #2]
 1188 000e 4480     		strh	r4, [r0, #2]
 304:lib_BLE/bluetooth.c ****     sendBufferStart[3] = sendStartTime[3];
ARM GAS  C:\Users\Petro\AppData\Local\Temp\ccv8NJOC.s 			page 39


 1189              		.loc 1 304 0
 1190 0010 8C88     		ldrh	r4, [r1, #4]
 1191 0012 8480     		strh	r4, [r0, #4]
 305:lib_BLE/bluetooth.c ****     
 1192              		.loc 1 305 0
 1193 0014 C988     		ldrh	r1, [r1, #6]
 1194              	.LVL116:
 1195 0016 C180     		strh	r1, [r0, #6]
 307:lib_BLE/bluetooth.c ****     sendBufferFinish[1] = sendFinishTime[1];
 1196              		.loc 1 307 0
 1197 0018 1088     		ldrh	r0, [r2]
 1198 001a 0C49     		ldr	r1, .L80+8
 1199 001c 0880     		strh	r0, [r1]
 308:lib_BLE/bluetooth.c ****     sendBufferFinish[2] = sendFinishTime[2];
 1200              		.loc 1 308 0
 1201 001e 5088     		ldrh	r0, [r2, #2]
 1202 0020 4880     		strh	r0, [r1, #2]
 309:lib_BLE/bluetooth.c ****     sendBufferFinish[3] = sendFinishTime[3];
 1203              		.loc 1 309 0
 1204 0022 9088     		ldrh	r0, [r2, #4]
 1205 0024 8880     		strh	r0, [r1, #4]
 310:lib_BLE/bluetooth.c ****     
 1206              		.loc 1 310 0
 1207 0026 D288     		ldrh	r2, [r2, #6]
 1208              	.LVL117:
 1209 0028 CA80     		strh	r2, [r1, #6]
 312:lib_BLE/bluetooth.c ****     sendBufferResult[1] = sendResultTime[1];
 1210              		.loc 1 312 0
 1211 002a 1988     		ldrh	r1, [r3]
 1212 002c 084A     		ldr	r2, .L80+12
 1213 002e 1180     		strh	r1, [r2]
 313:lib_BLE/bluetooth.c ****     sendBufferResult[2] = sendResultTime[2];
 1214              		.loc 1 313 0
 1215 0030 5988     		ldrh	r1, [r3, #2]
 1216 0032 5180     		strh	r1, [r2, #2]
 314:lib_BLE/bluetooth.c ****     sendBufferResult[3] = sendResultTime[3];
 1217              		.loc 1 314 0
 1218 0034 9988     		ldrh	r1, [r3, #4]
 1219 0036 9180     		strh	r1, [r2, #4]
 315:lib_BLE/bluetooth.c ****       
 1220              		.loc 1 315 0
 1221 0038 DB88     		ldrh	r3, [r3, #6]
 1222              	.LVL118:
 1223 003a D380     		strh	r3, [r2, #6]
 317:lib_BLE/bluetooth.c **** }
 1224              		.loc 1 317 0
 1225 003c FFF7FEFF 		bl	updateData
 1226              	.LVL119:
 1227              		.loc 1 318 0
 1228 0040 10BD     		pop	{r4, pc}
 1229              	.L81:
 1230 0042 C046     		.align	2
 1231              	.L80:
 1232 0044 00000000 		.word	.LANCHOR0
 1233 0048 00000000 		.word	sendBufferStart
 1234 004c 00000000 		.word	sendBufferFinish
 1235 0050 00000000 		.word	sendBufferResult
ARM GAS  C:\Users\Petro\AppData\Local\Temp\ccv8NJOC.s 			page 40


 1236              		.cfi_endproc
 1237              	.LFE72:
 1238              		.size	BLE_sendOneSkierTimeAll, .-BLE_sendOneSkierTimeAll
 1239              		.section	.text.BLE_sendSystemStatus,"ax",%progbits
 1240              		.align	1
 1241              		.global	BLE_sendSystemStatus
 1242              		.code	16
 1243              		.thumb_func
 1244              		.type	BLE_sendSystemStatus, %function
 1245              	BLE_sendSystemStatus:
 1246              	.LFB73:
 319:lib_BLE/bluetooth.c **** 
 320:lib_BLE/bluetooth.c **** void BLE_sendSystemStatus(BLEStatusFlag systemStatus)
 321:lib_BLE/bluetooth.c **** {
 1247              		.loc 1 321 0
 1248              		.cfi_startproc
 1249              	.LVL120:
 1250 0000 38B5     		push	{r3, r4, r5, lr}
 1251              		.cfi_def_cfa_offset 16
 1252              		.cfi_offset 3, -16
 1253              		.cfi_offset 4, -12
 1254              		.cfi_offset 5, -8
 1255              		.cfi_offset 14, -4
 1256 0002 084C     		ldr	r4, .L87
 322:lib_BLE/bluetooth.c ****     static uint8_t oldSystemStatus;
 323:lib_BLE/bluetooth.c ****     
 324:lib_BLE/bluetooth.c ****     if(systemStatus == STATUS_OK)
 325:lib_BLE/bluetooth.c ****         sendBufferStatus[BLE_SEND_SYSTEM_STATUS] = 1;
 1257              		.loc 1 325 0
 1258 0004 0123     		mov	r3, #1
 324:lib_BLE/bluetooth.c ****         sendBufferStatus[BLE_SEND_SYSTEM_STATUS] = 1;
 1259              		.loc 1 324 0
 1260 0006 0028     		cmp	r0, #0
 1261 0008 00D0     		beq	.L86
 326:lib_BLE/bluetooth.c ****     else
 327:lib_BLE/bluetooth.c ****         sendBufferStatus[BLE_SEND_SYSTEM_STATUS] = 0;
 1262              		.loc 1 327 0
 1263 000a 0023     		mov	r3, #0
 1264              	.L86:
 328:lib_BLE/bluetooth.c ****     
 329:lib_BLE/bluetooth.c ****     /*if new status, status update*/
 330:lib_BLE/bluetooth.c ****     if(oldSystemStatus != sendBufferStatus[BLE_SEND_SYSTEM_STATUS])
 1265              		.loc 1 330 0
 1266 000c 064D     		ldr	r5, .L87+4
 327:lib_BLE/bluetooth.c ****     
 1267              		.loc 1 327 0
 1268 000e 2370     		strb	r3, [r4]
 1269              		.loc 1 330 0
 1270 0010 6A7A     		ldrb	r2, [r5, #9]
 1271 0012 2378     		ldrb	r3, [r4]
 1272 0014 9A42     		cmp	r2, r3
 1273 0016 03D0     		beq	.L82
 331:lib_BLE/bluetooth.c ****     {
 332:lib_BLE/bluetooth.c ****         updateStatusData();
 1274              		.loc 1 332 0
 1275 0018 FFF7FEFF 		bl	updateStatusData
 1276              	.LVL121:
ARM GAS  C:\Users\Petro\AppData\Local\Temp\ccv8NJOC.s 			page 41


 333:lib_BLE/bluetooth.c ****         oldSystemStatus =  sendBufferStatus[BLE_SEND_SYSTEM_STATUS];
 1277              		.loc 1 333 0
 1278 001c 2378     		ldrb	r3, [r4]
 1279 001e 6B72     		strb	r3, [r5, #9]
 1280              	.L82:
 334:lib_BLE/bluetooth.c ****     }
 335:lib_BLE/bluetooth.c **** }
 1281              		.loc 1 335 0
 1282              		@ sp needed
 1283 0020 38BD     		pop	{r3, r4, r5, pc}
 1284              	.L88:
 1285 0022 C046     		.align	2
 1286              	.L87:
 1287 0024 00000000 		.word	sendBufferStatus
 1288 0028 00000000 		.word	.LANCHOR0
 1289              		.cfi_endproc
 1290              	.LFE73:
 1291              		.size	BLE_sendSystemStatus, .-BLE_sendSystemStatus
 1292              		.section	.text.BLE_sendSDcardStatus,"ax",%progbits
 1293              		.align	1
 1294              		.global	BLE_sendSDcardStatus
 1295              		.code	16
 1296              		.thumb_func
 1297              		.type	BLE_sendSDcardStatus, %function
 1298              	BLE_sendSDcardStatus:
 1299              	.LFB74:
 336:lib_BLE/bluetooth.c **** 
 337:lib_BLE/bluetooth.c **** void BLE_sendSDcardStatus(BLEStatusFlag SDStatus)
 338:lib_BLE/bluetooth.c **** {
 1300              		.loc 1 338 0
 1301              		.cfi_startproc
 1302              	.LVL122:
 1303 0000 38B5     		push	{r3, r4, r5, lr}
 1304              		.cfi_def_cfa_offset 16
 1305              		.cfi_offset 3, -16
 1306              		.cfi_offset 4, -12
 1307              		.cfi_offset 5, -8
 1308              		.cfi_offset 14, -4
 1309 0002 084C     		ldr	r4, .L94
 339:lib_BLE/bluetooth.c ****     static uint8_t oldSDStatus ;
 340:lib_BLE/bluetooth.c ****     
 341:lib_BLE/bluetooth.c ****     if(SDStatus == STATUS_OK)
 342:lib_BLE/bluetooth.c ****         sendBufferStatus[BLE_SEND_SD_STATUS] = 1;
 1310              		.loc 1 342 0
 1311 0004 0123     		mov	r3, #1
 341:lib_BLE/bluetooth.c ****         sendBufferStatus[BLE_SEND_SD_STATUS] = 1;
 1312              		.loc 1 341 0
 1313 0006 0028     		cmp	r0, #0
 1314 0008 00D0     		beq	.L93
 343:lib_BLE/bluetooth.c ****     else
 344:lib_BLE/bluetooth.c ****         sendBufferStatus[BLE_SEND_SD_STATUS] = 0;
 1315              		.loc 1 344 0
 1316 000a 0023     		mov	r3, #0
 1317              	.L93:
 345:lib_BLE/bluetooth.c ****     
 346:lib_BLE/bluetooth.c ****     /*if new status, status update*/
 347:lib_BLE/bluetooth.c ****     if(oldSDStatus != sendBufferStatus[BLE_SEND_SD_STATUS])
ARM GAS  C:\Users\Petro\AppData\Local\Temp\ccv8NJOC.s 			page 42


 1318              		.loc 1 347 0
 1319 000c 064D     		ldr	r5, .L94+4
 344:lib_BLE/bluetooth.c ****     
 1320              		.loc 1 344 0
 1321 000e A370     		strb	r3, [r4, #2]
 1322              		.loc 1 347 0
 1323 0010 AA7A     		ldrb	r2, [r5, #10]
 1324 0012 A378     		ldrb	r3, [r4, #2]
 1325 0014 9A42     		cmp	r2, r3
 1326 0016 03D0     		beq	.L89
 348:lib_BLE/bluetooth.c ****     {
 349:lib_BLE/bluetooth.c ****         updateStatusData();
 1327              		.loc 1 349 0
 1328 0018 FFF7FEFF 		bl	updateStatusData
 1329              	.LVL123:
 350:lib_BLE/bluetooth.c ****         oldSDStatus =  sendBufferStatus[BLE_SEND_SD_STATUS];
 1330              		.loc 1 350 0
 1331 001c A378     		ldrb	r3, [r4, #2]
 1332 001e AB72     		strb	r3, [r5, #10]
 1333              	.L89:
 351:lib_BLE/bluetooth.c ****     }
 352:lib_BLE/bluetooth.c **** }
 1334              		.loc 1 352 0
 1335              		@ sp needed
 1336 0020 38BD     		pop	{r3, r4, r5, pc}
 1337              	.L95:
 1338 0022 C046     		.align	2
 1339              	.L94:
 1340 0024 00000000 		.word	sendBufferStatus
 1341 0028 00000000 		.word	.LANCHOR0
 1342              		.cfi_endproc
 1343              	.LFE74:
 1344              		.size	BLE_sendSDcardStatus, .-BLE_sendSDcardStatus
 1345              		.section	.text.BLE_sendNetworkStatus,"ax",%progbits
 1346              		.align	1
 1347              		.global	BLE_sendNetworkStatus
 1348              		.code	16
 1349              		.thumb_func
 1350              		.type	BLE_sendNetworkStatus, %function
 1351              	BLE_sendNetworkStatus:
 1352              	.LFB75:
 353:lib_BLE/bluetooth.c **** 
 354:lib_BLE/bluetooth.c **** void BLE_sendNetworkStatus(BLEStatusFlag NerworkStatus)
 355:lib_BLE/bluetooth.c **** {
 1353              		.loc 1 355 0
 1354              		.cfi_startproc
 1355              	.LVL124:
 1356 0000 38B5     		push	{r3, r4, r5, lr}
 1357              		.cfi_def_cfa_offset 16
 1358              		.cfi_offset 3, -16
 1359              		.cfi_offset 4, -12
 1360              		.cfi_offset 5, -8
 1361              		.cfi_offset 14, -4
 1362 0002 084C     		ldr	r4, .L101
 356:lib_BLE/bluetooth.c ****     static uint8_t oldNetworkStatus ;
 357:lib_BLE/bluetooth.c ****     
 358:lib_BLE/bluetooth.c ****     if(NerworkStatus == STATUS_OK)
ARM GAS  C:\Users\Petro\AppData\Local\Temp\ccv8NJOC.s 			page 43


 359:lib_BLE/bluetooth.c ****         sendBufferStatus[BLE_SEND_NETWORK_STATUS] = 1; 
 1363              		.loc 1 359 0
 1364 0004 0123     		mov	r3, #1
 358:lib_BLE/bluetooth.c ****         sendBufferStatus[BLE_SEND_NETWORK_STATUS] = 1; 
 1365              		.loc 1 358 0
 1366 0006 0028     		cmp	r0, #0
 1367 0008 00D0     		beq	.L100
 360:lib_BLE/bluetooth.c ****     else
 361:lib_BLE/bluetooth.c ****         sendBufferStatus[BLE_SEND_NETWORK_STATUS] = 0;    
 1368              		.loc 1 361 0
 1369 000a 0023     		mov	r3, #0
 1370              	.L100:
 362:lib_BLE/bluetooth.c ****     
 363:lib_BLE/bluetooth.c ****     /*if new status, status update*/
 364:lib_BLE/bluetooth.c ****     if(oldNetworkStatus != sendBufferStatus[BLE_SEND_NETWORK_STATUS])
 1371              		.loc 1 364 0
 1372 000c 064D     		ldr	r5, .L101+4
 361:lib_BLE/bluetooth.c ****     
 1373              		.loc 1 361 0
 1374 000e 6370     		strb	r3, [r4, #1]
 1375              		.loc 1 364 0
 1376 0010 EA7A     		ldrb	r2, [r5, #11]
 1377 0012 6378     		ldrb	r3, [r4, #1]
 1378 0014 9A42     		cmp	r2, r3
 1379 0016 03D0     		beq	.L96
 365:lib_BLE/bluetooth.c ****     {
 366:lib_BLE/bluetooth.c ****         updateStatusData();
 1380              		.loc 1 366 0
 1381 0018 FFF7FEFF 		bl	updateStatusData
 1382              	.LVL125:
 367:lib_BLE/bluetooth.c ****         oldNetworkStatus =  sendBufferStatus[BLE_SEND_NETWORK_STATUS];
 1383              		.loc 1 367 0
 1384 001c 6378     		ldrb	r3, [r4, #1]
 1385 001e EB72     		strb	r3, [r5, #11]
 1386              	.L96:
 368:lib_BLE/bluetooth.c ****     }
 369:lib_BLE/bluetooth.c **** }
 1387              		.loc 1 369 0
 1388              		@ sp needed
 1389 0020 38BD     		pop	{r3, r4, r5, pc}
 1390              	.L102:
 1391 0022 C046     		.align	2
 1392              	.L101:
 1393 0024 00000000 		.word	sendBufferStatus
 1394 0028 00000000 		.word	.LANCHOR0
 1395              		.cfi_endproc
 1396              	.LFE75:
 1397              		.size	BLE_sendNetworkStatus, .-BLE_sendNetworkStatus
 1398              		.comm	uartBuffer,30,1
 1399              		.comm	sendBufferStatus,7,1
 1400              		.comm	sendBufferResult,8,2
 1401              		.comm	sendBufferFinish,8,2
 1402              		.comm	sendBufferStart,8,2
 1403              		.global	sendIdSkier
 1404              		.global	adminIsOnly
 1405              		.global	bleUnixTime
 1406              		.comm	notifycaiton,4,4
ARM GAS  C:\Users\Petro\AppData\Local\Temp\ccv8NJOC.s 			page 44


 1407              		.bss
 1408              		.align	2
 1409              		.set	.LANCHOR0,. + 0
 1410              		.type	sendIdSkier, %object
 1411              		.size	sendIdSkier, 2
 1412              	sendIdSkier:
 1413 0000 0000     		.space	2
 1414 0002 0000     		.space	2
 1415              		.type	bleUnixTime, %object
 1416              		.size	bleUnixTime, 4
 1417              	bleUnixTime:
 1418 0004 00000000 		.space	4
 1419              		.type	adminIsOnly, %object
 1420              		.size	adminIsOnly, 1
 1421              	adminIsOnly:
 1422 0008 00       		.space	1
 1423              		.type	oldSystemStatus.9161, %object
 1424              		.size	oldSystemStatus.9161, 1
 1425              	oldSystemStatus.9161:
 1426 0009 00       		.space	1
 1427              		.type	oldSDStatus.9165, %object
 1428              		.size	oldSDStatus.9165, 1
 1429              	oldSDStatus.9165:
 1430 000a 00       		.space	1
 1431              		.type	oldNetworkStatus.9169, %object
 1432              		.size	oldNetworkStatus.9169, 1
 1433              	oldNetworkStatus.9169:
 1434 000b 00       		.space	1
 1435              		.text
 1436              	.Letext0:
 1437              		.file 3 "c:\\program files (x86)\\cypress\\psoc creator\\4.0\\psoc creator\\import\\gnu\\arm\\4.9.
 1438              		.file 4 "c:\\program files (x86)\\cypress\\psoc creator\\4.0\\psoc creator\\import\\gnu\\arm\\4.9.
 1439              		.file 5 "Generated_Source\\PSoC4/cytypes.h"
 1440              		.file 6 "Generated_Source\\PSoC4/ble_Stack.h"
 1441              		.file 7 "Generated_Source\\PSoC4/ble_StackGatt.h"
 1442              		.file 8 "Generated_Source\\PSoC4/ble_StackGattServer.h"
 1443              		.file 9 "Generated_Source\\PSoC4/ble.h"
 1444              		.file 10 "Generated_Source\\PSoC4/ble_eventHandler.h"
 1445              		.file 11 "./lib_DB\\database.h"
 1446              		.file 12 "./lib_BLE/bluetooth.h"
 1447              		.file 13 "Generated_Source\\PSoC4/ble_StackGattDb.h"
 1448              		.file 14 "Generated_Source\\PSoC4/CyLib.h"
 1449              		.file 15 "Generated_Source\\PSoC4/pwm.h"