ARM GAS  C:\Users\Petro\AppData\Local\Temp\ccUyF7Zz.s 			page 1


   1              		.cpu cortex-m0
   2              		.fpu softvfp
   3              		.eabi_attribute 20, 1
   4              		.eabi_attribute 21, 1
   5              		.eabi_attribute 23, 3
   6              		.eabi_attribute 24, 1
   7              		.eabi_attribute 25, 1
   8              		.eabi_attribute 26, 1
   9              		.eabi_attribute 30, 4
  10              		.eabi_attribute 34, 0
  11              		.eabi_attribute 18, 4
  12              		.code	16
  13              		.file	"network.c"
  14              		.text
  15              	.Ltext0:
  16              		.cfi_sections	.debug_frame
  17              		.section	.text.CustomInterruptHandler,"ax",%progbits
  18              		.align	1
  19              		.global	CustomInterruptHandler
  20              		.code	16
  21              		.thumb_func
  22              		.type	CustomInterruptHandler, %function
  23              	CustomInterruptHandler:
  24              	.LFB65:
  25              		.file 1 "lib_Network\\network.c"
   1:lib_Network/network.c **** 
   2:lib_Network/network.c **** #include "lib_Network/network.h"
   3:lib_Network/network.c **** #include <lib_BLE/bluetooth.h>
   4:lib_Network/network.c **** #include <UART_XB.h>
   5:lib_Network/network.c **** #include <UART_XB_SPI_UART.h>
   6:lib_Network/network.c **** 
   7:lib_Network/network.c **** #ifdef DEBUG_INFO
   8:lib_Network/network.c ****     #include <DEBUG_UART.h>
   9:lib_Network/network.c **** #endif
  10:lib_Network/network.c **** #ifdef DEBUG_TIME
  11:lib_Network/network.c ****     #include <debug.h>
  12:lib_Network/network.c **** #endif
  13:lib_Network/network.c **** #ifdef DEBUG_NTP
  14:lib_Network/network.c ****     #include <debugntp.h>
  15:lib_Network/network.c **** #endif
  16:lib_Network/network.c **** #ifdef DEBUGNTP
  17:lib_Network/network.c ****     #include <pinDebugNtp.h>
  18:lib_Network/network.c **** #endif
  19:lib_Network/network.c **** 
  20:lib_Network/network.c **** #include "lib_Network/svt.h"
  21:lib_Network/network.c **** #include "lib_DB/database.h"
  22:lib_Network/network.c **** #include "lib_RTC/RTC_WDT.h"
  23:lib_Network/network.c **** #include "lib_Network/ntp.h"
  24:lib_Network/network.c **** #include "lib_Display/display.h"
  25:lib_Network/network.c **** 
  26:lib_Network/network.c **** 
  27:lib_Network/network.c **** /*size buffer*/
  28:lib_Network/network.c **** #define DATA_BUFFER   50
  29:lib_Network/network.c ****  
  30:lib_Network/network.c **** #define ADRESS_READY        8
  31:lib_Network/network.c **** #define ADRESS_REBOOT       9
  32:lib_Network/network.c **** #define ADRESS_COUNT_SK     10
ARM GAS  C:\Users\Petro\AppData\Local\Temp\ccUyF7Zz.s 			page 2


  33:lib_Network/network.c **** 
  34:lib_Network/network.c **** #define NETWORK_TIMEOUT     50
  35:lib_Network/network.c **** #define NETWORK_TIMEOUT_WDT 3
  36:lib_Network/network.c **** 
  37:lib_Network/network.c **** /*for NTP protocol*/
  38:lib_Network/network.c **** #define NTP_TRY_SYNC        14
  39:lib_Network/network.c **** #define NTP_CONNECT_ATTEMPS 6       //кількість спроб надсилання пакет
  40:lib_Network/network.c **** #define NTP_SUCCESSFUL_PACKET 5       //кількість пакетів для синхроніз
  41:lib_Network/network.c **** #define NTP_DELAY_RECEIVED_PACKET 1000
  42:lib_Network/network.c **** #define NTP_DIFFERENC_LONG_PACKET 49    //uart 2400
  43:lib_Network/network.c **** //#define NTP_DIFFERENC_LONG_PACKET 13  //uart 9600
  44:lib_Network/network.c **** 
  45:lib_Network/network.c **** /*define for result ntp sync*/
  46:lib_Network/network.c **** #define OK      1
  47:lib_Network/network.c **** #define ERROR   0
  48:lib_Network/network.c ****     
  49:lib_Network/network.c **** /*segment time for NTP*/
  50:lib_Network/network.c **** #define T1                  0
  51:lib_Network/network.c **** #define T2                  1
  52:lib_Network/network.c **** #define T3                  2
  53:lib_Network/network.c **** #define T4                  3
  54:lib_Network/network.c **** 
  55:lib_Network/network.c **** typedef struct
  56:lib_Network/network.c **** {
  57:lib_Network/network.c ****     /*data to transmit*/
  58:lib_Network/network.c ****     uint8_t IDpacket;    
  59:lib_Network/network.c ****     uint8_t ready;          /*flag readu finish*/
  60:lib_Network/network.c ****     uint8_t reboot;         /*flag finish reboot*/
  61:lib_Network/network.c ****     uint8_t countSkiers;
  62:lib_Network/network.c ****     uint8_t testMode;
  63:lib_Network/network.c ****     uint64_t tmpTime;
  64:lib_Network/network.c ****     uint16_t tmpMsTime;
  65:lib_Network/network.c ****     uint8_t writeStatus;    /*flag transmitt data*/
  66:lib_Network/network.c **** }FinishData;
  67:lib_Network/network.c **** 
  68:lib_Network/network.c **** typedef struct
  69:lib_Network/network.c **** {
  70:lib_Network/network.c ****     /*data to receive*/
  71:lib_Network/network.c ****     uint8_t IDpacket;
  72:lib_Network/network.c ****     uint64_t unixStartTime;
  73:lib_Network/network.c ****     uint16_t startMsTime;
  74:lib_Network/network.c ****     uint8_t newSkier;
  75:lib_Network/network.c ****     uint8_t testMode;
  76:lib_Network/network.c ****     uint8_t reboot;     /*reboot=1, no reboot=0*/
  77:lib_Network/network.c ****     
  78:lib_Network/network.c ****     uint8_t readStatus;     /*flag successful read data in start*/
  79:lib_Network/network.c **** }StartData;
  80:lib_Network/network.c **** 
  81:lib_Network/network.c **** FinishData outData ;
  82:lib_Network/network.c **** StartData inData;
  83:lib_Network/network.c **** uint8_t rebootFlag ;
  84:lib_Network/network.c **** 
  85:lib_Network/network.c **** /*------TEST---------*/
  86:lib_Network/network.c **** uint8_t networkFlagEndReceivePacket;        //indicator end receive packet
  87:lib_Network/network.c **** uint8_t networkFlagReadyForReceive;         //indicator ready for receive next packet
  88:lib_Network/network.c **** struct Resp recvData;
  89:lib_Network/network.c **** static uint8_t networkNumTruCounter;
ARM GAS  C:\Users\Petro\AppData\Local\Temp\ccUyF7Zz.s 			page 3


  90:lib_Network/network.c **** /*------TEST---------*/
  91:lib_Network/network.c **** 
  92:lib_Network/network.c **** uint16_t numAttemps,noConnect, networkStatus;
  93:lib_Network/network.c **** uint32_t unixTime[4];
  94:lib_Network/network.c **** uint16_t millisTime[4];
  95:lib_Network/network.c **** uint8_t ntpFlagEndReceivePacket;        //indicator end receive packet
  96:lib_Network/network.c **** uint8_t ntpFlagReadyForReceive;         //indicator ready for receive next packet
  97:lib_Network/network.c **** NtpResp recvDataNTP;
  98:lib_Network/network.c **** uint8_t onNtpSync = 0;
  99:lib_Network/network.c **** 
 100:lib_Network/network.c **** /*timer time sync*/
 101:lib_Network/network.c **** uint32_t oldUnixTime;
 102:lib_Network/network.c **** 
 103:lib_Network/network.c **** 
 104:lib_Network/network.c **** uint32_t SendRealTimeToStart(void);
 105:lib_Network/network.c **** void NTPsendTime(uint32_t unixTime1,uint16_t millis1, uint16_t ID);
 106:lib_Network/network.c **** uint32_t NTPreceiveTime(uint32_t *unixTime2,uint16_t *millis2, uint32_t *unixTime3, uint16_t *milli
 107:lib_Network/network.c **** uint32_t NTPsetTimeToStart(uint32_t unixTime4,uint16_t millis4,  uint16_t ID);
 108:lib_Network/network.c **** void NTPcalculateTime(uint32_t unixTime[], uint16_t msTime[], int32_t *sumTime, int32_t *sumMs);
 109:lib_Network/network.c **** void CustomInterruptHandler(void);
 110:lib_Network/network.c **** void FuncTake(uint32_t sec1, uint16_t ms1, uint32_t sec2, uint16_t ms2, int32_t *resultSec, int16_t
 111:lib_Network/network.c **** 
 112:lib_Network/network.c **** void CallBackNetworkCounter(void)
 113:lib_Network/network.c **** {
 114:lib_Network/network.c ****     if(++networkNumTruCounter == NETWORK_TIMEOUT_WDT)
 115:lib_Network/network.c ****     {
 116:lib_Network/network.c ****         networkStatus = NETWORK_DISCONNECT;
 117:lib_Network/network.c ****         outData.writeStatus = NO_WRITE;
 118:lib_Network/network.c ****         networkNumTruCounter = 0;
 119:lib_Network/network.c ****     } 
 120:lib_Network/network.c **** }
 121:lib_Network/network.c **** 
 122:lib_Network/network.c **** /*******************************************************************************
 123:lib_Network/network.c **** * Function Name: InitNetwork
 124:lib_Network/network.c **** ********************************************************************************
 125:lib_Network/network.c **** *
 126:lib_Network/network.c **** * Summary:
 127:lib_Network/network.c **** *   initialization UART for XBee module
 128:lib_Network/network.c **** *
 129:lib_Network/network.c **** *******************************************************************************/
 130:lib_Network/network.c **** void InitNetwork(void)
 131:lib_Network/network.c **** {
 132:lib_Network/network.c ****     UART_XB_Start();
 133:lib_Network/network.c ****     UART_XB_SetCustomInterruptHandler(&CustomInterruptHandler);
 134:lib_Network/network.c ****     
 135:lib_Network/network.c ****     void (*CallBackWDT1)(void);   
 136:lib_Network/network.c ****     CallBackWDT1 = CallBackNetworkCounter; 
 137:lib_Network/network.c ****     CySysWdtSetInterruptCallback(1, CallBackWDT1);
 138:lib_Network/network.c ****     
 139:lib_Network/network.c ****     #ifdef DEBUG_INFO
 140:lib_Network/network.c ****     DEBUG_UART_Start();     
 141:lib_Network/network.c ****     DEBUG_UART_UartPutString("HElLO, IM READY(fin)\n\r");
 142:lib_Network/network.c ****     #endif
 143:lib_Network/network.c ****     
 144:lib_Network/network.c ****     inData.readStatus = READ_OK;
 145:lib_Network/network.c ****     outData.writeStatus = NO_WRITE;
 146:lib_Network/network.c ****     UART_XB_SpiUartClearRxBuffer();
ARM GAS  C:\Users\Petro\AppData\Local\Temp\ccUyF7Zz.s 			page 4


 147:lib_Network/network.c ****     
 148:lib_Network/network.c ****     rebootFlag = REBOOT;
 149:lib_Network/network.c **** }
 150:lib_Network/network.c **** 
 151:lib_Network/network.c **** 
 152:lib_Network/network.c **** void CustomInterruptHandler(void)
 153:lib_Network/network.c **** {
  26              		.loc 1 153 0
  27              		.cfi_startproc
  28              	.LVL0:
  29 0000 F0B5     		push	{r4, r5, r6, r7, lr}
  30              		.cfi_def_cfa_offset 20
  31              		.cfi_offset 4, -20
  32              		.cfi_offset 5, -16
  33              		.cfi_offset 6, -12
  34              		.cfi_offset 7, -8
  35              		.cfi_offset 14, -4
 154:lib_Network/network.c ****     uint8_t byte = 0;
 155:lib_Network/network.c ****     
 156:lib_Network/network.c ****     if(onNtpSync)
  36              		.loc 1 156 0
  37 0002 474B     		ldr	r3, .L25
 153:lib_Network/network.c ****     uint8_t byte = 0;
  38              		.loc 1 153 0
  39 0004 85B0     		sub	sp, sp, #20
  40              		.cfi_def_cfa_offset 40
  41              		.loc 1 156 0
  42 0006 1B78     		ldrb	r3, [r3]
  43 0008 002B     		cmp	r3, #0
  44 000a 2BD0     		beq	.L2
 157:lib_Network/network.c ****     {
 158:lib_Network/network.c ****         if(UART_XB_SpiUartGetRxBufferSize() > 0)
  45              		.loc 1 158 0
  46 000c FFF7FEFF 		bl	UART_XB_SpiUartGetRxBufferSize
  47              	.LVL1:
 154:lib_Network/network.c ****     
  48              		.loc 1 154 0
  49 0010 0021     		mov	r1, #0
  50              		.loc 1 158 0
  51 0012 8842     		cmp	r0, r1
  52 0014 02D0     		beq	.L3
 159:lib_Network/network.c ****             byte=UART_XB_UartGetChar();
  53              		.loc 1 159 0
  54 0016 FFF7FEFF 		bl	UART_XB_UartGetChar
  55              	.LVL2:
  56 001a C1B2     		uxtb	r1, r0
  57              	.LVL3:
  58              	.L3:
 160:lib_Network/network.c ****         
 161:lib_Network/network.c ****         if(ntpFlagReadyForReceive && byte != 0)
  59              		.loc 1 161 0
  60 001c 414D     		ldr	r5, .L25+4
  61 001e 2B78     		ldrb	r3, [r5]
  62 0020 002B     		cmp	r3, #0
  63 0022 00D1     		bne	.LCB35
  64 0024 79E0     		b	.L1	@long jump
  65              	.LCB35:
ARM GAS  C:\Users\Petro\AppData\Local\Temp\ccUyF7Zz.s 			page 5


  66              		.loc 1 161 0 is_stmt 0 discriminator 1
  67 0026 0029     		cmp	r1, #0
  68 0028 00D1     		bne	.LCB37
  69 002a 76E0     		b	.L1	@long jump
  70              	.LCB37:
 162:lib_Network/network.c ****         {
 163:lib_Network/network.c ****             NtpUnpackData(&recvDataNTP, (uint8_t)(byte & 0xFF));
  71              		.loc 1 163 0 is_stmt 1
  72 002c 3E4C     		ldr	r4, .L25+8
  73 002e 201C     		mov	r0, r4
  74 0030 FFF7FEFF 		bl	NtpUnpackData
  75              	.LVL4:
 164:lib_Network/network.c ****             
 165:lib_Network/network.c ****             if(recvDataNTP.EndPacket)
  76              		.loc 1 165 0
  77 0034 237D     		ldrb	r3, [r4, #20]
  78 0036 002B     		cmp	r3, #0
  79 0038 6FD0     		beq	.L1
 166:lib_Network/network.c ****             {
 167:lib_Network/network.c ****                 unixTime[T4] = RTC_GetUnixTime();
  80              		.loc 1 167 0
  81 003a FFF7FEFF 		bl	RTC_GetUnixTime
  82              	.LVL5:
  83 003e 3B4E     		ldr	r6, .L25+12
  84 0040 F060     		str	r0, [r6, #12]
 168:lib_Network/network.c ****                 millisTime[T4] = RTCgetRecentMs();
  85              		.loc 1 168 0
  86 0042 FFF7FEFF 		bl	RTCgetRecentMs
  87              	.LVL6:
  88 0046 3A4B     		ldr	r3, .L25+16
 169:lib_Network/network.c ****                 unixTime[T2] = recvDataNTP.Data1;
  89              		.loc 1 169 0
  90 0048 6268     		ldr	r2, [r4, #4]
 168:lib_Network/network.c ****                 millisTime[T4] = RTCgetRecentMs();
  91              		.loc 1 168 0
  92 004a D880     		strh	r0, [r3, #6]
  93              		.loc 1 169 0
  94 004c 7260     		str	r2, [r6, #4]
 170:lib_Network/network.c ****                 millisTime[T2] = recvDataNTP.DataMs1;
  95              		.loc 1 170 0
  96 004e 2289     		ldrh	r2, [r4, #8]
  97 0050 5A80     		strh	r2, [r3, #2]
 171:lib_Network/network.c ****                 unixTime[T3] = recvDataNTP.Data2;
  98              		.loc 1 171 0
  99 0052 E268     		ldr	r2, [r4, #12]
 100 0054 B260     		str	r2, [r6, #8]
 172:lib_Network/network.c ****                 millisTime[T3] = recvDataNTP.DataMs2;
 101              		.loc 1 172 0
 102 0056 6289     		ldrh	r2, [r4, #10]
 103 0058 9A80     		strh	r2, [r3, #4]
 173:lib_Network/network.c ****                 
 174:lib_Network/network.c ****                 #ifdef DEBUGNTP
 175:lib_Network/network.c ****                     pinDebugNtp_Write(1);
 176:lib_Network/network.c ****                     pinDebugNtp_Write(0);
 177:lib_Network/network.c ****                 #endif
 178:lib_Network/network.c ****                 
 179:lib_Network/network.c ****                 ntpFlagEndReceivePacket = 1;
ARM GAS  C:\Users\Petro\AppData\Local\Temp\ccUyF7Zz.s 			page 6


 104              		.loc 1 179 0
 105 005a 0122     		mov	r2, #1
 106 005c 354B     		ldr	r3, .L25+20
 107 005e 1A70     		strb	r2, [r3]
 180:lib_Network/network.c ****                 ntpFlagReadyForReceive = 0;
 108              		.loc 1 180 0
 109 0060 0023     		mov	r3, #0
 110 0062 49E0     		b	.L23
 111              	.LVL7:
 112              	.L2:
 181:lib_Network/network.c ****             }
 182:lib_Network/network.c ****         }
 183:lib_Network/network.c ****     }
 184:lib_Network/network.c ****     else    //network receive byte
 185:lib_Network/network.c ****     {      
 186:lib_Network/network.c ****         if(inData.readStatus == NO_READ && outData.writeStatus == WRITE_OK)
 113              		.loc 1 186 0
 114 0064 344C     		ldr	r4, .L25+24
 115 0066 677D     		ldrb	r7, [r4, #21]
 116 0068 002F     		cmp	r7, #0
 117 006a 56D1     		bne	.L1
 118              		.loc 1 186 0 is_stmt 0 discriminator 1
 119 006c 334D     		ldr	r5, .L25+28
 120 006e AB7C     		ldrb	r3, [r5, #18]
 121 0070 012B     		cmp	r3, #1
 122 0072 52D1     		bne	.L1
 187:lib_Network/network.c ****         {
 188:lib_Network/network.c ****             if(UART_XB_SpiUartGetRxBufferSize() > 0)
 123              		.loc 1 188 0 is_stmt 1
 124 0074 FFF7FEFF 		bl	UART_XB_SpiUartGetRxBufferSize
 125              	.LVL8:
 126 0078 0028     		cmp	r0, #0
 127 007a 4ED0     		beq	.L1
 189:lib_Network/network.c ****                 byte=UART_XB_UartGetChar();
 128              		.loc 1 189 0
 129 007c FFF7FEFF 		bl	UART_XB_UartGetChar
 130              	.LVL9:
 131 0080 C1B2     		uxtb	r1, r0
 132              	.LVL10:
 190:lib_Network/network.c ****                 
 191:lib_Network/network.c ****             if( byte != 0)
 133              		.loc 1 191 0
 134 0082 0029     		cmp	r1, #0
 135 0084 49D0     		beq	.L1
 192:lib_Network/network.c ****             {
 193:lib_Network/network.c ****                 UnpackData(&recvData, (uint8_t)(byte & 0xFF));
 136              		.loc 1 193 0
 137 0086 2E4E     		ldr	r6, .L25+32
 138 0088 301C     		mov	r0, r6
 139 008a FFF7FEFF 		bl	UnpackData
 140              	.LVL11:
 194:lib_Network/network.c ****                 
 195:lib_Network/network.c ****                 if(recvData.EndPacket == 1)
 141              		.loc 1 195 0
 142 008e 327E     		ldrb	r2, [r6, #24]
 143 0090 012A     		cmp	r2, #1
 144 0092 42D1     		bne	.L1
ARM GAS  C:\Users\Petro\AppData\Local\Temp\ccUyF7Zz.s 			page 7


 196:lib_Network/network.c ****                 {
 197:lib_Network/network.c ****                     inData.IDpacket = recvData.Seq;
 145              		.loc 1 197 0
 146 0094 3378     		ldrb	r3, [r6]
 198:lib_Network/network.c ****                     
 199:lib_Network/network.c ****                     /*id packet ok*/
 200:lib_Network/network.c ****                     if(outData.IDpacket == inData.IDpacket)
 147              		.loc 1 200 0
 148 0096 2978     		ldrb	r1, [r5]
 197:lib_Network/network.c ****                     
 149              		.loc 1 197 0
 150 0098 2370     		strb	r3, [r4]
 151              		.loc 1 200 0
 152 009a 9942     		cmp	r1, r3
 153 009c 2ED1     		bne	.L7
 201:lib_Network/network.c ****                     {
 202:lib_Network/network.c ****                         inData.readStatus = READ_OK;
 203:lib_Network/network.c ****                         outData.writeStatus = NO_WRITE;
 204:lib_Network/network.c ****                         
 205:lib_Network/network.c ****                         /*connect network*/
 206:lib_Network/network.c ****                         networkStatus = NETWORK_CONNECT;
 207:lib_Network/network.c ****                         networkNumTruCounter = 0;
 208:lib_Network/network.c ****                         
 209:lib_Network/network.c ****                         /*write data*/
 210:lib_Network/network.c ****                         inData.newSkier = (recvData.Data3 & 0xFF00) >> 8;
 211:lib_Network/network.c ****                         inData.unixStartTime = recvData.Data1;
 154              		.loc 1 211 0
 155 009e B068     		ldr	r0, [r6, #8]
 156 00a0 F168     		ldr	r1, [r6, #12]
 206:lib_Network/network.c ****                         networkNumTruCounter = 0;
 157              		.loc 1 206 0
 158 00a2 284B     		ldr	r3, .L25+36
 202:lib_Network/network.c ****                         outData.writeStatus = NO_WRITE;
 159              		.loc 1 202 0
 160 00a4 6275     		strb	r2, [r4, #21]
 206:lib_Network/network.c ****                         networkNumTruCounter = 0;
 161              		.loc 1 206 0
 162 00a6 1A80     		strh	r2, [r3]
 207:lib_Network/network.c ****                         
 163              		.loc 1 207 0
 164 00a8 1D4B     		ldr	r3, .L25
 203:lib_Network/network.c ****                         
 165              		.loc 1 203 0
 166 00aa AF74     		strb	r7, [r5, #18]
 207:lib_Network/network.c ****                         
 167              		.loc 1 207 0
 168 00ac 5F70     		strb	r7, [r3, #1]
 210:lib_Network/network.c ****                         inData.unixStartTime = recvData.Data1;
 169              		.loc 1 210 0
 170 00ae 778A     		ldrh	r7, [r6, #18]
 171              		.loc 1 211 0
 172 00b0 A060     		str	r0, [r4, #8]
 173 00b2 E160     		str	r1, [r4, #12]
 210:lib_Network/network.c ****                         inData.unixStartTime = recvData.Data1;
 174              		.loc 1 210 0
 175 00b4 3B0A     		lsr	r3, r7, #8
 176 00b6 A374     		strb	r3, [r4, #18]
ARM GAS  C:\Users\Petro\AppData\Local\Temp\ccUyF7Zz.s 			page 8


 212:lib_Network/network.c ****                         inData.startMsTime = recvData.Data2;
 177              		.loc 1 212 0
 178 00b8 328A     		ldrh	r2, [r6, #16]
 213:lib_Network/network.c ****                         inData.reboot = (recvData.Data3 & 0x00FF);
 214:lib_Network/network.c ****                         inData.testMode = recvData.Command;
 179              		.loc 1 214 0
 180 00ba 7668     		ldr	r6, [r6, #4]
 212:lib_Network/network.c ****                         inData.startMsTime = recvData.Data2;
 181              		.loc 1 212 0
 182 00bc 2282     		strh	r2, [r4, #16]
 213:lib_Network/network.c ****                         inData.reboot = (recvData.Data3 & 0x00FF);
 183              		.loc 1 213 0
 184 00be 2775     		strb	r7, [r4, #20]
 185              		.loc 1 214 0
 186 00c0 E674     		strb	r6, [r4, #19]
 215:lib_Network/network.c ****                         
 216:lib_Network/network.c ****                         /*if new skier on track*/
 217:lib_Network/network.c ****                         if(inData.newSkier == NEW_SKIER_IN_TARCK )
 187              		.loc 1 217 0
 188 00c2 012B     		cmp	r3, #1
 189 00c4 16D1     		bne	.L8
 218:lib_Network/network.c ****                         {
 219:lib_Network/network.c ****                             WriteStartTime(inData.unixStartTime, inData.startMsTime);
 190              		.loc 1 219 0
 191 00c6 FFF7FEFF 		bl	WriteStartTime
 192              	.LVL12:
 220:lib_Network/network.c ****                             BLE_sendOneSkierTimeStart(inData.unixStartTime, 
 193              		.loc 1 220 0
 194 00ca A668     		ldr	r6, [r4, #8]
 195 00cc E768     		ldr	r7, [r4, #12]
 196 00ce 238A     		ldrh	r3, [r4, #16]
 197 00d0 0393     		str	r3, [sp, #12]
 221:lib_Network/network.c ****                                                         inData.startMsTime,
 222:lib_Network/network.c ****                                                         GetIDskierStarted(),
 198              		.loc 1 222 0
 199 00d2 FFF7FEFF 		bl	GetIDskierStarted
 200              	.LVL13:
 201 00d6 041C     		mov	r4, r0
 223:lib_Network/network.c ****                                                         SkierOnWay(),
 202              		.loc 1 223 0
 203 00d8 FFF7FEFF 		bl	SkierOnWay
 204              	.LVL14:
 220:lib_Network/network.c ****                             BLE_sendOneSkierTimeStart(inData.unixStartTime, 
 205              		.loc 1 220 0
 206 00dc 0422     		mov	r2, #4
 207 00de C0B2     		uxtb	r0, r0
 208 00e0 E3B2     		uxtb	r3, r4
 209 00e2 0090     		str	r0, [sp]
 210 00e4 0192     		str	r2, [sp, #4]
 211 00e6 301C     		mov	r0, r6
 212 00e8 391C     		mov	r1, r7
 213 00ea 039A     		ldr	r2, [sp, #12]
 214 00ec FFF7FEFF 		bl	BLE_sendOneSkierTimeStart
 215              	.LVL15:
 224:lib_Network/network.c ****                                                         MAX_SKIERS_ON_WAY);
 225:lib_Network/network.c ****                             IncrementID();
 216              		.loc 1 225 0
ARM GAS  C:\Users\Petro\AppData\Local\Temp\ccUyF7Zz.s 			page 9


 217 00f0 FFF7FEFF 		bl	IncrementID
 218              	.LVL16:
 219              	.L8:
 226:lib_Network/network.c ****                         }
 227:lib_Network/network.c ****                         
 228:lib_Network/network.c ****                         /*next packet*/
 229:lib_Network/network.c ****                         outData.IDpacket++;
 220              		.loc 1 229 0
 221 00f4 2B78     		ldrb	r3, [r5]
 222 00f6 0133     		add	r3, r3, #1
 223              	.L23:
 224 00f8 2B70     		strb	r3, [r5]
 225 00fa 0EE0     		b	.L1
 226              	.L7:
 230:lib_Network/network.c ****                         //CyDelay(50);
 231:lib_Network/network.c ****                     }  
 232:lib_Network/network.c ****                     /* if prev packet late*/
 233:lib_Network/network.c ****                     else if(outData.IDpacket == (inData.IDpacket + 1))
 227              		.loc 1 233 0
 228 00fc 0133     		add	r3, r3, #1
 229 00fe 9942     		cmp	r1, r3
 230 0100 0BD1     		bne	.L1
 234:lib_Network/network.c ****                     {
 235:lib_Network/network.c ****                         inData.newSkier = recvData.Data3;
 236:lib_Network/network.c ****                         inData.unixStartTime = recvData.Data1;
 231              		.loc 1 236 0
 232 0102 B068     		ldr	r0, [r6, #8]
 233 0104 F168     		ldr	r1, [r6, #12]
 235:lib_Network/network.c ****                         inData.unixStartTime = recvData.Data1;
 234              		.loc 1 235 0
 235 0106 738A     		ldrh	r3, [r6, #18]
 236              		.loc 1 236 0
 237 0108 A060     		str	r0, [r4, #8]
 238 010a E160     		str	r1, [r4, #12]
 235:lib_Network/network.c ****                         inData.unixStartTime = recvData.Data1;
 239              		.loc 1 235 0
 240 010c A374     		strb	r3, [r4, #18]
 237:lib_Network/network.c ****                         inData.startMsTime = recvData.Data2;
 241              		.loc 1 237 0
 242 010e 338A     		ldrh	r3, [r6, #16]
 243 0110 2382     		strh	r3, [r4, #16]
 238:lib_Network/network.c ****                         
 239:lib_Network/network.c ****                         networkStatus = NETWORK_CONNECT;
 244              		.loc 1 239 0
 245 0112 0C4B     		ldr	r3, .L25+36
 246 0114 1A80     		strh	r2, [r3]
 240:lib_Network/network.c ****                         noConnect = 0;
 247              		.loc 1 240 0
 248 0116 0C4B     		ldr	r3, .L25+40
 249 0118 1F80     		strh	r7, [r3]
 250              	.L1:
 241:lib_Network/network.c ****                         //CyDelay(50);
 242:lib_Network/network.c ****                     }
 243:lib_Network/network.c ****                 }
 244:lib_Network/network.c ****             }
 245:lib_Network/network.c ****         }
 246:lib_Network/network.c ****     }  
ARM GAS  C:\Users\Petro\AppData\Local\Temp\ccUyF7Zz.s 			page 10


 247:lib_Network/network.c **** }
 251              		.loc 1 247 0
 252 011a 05B0     		add	sp, sp, #20
 253              		@ sp needed
 254 011c F0BD     		pop	{r4, r5, r6, r7, pc}
 255              	.L26:
 256 011e C046     		.align	2
 257              	.L25:
 258 0120 00000000 		.word	.LANCHOR0
 259 0124 00000000 		.word	ntpFlagReadyForReceive
 260 0128 00000000 		.word	recvDataNTP
 261 012c 00000000 		.word	unixTime
 262 0130 00000000 		.word	millisTime
 263 0134 00000000 		.word	ntpFlagEndReceivePacket
 264 0138 00000000 		.word	inData
 265 013c 00000000 		.word	outData
 266 0140 00000000 		.word	recvData
 267 0144 00000000 		.word	networkStatus
 268 0148 00000000 		.word	noConnect
 269              		.cfi_endproc
 270              	.LFE65:
 271              		.size	CustomInterruptHandler, .-CustomInterruptHandler
 272              		.section	.text.CallBackNetworkCounter,"ax",%progbits
 273              		.align	1
 274              		.global	CallBackNetworkCounter
 275              		.code	16
 276              		.thumb_func
 277              		.type	CallBackNetworkCounter, %function
 278              	CallBackNetworkCounter:
 279              	.LFB63:
 113:lib_Network/network.c ****     if(++networkNumTruCounter == NETWORK_TIMEOUT_WDT)
 280              		.loc 1 113 0
 281              		.cfi_startproc
 114:lib_Network/network.c ****     {
 282              		.loc 1 114 0
 283 0000 064A     		ldr	r2, .L29
 284 0002 5378     		ldrb	r3, [r2, #1]
 285 0004 0133     		add	r3, r3, #1
 286 0006 DBB2     		uxtb	r3, r3
 287 0008 5370     		strb	r3, [r2, #1]
 288 000a 032B     		cmp	r3, #3
 289 000c 05D1     		bne	.L27
 290              	.LBB4:
 291              	.LBB5:
 116:lib_Network/network.c ****         outData.writeStatus = NO_WRITE;
 292              		.loc 1 116 0
 293 000e 0023     		mov	r3, #0
 294 0010 0349     		ldr	r1, .L29+4
 118:lib_Network/network.c ****     } 
 295              		.loc 1 118 0
 296 0012 5370     		strb	r3, [r2, #1]
 116:lib_Network/network.c ****         outData.writeStatus = NO_WRITE;
 297              		.loc 1 116 0
 298 0014 0B80     		strh	r3, [r1]
 117:lib_Network/network.c ****         networkNumTruCounter = 0;
 299              		.loc 1 117 0
 300 0016 0349     		ldr	r1, .L29+8
ARM GAS  C:\Users\Petro\AppData\Local\Temp\ccUyF7Zz.s 			page 11


 301 0018 8B74     		strb	r3, [r1, #18]
 302              	.L27:
 303              	.LBE5:
 304              	.LBE4:
 120:lib_Network/network.c **** 
 305              		.loc 1 120 0
 306              		@ sp needed
 307 001a 7047     		bx	lr
 308              	.L30:
 309              		.align	2
 310              	.L29:
 311 001c 00000000 		.word	.LANCHOR0
 312 0020 00000000 		.word	networkStatus
 313 0024 00000000 		.word	outData
 314              		.cfi_endproc
 315              	.LFE63:
 316              		.size	CallBackNetworkCounter, .-CallBackNetworkCounter
 317              		.section	.text.InitNetwork,"ax",%progbits
 318              		.align	1
 319              		.global	InitNetwork
 320              		.code	16
 321              		.thumb_func
 322              		.type	InitNetwork, %function
 323              	InitNetwork:
 324              	.LFB64:
 131:lib_Network/network.c ****     UART_XB_Start();
 325              		.loc 1 131 0
 326              		.cfi_startproc
 327 0000 08B5     		push	{r3, lr}
 328              		.cfi_def_cfa_offset 8
 329              		.cfi_offset 3, -8
 330              		.cfi_offset 14, -4
 132:lib_Network/network.c ****     UART_XB_SetCustomInterruptHandler(&CustomInterruptHandler);
 331              		.loc 1 132 0
 332 0002 FFF7FEFF 		bl	UART_XB_Start
 333              	.LVL17:
 133:lib_Network/network.c ****     
 334              		.loc 1 133 0
 335 0006 0948     		ldr	r0, .L32
 336 0008 FFF7FEFF 		bl	UART_XB_SetCustomInterruptHandler
 337              	.LVL18:
 137:lib_Network/network.c ****     
 338              		.loc 1 137 0
 339 000c 0849     		ldr	r1, .L32+4
 340 000e 0120     		mov	r0, #1
 341 0010 FFF7FEFF 		bl	CySysWdtSetInterruptCallback
 342              	.LVL19:
 144:lib_Network/network.c ****     outData.writeStatus = NO_WRITE;
 343              		.loc 1 144 0
 344 0014 0122     		mov	r2, #1
 345 0016 074B     		ldr	r3, .L32+8
 149:lib_Network/network.c **** 
 346              		.loc 1 149 0
 347              		@ sp needed
 144:lib_Network/network.c ****     outData.writeStatus = NO_WRITE;
 348              		.loc 1 144 0
 349 0018 5A75     		strb	r2, [r3, #21]
ARM GAS  C:\Users\Petro\AppData\Local\Temp\ccUyF7Zz.s 			page 12


 145:lib_Network/network.c ****     UART_XB_SpiUartClearRxBuffer();
 350              		.loc 1 145 0
 351 001a 0022     		mov	r2, #0
 352 001c 064B     		ldr	r3, .L32+12
 353 001e 9A74     		strb	r2, [r3, #18]
 146:lib_Network/network.c ****     
 354              		.loc 1 146 0
 355 0020 FFF7FEFF 		bl	UART_XB_SpiUartClearRxBuffer
 356              	.LVL20:
 148:lib_Network/network.c **** }
 357              		.loc 1 148 0
 358 0024 FF22     		mov	r2, #255
 359 0026 054B     		ldr	r3, .L32+16
 360 0028 1A70     		strb	r2, [r3]
 149:lib_Network/network.c **** 
 361              		.loc 1 149 0
 362 002a 08BD     		pop	{r3, pc}
 363              	.L33:
 364              		.align	2
 365              	.L32:
 366 002c 00000000 		.word	CustomInterruptHandler
 367 0030 00000000 		.word	CallBackNetworkCounter
 368 0034 00000000 		.word	inData
 369 0038 00000000 		.word	outData
 370 003c 00000000 		.word	rebootFlag
 371              		.cfi_endproc
 372              	.LFE64:
 373              		.size	InitNetwork, .-InitNetwork
 374              		.section	.text.SendData,"ax",%progbits
 375              		.align	1
 376              		.global	SendData
 377              		.code	16
 378              		.thumb_func
 379              		.type	SendData, %function
 380              	SendData:
 381              	.LFB66:
 248:lib_Network/network.c **** 
 249:lib_Network/network.c **** 
 250:lib_Network/network.c **** /*******************************************************************************
 251:lib_Network/network.c **** * Function Name: SendData
 252:lib_Network/network.c **** ********************************************************************************
 253:lib_Network/network.c **** *
 254:lib_Network/network.c **** * Summary:
 255:lib_Network/network.c **** *   send data to start from struct "outData"
 256:lib_Network/network.c **** *
 257:lib_Network/network.c **** *******************************************************************************/
 258:lib_Network/network.c **** void SendData(void)
 259:lib_Network/network.c **** {   
 382              		.loc 1 259 0
 383              		.cfi_startproc
 384 0000 70B5     		push	{r4, r5, r6, lr}
 385              		.cfi_def_cfa_offset 16
 386              		.cfi_offset 4, -16
 387              		.cfi_offset 5, -12
 388              		.cfi_offset 6, -8
 389              		.cfi_offset 14, -4
 260:lib_Network/network.c ****     if( outData.writeStatus == NO_WRITE || inData.readStatus == READ_OK)
ARM GAS  C:\Users\Petro\AppData\Local\Temp\ccUyF7Zz.s 			page 13


 390              		.loc 1 260 0
 391 0002 164C     		ldr	r4, .L40
 259:lib_Network/network.c ****     if( outData.writeStatus == NO_WRITE || inData.readStatus == READ_OK)
 392              		.loc 1 259 0
 393 0004 9EB0     		sub	sp, sp, #120
 394              		.cfi_def_cfa_offset 136
 395              		.loc 1 260 0
 396 0006 A37C     		ldrb	r3, [r4, #18]
 397 0008 154D     		ldr	r5, .L40+4
 398 000a 002B     		cmp	r3, #0
 399 000c 02D0     		beq	.L35
 400              		.loc 1 260 0 is_stmt 0 discriminator 1
 401 000e 6B7D     		ldrb	r3, [r5, #21]
 402 0010 012B     		cmp	r3, #1
 403 0012 21D1     		bne	.L34
 404              	.L35:
 405              	.LBB6:
 261:lib_Network/network.c ****     {
 262:lib_Network/network.c ****         char sendBuffer[DATA_BUFFER];
 263:lib_Network/network.c ****         char sendData[DATA_BUFFER];
 264:lib_Network/network.c ****         
 265:lib_Network/network.c ****         outData.countSkiers = SkierOnWay();
 406              		.loc 1 265 0 is_stmt 1
 407 0014 FFF7FEFF 		bl	SkierOnWay
 408              	.LVL21:
 266:lib_Network/network.c ****         
 267:lib_Network/network.c ****         /*pack data*/
 268:lib_Network/network.c ****         sprintf(sendData,"%02X:%016X%02X%02X%02X%02X", outData.testMode, 0u, outData.ready, outData
 409              		.loc 1 268 0
 410 0018 0026     		mov	r6, #0
 411 001a 6378     		ldrb	r3, [r4, #1]
 265:lib_Network/network.c ****         
 412              		.loc 1 265 0
 413 001c E070     		strb	r0, [r4, #3]
 414              		.loc 1 268 0
 415 001e 2279     		ldrb	r2, [r4, #4]
 416 0020 0093     		str	r3, [sp]
 417 0022 A378     		ldrb	r3, [r4, #2]
 418 0024 C0B2     		uxtb	r0, r0
 419 0026 0193     		str	r3, [sp, #4]
 420 0028 0290     		str	r0, [sp, #8]
 421 002a 331C     		mov	r3, r6
 422 002c 0D49     		ldr	r1, .L40+8
 423 002e 0396     		str	r6, [sp, #12]
 424 0030 11A8     		add	r0, sp, #68
 425 0032 FFF7FEFF 		bl	sprintf
 426              	.LVL22:
 269:lib_Network/network.c ****                                                         outData.countSkiers, 0u);    
 270:lib_Network/network.c ****         PackData(sendBuffer, (uint8_t *)sendData, outData.IDpacket);
 427              		.loc 1 270 0
 428 0036 2278     		ldrb	r2, [r4]
 429 0038 11A9     		add	r1, sp, #68
 430 003a 04A8     		add	r0, sp, #16
 431 003c FFF7FEFF 		bl	PackData
 432              	.LVL23:
 271:lib_Network/network.c ****         UART_XB_UartPutString(sendBuffer);
 433              		.loc 1 271 0
ARM GAS  C:\Users\Petro\AppData\Local\Temp\ccUyF7Zz.s 			page 14


 434 0040 04A8     		add	r0, sp, #16
 435 0042 FFF7FEFF 		bl	UART_XB_UartPutString
 436              	.LVL24:
 272:lib_Network/network.c ****         UART_XB_UartPutChar('0');
 437              		.loc 1 272 0
 438 0046 3020     		mov	r0, #48
 439 0048 FFF7FEFF 		bl	UART_XB_SpiUartWriteTxData
 440              	.LVL25:
 273:lib_Network/network.c ****         
 274:lib_Network/network.c ****         
 275:lib_Network/network.c ****         /*flag transmit data*/
 276:lib_Network/network.c ****         outData.writeStatus = WRITE_OK;
 441              		.loc 1 276 0
 442 004c 0123     		mov	r3, #1
 277:lib_Network/network.c ****         inData.readStatus = NO_READ;
 278:lib_Network/network.c ****         
 279:lib_Network/network.c ****         CyDelay(50);
 443              		.loc 1 279 0
 444 004e 3220     		mov	r0, #50
 276:lib_Network/network.c ****         inData.readStatus = NO_READ;
 445              		.loc 1 276 0
 446 0050 A374     		strb	r3, [r4, #18]
 277:lib_Network/network.c ****         inData.readStatus = NO_READ;
 447              		.loc 1 277 0
 448 0052 6E75     		strb	r6, [r5, #21]
 449              		.loc 1 279 0
 450 0054 FFF7FEFF 		bl	CyDelay
 451              	.LVL26:
 452              	.L34:
 453              	.LBE6:
 280:lib_Network/network.c ****     }
 281:lib_Network/network.c **** }
 454              		.loc 1 281 0
 455 0058 1EB0     		add	sp, sp, #120
 456              		@ sp needed
 457 005a 70BD     		pop	{r4, r5, r6, pc}
 458              	.L41:
 459              		.align	2
 460              	.L40:
 461 005c 00000000 		.word	outData
 462 0060 00000000 		.word	inData
 463 0064 00000000 		.word	.LC21
 464              		.cfi_endproc
 465              	.LFE66:
 466              		.size	SendData, .-SendData
 467              		.section	.text.SendFinStatus,"ax",%progbits
 468              		.align	1
 469              		.global	SendFinStatus
 470              		.code	16
 471              		.thumb_func
 472              		.type	SendFinStatus, %function
 473              	SendFinStatus:
 474              	.LFB67:
 282:lib_Network/network.c **** 
 283:lib_Network/network.c **** /*******************************************************************************
 284:lib_Network/network.c **** * Function Name: ReceiveData
 285:lib_Network/network.c **** ********************************************************************************
ARM GAS  C:\Users\Petro\AppData\Local\Temp\ccUyF7Zz.s 			page 15


 286:lib_Network/network.c **** *
 287:lib_Network/network.c **** * Summary:
 288:lib_Network/network.c **** *   receive data from start in struct "inData"
 289:lib_Network/network.c **** * Return:
 290:lib_Network/network.c **** *   NETWORK_CONNECT or NETWORK_DISCONNECT
 291:lib_Network/network.c **** *
 292:lib_Network/network.c **** *******************************************************************************/
 293:lib_Network/network.c **** //uint32_t  ReceiveData(void)
 294:lib_Network/network.c **** //{   
 295:lib_Network/network.c **** //    if(inData.readStatus == NO_READ && outData.writeStatus == WRITE_OK)
 296:lib_Network/network.c **** //    {
 297:lib_Network/network.c **** //        uint32_t result = 0;
 298:lib_Network/network.c **** //        int i;
 299:lib_Network/network.c **** //        uint8_t byte;
 300:lib_Network/network.c **** //        struct Resp recvData;
 301:lib_Network/network.c **** //          
 302:lib_Network/network.c **** //        while((UART_XB_SpiUartGetRxBufferSize() > 0) && ((byte=UART_XB_UartGetChar()) != 0))
 303:lib_Network/network.c **** //        { 
 304:lib_Network/network.c **** //            result = UnpackData(&recvData, (uint8_t)(byte & 0xFF));
 305:lib_Network/network.c **** //            CyDelay(2);
 306:lib_Network/network.c **** //            
 307:lib_Network/network.c **** //            
 308:lib_Network/network.c **** //            if(recvData.EndPacket == 1)
 309:lib_Network/network.c **** //            {
 310:lib_Network/network.c **** //                inData.IDpacket = recvData.Seq;
 311:lib_Network/network.c **** //                
 312:lib_Network/network.c **** //                /*id packet ok*/
 313:lib_Network/network.c **** //                if(outData.IDpacket == inData.IDpacket)
 314:lib_Network/network.c **** //                {
 315:lib_Network/network.c **** //                    inData.readStatus = READ_OK;
 316:lib_Network/network.c **** //                    outData.writeStatus = NO_WRITE;
 317:lib_Network/network.c **** //                    
 318:lib_Network/network.c **** //                    /*connect network*/
 319:lib_Network/network.c **** //                    networkStatus = NETWORK_CONNECT;
 320:lib_Network/network.c **** //                    noConnect = 0;
 321:lib_Network/network.c **** //                    
 322:lib_Network/network.c **** //                    /*write data*/
 323:lib_Network/network.c **** //                    inData.newSkier = (recvData.Data3 & 0xFF00) >> 8;
 324:lib_Network/network.c **** //                    inData.unixStartTime = recvData.Data1;
 325:lib_Network/network.c **** //                    inData.startMsTime = recvData.Data2;
 326:lib_Network/network.c **** //                    inData.reboot = (recvData.Data3 & 0x00FF);
 327:lib_Network/network.c **** //                    inData.testMode = recvData.Command;
 328:lib_Network/network.c **** //                    
 329:lib_Network/network.c **** //                    /*if new skier on track*/
 330:lib_Network/network.c **** //                    if(inData.newSkier == NEW_SKIER_IN_TARCK )
 331:lib_Network/network.c **** //                    {
 332:lib_Network/network.c **** //                        WriteStartTime(inData.unixStartTime, inData.startMsTime);
 333:lib_Network/network.c **** //                        BLE_sendOneSkierTimeStart(inData.unixStartTime, inData.startMsTime,GetIDs
 334:lib_Network/network.c **** //                        IncrementID();
 335:lib_Network/network.c **** //                    }
 336:lib_Network/network.c **** //                    
 337:lib_Network/network.c **** //                    /*next packet*/
 338:lib_Network/network.c **** //                    outData.IDpacket++;
 339:lib_Network/network.c **** //                    CyDelay(50);
 340:lib_Network/network.c **** //                }  
 341:lib_Network/network.c **** //                /* if prev packet late*/
 342:lib_Network/network.c **** //                else if(outData.IDpacket == (inData.IDpacket + 1))
ARM GAS  C:\Users\Petro\AppData\Local\Temp\ccUyF7Zz.s 			page 16


 343:lib_Network/network.c **** //                {
 344:lib_Network/network.c **** //                    inData.newSkier = recvData.Data3;
 345:lib_Network/network.c **** //                    inData.unixStartTime = recvData.Data1;
 346:lib_Network/network.c **** //                    inData.startMsTime = recvData.Data2;
 347:lib_Network/network.c **** //                    
 348:lib_Network/network.c **** //                    networkStatus = NETWORK_CONNECT;
 349:lib_Network/network.c **** //                    noConnect = 0;
 350:lib_Network/network.c **** //                    CyDelay(50);
 351:lib_Network/network.c **** //                }
 352:lib_Network/network.c **** //                return  NETWORK_CONNECT;  
 353:lib_Network/network.c **** //            }
 354:lib_Network/network.c **** //        }
 355:lib_Network/network.c **** //        
 356:lib_Network/network.c **** //        noConnect++;
 357:lib_Network/network.c **** //        if(noConnect >= NETWORK_TIMEOUT)
 358:lib_Network/network.c **** //        {
 359:lib_Network/network.c **** //            outData.writeStatus = NO_WRITE;
 360:lib_Network/network.c **** //            inData.readStatus = NO_READ;
 361:lib_Network/network.c **** //            networkStatus = NETWORK_DISCONNECT;
 362:lib_Network/network.c **** //        }
 363:lib_Network/network.c **** //        
 364:lib_Network/network.c **** //        return  NETWORK_DISCONNECT;
 365:lib_Network/network.c **** //    }
 366:lib_Network/network.c **** //    return 0;
 367:lib_Network/network.c **** //}
 368:lib_Network/network.c **** 
 369:lib_Network/network.c **** 
 370:lib_Network/network.c **** /*******************************************************************************
 371:lib_Network/network.c **** * Function Name: SendFinStatus
 372:lib_Network/network.c **** ********************************************************************************
 373:lib_Network/network.c **** *
 374:lib_Network/network.c **** * Summary:
 375:lib_Network/network.c **** *   set fin status
 376:lib_Network/network.c **** * Parametrs:
 377:lib_Network/network.c **** *   FIN_READY or FIN_NO_READY
 378:lib_Network/network.c **** *
 379:lib_Network/network.c **** *******************************************************************************/
 380:lib_Network/network.c **** void SendFinStatus(uint32_t status)
 381:lib_Network/network.c **** {
 475              		.loc 1 381 0
 476              		.cfi_startproc
 477              	.LVL27:
 382:lib_Network/network.c ****     outData.ready = status;
 478              		.loc 1 382 0
 479 0000 014B     		ldr	r3, .L43
 383:lib_Network/network.c **** }
 480              		.loc 1 383 0
 481              		@ sp needed
 382:lib_Network/network.c ****     outData.ready = status;
 482              		.loc 1 382 0
 483 0002 5870     		strb	r0, [r3, #1]
 484              		.loc 1 383 0
 485 0004 7047     		bx	lr
 486              	.L44:
 487 0006 C046     		.align	2
 488              	.L43:
 489 0008 00000000 		.word	outData
ARM GAS  C:\Users\Petro\AppData\Local\Temp\ccUyF7Zz.s 			page 17


 490              		.cfi_endproc
 491              	.LFE67:
 492              		.size	SendFinStatus, .-SendFinStatus
 493              		.section	.text.NetworkStatus,"ax",%progbits
 494              		.align	1
 495              		.global	NetworkStatus
 496              		.code	16
 497              		.thumb_func
 498              		.type	NetworkStatus, %function
 499              	NetworkStatus:
 500              	.LFB68:
 384:lib_Network/network.c **** 
 385:lib_Network/network.c **** /*******************************************************************************
 386:lib_Network/network.c **** * Function Name: NetworkStatus
 387:lib_Network/network.c **** ********************************************************************************
 388:lib_Network/network.c **** *
 389:lib_Network/network.c **** * Summary:
 390:lib_Network/network.c **** *   read network status
 391:lib_Network/network.c **** * Return:
 392:lib_Network/network.c **** *   NETWORK_CONNECT or NETWORK_DISCONNECT
 393:lib_Network/network.c **** *
 394:lib_Network/network.c **** *******************************************************************************/
 395:lib_Network/network.c **** uint32_t NetworkStatus(void)
 396:lib_Network/network.c **** {
 501              		.loc 1 396 0
 502              		.cfi_startproc
 397:lib_Network/network.c ****     return networkStatus;
 503              		.loc 1 397 0
 504 0000 014B     		ldr	r3, .L46
 398:lib_Network/network.c **** }
 505              		.loc 1 398 0
 506              		@ sp needed
 397:lib_Network/network.c ****     return networkStatus;
 507              		.loc 1 397 0
 508 0002 1888     		ldrh	r0, [r3]
 509              		.loc 1 398 0
 510 0004 7047     		bx	lr
 511              	.L47:
 512 0006 C046     		.align	2
 513              	.L46:
 514 0008 00000000 		.word	networkStatus
 515              		.cfi_endproc
 516              	.LFE68:
 517              		.size	NetworkStatus, .-NetworkStatus
 518              		.section	.text.IsRebootStartFlag,"ax",%progbits
 519              		.align	1
 520              		.global	IsRebootStartFlag
 521              		.code	16
 522              		.thumb_func
 523              		.type	IsRebootStartFlag, %function
 524              	IsRebootStartFlag:
 525              	.LFB69:
 399:lib_Network/network.c **** 
 400:lib_Network/network.c **** /*******************************************************************************
 401:lib_Network/network.c **** * Function Name: ReadRebootStartFlag
 402:lib_Network/network.c **** ********************************************************************************
 403:lib_Network/network.c **** *
ARM GAS  C:\Users\Petro\AppData\Local\Temp\ccUyF7Zz.s 			page 18


 404:lib_Network/network.c **** * Summary:
 405:lib_Network/network.c **** *   read reboot flag from start
 406:lib_Network/network.c **** * Return:
 407:lib_Network/network.c **** *   REBOOT or NO_REBOOT
 408:lib_Network/network.c **** *
 409:lib_Network/network.c **** *******************************************************************************/
 410:lib_Network/network.c **** uint32_t IsRebootStartFlag(void)
 411:lib_Network/network.c **** {
 526              		.loc 1 411 0
 527              		.cfi_startproc
 412:lib_Network/network.c ****     uint32_t result;
 413:lib_Network/network.c ****     
 414:lib_Network/network.c ****     if((inData.reboot == 1 && outData.reboot == 0) || (rebootFlag == REBOOT))
 528              		.loc 1 414 0
 529 0000 0A4B     		ldr	r3, .L56
 530 0002 1A7D     		ldrb	r2, [r3, #20]
 531 0004 012A     		cmp	r2, #1
 532 0006 03D1     		bne	.L49
 533              		.loc 1 414 0 is_stmt 0 discriminator 1
 534 0008 094A     		ldr	r2, .L56+4
 535 000a 9278     		ldrb	r2, [r2, #2]
 536 000c 002A     		cmp	r2, #0
 537 000e 03D0     		beq	.L50
 538              	.L49:
 539              		.loc 1 414 0 discriminator 3
 540 0010 084A     		ldr	r2, .L56+8
 541 0012 1278     		ldrb	r2, [r2]
 542 0014 FF2A     		cmp	r2, #255
 543 0016 03D1     		bne	.L51
 544              	.L50:
 545              	.LVL28:
 415:lib_Network/network.c ****     {
 416:lib_Network/network.c ****         result = REBOOT;
 417:lib_Network/network.c ****         inData.reboot = 0;
 546              		.loc 1 417 0 is_stmt 1
 547 0018 0022     		mov	r2, #0
 416:lib_Network/network.c ****         inData.reboot = 0;
 548              		.loc 1 416 0
 549 001a FF20     		mov	r0, #255
 550              		.loc 1 417 0
 551 001c 1A75     		strb	r2, [r3, #20]
 552 001e 04E0     		b	.L52
 553              	.LVL29:
 554              	.L51:
 418:lib_Network/network.c ****     }
 419:lib_Network/network.c ****     else 
 420:lib_Network/network.c ****     {
 421:lib_Network/network.c ****         outData.reboot = 0;
 555              		.loc 1 421 0
 556 0020 0022     		mov	r2, #0
 422:lib_Network/network.c ****         inData.reboot = 0;
 423:lib_Network/network.c ****         result = NO_REBOOT;
 557              		.loc 1 423 0
 558 0022 FE20     		mov	r0, #254
 421:lib_Network/network.c ****         inData.reboot = 0;
 559              		.loc 1 421 0
 560 0024 0249     		ldr	r1, .L56+4
ARM GAS  C:\Users\Petro\AppData\Local\Temp\ccUyF7Zz.s 			page 19


 422:lib_Network/network.c ****         inData.reboot = 0;
 561              		.loc 1 422 0
 562 0026 1A75     		strb	r2, [r3, #20]
 563              	.LVL30:
 421:lib_Network/network.c ****         inData.reboot = 0;
 564              		.loc 1 421 0
 565 0028 8A70     		strb	r2, [r1, #2]
 566              	.LVL31:
 567              	.L52:
 424:lib_Network/network.c ****     }
 425:lib_Network/network.c ****     return result;
 426:lib_Network/network.c **** }
 568              		.loc 1 426 0
 569              		@ sp needed
 570 002a 7047     		bx	lr
 571              	.L57:
 572              		.align	2
 573              	.L56:
 574 002c 00000000 		.word	inData
 575 0030 00000000 		.word	outData
 576 0034 00000000 		.word	rebootFlag
 577              		.cfi_endproc
 578              	.LFE69:
 579              		.size	IsRebootStartFlag, .-IsRebootStartFlag
 580              		.section	.text.ClearRebootFlag,"ax",%progbits
 581              		.align	1
 582              		.global	ClearRebootFlag
 583              		.code	16
 584              		.thumb_func
 585              		.type	ClearRebootFlag, %function
 586              	ClearRebootFlag:
 587              	.LFB70:
 427:lib_Network/network.c **** 
 428:lib_Network/network.c **** void ClearRebootFlag(void)
 429:lib_Network/network.c **** {
 588              		.loc 1 429 0
 589              		.cfi_startproc
 430:lib_Network/network.c ****     outData.reboot = 0;
 590              		.loc 1 430 0
 591 0000 0023     		mov	r3, #0
 592 0002 044A     		ldr	r2, .L59
 431:lib_Network/network.c ****     inData.reboot = 0;
 432:lib_Network/network.c ****     rebootFlag = NO_REBOOT;
 433:lib_Network/network.c **** }
 593              		.loc 1 433 0
 594              		@ sp needed
 430:lib_Network/network.c ****     outData.reboot = 0;
 595              		.loc 1 430 0
 596 0004 9370     		strb	r3, [r2, #2]
 431:lib_Network/network.c ****     inData.reboot = 0;
 597              		.loc 1 431 0
 598 0006 044A     		ldr	r2, .L59+4
 599 0008 1375     		strb	r3, [r2, #20]
 432:lib_Network/network.c **** }
 600              		.loc 1 432 0
 601 000a FE22     		mov	r2, #254
 602 000c 034B     		ldr	r3, .L59+8
ARM GAS  C:\Users\Petro\AppData\Local\Temp\ccUyF7Zz.s 			page 20


 603 000e 1A70     		strb	r2, [r3]
 604              		.loc 1 433 0
 605 0010 7047     		bx	lr
 606              	.L60:
 607 0012 C046     		.align	2
 608              	.L59:
 609 0014 00000000 		.word	outData
 610 0018 00000000 		.word	inData
 611 001c 00000000 		.word	rebootFlag
 612              		.cfi_endproc
 613              	.LFE70:
 614              		.size	ClearRebootFlag, .-ClearRebootFlag
 615              		.section	.text.SetRebootFlag,"ax",%progbits
 616              		.align	1
 617              		.global	SetRebootFlag
 618              		.code	16
 619              		.thumb_func
 620              		.type	SetRebootFlag, %function
 621              	SetRebootFlag:
 622              	.LFB71:
 434:lib_Network/network.c **** 
 435:lib_Network/network.c **** /*******************************************************************************
 436:lib_Network/network.c **** * Function Name: WriteRebootFlag
 437:lib_Network/network.c **** ********************************************************************************
 438:lib_Network/network.c **** *
 439:lib_Network/network.c **** * Summary:
 440:lib_Network/network.c **** *   write reboot flag to start
 441:lib_Network/network.c **** *
 442:lib_Network/network.c **** *******************************************************************************/
 443:lib_Network/network.c **** void SetRebootFlag(void)
 444:lib_Network/network.c **** {
 623              		.loc 1 444 0
 624              		.cfi_startproc
 445:lib_Network/network.c ****     outData.reboot = 1;
 625              		.loc 1 445 0
 626 0000 0122     		mov	r2, #1
 627 0002 044B     		ldr	r3, .L62
 446:lib_Network/network.c ****     inData.reboot = 0;
 447:lib_Network/network.c ****     rebootFlag = REBOOT;
 448:lib_Network/network.c **** }
 628              		.loc 1 448 0
 629              		@ sp needed
 445:lib_Network/network.c ****     outData.reboot = 1;
 630              		.loc 1 445 0
 631 0004 9A70     		strb	r2, [r3, #2]
 446:lib_Network/network.c ****     inData.reboot = 0;
 632              		.loc 1 446 0
 633 0006 0022     		mov	r2, #0
 634 0008 034B     		ldr	r3, .L62+4
 635 000a 1A75     		strb	r2, [r3, #20]
 447:lib_Network/network.c **** }
 636              		.loc 1 447 0
 637 000c 034B     		ldr	r3, .L62+8
 638 000e FF32     		add	r2, r2, #255
 639 0010 1A70     		strb	r2, [r3]
 640              		.loc 1 448 0
 641 0012 7047     		bx	lr
ARM GAS  C:\Users\Petro\AppData\Local\Temp\ccUyF7Zz.s 			page 21


 642              	.L63:
 643              		.align	2
 644              	.L62:
 645 0014 00000000 		.word	outData
 646 0018 00000000 		.word	inData
 647 001c 00000000 		.word	rebootFlag
 648              		.cfi_endproc
 649              	.LFE71:
 650              		.size	SetRebootFlag, .-SetRebootFlag
 651              		.section	.text.NetworkReadTestModeStatus,"ax",%progbits
 652              		.align	1
 653              		.global	NetworkReadTestModeStatus
 654              		.code	16
 655              		.thumb_func
 656              		.type	NetworkReadTestModeStatus, %function
 657              	NetworkReadTestModeStatus:
 658              	.LFB72:
 449:lib_Network/network.c **** 
 450:lib_Network/network.c **** /*******************************************************************************
 451:lib_Network/network.c **** * Function Name: NetworkReadTestModeStatus
 452:lib_Network/network.c **** ********************************************************************************
 453:lib_Network/network.c **** *
 454:lib_Network/network.c **** * Summary:
 455:lib_Network/network.c **** *   reading adopted flag test mode
 456:lib_Network/network.c **** *
 457:lib_Network/network.c **** * Returns:
 458:lib_Network/network.c **** *   testMode status
 459:lib_Network/network.c **** *******************************************************************************/
 460:lib_Network/network.c **** uint8_t NetworkReadTestModeStatus()
 461:lib_Network/network.c **** {
 659              		.loc 1 461 0
 660              		.cfi_startproc
 462:lib_Network/network.c ****     return inData.testMode;
 661              		.loc 1 462 0
 662 0000 014B     		ldr	r3, .L65
 463:lib_Network/network.c **** }
 663              		.loc 1 463 0
 664              		@ sp needed
 462:lib_Network/network.c ****     return inData.testMode;
 665              		.loc 1 462 0
 666 0002 D87C     		ldrb	r0, [r3, #19]
 667              		.loc 1 463 0
 668 0004 7047     		bx	lr
 669              	.L66:
 670 0006 C046     		.align	2
 671              	.L65:
 672 0008 00000000 		.word	inData
 673              		.cfi_endproc
 674              	.LFE72:
 675              		.size	NetworkReadTestModeStatus, .-NetworkReadTestModeStatus
 676              		.section	.text.NetworkSendTestModeStatus,"ax",%progbits
 677              		.align	1
 678              		.global	NetworkSendTestModeStatus
 679              		.code	16
 680              		.thumb_func
 681              		.type	NetworkSendTestModeStatus, %function
 682              	NetworkSendTestModeStatus:
ARM GAS  C:\Users\Petro\AppData\Local\Temp\ccUyF7Zz.s 			page 22


 683              	.LFB73:
 464:lib_Network/network.c **** 
 465:lib_Network/network.c **** /*******************************************************************************
 466:lib_Network/network.c **** * Function Name: NetworkSendTestModeStatus
 467:lib_Network/network.c **** ********************************************************************************
 468:lib_Network/network.c **** *
 469:lib_Network/network.c **** * Summary:
 470:lib_Network/network.c **** *   exhibiting a test mode for future shipping
 471:lib_Network/network.c **** *
 472:lib_Network/network.c **** * Parametrs:
 473:lib_Network/network.c **** *   0 - test mode stopped
 474:lib_Network/network.c **** *   1 - test mode started
 475:lib_Network/network.c **** *******************************************************************************/
 476:lib_Network/network.c **** void NetworkSendTestModeStatus(uint8_t testMode)
 477:lib_Network/network.c **** {
 684              		.loc 1 477 0
 685              		.cfi_startproc
 686              	.LVL32:
 687 0000 034B     		ldr	r3, .L70
 478:lib_Network/network.c ****     if(testMode > 0)
 688              		.loc 1 478 0
 689 0002 0028     		cmp	r0, #0
 690 0004 02D0     		beq	.L68
 479:lib_Network/network.c ****     {
 480:lib_Network/network.c ****         outData.testMode = 1;
 691              		.loc 1 480 0
 692 0006 0122     		mov	r2, #1
 693 0008 1A71     		strb	r2, [r3, #4]
 694 000a 00E0     		b	.L67
 695              	.L68:
 481:lib_Network/network.c ****     }
 482:lib_Network/network.c ****     else
 483:lib_Network/network.c ****     {
 484:lib_Network/network.c ****         outData.testMode = 0;
 696              		.loc 1 484 0
 697 000c 1871     		strb	r0, [r3, #4]
 698              	.L67:
 485:lib_Network/network.c ****     }
 486:lib_Network/network.c **** }
 699              		.loc 1 486 0
 700              		@ sp needed
 701 000e 7047     		bx	lr
 702              	.L71:
 703              		.align	2
 704              	.L70:
 705 0010 00000000 		.word	outData
 706              		.cfi_endproc
 707              	.LFE73:
 708              		.size	NetworkSendTestModeStatus, .-NetworkSendTestModeStatus
 709              		.section	.text.NTPsendTime,"ax",%progbits
 710              		.align	1
 711              		.global	NTPsendTime
 712              		.code	16
 713              		.thumb_func
 714              		.type	NTPsendTime, %function
 715              	NTPsendTime:
 716              	.LFB75:
ARM GAS  C:\Users\Petro\AppData\Local\Temp\ccUyF7Zz.s 			page 23


 487:lib_Network/network.c **** 
 488:lib_Network/network.c **** 
 489:lib_Network/network.c **** /*******************************************************************************
 490:lib_Network/network.c **** * Function Name: NTPsync
 491:lib_Network/network.c **** ********************************************************************************
 492:lib_Network/network.c **** *
 493:lib_Network/network.c **** * Summary:
 494:lib_Network/network.c **** *   NTP time synchronization protocol on
 495:lib_Network/network.c **** * Return:
 496:lib_Network/network.c **** *   TIME_SYNC_OK or TIME_SYNC_ERR
 497:lib_Network/network.c **** *
 498:lib_Network/network.c **** *******************************************************************************/
 499:lib_Network/network.c **** uint32_t NTPsync(void)
 500:lib_Network/network.c **** {
 501:lib_Network/network.c ****     uint16_t result;
 502:lib_Network/network.c ****     uint16_t IDpacket;
 503:lib_Network/network.c ****     UART_XB_SpiUartClearRxBuffer();
 504:lib_Network/network.c ****     
 505:lib_Network/network.c ****     /*----------------------------------------------------------
 506:lib_Network/network.c ****     send real unix time
 507:lib_Network/network.c ****     ----------------------------------------------------------*/
 508:lib_Network/network.c ****     uint16_t delayReceivePacket ;
 509:lib_Network/network.c ****     uint16_t numAttemptSendPacket = NTP_CONNECT_ATTEMPS;
 510:lib_Network/network.c ****     result = ERROR;
 511:lib_Network/network.c ****     ntpFlagReadyForReceive = 1;
 512:lib_Network/network.c ****     onNtpSync = 1;
 513:lib_Network/network.c ****     
 514:lib_Network/network.c ****     while(numAttemptSendPacket && result != OK)
 515:lib_Network/network.c ****     {
 516:lib_Network/network.c ****         IDpacket = 1;
 517:lib_Network/network.c ****         unixTime[T1] = RTCGetUnixTime();
 518:lib_Network/network.c ****         millisTime[T1] = RTCgetRecentMs();
 519:lib_Network/network.c ****         #ifdef DEBUGNTP
 520:lib_Network/network.c ****             pinDebugNtp_Write(1);
 521:lib_Network/network.c ****             pinDebugNtp_Write(0);
 522:lib_Network/network.c ****             pinDebugNtp_Write(1);
 523:lib_Network/network.c ****             pinDebugNtp_Write(0);
 524:lib_Network/network.c ****         #endif 
 525:lib_Network/network.c ****         
 526:lib_Network/network.c ****         NTPsendTime(unixTime[T1], millisTime[T1], IDpacket);
 527:lib_Network/network.c ****         
 528:lib_Network/network.c ****         delayReceivePacket = NTP_DELAY_RECEIVED_PACKET;
 529:lib_Network/network.c ****         uint32_t oldUnixTime = RTCGetUnixTime();
 530:lib_Network/network.c ****         delayReceivePacket += RTCgetRecentMs();
 531:lib_Network/network.c ****         
 532:lib_Network/network.c ****         #ifdef DEBUG_INFO
 533:lib_Network/network.c **** //                DEBUG_UART_UartPutString("send new packet\n\r");
 534:lib_Network/network.c ****         #endif
 535:lib_Network/network.c ****         
 536:lib_Network/network.c ****         while((RTCgetRecentMs() < delayReceivePacket) && (result != OK))
 537:lib_Network/network.c ****         {
 538:lib_Network/network.c ****             if(ntpFlagEndReceivePacket)
 539:lib_Network/network.c ****             {
 540:lib_Network/network.c ****                 ntpFlagEndReceivePacket = 0;
 541:lib_Network/network.c ****                 
 542:lib_Network/network.c ****                 if(recvDataNTP.Id == IDpacket)
 543:lib_Network/network.c ****                 {
ARM GAS  C:\Users\Petro\AppData\Local\Temp\ccUyF7Zz.s 			page 24


 544:lib_Network/network.c ****                     result = OK;
 545:lib_Network/network.c ****                 }
 546:lib_Network/network.c ****                 
 547:lib_Network/network.c ****                 #ifdef DEBUG_INFO
 548:lib_Network/network.c **** //                        sprintf(uartBuff,"idreceive=%d\n\r",recvDataNTP.Id);
 549:lib_Network/network.c **** //                        DEBUG_UART_UartPutString(uartBuff);
 550:lib_Network/network.c ****                 #endif
 551:lib_Network/network.c ****                 
 552:lib_Network/network.c ****                 ntpFlagReadyForReceive = 1;
 553:lib_Network/network.c ****             }
 554:lib_Network/network.c ****             
 555:lib_Network/network.c ****             if((oldUnixTime<RTCGetUnixTime()) && (delayReceivePacket >= 1000))
 556:lib_Network/network.c ****             {
 557:lib_Network/network.c ****                 delayReceivePacket -= 1000;
 558:lib_Network/network.c ****                 oldUnixTime++;
 559:lib_Network/network.c ****                 
 560:lib_Network/network.c ****                 #ifdef DEBUG_INFO
 561:lib_Network/network.c **** //                        sprintf(uartBuff,"delayReceive=%d, realTimeMs=%d\n\r",delayReceivePacket,
 562:lib_Network/network.c **** //                        DEBUG_UART_UartPutString(uartBuff);
 563:lib_Network/network.c **** //                        sprintf(uartBuff,"unix[T1]=%d, realTimeunix=%d\n\r",unixTime[T1],(uint32_
 564:lib_Network/network.c **** //                        DEBUG_UART_UartPutString(uartBuff);
 565:lib_Network/network.c ****                 #endif
 566:lib_Network/network.c ****             }
 567:lib_Network/network.c ****         }
 568:lib_Network/network.c ****         numAttemptSendPacket--;
 569:lib_Network/network.c ****     }
 570:lib_Network/network.c ****     
 571:lib_Network/network.c ****     
 572:lib_Network/network.c ****     
 573:lib_Network/network.c ****     /*----------------------------------------------------------
 574:lib_Network/network.c ****     calculate difference time
 575:lib_Network/network.c ****     ----------------------------------------------------------*/
 576:lib_Network/network.c ****     uint8_t numSuccessuflPacket = 0;
 577:lib_Network/network.c ****     int32_t unixTimeDifference = 0;
 578:lib_Network/network.c ****     int32_t msTimeDifference = 0;
 579:lib_Network/network.c ****     numAttemptSendPacket = 0;
 580:lib_Network/network.c ****     IDpacket = 2;
 581:lib_Network/network.c **** 
 582:lib_Network/network.c ****     if(result == OK)
 583:lib_Network/network.c ****     {
 584:lib_Network/network.c ****         numSuccessuflPacket = NTP_SUCCESSFUL_PACKET;
 585:lib_Network/network.c ****         numAttemptSendPacket = NTP_CONNECT_ATTEMPS;
 586:lib_Network/network.c ****     }
 587:lib_Network/network.c ****     
 588:lib_Network/network.c ****     while(numAttemptSendPacket && numSuccessuflPacket )
 589:lib_Network/network.c ****     {
 590:lib_Network/network.c ****         result = ERROR;
 591:lib_Network/network.c ****         unixTime[T1] = RTCGetUnixTime();
 592:lib_Network/network.c ****         millisTime[T1] = RTCgetRecentMs();
 593:lib_Network/network.c ****         #ifdef DEBUGNTP
 594:lib_Network/network.c ****             pinDebugNtp_Write(1);
 595:lib_Network/network.c ****             pinDebugNtp_Write(0);
 596:lib_Network/network.c ****             pinDebugNtp_Write(1);
 597:lib_Network/network.c ****             pinDebugNtp_Write(0);
 598:lib_Network/network.c ****         #endif 
 599:lib_Network/network.c ****         NTPsendTime(unixTime[T1], millisTime[T1], IDpacket);
 600:lib_Network/network.c ****         
ARM GAS  C:\Users\Petro\AppData\Local\Temp\ccUyF7Zz.s 			page 25


 601:lib_Network/network.c ****         delayReceivePacket =  2*NTP_DELAY_RECEIVED_PACKET ;
 602:lib_Network/network.c ****         delayReceivePacket += RTCgetRecentMs();
 603:lib_Network/network.c ****         uint32_t oldUnixTime = RTCGetUnixTime();
 604:lib_Network/network.c ****         #ifdef DEBUG_INFO
 605:lib_Network/network.c **** //                DEBUG_UART_UartPutString("send new packet\n\r");
 606:lib_Network/network.c **** //                sprintf(uartBuff,"numSuccesful=%d\n\n\r",numSuccessuflPacket);
 607:lib_Network/network.c **** //                DEBUG_UART_UartPutString(uartBuff);
 608:lib_Network/network.c ****         #endif
 609:lib_Network/network.c ****         
 610:lib_Network/network.c ****         while((RTCgetRecentMs() < delayReceivePacket) && (result != OK) )
 611:lib_Network/network.c ****         {
 612:lib_Network/network.c ****             if(ntpFlagEndReceivePacket)
 613:lib_Network/network.c ****             {
 614:lib_Network/network.c ****                 ntpFlagEndReceivePacket = 0;
 615:lib_Network/network.c ****                 
 616:lib_Network/network.c ****                 if(recvDataNTP.Id == IDpacket)
 617:lib_Network/network.c ****                 {
 618:lib_Network/network.c ****                     numSuccessuflPacket--;  
 619:lib_Network/network.c ****                     numAttemptSendPacket = NTP_CONNECT_ATTEMPS;
 620:lib_Network/network.c ****                     result = OK;
 621:lib_Network/network.c ****                     
 622:lib_Network/network.c ****                     /*calculate difference time*/
 623:lib_Network/network.c ****                     int32_t tmpUnix, tmpMs;
 624:lib_Network/network.c ****                     NTPcalculateTime(unixTime,millisTime,&tmpUnix,&tmpMs);
 625:lib_Network/network.c ****                     unixTimeDifference += tmpUnix;
 626:lib_Network/network.c ****                     msTimeDifference += tmpMs;
 627:lib_Network/network.c ****                     
 628:lib_Network/network.c ****                     #ifdef DEBUG_INFO
 629:lib_Network/network.c **** //                        sprintf(uartBuff,"diff unix=%d, diff ms-%d\n\r",tmpUnix, tmpMs);
 630:lib_Network/network.c **** //                        DEBUG_UART_UartPutString(uartBuff);
 631:lib_Network/network.c **** //                        int32_t tmpU;
 632:lib_Network/network.c **** //                        int16_t tmpms;
 633:lib_Network/network.c **** //
 634:lib_Network/network.c **** //                        FuncTake(unixTime[T3],millisTime[T3],unixTime[T2],millisTime[T2],&tmpU,&t
 635:lib_Network/network.c **** //                        sprintf(uartBuff,"T3-T2=%d.%d\n\r",tmpU, tmpms);
 636:lib_Network/network.c **** //                        DEBUG_UART_UartPutString(uartBuff);
 637:lib_Network/network.c **** //                        
 638:lib_Network/network.c **** //                        FuncTake(unixTime[T4],millisTime[T4],unixTime[T1],millisTime[T1],&tmpU,&t
 639:lib_Network/network.c **** //                        sprintf(uartBuff,"T4-T1=%d.%d\n\r",tmpU, tmpms);
 640:lib_Network/network.c **** //                        DEBUG_UART_UartPutString(uartBuff);
 641:lib_Network/network.c **** //                        
 642:lib_Network/network.c **** //                        FuncTake(unixTime[T2],millisTime[T2],unixTime[T1],millisTime[T1],&tmpU,&t
 643:lib_Network/network.c **** //                        sprintf(uartBuff,"T2-T1=%d.%d\n\r",tmpU, tmpms);
 644:lib_Network/network.c **** //                        DEBUG_UART_UartPutString(uartBuff);
 645:lib_Network/network.c ****                     #endif
 646:lib_Network/network.c ****                 }
 647:lib_Network/network.c ****                 
 648:lib_Network/network.c ****                 #ifdef DEBUG_INFO
 649:lib_Network/network.c **** //                        sprintf(uartBuff,"succesful=%d\n\r",numSuccessuflPacket);
 650:lib_Network/network.c **** //                        DEBUG_UART_UartPutString(uartBuff);
 651:lib_Network/network.c ****                 #endif
 652:lib_Network/network.c ****                 
 653:lib_Network/network.c ****                 ntpFlagReadyForReceive = 1;
 654:lib_Network/network.c ****             }
 655:lib_Network/network.c ****             if((oldUnixTime<RTCGetUnixTime()) && (delayReceivePacket >= 1000))
 656:lib_Network/network.c ****             {
 657:lib_Network/network.c ****                 delayReceivePacket -= 1000;
ARM GAS  C:\Users\Petro\AppData\Local\Temp\ccUyF7Zz.s 			page 26


 658:lib_Network/network.c ****                 oldUnixTime++;
 659:lib_Network/network.c ****             }
 660:lib_Network/network.c ****         }
 661:lib_Network/network.c ****         numAttemptSendPacket--;
 662:lib_Network/network.c ****         IDpacket++;
 663:lib_Network/network.c ****     }
 664:lib_Network/network.c ****     
 665:lib_Network/network.c ****     
 666:lib_Network/network.c ****     if(result == OK)
 667:lib_Network/network.c ****     {
 668:lib_Network/network.c ****         unixTimeDifference /= NTP_SUCCESSFUL_PACKET;
 669:lib_Network/network.c ****         msTimeDifference /= NTP_SUCCESSFUL_PACKET;
 670:lib_Network/network.c ****         msTimeDifference += NTP_DIFFERENC_LONG_PACKET; //add static diff time to send packet 
 671:lib_Network/network.c ****     }
 672:lib_Network/network.c ****     
 673:lib_Network/network.c ****     
 674:lib_Network/network.c ****     
 675:lib_Network/network.c ****     /*----------------------------------------------------------
 676:lib_Network/network.c ****     send to start difference time
 677:lib_Network/network.c ****     ----------------------------------------------------------*/
 678:lib_Network/network.c ****     numAttemptSendPacket = 0;
 679:lib_Network/network.c ****     if(result == OK)
 680:lib_Network/network.c ****     {
 681:lib_Network/network.c ****         numAttemptSendPacket = NTP_CONNECT_ATTEMPS;
 682:lib_Network/network.c ****     }
 683:lib_Network/network.c ****     ntpFlagReadyForReceive = 1;
 684:lib_Network/network.c ****     IDpacket = 0;
 685:lib_Network/network.c ****     
 686:lib_Network/network.c ****     while(numAttemptSendPacket)
 687:lib_Network/network.c ****     {
 688:lib_Network/network.c ****         result = ERROR;
 689:lib_Network/network.c ****         
 690:lib_Network/network.c ****         #ifdef DEBUGNTP
 691:lib_Network/network.c ****             pinDebugNtp_Write(1);
 692:lib_Network/network.c ****             pinDebugNtp_Write(0);
 693:lib_Network/network.c ****             pinDebugNtp_Write(1);
 694:lib_Network/network.c ****             pinDebugNtp_Write(0);
 695:lib_Network/network.c ****         #endif 
 696:lib_Network/network.c ****         /*send difference time*/
 697:lib_Network/network.c ****         NTPsendTime(0, (uint16)-msTimeDifference, IDpacket);
 698:lib_Network/network.c ****         
 699:lib_Network/network.c ****         delayReceivePacket = NTP_DELAY_RECEIVED_PACKET;
 700:lib_Network/network.c ****         uint32_t oldUnixTime = RTCGetUnixTime();       
 701:lib_Network/network.c ****         delayReceivePacket += RTCgetRecentMs();
 702:lib_Network/network.c ****         
 703:lib_Network/network.c ****         #ifdef DEBUG_INFO
 704:lib_Network/network.c **** //            DEBUG_UART_UartPutString("send new packet\n\r");
 705:lib_Network/network.c **** //            sprintf(uartBuff, "numAttemptSendPacket=%d\n\r",numAttemptSendPacket);
 706:lib_Network/network.c **** //            DEBUG_UART_UartPutString(uartBuff);
 707:lib_Network/network.c ****         #endif
 708:lib_Network/network.c ****         
 709:lib_Network/network.c ****         while((RTCgetRecentMs() < delayReceivePacket) && (result != OK))
 710:lib_Network/network.c ****         {
 711:lib_Network/network.c ****             if(ntpFlagEndReceivePacket)
 712:lib_Network/network.c ****             {
 713:lib_Network/network.c ****                 ntpFlagEndReceivePacket = 0;
 714:lib_Network/network.c ****                 
ARM GAS  C:\Users\Petro\AppData\Local\Temp\ccUyF7Zz.s 			page 27


 715:lib_Network/network.c ****                 if(recvDataNTP.Id == IDpacket)
 716:lib_Network/network.c ****                 {
 717:lib_Network/network.c ****                     result = OK;
 718:lib_Network/network.c ****                 }
 719:lib_Network/network.c ****                 
 720:lib_Network/network.c ****                 #ifdef DEBUG_INFO
 721:lib_Network/network.c **** //                        sprintf(uartBuff,"idreceive=%d\n\r",recvDataNTP.Id);
 722:lib_Network/network.c **** //                        DEBUG_UART_UartPutString(uartBuff);
 723:lib_Network/network.c ****                 #endif
 724:lib_Network/network.c ****                 
 725:lib_Network/network.c ****                 ntpFlagReadyForReceive = 1;
 726:lib_Network/network.c ****             }
 727:lib_Network/network.c ****             
 728:lib_Network/network.c ****             if((oldUnixTime<RTCGetUnixTime()) && (delayReceivePacket >= 1000))
 729:lib_Network/network.c ****             {
 730:lib_Network/network.c ****                 delayReceivePacket -= 1000;
 731:lib_Network/network.c ****                 oldUnixTime++;
 732:lib_Network/network.c ****                 
 733:lib_Network/network.c ****                 #ifdef DEBUG_INFO
 734:lib_Network/network.c **** //                        sprintf(uartBuff,"delayReceive=%d, realTimeMs=%d\n\r",delayReceivePacket,
 735:lib_Network/network.c **** //                        DEBUG_UART_UartPutString(uartBuff);
 736:lib_Network/network.c **** //                        sprintf(uartBuff,"unix[T1]=%d, realTimeunix=%d\n\r",unixTime[T1],(uint32_
 737:lib_Network/network.c **** //                        DEBUG_UART_UartPutString(uartBuff);
 738:lib_Network/network.c ****                 #endif
 739:lib_Network/network.c ****             }
 740:lib_Network/network.c ****         }
 741:lib_Network/network.c ****         numAttemptSendPacket--;
 742:lib_Network/network.c ****         if(result == OK)
 743:lib_Network/network.c ****             numAttemptSendPacket = 0;
 744:lib_Network/network.c ****     }
 745:lib_Network/network.c ****     
 746:lib_Network/network.c ****     #ifdef DEBUG_INFO
 747:lib_Network/network.c ****         if(result == OK)
 748:lib_Network/network.c ****         DEBUG_UART_UartPutString("okey\n\r");
 749:lib_Network/network.c ****         else
 750:lib_Network/network.c ****         DEBUG_UART_UartPutString("error\n\r");
 751:lib_Network/network.c ****     #endif
 752:lib_Network/network.c ****     
 753:lib_Network/network.c ****     if(result == OK)
 754:lib_Network/network.c ****         result = TIME_SYNC_OK;
 755:lib_Network/network.c ****     else
 756:lib_Network/network.c ****         result = TIME_SYNC_ERR;
 757:lib_Network/network.c ****     
 758:lib_Network/network.c ****     onNtpSync = 0;
 759:lib_Network/network.c **** 
 760:lib_Network/network.c ****     return result;
 761:lib_Network/network.c **** }
 762:lib_Network/network.c **** 
 763:lib_Network/network.c **** 
 764:lib_Network/network.c **** /*******************************************************************************
 765:lib_Network/network.c **** * Function Name: NTPsendTime
 766:lib_Network/network.c **** ********************************************************************************
 767:lib_Network/network.c **** *
 768:lib_Network/network.c **** * Summary:
 769:lib_Network/network.c **** *   send time to NTP protocol
 770:lib_Network/network.c **** * Parametrs:
 771:lib_Network/network.c **** *   unixTime - time in unix format
ARM GAS  C:\Users\Petro\AppData\Local\Temp\ccUyF7Zz.s 			page 28


 772:lib_Network/network.c **** *   millis - millis time
 773:lib_Network/network.c **** *   ID - ID packet
 774:lib_Network/network.c **** *
 775:lib_Network/network.c **** *******************************************************************************/
 776:lib_Network/network.c **** void NTPsendTime(uint32_t unixTime,uint16_t millis, uint16_t ID)
 777:lib_Network/network.c **** {
 717              		.loc 1 777 0
 718              		.cfi_startproc
 719              	.LVL33:
 720 0000 30B5     		push	{r4, r5, lr}
 721              		.cfi_def_cfa_offset 12
 722              		.cfi_offset 4, -12
 723              		.cfi_offset 5, -8
 724              		.cfi_offset 14, -4
 725 0002 051C     		mov	r5, r0
 726 0004 141C     		mov	r4, r2
 727 0006 9BB0     		sub	sp, sp, #108
 728              		.cfi_def_cfa_offset 120
 729              		.loc 1 777 0
 730 0008 0B1C     		mov	r3, r1
 778:lib_Network/network.c ****     char sendBuffer[DATA_BUFFER];
 779:lib_Network/network.c ****     char sendData[DATA_BUFFER];
 780:lib_Network/network.c ****     
 781:lib_Network/network.c ****     /*pack data*/
 782:lib_Network/network.c ****     sprintf(sendData,"%08X%03X", unixTime,millis); 
 731              		.loc 1 782 0
 732 000a 2A1C     		mov	r2, r5
 733              	.LVL34:
 734 000c 0DA8     		add	r0, sp, #52
 735              	.LVL35:
 736 000e 0849     		ldr	r1, .L73
 737              	.LVL36:
 738 0010 FFF7FEFF 		bl	sprintf
 739              	.LVL37:
 783:lib_Network/network.c ****     PackData(sendBuffer, (uint8_t *)sendData, ID);
 740              		.loc 1 783 0
 741 0014 0DA9     		add	r1, sp, #52
 742 0016 221C     		mov	r2, r4
 743 0018 6846     		mov	r0, sp
 744 001a FFF7FEFF 		bl	PackData
 745              	.LVL38:
 784:lib_Network/network.c ****     UART_XB_UartPutString(sendBuffer);
 746              		.loc 1 784 0
 747 001e 6846     		mov	r0, sp
 748 0020 FFF7FEFF 		bl	UART_XB_UartPutString
 749              	.LVL39:
 785:lib_Network/network.c ****     UART_XB_UartPutChar('0');
 750              		.loc 1 785 0
 751 0024 3020     		mov	r0, #48
 752 0026 FFF7FEFF 		bl	UART_XB_SpiUartWriteTxData
 753              	.LVL40:
 786:lib_Network/network.c ****     
 787:lib_Network/network.c **** }
 754              		.loc 1 787 0
 755 002a 1BB0     		add	sp, sp, #108
 756              		@ sp needed
 757              	.LVL41:
ARM GAS  C:\Users\Petro\AppData\Local\Temp\ccUyF7Zz.s 			page 29


 758 002c 30BD     		pop	{r4, r5, pc}
 759              	.L74:
 760 002e C046     		.align	2
 761              	.L73:
 762 0030 1B000000 		.word	.LC44
 763              		.cfi_endproc
 764              	.LFE75:
 765              		.size	NTPsendTime, .-NTPsendTime
 766              		.section	.text.FuncTake,"ax",%progbits
 767              		.align	1
 768              		.global	FuncTake
 769              		.code	16
 770              		.thumb_func
 771              		.type	FuncTake, %function
 772              	FuncTake:
 773              	.LFB77:
 788:lib_Network/network.c **** 
 789:lib_Network/network.c **** 
 790:lib_Network/network.c **** 
 791:lib_Network/network.c **** 
 792:lib_Network/network.c **** void NTPcalculateTime(uint32_t unixTime[], uint16_t msTime[], int32_t *sumTime, int32_t *sumMs)
 793:lib_Network/network.c **** {
 794:lib_Network/network.c ****     /*calculate ms time*/
 795:lib_Network/network.c ****     int16_t tmpMs21;
 796:lib_Network/network.c ****     int32_t tmpTime21;    
 797:lib_Network/network.c ****     int16_t tmpMs34;
 798:lib_Network/network.c ****     int32_t tmpTime34;
 799:lib_Network/network.c ****     int32_t tmpDiffTime;
 800:lib_Network/network.c ****     int16_t tmpDiffMs;
 801:lib_Network/network.c **** 
 802:lib_Network/network.c ****     FuncTake(unixTime[T2],msTime[T2],unixTime[T1],msTime[T1],&tmpTime21,&tmpMs21);
 803:lib_Network/network.c ****     FuncTake(unixTime[T3],msTime[T3],unixTime[T4],msTime[T4],&tmpTime34,&tmpMs34);
 804:lib_Network/network.c **** 
 805:lib_Network/network.c ****     tmpDiffTime = tmpTime21 + tmpTime34;
 806:lib_Network/network.c ****     tmpDiffMs = tmpMs21 + tmpMs34;
 807:lib_Network/network.c ****     if(tmpDiffMs >= 1000)
 808:lib_Network/network.c ****     {
 809:lib_Network/network.c ****         tmpDiffTime += 1;
 810:lib_Network/network.c ****         tmpDiffMs -= 1000;
 811:lib_Network/network.c ****     }
 812:lib_Network/network.c ****     else if(tmpDiffMs <= -1000)
 813:lib_Network/network.c ****     {
 814:lib_Network/network.c ****         tmpDiffTime -= 1;
 815:lib_Network/network.c ****         tmpDiffMs += 1000;
 816:lib_Network/network.c ****     }
 817:lib_Network/network.c ****     
 818:lib_Network/network.c ****     tmpDiffMs /= 2;
 819:lib_Network/network.c ****     if(tmpDiffTime%2 == 1)
 820:lib_Network/network.c ****     {
 821:lib_Network/network.c ****         tmpDiffMs += 500;
 822:lib_Network/network.c ****     }
 823:lib_Network/network.c ****     tmpDiffTime /= 2;
 824:lib_Network/network.c ****     
 825:lib_Network/network.c ****     *sumTime = tmpDiffTime;
 826:lib_Network/network.c ****     *sumMs = tmpDiffMs; 
 827:lib_Network/network.c **** 
 828:lib_Network/network.c **** }
ARM GAS  C:\Users\Petro\AppData\Local\Temp\ccUyF7Zz.s 			page 30


 829:lib_Network/network.c **** 
 830:lib_Network/network.c **** void FuncTake(uint32_t sec1, uint16_t ms1, uint32_t sec2, uint16_t ms2, int32_t *resultSec, int16_t
 831:lib_Network/network.c **** {
 774              		.loc 1 831 0
 775              		.cfi_startproc
 776              	.LVL42:
 777 0000 30B5     		push	{r4, r5, lr}
 778              		.cfi_def_cfa_offset 12
 779              		.cfi_offset 4, -12
 780              		.cfi_offset 5, -8
 781              		.cfi_offset 14, -4
 832:lib_Network/network.c **** 	*resultSec = sec1 - sec2;
 833:lib_Network/network.c **** 	*resultMs = ms1 - ms2;
 782              		.loc 1 833 0
 783 0002 CB1A     		sub	r3, r1, r3
 784              	.LVL43:
 831:lib_Network/network.c **** 	*resultSec = sec1 - sec2;
 785              		.loc 1 831 0
 786 0004 039C     		ldr	r4, [sp, #12]
 832:lib_Network/network.c **** 	*resultSec = sec1 - sec2;
 787              		.loc 1 832 0
 788 0006 821A     		sub	r2, r0, r2
 789              	.LVL44:
 790              		.loc 1 833 0
 791 0008 9BB2     		uxth	r3, r3
 831:lib_Network/network.c **** 	*resultSec = sec1 - sec2;
 792              		.loc 1 831 0
 793 000a 049D     		ldr	r5, [sp, #16]
 832:lib_Network/network.c **** 	*resultSec = sec1 - sec2;
 794              		.loc 1 832 0
 795 000c 2260     		str	r2, [r4]
 796              		.loc 1 833 0
 797 000e 99B2     		uxth	r1, r3
 798              	.LVL45:
 834:lib_Network/network.c **** 	if (*resultSec < 0)
 799              		.loc 1 834 0
 800 0010 002A     		cmp	r2, #0
 801 0012 09DA     		bge	.L76
 835:lib_Network/network.c **** 	{	
 836:lib_Network/network.c **** 		if (*resultMs > 0)
 802              		.loc 1 836 0
 803 0014 08B2     		sxth	r0, r1
 804              	.LVL46:
 805 0016 0028     		cmp	r0, #0
 806 0018 01DC     		bgt	.L77
 807              	.L79:
 833:lib_Network/network.c **** 	if (*resultSec < 0)
 808              		.loc 1 833 0
 809 001a 2980     		strh	r1, [r5]
 810 001c 0FE0     		b	.L75
 811              	.L77:
 837:lib_Network/network.c **** 		{
 838:lib_Network/network.c **** 			*resultMs -= 1000;
 812              		.loc 1 838 0
 813 001e 0849     		ldr	r1, .L84
 839:lib_Network/network.c **** 			*resultSec += 1;
 814              		.loc 1 839 0
ARM GAS  C:\Users\Petro\AppData\Local\Temp\ccUyF7Zz.s 			page 31


 815 0020 0132     		add	r2, r2, #1
 838:lib_Network/network.c **** 			*resultSec += 1;
 816              		.loc 1 838 0
 817 0022 5B18     		add	r3, r3, r1
 818 0024 2B80     		strh	r3, [r5]
 819 0026 09E0     		b	.L83
 820              	.LVL47:
 821              	.L76:
 840:lib_Network/network.c **** 		}
 841:lib_Network/network.c **** 	}
 842:lib_Network/network.c **** 	else if(*resultSec > 0)
 822              		.loc 1 842 0
 823 0028 002A     		cmp	r2, #0
 824 002a F6D0     		beq	.L79
 843:lib_Network/network.c **** 	{
 844:lib_Network/network.c **** 		if (*resultMs < 0)
 825              		.loc 1 844 0
 826 002c 08B2     		sxth	r0, r1
 827              	.LVL48:
 828 002e 0028     		cmp	r0, #0
 829 0030 F3DA     		bge	.L79
 845:lib_Network/network.c **** 		{
 846:lib_Network/network.c **** 			*resultMs += 1000;
 830              		.loc 1 846 0
 831 0032 FA21     		mov	r1, #250
 832 0034 8900     		lsl	r1, r1, #2
 833 0036 5B18     		add	r3, r3, r1
 834 0038 2B80     		strh	r3, [r5]
 847:lib_Network/network.c **** 			*resultSec -= 1;
 835              		.loc 1 847 0
 836 003a 013A     		sub	r2, r2, #1
 837              	.L83:
 838 003c 2260     		str	r2, [r4]
 839              	.L75:
 848:lib_Network/network.c **** 		}
 849:lib_Network/network.c **** 	}
 850:lib_Network/network.c **** }
 840              		.loc 1 850 0
 841              		@ sp needed
 842 003e 30BD     		pop	{r4, r5, pc}
 843              	.L85:
 844              		.align	2
 845              	.L84:
 846 0040 18FCFFFF 		.word	-1000
 847              		.cfi_endproc
 848              	.LFE77:
 849              		.size	FuncTake, .-FuncTake
 850              		.section	.text.NTPcalculateTime,"ax",%progbits
 851              		.align	1
 852              		.global	NTPcalculateTime
 853              		.code	16
 854              		.thumb_func
 855              		.type	NTPcalculateTime, %function
 856              	NTPcalculateTime:
 857              	.LFB76:
 793:lib_Network/network.c ****     /*calculate ms time*/
 858              		.loc 1 793 0
ARM GAS  C:\Users\Petro\AppData\Local\Temp\ccUyF7Zz.s 			page 32


 859              		.cfi_startproc
 860              	.LVL49:
 861 0000 F0B5     		push	{r4, r5, r6, r7, lr}
 862              		.cfi_def_cfa_offset 20
 863              		.cfi_offset 4, -20
 864              		.cfi_offset 5, -16
 865              		.cfi_offset 6, -12
 866              		.cfi_offset 7, -8
 867              		.cfi_offset 14, -4
 868 0002 0D1C     		mov	r5, r1
 869 0004 041C     		mov	r4, r0
 870 0006 87B0     		sub	sp, sp, #28
 871              		.cfi_def_cfa_offset 48
 793:lib_Network/network.c ****     /*calculate ms time*/
 872              		.loc 1 793 0
 873 0008 171C     		mov	r7, r2
 802:lib_Network/network.c ****     FuncTake(unixTime[T3],msTime[T3],unixTime[T4],msTime[T4],&tmpTime34,&tmpMs34);
 874              		.loc 1 802 0
 875 000a 04AA     		add	r2, sp, #16
 876              	.LVL50:
 877 000c 4988     		ldrh	r1, [r1, #2]
 878              	.LVL51:
 793:lib_Network/network.c ****     /*calculate ms time*/
 879              		.loc 1 793 0
 880 000e 1E1C     		mov	r6, r3
 802:lib_Network/network.c ****     FuncTake(unixTime[T3],msTime[T3],unixTime[T4],msTime[T4],&tmpTime34,&tmpMs34);
 881              		.loc 1 802 0
 882 0010 2B88     		ldrh	r3, [r5]
 883              	.LVL52:
 884 0012 0092     		str	r2, [sp]
 885 0014 03AA     		add	r2, sp, #12
 886 0016 0192     		str	r2, [sp, #4]
 887 0018 2268     		ldr	r2, [r4]
 888 001a 4068     		ldr	r0, [r0, #4]
 889              	.LVL53:
 890 001c FFF7FEFF 		bl	FuncTake
 891              	.LVL54:
 803:lib_Network/network.c **** 
 892              		.loc 1 803 0
 893 0020 A988     		ldrh	r1, [r5, #4]
 894 0022 EB88     		ldrh	r3, [r5, #6]
 895 0024 0E25     		mov	r5, #14
 896              	.LVL55:
 897 0026 05AA     		add	r2, sp, #20
 898 0028 6D44     		add	r5, r5, sp
 899 002a 0092     		str	r2, [sp]
 900 002c 0195     		str	r5, [sp, #4]
 901 002e A068     		ldr	r0, [r4, #8]
 902 0030 E268     		ldr	r2, [r4, #12]
 903 0032 FFF7FEFF 		bl	FuncTake
 904              	.LVL56:
 805:lib_Network/network.c ****     tmpDiffMs = tmpMs21 + tmpMs34;
 905              		.loc 1 805 0
 906 0036 059A     		ldr	r2, [sp, #20]
 907 0038 049B     		ldr	r3, [sp, #16]
 806:lib_Network/network.c ****     if(tmpDiffMs >= 1000)
 908              		.loc 1 806 0
ARM GAS  C:\Users\Petro\AppData\Local\Temp\ccUyF7Zz.s 			page 33


 909 003a 2988     		ldrh	r1, [r5]
 805:lib_Network/network.c ****     tmpDiffMs = tmpMs21 + tmpMs34;
 910              		.loc 1 805 0
 911 003c 9B18     		add	r3, r3, r2
 912              	.LVL57:
 806:lib_Network/network.c ****     if(tmpDiffMs >= 1000)
 913              		.loc 1 806 0
 914 003e 6A46     		mov	r2, sp
 915 0040 9289     		ldrh	r2, [r2, #12]
 807:lib_Network/network.c ****     {
 916              		.loc 1 807 0
 917 0042 164C     		ldr	r4, .L92
 918              	.LVL58:
 806:lib_Network/network.c ****     if(tmpDiffMs >= 1000)
 919              		.loc 1 806 0
 920 0044 8918     		add	r1, r1, r2
 921 0046 89B2     		uxth	r1, r1
 922 0048 8AB2     		uxth	r2, r1
 923              	.LVL59:
 807:lib_Network/network.c ****     {
 924              		.loc 1 807 0
 925 004a 10B2     		sxth	r0, r2
 926 004c A042     		cmp	r0, r4
 927 004e 02DD     		ble	.L87
 809:lib_Network/network.c ****         tmpDiffMs -= 1000;
 928              		.loc 1 809 0
 929 0050 0133     		add	r3, r3, #1
 930              	.LVL60:
 810:lib_Network/network.c ****     }
 931              		.loc 1 810 0
 932 0052 134A     		ldr	r2, .L92+4
 933              	.LVL61:
 934 0054 05E0     		b	.L91
 935              	.LVL62:
 936              	.L87:
 812:lib_Network/network.c ****     {
 937              		.loc 1 812 0
 938 0056 134C     		ldr	r4, .L92+8
 939 0058 A042     		cmp	r0, r4
 940 005a 04DA     		bge	.L88
 815:lib_Network/network.c ****     }
 941              		.loc 1 815 0
 942 005c FA22     		mov	r2, #250
 943              	.LVL63:
 814:lib_Network/network.c ****         tmpDiffMs += 1000;
 944              		.loc 1 814 0
 945 005e 013B     		sub	r3, r3, #1
 946              	.LVL64:
 815:lib_Network/network.c ****     }
 947              		.loc 1 815 0
 948 0060 9200     		lsl	r2, r2, #2
 949              	.L91:
 950 0062 8A18     		add	r2, r1, r2
 951 0064 92B2     		uxth	r2, r2
 952              	.LVL65:
 953              	.L88:
 818:lib_Network/network.c ****     if(tmpDiffTime%2 == 1)
ARM GAS  C:\Users\Petro\AppData\Local\Temp\ccUyF7Zz.s 			page 34


 954              		.loc 1 818 0
 955 0066 12B2     		sxth	r2, r2
 956 0068 D10F     		lsr	r1, r2, #31
 957 006a 8A18     		add	r2, r1, r2
 958              	.LVL66:
 819:lib_Network/network.c ****     {
 959              		.loc 1 819 0
 960 006c 0E49     		ldr	r1, .L92+12
 818:lib_Network/network.c ****     if(tmpDiffTime%2 == 1)
 961              		.loc 1 818 0
 962 006e 5210     		asr	r2, r2, #1
 963 0070 92B2     		uxth	r2, r2
 964              	.LVL67:
 819:lib_Network/network.c ****     {
 965              		.loc 1 819 0
 966 0072 1940     		and	r1, r3
 967 0074 04D5     		bpl	.L90
 968 0076 0220     		mov	r0, #2
 969 0078 0139     		sub	r1, r1, #1
 970 007a 4042     		neg	r0, r0
 971 007c 0143     		orr	r1, r0
 972 007e 0131     		add	r1, r1, #1
 973              	.L90:
 974 0080 0129     		cmp	r1, #1
 975 0082 02D1     		bne	.L89
 821:lib_Network/network.c ****     }
 976              		.loc 1 821 0
 977 0084 F532     		add	r2, r2, #245
 978              	.LVL68:
 979 0086 FF32     		add	r2, r2, #255
 980              	.LVL69:
 981 0088 92B2     		uxth	r2, r2
 982              	.LVL70:
 983              	.L89:
 823:lib_Network/network.c ****     
 984              		.loc 1 823 0
 985 008a D90F     		lsr	r1, r3, #31
 986 008c CB18     		add	r3, r1, r3
 987              	.LVL71:
 988 008e 5B10     		asr	r3, r3, #1
 826:lib_Network/network.c **** 
 989              		.loc 1 826 0
 990 0090 12B2     		sxth	r2, r2
 825:lib_Network/network.c ****     *sumMs = tmpDiffMs; 
 991              		.loc 1 825 0
 992 0092 3B60     		str	r3, [r7]
 826:lib_Network/network.c **** 
 993              		.loc 1 826 0
 994 0094 3260     		str	r2, [r6]
 828:lib_Network/network.c **** 
 995              		.loc 1 828 0
 996 0096 07B0     		add	sp, sp, #28
 997              		@ sp needed
 998              	.LVL72:
 999              	.LVL73:
 1000 0098 F0BD     		pop	{r4, r5, r6, r7, pc}
 1001              	.L93:
ARM GAS  C:\Users\Petro\AppData\Local\Temp\ccUyF7Zz.s 			page 35


 1002 009a C046     		.align	2
 1003              	.L92:
 1004 009c E7030000 		.word	999
 1005 00a0 18FCFFFF 		.word	-1000
 1006 00a4 19FCFFFF 		.word	-999
 1007 00a8 01000080 		.word	-2147483647
 1008              		.cfi_endproc
 1009              	.LFE76:
 1010              		.size	NTPcalculateTime, .-NTPcalculateTime
 1011              		.global	__aeabi_idiv
 1012              		.section	.text.NTPsync,"ax",%progbits
 1013              		.align	1
 1014              		.global	NTPsync
 1015              		.code	16
 1016              		.thumb_func
 1017              		.type	NTPsync, %function
 1018              	NTPsync:
 1019              	.LFB74:
 500:lib_Network/network.c ****     uint16_t result;
 1020              		.loc 1 500 0
 1021              		.cfi_startproc
 1022 0000 F0B5     		push	{r4, r5, r6, r7, lr}
 1023              		.cfi_def_cfa_offset 20
 1024              		.cfi_offset 4, -20
 1025              		.cfi_offset 5, -16
 1026              		.cfi_offset 6, -12
 1027              		.cfi_offset 7, -8
 1028              		.cfi_offset 14, -4
 1029 0002 87B0     		sub	sp, sp, #28
 1030              		.cfi_def_cfa_offset 48
 503:lib_Network/network.c ****     
 1031              		.loc 1 503 0
 1032 0004 FFF7FEFF 		bl	UART_XB_SpiUartClearRxBuffer
 1033              	.LVL74:
 511:lib_Network/network.c ****     onNtpSync = 1;
 1034              		.loc 1 511 0
 1035 0008 0122     		mov	r2, #1
 512:lib_Network/network.c ****     
 1036              		.loc 1 512 0
 1037 000a 0625     		mov	r5, #6
 510:lib_Network/network.c ****     ntpFlagReadyForReceive = 1;
 1038              		.loc 1 510 0
 1039 000c 0024     		mov	r4, #0
 511:lib_Network/network.c ****     onNtpSync = 1;
 1040              		.loc 1 511 0
 1041 000e 7C4B     		ldr	r3, .L143
 512:lib_Network/network.c ****     
 1042              		.loc 1 512 0
 1043 0010 7C49     		ldr	r1, .L143+4
 511:lib_Network/network.c ****     onNtpSync = 1;
 1044              		.loc 1 511 0
 1045 0012 1A70     		strb	r2, [r3]
 512:lib_Network/network.c ****     
 1046              		.loc 1 512 0
 1047 0014 0A70     		strb	r2, [r1]
 1048 0016 0193     		str	r3, [sp, #4]
 1049              	.LVL75:
ARM GAS  C:\Users\Petro\AppData\Local\Temp\ccUyF7Zz.s 			page 36


 1050              	.L103:
 1051              	.LBB7:
 517:lib_Network/network.c ****         millisTime[T1] = RTCgetRecentMs();
 1052              		.loc 1 517 0
 1053 0018 FFF7FEFF 		bl	RTCGetUnixTime
 1054              	.LVL76:
 1055 001c 7A4E     		ldr	r6, .L143+8
 1056 001e 3060     		str	r0, [r6]
 518:lib_Network/network.c ****         #ifdef DEBUGNTP
 1057              		.loc 1 518 0
 1058 0020 FFF7FEFF 		bl	RTCgetRecentMs
 1059              	.LVL77:
 1060 0024 794B     		ldr	r3, .L143+12
 1061 0026 81B2     		uxth	r1, r0
 526:lib_Network/network.c ****         
 1062              		.loc 1 526 0
 1063 0028 0122     		mov	r2, #1
 1064 002a 3068     		ldr	r0, [r6]
 518:lib_Network/network.c ****         #ifdef DEBUGNTP
 1065              		.loc 1 518 0
 1066 002c 1980     		strh	r1, [r3]
 526:lib_Network/network.c ****         
 1067              		.loc 1 526 0
 1068 002e FFF7FEFF 		bl	NTPsendTime
 1069              	.LVL78:
 529:lib_Network/network.c ****         delayReceivePacket += RTCgetRecentMs();
 1070              		.loc 1 529 0
 1071 0032 FFF7FEFF 		bl	RTCGetUnixTime
 1072              	.LVL79:
 1073 0036 071C     		mov	r7, r0
 1074              	.LVL80:
 530:lib_Network/network.c ****         
 1075              		.loc 1 530 0
 1076 0038 FFF7FEFF 		bl	RTCgetRecentMs
 1077              	.LVL81:
 1078 003c FA23     		mov	r3, #250
 1079 003e 9B00     		lsl	r3, r3, #2
 1080 0040 C618     		add	r6, r0, r3
 1081 0042 B6B2     		uxth	r6, r6
 1082              	.LVL82:
 1083              	.L95:
 536:lib_Network/network.c ****         {
 1084              		.loc 1 536 0
 1085 0044 FFF7FEFF 		bl	RTCgetRecentMs
 1086              	.LVL83:
 1087 0048 B042     		cmp	r0, r6
 1088 004a 1DD2     		bcs	.L100
 536:lib_Network/network.c ****         {
 1089              		.loc 1 536 0 is_stmt 0 discriminator 1
 1090 004c 012C     		cmp	r4, #1
 1091 004e 1BD0     		beq	.L100
 538:lib_Network/network.c ****             {
 1092              		.loc 1 538 0 is_stmt 1
 1093 0050 6F4B     		ldr	r3, .L143+16
 1094 0052 1A78     		ldrb	r2, [r3]
 1095 0054 002A     		cmp	r2, #0
 1096 0056 09D0     		beq	.L96
ARM GAS  C:\Users\Petro\AppData\Local\Temp\ccUyF7Zz.s 			page 37


 540:lib_Network/network.c ****                 
 1097              		.loc 1 540 0
 1098 0058 0022     		mov	r2, #0
 1099 005a 1A70     		strb	r2, [r3]
 542:lib_Network/network.c ****                 {
 1100              		.loc 1 542 0
 1101 005c 6D4B     		ldr	r3, .L143+20
 1102 005e 1A88     		ldrh	r2, [r3]
 1103 0060 0123     		mov	r3, #1
 1104 0062 9A42     		cmp	r2, r3
 1105 0064 00D1     		bne	.L97
 544:lib_Network/network.c ****                 }
 1106              		.loc 1 544 0
 1107 0066 1C1C     		mov	r4, r3
 1108              	.LVL84:
 1109              	.L97:
 552:lib_Network/network.c ****             }
 1110              		.loc 1 552 0
 1111 0068 019A     		ldr	r2, [sp, #4]
 1112 006a 1370     		strb	r3, [r2]
 1113              	.L96:
 555:lib_Network/network.c ****             {
 1114              		.loc 1 555 0
 1115 006c FFF7FEFF 		bl	RTCGetUnixTime
 1116              	.LVL85:
 1117 0070 0029     		cmp	r1, #0
 1118 0072 01D1     		bne	.L132
 1119 0074 B842     		cmp	r0, r7
 1120 0076 E5D9     		bls	.L95
 1121              	.L132:
 555:lib_Network/network.c ****             {
 1122              		.loc 1 555 0 is_stmt 0 discriminator 1
 1123 0078 674B     		ldr	r3, .L143+24
 1124 007a 9E42     		cmp	r6, r3
 1125 007c E2D9     		bls	.L95
 557:lib_Network/network.c ****                 oldUnixTime++;
 1126              		.loc 1 557 0 is_stmt 1
 1127 007e 674B     		ldr	r3, .L143+28
 558:lib_Network/network.c ****                 
 1128              		.loc 1 558 0
 1129 0080 0137     		add	r7, r7, #1
 1130              	.LVL86:
 557:lib_Network/network.c ****                 oldUnixTime++;
 1131              		.loc 1 557 0
 1132 0082 F618     		add	r6, r6, r3
 1133              	.LVL87:
 1134 0084 B6B2     		uxth	r6, r6
 1135              	.LVL88:
 1136 0086 DDE7     		b	.L95
 1137              	.L100:
 1138              	.LVL89:
 1139 0088 013D     		sub	r5, r5, #1
 1140              	.LVL90:
 1141 008a ADB2     		uxth	r5, r5
 1142              	.LBE7:
 514:lib_Network/network.c ****     {
 1143              		.loc 1 514 0
ARM GAS  C:\Users\Petro\AppData\Local\Temp\ccUyF7Zz.s 			page 38


 1144 008c 002D     		cmp	r5, #0
 1145 008e 02D0     		beq	.L102
 514:lib_Network/network.c ****     {
 1146              		.loc 1 514 0 is_stmt 0 discriminator 1
 1147 0090 012C     		cmp	r4, #1
 1148 0092 C1D1     		bne	.L103
 1149 0094 02E0     		b	.L127
 1150              	.L102:
 1151              	.LVL91:
 579:lib_Network/network.c ****     IDpacket = 2;
 1152              		.loc 1 579 0 is_stmt 1
 1153 0096 2E1C     		mov	r6, r5
 1154              	.LVL92:
 582:lib_Network/network.c ****     {
 1155              		.loc 1 582 0
 1156 0098 012C     		cmp	r4, #1
 1157 009a 01D1     		bne	.L104
 1158              	.LVL93:
 1159              	.L127:
 584:lib_Network/network.c ****         numAttemptSendPacket = NTP_CONNECT_ATTEMPS;
 1160              		.loc 1 584 0
 1161 009c 0525     		mov	r5, #5
 585:lib_Network/network.c ****     }
 1162              		.loc 1 585 0
 1163 009e 0626     		mov	r6, #6
 1164              	.L104:
 1165              	.LBB8:
 590:lib_Network/network.c ****         unixTime[T1] = RTCGetUnixTime();
 1166              		.loc 1 590 0
 1167 00a0 0027     		mov	r7, #0
 1168              	.LVL94:
 1169 00a2 0223     		mov	r3, #2
 1170              	.L140:
 662:lib_Network/network.c ****     }
 1171              		.loc 1 662 0
 1172 00a4 0193     		str	r3, [sp, #4]
 1173              	.LVL95:
 1174              	.LBE8:
 588:lib_Network/network.c ****     {
 1175              		.loc 1 588 0
 1176 00a6 002E     		cmp	r6, #0
 1177 00a8 0BD1     		bne	.L113
 1178              	.L141:
 1179 00aa 0197     		str	r7, [sp, #4]
 1180              	.LVL96:
 678:lib_Network/network.c ****     if(result == OK)
 1181              		.loc 1 678 0
 1182 00ac 0026     		mov	r6, #0
 1183              	.LVL97:
 666:lib_Network/network.c ****     {
 1184              		.loc 1 666 0
 1185 00ae 012C     		cmp	r4, #1
 1186 00b0 5DD1     		bne	.L115
 669:lib_Network/network.c ****         msTimeDifference += NTP_DIFFERENC_LONG_PACKET; //add static diff time to send packet 
 1187              		.loc 1 669 0
 1188 00b2 381C     		mov	r0, r7
 1189 00b4 0521     		mov	r1, #5
ARM GAS  C:\Users\Petro\AppData\Local\Temp\ccUyF7Zz.s 			page 39


 1190 00b6 FFF7FEFF 		bl	__aeabi_idiv
 1191              	.LVL98:
 670:lib_Network/network.c ****     }
 1192              		.loc 1 670 0
 1193 00ba 3130     		add	r0, r0, #49
 1194              	.LVL99:
 1195 00bc 0190     		str	r0, [sp, #4]
 1196              	.LVL100:
 681:lib_Network/network.c ****     }
 1197              		.loc 1 681 0
 1198 00be 0626     		mov	r6, #6
 1199 00c0 55E0     		b	.L115
 1200              	.LVL101:
 1201              	.L113:
 588:lib_Network/network.c ****     {
 1202              		.loc 1 588 0 discriminator 1
 1203 00c2 002D     		cmp	r5, #0
 1204 00c4 F1D0     		beq	.L141
 1205              	.LVL102:
 1206              	.LBB10:
 591:lib_Network/network.c ****         millisTime[T1] = RTCgetRecentMs();
 1207              		.loc 1 591 0
 1208 00c6 FFF7FEFF 		bl	RTCGetUnixTime
 1209              	.LVL103:
 1210 00ca 4F4C     		ldr	r4, .L143+8
 1211 00cc 2060     		str	r0, [r4]
 592:lib_Network/network.c ****         #ifdef DEBUGNTP
 1212              		.loc 1 592 0
 1213 00ce FFF7FEFF 		bl	RTCgetRecentMs
 1214              	.LVL104:
 1215 00d2 4E4B     		ldr	r3, .L143+12
 1216 00d4 81B2     		uxth	r1, r0
 599:lib_Network/network.c ****         
 1217              		.loc 1 599 0
 1218 00d6 019A     		ldr	r2, [sp, #4]
 1219 00d8 2068     		ldr	r0, [r4]
 592:lib_Network/network.c ****         #ifdef DEBUGNTP
 1220              		.loc 1 592 0
 1221 00da 1980     		strh	r1, [r3]
 599:lib_Network/network.c ****         
 1222              		.loc 1 599 0
 1223 00dc FFF7FEFF 		bl	NTPsendTime
 1224              	.LVL105:
 602:lib_Network/network.c ****         uint32_t oldUnixTime = RTCGetUnixTime();
 1225              		.loc 1 602 0
 1226 00e0 FFF7FEFF 		bl	RTCgetRecentMs
 1227              	.LVL106:
 1228 00e4 FA23     		mov	r3, #250
 1229 00e6 DB00     		lsl	r3, r3, #3
 1230 00e8 C018     		add	r0, r0, r3
 1231 00ea 83B2     		uxth	r3, r0
 1232 00ec 0293     		str	r3, [sp, #8]
 1233              	.LVL107:
 603:lib_Network/network.c ****         #ifdef DEBUG_INFO
 1234              		.loc 1 603 0
 1235 00ee FFF7FEFF 		bl	RTCGetUnixTime
 1236              	.LVL108:
ARM GAS  C:\Users\Petro\AppData\Local\Temp\ccUyF7Zz.s 			page 40


 590:lib_Network/network.c ****         unixTime[T1] = RTCGetUnixTime();
 1237              		.loc 1 590 0
 1238 00f2 0024     		mov	r4, #0
 603:lib_Network/network.c ****         #ifdef DEBUG_INFO
 1239              		.loc 1 603 0
 1240 00f4 0390     		str	r0, [sp, #12]
 1241              	.LVL109:
 1242              	.L106:
 610:lib_Network/network.c ****         {
 1243              		.loc 1 610 0
 1244 00f6 FFF7FEFF 		bl	RTCgetRecentMs
 1245              	.LVL110:
 1246 00fa 029B     		ldr	r3, [sp, #8]
 1247 00fc 9842     		cmp	r0, r3
 1248 00fe 30D2     		bcs	.L111
 610:lib_Network/network.c ****         {
 1249              		.loc 1 610 0 is_stmt 0 discriminator 1
 1250 0100 012C     		cmp	r4, #1
 1251 0102 2ED0     		beq	.L111
 1252 0104 0024     		mov	r4, #0
 1253              	.LVL111:
 612:lib_Network/network.c ****             {
 1254              		.loc 1 612 0 is_stmt 1
 1255 0106 424B     		ldr	r3, .L143+16
 1256 0108 1A78     		ldrb	r2, [r3]
 1257 010a A242     		cmp	r2, r4
 1258 010c 14D0     		beq	.L107
 614:lib_Network/network.c ****                 
 1259              		.loc 1 614 0
 1260 010e 1C70     		strb	r4, [r3]
 616:lib_Network/network.c ****                 {
 1261              		.loc 1 616 0
 1262 0110 404B     		ldr	r3, .L143+20
 1263 0112 019A     		ldr	r2, [sp, #4]
 1264 0114 1B88     		ldrh	r3, [r3]
 1265 0116 9342     		cmp	r3, r2
 1266 0118 0BD1     		bne	.L108
 1267              	.LBB9:
 619:lib_Network/network.c ****                     result = OK;
 1268              		.loc 1 619 0
 1269 011a 0626     		mov	r6, #6
 1270              	.LVL112:
 624:lib_Network/network.c ****                     unixTimeDifference += tmpUnix;
 1271              		.loc 1 624 0
 1272 011c 05AB     		add	r3, sp, #20
 1273 011e 3A48     		ldr	r0, .L143+8
 1274 0120 3A49     		ldr	r1, .L143+12
 1275 0122 04AA     		add	r2, sp, #16
 1276 0124 FFF7FEFF 		bl	NTPcalculateTime
 1277              	.LVL113:
 626:lib_Network/network.c ****                     
 1278              		.loc 1 626 0
 1279 0128 059B     		ldr	r3, [sp, #20]
 618:lib_Network/network.c ****                     numAttemptSendPacket = NTP_CONNECT_ATTEMPS;
 1280              		.loc 1 618 0
 1281 012a 013D     		sub	r5, r5, #1
 1282              	.LVL114:
ARM GAS  C:\Users\Petro\AppData\Local\Temp\ccUyF7Zz.s 			page 41


 1283 012c EDB2     		uxtb	r5, r5
 1284              	.LVL115:
 626:lib_Network/network.c ****                     
 1285              		.loc 1 626 0
 1286 012e FF18     		add	r7, r7, r3
 1287              	.LVL116:
 620:lib_Network/network.c ****                     
 1288              		.loc 1 620 0
 1289 0130 0134     		add	r4, r4, #1
 1290              	.LVL117:
 1291              	.L108:
 1292              	.LBE9:
 653:lib_Network/network.c ****             }
 1293              		.loc 1 653 0
 1294 0132 0122     		mov	r2, #1
 1295 0134 324B     		ldr	r3, .L143
 1296 0136 1A70     		strb	r2, [r3]
 1297              	.LVL118:
 1298              	.L107:
 655:lib_Network/network.c ****             {
 1299              		.loc 1 655 0
 1300 0138 FFF7FEFF 		bl	RTCGetUnixTime
 1301              	.LVL119:
 1302 013c 0029     		cmp	r1, #0
 1303 013e 02D1     		bne	.L133
 1304 0140 039B     		ldr	r3, [sp, #12]
 1305 0142 9842     		cmp	r0, r3
 1306 0144 D7D9     		bls	.L106
 1307              	.L133:
 655:lib_Network/network.c ****             {
 1308              		.loc 1 655 0 is_stmt 0 discriminator 1
 1309 0146 344B     		ldr	r3, .L143+24
 1310 0148 029A     		ldr	r2, [sp, #8]
 1311 014a 9A42     		cmp	r2, r3
 1312 014c D3D9     		bls	.L106
 657:lib_Network/network.c ****                 oldUnixTime++;
 1313              		.loc 1 657 0 is_stmt 1
 1314 014e 131C     		mov	r3, r2
 1315 0150 324A     		ldr	r2, .L143+28
 1316 0152 9446     		mov	ip, r2
 1317 0154 6344     		add	r3, r3, ip
 1318 0156 9BB2     		uxth	r3, r3
 1319 0158 0293     		str	r3, [sp, #8]
 1320              	.LVL120:
 658:lib_Network/network.c ****             }
 1321              		.loc 1 658 0
 1322 015a 039B     		ldr	r3, [sp, #12]
 1323 015c 0133     		add	r3, r3, #1
 1324 015e 0393     		str	r3, [sp, #12]
 1325              	.LVL121:
 1326 0160 C9E7     		b	.L106
 1327              	.LVL122:
 1328              	.L111:
 662:lib_Network/network.c ****     }
 1329              		.loc 1 662 0
 1330 0162 019B     		ldr	r3, [sp, #4]
 661:lib_Network/network.c ****         IDpacket++;
ARM GAS  C:\Users\Petro\AppData\Local\Temp\ccUyF7Zz.s 			page 42


 1331              		.loc 1 661 0
 1332 0164 013E     		sub	r6, r6, #1
 1333              	.LVL123:
 662:lib_Network/network.c ****     }
 1334              		.loc 1 662 0
 1335 0166 0133     		add	r3, r3, #1
 661:lib_Network/network.c ****         IDpacket++;
 1336              		.loc 1 661 0
 1337 0168 B6B2     		uxth	r6, r6
 1338              	.LVL124:
 662:lib_Network/network.c ****     }
 1339              		.loc 1 662 0
 1340 016a 9BB2     		uxth	r3, r3
 1341 016c 9AE7     		b	.L140
 1342              	.LVL125:
 1343              	.L115:
 1344              	.LBE10:
 683:lib_Network/network.c ****     IDpacket = 0;
 1345              		.loc 1 683 0
 1346 016e 0122     		mov	r2, #1
 1347 0170 234B     		ldr	r3, .L143
 1348 0172 1A70     		strb	r2, [r3]
 1349              	.LVL126:
 1350 0174 0293     		str	r3, [sp, #8]
 1351              	.LVL127:
 1352              	.L118:
 686:lib_Network/network.c ****     {
 1353              		.loc 1 686 0
 1354 0176 002E     		cmp	r6, #0
 1355 0178 3AD0     		beq	.L142
 1356              	.LVL128:
 1357              	.LBB11:
 697:lib_Network/network.c ****         
 1358              		.loc 1 697 0
 1359 017a 0020     		mov	r0, #0
 1360 017c 019B     		ldr	r3, [sp, #4]
 1361 017e 021C     		mov	r2, r0
 1362 0180 5942     		neg	r1, r3
 1363 0182 89B2     		uxth	r1, r1
 1364 0184 FFF7FEFF 		bl	NTPsendTime
 1365              	.LVL129:
 700:lib_Network/network.c ****         delayReceivePacket += RTCgetRecentMs();
 1366              		.loc 1 700 0
 1367 0188 FFF7FEFF 		bl	RTCGetUnixTime
 1368              	.LVL130:
 1369 018c 071C     		mov	r7, r0
 1370              	.LVL131:
 701:lib_Network/network.c ****         
 1371              		.loc 1 701 0
 1372 018e FFF7FEFF 		bl	RTCgetRecentMs
 1373              	.LVL132:
 1374 0192 FA23     		mov	r3, #250
 688:lib_Network/network.c ****         
 1375              		.loc 1 688 0
 1376 0194 0024     		mov	r4, #0
 701:lib_Network/network.c ****         
 1377              		.loc 1 701 0
ARM GAS  C:\Users\Petro\AppData\Local\Temp\ccUyF7Zz.s 			page 43


 1378 0196 9B00     		lsl	r3, r3, #2
 1379 0198 C518     		add	r5, r0, r3
 1380 019a ADB2     		uxth	r5, r5
 1381              	.LVL133:
 1382              	.L119:
 709:lib_Network/network.c ****         {
 1383              		.loc 1 709 0
 1384 019c FFF7FEFF 		bl	RTCgetRecentMs
 1385              	.LVL134:
 1386 01a0 A842     		cmp	r0, r5
 1387 01a2 1DD2     		bcs	.L123
 709:lib_Network/network.c ****         {
 1388              		.loc 1 709 0 is_stmt 0 discriminator 1
 1389 01a4 012C     		cmp	r4, #1
 1390 01a6 21D0     		beq	.L131
 1391 01a8 0024     		mov	r4, #0
 1392              	.LVL135:
 711:lib_Network/network.c ****             {
 1393              		.loc 1 711 0 is_stmt 1
 1394 01aa 194B     		ldr	r3, .L143+16
 1395 01ac 1A78     		ldrb	r2, [r3]
 1396 01ae A242     		cmp	r2, r4
 1397 01b0 08D0     		beq	.L120
 713:lib_Network/network.c ****                 
 1398              		.loc 1 713 0
 1399 01b2 1C70     		strb	r4, [r3]
 715:lib_Network/network.c ****                 {
 1400              		.loc 1 715 0
 1401 01b4 174B     		ldr	r3, .L143+20
 725:lib_Network/network.c ****             }
 1402              		.loc 1 725 0
 1403 01b6 029A     		ldr	r2, [sp, #8]
 715:lib_Network/network.c ****                 {
 1404              		.loc 1 715 0
 1405 01b8 1C88     		ldrh	r4, [r3]
 725:lib_Network/network.c ****             }
 1406              		.loc 1 725 0
 1407 01ba 0123     		mov	r3, #1
 715:lib_Network/network.c ****                 {
 1408              		.loc 1 715 0
 1409 01bc 6042     		neg	r0, r4
 1410 01be 4441     		adc	r4, r4, r0
 725:lib_Network/network.c ****             }
 1411              		.loc 1 725 0
 1412 01c0 1370     		strb	r3, [r2]
 717:lib_Network/network.c ****                 }
 1413              		.loc 1 717 0
 1414 01c2 A4B2     		uxth	r4, r4
 1415              	.LVL136:
 1416              	.L120:
 728:lib_Network/network.c ****             {
 1417              		.loc 1 728 0
 1418 01c4 FFF7FEFF 		bl	RTCGetUnixTime
 1419              	.LVL137:
 1420 01c8 0029     		cmp	r1, #0
 1421 01ca 01D1     		bne	.L134
 1422 01cc B842     		cmp	r0, r7
ARM GAS  C:\Users\Petro\AppData\Local\Temp\ccUyF7Zz.s 			page 44


 1423 01ce E5D9     		bls	.L119
 1424              	.L134:
 728:lib_Network/network.c ****             {
 1425              		.loc 1 728 0 is_stmt 0 discriminator 1
 1426 01d0 114B     		ldr	r3, .L143+24
 1427 01d2 9D42     		cmp	r5, r3
 1428 01d4 E2D9     		bls	.L119
 730:lib_Network/network.c ****                 oldUnixTime++;
 1429              		.loc 1 730 0 is_stmt 1
 1430 01d6 114B     		ldr	r3, .L143+28
 731:lib_Network/network.c ****                 
 1431              		.loc 1 731 0
 1432 01d8 0137     		add	r7, r7, #1
 1433              	.LVL138:
 730:lib_Network/network.c ****                 oldUnixTime++;
 1434              		.loc 1 730 0
 1435 01da ED18     		add	r5, r5, r3
 1436              	.LVL139:
 1437 01dc ADB2     		uxth	r5, r5
 1438              	.LVL140:
 1439 01de DDE7     		b	.L119
 1440              	.L123:
 1441              	.LVL141:
 742:lib_Network/network.c ****             numAttemptSendPacket = 0;
 1442              		.loc 1 742 0
 1443 01e0 012C     		cmp	r4, #1
 1444 01e2 03D0     		beq	.L131
 741:lib_Network/network.c ****         if(result == OK)
 1445              		.loc 1 741 0
 1446 01e4 013E     		sub	r6, r6, #1
 1447              	.LVL142:
 1448 01e6 B6B2     		uxth	r6, r6
 1449 01e8 0024     		mov	r4, #0
 1450              	.LVL143:
 1451 01ea C4E7     		b	.L118
 1452              	.LVL144:
 1453              	.L131:
 743:lib_Network/network.c ****     }
 1454              		.loc 1 743 0
 1455 01ec 0026     		mov	r6, #0
 1456 01ee C2E7     		b	.L118
 1457              	.LVL145:
 1458              	.L142:
 1459              	.LBE11:
 753:lib_Network/network.c ****         result = TIME_SYNC_OK;
 1460              		.loc 1 753 0
 1461 01f0 601E     		sub	r0, r4, #1
 1462 01f2 441E     		sub	r4, r0, #1
 1463 01f4 A041     		sbc	r0, r0, r4
 1464              	.LVL146:
 758:lib_Network/network.c **** 
 1465              		.loc 1 758 0
 1466 01f6 034B     		ldr	r3, .L143+4
 1467 01f8 1E70     		strb	r6, [r3]
 761:lib_Network/network.c **** 
 1468              		.loc 1 761 0
 1469 01fa 07B0     		add	sp, sp, #28
ARM GAS  C:\Users\Petro\AppData\Local\Temp\ccUyF7Zz.s 			page 45


 1470              		@ sp needed
 1471              	.LVL147:
 1472 01fc F0BD     		pop	{r4, r5, r6, r7, pc}
 1473              	.L144:
 1474 01fe C046     		.align	2
 1475              	.L143:
 1476 0200 00000000 		.word	ntpFlagReadyForReceive
 1477 0204 00000000 		.word	.LANCHOR0
 1478 0208 00000000 		.word	unixTime
 1479 020c 00000000 		.word	millisTime
 1480 0210 00000000 		.word	ntpFlagEndReceivePacket
 1481 0214 00000000 		.word	recvDataNTP
 1482 0218 E7030000 		.word	999
 1483 021c 18FCFFFF 		.word	-1000
 1484              		.cfi_endproc
 1485              	.LFE74:
 1486              		.size	NTPsync, .-NTPsync
 1487              		.section	.text.ChekTimerForTimeSync,"ax",%progbits
 1488              		.align	1
 1489              		.global	ChekTimerForTimeSync
 1490              		.code	16
 1491              		.thumb_func
 1492              		.type	ChekTimerForTimeSync, %function
 1493              	ChekTimerForTimeSync:
 1494              	.LFB78:
 851:lib_Network/network.c **** 
 852:lib_Network/network.c **** uint8_t ChekTimerForTimeSync(void)
 853:lib_Network/network.c **** {
 1495              		.loc 1 853 0
 1496              		.cfi_startproc
 1497              	.LVL148:
 854:lib_Network/network.c ****     uint8_t result;
 855:lib_Network/network.c ****     
 856:lib_Network/network.c ****     result = SYNC_NO_REQUIRES;
 857:lib_Network/network.c ****     
 858:lib_Network/network.c ****     if((oldUnixTime + TIME_BY_SYNC) < RTC_GetUnixTime())
 1498              		.loc 1 858 0
 1499 0000 074B     		ldr	r3, .L148
 853:lib_Network/network.c ****     uint8_t result;
 1500              		.loc 1 853 0
 1501 0002 10B5     		push	{r4, lr}
 1502              		.cfi_def_cfa_offset 8
 1503              		.cfi_offset 4, -8
 1504              		.cfi_offset 14, -4
 1505              		.loc 1 858 0
 1506 0004 1C68     		ldr	r4, [r3]
 1507 0006 E123     		mov	r3, #225
 1508 0008 DB00     		lsl	r3, r3, #3
 1509 000a E418     		add	r4, r4, r3
 1510 000c FFF7FEFF 		bl	RTC_GetUnixTime
 1511              	.LVL149:
 1512 0010 0123     		mov	r3, #1
 1513 0012 0029     		cmp	r1, #0
 1514 0014 02D1     		bne	.L146
 1515 0016 8442     		cmp	r4, r0
 1516 0018 A441     		sbc	r4, r4, r4
 1517              	.LVL150:
ARM GAS  C:\Users\Petro\AppData\Local\Temp\ccUyF7Zz.s 			page 46


 1518 001a 2340     		and	r3, r4
 1519              	.L146:
 859:lib_Network/network.c ****     {
 860:lib_Network/network.c ****         result = SYNC_REQUIRES;
 861:lib_Network/network.c ****     }   
 862:lib_Network/network.c ****     
 863:lib_Network/network.c ****     return result;
 1520              		.loc 1 863 0
 1521 001c D8B2     		uxtb	r0, r3
 864:lib_Network/network.c **** }
 1522              		.loc 1 864 0
 1523              		@ sp needed
 1524 001e 10BD     		pop	{r4, pc}
 1525              	.L149:
 1526              		.align	2
 1527              	.L148:
 1528 0020 00000000 		.word	oldUnixTime
 1529              		.cfi_endproc
 1530              	.LFE78:
 1531              		.size	ChekTimerForTimeSync, .-ChekTimerForTimeSync
 1532              		.section	.text.ResetTimerForTimeSync,"ax",%progbits
 1533              		.align	1
 1534              		.global	ResetTimerForTimeSync
 1535              		.code	16
 1536              		.thumb_func
 1537              		.type	ResetTimerForTimeSync, %function
 1538              	ResetTimerForTimeSync:
 1539              	.LFB79:
 865:lib_Network/network.c **** 
 866:lib_Network/network.c **** void ResetTimerForTimeSync(void)
 867:lib_Network/network.c **** {
 1540              		.loc 1 867 0
 1541              		.cfi_startproc
 1542 0000 08B5     		push	{r3, lr}
 1543              		.cfi_def_cfa_offset 8
 1544              		.cfi_offset 3, -8
 1545              		.cfi_offset 14, -4
 868:lib_Network/network.c ****     oldUnixTime = RTC_GetUnixTime();
 1546              		.loc 1 868 0
 1547 0002 FFF7FEFF 		bl	RTC_GetUnixTime
 1548              	.LVL151:
 1549 0006 014B     		ldr	r3, .L151
 869:lib_Network/network.c **** }
 1550              		.loc 1 869 0
 1551              		@ sp needed
 868:lib_Network/network.c ****     oldUnixTime = RTC_GetUnixTime();
 1552              		.loc 1 868 0
 1553 0008 1860     		str	r0, [r3]
 1554              		.loc 1 869 0
 1555 000a 08BD     		pop	{r3, pc}
 1556              	.L152:
 1557              		.align	2
 1558              	.L151:
 1559 000c 00000000 		.word	oldUnixTime
 1560              		.cfi_endproc
 1561              	.LFE79:
 1562              		.size	ResetTimerForTimeSync, .-ResetTimerForTimeSync
ARM GAS  C:\Users\Petro\AppData\Local\Temp\ccUyF7Zz.s 			page 47


 1563              		.comm	oldUnixTime,4,4
 1564              		.global	onNtpSync
 1565              		.comm	recvDataNTP,24,4
 1566              		.comm	ntpFlagReadyForReceive,1,1
 1567              		.comm	ntpFlagEndReceivePacket,1,1
 1568              		.comm	millisTime,8,2
 1569              		.comm	unixTime,16,4
 1570              		.comm	networkStatus,2,2
 1571              		.comm	noConnect,2,2
 1572              		.comm	numAttemps,2,2
 1573              		.comm	recvData,32,8
 1574              		.comm	networkFlagReadyForReceive,1,1
 1575              		.comm	networkFlagEndReceivePacket,1,1
 1576              		.comm	rebootFlag,1,1
 1577              		.comm	inData,24,8
 1578              		.comm	outData,24,8
 1579              		.section	.rodata.str1.1,"aMS",%progbits,1
 1580              	.LC21:
 1581 0000 25303258 		.ascii	"%02X:%016X%02X%02X%02X%02X\000"
 1581      3A253031 
 1581      36582530 
 1581      32582530 
 1581      32582530 
 1582              	.LC44:
 1583 001b 25303858 		.ascii	"%08X%03X\000"
 1583      25303358 
 1583      00
 1584              		.bss
 1585              		.set	.LANCHOR0,. + 0
 1586              		.type	onNtpSync, %object
 1587              		.size	onNtpSync, 1
 1588              	onNtpSync:
 1589 0000 00       		.space	1
 1590              		.type	networkNumTruCounter, %object
 1591              		.size	networkNumTruCounter, 1
 1592              	networkNumTruCounter:
 1593 0001 00       		.space	1
 1594              		.text
 1595              	.Letext0:
 1596              		.file 2 "c:\\program files (x86)\\cypress\\psoc creator\\4.0\\psoc creator\\import\\gnu\\arm\\4.9.
 1597              		.file 3 "c:\\program files (x86)\\cypress\\psoc creator\\4.0\\psoc creator\\import\\gnu\\arm\\4.9.
 1598              		.file 4 "Generated_Source\\PSoC4/cytypes.h"
 1599              		.file 5 "Generated_Source\\PSoC4/CyLFClk.h"
 1600              		.file 6 "./lib_Network/svt.h"
 1601              		.file 7 "./lib_Network/ntp.h"
 1602              		.file 8 "Generated_Source\\PSoC4/UART_XB_SPI_UART.h"
 1603              		.file 9 "Generated_Source\\PSoC4/RTC.h"
 1604              		.file 10 "./lib_RTC/RTC_WDT.h"
 1605              		.file 11 "./lib_DB\\logResult.h"
 1606              		.file 12 "./lib_DB\\database.h"
 1607              		.file 13 "./lib_BLE/bluetooth.h"
 1608              		.file 14 "Generated_Source\\PSoC4/UART_XB.h"
 1609              		.file 15 "c:\\program files (x86)\\cypress\\psoc creator\\4.0\\psoc creator\\import\\gnu\\arm\\4.9
 1610              		.file 16 "Generated_Source\\PSoC4/CyLib.h"
 1611              		.file 17 "Generated_Source\\PSoC4/ble_Stack.h"