ARM GAS  C:\Users\Petro\AppData\Local\Temp\ccN6Uqh8.s 			page 1


   1              		.cpu cortex-m0
   2              		.fpu softvfp
   3              		.eabi_attribute 20, 1
   4              		.eabi_attribute 21, 1
   5              		.eabi_attribute 23, 3
   6              		.eabi_attribute 24, 1
   7              		.eabi_attribute 25, 1
   8              		.eabi_attribute 26, 1
   9              		.eabi_attribute 30, 4
  10              		.eabi_attribute 34, 0
  11              		.eabi_attribute 18, 4
  12              		.code	16
  13              		.file	"SPIM.c"
  14              		.text
  15              	.Ltext0:
  16              		.cfi_sections	.debug_frame
  17              		.section	.text.SPIM_Enable,"ax",%progbits
  18              		.align	1
  19              		.global	SPIM_Enable
  20              		.code	16
  21              		.thumb_func
  22              		.type	SPIM_Enable, %function
  23              	SPIM_Enable:
  24              	.LFB3:
  25              		.file 1 "Generated_Source\\PSoC4\\SPIM.c"
   1:Generated_Source\PSoC4/SPIM.c **** /*******************************************************************************
   2:Generated_Source\PSoC4/SPIM.c **** * File Name: SPIM.c
   3:Generated_Source\PSoC4/SPIM.c **** * Version 2.50
   4:Generated_Source\PSoC4/SPIM.c **** *
   5:Generated_Source\PSoC4/SPIM.c **** * Description:
   6:Generated_Source\PSoC4/SPIM.c **** *  This file provides all API functionality of the SPI Master component.
   7:Generated_Source\PSoC4/SPIM.c **** *
   8:Generated_Source\PSoC4/SPIM.c **** * Note:
   9:Generated_Source\PSoC4/SPIM.c **** *  None.
  10:Generated_Source\PSoC4/SPIM.c **** *
  11:Generated_Source\PSoC4/SPIM.c **** ********************************************************************************
  12:Generated_Source\PSoC4/SPIM.c **** * Copyright 2008-2015, Cypress Semiconductor Corporation.  All rights reserved.
  13:Generated_Source\PSoC4/SPIM.c **** * You may use this file only in accordance with the license, terms, conditions,
  14:Generated_Source\PSoC4/SPIM.c **** * disclaimers, and limitations in the end user license agreement accompanying
  15:Generated_Source\PSoC4/SPIM.c **** * the software package with which this file was provided.
  16:Generated_Source\PSoC4/SPIM.c **** *******************************************************************************/
  17:Generated_Source\PSoC4/SPIM.c **** 
  18:Generated_Source\PSoC4/SPIM.c **** #include "SPIM_PVT.h"
  19:Generated_Source\PSoC4/SPIM.c **** 
  20:Generated_Source\PSoC4/SPIM.c **** #if(SPIM_TX_SOFTWARE_BUF_ENABLED)
  21:Generated_Source\PSoC4/SPIM.c ****     volatile uint8 SPIM_txBuffer[SPIM_TX_BUFFER_SIZE];
  22:Generated_Source\PSoC4/SPIM.c ****     volatile uint8 SPIM_txBufferFull;
  23:Generated_Source\PSoC4/SPIM.c ****     volatile uint8 SPIM_txBufferRead;
  24:Generated_Source\PSoC4/SPIM.c ****     volatile uint8 SPIM_txBufferWrite;
  25:Generated_Source\PSoC4/SPIM.c **** #endif /* (SPIM_TX_SOFTWARE_BUF_ENABLED) */
  26:Generated_Source\PSoC4/SPIM.c **** 
  27:Generated_Source\PSoC4/SPIM.c **** #if(SPIM_RX_SOFTWARE_BUF_ENABLED)
  28:Generated_Source\PSoC4/SPIM.c ****     volatile uint8 SPIM_rxBuffer[SPIM_RX_BUFFER_SIZE];
  29:Generated_Source\PSoC4/SPIM.c ****     volatile uint8 SPIM_rxBufferFull;
  30:Generated_Source\PSoC4/SPIM.c ****     volatile uint8 SPIM_rxBufferRead;
  31:Generated_Source\PSoC4/SPIM.c ****     volatile uint8 SPIM_rxBufferWrite;
  32:Generated_Source\PSoC4/SPIM.c **** #endif /* (SPIM_RX_SOFTWARE_BUF_ENABLED) */
ARM GAS  C:\Users\Petro\AppData\Local\Temp\ccN6Uqh8.s 			page 2


  33:Generated_Source\PSoC4/SPIM.c **** 
  34:Generated_Source\PSoC4/SPIM.c **** uint8 SPIM_initVar = 0u;
  35:Generated_Source\PSoC4/SPIM.c **** 
  36:Generated_Source\PSoC4/SPIM.c **** volatile uint8 SPIM_swStatusTx;
  37:Generated_Source\PSoC4/SPIM.c **** volatile uint8 SPIM_swStatusRx;
  38:Generated_Source\PSoC4/SPIM.c **** 
  39:Generated_Source\PSoC4/SPIM.c **** 
  40:Generated_Source\PSoC4/SPIM.c **** /*******************************************************************************
  41:Generated_Source\PSoC4/SPIM.c **** * Function Name: SPIM_Init
  42:Generated_Source\PSoC4/SPIM.c **** ********************************************************************************
  43:Generated_Source\PSoC4/SPIM.c **** *
  44:Generated_Source\PSoC4/SPIM.c **** * Summary:
  45:Generated_Source\PSoC4/SPIM.c **** *  Inits/Restores default SPIM configuration provided with customizer.
  46:Generated_Source\PSoC4/SPIM.c **** *
  47:Generated_Source\PSoC4/SPIM.c **** * Parameters:
  48:Generated_Source\PSoC4/SPIM.c **** *  None.
  49:Generated_Source\PSoC4/SPIM.c **** *
  50:Generated_Source\PSoC4/SPIM.c **** * Return:
  51:Generated_Source\PSoC4/SPIM.c **** *  None.
  52:Generated_Source\PSoC4/SPIM.c **** *
  53:Generated_Source\PSoC4/SPIM.c **** * Side Effects:
  54:Generated_Source\PSoC4/SPIM.c **** *  When this function is called it initializes all of the necessary parameters
  55:Generated_Source\PSoC4/SPIM.c **** *  for execution. i.e. setting the initial interrupt mask, configuring the
  56:Generated_Source\PSoC4/SPIM.c **** *  interrupt service routine, configuring the bit-counter parameters and
  57:Generated_Source\PSoC4/SPIM.c **** *  clearing the FIFO and Status Register.
  58:Generated_Source\PSoC4/SPIM.c **** *
  59:Generated_Source\PSoC4/SPIM.c **** * Reentrant:
  60:Generated_Source\PSoC4/SPIM.c **** *  No.
  61:Generated_Source\PSoC4/SPIM.c **** *
  62:Generated_Source\PSoC4/SPIM.c **** *******************************************************************************/
  63:Generated_Source\PSoC4/SPIM.c **** void SPIM_Init(void) 
  64:Generated_Source\PSoC4/SPIM.c **** {
  65:Generated_Source\PSoC4/SPIM.c ****     /* Initialize the Bit counter */
  66:Generated_Source\PSoC4/SPIM.c ****     SPIM_COUNTER_PERIOD_REG = SPIM_BITCTR_INIT;
  67:Generated_Source\PSoC4/SPIM.c **** 
  68:Generated_Source\PSoC4/SPIM.c ****     /* Init TX ISR  */
  69:Generated_Source\PSoC4/SPIM.c ****     #if(0u != SPIM_INTERNAL_TX_INT_ENABLED)
  70:Generated_Source\PSoC4/SPIM.c ****         CyIntDisable         (SPIM_TX_ISR_NUMBER);
  71:Generated_Source\PSoC4/SPIM.c ****         CyIntSetPriority     (SPIM_TX_ISR_NUMBER,  SPIM_TX_ISR_PRIORITY);
  72:Generated_Source\PSoC4/SPIM.c ****         (void) CyIntSetVector(SPIM_TX_ISR_NUMBER, &SPIM_TX_ISR);
  73:Generated_Source\PSoC4/SPIM.c ****     #endif /* (0u != SPIM_INTERNAL_TX_INT_ENABLED) */
  74:Generated_Source\PSoC4/SPIM.c **** 
  75:Generated_Source\PSoC4/SPIM.c ****     /* Init RX ISR  */
  76:Generated_Source\PSoC4/SPIM.c ****     #if(0u != SPIM_INTERNAL_RX_INT_ENABLED)
  77:Generated_Source\PSoC4/SPIM.c ****         CyIntDisable         (SPIM_RX_ISR_NUMBER);
  78:Generated_Source\PSoC4/SPIM.c ****         CyIntSetPriority     (SPIM_RX_ISR_NUMBER,  SPIM_RX_ISR_PRIORITY);
  79:Generated_Source\PSoC4/SPIM.c ****         (void) CyIntSetVector(SPIM_RX_ISR_NUMBER, &SPIM_RX_ISR);
  80:Generated_Source\PSoC4/SPIM.c ****     #endif /* (0u != SPIM_INTERNAL_RX_INT_ENABLED) */
  81:Generated_Source\PSoC4/SPIM.c **** 
  82:Generated_Source\PSoC4/SPIM.c ****     /* Clear any stray data from the RX and TX FIFO */
  83:Generated_Source\PSoC4/SPIM.c ****     SPIM_ClearFIFO();
  84:Generated_Source\PSoC4/SPIM.c **** 
  85:Generated_Source\PSoC4/SPIM.c ****     #if(SPIM_RX_SOFTWARE_BUF_ENABLED)
  86:Generated_Source\PSoC4/SPIM.c ****         SPIM_rxBufferFull  = 0u;
  87:Generated_Source\PSoC4/SPIM.c ****         SPIM_rxBufferRead  = 0u;
  88:Generated_Source\PSoC4/SPIM.c ****         SPIM_rxBufferWrite = 0u;
  89:Generated_Source\PSoC4/SPIM.c ****     #endif /* (SPIM_RX_SOFTWARE_BUF_ENABLED) */
ARM GAS  C:\Users\Petro\AppData\Local\Temp\ccN6Uqh8.s 			page 3


  90:Generated_Source\PSoC4/SPIM.c **** 
  91:Generated_Source\PSoC4/SPIM.c ****     #if(SPIM_TX_SOFTWARE_BUF_ENABLED)
  92:Generated_Source\PSoC4/SPIM.c ****         SPIM_txBufferFull  = 0u;
  93:Generated_Source\PSoC4/SPIM.c ****         SPIM_txBufferRead  = 0u;
  94:Generated_Source\PSoC4/SPIM.c ****         SPIM_txBufferWrite = 0u;
  95:Generated_Source\PSoC4/SPIM.c ****     #endif /* (SPIM_TX_SOFTWARE_BUF_ENABLED) */
  96:Generated_Source\PSoC4/SPIM.c **** 
  97:Generated_Source\PSoC4/SPIM.c ****     (void) SPIM_ReadTxStatus(); /* Clear Tx status and swStatusTx */
  98:Generated_Source\PSoC4/SPIM.c ****     (void) SPIM_ReadRxStatus(); /* Clear Rx status and swStatusRx */
  99:Generated_Source\PSoC4/SPIM.c **** 
 100:Generated_Source\PSoC4/SPIM.c ****     /* Configure TX and RX interrupt mask */
 101:Generated_Source\PSoC4/SPIM.c ****     SPIM_TX_STATUS_MASK_REG = SPIM_TX_INIT_INTERRUPTS_MASK;
 102:Generated_Source\PSoC4/SPIM.c ****     SPIM_RX_STATUS_MASK_REG = SPIM_RX_INIT_INTERRUPTS_MASK;
 103:Generated_Source\PSoC4/SPIM.c **** }
 104:Generated_Source\PSoC4/SPIM.c **** 
 105:Generated_Source\PSoC4/SPIM.c **** 
 106:Generated_Source\PSoC4/SPIM.c **** /*******************************************************************************
 107:Generated_Source\PSoC4/SPIM.c **** * Function Name: SPIM_Enable
 108:Generated_Source\PSoC4/SPIM.c **** ********************************************************************************
 109:Generated_Source\PSoC4/SPIM.c **** *
 110:Generated_Source\PSoC4/SPIM.c **** * Summary:
 111:Generated_Source\PSoC4/SPIM.c **** *  Enable SPIM component.
 112:Generated_Source\PSoC4/SPIM.c **** *
 113:Generated_Source\PSoC4/SPIM.c **** * Parameters:
 114:Generated_Source\PSoC4/SPIM.c **** *  None.
 115:Generated_Source\PSoC4/SPIM.c **** *
 116:Generated_Source\PSoC4/SPIM.c **** * Return:
 117:Generated_Source\PSoC4/SPIM.c **** *  None.
 118:Generated_Source\PSoC4/SPIM.c **** *
 119:Generated_Source\PSoC4/SPIM.c **** *******************************************************************************/
 120:Generated_Source\PSoC4/SPIM.c **** void SPIM_Enable(void) 
 121:Generated_Source\PSoC4/SPIM.c **** {
  26              		.loc 1 121 0
  27              		.cfi_startproc
  28 0000 08B5     		push	{r3, lr}
  29              		.cfi_def_cfa_offset 8
  30              		.cfi_offset 3, -8
  31              		.cfi_offset 14, -4
 122:Generated_Source\PSoC4/SPIM.c ****     uint8 enableInterrupts;
 123:Generated_Source\PSoC4/SPIM.c **** 
 124:Generated_Source\PSoC4/SPIM.c ****     enableInterrupts = CyEnterCriticalSection();
  32              		.loc 1 124 0
  33 0002 FFF7FEFF 		bl	CyEnterCriticalSection
  34              	.LVL0:
 125:Generated_Source\PSoC4/SPIM.c ****     SPIM_COUNTER_CONTROL_REG |= SPIM_CNTR_ENABLE;
  35              		.loc 1 125 0
  36 0006 2021     		mov	r1, #32
  37 0008 074A     		ldr	r2, .L2
 126:Generated_Source\PSoC4/SPIM.c ****     SPIM_TX_STATUS_ACTL_REG  |= SPIM_INT_ENABLE;
 127:Generated_Source\PSoC4/SPIM.c ****     SPIM_RX_STATUS_ACTL_REG  |= SPIM_INT_ENABLE;
 128:Generated_Source\PSoC4/SPIM.c ****     CyExitCriticalSection(enableInterrupts);
 129:Generated_Source\PSoC4/SPIM.c **** 
 130:Generated_Source\PSoC4/SPIM.c ****     #if(0u != SPIM_INTERNAL_CLOCK)
 131:Generated_Source\PSoC4/SPIM.c ****         SPIM_IntClock_Enable();
 132:Generated_Source\PSoC4/SPIM.c ****     #endif /* (0u != SPIM_INTERNAL_CLOCK) */
 133:Generated_Source\PSoC4/SPIM.c **** 
 134:Generated_Source\PSoC4/SPIM.c ****     SPIM_EnableTxInt();
ARM GAS  C:\Users\Petro\AppData\Local\Temp\ccN6Uqh8.s 			page 4


 135:Generated_Source\PSoC4/SPIM.c ****     SPIM_EnableRxInt();
 136:Generated_Source\PSoC4/SPIM.c **** }
  38              		.loc 1 136 0
  39              		@ sp needed
 125:Generated_Source\PSoC4/SPIM.c ****     SPIM_COUNTER_CONTROL_REG |= SPIM_CNTR_ENABLE;
  40              		.loc 1 125 0
  41 000a 1378     		ldrb	r3, [r2]
  42 000c 0B43     		orr	r3, r1
  43 000e 1370     		strb	r3, [r2]
 126:Generated_Source\PSoC4/SPIM.c ****     SPIM_TX_STATUS_ACTL_REG  |= SPIM_INT_ENABLE;
  44              		.loc 1 126 0
  45 0010 064B     		ldr	r3, .L2+4
  46 0012 1039     		sub	r1, r1, #16
  47 0014 1A78     		ldrb	r2, [r3]
  48 0016 0A43     		orr	r2, r1
  49 0018 1A70     		strb	r2, [r3]
 127:Generated_Source\PSoC4/SPIM.c ****     CyExitCriticalSection(enableInterrupts);
  50              		.loc 1 127 0
  51 001a 054A     		ldr	r2, .L2+8
  52 001c 1378     		ldrb	r3, [r2]
  53 001e 0B43     		orr	r3, r1
  54 0020 1370     		strb	r3, [r2]
 128:Generated_Source\PSoC4/SPIM.c **** 
  55              		.loc 1 128 0
  56 0022 FFF7FEFF 		bl	CyExitCriticalSection
  57              	.LVL1:
  58              		.loc 1 136 0
  59 0026 08BD     		pop	{r3, pc}
  60              	.L3:
  61              		.align	2
  62              	.L2:
  63 0028 93000F40 		.word	1074725011
  64 002c 92000F40 		.word	1074725010
  65 0030 90000F40 		.word	1074725008
  66              		.cfi_endproc
  67              	.LFE3:
  68              		.size	SPIM_Enable, .-SPIM_Enable
  69              		.section	.text.SPIM_Stop,"ax",%progbits
  70              		.align	1
  71              		.global	SPIM_Stop
  72              		.code	16
  73              		.thumb_func
  74              		.type	SPIM_Stop, %function
  75              	SPIM_Stop:
  76              	.LFB5:
 137:Generated_Source\PSoC4/SPIM.c **** 
 138:Generated_Source\PSoC4/SPIM.c **** 
 139:Generated_Source\PSoC4/SPIM.c **** /*******************************************************************************
 140:Generated_Source\PSoC4/SPIM.c **** * Function Name: SPIM_Start
 141:Generated_Source\PSoC4/SPIM.c **** ********************************************************************************
 142:Generated_Source\PSoC4/SPIM.c **** *
 143:Generated_Source\PSoC4/SPIM.c **** * Summary:
 144:Generated_Source\PSoC4/SPIM.c **** *  Initialize and Enable the SPI Master component.
 145:Generated_Source\PSoC4/SPIM.c **** *
 146:Generated_Source\PSoC4/SPIM.c **** * Parameters:
 147:Generated_Source\PSoC4/SPIM.c **** *  None.
 148:Generated_Source\PSoC4/SPIM.c **** *
ARM GAS  C:\Users\Petro\AppData\Local\Temp\ccN6Uqh8.s 			page 5


 149:Generated_Source\PSoC4/SPIM.c **** * Return:
 150:Generated_Source\PSoC4/SPIM.c **** *  None.
 151:Generated_Source\PSoC4/SPIM.c **** *
 152:Generated_Source\PSoC4/SPIM.c **** * Global variables:
 153:Generated_Source\PSoC4/SPIM.c **** *  SPIM_initVar - used to check initial configuration, modified on
 154:Generated_Source\PSoC4/SPIM.c **** *  first function call.
 155:Generated_Source\PSoC4/SPIM.c **** *
 156:Generated_Source\PSoC4/SPIM.c **** * Theory:
 157:Generated_Source\PSoC4/SPIM.c **** *  Enable the clock input to enable operation.
 158:Generated_Source\PSoC4/SPIM.c **** *
 159:Generated_Source\PSoC4/SPIM.c **** * Reentrant:
 160:Generated_Source\PSoC4/SPIM.c **** *  No.
 161:Generated_Source\PSoC4/SPIM.c **** *
 162:Generated_Source\PSoC4/SPIM.c **** *******************************************************************************/
 163:Generated_Source\PSoC4/SPIM.c **** void SPIM_Start(void) 
 164:Generated_Source\PSoC4/SPIM.c **** {
 165:Generated_Source\PSoC4/SPIM.c ****     if(0u == SPIM_initVar)
 166:Generated_Source\PSoC4/SPIM.c ****     {
 167:Generated_Source\PSoC4/SPIM.c ****         SPIM_Init();
 168:Generated_Source\PSoC4/SPIM.c ****         SPIM_initVar = 1u;
 169:Generated_Source\PSoC4/SPIM.c ****     }
 170:Generated_Source\PSoC4/SPIM.c **** 
 171:Generated_Source\PSoC4/SPIM.c ****     SPIM_Enable();
 172:Generated_Source\PSoC4/SPIM.c **** }
 173:Generated_Source\PSoC4/SPIM.c **** 
 174:Generated_Source\PSoC4/SPIM.c **** 
 175:Generated_Source\PSoC4/SPIM.c **** /*******************************************************************************
 176:Generated_Source\PSoC4/SPIM.c **** * Function Name: SPIM_Stop
 177:Generated_Source\PSoC4/SPIM.c **** ********************************************************************************
 178:Generated_Source\PSoC4/SPIM.c **** *
 179:Generated_Source\PSoC4/SPIM.c **** * Summary:
 180:Generated_Source\PSoC4/SPIM.c **** *  Disable the SPI Master component.
 181:Generated_Source\PSoC4/SPIM.c **** *
 182:Generated_Source\PSoC4/SPIM.c **** * Parameters:
 183:Generated_Source\PSoC4/SPIM.c **** *  None.
 184:Generated_Source\PSoC4/SPIM.c **** *
 185:Generated_Source\PSoC4/SPIM.c **** * Return:
 186:Generated_Source\PSoC4/SPIM.c **** *  None.
 187:Generated_Source\PSoC4/SPIM.c **** *
 188:Generated_Source\PSoC4/SPIM.c **** * Theory:
 189:Generated_Source\PSoC4/SPIM.c **** *  Disable the clock input to enable operation.
 190:Generated_Source\PSoC4/SPIM.c **** *
 191:Generated_Source\PSoC4/SPIM.c **** *******************************************************************************/
 192:Generated_Source\PSoC4/SPIM.c **** void SPIM_Stop(void) 
 193:Generated_Source\PSoC4/SPIM.c **** {
  77              		.loc 1 193 0
  78              		.cfi_startproc
  79 0000 08B5     		push	{r3, lr}
  80              		.cfi_def_cfa_offset 8
  81              		.cfi_offset 3, -8
  82              		.cfi_offset 14, -4
 194:Generated_Source\PSoC4/SPIM.c ****     uint8 enableInterrupts;
 195:Generated_Source\PSoC4/SPIM.c **** 
 196:Generated_Source\PSoC4/SPIM.c ****     enableInterrupts = CyEnterCriticalSection();
  83              		.loc 1 196 0
  84 0002 FFF7FEFF 		bl	CyEnterCriticalSection
  85              	.LVL2:
ARM GAS  C:\Users\Petro\AppData\Local\Temp\ccN6Uqh8.s 			page 6


 197:Generated_Source\PSoC4/SPIM.c ****     SPIM_TX_STATUS_ACTL_REG &= ((uint8) ~SPIM_INT_ENABLE);
  86              		.loc 1 197 0
  87 0006 1021     		mov	r1, #16
  88 0008 054A     		ldr	r2, .L5
 198:Generated_Source\PSoC4/SPIM.c ****     SPIM_RX_STATUS_ACTL_REG &= ((uint8) ~SPIM_INT_ENABLE);
 199:Generated_Source\PSoC4/SPIM.c ****     CyExitCriticalSection(enableInterrupts);
 200:Generated_Source\PSoC4/SPIM.c **** 
 201:Generated_Source\PSoC4/SPIM.c ****     #if(0u != SPIM_INTERNAL_CLOCK)
 202:Generated_Source\PSoC4/SPIM.c ****         SPIM_IntClock_Disable();
 203:Generated_Source\PSoC4/SPIM.c ****     #endif /* (0u != SPIM_INTERNAL_CLOCK) */
 204:Generated_Source\PSoC4/SPIM.c **** 
 205:Generated_Source\PSoC4/SPIM.c ****     SPIM_DisableTxInt();
 206:Generated_Source\PSoC4/SPIM.c ****     SPIM_DisableRxInt();
 207:Generated_Source\PSoC4/SPIM.c **** }
  89              		.loc 1 207 0
  90              		@ sp needed
 197:Generated_Source\PSoC4/SPIM.c ****     SPIM_TX_STATUS_ACTL_REG &= ((uint8) ~SPIM_INT_ENABLE);
  91              		.loc 1 197 0
  92 000a 1378     		ldrb	r3, [r2]
  93 000c 8B43     		bic	r3, r1
  94 000e 1370     		strb	r3, [r2]
 198:Generated_Source\PSoC4/SPIM.c ****     SPIM_RX_STATUS_ACTL_REG &= ((uint8) ~SPIM_INT_ENABLE);
  95              		.loc 1 198 0
  96 0010 044A     		ldr	r2, .L5+4
  97 0012 1378     		ldrb	r3, [r2]
  98 0014 8B43     		bic	r3, r1
  99 0016 1370     		strb	r3, [r2]
 199:Generated_Source\PSoC4/SPIM.c **** 
 100              		.loc 1 199 0
 101 0018 FFF7FEFF 		bl	CyExitCriticalSection
 102              	.LVL3:
 103              		.loc 1 207 0
 104 001c 08BD     		pop	{r3, pc}
 105              	.L6:
 106 001e C046     		.align	2
 107              	.L5:
 108 0020 92000F40 		.word	1074725010
 109 0024 90000F40 		.word	1074725008
 110              		.cfi_endproc
 111              	.LFE5:
 112              		.size	SPIM_Stop, .-SPIM_Stop
 113              		.section	.text.SPIM_EnableTxInt,"ax",%progbits
 114              		.align	1
 115              		.global	SPIM_EnableTxInt
 116              		.code	16
 117              		.thumb_func
 118              		.type	SPIM_EnableTxInt, %function
 119              	SPIM_EnableTxInt:
 120              	.LFB6:
 208:Generated_Source\PSoC4/SPIM.c **** 
 209:Generated_Source\PSoC4/SPIM.c **** 
 210:Generated_Source\PSoC4/SPIM.c **** /*******************************************************************************
 211:Generated_Source\PSoC4/SPIM.c **** * Function Name: SPIM_EnableTxInt
 212:Generated_Source\PSoC4/SPIM.c **** ********************************************************************************
 213:Generated_Source\PSoC4/SPIM.c **** *
 214:Generated_Source\PSoC4/SPIM.c **** * Summary:
 215:Generated_Source\PSoC4/SPIM.c **** *  Enable internal Tx interrupt generation.
ARM GAS  C:\Users\Petro\AppData\Local\Temp\ccN6Uqh8.s 			page 7


 216:Generated_Source\PSoC4/SPIM.c **** *
 217:Generated_Source\PSoC4/SPIM.c **** * Parameters:
 218:Generated_Source\PSoC4/SPIM.c **** *  None.
 219:Generated_Source\PSoC4/SPIM.c **** *
 220:Generated_Source\PSoC4/SPIM.c **** * Return:
 221:Generated_Source\PSoC4/SPIM.c **** *  None.
 222:Generated_Source\PSoC4/SPIM.c **** *
 223:Generated_Source\PSoC4/SPIM.c **** * Theory:
 224:Generated_Source\PSoC4/SPIM.c **** *  Enable the internal Tx interrupt output -or- the interrupt component itself.
 225:Generated_Source\PSoC4/SPIM.c **** *
 226:Generated_Source\PSoC4/SPIM.c **** *******************************************************************************/
 227:Generated_Source\PSoC4/SPIM.c **** void SPIM_EnableTxInt(void) 
 228:Generated_Source\PSoC4/SPIM.c **** {
 121              		.loc 1 228 0
 122              		.cfi_startproc
 229:Generated_Source\PSoC4/SPIM.c ****     #if(0u != SPIM_INTERNAL_TX_INT_ENABLED)
 230:Generated_Source\PSoC4/SPIM.c ****         CyIntEnable(SPIM_TX_ISR_NUMBER);
 231:Generated_Source\PSoC4/SPIM.c ****     #endif /* (0u != SPIM_INTERNAL_TX_INT_ENABLED) */
 232:Generated_Source\PSoC4/SPIM.c **** }
 123              		.loc 1 232 0
 124              		@ sp needed
 125 0000 7047     		bx	lr
 126              		.cfi_endproc
 127              	.LFE6:
 128              		.size	SPIM_EnableTxInt, .-SPIM_EnableTxInt
 129              		.section	.text.SPIM_EnableRxInt,"ax",%progbits
 130              		.align	1
 131              		.global	SPIM_EnableRxInt
 132              		.code	16
 133              		.thumb_func
 134              		.type	SPIM_EnableRxInt, %function
 135              	SPIM_EnableRxInt:
 136              	.LFB7:
 233:Generated_Source\PSoC4/SPIM.c **** 
 234:Generated_Source\PSoC4/SPIM.c **** 
 235:Generated_Source\PSoC4/SPIM.c **** /*******************************************************************************
 236:Generated_Source\PSoC4/SPIM.c **** * Function Name: SPIM_EnableRxInt
 237:Generated_Source\PSoC4/SPIM.c **** ********************************************************************************
 238:Generated_Source\PSoC4/SPIM.c **** *
 239:Generated_Source\PSoC4/SPIM.c **** * Summary:
 240:Generated_Source\PSoC4/SPIM.c **** *  Enable internal Rx interrupt generation.
 241:Generated_Source\PSoC4/SPIM.c **** *
 242:Generated_Source\PSoC4/SPIM.c **** * Parameters:
 243:Generated_Source\PSoC4/SPIM.c **** *  None.
 244:Generated_Source\PSoC4/SPIM.c **** *
 245:Generated_Source\PSoC4/SPIM.c **** * Return:
 246:Generated_Source\PSoC4/SPIM.c **** *  None.
 247:Generated_Source\PSoC4/SPIM.c **** *
 248:Generated_Source\PSoC4/SPIM.c **** * Theory:
 249:Generated_Source\PSoC4/SPIM.c **** *  Enable the internal Rx interrupt output -or- the interrupt component itself.
 250:Generated_Source\PSoC4/SPIM.c **** *
 251:Generated_Source\PSoC4/SPIM.c **** *******************************************************************************/
 252:Generated_Source\PSoC4/SPIM.c **** void SPIM_EnableRxInt(void) 
 253:Generated_Source\PSoC4/SPIM.c **** {
 137              		.loc 1 253 0
 138              		.cfi_startproc
 254:Generated_Source\PSoC4/SPIM.c ****     #if(0u != SPIM_INTERNAL_RX_INT_ENABLED)
ARM GAS  C:\Users\Petro\AppData\Local\Temp\ccN6Uqh8.s 			page 8


 255:Generated_Source\PSoC4/SPIM.c ****         CyIntEnable(SPIM_RX_ISR_NUMBER);
 256:Generated_Source\PSoC4/SPIM.c ****     #endif /* (0u != SPIM_INTERNAL_RX_INT_ENABLED) */
 257:Generated_Source\PSoC4/SPIM.c **** }
 139              		.loc 1 257 0
 140              		@ sp needed
 141 0000 7047     		bx	lr
 142              		.cfi_endproc
 143              	.LFE7:
 144              		.size	SPIM_EnableRxInt, .-SPIM_EnableRxInt
 145              		.section	.text.SPIM_DisableTxInt,"ax",%progbits
 146              		.align	1
 147              		.global	SPIM_DisableTxInt
 148              		.code	16
 149              		.thumb_func
 150              		.type	SPIM_DisableTxInt, %function
 151              	SPIM_DisableTxInt:
 152              	.LFB8:
 258:Generated_Source\PSoC4/SPIM.c **** 
 259:Generated_Source\PSoC4/SPIM.c **** 
 260:Generated_Source\PSoC4/SPIM.c **** /*******************************************************************************
 261:Generated_Source\PSoC4/SPIM.c **** * Function Name: SPIM_DisableTxInt
 262:Generated_Source\PSoC4/SPIM.c **** ********************************************************************************
 263:Generated_Source\PSoC4/SPIM.c **** *
 264:Generated_Source\PSoC4/SPIM.c **** * Summary:
 265:Generated_Source\PSoC4/SPIM.c **** *  Disable internal Tx interrupt generation.
 266:Generated_Source\PSoC4/SPIM.c **** *
 267:Generated_Source\PSoC4/SPIM.c **** * Parameters:
 268:Generated_Source\PSoC4/SPIM.c **** *  None.
 269:Generated_Source\PSoC4/SPIM.c **** *
 270:Generated_Source\PSoC4/SPIM.c **** * Return:
 271:Generated_Source\PSoC4/SPIM.c **** *  None.
 272:Generated_Source\PSoC4/SPIM.c **** *
 273:Generated_Source\PSoC4/SPIM.c **** * Theory:
 274:Generated_Source\PSoC4/SPIM.c **** *  Disable the internal Tx interrupt output -or- the interrupt component itself.
 275:Generated_Source\PSoC4/SPIM.c **** *
 276:Generated_Source\PSoC4/SPIM.c **** *******************************************************************************/
 277:Generated_Source\PSoC4/SPIM.c **** void SPIM_DisableTxInt(void) 
 278:Generated_Source\PSoC4/SPIM.c **** {
 153              		.loc 1 278 0
 154              		.cfi_startproc
 279:Generated_Source\PSoC4/SPIM.c ****     #if(0u != SPIM_INTERNAL_TX_INT_ENABLED)
 280:Generated_Source\PSoC4/SPIM.c ****         CyIntDisable(SPIM_TX_ISR_NUMBER);
 281:Generated_Source\PSoC4/SPIM.c ****     #endif /* (0u != SPIM_INTERNAL_TX_INT_ENABLED) */
 282:Generated_Source\PSoC4/SPIM.c **** }
 155              		.loc 1 282 0
 156              		@ sp needed
 157 0000 7047     		bx	lr
 158              		.cfi_endproc
 159              	.LFE8:
 160              		.size	SPIM_DisableTxInt, .-SPIM_DisableTxInt
 161              		.section	.text.SPIM_DisableRxInt,"ax",%progbits
 162              		.align	1
 163              		.global	SPIM_DisableRxInt
 164              		.code	16
 165              		.thumb_func
 166              		.type	SPIM_DisableRxInt, %function
 167              	SPIM_DisableRxInt:
ARM GAS  C:\Users\Petro\AppData\Local\Temp\ccN6Uqh8.s 			page 9


 168              	.LFB9:
 283:Generated_Source\PSoC4/SPIM.c **** 
 284:Generated_Source\PSoC4/SPIM.c **** 
 285:Generated_Source\PSoC4/SPIM.c **** /*******************************************************************************
 286:Generated_Source\PSoC4/SPIM.c **** * Function Name: SPIM_DisableRxInt
 287:Generated_Source\PSoC4/SPIM.c **** ********************************************************************************
 288:Generated_Source\PSoC4/SPIM.c **** *
 289:Generated_Source\PSoC4/SPIM.c **** * Summary:
 290:Generated_Source\PSoC4/SPIM.c **** *  Disable internal Rx interrupt generation.
 291:Generated_Source\PSoC4/SPIM.c **** *
 292:Generated_Source\PSoC4/SPIM.c **** * Parameters:
 293:Generated_Source\PSoC4/SPIM.c **** *  None.
 294:Generated_Source\PSoC4/SPIM.c **** *
 295:Generated_Source\PSoC4/SPIM.c **** * Return:
 296:Generated_Source\PSoC4/SPIM.c **** *  None.
 297:Generated_Source\PSoC4/SPIM.c **** *
 298:Generated_Source\PSoC4/SPIM.c **** * Theory:
 299:Generated_Source\PSoC4/SPIM.c **** *  Disable the internal Rx interrupt output -or- the interrupt component itself.
 300:Generated_Source\PSoC4/SPIM.c **** *
 301:Generated_Source\PSoC4/SPIM.c **** *******************************************************************************/
 302:Generated_Source\PSoC4/SPIM.c **** void SPIM_DisableRxInt(void) 
 303:Generated_Source\PSoC4/SPIM.c **** {
 169              		.loc 1 303 0
 170              		.cfi_startproc
 304:Generated_Source\PSoC4/SPIM.c ****     #if(0u != SPIM_INTERNAL_RX_INT_ENABLED)
 305:Generated_Source\PSoC4/SPIM.c ****         CyIntDisable(SPIM_RX_ISR_NUMBER);
 306:Generated_Source\PSoC4/SPIM.c ****     #endif /* (0u != SPIM_INTERNAL_RX_INT_ENABLED) */
 307:Generated_Source\PSoC4/SPIM.c **** }
 171              		.loc 1 307 0
 172              		@ sp needed
 173 0000 7047     		bx	lr
 174              		.cfi_endproc
 175              	.LFE9:
 176              		.size	SPIM_DisableRxInt, .-SPIM_DisableRxInt
 177              		.section	.text.SPIM_SetTxInterruptMode,"ax",%progbits
 178              		.align	1
 179              		.global	SPIM_SetTxInterruptMode
 180              		.code	16
 181              		.thumb_func
 182              		.type	SPIM_SetTxInterruptMode, %function
 183              	SPIM_SetTxInterruptMode:
 184              	.LFB10:
 308:Generated_Source\PSoC4/SPIM.c **** 
 309:Generated_Source\PSoC4/SPIM.c **** 
 310:Generated_Source\PSoC4/SPIM.c **** /*******************************************************************************
 311:Generated_Source\PSoC4/SPIM.c **** * Function Name: SPIM_SetTxInterruptMode
 312:Generated_Source\PSoC4/SPIM.c **** ********************************************************************************
 313:Generated_Source\PSoC4/SPIM.c **** *
 314:Generated_Source\PSoC4/SPIM.c **** * Summary:
 315:Generated_Source\PSoC4/SPIM.c **** *  Configure which status bits trigger an interrupt event.
 316:Generated_Source\PSoC4/SPIM.c **** *
 317:Generated_Source\PSoC4/SPIM.c **** * Parameters:
 318:Generated_Source\PSoC4/SPIM.c **** *  intSrc: An or'd combination of the desired status bit masks (defined in the
 319:Generated_Source\PSoC4/SPIM.c **** *  header file).
 320:Generated_Source\PSoC4/SPIM.c **** *
 321:Generated_Source\PSoC4/SPIM.c **** * Return:
 322:Generated_Source\PSoC4/SPIM.c **** *  None.
ARM GAS  C:\Users\Petro\AppData\Local\Temp\ccN6Uqh8.s 			page 10


 323:Generated_Source\PSoC4/SPIM.c **** *
 324:Generated_Source\PSoC4/SPIM.c **** * Theory:
 325:Generated_Source\PSoC4/SPIM.c **** *  Enables the output of specific status bits to the interrupt controller.
 326:Generated_Source\PSoC4/SPIM.c **** *
 327:Generated_Source\PSoC4/SPIM.c **** *******************************************************************************/
 328:Generated_Source\PSoC4/SPIM.c **** void SPIM_SetTxInterruptMode(uint8 intSrc) 
 329:Generated_Source\PSoC4/SPIM.c **** {
 185              		.loc 1 329 0
 186              		.cfi_startproc
 187              	.LVL4:
 330:Generated_Source\PSoC4/SPIM.c ****     SPIM_TX_STATUS_MASK_REG = intSrc;
 188              		.loc 1 330 0
 189 0000 014B     		ldr	r3, .L12
 331:Generated_Source\PSoC4/SPIM.c **** }
 190              		.loc 1 331 0
 191              		@ sp needed
 330:Generated_Source\PSoC4/SPIM.c ****     SPIM_TX_STATUS_MASK_REG = intSrc;
 192              		.loc 1 330 0
 193 0002 1870     		strb	r0, [r3]
 194              		.loc 1 331 0
 195 0004 7047     		bx	lr
 196              	.L13:
 197 0006 C046     		.align	2
 198              	.L12:
 199 0008 82000F40 		.word	1074724994
 200              		.cfi_endproc
 201              	.LFE10:
 202              		.size	SPIM_SetTxInterruptMode, .-SPIM_SetTxInterruptMode
 203              		.section	.text.SPIM_SetRxInterruptMode,"ax",%progbits
 204              		.align	1
 205              		.global	SPIM_SetRxInterruptMode
 206              		.code	16
 207              		.thumb_func
 208              		.type	SPIM_SetRxInterruptMode, %function
 209              	SPIM_SetRxInterruptMode:
 210              	.LFB11:
 332:Generated_Source\PSoC4/SPIM.c **** 
 333:Generated_Source\PSoC4/SPIM.c **** 
 334:Generated_Source\PSoC4/SPIM.c **** /*******************************************************************************
 335:Generated_Source\PSoC4/SPIM.c **** * Function Name: SPIM_SetRxInterruptMode
 336:Generated_Source\PSoC4/SPIM.c **** ********************************************************************************
 337:Generated_Source\PSoC4/SPIM.c **** *
 338:Generated_Source\PSoC4/SPIM.c **** * Summary:
 339:Generated_Source\PSoC4/SPIM.c **** *  Configure which status bits trigger an interrupt event.
 340:Generated_Source\PSoC4/SPIM.c **** *
 341:Generated_Source\PSoC4/SPIM.c **** * Parameters:
 342:Generated_Source\PSoC4/SPIM.c **** *  intSrc: An or'd combination of the desired status bit masks (defined in the
 343:Generated_Source\PSoC4/SPIM.c **** *  header file).
 344:Generated_Source\PSoC4/SPIM.c **** *
 345:Generated_Source\PSoC4/SPIM.c **** * Return:
 346:Generated_Source\PSoC4/SPIM.c **** *  None.
 347:Generated_Source\PSoC4/SPIM.c **** *
 348:Generated_Source\PSoC4/SPIM.c **** * Theory:
 349:Generated_Source\PSoC4/SPIM.c **** *  Enables the output of specific status bits to the interrupt controller.
 350:Generated_Source\PSoC4/SPIM.c **** *
 351:Generated_Source\PSoC4/SPIM.c **** *******************************************************************************/
 352:Generated_Source\PSoC4/SPIM.c **** void SPIM_SetRxInterruptMode(uint8 intSrc) 
ARM GAS  C:\Users\Petro\AppData\Local\Temp\ccN6Uqh8.s 			page 11


 353:Generated_Source\PSoC4/SPIM.c **** {
 211              		.loc 1 353 0
 212              		.cfi_startproc
 213              	.LVL5:
 354:Generated_Source\PSoC4/SPIM.c ****     SPIM_RX_STATUS_MASK_REG  = intSrc;
 214              		.loc 1 354 0
 215 0000 014B     		ldr	r3, .L15
 355:Generated_Source\PSoC4/SPIM.c **** }
 216              		.loc 1 355 0
 217              		@ sp needed
 354:Generated_Source\PSoC4/SPIM.c ****     SPIM_RX_STATUS_MASK_REG  = intSrc;
 218              		.loc 1 354 0
 219 0002 1870     		strb	r0, [r3]
 220              		.loc 1 355 0
 221 0004 7047     		bx	lr
 222              	.L16:
 223 0006 C046     		.align	2
 224              	.L15:
 225 0008 80000F40 		.word	1074724992
 226              		.cfi_endproc
 227              	.LFE11:
 228              		.size	SPIM_SetRxInterruptMode, .-SPIM_SetRxInterruptMode
 229              		.section	.text.SPIM_ReadTxStatus,"ax",%progbits
 230              		.align	1
 231              		.global	SPIM_ReadTxStatus
 232              		.code	16
 233              		.thumb_func
 234              		.type	SPIM_ReadTxStatus, %function
 235              	SPIM_ReadTxStatus:
 236              	.LFB12:
 356:Generated_Source\PSoC4/SPIM.c **** 
 357:Generated_Source\PSoC4/SPIM.c **** 
 358:Generated_Source\PSoC4/SPIM.c **** /*******************************************************************************
 359:Generated_Source\PSoC4/SPIM.c **** * Function Name: SPIM_ReadTxStatus
 360:Generated_Source\PSoC4/SPIM.c **** ********************************************************************************
 361:Generated_Source\PSoC4/SPIM.c **** *
 362:Generated_Source\PSoC4/SPIM.c **** * Summary:
 363:Generated_Source\PSoC4/SPIM.c **** *  Read the Tx status register for the component.
 364:Generated_Source\PSoC4/SPIM.c **** *
 365:Generated_Source\PSoC4/SPIM.c **** * Parameters:
 366:Generated_Source\PSoC4/SPIM.c **** *  None.
 367:Generated_Source\PSoC4/SPIM.c **** *
 368:Generated_Source\PSoC4/SPIM.c **** * Return:
 369:Generated_Source\PSoC4/SPIM.c **** *  Contents of the Tx status register.
 370:Generated_Source\PSoC4/SPIM.c **** *
 371:Generated_Source\PSoC4/SPIM.c **** * Global variables:
 372:Generated_Source\PSoC4/SPIM.c **** *  SPIM_swStatusTx - used to store in software status register,
 373:Generated_Source\PSoC4/SPIM.c **** *  modified every function call - resets to zero.
 374:Generated_Source\PSoC4/SPIM.c **** *
 375:Generated_Source\PSoC4/SPIM.c **** * Theory:
 376:Generated_Source\PSoC4/SPIM.c **** *  Allows the user and the API to read the Tx status register for error
 377:Generated_Source\PSoC4/SPIM.c **** *  detection and flow control.
 378:Generated_Source\PSoC4/SPIM.c **** *
 379:Generated_Source\PSoC4/SPIM.c **** * Side Effects:
 380:Generated_Source\PSoC4/SPIM.c **** *  Clear Tx status register of the component.
 381:Generated_Source\PSoC4/SPIM.c **** *
 382:Generated_Source\PSoC4/SPIM.c **** * Reentrant:
ARM GAS  C:\Users\Petro\AppData\Local\Temp\ccN6Uqh8.s 			page 12


 383:Generated_Source\PSoC4/SPIM.c **** *  No.
 384:Generated_Source\PSoC4/SPIM.c **** *
 385:Generated_Source\PSoC4/SPIM.c **** *******************************************************************************/
 386:Generated_Source\PSoC4/SPIM.c **** uint8 SPIM_ReadTxStatus(void) 
 387:Generated_Source\PSoC4/SPIM.c **** {
 237              		.loc 1 387 0
 238              		.cfi_startproc
 388:Generated_Source\PSoC4/SPIM.c ****     uint8 tmpStatus;
 389:Generated_Source\PSoC4/SPIM.c **** 
 390:Generated_Source\PSoC4/SPIM.c ****     #if(SPIM_TX_SOFTWARE_BUF_ENABLED)
 391:Generated_Source\PSoC4/SPIM.c ****         /* Disable TX interrupt to protect global veriables */
 392:Generated_Source\PSoC4/SPIM.c ****         SPIM_DisableTxInt();
 393:Generated_Source\PSoC4/SPIM.c **** 
 394:Generated_Source\PSoC4/SPIM.c ****         tmpStatus = SPIM_GET_STATUS_TX(SPIM_swStatusTx);
 395:Generated_Source\PSoC4/SPIM.c ****         SPIM_swStatusTx = 0u;
 396:Generated_Source\PSoC4/SPIM.c **** 
 397:Generated_Source\PSoC4/SPIM.c ****         SPIM_EnableTxInt();
 398:Generated_Source\PSoC4/SPIM.c **** 
 399:Generated_Source\PSoC4/SPIM.c ****     #else
 400:Generated_Source\PSoC4/SPIM.c **** 
 401:Generated_Source\PSoC4/SPIM.c ****         tmpStatus = SPIM_TX_STATUS_REG;
 239              		.loc 1 401 0
 240 0000 014B     		ldr	r3, .L18
 402:Generated_Source\PSoC4/SPIM.c **** 
 403:Generated_Source\PSoC4/SPIM.c ****     #endif /* (SPIM_TX_SOFTWARE_BUF_ENABLED) */
 404:Generated_Source\PSoC4/SPIM.c **** 
 405:Generated_Source\PSoC4/SPIM.c ****     return(tmpStatus);
 406:Generated_Source\PSoC4/SPIM.c **** }
 241              		.loc 1 406 0
 242              		@ sp needed
 401:Generated_Source\PSoC4/SPIM.c **** 
 243              		.loc 1 401 0
 244 0002 1878     		ldrb	r0, [r3]
 245 0004 C0B2     		uxtb	r0, r0
 246              	.LVL6:
 247              		.loc 1 406 0
 248 0006 7047     		bx	lr
 249              	.L19:
 250              		.align	2
 251              	.L18:
 252 0008 62000F40 		.word	1074724962
 253              		.cfi_endproc
 254              	.LFE12:
 255              		.size	SPIM_ReadTxStatus, .-SPIM_ReadTxStatus
 256              		.section	.text.SPIM_ReadRxStatus,"ax",%progbits
 257              		.align	1
 258              		.global	SPIM_ReadRxStatus
 259              		.code	16
 260              		.thumb_func
 261              		.type	SPIM_ReadRxStatus, %function
 262              	SPIM_ReadRxStatus:
 263              	.LFB13:
 407:Generated_Source\PSoC4/SPIM.c **** 
 408:Generated_Source\PSoC4/SPIM.c **** 
 409:Generated_Source\PSoC4/SPIM.c **** /*******************************************************************************
 410:Generated_Source\PSoC4/SPIM.c **** * Function Name: SPIM_ReadRxStatus
 411:Generated_Source\PSoC4/SPIM.c **** ********************************************************************************
ARM GAS  C:\Users\Petro\AppData\Local\Temp\ccN6Uqh8.s 			page 13


 412:Generated_Source\PSoC4/SPIM.c **** *
 413:Generated_Source\PSoC4/SPIM.c **** * Summary:
 414:Generated_Source\PSoC4/SPIM.c **** *  Read the Rx status register for the component.
 415:Generated_Source\PSoC4/SPIM.c **** *
 416:Generated_Source\PSoC4/SPIM.c **** * Parameters:
 417:Generated_Source\PSoC4/SPIM.c **** *  None.
 418:Generated_Source\PSoC4/SPIM.c **** *
 419:Generated_Source\PSoC4/SPIM.c **** * Return:
 420:Generated_Source\PSoC4/SPIM.c **** *  Contents of the Rx status register.
 421:Generated_Source\PSoC4/SPIM.c **** *
 422:Generated_Source\PSoC4/SPIM.c **** * Global variables:
 423:Generated_Source\PSoC4/SPIM.c **** *  SPIM_swStatusRx - used to store in software Rx status register,
 424:Generated_Source\PSoC4/SPIM.c **** *  modified every function call - resets to zero.
 425:Generated_Source\PSoC4/SPIM.c **** *
 426:Generated_Source\PSoC4/SPIM.c **** * Theory:
 427:Generated_Source\PSoC4/SPIM.c **** *  Allows the user and the API to read the Rx status register for error
 428:Generated_Source\PSoC4/SPIM.c **** *  detection and flow control.
 429:Generated_Source\PSoC4/SPIM.c **** *
 430:Generated_Source\PSoC4/SPIM.c **** * Side Effects:
 431:Generated_Source\PSoC4/SPIM.c **** *  Clear Rx status register of the component.
 432:Generated_Source\PSoC4/SPIM.c **** *
 433:Generated_Source\PSoC4/SPIM.c **** * Reentrant:
 434:Generated_Source\PSoC4/SPIM.c **** *  No.
 435:Generated_Source\PSoC4/SPIM.c **** *
 436:Generated_Source\PSoC4/SPIM.c **** *******************************************************************************/
 437:Generated_Source\PSoC4/SPIM.c **** uint8 SPIM_ReadRxStatus(void) 
 438:Generated_Source\PSoC4/SPIM.c **** {
 264              		.loc 1 438 0
 265              		.cfi_startproc
 439:Generated_Source\PSoC4/SPIM.c ****     uint8 tmpStatus;
 440:Generated_Source\PSoC4/SPIM.c **** 
 441:Generated_Source\PSoC4/SPIM.c ****     #if(SPIM_RX_SOFTWARE_BUF_ENABLED)
 442:Generated_Source\PSoC4/SPIM.c ****         /* Disable RX interrupt to protect global veriables */
 443:Generated_Source\PSoC4/SPIM.c ****         SPIM_DisableRxInt();
 444:Generated_Source\PSoC4/SPIM.c **** 
 445:Generated_Source\PSoC4/SPIM.c ****         tmpStatus = SPIM_GET_STATUS_RX(SPIM_swStatusRx);
 446:Generated_Source\PSoC4/SPIM.c ****         SPIM_swStatusRx = 0u;
 447:Generated_Source\PSoC4/SPIM.c **** 
 448:Generated_Source\PSoC4/SPIM.c ****         SPIM_EnableRxInt();
 449:Generated_Source\PSoC4/SPIM.c **** 
 450:Generated_Source\PSoC4/SPIM.c ****     #else
 451:Generated_Source\PSoC4/SPIM.c **** 
 452:Generated_Source\PSoC4/SPIM.c ****         tmpStatus = SPIM_RX_STATUS_REG;
 266              		.loc 1 452 0
 267 0000 014B     		ldr	r3, .L21
 453:Generated_Source\PSoC4/SPIM.c **** 
 454:Generated_Source\PSoC4/SPIM.c ****     #endif /* (SPIM_RX_SOFTWARE_BUF_ENABLED) */
 455:Generated_Source\PSoC4/SPIM.c **** 
 456:Generated_Source\PSoC4/SPIM.c ****     return(tmpStatus);
 457:Generated_Source\PSoC4/SPIM.c **** }
 268              		.loc 1 457 0
 269              		@ sp needed
 452:Generated_Source\PSoC4/SPIM.c **** 
 270              		.loc 1 452 0
 271 0002 1878     		ldrb	r0, [r3]
 272 0004 C0B2     		uxtb	r0, r0
 273              	.LVL7:
ARM GAS  C:\Users\Petro\AppData\Local\Temp\ccN6Uqh8.s 			page 14


 274              		.loc 1 457 0
 275 0006 7047     		bx	lr
 276              	.L22:
 277              		.align	2
 278              	.L21:
 279 0008 60000F40 		.word	1074724960
 280              		.cfi_endproc
 281              	.LFE13:
 282              		.size	SPIM_ReadRxStatus, .-SPIM_ReadRxStatus
 283              		.section	.text.SPIM_WriteTxData,"ax",%progbits
 284              		.align	1
 285              		.global	SPIM_WriteTxData
 286              		.code	16
 287              		.thumb_func
 288              		.type	SPIM_WriteTxData, %function
 289              	SPIM_WriteTxData:
 290              	.LFB14:
 458:Generated_Source\PSoC4/SPIM.c **** 
 459:Generated_Source\PSoC4/SPIM.c **** 
 460:Generated_Source\PSoC4/SPIM.c **** /*******************************************************************************
 461:Generated_Source\PSoC4/SPIM.c **** * Function Name: SPIM_WriteTxData
 462:Generated_Source\PSoC4/SPIM.c **** ********************************************************************************
 463:Generated_Source\PSoC4/SPIM.c **** *
 464:Generated_Source\PSoC4/SPIM.c **** * Summary:
 465:Generated_Source\PSoC4/SPIM.c **** *  Write a byte of data to be sent across the SPI.
 466:Generated_Source\PSoC4/SPIM.c **** *
 467:Generated_Source\PSoC4/SPIM.c **** * Parameters:
 468:Generated_Source\PSoC4/SPIM.c **** *  txDataByte: The data value to send across the SPI.
 469:Generated_Source\PSoC4/SPIM.c **** *
 470:Generated_Source\PSoC4/SPIM.c **** * Return:
 471:Generated_Source\PSoC4/SPIM.c **** *  None.
 472:Generated_Source\PSoC4/SPIM.c **** *
 473:Generated_Source\PSoC4/SPIM.c **** * Global variables:
 474:Generated_Source\PSoC4/SPIM.c **** *  SPIM_txBufferWrite - used for the account of the bytes which
 475:Generated_Source\PSoC4/SPIM.c **** *  have been written down in the TX software buffer, modified every function
 476:Generated_Source\PSoC4/SPIM.c **** *  call if TX Software Buffer is used.
 477:Generated_Source\PSoC4/SPIM.c **** *  SPIM_txBufferRead - used for the account of the bytes which
 478:Generated_Source\PSoC4/SPIM.c **** *  have been read from the TX software buffer.
 479:Generated_Source\PSoC4/SPIM.c **** *  SPIM_txBuffer[SPIM_TX_BUFFER_SIZE] - used to store
 480:Generated_Source\PSoC4/SPIM.c **** *  data to sending, modified every function call if TX Software Buffer is used.
 481:Generated_Source\PSoC4/SPIM.c **** *
 482:Generated_Source\PSoC4/SPIM.c **** * Theory:
 483:Generated_Source\PSoC4/SPIM.c **** *  Allows the user to transmit any byte of data in a single transfer.
 484:Generated_Source\PSoC4/SPIM.c **** *
 485:Generated_Source\PSoC4/SPIM.c **** * Side Effects:
 486:Generated_Source\PSoC4/SPIM.c **** *  If this function is called again before the previous byte is finished then
 487:Generated_Source\PSoC4/SPIM.c **** *  the next byte will be appended to the transfer with no time between
 488:Generated_Source\PSoC4/SPIM.c **** *  the byte transfers. Clear Tx status register of the component.
 489:Generated_Source\PSoC4/SPIM.c **** *
 490:Generated_Source\PSoC4/SPIM.c **** * Reentrant:
 491:Generated_Source\PSoC4/SPIM.c **** *  No.
 492:Generated_Source\PSoC4/SPIM.c **** *
 493:Generated_Source\PSoC4/SPIM.c **** *******************************************************************************/
 494:Generated_Source\PSoC4/SPIM.c **** void SPIM_WriteTxData(uint8 txData) 
 495:Generated_Source\PSoC4/SPIM.c **** {
 291              		.loc 1 495 0
 292              		.cfi_startproc
ARM GAS  C:\Users\Petro\AppData\Local\Temp\ccN6Uqh8.s 			page 15


 293              	.LVL8:
 294              	.L24:
 496:Generated_Source\PSoC4/SPIM.c ****     #if(SPIM_TX_SOFTWARE_BUF_ENABLED)
 497:Generated_Source\PSoC4/SPIM.c **** 
 498:Generated_Source\PSoC4/SPIM.c ****         uint8 tempStatus;
 499:Generated_Source\PSoC4/SPIM.c ****         uint8 tmpTxBufferRead;
 500:Generated_Source\PSoC4/SPIM.c **** 
 501:Generated_Source\PSoC4/SPIM.c ****         /* Block if TX buffer is FULL: don't overwrite */
 502:Generated_Source\PSoC4/SPIM.c ****         do
 503:Generated_Source\PSoC4/SPIM.c ****         {
 504:Generated_Source\PSoC4/SPIM.c ****             tmpTxBufferRead = SPIM_txBufferRead;
 505:Generated_Source\PSoC4/SPIM.c ****             if(0u == tmpTxBufferRead)
 506:Generated_Source\PSoC4/SPIM.c ****             {
 507:Generated_Source\PSoC4/SPIM.c ****                 tmpTxBufferRead = (SPIM_TX_BUFFER_SIZE - 1u);
 508:Generated_Source\PSoC4/SPIM.c ****             }
 509:Generated_Source\PSoC4/SPIM.c ****             else
 510:Generated_Source\PSoC4/SPIM.c ****             {
 511:Generated_Source\PSoC4/SPIM.c ****                 tmpTxBufferRead--;
 512:Generated_Source\PSoC4/SPIM.c ****             }
 513:Generated_Source\PSoC4/SPIM.c **** 
 514:Generated_Source\PSoC4/SPIM.c ****         }while(tmpTxBufferRead == SPIM_txBufferWrite);
 515:Generated_Source\PSoC4/SPIM.c **** 
 516:Generated_Source\PSoC4/SPIM.c ****         /* Disable TX interrupt to protect global veriables */
 517:Generated_Source\PSoC4/SPIM.c ****         SPIM_DisableTxInt();
 518:Generated_Source\PSoC4/SPIM.c **** 
 519:Generated_Source\PSoC4/SPIM.c ****         tempStatus = SPIM_GET_STATUS_TX(SPIM_swStatusTx);
 520:Generated_Source\PSoC4/SPIM.c ****         SPIM_swStatusTx = tempStatus;
 521:Generated_Source\PSoC4/SPIM.c **** 
 522:Generated_Source\PSoC4/SPIM.c **** 
 523:Generated_Source\PSoC4/SPIM.c ****         if((SPIM_txBufferRead == SPIM_txBufferWrite) &&
 524:Generated_Source\PSoC4/SPIM.c ****            (0u != (SPIM_swStatusTx & SPIM_STS_TX_FIFO_NOT_FULL)))
 525:Generated_Source\PSoC4/SPIM.c ****         {
 526:Generated_Source\PSoC4/SPIM.c ****             /* Put data element into the TX FIFO */
 527:Generated_Source\PSoC4/SPIM.c ****             CY_SET_REG8(SPIM_TXDATA_PTR, txData);
 528:Generated_Source\PSoC4/SPIM.c ****         }
 529:Generated_Source\PSoC4/SPIM.c ****         else
 530:Generated_Source\PSoC4/SPIM.c ****         {
 531:Generated_Source\PSoC4/SPIM.c ****             /* Add to the TX software buffer */
 532:Generated_Source\PSoC4/SPIM.c ****             SPIM_txBufferWrite++;
 533:Generated_Source\PSoC4/SPIM.c ****             if(SPIM_txBufferWrite >= SPIM_TX_BUFFER_SIZE)
 534:Generated_Source\PSoC4/SPIM.c ****             {
 535:Generated_Source\PSoC4/SPIM.c ****                 SPIM_txBufferWrite = 0u;
 536:Generated_Source\PSoC4/SPIM.c ****             }
 537:Generated_Source\PSoC4/SPIM.c **** 
 538:Generated_Source\PSoC4/SPIM.c ****             if(SPIM_txBufferWrite == SPIM_txBufferRead)
 539:Generated_Source\PSoC4/SPIM.c ****             {
 540:Generated_Source\PSoC4/SPIM.c ****                 SPIM_txBufferRead++;
 541:Generated_Source\PSoC4/SPIM.c ****                 if(SPIM_txBufferRead >= SPIM_TX_BUFFER_SIZE)
 542:Generated_Source\PSoC4/SPIM.c ****                 {
 543:Generated_Source\PSoC4/SPIM.c ****                     SPIM_txBufferRead = 0u;
 544:Generated_Source\PSoC4/SPIM.c ****                 }
 545:Generated_Source\PSoC4/SPIM.c ****                 SPIM_txBufferFull = 1u;
 546:Generated_Source\PSoC4/SPIM.c ****             }
 547:Generated_Source\PSoC4/SPIM.c **** 
 548:Generated_Source\PSoC4/SPIM.c ****             SPIM_txBuffer[SPIM_txBufferWrite] = txData;
 549:Generated_Source\PSoC4/SPIM.c **** 
 550:Generated_Source\PSoC4/SPIM.c ****             SPIM_TX_STATUS_MASK_REG |= SPIM_STS_TX_FIFO_NOT_FULL;
ARM GAS  C:\Users\Petro\AppData\Local\Temp\ccN6Uqh8.s 			page 16


 551:Generated_Source\PSoC4/SPIM.c ****         }
 552:Generated_Source\PSoC4/SPIM.c **** 
 553:Generated_Source\PSoC4/SPIM.c ****         SPIM_EnableTxInt();
 554:Generated_Source\PSoC4/SPIM.c **** 
 555:Generated_Source\PSoC4/SPIM.c ****     #else
 556:Generated_Source\PSoC4/SPIM.c ****         /* Wait until TX FIFO has a place */
 557:Generated_Source\PSoC4/SPIM.c ****         while(0u == (SPIM_TX_STATUS_REG & SPIM_STS_TX_FIFO_NOT_FULL))
 295              		.loc 1 557 0 discriminator 1
 296 0000 034B     		ldr	r3, .L27
 297 0002 1B78     		ldrb	r3, [r3]
 298 0004 5B07     		lsl	r3, r3, #29
 299 0006 FBD5     		bpl	.L24
 558:Generated_Source\PSoC4/SPIM.c ****         {
 559:Generated_Source\PSoC4/SPIM.c ****         }
 560:Generated_Source\PSoC4/SPIM.c **** 
 561:Generated_Source\PSoC4/SPIM.c ****         /* Put data element into the TX FIFO */
 562:Generated_Source\PSoC4/SPIM.c ****         CY_SET_REG8(SPIM_TXDATA_PTR, txData);
 300              		.loc 1 562 0
 301 0008 024B     		ldr	r3, .L27+4
 563:Generated_Source\PSoC4/SPIM.c **** 
 564:Generated_Source\PSoC4/SPIM.c ****     #endif /* (SPIM_TX_SOFTWARE_BUF_ENABLED) */
 565:Generated_Source\PSoC4/SPIM.c **** }
 302              		.loc 1 565 0
 303              		@ sp needed
 562:Generated_Source\PSoC4/SPIM.c **** 
 304              		.loc 1 562 0
 305 000a 1870     		strb	r0, [r3]
 306              		.loc 1 565 0
 307 000c 7047     		bx	lr
 308              	.L28:
 309 000e C046     		.align	2
 310              	.L27:
 311 0010 62000F40 		.word	1074724962
 312 0014 43000F40 		.word	1074724931
 313              		.cfi_endproc
 314              	.LFE14:
 315              		.size	SPIM_WriteTxData, .-SPIM_WriteTxData
 316              		.section	.text.SPIM_ReadRxData,"ax",%progbits
 317              		.align	1
 318              		.global	SPIM_ReadRxData
 319              		.code	16
 320              		.thumb_func
 321              		.type	SPIM_ReadRxData, %function
 322              	SPIM_ReadRxData:
 323              	.LFB15:
 566:Generated_Source\PSoC4/SPIM.c **** 
 567:Generated_Source\PSoC4/SPIM.c **** 
 568:Generated_Source\PSoC4/SPIM.c **** /*******************************************************************************
 569:Generated_Source\PSoC4/SPIM.c **** * Function Name: SPIM_ReadRxData
 570:Generated_Source\PSoC4/SPIM.c **** ********************************************************************************
 571:Generated_Source\PSoC4/SPIM.c **** *
 572:Generated_Source\PSoC4/SPIM.c **** * Summary:
 573:Generated_Source\PSoC4/SPIM.c **** *  Read the next byte of data received across the SPI.
 574:Generated_Source\PSoC4/SPIM.c **** *
 575:Generated_Source\PSoC4/SPIM.c **** * Parameters:
 576:Generated_Source\PSoC4/SPIM.c **** *  None.
 577:Generated_Source\PSoC4/SPIM.c **** *
ARM GAS  C:\Users\Petro\AppData\Local\Temp\ccN6Uqh8.s 			page 17


 578:Generated_Source\PSoC4/SPIM.c **** * Return:
 579:Generated_Source\PSoC4/SPIM.c **** *  The next byte of data read from the FIFO.
 580:Generated_Source\PSoC4/SPIM.c **** *
 581:Generated_Source\PSoC4/SPIM.c **** * Global variables:
 582:Generated_Source\PSoC4/SPIM.c **** *  SPIM_rxBufferWrite - used for the account of the bytes which
 583:Generated_Source\PSoC4/SPIM.c **** *  have been written down in the RX software buffer.
 584:Generated_Source\PSoC4/SPIM.c **** *  SPIM_rxBufferRead - used for the account of the bytes which
 585:Generated_Source\PSoC4/SPIM.c **** *  have been read from the RX software buffer, modified every function
 586:Generated_Source\PSoC4/SPIM.c **** *  call if RX Software Buffer is used.
 587:Generated_Source\PSoC4/SPIM.c **** *  SPIM_rxBuffer[SPIM_RX_BUFFER_SIZE] - used to store
 588:Generated_Source\PSoC4/SPIM.c **** *  received data.
 589:Generated_Source\PSoC4/SPIM.c **** *
 590:Generated_Source\PSoC4/SPIM.c **** * Theory:
 591:Generated_Source\PSoC4/SPIM.c **** *  Allows the user to read a byte of data received.
 592:Generated_Source\PSoC4/SPIM.c **** *
 593:Generated_Source\PSoC4/SPIM.c **** * Side Effects:
 594:Generated_Source\PSoC4/SPIM.c **** *  Will return invalid data if the FIFO is empty. The user should Call
 595:Generated_Source\PSoC4/SPIM.c **** *  GetRxBufferSize() and if it returns a non-zero value then it is safe to call
 596:Generated_Source\PSoC4/SPIM.c **** *  ReadByte() function.
 597:Generated_Source\PSoC4/SPIM.c **** *
 598:Generated_Source\PSoC4/SPIM.c **** * Reentrant:
 599:Generated_Source\PSoC4/SPIM.c **** *  No.
 600:Generated_Source\PSoC4/SPIM.c **** *
 601:Generated_Source\PSoC4/SPIM.c **** *******************************************************************************/
 602:Generated_Source\PSoC4/SPIM.c **** uint8 SPIM_ReadRxData(void) 
 603:Generated_Source\PSoC4/SPIM.c **** {
 324              		.loc 1 603 0
 325              		.cfi_startproc
 604:Generated_Source\PSoC4/SPIM.c ****     uint8 rxData;
 605:Generated_Source\PSoC4/SPIM.c **** 
 606:Generated_Source\PSoC4/SPIM.c ****     #if(SPIM_RX_SOFTWARE_BUF_ENABLED)
 607:Generated_Source\PSoC4/SPIM.c **** 
 608:Generated_Source\PSoC4/SPIM.c ****         /* Disable RX interrupt to protect global veriables */
 609:Generated_Source\PSoC4/SPIM.c ****         SPIM_DisableRxInt();
 610:Generated_Source\PSoC4/SPIM.c **** 
 611:Generated_Source\PSoC4/SPIM.c ****         if(SPIM_rxBufferRead != SPIM_rxBufferWrite)
 612:Generated_Source\PSoC4/SPIM.c ****         {
 613:Generated_Source\PSoC4/SPIM.c ****             if(0u == SPIM_rxBufferFull)
 614:Generated_Source\PSoC4/SPIM.c ****             {
 615:Generated_Source\PSoC4/SPIM.c ****                 SPIM_rxBufferRead++;
 616:Generated_Source\PSoC4/SPIM.c ****                 if(SPIM_rxBufferRead >= SPIM_RX_BUFFER_SIZE)
 617:Generated_Source\PSoC4/SPIM.c ****                 {
 618:Generated_Source\PSoC4/SPIM.c ****                     SPIM_rxBufferRead = 0u;
 619:Generated_Source\PSoC4/SPIM.c ****                 }
 620:Generated_Source\PSoC4/SPIM.c ****             }
 621:Generated_Source\PSoC4/SPIM.c ****             else
 622:Generated_Source\PSoC4/SPIM.c ****             {
 623:Generated_Source\PSoC4/SPIM.c ****                 SPIM_rxBufferFull = 0u;
 624:Generated_Source\PSoC4/SPIM.c ****             }
 625:Generated_Source\PSoC4/SPIM.c ****         }
 626:Generated_Source\PSoC4/SPIM.c **** 
 627:Generated_Source\PSoC4/SPIM.c ****         rxData = SPIM_rxBuffer[SPIM_rxBufferRead];
 628:Generated_Source\PSoC4/SPIM.c **** 
 629:Generated_Source\PSoC4/SPIM.c ****         SPIM_EnableRxInt();
 630:Generated_Source\PSoC4/SPIM.c **** 
 631:Generated_Source\PSoC4/SPIM.c ****     #else
 632:Generated_Source\PSoC4/SPIM.c **** 
ARM GAS  C:\Users\Petro\AppData\Local\Temp\ccN6Uqh8.s 			page 18


 633:Generated_Source\PSoC4/SPIM.c ****         rxData = CY_GET_REG8(SPIM_RXDATA_PTR);
 326              		.loc 1 633 0
 327 0000 014B     		ldr	r3, .L30
 634:Generated_Source\PSoC4/SPIM.c **** 
 635:Generated_Source\PSoC4/SPIM.c ****     #endif /* (SPIM_RX_SOFTWARE_BUF_ENABLED) */
 636:Generated_Source\PSoC4/SPIM.c **** 
 637:Generated_Source\PSoC4/SPIM.c ****     return(rxData);
 638:Generated_Source\PSoC4/SPIM.c **** }
 328              		.loc 1 638 0
 329              		@ sp needed
 633:Generated_Source\PSoC4/SPIM.c **** 
 330              		.loc 1 633 0
 331 0002 1878     		ldrb	r0, [r3]
 332 0004 C0B2     		uxtb	r0, r0
 333              	.LVL9:
 334              		.loc 1 638 0
 335 0006 7047     		bx	lr
 336              	.L31:
 337              		.align	2
 338              	.L30:
 339 0008 53000F40 		.word	1074724947
 340              		.cfi_endproc
 341              	.LFE15:
 342              		.size	SPIM_ReadRxData, .-SPIM_ReadRxData
 343              		.section	.text.SPIM_GetRxBufferSize,"ax",%progbits
 344              		.align	1
 345              		.global	SPIM_GetRxBufferSize
 346              		.code	16
 347              		.thumb_func
 348              		.type	SPIM_GetRxBufferSize, %function
 349              	SPIM_GetRxBufferSize:
 350              	.LFB16:
 639:Generated_Source\PSoC4/SPIM.c **** 
 640:Generated_Source\PSoC4/SPIM.c **** 
 641:Generated_Source\PSoC4/SPIM.c **** /*******************************************************************************
 642:Generated_Source\PSoC4/SPIM.c **** * Function Name: SPIM_GetRxBufferSize
 643:Generated_Source\PSoC4/SPIM.c **** ********************************************************************************
 644:Generated_Source\PSoC4/SPIM.c **** *
 645:Generated_Source\PSoC4/SPIM.c **** * Summary:
 646:Generated_Source\PSoC4/SPIM.c **** *  Returns the number of bytes/words of data currently held in the RX buffer.
 647:Generated_Source\PSoC4/SPIM.c **** *  If RX Software Buffer not used then function return 0 if FIFO empty or 1 if
 648:Generated_Source\PSoC4/SPIM.c **** *  FIFO not empty. In another case function return size of RX Software Buffer.
 649:Generated_Source\PSoC4/SPIM.c **** *
 650:Generated_Source\PSoC4/SPIM.c **** * Parameters:
 651:Generated_Source\PSoC4/SPIM.c **** *  None.
 652:Generated_Source\PSoC4/SPIM.c **** *
 653:Generated_Source\PSoC4/SPIM.c **** * Return:
 654:Generated_Source\PSoC4/SPIM.c **** *  Integer count of the number of bytes/words in the RX buffer.
 655:Generated_Source\PSoC4/SPIM.c **** *
 656:Generated_Source\PSoC4/SPIM.c **** * Global variables:
 657:Generated_Source\PSoC4/SPIM.c **** *  SPIM_rxBufferWrite - used for the account of the bytes which
 658:Generated_Source\PSoC4/SPIM.c **** *  have been written down in the RX software buffer.
 659:Generated_Source\PSoC4/SPIM.c **** *  SPIM_rxBufferRead - used for the account of the bytes which
 660:Generated_Source\PSoC4/SPIM.c **** *  have been read from the RX software buffer.
 661:Generated_Source\PSoC4/SPIM.c **** *
 662:Generated_Source\PSoC4/SPIM.c **** * Side Effects:
 663:Generated_Source\PSoC4/SPIM.c **** *  Clear status register of the component.
ARM GAS  C:\Users\Petro\AppData\Local\Temp\ccN6Uqh8.s 			page 19


 664:Generated_Source\PSoC4/SPIM.c **** *
 665:Generated_Source\PSoC4/SPIM.c **** *******************************************************************************/
 666:Generated_Source\PSoC4/SPIM.c **** uint8 SPIM_GetRxBufferSize(void) 
 667:Generated_Source\PSoC4/SPIM.c **** {
 351              		.loc 1 667 0
 352              		.cfi_startproc
 668:Generated_Source\PSoC4/SPIM.c ****     uint8 size;
 669:Generated_Source\PSoC4/SPIM.c **** 
 670:Generated_Source\PSoC4/SPIM.c ****     #if(SPIM_RX_SOFTWARE_BUF_ENABLED)
 671:Generated_Source\PSoC4/SPIM.c **** 
 672:Generated_Source\PSoC4/SPIM.c ****         /* Disable RX interrupt to protect global veriables */
 673:Generated_Source\PSoC4/SPIM.c ****         SPIM_DisableRxInt();
 674:Generated_Source\PSoC4/SPIM.c **** 
 675:Generated_Source\PSoC4/SPIM.c ****         if(SPIM_rxBufferRead == SPIM_rxBufferWrite)
 676:Generated_Source\PSoC4/SPIM.c ****         {
 677:Generated_Source\PSoC4/SPIM.c ****             size = 0u;
 678:Generated_Source\PSoC4/SPIM.c ****         }
 679:Generated_Source\PSoC4/SPIM.c ****         else if(SPIM_rxBufferRead < SPIM_rxBufferWrite)
 680:Generated_Source\PSoC4/SPIM.c ****         {
 681:Generated_Source\PSoC4/SPIM.c ****             size = (SPIM_rxBufferWrite - SPIM_rxBufferRead);
 682:Generated_Source\PSoC4/SPIM.c ****         }
 683:Generated_Source\PSoC4/SPIM.c ****         else
 684:Generated_Source\PSoC4/SPIM.c ****         {
 685:Generated_Source\PSoC4/SPIM.c ****             size = (SPIM_RX_BUFFER_SIZE - SPIM_rxBufferRead) + SPIM_rxBufferWrite;
 686:Generated_Source\PSoC4/SPIM.c ****         }
 687:Generated_Source\PSoC4/SPIM.c **** 
 688:Generated_Source\PSoC4/SPIM.c ****         SPIM_EnableRxInt();
 689:Generated_Source\PSoC4/SPIM.c **** 
 690:Generated_Source\PSoC4/SPIM.c ****     #else
 691:Generated_Source\PSoC4/SPIM.c **** 
 692:Generated_Source\PSoC4/SPIM.c ****         /* We can only know if there is data in the RX FIFO */
 693:Generated_Source\PSoC4/SPIM.c ****         size = (0u != (SPIM_RX_STATUS_REG & SPIM_STS_RX_FIFO_NOT_EMPTY)) ? 1u : 0u;
 353              		.loc 1 693 0
 354 0000 024B     		ldr	r3, .L33
 694:Generated_Source\PSoC4/SPIM.c **** 
 695:Generated_Source\PSoC4/SPIM.c ****     #endif /* (SPIM_TX_SOFTWARE_BUF_ENABLED) */
 696:Generated_Source\PSoC4/SPIM.c **** 
 697:Generated_Source\PSoC4/SPIM.c ****     return(size);
 698:Generated_Source\PSoC4/SPIM.c **** }
 355              		.loc 1 698 0
 356              		@ sp needed
 693:Generated_Source\PSoC4/SPIM.c **** 
 357              		.loc 1 693 0
 358 0002 1878     		ldrb	r0, [r3]
 359              	.LVL10:
 360 0004 8006     		lsl	r0, r0, #26
 361              	.LVL11:
 697:Generated_Source\PSoC4/SPIM.c **** }
 362              		.loc 1 697 0
 363 0006 C00F     		lsr	r0, r0, #31
 364              		.loc 1 698 0
 365 0008 7047     		bx	lr
 366              	.L34:
 367 000a C046     		.align	2
 368              	.L33:
 369 000c 60000F40 		.word	1074724960
 370              		.cfi_endproc
ARM GAS  C:\Users\Petro\AppData\Local\Temp\ccN6Uqh8.s 			page 20


 371              	.LFE16:
 372              		.size	SPIM_GetRxBufferSize, .-SPIM_GetRxBufferSize
 373              		.section	.text.SPIM_GetTxBufferSize,"ax",%progbits
 374              		.align	1
 375              		.global	SPIM_GetTxBufferSize
 376              		.code	16
 377              		.thumb_func
 378              		.type	SPIM_GetTxBufferSize, %function
 379              	SPIM_GetTxBufferSize:
 380              	.LFB17:
 699:Generated_Source\PSoC4/SPIM.c **** 
 700:Generated_Source\PSoC4/SPIM.c **** 
 701:Generated_Source\PSoC4/SPIM.c **** /*******************************************************************************
 702:Generated_Source\PSoC4/SPIM.c **** * Function Name: SPIM_GetTxBufferSize
 703:Generated_Source\PSoC4/SPIM.c **** ********************************************************************************
 704:Generated_Source\PSoC4/SPIM.c **** *
 705:Generated_Source\PSoC4/SPIM.c **** * Summary:
 706:Generated_Source\PSoC4/SPIM.c **** *  Returns the number of bytes/words of data currently held in the TX buffer.
 707:Generated_Source\PSoC4/SPIM.c **** *  If TX Software Buffer not used then function return 0 - if FIFO empty, 1 - if
 708:Generated_Source\PSoC4/SPIM.c **** *  FIFO not full, 4 - if FIFO full. In another case function return size of TX
 709:Generated_Source\PSoC4/SPIM.c **** *  Software Buffer.
 710:Generated_Source\PSoC4/SPIM.c **** *
 711:Generated_Source\PSoC4/SPIM.c **** * Parameters:
 712:Generated_Source\PSoC4/SPIM.c **** *  None.
 713:Generated_Source\PSoC4/SPIM.c **** *
 714:Generated_Source\PSoC4/SPIM.c **** * Return:
 715:Generated_Source\PSoC4/SPIM.c **** *  Integer count of the number of bytes/words in the TX buffer.
 716:Generated_Source\PSoC4/SPIM.c **** *
 717:Generated_Source\PSoC4/SPIM.c **** * Global variables:
 718:Generated_Source\PSoC4/SPIM.c **** *  SPIM_txBufferWrite - used for the account of the bytes which
 719:Generated_Source\PSoC4/SPIM.c **** *  have been written down in the TX software buffer.
 720:Generated_Source\PSoC4/SPIM.c **** *  SPIM_txBufferRead - used for the account of the bytes which
 721:Generated_Source\PSoC4/SPIM.c **** *  have been read from the TX software buffer.
 722:Generated_Source\PSoC4/SPIM.c **** *
 723:Generated_Source\PSoC4/SPIM.c **** * Side Effects:
 724:Generated_Source\PSoC4/SPIM.c **** *  Clear status register of the component.
 725:Generated_Source\PSoC4/SPIM.c **** *
 726:Generated_Source\PSoC4/SPIM.c **** *******************************************************************************/
 727:Generated_Source\PSoC4/SPIM.c **** uint8  SPIM_GetTxBufferSize(void) 
 728:Generated_Source\PSoC4/SPIM.c **** {
 381              		.loc 1 728 0
 382              		.cfi_startproc
 729:Generated_Source\PSoC4/SPIM.c ****     uint8 size;
 730:Generated_Source\PSoC4/SPIM.c **** 
 731:Generated_Source\PSoC4/SPIM.c ****     #if(SPIM_TX_SOFTWARE_BUF_ENABLED)
 732:Generated_Source\PSoC4/SPIM.c ****         /* Disable TX interrupt to protect global veriables */
 733:Generated_Source\PSoC4/SPIM.c ****         SPIM_DisableTxInt();
 734:Generated_Source\PSoC4/SPIM.c **** 
 735:Generated_Source\PSoC4/SPIM.c ****         if(SPIM_txBufferRead == SPIM_txBufferWrite)
 736:Generated_Source\PSoC4/SPIM.c ****         {
 737:Generated_Source\PSoC4/SPIM.c ****             size = 0u;
 738:Generated_Source\PSoC4/SPIM.c ****         }
 739:Generated_Source\PSoC4/SPIM.c ****         else if(SPIM_txBufferRead < SPIM_txBufferWrite)
 740:Generated_Source\PSoC4/SPIM.c ****         {
 741:Generated_Source\PSoC4/SPIM.c ****             size = (SPIM_txBufferWrite - SPIM_txBufferRead);
 742:Generated_Source\PSoC4/SPIM.c ****         }
 743:Generated_Source\PSoC4/SPIM.c ****         else
ARM GAS  C:\Users\Petro\AppData\Local\Temp\ccN6Uqh8.s 			page 21


 744:Generated_Source\PSoC4/SPIM.c ****         {
 745:Generated_Source\PSoC4/SPIM.c ****             size = (SPIM_TX_BUFFER_SIZE - SPIM_txBufferRead) + SPIM_txBufferWrite;
 746:Generated_Source\PSoC4/SPIM.c ****         }
 747:Generated_Source\PSoC4/SPIM.c **** 
 748:Generated_Source\PSoC4/SPIM.c ****         SPIM_EnableTxInt();
 749:Generated_Source\PSoC4/SPIM.c **** 
 750:Generated_Source\PSoC4/SPIM.c ****     #else
 751:Generated_Source\PSoC4/SPIM.c **** 
 752:Generated_Source\PSoC4/SPIM.c ****         size = SPIM_TX_STATUS_REG;
 383              		.loc 1 752 0
 384 0000 054B     		ldr	r3, .L39
 753:Generated_Source\PSoC4/SPIM.c **** 
 754:Generated_Source\PSoC4/SPIM.c ****         if(0u != (size & SPIM_STS_TX_FIFO_EMPTY))
 755:Generated_Source\PSoC4/SPIM.c ****         {
 756:Generated_Source\PSoC4/SPIM.c ****             size = 0u;
 385              		.loc 1 756 0
 386 0002 0020     		mov	r0, #0
 752:Generated_Source\PSoC4/SPIM.c **** 
 387              		.loc 1 752 0
 388 0004 1B78     		ldrb	r3, [r3]
 389 0006 DBB2     		uxtb	r3, r3
 390              	.LVL12:
 754:Generated_Source\PSoC4/SPIM.c ****         {
 391              		.loc 1 754 0
 392 0008 9A07     		lsl	r2, r3, #30
 393 000a 04D4     		bmi	.L36
 757:Generated_Source\PSoC4/SPIM.c ****         }
 758:Generated_Source\PSoC4/SPIM.c ****         else if(0u != (size & SPIM_STS_TX_FIFO_NOT_FULL))
 394              		.loc 1 758 0
 395 000c 0422     		mov	r2, #4
 759:Generated_Source\PSoC4/SPIM.c ****         {
 760:Generated_Source\PSoC4/SPIM.c ****             size = 1u;
 396              		.loc 1 760 0
 397 000e 0130     		add	r0, r0, #1
 758:Generated_Source\PSoC4/SPIM.c ****         {
 398              		.loc 1 758 0
 399 0010 1342     		tst	r3, r2
 400 0012 00D1     		bne	.L36
 761:Generated_Source\PSoC4/SPIM.c ****         }
 762:Generated_Source\PSoC4/SPIM.c ****         else
 763:Generated_Source\PSoC4/SPIM.c ****         {
 764:Generated_Source\PSoC4/SPIM.c ****             size = SPIM_FIFO_SIZE;
 401              		.loc 1 764 0
 402 0014 101C     		mov	r0, r2
 403              	.L36:
 404              	.LVL13:
 765:Generated_Source\PSoC4/SPIM.c ****         }
 766:Generated_Source\PSoC4/SPIM.c **** 
 767:Generated_Source\PSoC4/SPIM.c ****     #endif /* (SPIM_TX_SOFTWARE_BUF_ENABLED) */
 768:Generated_Source\PSoC4/SPIM.c **** 
 769:Generated_Source\PSoC4/SPIM.c ****     return(size);
 770:Generated_Source\PSoC4/SPIM.c **** }
 405              		.loc 1 770 0
 406              		@ sp needed
 407 0016 7047     		bx	lr
 408              	.L40:
 409              		.align	2
ARM GAS  C:\Users\Petro\AppData\Local\Temp\ccN6Uqh8.s 			page 22


 410              	.L39:
 411 0018 62000F40 		.word	1074724962
 412              		.cfi_endproc
 413              	.LFE17:
 414              		.size	SPIM_GetTxBufferSize, .-SPIM_GetTxBufferSize
 415              		.section	.text.SPIM_ClearRxBuffer,"ax",%progbits
 416              		.align	1
 417              		.global	SPIM_ClearRxBuffer
 418              		.code	16
 419              		.thumb_func
 420              		.type	SPIM_ClearRxBuffer, %function
 421              	SPIM_ClearRxBuffer:
 422              	.LFB18:
 771:Generated_Source\PSoC4/SPIM.c **** 
 772:Generated_Source\PSoC4/SPIM.c **** 
 773:Generated_Source\PSoC4/SPIM.c **** /*******************************************************************************
 774:Generated_Source\PSoC4/SPIM.c **** * Function Name: SPIM_ClearRxBuffer
 775:Generated_Source\PSoC4/SPIM.c **** ********************************************************************************
 776:Generated_Source\PSoC4/SPIM.c **** *
 777:Generated_Source\PSoC4/SPIM.c **** * Summary:
 778:Generated_Source\PSoC4/SPIM.c **** *  Clear the RX RAM buffer by setting the read and write pointers both to zero.
 779:Generated_Source\PSoC4/SPIM.c **** *
 780:Generated_Source\PSoC4/SPIM.c **** * Parameters:
 781:Generated_Source\PSoC4/SPIM.c **** *  None.
 782:Generated_Source\PSoC4/SPIM.c **** *
 783:Generated_Source\PSoC4/SPIM.c **** * Return:
 784:Generated_Source\PSoC4/SPIM.c **** *  None.
 785:Generated_Source\PSoC4/SPIM.c **** *
 786:Generated_Source\PSoC4/SPIM.c **** * Global variables:
 787:Generated_Source\PSoC4/SPIM.c **** *  SPIM_rxBufferWrite - used for the account of the bytes which
 788:Generated_Source\PSoC4/SPIM.c **** *  have been written down in the RX software buffer, modified every function
 789:Generated_Source\PSoC4/SPIM.c **** *  call - resets to zero.
 790:Generated_Source\PSoC4/SPIM.c **** *  SPIM_rxBufferRead - used for the account of the bytes which
 791:Generated_Source\PSoC4/SPIM.c **** *  have been read from the RX software buffer, modified every function call -
 792:Generated_Source\PSoC4/SPIM.c **** *  resets to zero.
 793:Generated_Source\PSoC4/SPIM.c **** *
 794:Generated_Source\PSoC4/SPIM.c **** * Theory:
 795:Generated_Source\PSoC4/SPIM.c **** *  Setting the pointers to zero makes the system believe there is no data to
 796:Generated_Source\PSoC4/SPIM.c **** *  read and writing will resume at address 0 overwriting any data that may have
 797:Generated_Source\PSoC4/SPIM.c **** *  remained in the RAM.
 798:Generated_Source\PSoC4/SPIM.c **** *
 799:Generated_Source\PSoC4/SPIM.c **** * Side Effects:
 800:Generated_Source\PSoC4/SPIM.c **** *  Any received data not read from the RAM buffer will be lost when overwritten.
 801:Generated_Source\PSoC4/SPIM.c **** *
 802:Generated_Source\PSoC4/SPIM.c **** * Reentrant:
 803:Generated_Source\PSoC4/SPIM.c **** *  No.
 804:Generated_Source\PSoC4/SPIM.c **** *
 805:Generated_Source\PSoC4/SPIM.c **** *******************************************************************************/
 806:Generated_Source\PSoC4/SPIM.c **** void SPIM_ClearRxBuffer(void) 
 807:Generated_Source\PSoC4/SPIM.c **** {
 423              		.loc 1 807 0
 424              		.cfi_startproc
 425              	.L42:
 808:Generated_Source\PSoC4/SPIM.c ****     /* Clear Hardware RX FIFO */
 809:Generated_Source\PSoC4/SPIM.c ****     while(0u !=(SPIM_RX_STATUS_REG & SPIM_STS_RX_FIFO_NOT_EMPTY))
 426              		.loc 1 809 0
 427 0000 034B     		ldr	r3, .L45
ARM GAS  C:\Users\Petro\AppData\Local\Temp\ccN6Uqh8.s 			page 23


 428 0002 1B78     		ldrb	r3, [r3]
 429 0004 9B06     		lsl	r3, r3, #26
 430 0006 02D5     		bpl	.L44
 810:Generated_Source\PSoC4/SPIM.c ****     {
 811:Generated_Source\PSoC4/SPIM.c ****         (void) CY_GET_REG8(SPIM_RXDATA_PTR);
 431              		.loc 1 811 0
 432 0008 024B     		ldr	r3, .L45+4
 433 000a 1B78     		ldrb	r3, [r3]
 434 000c F8E7     		b	.L42
 435              	.L44:
 812:Generated_Source\PSoC4/SPIM.c ****     }
 813:Generated_Source\PSoC4/SPIM.c **** 
 814:Generated_Source\PSoC4/SPIM.c ****     #if(SPIM_RX_SOFTWARE_BUF_ENABLED)
 815:Generated_Source\PSoC4/SPIM.c ****         /* Disable RX interrupt to protect global veriables */
 816:Generated_Source\PSoC4/SPIM.c ****         SPIM_DisableRxInt();
 817:Generated_Source\PSoC4/SPIM.c **** 
 818:Generated_Source\PSoC4/SPIM.c ****         SPIM_rxBufferFull  = 0u;
 819:Generated_Source\PSoC4/SPIM.c ****         SPIM_rxBufferRead  = 0u;
 820:Generated_Source\PSoC4/SPIM.c ****         SPIM_rxBufferWrite = 0u;
 821:Generated_Source\PSoC4/SPIM.c **** 
 822:Generated_Source\PSoC4/SPIM.c ****         SPIM_EnableRxInt();
 823:Generated_Source\PSoC4/SPIM.c ****     #endif /* (SPIM_RX_SOFTWARE_BUF_ENABLED) */
 824:Generated_Source\PSoC4/SPIM.c **** }
 436              		.loc 1 824 0
 437              		@ sp needed
 438 000e 7047     		bx	lr
 439              	.L46:
 440              		.align	2
 441              	.L45:
 442 0010 60000F40 		.word	1074724960
 443 0014 53000F40 		.word	1074724947
 444              		.cfi_endproc
 445              	.LFE18:
 446              		.size	SPIM_ClearRxBuffer, .-SPIM_ClearRxBuffer
 447              		.section	.text.SPIM_ClearTxBuffer,"ax",%progbits
 448              		.align	1
 449              		.global	SPIM_ClearTxBuffer
 450              		.code	16
 451              		.thumb_func
 452              		.type	SPIM_ClearTxBuffer, %function
 453              	SPIM_ClearTxBuffer:
 454              	.LFB19:
 825:Generated_Source\PSoC4/SPIM.c **** 
 826:Generated_Source\PSoC4/SPIM.c **** 
 827:Generated_Source\PSoC4/SPIM.c **** /*******************************************************************************
 828:Generated_Source\PSoC4/SPIM.c **** * Function Name: SPIM_ClearTxBuffer
 829:Generated_Source\PSoC4/SPIM.c **** ********************************************************************************
 830:Generated_Source\PSoC4/SPIM.c **** *
 831:Generated_Source\PSoC4/SPIM.c **** * Summary:
 832:Generated_Source\PSoC4/SPIM.c **** *  Clear the TX RAM buffer by setting the read and write pointers both to zero.
 833:Generated_Source\PSoC4/SPIM.c **** *
 834:Generated_Source\PSoC4/SPIM.c **** * Parameters:
 835:Generated_Source\PSoC4/SPIM.c **** *  None.
 836:Generated_Source\PSoC4/SPIM.c **** *
 837:Generated_Source\PSoC4/SPIM.c **** * Return:
 838:Generated_Source\PSoC4/SPIM.c **** *  None.
 839:Generated_Source\PSoC4/SPIM.c **** *
ARM GAS  C:\Users\Petro\AppData\Local\Temp\ccN6Uqh8.s 			page 24


 840:Generated_Source\PSoC4/SPIM.c **** * Global variables:
 841:Generated_Source\PSoC4/SPIM.c **** *  SPIM_txBufferWrite - used for the account of the bytes which
 842:Generated_Source\PSoC4/SPIM.c **** *  have been written down in the TX software buffer, modified every function
 843:Generated_Source\PSoC4/SPIM.c **** *  call - resets to zero.
 844:Generated_Source\PSoC4/SPIM.c **** *  SPIM_txBufferRead - used for the account of the bytes which
 845:Generated_Source\PSoC4/SPIM.c **** *  have been read from the TX software buffer, modified every function call -
 846:Generated_Source\PSoC4/SPIM.c **** *  resets to zero.
 847:Generated_Source\PSoC4/SPIM.c **** *
 848:Generated_Source\PSoC4/SPIM.c **** * Theory:
 849:Generated_Source\PSoC4/SPIM.c **** *  Setting the pointers to zero makes the system believe there is no data to
 850:Generated_Source\PSoC4/SPIM.c **** *  read and writing will resume at address 0 overwriting any data that may have
 851:Generated_Source\PSoC4/SPIM.c **** *  remained in the RAM.
 852:Generated_Source\PSoC4/SPIM.c **** *
 853:Generated_Source\PSoC4/SPIM.c **** * Side Effects:
 854:Generated_Source\PSoC4/SPIM.c **** *  Any data not yet transmitted from the RAM buffer will be lost when
 855:Generated_Source\PSoC4/SPIM.c **** *  overwritten.
 856:Generated_Source\PSoC4/SPIM.c **** *
 857:Generated_Source\PSoC4/SPIM.c **** * Reentrant:
 858:Generated_Source\PSoC4/SPIM.c **** *  No.
 859:Generated_Source\PSoC4/SPIM.c **** *
 860:Generated_Source\PSoC4/SPIM.c **** *******************************************************************************/
 861:Generated_Source\PSoC4/SPIM.c **** void SPIM_ClearTxBuffer(void) 
 862:Generated_Source\PSoC4/SPIM.c **** {
 455              		.loc 1 862 0
 456              		.cfi_startproc
 457 0000 08B5     		push	{r3, lr}
 458              		.cfi_def_cfa_offset 8
 459              		.cfi_offset 3, -8
 460              		.cfi_offset 14, -4
 863:Generated_Source\PSoC4/SPIM.c ****     uint8 enableInterrupts;
 864:Generated_Source\PSoC4/SPIM.c **** 
 865:Generated_Source\PSoC4/SPIM.c ****     enableInterrupts = CyEnterCriticalSection();
 461              		.loc 1 865 0
 462 0002 FFF7FEFF 		bl	CyEnterCriticalSection
 463              	.LVL14:
 866:Generated_Source\PSoC4/SPIM.c ****     /* Clear TX FIFO */
 867:Generated_Source\PSoC4/SPIM.c ****     SPIM_AUX_CONTROL_DP0_REG |= ((uint8)  SPIM_TX_FIFO_CLR);
 464              		.loc 1 867 0
 465 0006 0121     		mov	r1, #1
 466 0008 044B     		ldr	r3, .L48
 868:Generated_Source\PSoC4/SPIM.c ****     SPIM_AUX_CONTROL_DP0_REG &= ((uint8) ~SPIM_TX_FIFO_CLR);
 869:Generated_Source\PSoC4/SPIM.c **** 
 870:Generated_Source\PSoC4/SPIM.c ****     #if(SPIM_USE_SECOND_DATAPATH)
 871:Generated_Source\PSoC4/SPIM.c ****         /* Clear TX FIFO for 2nd Datapath */
 872:Generated_Source\PSoC4/SPIM.c ****         SPIM_AUX_CONTROL_DP1_REG |= ((uint8)  SPIM_TX_FIFO_CLR);
 873:Generated_Source\PSoC4/SPIM.c ****         SPIM_AUX_CONTROL_DP1_REG &= ((uint8) ~SPIM_TX_FIFO_CLR);
 874:Generated_Source\PSoC4/SPIM.c ****     #endif /* (SPIM_USE_SECOND_DATAPATH) */
 875:Generated_Source\PSoC4/SPIM.c ****     CyExitCriticalSection(enableInterrupts);
 876:Generated_Source\PSoC4/SPIM.c **** 
 877:Generated_Source\PSoC4/SPIM.c ****     #if(SPIM_TX_SOFTWARE_BUF_ENABLED)
 878:Generated_Source\PSoC4/SPIM.c ****         /* Disable TX interrupt to protect global veriables */
 879:Generated_Source\PSoC4/SPIM.c ****         SPIM_DisableTxInt();
 880:Generated_Source\PSoC4/SPIM.c **** 
 881:Generated_Source\PSoC4/SPIM.c ****         SPIM_txBufferFull  = 0u;
 882:Generated_Source\PSoC4/SPIM.c ****         SPIM_txBufferRead  = 0u;
 883:Generated_Source\PSoC4/SPIM.c ****         SPIM_txBufferWrite = 0u;
 884:Generated_Source\PSoC4/SPIM.c **** 
ARM GAS  C:\Users\Petro\AppData\Local\Temp\ccN6Uqh8.s 			page 25


 885:Generated_Source\PSoC4/SPIM.c ****         /* Buffer is EMPTY: disable TX FIFO NOT FULL interrupt */
 886:Generated_Source\PSoC4/SPIM.c ****         SPIM_TX_STATUS_MASK_REG &= ((uint8) ~SPIM_STS_TX_FIFO_NOT_FULL);
 887:Generated_Source\PSoC4/SPIM.c **** 
 888:Generated_Source\PSoC4/SPIM.c ****         SPIM_EnableTxInt();
 889:Generated_Source\PSoC4/SPIM.c ****     #endif /* (SPIM_TX_SOFTWARE_BUF_ENABLED) */
 890:Generated_Source\PSoC4/SPIM.c **** }
 467              		.loc 1 890 0
 468              		@ sp needed
 867:Generated_Source\PSoC4/SPIM.c ****     SPIM_AUX_CONTROL_DP0_REG &= ((uint8) ~SPIM_TX_FIFO_CLR);
 469              		.loc 1 867 0
 470 000a 1A78     		ldrb	r2, [r3]
 471 000c 0A43     		orr	r2, r1
 472 000e 1A70     		strb	r2, [r3]
 868:Generated_Source\PSoC4/SPIM.c ****     SPIM_AUX_CONTROL_DP0_REG &= ((uint8) ~SPIM_TX_FIFO_CLR);
 473              		.loc 1 868 0
 474 0010 1A78     		ldrb	r2, [r3]
 475 0012 8A43     		bic	r2, r1
 476 0014 1A70     		strb	r2, [r3]
 875:Generated_Source\PSoC4/SPIM.c **** 
 477              		.loc 1 875 0
 478 0016 FFF7FEFF 		bl	CyExitCriticalSection
 479              	.LVL15:
 480              		.loc 1 890 0
 481 001a 08BD     		pop	{r3, pc}
 482              	.L49:
 483              		.align	2
 484              	.L48:
 485 001c 93000F40 		.word	1074725011
 486              		.cfi_endproc
 487              	.LFE19:
 488              		.size	SPIM_ClearTxBuffer, .-SPIM_ClearTxBuffer
 489              		.section	.text.SPIM_PutArray,"ax",%progbits
 490              		.align	1
 491              		.global	SPIM_PutArray
 492              		.code	16
 493              		.thumb_func
 494              		.type	SPIM_PutArray, %function
 495              	SPIM_PutArray:
 496              	.LFB20:
 891:Generated_Source\PSoC4/SPIM.c **** 
 892:Generated_Source\PSoC4/SPIM.c **** 
 893:Generated_Source\PSoC4/SPIM.c **** #if(0u != SPIM_BIDIRECTIONAL_MODE)
 894:Generated_Source\PSoC4/SPIM.c ****     /*******************************************************************************
 895:Generated_Source\PSoC4/SPIM.c ****     * Function Name: SPIM_TxEnable
 896:Generated_Source\PSoC4/SPIM.c ****     ********************************************************************************
 897:Generated_Source\PSoC4/SPIM.c ****     *
 898:Generated_Source\PSoC4/SPIM.c ****     * Summary:
 899:Generated_Source\PSoC4/SPIM.c ****     *  If the SPI master is configured to use a single bi-directional pin then this
 900:Generated_Source\PSoC4/SPIM.c ****     *  will set the bi-directional pin to transmit.
 901:Generated_Source\PSoC4/SPIM.c ****     *
 902:Generated_Source\PSoC4/SPIM.c ****     * Parameters:
 903:Generated_Source\PSoC4/SPIM.c ****     *  None.
 904:Generated_Source\PSoC4/SPIM.c ****     *
 905:Generated_Source\PSoC4/SPIM.c ****     * Return:
 906:Generated_Source\PSoC4/SPIM.c ****     *  None.
 907:Generated_Source\PSoC4/SPIM.c ****     *
 908:Generated_Source\PSoC4/SPIM.c ****     *******************************************************************************/
ARM GAS  C:\Users\Petro\AppData\Local\Temp\ccN6Uqh8.s 			page 26


 909:Generated_Source\PSoC4/SPIM.c ****     void SPIM_TxEnable(void) 
 910:Generated_Source\PSoC4/SPIM.c ****     {
 911:Generated_Source\PSoC4/SPIM.c ****         SPIM_CONTROL_REG |= SPIM_CTRL_TX_SIGNAL_EN;
 912:Generated_Source\PSoC4/SPIM.c ****     }
 913:Generated_Source\PSoC4/SPIM.c **** 
 914:Generated_Source\PSoC4/SPIM.c **** 
 915:Generated_Source\PSoC4/SPIM.c ****     /*******************************************************************************
 916:Generated_Source\PSoC4/SPIM.c ****     * Function Name: SPIM_TxDisable
 917:Generated_Source\PSoC4/SPIM.c ****     ********************************************************************************
 918:Generated_Source\PSoC4/SPIM.c ****     *
 919:Generated_Source\PSoC4/SPIM.c ****     * Summary:
 920:Generated_Source\PSoC4/SPIM.c ****     *  If the SPI master is configured to use a single bi-directional pin then this
 921:Generated_Source\PSoC4/SPIM.c ****     *  will set the bi-directional pin to receive.
 922:Generated_Source\PSoC4/SPIM.c ****     *
 923:Generated_Source\PSoC4/SPIM.c ****     * Parameters:
 924:Generated_Source\PSoC4/SPIM.c ****     *  None.
 925:Generated_Source\PSoC4/SPIM.c ****     *
 926:Generated_Source\PSoC4/SPIM.c ****     * Return:
 927:Generated_Source\PSoC4/SPIM.c ****     *  None.
 928:Generated_Source\PSoC4/SPIM.c ****     *
 929:Generated_Source\PSoC4/SPIM.c ****     *******************************************************************************/
 930:Generated_Source\PSoC4/SPIM.c ****     void SPIM_TxDisable(void) 
 931:Generated_Source\PSoC4/SPIM.c ****     {
 932:Generated_Source\PSoC4/SPIM.c ****         SPIM_CONTROL_REG &= ((uint8) ~SPIM_CTRL_TX_SIGNAL_EN);
 933:Generated_Source\PSoC4/SPIM.c ****     }
 934:Generated_Source\PSoC4/SPIM.c **** 
 935:Generated_Source\PSoC4/SPIM.c **** #endif /* (0u != SPIM_BIDIRECTIONAL_MODE) */
 936:Generated_Source\PSoC4/SPIM.c **** 
 937:Generated_Source\PSoC4/SPIM.c **** 
 938:Generated_Source\PSoC4/SPIM.c **** /*******************************************************************************
 939:Generated_Source\PSoC4/SPIM.c **** * Function Name: SPIM_PutArray
 940:Generated_Source\PSoC4/SPIM.c **** ********************************************************************************
 941:Generated_Source\PSoC4/SPIM.c **** *
 942:Generated_Source\PSoC4/SPIM.c **** * Summary:
 943:Generated_Source\PSoC4/SPIM.c **** *  Write available data from ROM/RAM to the TX buffer while space is available
 944:Generated_Source\PSoC4/SPIM.c **** *  in the TX buffer. Keep trying until all data is passed to the TX buffer.
 945:Generated_Source\PSoC4/SPIM.c **** *
 946:Generated_Source\PSoC4/SPIM.c **** * Parameters:
 947:Generated_Source\PSoC4/SPIM.c **** *  *buffer: Pointer to the location in RAM containing the data to send
 948:Generated_Source\PSoC4/SPIM.c **** *  byteCount: The number of bytes to move to the transmit buffer.
 949:Generated_Source\PSoC4/SPIM.c **** *
 950:Generated_Source\PSoC4/SPIM.c **** * Return:
 951:Generated_Source\PSoC4/SPIM.c **** *  None.
 952:Generated_Source\PSoC4/SPIM.c **** *
 953:Generated_Source\PSoC4/SPIM.c **** * Side Effects:
 954:Generated_Source\PSoC4/SPIM.c **** *  Will stay in this routine until all data has been sent.  May get locked in
 955:Generated_Source\PSoC4/SPIM.c **** *  this loop if data is not being initiated by the master if there is not
 956:Generated_Source\PSoC4/SPIM.c **** *  enough room in the TX FIFO.
 957:Generated_Source\PSoC4/SPIM.c **** *
 958:Generated_Source\PSoC4/SPIM.c **** * Reentrant:
 959:Generated_Source\PSoC4/SPIM.c **** *  No.
 960:Generated_Source\PSoC4/SPIM.c **** *
 961:Generated_Source\PSoC4/SPIM.c **** *******************************************************************************/
 962:Generated_Source\PSoC4/SPIM.c **** void SPIM_PutArray(const uint8 buffer[], uint8 byteCount)
 963:Generated_Source\PSoC4/SPIM.c ****                                                                           
 964:Generated_Source\PSoC4/SPIM.c **** {
 497              		.loc 1 964 0
ARM GAS  C:\Users\Petro\AppData\Local\Temp\ccN6Uqh8.s 			page 27


 498              		.cfi_startproc
 499              	.LVL16:
 500 0000 38B5     		push	{r3, r4, r5, lr}
 501              		.cfi_def_cfa_offset 16
 502              		.cfi_offset 3, -16
 503              		.cfi_offset 4, -12
 504              		.cfi_offset 5, -8
 505              		.cfi_offset 14, -4
 506 0002 041C     		mov	r4, r0
 507 0004 4518     		add	r5, r0, r1
 508              	.LVL17:
 509              	.L51:
 965:Generated_Source\PSoC4/SPIM.c ****     uint8 bufIndex;
 966:Generated_Source\PSoC4/SPIM.c **** 
 967:Generated_Source\PSoC4/SPIM.c ****     bufIndex = 0u;
 968:Generated_Source\PSoC4/SPIM.c **** 
 969:Generated_Source\PSoC4/SPIM.c ****     while(byteCount > 0u)
 510              		.loc 1 969 0
 511 0006 AC42     		cmp	r4, r5
 512 0008 04D0     		beq	.L53
 970:Generated_Source\PSoC4/SPIM.c ****     {
 971:Generated_Source\PSoC4/SPIM.c ****         SPIM_WriteTxData(buffer[bufIndex]);
 513              		.loc 1 971 0
 514 000a 2078     		ldrb	r0, [r4]
 515 000c FFF7FEFF 		bl	SPIM_WriteTxData
 516              	.LVL18:
 517 0010 0134     		add	r4, r4, #1
 518              	.LVL19:
 519 0012 F8E7     		b	.L51
 520              	.LVL20:
 521              	.L53:
 972:Generated_Source\PSoC4/SPIM.c ****         bufIndex++;
 973:Generated_Source\PSoC4/SPIM.c ****         byteCount--;
 974:Generated_Source\PSoC4/SPIM.c ****     }
 975:Generated_Source\PSoC4/SPIM.c **** }
 522              		.loc 1 975 0
 523              		@ sp needed
 524              	.LVL21:
 525 0014 38BD     		pop	{r3, r4, r5, pc}
 526              		.cfi_endproc
 527              	.LFE20:
 528              		.size	SPIM_PutArray, .-SPIM_PutArray
 529              		.section	.text.SPIM_ClearFIFO,"ax",%progbits
 530              		.align	1
 531              		.global	SPIM_ClearFIFO
 532              		.code	16
 533              		.thumb_func
 534              		.type	SPIM_ClearFIFO, %function
 535              	SPIM_ClearFIFO:
 536              	.LFB21:
 976:Generated_Source\PSoC4/SPIM.c **** 
 977:Generated_Source\PSoC4/SPIM.c **** 
 978:Generated_Source\PSoC4/SPIM.c **** /*******************************************************************************
 979:Generated_Source\PSoC4/SPIM.c **** * Function Name: SPIM_ClearFIFO
 980:Generated_Source\PSoC4/SPIM.c **** ********************************************************************************
 981:Generated_Source\PSoC4/SPIM.c **** *
 982:Generated_Source\PSoC4/SPIM.c **** * Summary:
ARM GAS  C:\Users\Petro\AppData\Local\Temp\ccN6Uqh8.s 			page 28


 983:Generated_Source\PSoC4/SPIM.c **** *  Clear the RX and TX FIFO's of all data for a fresh start.
 984:Generated_Source\PSoC4/SPIM.c **** *
 985:Generated_Source\PSoC4/SPIM.c **** * Parameters:
 986:Generated_Source\PSoC4/SPIM.c **** *  None.
 987:Generated_Source\PSoC4/SPIM.c **** *
 988:Generated_Source\PSoC4/SPIM.c **** * Return:
 989:Generated_Source\PSoC4/SPIM.c **** *  None.
 990:Generated_Source\PSoC4/SPIM.c **** *
 991:Generated_Source\PSoC4/SPIM.c **** * Side Effects:
 992:Generated_Source\PSoC4/SPIM.c **** *  Clear status register of the component.
 993:Generated_Source\PSoC4/SPIM.c **** *
 994:Generated_Source\PSoC4/SPIM.c **** *******************************************************************************/
 995:Generated_Source\PSoC4/SPIM.c **** void SPIM_ClearFIFO(void) 
 996:Generated_Source\PSoC4/SPIM.c **** {
 537              		.loc 1 996 0
 538              		.cfi_startproc
 539 0000 08B5     		push	{r3, lr}
 540              		.cfi_def_cfa_offset 8
 541              		.cfi_offset 3, -8
 542              		.cfi_offset 14, -4
 543              	.L55:
 997:Generated_Source\PSoC4/SPIM.c ****     uint8 enableInterrupts;
 998:Generated_Source\PSoC4/SPIM.c **** 
 999:Generated_Source\PSoC4/SPIM.c ****     /* Clear Hardware RX FIFO */
1000:Generated_Source\PSoC4/SPIM.c ****     while(0u !=(SPIM_RX_STATUS_REG & SPIM_STS_RX_FIFO_NOT_EMPTY))
 544              		.loc 1 1000 0
 545 0002 0A4B     		ldr	r3, .L58
 546 0004 1B78     		ldrb	r3, [r3]
 547 0006 9B06     		lsl	r3, r3, #26
 548 0008 02D5     		bpl	.L57
1001:Generated_Source\PSoC4/SPIM.c ****     {
1002:Generated_Source\PSoC4/SPIM.c ****         (void) CY_GET_REG8(SPIM_RXDATA_PTR);
 549              		.loc 1 1002 0
 550 000a 094B     		ldr	r3, .L58+4
 551 000c 1B78     		ldrb	r3, [r3]
 552 000e F8E7     		b	.L55
 553              	.L57:
1003:Generated_Source\PSoC4/SPIM.c ****     }
1004:Generated_Source\PSoC4/SPIM.c **** 
1005:Generated_Source\PSoC4/SPIM.c ****     enableInterrupts = CyEnterCriticalSection();
 554              		.loc 1 1005 0
 555 0010 FFF7FEFF 		bl	CyEnterCriticalSection
 556              	.LVL22:
1006:Generated_Source\PSoC4/SPIM.c ****     /* Clear TX FIFO */
1007:Generated_Source\PSoC4/SPIM.c ****     SPIM_AUX_CONTROL_DP0_REG |= ((uint8)  SPIM_TX_FIFO_CLR);
 557              		.loc 1 1007 0
 558 0014 0121     		mov	r1, #1
 559 0016 074B     		ldr	r3, .L58+8
1008:Generated_Source\PSoC4/SPIM.c ****     SPIM_AUX_CONTROL_DP0_REG &= ((uint8) ~SPIM_TX_FIFO_CLR);
1009:Generated_Source\PSoC4/SPIM.c **** 
1010:Generated_Source\PSoC4/SPIM.c ****     #if(SPIM_USE_SECOND_DATAPATH)
1011:Generated_Source\PSoC4/SPIM.c ****         /* Clear TX FIFO for 2nd Datapath */
1012:Generated_Source\PSoC4/SPIM.c ****         SPIM_AUX_CONTROL_DP1_REG |= ((uint8)  SPIM_TX_FIFO_CLR);
1013:Generated_Source\PSoC4/SPIM.c ****         SPIM_AUX_CONTROL_DP1_REG &= ((uint8) ~SPIM_TX_FIFO_CLR);
1014:Generated_Source\PSoC4/SPIM.c ****     #endif /* (SPIM_USE_SECOND_DATAPATH) */
1015:Generated_Source\PSoC4/SPIM.c ****     CyExitCriticalSection(enableInterrupts);
1016:Generated_Source\PSoC4/SPIM.c **** }
ARM GAS  C:\Users\Petro\AppData\Local\Temp\ccN6Uqh8.s 			page 29


 560              		.loc 1 1016 0
 561              		@ sp needed
1007:Generated_Source\PSoC4/SPIM.c ****     SPIM_AUX_CONTROL_DP0_REG &= ((uint8) ~SPIM_TX_FIFO_CLR);
 562              		.loc 1 1007 0
 563 0018 1A78     		ldrb	r2, [r3]
 564 001a 0A43     		orr	r2, r1
 565 001c 1A70     		strb	r2, [r3]
1008:Generated_Source\PSoC4/SPIM.c ****     SPIM_AUX_CONTROL_DP0_REG &= ((uint8) ~SPIM_TX_FIFO_CLR);
 566              		.loc 1 1008 0
 567 001e 1A78     		ldrb	r2, [r3]
 568 0020 8A43     		bic	r2, r1
 569 0022 1A70     		strb	r2, [r3]
1015:Generated_Source\PSoC4/SPIM.c **** }
 570              		.loc 1 1015 0
 571 0024 FFF7FEFF 		bl	CyExitCriticalSection
 572              	.LVL23:
 573              		.loc 1 1016 0
 574 0028 08BD     		pop	{r3, pc}
 575              	.L59:
 576 002a C046     		.align	2
 577              	.L58:
 578 002c 60000F40 		.word	1074724960
 579 0030 53000F40 		.word	1074724947
 580 0034 93000F40 		.word	1074725011
 581              		.cfi_endproc
 582              	.LFE21:
 583              		.size	SPIM_ClearFIFO, .-SPIM_ClearFIFO
 584              		.section	.text.SPIM_Init,"ax",%progbits
 585              		.align	1
 586              		.global	SPIM_Init
 587              		.code	16
 588              		.thumb_func
 589              		.type	SPIM_Init, %function
 590              	SPIM_Init:
 591              	.LFB2:
  64:Generated_Source\PSoC4/SPIM.c ****     /* Initialize the Bit counter */
 592              		.loc 1 64 0
 593              		.cfi_startproc
  66:Generated_Source\PSoC4/SPIM.c **** 
 594              		.loc 1 66 0
 595 0000 0F22     		mov	r2, #15
  64:Generated_Source\PSoC4/SPIM.c ****     /* Initialize the Bit counter */
 596              		.loc 1 64 0
 597 0002 08B5     		push	{r3, lr}
 598              		.cfi_def_cfa_offset 8
 599              		.cfi_offset 3, -8
 600              		.cfi_offset 14, -4
  66:Generated_Source\PSoC4/SPIM.c **** 
 601              		.loc 1 66 0
 602 0004 064B     		ldr	r3, .L61
 103:Generated_Source\PSoC4/SPIM.c **** 
 603              		.loc 1 103 0
 604              		@ sp needed
  66:Generated_Source\PSoC4/SPIM.c **** 
 605              		.loc 1 66 0
 606 0006 1A70     		strb	r2, [r3]
  83:Generated_Source\PSoC4/SPIM.c **** 
ARM GAS  C:\Users\Petro\AppData\Local\Temp\ccN6Uqh8.s 			page 30


 607              		.loc 1 83 0
 608 0008 FFF7FEFF 		bl	SPIM_ClearFIFO
 609              	.LVL24:
 610              	.LBB22:
 611              	.LBB23:
 401:Generated_Source\PSoC4/SPIM.c **** 
 612              		.loc 1 401 0
 613 000c 054B     		ldr	r3, .L61+4
 614              	.LBE23:
 615              	.LBE22:
 101:Generated_Source\PSoC4/SPIM.c ****     SPIM_RX_STATUS_MASK_REG = SPIM_RX_INIT_INTERRUPTS_MASK;
 616              		.loc 1 101 0
 617 000e 064A     		ldr	r2, .L61+8
 618              	.LBB25:
 619              	.LBB24:
 401:Generated_Source\PSoC4/SPIM.c **** 
 620              		.loc 1 401 0
 621 0010 1B78     		ldrb	r3, [r3]
 622              	.LVL25:
 623              	.LBE24:
 624              	.LBE25:
 625              	.LBB26:
 626              	.LBB27:
 452:Generated_Source\PSoC4/SPIM.c **** 
 627              		.loc 1 452 0
 628 0012 064B     		ldr	r3, .L61+12
 629 0014 1B78     		ldrb	r3, [r3]
 630              	.LVL26:
 631              	.LBE27:
 632              	.LBE26:
 101:Generated_Source\PSoC4/SPIM.c ****     SPIM_RX_STATUS_MASK_REG = SPIM_RX_INIT_INTERRUPTS_MASK;
 633              		.loc 1 101 0
 634 0016 0023     		mov	r3, #0
 635 0018 1370     		strb	r3, [r2]
 102:Generated_Source\PSoC4/SPIM.c **** }
 636              		.loc 1 102 0
 637 001a 054A     		ldr	r2, .L61+16
 638 001c 1370     		strb	r3, [r2]
 103:Generated_Source\PSoC4/SPIM.c **** 
 639              		.loc 1 103 0
 640 001e 08BD     		pop	{r3, pc}
 641              	.L62:
 642              		.align	2
 643              	.L61:
 644 0020 83000F40 		.word	1074724995
 645 0024 62000F40 		.word	1074724962
 646 0028 82000F40 		.word	1074724994
 647 002c 60000F40 		.word	1074724960
 648 0030 80000F40 		.word	1074724992
 649              		.cfi_endproc
 650              	.LFE2:
 651              		.size	SPIM_Init, .-SPIM_Init
 652              		.section	.text.SPIM_Start,"ax",%progbits
 653              		.align	1
 654              		.global	SPIM_Start
 655              		.code	16
 656              		.thumb_func
ARM GAS  C:\Users\Petro\AppData\Local\Temp\ccN6Uqh8.s 			page 31


 657              		.type	SPIM_Start, %function
 658              	SPIM_Start:
 659              	.LFB4:
 164:Generated_Source\PSoC4/SPIM.c ****     if(0u == SPIM_initVar)
 660              		.loc 1 164 0
 661              		.cfi_startproc
 662 0000 10B5     		push	{r4, lr}
 663              		.cfi_def_cfa_offset 8
 664              		.cfi_offset 4, -8
 665              		.cfi_offset 14, -4
 165:Generated_Source\PSoC4/SPIM.c ****     {
 666              		.loc 1 165 0
 667 0002 054C     		ldr	r4, .L65
 668 0004 2378     		ldrb	r3, [r4]
 669 0006 002B     		cmp	r3, #0
 670 0008 03D1     		bne	.L64
 167:Generated_Source\PSoC4/SPIM.c ****         SPIM_initVar = 1u;
 671              		.loc 1 167 0
 672 000a FFF7FEFF 		bl	SPIM_Init
 673              	.LVL27:
 168:Generated_Source\PSoC4/SPIM.c ****     }
 674              		.loc 1 168 0
 675 000e 0123     		mov	r3, #1
 676 0010 2370     		strb	r3, [r4]
 677              	.L64:
 171:Generated_Source\PSoC4/SPIM.c **** }
 678              		.loc 1 171 0
 679 0012 FFF7FEFF 		bl	SPIM_Enable
 680              	.LVL28:
 172:Generated_Source\PSoC4/SPIM.c **** 
 681              		.loc 1 172 0
 682              		@ sp needed
 683 0016 10BD     		pop	{r4, pc}
 684              	.L66:
 685              		.align	2
 686              	.L65:
 687 0018 00000000 		.word	.LANCHOR0
 688              		.cfi_endproc
 689              	.LFE4:
 690              		.size	SPIM_Start, .-SPIM_Start
 691              		.section	.text.SPIM_EnableInt,"ax",%progbits
 692              		.align	1
 693              		.global	SPIM_EnableInt
 694              		.code	16
 695              		.thumb_func
 696              		.type	SPIM_EnableInt, %function
 697              	SPIM_EnableInt:
 698              	.LFB22:
1017:Generated_Source\PSoC4/SPIM.c **** 
1018:Generated_Source\PSoC4/SPIM.c **** 
1019:Generated_Source\PSoC4/SPIM.c **** /* Following functions are for version Compatibility, they are obsolete.
1020:Generated_Source\PSoC4/SPIM.c **** *  Please do not use it in new projects.
1021:Generated_Source\PSoC4/SPIM.c **** */
1022:Generated_Source\PSoC4/SPIM.c **** 
1023:Generated_Source\PSoC4/SPIM.c **** 
1024:Generated_Source\PSoC4/SPIM.c **** /*******************************************************************************
1025:Generated_Source\PSoC4/SPIM.c **** * Function Name: SPIM_EnableInt
ARM GAS  C:\Users\Petro\AppData\Local\Temp\ccN6Uqh8.s 			page 32


1026:Generated_Source\PSoC4/SPIM.c **** ********************************************************************************
1027:Generated_Source\PSoC4/SPIM.c **** *
1028:Generated_Source\PSoC4/SPIM.c **** * Summary:
1029:Generated_Source\PSoC4/SPIM.c **** *  Enable internal interrupt generation.
1030:Generated_Source\PSoC4/SPIM.c **** *
1031:Generated_Source\PSoC4/SPIM.c **** * Parameters:
1032:Generated_Source\PSoC4/SPIM.c **** *  None.
1033:Generated_Source\PSoC4/SPIM.c **** *
1034:Generated_Source\PSoC4/SPIM.c **** * Return:
1035:Generated_Source\PSoC4/SPIM.c **** *  None.
1036:Generated_Source\PSoC4/SPIM.c **** *
1037:Generated_Source\PSoC4/SPIM.c **** * Theory:
1038:Generated_Source\PSoC4/SPIM.c **** *  Enable the internal interrupt output -or- the interrupt component itself.
1039:Generated_Source\PSoC4/SPIM.c **** *
1040:Generated_Source\PSoC4/SPIM.c **** *******************************************************************************/
1041:Generated_Source\PSoC4/SPIM.c **** void SPIM_EnableInt(void) 
1042:Generated_Source\PSoC4/SPIM.c **** {
 699              		.loc 1 1042 0
 700              		.cfi_startproc
1043:Generated_Source\PSoC4/SPIM.c ****     SPIM_EnableRxInt();
1044:Generated_Source\PSoC4/SPIM.c ****     SPIM_EnableTxInt();
1045:Generated_Source\PSoC4/SPIM.c **** }
 701              		.loc 1 1045 0
 702              		@ sp needed
 703 0000 7047     		bx	lr
 704              		.cfi_endproc
 705              	.LFE22:
 706              		.size	SPIM_EnableInt, .-SPIM_EnableInt
 707              		.section	.text.SPIM_DisableInt,"ax",%progbits
 708              		.align	1
 709              		.global	SPIM_DisableInt
 710              		.code	16
 711              		.thumb_func
 712              		.type	SPIM_DisableInt, %function
 713              	SPIM_DisableInt:
 714              	.LFB23:
1046:Generated_Source\PSoC4/SPIM.c **** 
1047:Generated_Source\PSoC4/SPIM.c **** 
1048:Generated_Source\PSoC4/SPIM.c **** /*******************************************************************************
1049:Generated_Source\PSoC4/SPIM.c **** * Function Name: SPIM_DisableInt
1050:Generated_Source\PSoC4/SPIM.c **** ********************************************************************************
1051:Generated_Source\PSoC4/SPIM.c **** *
1052:Generated_Source\PSoC4/SPIM.c **** * Summary:
1053:Generated_Source\PSoC4/SPIM.c **** *  Disable internal interrupt generation.
1054:Generated_Source\PSoC4/SPIM.c **** *
1055:Generated_Source\PSoC4/SPIM.c **** * Parameters:
1056:Generated_Source\PSoC4/SPIM.c **** *  None.
1057:Generated_Source\PSoC4/SPIM.c **** *
1058:Generated_Source\PSoC4/SPIM.c **** * Return:
1059:Generated_Source\PSoC4/SPIM.c **** *  None.
1060:Generated_Source\PSoC4/SPIM.c **** *
1061:Generated_Source\PSoC4/SPIM.c **** * Theory:
1062:Generated_Source\PSoC4/SPIM.c **** *  Disable the internal interrupt output -or- the interrupt component itself.
1063:Generated_Source\PSoC4/SPIM.c **** *
1064:Generated_Source\PSoC4/SPIM.c **** *******************************************************************************/
1065:Generated_Source\PSoC4/SPIM.c **** void SPIM_DisableInt(void) 
1066:Generated_Source\PSoC4/SPIM.c **** {
ARM GAS  C:\Users\Petro\AppData\Local\Temp\ccN6Uqh8.s 			page 33


 715              		.loc 1 1066 0
 716              		.cfi_startproc
1067:Generated_Source\PSoC4/SPIM.c ****     SPIM_DisableTxInt();
1068:Generated_Source\PSoC4/SPIM.c ****     SPIM_DisableRxInt();
1069:Generated_Source\PSoC4/SPIM.c **** }
 717              		.loc 1 1069 0
 718              		@ sp needed
 719 0000 7047     		bx	lr
 720              		.cfi_endproc
 721              	.LFE23:
 722              		.size	SPIM_DisableInt, .-SPIM_DisableInt
 723              		.section	.text.SPIM_SetInterruptMode,"ax",%progbits
 724              		.align	1
 725              		.global	SPIM_SetInterruptMode
 726              		.code	16
 727              		.thumb_func
 728              		.type	SPIM_SetInterruptMode, %function
 729              	SPIM_SetInterruptMode:
 730              	.LFB24:
1070:Generated_Source\PSoC4/SPIM.c **** 
1071:Generated_Source\PSoC4/SPIM.c **** 
1072:Generated_Source\PSoC4/SPIM.c **** /*******************************************************************************
1073:Generated_Source\PSoC4/SPIM.c **** * Function Name: SPIM_SetInterruptMode
1074:Generated_Source\PSoC4/SPIM.c **** ********************************************************************************
1075:Generated_Source\PSoC4/SPIM.c **** *
1076:Generated_Source\PSoC4/SPIM.c **** * Summary:
1077:Generated_Source\PSoC4/SPIM.c **** *  Configure which status bits trigger an interrupt event.
1078:Generated_Source\PSoC4/SPIM.c **** *
1079:Generated_Source\PSoC4/SPIM.c **** * Parameters:
1080:Generated_Source\PSoC4/SPIM.c **** *  intSrc: An or'd combination of the desired status bit masks (defined in the
1081:Generated_Source\PSoC4/SPIM.c **** *  header file).
1082:Generated_Source\PSoC4/SPIM.c **** *
1083:Generated_Source\PSoC4/SPIM.c **** * Return:
1084:Generated_Source\PSoC4/SPIM.c **** *  None.
1085:Generated_Source\PSoC4/SPIM.c **** *
1086:Generated_Source\PSoC4/SPIM.c **** * Theory:
1087:Generated_Source\PSoC4/SPIM.c **** *  Enables the output of specific status bits to the interrupt controller.
1088:Generated_Source\PSoC4/SPIM.c **** *
1089:Generated_Source\PSoC4/SPIM.c **** *******************************************************************************/
1090:Generated_Source\PSoC4/SPIM.c **** void SPIM_SetInterruptMode(uint8 intSrc) 
1091:Generated_Source\PSoC4/SPIM.c **** {
 731              		.loc 1 1091 0
 732              		.cfi_startproc
 733              	.LVL29:
1092:Generated_Source\PSoC4/SPIM.c ****     SPIM_TX_STATUS_MASK_REG  = (intSrc & ((uint8) ~SPIM_STS_SPI_IDLE));
 734              		.loc 1 1092 0
 735 0000 1023     		mov	r3, #16
 736 0002 021C     		mov	r2, r0
 737 0004 9A43     		bic	r2, r3
 738 0006 024B     		ldr	r3, .L70
1093:Generated_Source\PSoC4/SPIM.c ****     SPIM_RX_STATUS_MASK_REG  =  intSrc;
1094:Generated_Source\PSoC4/SPIM.c **** }
 739              		.loc 1 1094 0
 740              		@ sp needed
1092:Generated_Source\PSoC4/SPIM.c ****     SPIM_TX_STATUS_MASK_REG  = (intSrc & ((uint8) ~SPIM_STS_SPI_IDLE));
 741              		.loc 1 1092 0
 742 0008 1A70     		strb	r2, [r3]
ARM GAS  C:\Users\Petro\AppData\Local\Temp\ccN6Uqh8.s 			page 34


1093:Generated_Source\PSoC4/SPIM.c ****     SPIM_RX_STATUS_MASK_REG  =  intSrc;
 743              		.loc 1 1093 0
 744 000a 024B     		ldr	r3, .L70+4
 745 000c 1870     		strb	r0, [r3]
 746              		.loc 1 1094 0
 747 000e 7047     		bx	lr
 748              	.L71:
 749              		.align	2
 750              	.L70:
 751 0010 82000F40 		.word	1074724994
 752 0014 80000F40 		.word	1074724992
 753              		.cfi_endproc
 754              	.LFE24:
 755              		.size	SPIM_SetInterruptMode, .-SPIM_SetInterruptMode
 756              		.section	.text.SPIM_ReadStatus,"ax",%progbits
 757              		.align	1
 758              		.global	SPIM_ReadStatus
 759              		.code	16
 760              		.thumb_func
 761              		.type	SPIM_ReadStatus, %function
 762              	SPIM_ReadStatus:
 763              	.LFB25:
1095:Generated_Source\PSoC4/SPIM.c **** 
1096:Generated_Source\PSoC4/SPIM.c **** 
1097:Generated_Source\PSoC4/SPIM.c **** /*******************************************************************************
1098:Generated_Source\PSoC4/SPIM.c **** * Function Name: SPIM_ReadStatus
1099:Generated_Source\PSoC4/SPIM.c **** ********************************************************************************
1100:Generated_Source\PSoC4/SPIM.c **** *
1101:Generated_Source\PSoC4/SPIM.c **** * Summary:
1102:Generated_Source\PSoC4/SPIM.c **** *  Read the status register for the component.
1103:Generated_Source\PSoC4/SPIM.c **** *
1104:Generated_Source\PSoC4/SPIM.c **** * Parameters:
1105:Generated_Source\PSoC4/SPIM.c **** *  None.
1106:Generated_Source\PSoC4/SPIM.c **** *
1107:Generated_Source\PSoC4/SPIM.c **** * Return:
1108:Generated_Source\PSoC4/SPIM.c **** *  Contents of the status register.
1109:Generated_Source\PSoC4/SPIM.c **** *
1110:Generated_Source\PSoC4/SPIM.c **** * Global variables:
1111:Generated_Source\PSoC4/SPIM.c **** *  SPIM_swStatus - used to store in software status register,
1112:Generated_Source\PSoC4/SPIM.c **** *  modified every function call - resets to zero.
1113:Generated_Source\PSoC4/SPIM.c **** *
1114:Generated_Source\PSoC4/SPIM.c **** * Theory:
1115:Generated_Source\PSoC4/SPIM.c **** *  Allows the user and the API to read the status register for error detection
1116:Generated_Source\PSoC4/SPIM.c **** *  and flow control.
1117:Generated_Source\PSoC4/SPIM.c **** *
1118:Generated_Source\PSoC4/SPIM.c **** * Side Effects:
1119:Generated_Source\PSoC4/SPIM.c **** *  Clear status register of the component.
1120:Generated_Source\PSoC4/SPIM.c **** *
1121:Generated_Source\PSoC4/SPIM.c **** * Reentrant:
1122:Generated_Source\PSoC4/SPIM.c **** *  No.
1123:Generated_Source\PSoC4/SPIM.c **** *
1124:Generated_Source\PSoC4/SPIM.c **** *******************************************************************************/
1125:Generated_Source\PSoC4/SPIM.c **** uint8 SPIM_ReadStatus(void) 
1126:Generated_Source\PSoC4/SPIM.c **** {
 764              		.loc 1 1126 0
 765              		.cfi_startproc
1127:Generated_Source\PSoC4/SPIM.c ****     uint8 tmpStatus;
ARM GAS  C:\Users\Petro\AppData\Local\Temp\ccN6Uqh8.s 			page 35


1128:Generated_Source\PSoC4/SPIM.c **** 
1129:Generated_Source\PSoC4/SPIM.c ****     #if(SPIM_TX_SOFTWARE_BUF_ENABLED || SPIM_RX_SOFTWARE_BUF_ENABLED)
1130:Generated_Source\PSoC4/SPIM.c **** 
1131:Generated_Source\PSoC4/SPIM.c ****         SPIM_DisableInt();
1132:Generated_Source\PSoC4/SPIM.c **** 
1133:Generated_Source\PSoC4/SPIM.c ****         tmpStatus  = SPIM_GET_STATUS_RX(SPIM_swStatusRx);
1134:Generated_Source\PSoC4/SPIM.c ****         tmpStatus |= SPIM_GET_STATUS_TX(SPIM_swStatusTx);
1135:Generated_Source\PSoC4/SPIM.c ****         tmpStatus &= ((uint8) ~SPIM_STS_SPI_IDLE);
1136:Generated_Source\PSoC4/SPIM.c **** 
1137:Generated_Source\PSoC4/SPIM.c ****         SPIM_swStatusTx = 0u;
1138:Generated_Source\PSoC4/SPIM.c ****         SPIM_swStatusRx = 0u;
1139:Generated_Source\PSoC4/SPIM.c **** 
1140:Generated_Source\PSoC4/SPIM.c ****         SPIM_EnableInt();
1141:Generated_Source\PSoC4/SPIM.c **** 
1142:Generated_Source\PSoC4/SPIM.c ****     #else
1143:Generated_Source\PSoC4/SPIM.c **** 
1144:Generated_Source\PSoC4/SPIM.c ****         tmpStatus  = SPIM_RX_STATUS_REG;
1145:Generated_Source\PSoC4/SPIM.c ****         tmpStatus |= SPIM_TX_STATUS_REG;
 766              		.loc 1 1145 0
 767 0000 034A     		ldr	r2, .L73
1144:Generated_Source\PSoC4/SPIM.c ****         tmpStatus |= SPIM_TX_STATUS_REG;
 768              		.loc 1 1144 0
 769 0002 044B     		ldr	r3, .L73+4
1146:Generated_Source\PSoC4/SPIM.c ****         tmpStatus &= ((uint8) ~SPIM_STS_SPI_IDLE);
1147:Generated_Source\PSoC4/SPIM.c **** 
1148:Generated_Source\PSoC4/SPIM.c ****     #endif /* (SPIM_TX_SOFTWARE_BUF_ENABLED || SPIM_RX_SOFTWARE_BUF_ENABLED) */
1149:Generated_Source\PSoC4/SPIM.c **** 
1150:Generated_Source\PSoC4/SPIM.c ****     return(tmpStatus);
1151:Generated_Source\PSoC4/SPIM.c **** }
 770              		.loc 1 1151 0
 771              		@ sp needed
1144:Generated_Source\PSoC4/SPIM.c ****         tmpStatus |= SPIM_TX_STATUS_REG;
 772              		.loc 1 1144 0
 773 0004 1B78     		ldrb	r3, [r3]
 774              	.LVL30:
1145:Generated_Source\PSoC4/SPIM.c ****         tmpStatus &= ((uint8) ~SPIM_STS_SPI_IDLE);
 775              		.loc 1 1145 0
 776 0006 1078     		ldrb	r0, [r2]
 777 0008 1843     		orr	r0, r3
 778              	.LVL31:
1150:Generated_Source\PSoC4/SPIM.c **** }
 779              		.loc 1 1150 0
 780 000a 1023     		mov	r3, #16
 781 000c 9843     		bic	r0, r3
 782              	.LVL32:
 783              		.loc 1 1151 0
 784 000e 7047     		bx	lr
 785              	.L74:
 786              		.align	2
 787              	.L73:
 788 0010 62000F40 		.word	1074724962
 789 0014 60000F40 		.word	1074724960
 790              		.cfi_endproc
 791              	.LFE25:
 792              		.size	SPIM_ReadStatus, .-SPIM_ReadStatus
 793              		.comm	SPIM_swStatusRx,1,1
 794              		.comm	SPIM_swStatusTx,1,1
ARM GAS  C:\Users\Petro\AppData\Local\Temp\ccN6Uqh8.s 			page 36


 795              		.global	SPIM_initVar
 796              		.bss
 797              		.set	.LANCHOR0,. + 0
 798              		.type	SPIM_initVar, %object
 799              		.size	SPIM_initVar, 1
 800              	SPIM_initVar:
 801 0000 00       		.space	1
 802              		.text
 803              	.Letext0:
 804              		.file 2 "Generated_Source\\PSoC4\\cytypes.h"
 805              		.file 3 "Generated_Source\\PSoC4\\CyLib.h"