ARM GAS  C:\Users\Petro\AppData\Local\Temp\cc0Wxiax.s 			page 1


   1              		.cpu cortex-m0
   2              		.fpu softvfp
   3              		.eabi_attribute 20, 1
   4              		.eabi_attribute 21, 1
   5              		.eabi_attribute 23, 3
   6              		.eabi_attribute 24, 1
   7              		.eabi_attribute 25, 1
   8              		.eabi_attribute 26, 1
   9              		.eabi_attribute 30, 6
  10              		.eabi_attribute 34, 0
  11              		.eabi_attribute 18, 4
  12              		.code	16
  13              		.file	"Timer_2.c"
  14              		.text
  15              	.Ltext0:
  16              		.cfi_sections	.debug_frame
  17              		.global	Timer_2_initVar
  18              		.bss
  19              		.type	Timer_2_initVar, %object
  20              		.size	Timer_2_initVar, 1
  21              	Timer_2_initVar:
  22 0000 00       		.space	1
  23              		.section	.text.Timer_2_Init,"ax",%progbits
  24              		.align	2
  25              		.global	Timer_2_Init
  26              		.code	16
  27              		.thumb_func
  28              		.type	Timer_2_Init, %function
  29              	Timer_2_Init:
  30              	.LFB2:
  31              		.file 1 ".\\Generated_Source\\PSoC4\\Timer_2.c"
   1:.\Generated_Source\PSoC4/Timer_2.c **** /*******************************************************************************
   2:.\Generated_Source\PSoC4/Timer_2.c **** * File Name: Timer_2.c
   3:.\Generated_Source\PSoC4/Timer_2.c **** * Version 2.10
   4:.\Generated_Source\PSoC4/Timer_2.c **** *
   5:.\Generated_Source\PSoC4/Timer_2.c **** * Description:
   6:.\Generated_Source\PSoC4/Timer_2.c **** *  This file provides the source code to the API for the Timer_2
   7:.\Generated_Source\PSoC4/Timer_2.c **** *  component
   8:.\Generated_Source\PSoC4/Timer_2.c **** *
   9:.\Generated_Source\PSoC4/Timer_2.c **** * Note:
  10:.\Generated_Source\PSoC4/Timer_2.c **** *  None
  11:.\Generated_Source\PSoC4/Timer_2.c **** *
  12:.\Generated_Source\PSoC4/Timer_2.c **** ********************************************************************************
  13:.\Generated_Source\PSoC4/Timer_2.c **** * Copyright 2013-2015, Cypress Semiconductor Corporation.  All rights reserved.
  14:.\Generated_Source\PSoC4/Timer_2.c **** * You may use this file only in accordance with the license, terms, conditions,
  15:.\Generated_Source\PSoC4/Timer_2.c **** * disclaimers, and limitations in the end user license agreement accompanying
  16:.\Generated_Source\PSoC4/Timer_2.c **** * the software package with which this file was provided.
  17:.\Generated_Source\PSoC4/Timer_2.c **** *******************************************************************************/
  18:.\Generated_Source\PSoC4/Timer_2.c **** 
  19:.\Generated_Source\PSoC4/Timer_2.c **** #include "Timer_2.h"
  20:.\Generated_Source\PSoC4/Timer_2.c **** 
  21:.\Generated_Source\PSoC4/Timer_2.c **** uint8 Timer_2_initVar = 0u;
  22:.\Generated_Source\PSoC4/Timer_2.c **** 
  23:.\Generated_Source\PSoC4/Timer_2.c **** 
  24:.\Generated_Source\PSoC4/Timer_2.c **** /*******************************************************************************
  25:.\Generated_Source\PSoC4/Timer_2.c **** * Function Name: Timer_2_Init
  26:.\Generated_Source\PSoC4/Timer_2.c **** ********************************************************************************
ARM GAS  C:\Users\Petro\AppData\Local\Temp\cc0Wxiax.s 			page 2


  27:.\Generated_Source\PSoC4/Timer_2.c **** *
  28:.\Generated_Source\PSoC4/Timer_2.c **** * Summary:
  29:.\Generated_Source\PSoC4/Timer_2.c **** *  Initialize/Restore default Timer_2 configuration.
  30:.\Generated_Source\PSoC4/Timer_2.c **** *
  31:.\Generated_Source\PSoC4/Timer_2.c **** * Parameters:
  32:.\Generated_Source\PSoC4/Timer_2.c **** *  None
  33:.\Generated_Source\PSoC4/Timer_2.c **** *
  34:.\Generated_Source\PSoC4/Timer_2.c **** * Return:
  35:.\Generated_Source\PSoC4/Timer_2.c **** *  None
  36:.\Generated_Source\PSoC4/Timer_2.c **** *
  37:.\Generated_Source\PSoC4/Timer_2.c **** *******************************************************************************/
  38:.\Generated_Source\PSoC4/Timer_2.c **** void Timer_2_Init(void)
  39:.\Generated_Source\PSoC4/Timer_2.c **** {
  32              		.loc 1 39 0
  33              		.cfi_startproc
  34 0000 80B5     		push	{r7, lr}
  35              		.cfi_def_cfa_offset 8
  36              		.cfi_offset 7, -8
  37              		.cfi_offset 14, -4
  38 0002 00AF     		add	r7, sp, #0
  39              		.cfi_def_cfa_register 7
  40:.\Generated_Source\PSoC4/Timer_2.c **** 
  41:.\Generated_Source\PSoC4/Timer_2.c ****     /* Set values from customizer to CTRL */
  42:.\Generated_Source\PSoC4/Timer_2.c ****     #if (Timer_2__QUAD == Timer_2_CONFIG)
  43:.\Generated_Source\PSoC4/Timer_2.c ****         Timer_2_CONTROL_REG = Timer_2_CTRL_QUAD_BASE_CONFIG;
  44:.\Generated_Source\PSoC4/Timer_2.c ****         
  45:.\Generated_Source\PSoC4/Timer_2.c ****         /* Set values from customizer to CTRL1 */
  46:.\Generated_Source\PSoC4/Timer_2.c ****         Timer_2_TRIG_CONTROL1_REG  = Timer_2_QUAD_SIGNALS_MODES;
  47:.\Generated_Source\PSoC4/Timer_2.c **** 
  48:.\Generated_Source\PSoC4/Timer_2.c ****         /* Set values from customizer to INTR */
  49:.\Generated_Source\PSoC4/Timer_2.c ****         Timer_2_SetInterruptMode(Timer_2_QUAD_INTERRUPT_MASK);
  50:.\Generated_Source\PSoC4/Timer_2.c ****         
  51:.\Generated_Source\PSoC4/Timer_2.c ****          /* Set other values */
  52:.\Generated_Source\PSoC4/Timer_2.c ****         Timer_2_SetCounterMode(Timer_2_COUNT_DOWN);
  53:.\Generated_Source\PSoC4/Timer_2.c ****         Timer_2_WritePeriod(Timer_2_QUAD_PERIOD_INIT_VALUE);
  54:.\Generated_Source\PSoC4/Timer_2.c ****         Timer_2_WriteCounter(Timer_2_QUAD_PERIOD_INIT_VALUE);
  55:.\Generated_Source\PSoC4/Timer_2.c ****     #endif  /* (Timer_2__QUAD == Timer_2_CONFIG) */
  56:.\Generated_Source\PSoC4/Timer_2.c **** 
  57:.\Generated_Source\PSoC4/Timer_2.c ****     #if (Timer_2__TIMER == Timer_2_CONFIG)
  58:.\Generated_Source\PSoC4/Timer_2.c ****         Timer_2_CONTROL_REG = Timer_2_CTRL_TIMER_BASE_CONFIG;
  40              		.loc 1 58 0
  41 0004 0E4B     		ldr	r3, .L2
  42 0006 E022     		mov	r2, #224
  43 0008 D200     		lsl	r2, r2, #3
  44 000a 1A60     		str	r2, [r3]
  59:.\Generated_Source\PSoC4/Timer_2.c ****         
  60:.\Generated_Source\PSoC4/Timer_2.c ****         /* Set values from customizer to CTRL1 */
  61:.\Generated_Source\PSoC4/Timer_2.c ****         Timer_2_TRIG_CONTROL1_REG  = Timer_2_TIMER_SIGNALS_MODES;
  45              		.loc 1 61 0
  46 000c 0D4B     		ldr	r3, .L2+4
  47 000e 0C22     		mov	r2, #12
  48 0010 1A60     		str	r2, [r3]
  62:.\Generated_Source\PSoC4/Timer_2.c ****     
  63:.\Generated_Source\PSoC4/Timer_2.c ****         /* Set values from customizer to INTR */
  64:.\Generated_Source\PSoC4/Timer_2.c ****         Timer_2_SetInterruptMode(Timer_2_TC_INTERRUPT_MASK);
  49              		.loc 1 64 0
  50 0012 0220     		mov	r0, #2
ARM GAS  C:\Users\Petro\AppData\Local\Temp\cc0Wxiax.s 			page 3


  51 0014 FFF7FEFF 		bl	Timer_2_SetInterruptMode
  65:.\Generated_Source\PSoC4/Timer_2.c ****         
  66:.\Generated_Source\PSoC4/Timer_2.c ****         /* Set other values from customizer */
  67:.\Generated_Source\PSoC4/Timer_2.c ****         Timer_2_WritePeriod(Timer_2_TC_PERIOD_VALUE );
  52              		.loc 1 67 0
  53 0018 0B4B     		ldr	r3, .L2+8
  54 001a 181C     		mov	r0, r3
  55 001c FFF7FEFF 		bl	Timer_2_WritePeriod
  68:.\Generated_Source\PSoC4/Timer_2.c **** 
  69:.\Generated_Source\PSoC4/Timer_2.c ****         #if (Timer_2__COMPARE == Timer_2_TC_COMP_CAP_MODE)
  70:.\Generated_Source\PSoC4/Timer_2.c ****             Timer_2_WriteCompare(Timer_2_TC_COMPARE_VALUE);
  56              		.loc 1 70 0
  57 0020 094B     		ldr	r3, .L2+8
  58 0022 181C     		mov	r0, r3
  59 0024 FFF7FEFF 		bl	Timer_2_WriteCompare
  71:.\Generated_Source\PSoC4/Timer_2.c **** 
  72:.\Generated_Source\PSoC4/Timer_2.c ****             #if (1u == Timer_2_TC_COMPARE_SWAP)
  73:.\Generated_Source\PSoC4/Timer_2.c ****                 Timer_2_SetCompareSwap(1u);
  60              		.loc 1 73 0
  61 0028 0120     		mov	r0, #1
  62 002a FFF7FEFF 		bl	Timer_2_SetCompareSwap
  74:.\Generated_Source\PSoC4/Timer_2.c ****                 Timer_2_WriteCompareBuf(Timer_2_TC_COMPARE_BUF_VALUE);
  63              		.loc 1 74 0
  64 002e 064B     		ldr	r3, .L2+8
  65 0030 181C     		mov	r0, r3
  66 0032 FFF7FEFF 		bl	Timer_2_WriteCompareBuf
  75:.\Generated_Source\PSoC4/Timer_2.c ****             #endif  /* (1u == Timer_2_TC_COMPARE_SWAP) */
  76:.\Generated_Source\PSoC4/Timer_2.c ****         #endif  /* (Timer_2__COMPARE == Timer_2_TC_COMP_CAP_MODE) */
  77:.\Generated_Source\PSoC4/Timer_2.c **** 
  78:.\Generated_Source\PSoC4/Timer_2.c ****         /* Initialize counter value */
  79:.\Generated_Source\PSoC4/Timer_2.c ****         #if (Timer_2_CY_TCPWM_V2 && Timer_2_TIMER_UPDOWN_CNT_USED && !Timer_2_CY_TCPWM_4000)
  80:.\Generated_Source\PSoC4/Timer_2.c ****             Timer_2_WriteCounter(1u);
  81:.\Generated_Source\PSoC4/Timer_2.c ****         #elif(Timer_2__COUNT_DOWN == Timer_2_TC_COUNTER_MODE)
  82:.\Generated_Source\PSoC4/Timer_2.c ****             Timer_2_WriteCounter(Timer_2_TC_PERIOD_VALUE);
  83:.\Generated_Source\PSoC4/Timer_2.c ****         #else
  84:.\Generated_Source\PSoC4/Timer_2.c ****             Timer_2_WriteCounter(0u);
  67              		.loc 1 84 0
  68 0036 0020     		mov	r0, #0
  69 0038 FFF7FEFF 		bl	Timer_2_WriteCounter
  85:.\Generated_Source\PSoC4/Timer_2.c ****         #endif /* (Timer_2_CY_TCPWM_V2 && Timer_2_TIMER_UPDOWN_CNT_USED && !Timer_2_CY_TCPWM_4000) 
  86:.\Generated_Source\PSoC4/Timer_2.c ****     #endif  /* (Timer_2__TIMER == Timer_2_CONFIG) */
  87:.\Generated_Source\PSoC4/Timer_2.c **** 
  88:.\Generated_Source\PSoC4/Timer_2.c ****     #if (Timer_2__PWM_SEL == Timer_2_CONFIG)
  89:.\Generated_Source\PSoC4/Timer_2.c ****         Timer_2_CONTROL_REG = Timer_2_CTRL_PWM_BASE_CONFIG;
  90:.\Generated_Source\PSoC4/Timer_2.c **** 
  91:.\Generated_Source\PSoC4/Timer_2.c ****         #if (Timer_2__PWM_PR == Timer_2_PWM_MODE)
  92:.\Generated_Source\PSoC4/Timer_2.c ****             Timer_2_CONTROL_REG |= Timer_2_CTRL_PWM_RUN_MODE;
  93:.\Generated_Source\PSoC4/Timer_2.c ****             Timer_2_WriteCounter(Timer_2_PWM_PR_INIT_VALUE);
  94:.\Generated_Source\PSoC4/Timer_2.c ****         #else
  95:.\Generated_Source\PSoC4/Timer_2.c ****             Timer_2_CONTROL_REG |= Timer_2_CTRL_PWM_ALIGN | Timer_2_CTRL_PWM_KILL_EVENT;
  96:.\Generated_Source\PSoC4/Timer_2.c ****             
  97:.\Generated_Source\PSoC4/Timer_2.c ****             /* Initialize counter value */
  98:.\Generated_Source\PSoC4/Timer_2.c ****             #if (Timer_2_CY_TCPWM_V2 && Timer_2_PWM_UPDOWN_CNT_USED && !Timer_2_CY_TCPWM_4000)
  99:.\Generated_Source\PSoC4/Timer_2.c ****                 Timer_2_WriteCounter(1u);
 100:.\Generated_Source\PSoC4/Timer_2.c ****             #elif (Timer_2__RIGHT == Timer_2_PWM_ALIGN)
 101:.\Generated_Source\PSoC4/Timer_2.c ****                 Timer_2_WriteCounter(Timer_2_PWM_PERIOD_VALUE);
 102:.\Generated_Source\PSoC4/Timer_2.c ****             #else 
ARM GAS  C:\Users\Petro\AppData\Local\Temp\cc0Wxiax.s 			page 4


 103:.\Generated_Source\PSoC4/Timer_2.c ****                 Timer_2_WriteCounter(0u);
 104:.\Generated_Source\PSoC4/Timer_2.c ****             #endif  /* (Timer_2_CY_TCPWM_V2 && Timer_2_PWM_UPDOWN_CNT_USED && !Timer_2_CY_TCPWM_400
 105:.\Generated_Source\PSoC4/Timer_2.c ****         #endif  /* (Timer_2__PWM_PR == Timer_2_PWM_MODE) */
 106:.\Generated_Source\PSoC4/Timer_2.c **** 
 107:.\Generated_Source\PSoC4/Timer_2.c ****         #if (Timer_2__PWM_DT == Timer_2_PWM_MODE)
 108:.\Generated_Source\PSoC4/Timer_2.c ****             Timer_2_CONTROL_REG |= Timer_2_CTRL_PWM_DEAD_TIME_CYCLE;
 109:.\Generated_Source\PSoC4/Timer_2.c ****         #endif  /* (Timer_2__PWM_DT == Timer_2_PWM_MODE) */
 110:.\Generated_Source\PSoC4/Timer_2.c **** 
 111:.\Generated_Source\PSoC4/Timer_2.c ****         #if (Timer_2__PWM == Timer_2_PWM_MODE)
 112:.\Generated_Source\PSoC4/Timer_2.c ****             Timer_2_CONTROL_REG |= Timer_2_CTRL_PWM_PRESCALER;
 113:.\Generated_Source\PSoC4/Timer_2.c ****         #endif  /* (Timer_2__PWM == Timer_2_PWM_MODE) */
 114:.\Generated_Source\PSoC4/Timer_2.c **** 
 115:.\Generated_Source\PSoC4/Timer_2.c ****         /* Set values from customizer to CTRL1 */
 116:.\Generated_Source\PSoC4/Timer_2.c ****         Timer_2_TRIG_CONTROL1_REG  = Timer_2_PWM_SIGNALS_MODES;
 117:.\Generated_Source\PSoC4/Timer_2.c ****     
 118:.\Generated_Source\PSoC4/Timer_2.c ****         /* Set values from customizer to INTR */
 119:.\Generated_Source\PSoC4/Timer_2.c ****         Timer_2_SetInterruptMode(Timer_2_PWM_INTERRUPT_MASK);
 120:.\Generated_Source\PSoC4/Timer_2.c **** 
 121:.\Generated_Source\PSoC4/Timer_2.c ****         /* Set values from customizer to CTRL2 */
 122:.\Generated_Source\PSoC4/Timer_2.c ****         #if (Timer_2__PWM_PR == Timer_2_PWM_MODE)
 123:.\Generated_Source\PSoC4/Timer_2.c ****             Timer_2_TRIG_CONTROL2_REG =
 124:.\Generated_Source\PSoC4/Timer_2.c ****                     (Timer_2_CC_MATCH_NO_CHANGE    |
 125:.\Generated_Source\PSoC4/Timer_2.c ****                     Timer_2_OVERLOW_NO_CHANGE      |
 126:.\Generated_Source\PSoC4/Timer_2.c ****                     Timer_2_UNDERFLOW_NO_CHANGE);
 127:.\Generated_Source\PSoC4/Timer_2.c ****         #else
 128:.\Generated_Source\PSoC4/Timer_2.c ****             #if (Timer_2__LEFT == Timer_2_PWM_ALIGN)
 129:.\Generated_Source\PSoC4/Timer_2.c ****                 Timer_2_TRIG_CONTROL2_REG = Timer_2_PWM_MODE_LEFT;
 130:.\Generated_Source\PSoC4/Timer_2.c ****             #endif  /* ( Timer_2_PWM_LEFT == Timer_2_PWM_ALIGN) */
 131:.\Generated_Source\PSoC4/Timer_2.c **** 
 132:.\Generated_Source\PSoC4/Timer_2.c ****             #if (Timer_2__RIGHT == Timer_2_PWM_ALIGN)
 133:.\Generated_Source\PSoC4/Timer_2.c ****                 Timer_2_TRIG_CONTROL2_REG = Timer_2_PWM_MODE_RIGHT;
 134:.\Generated_Source\PSoC4/Timer_2.c ****             #endif  /* ( Timer_2_PWM_RIGHT == Timer_2_PWM_ALIGN) */
 135:.\Generated_Source\PSoC4/Timer_2.c **** 
 136:.\Generated_Source\PSoC4/Timer_2.c ****             #if (Timer_2__CENTER == Timer_2_PWM_ALIGN)
 137:.\Generated_Source\PSoC4/Timer_2.c ****                 Timer_2_TRIG_CONTROL2_REG = Timer_2_PWM_MODE_CENTER;
 138:.\Generated_Source\PSoC4/Timer_2.c ****             #endif  /* ( Timer_2_PWM_CENTER == Timer_2_PWM_ALIGN) */
 139:.\Generated_Source\PSoC4/Timer_2.c **** 
 140:.\Generated_Source\PSoC4/Timer_2.c ****             #if (Timer_2__ASYMMETRIC == Timer_2_PWM_ALIGN)
 141:.\Generated_Source\PSoC4/Timer_2.c ****                 Timer_2_TRIG_CONTROL2_REG = Timer_2_PWM_MODE_ASYM;
 142:.\Generated_Source\PSoC4/Timer_2.c ****             #endif  /* (Timer_2__ASYMMETRIC == Timer_2_PWM_ALIGN) */
 143:.\Generated_Source\PSoC4/Timer_2.c ****         #endif  /* (Timer_2__PWM_PR == Timer_2_PWM_MODE) */
 144:.\Generated_Source\PSoC4/Timer_2.c **** 
 145:.\Generated_Source\PSoC4/Timer_2.c ****         /* Set other values from customizer */
 146:.\Generated_Source\PSoC4/Timer_2.c ****         Timer_2_WritePeriod(Timer_2_PWM_PERIOD_VALUE );
 147:.\Generated_Source\PSoC4/Timer_2.c ****         Timer_2_WriteCompare(Timer_2_PWM_COMPARE_VALUE);
 148:.\Generated_Source\PSoC4/Timer_2.c **** 
 149:.\Generated_Source\PSoC4/Timer_2.c ****         #if (1u == Timer_2_PWM_COMPARE_SWAP)
 150:.\Generated_Source\PSoC4/Timer_2.c ****             Timer_2_SetCompareSwap(1u);
 151:.\Generated_Source\PSoC4/Timer_2.c ****             Timer_2_WriteCompareBuf(Timer_2_PWM_COMPARE_BUF_VALUE);
 152:.\Generated_Source\PSoC4/Timer_2.c ****         #endif  /* (1u == Timer_2_PWM_COMPARE_SWAP) */
 153:.\Generated_Source\PSoC4/Timer_2.c **** 
 154:.\Generated_Source\PSoC4/Timer_2.c ****         #if (1u == Timer_2_PWM_PERIOD_SWAP)
 155:.\Generated_Source\PSoC4/Timer_2.c ****             Timer_2_SetPeriodSwap(1u);
 156:.\Generated_Source\PSoC4/Timer_2.c ****             Timer_2_WritePeriodBuf(Timer_2_PWM_PERIOD_BUF_VALUE);
 157:.\Generated_Source\PSoC4/Timer_2.c ****         #endif  /* (1u == Timer_2_PWM_PERIOD_SWAP) */
 158:.\Generated_Source\PSoC4/Timer_2.c ****     #endif  /* (Timer_2__PWM_SEL == Timer_2_CONFIG) */
 159:.\Generated_Source\PSoC4/Timer_2.c ****     
ARM GAS  C:\Users\Petro\AppData\Local\Temp\cc0Wxiax.s 			page 5


 160:.\Generated_Source\PSoC4/Timer_2.c **** }
  70              		.loc 1 160 0
  71 003c BD46     		mov	sp, r7
  72              		@ sp needed
  73 003e 80BD     		pop	{r7, pc}
  74              	.L3:
  75              		.align	2
  76              	.L2:
  77 0040 00012040 		.word	1075839232
  78 0044 24012040 		.word	1075839268
  79 0048 FFFF0000 		.word	65535
  80              		.cfi_endproc
  81              	.LFE2:
  82              		.size	Timer_2_Init, .-Timer_2_Init
  83              		.section	.text.Timer_2_Enable,"ax",%progbits
  84              		.align	2
  85              		.global	Timer_2_Enable
  86              		.code	16
  87              		.thumb_func
  88              		.type	Timer_2_Enable, %function
  89              	Timer_2_Enable:
  90              	.LFB3:
 161:.\Generated_Source\PSoC4/Timer_2.c **** 
 162:.\Generated_Source\PSoC4/Timer_2.c **** 
 163:.\Generated_Source\PSoC4/Timer_2.c **** /*******************************************************************************
 164:.\Generated_Source\PSoC4/Timer_2.c **** * Function Name: Timer_2_Enable
 165:.\Generated_Source\PSoC4/Timer_2.c **** ********************************************************************************
 166:.\Generated_Source\PSoC4/Timer_2.c **** *
 167:.\Generated_Source\PSoC4/Timer_2.c **** * Summary:
 168:.\Generated_Source\PSoC4/Timer_2.c **** *  Enables the Timer_2.
 169:.\Generated_Source\PSoC4/Timer_2.c **** *
 170:.\Generated_Source\PSoC4/Timer_2.c **** * Parameters:
 171:.\Generated_Source\PSoC4/Timer_2.c **** *  None
 172:.\Generated_Source\PSoC4/Timer_2.c **** *
 173:.\Generated_Source\PSoC4/Timer_2.c **** * Return:
 174:.\Generated_Source\PSoC4/Timer_2.c **** *  None
 175:.\Generated_Source\PSoC4/Timer_2.c **** *
 176:.\Generated_Source\PSoC4/Timer_2.c **** *******************************************************************************/
 177:.\Generated_Source\PSoC4/Timer_2.c **** void Timer_2_Enable(void)
 178:.\Generated_Source\PSoC4/Timer_2.c **** {
  91              		.loc 1 178 0
  92              		.cfi_startproc
  93 0000 90B5     		push	{r4, r7, lr}
  94              		.cfi_def_cfa_offset 12
  95              		.cfi_offset 4, -12
  96              		.cfi_offset 7, -8
  97              		.cfi_offset 14, -4
  98 0002 83B0     		sub	sp, sp, #12
  99              		.cfi_def_cfa_offset 24
 100 0004 00AF     		add	r7, sp, #0
 101              		.cfi_def_cfa_register 7
 179:.\Generated_Source\PSoC4/Timer_2.c ****     uint8 enableInterrupts;
 180:.\Generated_Source\PSoC4/Timer_2.c **** 
 181:.\Generated_Source\PSoC4/Timer_2.c ****     enableInterrupts = CyEnterCriticalSection();
 102              		.loc 1 181 0
 103 0006 FC1D     		add	r4, r7, #7
 104 0008 FFF7FEFF 		bl	CyEnterCriticalSection
ARM GAS  C:\Users\Petro\AppData\Local\Temp\cc0Wxiax.s 			page 6


 105 000c 031C     		mov	r3, r0
 106 000e 2370     		strb	r3, [r4]
 182:.\Generated_Source\PSoC4/Timer_2.c ****     Timer_2_BLOCK_CONTROL_REG |= Timer_2_MASK;
 107              		.loc 1 182 0
 108 0010 084B     		ldr	r3, .L5
 109 0012 084A     		ldr	r2, .L5
 110 0014 1268     		ldr	r2, [r2]
 111 0016 0121     		mov	r1, #1
 112 0018 0A43     		orr	r2, r1
 113 001a 1A60     		str	r2, [r3]
 183:.\Generated_Source\PSoC4/Timer_2.c ****     CyExitCriticalSection(enableInterrupts);
 114              		.loc 1 183 0
 115 001c FB1D     		add	r3, r7, #7
 116 001e 1B78     		ldrb	r3, [r3]
 117 0020 181C     		mov	r0, r3
 118 0022 FFF7FEFF 		bl	CyExitCriticalSection
 184:.\Generated_Source\PSoC4/Timer_2.c **** 
 185:.\Generated_Source\PSoC4/Timer_2.c ****     /* Start Timer or PWM if start input is absent */
 186:.\Generated_Source\PSoC4/Timer_2.c ****     #if (Timer_2__PWM_SEL == Timer_2_CONFIG)
 187:.\Generated_Source\PSoC4/Timer_2.c ****         #if (0u == Timer_2_PWM_START_SIGNAL_PRESENT)
 188:.\Generated_Source\PSoC4/Timer_2.c ****             Timer_2_TriggerCommand(Timer_2_MASK, Timer_2_CMD_START);
 189:.\Generated_Source\PSoC4/Timer_2.c ****         #endif /* (0u == Timer_2_PWM_START_SIGNAL_PRESENT) */
 190:.\Generated_Source\PSoC4/Timer_2.c ****     #endif /* (Timer_2__PWM_SEL == Timer_2_CONFIG) */
 191:.\Generated_Source\PSoC4/Timer_2.c **** 
 192:.\Generated_Source\PSoC4/Timer_2.c ****     #if (Timer_2__TIMER == Timer_2_CONFIG)
 193:.\Generated_Source\PSoC4/Timer_2.c ****         #if (0u == Timer_2_TC_START_SIGNAL_PRESENT)
 194:.\Generated_Source\PSoC4/Timer_2.c ****             Timer_2_TriggerCommand(Timer_2_MASK, Timer_2_CMD_START);
 119              		.loc 1 194 0
 120 0026 0120     		mov	r0, #1
 121 0028 1821     		mov	r1, #24
 122 002a FFF7FEFF 		bl	Timer_2_TriggerCommand
 195:.\Generated_Source\PSoC4/Timer_2.c ****         #endif /* (0u == Timer_2_TC_START_SIGNAL_PRESENT) */
 196:.\Generated_Source\PSoC4/Timer_2.c ****     #endif /* (Timer_2__TIMER == Timer_2_CONFIG) */
 197:.\Generated_Source\PSoC4/Timer_2.c ****     
 198:.\Generated_Source\PSoC4/Timer_2.c ****     #if (Timer_2__QUAD == Timer_2_CONFIG)
 199:.\Generated_Source\PSoC4/Timer_2.c ****         #if (0u != Timer_2_QUAD_AUTO_START)
 200:.\Generated_Source\PSoC4/Timer_2.c ****             Timer_2_TriggerCommand(Timer_2_MASK, Timer_2_CMD_RELOAD);
 201:.\Generated_Source\PSoC4/Timer_2.c ****         #endif /* (0u != Timer_2_QUAD_AUTO_START) */
 202:.\Generated_Source\PSoC4/Timer_2.c ****     #endif  /* (Timer_2__QUAD == Timer_2_CONFIG) */
 203:.\Generated_Source\PSoC4/Timer_2.c **** }
 123              		.loc 1 203 0
 124 002e BD46     		mov	sp, r7
 125 0030 03B0     		add	sp, sp, #12
 126              		@ sp needed
 127 0032 90BD     		pop	{r4, r7, pc}
 128              	.L6:
 129              		.align	2
 130              	.L5:
 131 0034 00002040 		.word	1075838976
 132              		.cfi_endproc
 133              	.LFE3:
 134              		.size	Timer_2_Enable, .-Timer_2_Enable
 135              		.section	.text.Timer_2_Start,"ax",%progbits
 136              		.align	2
 137              		.global	Timer_2_Start
 138              		.code	16
 139              		.thumb_func
ARM GAS  C:\Users\Petro\AppData\Local\Temp\cc0Wxiax.s 			page 7


 140              		.type	Timer_2_Start, %function
 141              	Timer_2_Start:
 142              	.LFB4:
 204:.\Generated_Source\PSoC4/Timer_2.c **** 
 205:.\Generated_Source\PSoC4/Timer_2.c **** 
 206:.\Generated_Source\PSoC4/Timer_2.c **** /*******************************************************************************
 207:.\Generated_Source\PSoC4/Timer_2.c **** * Function Name: Timer_2_Start
 208:.\Generated_Source\PSoC4/Timer_2.c **** ********************************************************************************
 209:.\Generated_Source\PSoC4/Timer_2.c **** *
 210:.\Generated_Source\PSoC4/Timer_2.c **** * Summary:
 211:.\Generated_Source\PSoC4/Timer_2.c **** *  Initializes the Timer_2 with default customizer
 212:.\Generated_Source\PSoC4/Timer_2.c **** *  values when called the first time and enables the Timer_2.
 213:.\Generated_Source\PSoC4/Timer_2.c **** *  For subsequent calls the configuration is left unchanged and the component is
 214:.\Generated_Source\PSoC4/Timer_2.c **** *  just enabled.
 215:.\Generated_Source\PSoC4/Timer_2.c **** *
 216:.\Generated_Source\PSoC4/Timer_2.c **** * Parameters:
 217:.\Generated_Source\PSoC4/Timer_2.c **** *  None
 218:.\Generated_Source\PSoC4/Timer_2.c **** *
 219:.\Generated_Source\PSoC4/Timer_2.c **** * Return:
 220:.\Generated_Source\PSoC4/Timer_2.c **** *  None
 221:.\Generated_Source\PSoC4/Timer_2.c **** *
 222:.\Generated_Source\PSoC4/Timer_2.c **** * Global variables:
 223:.\Generated_Source\PSoC4/Timer_2.c **** *  Timer_2_initVar: global variable is used to indicate initial
 224:.\Generated_Source\PSoC4/Timer_2.c **** *  configuration of this component.  The variable is initialized to zero and set
 225:.\Generated_Source\PSoC4/Timer_2.c **** *  to 1 the first time Timer_2_Start() is called. This allows
 226:.\Generated_Source\PSoC4/Timer_2.c **** *  enabling/disabling a component without re-initialization in all subsequent
 227:.\Generated_Source\PSoC4/Timer_2.c **** *  calls to the Timer_2_Start() routine.
 228:.\Generated_Source\PSoC4/Timer_2.c **** *
 229:.\Generated_Source\PSoC4/Timer_2.c **** *******************************************************************************/
 230:.\Generated_Source\PSoC4/Timer_2.c **** void Timer_2_Start(void)
 231:.\Generated_Source\PSoC4/Timer_2.c **** {
 143              		.loc 1 231 0
 144              		.cfi_startproc
 145 0000 80B5     		push	{r7, lr}
 146              		.cfi_def_cfa_offset 8
 147              		.cfi_offset 7, -8
 148              		.cfi_offset 14, -4
 149 0002 00AF     		add	r7, sp, #0
 150              		.cfi_def_cfa_register 7
 232:.\Generated_Source\PSoC4/Timer_2.c ****     if (0u == Timer_2_initVar)
 151              		.loc 1 232 0
 152 0004 064B     		ldr	r3, .L9
 153 0006 1B78     		ldrb	r3, [r3]
 154 0008 002B     		cmp	r3, #0
 155 000a 04D1     		bne	.L8
 233:.\Generated_Source\PSoC4/Timer_2.c ****     {
 234:.\Generated_Source\PSoC4/Timer_2.c ****         Timer_2_Init();
 156              		.loc 1 234 0
 157 000c FFF7FEFF 		bl	Timer_2_Init
 235:.\Generated_Source\PSoC4/Timer_2.c ****         Timer_2_initVar = 1u;
 158              		.loc 1 235 0
 159 0010 034B     		ldr	r3, .L9
 160 0012 0122     		mov	r2, #1
 161 0014 1A70     		strb	r2, [r3]
 162              	.L8:
 236:.\Generated_Source\PSoC4/Timer_2.c ****     }
 237:.\Generated_Source\PSoC4/Timer_2.c **** 
ARM GAS  C:\Users\Petro\AppData\Local\Temp\cc0Wxiax.s 			page 8


 238:.\Generated_Source\PSoC4/Timer_2.c ****     Timer_2_Enable();
 163              		.loc 1 238 0
 164 0016 FFF7FEFF 		bl	Timer_2_Enable
 239:.\Generated_Source\PSoC4/Timer_2.c **** }
 165              		.loc 1 239 0
 166 001a BD46     		mov	sp, r7
 167              		@ sp needed
 168 001c 80BD     		pop	{r7, pc}
 169              	.L10:
 170 001e C046     		.align	2
 171              	.L9:
 172 0020 00000000 		.word	Timer_2_initVar
 173              		.cfi_endproc
 174              	.LFE4:
 175              		.size	Timer_2_Start, .-Timer_2_Start
 176              		.section	.text.Timer_2_Stop,"ax",%progbits
 177              		.align	2
 178              		.global	Timer_2_Stop
 179              		.code	16
 180              		.thumb_func
 181              		.type	Timer_2_Stop, %function
 182              	Timer_2_Stop:
 183              	.LFB5:
 240:.\Generated_Source\PSoC4/Timer_2.c **** 
 241:.\Generated_Source\PSoC4/Timer_2.c **** 
 242:.\Generated_Source\PSoC4/Timer_2.c **** /*******************************************************************************
 243:.\Generated_Source\PSoC4/Timer_2.c **** * Function Name: Timer_2_Stop
 244:.\Generated_Source\PSoC4/Timer_2.c **** ********************************************************************************
 245:.\Generated_Source\PSoC4/Timer_2.c **** *
 246:.\Generated_Source\PSoC4/Timer_2.c **** * Summary:
 247:.\Generated_Source\PSoC4/Timer_2.c **** *  Disables the Timer_2.
 248:.\Generated_Source\PSoC4/Timer_2.c **** *
 249:.\Generated_Source\PSoC4/Timer_2.c **** * Parameters:
 250:.\Generated_Source\PSoC4/Timer_2.c **** *  None
 251:.\Generated_Source\PSoC4/Timer_2.c **** *
 252:.\Generated_Source\PSoC4/Timer_2.c **** * Return:
 253:.\Generated_Source\PSoC4/Timer_2.c **** *  None
 254:.\Generated_Source\PSoC4/Timer_2.c **** *
 255:.\Generated_Source\PSoC4/Timer_2.c **** *******************************************************************************/
 256:.\Generated_Source\PSoC4/Timer_2.c **** void Timer_2_Stop(void)
 257:.\Generated_Source\PSoC4/Timer_2.c **** {
 184              		.loc 1 257 0
 185              		.cfi_startproc
 186 0000 90B5     		push	{r4, r7, lr}
 187              		.cfi_def_cfa_offset 12
 188              		.cfi_offset 4, -12
 189              		.cfi_offset 7, -8
 190              		.cfi_offset 14, -4
 191 0002 83B0     		sub	sp, sp, #12
 192              		.cfi_def_cfa_offset 24
 193 0004 00AF     		add	r7, sp, #0
 194              		.cfi_def_cfa_register 7
 258:.\Generated_Source\PSoC4/Timer_2.c ****     uint8 enableInterrupts;
 259:.\Generated_Source\PSoC4/Timer_2.c **** 
 260:.\Generated_Source\PSoC4/Timer_2.c ****     enableInterrupts = CyEnterCriticalSection();
 195              		.loc 1 260 0
 196 0006 FC1D     		add	r4, r7, #7
ARM GAS  C:\Users\Petro\AppData\Local\Temp\cc0Wxiax.s 			page 9


 197 0008 FFF7FEFF 		bl	CyEnterCriticalSection
 198 000c 031C     		mov	r3, r0
 199 000e 2370     		strb	r3, [r4]
 261:.\Generated_Source\PSoC4/Timer_2.c **** 
 262:.\Generated_Source\PSoC4/Timer_2.c ****     Timer_2_BLOCK_CONTROL_REG &= (uint32)~Timer_2_MASK;
 200              		.loc 1 262 0
 201 0010 064B     		ldr	r3, .L12
 202 0012 064A     		ldr	r2, .L12
 203 0014 1268     		ldr	r2, [r2]
 204 0016 0121     		mov	r1, #1
 205 0018 8A43     		bic	r2, r1
 206 001a 1A60     		str	r2, [r3]
 263:.\Generated_Source\PSoC4/Timer_2.c **** 
 264:.\Generated_Source\PSoC4/Timer_2.c ****     CyExitCriticalSection(enableInterrupts);
 207              		.loc 1 264 0
 208 001c FB1D     		add	r3, r7, #7
 209 001e 1B78     		ldrb	r3, [r3]
 210 0020 181C     		mov	r0, r3
 211 0022 FFF7FEFF 		bl	CyExitCriticalSection
 265:.\Generated_Source\PSoC4/Timer_2.c **** }
 212              		.loc 1 265 0
 213 0026 BD46     		mov	sp, r7
 214 0028 03B0     		add	sp, sp, #12
 215              		@ sp needed
 216 002a 90BD     		pop	{r4, r7, pc}
 217              	.L13:
 218              		.align	2
 219              	.L12:
 220 002c 00002040 		.word	1075838976
 221              		.cfi_endproc
 222              	.LFE5:
 223              		.size	Timer_2_Stop, .-Timer_2_Stop
 224              		.section	.text.Timer_2_SetMode,"ax",%progbits
 225              		.align	2
 226              		.global	Timer_2_SetMode
 227              		.code	16
 228              		.thumb_func
 229              		.type	Timer_2_SetMode, %function
 230              	Timer_2_SetMode:
 231              	.LFB6:
 266:.\Generated_Source\PSoC4/Timer_2.c **** 
 267:.\Generated_Source\PSoC4/Timer_2.c **** 
 268:.\Generated_Source\PSoC4/Timer_2.c **** /*******************************************************************************
 269:.\Generated_Source\PSoC4/Timer_2.c **** * Function Name: Timer_2_SetMode
 270:.\Generated_Source\PSoC4/Timer_2.c **** ********************************************************************************
 271:.\Generated_Source\PSoC4/Timer_2.c **** *
 272:.\Generated_Source\PSoC4/Timer_2.c **** * Summary:
 273:.\Generated_Source\PSoC4/Timer_2.c **** *  Sets the operation mode of the Timer_2. This function is used when
 274:.\Generated_Source\PSoC4/Timer_2.c **** *  configured as a generic Timer_2 and the actual mode of operation is
 275:.\Generated_Source\PSoC4/Timer_2.c **** *  set at runtime. The mode must be set while the component is disabled.
 276:.\Generated_Source\PSoC4/Timer_2.c **** *
 277:.\Generated_Source\PSoC4/Timer_2.c **** * Parameters:
 278:.\Generated_Source\PSoC4/Timer_2.c **** *  mode: Mode for the Timer_2 to operate in
 279:.\Generated_Source\PSoC4/Timer_2.c **** *   Values:
 280:.\Generated_Source\PSoC4/Timer_2.c **** *   - Timer_2_MODE_TIMER_COMPARE - Timer / Counter with
 281:.\Generated_Source\PSoC4/Timer_2.c **** *                                                 compare capability
 282:.\Generated_Source\PSoC4/Timer_2.c **** *         - Timer_2_MODE_TIMER_CAPTURE - Timer / Counter with
ARM GAS  C:\Users\Petro\AppData\Local\Temp\cc0Wxiax.s 			page 10


 283:.\Generated_Source\PSoC4/Timer_2.c **** *                                                 capture capability
 284:.\Generated_Source\PSoC4/Timer_2.c **** *         - Timer_2_MODE_QUAD - Quadrature decoder
 285:.\Generated_Source\PSoC4/Timer_2.c **** *         - Timer_2_MODE_PWM - PWM
 286:.\Generated_Source\PSoC4/Timer_2.c **** *         - Timer_2_MODE_PWM_DT - PWM with dead time
 287:.\Generated_Source\PSoC4/Timer_2.c **** *         - Timer_2_MODE_PWM_PR - PWM with pseudo random capability
 288:.\Generated_Source\PSoC4/Timer_2.c **** *
 289:.\Generated_Source\PSoC4/Timer_2.c **** * Return:
 290:.\Generated_Source\PSoC4/Timer_2.c **** *  None
 291:.\Generated_Source\PSoC4/Timer_2.c **** *
 292:.\Generated_Source\PSoC4/Timer_2.c **** *******************************************************************************/
 293:.\Generated_Source\PSoC4/Timer_2.c **** void Timer_2_SetMode(uint32 mode)
 294:.\Generated_Source\PSoC4/Timer_2.c **** {
 232              		.loc 1 294 0
 233              		.cfi_startproc
 234 0000 90B5     		push	{r4, r7, lr}
 235              		.cfi_def_cfa_offset 12
 236              		.cfi_offset 4, -12
 237              		.cfi_offset 7, -8
 238              		.cfi_offset 14, -4
 239 0002 85B0     		sub	sp, sp, #20
 240              		.cfi_def_cfa_offset 32
 241 0004 00AF     		add	r7, sp, #0
 242              		.cfi_def_cfa_register 7
 243 0006 7860     		str	r0, [r7, #4]
 295:.\Generated_Source\PSoC4/Timer_2.c ****     uint8 enableInterrupts;
 296:.\Generated_Source\PSoC4/Timer_2.c **** 
 297:.\Generated_Source\PSoC4/Timer_2.c ****     enableInterrupts = CyEnterCriticalSection();
 244              		.loc 1 297 0
 245 0008 0F23     		mov	r3, #15
 246 000a FC18     		add	r4, r7, r3
 247 000c FFF7FEFF 		bl	CyEnterCriticalSection
 248 0010 031C     		mov	r3, r0
 249 0012 2370     		strb	r3, [r4]
 298:.\Generated_Source\PSoC4/Timer_2.c **** 
 299:.\Generated_Source\PSoC4/Timer_2.c ****     Timer_2_CONTROL_REG &= (uint32)~Timer_2_MODE_MASK;
 250              		.loc 1 299 0
 251 0014 0A4B     		ldr	r3, .L15
 252 0016 0A4A     		ldr	r2, .L15
 253 0018 1268     		ldr	r2, [r2]
 254 001a 0A49     		ldr	r1, .L15+4
 255 001c 0A40     		and	r2, r1
 256 001e 1A60     		str	r2, [r3]
 300:.\Generated_Source\PSoC4/Timer_2.c ****     Timer_2_CONTROL_REG |= mode;
 257              		.loc 1 300 0
 258 0020 074B     		ldr	r3, .L15
 259 0022 074A     		ldr	r2, .L15
 260 0024 1168     		ldr	r1, [r2]
 261 0026 7A68     		ldr	r2, [r7, #4]
 262 0028 0A43     		orr	r2, r1
 263 002a 1A60     		str	r2, [r3]
 301:.\Generated_Source\PSoC4/Timer_2.c **** 
 302:.\Generated_Source\PSoC4/Timer_2.c ****     CyExitCriticalSection(enableInterrupts);
 264              		.loc 1 302 0
 265 002c 0F23     		mov	r3, #15
 266 002e FB18     		add	r3, r7, r3
 267 0030 1B78     		ldrb	r3, [r3]
 268 0032 181C     		mov	r0, r3
ARM GAS  C:\Users\Petro\AppData\Local\Temp\cc0Wxiax.s 			page 11


 269 0034 FFF7FEFF 		bl	CyExitCriticalSection
 303:.\Generated_Source\PSoC4/Timer_2.c **** }
 270              		.loc 1 303 0
 271 0038 BD46     		mov	sp, r7
 272 003a 05B0     		add	sp, sp, #20
 273              		@ sp needed
 274 003c 90BD     		pop	{r4, r7, pc}
 275              	.L16:
 276 003e C046     		.align	2
 277              	.L15:
 278 0040 00012040 		.word	1075839232
 279 0044 FFFFFFF8 		.word	-117440513
 280              		.cfi_endproc
 281              	.LFE6:
 282              		.size	Timer_2_SetMode, .-Timer_2_SetMode
 283              		.section	.text.Timer_2_SetQDMode,"ax",%progbits
 284              		.align	2
 285              		.global	Timer_2_SetQDMode
 286              		.code	16
 287              		.thumb_func
 288              		.type	Timer_2_SetQDMode, %function
 289              	Timer_2_SetQDMode:
 290              	.LFB7:
 304:.\Generated_Source\PSoC4/Timer_2.c **** 
 305:.\Generated_Source\PSoC4/Timer_2.c **** 
 306:.\Generated_Source\PSoC4/Timer_2.c **** /*******************************************************************************
 307:.\Generated_Source\PSoC4/Timer_2.c **** * Function Name: Timer_2_SetQDMode
 308:.\Generated_Source\PSoC4/Timer_2.c **** ********************************************************************************
 309:.\Generated_Source\PSoC4/Timer_2.c **** *
 310:.\Generated_Source\PSoC4/Timer_2.c **** * Summary:
 311:.\Generated_Source\PSoC4/Timer_2.c **** *  Sets the the Quadrature Decoder to one of the 3 supported modes.
 312:.\Generated_Source\PSoC4/Timer_2.c **** *  Its functionality is only applicable to Quadrature Decoder operation.
 313:.\Generated_Source\PSoC4/Timer_2.c **** *
 314:.\Generated_Source\PSoC4/Timer_2.c **** * Parameters:
 315:.\Generated_Source\PSoC4/Timer_2.c **** *  qdMode: Quadrature Decoder mode
 316:.\Generated_Source\PSoC4/Timer_2.c **** *   Values:
 317:.\Generated_Source\PSoC4/Timer_2.c **** *         - Timer_2_MODE_X1 - Counts on phi 1 rising
 318:.\Generated_Source\PSoC4/Timer_2.c **** *         - Timer_2_MODE_X2 - Counts on both edges of phi1 (2x faster)
 319:.\Generated_Source\PSoC4/Timer_2.c **** *         - Timer_2_MODE_X4 - Counts on both edges of phi1 and phi2
 320:.\Generated_Source\PSoC4/Timer_2.c **** *                                        (4x faster)
 321:.\Generated_Source\PSoC4/Timer_2.c **** *
 322:.\Generated_Source\PSoC4/Timer_2.c **** * Return:
 323:.\Generated_Source\PSoC4/Timer_2.c **** *  None
 324:.\Generated_Source\PSoC4/Timer_2.c **** *
 325:.\Generated_Source\PSoC4/Timer_2.c **** *******************************************************************************/
 326:.\Generated_Source\PSoC4/Timer_2.c **** void Timer_2_SetQDMode(uint32 qdMode)
 327:.\Generated_Source\PSoC4/Timer_2.c **** {
 291              		.loc 1 327 0
 292              		.cfi_startproc
 293 0000 90B5     		push	{r4, r7, lr}
 294              		.cfi_def_cfa_offset 12
 295              		.cfi_offset 4, -12
 296              		.cfi_offset 7, -8
 297              		.cfi_offset 14, -4
 298 0002 85B0     		sub	sp, sp, #20
 299              		.cfi_def_cfa_offset 32
 300 0004 00AF     		add	r7, sp, #0
ARM GAS  C:\Users\Petro\AppData\Local\Temp\cc0Wxiax.s 			page 12


 301              		.cfi_def_cfa_register 7
 302 0006 7860     		str	r0, [r7, #4]
 328:.\Generated_Source\PSoC4/Timer_2.c ****     uint8 enableInterrupts;
 329:.\Generated_Source\PSoC4/Timer_2.c **** 
 330:.\Generated_Source\PSoC4/Timer_2.c ****     enableInterrupts = CyEnterCriticalSection();
 303              		.loc 1 330 0
 304 0008 0F23     		mov	r3, #15
 305 000a FC18     		add	r4, r7, r3
 306 000c FFF7FEFF 		bl	CyEnterCriticalSection
 307 0010 031C     		mov	r3, r0
 308 0012 2370     		strb	r3, [r4]
 331:.\Generated_Source\PSoC4/Timer_2.c **** 
 332:.\Generated_Source\PSoC4/Timer_2.c ****     Timer_2_CONTROL_REG &= (uint32)~Timer_2_QUAD_MODE_MASK;
 309              		.loc 1 332 0
 310 0014 0A4B     		ldr	r3, .L18
 311 0016 0A4A     		ldr	r2, .L18
 312 0018 1268     		ldr	r2, [r2]
 313 001a 0A49     		ldr	r1, .L18+4
 314 001c 0A40     		and	r2, r1
 315 001e 1A60     		str	r2, [r3]
 333:.\Generated_Source\PSoC4/Timer_2.c ****     Timer_2_CONTROL_REG |= qdMode;
 316              		.loc 1 333 0
 317 0020 074B     		ldr	r3, .L18
 318 0022 074A     		ldr	r2, .L18
 319 0024 1168     		ldr	r1, [r2]
 320 0026 7A68     		ldr	r2, [r7, #4]
 321 0028 0A43     		orr	r2, r1
 322 002a 1A60     		str	r2, [r3]
 334:.\Generated_Source\PSoC4/Timer_2.c **** 
 335:.\Generated_Source\PSoC4/Timer_2.c ****     CyExitCriticalSection(enableInterrupts);
 323              		.loc 1 335 0
 324 002c 0F23     		mov	r3, #15
 325 002e FB18     		add	r3, r7, r3
 326 0030 1B78     		ldrb	r3, [r3]
 327 0032 181C     		mov	r0, r3
 328 0034 FFF7FEFF 		bl	CyExitCriticalSection
 336:.\Generated_Source\PSoC4/Timer_2.c **** }
 329              		.loc 1 336 0
 330 0038 BD46     		mov	sp, r7
 331 003a 05B0     		add	sp, sp, #20
 332              		@ sp needed
 333 003c 90BD     		pop	{r4, r7, pc}
 334              	.L19:
 335 003e C046     		.align	2
 336              	.L18:
 337 0040 00012040 		.word	1075839232
 338 0044 FFFF8FFF 		.word	-7340033
 339              		.cfi_endproc
 340              	.LFE7:
 341              		.size	Timer_2_SetQDMode, .-Timer_2_SetQDMode
 342              		.section	.text.Timer_2_SetPrescaler,"ax",%progbits
 343              		.align	2
 344              		.global	Timer_2_SetPrescaler
 345              		.code	16
 346              		.thumb_func
 347              		.type	Timer_2_SetPrescaler, %function
 348              	Timer_2_SetPrescaler:
ARM GAS  C:\Users\Petro\AppData\Local\Temp\cc0Wxiax.s 			page 13


 349              	.LFB8:
 337:.\Generated_Source\PSoC4/Timer_2.c **** 
 338:.\Generated_Source\PSoC4/Timer_2.c **** 
 339:.\Generated_Source\PSoC4/Timer_2.c **** /*******************************************************************************
 340:.\Generated_Source\PSoC4/Timer_2.c **** * Function Name: Timer_2_SetPrescaler
 341:.\Generated_Source\PSoC4/Timer_2.c **** ********************************************************************************
 342:.\Generated_Source\PSoC4/Timer_2.c **** *
 343:.\Generated_Source\PSoC4/Timer_2.c **** * Summary:
 344:.\Generated_Source\PSoC4/Timer_2.c **** *  Sets the prescaler value that is applied to the clock input.  Not applicable
 345:.\Generated_Source\PSoC4/Timer_2.c **** *  to a PWM with the dead time mode or Quadrature Decoder mode.
 346:.\Generated_Source\PSoC4/Timer_2.c **** *
 347:.\Generated_Source\PSoC4/Timer_2.c **** * Parameters:
 348:.\Generated_Source\PSoC4/Timer_2.c **** *  prescaler: Prescaler divider value
 349:.\Generated_Source\PSoC4/Timer_2.c **** *   Values:
 350:.\Generated_Source\PSoC4/Timer_2.c **** *         - Timer_2_PRESCALE_DIVBY1    - Divide by 1 (no prescaling)
 351:.\Generated_Source\PSoC4/Timer_2.c **** *         - Timer_2_PRESCALE_DIVBY2    - Divide by 2
 352:.\Generated_Source\PSoC4/Timer_2.c **** *         - Timer_2_PRESCALE_DIVBY4    - Divide by 4
 353:.\Generated_Source\PSoC4/Timer_2.c **** *         - Timer_2_PRESCALE_DIVBY8    - Divide by 8
 354:.\Generated_Source\PSoC4/Timer_2.c **** *         - Timer_2_PRESCALE_DIVBY16   - Divide by 16
 355:.\Generated_Source\PSoC4/Timer_2.c **** *         - Timer_2_PRESCALE_DIVBY32   - Divide by 32
 356:.\Generated_Source\PSoC4/Timer_2.c **** *         - Timer_2_PRESCALE_DIVBY64   - Divide by 64
 357:.\Generated_Source\PSoC4/Timer_2.c **** *         - Timer_2_PRESCALE_DIVBY128  - Divide by 128
 358:.\Generated_Source\PSoC4/Timer_2.c **** *
 359:.\Generated_Source\PSoC4/Timer_2.c **** * Return:
 360:.\Generated_Source\PSoC4/Timer_2.c **** *  None
 361:.\Generated_Source\PSoC4/Timer_2.c **** *
 362:.\Generated_Source\PSoC4/Timer_2.c **** *******************************************************************************/
 363:.\Generated_Source\PSoC4/Timer_2.c **** void Timer_2_SetPrescaler(uint32 prescaler)
 364:.\Generated_Source\PSoC4/Timer_2.c **** {
 350              		.loc 1 364 0
 351              		.cfi_startproc
 352 0000 90B5     		push	{r4, r7, lr}
 353              		.cfi_def_cfa_offset 12
 354              		.cfi_offset 4, -12
 355              		.cfi_offset 7, -8
 356              		.cfi_offset 14, -4
 357 0002 85B0     		sub	sp, sp, #20
 358              		.cfi_def_cfa_offset 32
 359 0004 00AF     		add	r7, sp, #0
 360              		.cfi_def_cfa_register 7
 361 0006 7860     		str	r0, [r7, #4]
 365:.\Generated_Source\PSoC4/Timer_2.c ****     uint8 enableInterrupts;
 366:.\Generated_Source\PSoC4/Timer_2.c **** 
 367:.\Generated_Source\PSoC4/Timer_2.c ****     enableInterrupts = CyEnterCriticalSection();
 362              		.loc 1 367 0
 363 0008 0F23     		mov	r3, #15
 364 000a FC18     		add	r4, r7, r3
 365 000c FFF7FEFF 		bl	CyEnterCriticalSection
 366 0010 031C     		mov	r3, r0
 367 0012 2370     		strb	r3, [r4]
 368:.\Generated_Source\PSoC4/Timer_2.c **** 
 369:.\Generated_Source\PSoC4/Timer_2.c ****     Timer_2_CONTROL_REG &= (uint32)~Timer_2_PRESCALER_MASK;
 368              		.loc 1 369 0
 369 0014 0A4B     		ldr	r3, .L21
 370 0016 0A4A     		ldr	r2, .L21
 371 0018 1268     		ldr	r2, [r2]
 372 001a 0A49     		ldr	r1, .L21+4
ARM GAS  C:\Users\Petro\AppData\Local\Temp\cc0Wxiax.s 			page 14


 373 001c 0A40     		and	r2, r1
 374 001e 1A60     		str	r2, [r3]
 370:.\Generated_Source\PSoC4/Timer_2.c ****     Timer_2_CONTROL_REG |= prescaler;
 375              		.loc 1 370 0
 376 0020 074B     		ldr	r3, .L21
 377 0022 074A     		ldr	r2, .L21
 378 0024 1168     		ldr	r1, [r2]
 379 0026 7A68     		ldr	r2, [r7, #4]
 380 0028 0A43     		orr	r2, r1
 381 002a 1A60     		str	r2, [r3]
 371:.\Generated_Source\PSoC4/Timer_2.c **** 
 372:.\Generated_Source\PSoC4/Timer_2.c ****     CyExitCriticalSection(enableInterrupts);
 382              		.loc 1 372 0
 383 002c 0F23     		mov	r3, #15
 384 002e FB18     		add	r3, r7, r3
 385 0030 1B78     		ldrb	r3, [r3]
 386 0032 181C     		mov	r0, r3
 387 0034 FFF7FEFF 		bl	CyExitCriticalSection
 373:.\Generated_Source\PSoC4/Timer_2.c **** }
 388              		.loc 1 373 0
 389 0038 BD46     		mov	sp, r7
 390 003a 05B0     		add	sp, sp, #20
 391              		@ sp needed
 392 003c 90BD     		pop	{r4, r7, pc}
 393              	.L22:
 394 003e C046     		.align	2
 395              	.L21:
 396 0040 00012040 		.word	1075839232
 397 0044 FF00FFFF 		.word	-65281
 398              		.cfi_endproc
 399              	.LFE8:
 400              		.size	Timer_2_SetPrescaler, .-Timer_2_SetPrescaler
 401              		.section	.text.Timer_2_SetOneShot,"ax",%progbits
 402              		.align	2
 403              		.global	Timer_2_SetOneShot
 404              		.code	16
 405              		.thumb_func
 406              		.type	Timer_2_SetOneShot, %function
 407              	Timer_2_SetOneShot:
 408              	.LFB9:
 374:.\Generated_Source\PSoC4/Timer_2.c **** 
 375:.\Generated_Source\PSoC4/Timer_2.c **** 
 376:.\Generated_Source\PSoC4/Timer_2.c **** /*******************************************************************************
 377:.\Generated_Source\PSoC4/Timer_2.c **** * Function Name: Timer_2_SetOneShot
 378:.\Generated_Source\PSoC4/Timer_2.c **** ********************************************************************************
 379:.\Generated_Source\PSoC4/Timer_2.c **** *
 380:.\Generated_Source\PSoC4/Timer_2.c **** * Summary:
 381:.\Generated_Source\PSoC4/Timer_2.c **** *  Writes the register that controls whether the Timer_2 runs
 382:.\Generated_Source\PSoC4/Timer_2.c **** *  continuously or stops when terminal count is reached.  By default the
 383:.\Generated_Source\PSoC4/Timer_2.c **** *  Timer_2 operates in the continuous mode.
 384:.\Generated_Source\PSoC4/Timer_2.c **** *
 385:.\Generated_Source\PSoC4/Timer_2.c **** * Parameters:
 386:.\Generated_Source\PSoC4/Timer_2.c **** *  oneShotEnable
 387:.\Generated_Source\PSoC4/Timer_2.c **** *   Values:
 388:.\Generated_Source\PSoC4/Timer_2.c **** *     - 0 - Continuous
 389:.\Generated_Source\PSoC4/Timer_2.c **** *     - 1 - Enable One Shot
 390:.\Generated_Source\PSoC4/Timer_2.c **** *
ARM GAS  C:\Users\Petro\AppData\Local\Temp\cc0Wxiax.s 			page 15


 391:.\Generated_Source\PSoC4/Timer_2.c **** * Return:
 392:.\Generated_Source\PSoC4/Timer_2.c **** *  None
 393:.\Generated_Source\PSoC4/Timer_2.c **** *
 394:.\Generated_Source\PSoC4/Timer_2.c **** *******************************************************************************/
 395:.\Generated_Source\PSoC4/Timer_2.c **** void Timer_2_SetOneShot(uint32 oneShotEnable)
 396:.\Generated_Source\PSoC4/Timer_2.c **** {
 409              		.loc 1 396 0
 410              		.cfi_startproc
 411 0000 90B5     		push	{r4, r7, lr}
 412              		.cfi_def_cfa_offset 12
 413              		.cfi_offset 4, -12
 414              		.cfi_offset 7, -8
 415              		.cfi_offset 14, -4
 416 0002 85B0     		sub	sp, sp, #20
 417              		.cfi_def_cfa_offset 32
 418 0004 00AF     		add	r7, sp, #0
 419              		.cfi_def_cfa_register 7
 420 0006 7860     		str	r0, [r7, #4]
 397:.\Generated_Source\PSoC4/Timer_2.c ****     uint8 enableInterrupts;
 398:.\Generated_Source\PSoC4/Timer_2.c **** 
 399:.\Generated_Source\PSoC4/Timer_2.c ****     enableInterrupts = CyEnterCriticalSection();
 421              		.loc 1 399 0
 422 0008 0F23     		mov	r3, #15
 423 000a FC18     		add	r4, r7, r3
 424 000c FFF7FEFF 		bl	CyEnterCriticalSection
 425 0010 031C     		mov	r3, r0
 426 0012 2370     		strb	r3, [r4]
 400:.\Generated_Source\PSoC4/Timer_2.c **** 
 401:.\Generated_Source\PSoC4/Timer_2.c ****     Timer_2_CONTROL_REG &= (uint32)~Timer_2_ONESHOT_MASK;
 427              		.loc 1 401 0
 428 0014 0B4B     		ldr	r3, .L24
 429 0016 0B4A     		ldr	r2, .L24
 430 0018 1268     		ldr	r2, [r2]
 431 001a 0B49     		ldr	r1, .L24+4
 432 001c 0A40     		and	r2, r1
 433 001e 1A60     		str	r2, [r3]
 402:.\Generated_Source\PSoC4/Timer_2.c ****     Timer_2_CONTROL_REG |= ((uint32)((oneShotEnable & Timer_2_1BIT_MASK) <<
 434              		.loc 1 402 0
 435 0020 084B     		ldr	r3, .L24
 436 0022 084A     		ldr	r2, .L24
 437 0024 1168     		ldr	r1, [r2]
 438 0026 7A68     		ldr	r2, [r7, #4]
 439 0028 0120     		mov	r0, #1
 440 002a 0240     		and	r2, r0
 441 002c 9204     		lsl	r2, r2, #18
 442 002e 0A43     		orr	r2, r1
 443 0030 1A60     		str	r2, [r3]
 403:.\Generated_Source\PSoC4/Timer_2.c ****                                                                Timer_2_ONESHOT_SHIFT));
 404:.\Generated_Source\PSoC4/Timer_2.c **** 
 405:.\Generated_Source\PSoC4/Timer_2.c ****     CyExitCriticalSection(enableInterrupts);
 444              		.loc 1 405 0
 445 0032 0F23     		mov	r3, #15
 446 0034 FB18     		add	r3, r7, r3
 447 0036 1B78     		ldrb	r3, [r3]
 448 0038 181C     		mov	r0, r3
 449 003a FFF7FEFF 		bl	CyExitCriticalSection
 406:.\Generated_Source\PSoC4/Timer_2.c **** }
ARM GAS  C:\Users\Petro\AppData\Local\Temp\cc0Wxiax.s 			page 16


 450              		.loc 1 406 0
 451 003e BD46     		mov	sp, r7
 452 0040 05B0     		add	sp, sp, #20
 453              		@ sp needed
 454 0042 90BD     		pop	{r4, r7, pc}
 455              	.L25:
 456              		.align	2
 457              	.L24:
 458 0044 00012040 		.word	1075839232
 459 0048 FFFFFBFF 		.word	-262145
 460              		.cfi_endproc
 461              	.LFE9:
 462              		.size	Timer_2_SetOneShot, .-Timer_2_SetOneShot
 463              		.section	.text.Timer_2_SetPWMMode,"ax",%progbits
 464              		.align	2
 465              		.global	Timer_2_SetPWMMode
 466              		.code	16
 467              		.thumb_func
 468              		.type	Timer_2_SetPWMMode, %function
 469              	Timer_2_SetPWMMode:
 470              	.LFB10:
 407:.\Generated_Source\PSoC4/Timer_2.c **** 
 408:.\Generated_Source\PSoC4/Timer_2.c **** 
 409:.\Generated_Source\PSoC4/Timer_2.c **** /*******************************************************************************
 410:.\Generated_Source\PSoC4/Timer_2.c **** * Function Name: Timer_2_SetPWMMode
 411:.\Generated_Source\PSoC4/Timer_2.c **** ********************************************************************************
 412:.\Generated_Source\PSoC4/Timer_2.c **** *
 413:.\Generated_Source\PSoC4/Timer_2.c **** * Summary:
 414:.\Generated_Source\PSoC4/Timer_2.c **** *  Writes the control register that determines what mode of operation the PWM
 415:.\Generated_Source\PSoC4/Timer_2.c **** *  output lines are driven in.  There is a setting for what to do on a
 416:.\Generated_Source\PSoC4/Timer_2.c **** *  comparison match (CC_MATCH), on an overflow (OVERFLOW) and on an underflow
 417:.\Generated_Source\PSoC4/Timer_2.c **** *  (UNDERFLOW).  The value for each of the three must be ORed together to form
 418:.\Generated_Source\PSoC4/Timer_2.c **** *  the mode.
 419:.\Generated_Source\PSoC4/Timer_2.c **** *
 420:.\Generated_Source\PSoC4/Timer_2.c **** * Parameters:
 421:.\Generated_Source\PSoC4/Timer_2.c **** *  modeMask: A combination of three mode settings.  Mask must include a value
 422:.\Generated_Source\PSoC4/Timer_2.c **** *  for each of the three or use one of the preconfigured PWM settings.
 423:.\Generated_Source\PSoC4/Timer_2.c **** *   Values:
 424:.\Generated_Source\PSoC4/Timer_2.c **** *     - CC_MATCH_SET        - Set on comparison match
 425:.\Generated_Source\PSoC4/Timer_2.c **** *     - CC_MATCH_CLEAR      - Clear on comparison match
 426:.\Generated_Source\PSoC4/Timer_2.c **** *     - CC_MATCH_INVERT     - Invert on comparison match
 427:.\Generated_Source\PSoC4/Timer_2.c **** *     - CC_MATCH_NO_CHANGE  - No change on comparison match
 428:.\Generated_Source\PSoC4/Timer_2.c **** *     - OVERLOW_SET         - Set on overflow
 429:.\Generated_Source\PSoC4/Timer_2.c **** *     - OVERLOW_CLEAR       - Clear on  overflow
 430:.\Generated_Source\PSoC4/Timer_2.c **** *     - OVERLOW_INVERT      - Invert on overflow
 431:.\Generated_Source\PSoC4/Timer_2.c **** *     - OVERLOW_NO_CHANGE   - No change on overflow
 432:.\Generated_Source\PSoC4/Timer_2.c **** *     - UNDERFLOW_SET       - Set on underflow
 433:.\Generated_Source\PSoC4/Timer_2.c **** *     - UNDERFLOW_CLEAR     - Clear on underflow
 434:.\Generated_Source\PSoC4/Timer_2.c **** *     - UNDERFLOW_INVERT    - Invert on underflow
 435:.\Generated_Source\PSoC4/Timer_2.c **** *     - UNDERFLOW_NO_CHANGE - No change on underflow
 436:.\Generated_Source\PSoC4/Timer_2.c **** *     - PWM_MODE_LEFT       - Setting for left aligned PWM.  Should be combined
 437:.\Generated_Source\PSoC4/Timer_2.c **** *                             with up counting mode
 438:.\Generated_Source\PSoC4/Timer_2.c **** *     - PWM_MODE_RIGHT      - Setting for right aligned PWM.  Should be combined
 439:.\Generated_Source\PSoC4/Timer_2.c **** *                             with down counting mode
 440:.\Generated_Source\PSoC4/Timer_2.c **** *     - PWM_MODE_CENTER     - Setting for center aligned PWM.  Should be
 441:.\Generated_Source\PSoC4/Timer_2.c **** *                             combined with up/down 0 mode
 442:.\Generated_Source\PSoC4/Timer_2.c **** *     - PWM_MODE_ASYM       - Setting for asymmetric PWM.  Should be combined
ARM GAS  C:\Users\Petro\AppData\Local\Temp\cc0Wxiax.s 			page 17


 443:.\Generated_Source\PSoC4/Timer_2.c **** *                             with up/down 1 mode
 444:.\Generated_Source\PSoC4/Timer_2.c **** *
 445:.\Generated_Source\PSoC4/Timer_2.c **** * Return:
 446:.\Generated_Source\PSoC4/Timer_2.c **** *  None
 447:.\Generated_Source\PSoC4/Timer_2.c **** *
 448:.\Generated_Source\PSoC4/Timer_2.c **** *******************************************************************************/
 449:.\Generated_Source\PSoC4/Timer_2.c **** void Timer_2_SetPWMMode(uint32 modeMask)
 450:.\Generated_Source\PSoC4/Timer_2.c **** {
 471              		.loc 1 450 0
 472              		.cfi_startproc
 473 0000 80B5     		push	{r7, lr}
 474              		.cfi_def_cfa_offset 8
 475              		.cfi_offset 7, -8
 476              		.cfi_offset 14, -4
 477 0002 82B0     		sub	sp, sp, #8
 478              		.cfi_def_cfa_offset 16
 479 0004 00AF     		add	r7, sp, #0
 480              		.cfi_def_cfa_register 7
 481 0006 7860     		str	r0, [r7, #4]
 451:.\Generated_Source\PSoC4/Timer_2.c ****     Timer_2_TRIG_CONTROL2_REG = (modeMask & Timer_2_6BIT_MASK);
 482              		.loc 1 451 0
 483 0008 034B     		ldr	r3, .L27
 484 000a 7A68     		ldr	r2, [r7, #4]
 485 000c 3F21     		mov	r1, #63
 486 000e 0A40     		and	r2, r1
 487 0010 1A60     		str	r2, [r3]
 452:.\Generated_Source\PSoC4/Timer_2.c **** }
 488              		.loc 1 452 0
 489 0012 BD46     		mov	sp, r7
 490 0014 02B0     		add	sp, sp, #8
 491              		@ sp needed
 492 0016 80BD     		pop	{r7, pc}
 493              	.L28:
 494              		.align	2
 495              	.L27:
 496 0018 28012040 		.word	1075839272
 497              		.cfi_endproc
 498              	.LFE10:
 499              		.size	Timer_2_SetPWMMode, .-Timer_2_SetPWMMode
 500              		.section	.text.Timer_2_SetPWMSyncKill,"ax",%progbits
 501              		.align	2
 502              		.global	Timer_2_SetPWMSyncKill
 503              		.code	16
 504              		.thumb_func
 505              		.type	Timer_2_SetPWMSyncKill, %function
 506              	Timer_2_SetPWMSyncKill:
 507              	.LFB11:
 453:.\Generated_Source\PSoC4/Timer_2.c **** 
 454:.\Generated_Source\PSoC4/Timer_2.c **** 
 455:.\Generated_Source\PSoC4/Timer_2.c **** 
 456:.\Generated_Source\PSoC4/Timer_2.c **** /*******************************************************************************
 457:.\Generated_Source\PSoC4/Timer_2.c **** * Function Name: Timer_2_SetPWMSyncKill
 458:.\Generated_Source\PSoC4/Timer_2.c **** ********************************************************************************
 459:.\Generated_Source\PSoC4/Timer_2.c **** *
 460:.\Generated_Source\PSoC4/Timer_2.c **** * Summary:
 461:.\Generated_Source\PSoC4/Timer_2.c **** *  Writes the register that controls whether the PWM kill signal (stop input)
 462:.\Generated_Source\PSoC4/Timer_2.c **** *  causes asynchronous or synchronous kill operation.  By default the kill
ARM GAS  C:\Users\Petro\AppData\Local\Temp\cc0Wxiax.s 			page 18


 463:.\Generated_Source\PSoC4/Timer_2.c **** *  operation is asynchronous.  This functionality is only applicable to the PWM
 464:.\Generated_Source\PSoC4/Timer_2.c **** *  and PWM with dead time modes.
 465:.\Generated_Source\PSoC4/Timer_2.c **** *
 466:.\Generated_Source\PSoC4/Timer_2.c **** *  For Synchronous mode the kill signal disables both the line and line_n
 467:.\Generated_Source\PSoC4/Timer_2.c **** *  signals until the next terminal count.
 468:.\Generated_Source\PSoC4/Timer_2.c **** *
 469:.\Generated_Source\PSoC4/Timer_2.c **** *  For Asynchronous mode the kill signal disables both the line and line_n
 470:.\Generated_Source\PSoC4/Timer_2.c **** *  signals when the kill signal is present.  This mode should only be used
 471:.\Generated_Source\PSoC4/Timer_2.c **** *  when the kill signal (stop input) is configured in the pass through mode
 472:.\Generated_Source\PSoC4/Timer_2.c **** *  (Level sensitive signal).
 473:.\Generated_Source\PSoC4/Timer_2.c **** 
 474:.\Generated_Source\PSoC4/Timer_2.c **** *
 475:.\Generated_Source\PSoC4/Timer_2.c **** * Parameters:
 476:.\Generated_Source\PSoC4/Timer_2.c **** *  syncKillEnable
 477:.\Generated_Source\PSoC4/Timer_2.c **** *   Values:
 478:.\Generated_Source\PSoC4/Timer_2.c **** *     - 0 - Asynchronous
 479:.\Generated_Source\PSoC4/Timer_2.c **** *     - 1 - Synchronous
 480:.\Generated_Source\PSoC4/Timer_2.c **** *
 481:.\Generated_Source\PSoC4/Timer_2.c **** * Return:
 482:.\Generated_Source\PSoC4/Timer_2.c **** *  None
 483:.\Generated_Source\PSoC4/Timer_2.c **** *
 484:.\Generated_Source\PSoC4/Timer_2.c **** *******************************************************************************/
 485:.\Generated_Source\PSoC4/Timer_2.c **** void Timer_2_SetPWMSyncKill(uint32 syncKillEnable)
 486:.\Generated_Source\PSoC4/Timer_2.c **** {
 508              		.loc 1 486 0
 509              		.cfi_startproc
 510 0000 90B5     		push	{r4, r7, lr}
 511              		.cfi_def_cfa_offset 12
 512              		.cfi_offset 4, -12
 513              		.cfi_offset 7, -8
 514              		.cfi_offset 14, -4
 515 0002 85B0     		sub	sp, sp, #20
 516              		.cfi_def_cfa_offset 32
 517 0004 00AF     		add	r7, sp, #0
 518              		.cfi_def_cfa_register 7
 519 0006 7860     		str	r0, [r7, #4]
 487:.\Generated_Source\PSoC4/Timer_2.c ****     uint8 enableInterrupts;
 488:.\Generated_Source\PSoC4/Timer_2.c **** 
 489:.\Generated_Source\PSoC4/Timer_2.c ****     enableInterrupts = CyEnterCriticalSection();
 520              		.loc 1 489 0
 521 0008 0F23     		mov	r3, #15
 522 000a FC18     		add	r4, r7, r3
 523 000c FFF7FEFF 		bl	CyEnterCriticalSection
 524 0010 031C     		mov	r3, r0
 525 0012 2370     		strb	r3, [r4]
 490:.\Generated_Source\PSoC4/Timer_2.c **** 
 491:.\Generated_Source\PSoC4/Timer_2.c ****     Timer_2_CONTROL_REG &= (uint32)~Timer_2_PWM_SYNC_KILL_MASK;
 526              		.loc 1 491 0
 527 0014 0B4B     		ldr	r3, .L30
 528 0016 0B4A     		ldr	r2, .L30
 529 0018 1268     		ldr	r2, [r2]
 530 001a 0421     		mov	r1, #4
 531 001c 8A43     		bic	r2, r1
 532 001e 1A60     		str	r2, [r3]
 492:.\Generated_Source\PSoC4/Timer_2.c ****     Timer_2_CONTROL_REG |= ((uint32)((syncKillEnable & Timer_2_1BIT_MASK)  <<
 533              		.loc 1 492 0
 534 0020 084B     		ldr	r3, .L30
ARM GAS  C:\Users\Petro\AppData\Local\Temp\cc0Wxiax.s 			page 19


 535 0022 084A     		ldr	r2, .L30
 536 0024 1168     		ldr	r1, [r2]
 537 0026 7A68     		ldr	r2, [r7, #4]
 538 0028 0120     		mov	r0, #1
 539 002a 0240     		and	r2, r0
 540 002c 9200     		lsl	r2, r2, #2
 541 002e 0A43     		orr	r2, r1
 542 0030 1A60     		str	r2, [r3]
 493:.\Generated_Source\PSoC4/Timer_2.c ****                                                Timer_2_PWM_SYNC_KILL_SHIFT));
 494:.\Generated_Source\PSoC4/Timer_2.c **** 
 495:.\Generated_Source\PSoC4/Timer_2.c ****     CyExitCriticalSection(enableInterrupts);
 543              		.loc 1 495 0
 544 0032 0F23     		mov	r3, #15
 545 0034 FB18     		add	r3, r7, r3
 546 0036 1B78     		ldrb	r3, [r3]
 547 0038 181C     		mov	r0, r3
 548 003a FFF7FEFF 		bl	CyExitCriticalSection
 496:.\Generated_Source\PSoC4/Timer_2.c **** }
 549              		.loc 1 496 0
 550 003e BD46     		mov	sp, r7
 551 0040 05B0     		add	sp, sp, #20
 552              		@ sp needed
 553 0042 90BD     		pop	{r4, r7, pc}
 554              	.L31:
 555              		.align	2
 556              	.L30:
 557 0044 00012040 		.word	1075839232
 558              		.cfi_endproc
 559              	.LFE11:
 560              		.size	Timer_2_SetPWMSyncKill, .-Timer_2_SetPWMSyncKill
 561              		.section	.text.Timer_2_SetPWMStopOnKill,"ax",%progbits
 562              		.align	2
 563              		.global	Timer_2_SetPWMStopOnKill
 564              		.code	16
 565              		.thumb_func
 566              		.type	Timer_2_SetPWMStopOnKill, %function
 567              	Timer_2_SetPWMStopOnKill:
 568              	.LFB12:
 497:.\Generated_Source\PSoC4/Timer_2.c **** 
 498:.\Generated_Source\PSoC4/Timer_2.c **** 
 499:.\Generated_Source\PSoC4/Timer_2.c **** /*******************************************************************************
 500:.\Generated_Source\PSoC4/Timer_2.c **** * Function Name: Timer_2_SetPWMStopOnKill
 501:.\Generated_Source\PSoC4/Timer_2.c **** ********************************************************************************
 502:.\Generated_Source\PSoC4/Timer_2.c **** *
 503:.\Generated_Source\PSoC4/Timer_2.c **** * Summary:
 504:.\Generated_Source\PSoC4/Timer_2.c **** *  Writes the register that controls whether the PWM kill signal (stop input)
 505:.\Generated_Source\PSoC4/Timer_2.c **** *  causes the PWM counter to stop.  By default the kill operation does not stop
 506:.\Generated_Source\PSoC4/Timer_2.c **** *  the counter.  This functionality is only applicable to the three PWM modes.
 507:.\Generated_Source\PSoC4/Timer_2.c **** *
 508:.\Generated_Source\PSoC4/Timer_2.c **** *
 509:.\Generated_Source\PSoC4/Timer_2.c **** * Parameters:
 510:.\Generated_Source\PSoC4/Timer_2.c **** *  stopOnKillEnable
 511:.\Generated_Source\PSoC4/Timer_2.c **** *   Values:
 512:.\Generated_Source\PSoC4/Timer_2.c **** *     - 0 - Don't stop
 513:.\Generated_Source\PSoC4/Timer_2.c **** *     - 1 - Stop
 514:.\Generated_Source\PSoC4/Timer_2.c **** *
 515:.\Generated_Source\PSoC4/Timer_2.c **** * Return:
ARM GAS  C:\Users\Petro\AppData\Local\Temp\cc0Wxiax.s 			page 20


 516:.\Generated_Source\PSoC4/Timer_2.c **** *  None
 517:.\Generated_Source\PSoC4/Timer_2.c **** *
 518:.\Generated_Source\PSoC4/Timer_2.c **** *******************************************************************************/
 519:.\Generated_Source\PSoC4/Timer_2.c **** void Timer_2_SetPWMStopOnKill(uint32 stopOnKillEnable)
 520:.\Generated_Source\PSoC4/Timer_2.c **** {
 569              		.loc 1 520 0
 570              		.cfi_startproc
 571 0000 90B5     		push	{r4, r7, lr}
 572              		.cfi_def_cfa_offset 12
 573              		.cfi_offset 4, -12
 574              		.cfi_offset 7, -8
 575              		.cfi_offset 14, -4
 576 0002 85B0     		sub	sp, sp, #20
 577              		.cfi_def_cfa_offset 32
 578 0004 00AF     		add	r7, sp, #0
 579              		.cfi_def_cfa_register 7
 580 0006 7860     		str	r0, [r7, #4]
 521:.\Generated_Source\PSoC4/Timer_2.c ****     uint8 enableInterrupts;
 522:.\Generated_Source\PSoC4/Timer_2.c **** 
 523:.\Generated_Source\PSoC4/Timer_2.c ****     enableInterrupts = CyEnterCriticalSection();
 581              		.loc 1 523 0
 582 0008 0F23     		mov	r3, #15
 583 000a FC18     		add	r4, r7, r3
 584 000c FFF7FEFF 		bl	CyEnterCriticalSection
 585 0010 031C     		mov	r3, r0
 586 0012 2370     		strb	r3, [r4]
 524:.\Generated_Source\PSoC4/Timer_2.c **** 
 525:.\Generated_Source\PSoC4/Timer_2.c ****     Timer_2_CONTROL_REG &= (uint32)~Timer_2_PWM_STOP_KILL_MASK;
 587              		.loc 1 525 0
 588 0014 0B4B     		ldr	r3, .L33
 589 0016 0B4A     		ldr	r2, .L33
 590 0018 1268     		ldr	r2, [r2]
 591 001a 0821     		mov	r1, #8
 592 001c 8A43     		bic	r2, r1
 593 001e 1A60     		str	r2, [r3]
 526:.\Generated_Source\PSoC4/Timer_2.c ****     Timer_2_CONTROL_REG |= ((uint32)((stopOnKillEnable & Timer_2_1BIT_MASK)  <<
 594              		.loc 1 526 0
 595 0020 084B     		ldr	r3, .L33
 596 0022 084A     		ldr	r2, .L33
 597 0024 1168     		ldr	r1, [r2]
 598 0026 7A68     		ldr	r2, [r7, #4]
 599 0028 0120     		mov	r0, #1
 600 002a 0240     		and	r2, r0
 601 002c D200     		lsl	r2, r2, #3
 602 002e 0A43     		orr	r2, r1
 603 0030 1A60     		str	r2, [r3]
 527:.\Generated_Source\PSoC4/Timer_2.c ****                                                          Timer_2_PWM_STOP_KILL_SHIFT));
 528:.\Generated_Source\PSoC4/Timer_2.c **** 
 529:.\Generated_Source\PSoC4/Timer_2.c ****     CyExitCriticalSection(enableInterrupts);
 604              		.loc 1 529 0
 605 0032 0F23     		mov	r3, #15
 606 0034 FB18     		add	r3, r7, r3
 607 0036 1B78     		ldrb	r3, [r3]
 608 0038 181C     		mov	r0, r3
 609 003a FFF7FEFF 		bl	CyExitCriticalSection
 530:.\Generated_Source\PSoC4/Timer_2.c **** }
 610              		.loc 1 530 0
ARM GAS  C:\Users\Petro\AppData\Local\Temp\cc0Wxiax.s 			page 21


 611 003e BD46     		mov	sp, r7
 612 0040 05B0     		add	sp, sp, #20
 613              		@ sp needed
 614 0042 90BD     		pop	{r4, r7, pc}
 615              	.L34:
 616              		.align	2
 617              	.L33:
 618 0044 00012040 		.word	1075839232
 619              		.cfi_endproc
 620              	.LFE12:
 621              		.size	Timer_2_SetPWMStopOnKill, .-Timer_2_SetPWMStopOnKill
 622              		.section	.text.Timer_2_SetPWMDeadTime,"ax",%progbits
 623              		.align	2
 624              		.global	Timer_2_SetPWMDeadTime
 625              		.code	16
 626              		.thumb_func
 627              		.type	Timer_2_SetPWMDeadTime, %function
 628              	Timer_2_SetPWMDeadTime:
 629              	.LFB13:
 531:.\Generated_Source\PSoC4/Timer_2.c **** 
 532:.\Generated_Source\PSoC4/Timer_2.c **** 
 533:.\Generated_Source\PSoC4/Timer_2.c **** /*******************************************************************************
 534:.\Generated_Source\PSoC4/Timer_2.c **** * Function Name: Timer_2_SetPWMDeadTime
 535:.\Generated_Source\PSoC4/Timer_2.c **** ********************************************************************************
 536:.\Generated_Source\PSoC4/Timer_2.c **** *
 537:.\Generated_Source\PSoC4/Timer_2.c **** * Summary:
 538:.\Generated_Source\PSoC4/Timer_2.c **** *  Writes the dead time control value.  This value delays the rising edge of
 539:.\Generated_Source\PSoC4/Timer_2.c **** *  both the line and line_n signals the designated number of cycles resulting
 540:.\Generated_Source\PSoC4/Timer_2.c **** *  in both signals being inactive for that many cycles.  This functionality is
 541:.\Generated_Source\PSoC4/Timer_2.c **** *  only applicable to the PWM in the dead time mode.
 542:.\Generated_Source\PSoC4/Timer_2.c **** 
 543:.\Generated_Source\PSoC4/Timer_2.c **** *
 544:.\Generated_Source\PSoC4/Timer_2.c **** * Parameters:
 545:.\Generated_Source\PSoC4/Timer_2.c **** *  Dead time to insert
 546:.\Generated_Source\PSoC4/Timer_2.c **** *   Values: 0 to 255
 547:.\Generated_Source\PSoC4/Timer_2.c **** *
 548:.\Generated_Source\PSoC4/Timer_2.c **** * Return:
 549:.\Generated_Source\PSoC4/Timer_2.c **** *  None
 550:.\Generated_Source\PSoC4/Timer_2.c **** *
 551:.\Generated_Source\PSoC4/Timer_2.c **** *******************************************************************************/
 552:.\Generated_Source\PSoC4/Timer_2.c **** void Timer_2_SetPWMDeadTime(uint32 deadTime)
 553:.\Generated_Source\PSoC4/Timer_2.c **** {
 630              		.loc 1 553 0
 631              		.cfi_startproc
 632 0000 90B5     		push	{r4, r7, lr}
 633              		.cfi_def_cfa_offset 12
 634              		.cfi_offset 4, -12
 635              		.cfi_offset 7, -8
 636              		.cfi_offset 14, -4
 637 0002 85B0     		sub	sp, sp, #20
 638              		.cfi_def_cfa_offset 32
 639 0004 00AF     		add	r7, sp, #0
 640              		.cfi_def_cfa_register 7
 641 0006 7860     		str	r0, [r7, #4]
 554:.\Generated_Source\PSoC4/Timer_2.c ****     uint8 enableInterrupts;
 555:.\Generated_Source\PSoC4/Timer_2.c **** 
 556:.\Generated_Source\PSoC4/Timer_2.c ****     enableInterrupts = CyEnterCriticalSection();
ARM GAS  C:\Users\Petro\AppData\Local\Temp\cc0Wxiax.s 			page 22


 642              		.loc 1 556 0
 643 0008 0F23     		mov	r3, #15
 644 000a FC18     		add	r4, r7, r3
 645 000c FFF7FEFF 		bl	CyEnterCriticalSection
 646 0010 031C     		mov	r3, r0
 647 0012 2370     		strb	r3, [r4]
 557:.\Generated_Source\PSoC4/Timer_2.c **** 
 558:.\Generated_Source\PSoC4/Timer_2.c ****     Timer_2_CONTROL_REG &= (uint32)~Timer_2_PRESCALER_MASK;
 648              		.loc 1 558 0
 649 0014 0B4B     		ldr	r3, .L36
 650 0016 0B4A     		ldr	r2, .L36
 651 0018 1268     		ldr	r2, [r2]
 652 001a 0B49     		ldr	r1, .L36+4
 653 001c 0A40     		and	r2, r1
 654 001e 1A60     		str	r2, [r3]
 559:.\Generated_Source\PSoC4/Timer_2.c ****     Timer_2_CONTROL_REG |= ((uint32)((deadTime & Timer_2_8BIT_MASK) <<
 655              		.loc 1 559 0
 656 0020 084B     		ldr	r3, .L36
 657 0022 084A     		ldr	r2, .L36
 658 0024 1168     		ldr	r1, [r2]
 659 0026 7A68     		ldr	r2, [r7, #4]
 660 0028 1202     		lsl	r2, r2, #8
 661 002a 1204     		lsl	r2, r2, #16
 662 002c 120C     		lsr	r2, r2, #16
 663 002e 0A43     		orr	r2, r1
 664 0030 1A60     		str	r2, [r3]
 560:.\Generated_Source\PSoC4/Timer_2.c ****                                                           Timer_2_PRESCALER_SHIFT));
 561:.\Generated_Source\PSoC4/Timer_2.c **** 
 562:.\Generated_Source\PSoC4/Timer_2.c ****     CyExitCriticalSection(enableInterrupts);
 665              		.loc 1 562 0
 666 0032 0F23     		mov	r3, #15
 667 0034 FB18     		add	r3, r7, r3
 668 0036 1B78     		ldrb	r3, [r3]
 669 0038 181C     		mov	r0, r3
 670 003a FFF7FEFF 		bl	CyExitCriticalSection
 563:.\Generated_Source\PSoC4/Timer_2.c **** }
 671              		.loc 1 563 0
 672 003e BD46     		mov	sp, r7
 673 0040 05B0     		add	sp, sp, #20
 674              		@ sp needed
 675 0042 90BD     		pop	{r4, r7, pc}
 676              	.L37:
 677              		.align	2
 678              	.L36:
 679 0044 00012040 		.word	1075839232
 680 0048 FF00FFFF 		.word	-65281
 681              		.cfi_endproc
 682              	.LFE13:
 683              		.size	Timer_2_SetPWMDeadTime, .-Timer_2_SetPWMDeadTime
 684              		.section	.text.Timer_2_SetPWMInvert,"ax",%progbits
 685              		.align	2
 686              		.global	Timer_2_SetPWMInvert
 687              		.code	16
 688              		.thumb_func
 689              		.type	Timer_2_SetPWMInvert, %function
 690              	Timer_2_SetPWMInvert:
 691              	.LFB14:
ARM GAS  C:\Users\Petro\AppData\Local\Temp\cc0Wxiax.s 			page 23


 564:.\Generated_Source\PSoC4/Timer_2.c **** 
 565:.\Generated_Source\PSoC4/Timer_2.c **** 
 566:.\Generated_Source\PSoC4/Timer_2.c **** /*******************************************************************************
 567:.\Generated_Source\PSoC4/Timer_2.c **** * Function Name: Timer_2_SetPWMInvert
 568:.\Generated_Source\PSoC4/Timer_2.c **** ********************************************************************************
 569:.\Generated_Source\PSoC4/Timer_2.c **** *
 570:.\Generated_Source\PSoC4/Timer_2.c **** * Summary:
 571:.\Generated_Source\PSoC4/Timer_2.c **** *  Writes the bits that control whether the line and line_n outputs are
 572:.\Generated_Source\PSoC4/Timer_2.c **** *  inverted from their normal output values.  This functionality is only
 573:.\Generated_Source\PSoC4/Timer_2.c **** *  applicable to the three PWM modes.
 574:.\Generated_Source\PSoC4/Timer_2.c **** *
 575:.\Generated_Source\PSoC4/Timer_2.c **** * Parameters:
 576:.\Generated_Source\PSoC4/Timer_2.c **** *  mask: Mask of outputs to invert.
 577:.\Generated_Source\PSoC4/Timer_2.c **** *   Values:
 578:.\Generated_Source\PSoC4/Timer_2.c **** *         - Timer_2_INVERT_LINE   - Inverts the line output
 579:.\Generated_Source\PSoC4/Timer_2.c **** *         - Timer_2_INVERT_LINE_N - Inverts the line_n output
 580:.\Generated_Source\PSoC4/Timer_2.c **** *
 581:.\Generated_Source\PSoC4/Timer_2.c **** * Return:
 582:.\Generated_Source\PSoC4/Timer_2.c **** *  None
 583:.\Generated_Source\PSoC4/Timer_2.c **** *
 584:.\Generated_Source\PSoC4/Timer_2.c **** *******************************************************************************/
 585:.\Generated_Source\PSoC4/Timer_2.c **** void Timer_2_SetPWMInvert(uint32 mask)
 586:.\Generated_Source\PSoC4/Timer_2.c **** {
 692              		.loc 1 586 0
 693              		.cfi_startproc
 694 0000 90B5     		push	{r4, r7, lr}
 695              		.cfi_def_cfa_offset 12
 696              		.cfi_offset 4, -12
 697              		.cfi_offset 7, -8
 698              		.cfi_offset 14, -4
 699 0002 85B0     		sub	sp, sp, #20
 700              		.cfi_def_cfa_offset 32
 701 0004 00AF     		add	r7, sp, #0
 702              		.cfi_def_cfa_register 7
 703 0006 7860     		str	r0, [r7, #4]
 587:.\Generated_Source\PSoC4/Timer_2.c ****     uint8 enableInterrupts;
 588:.\Generated_Source\PSoC4/Timer_2.c **** 
 589:.\Generated_Source\PSoC4/Timer_2.c ****     enableInterrupts = CyEnterCriticalSection();
 704              		.loc 1 589 0
 705 0008 0F23     		mov	r3, #15
 706 000a FC18     		add	r4, r7, r3
 707 000c FFF7FEFF 		bl	CyEnterCriticalSection
 708 0010 031C     		mov	r3, r0
 709 0012 2370     		strb	r3, [r4]
 590:.\Generated_Source\PSoC4/Timer_2.c **** 
 591:.\Generated_Source\PSoC4/Timer_2.c ****     Timer_2_CONTROL_REG &= (uint32)~Timer_2_INV_OUT_MASK;
 710              		.loc 1 591 0
 711 0014 0A4B     		ldr	r3, .L39
 712 0016 0A4A     		ldr	r2, .L39
 713 0018 1268     		ldr	r2, [r2]
 714 001a 0A49     		ldr	r1, .L39+4
 715 001c 0A40     		and	r2, r1
 716 001e 1A60     		str	r2, [r3]
 592:.\Generated_Source\PSoC4/Timer_2.c ****     Timer_2_CONTROL_REG |= mask;
 717              		.loc 1 592 0
 718 0020 074B     		ldr	r3, .L39
 719 0022 074A     		ldr	r2, .L39
ARM GAS  C:\Users\Petro\AppData\Local\Temp\cc0Wxiax.s 			page 24


 720 0024 1168     		ldr	r1, [r2]
 721 0026 7A68     		ldr	r2, [r7, #4]
 722 0028 0A43     		orr	r2, r1
 723 002a 1A60     		str	r2, [r3]
 593:.\Generated_Source\PSoC4/Timer_2.c **** 
 594:.\Generated_Source\PSoC4/Timer_2.c ****     CyExitCriticalSection(enableInterrupts);
 724              		.loc 1 594 0
 725 002c 0F23     		mov	r3, #15
 726 002e FB18     		add	r3, r7, r3
 727 0030 1B78     		ldrb	r3, [r3]
 728 0032 181C     		mov	r0, r3
 729 0034 FFF7FEFF 		bl	CyExitCriticalSection
 595:.\Generated_Source\PSoC4/Timer_2.c **** }
 730              		.loc 1 595 0
 731 0038 BD46     		mov	sp, r7
 732 003a 05B0     		add	sp, sp, #20
 733              		@ sp needed
 734 003c 90BD     		pop	{r4, r7, pc}
 735              	.L40:
 736 003e C046     		.align	2
 737              	.L39:
 738 0040 00012040 		.word	1075839232
 739 0044 FFFFCFFF 		.word	-3145729
 740              		.cfi_endproc
 741              	.LFE14:
 742              		.size	Timer_2_SetPWMInvert, .-Timer_2_SetPWMInvert
 743              		.section	.text.Timer_2_WriteCounter,"ax",%progbits
 744              		.align	2
 745              		.global	Timer_2_WriteCounter
 746              		.code	16
 747              		.thumb_func
 748              		.type	Timer_2_WriteCounter, %function
 749              	Timer_2_WriteCounter:
 750              	.LFB15:
 596:.\Generated_Source\PSoC4/Timer_2.c **** 
 597:.\Generated_Source\PSoC4/Timer_2.c **** 
 598:.\Generated_Source\PSoC4/Timer_2.c **** 
 599:.\Generated_Source\PSoC4/Timer_2.c **** /*******************************************************************************
 600:.\Generated_Source\PSoC4/Timer_2.c **** * Function Name: Timer_2_WriteCounter
 601:.\Generated_Source\PSoC4/Timer_2.c **** ********************************************************************************
 602:.\Generated_Source\PSoC4/Timer_2.c **** *
 603:.\Generated_Source\PSoC4/Timer_2.c **** * Summary:
 604:.\Generated_Source\PSoC4/Timer_2.c **** *  Writes a new 16bit counter value directly into the counter register, thus
 605:.\Generated_Source\PSoC4/Timer_2.c **** *  setting the counter (not the period) to the value written. It is not
 606:.\Generated_Source\PSoC4/Timer_2.c **** *  advised to write to this field when the counter is running.
 607:.\Generated_Source\PSoC4/Timer_2.c **** *
 608:.\Generated_Source\PSoC4/Timer_2.c **** * Parameters:
 609:.\Generated_Source\PSoC4/Timer_2.c **** *  count: value to write
 610:.\Generated_Source\PSoC4/Timer_2.c **** *
 611:.\Generated_Source\PSoC4/Timer_2.c **** * Return:
 612:.\Generated_Source\PSoC4/Timer_2.c **** *  None
 613:.\Generated_Source\PSoC4/Timer_2.c **** *
 614:.\Generated_Source\PSoC4/Timer_2.c **** *******************************************************************************/
 615:.\Generated_Source\PSoC4/Timer_2.c **** void Timer_2_WriteCounter(uint32 count)
 616:.\Generated_Source\PSoC4/Timer_2.c **** {
 751              		.loc 1 616 0
 752              		.cfi_startproc
ARM GAS  C:\Users\Petro\AppData\Local\Temp\cc0Wxiax.s 			page 25


 753 0000 80B5     		push	{r7, lr}
 754              		.cfi_def_cfa_offset 8
 755              		.cfi_offset 7, -8
 756              		.cfi_offset 14, -4
 757 0002 82B0     		sub	sp, sp, #8
 758              		.cfi_def_cfa_offset 16
 759 0004 00AF     		add	r7, sp, #0
 760              		.cfi_def_cfa_register 7
 761 0006 7860     		str	r0, [r7, #4]
 617:.\Generated_Source\PSoC4/Timer_2.c ****     Timer_2_COUNTER_REG = (count & Timer_2_16BIT_MASK);
 762              		.loc 1 617 0
 763 0008 034B     		ldr	r3, .L42
 764 000a 7A68     		ldr	r2, [r7, #4]
 765 000c 1204     		lsl	r2, r2, #16
 766 000e 120C     		lsr	r2, r2, #16
 767 0010 1A60     		str	r2, [r3]
 618:.\Generated_Source\PSoC4/Timer_2.c **** }
 768              		.loc 1 618 0
 769 0012 BD46     		mov	sp, r7
 770 0014 02B0     		add	sp, sp, #8
 771              		@ sp needed
 772 0016 80BD     		pop	{r7, pc}
 773              	.L43:
 774              		.align	2
 775              	.L42:
 776 0018 08012040 		.word	1075839240
 777              		.cfi_endproc
 778              	.LFE15:
 779              		.size	Timer_2_WriteCounter, .-Timer_2_WriteCounter
 780              		.section	.text.Timer_2_ReadCounter,"ax",%progbits
 781              		.align	2
 782              		.global	Timer_2_ReadCounter
 783              		.code	16
 784              		.thumb_func
 785              		.type	Timer_2_ReadCounter, %function
 786              	Timer_2_ReadCounter:
 787              	.LFB16:
 619:.\Generated_Source\PSoC4/Timer_2.c **** 
 620:.\Generated_Source\PSoC4/Timer_2.c **** 
 621:.\Generated_Source\PSoC4/Timer_2.c **** /*******************************************************************************
 622:.\Generated_Source\PSoC4/Timer_2.c **** * Function Name: Timer_2_ReadCounter
 623:.\Generated_Source\PSoC4/Timer_2.c **** ********************************************************************************
 624:.\Generated_Source\PSoC4/Timer_2.c **** *
 625:.\Generated_Source\PSoC4/Timer_2.c **** * Summary:
 626:.\Generated_Source\PSoC4/Timer_2.c **** *  Reads the current counter value.
 627:.\Generated_Source\PSoC4/Timer_2.c **** *
 628:.\Generated_Source\PSoC4/Timer_2.c **** * Parameters:
 629:.\Generated_Source\PSoC4/Timer_2.c **** *  None
 630:.\Generated_Source\PSoC4/Timer_2.c **** *
 631:.\Generated_Source\PSoC4/Timer_2.c **** * Return:
 632:.\Generated_Source\PSoC4/Timer_2.c **** *  Current counter value
 633:.\Generated_Source\PSoC4/Timer_2.c **** *
 634:.\Generated_Source\PSoC4/Timer_2.c **** *******************************************************************************/
 635:.\Generated_Source\PSoC4/Timer_2.c **** uint32 Timer_2_ReadCounter(void)
 636:.\Generated_Source\PSoC4/Timer_2.c **** {
 788              		.loc 1 636 0
 789              		.cfi_startproc
ARM GAS  C:\Users\Petro\AppData\Local\Temp\cc0Wxiax.s 			page 26


 790 0000 80B5     		push	{r7, lr}
 791              		.cfi_def_cfa_offset 8
 792              		.cfi_offset 7, -8
 793              		.cfi_offset 14, -4
 794 0002 00AF     		add	r7, sp, #0
 795              		.cfi_def_cfa_register 7
 637:.\Generated_Source\PSoC4/Timer_2.c ****     return (Timer_2_COUNTER_REG & Timer_2_16BIT_MASK);
 796              		.loc 1 637 0
 797 0004 034B     		ldr	r3, .L46
 798 0006 1B68     		ldr	r3, [r3]
 799 0008 1B04     		lsl	r3, r3, #16
 800 000a 1B0C     		lsr	r3, r3, #16
 638:.\Generated_Source\PSoC4/Timer_2.c **** }
 801              		.loc 1 638 0
 802 000c 181C     		mov	r0, r3
 803 000e BD46     		mov	sp, r7
 804              		@ sp needed
 805 0010 80BD     		pop	{r7, pc}
 806              	.L47:
 807 0012 C046     		.align	2
 808              	.L46:
 809 0014 08012040 		.word	1075839240
 810              		.cfi_endproc
 811              	.LFE16:
 812              		.size	Timer_2_ReadCounter, .-Timer_2_ReadCounter
 813              		.section	.text.Timer_2_SetCounterMode,"ax",%progbits
 814              		.align	2
 815              		.global	Timer_2_SetCounterMode
 816              		.code	16
 817              		.thumb_func
 818              		.type	Timer_2_SetCounterMode, %function
 819              	Timer_2_SetCounterMode:
 820              	.LFB17:
 639:.\Generated_Source\PSoC4/Timer_2.c **** 
 640:.\Generated_Source\PSoC4/Timer_2.c **** 
 641:.\Generated_Source\PSoC4/Timer_2.c **** /*******************************************************************************
 642:.\Generated_Source\PSoC4/Timer_2.c **** * Function Name: Timer_2_SetCounterMode
 643:.\Generated_Source\PSoC4/Timer_2.c **** ********************************************************************************
 644:.\Generated_Source\PSoC4/Timer_2.c **** *
 645:.\Generated_Source\PSoC4/Timer_2.c **** * Summary:
 646:.\Generated_Source\PSoC4/Timer_2.c **** *  Sets the counter mode.  Applicable to all modes except Quadrature Decoder
 647:.\Generated_Source\PSoC4/Timer_2.c **** *  and the PWM with a pseudo random output.
 648:.\Generated_Source\PSoC4/Timer_2.c **** *
 649:.\Generated_Source\PSoC4/Timer_2.c **** * Parameters:
 650:.\Generated_Source\PSoC4/Timer_2.c **** *  counterMode: Enumerated counter type values
 651:.\Generated_Source\PSoC4/Timer_2.c **** *   Values:
 652:.\Generated_Source\PSoC4/Timer_2.c **** *     - Timer_2_COUNT_UP       - Counts up
 653:.\Generated_Source\PSoC4/Timer_2.c **** *     - Timer_2_COUNT_DOWN     - Counts down
 654:.\Generated_Source\PSoC4/Timer_2.c **** *     - Timer_2_COUNT_UPDOWN0  - Counts up and down. Terminal count
 655:.\Generated_Source\PSoC4/Timer_2.c **** *                                         generated when counter reaches 0
 656:.\Generated_Source\PSoC4/Timer_2.c **** *     - Timer_2_COUNT_UPDOWN1  - Counts up and down. Terminal count
 657:.\Generated_Source\PSoC4/Timer_2.c **** *                                         generated both when counter reaches 0
 658:.\Generated_Source\PSoC4/Timer_2.c **** *                                         and period
 659:.\Generated_Source\PSoC4/Timer_2.c **** *
 660:.\Generated_Source\PSoC4/Timer_2.c **** * Return:
 661:.\Generated_Source\PSoC4/Timer_2.c **** *  None
 662:.\Generated_Source\PSoC4/Timer_2.c **** *
ARM GAS  C:\Users\Petro\AppData\Local\Temp\cc0Wxiax.s 			page 27


 663:.\Generated_Source\PSoC4/Timer_2.c **** *******************************************************************************/
 664:.\Generated_Source\PSoC4/Timer_2.c **** void Timer_2_SetCounterMode(uint32 counterMode)
 665:.\Generated_Source\PSoC4/Timer_2.c **** {
 821              		.loc 1 665 0
 822              		.cfi_startproc
 823 0000 90B5     		push	{r4, r7, lr}
 824              		.cfi_def_cfa_offset 12
 825              		.cfi_offset 4, -12
 826              		.cfi_offset 7, -8
 827              		.cfi_offset 14, -4
 828 0002 85B0     		sub	sp, sp, #20
 829              		.cfi_def_cfa_offset 32
 830 0004 00AF     		add	r7, sp, #0
 831              		.cfi_def_cfa_register 7
 832 0006 7860     		str	r0, [r7, #4]
 666:.\Generated_Source\PSoC4/Timer_2.c ****     uint8 enableInterrupts;
 667:.\Generated_Source\PSoC4/Timer_2.c **** 
 668:.\Generated_Source\PSoC4/Timer_2.c ****     enableInterrupts = CyEnterCriticalSection();
 833              		.loc 1 668 0
 834 0008 0F23     		mov	r3, #15
 835 000a FC18     		add	r4, r7, r3
 836 000c FFF7FEFF 		bl	CyEnterCriticalSection
 837 0010 031C     		mov	r3, r0
 838 0012 2370     		strb	r3, [r4]
 669:.\Generated_Source\PSoC4/Timer_2.c **** 
 670:.\Generated_Source\PSoC4/Timer_2.c ****     Timer_2_CONTROL_REG &= (uint32)~Timer_2_UPDOWN_MASK;
 839              		.loc 1 670 0
 840 0014 0A4B     		ldr	r3, .L49
 841 0016 0A4A     		ldr	r2, .L49
 842 0018 1268     		ldr	r2, [r2]
 843 001a 0A49     		ldr	r1, .L49+4
 844 001c 0A40     		and	r2, r1
 845 001e 1A60     		str	r2, [r3]
 671:.\Generated_Source\PSoC4/Timer_2.c ****     Timer_2_CONTROL_REG |= counterMode;
 846              		.loc 1 671 0
 847 0020 074B     		ldr	r3, .L49
 848 0022 074A     		ldr	r2, .L49
 849 0024 1168     		ldr	r1, [r2]
 850 0026 7A68     		ldr	r2, [r7, #4]
 851 0028 0A43     		orr	r2, r1
 852 002a 1A60     		str	r2, [r3]
 672:.\Generated_Source\PSoC4/Timer_2.c **** 
 673:.\Generated_Source\PSoC4/Timer_2.c ****     CyExitCriticalSection(enableInterrupts);
 853              		.loc 1 673 0
 854 002c 0F23     		mov	r3, #15
 855 002e FB18     		add	r3, r7, r3
 856 0030 1B78     		ldrb	r3, [r3]
 857 0032 181C     		mov	r0, r3
 858 0034 FFF7FEFF 		bl	CyExitCriticalSection
 674:.\Generated_Source\PSoC4/Timer_2.c **** }
 859              		.loc 1 674 0
 860 0038 BD46     		mov	sp, r7
 861 003a 05B0     		add	sp, sp, #20
 862              		@ sp needed
 863 003c 90BD     		pop	{r4, r7, pc}
 864              	.L50:
 865 003e C046     		.align	2
ARM GAS  C:\Users\Petro\AppData\Local\Temp\cc0Wxiax.s 			page 28


 866              	.L49:
 867 0040 00012040 		.word	1075839232
 868 0044 FFFFFCFF 		.word	-196609
 869              		.cfi_endproc
 870              	.LFE17:
 871              		.size	Timer_2_SetCounterMode, .-Timer_2_SetCounterMode
 872              		.section	.text.Timer_2_WritePeriod,"ax",%progbits
 873              		.align	2
 874              		.global	Timer_2_WritePeriod
 875              		.code	16
 876              		.thumb_func
 877              		.type	Timer_2_WritePeriod, %function
 878              	Timer_2_WritePeriod:
 879              	.LFB18:
 675:.\Generated_Source\PSoC4/Timer_2.c **** 
 676:.\Generated_Source\PSoC4/Timer_2.c **** 
 677:.\Generated_Source\PSoC4/Timer_2.c **** /*******************************************************************************
 678:.\Generated_Source\PSoC4/Timer_2.c **** * Function Name: Timer_2_WritePeriod
 679:.\Generated_Source\PSoC4/Timer_2.c **** ********************************************************************************
 680:.\Generated_Source\PSoC4/Timer_2.c **** *
 681:.\Generated_Source\PSoC4/Timer_2.c **** * Summary:
 682:.\Generated_Source\PSoC4/Timer_2.c **** *  Writes the 16 bit period register with the new period value.
 683:.\Generated_Source\PSoC4/Timer_2.c **** *  To cause the counter to count for N cycles this register should be written
 684:.\Generated_Source\PSoC4/Timer_2.c **** *  with N-1 (counts from 0 to period inclusive).
 685:.\Generated_Source\PSoC4/Timer_2.c **** *
 686:.\Generated_Source\PSoC4/Timer_2.c **** * Parameters:
 687:.\Generated_Source\PSoC4/Timer_2.c **** *  period: Period value
 688:.\Generated_Source\PSoC4/Timer_2.c **** *
 689:.\Generated_Source\PSoC4/Timer_2.c **** * Return:
 690:.\Generated_Source\PSoC4/Timer_2.c **** *  None
 691:.\Generated_Source\PSoC4/Timer_2.c **** *
 692:.\Generated_Source\PSoC4/Timer_2.c **** *******************************************************************************/
 693:.\Generated_Source\PSoC4/Timer_2.c **** void Timer_2_WritePeriod(uint32 period)
 694:.\Generated_Source\PSoC4/Timer_2.c **** {
 880              		.loc 1 694 0
 881              		.cfi_startproc
 882 0000 80B5     		push	{r7, lr}
 883              		.cfi_def_cfa_offset 8
 884              		.cfi_offset 7, -8
 885              		.cfi_offset 14, -4
 886 0002 82B0     		sub	sp, sp, #8
 887              		.cfi_def_cfa_offset 16
 888 0004 00AF     		add	r7, sp, #0
 889              		.cfi_def_cfa_register 7
 890 0006 7860     		str	r0, [r7, #4]
 695:.\Generated_Source\PSoC4/Timer_2.c ****     Timer_2_PERIOD_REG = (period & Timer_2_16BIT_MASK);
 891              		.loc 1 695 0
 892 0008 034B     		ldr	r3, .L52
 893 000a 7A68     		ldr	r2, [r7, #4]
 894 000c 1204     		lsl	r2, r2, #16
 895 000e 120C     		lsr	r2, r2, #16
 896 0010 1A60     		str	r2, [r3]
 696:.\Generated_Source\PSoC4/Timer_2.c **** }
 897              		.loc 1 696 0
 898 0012 BD46     		mov	sp, r7
 899 0014 02B0     		add	sp, sp, #8
 900              		@ sp needed
ARM GAS  C:\Users\Petro\AppData\Local\Temp\cc0Wxiax.s 			page 29


 901 0016 80BD     		pop	{r7, pc}
 902              	.L53:
 903              		.align	2
 904              	.L52:
 905 0018 14012040 		.word	1075839252
 906              		.cfi_endproc
 907              	.LFE18:
 908              		.size	Timer_2_WritePeriod, .-Timer_2_WritePeriod
 909              		.section	.text.Timer_2_ReadPeriod,"ax",%progbits
 910              		.align	2
 911              		.global	Timer_2_ReadPeriod
 912              		.code	16
 913              		.thumb_func
 914              		.type	Timer_2_ReadPeriod, %function
 915              	Timer_2_ReadPeriod:
 916              	.LFB19:
 697:.\Generated_Source\PSoC4/Timer_2.c **** 
 698:.\Generated_Source\PSoC4/Timer_2.c **** 
 699:.\Generated_Source\PSoC4/Timer_2.c **** /*******************************************************************************
 700:.\Generated_Source\PSoC4/Timer_2.c **** * Function Name: Timer_2_ReadPeriod
 701:.\Generated_Source\PSoC4/Timer_2.c **** ********************************************************************************
 702:.\Generated_Source\PSoC4/Timer_2.c **** *
 703:.\Generated_Source\PSoC4/Timer_2.c **** * Summary:
 704:.\Generated_Source\PSoC4/Timer_2.c **** *  Reads the 16 bit period register.
 705:.\Generated_Source\PSoC4/Timer_2.c **** *
 706:.\Generated_Source\PSoC4/Timer_2.c **** * Parameters:
 707:.\Generated_Source\PSoC4/Timer_2.c **** *  None
 708:.\Generated_Source\PSoC4/Timer_2.c **** *
 709:.\Generated_Source\PSoC4/Timer_2.c **** * Return:
 710:.\Generated_Source\PSoC4/Timer_2.c **** *  Period value
 711:.\Generated_Source\PSoC4/Timer_2.c **** *
 712:.\Generated_Source\PSoC4/Timer_2.c **** *******************************************************************************/
 713:.\Generated_Source\PSoC4/Timer_2.c **** uint32 Timer_2_ReadPeriod(void)
 714:.\Generated_Source\PSoC4/Timer_2.c **** {
 917              		.loc 1 714 0
 918              		.cfi_startproc
 919 0000 80B5     		push	{r7, lr}
 920              		.cfi_def_cfa_offset 8
 921              		.cfi_offset 7, -8
 922              		.cfi_offset 14, -4
 923 0002 00AF     		add	r7, sp, #0
 924              		.cfi_def_cfa_register 7
 715:.\Generated_Source\PSoC4/Timer_2.c ****     return (Timer_2_PERIOD_REG & Timer_2_16BIT_MASK);
 925              		.loc 1 715 0
 926 0004 034B     		ldr	r3, .L56
 927 0006 1B68     		ldr	r3, [r3]
 928 0008 1B04     		lsl	r3, r3, #16
 929 000a 1B0C     		lsr	r3, r3, #16
 716:.\Generated_Source\PSoC4/Timer_2.c **** }
 930              		.loc 1 716 0
 931 000c 181C     		mov	r0, r3
 932 000e BD46     		mov	sp, r7
 933              		@ sp needed
 934 0010 80BD     		pop	{r7, pc}
 935              	.L57:
 936 0012 C046     		.align	2
 937              	.L56:
ARM GAS  C:\Users\Petro\AppData\Local\Temp\cc0Wxiax.s 			page 30


 938 0014 14012040 		.word	1075839252
 939              		.cfi_endproc
 940              	.LFE19:
 941              		.size	Timer_2_ReadPeriod, .-Timer_2_ReadPeriod
 942              		.section	.text.Timer_2_SetCompareSwap,"ax",%progbits
 943              		.align	2
 944              		.global	Timer_2_SetCompareSwap
 945              		.code	16
 946              		.thumb_func
 947              		.type	Timer_2_SetCompareSwap, %function
 948              	Timer_2_SetCompareSwap:
 949              	.LFB20:
 717:.\Generated_Source\PSoC4/Timer_2.c **** 
 718:.\Generated_Source\PSoC4/Timer_2.c **** 
 719:.\Generated_Source\PSoC4/Timer_2.c **** /*******************************************************************************
 720:.\Generated_Source\PSoC4/Timer_2.c **** * Function Name: Timer_2_SetCompareSwap
 721:.\Generated_Source\PSoC4/Timer_2.c **** ********************************************************************************
 722:.\Generated_Source\PSoC4/Timer_2.c **** *
 723:.\Generated_Source\PSoC4/Timer_2.c **** * Summary:
 724:.\Generated_Source\PSoC4/Timer_2.c **** *  Writes the register that controls whether the compare registers are
 725:.\Generated_Source\PSoC4/Timer_2.c **** *  swapped. When enabled in the Timer/Counter mode(without capture) the swap
 726:.\Generated_Source\PSoC4/Timer_2.c **** *  occurs at a TC event. In the PWM mode the swap occurs at the next TC event
 727:.\Generated_Source\PSoC4/Timer_2.c **** *  following a hardware switch event.
 728:.\Generated_Source\PSoC4/Timer_2.c **** *
 729:.\Generated_Source\PSoC4/Timer_2.c **** * Parameters:
 730:.\Generated_Source\PSoC4/Timer_2.c **** *  swapEnable
 731:.\Generated_Source\PSoC4/Timer_2.c **** *   Values:
 732:.\Generated_Source\PSoC4/Timer_2.c **** *     - 0 - Disable swap
 733:.\Generated_Source\PSoC4/Timer_2.c **** *     - 1 - Enable swap
 734:.\Generated_Source\PSoC4/Timer_2.c **** *
 735:.\Generated_Source\PSoC4/Timer_2.c **** * Return:
 736:.\Generated_Source\PSoC4/Timer_2.c **** *  None
 737:.\Generated_Source\PSoC4/Timer_2.c **** *
 738:.\Generated_Source\PSoC4/Timer_2.c **** *******************************************************************************/
 739:.\Generated_Source\PSoC4/Timer_2.c **** void Timer_2_SetCompareSwap(uint32 swapEnable)
 740:.\Generated_Source\PSoC4/Timer_2.c **** {
 950              		.loc 1 740 0
 951              		.cfi_startproc
 952 0000 90B5     		push	{r4, r7, lr}
 953              		.cfi_def_cfa_offset 12
 954              		.cfi_offset 4, -12
 955              		.cfi_offset 7, -8
 956              		.cfi_offset 14, -4
 957 0002 85B0     		sub	sp, sp, #20
 958              		.cfi_def_cfa_offset 32
 959 0004 00AF     		add	r7, sp, #0
 960              		.cfi_def_cfa_register 7
 961 0006 7860     		str	r0, [r7, #4]
 741:.\Generated_Source\PSoC4/Timer_2.c ****     uint8 enableInterrupts;
 742:.\Generated_Source\PSoC4/Timer_2.c **** 
 743:.\Generated_Source\PSoC4/Timer_2.c ****     enableInterrupts = CyEnterCriticalSection();
 962              		.loc 1 743 0
 963 0008 0F23     		mov	r3, #15
 964 000a FC18     		add	r4, r7, r3
 965 000c FFF7FEFF 		bl	CyEnterCriticalSection
 966 0010 031C     		mov	r3, r0
 967 0012 2370     		strb	r3, [r4]
ARM GAS  C:\Users\Petro\AppData\Local\Temp\cc0Wxiax.s 			page 31


 744:.\Generated_Source\PSoC4/Timer_2.c **** 
 745:.\Generated_Source\PSoC4/Timer_2.c ****     Timer_2_CONTROL_REG &= (uint32)~Timer_2_RELOAD_CC_MASK;
 968              		.loc 1 745 0
 969 0014 0B4B     		ldr	r3, .L59
 970 0016 0B4A     		ldr	r2, .L59
 971 0018 1268     		ldr	r2, [r2]
 972 001a 0121     		mov	r1, #1
 973 001c 8A43     		bic	r2, r1
 974 001e 1A60     		str	r2, [r3]
 746:.\Generated_Source\PSoC4/Timer_2.c ****     Timer_2_CONTROL_REG |= (swapEnable & Timer_2_1BIT_MASK);
 975              		.loc 1 746 0
 976 0020 084B     		ldr	r3, .L59
 977 0022 084A     		ldr	r2, .L59
 978 0024 1168     		ldr	r1, [r2]
 979 0026 7A68     		ldr	r2, [r7, #4]
 980 0028 0120     		mov	r0, #1
 981 002a 0240     		and	r2, r0
 982 002c 0A43     		orr	r2, r1
 983 002e 1A60     		str	r2, [r3]
 747:.\Generated_Source\PSoC4/Timer_2.c **** 
 748:.\Generated_Source\PSoC4/Timer_2.c ****     CyExitCriticalSection(enableInterrupts);
 984              		.loc 1 748 0
 985 0030 0F23     		mov	r3, #15
 986 0032 FB18     		add	r3, r7, r3
 987 0034 1B78     		ldrb	r3, [r3]
 988 0036 181C     		mov	r0, r3
 989 0038 FFF7FEFF 		bl	CyExitCriticalSection
 749:.\Generated_Source\PSoC4/Timer_2.c **** }
 990              		.loc 1 749 0
 991 003c BD46     		mov	sp, r7
 992 003e 05B0     		add	sp, sp, #20
 993              		@ sp needed
 994 0040 90BD     		pop	{r4, r7, pc}
 995              	.L60:
 996 0042 C046     		.align	2
 997              	.L59:
 998 0044 00012040 		.word	1075839232
 999              		.cfi_endproc
 1000              	.LFE20:
 1001              		.size	Timer_2_SetCompareSwap, .-Timer_2_SetCompareSwap
 1002              		.section	.text.Timer_2_WritePeriodBuf,"ax",%progbits
 1003              		.align	2
 1004              		.global	Timer_2_WritePeriodBuf
 1005              		.code	16
 1006              		.thumb_func
 1007              		.type	Timer_2_WritePeriodBuf, %function
 1008              	Timer_2_WritePeriodBuf:
 1009              	.LFB21:
 750:.\Generated_Source\PSoC4/Timer_2.c **** 
 751:.\Generated_Source\PSoC4/Timer_2.c **** 
 752:.\Generated_Source\PSoC4/Timer_2.c **** /*******************************************************************************
 753:.\Generated_Source\PSoC4/Timer_2.c **** * Function Name: Timer_2_WritePeriodBuf
 754:.\Generated_Source\PSoC4/Timer_2.c **** ********************************************************************************
 755:.\Generated_Source\PSoC4/Timer_2.c **** *
 756:.\Generated_Source\PSoC4/Timer_2.c **** * Summary:
 757:.\Generated_Source\PSoC4/Timer_2.c **** *  Writes the 16 bit period buf register with the new period value.
 758:.\Generated_Source\PSoC4/Timer_2.c **** *
ARM GAS  C:\Users\Petro\AppData\Local\Temp\cc0Wxiax.s 			page 32


 759:.\Generated_Source\PSoC4/Timer_2.c **** * Parameters:
 760:.\Generated_Source\PSoC4/Timer_2.c **** *  periodBuf: Period value
 761:.\Generated_Source\PSoC4/Timer_2.c **** *
 762:.\Generated_Source\PSoC4/Timer_2.c **** * Return:
 763:.\Generated_Source\PSoC4/Timer_2.c **** *  None
 764:.\Generated_Source\PSoC4/Timer_2.c **** *
 765:.\Generated_Source\PSoC4/Timer_2.c **** *******************************************************************************/
 766:.\Generated_Source\PSoC4/Timer_2.c **** void Timer_2_WritePeriodBuf(uint32 periodBuf)
 767:.\Generated_Source\PSoC4/Timer_2.c **** {
 1010              		.loc 1 767 0
 1011              		.cfi_startproc
 1012 0000 80B5     		push	{r7, lr}
 1013              		.cfi_def_cfa_offset 8
 1014              		.cfi_offset 7, -8
 1015              		.cfi_offset 14, -4
 1016 0002 82B0     		sub	sp, sp, #8
 1017              		.cfi_def_cfa_offset 16
 1018 0004 00AF     		add	r7, sp, #0
 1019              		.cfi_def_cfa_register 7
 1020 0006 7860     		str	r0, [r7, #4]
 768:.\Generated_Source\PSoC4/Timer_2.c ****     Timer_2_PERIOD_BUF_REG = (periodBuf & Timer_2_16BIT_MASK);
 1021              		.loc 1 768 0
 1022 0008 034B     		ldr	r3, .L62
 1023 000a 7A68     		ldr	r2, [r7, #4]
 1024 000c 1204     		lsl	r2, r2, #16
 1025 000e 120C     		lsr	r2, r2, #16
 1026 0010 1A60     		str	r2, [r3]
 769:.\Generated_Source\PSoC4/Timer_2.c **** }
 1027              		.loc 1 769 0
 1028 0012 BD46     		mov	sp, r7
 1029 0014 02B0     		add	sp, sp, #8
 1030              		@ sp needed
 1031 0016 80BD     		pop	{r7, pc}
 1032              	.L63:
 1033              		.align	2
 1034              	.L62:
 1035 0018 18012040 		.word	1075839256
 1036              		.cfi_endproc
 1037              	.LFE21:
 1038              		.size	Timer_2_WritePeriodBuf, .-Timer_2_WritePeriodBuf
 1039              		.section	.text.Timer_2_ReadPeriodBuf,"ax",%progbits
 1040              		.align	2
 1041              		.global	Timer_2_ReadPeriodBuf
 1042              		.code	16
 1043              		.thumb_func
 1044              		.type	Timer_2_ReadPeriodBuf, %function
 1045              	Timer_2_ReadPeriodBuf:
 1046              	.LFB22:
 770:.\Generated_Source\PSoC4/Timer_2.c **** 
 771:.\Generated_Source\PSoC4/Timer_2.c **** 
 772:.\Generated_Source\PSoC4/Timer_2.c **** /*******************************************************************************
 773:.\Generated_Source\PSoC4/Timer_2.c **** * Function Name: Timer_2_ReadPeriodBuf
 774:.\Generated_Source\PSoC4/Timer_2.c **** ********************************************************************************
 775:.\Generated_Source\PSoC4/Timer_2.c **** *
 776:.\Generated_Source\PSoC4/Timer_2.c **** * Summary:
 777:.\Generated_Source\PSoC4/Timer_2.c **** *  Reads the 16 bit period buf register.
 778:.\Generated_Source\PSoC4/Timer_2.c **** *
ARM GAS  C:\Users\Petro\AppData\Local\Temp\cc0Wxiax.s 			page 33


 779:.\Generated_Source\PSoC4/Timer_2.c **** * Parameters:
 780:.\Generated_Source\PSoC4/Timer_2.c **** *  None
 781:.\Generated_Source\PSoC4/Timer_2.c **** *
 782:.\Generated_Source\PSoC4/Timer_2.c **** * Return:
 783:.\Generated_Source\PSoC4/Timer_2.c **** *  Period value
 784:.\Generated_Source\PSoC4/Timer_2.c **** *
 785:.\Generated_Source\PSoC4/Timer_2.c **** *******************************************************************************/
 786:.\Generated_Source\PSoC4/Timer_2.c **** uint32 Timer_2_ReadPeriodBuf(void)
 787:.\Generated_Source\PSoC4/Timer_2.c **** {
 1047              		.loc 1 787 0
 1048              		.cfi_startproc
 1049 0000 80B5     		push	{r7, lr}
 1050              		.cfi_def_cfa_offset 8
 1051              		.cfi_offset 7, -8
 1052              		.cfi_offset 14, -4
 1053 0002 00AF     		add	r7, sp, #0
 1054              		.cfi_def_cfa_register 7
 788:.\Generated_Source\PSoC4/Timer_2.c ****     return (Timer_2_PERIOD_BUF_REG & Timer_2_16BIT_MASK);
 1055              		.loc 1 788 0
 1056 0004 034B     		ldr	r3, .L66
 1057 0006 1B68     		ldr	r3, [r3]
 1058 0008 1B04     		lsl	r3, r3, #16
 1059 000a 1B0C     		lsr	r3, r3, #16
 789:.\Generated_Source\PSoC4/Timer_2.c **** }
 1060              		.loc 1 789 0
 1061 000c 181C     		mov	r0, r3
 1062 000e BD46     		mov	sp, r7
 1063              		@ sp needed
 1064 0010 80BD     		pop	{r7, pc}
 1065              	.L67:
 1066 0012 C046     		.align	2
 1067              	.L66:
 1068 0014 18012040 		.word	1075839256
 1069              		.cfi_endproc
 1070              	.LFE22:
 1071              		.size	Timer_2_ReadPeriodBuf, .-Timer_2_ReadPeriodBuf
 1072              		.section	.text.Timer_2_SetPeriodSwap,"ax",%progbits
 1073              		.align	2
 1074              		.global	Timer_2_SetPeriodSwap
 1075              		.code	16
 1076              		.thumb_func
 1077              		.type	Timer_2_SetPeriodSwap, %function
 1078              	Timer_2_SetPeriodSwap:
 1079              	.LFB23:
 790:.\Generated_Source\PSoC4/Timer_2.c **** 
 791:.\Generated_Source\PSoC4/Timer_2.c **** 
 792:.\Generated_Source\PSoC4/Timer_2.c **** /*******************************************************************************
 793:.\Generated_Source\PSoC4/Timer_2.c **** * Function Name: Timer_2_SetPeriodSwap
 794:.\Generated_Source\PSoC4/Timer_2.c **** ********************************************************************************
 795:.\Generated_Source\PSoC4/Timer_2.c **** *
 796:.\Generated_Source\PSoC4/Timer_2.c **** * Summary:
 797:.\Generated_Source\PSoC4/Timer_2.c **** *  Writes the register that controls whether the period registers are
 798:.\Generated_Source\PSoC4/Timer_2.c **** *  swapped. When enabled in Timer/Counter mode the swap occurs at a TC event.
 799:.\Generated_Source\PSoC4/Timer_2.c **** *  In the PWM mode the swap occurs at the next TC event following a hardware
 800:.\Generated_Source\PSoC4/Timer_2.c **** *  switch event.
 801:.\Generated_Source\PSoC4/Timer_2.c **** *
 802:.\Generated_Source\PSoC4/Timer_2.c **** * Parameters:
ARM GAS  C:\Users\Petro\AppData\Local\Temp\cc0Wxiax.s 			page 34


 803:.\Generated_Source\PSoC4/Timer_2.c **** *  swapEnable
 804:.\Generated_Source\PSoC4/Timer_2.c **** *   Values:
 805:.\Generated_Source\PSoC4/Timer_2.c **** *     - 0 - Disable swap
 806:.\Generated_Source\PSoC4/Timer_2.c **** *     - 1 - Enable swap
 807:.\Generated_Source\PSoC4/Timer_2.c **** *
 808:.\Generated_Source\PSoC4/Timer_2.c **** * Return:
 809:.\Generated_Source\PSoC4/Timer_2.c **** *  None
 810:.\Generated_Source\PSoC4/Timer_2.c **** *
 811:.\Generated_Source\PSoC4/Timer_2.c **** *******************************************************************************/
 812:.\Generated_Source\PSoC4/Timer_2.c **** void Timer_2_SetPeriodSwap(uint32 swapEnable)
 813:.\Generated_Source\PSoC4/Timer_2.c **** {
 1080              		.loc 1 813 0
 1081              		.cfi_startproc
 1082 0000 90B5     		push	{r4, r7, lr}
 1083              		.cfi_def_cfa_offset 12
 1084              		.cfi_offset 4, -12
 1085              		.cfi_offset 7, -8
 1086              		.cfi_offset 14, -4
 1087 0002 85B0     		sub	sp, sp, #20
 1088              		.cfi_def_cfa_offset 32
 1089 0004 00AF     		add	r7, sp, #0
 1090              		.cfi_def_cfa_register 7
 1091 0006 7860     		str	r0, [r7, #4]
 814:.\Generated_Source\PSoC4/Timer_2.c ****     uint8 enableInterrupts;
 815:.\Generated_Source\PSoC4/Timer_2.c **** 
 816:.\Generated_Source\PSoC4/Timer_2.c ****     enableInterrupts = CyEnterCriticalSection();
 1092              		.loc 1 816 0
 1093 0008 0F23     		mov	r3, #15
 1094 000a FC18     		add	r4, r7, r3
 1095 000c FFF7FEFF 		bl	CyEnterCriticalSection
 1096 0010 031C     		mov	r3, r0
 1097 0012 2370     		strb	r3, [r4]
 817:.\Generated_Source\PSoC4/Timer_2.c **** 
 818:.\Generated_Source\PSoC4/Timer_2.c ****     Timer_2_CONTROL_REG &= (uint32)~Timer_2_RELOAD_PERIOD_MASK;
 1098              		.loc 1 818 0
 1099 0014 0B4B     		ldr	r3, .L69
 1100 0016 0B4A     		ldr	r2, .L69
 1101 0018 1268     		ldr	r2, [r2]
 1102 001a 0221     		mov	r1, #2
 1103 001c 8A43     		bic	r2, r1
 1104 001e 1A60     		str	r2, [r3]
 819:.\Generated_Source\PSoC4/Timer_2.c ****     Timer_2_CONTROL_REG |= ((uint32)((swapEnable & Timer_2_1BIT_MASK) <<
 1105              		.loc 1 819 0
 1106 0020 084B     		ldr	r3, .L69
 1107 0022 084A     		ldr	r2, .L69
 1108 0024 1168     		ldr	r1, [r2]
 1109 0026 7A68     		ldr	r2, [r7, #4]
 1110 0028 0120     		mov	r0, #1
 1111 002a 0240     		and	r2, r0
 1112 002c 5200     		lsl	r2, r2, #1
 1113 002e 0A43     		orr	r2, r1
 1114 0030 1A60     		str	r2, [r3]
 820:.\Generated_Source\PSoC4/Timer_2.c ****                                                             Timer_2_RELOAD_PERIOD_SHIFT));
 821:.\Generated_Source\PSoC4/Timer_2.c **** 
 822:.\Generated_Source\PSoC4/Timer_2.c ****     CyExitCriticalSection(enableInterrupts);
 1115              		.loc 1 822 0
 1116 0032 0F23     		mov	r3, #15
ARM GAS  C:\Users\Petro\AppData\Local\Temp\cc0Wxiax.s 			page 35


 1117 0034 FB18     		add	r3, r7, r3
 1118 0036 1B78     		ldrb	r3, [r3]
 1119 0038 181C     		mov	r0, r3
 1120 003a FFF7FEFF 		bl	CyExitCriticalSection
 823:.\Generated_Source\PSoC4/Timer_2.c **** }
 1121              		.loc 1 823 0
 1122 003e BD46     		mov	sp, r7
 1123 0040 05B0     		add	sp, sp, #20
 1124              		@ sp needed
 1125 0042 90BD     		pop	{r4, r7, pc}
 1126              	.L70:
 1127              		.align	2
 1128              	.L69:
 1129 0044 00012040 		.word	1075839232
 1130              		.cfi_endproc
 1131              	.LFE23:
 1132              		.size	Timer_2_SetPeriodSwap, .-Timer_2_SetPeriodSwap
 1133              		.section	.text.Timer_2_WriteCompare,"ax",%progbits
 1134              		.align	2
 1135              		.global	Timer_2_WriteCompare
 1136              		.code	16
 1137              		.thumb_func
 1138              		.type	Timer_2_WriteCompare, %function
 1139              	Timer_2_WriteCompare:
 1140              	.LFB24:
 824:.\Generated_Source\PSoC4/Timer_2.c **** 
 825:.\Generated_Source\PSoC4/Timer_2.c **** 
 826:.\Generated_Source\PSoC4/Timer_2.c **** /*******************************************************************************
 827:.\Generated_Source\PSoC4/Timer_2.c **** * Function Name: Timer_2_WriteCompare
 828:.\Generated_Source\PSoC4/Timer_2.c **** ********************************************************************************
 829:.\Generated_Source\PSoC4/Timer_2.c **** *
 830:.\Generated_Source\PSoC4/Timer_2.c **** * Summary:
 831:.\Generated_Source\PSoC4/Timer_2.c **** *  Writes the 16 bit compare register with the new compare value. Not
 832:.\Generated_Source\PSoC4/Timer_2.c **** *  applicable for Timer/Counter with Capture or in Quadrature Decoder modes.
 833:.\Generated_Source\PSoC4/Timer_2.c **** *
 834:.\Generated_Source\PSoC4/Timer_2.c **** * Parameters:
 835:.\Generated_Source\PSoC4/Timer_2.c **** *  compare: Compare value
 836:.\Generated_Source\PSoC4/Timer_2.c **** *
 837:.\Generated_Source\PSoC4/Timer_2.c **** * Return:
 838:.\Generated_Source\PSoC4/Timer_2.c **** *  None
 839:.\Generated_Source\PSoC4/Timer_2.c **** *
 840:.\Generated_Source\PSoC4/Timer_2.c **** * Note:
 841:.\Generated_Source\PSoC4/Timer_2.c **** *  It is not recommended to use the value equal to "0" or equal to 
 842:.\Generated_Source\PSoC4/Timer_2.c **** *  "period value" in Center or Asymmetric align PWM modes on the 
 843:.\Generated_Source\PSoC4/Timer_2.c **** *  PSoC 4100/PSoC 4200 devices.
 844:.\Generated_Source\PSoC4/Timer_2.c **** *  PSoC 4000 devices write the 16 bit compare register with the decremented 
 845:.\Generated_Source\PSoC4/Timer_2.c **** *  compare value in the Up counting mode (except 0x0u), and the incremented 
 846:.\Generated_Source\PSoC4/Timer_2.c **** *  compare value in the Down counting mode (except 0xFFFFu).
 847:.\Generated_Source\PSoC4/Timer_2.c **** *
 848:.\Generated_Source\PSoC4/Timer_2.c **** *******************************************************************************/
 849:.\Generated_Source\PSoC4/Timer_2.c **** void Timer_2_WriteCompare(uint32 compare)
 850:.\Generated_Source\PSoC4/Timer_2.c **** {
 1141              		.loc 1 850 0
 1142              		.cfi_startproc
 1143 0000 80B5     		push	{r7, lr}
 1144              		.cfi_def_cfa_offset 8
 1145              		.cfi_offset 7, -8
ARM GAS  C:\Users\Petro\AppData\Local\Temp\cc0Wxiax.s 			page 36


 1146              		.cfi_offset 14, -4
 1147 0002 82B0     		sub	sp, sp, #8
 1148              		.cfi_def_cfa_offset 16
 1149 0004 00AF     		add	r7, sp, #0
 1150              		.cfi_def_cfa_register 7
 1151 0006 7860     		str	r0, [r7, #4]
 851:.\Generated_Source\PSoC4/Timer_2.c ****     #if (Timer_2_CY_TCPWM_4000)
 852:.\Generated_Source\PSoC4/Timer_2.c ****         uint32 currentMode;
 853:.\Generated_Source\PSoC4/Timer_2.c ****     #endif /* (Timer_2_CY_TCPWM_4000) */
 854:.\Generated_Source\PSoC4/Timer_2.c **** 
 855:.\Generated_Source\PSoC4/Timer_2.c ****     #if (Timer_2_CY_TCPWM_4000)
 856:.\Generated_Source\PSoC4/Timer_2.c ****         currentMode = ((Timer_2_CONTROL_REG & Timer_2_UPDOWN_MASK) >> Timer_2_UPDOWN_SHIFT);
 857:.\Generated_Source\PSoC4/Timer_2.c **** 
 858:.\Generated_Source\PSoC4/Timer_2.c ****         if (((uint32)Timer_2__COUNT_DOWN == currentMode) && (0xFFFFu != compare))
 859:.\Generated_Source\PSoC4/Timer_2.c ****         {
 860:.\Generated_Source\PSoC4/Timer_2.c ****             compare++;
 861:.\Generated_Source\PSoC4/Timer_2.c ****         }
 862:.\Generated_Source\PSoC4/Timer_2.c ****         else if (((uint32)Timer_2__COUNT_UP == currentMode) && (0u != compare))
 863:.\Generated_Source\PSoC4/Timer_2.c ****         {
 864:.\Generated_Source\PSoC4/Timer_2.c ****             compare--;
 865:.\Generated_Source\PSoC4/Timer_2.c ****         }
 866:.\Generated_Source\PSoC4/Timer_2.c ****         else
 867:.\Generated_Source\PSoC4/Timer_2.c ****         {
 868:.\Generated_Source\PSoC4/Timer_2.c ****         }
 869:.\Generated_Source\PSoC4/Timer_2.c ****         
 870:.\Generated_Source\PSoC4/Timer_2.c ****     
 871:.\Generated_Source\PSoC4/Timer_2.c ****     #endif /* (Timer_2_CY_TCPWM_4000) */
 872:.\Generated_Source\PSoC4/Timer_2.c ****     
 873:.\Generated_Source\PSoC4/Timer_2.c ****     Timer_2_COMP_CAP_REG = (compare & Timer_2_16BIT_MASK);
 1152              		.loc 1 873 0
 1153 0008 034B     		ldr	r3, .L72
 1154 000a 7A68     		ldr	r2, [r7, #4]
 1155 000c 1204     		lsl	r2, r2, #16
 1156 000e 120C     		lsr	r2, r2, #16
 1157 0010 1A60     		str	r2, [r3]
 874:.\Generated_Source\PSoC4/Timer_2.c **** }
 1158              		.loc 1 874 0
 1159 0012 BD46     		mov	sp, r7
 1160 0014 02B0     		add	sp, sp, #8
 1161              		@ sp needed
 1162 0016 80BD     		pop	{r7, pc}
 1163              	.L73:
 1164              		.align	2
 1165              	.L72:
 1166 0018 0C012040 		.word	1075839244
 1167              		.cfi_endproc
 1168              	.LFE24:
 1169              		.size	Timer_2_WriteCompare, .-Timer_2_WriteCompare
 1170              		.section	.text.Timer_2_ReadCompare,"ax",%progbits
 1171              		.align	2
 1172              		.global	Timer_2_ReadCompare
 1173              		.code	16
 1174              		.thumb_func
 1175              		.type	Timer_2_ReadCompare, %function
 1176              	Timer_2_ReadCompare:
 1177              	.LFB25:
 875:.\Generated_Source\PSoC4/Timer_2.c **** 
ARM GAS  C:\Users\Petro\AppData\Local\Temp\cc0Wxiax.s 			page 37


 876:.\Generated_Source\PSoC4/Timer_2.c **** 
 877:.\Generated_Source\PSoC4/Timer_2.c **** /*******************************************************************************
 878:.\Generated_Source\PSoC4/Timer_2.c **** * Function Name: Timer_2_ReadCompare
 879:.\Generated_Source\PSoC4/Timer_2.c **** ********************************************************************************
 880:.\Generated_Source\PSoC4/Timer_2.c **** *
 881:.\Generated_Source\PSoC4/Timer_2.c **** * Summary:
 882:.\Generated_Source\PSoC4/Timer_2.c **** *  Reads the compare register. Not applicable for Timer/Counter with Capture
 883:.\Generated_Source\PSoC4/Timer_2.c **** *  or in Quadrature Decoder modes.
 884:.\Generated_Source\PSoC4/Timer_2.c **** *  PSoC 4000 devices read the incremented compare register value in the 
 885:.\Generated_Source\PSoC4/Timer_2.c **** *  Up counting mode (except 0xFFFFu), and the decremented value in the 
 886:.\Generated_Source\PSoC4/Timer_2.c **** *  Down counting mode (except 0x0u).
 887:.\Generated_Source\PSoC4/Timer_2.c **** *
 888:.\Generated_Source\PSoC4/Timer_2.c **** * Parameters:
 889:.\Generated_Source\PSoC4/Timer_2.c **** *  None
 890:.\Generated_Source\PSoC4/Timer_2.c **** *
 891:.\Generated_Source\PSoC4/Timer_2.c **** * Return:
 892:.\Generated_Source\PSoC4/Timer_2.c **** *  Compare value
 893:.\Generated_Source\PSoC4/Timer_2.c **** *
 894:.\Generated_Source\PSoC4/Timer_2.c **** * Note:
 895:.\Generated_Source\PSoC4/Timer_2.c **** *  PSoC 4000 devices read the incremented compare register value in the 
 896:.\Generated_Source\PSoC4/Timer_2.c **** *  Up counting mode (except 0xFFFFu), and the decremented value in the 
 897:.\Generated_Source\PSoC4/Timer_2.c **** *  Down counting mode (except 0x0u).
 898:.\Generated_Source\PSoC4/Timer_2.c **** *
 899:.\Generated_Source\PSoC4/Timer_2.c **** *******************************************************************************/
 900:.\Generated_Source\PSoC4/Timer_2.c **** uint32 Timer_2_ReadCompare(void)
 901:.\Generated_Source\PSoC4/Timer_2.c **** {
 1178              		.loc 1 901 0
 1179              		.cfi_startproc
 1180 0000 80B5     		push	{r7, lr}
 1181              		.cfi_def_cfa_offset 8
 1182              		.cfi_offset 7, -8
 1183              		.cfi_offset 14, -4
 1184 0002 00AF     		add	r7, sp, #0
 1185              		.cfi_def_cfa_register 7
 902:.\Generated_Source\PSoC4/Timer_2.c ****     #if (Timer_2_CY_TCPWM_4000)
 903:.\Generated_Source\PSoC4/Timer_2.c ****         uint32 currentMode;
 904:.\Generated_Source\PSoC4/Timer_2.c ****         uint32 regVal;
 905:.\Generated_Source\PSoC4/Timer_2.c ****     #endif /* (Timer_2_CY_TCPWM_4000) */
 906:.\Generated_Source\PSoC4/Timer_2.c **** 
 907:.\Generated_Source\PSoC4/Timer_2.c ****     #if (Timer_2_CY_TCPWM_4000)
 908:.\Generated_Source\PSoC4/Timer_2.c ****         currentMode = ((Timer_2_CONTROL_REG & Timer_2_UPDOWN_MASK) >> Timer_2_UPDOWN_SHIFT);
 909:.\Generated_Source\PSoC4/Timer_2.c ****         
 910:.\Generated_Source\PSoC4/Timer_2.c ****         regVal = Timer_2_COMP_CAP_REG;
 911:.\Generated_Source\PSoC4/Timer_2.c ****         
 912:.\Generated_Source\PSoC4/Timer_2.c ****         if (((uint32)Timer_2__COUNT_DOWN == currentMode) && (0u != regVal))
 913:.\Generated_Source\PSoC4/Timer_2.c ****         {
 914:.\Generated_Source\PSoC4/Timer_2.c ****             regVal--;
 915:.\Generated_Source\PSoC4/Timer_2.c ****         }
 916:.\Generated_Source\PSoC4/Timer_2.c ****         else if (((uint32)Timer_2__COUNT_UP == currentMode) && (0xFFFFu != regVal))
 917:.\Generated_Source\PSoC4/Timer_2.c ****         {
 918:.\Generated_Source\PSoC4/Timer_2.c ****             regVal++;
 919:.\Generated_Source\PSoC4/Timer_2.c ****         }
 920:.\Generated_Source\PSoC4/Timer_2.c ****         else
 921:.\Generated_Source\PSoC4/Timer_2.c ****         {
 922:.\Generated_Source\PSoC4/Timer_2.c ****         }
 923:.\Generated_Source\PSoC4/Timer_2.c **** 
 924:.\Generated_Source\PSoC4/Timer_2.c ****         return (regVal & Timer_2_16BIT_MASK);
ARM GAS  C:\Users\Petro\AppData\Local\Temp\cc0Wxiax.s 			page 38


 925:.\Generated_Source\PSoC4/Timer_2.c ****     #else
 926:.\Generated_Source\PSoC4/Timer_2.c ****         return (Timer_2_COMP_CAP_REG & Timer_2_16BIT_MASK);
 1186              		.loc 1 926 0
 1187 0004 034B     		ldr	r3, .L76
 1188 0006 1B68     		ldr	r3, [r3]
 1189 0008 1B04     		lsl	r3, r3, #16
 1190 000a 1B0C     		lsr	r3, r3, #16
 927:.\Generated_Source\PSoC4/Timer_2.c ****     #endif /* (Timer_2_CY_TCPWM_4000) */
 928:.\Generated_Source\PSoC4/Timer_2.c **** }
 1191              		.loc 1 928 0
 1192 000c 181C     		mov	r0, r3
 1193 000e BD46     		mov	sp, r7
 1194              		@ sp needed
 1195 0010 80BD     		pop	{r7, pc}
 1196              	.L77:
 1197 0012 C046     		.align	2
 1198              	.L76:
 1199 0014 0C012040 		.word	1075839244
 1200              		.cfi_endproc
 1201              	.LFE25:
 1202              		.size	Timer_2_ReadCompare, .-Timer_2_ReadCompare
 1203              		.section	.text.Timer_2_WriteCompareBuf,"ax",%progbits
 1204              		.align	2
 1205              		.global	Timer_2_WriteCompareBuf
 1206              		.code	16
 1207              		.thumb_func
 1208              		.type	Timer_2_WriteCompareBuf, %function
 1209              	Timer_2_WriteCompareBuf:
 1210              	.LFB26:
 929:.\Generated_Source\PSoC4/Timer_2.c **** 
 930:.\Generated_Source\PSoC4/Timer_2.c **** 
 931:.\Generated_Source\PSoC4/Timer_2.c **** /*******************************************************************************
 932:.\Generated_Source\PSoC4/Timer_2.c **** * Function Name: Timer_2_WriteCompareBuf
 933:.\Generated_Source\PSoC4/Timer_2.c **** ********************************************************************************
 934:.\Generated_Source\PSoC4/Timer_2.c **** *
 935:.\Generated_Source\PSoC4/Timer_2.c **** * Summary:
 936:.\Generated_Source\PSoC4/Timer_2.c **** *  Writes the 16 bit compare buffer register with the new compare value. Not
 937:.\Generated_Source\PSoC4/Timer_2.c **** *  applicable for Timer/Counter with Capture or in Quadrature Decoder modes.
 938:.\Generated_Source\PSoC4/Timer_2.c **** *
 939:.\Generated_Source\PSoC4/Timer_2.c **** * Parameters:
 940:.\Generated_Source\PSoC4/Timer_2.c **** *  compareBuf: Compare value
 941:.\Generated_Source\PSoC4/Timer_2.c **** *
 942:.\Generated_Source\PSoC4/Timer_2.c **** * Return:
 943:.\Generated_Source\PSoC4/Timer_2.c **** *  None
 944:.\Generated_Source\PSoC4/Timer_2.c **** *
 945:.\Generated_Source\PSoC4/Timer_2.c **** * Note:
 946:.\Generated_Source\PSoC4/Timer_2.c **** *  It is not recommended to use the value equal to "0" or equal to 
 947:.\Generated_Source\PSoC4/Timer_2.c **** *  "period value" in Center or Asymmetric align PWM modes on the 
 948:.\Generated_Source\PSoC4/Timer_2.c **** *  PSoC 4100/PSoC 4200 devices.
 949:.\Generated_Source\PSoC4/Timer_2.c **** *  PSoC 4000 devices write the 16 bit compare register with the decremented 
 950:.\Generated_Source\PSoC4/Timer_2.c **** *  compare value in the Up counting mode (except 0x0u), and the incremented 
 951:.\Generated_Source\PSoC4/Timer_2.c **** *  compare value in the Down counting mode (except 0xFFFFu).
 952:.\Generated_Source\PSoC4/Timer_2.c **** *
 953:.\Generated_Source\PSoC4/Timer_2.c **** *******************************************************************************/
 954:.\Generated_Source\PSoC4/Timer_2.c **** void Timer_2_WriteCompareBuf(uint32 compareBuf)
 955:.\Generated_Source\PSoC4/Timer_2.c **** {
 1211              		.loc 1 955 0
ARM GAS  C:\Users\Petro\AppData\Local\Temp\cc0Wxiax.s 			page 39


 1212              		.cfi_startproc
 1213 0000 80B5     		push	{r7, lr}
 1214              		.cfi_def_cfa_offset 8
 1215              		.cfi_offset 7, -8
 1216              		.cfi_offset 14, -4
 1217 0002 82B0     		sub	sp, sp, #8
 1218              		.cfi_def_cfa_offset 16
 1219 0004 00AF     		add	r7, sp, #0
 1220              		.cfi_def_cfa_register 7
 1221 0006 7860     		str	r0, [r7, #4]
 956:.\Generated_Source\PSoC4/Timer_2.c ****     #if (Timer_2_CY_TCPWM_4000)
 957:.\Generated_Source\PSoC4/Timer_2.c ****         uint32 currentMode;
 958:.\Generated_Source\PSoC4/Timer_2.c ****     #endif /* (Timer_2_CY_TCPWM_4000) */
 959:.\Generated_Source\PSoC4/Timer_2.c **** 
 960:.\Generated_Source\PSoC4/Timer_2.c ****     #if (Timer_2_CY_TCPWM_4000)
 961:.\Generated_Source\PSoC4/Timer_2.c ****         currentMode = ((Timer_2_CONTROL_REG & Timer_2_UPDOWN_MASK) >> Timer_2_UPDOWN_SHIFT);
 962:.\Generated_Source\PSoC4/Timer_2.c **** 
 963:.\Generated_Source\PSoC4/Timer_2.c ****         if (((uint32)Timer_2__COUNT_DOWN == currentMode) && (0xFFFFu != compareBuf))
 964:.\Generated_Source\PSoC4/Timer_2.c ****         {
 965:.\Generated_Source\PSoC4/Timer_2.c ****             compareBuf++;
 966:.\Generated_Source\PSoC4/Timer_2.c ****         }
 967:.\Generated_Source\PSoC4/Timer_2.c ****         else if (((uint32)Timer_2__COUNT_UP == currentMode) && (0u != compareBuf))
 968:.\Generated_Source\PSoC4/Timer_2.c ****         {
 969:.\Generated_Source\PSoC4/Timer_2.c ****             compareBuf --;
 970:.\Generated_Source\PSoC4/Timer_2.c ****         }
 971:.\Generated_Source\PSoC4/Timer_2.c ****         else
 972:.\Generated_Source\PSoC4/Timer_2.c ****         {
 973:.\Generated_Source\PSoC4/Timer_2.c ****         }
 974:.\Generated_Source\PSoC4/Timer_2.c ****     #endif /* (Timer_2_CY_TCPWM_4000) */
 975:.\Generated_Source\PSoC4/Timer_2.c ****     
 976:.\Generated_Source\PSoC4/Timer_2.c ****     Timer_2_COMP_CAP_BUF_REG = (compareBuf & Timer_2_16BIT_MASK);
 1222              		.loc 1 976 0
 1223 0008 034B     		ldr	r3, .L79
 1224 000a 7A68     		ldr	r2, [r7, #4]
 1225 000c 1204     		lsl	r2, r2, #16
 1226 000e 120C     		lsr	r2, r2, #16
 1227 0010 1A60     		str	r2, [r3]
 977:.\Generated_Source\PSoC4/Timer_2.c **** }
 1228              		.loc 1 977 0
 1229 0012 BD46     		mov	sp, r7
 1230 0014 02B0     		add	sp, sp, #8
 1231              		@ sp needed
 1232 0016 80BD     		pop	{r7, pc}
 1233              	.L80:
 1234              		.align	2
 1235              	.L79:
 1236 0018 10012040 		.word	1075839248
 1237              		.cfi_endproc
 1238              	.LFE26:
 1239              		.size	Timer_2_WriteCompareBuf, .-Timer_2_WriteCompareBuf
 1240              		.section	.text.Timer_2_ReadCompareBuf,"ax",%progbits
 1241              		.align	2
 1242              		.global	Timer_2_ReadCompareBuf
 1243              		.code	16
 1244              		.thumb_func
 1245              		.type	Timer_2_ReadCompareBuf, %function
 1246              	Timer_2_ReadCompareBuf:
ARM GAS  C:\Users\Petro\AppData\Local\Temp\cc0Wxiax.s 			page 40


 1247              	.LFB27:
 978:.\Generated_Source\PSoC4/Timer_2.c **** 
 979:.\Generated_Source\PSoC4/Timer_2.c **** 
 980:.\Generated_Source\PSoC4/Timer_2.c **** /*******************************************************************************
 981:.\Generated_Source\PSoC4/Timer_2.c **** * Function Name: Timer_2_ReadCompareBuf
 982:.\Generated_Source\PSoC4/Timer_2.c **** ********************************************************************************
 983:.\Generated_Source\PSoC4/Timer_2.c **** *
 984:.\Generated_Source\PSoC4/Timer_2.c **** * Summary:
 985:.\Generated_Source\PSoC4/Timer_2.c **** *  Reads the compare buffer register. Not applicable for Timer/Counter with
 986:.\Generated_Source\PSoC4/Timer_2.c **** *  Capture or in Quadrature Decoder modes.
 987:.\Generated_Source\PSoC4/Timer_2.c **** *
 988:.\Generated_Source\PSoC4/Timer_2.c **** * Parameters:
 989:.\Generated_Source\PSoC4/Timer_2.c **** *  None
 990:.\Generated_Source\PSoC4/Timer_2.c **** *
 991:.\Generated_Source\PSoC4/Timer_2.c **** * Return:
 992:.\Generated_Source\PSoC4/Timer_2.c **** *  Compare buffer value
 993:.\Generated_Source\PSoC4/Timer_2.c **** *
 994:.\Generated_Source\PSoC4/Timer_2.c **** * Note:
 995:.\Generated_Source\PSoC4/Timer_2.c **** *  PSoC 4000 devices read the incremented compare register value in the 
 996:.\Generated_Source\PSoC4/Timer_2.c **** *  Up counting mode (except 0xFFFFu), and the decremented value in the 
 997:.\Generated_Source\PSoC4/Timer_2.c **** *  Down counting mode (except 0x0u).
 998:.\Generated_Source\PSoC4/Timer_2.c **** *
 999:.\Generated_Source\PSoC4/Timer_2.c **** *******************************************************************************/
1000:.\Generated_Source\PSoC4/Timer_2.c **** uint32 Timer_2_ReadCompareBuf(void)
1001:.\Generated_Source\PSoC4/Timer_2.c **** {
 1248              		.loc 1 1001 0
 1249              		.cfi_startproc
 1250 0000 80B5     		push	{r7, lr}
 1251              		.cfi_def_cfa_offset 8
 1252              		.cfi_offset 7, -8
 1253              		.cfi_offset 14, -4
 1254 0002 00AF     		add	r7, sp, #0
 1255              		.cfi_def_cfa_register 7
1002:.\Generated_Source\PSoC4/Timer_2.c ****     #if (Timer_2_CY_TCPWM_4000)
1003:.\Generated_Source\PSoC4/Timer_2.c ****         uint32 currentMode;
1004:.\Generated_Source\PSoC4/Timer_2.c ****         uint32 regVal;
1005:.\Generated_Source\PSoC4/Timer_2.c ****     #endif /* (Timer_2_CY_TCPWM_4000) */
1006:.\Generated_Source\PSoC4/Timer_2.c **** 
1007:.\Generated_Source\PSoC4/Timer_2.c ****     #if (Timer_2_CY_TCPWM_4000)
1008:.\Generated_Source\PSoC4/Timer_2.c ****         currentMode = ((Timer_2_CONTROL_REG & Timer_2_UPDOWN_MASK) >> Timer_2_UPDOWN_SHIFT);
1009:.\Generated_Source\PSoC4/Timer_2.c **** 
1010:.\Generated_Source\PSoC4/Timer_2.c ****         regVal = Timer_2_COMP_CAP_BUF_REG;
1011:.\Generated_Source\PSoC4/Timer_2.c ****         
1012:.\Generated_Source\PSoC4/Timer_2.c ****         if (((uint32)Timer_2__COUNT_DOWN == currentMode) && (0u != regVal))
1013:.\Generated_Source\PSoC4/Timer_2.c ****         {
1014:.\Generated_Source\PSoC4/Timer_2.c ****             regVal--;
1015:.\Generated_Source\PSoC4/Timer_2.c ****         }
1016:.\Generated_Source\PSoC4/Timer_2.c ****         else if (((uint32)Timer_2__COUNT_UP == currentMode) && (0xFFFFu != regVal))
1017:.\Generated_Source\PSoC4/Timer_2.c ****         {
1018:.\Generated_Source\PSoC4/Timer_2.c ****             regVal++;
1019:.\Generated_Source\PSoC4/Timer_2.c ****         }
1020:.\Generated_Source\PSoC4/Timer_2.c ****         else
1021:.\Generated_Source\PSoC4/Timer_2.c ****         {
1022:.\Generated_Source\PSoC4/Timer_2.c ****         }
1023:.\Generated_Source\PSoC4/Timer_2.c **** 
1024:.\Generated_Source\PSoC4/Timer_2.c ****         return (regVal & Timer_2_16BIT_MASK);
1025:.\Generated_Source\PSoC4/Timer_2.c ****     #else
ARM GAS  C:\Users\Petro\AppData\Local\Temp\cc0Wxiax.s 			page 41


1026:.\Generated_Source\PSoC4/Timer_2.c ****         return (Timer_2_COMP_CAP_BUF_REG & Timer_2_16BIT_MASK);
 1256              		.loc 1 1026 0
 1257 0004 034B     		ldr	r3, .L83
 1258 0006 1B68     		ldr	r3, [r3]
 1259 0008 1B04     		lsl	r3, r3, #16
 1260 000a 1B0C     		lsr	r3, r3, #16
1027:.\Generated_Source\PSoC4/Timer_2.c ****     #endif /* (Timer_2_CY_TCPWM_4000) */
1028:.\Generated_Source\PSoC4/Timer_2.c **** }
 1261              		.loc 1 1028 0
 1262 000c 181C     		mov	r0, r3
 1263 000e BD46     		mov	sp, r7
 1264              		@ sp needed
 1265 0010 80BD     		pop	{r7, pc}
 1266              	.L84:
 1267 0012 C046     		.align	2
 1268              	.L83:
 1269 0014 10012040 		.word	1075839248
 1270              		.cfi_endproc
 1271              	.LFE27:
 1272              		.size	Timer_2_ReadCompareBuf, .-Timer_2_ReadCompareBuf
 1273              		.section	.text.Timer_2_ReadCapture,"ax",%progbits
 1274              		.align	2
 1275              		.global	Timer_2_ReadCapture
 1276              		.code	16
 1277              		.thumb_func
 1278              		.type	Timer_2_ReadCapture, %function
 1279              	Timer_2_ReadCapture:
 1280              	.LFB28:
1029:.\Generated_Source\PSoC4/Timer_2.c **** 
1030:.\Generated_Source\PSoC4/Timer_2.c **** 
1031:.\Generated_Source\PSoC4/Timer_2.c **** /*******************************************************************************
1032:.\Generated_Source\PSoC4/Timer_2.c **** * Function Name: Timer_2_ReadCapture
1033:.\Generated_Source\PSoC4/Timer_2.c **** ********************************************************************************
1034:.\Generated_Source\PSoC4/Timer_2.c **** *
1035:.\Generated_Source\PSoC4/Timer_2.c **** * Summary:
1036:.\Generated_Source\PSoC4/Timer_2.c **** *  Reads the captured counter value. This API is applicable only for
1037:.\Generated_Source\PSoC4/Timer_2.c **** *  Timer/Counter with the capture mode and Quadrature Decoder modes.
1038:.\Generated_Source\PSoC4/Timer_2.c **** *
1039:.\Generated_Source\PSoC4/Timer_2.c **** * Parameters:
1040:.\Generated_Source\PSoC4/Timer_2.c **** *  None
1041:.\Generated_Source\PSoC4/Timer_2.c **** *
1042:.\Generated_Source\PSoC4/Timer_2.c **** * Return:
1043:.\Generated_Source\PSoC4/Timer_2.c **** *  Capture value
1044:.\Generated_Source\PSoC4/Timer_2.c **** *
1045:.\Generated_Source\PSoC4/Timer_2.c **** *******************************************************************************/
1046:.\Generated_Source\PSoC4/Timer_2.c **** uint32 Timer_2_ReadCapture(void)
1047:.\Generated_Source\PSoC4/Timer_2.c **** {
 1281              		.loc 1 1047 0
 1282              		.cfi_startproc
 1283 0000 80B5     		push	{r7, lr}
 1284              		.cfi_def_cfa_offset 8
 1285              		.cfi_offset 7, -8
 1286              		.cfi_offset 14, -4
 1287 0002 00AF     		add	r7, sp, #0
 1288              		.cfi_def_cfa_register 7
1048:.\Generated_Source\PSoC4/Timer_2.c ****     return (Timer_2_COMP_CAP_REG & Timer_2_16BIT_MASK);
 1289              		.loc 1 1048 0
ARM GAS  C:\Users\Petro\AppData\Local\Temp\cc0Wxiax.s 			page 42


 1290 0004 034B     		ldr	r3, .L87
 1291 0006 1B68     		ldr	r3, [r3]
 1292 0008 1B04     		lsl	r3, r3, #16
 1293 000a 1B0C     		lsr	r3, r3, #16
1049:.\Generated_Source\PSoC4/Timer_2.c **** }
 1294              		.loc 1 1049 0
 1295 000c 181C     		mov	r0, r3
 1296 000e BD46     		mov	sp, r7
 1297              		@ sp needed
 1298 0010 80BD     		pop	{r7, pc}
 1299              	.L88:
 1300 0012 C046     		.align	2
 1301              	.L87:
 1302 0014 0C012040 		.word	1075839244
 1303              		.cfi_endproc
 1304              	.LFE28:
 1305              		.size	Timer_2_ReadCapture, .-Timer_2_ReadCapture
 1306              		.section	.text.Timer_2_ReadCaptureBuf,"ax",%progbits
 1307              		.align	2
 1308              		.global	Timer_2_ReadCaptureBuf
 1309              		.code	16
 1310              		.thumb_func
 1311              		.type	Timer_2_ReadCaptureBuf, %function
 1312              	Timer_2_ReadCaptureBuf:
 1313              	.LFB29:
1050:.\Generated_Source\PSoC4/Timer_2.c **** 
1051:.\Generated_Source\PSoC4/Timer_2.c **** 
1052:.\Generated_Source\PSoC4/Timer_2.c **** /*******************************************************************************
1053:.\Generated_Source\PSoC4/Timer_2.c **** * Function Name: Timer_2_ReadCaptureBuf
1054:.\Generated_Source\PSoC4/Timer_2.c **** ********************************************************************************
1055:.\Generated_Source\PSoC4/Timer_2.c **** *
1056:.\Generated_Source\PSoC4/Timer_2.c **** * Summary:
1057:.\Generated_Source\PSoC4/Timer_2.c **** *  Reads the capture buffer register. This API is applicable only for
1058:.\Generated_Source\PSoC4/Timer_2.c **** *  Timer/Counter with the capture mode and Quadrature Decoder modes.
1059:.\Generated_Source\PSoC4/Timer_2.c **** *
1060:.\Generated_Source\PSoC4/Timer_2.c **** * Parameters:
1061:.\Generated_Source\PSoC4/Timer_2.c **** *  None
1062:.\Generated_Source\PSoC4/Timer_2.c **** *
1063:.\Generated_Source\PSoC4/Timer_2.c **** * Return:
1064:.\Generated_Source\PSoC4/Timer_2.c **** *  Capture buffer value
1065:.\Generated_Source\PSoC4/Timer_2.c **** *
1066:.\Generated_Source\PSoC4/Timer_2.c **** *******************************************************************************/
1067:.\Generated_Source\PSoC4/Timer_2.c **** uint32 Timer_2_ReadCaptureBuf(void)
1068:.\Generated_Source\PSoC4/Timer_2.c **** {
 1314              		.loc 1 1068 0
 1315              		.cfi_startproc
 1316 0000 80B5     		push	{r7, lr}
 1317              		.cfi_def_cfa_offset 8
 1318              		.cfi_offset 7, -8
 1319              		.cfi_offset 14, -4
 1320 0002 00AF     		add	r7, sp, #0
 1321              		.cfi_def_cfa_register 7
1069:.\Generated_Source\PSoC4/Timer_2.c ****     return (Timer_2_COMP_CAP_BUF_REG & Timer_2_16BIT_MASK);
 1322              		.loc 1 1069 0
 1323 0004 034B     		ldr	r3, .L91
 1324 0006 1B68     		ldr	r3, [r3]
 1325 0008 1B04     		lsl	r3, r3, #16
ARM GAS  C:\Users\Petro\AppData\Local\Temp\cc0Wxiax.s 			page 43


 1326 000a 1B0C     		lsr	r3, r3, #16
1070:.\Generated_Source\PSoC4/Timer_2.c **** }
 1327              		.loc 1 1070 0
 1328 000c 181C     		mov	r0, r3
 1329 000e BD46     		mov	sp, r7
 1330              		@ sp needed
 1331 0010 80BD     		pop	{r7, pc}
 1332              	.L92:
 1333 0012 C046     		.align	2
 1334              	.L91:
 1335 0014 10012040 		.word	1075839248
 1336              		.cfi_endproc
 1337              	.LFE29:
 1338              		.size	Timer_2_ReadCaptureBuf, .-Timer_2_ReadCaptureBuf
 1339              		.section	.text.Timer_2_SetCaptureMode,"ax",%progbits
 1340              		.align	2
 1341              		.global	Timer_2_SetCaptureMode
 1342              		.code	16
 1343              		.thumb_func
 1344              		.type	Timer_2_SetCaptureMode, %function
 1345              	Timer_2_SetCaptureMode:
 1346              	.LFB30:
1071:.\Generated_Source\PSoC4/Timer_2.c **** 
1072:.\Generated_Source\PSoC4/Timer_2.c **** 
1073:.\Generated_Source\PSoC4/Timer_2.c **** /*******************************************************************************
1074:.\Generated_Source\PSoC4/Timer_2.c **** * Function Name: Timer_2_SetCaptureMode
1075:.\Generated_Source\PSoC4/Timer_2.c **** ********************************************************************************
1076:.\Generated_Source\PSoC4/Timer_2.c **** *
1077:.\Generated_Source\PSoC4/Timer_2.c **** * Summary:
1078:.\Generated_Source\PSoC4/Timer_2.c **** *  Sets the capture trigger mode. For PWM mode this is the switch input.
1079:.\Generated_Source\PSoC4/Timer_2.c **** *  This input is not applicable to the Timer/Counter without Capture and
1080:.\Generated_Source\PSoC4/Timer_2.c **** *  Quadrature Decoder modes.
1081:.\Generated_Source\PSoC4/Timer_2.c **** *
1082:.\Generated_Source\PSoC4/Timer_2.c **** * Parameters:
1083:.\Generated_Source\PSoC4/Timer_2.c **** *  triggerMode: Enumerated trigger mode value
1084:.\Generated_Source\PSoC4/Timer_2.c **** *   Values:
1085:.\Generated_Source\PSoC4/Timer_2.c **** *     - Timer_2_TRIG_LEVEL     - Level
1086:.\Generated_Source\PSoC4/Timer_2.c **** *     - Timer_2_TRIG_RISING    - Rising edge
1087:.\Generated_Source\PSoC4/Timer_2.c **** *     - Timer_2_TRIG_FALLING   - Falling edge
1088:.\Generated_Source\PSoC4/Timer_2.c **** *     - Timer_2_TRIG_BOTH      - Both rising and falling edge
1089:.\Generated_Source\PSoC4/Timer_2.c **** *
1090:.\Generated_Source\PSoC4/Timer_2.c **** * Return:
1091:.\Generated_Source\PSoC4/Timer_2.c **** *  None
1092:.\Generated_Source\PSoC4/Timer_2.c **** *
1093:.\Generated_Source\PSoC4/Timer_2.c **** *******************************************************************************/
1094:.\Generated_Source\PSoC4/Timer_2.c **** void Timer_2_SetCaptureMode(uint32 triggerMode)
1095:.\Generated_Source\PSoC4/Timer_2.c **** {
 1347              		.loc 1 1095 0
 1348              		.cfi_startproc
 1349 0000 90B5     		push	{r4, r7, lr}
 1350              		.cfi_def_cfa_offset 12
 1351              		.cfi_offset 4, -12
 1352              		.cfi_offset 7, -8
 1353              		.cfi_offset 14, -4
 1354 0002 85B0     		sub	sp, sp, #20
 1355              		.cfi_def_cfa_offset 32
 1356 0004 00AF     		add	r7, sp, #0
ARM GAS  C:\Users\Petro\AppData\Local\Temp\cc0Wxiax.s 			page 44


 1357              		.cfi_def_cfa_register 7
 1358 0006 7860     		str	r0, [r7, #4]
1096:.\Generated_Source\PSoC4/Timer_2.c ****     uint8 enableInterrupts;
1097:.\Generated_Source\PSoC4/Timer_2.c **** 
1098:.\Generated_Source\PSoC4/Timer_2.c ****     enableInterrupts = CyEnterCriticalSection();
 1359              		.loc 1 1098 0
 1360 0008 0F23     		mov	r3, #15
 1361 000a FC18     		add	r4, r7, r3
 1362 000c FFF7FEFF 		bl	CyEnterCriticalSection
 1363 0010 031C     		mov	r3, r0
 1364 0012 2370     		strb	r3, [r4]
1099:.\Generated_Source\PSoC4/Timer_2.c **** 
1100:.\Generated_Source\PSoC4/Timer_2.c ****     Timer_2_TRIG_CONTROL1_REG &= (uint32)~Timer_2_CAPTURE_MASK;
 1365              		.loc 1 1100 0
 1366 0014 0A4B     		ldr	r3, .L94
 1367 0016 0A4A     		ldr	r2, .L94
 1368 0018 1268     		ldr	r2, [r2]
 1369 001a 0321     		mov	r1, #3
 1370 001c 8A43     		bic	r2, r1
 1371 001e 1A60     		str	r2, [r3]
1101:.\Generated_Source\PSoC4/Timer_2.c ****     Timer_2_TRIG_CONTROL1_REG |= triggerMode;
 1372              		.loc 1 1101 0
 1373 0020 074B     		ldr	r3, .L94
 1374 0022 074A     		ldr	r2, .L94
 1375 0024 1168     		ldr	r1, [r2]
 1376 0026 7A68     		ldr	r2, [r7, #4]
 1377 0028 0A43     		orr	r2, r1
 1378 002a 1A60     		str	r2, [r3]
1102:.\Generated_Source\PSoC4/Timer_2.c **** 
1103:.\Generated_Source\PSoC4/Timer_2.c ****     CyExitCriticalSection(enableInterrupts);
 1379              		.loc 1 1103 0
 1380 002c 0F23     		mov	r3, #15
 1381 002e FB18     		add	r3, r7, r3
 1382 0030 1B78     		ldrb	r3, [r3]
 1383 0032 181C     		mov	r0, r3
 1384 0034 FFF7FEFF 		bl	CyExitCriticalSection
1104:.\Generated_Source\PSoC4/Timer_2.c **** }
 1385              		.loc 1 1104 0
 1386 0038 BD46     		mov	sp, r7
 1387 003a 05B0     		add	sp, sp, #20
 1388              		@ sp needed
 1389 003c 90BD     		pop	{r4, r7, pc}
 1390              	.L95:
 1391 003e C046     		.align	2
 1392              	.L94:
 1393 0040 24012040 		.word	1075839268
 1394              		.cfi_endproc
 1395              	.LFE30:
 1396              		.size	Timer_2_SetCaptureMode, .-Timer_2_SetCaptureMode
 1397              		.section	.text.Timer_2_SetReloadMode,"ax",%progbits
 1398              		.align	2
 1399              		.global	Timer_2_SetReloadMode
 1400              		.code	16
 1401              		.thumb_func
 1402              		.type	Timer_2_SetReloadMode, %function
 1403              	Timer_2_SetReloadMode:
 1404              	.LFB31:
ARM GAS  C:\Users\Petro\AppData\Local\Temp\cc0Wxiax.s 			page 45


1105:.\Generated_Source\PSoC4/Timer_2.c **** 
1106:.\Generated_Source\PSoC4/Timer_2.c **** 
1107:.\Generated_Source\PSoC4/Timer_2.c **** /*******************************************************************************
1108:.\Generated_Source\PSoC4/Timer_2.c **** * Function Name: Timer_2_SetReloadMode
1109:.\Generated_Source\PSoC4/Timer_2.c **** ********************************************************************************
1110:.\Generated_Source\PSoC4/Timer_2.c **** *
1111:.\Generated_Source\PSoC4/Timer_2.c **** * Summary:
1112:.\Generated_Source\PSoC4/Timer_2.c **** *  Sets the reload trigger mode. For Quadrature Decoder mode this is the index
1113:.\Generated_Source\PSoC4/Timer_2.c **** *  input.
1114:.\Generated_Source\PSoC4/Timer_2.c **** *
1115:.\Generated_Source\PSoC4/Timer_2.c **** * Parameters:
1116:.\Generated_Source\PSoC4/Timer_2.c **** *  triggerMode: Enumerated trigger mode value
1117:.\Generated_Source\PSoC4/Timer_2.c **** *   Values:
1118:.\Generated_Source\PSoC4/Timer_2.c **** *     - Timer_2_TRIG_LEVEL     - Level
1119:.\Generated_Source\PSoC4/Timer_2.c **** *     - Timer_2_TRIG_RISING    - Rising edge
1120:.\Generated_Source\PSoC4/Timer_2.c **** *     - Timer_2_TRIG_FALLING   - Falling edge
1121:.\Generated_Source\PSoC4/Timer_2.c **** *     - Timer_2_TRIG_BOTH      - Both rising and falling edge
1122:.\Generated_Source\PSoC4/Timer_2.c **** *
1123:.\Generated_Source\PSoC4/Timer_2.c **** * Return:
1124:.\Generated_Source\PSoC4/Timer_2.c **** *  None
1125:.\Generated_Source\PSoC4/Timer_2.c **** *
1126:.\Generated_Source\PSoC4/Timer_2.c **** *******************************************************************************/
1127:.\Generated_Source\PSoC4/Timer_2.c **** void Timer_2_SetReloadMode(uint32 triggerMode)
1128:.\Generated_Source\PSoC4/Timer_2.c **** {
 1405              		.loc 1 1128 0
 1406              		.cfi_startproc
 1407 0000 90B5     		push	{r4, r7, lr}
 1408              		.cfi_def_cfa_offset 12
 1409              		.cfi_offset 4, -12
 1410              		.cfi_offset 7, -8
 1411              		.cfi_offset 14, -4
 1412 0002 85B0     		sub	sp, sp, #20
 1413              		.cfi_def_cfa_offset 32
 1414 0004 00AF     		add	r7, sp, #0
 1415              		.cfi_def_cfa_register 7
 1416 0006 7860     		str	r0, [r7, #4]
1129:.\Generated_Source\PSoC4/Timer_2.c ****     uint8 enableInterrupts;
1130:.\Generated_Source\PSoC4/Timer_2.c **** 
1131:.\Generated_Source\PSoC4/Timer_2.c ****     enableInterrupts = CyEnterCriticalSection();
 1417              		.loc 1 1131 0
 1418 0008 0F23     		mov	r3, #15
 1419 000a FC18     		add	r4, r7, r3
 1420 000c FFF7FEFF 		bl	CyEnterCriticalSection
 1421 0010 031C     		mov	r3, r0
 1422 0012 2370     		strb	r3, [r4]
1132:.\Generated_Source\PSoC4/Timer_2.c **** 
1133:.\Generated_Source\PSoC4/Timer_2.c ****     Timer_2_TRIG_CONTROL1_REG &= (uint32)~Timer_2_RELOAD_MASK;
 1423              		.loc 1 1133 0
 1424 0014 0A4B     		ldr	r3, .L97
 1425 0016 0A4A     		ldr	r2, .L97
 1426 0018 1268     		ldr	r2, [r2]
 1427 001a 3021     		mov	r1, #48
 1428 001c 8A43     		bic	r2, r1
 1429 001e 1A60     		str	r2, [r3]
1134:.\Generated_Source\PSoC4/Timer_2.c ****     Timer_2_TRIG_CONTROL1_REG |= ((uint32)(triggerMode << Timer_2_RELOAD_SHIFT));
 1430              		.loc 1 1134 0
 1431 0020 074B     		ldr	r3, .L97
ARM GAS  C:\Users\Petro\AppData\Local\Temp\cc0Wxiax.s 			page 46


 1432 0022 074A     		ldr	r2, .L97
 1433 0024 1168     		ldr	r1, [r2]
 1434 0026 7A68     		ldr	r2, [r7, #4]
 1435 0028 1201     		lsl	r2, r2, #4
 1436 002a 0A43     		orr	r2, r1
 1437 002c 1A60     		str	r2, [r3]
1135:.\Generated_Source\PSoC4/Timer_2.c **** 
1136:.\Generated_Source\PSoC4/Timer_2.c ****     CyExitCriticalSection(enableInterrupts);
 1438              		.loc 1 1136 0
 1439 002e 0F23     		mov	r3, #15
 1440 0030 FB18     		add	r3, r7, r3
 1441 0032 1B78     		ldrb	r3, [r3]
 1442 0034 181C     		mov	r0, r3
 1443 0036 FFF7FEFF 		bl	CyExitCriticalSection
1137:.\Generated_Source\PSoC4/Timer_2.c **** }
 1444              		.loc 1 1137 0
 1445 003a BD46     		mov	sp, r7
 1446 003c 05B0     		add	sp, sp, #20
 1447              		@ sp needed
 1448 003e 90BD     		pop	{r4, r7, pc}
 1449              	.L98:
 1450              		.align	2
 1451              	.L97:
 1452 0040 24012040 		.word	1075839268
 1453              		.cfi_endproc
 1454              	.LFE31:
 1455              		.size	Timer_2_SetReloadMode, .-Timer_2_SetReloadMode
 1456              		.section	.text.Timer_2_SetStartMode,"ax",%progbits
 1457              		.align	2
 1458              		.global	Timer_2_SetStartMode
 1459              		.code	16
 1460              		.thumb_func
 1461              		.type	Timer_2_SetStartMode, %function
 1462              	Timer_2_SetStartMode:
 1463              	.LFB32:
1138:.\Generated_Source\PSoC4/Timer_2.c **** 
1139:.\Generated_Source\PSoC4/Timer_2.c **** 
1140:.\Generated_Source\PSoC4/Timer_2.c **** /*******************************************************************************
1141:.\Generated_Source\PSoC4/Timer_2.c **** * Function Name: Timer_2_SetStartMode
1142:.\Generated_Source\PSoC4/Timer_2.c **** ********************************************************************************
1143:.\Generated_Source\PSoC4/Timer_2.c **** *
1144:.\Generated_Source\PSoC4/Timer_2.c **** * Summary:
1145:.\Generated_Source\PSoC4/Timer_2.c **** *  Sets the start trigger mode. For Quadrature Decoder mode this is the
1146:.\Generated_Source\PSoC4/Timer_2.c **** *  phiB input.
1147:.\Generated_Source\PSoC4/Timer_2.c **** *
1148:.\Generated_Source\PSoC4/Timer_2.c **** * Parameters:
1149:.\Generated_Source\PSoC4/Timer_2.c **** *  triggerMode: Enumerated trigger mode value
1150:.\Generated_Source\PSoC4/Timer_2.c **** *   Values:
1151:.\Generated_Source\PSoC4/Timer_2.c **** *     - Timer_2_TRIG_LEVEL     - Level
1152:.\Generated_Source\PSoC4/Timer_2.c **** *     - Timer_2_TRIG_RISING    - Rising edge
1153:.\Generated_Source\PSoC4/Timer_2.c **** *     - Timer_2_TRIG_FALLING   - Falling edge
1154:.\Generated_Source\PSoC4/Timer_2.c **** *     - Timer_2_TRIG_BOTH      - Both rising and falling edge
1155:.\Generated_Source\PSoC4/Timer_2.c **** *
1156:.\Generated_Source\PSoC4/Timer_2.c **** * Return:
1157:.\Generated_Source\PSoC4/Timer_2.c **** *  None
1158:.\Generated_Source\PSoC4/Timer_2.c **** *
1159:.\Generated_Source\PSoC4/Timer_2.c **** *******************************************************************************/
ARM GAS  C:\Users\Petro\AppData\Local\Temp\cc0Wxiax.s 			page 47


1160:.\Generated_Source\PSoC4/Timer_2.c **** void Timer_2_SetStartMode(uint32 triggerMode)
1161:.\Generated_Source\PSoC4/Timer_2.c **** {
 1464              		.loc 1 1161 0
 1465              		.cfi_startproc
 1466 0000 90B5     		push	{r4, r7, lr}
 1467              		.cfi_def_cfa_offset 12
 1468              		.cfi_offset 4, -12
 1469              		.cfi_offset 7, -8
 1470              		.cfi_offset 14, -4
 1471 0002 85B0     		sub	sp, sp, #20
 1472              		.cfi_def_cfa_offset 32
 1473 0004 00AF     		add	r7, sp, #0
 1474              		.cfi_def_cfa_register 7
 1475 0006 7860     		str	r0, [r7, #4]
1162:.\Generated_Source\PSoC4/Timer_2.c ****     uint8 enableInterrupts;
1163:.\Generated_Source\PSoC4/Timer_2.c **** 
1164:.\Generated_Source\PSoC4/Timer_2.c ****     enableInterrupts = CyEnterCriticalSection();
 1476              		.loc 1 1164 0
 1477 0008 0F23     		mov	r3, #15
 1478 000a FC18     		add	r4, r7, r3
 1479 000c FFF7FEFF 		bl	CyEnterCriticalSection
 1480 0010 031C     		mov	r3, r0
 1481 0012 2370     		strb	r3, [r4]
1165:.\Generated_Source\PSoC4/Timer_2.c **** 
1166:.\Generated_Source\PSoC4/Timer_2.c ****     Timer_2_TRIG_CONTROL1_REG &= (uint32)~Timer_2_START_MASK;
 1482              		.loc 1 1166 0
 1483 0014 0A4B     		ldr	r3, .L100
 1484 0016 0A4A     		ldr	r2, .L100
 1485 0018 1268     		ldr	r2, [r2]
 1486 001a 0A49     		ldr	r1, .L100+4
 1487 001c 0A40     		and	r2, r1
 1488 001e 1A60     		str	r2, [r3]
1167:.\Generated_Source\PSoC4/Timer_2.c ****     Timer_2_TRIG_CONTROL1_REG |= ((uint32)(triggerMode << Timer_2_START_SHIFT));
 1489              		.loc 1 1167 0
 1490 0020 074B     		ldr	r3, .L100
 1491 0022 074A     		ldr	r2, .L100
 1492 0024 1168     		ldr	r1, [r2]
 1493 0026 7A68     		ldr	r2, [r7, #4]
 1494 0028 1202     		lsl	r2, r2, #8
 1495 002a 0A43     		orr	r2, r1
 1496 002c 1A60     		str	r2, [r3]
1168:.\Generated_Source\PSoC4/Timer_2.c **** 
1169:.\Generated_Source\PSoC4/Timer_2.c ****     CyExitCriticalSection(enableInterrupts);
 1497              		.loc 1 1169 0
 1498 002e 0F23     		mov	r3, #15
 1499 0030 FB18     		add	r3, r7, r3
 1500 0032 1B78     		ldrb	r3, [r3]
 1501 0034 181C     		mov	r0, r3
 1502 0036 FFF7FEFF 		bl	CyExitCriticalSection
1170:.\Generated_Source\PSoC4/Timer_2.c **** }
 1503              		.loc 1 1170 0
 1504 003a BD46     		mov	sp, r7
 1505 003c 05B0     		add	sp, sp, #20
 1506              		@ sp needed
 1507 003e 90BD     		pop	{r4, r7, pc}
 1508              	.L101:
 1509              		.align	2
ARM GAS  C:\Users\Petro\AppData\Local\Temp\cc0Wxiax.s 			page 48


 1510              	.L100:
 1511 0040 24012040 		.word	1075839268
 1512 0044 FFFCFFFF 		.word	-769
 1513              		.cfi_endproc
 1514              	.LFE32:
 1515              		.size	Timer_2_SetStartMode, .-Timer_2_SetStartMode
 1516              		.section	.text.Timer_2_SetStopMode,"ax",%progbits
 1517              		.align	2
 1518              		.global	Timer_2_SetStopMode
 1519              		.code	16
 1520              		.thumb_func
 1521              		.type	Timer_2_SetStopMode, %function
 1522              	Timer_2_SetStopMode:
 1523              	.LFB33:
1171:.\Generated_Source\PSoC4/Timer_2.c **** 
1172:.\Generated_Source\PSoC4/Timer_2.c **** 
1173:.\Generated_Source\PSoC4/Timer_2.c **** /*******************************************************************************
1174:.\Generated_Source\PSoC4/Timer_2.c **** * Function Name: Timer_2_SetStopMode
1175:.\Generated_Source\PSoC4/Timer_2.c **** ********************************************************************************
1176:.\Generated_Source\PSoC4/Timer_2.c **** *
1177:.\Generated_Source\PSoC4/Timer_2.c **** * Summary:
1178:.\Generated_Source\PSoC4/Timer_2.c **** *  Sets the stop trigger mode. For PWM mode this is the kill input.
1179:.\Generated_Source\PSoC4/Timer_2.c **** *
1180:.\Generated_Source\PSoC4/Timer_2.c **** * Parameters:
1181:.\Generated_Source\PSoC4/Timer_2.c **** *  triggerMode: Enumerated trigger mode value
1182:.\Generated_Source\PSoC4/Timer_2.c **** *   Values:
1183:.\Generated_Source\PSoC4/Timer_2.c **** *     - Timer_2_TRIG_LEVEL     - Level
1184:.\Generated_Source\PSoC4/Timer_2.c **** *     - Timer_2_TRIG_RISING    - Rising edge
1185:.\Generated_Source\PSoC4/Timer_2.c **** *     - Timer_2_TRIG_FALLING   - Falling edge
1186:.\Generated_Source\PSoC4/Timer_2.c **** *     - Timer_2_TRIG_BOTH      - Both rising and falling edge
1187:.\Generated_Source\PSoC4/Timer_2.c **** *
1188:.\Generated_Source\PSoC4/Timer_2.c **** * Return:
1189:.\Generated_Source\PSoC4/Timer_2.c **** *  None
1190:.\Generated_Source\PSoC4/Timer_2.c **** *
1191:.\Generated_Source\PSoC4/Timer_2.c **** *******************************************************************************/
1192:.\Generated_Source\PSoC4/Timer_2.c **** void Timer_2_SetStopMode(uint32 triggerMode)
1193:.\Generated_Source\PSoC4/Timer_2.c **** {
 1524              		.loc 1 1193 0
 1525              		.cfi_startproc
 1526 0000 90B5     		push	{r4, r7, lr}
 1527              		.cfi_def_cfa_offset 12
 1528              		.cfi_offset 4, -12
 1529              		.cfi_offset 7, -8
 1530              		.cfi_offset 14, -4
 1531 0002 85B0     		sub	sp, sp, #20
 1532              		.cfi_def_cfa_offset 32
 1533 0004 00AF     		add	r7, sp, #0
 1534              		.cfi_def_cfa_register 7
 1535 0006 7860     		str	r0, [r7, #4]
1194:.\Generated_Source\PSoC4/Timer_2.c ****     uint8 enableInterrupts;
1195:.\Generated_Source\PSoC4/Timer_2.c **** 
1196:.\Generated_Source\PSoC4/Timer_2.c ****     enableInterrupts = CyEnterCriticalSection();
 1536              		.loc 1 1196 0
 1537 0008 0F23     		mov	r3, #15
 1538 000a FC18     		add	r4, r7, r3
 1539 000c FFF7FEFF 		bl	CyEnterCriticalSection
 1540 0010 031C     		mov	r3, r0
ARM GAS  C:\Users\Petro\AppData\Local\Temp\cc0Wxiax.s 			page 49


 1541 0012 2370     		strb	r3, [r4]
1197:.\Generated_Source\PSoC4/Timer_2.c **** 
1198:.\Generated_Source\PSoC4/Timer_2.c ****     Timer_2_TRIG_CONTROL1_REG &= (uint32)~Timer_2_STOP_MASK;
 1542              		.loc 1 1198 0
 1543 0014 0A4B     		ldr	r3, .L103
 1544 0016 0A4A     		ldr	r2, .L103
 1545 0018 1268     		ldr	r2, [r2]
 1546 001a C021     		mov	r1, #192
 1547 001c 8A43     		bic	r2, r1
 1548 001e 1A60     		str	r2, [r3]
1199:.\Generated_Source\PSoC4/Timer_2.c ****     Timer_2_TRIG_CONTROL1_REG |= ((uint32)(triggerMode << Timer_2_STOP_SHIFT));
 1549              		.loc 1 1199 0
 1550 0020 074B     		ldr	r3, .L103
 1551 0022 074A     		ldr	r2, .L103
 1552 0024 1168     		ldr	r1, [r2]
 1553 0026 7A68     		ldr	r2, [r7, #4]
 1554 0028 9201     		lsl	r2, r2, #6
 1555 002a 0A43     		orr	r2, r1
 1556 002c 1A60     		str	r2, [r3]
1200:.\Generated_Source\PSoC4/Timer_2.c **** 
1201:.\Generated_Source\PSoC4/Timer_2.c ****     CyExitCriticalSection(enableInterrupts);
 1557              		.loc 1 1201 0
 1558 002e 0F23     		mov	r3, #15
 1559 0030 FB18     		add	r3, r7, r3
 1560 0032 1B78     		ldrb	r3, [r3]
 1561 0034 181C     		mov	r0, r3
 1562 0036 FFF7FEFF 		bl	CyExitCriticalSection
1202:.\Generated_Source\PSoC4/Timer_2.c **** }
 1563              		.loc 1 1202 0
 1564 003a BD46     		mov	sp, r7
 1565 003c 05B0     		add	sp, sp, #20
 1566              		@ sp needed
 1567 003e 90BD     		pop	{r4, r7, pc}
 1568              	.L104:
 1569              		.align	2
 1570              	.L103:
 1571 0040 24012040 		.word	1075839268
 1572              		.cfi_endproc
 1573              	.LFE33:
 1574              		.size	Timer_2_SetStopMode, .-Timer_2_SetStopMode
 1575              		.section	.text.Timer_2_SetCountMode,"ax",%progbits
 1576              		.align	2
 1577              		.global	Timer_2_SetCountMode
 1578              		.code	16
 1579              		.thumb_func
 1580              		.type	Timer_2_SetCountMode, %function
 1581              	Timer_2_SetCountMode:
 1582              	.LFB34:
1203:.\Generated_Source\PSoC4/Timer_2.c **** 
1204:.\Generated_Source\PSoC4/Timer_2.c **** 
1205:.\Generated_Source\PSoC4/Timer_2.c **** /*******************************************************************************
1206:.\Generated_Source\PSoC4/Timer_2.c **** * Function Name: Timer_2_SetCountMode
1207:.\Generated_Source\PSoC4/Timer_2.c **** ********************************************************************************
1208:.\Generated_Source\PSoC4/Timer_2.c **** *
1209:.\Generated_Source\PSoC4/Timer_2.c **** * Summary:
1210:.\Generated_Source\PSoC4/Timer_2.c **** *  Sets the count trigger mode. For Quadrature Decoder mode this is the phiA
1211:.\Generated_Source\PSoC4/Timer_2.c **** *  input.
ARM GAS  C:\Users\Petro\AppData\Local\Temp\cc0Wxiax.s 			page 50


1212:.\Generated_Source\PSoC4/Timer_2.c **** *
1213:.\Generated_Source\PSoC4/Timer_2.c **** * Parameters:
1214:.\Generated_Source\PSoC4/Timer_2.c **** *  triggerMode: Enumerated trigger mode value
1215:.\Generated_Source\PSoC4/Timer_2.c **** *   Values:
1216:.\Generated_Source\PSoC4/Timer_2.c **** *     - Timer_2_TRIG_LEVEL     - Level
1217:.\Generated_Source\PSoC4/Timer_2.c **** *     - Timer_2_TRIG_RISING    - Rising edge
1218:.\Generated_Source\PSoC4/Timer_2.c **** *     - Timer_2_TRIG_FALLING   - Falling edge
1219:.\Generated_Source\PSoC4/Timer_2.c **** *     - Timer_2_TRIG_BOTH      - Both rising and falling edge
1220:.\Generated_Source\PSoC4/Timer_2.c **** *
1221:.\Generated_Source\PSoC4/Timer_2.c **** * Return:
1222:.\Generated_Source\PSoC4/Timer_2.c **** *  None
1223:.\Generated_Source\PSoC4/Timer_2.c **** *
1224:.\Generated_Source\PSoC4/Timer_2.c **** *******************************************************************************/
1225:.\Generated_Source\PSoC4/Timer_2.c **** void Timer_2_SetCountMode(uint32 triggerMode)
1226:.\Generated_Source\PSoC4/Timer_2.c **** {
 1583              		.loc 1 1226 0
 1584              		.cfi_startproc
 1585 0000 90B5     		push	{r4, r7, lr}
 1586              		.cfi_def_cfa_offset 12
 1587              		.cfi_offset 4, -12
 1588              		.cfi_offset 7, -8
 1589              		.cfi_offset 14, -4
 1590 0002 85B0     		sub	sp, sp, #20
 1591              		.cfi_def_cfa_offset 32
 1592 0004 00AF     		add	r7, sp, #0
 1593              		.cfi_def_cfa_register 7
 1594 0006 7860     		str	r0, [r7, #4]
1227:.\Generated_Source\PSoC4/Timer_2.c ****     uint8 enableInterrupts;
1228:.\Generated_Source\PSoC4/Timer_2.c **** 
1229:.\Generated_Source\PSoC4/Timer_2.c ****     enableInterrupts = CyEnterCriticalSection();
 1595              		.loc 1 1229 0
 1596 0008 0F23     		mov	r3, #15
 1597 000a FC18     		add	r4, r7, r3
 1598 000c FFF7FEFF 		bl	CyEnterCriticalSection
 1599 0010 031C     		mov	r3, r0
 1600 0012 2370     		strb	r3, [r4]
1230:.\Generated_Source\PSoC4/Timer_2.c **** 
1231:.\Generated_Source\PSoC4/Timer_2.c ****     Timer_2_TRIG_CONTROL1_REG &= (uint32)~Timer_2_COUNT_MASK;
 1601              		.loc 1 1231 0
 1602 0014 0A4B     		ldr	r3, .L106
 1603 0016 0A4A     		ldr	r2, .L106
 1604 0018 1268     		ldr	r2, [r2]
 1605 001a 0C21     		mov	r1, #12
 1606 001c 8A43     		bic	r2, r1
 1607 001e 1A60     		str	r2, [r3]
1232:.\Generated_Source\PSoC4/Timer_2.c ****     Timer_2_TRIG_CONTROL1_REG |= ((uint32)(triggerMode << Timer_2_COUNT_SHIFT));
 1608              		.loc 1 1232 0
 1609 0020 074B     		ldr	r3, .L106
 1610 0022 074A     		ldr	r2, .L106
 1611 0024 1168     		ldr	r1, [r2]
 1612 0026 7A68     		ldr	r2, [r7, #4]
 1613 0028 9200     		lsl	r2, r2, #2
 1614 002a 0A43     		orr	r2, r1
 1615 002c 1A60     		str	r2, [r3]
1233:.\Generated_Source\PSoC4/Timer_2.c **** 
1234:.\Generated_Source\PSoC4/Timer_2.c ****     CyExitCriticalSection(enableInterrupts);
 1616              		.loc 1 1234 0
ARM GAS  C:\Users\Petro\AppData\Local\Temp\cc0Wxiax.s 			page 51


 1617 002e 0F23     		mov	r3, #15
 1618 0030 FB18     		add	r3, r7, r3
 1619 0032 1B78     		ldrb	r3, [r3]
 1620 0034 181C     		mov	r0, r3
 1621 0036 FFF7FEFF 		bl	CyExitCriticalSection
1235:.\Generated_Source\PSoC4/Timer_2.c **** }
 1622              		.loc 1 1235 0
 1623 003a BD46     		mov	sp, r7
 1624 003c 05B0     		add	sp, sp, #20
 1625              		@ sp needed
 1626 003e 90BD     		pop	{r4, r7, pc}
 1627              	.L107:
 1628              		.align	2
 1629              	.L106:
 1630 0040 24012040 		.word	1075839268
 1631              		.cfi_endproc
 1632              	.LFE34:
 1633              		.size	Timer_2_SetCountMode, .-Timer_2_SetCountMode
 1634              		.section	.text.Timer_2_TriggerCommand,"ax",%progbits
 1635              		.align	2
 1636              		.global	Timer_2_TriggerCommand
 1637              		.code	16
 1638              		.thumb_func
 1639              		.type	Timer_2_TriggerCommand, %function
 1640              	Timer_2_TriggerCommand:
 1641              	.LFB35:
1236:.\Generated_Source\PSoC4/Timer_2.c **** 
1237:.\Generated_Source\PSoC4/Timer_2.c **** 
1238:.\Generated_Source\PSoC4/Timer_2.c **** /*******************************************************************************
1239:.\Generated_Source\PSoC4/Timer_2.c **** * Function Name: Timer_2_TriggerCommand
1240:.\Generated_Source\PSoC4/Timer_2.c **** ********************************************************************************
1241:.\Generated_Source\PSoC4/Timer_2.c **** *
1242:.\Generated_Source\PSoC4/Timer_2.c **** * Summary:
1243:.\Generated_Source\PSoC4/Timer_2.c **** *  Triggers the designated command to occur on the designated TCPWM instances.
1244:.\Generated_Source\PSoC4/Timer_2.c **** *  The mask can be used to apply this command simultaneously to more than one
1245:.\Generated_Source\PSoC4/Timer_2.c **** *  instance.  This allows multiple TCPWM instances to be synchronized.
1246:.\Generated_Source\PSoC4/Timer_2.c **** *
1247:.\Generated_Source\PSoC4/Timer_2.c **** * Parameters:
1248:.\Generated_Source\PSoC4/Timer_2.c **** *  mask: A combination of mask bits for each instance of the TCPWM that the
1249:.\Generated_Source\PSoC4/Timer_2.c **** *        command should apply to.  This function from one instance can be used
1250:.\Generated_Source\PSoC4/Timer_2.c **** *        to apply the command to any of the instances in the design.
1251:.\Generated_Source\PSoC4/Timer_2.c **** *        The mask value for a specific instance is available with the MASK
1252:.\Generated_Source\PSoC4/Timer_2.c **** *        define.
1253:.\Generated_Source\PSoC4/Timer_2.c **** *  command: Enumerated command values. Capture command only applicable for
1254:.\Generated_Source\PSoC4/Timer_2.c **** *           Timer/Counter with Capture and PWM modes.
1255:.\Generated_Source\PSoC4/Timer_2.c **** *   Values:
1256:.\Generated_Source\PSoC4/Timer_2.c **** *     - Timer_2_CMD_CAPTURE    - Trigger Capture/Switch command
1257:.\Generated_Source\PSoC4/Timer_2.c **** *     - Timer_2_CMD_RELOAD     - Trigger Reload/Index command
1258:.\Generated_Source\PSoC4/Timer_2.c **** *     - Timer_2_CMD_STOP       - Trigger Stop/Kill command
1259:.\Generated_Source\PSoC4/Timer_2.c **** *     - Timer_2_CMD_START      - Trigger Start/phiB command
1260:.\Generated_Source\PSoC4/Timer_2.c **** *
1261:.\Generated_Source\PSoC4/Timer_2.c **** * Return:
1262:.\Generated_Source\PSoC4/Timer_2.c **** *  None
1263:.\Generated_Source\PSoC4/Timer_2.c **** *
1264:.\Generated_Source\PSoC4/Timer_2.c **** *******************************************************************************/
1265:.\Generated_Source\PSoC4/Timer_2.c **** void Timer_2_TriggerCommand(uint32 mask, uint32 command)
1266:.\Generated_Source\PSoC4/Timer_2.c **** {
ARM GAS  C:\Users\Petro\AppData\Local\Temp\cc0Wxiax.s 			page 52


 1642              		.loc 1 1266 0
 1643              		.cfi_startproc
 1644 0000 90B5     		push	{r4, r7, lr}
 1645              		.cfi_def_cfa_offset 12
 1646              		.cfi_offset 4, -12
 1647              		.cfi_offset 7, -8
 1648              		.cfi_offset 14, -4
 1649 0002 85B0     		sub	sp, sp, #20
 1650              		.cfi_def_cfa_offset 32
 1651 0004 00AF     		add	r7, sp, #0
 1652              		.cfi_def_cfa_register 7
 1653 0006 7860     		str	r0, [r7, #4]
 1654 0008 3960     		str	r1, [r7]
1267:.\Generated_Source\PSoC4/Timer_2.c ****     uint8 enableInterrupts;
1268:.\Generated_Source\PSoC4/Timer_2.c **** 
1269:.\Generated_Source\PSoC4/Timer_2.c ****     enableInterrupts = CyEnterCriticalSection();
 1655              		.loc 1 1269 0
 1656 000a 0F23     		mov	r3, #15
 1657 000c FC18     		add	r4, r7, r3
 1658 000e FFF7FEFF 		bl	CyEnterCriticalSection
 1659 0012 031C     		mov	r3, r0
 1660 0014 2370     		strb	r3, [r4]
1270:.\Generated_Source\PSoC4/Timer_2.c **** 
1271:.\Generated_Source\PSoC4/Timer_2.c ****     Timer_2_COMMAND_REG = ((uint32)(mask << command));
 1661              		.loc 1 1271 0
 1662 0016 074B     		ldr	r3, .L109
 1663 0018 3A68     		ldr	r2, [r7]
 1664 001a 7968     		ldr	r1, [r7, #4]
 1665 001c 9140     		lsl	r1, r1, r2
 1666 001e 0A1C     		mov	r2, r1
 1667 0020 1A60     		str	r2, [r3]
1272:.\Generated_Source\PSoC4/Timer_2.c **** 
1273:.\Generated_Source\PSoC4/Timer_2.c ****     CyExitCriticalSection(enableInterrupts);
 1668              		.loc 1 1273 0
 1669 0022 0F23     		mov	r3, #15
 1670 0024 FB18     		add	r3, r7, r3
 1671 0026 1B78     		ldrb	r3, [r3]
 1672 0028 181C     		mov	r0, r3
 1673 002a FFF7FEFF 		bl	CyExitCriticalSection
1274:.\Generated_Source\PSoC4/Timer_2.c **** }
 1674              		.loc 1 1274 0
 1675 002e BD46     		mov	sp, r7
 1676 0030 05B0     		add	sp, sp, #20
 1677              		@ sp needed
 1678 0032 90BD     		pop	{r4, r7, pc}
 1679              	.L110:
 1680              		.align	2
 1681              	.L109:
 1682 0034 08002040 		.word	1075838984
 1683              		.cfi_endproc
 1684              	.LFE35:
 1685              		.size	Timer_2_TriggerCommand, .-Timer_2_TriggerCommand
 1686              		.section	.text.Timer_2_ReadStatus,"ax",%progbits
 1687              		.align	2
 1688              		.global	Timer_2_ReadStatus
 1689              		.code	16
 1690              		.thumb_func
ARM GAS  C:\Users\Petro\AppData\Local\Temp\cc0Wxiax.s 			page 53


 1691              		.type	Timer_2_ReadStatus, %function
 1692              	Timer_2_ReadStatus:
 1693              	.LFB36:
1275:.\Generated_Source\PSoC4/Timer_2.c **** 
1276:.\Generated_Source\PSoC4/Timer_2.c **** 
1277:.\Generated_Source\PSoC4/Timer_2.c **** /*******************************************************************************
1278:.\Generated_Source\PSoC4/Timer_2.c **** * Function Name: Timer_2_ReadStatus
1279:.\Generated_Source\PSoC4/Timer_2.c **** ********************************************************************************
1280:.\Generated_Source\PSoC4/Timer_2.c **** *
1281:.\Generated_Source\PSoC4/Timer_2.c **** * Summary:
1282:.\Generated_Source\PSoC4/Timer_2.c **** *  Reads the status of the Timer_2.
1283:.\Generated_Source\PSoC4/Timer_2.c **** *
1284:.\Generated_Source\PSoC4/Timer_2.c **** * Parameters:
1285:.\Generated_Source\PSoC4/Timer_2.c **** *  None
1286:.\Generated_Source\PSoC4/Timer_2.c **** *
1287:.\Generated_Source\PSoC4/Timer_2.c **** * Return:
1288:.\Generated_Source\PSoC4/Timer_2.c **** *  Status
1289:.\Generated_Source\PSoC4/Timer_2.c **** *   Values:
1290:.\Generated_Source\PSoC4/Timer_2.c **** *     - Timer_2_STATUS_DOWN    - Set if counting down
1291:.\Generated_Source\PSoC4/Timer_2.c **** *     - Timer_2_STATUS_RUNNING - Set if counter is running
1292:.\Generated_Source\PSoC4/Timer_2.c **** *
1293:.\Generated_Source\PSoC4/Timer_2.c **** *******************************************************************************/
1294:.\Generated_Source\PSoC4/Timer_2.c **** uint32 Timer_2_ReadStatus(void)
1295:.\Generated_Source\PSoC4/Timer_2.c **** {
 1694              		.loc 1 1295 0
 1695              		.cfi_startproc
 1696 0000 80B5     		push	{r7, lr}
 1697              		.cfi_def_cfa_offset 8
 1698              		.cfi_offset 7, -8
 1699              		.cfi_offset 14, -4
 1700 0002 00AF     		add	r7, sp, #0
 1701              		.cfi_def_cfa_register 7
1296:.\Generated_Source\PSoC4/Timer_2.c ****     return ((Timer_2_STATUS_REG >> Timer_2_RUNNING_STATUS_SHIFT) |
 1702              		.loc 1 1296 0
 1703 0004 054B     		ldr	r3, .L113
 1704 0006 1B68     		ldr	r3, [r3]
 1705 0008 9A0F     		lsr	r2, r3, #30
1297:.\Generated_Source\PSoC4/Timer_2.c ****             (Timer_2_STATUS_REG & Timer_2_STATUS_DOWN));
 1706              		.loc 1 1297 0
 1707 000a 044B     		ldr	r3, .L113
 1708 000c 1B68     		ldr	r3, [r3]
 1709 000e 0121     		mov	r1, #1
 1710 0010 0B40     		and	r3, r1
1296:.\Generated_Source\PSoC4/Timer_2.c ****     return ((Timer_2_STATUS_REG >> Timer_2_RUNNING_STATUS_SHIFT) |
 1711              		.loc 1 1296 0
 1712 0012 1343     		orr	r3, r2
1298:.\Generated_Source\PSoC4/Timer_2.c **** }
 1713              		.loc 1 1298 0
 1714 0014 181C     		mov	r0, r3
 1715 0016 BD46     		mov	sp, r7
 1716              		@ sp needed
 1717 0018 80BD     		pop	{r7, pc}
 1718              	.L114:
 1719 001a C046     		.align	2
 1720              	.L113:
 1721 001c 04012040 		.word	1075839236
 1722              		.cfi_endproc
ARM GAS  C:\Users\Petro\AppData\Local\Temp\cc0Wxiax.s 			page 54


 1723              	.LFE36:
 1724              		.size	Timer_2_ReadStatus, .-Timer_2_ReadStatus
 1725              		.section	.text.Timer_2_SetInterruptMode,"ax",%progbits
 1726              		.align	2
 1727              		.global	Timer_2_SetInterruptMode
 1728              		.code	16
 1729              		.thumb_func
 1730              		.type	Timer_2_SetInterruptMode, %function
 1731              	Timer_2_SetInterruptMode:
 1732              	.LFB37:
1299:.\Generated_Source\PSoC4/Timer_2.c **** 
1300:.\Generated_Source\PSoC4/Timer_2.c **** 
1301:.\Generated_Source\PSoC4/Timer_2.c **** /*******************************************************************************
1302:.\Generated_Source\PSoC4/Timer_2.c **** * Function Name: Timer_2_SetInterruptMode
1303:.\Generated_Source\PSoC4/Timer_2.c **** ********************************************************************************
1304:.\Generated_Source\PSoC4/Timer_2.c **** *
1305:.\Generated_Source\PSoC4/Timer_2.c **** * Summary:
1306:.\Generated_Source\PSoC4/Timer_2.c **** *  Sets the interrupt mask to control which interrupt
1307:.\Generated_Source\PSoC4/Timer_2.c **** *  requests generate the interrupt signal.
1308:.\Generated_Source\PSoC4/Timer_2.c **** *
1309:.\Generated_Source\PSoC4/Timer_2.c **** * Parameters:
1310:.\Generated_Source\PSoC4/Timer_2.c **** *   interruptMask: Mask of bits to be enabled
1311:.\Generated_Source\PSoC4/Timer_2.c **** *   Values:
1312:.\Generated_Source\PSoC4/Timer_2.c **** *     - Timer_2_INTR_MASK_TC       - Terminal count mask
1313:.\Generated_Source\PSoC4/Timer_2.c **** *     - Timer_2_INTR_MASK_CC_MATCH - Compare count / capture mask
1314:.\Generated_Source\PSoC4/Timer_2.c **** *
1315:.\Generated_Source\PSoC4/Timer_2.c **** * Return:
1316:.\Generated_Source\PSoC4/Timer_2.c **** *  None
1317:.\Generated_Source\PSoC4/Timer_2.c **** *
1318:.\Generated_Source\PSoC4/Timer_2.c **** *******************************************************************************/
1319:.\Generated_Source\PSoC4/Timer_2.c **** void Timer_2_SetInterruptMode(uint32 interruptMask)
1320:.\Generated_Source\PSoC4/Timer_2.c **** {
 1733              		.loc 1 1320 0
 1734              		.cfi_startproc
 1735 0000 80B5     		push	{r7, lr}
 1736              		.cfi_def_cfa_offset 8
 1737              		.cfi_offset 7, -8
 1738              		.cfi_offset 14, -4
 1739 0002 82B0     		sub	sp, sp, #8
 1740              		.cfi_def_cfa_offset 16
 1741 0004 00AF     		add	r7, sp, #0
 1742              		.cfi_def_cfa_register 7
 1743 0006 7860     		str	r0, [r7, #4]
1321:.\Generated_Source\PSoC4/Timer_2.c ****     Timer_2_INTERRUPT_MASK_REG =  interruptMask;
 1744              		.loc 1 1321 0
 1745 0008 024B     		ldr	r3, .L116
 1746 000a 7A68     		ldr	r2, [r7, #4]
 1747 000c 1A60     		str	r2, [r3]
1322:.\Generated_Source\PSoC4/Timer_2.c **** }
 1748              		.loc 1 1322 0
 1749 000e BD46     		mov	sp, r7
 1750 0010 02B0     		add	sp, sp, #8
 1751              		@ sp needed
 1752 0012 80BD     		pop	{r7, pc}
 1753              	.L117:
 1754              		.align	2
 1755              	.L116:
ARM GAS  C:\Users\Petro\AppData\Local\Temp\cc0Wxiax.s 			page 55


 1756 0014 38012040 		.word	1075839288
 1757              		.cfi_endproc
 1758              	.LFE37:
 1759              		.size	Timer_2_SetInterruptMode, .-Timer_2_SetInterruptMode
 1760              		.section	.text.Timer_2_GetInterruptSourceMasked,"ax",%progbits
 1761              		.align	2
 1762              		.global	Timer_2_GetInterruptSourceMasked
 1763              		.code	16
 1764              		.thumb_func
 1765              		.type	Timer_2_GetInterruptSourceMasked, %function
 1766              	Timer_2_GetInterruptSourceMasked:
 1767              	.LFB38:
1323:.\Generated_Source\PSoC4/Timer_2.c **** 
1324:.\Generated_Source\PSoC4/Timer_2.c **** 
1325:.\Generated_Source\PSoC4/Timer_2.c **** /*******************************************************************************
1326:.\Generated_Source\PSoC4/Timer_2.c **** * Function Name: Timer_2_GetInterruptSourceMasked
1327:.\Generated_Source\PSoC4/Timer_2.c **** ********************************************************************************
1328:.\Generated_Source\PSoC4/Timer_2.c **** *
1329:.\Generated_Source\PSoC4/Timer_2.c **** * Summary:
1330:.\Generated_Source\PSoC4/Timer_2.c **** *  Gets the interrupt requests masked by the interrupt mask.
1331:.\Generated_Source\PSoC4/Timer_2.c **** *
1332:.\Generated_Source\PSoC4/Timer_2.c **** * Parameters:
1333:.\Generated_Source\PSoC4/Timer_2.c **** *   None
1334:.\Generated_Source\PSoC4/Timer_2.c **** *
1335:.\Generated_Source\PSoC4/Timer_2.c **** * Return:
1336:.\Generated_Source\PSoC4/Timer_2.c **** *  Masked interrupt source
1337:.\Generated_Source\PSoC4/Timer_2.c **** *   Values:
1338:.\Generated_Source\PSoC4/Timer_2.c **** *     - Timer_2_INTR_MASK_TC       - Terminal count mask
1339:.\Generated_Source\PSoC4/Timer_2.c **** *     - Timer_2_INTR_MASK_CC_MATCH - Compare count / capture mask
1340:.\Generated_Source\PSoC4/Timer_2.c **** *
1341:.\Generated_Source\PSoC4/Timer_2.c **** *******************************************************************************/
1342:.\Generated_Source\PSoC4/Timer_2.c **** uint32 Timer_2_GetInterruptSourceMasked(void)
1343:.\Generated_Source\PSoC4/Timer_2.c **** {
 1768              		.loc 1 1343 0
 1769              		.cfi_startproc
 1770 0000 80B5     		push	{r7, lr}
 1771              		.cfi_def_cfa_offset 8
 1772              		.cfi_offset 7, -8
 1773              		.cfi_offset 14, -4
 1774 0002 00AF     		add	r7, sp, #0
 1775              		.cfi_def_cfa_register 7
1344:.\Generated_Source\PSoC4/Timer_2.c ****     return (Timer_2_INTERRUPT_MASKED_REG);
 1776              		.loc 1 1344 0
 1777 0004 024B     		ldr	r3, .L120
 1778 0006 1B68     		ldr	r3, [r3]
1345:.\Generated_Source\PSoC4/Timer_2.c **** }
 1779              		.loc 1 1345 0
 1780 0008 181C     		mov	r0, r3
 1781 000a BD46     		mov	sp, r7
 1782              		@ sp needed
 1783 000c 80BD     		pop	{r7, pc}
 1784              	.L121:
 1785 000e C046     		.align	2
 1786              	.L120:
 1787 0010 3C012040 		.word	1075839292
 1788              		.cfi_endproc
 1789              	.LFE38:
ARM GAS  C:\Users\Petro\AppData\Local\Temp\cc0Wxiax.s 			page 56


 1790              		.size	Timer_2_GetInterruptSourceMasked, .-Timer_2_GetInterruptSourceMasked
 1791              		.section	.text.Timer_2_GetInterruptSource,"ax",%progbits
 1792              		.align	2
 1793              		.global	Timer_2_GetInterruptSource
 1794              		.code	16
 1795              		.thumb_func
 1796              		.type	Timer_2_GetInterruptSource, %function
 1797              	Timer_2_GetInterruptSource:
 1798              	.LFB39:
1346:.\Generated_Source\PSoC4/Timer_2.c **** 
1347:.\Generated_Source\PSoC4/Timer_2.c **** 
1348:.\Generated_Source\PSoC4/Timer_2.c **** /*******************************************************************************
1349:.\Generated_Source\PSoC4/Timer_2.c **** * Function Name: Timer_2_GetInterruptSource
1350:.\Generated_Source\PSoC4/Timer_2.c **** ********************************************************************************
1351:.\Generated_Source\PSoC4/Timer_2.c **** *
1352:.\Generated_Source\PSoC4/Timer_2.c **** * Summary:
1353:.\Generated_Source\PSoC4/Timer_2.c **** *  Gets the interrupt requests (without masking).
1354:.\Generated_Source\PSoC4/Timer_2.c **** *
1355:.\Generated_Source\PSoC4/Timer_2.c **** * Parameters:
1356:.\Generated_Source\PSoC4/Timer_2.c **** *  None
1357:.\Generated_Source\PSoC4/Timer_2.c **** *
1358:.\Generated_Source\PSoC4/Timer_2.c **** * Return:
1359:.\Generated_Source\PSoC4/Timer_2.c **** *  Interrupt request value
1360:.\Generated_Source\PSoC4/Timer_2.c **** *   Values:
1361:.\Generated_Source\PSoC4/Timer_2.c **** *     - Timer_2_INTR_MASK_TC       - Terminal count mask
1362:.\Generated_Source\PSoC4/Timer_2.c **** *     - Timer_2_INTR_MASK_CC_MATCH - Compare count / capture mask
1363:.\Generated_Source\PSoC4/Timer_2.c **** *
1364:.\Generated_Source\PSoC4/Timer_2.c **** *******************************************************************************/
1365:.\Generated_Source\PSoC4/Timer_2.c **** uint32 Timer_2_GetInterruptSource(void)
1366:.\Generated_Source\PSoC4/Timer_2.c **** {
 1799              		.loc 1 1366 0
 1800              		.cfi_startproc
 1801 0000 80B5     		push	{r7, lr}
 1802              		.cfi_def_cfa_offset 8
 1803              		.cfi_offset 7, -8
 1804              		.cfi_offset 14, -4
 1805 0002 00AF     		add	r7, sp, #0
 1806              		.cfi_def_cfa_register 7
1367:.\Generated_Source\PSoC4/Timer_2.c ****     return (Timer_2_INTERRUPT_REQ_REG);
 1807              		.loc 1 1367 0
 1808 0004 024B     		ldr	r3, .L124
 1809 0006 1B68     		ldr	r3, [r3]
1368:.\Generated_Source\PSoC4/Timer_2.c **** }
 1810              		.loc 1 1368 0
 1811 0008 181C     		mov	r0, r3
 1812 000a BD46     		mov	sp, r7
 1813              		@ sp needed
 1814 000c 80BD     		pop	{r7, pc}
 1815              	.L125:
 1816 000e C046     		.align	2
 1817              	.L124:
 1818 0010 30012040 		.word	1075839280
 1819              		.cfi_endproc
 1820              	.LFE39:
 1821              		.size	Timer_2_GetInterruptSource, .-Timer_2_GetInterruptSource
 1822              		.section	.text.Timer_2_ClearInterrupt,"ax",%progbits
 1823              		.align	2
ARM GAS  C:\Users\Petro\AppData\Local\Temp\cc0Wxiax.s 			page 57


 1824              		.global	Timer_2_ClearInterrupt
 1825              		.code	16
 1826              		.thumb_func
 1827              		.type	Timer_2_ClearInterrupt, %function
 1828              	Timer_2_ClearInterrupt:
 1829              	.LFB40:
1369:.\Generated_Source\PSoC4/Timer_2.c **** 
1370:.\Generated_Source\PSoC4/Timer_2.c **** 
1371:.\Generated_Source\PSoC4/Timer_2.c **** /*******************************************************************************
1372:.\Generated_Source\PSoC4/Timer_2.c **** * Function Name: Timer_2_ClearInterrupt
1373:.\Generated_Source\PSoC4/Timer_2.c **** ********************************************************************************
1374:.\Generated_Source\PSoC4/Timer_2.c **** *
1375:.\Generated_Source\PSoC4/Timer_2.c **** * Summary:
1376:.\Generated_Source\PSoC4/Timer_2.c **** *  Clears the interrupt request.
1377:.\Generated_Source\PSoC4/Timer_2.c **** *
1378:.\Generated_Source\PSoC4/Timer_2.c **** * Parameters:
1379:.\Generated_Source\PSoC4/Timer_2.c **** *   interruptMask: Mask of interrupts to clear
1380:.\Generated_Source\PSoC4/Timer_2.c **** *   Values:
1381:.\Generated_Source\PSoC4/Timer_2.c **** *     - Timer_2_INTR_MASK_TC       - Terminal count mask
1382:.\Generated_Source\PSoC4/Timer_2.c **** *     - Timer_2_INTR_MASK_CC_MATCH - Compare count / capture mask
1383:.\Generated_Source\PSoC4/Timer_2.c **** *
1384:.\Generated_Source\PSoC4/Timer_2.c **** * Return:
1385:.\Generated_Source\PSoC4/Timer_2.c **** *  None
1386:.\Generated_Source\PSoC4/Timer_2.c **** *
1387:.\Generated_Source\PSoC4/Timer_2.c **** *******************************************************************************/
1388:.\Generated_Source\PSoC4/Timer_2.c **** void Timer_2_ClearInterrupt(uint32 interruptMask)
1389:.\Generated_Source\PSoC4/Timer_2.c **** {
 1830              		.loc 1 1389 0
 1831              		.cfi_startproc
 1832 0000 80B5     		push	{r7, lr}
 1833              		.cfi_def_cfa_offset 8
 1834              		.cfi_offset 7, -8
 1835              		.cfi_offset 14, -4
 1836 0002 82B0     		sub	sp, sp, #8
 1837              		.cfi_def_cfa_offset 16
 1838 0004 00AF     		add	r7, sp, #0
 1839              		.cfi_def_cfa_register 7
 1840 0006 7860     		str	r0, [r7, #4]
1390:.\Generated_Source\PSoC4/Timer_2.c ****     Timer_2_INTERRUPT_REQ_REG = interruptMask;
 1841              		.loc 1 1390 0
 1842 0008 024B     		ldr	r3, .L127
 1843 000a 7A68     		ldr	r2, [r7, #4]
 1844 000c 1A60     		str	r2, [r3]
1391:.\Generated_Source\PSoC4/Timer_2.c **** }
 1845              		.loc 1 1391 0
 1846 000e BD46     		mov	sp, r7
 1847 0010 02B0     		add	sp, sp, #8
 1848              		@ sp needed
 1849 0012 80BD     		pop	{r7, pc}
 1850              	.L128:
 1851              		.align	2
 1852              	.L127:
 1853 0014 30012040 		.word	1075839280
 1854              		.cfi_endproc
 1855              	.LFE40:
 1856              		.size	Timer_2_ClearInterrupt, .-Timer_2_ClearInterrupt
 1857              		.section	.text.Timer_2_SetInterrupt,"ax",%progbits
ARM GAS  C:\Users\Petro\AppData\Local\Temp\cc0Wxiax.s 			page 58


 1858              		.align	2
 1859              		.global	Timer_2_SetInterrupt
 1860              		.code	16
 1861              		.thumb_func
 1862              		.type	Timer_2_SetInterrupt, %function
 1863              	Timer_2_SetInterrupt:
 1864              	.LFB41:
1392:.\Generated_Source\PSoC4/Timer_2.c **** 
1393:.\Generated_Source\PSoC4/Timer_2.c **** 
1394:.\Generated_Source\PSoC4/Timer_2.c **** /*******************************************************************************
1395:.\Generated_Source\PSoC4/Timer_2.c **** * Function Name: Timer_2_SetInterrupt
1396:.\Generated_Source\PSoC4/Timer_2.c **** ********************************************************************************
1397:.\Generated_Source\PSoC4/Timer_2.c **** *
1398:.\Generated_Source\PSoC4/Timer_2.c **** * Summary:
1399:.\Generated_Source\PSoC4/Timer_2.c **** *  Sets a software interrupt request.
1400:.\Generated_Source\PSoC4/Timer_2.c **** *
1401:.\Generated_Source\PSoC4/Timer_2.c **** * Parameters:
1402:.\Generated_Source\PSoC4/Timer_2.c **** *   interruptMask: Mask of interrupts to set
1403:.\Generated_Source\PSoC4/Timer_2.c **** *   Values:
1404:.\Generated_Source\PSoC4/Timer_2.c **** *     - Timer_2_INTR_MASK_TC       - Terminal count mask
1405:.\Generated_Source\PSoC4/Timer_2.c **** *     - Timer_2_INTR_MASK_CC_MATCH - Compare count / capture mask
1406:.\Generated_Source\PSoC4/Timer_2.c **** *
1407:.\Generated_Source\PSoC4/Timer_2.c **** * Return:
1408:.\Generated_Source\PSoC4/Timer_2.c **** *  None
1409:.\Generated_Source\PSoC4/Timer_2.c **** *
1410:.\Generated_Source\PSoC4/Timer_2.c **** *******************************************************************************/
1411:.\Generated_Source\PSoC4/Timer_2.c **** void Timer_2_SetInterrupt(uint32 interruptMask)
1412:.\Generated_Source\PSoC4/Timer_2.c **** {
 1865              		.loc 1 1412 0
 1866              		.cfi_startproc
 1867 0000 80B5     		push	{r7, lr}
 1868              		.cfi_def_cfa_offset 8
 1869              		.cfi_offset 7, -8
 1870              		.cfi_offset 14, -4
 1871 0002 82B0     		sub	sp, sp, #8
 1872              		.cfi_def_cfa_offset 16
 1873 0004 00AF     		add	r7, sp, #0
 1874              		.cfi_def_cfa_register 7
 1875 0006 7860     		str	r0, [r7, #4]
1413:.\Generated_Source\PSoC4/Timer_2.c ****     Timer_2_INTERRUPT_SET_REG = interruptMask;
 1876              		.loc 1 1413 0
 1877 0008 024B     		ldr	r3, .L130
 1878 000a 7A68     		ldr	r2, [r7, #4]
 1879 000c 1A60     		str	r2, [r3]
1414:.\Generated_Source\PSoC4/Timer_2.c **** }
 1880              		.loc 1 1414 0
 1881 000e BD46     		mov	sp, r7
 1882 0010 02B0     		add	sp, sp, #8
 1883              		@ sp needed
 1884 0012 80BD     		pop	{r7, pc}
 1885              	.L131:
 1886              		.align	2
 1887              	.L130:
 1888 0014 34012040 		.word	1075839284
 1889              		.cfi_endproc
 1890              	.LFE41:
 1891              		.size	Timer_2_SetInterrupt, .-Timer_2_SetInterrupt
ARM GAS  C:\Users\Petro\AppData\Local\Temp\cc0Wxiax.s 			page 59


 1892              		.text
 1893              	.Letext0:
 1894              		.file 2 ".\\Generated_Source\\PSoC4\\cytypes.h"
 1895              		.section	.debug_info,"",%progbits
 1896              	.Ldebug_info0:
 1897 0000 F0060000 		.4byte	0x6f0
 1898 0004 0400     		.2byte	0x4
 1899 0006 00000000 		.4byte	.Ldebug_abbrev0
 1900 000a 04       		.byte	0x4
 1901 000b 01       		.uleb128 0x1
 1902 000c FD040000 		.4byte	.LASF76
 1903 0010 01       		.byte	0x1
 1904 0011 CD040000 		.4byte	.LASF77
 1905 0015 D3010000 		.4byte	.LASF78
 1906 0019 00000000 		.4byte	.Ldebug_ranges0+0
 1907 001d 00000000 		.4byte	0
 1908 0021 00000000 		.4byte	.Ldebug_line0
 1909 0025 02       		.uleb128 0x2
 1910 0026 01       		.byte	0x1
 1911 0027 06       		.byte	0x6
 1912 0028 8F000000 		.4byte	.LASF0
 1913 002c 02       		.uleb128 0x2
 1914 002d 01       		.byte	0x1
 1915 002e 08       		.byte	0x8
 1916 002f 76030000 		.4byte	.LASF1
 1917 0033 02       		.uleb128 0x2
 1918 0034 02       		.byte	0x2
 1919 0035 05       		.byte	0x5
 1920 0036 95030000 		.4byte	.LASF2
 1921 003a 02       		.uleb128 0x2
 1922 003b 02       		.byte	0x2
 1923 003c 07       		.byte	0x7
 1924 003d C0010000 		.4byte	.LASF3
 1925 0041 02       		.uleb128 0x2
 1926 0042 04       		.byte	0x4
 1927 0043 05       		.byte	0x5
 1928 0044 9B000000 		.4byte	.LASF4
 1929 0048 02       		.uleb128 0x2
 1930 0049 04       		.byte	0x4
 1931 004a 07       		.byte	0x7
 1932 004b A5010000 		.4byte	.LASF5
 1933 004f 02       		.uleb128 0x2
 1934 0050 08       		.byte	0x8
 1935 0051 05       		.byte	0x5
 1936 0052 81000000 		.4byte	.LASF6
 1937 0056 02       		.uleb128 0x2
 1938 0057 08       		.byte	0x8
 1939 0058 07       		.byte	0x7
 1940 0059 35000000 		.4byte	.LASF7
 1941 005d 03       		.uleb128 0x3
 1942 005e 04       		.byte	0x4
 1943 005f 05       		.byte	0x5
 1944 0060 696E7400 		.ascii	"int\000"
 1945 0064 02       		.uleb128 0x2
 1946 0065 04       		.byte	0x4
 1947 0066 07       		.byte	0x7
 1948 0067 63010000 		.4byte	.LASF8
ARM GAS  C:\Users\Petro\AppData\Local\Temp\cc0Wxiax.s 			page 60


 1949 006b 04       		.uleb128 0x4
 1950 006c BB000000 		.4byte	.LASF9
 1951 0070 02       		.byte	0x2
 1952 0071 9801     		.2byte	0x198
 1953 0073 2C000000 		.4byte	0x2c
 1954 0077 04       		.uleb128 0x4
 1955 0078 08010000 		.4byte	.LASF10
 1956 007c 02       		.byte	0x2
 1957 007d 9A01     		.2byte	0x19a
 1958 007f 48000000 		.4byte	0x48
 1959 0083 02       		.uleb128 0x2
 1960 0084 04       		.byte	0x4
 1961 0085 04       		.byte	0x4
 1962 0086 2E030000 		.4byte	.LASF11
 1963 008a 02       		.uleb128 0x2
 1964 008b 08       		.byte	0x8
 1965 008c 04       		.byte	0x4
 1966 008d D6000000 		.4byte	.LASF12
 1967 0091 02       		.uleb128 0x2
 1968 0092 01       		.byte	0x1
 1969 0093 08       		.byte	0x8
 1970 0094 21040000 		.4byte	.LASF13
 1971 0098 04       		.uleb128 0x4
 1972 0099 7B020000 		.4byte	.LASF14
 1973 009d 02       		.byte	0x2
 1974 009e 4402     		.2byte	0x244
 1975 00a0 A4000000 		.4byte	0xa4
 1976 00a4 05       		.uleb128 0x5
 1977 00a5 77000000 		.4byte	0x77
 1978 00a9 02       		.uleb128 0x2
 1979 00aa 04       		.byte	0x4
 1980 00ab 07       		.byte	0x7
 1981 00ac 9A020000 		.4byte	.LASF15
 1982 00b0 06       		.uleb128 0x6
 1983 00b1 F0040000 		.4byte	.LASF16
 1984 00b5 01       		.byte	0x1
 1985 00b6 26       		.byte	0x26
 1986 00b7 00000000 		.4byte	.LFB2
 1987 00bb 4C000000 		.4byte	.LFE2-.LFB2
 1988 00bf 01       		.uleb128 0x1
 1989 00c0 9C       		.byte	0x9c
 1990 00c1 07       		.uleb128 0x7
 1991 00c2 54010000 		.4byte	.LASF18
 1992 00c6 01       		.byte	0x1
 1993 00c7 B1       		.byte	0xb1
 1994 00c8 00000000 		.4byte	.LFB3
 1995 00cc 38000000 		.4byte	.LFE3-.LFB3
 1996 00d0 01       		.uleb128 0x1
 1997 00d1 9C       		.byte	0x9c
 1998 00d2 E5000000 		.4byte	0xe5
 1999 00d6 08       		.uleb128 0x8
 2000 00d7 92040000 		.4byte	.LASF20
 2001 00db 01       		.byte	0x1
 2002 00dc B3       		.byte	0xb3
 2003 00dd 6B000000 		.4byte	0x6b
 2004 00e1 02       		.uleb128 0x2
 2005 00e2 91       		.byte	0x91
ARM GAS  C:\Users\Petro\AppData\Local\Temp\cc0Wxiax.s 			page 61


 2006 00e3 6F       		.sleb128 -17
 2007 00e4 00       		.byte	0
 2008 00e5 06       		.uleb128 0x6
 2009 00e6 C9020000 		.4byte	.LASF17
 2010 00ea 01       		.byte	0x1
 2011 00eb E6       		.byte	0xe6
 2012 00ec 00000000 		.4byte	.LFB4
 2013 00f0 24000000 		.4byte	.LFE4-.LFB4
 2014 00f4 01       		.uleb128 0x1
 2015 00f5 9C       		.byte	0x9c
 2016 00f6 09       		.uleb128 0x9
 2017 00f7 8D020000 		.4byte	.LASF19
 2018 00fb 01       		.byte	0x1
 2019 00fc 0001     		.2byte	0x100
 2020 00fe 00000000 		.4byte	.LFB5
 2021 0102 30000000 		.4byte	.LFE5-.LFB5
 2022 0106 01       		.uleb128 0x1
 2023 0107 9C       		.byte	0x9c
 2024 0108 1C010000 		.4byte	0x11c
 2025 010c 0A       		.uleb128 0xa
 2026 010d 92040000 		.4byte	.LASF20
 2027 0111 01       		.byte	0x1
 2028 0112 0201     		.2byte	0x102
 2029 0114 6B000000 		.4byte	0x6b
 2030 0118 02       		.uleb128 0x2
 2031 0119 91       		.byte	0x91
 2032 011a 6F       		.sleb128 -17
 2033 011b 00       		.byte	0
 2034 011c 09       		.uleb128 0x9
 2035 011d 0A030000 		.4byte	.LASF21
 2036 0121 01       		.byte	0x1
 2037 0122 2501     		.2byte	0x125
 2038 0124 00000000 		.4byte	.LFB6
 2039 0128 48000000 		.4byte	.LFE6-.LFB6
 2040 012c 01       		.uleb128 0x1
 2041 012d 9C       		.byte	0x9c
 2042 012e 51010000 		.4byte	0x151
 2043 0132 0B       		.uleb128 0xb
 2044 0133 26040000 		.4byte	.LASF23
 2045 0137 01       		.byte	0x1
 2046 0138 2501     		.2byte	0x125
 2047 013a 77000000 		.4byte	0x77
 2048 013e 02       		.uleb128 0x2
 2049 013f 91       		.byte	0x91
 2050 0140 64       		.sleb128 -28
 2051 0141 0A       		.uleb128 0xa
 2052 0142 92040000 		.4byte	.LASF20
 2053 0146 01       		.byte	0x1
 2054 0147 2701     		.2byte	0x127
 2055 0149 6B000000 		.4byte	0x6b
 2056 014d 02       		.uleb128 0x2
 2057 014e 91       		.byte	0x91
 2058 014f 6F       		.sleb128 -17
 2059 0150 00       		.byte	0
 2060 0151 09       		.uleb128 0x9
 2061 0152 B9050000 		.4byte	.LASF22
 2062 0156 01       		.byte	0x1
ARM GAS  C:\Users\Petro\AppData\Local\Temp\cc0Wxiax.s 			page 62


 2063 0157 4601     		.2byte	0x146
 2064 0159 00000000 		.4byte	.LFB7
 2065 015d 48000000 		.4byte	.LFE7-.LFB7
 2066 0161 01       		.uleb128 0x1
 2067 0162 9C       		.byte	0x9c
 2068 0163 86010000 		.4byte	0x186
 2069 0167 0B       		.uleb128 0xb
 2070 0168 63000000 		.4byte	.LASF24
 2071 016c 01       		.byte	0x1
 2072 016d 4601     		.2byte	0x146
 2073 016f 77000000 		.4byte	0x77
 2074 0173 02       		.uleb128 0x2
 2075 0174 91       		.byte	0x91
 2076 0175 64       		.sleb128 -28
 2077 0176 0A       		.uleb128 0xa
 2078 0177 92040000 		.4byte	.LASF20
 2079 017b 01       		.byte	0x1
 2080 017c 4801     		.2byte	0x148
 2081 017e 6B000000 		.4byte	0x6b
 2082 0182 02       		.uleb128 0x2
 2083 0183 91       		.byte	0x91
 2084 0184 6F       		.sleb128 -17
 2085 0185 00       		.byte	0
 2086 0186 09       		.uleb128 0x9
 2087 0187 B8040000 		.4byte	.LASF25
 2088 018b 01       		.byte	0x1
 2089 018c 6B01     		.2byte	0x16b
 2090 018e 00000000 		.4byte	.LFB8
 2091 0192 48000000 		.4byte	.LFE8-.LFB8
 2092 0196 01       		.uleb128 0x1
 2093 0197 9C       		.byte	0x9c
 2094 0198 BB010000 		.4byte	0x1bb
 2095 019c 0B       		.uleb128 0xb
 2096 019d 34030000 		.4byte	.LASF26
 2097 01a1 01       		.byte	0x1
 2098 01a2 6B01     		.2byte	0x16b
 2099 01a4 77000000 		.4byte	0x77
 2100 01a8 02       		.uleb128 0x2
 2101 01a9 91       		.byte	0x91
 2102 01aa 64       		.sleb128 -28
 2103 01ab 0A       		.uleb128 0xa
 2104 01ac 92040000 		.4byte	.LASF20
 2105 01b0 01       		.byte	0x1
 2106 01b1 6D01     		.2byte	0x16d
 2107 01b3 6B000000 		.4byte	0x6b
 2108 01b7 02       		.uleb128 0x2
 2109 01b8 91       		.byte	0x91
 2110 01b9 6F       		.sleb128 -17
 2111 01ba 00       		.byte	0
 2112 01bb 09       		.uleb128 0x9
 2113 01bc 2B040000 		.4byte	.LASF27
 2114 01c0 01       		.byte	0x1
 2115 01c1 8B01     		.2byte	0x18b
 2116 01c3 00000000 		.4byte	.LFB9
 2117 01c7 4C000000 		.4byte	.LFE9-.LFB9
 2118 01cb 01       		.uleb128 0x1
 2119 01cc 9C       		.byte	0x9c
ARM GAS  C:\Users\Petro\AppData\Local\Temp\cc0Wxiax.s 			page 63


 2120 01cd F0010000 		.4byte	0x1f0
 2121 01d1 0B       		.uleb128 0xb
 2122 01d2 49020000 		.4byte	.LASF28
 2123 01d6 01       		.byte	0x1
 2124 01d7 8B01     		.2byte	0x18b
 2125 01d9 77000000 		.4byte	0x77
 2126 01dd 02       		.uleb128 0x2
 2127 01de 91       		.byte	0x91
 2128 01df 64       		.sleb128 -28
 2129 01e0 0A       		.uleb128 0xa
 2130 01e1 92040000 		.4byte	.LASF20
 2131 01e5 01       		.byte	0x1
 2132 01e6 8D01     		.2byte	0x18d
 2133 01e8 6B000000 		.4byte	0x6b
 2134 01ec 02       		.uleb128 0x2
 2135 01ed 91       		.byte	0x91
 2136 01ee 6F       		.sleb128 -17
 2137 01ef 00       		.byte	0
 2138 01f0 0C       		.uleb128 0xc
 2139 01f1 DF020000 		.4byte	.LASF29
 2140 01f5 01       		.byte	0x1
 2141 01f6 C101     		.2byte	0x1c1
 2142 01f8 00000000 		.4byte	.LFB10
 2143 01fc 1C000000 		.4byte	.LFE10-.LFB10
 2144 0200 01       		.uleb128 0x1
 2145 0201 9C       		.byte	0x9c
 2146 0202 16020000 		.4byte	0x216
 2147 0206 0B       		.uleb128 0xb
 2148 0207 B7010000 		.4byte	.LASF30
 2149 020b 01       		.byte	0x1
 2150 020c C101     		.2byte	0x1c1
 2151 020e 77000000 		.4byte	0x77
 2152 0212 02       		.uleb128 0x2
 2153 0213 91       		.byte	0x91
 2154 0214 74       		.sleb128 -12
 2155 0215 00       		.byte	0
 2156 0216 09       		.uleb128 0x9
 2157 0217 A4000000 		.4byte	.LASF31
 2158 021b 01       		.byte	0x1
 2159 021c E501     		.2byte	0x1e5
 2160 021e 00000000 		.4byte	.LFB11
 2161 0222 48000000 		.4byte	.LFE11-.LFB11
 2162 0226 01       		.uleb128 0x1
 2163 0227 9C       		.byte	0x9c
 2164 0228 4B020000 		.4byte	0x24b
 2165 022c 0B       		.uleb128 0xb
 2166 022d BA020000 		.4byte	.LASF32
 2167 0231 01       		.byte	0x1
 2168 0232 E501     		.2byte	0x1e5
 2169 0234 77000000 		.4byte	0x77
 2170 0238 02       		.uleb128 0x2
 2171 0239 91       		.byte	0x91
 2172 023a 64       		.sleb128 -28
 2173 023b 0A       		.uleb128 0xa
 2174 023c 92040000 		.4byte	.LASF20
 2175 0240 01       		.byte	0x1
 2176 0241 E701     		.2byte	0x1e7
ARM GAS  C:\Users\Petro\AppData\Local\Temp\cc0Wxiax.s 			page 64


 2177 0243 6B000000 		.4byte	0x6b
 2178 0247 02       		.uleb128 0x2
 2179 0248 91       		.byte	0x91
 2180 0249 6F       		.sleb128 -17
 2181 024a 00       		.byte	0
 2182 024b 09       		.uleb128 0x9
 2183 024c C1030000 		.4byte	.LASF33
 2184 0250 01       		.byte	0x1
 2185 0251 0702     		.2byte	0x207
 2186 0253 00000000 		.4byte	.LFB12
 2187 0257 48000000 		.4byte	.LFE12-.LFB12
 2188 025b 01       		.uleb128 0x1
 2189 025c 9C       		.byte	0x9c
 2190 025d 80020000 		.4byte	0x280
 2191 0261 0B       		.uleb128 0xb
 2192 0262 84030000 		.4byte	.LASF34
 2193 0266 01       		.byte	0x1
 2194 0267 0702     		.2byte	0x207
 2195 0269 77000000 		.4byte	0x77
 2196 026d 02       		.uleb128 0x2
 2197 026e 91       		.byte	0x91
 2198 026f 64       		.sleb128 -28
 2199 0270 0A       		.uleb128 0xa
 2200 0271 92040000 		.4byte	.LASF20
 2201 0275 01       		.byte	0x1
 2202 0276 0902     		.2byte	0x209
 2203 0278 6B000000 		.4byte	0x6b
 2204 027c 02       		.uleb128 0x2
 2205 027d 91       		.byte	0x91
 2206 027e 6F       		.sleb128 -17
 2207 027f 00       		.byte	0
 2208 0280 09       		.uleb128 0x9
 2209 0281 A3020000 		.4byte	.LASF35
 2210 0285 01       		.byte	0x1
 2211 0286 2802     		.2byte	0x228
 2212 0288 00000000 		.4byte	.LFB13
 2213 028c 4C000000 		.4byte	.LFE13-.LFB13
 2214 0290 01       		.uleb128 0x1
 2215 0291 9C       		.byte	0x9c
 2216 0292 B5020000 		.4byte	0x2b5
 2217 0296 0B       		.uleb128 0xb
 2218 0297 34010000 		.4byte	.LASF36
 2219 029b 01       		.byte	0x1
 2220 029c 2802     		.2byte	0x228
 2221 029e 77000000 		.4byte	0x77
 2222 02a2 02       		.uleb128 0x2
 2223 02a3 91       		.byte	0x91
 2224 02a4 64       		.sleb128 -28
 2225 02a5 0A       		.uleb128 0xa
 2226 02a6 92040000 		.4byte	.LASF20
 2227 02aa 01       		.byte	0x1
 2228 02ab 2A02     		.2byte	0x22a
 2229 02ad 6B000000 		.4byte	0x6b
 2230 02b1 02       		.uleb128 0x2
 2231 02b2 91       		.byte	0x91
 2232 02b3 6F       		.sleb128 -17
 2233 02b4 00       		.byte	0
ARM GAS  C:\Users\Petro\AppData\Local\Temp\cc0Wxiax.s 			page 65


 2234 02b5 09       		.uleb128 0x9
 2235 02b6 C1000000 		.4byte	.LASF37
 2236 02ba 01       		.byte	0x1
 2237 02bb 4902     		.2byte	0x249
 2238 02bd 00000000 		.4byte	.LFB14
 2239 02c1 48000000 		.4byte	.LFE14-.LFB14
 2240 02c5 01       		.uleb128 0x1
 2241 02c6 9C       		.byte	0x9c
 2242 02c7 EA020000 		.4byte	0x2ea
 2243 02cb 0B       		.uleb128 0xb
 2244 02cc 1B010000 		.4byte	.LASF38
 2245 02d0 01       		.byte	0x1
 2246 02d1 4902     		.2byte	0x249
 2247 02d3 77000000 		.4byte	0x77
 2248 02d7 02       		.uleb128 0x2
 2249 02d8 91       		.byte	0x91
 2250 02d9 64       		.sleb128 -28
 2251 02da 0A       		.uleb128 0xa
 2252 02db 92040000 		.4byte	.LASF20
 2253 02df 01       		.byte	0x1
 2254 02e0 4B02     		.2byte	0x24b
 2255 02e2 6B000000 		.4byte	0x6b
 2256 02e6 02       		.uleb128 0x2
 2257 02e7 91       		.byte	0x91
 2258 02e8 6F       		.sleb128 -17
 2259 02e9 00       		.byte	0
 2260 02ea 0C       		.uleb128 0xc
 2261 02eb 20000000 		.4byte	.LASF39
 2262 02ef 01       		.byte	0x1
 2263 02f0 6702     		.2byte	0x267
 2264 02f2 00000000 		.4byte	.LFB15
 2265 02f6 1C000000 		.4byte	.LFE15-.LFB15
 2266 02fa 01       		.uleb128 0x1
 2267 02fb 9C       		.byte	0x9c
 2268 02fc 10030000 		.4byte	0x310
 2269 0300 0B       		.uleb128 0xb
 2270 0301 00000000 		.4byte	.LASF40
 2271 0305 01       		.byte	0x1
 2272 0306 6702     		.2byte	0x267
 2273 0308 77000000 		.4byte	0x77
 2274 030c 02       		.uleb128 0x2
 2275 030d 91       		.byte	0x91
 2276 030e 74       		.sleb128 -12
 2277 030f 00       		.byte	0
 2278 0310 0D       		.uleb128 0xd
 2279 0311 3E040000 		.4byte	.LASF45
 2280 0315 01       		.byte	0x1
 2281 0316 7B02     		.2byte	0x27b
 2282 0318 77000000 		.4byte	0x77
 2283 031c 00000000 		.4byte	.LFB16
 2284 0320 18000000 		.4byte	.LFE16-.LFB16
 2285 0324 01       		.uleb128 0x1
 2286 0325 9C       		.byte	0x9c
 2287 0326 09       		.uleb128 0x9
 2288 0327 7B040000 		.4byte	.LASF41
 2289 032b 01       		.byte	0x1
 2290 032c 9802     		.2byte	0x298
ARM GAS  C:\Users\Petro\AppData\Local\Temp\cc0Wxiax.s 			page 66


 2291 032e 00000000 		.4byte	.LFB17
 2292 0332 48000000 		.4byte	.LFE17-.LFB17
 2293 0336 01       		.uleb128 0x1
 2294 0337 9C       		.byte	0x9c
 2295 0338 5B030000 		.4byte	0x35b
 2296 033c 0B       		.uleb128 0xb
 2297 033d 81020000 		.4byte	.LASF42
 2298 0341 01       		.byte	0x1
 2299 0342 9802     		.2byte	0x298
 2300 0344 77000000 		.4byte	0x77
 2301 0348 02       		.uleb128 0x2
 2302 0349 91       		.byte	0x91
 2303 034a 64       		.sleb128 -28
 2304 034b 0A       		.uleb128 0xa
 2305 034c 92040000 		.4byte	.LASF20
 2306 0350 01       		.byte	0x1
 2307 0351 9A02     		.2byte	0x29a
 2308 0353 6B000000 		.4byte	0x6b
 2309 0357 02       		.uleb128 0x2
 2310 0358 91       		.byte	0x91
 2311 0359 6F       		.sleb128 -17
 2312 035a 00       		.byte	0
 2313 035b 0C       		.uleb128 0xc
 2314 035c 57020000 		.4byte	.LASF43
 2315 0360 01       		.byte	0x1
 2316 0361 B502     		.2byte	0x2b5
 2317 0363 00000000 		.4byte	.LFB18
 2318 0367 1C000000 		.4byte	.LFE18-.LFB18
 2319 036b 01       		.uleb128 0x1
 2320 036c 9C       		.byte	0x9c
 2321 036d 81030000 		.4byte	0x381
 2322 0371 0B       		.uleb128 0xb
 2323 0372 19000000 		.4byte	.LASF44
 2324 0376 01       		.byte	0x1
 2325 0377 B502     		.2byte	0x2b5
 2326 0379 77000000 		.4byte	0x77
 2327 037d 02       		.uleb128 0x2
 2328 037e 91       		.byte	0x91
 2329 037f 74       		.sleb128 -12
 2330 0380 00       		.byte	0
 2331 0381 0D       		.uleb128 0xd
 2332 0382 06000000 		.4byte	.LASF46
 2333 0386 01       		.byte	0x1
 2334 0387 C902     		.2byte	0x2c9
 2335 0389 77000000 		.4byte	0x77
 2336 038d 00000000 		.4byte	.LFB19
 2337 0391 18000000 		.4byte	.LFE19-.LFB19
 2338 0395 01       		.uleb128 0x1
 2339 0396 9C       		.byte	0x9c
 2340 0397 09       		.uleb128 0x9
 2341 0398 6A000000 		.4byte	.LASF47
 2342 039c 01       		.byte	0x1
 2343 039d E302     		.2byte	0x2e3
 2344 039f 00000000 		.4byte	.LFB20
 2345 03a3 48000000 		.4byte	.LFE20-.LFB20
 2346 03a7 01       		.uleb128 0x1
 2347 03a8 9C       		.byte	0x9c
ARM GAS  C:\Users\Petro\AppData\Local\Temp\cc0Wxiax.s 			page 67


 2348 03a9 CC030000 		.4byte	0x3cc
 2349 03ad 0B       		.uleb128 0xb
 2350 03ae 52040000 		.4byte	.LASF48
 2351 03b2 01       		.byte	0x1
 2352 03b3 E302     		.2byte	0x2e3
 2353 03b5 77000000 		.4byte	0x77
 2354 03b9 02       		.uleb128 0x2
 2355 03ba 91       		.byte	0x91
 2356 03bb 64       		.sleb128 -28
 2357 03bc 0A       		.uleb128 0xa
 2358 03bd 92040000 		.4byte	.LASF20
 2359 03c1 01       		.byte	0x1
 2360 03c2 E502     		.2byte	0x2e5
 2361 03c4 6B000000 		.4byte	0x6b
 2362 03c8 02       		.uleb128 0x2
 2363 03c9 91       		.byte	0x91
 2364 03ca 6F       		.sleb128 -17
 2365 03cb 00       		.byte	0
 2366 03cc 0C       		.uleb128 0xc
 2367 03cd 3E030000 		.4byte	.LASF49
 2368 03d1 01       		.byte	0x1
 2369 03d2 FE02     		.2byte	0x2fe
 2370 03d4 00000000 		.4byte	.LFB21
 2371 03d8 1C000000 		.4byte	.LFE21-.LFB21
 2372 03dc 01       		.uleb128 0x1
 2373 03dd 9C       		.byte	0x9c
 2374 03de F2030000 		.4byte	0x3f2
 2375 03e2 0B       		.uleb128 0xb
 2376 03e3 E2050000 		.4byte	.LASF50
 2377 03e7 01       		.byte	0x1
 2378 03e8 FE02     		.2byte	0x2fe
 2379 03ea 77000000 		.4byte	0x77
 2380 03ee 02       		.uleb128 0x2
 2381 03ef 91       		.byte	0x91
 2382 03f0 74       		.sleb128 -12
 2383 03f1 00       		.byte	0
 2384 03f2 0D       		.uleb128 0xd
 2385 03f3 F2000000 		.4byte	.LASF51
 2386 03f7 01       		.byte	0x1
 2387 03f8 1203     		.2byte	0x312
 2388 03fa 77000000 		.4byte	0x77
 2389 03fe 00000000 		.4byte	.LFB22
 2390 0402 18000000 		.4byte	.LFE22-.LFB22
 2391 0406 01       		.uleb128 0x1
 2392 0407 9C       		.byte	0x9c
 2393 0408 09       		.uleb128 0x9
 2394 0409 70010000 		.4byte	.LASF52
 2395 040d 01       		.byte	0x1
 2396 040e 2C03     		.2byte	0x32c
 2397 0410 00000000 		.4byte	.LFB23
 2398 0414 48000000 		.4byte	.LFE23-.LFB23
 2399 0418 01       		.uleb128 0x1
 2400 0419 9C       		.byte	0x9c
 2401 041a 3D040000 		.4byte	0x43d
 2402 041e 0B       		.uleb128 0xb
 2403 041f 52040000 		.4byte	.LASF48
 2404 0423 01       		.byte	0x1
ARM GAS  C:\Users\Petro\AppData\Local\Temp\cc0Wxiax.s 			page 68


 2405 0424 2C03     		.2byte	0x32c
 2406 0426 77000000 		.4byte	0x77
 2407 042a 02       		.uleb128 0x2
 2408 042b 91       		.byte	0x91
 2409 042c 64       		.sleb128 -28
 2410 042d 0A       		.uleb128 0xa
 2411 042e 92040000 		.4byte	.LASF20
 2412 0432 01       		.byte	0x1
 2413 0433 2E03     		.2byte	0x32e
 2414 0435 6B000000 		.4byte	0x6b
 2415 0439 02       		.uleb128 0x2
 2416 043a 91       		.byte	0x91
 2417 043b 6F       		.sleb128 -17
 2418 043c 00       		.byte	0
 2419 043d 0C       		.uleb128 0xc
 2420 043e A4050000 		.4byte	.LASF53
 2421 0442 01       		.byte	0x1
 2422 0443 5103     		.2byte	0x351
 2423 0445 00000000 		.4byte	.LFB24
 2424 0449 1C000000 		.4byte	.LFE24-.LFB24
 2425 044d 01       		.uleb128 0x1
 2426 044e 9C       		.byte	0x9c
 2427 044f 63040000 		.4byte	0x463
 2428 0453 0B       		.uleb128 0xb
 2429 0454 D7020000 		.4byte	.LASF54
 2430 0458 01       		.byte	0x1
 2431 0459 5103     		.2byte	0x351
 2432 045b 77000000 		.4byte	0x77
 2433 045f 02       		.uleb128 0x2
 2434 0460 91       		.byte	0x91
 2435 0461 74       		.sleb128 -12
 2436 0462 00       		.byte	0
 2437 0463 0D       		.uleb128 0xd
 2438 0464 9F030000 		.4byte	.LASF55
 2439 0468 01       		.byte	0x1
 2440 0469 8403     		.2byte	0x384
 2441 046b 77000000 		.4byte	0x77
 2442 046f 00000000 		.4byte	.LFB25
 2443 0473 18000000 		.4byte	.LFE25-.LFB25
 2444 0477 01       		.uleb128 0x1
 2445 0478 9C       		.byte	0x9c
 2446 0479 0C       		.uleb128 0xc
 2447 047a F2020000 		.4byte	.LASF56
 2448 047e 01       		.byte	0x1
 2449 047f BA03     		.2byte	0x3ba
 2450 0481 00000000 		.4byte	.LFB26
 2451 0485 1C000000 		.4byte	.LFE26-.LFB26
 2452 0489 01       		.uleb128 0x1
 2453 048a 9C       		.byte	0x9c
 2454 048b 9F040000 		.4byte	0x49f
 2455 048f 0B       		.uleb128 0xb
 2456 0490 70040000 		.4byte	.LASF57
 2457 0494 01       		.byte	0x1
 2458 0495 BA03     		.2byte	0x3ba
 2459 0497 77000000 		.4byte	0x77
 2460 049b 02       		.uleb128 0x2
 2461 049c 91       		.byte	0x91
ARM GAS  C:\Users\Petro\AppData\Local\Temp\cc0Wxiax.s 			page 69


 2462 049d 74       		.sleb128 -12
 2463 049e 00       		.byte	0
 2464 049f 0D       		.uleb128 0xd
 2465 04a0 4C000000 		.4byte	.LASF58
 2466 04a4 01       		.byte	0x1
 2467 04a5 E803     		.2byte	0x3e8
 2468 04a7 77000000 		.4byte	0x77
 2469 04ab 00000000 		.4byte	.LFB27
 2470 04af 18000000 		.4byte	.LFE27-.LFB27
 2471 04b3 01       		.uleb128 0x1
 2472 04b4 9C       		.byte	0x9c
 2473 04b5 0D       		.uleb128 0xd
 2474 04b6 1A030000 		.4byte	.LASF59
 2475 04ba 01       		.byte	0x1
 2476 04bb 1604     		.2byte	0x416
 2477 04bd 77000000 		.4byte	0x77
 2478 04c1 00000000 		.4byte	.LFB28
 2479 04c5 18000000 		.4byte	.LFE28-.LFB28
 2480 04c9 01       		.uleb128 0x1
 2481 04ca 9C       		.byte	0x9c
 2482 04cb 0D       		.uleb128 0xd
 2483 04cc DA030000 		.4byte	.LASF60
 2484 04d0 01       		.byte	0x1
 2485 04d1 2B04     		.2byte	0x42b
 2486 04d3 77000000 		.4byte	0x77
 2487 04d7 00000000 		.4byte	.LFB29
 2488 04db 18000000 		.4byte	.LFE29-.LFB29
 2489 04df 01       		.uleb128 0x1
 2490 04e0 9C       		.byte	0x9c
 2491 04e1 09       		.uleb128 0x9
 2492 04e2 CB050000 		.4byte	.LASF61
 2493 04e6 01       		.byte	0x1
 2494 04e7 4604     		.2byte	0x446
 2495 04e9 00000000 		.4byte	.LFB30
 2496 04ed 44000000 		.4byte	.LFE30-.LFB30
 2497 04f1 01       		.uleb128 0x1
 2498 04f2 9C       		.byte	0x9c
 2499 04f3 16050000 		.4byte	0x516
 2500 04f7 0B       		.uleb128 0xb
 2501 04f8 0F010000 		.4byte	.LASF62
 2502 04fc 01       		.byte	0x1
 2503 04fd 4604     		.2byte	0x446
 2504 04ff 77000000 		.4byte	0x77
 2505 0503 02       		.uleb128 0x2
 2506 0504 91       		.byte	0x91
 2507 0505 64       		.sleb128 -28
 2508 0506 0A       		.uleb128 0xa
 2509 0507 92040000 		.4byte	.LASF20
 2510 050b 01       		.byte	0x1
 2511 050c 4804     		.2byte	0x448
 2512 050e 6B000000 		.4byte	0x6b
 2513 0512 02       		.uleb128 0x2
 2514 0513 91       		.byte	0x91
 2515 0514 6F       		.sleb128 -17
 2516 0515 00       		.byte	0
 2517 0516 09       		.uleb128 0x9
 2518 0517 33020000 		.4byte	.LASF63
ARM GAS  C:\Users\Petro\AppData\Local\Temp\cc0Wxiax.s 			page 70


 2519 051b 01       		.byte	0x1
 2520 051c 6704     		.2byte	0x467
 2521 051e 00000000 		.4byte	.LFB31
 2522 0522 44000000 		.4byte	.LFE31-.LFB31
 2523 0526 01       		.uleb128 0x1
 2524 0527 9C       		.byte	0x9c
 2525 0528 4B050000 		.4byte	0x54b
 2526 052c 0B       		.uleb128 0xb
 2527 052d 0F010000 		.4byte	.LASF62
 2528 0531 01       		.byte	0x1
 2529 0532 6704     		.2byte	0x467
 2530 0534 77000000 		.4byte	0x77
 2531 0538 02       		.uleb128 0x2
 2532 0539 91       		.byte	0x91
 2533 053a 64       		.sleb128 -28
 2534 053b 0A       		.uleb128 0xa
 2535 053c 92040000 		.4byte	.LASF20
 2536 0540 01       		.byte	0x1
 2537 0541 6904     		.2byte	0x469
 2538 0543 6B000000 		.4byte	0x6b
 2539 0547 02       		.uleb128 0x2
 2540 0548 91       		.byte	0x91
 2541 0549 6F       		.sleb128 -17
 2542 054a 00       		.byte	0
 2543 054b 09       		.uleb128 0x9
 2544 054c DD000000 		.4byte	.LASF64
 2545 0550 01       		.byte	0x1
 2546 0551 8804     		.2byte	0x488
 2547 0553 00000000 		.4byte	.LFB32
 2548 0557 48000000 		.4byte	.LFE32-.LFB32
 2549 055b 01       		.uleb128 0x1
 2550 055c 9C       		.byte	0x9c
 2551 055d 80050000 		.4byte	0x580
 2552 0561 0B       		.uleb128 0xb
 2553 0562 0F010000 		.4byte	.LASF62
 2554 0566 01       		.byte	0x1
 2555 0567 8804     		.2byte	0x488
 2556 0569 77000000 		.4byte	0x77
 2557 056d 02       		.uleb128 0x2
 2558 056e 91       		.byte	0x91
 2559 056f 64       		.sleb128 -28
 2560 0570 0A       		.uleb128 0xa
 2561 0571 92040000 		.4byte	.LASF20
 2562 0575 01       		.byte	0x1
 2563 0576 8A04     		.2byte	0x48a
 2564 0578 6B000000 		.4byte	0x6b
 2565 057c 02       		.uleb128 0x2
 2566 057d 91       		.byte	0x91
 2567 057e 6F       		.sleb128 -17
 2568 057f 00       		.byte	0
 2569 0580 09       		.uleb128 0x9
 2570 0581 20010000 		.4byte	.LASF65
 2571 0585 01       		.byte	0x1
 2572 0586 A804     		.2byte	0x4a8
 2573 0588 00000000 		.4byte	.LFB33
 2574 058c 44000000 		.4byte	.LFE33-.LFB33
 2575 0590 01       		.uleb128 0x1
ARM GAS  C:\Users\Petro\AppData\Local\Temp\cc0Wxiax.s 			page 71


 2576 0591 9C       		.byte	0x9c
 2577 0592 B5050000 		.4byte	0x5b5
 2578 0596 0B       		.uleb128 0xb
 2579 0597 0F010000 		.4byte	.LASF62
 2580 059b 01       		.byte	0x1
 2581 059c A804     		.2byte	0x4a8
 2582 059e 77000000 		.4byte	0x77
 2583 05a2 02       		.uleb128 0x2
 2584 05a3 91       		.byte	0x91
 2585 05a4 64       		.sleb128 -28
 2586 05a5 0A       		.uleb128 0xa
 2587 05a6 92040000 		.4byte	.LASF20
 2588 05aa 01       		.byte	0x1
 2589 05ab AA04     		.2byte	0x4aa
 2590 05ad 6B000000 		.4byte	0x6b
 2591 05b1 02       		.uleb128 0x2
 2592 05b2 91       		.byte	0x91
 2593 05b3 6F       		.sleb128 -17
 2594 05b4 00       		.byte	0
 2595 05b5 09       		.uleb128 0x9
 2596 05b6 A3040000 		.4byte	.LASF66
 2597 05ba 01       		.byte	0x1
 2598 05bb C904     		.2byte	0x4c9
 2599 05bd 00000000 		.4byte	.LFB34
 2600 05c1 44000000 		.4byte	.LFE34-.LFB34
 2601 05c5 01       		.uleb128 0x1
 2602 05c6 9C       		.byte	0x9c
 2603 05c7 EA050000 		.4byte	0x5ea
 2604 05cb 0B       		.uleb128 0xb
 2605 05cc 0F010000 		.4byte	.LASF62
 2606 05d0 01       		.byte	0x1
 2607 05d1 C904     		.2byte	0x4c9
 2608 05d3 77000000 		.4byte	0x77
 2609 05d7 02       		.uleb128 0x2
 2610 05d8 91       		.byte	0x91
 2611 05d9 64       		.sleb128 -28
 2612 05da 0A       		.uleb128 0xa
 2613 05db 92040000 		.4byte	.LASF20
 2614 05df 01       		.byte	0x1
 2615 05e0 CB04     		.2byte	0x4cb
 2616 05e2 6B000000 		.4byte	0x6b
 2617 05e6 02       		.uleb128 0x2
 2618 05e7 91       		.byte	0x91
 2619 05e8 6F       		.sleb128 -17
 2620 05e9 00       		.byte	0
 2621 05ea 09       		.uleb128 0x9
 2622 05eb 3D010000 		.4byte	.LASF67
 2623 05ef 01       		.byte	0x1
 2624 05f0 F104     		.2byte	0x4f1
 2625 05f2 00000000 		.4byte	.LFB35
 2626 05f6 38000000 		.4byte	.LFE35-.LFB35
 2627 05fa 01       		.uleb128 0x1
 2628 05fb 9C       		.byte	0x9c
 2629 05fc 2E060000 		.4byte	0x62e
 2630 0600 0B       		.uleb128 0xb
 2631 0601 1B010000 		.4byte	.LASF38
 2632 0605 01       		.byte	0x1
ARM GAS  C:\Users\Petro\AppData\Local\Temp\cc0Wxiax.s 			page 72


 2633 0606 F104     		.2byte	0x4f1
 2634 0608 77000000 		.4byte	0x77
 2635 060c 02       		.uleb128 0x2
 2636 060d 91       		.byte	0x91
 2637 060e 64       		.sleb128 -28
 2638 060f 0B       		.uleb128 0xb
 2639 0610 9D010000 		.4byte	.LASF68
 2640 0614 01       		.byte	0x1
 2641 0615 F104     		.2byte	0x4f1
 2642 0617 77000000 		.4byte	0x77
 2643 061b 02       		.uleb128 0x2
 2644 061c 91       		.byte	0x91
 2645 061d 60       		.sleb128 -32
 2646 061e 0A       		.uleb128 0xa
 2647 061f 92040000 		.4byte	.LASF20
 2648 0623 01       		.byte	0x1
 2649 0624 F304     		.2byte	0x4f3
 2650 0626 6B000000 		.4byte	0x6b
 2651 062a 02       		.uleb128 0x2
 2652 062b 91       		.byte	0x91
 2653 062c 6F       		.sleb128 -17
 2654 062d 00       		.byte	0
 2655 062e 0D       		.uleb128 0xd
 2656 062f 5D040000 		.4byte	.LASF69
 2657 0633 01       		.byte	0x1
 2658 0634 0E05     		.2byte	0x50e
 2659 0636 77000000 		.4byte	0x77
 2660 063a 00000000 		.4byte	.LFB36
 2661 063e 20000000 		.4byte	.LFE36-.LFB36
 2662 0642 01       		.uleb128 0x1
 2663 0643 9C       		.byte	0x9c
 2664 0644 0C       		.uleb128 0xc
 2665 0645 8B050000 		.4byte	.LASF70
 2666 0649 01       		.byte	0x1
 2667 064a 2705     		.2byte	0x527
 2668 064c 00000000 		.4byte	.LFB37
 2669 0650 18000000 		.4byte	.LFE37-.LFB37
 2670 0654 01       		.uleb128 0x1
 2671 0655 9C       		.byte	0x9c
 2672 0656 6A060000 		.4byte	0x66a
 2673 065a 0B       		.uleb128 0xb
 2674 065b B3030000 		.4byte	.LASF71
 2675 065f 01       		.byte	0x1
 2676 0660 2705     		.2byte	0x527
 2677 0662 77000000 		.4byte	0x77
 2678 0666 02       		.uleb128 0x2
 2679 0667 91       		.byte	0x91
 2680 0668 74       		.sleb128 -12
 2681 0669 00       		.byte	0
 2682 066a 0D       		.uleb128 0xd
 2683 066b 55030000 		.4byte	.LASF72
 2684 066f 01       		.byte	0x1
 2685 0670 3E05     		.2byte	0x53e
 2686 0672 77000000 		.4byte	0x77
 2687 0676 00000000 		.4byte	.LFB38
 2688 067a 14000000 		.4byte	.LFE38-.LFB38
 2689 067e 01       		.uleb128 0x1
ARM GAS  C:\Users\Petro\AppData\Local\Temp\cc0Wxiax.s 			page 73


 2690 067f 9C       		.byte	0x9c
 2691 0680 0D       		.uleb128 0xd
 2692 0681 F1030000 		.4byte	.LASF73
 2693 0685 01       		.byte	0x1
 2694 0686 5505     		.2byte	0x555
 2695 0688 77000000 		.4byte	0x77
 2696 068c 00000000 		.4byte	.LFB39
 2697 0690 14000000 		.4byte	.LFE39-.LFB39
 2698 0694 01       		.uleb128 0x1
 2699 0695 9C       		.byte	0x9c
 2700 0696 0C       		.uleb128 0xc
 2701 0697 86010000 		.4byte	.LASF74
 2702 069b 01       		.byte	0x1
 2703 069c 6C05     		.2byte	0x56c
 2704 069e 00000000 		.4byte	.LFB40
 2705 06a2 18000000 		.4byte	.LFE40-.LFB40
 2706 06a6 01       		.uleb128 0x1
 2707 06a7 9C       		.byte	0x9c
 2708 06a8 BC060000 		.4byte	0x6bc
 2709 06ac 0B       		.uleb128 0xb
 2710 06ad B3030000 		.4byte	.LASF71
 2711 06b1 01       		.byte	0x1
 2712 06b2 6C05     		.2byte	0x56c
 2713 06b4 77000000 		.4byte	0x77
 2714 06b8 02       		.uleb128 0x2
 2715 06b9 91       		.byte	0x91
 2716 06ba 74       		.sleb128 -12
 2717 06bb 00       		.byte	0
 2718 06bc 0C       		.uleb128 0xc
 2719 06bd 0C040000 		.4byte	.LASF75
 2720 06c1 01       		.byte	0x1
 2721 06c2 8305     		.2byte	0x583
 2722 06c4 00000000 		.4byte	.LFB41
 2723 06c8 18000000 		.4byte	.LFE41-.LFB41
 2724 06cc 01       		.uleb128 0x1
 2725 06cd 9C       		.byte	0x9c
 2726 06ce E2060000 		.4byte	0x6e2
 2727 06d2 0B       		.uleb128 0xb
 2728 06d3 B3030000 		.4byte	.LASF71
 2729 06d7 01       		.byte	0x1
 2730 06d8 8305     		.2byte	0x583
 2731 06da 77000000 		.4byte	0x77
 2732 06de 02       		.uleb128 0x2
 2733 06df 91       		.byte	0x91
 2734 06e0 74       		.sleb128 -12
 2735 06e1 00       		.byte	0
 2736 06e2 0E       		.uleb128 0xe
 2737 06e3 6B020000 		.4byte	.LASF79
 2738 06e7 01       		.byte	0x1
 2739 06e8 15       		.byte	0x15
 2740 06e9 6B000000 		.4byte	0x6b
 2741 06ed 05       		.uleb128 0x5
 2742 06ee 03       		.byte	0x3
 2743 06ef 00000000 		.4byte	Timer_2_initVar
 2744 06f3 00       		.byte	0
 2745              		.section	.debug_abbrev,"",%progbits
 2746              	.Ldebug_abbrev0:
ARM GAS  C:\Users\Petro\AppData\Local\Temp\cc0Wxiax.s 			page 74


 2747 0000 01       		.uleb128 0x1
 2748 0001 11       		.uleb128 0x11
 2749 0002 01       		.byte	0x1
 2750 0003 25       		.uleb128 0x25
 2751 0004 0E       		.uleb128 0xe
 2752 0005 13       		.uleb128 0x13
 2753 0006 0B       		.uleb128 0xb
 2754 0007 03       		.uleb128 0x3
 2755 0008 0E       		.uleb128 0xe
 2756 0009 1B       		.uleb128 0x1b
 2757 000a 0E       		.uleb128 0xe
 2758 000b 55       		.uleb128 0x55
 2759 000c 17       		.uleb128 0x17
 2760 000d 11       		.uleb128 0x11
 2761 000e 01       		.uleb128 0x1
 2762 000f 10       		.uleb128 0x10
 2763 0010 17       		.uleb128 0x17
 2764 0011 00       		.byte	0
 2765 0012 00       		.byte	0
 2766 0013 02       		.uleb128 0x2
 2767 0014 24       		.uleb128 0x24
 2768 0015 00       		.byte	0
 2769 0016 0B       		.uleb128 0xb
 2770 0017 0B       		.uleb128 0xb
 2771 0018 3E       		.uleb128 0x3e
 2772 0019 0B       		.uleb128 0xb
 2773 001a 03       		.uleb128 0x3
 2774 001b 0E       		.uleb128 0xe
 2775 001c 00       		.byte	0
 2776 001d 00       		.byte	0
 2777 001e 03       		.uleb128 0x3
 2778 001f 24       		.uleb128 0x24
 2779 0020 00       		.byte	0
 2780 0021 0B       		.uleb128 0xb
 2781 0022 0B       		.uleb128 0xb
 2782 0023 3E       		.uleb128 0x3e
 2783 0024 0B       		.uleb128 0xb
 2784 0025 03       		.uleb128 0x3
 2785 0026 08       		.uleb128 0x8
 2786 0027 00       		.byte	0
 2787 0028 00       		.byte	0
 2788 0029 04       		.uleb128 0x4
 2789 002a 16       		.uleb128 0x16
 2790 002b 00       		.byte	0
 2791 002c 03       		.uleb128 0x3
 2792 002d 0E       		.uleb128 0xe
 2793 002e 3A       		.uleb128 0x3a
 2794 002f 0B       		.uleb128 0xb
 2795 0030 3B       		.uleb128 0x3b
 2796 0031 05       		.uleb128 0x5
 2797 0032 49       		.uleb128 0x49
 2798 0033 13       		.uleb128 0x13
 2799 0034 00       		.byte	0
 2800 0035 00       		.byte	0
 2801 0036 05       		.uleb128 0x5
 2802 0037 35       		.uleb128 0x35
 2803 0038 00       		.byte	0
ARM GAS  C:\Users\Petro\AppData\Local\Temp\cc0Wxiax.s 			page 75


 2804 0039 49       		.uleb128 0x49
 2805 003a 13       		.uleb128 0x13
 2806 003b 00       		.byte	0
 2807 003c 00       		.byte	0
 2808 003d 06       		.uleb128 0x6
 2809 003e 2E       		.uleb128 0x2e
 2810 003f 00       		.byte	0
 2811 0040 3F       		.uleb128 0x3f
 2812 0041 19       		.uleb128 0x19
 2813 0042 03       		.uleb128 0x3
 2814 0043 0E       		.uleb128 0xe
 2815 0044 3A       		.uleb128 0x3a
 2816 0045 0B       		.uleb128 0xb
 2817 0046 3B       		.uleb128 0x3b
 2818 0047 0B       		.uleb128 0xb
 2819 0048 27       		.uleb128 0x27
 2820 0049 19       		.uleb128 0x19
 2821 004a 11       		.uleb128 0x11
 2822 004b 01       		.uleb128 0x1
 2823 004c 12       		.uleb128 0x12
 2824 004d 06       		.uleb128 0x6
 2825 004e 40       		.uleb128 0x40
 2826 004f 18       		.uleb128 0x18
 2827 0050 9642     		.uleb128 0x2116
 2828 0052 19       		.uleb128 0x19
 2829 0053 00       		.byte	0
 2830 0054 00       		.byte	0
 2831 0055 07       		.uleb128 0x7
 2832 0056 2E       		.uleb128 0x2e
 2833 0057 01       		.byte	0x1
 2834 0058 3F       		.uleb128 0x3f
 2835 0059 19       		.uleb128 0x19
 2836 005a 03       		.uleb128 0x3
 2837 005b 0E       		.uleb128 0xe
 2838 005c 3A       		.uleb128 0x3a
 2839 005d 0B       		.uleb128 0xb
 2840 005e 3B       		.uleb128 0x3b
 2841 005f 0B       		.uleb128 0xb
 2842 0060 27       		.uleb128 0x27
 2843 0061 19       		.uleb128 0x19
 2844 0062 11       		.uleb128 0x11
 2845 0063 01       		.uleb128 0x1
 2846 0064 12       		.uleb128 0x12
 2847 0065 06       		.uleb128 0x6
 2848 0066 40       		.uleb128 0x40
 2849 0067 18       		.uleb128 0x18
 2850 0068 9642     		.uleb128 0x2116
 2851 006a 19       		.uleb128 0x19
 2852 006b 01       		.uleb128 0x1
 2853 006c 13       		.uleb128 0x13
 2854 006d 00       		.byte	0
 2855 006e 00       		.byte	0
 2856 006f 08       		.uleb128 0x8
 2857 0070 34       		.uleb128 0x34
 2858 0071 00       		.byte	0
 2859 0072 03       		.uleb128 0x3
 2860 0073 0E       		.uleb128 0xe
ARM GAS  C:\Users\Petro\AppData\Local\Temp\cc0Wxiax.s 			page 76


 2861 0074 3A       		.uleb128 0x3a
 2862 0075 0B       		.uleb128 0xb
 2863 0076 3B       		.uleb128 0x3b
 2864 0077 0B       		.uleb128 0xb
 2865 0078 49       		.uleb128 0x49
 2866 0079 13       		.uleb128 0x13
 2867 007a 02       		.uleb128 0x2
 2868 007b 18       		.uleb128 0x18
 2869 007c 00       		.byte	0
 2870 007d 00       		.byte	0
 2871 007e 09       		.uleb128 0x9
 2872 007f 2E       		.uleb128 0x2e
 2873 0080 01       		.byte	0x1
 2874 0081 3F       		.uleb128 0x3f
 2875 0082 19       		.uleb128 0x19
 2876 0083 03       		.uleb128 0x3
 2877 0084 0E       		.uleb128 0xe
 2878 0085 3A       		.uleb128 0x3a
 2879 0086 0B       		.uleb128 0xb
 2880 0087 3B       		.uleb128 0x3b
 2881 0088 05       		.uleb128 0x5
 2882 0089 27       		.uleb128 0x27
 2883 008a 19       		.uleb128 0x19
 2884 008b 11       		.uleb128 0x11
 2885 008c 01       		.uleb128 0x1
 2886 008d 12       		.uleb128 0x12
 2887 008e 06       		.uleb128 0x6
 2888 008f 40       		.uleb128 0x40
 2889 0090 18       		.uleb128 0x18
 2890 0091 9642     		.uleb128 0x2116
 2891 0093 19       		.uleb128 0x19
 2892 0094 01       		.uleb128 0x1
 2893 0095 13       		.uleb128 0x13
 2894 0096 00       		.byte	0
 2895 0097 00       		.byte	0
 2896 0098 0A       		.uleb128 0xa
 2897 0099 34       		.uleb128 0x34
 2898 009a 00       		.byte	0
 2899 009b 03       		.uleb128 0x3
 2900 009c 0E       		.uleb128 0xe
 2901 009d 3A       		.uleb128 0x3a
 2902 009e 0B       		.uleb128 0xb
 2903 009f 3B       		.uleb128 0x3b
 2904 00a0 05       		.uleb128 0x5
 2905 00a1 49       		.uleb128 0x49
 2906 00a2 13       		.uleb128 0x13
 2907 00a3 02       		.uleb128 0x2
 2908 00a4 18       		.uleb128 0x18
 2909 00a5 00       		.byte	0
 2910 00a6 00       		.byte	0
 2911 00a7 0B       		.uleb128 0xb
 2912 00a8 05       		.uleb128 0x5
 2913 00a9 00       		.byte	0
 2914 00aa 03       		.uleb128 0x3
 2915 00ab 0E       		.uleb128 0xe
 2916 00ac 3A       		.uleb128 0x3a
 2917 00ad 0B       		.uleb128 0xb
ARM GAS  C:\Users\Petro\AppData\Local\Temp\cc0Wxiax.s 			page 77


 2918 00ae 3B       		.uleb128 0x3b
 2919 00af 05       		.uleb128 0x5
 2920 00b0 49       		.uleb128 0x49
 2921 00b1 13       		.uleb128 0x13
 2922 00b2 02       		.uleb128 0x2
 2923 00b3 18       		.uleb128 0x18
 2924 00b4 00       		.byte	0
 2925 00b5 00       		.byte	0
 2926 00b6 0C       		.uleb128 0xc
 2927 00b7 2E       		.uleb128 0x2e
 2928 00b8 01       		.byte	0x1
 2929 00b9 3F       		.uleb128 0x3f
 2930 00ba 19       		.uleb128 0x19
 2931 00bb 03       		.uleb128 0x3
 2932 00bc 0E       		.uleb128 0xe
 2933 00bd 3A       		.uleb128 0x3a
 2934 00be 0B       		.uleb128 0xb
 2935 00bf 3B       		.uleb128 0x3b
 2936 00c0 05       		.uleb128 0x5
 2937 00c1 27       		.uleb128 0x27
 2938 00c2 19       		.uleb128 0x19
 2939 00c3 11       		.uleb128 0x11
 2940 00c4 01       		.uleb128 0x1
 2941 00c5 12       		.uleb128 0x12
 2942 00c6 06       		.uleb128 0x6
 2943 00c7 40       		.uleb128 0x40
 2944 00c8 18       		.uleb128 0x18
 2945 00c9 9742     		.uleb128 0x2117
 2946 00cb 19       		.uleb128 0x19
 2947 00cc 01       		.uleb128 0x1
 2948 00cd 13       		.uleb128 0x13
 2949 00ce 00       		.byte	0
 2950 00cf 00       		.byte	0
 2951 00d0 0D       		.uleb128 0xd
 2952 00d1 2E       		.uleb128 0x2e
 2953 00d2 00       		.byte	0
 2954 00d3 3F       		.uleb128 0x3f
 2955 00d4 19       		.uleb128 0x19
 2956 00d5 03       		.uleb128 0x3
 2957 00d6 0E       		.uleb128 0xe
 2958 00d7 3A       		.uleb128 0x3a
 2959 00d8 0B       		.uleb128 0xb
 2960 00d9 3B       		.uleb128 0x3b
 2961 00da 05       		.uleb128 0x5
 2962 00db 27       		.uleb128 0x27
 2963 00dc 19       		.uleb128 0x19
 2964 00dd 49       		.uleb128 0x49
 2965 00de 13       		.uleb128 0x13
 2966 00df 11       		.uleb128 0x11
 2967 00e0 01       		.uleb128 0x1
 2968 00e1 12       		.uleb128 0x12
 2969 00e2 06       		.uleb128 0x6
 2970 00e3 40       		.uleb128 0x40
 2971 00e4 18       		.uleb128 0x18
 2972 00e5 9742     		.uleb128 0x2117
 2973 00e7 19       		.uleb128 0x19
 2974 00e8 00       		.byte	0
ARM GAS  C:\Users\Petro\AppData\Local\Temp\cc0Wxiax.s 			page 78


 2975 00e9 00       		.byte	0
 2976 00ea 0E       		.uleb128 0xe
 2977 00eb 34       		.uleb128 0x34
 2978 00ec 00       		.byte	0
 2979 00ed 03       		.uleb128 0x3
 2980 00ee 0E       		.uleb128 0xe
 2981 00ef 3A       		.uleb128 0x3a
 2982 00f0 0B       		.uleb128 0xb
 2983 00f1 3B       		.uleb128 0x3b
 2984 00f2 0B       		.uleb128 0xb
 2985 00f3 49       		.uleb128 0x49
 2986 00f4 13       		.uleb128 0x13
 2987 00f5 3F       		.uleb128 0x3f
 2988 00f6 19       		.uleb128 0x19
 2989 00f7 02       		.uleb128 0x2
 2990 00f8 18       		.uleb128 0x18
 2991 00f9 00       		.byte	0
 2992 00fa 00       		.byte	0
 2993 00fb 00       		.byte	0
 2994              		.section	.debug_aranges,"",%progbits
 2995 0000 54010000 		.4byte	0x154
 2996 0004 0200     		.2byte	0x2
 2997 0006 00000000 		.4byte	.Ldebug_info0
 2998 000a 04       		.byte	0x4
 2999 000b 00       		.byte	0
 3000 000c 0000     		.2byte	0
 3001 000e 0000     		.2byte	0
 3002 0010 00000000 		.4byte	.LFB2
 3003 0014 4C000000 		.4byte	.LFE2-.LFB2
 3004 0018 00000000 		.4byte	.LFB3
 3005 001c 38000000 		.4byte	.LFE3-.LFB3
 3006 0020 00000000 		.4byte	.LFB4
 3007 0024 24000000 		.4byte	.LFE4-.LFB4
 3008 0028 00000000 		.4byte	.LFB5
 3009 002c 30000000 		.4byte	.LFE5-.LFB5
 3010 0030 00000000 		.4byte	.LFB6
 3011 0034 48000000 		.4byte	.LFE6-.LFB6
 3012 0038 00000000 		.4byte	.LFB7
 3013 003c 48000000 		.4byte	.LFE7-.LFB7
 3014 0040 00000000 		.4byte	.LFB8
 3015 0044 48000000 		.4byte	.LFE8-.LFB8
 3016 0048 00000000 		.4byte	.LFB9
 3017 004c 4C000000 		.4byte	.LFE9-.LFB9
 3018 0050 00000000 		.4byte	.LFB10
 3019 0054 1C000000 		.4byte	.LFE10-.LFB10
 3020 0058 00000000 		.4byte	.LFB11
 3021 005c 48000000 		.4byte	.LFE11-.LFB11
 3022 0060 00000000 		.4byte	.LFB12
 3023 0064 48000000 		.4byte	.LFE12-.LFB12
 3024 0068 00000000 		.4byte	.LFB13
 3025 006c 4C000000 		.4byte	.LFE13-.LFB13
 3026 0070 00000000 		.4byte	.LFB14
 3027 0074 48000000 		.4byte	.LFE14-.LFB14
 3028 0078 00000000 		.4byte	.LFB15
 3029 007c 1C000000 		.4byte	.LFE15-.LFB15
 3030 0080 00000000 		.4byte	.LFB16
 3031 0084 18000000 		.4byte	.LFE16-.LFB16
ARM GAS  C:\Users\Petro\AppData\Local\Temp\cc0Wxiax.s 			page 79


 3032 0088 00000000 		.4byte	.LFB17
 3033 008c 48000000 		.4byte	.LFE17-.LFB17
 3034 0090 00000000 		.4byte	.LFB18
 3035 0094 1C000000 		.4byte	.LFE18-.LFB18
 3036 0098 00000000 		.4byte	.LFB19
 3037 009c 18000000 		.4byte	.LFE19-.LFB19
 3038 00a0 00000000 		.4byte	.LFB20
 3039 00a4 48000000 		.4byte	.LFE20-.LFB20
 3040 00a8 00000000 		.4byte	.LFB21
 3041 00ac 1C000000 		.4byte	.LFE21-.LFB21
 3042 00b0 00000000 		.4byte	.LFB22
 3043 00b4 18000000 		.4byte	.LFE22-.LFB22
 3044 00b8 00000000 		.4byte	.LFB23
 3045 00bc 48000000 		.4byte	.LFE23-.LFB23
 3046 00c0 00000000 		.4byte	.LFB24
 3047 00c4 1C000000 		.4byte	.LFE24-.LFB24
 3048 00c8 00000000 		.4byte	.LFB25
 3049 00cc 18000000 		.4byte	.LFE25-.LFB25
 3050 00d0 00000000 		.4byte	.LFB26
 3051 00d4 1C000000 		.4byte	.LFE26-.LFB26
 3052 00d8 00000000 		.4byte	.LFB27
 3053 00dc 18000000 		.4byte	.LFE27-.LFB27
 3054 00e0 00000000 		.4byte	.LFB28
 3055 00e4 18000000 		.4byte	.LFE28-.LFB28
 3056 00e8 00000000 		.4byte	.LFB29
 3057 00ec 18000000 		.4byte	.LFE29-.LFB29
 3058 00f0 00000000 		.4byte	.LFB30
 3059 00f4 44000000 		.4byte	.LFE30-.LFB30
 3060 00f8 00000000 		.4byte	.LFB31
 3061 00fc 44000000 		.4byte	.LFE31-.LFB31
 3062 0100 00000000 		.4byte	.LFB32
 3063 0104 48000000 		.4byte	.LFE32-.LFB32
 3064 0108 00000000 		.4byte	.LFB33
 3065 010c 44000000 		.4byte	.LFE33-.LFB33
 3066 0110 00000000 		.4byte	.LFB34
 3067 0114 44000000 		.4byte	.LFE34-.LFB34
 3068 0118 00000000 		.4byte	.LFB35
 3069 011c 38000000 		.4byte	.LFE35-.LFB35
 3070 0120 00000000 		.4byte	.LFB36
 3071 0124 20000000 		.4byte	.LFE36-.LFB36
 3072 0128 00000000 		.4byte	.LFB37
 3073 012c 18000000 		.4byte	.LFE37-.LFB37
 3074 0130 00000000 		.4byte	.LFB38
 3075 0134 14000000 		.4byte	.LFE38-.LFB38
 3076 0138 00000000 		.4byte	.LFB39
 3077 013c 14000000 		.4byte	.LFE39-.LFB39
 3078 0140 00000000 		.4byte	.LFB40
 3079 0144 18000000 		.4byte	.LFE40-.LFB40
 3080 0148 00000000 		.4byte	.LFB41
 3081 014c 18000000 		.4byte	.LFE41-.LFB41
 3082 0150 00000000 		.4byte	0
 3083 0154 00000000 		.4byte	0
 3084              		.section	.debug_ranges,"",%progbits
 3085              	.Ldebug_ranges0:
 3086 0000 00000000 		.4byte	.LFB2
 3087 0004 4C000000 		.4byte	.LFE2
 3088 0008 00000000 		.4byte	.LFB3
ARM GAS  C:\Users\Petro\AppData\Local\Temp\cc0Wxiax.s 			page 80


 3089 000c 38000000 		.4byte	.LFE3
 3090 0010 00000000 		.4byte	.LFB4
 3091 0014 24000000 		.4byte	.LFE4
 3092 0018 00000000 		.4byte	.LFB5
 3093 001c 30000000 		.4byte	.LFE5
 3094 0020 00000000 		.4byte	.LFB6
 3095 0024 48000000 		.4byte	.LFE6
 3096 0028 00000000 		.4byte	.LFB7
 3097 002c 48000000 		.4byte	.LFE7
 3098 0030 00000000 		.4byte	.LFB8
 3099 0034 48000000 		.4byte	.LFE8
 3100 0038 00000000 		.4byte	.LFB9
 3101 003c 4C000000 		.4byte	.LFE9
 3102 0040 00000000 		.4byte	.LFB10
 3103 0044 1C000000 		.4byte	.LFE10
 3104 0048 00000000 		.4byte	.LFB11
 3105 004c 48000000 		.4byte	.LFE11
 3106 0050 00000000 		.4byte	.LFB12
 3107 0054 48000000 		.4byte	.LFE12
 3108 0058 00000000 		.4byte	.LFB13
 3109 005c 4C000000 		.4byte	.LFE13
 3110 0060 00000000 		.4byte	.LFB14
 3111 0064 48000000 		.4byte	.LFE14
 3112 0068 00000000 		.4byte	.LFB15
 3113 006c 1C000000 		.4byte	.LFE15
 3114 0070 00000000 		.4byte	.LFB16
 3115 0074 18000000 		.4byte	.LFE16
 3116 0078 00000000 		.4byte	.LFB17
 3117 007c 48000000 		.4byte	.LFE17
 3118 0080 00000000 		.4byte	.LFB18
 3119 0084 1C000000 		.4byte	.LFE18
 3120 0088 00000000 		.4byte	.LFB19
 3121 008c 18000000 		.4byte	.LFE19
 3122 0090 00000000 		.4byte	.LFB20
 3123 0094 48000000 		.4byte	.LFE20
 3124 0098 00000000 		.4byte	.LFB21
 3125 009c 1C000000 		.4byte	.LFE21
 3126 00a0 00000000 		.4byte	.LFB22
 3127 00a4 18000000 		.4byte	.LFE22
 3128 00a8 00000000 		.4byte	.LFB23
 3129 00ac 48000000 		.4byte	.LFE23
 3130 00b0 00000000 		.4byte	.LFB24
 3131 00b4 1C000000 		.4byte	.LFE24
 3132 00b8 00000000 		.4byte	.LFB25
 3133 00bc 18000000 		.4byte	.LFE25
 3134 00c0 00000000 		.4byte	.LFB26
 3135 00c4 1C000000 		.4byte	.LFE26
 3136 00c8 00000000 		.4byte	.LFB27
 3137 00cc 18000000 		.4byte	.LFE27
 3138 00d0 00000000 		.4byte	.LFB28
 3139 00d4 18000000 		.4byte	.LFE28
 3140 00d8 00000000 		.4byte	.LFB29
 3141 00dc 18000000 		.4byte	.LFE29
 3142 00e0 00000000 		.4byte	.LFB30
 3143 00e4 44000000 		.4byte	.LFE30
 3144 00e8 00000000 		.4byte	.LFB31
 3145 00ec 44000000 		.4byte	.LFE31
ARM GAS  C:\Users\Petro\AppData\Local\Temp\cc0Wxiax.s 			page 81


 3146 00f0 00000000 		.4byte	.LFB32
 3147 00f4 48000000 		.4byte	.LFE32
 3148 00f8 00000000 		.4byte	.LFB33
 3149 00fc 44000000 		.4byte	.LFE33
 3150 0100 00000000 		.4byte	.LFB34
 3151 0104 44000000 		.4byte	.LFE34
 3152 0108 00000000 		.4byte	.LFB35
 3153 010c 38000000 		.4byte	.LFE35
 3154 0110 00000000 		.4byte	.LFB36
 3155 0114 20000000 		.4byte	.LFE36
 3156 0118 00000000 		.4byte	.LFB37
 3157 011c 18000000 		.4byte	.LFE37
 3158 0120 00000000 		.4byte	.LFB38
 3159 0124 14000000 		.4byte	.LFE38
 3160 0128 00000000 		.4byte	.LFB39
 3161 012c 14000000 		.4byte	.LFE39
 3162 0130 00000000 		.4byte	.LFB40
 3163 0134 18000000 		.4byte	.LFE40
 3164 0138 00000000 		.4byte	.LFB41
 3165 013c 18000000 		.4byte	.LFE41
 3166 0140 00000000 		.4byte	0
 3167 0144 00000000 		.4byte	0
 3168              		.section	.debug_line,"",%progbits
 3169              	.Ldebug_line0:
 3170 0000 71030000 		.section	.debug_str,"MS",%progbits,1
 3170      02004600 
 3170      00000201 
 3170      FB0E0D00 
 3170      01010101 
 3171              	.LASF40:
 3172 0000 636F756E 		.ascii	"count\000"
 3172      7400
 3173              	.LASF46:
 3174 0006 54696D65 		.ascii	"Timer_2_ReadPeriod\000"
 3174      725F325F 
 3174      52656164 
 3174      50657269 
 3174      6F6400
 3175              	.LASF44:
 3176 0019 70657269 		.ascii	"period\000"
 3176      6F6400
 3177              	.LASF39:
 3178 0020 54696D65 		.ascii	"Timer_2_WriteCounter\000"
 3178      725F325F 
 3178      57726974 
 3178      65436F75 
 3178      6E746572 
 3179              	.LASF7:
 3180 0035 6C6F6E67 		.ascii	"long long unsigned int\000"
 3180      206C6F6E 
 3180      6720756E 
 3180      7369676E 
 3180      65642069 
 3181              	.LASF58:
 3182 004c 54696D65 		.ascii	"Timer_2_ReadCompareBuf\000"
 3182      725F325F 
 3182      52656164 
ARM GAS  C:\Users\Petro\AppData\Local\Temp\cc0Wxiax.s 			page 82


 3182      436F6D70 
 3182      61726542 
 3183              	.LASF24:
 3184 0063 71644D6F 		.ascii	"qdMode\000"
 3184      646500
 3185              	.LASF47:
 3186 006a 54696D65 		.ascii	"Timer_2_SetCompareSwap\000"
 3186      725F325F 
 3186      53657443 
 3186      6F6D7061 
 3186      72655377 
 3187              	.LASF6:
 3188 0081 6C6F6E67 		.ascii	"long long int\000"
 3188      206C6F6E 
 3188      6720696E 
 3188      7400
 3189              	.LASF0:
 3190 008f 7369676E 		.ascii	"signed char\000"
 3190      65642063 
 3190      68617200 
 3191              	.LASF4:
 3192 009b 6C6F6E67 		.ascii	"long int\000"
 3192      20696E74 
 3192      00
 3193              	.LASF31:
 3194 00a4 54696D65 		.ascii	"Timer_2_SetPWMSyncKill\000"
 3194      725F325F 
 3194      53657450 
 3194      574D5379 
 3194      6E634B69 
 3195              	.LASF9:
 3196 00bb 75696E74 		.ascii	"uint8\000"
 3196      3800
 3197              	.LASF37:
 3198 00c1 54696D65 		.ascii	"Timer_2_SetPWMInvert\000"
 3198      725F325F 
 3198      53657450 
 3198      574D496E 
 3198      76657274 
 3199              	.LASF12:
 3200 00d6 646F7562 		.ascii	"double\000"
 3200      6C6500
 3201              	.LASF64:
 3202 00dd 54696D65 		.ascii	"Timer_2_SetStartMode\000"
 3202      725F325F 
 3202      53657453 
 3202      74617274 
 3202      4D6F6465 
 3203              	.LASF51:
 3204 00f2 54696D65 		.ascii	"Timer_2_ReadPeriodBuf\000"
 3204      725F325F 
 3204      52656164 
 3204      50657269 
 3204      6F644275 
 3205              	.LASF10:
 3206 0108 75696E74 		.ascii	"uint32\000"
 3206      333200
ARM GAS  C:\Users\Petro\AppData\Local\Temp\cc0Wxiax.s 			page 83


 3207              	.LASF62:
 3208 010f 74726967 		.ascii	"triggerMode\000"
 3208      6765724D 
 3208      6F646500 
 3209              	.LASF38:
 3210 011b 6D61736B 		.ascii	"mask\000"
 3210      00
 3211              	.LASF65:
 3212 0120 54696D65 		.ascii	"Timer_2_SetStopMode\000"
 3212      725F325F 
 3212      53657453 
 3212      746F704D 
 3212      6F646500 
 3213              	.LASF36:
 3214 0134 64656164 		.ascii	"deadTime\000"
 3214      54696D65 
 3214      00
 3215              	.LASF67:
 3216 013d 54696D65 		.ascii	"Timer_2_TriggerCommand\000"
 3216      725F325F 
 3216      54726967 
 3216      67657243 
 3216      6F6D6D61 
 3217              	.LASF18:
 3218 0154 54696D65 		.ascii	"Timer_2_Enable\000"
 3218      725F325F 
 3218      456E6162 
 3218      6C6500
 3219              	.LASF8:
 3220 0163 756E7369 		.ascii	"unsigned int\000"
 3220      676E6564 
 3220      20696E74 
 3220      00
 3221              	.LASF52:
 3222 0170 54696D65 		.ascii	"Timer_2_SetPeriodSwap\000"
 3222      725F325F 
 3222      53657450 
 3222      6572696F 
 3222      64537761 
 3223              	.LASF74:
 3224 0186 54696D65 		.ascii	"Timer_2_ClearInterrupt\000"
 3224      725F325F 
 3224      436C6561 
 3224      72496E74 
 3224      65727275 
 3225              	.LASF68:
 3226 019d 636F6D6D 		.ascii	"command\000"
 3226      616E6400 
 3227              	.LASF5:
 3228 01a5 6C6F6E67 		.ascii	"long unsigned int\000"
 3228      20756E73 
 3228      69676E65 
 3228      6420696E 
 3228      7400
 3229              	.LASF30:
 3230 01b7 6D6F6465 		.ascii	"modeMask\000"
 3230      4D61736B 
ARM GAS  C:\Users\Petro\AppData\Local\Temp\cc0Wxiax.s 			page 84


 3230      00
 3231              	.LASF3:
 3232 01c0 73686F72 		.ascii	"short unsigned int\000"
 3232      7420756E 
 3232      7369676E 
 3232      65642069 
 3232      6E7400
 3233              	.LASF78:
 3234 01d3 443A5C43 		.ascii	"D:\\Cypress\\system-start-finish\\vesion 2\\fw\\fin"
 3234      79707265 
 3234      73735C73 
 3234      79737465 
 3234      6D2D7374 
 3235 0201 6973685C 		.ascii	"ish\\sandbox\\v3\\Finish(state machine)\\fin_v0.cyd"
 3235      73616E64 
 3235      626F785C 
 3235      76335C46 
 3235      696E6973 
 3236 0230 736E00   		.ascii	"sn\000"
 3237              	.LASF63:
 3238 0233 54696D65 		.ascii	"Timer_2_SetReloadMode\000"
 3238      725F325F 
 3238      53657452 
 3238      656C6F61 
 3238      644D6F64 
 3239              	.LASF28:
 3240 0249 6F6E6553 		.ascii	"oneShotEnable\000"
 3240      686F7445 
 3240      6E61626C 
 3240      6500
 3241              	.LASF43:
 3242 0257 54696D65 		.ascii	"Timer_2_WritePeriod\000"
 3242      725F325F 
 3242      57726974 
 3242      65506572 
 3242      696F6400 
 3243              	.LASF79:
 3244 026b 54696D65 		.ascii	"Timer_2_initVar\000"
 3244      725F325F 
 3244      696E6974 
 3244      56617200 
 3245              	.LASF14:
 3246 027b 72656733 		.ascii	"reg32\000"
 3246      3200
 3247              	.LASF42:
 3248 0281 636F756E 		.ascii	"counterMode\000"
 3248      7465724D 
 3248      6F646500 
 3249              	.LASF19:
 3250 028d 54696D65 		.ascii	"Timer_2_Stop\000"
 3250      725F325F 
 3250      53746F70 
 3250      00
 3251              	.LASF15:
 3252 029a 73697A65 		.ascii	"sizetype\000"
 3252      74797065 
 3252      00
ARM GAS  C:\Users\Petro\AppData\Local\Temp\cc0Wxiax.s 			page 85


 3253              	.LASF35:
 3254 02a3 54696D65 		.ascii	"Timer_2_SetPWMDeadTime\000"
 3254      725F325F 
 3254      53657450 
 3254      574D4465 
 3254      61645469 
 3255              	.LASF32:
 3256 02ba 73796E63 		.ascii	"syncKillEnable\000"
 3256      4B696C6C 
 3256      456E6162 
 3256      6C6500
 3257              	.LASF17:
 3258 02c9 54696D65 		.ascii	"Timer_2_Start\000"
 3258      725F325F 
 3258      53746172 
 3258      7400
 3259              	.LASF54:
 3260 02d7 636F6D70 		.ascii	"compare\000"
 3260      61726500 
 3261              	.LASF29:
 3262 02df 54696D65 		.ascii	"Timer_2_SetPWMMode\000"
 3262      725F325F 
 3262      53657450 
 3262      574D4D6F 
 3262      646500
 3263              	.LASF56:
 3264 02f2 54696D65 		.ascii	"Timer_2_WriteCompareBuf\000"
 3264      725F325F 
 3264      57726974 
 3264      65436F6D 
 3264      70617265 
 3265              	.LASF21:
 3266 030a 54696D65 		.ascii	"Timer_2_SetMode\000"
 3266      725F325F 
 3266      5365744D 
 3266      6F646500 
 3267              	.LASF59:
 3268 031a 54696D65 		.ascii	"Timer_2_ReadCapture\000"
 3268      725F325F 
 3268      52656164 
 3268      43617074 
 3268      75726500 
 3269              	.LASF11:
 3270 032e 666C6F61 		.ascii	"float\000"
 3270      7400
 3271              	.LASF26:
 3272 0334 70726573 		.ascii	"prescaler\000"
 3272      63616C65 
 3272      7200
 3273              	.LASF49:
 3274 033e 54696D65 		.ascii	"Timer_2_WritePeriodBuf\000"
 3274      725F325F 
 3274      57726974 
 3274      65506572 
 3274      696F6442 
 3275              	.LASF72:
 3276 0355 54696D65 		.ascii	"Timer_2_GetInterruptSourceMasked\000"
ARM GAS  C:\Users\Petro\AppData\Local\Temp\cc0Wxiax.s 			page 86


 3276      725F325F 
 3276      47657449 
 3276      6E746572 
 3276      72757074 
 3277              	.LASF1:
 3278 0376 756E7369 		.ascii	"unsigned char\000"
 3278      676E6564 
 3278      20636861 
 3278      7200
 3279              	.LASF34:
 3280 0384 73746F70 		.ascii	"stopOnKillEnable\000"
 3280      4F6E4B69 
 3280      6C6C456E 
 3280      61626C65 
 3280      00
 3281              	.LASF2:
 3282 0395 73686F72 		.ascii	"short int\000"
 3282      7420696E 
 3282      7400
 3283              	.LASF55:
 3284 039f 54696D65 		.ascii	"Timer_2_ReadCompare\000"
 3284      725F325F 
 3284      52656164 
 3284      436F6D70 
 3284      61726500 
 3285              	.LASF71:
 3286 03b3 696E7465 		.ascii	"interruptMask\000"
 3286      72727570 
 3286      744D6173 
 3286      6B00
 3287              	.LASF33:
 3288 03c1 54696D65 		.ascii	"Timer_2_SetPWMStopOnKill\000"
 3288      725F325F 
 3288      53657450 
 3288      574D5374 
 3288      6F704F6E 
 3289              	.LASF60:
 3290 03da 54696D65 		.ascii	"Timer_2_ReadCaptureBuf\000"
 3290      725F325F 
 3290      52656164 
 3290      43617074 
 3290      75726542 
 3291              	.LASF73:
 3292 03f1 54696D65 		.ascii	"Timer_2_GetInterruptSource\000"
 3292      725F325F 
 3292      47657449 
 3292      6E746572 
 3292      72757074 
 3293              	.LASF75:
 3294 040c 54696D65 		.ascii	"Timer_2_SetInterrupt\000"
 3294      725F325F 
 3294      53657449 
 3294      6E746572 
 3294      72757074 
 3295              	.LASF13:
 3296 0421 63686172 		.ascii	"char\000"
 3296      00
ARM GAS  C:\Users\Petro\AppData\Local\Temp\cc0Wxiax.s 			page 87


 3297              	.LASF23:
 3298 0426 6D6F6465 		.ascii	"mode\000"
 3298      00
 3299              	.LASF27:
 3300 042b 54696D65 		.ascii	"Timer_2_SetOneShot\000"
 3300      725F325F 
 3300      5365744F 
 3300      6E655368 
 3300      6F7400
 3301              	.LASF45:
 3302 043e 54696D65 		.ascii	"Timer_2_ReadCounter\000"
 3302      725F325F 
 3302      52656164 
 3302      436F756E 
 3302      74657200 
 3303              	.LASF48:
 3304 0452 73776170 		.ascii	"swapEnable\000"
 3304      456E6162 
 3304      6C6500
 3305              	.LASF69:
 3306 045d 54696D65 		.ascii	"Timer_2_ReadStatus\000"
 3306      725F325F 
 3306      52656164 
 3306      53746174 
 3306      757300
 3307              	.LASF57:
 3308 0470 636F6D70 		.ascii	"compareBuf\000"
 3308      61726542 
 3308      756600
 3309              	.LASF41:
 3310 047b 54696D65 		.ascii	"Timer_2_SetCounterMode\000"
 3310      725F325F 
 3310      53657443 
 3310      6F756E74 
 3310      65724D6F 
 3311              	.LASF20:
 3312 0492 656E6162 		.ascii	"enableInterrupts\000"
 3312      6C65496E 
 3312      74657272 
 3312      75707473 
 3312      00
 3313              	.LASF66:
 3314 04a3 54696D65 		.ascii	"Timer_2_SetCountMode\000"
 3314      725F325F 
 3314      53657443 
 3314      6F756E74 
 3314      4D6F6465 
 3315              	.LASF25:
 3316 04b8 54696D65 		.ascii	"Timer_2_SetPrescaler\000"
 3316      725F325F 
 3316      53657450 
 3316      72657363 
 3316      616C6572 
 3317              	.LASF77:
 3318 04cd 2E5C4765 		.ascii	".\\Generated_Source\\PSoC4\\Timer_2.c\000"
 3318      6E657261 
 3318      7465645F 
ARM GAS  C:\Users\Petro\AppData\Local\Temp\cc0Wxiax.s 			page 88


 3318      536F7572 
 3318      63655C50 
 3319              	.LASF16:
 3320 04f0 54696D65 		.ascii	"Timer_2_Init\000"
 3320      725F325F 
 3320      496E6974 
 3320      00
 3321              	.LASF76:
 3322 04fd 474E5520 		.ascii	"GNU C 4.9.3 20150303 (release) [ARM/embedded-4_9-br"
 3322      4320342E 
 3322      392E3320 
 3322      32303135 
 3322      30333033 
 3323 0530 616E6368 		.ascii	"anch revision 221220] -mcpu=cortex-m0 -mthumb -g -O"
 3323      20726576 
 3323      6973696F 
 3323      6E203232 
 3323      31323230 
 3324 0563 30202D66 		.ascii	"0 -ffunction-sections -ffat-lto-objects\000"
 3324      66756E63 
 3324      74696F6E 
 3324      2D736563 
 3324      74696F6E 
 3325              	.LASF70:
 3326 058b 54696D65 		.ascii	"Timer_2_SetInterruptMode\000"
 3326      725F325F 
 3326      53657449 
 3326      6E746572 
 3326      72757074 
 3327              	.LASF53:
 3328 05a4 54696D65 		.ascii	"Timer_2_WriteCompare\000"
 3328      725F325F 
 3328      57726974 
 3328      65436F6D 
 3328      70617265 
 3329              	.LASF22:
 3330 05b9 54696D65 		.ascii	"Timer_2_SetQDMode\000"
 3330      725F325F 
 3330      53657451 
 3330      444D6F64 
 3330      6500
 3331              	.LASF61:
 3332 05cb 54696D65 		.ascii	"Timer_2_SetCaptureMode\000"
 3332      725F325F 
 3332      53657443 
 3332      61707475 
 3332      72654D6F 
 3333              	.LASF50:
 3334 05e2 70657269 		.ascii	"periodBuf\000"
 3334      6F644275 
 3334      6600
 3335              		.ident	"GCC: (GNU Tools for ARM Embedded Processors) 4.9.3 20150303 (release) [ARM/embedded-4_9-br
