ARM GAS  C:\Users\Petro\AppData\Local\Temp\ccSZcWJH.s 			page 1


   1              		.cpu cortex-m0
   2              		.fpu softvfp
   3              		.eabi_attribute 20, 1
   4              		.eabi_attribute 21, 1
   5              		.eabi_attribute 23, 3
   6              		.eabi_attribute 24, 1
   7              		.eabi_attribute 25, 1
   8              		.eabi_attribute 26, 1
   9              		.eabi_attribute 30, 1
  10              		.eabi_attribute 34, 0
  11              		.eabi_attribute 18, 4
  12              		.code	16
  13              		.file	"cyfitter_cfg.c"
  14              		.text
  15              	.Ltext0:
  16              		.cfi_sections	.debug_frame
  17              		.section	.text.cfg_write_bytes32,"ax",%progbits
  18              		.align	2
  19              		.code	16
  20              		.thumb_func
  21              		.type	cfg_write_bytes32, %function
  22              	cfg_write_bytes32:
  23              	.LFB5:
  24              		.file 1 ".\\Generated_Source\\PSoC4\\cyfitter_cfg.c"
   1:.\Generated_Source\PSoC4/cyfitter_cfg.c **** /*******************************************************************************
   2:.\Generated_Source\PSoC4/cyfitter_cfg.c **** * File Name: cyfitter_cfg.c
   3:.\Generated_Source\PSoC4/cyfitter_cfg.c **** * 
   4:.\Generated_Source\PSoC4/cyfitter_cfg.c **** * PSoC Creator  3.3 SP1
   5:.\Generated_Source\PSoC4/cyfitter_cfg.c **** *
   6:.\Generated_Source\PSoC4/cyfitter_cfg.c **** * Description:
   7:.\Generated_Source\PSoC4/cyfitter_cfg.c **** * This file contains device initialization code.
   8:.\Generated_Source\PSoC4/cyfitter_cfg.c **** * Except for the user defined sections in CyClockStartupError(), this file should not be modified.
   9:.\Generated_Source\PSoC4/cyfitter_cfg.c **** * This file is automatically generated by PSoC Creator.
  10:.\Generated_Source\PSoC4/cyfitter_cfg.c **** *
  11:.\Generated_Source\PSoC4/cyfitter_cfg.c **** ********************************************************************************
  12:.\Generated_Source\PSoC4/cyfitter_cfg.c **** * Copyright (c) 2007-2015 Cypress Semiconductor.  All rights reserved.
  13:.\Generated_Source\PSoC4/cyfitter_cfg.c **** * You may use this file only in accordance with the license, terms, conditions, 
  14:.\Generated_Source\PSoC4/cyfitter_cfg.c **** * disclaimers, and limitations in the end user license agreement accompanying 
  15:.\Generated_Source\PSoC4/cyfitter_cfg.c **** * the software package with which this file was provided.
  16:.\Generated_Source\PSoC4/cyfitter_cfg.c **** ********************************************************************************/
  17:.\Generated_Source\PSoC4/cyfitter_cfg.c **** 
  18:.\Generated_Source\PSoC4/cyfitter_cfg.c **** #include <string.h>
  19:.\Generated_Source\PSoC4/cyfitter_cfg.c **** #include "cytypes.h"
  20:.\Generated_Source\PSoC4/cyfitter_cfg.c **** #include "cydevice_trm.h"
  21:.\Generated_Source\PSoC4/cyfitter_cfg.c **** #include "cyfitter.h"
  22:.\Generated_Source\PSoC4/cyfitter_cfg.c **** #include "CyLib.h"
  23:.\Generated_Source\PSoC4/cyfitter_cfg.c **** #include "CyLFClk.h"
  24:.\Generated_Source\PSoC4/cyfitter_cfg.c **** #include "cyfitter_cfg.h"
  25:.\Generated_Source\PSoC4/cyfitter_cfg.c **** 
  26:.\Generated_Source\PSoC4/cyfitter_cfg.c **** 
  27:.\Generated_Source\PSoC4/cyfitter_cfg.c **** #if defined(__GNUC__) || defined(__ARMCC_VERSION)
  28:.\Generated_Source\PSoC4/cyfitter_cfg.c ****     #define CYPACKED 
  29:.\Generated_Source\PSoC4/cyfitter_cfg.c ****     #define CYPACKED_ATTR __attribute__ ((packed))
  30:.\Generated_Source\PSoC4/cyfitter_cfg.c ****     #define CYALIGNED __attribute__ ((aligned))
  31:.\Generated_Source\PSoC4/cyfitter_cfg.c ****     #define CY_CFG_UNUSED __attribute__ ((unused))
  32:.\Generated_Source\PSoC4/cyfitter_cfg.c ****     #ifndef CY_CFG_SECTION
  33:.\Generated_Source\PSoC4/cyfitter_cfg.c ****         #define CY_CFG_SECTION __attribute__ ((section(".psocinit")))
ARM GAS  C:\Users\Petro\AppData\Local\Temp\ccSZcWJH.s 			page 2


  34:.\Generated_Source\PSoC4/cyfitter_cfg.c ****     #endif
  35:.\Generated_Source\PSoC4/cyfitter_cfg.c ****     
  36:.\Generated_Source\PSoC4/cyfitter_cfg.c ****     #if defined(__ARMCC_VERSION)
  37:.\Generated_Source\PSoC4/cyfitter_cfg.c ****         #define CY_CFG_MEMORY_BARRIER() __memory_changed()
  38:.\Generated_Source\PSoC4/cyfitter_cfg.c ****     #else
  39:.\Generated_Source\PSoC4/cyfitter_cfg.c ****         #define CY_CFG_MEMORY_BARRIER() __sync_synchronize()
  40:.\Generated_Source\PSoC4/cyfitter_cfg.c ****     #endif
  41:.\Generated_Source\PSoC4/cyfitter_cfg.c ****     
  42:.\Generated_Source\PSoC4/cyfitter_cfg.c **** #elif defined(__ICCARM__)
  43:.\Generated_Source\PSoC4/cyfitter_cfg.c ****     #include <intrinsics.h>
  44:.\Generated_Source\PSoC4/cyfitter_cfg.c **** 
  45:.\Generated_Source\PSoC4/cyfitter_cfg.c ****     #define CYPACKED __packed
  46:.\Generated_Source\PSoC4/cyfitter_cfg.c ****     #define CYPACKED_ATTR 
  47:.\Generated_Source\PSoC4/cyfitter_cfg.c ****     #define CYALIGNED _Pragma("data_alignment=4")
  48:.\Generated_Source\PSoC4/cyfitter_cfg.c ****     #define CY_CFG_UNUSED _Pragma("diag_suppress=Pe177")
  49:.\Generated_Source\PSoC4/cyfitter_cfg.c ****     #define CY_CFG_SECTION _Pragma("location=\".psocinit\"")
  50:.\Generated_Source\PSoC4/cyfitter_cfg.c ****     
  51:.\Generated_Source\PSoC4/cyfitter_cfg.c ****     #define CY_CFG_MEMORY_BARRIER() __DMB()
  52:.\Generated_Source\PSoC4/cyfitter_cfg.c ****     
  53:.\Generated_Source\PSoC4/cyfitter_cfg.c **** #else
  54:.\Generated_Source\PSoC4/cyfitter_cfg.c ****     #error Unsupported toolchain
  55:.\Generated_Source\PSoC4/cyfitter_cfg.c **** #endif
  56:.\Generated_Source\PSoC4/cyfitter_cfg.c **** 
  57:.\Generated_Source\PSoC4/cyfitter_cfg.c **** 
  58:.\Generated_Source\PSoC4/cyfitter_cfg.c **** CY_CFG_UNUSED
  59:.\Generated_Source\PSoC4/cyfitter_cfg.c **** static void CYMEMZERO(void *s, size_t n);
  60:.\Generated_Source\PSoC4/cyfitter_cfg.c **** CY_CFG_UNUSED
  61:.\Generated_Source\PSoC4/cyfitter_cfg.c **** static void CYMEMZERO(void *s, size_t n)
  62:.\Generated_Source\PSoC4/cyfitter_cfg.c **** {
  63:.\Generated_Source\PSoC4/cyfitter_cfg.c **** 	(void)memset(s, 0, n);
  64:.\Generated_Source\PSoC4/cyfitter_cfg.c **** }
  65:.\Generated_Source\PSoC4/cyfitter_cfg.c **** CY_CFG_UNUSED
  66:.\Generated_Source\PSoC4/cyfitter_cfg.c **** static void CYCONFIGCPY(void *dest, const void *src, size_t n);
  67:.\Generated_Source\PSoC4/cyfitter_cfg.c **** CY_CFG_UNUSED
  68:.\Generated_Source\PSoC4/cyfitter_cfg.c **** static void CYCONFIGCPY(void *dest, const void *src, size_t n)
  69:.\Generated_Source\PSoC4/cyfitter_cfg.c **** {
  70:.\Generated_Source\PSoC4/cyfitter_cfg.c **** 	(void)memcpy(dest, src, n);
  71:.\Generated_Source\PSoC4/cyfitter_cfg.c **** }
  72:.\Generated_Source\PSoC4/cyfitter_cfg.c **** CY_CFG_UNUSED
  73:.\Generated_Source\PSoC4/cyfitter_cfg.c **** static void CYCONFIGCPYCODE(void *dest, const void *src, size_t n);
  74:.\Generated_Source\PSoC4/cyfitter_cfg.c **** CY_CFG_UNUSED
  75:.\Generated_Source\PSoC4/cyfitter_cfg.c **** static void CYCONFIGCPYCODE(void *dest, const void *src, size_t n)
  76:.\Generated_Source\PSoC4/cyfitter_cfg.c **** {
  77:.\Generated_Source\PSoC4/cyfitter_cfg.c **** 	(void)memcpy(dest, src, n);
  78:.\Generated_Source\PSoC4/cyfitter_cfg.c **** }
  79:.\Generated_Source\PSoC4/cyfitter_cfg.c **** 
  80:.\Generated_Source\PSoC4/cyfitter_cfg.c **** 
  81:.\Generated_Source\PSoC4/cyfitter_cfg.c **** 
  82:.\Generated_Source\PSoC4/cyfitter_cfg.c **** /* Clock startup error codes                                                   */
  83:.\Generated_Source\PSoC4/cyfitter_cfg.c **** #define CYCLOCKSTART_NO_ERROR    0u
  84:.\Generated_Source\PSoC4/cyfitter_cfg.c **** #define CYCLOCKSTART_XTAL_ERROR  1u
  85:.\Generated_Source\PSoC4/cyfitter_cfg.c **** #define CYCLOCKSTART_32KHZ_ERROR 2u
  86:.\Generated_Source\PSoC4/cyfitter_cfg.c **** #define CYCLOCKSTART_PLL_ERROR   3u
  87:.\Generated_Source\PSoC4/cyfitter_cfg.c **** 
  88:.\Generated_Source\PSoC4/cyfitter_cfg.c **** #ifdef CY_NEED_CYCLOCKSTARTUPERROR
  89:.\Generated_Source\PSoC4/cyfitter_cfg.c **** /*******************************************************************************
  90:.\Generated_Source\PSoC4/cyfitter_cfg.c **** * Function Name: CyClockStartupError
ARM GAS  C:\Users\Petro\AppData\Local\Temp\ccSZcWJH.s 			page 3


  91:.\Generated_Source\PSoC4/cyfitter_cfg.c **** ********************************************************************************
  92:.\Generated_Source\PSoC4/cyfitter_cfg.c **** * Summary:
  93:.\Generated_Source\PSoC4/cyfitter_cfg.c **** *  If an error is encountered during clock configuration (crystal startup error,
  94:.\Generated_Source\PSoC4/cyfitter_cfg.c **** *  PLL lock error, etc.), the system will end up here.  Unless reimplemented by
  95:.\Generated_Source\PSoC4/cyfitter_cfg.c **** *  the customer, this function will stop in an infinite loop.
  96:.\Generated_Source\PSoC4/cyfitter_cfg.c **** *
  97:.\Generated_Source\PSoC4/cyfitter_cfg.c **** * Parameters:
  98:.\Generated_Source\PSoC4/cyfitter_cfg.c **** *   void
  99:.\Generated_Source\PSoC4/cyfitter_cfg.c **** *
 100:.\Generated_Source\PSoC4/cyfitter_cfg.c **** * Return:
 101:.\Generated_Source\PSoC4/cyfitter_cfg.c **** *   void
 102:.\Generated_Source\PSoC4/cyfitter_cfg.c **** *
 103:.\Generated_Source\PSoC4/cyfitter_cfg.c **** *******************************************************************************/
 104:.\Generated_Source\PSoC4/cyfitter_cfg.c **** CY_CFG_UNUSED
 105:.\Generated_Source\PSoC4/cyfitter_cfg.c **** static void CyClockStartupError(uint8 errorCode);
 106:.\Generated_Source\PSoC4/cyfitter_cfg.c **** CY_CFG_UNUSED
 107:.\Generated_Source\PSoC4/cyfitter_cfg.c **** static void CyClockStartupError(uint8 errorCode)
 108:.\Generated_Source\PSoC4/cyfitter_cfg.c **** {
 109:.\Generated_Source\PSoC4/cyfitter_cfg.c ****     /* To remove the compiler warning if errorCode not used.                */
 110:.\Generated_Source\PSoC4/cyfitter_cfg.c ****     errorCode = errorCode;
 111:.\Generated_Source\PSoC4/cyfitter_cfg.c **** 
 112:.\Generated_Source\PSoC4/cyfitter_cfg.c ****     /* `#START CyClockStartupError` */
 113:.\Generated_Source\PSoC4/cyfitter_cfg.c **** 
 114:.\Generated_Source\PSoC4/cyfitter_cfg.c ****     /* If we have a clock startup error (bad MHz crystal, PLL lock, etc.),  */
 115:.\Generated_Source\PSoC4/cyfitter_cfg.c ****     /* we will end up here to allow the customer to implement something to  */
 116:.\Generated_Source\PSoC4/cyfitter_cfg.c ****     /* deal with the clock condition.                                       */
 117:.\Generated_Source\PSoC4/cyfitter_cfg.c **** 
 118:.\Generated_Source\PSoC4/cyfitter_cfg.c ****     /* `#END` */
 119:.\Generated_Source\PSoC4/cyfitter_cfg.c **** 
 120:.\Generated_Source\PSoC4/cyfitter_cfg.c ****     /* If nothing else, stop here since the clocks have not started         */
 121:.\Generated_Source\PSoC4/cyfitter_cfg.c ****     /* correctly.                                                           */
 122:.\Generated_Source\PSoC4/cyfitter_cfg.c ****     while(1) {}
 123:.\Generated_Source\PSoC4/cyfitter_cfg.c **** }
 124:.\Generated_Source\PSoC4/cyfitter_cfg.c **** #endif
 125:.\Generated_Source\PSoC4/cyfitter_cfg.c **** 
 126:.\Generated_Source\PSoC4/cyfitter_cfg.c **** #define CY_CFG_BASE_ADDR_COUNT 10u
 127:.\Generated_Source\PSoC4/cyfitter_cfg.c **** CYPACKED typedef struct
 128:.\Generated_Source\PSoC4/cyfitter_cfg.c **** {
 129:.\Generated_Source\PSoC4/cyfitter_cfg.c **** 	uint8 offset;
 130:.\Generated_Source\PSoC4/cyfitter_cfg.c **** 	uint8 value;
 131:.\Generated_Source\PSoC4/cyfitter_cfg.c **** } CYPACKED_ATTR cy_cfg_addrvalue_t;
 132:.\Generated_Source\PSoC4/cyfitter_cfg.c **** 
 133:.\Generated_Source\PSoC4/cyfitter_cfg.c **** 
 134:.\Generated_Source\PSoC4/cyfitter_cfg.c **** 
 135:.\Generated_Source\PSoC4/cyfitter_cfg.c **** /*******************************************************************************
 136:.\Generated_Source\PSoC4/cyfitter_cfg.c **** * Function Name: cfg_write_bytes32
 137:.\Generated_Source\PSoC4/cyfitter_cfg.c **** ********************************************************************************
 138:.\Generated_Source\PSoC4/cyfitter_cfg.c **** * Summary:
 139:.\Generated_Source\PSoC4/cyfitter_cfg.c **** *  This function is used for setting up the chip configuration areas that
 140:.\Generated_Source\PSoC4/cyfitter_cfg.c **** *  contain relatively sparse data.
 141:.\Generated_Source\PSoC4/cyfitter_cfg.c **** *
 142:.\Generated_Source\PSoC4/cyfitter_cfg.c **** * Parameters:
 143:.\Generated_Source\PSoC4/cyfitter_cfg.c **** *   void
 144:.\Generated_Source\PSoC4/cyfitter_cfg.c **** *
 145:.\Generated_Source\PSoC4/cyfitter_cfg.c **** * Return:
 146:.\Generated_Source\PSoC4/cyfitter_cfg.c **** *   void
 147:.\Generated_Source\PSoC4/cyfitter_cfg.c **** *
ARM GAS  C:\Users\Petro\AppData\Local\Temp\ccSZcWJH.s 			page 4


 148:.\Generated_Source\PSoC4/cyfitter_cfg.c **** *******************************************************************************/
 149:.\Generated_Source\PSoC4/cyfitter_cfg.c **** static void cfg_write_bytes32(const uint32 addr_table[], const cy_cfg_addrvalue_t data_table[]);
 150:.\Generated_Source\PSoC4/cyfitter_cfg.c **** static void cfg_write_bytes32(const uint32 addr_table[], const cy_cfg_addrvalue_t data_table[])
 151:.\Generated_Source\PSoC4/cyfitter_cfg.c **** {
  25              		.loc 1 151 0
  26              		.cfi_startproc
  27              	.LVL0:
  28 0000 F0B5     		push	{r4, r5, r6, r7, lr}
  29              		.cfi_def_cfa_offset 20
  30              		.cfi_offset 4, -20
  31              		.cfi_offset 5, -16
  32              		.cfi_offset 6, -12
  33              		.cfi_offset 7, -8
  34              		.cfi_offset 14, -4
  35              	.LVL1:
 152:.\Generated_Source\PSoC4/cyfitter_cfg.c **** 	/* For 32-bit little-endian architectures */
 153:.\Generated_Source\PSoC4/cyfitter_cfg.c **** 	uint32 i, j = 0u;
  36              		.loc 1 153 0
  37 0002 0025     		mov	r5, #0
 154:.\Generated_Source\PSoC4/cyfitter_cfg.c **** 	for (i = 0u; i < CY_CFG_BASE_ADDR_COUNT; i++)
  38              		.loc 1 154 0
  39 0004 0027     		mov	r7, #0
  40 0006 11E0     		b	.L2
  41              	.LVL2:
  42              	.L5:
  43              	.LBB2:
 155:.\Generated_Source\PSoC4/cyfitter_cfg.c **** 	{
 156:.\Generated_Source\PSoC4/cyfitter_cfg.c **** 		uint32 baseAddr = addr_table[i];
  44              		.loc 1 156 0
  45 0008 BB00     		lsl	r3, r7, #2
  46 000a C658     		ldr	r6, [r0, r3]
  47              	.LVL3:
 157:.\Generated_Source\PSoC4/cyfitter_cfg.c **** 		uint8 count = (uint8)baseAddr;
  48              		.loc 1 157 0
  49 000c F3B2     		uxtb	r3, r6
  50              	.LVL4:
 158:.\Generated_Source\PSoC4/cyfitter_cfg.c **** 		baseAddr &= 0xFFFFFF00u;
  51              		.loc 1 158 0
  52 000e FF22     		mov	r2, #255
  53 0010 9643     		bic	r6, r2
  54              	.LVL5:
 159:.\Generated_Source\PSoC4/cyfitter_cfg.c **** 		while (count != 0u)
  55              		.loc 1 159 0
  56 0012 08E0     		b	.L3
  57              	.L4:
 160:.\Generated_Source\PSoC4/cyfitter_cfg.c **** 		{
 161:.\Generated_Source\PSoC4/cyfitter_cfg.c **** 			CY_SET_XTND_REG8((void CYFAR *)(baseAddr + data_table[j].offset), data_table[j].value);
  58              		.loc 1 161 0
  59 0014 6A00     		lsl	r2, r5, #1
  60 0016 8A18     		add	r2, r1, r2
  61 0018 1478     		ldrb	r4, [r2]
  62 001a A419     		add	r4, r4, r6
  63 001c 5278     		ldrb	r2, [r2, #1]
  64 001e 2270     		strb	r2, [r4]
 162:.\Generated_Source\PSoC4/cyfitter_cfg.c **** 			j++;
  65              		.loc 1 162 0
  66 0020 0135     		add	r5, r5, #1
ARM GAS  C:\Users\Petro\AppData\Local\Temp\ccSZcWJH.s 			page 5


  67              	.LVL6:
 163:.\Generated_Source\PSoC4/cyfitter_cfg.c **** 			count--;
  68              		.loc 1 163 0
  69 0022 013B     		sub	r3, r3, #1
  70              	.LVL7:
  71 0024 DBB2     		uxtb	r3, r3
  72              	.LVL8:
  73              	.L3:
 159:.\Generated_Source\PSoC4/cyfitter_cfg.c **** 		{
  74              		.loc 1 159 0
  75 0026 002B     		cmp	r3, #0
  76 0028 F4D1     		bne	.L4
  77              	.LBE2:
 154:.\Generated_Source\PSoC4/cyfitter_cfg.c **** 	{
  78              		.loc 1 154 0 discriminator 2
  79 002a 0137     		add	r7, r7, #1
  80              	.LVL9:
  81              	.L2:
 154:.\Generated_Source\PSoC4/cyfitter_cfg.c **** 	{
  82              		.loc 1 154 0 is_stmt 0 discriminator 1
  83 002c 092F     		cmp	r7, #9
  84 002e EBD9     		bls	.L5
 164:.\Generated_Source\PSoC4/cyfitter_cfg.c **** 		}
 165:.\Generated_Source\PSoC4/cyfitter_cfg.c **** 	}
 166:.\Generated_Source\PSoC4/cyfitter_cfg.c **** }
  85              		.loc 1 166 0 is_stmt 1
  86              		@ sp needed
  87              	.LVL10:
  88              	.LVL11:
  89 0030 F0BD     		pop	{r4, r5, r6, r7, pc}
  90              		.cfi_endproc
  91              	.LFE5:
  92              		.size	cfg_write_bytes32, .-cfg_write_bytes32
  93 0032 C046     		.section	.text.AnalogSetDefault,"ax",%progbits
  94              		.align	2
  95              		.code	16
  96              		.thumb_func
  97              		.type	AnalogSetDefault, %function
  98              	AnalogSetDefault:
  99              	.LFB7:
 167:.\Generated_Source\PSoC4/cyfitter_cfg.c **** 
 168:.\Generated_Source\PSoC4/cyfitter_cfg.c **** 
 169:.\Generated_Source\PSoC4/cyfitter_cfg.c **** /*******************************************************************************
 170:.\Generated_Source\PSoC4/cyfitter_cfg.c **** * Function Name: ClockSetup
 171:.\Generated_Source\PSoC4/cyfitter_cfg.c **** ********************************************************************************
 172:.\Generated_Source\PSoC4/cyfitter_cfg.c **** *
 173:.\Generated_Source\PSoC4/cyfitter_cfg.c **** * Summary:
 174:.\Generated_Source\PSoC4/cyfitter_cfg.c **** *   Performs the initialization of all of the clocks in the device based on the
 175:.\Generated_Source\PSoC4/cyfitter_cfg.c **** *   settings in the Clock tab of the DWR.  This includes enabling the requested
 176:.\Generated_Source\PSoC4/cyfitter_cfg.c **** *   clocks and setting the necessary dividers to produce the desired frequency. 
 177:.\Generated_Source\PSoC4/cyfitter_cfg.c **** *
 178:.\Generated_Source\PSoC4/cyfitter_cfg.c **** * Parameters:
 179:.\Generated_Source\PSoC4/cyfitter_cfg.c **** *   void
 180:.\Generated_Source\PSoC4/cyfitter_cfg.c **** *
 181:.\Generated_Source\PSoC4/cyfitter_cfg.c **** * Return:
 182:.\Generated_Source\PSoC4/cyfitter_cfg.c **** *   void
 183:.\Generated_Source\PSoC4/cyfitter_cfg.c **** *
ARM GAS  C:\Users\Petro\AppData\Local\Temp\ccSZcWJH.s 			page 6


 184:.\Generated_Source\PSoC4/cyfitter_cfg.c **** *******************************************************************************/
 185:.\Generated_Source\PSoC4/cyfitter_cfg.c **** static void ClockSetup(void);
 186:.\Generated_Source\PSoC4/cyfitter_cfg.c **** CY_CFG_SECTION
 187:.\Generated_Source\PSoC4/cyfitter_cfg.c **** static void ClockSetup(void)
 188:.\Generated_Source\PSoC4/cyfitter_cfg.c **** {
 189:.\Generated_Source\PSoC4/cyfitter_cfg.c **** 
 190:.\Generated_Source\PSoC4/cyfitter_cfg.c **** 	/* Set Flash Cycles based on max possible frequency in case a glitch occurs during ClockSetup(). *
 191:.\Generated_Source\PSoC4/cyfitter_cfg.c **** 	CY_SET_REG32((void CYXDATA *)(CYREG_CPUSS_FLASH_CTL), (0x0012u));
 192:.\Generated_Source\PSoC4/cyfitter_cfg.c **** 
 193:.\Generated_Source\PSoC4/cyfitter_cfg.c **** 	/* Start the WCO */
 194:.\Generated_Source\PSoC4/cyfitter_cfg.c **** 	CySysClkWcoStart();
 195:.\Generated_Source\PSoC4/cyfitter_cfg.c **** 	CyDelayCycles(12000000u); /* WCO may take up to 500ms to start */
 196:.\Generated_Source\PSoC4/cyfitter_cfg.c **** 	(void)CySysClkWcoSetPowerMode(CY_SYS_CLK_WCO_LPM);    /* Switch to the low power mode */
 197:.\Generated_Source\PSoC4/cyfitter_cfg.c **** 
 198:.\Generated_Source\PSoC4/cyfitter_cfg.c **** 	/* Setup and trim IMO based on desired frequency. */
 199:.\Generated_Source\PSoC4/cyfitter_cfg.c **** 	CySysClkWriteImoFreq(48u);
 200:.\Generated_Source\PSoC4/cyfitter_cfg.c **** 	/* CYDEV_CLK_ILO_CONFIG Starting address: CYDEV_CLK_ILO_CONFIG */
 201:.\Generated_Source\PSoC4/cyfitter_cfg.c **** 	CY_SET_XTND_REG32((void CYFAR *)(CYREG_CLK_ILO_CONFIG), 0x80000006u);
 202:.\Generated_Source\PSoC4/cyfitter_cfg.c **** 
 203:.\Generated_Source\PSoC4/cyfitter_cfg.c **** 	/* CYDEV_WDT_CONFIG Starting address: CYDEV_WDT_CONFIG */
 204:.\Generated_Source\PSoC4/cyfitter_cfg.c **** 	CY_SET_XTND_REG32((void CYFAR *)(CYREG_WDT_CONFIG), 0x40000000u);
 205:.\Generated_Source\PSoC4/cyfitter_cfg.c **** 
 206:.\Generated_Source\PSoC4/cyfitter_cfg.c **** 
 207:.\Generated_Source\PSoC4/cyfitter_cfg.c **** 	/* Enable fast start mode for XO */
 208:.\Generated_Source\PSoC4/cyfitter_cfg.c **** 	CY_SET_REG32((void*)CYREG_BLE_BLERD_BB_XO, CY_GET_REG32((void*)CYREG_BLE_BLERD_BB_XO) | (uint32)0x
 209:.\Generated_Source\PSoC4/cyfitter_cfg.c **** 	CY_SET_XTND_REG32((void CYFAR *)(CYREG_BLE_BLERD_BB_XO_CAPTRIM), 0x00003E2Du);
 210:.\Generated_Source\PSoC4/cyfitter_cfg.c **** 	/* Disable Crystal Stable Interrupt before enabling ECO */
 211:.\Generated_Source\PSoC4/cyfitter_cfg.c **** 	CY_SET_REG32((void*)CYREG_BLE_BLESS_LL_DSM_CTRL, CY_GET_REG32((void*)CYREG_BLE_BLESS_LL_DSM_CTRL) 
 212:.\Generated_Source\PSoC4/cyfitter_cfg.c **** 	/* Start the ECO and do not check status since it is not needed for HFCLK */
 213:.\Generated_Source\PSoC4/cyfitter_cfg.c **** 	(void)CySysClkEcoStart(2000u);
 214:.\Generated_Source\PSoC4/cyfitter_cfg.c **** 	CyDelayUs(1500u); /* Wait to stabalize */
 215:.\Generated_Source\PSoC4/cyfitter_cfg.c **** 
 216:.\Generated_Source\PSoC4/cyfitter_cfg.c **** 	/* Setup phase aligned clocks */
 217:.\Generated_Source\PSoC4/cyfitter_cfg.c **** 	CY_SET_REG32((void *)CYREG_PERI_DIV_16_CTL0, 0x00027000u);
 218:.\Generated_Source\PSoC4/cyfitter_cfg.c **** 	CY_SET_REG32((void *)CYREG_PERI_DIV_CMD, 0x8000FF40u);
 219:.\Generated_Source\PSoC4/cyfitter_cfg.c **** 	CY_SET_REG32((void *)CYREG_PERI_DIV_16_CTL1, 0x00BB7F00u);
 220:.\Generated_Source\PSoC4/cyfitter_cfg.c **** 	CY_SET_REG32((void *)CYREG_PERI_DIV_CMD, 0x8000FF41u);
 221:.\Generated_Source\PSoC4/cyfitter_cfg.c **** 	CY_SET_REG32((void *)CYREG_PERI_DIV_16_CTL2, 0x00BB7F00u);
 222:.\Generated_Source\PSoC4/cyfitter_cfg.c **** 	CY_SET_REG32((void *)CYREG_PERI_DIV_CMD, 0x8000FF42u);
 223:.\Generated_Source\PSoC4/cyfitter_cfg.c **** 
 224:.\Generated_Source\PSoC4/cyfitter_cfg.c **** 	/* CYDEV_CLK_IMO_CONFIG Starting address: CYDEV_CLK_IMO_CONFIG */
 225:.\Generated_Source\PSoC4/cyfitter_cfg.c **** 	CY_SET_XTND_REG32((void CYFAR *)(CYREG_CLK_IMO_CONFIG), 0x80000000u);
 226:.\Generated_Source\PSoC4/cyfitter_cfg.c **** 
 227:.\Generated_Source\PSoC4/cyfitter_cfg.c **** 	/* CYDEV_CLK_SELECT Starting address: CYDEV_CLK_SELECT */
 228:.\Generated_Source\PSoC4/cyfitter_cfg.c **** 	CY_SET_XTND_REG32((void CYFAR *)(CYREG_CLK_SELECT), 0x00040000u);
 229:.\Generated_Source\PSoC4/cyfitter_cfg.c **** 
 230:.\Generated_Source\PSoC4/cyfitter_cfg.c **** 	/* CYDEV_PERI_PCLK_CTL11 Starting address: CYDEV_PERI_PCLK_CTL11 */
 231:.\Generated_Source\PSoC4/cyfitter_cfg.c **** 	CY_SET_XTND_REG32((void CYFAR *)(CYREG_PERI_PCLK_CTL11), 0x00000040u);
 232:.\Generated_Source\PSoC4/cyfitter_cfg.c **** 
 233:.\Generated_Source\PSoC4/cyfitter_cfg.c **** 	/* CYDEV_PERI_PCLK_CTL8 Starting address: CYDEV_PERI_PCLK_CTL8 */
 234:.\Generated_Source\PSoC4/cyfitter_cfg.c **** 	CY_SET_XTND_REG32((void CYFAR *)(CYREG_PERI_PCLK_CTL8), 0x00000041u);
 235:.\Generated_Source\PSoC4/cyfitter_cfg.c **** 
 236:.\Generated_Source\PSoC4/cyfitter_cfg.c **** 	/* CYDEV_PERI_PCLK_CTL7 Starting address: CYDEV_PERI_PCLK_CTL7 */
 237:.\Generated_Source\PSoC4/cyfitter_cfg.c **** 	CY_SET_XTND_REG32((void CYFAR *)(CYREG_PERI_PCLK_CTL7), 0x00000042u);
 238:.\Generated_Source\PSoC4/cyfitter_cfg.c **** 
 239:.\Generated_Source\PSoC4/cyfitter_cfg.c **** 	(void)CyIntSetVector(8u, &CySysWdtIsr);
 240:.\Generated_Source\PSoC4/cyfitter_cfg.c **** 	CyIntEnable(8u);
ARM GAS  C:\Users\Petro\AppData\Local\Temp\ccSZcWJH.s 			page 7


 241:.\Generated_Source\PSoC4/cyfitter_cfg.c **** 	CY_SET_XTND_REG32((void CYFAR *)(CYREG_WDT_CONFIG), 0x40000000u);
 242:.\Generated_Source\PSoC4/cyfitter_cfg.c **** }
 243:.\Generated_Source\PSoC4/cyfitter_cfg.c **** 
 244:.\Generated_Source\PSoC4/cyfitter_cfg.c **** 
 245:.\Generated_Source\PSoC4/cyfitter_cfg.c **** /* Analog API Functions */
 246:.\Generated_Source\PSoC4/cyfitter_cfg.c **** 
 247:.\Generated_Source\PSoC4/cyfitter_cfg.c **** 
 248:.\Generated_Source\PSoC4/cyfitter_cfg.c **** /*******************************************************************************
 249:.\Generated_Source\PSoC4/cyfitter_cfg.c **** * Function Name: AnalogSetDefault
 250:.\Generated_Source\PSoC4/cyfitter_cfg.c **** ********************************************************************************
 251:.\Generated_Source\PSoC4/cyfitter_cfg.c **** *
 252:.\Generated_Source\PSoC4/cyfitter_cfg.c **** * Summary:
 253:.\Generated_Source\PSoC4/cyfitter_cfg.c **** *  Sets up the analog portions of the chip to default values based on chip
 254:.\Generated_Source\PSoC4/cyfitter_cfg.c **** *  configuration options from the project.
 255:.\Generated_Source\PSoC4/cyfitter_cfg.c **** *
 256:.\Generated_Source\PSoC4/cyfitter_cfg.c **** * Parameters:
 257:.\Generated_Source\PSoC4/cyfitter_cfg.c **** *  void
 258:.\Generated_Source\PSoC4/cyfitter_cfg.c **** *
 259:.\Generated_Source\PSoC4/cyfitter_cfg.c **** * Return:
 260:.\Generated_Source\PSoC4/cyfitter_cfg.c **** *  void
 261:.\Generated_Source\PSoC4/cyfitter_cfg.c **** *
 262:.\Generated_Source\PSoC4/cyfitter_cfg.c **** *******************************************************************************/
 263:.\Generated_Source\PSoC4/cyfitter_cfg.c **** static void AnalogSetDefault(void);
 264:.\Generated_Source\PSoC4/cyfitter_cfg.c **** static void AnalogSetDefault(void)
 265:.\Generated_Source\PSoC4/cyfitter_cfg.c **** {
 100              		.loc 1 265 0
 101              		.cfi_startproc
 266:.\Generated_Source\PSoC4/cyfitter_cfg.c **** 	CY_SET_XTND_REG32((void CYFAR *)CYREG_CTBM0_DFT_CTRL, 0x00000003u);
 102              		.loc 1 266 0
 103 0000 0323     		mov	r3, #3
 104 0002 044A     		ldr	r2, .L7
 105 0004 1360     		str	r3, [r2]
 267:.\Generated_Source\PSoC4/cyfitter_cfg.c **** 	CY_SET_XTND_REG32((void CYFAR *)CYREG_CTBM1_DFT_CTRL, 0x00000003u);
 106              		.loc 1 267 0
 107 0006 044A     		ldr	r2, .L7+4
 108 0008 1360     		str	r3, [r2]
 268:.\Generated_Source\PSoC4/cyfitter_cfg.c **** 	CY_SET_XTND_REG32((void CYFAR *)CYREG_PASS_DSAB_DSAB_CTRL, 0x00000000u);
 109              		.loc 1 268 0
 110 000a 0022     		mov	r2, #0
 111 000c 034B     		ldr	r3, .L7+8
 112 000e 1A60     		str	r2, [r3]
 269:.\Generated_Source\PSoC4/cyfitter_cfg.c **** }
 113              		.loc 1 269 0
 114              		@ sp needed
 115 0010 7047     		bx	lr
 116              	.L8:
 117 0012 C046     		.align	2
 118              	.L7:
 119 0014 30003040 		.word	1076887600
 120 0018 30003140 		.word	1076953136
 121 001c 000E3F40 		.word	1077874176
 122              		.cfi_endproc
 123              	.LFE7:
 124              		.size	AnalogSetDefault, .-AnalogSetDefault
 125              		.section	.text.CYMEMZERO,"ax",%progbits
 126              		.align	2
 127              		.code	16
ARM GAS  C:\Users\Petro\AppData\Local\Temp\ccSZcWJH.s 			page 8


 128              		.thumb_func
 129              		.type	CYMEMZERO, %function
 130              	CYMEMZERO:
 131              	.LFB2:
  62:.\Generated_Source\PSoC4/cyfitter_cfg.c **** 	(void)memset(s, 0, n);
 132              		.loc 1 62 0
 133              		.cfi_startproc
 134              	.LVL12:
 135 0000 08B5     		push	{r3, lr}
 136              		.cfi_def_cfa_offset 8
 137              		.cfi_offset 3, -8
 138              		.cfi_offset 14, -4
 139 0002 0A1C     		mov	r2, r1
  63:.\Generated_Source\PSoC4/cyfitter_cfg.c **** }
 140              		.loc 1 63 0
 141 0004 0021     		mov	r1, #0
 142              	.LVL13:
 143 0006 FFF7FEFF 		bl	memset
 144              	.LVL14:
  64:.\Generated_Source\PSoC4/cyfitter_cfg.c **** CY_CFG_UNUSED
 145              		.loc 1 64 0
 146              		@ sp needed
 147 000a 08BD     		pop	{r3, pc}
 148              		.cfi_endproc
 149              	.LFE2:
 150              		.size	CYMEMZERO, .-CYMEMZERO
 151              		.section	.text.CYCONFIGCPYCODE,"ax",%progbits
 152              		.align	2
 153              		.code	16
 154              		.thumb_func
 155              		.type	CYCONFIGCPYCODE, %function
 156              	CYCONFIGCPYCODE:
 157              	.LFB4:
  76:.\Generated_Source\PSoC4/cyfitter_cfg.c **** 	(void)memcpy(dest, src, n);
 158              		.loc 1 76 0
 159              		.cfi_startproc
 160              	.LVL15:
 161 0000 08B5     		push	{r3, lr}
 162              		.cfi_def_cfa_offset 8
 163              		.cfi_offset 3, -8
 164              		.cfi_offset 14, -4
  77:.\Generated_Source\PSoC4/cyfitter_cfg.c **** }
 165              		.loc 1 77 0
 166 0002 FFF7FEFF 		bl	memcpy
 167              	.LVL16:
  78:.\Generated_Source\PSoC4/cyfitter_cfg.c **** 
 168              		.loc 1 78 0
 169              		@ sp needed
 170 0006 08BD     		pop	{r3, pc}
 171              		.cfi_endproc
 172              	.LFE4:
 173              		.size	CYCONFIGCPYCODE, .-CYCONFIGCPYCODE
 174              		.section	.psocinit,"ax",%progbits
 175              		.align	2
 176              		.code	16
 177              		.thumb_func
 178              		.type	ClockSetup, %function
ARM GAS  C:\Users\Petro\AppData\Local\Temp\ccSZcWJH.s 			page 9


 179              	ClockSetup:
 180              	.LFB6:
 188:.\Generated_Source\PSoC4/cyfitter_cfg.c **** 
 181              		.loc 1 188 0
 182              		.cfi_startproc
 183 0000 38B5     		push	{r3, r4, r5, lr}
 184              		.cfi_def_cfa_offset 16
 185              		.cfi_offset 3, -16
 186              		.cfi_offset 4, -12
 187              		.cfi_offset 5, -8
 188              		.cfi_offset 14, -4
 191:.\Generated_Source\PSoC4/cyfitter_cfg.c **** 
 189              		.loc 1 191 0
 190 0002 1222     		mov	r2, #18
 191 0004 284B     		ldr	r3, .L12
 192 0006 1A60     		str	r2, [r3]
 194:.\Generated_Source\PSoC4/cyfitter_cfg.c **** 	CyDelayCycles(12000000u); /* WCO may take up to 500ms to start */
 193              		.loc 1 194 0
 194 0008 FFF7FEFF 		bl	CySysClkWcoStart
 195              	.LVL17:
 195:.\Generated_Source\PSoC4/cyfitter_cfg.c **** 	(void)CySysClkWcoSetPowerMode(CY_SYS_CLK_WCO_LPM);    /* Switch to the low power mode */
 196              		.loc 1 195 0
 197 000c 2748     		ldr	r0, .L12+4
 198 000e FFF7FEFF 		bl	CyDelayCycles
 199              	.LVL18:
 196:.\Generated_Source\PSoC4/cyfitter_cfg.c **** 
 200              		.loc 1 196 0
 201 0012 0120     		mov	r0, #1
 202 0014 FFF7FEFF 		bl	CySysClkWcoSetPowerMode
 203              	.LVL19:
 199:.\Generated_Source\PSoC4/cyfitter_cfg.c **** 	/* CYDEV_CLK_ILO_CONFIG Starting address: CYDEV_CLK_ILO_CONFIG */
 204              		.loc 1 199 0
 205 0018 3020     		mov	r0, #48
 206 001a FFF7FEFF 		bl	CySysClkWriteImoFreq
 207              	.LVL20:
 201:.\Generated_Source\PSoC4/cyfitter_cfg.c **** 
 208              		.loc 1 201 0
 209 001e 244A     		ldr	r2, .L12+8
 210 0020 244B     		ldr	r3, .L12+12
 211 0022 1A60     		str	r2, [r3]
 204:.\Generated_Source\PSoC4/cyfitter_cfg.c **** 
 212              		.loc 1 204 0
 213 0024 244C     		ldr	r4, .L12+16
 214 0026 8025     		mov	r5, #128
 215 0028 ED05     		lsl	r5, r5, #23
 216 002a 2560     		str	r5, [r4]
 208:.\Generated_Source\PSoC4/cyfitter_cfg.c **** 	CY_SET_XTND_REG32((void CYFAR *)(CYREG_BLE_BLERD_BB_XO_CAPTRIM), 0x00003E2Du);
 217              		.loc 1 208 0
 218 002c 234A     		ldr	r2, .L12+20
 219 002e 1168     		ldr	r1, [r2]
 220 0030 0223     		mov	r3, #2
 221 0032 0B43     		orr	r3, r1
 222 0034 1360     		str	r3, [r2]
 209:.\Generated_Source\PSoC4/cyfitter_cfg.c **** 	/* Disable Crystal Stable Interrupt before enabling ECO */
 223              		.loc 1 209 0
 224 0036 224A     		ldr	r2, .L12+24
 225 0038 224B     		ldr	r3, .L12+28
ARM GAS  C:\Users\Petro\AppData\Local\Temp\ccSZcWJH.s 			page 10


 226 003a 1A60     		str	r2, [r3]
 211:.\Generated_Source\PSoC4/cyfitter_cfg.c **** 	/* Start the ECO and do not check status since it is not needed for HFCLK */
 227              		.loc 1 211 0
 228 003c 224A     		ldr	r2, .L12+32
 229 003e 1368     		ldr	r3, [r2]
 230 0040 0821     		mov	r1, #8
 231 0042 8B43     		bic	r3, r1
 232 0044 1360     		str	r3, [r2]
 213:.\Generated_Source\PSoC4/cyfitter_cfg.c **** 	CyDelayUs(1500u); /* Wait to stabalize */
 233              		.loc 1 213 0
 234 0046 FA20     		mov	r0, #250
 235 0048 C000     		lsl	r0, r0, #3
 236 004a FFF7FEFF 		bl	CySysClkEcoStart
 237              	.LVL21:
 214:.\Generated_Source\PSoC4/cyfitter_cfg.c **** 
 238              		.loc 1 214 0
 239 004e 1F48     		ldr	r0, .L12+36
 240 0050 FFF7FEFF 		bl	CyDelayUs
 241              	.LVL22:
 217:.\Generated_Source\PSoC4/cyfitter_cfg.c **** 	CY_SET_REG32((void *)CYREG_PERI_DIV_CMD, 0x8000FF40u);
 242              		.loc 1 217 0
 243 0054 9C22     		mov	r2, #156
 244 0056 9202     		lsl	r2, r2, #10
 245 0058 1D4B     		ldr	r3, .L12+40
 246 005a 1A60     		str	r2, [r3]
 218:.\Generated_Source\PSoC4/cyfitter_cfg.c **** 	CY_SET_REG32((void *)CYREG_PERI_DIV_16_CTL1, 0x00BB7F00u);
 247              		.loc 1 218 0
 248 005c 1D4B     		ldr	r3, .L12+44
 249 005e 1E4A     		ldr	r2, .L12+48
 250 0060 1A60     		str	r2, [r3]
 219:.\Generated_Source\PSoC4/cyfitter_cfg.c **** 	CY_SET_REG32((void *)CYREG_PERI_DIV_CMD, 0x8000FF41u);
 251              		.loc 1 219 0
 252 0062 1E4A     		ldr	r2, .L12+52
 253 0064 1E49     		ldr	r1, .L12+56
 254 0066 0A60     		str	r2, [r1]
 220:.\Generated_Source\PSoC4/cyfitter_cfg.c **** 	CY_SET_REG32((void *)CYREG_PERI_DIV_16_CTL2, 0x00BB7F00u);
 255              		.loc 1 220 0
 256 0068 1E49     		ldr	r1, .L12+60
 257 006a 1960     		str	r1, [r3]
 221:.\Generated_Source\PSoC4/cyfitter_cfg.c **** 	CY_SET_REG32((void *)CYREG_PERI_DIV_CMD, 0x8000FF42u);
 258              		.loc 1 221 0
 259 006c 1E49     		ldr	r1, .L12+64
 260 006e 0A60     		str	r2, [r1]
 222:.\Generated_Source\PSoC4/cyfitter_cfg.c **** 
 261              		.loc 1 222 0
 262 0070 1E4A     		ldr	r2, .L12+68
 263 0072 1A60     		str	r2, [r3]
 225:.\Generated_Source\PSoC4/cyfitter_cfg.c **** 
 264              		.loc 1 225 0
 265 0074 8022     		mov	r2, #128
 266 0076 1206     		lsl	r2, r2, #24
 267 0078 1D4B     		ldr	r3, .L12+72
 268 007a 1A60     		str	r2, [r3]
 228:.\Generated_Source\PSoC4/cyfitter_cfg.c **** 
 269              		.loc 1 228 0
 270 007c 8022     		mov	r2, #128
 271 007e D202     		lsl	r2, r2, #11
ARM GAS  C:\Users\Petro\AppData\Local\Temp\ccSZcWJH.s 			page 11


 272 0080 1C4B     		ldr	r3, .L12+76
 273 0082 1A60     		str	r2, [r3]
 231:.\Generated_Source\PSoC4/cyfitter_cfg.c **** 
 274              		.loc 1 231 0
 275 0084 4022     		mov	r2, #64
 276 0086 1C4B     		ldr	r3, .L12+80
 277 0088 1A60     		str	r2, [r3]
 234:.\Generated_Source\PSoC4/cyfitter_cfg.c **** 
 278              		.loc 1 234 0
 279 008a 0132     		add	r2, r2, #1
 280 008c 1B4B     		ldr	r3, .L12+84
 281 008e 1A60     		str	r2, [r3]
 237:.\Generated_Source\PSoC4/cyfitter_cfg.c **** 
 282              		.loc 1 237 0
 283 0090 0132     		add	r2, r2, #1
 284 0092 1B4B     		ldr	r3, .L12+88
 285 0094 1A60     		str	r2, [r3]
 239:.\Generated_Source\PSoC4/cyfitter_cfg.c **** 	CyIntEnable(8u);
 286              		.loc 1 239 0
 287 0096 0820     		mov	r0, #8
 288 0098 1A49     		ldr	r1, .L12+92
 289 009a FFF7FEFF 		bl	CyIntSetVector
 290              	.LVL23:
 240:.\Generated_Source\PSoC4/cyfitter_cfg.c **** 	CY_SET_XTND_REG32((void CYFAR *)(CYREG_WDT_CONFIG), 0x40000000u);
 291              		.loc 1 240 0
 292 009e 0820     		mov	r0, #8
 293 00a0 FFF7FEFF 		bl	CyIntEnable
 294              	.LVL24:
 241:.\Generated_Source\PSoC4/cyfitter_cfg.c **** }
 295              		.loc 1 241 0
 296 00a4 2560     		str	r5, [r4]
 242:.\Generated_Source\PSoC4/cyfitter_cfg.c **** 
 297              		.loc 1 242 0
 298              		@ sp needed
 299 00a6 38BD     		pop	{r3, r4, r5, pc}
 300              	.L13:
 301              		.align	2
 302              	.L12:
 303 00a8 30001040 		.word	1074790448
 304 00ac 001BB700 		.word	12000000
 305 00b0 06000080 		.word	-2147483642
 306 00b4 04010B40 		.word	1074462980
 307 00b8 0C020B40 		.word	1074463244
 308 00bc 78002E40 		.word	1076756600
 309 00c0 2D3E0000 		.word	15917
 310 00c4 7C002E40 		.word	1076756604
 311 00c8 6CF02E40 		.word	1076818028
 312 00cc DC050000 		.word	1500
 313 00d0 00030140 		.word	1073808128
 314 00d4 00000140 		.word	1073807360
 315 00d8 40FF0080 		.word	-2147418304
 316 00dc 007FBB00 		.word	12287744
 317 00e0 04030140 		.word	1073808132
 318 00e4 41FF0080 		.word	-2147418303
 319 00e8 08030140 		.word	1073808136
 320 00ec 42FF0080 		.word	-2147418302
 321 00f0 08010B40 		.word	1074462984
ARM GAS  C:\Users\Petro\AppData\Local\Temp\ccSZcWJH.s 			page 12


 322 00f4 00010B40 		.word	1074462976
 323 00f8 2C010140 		.word	1073807660
 324 00fc 20010140 		.word	1073807648
 325 0100 1C010140 		.word	1073807644
 326 0104 00000000 		.word	CySysWdtIsr
 327              		.cfi_endproc
 328              	.LFE6:
 329              		.size	ClockSetup, .-ClockSetup
 330              		.align	2
 331              		.global	cyfitter_cfg
 332              		.code	16
 333              		.thumb_func
 334              		.type	cyfitter_cfg, %function
 335              	cyfitter_cfg:
 336              	.LFB8:
 270:.\Generated_Source\PSoC4/cyfitter_cfg.c **** 
 271:.\Generated_Source\PSoC4/cyfitter_cfg.c **** #define CY_AMUX_UNUSED CYREG_CM0_ROM_DWT
 272:.\Generated_Source\PSoC4/cyfitter_cfg.c **** 
 273:.\Generated_Source\PSoC4/cyfitter_cfg.c **** 
 274:.\Generated_Source\PSoC4/cyfitter_cfg.c **** /*******************************************************************************
 275:.\Generated_Source\PSoC4/cyfitter_cfg.c **** * Function Name: cyfitter_cfg
 276:.\Generated_Source\PSoC4/cyfitter_cfg.c **** ********************************************************************************
 277:.\Generated_Source\PSoC4/cyfitter_cfg.c **** * Summary:
 278:.\Generated_Source\PSoC4/cyfitter_cfg.c **** *  This function is called by the start-up code for the selected device. It
 279:.\Generated_Source\PSoC4/cyfitter_cfg.c **** *  performs all of the necessary device configuration based on the design
 280:.\Generated_Source\PSoC4/cyfitter_cfg.c **** *  settings.  This includes settings from the Design Wide Resources (DWR) such
 281:.\Generated_Source\PSoC4/cyfitter_cfg.c **** *  as Clocks and Pins as well as any component configuration that is necessary.
 282:.\Generated_Source\PSoC4/cyfitter_cfg.c **** *
 283:.\Generated_Source\PSoC4/cyfitter_cfg.c **** * Parameters:  
 284:.\Generated_Source\PSoC4/cyfitter_cfg.c **** *   void
 285:.\Generated_Source\PSoC4/cyfitter_cfg.c **** *
 286:.\Generated_Source\PSoC4/cyfitter_cfg.c **** * Return:
 287:.\Generated_Source\PSoC4/cyfitter_cfg.c **** *   void
 288:.\Generated_Source\PSoC4/cyfitter_cfg.c **** *
 289:.\Generated_Source\PSoC4/cyfitter_cfg.c **** *******************************************************************************/
 290:.\Generated_Source\PSoC4/cyfitter_cfg.c **** CY_CFG_SECTION
 291:.\Generated_Source\PSoC4/cyfitter_cfg.c **** void cyfitter_cfg(void)
 292:.\Generated_Source\PSoC4/cyfitter_cfg.c **** {
 337              		.loc 1 292 0
 338              		.cfi_startproc
 339 0108 38B5     		push	{r3, r4, r5, lr}
 340              		.cfi_def_cfa_offset 16
 341              		.cfi_offset 3, -16
 342              		.cfi_offset 4, -12
 343              		.cfi_offset 5, -8
 344              		.cfi_offset 14, -4
 293:.\Generated_Source\PSoC4/cyfitter_cfg.c **** 	/* Disable interrupts by default. Let user enable if/when they want. */
 294:.\Generated_Source\PSoC4/cyfitter_cfg.c **** 	CyGlobalIntDisable;
 345              		.loc 1 294 0
 346              	@ 294 ".\Generated_Source\PSoC4\cyfitter_cfg.c" 1
 347 010a 72B6     		CPSID   i
 348              	@ 0 "" 2
 295:.\Generated_Source\PSoC4/cyfitter_cfg.c **** 
 296:.\Generated_Source\PSoC4/cyfitter_cfg.c **** 	CY_SET_XTND_REG32((void CYFAR *)(CYREG_BLE_BLESS_LL_DSM_CTRL), 0x00000000u);
 349              		.loc 1 296 0
 350              		.code	16
 351 010c 0022     		mov	r2, #0
ARM GAS  C:\Users\Petro\AppData\Local\Temp\ccSZcWJH.s 			page 13


 352 010e 444B     		ldr	r3, .L19
 353 0110 1A60     		str	r2, [r3]
 297:.\Generated_Source\PSoC4/cyfitter_cfg.c **** 
 298:.\Generated_Source\PSoC4/cyfitter_cfg.c **** 	/* Enable the clock in the interrupt controller for the routed interrupts */
 299:.\Generated_Source\PSoC4/cyfitter_cfg.c **** 	CY_SET_REG8((void *)CYREG_UDB_UDBIF_INT_CLK_CTL, 0x01u);
 354              		.loc 1 299 0
 355 0112 0132     		add	r2, r2, #1
 356 0114 434B     		ldr	r3, .L19+4
 357 0116 1A70     		strb	r2, [r3]
 358              	.LVL25:
 359              	.LBB3:
 300:.\Generated_Source\PSoC4/cyfitter_cfg.c **** 	{
 301:.\Generated_Source\PSoC4/cyfitter_cfg.c **** 		static const uint32 CYCODE cy_cfg_addr_table[] = {
 302:.\Generated_Source\PSoC4/cyfitter_cfg.c **** 			0x400F0003u, /* Base address: 0x400F0000 Count: 3 */
 303:.\Generated_Source\PSoC4/cyfitter_cfg.c **** 			0x400F3012u, /* Base address: 0x400F3000 Count: 18 */
 304:.\Generated_Source\PSoC4/cyfitter_cfg.c **** 			0x400F3141u, /* Base address: 0x400F3100 Count: 65 */
 305:.\Generated_Source\PSoC4/cyfitter_cfg.c **** 			0x400F326Au, /* Base address: 0x400F3200 Count: 106 */
 306:.\Generated_Source\PSoC4/cyfitter_cfg.c **** 			0x400F334Bu, /* Base address: 0x400F3300 Count: 75 */
 307:.\Generated_Source\PSoC4/cyfitter_cfg.c **** 			0x400F4002u, /* Base address: 0x400F4000 Count: 2 */
 308:.\Generated_Source\PSoC4/cyfitter_cfg.c **** 			0x400F4112u, /* Base address: 0x400F4100 Count: 18 */
 309:.\Generated_Source\PSoC4/cyfitter_cfg.c **** 			0x400F4202u, /* Base address: 0x400F4200 Count: 2 */
 310:.\Generated_Source\PSoC4/cyfitter_cfg.c **** 			0x400F4301u, /* Base address: 0x400F4300 Count: 1 */
 311:.\Generated_Source\PSoC4/cyfitter_cfg.c **** 			0x400F6002u, /* Base address: 0x400F6000 Count: 2 */
 312:.\Generated_Source\PSoC4/cyfitter_cfg.c **** 		};
 313:.\Generated_Source\PSoC4/cyfitter_cfg.c **** 
 314:.\Generated_Source\PSoC4/cyfitter_cfg.c **** 		static const cy_cfg_addrvalue_t CYCODE cy_cfg_data_table[] = {
 315:.\Generated_Source\PSoC4/cyfitter_cfg.c **** 			{0x80u, 0x38u},
 316:.\Generated_Source\PSoC4/cyfitter_cfg.c **** 			{0x81u, 0x72u},
 317:.\Generated_Source\PSoC4/cyfitter_cfg.c **** 			{0x82u, 0x0Fu},
 318:.\Generated_Source\PSoC4/cyfitter_cfg.c **** 			{0x00u, 0x04u},
 319:.\Generated_Source\PSoC4/cyfitter_cfg.c **** 			{0x0Au, 0x02u},
 320:.\Generated_Source\PSoC4/cyfitter_cfg.c **** 			{0x0Eu, 0x01u},
 321:.\Generated_Source\PSoC4/cyfitter_cfg.c **** 			{0x12u, 0x01u},
 322:.\Generated_Source\PSoC4/cyfitter_cfg.c **** 			{0x25u, 0x01u},
 323:.\Generated_Source\PSoC4/cyfitter_cfg.c **** 			{0x2Eu, 0x02u},
 324:.\Generated_Source\PSoC4/cyfitter_cfg.c **** 			{0x30u, 0x04u},
 325:.\Generated_Source\PSoC4/cyfitter_cfg.c **** 			{0x34u, 0x02u},
 326:.\Generated_Source\PSoC4/cyfitter_cfg.c **** 			{0x35u, 0x01u},
 327:.\Generated_Source\PSoC4/cyfitter_cfg.c **** 			{0x36u, 0x01u},
 328:.\Generated_Source\PSoC4/cyfitter_cfg.c **** 			{0x3Eu, 0x51u},
 329:.\Generated_Source\PSoC4/cyfitter_cfg.c **** 			{0x3Fu, 0x10u},
 330:.\Generated_Source\PSoC4/cyfitter_cfg.c **** 			{0x54u, 0x18u},
 331:.\Generated_Source\PSoC4/cyfitter_cfg.c **** 			{0x56u, 0x04u},
 332:.\Generated_Source\PSoC4/cyfitter_cfg.c **** 			{0x58u, 0x04u},
 333:.\Generated_Source\PSoC4/cyfitter_cfg.c **** 			{0x59u, 0x04u},
 334:.\Generated_Source\PSoC4/cyfitter_cfg.c **** 			{0x5Bu, 0x04u},
 335:.\Generated_Source\PSoC4/cyfitter_cfg.c **** 			{0x5Fu, 0x01u},
 336:.\Generated_Source\PSoC4/cyfitter_cfg.c **** 			{0x00u, 0x20u},
 337:.\Generated_Source\PSoC4/cyfitter_cfg.c **** 			{0x01u, 0x02u},
 338:.\Generated_Source\PSoC4/cyfitter_cfg.c **** 			{0x03u, 0x02u},
 339:.\Generated_Source\PSoC4/cyfitter_cfg.c **** 			{0x04u, 0x80u},
 340:.\Generated_Source\PSoC4/cyfitter_cfg.c **** 			{0x05u, 0x39u},
 341:.\Generated_Source\PSoC4/cyfitter_cfg.c **** 			{0x09u, 0x01u},
 342:.\Generated_Source\PSoC4/cyfitter_cfg.c **** 			{0x0Bu, 0x80u},
 343:.\Generated_Source\PSoC4/cyfitter_cfg.c **** 			{0x0Du, 0x20u},
 344:.\Generated_Source\PSoC4/cyfitter_cfg.c **** 			{0x0Eu, 0x02u},
 345:.\Generated_Source\PSoC4/cyfitter_cfg.c **** 			{0x0Fu, 0x20u},
ARM GAS  C:\Users\Petro\AppData\Local\Temp\ccSZcWJH.s 			page 14


 346:.\Generated_Source\PSoC4/cyfitter_cfg.c **** 			{0x11u, 0x80u},
 347:.\Generated_Source\PSoC4/cyfitter_cfg.c **** 			{0x16u, 0x02u},
 348:.\Generated_Source\PSoC4/cyfitter_cfg.c **** 			{0x17u, 0x26u},
 349:.\Generated_Source\PSoC4/cyfitter_cfg.c **** 			{0x18u, 0x04u},
 350:.\Generated_Source\PSoC4/cyfitter_cfg.c **** 			{0x19u, 0x40u},
 351:.\Generated_Source\PSoC4/cyfitter_cfg.c **** 			{0x1Au, 0x80u},
 352:.\Generated_Source\PSoC4/cyfitter_cfg.c **** 			{0x1Cu, 0x10u},
 353:.\Generated_Source\PSoC4/cyfitter_cfg.c **** 			{0x1Du, 0x11u},
 354:.\Generated_Source\PSoC4/cyfitter_cfg.c **** 			{0x1Fu, 0x41u},
 355:.\Generated_Source\PSoC4/cyfitter_cfg.c **** 			{0x23u, 0x08u},
 356:.\Generated_Source\PSoC4/cyfitter_cfg.c **** 			{0x24u, 0x40u},
 357:.\Generated_Source\PSoC4/cyfitter_cfg.c **** 			{0x25u, 0x68u},
 358:.\Generated_Source\PSoC4/cyfitter_cfg.c **** 			{0x26u, 0x01u},
 359:.\Generated_Source\PSoC4/cyfitter_cfg.c **** 			{0x2Au, 0x04u},
 360:.\Generated_Source\PSoC4/cyfitter_cfg.c **** 			{0x2Du, 0x28u},
 361:.\Generated_Source\PSoC4/cyfitter_cfg.c **** 			{0x2Eu, 0x02u},
 362:.\Generated_Source\PSoC4/cyfitter_cfg.c **** 			{0x2Fu, 0x11u},
 363:.\Generated_Source\PSoC4/cyfitter_cfg.c **** 			{0x30u, 0x10u},
 364:.\Generated_Source\PSoC4/cyfitter_cfg.c **** 			{0x31u, 0x10u},
 365:.\Generated_Source\PSoC4/cyfitter_cfg.c **** 			{0x36u, 0x80u},
 366:.\Generated_Source\PSoC4/cyfitter_cfg.c **** 			{0x37u, 0x26u},
 367:.\Generated_Source\PSoC4/cyfitter_cfg.c **** 			{0x3Cu, 0x40u},
 368:.\Generated_Source\PSoC4/cyfitter_cfg.c **** 			{0x3Eu, 0x08u},
 369:.\Generated_Source\PSoC4/cyfitter_cfg.c **** 			{0x3Fu, 0x21u},
 370:.\Generated_Source\PSoC4/cyfitter_cfg.c **** 			{0x44u, 0x10u},
 371:.\Generated_Source\PSoC4/cyfitter_cfg.c **** 			{0x45u, 0x21u},
 372:.\Generated_Source\PSoC4/cyfitter_cfg.c **** 			{0x46u, 0x08u},
 373:.\Generated_Source\PSoC4/cyfitter_cfg.c **** 			{0x47u, 0x40u},
 374:.\Generated_Source\PSoC4/cyfitter_cfg.c **** 			{0x4Eu, 0x08u},
 375:.\Generated_Source\PSoC4/cyfitter_cfg.c **** 			{0x4Fu, 0x20u},
 376:.\Generated_Source\PSoC4/cyfitter_cfg.c **** 			{0x54u, 0x10u},
 377:.\Generated_Source\PSoC4/cyfitter_cfg.c **** 			{0x57u, 0x02u},
 378:.\Generated_Source\PSoC4/cyfitter_cfg.c **** 			{0x58u, 0x01u},
 379:.\Generated_Source\PSoC4/cyfitter_cfg.c **** 			{0x5Cu, 0x10u},
 380:.\Generated_Source\PSoC4/cyfitter_cfg.c **** 			{0x60u, 0x04u},
 381:.\Generated_Source\PSoC4/cyfitter_cfg.c **** 			{0x61u, 0x40u},
 382:.\Generated_Source\PSoC4/cyfitter_cfg.c **** 			{0x63u, 0x40u},
 383:.\Generated_Source\PSoC4/cyfitter_cfg.c **** 			{0x6Cu, 0x20u},
 384:.\Generated_Source\PSoC4/cyfitter_cfg.c **** 			{0x6Du, 0x10u},
 385:.\Generated_Source\PSoC4/cyfitter_cfg.c **** 			{0x6Eu, 0x40u},
 386:.\Generated_Source\PSoC4/cyfitter_cfg.c **** 			{0x77u, 0x26u},
 387:.\Generated_Source\PSoC4/cyfitter_cfg.c **** 			{0x84u, 0x01u},
 388:.\Generated_Source\PSoC4/cyfitter_cfg.c **** 			{0x85u, 0x08u},
 389:.\Generated_Source\PSoC4/cyfitter_cfg.c **** 			{0x87u, 0x40u},
 390:.\Generated_Source\PSoC4/cyfitter_cfg.c **** 			{0x8Au, 0x12u},
 391:.\Generated_Source\PSoC4/cyfitter_cfg.c **** 			{0xC0u, 0xFBu},
 392:.\Generated_Source\PSoC4/cyfitter_cfg.c **** 			{0xC2u, 0xE8u},
 393:.\Generated_Source\PSoC4/cyfitter_cfg.c **** 			{0xC4u, 0xF1u},
 394:.\Generated_Source\PSoC4/cyfitter_cfg.c **** 			{0xCAu, 0xF2u},
 395:.\Generated_Source\PSoC4/cyfitter_cfg.c **** 			{0xCCu, 0xF0u},
 396:.\Generated_Source\PSoC4/cyfitter_cfg.c **** 			{0xCEu, 0xF0u},
 397:.\Generated_Source\PSoC4/cyfitter_cfg.c **** 			{0xD0u, 0xF0u},
 398:.\Generated_Source\PSoC4/cyfitter_cfg.c **** 			{0xD2u, 0x20u},
 399:.\Generated_Source\PSoC4/cyfitter_cfg.c **** 			{0xD6u, 0x21u},
 400:.\Generated_Source\PSoC4/cyfitter_cfg.c **** 			{0xD8u, 0x0Du},
 401:.\Generated_Source\PSoC4/cyfitter_cfg.c **** 			{0x00u, 0x40u},
 402:.\Generated_Source\PSoC4/cyfitter_cfg.c **** 			{0x01u, 0x01u},
ARM GAS  C:\Users\Petro\AppData\Local\Temp\ccSZcWJH.s 			page 15


 403:.\Generated_Source\PSoC4/cyfitter_cfg.c **** 			{0x02u, 0x20u},
 404:.\Generated_Source\PSoC4/cyfitter_cfg.c **** 			{0x03u, 0x2Au},
 405:.\Generated_Source\PSoC4/cyfitter_cfg.c **** 			{0x04u, 0x13u},
 406:.\Generated_Source\PSoC4/cyfitter_cfg.c **** 			{0x06u, 0x0Cu},
 407:.\Generated_Source\PSoC4/cyfitter_cfg.c **** 			{0x08u, 0x20u},
 408:.\Generated_Source\PSoC4/cyfitter_cfg.c **** 			{0x0Au, 0xC0u},
 409:.\Generated_Source\PSoC4/cyfitter_cfg.c **** 			{0x0Eu, 0x15u},
 410:.\Generated_Source\PSoC4/cyfitter_cfg.c **** 			{0x14u, 0x80u},
 411:.\Generated_Source\PSoC4/cyfitter_cfg.c **** 			{0x16u, 0x20u},
 412:.\Generated_Source\PSoC4/cyfitter_cfg.c **** 			{0x17u, 0x04u},
 413:.\Generated_Source\PSoC4/cyfitter_cfg.c **** 			{0x18u, 0xE0u},
 414:.\Generated_Source\PSoC4/cyfitter_cfg.c **** 			{0x19u, 0x02u},
 415:.\Generated_Source\PSoC4/cyfitter_cfg.c **** 			{0x1Bu, 0x09u},
 416:.\Generated_Source\PSoC4/cyfitter_cfg.c **** 			{0x1Eu, 0x08u},
 417:.\Generated_Source\PSoC4/cyfitter_cfg.c **** 			{0x20u, 0x0Au},
 418:.\Generated_Source\PSoC4/cyfitter_cfg.c **** 			{0x22u, 0x14u},
 419:.\Generated_Source\PSoC4/cyfitter_cfg.c **** 			{0x24u, 0x13u},
 420:.\Generated_Source\PSoC4/cyfitter_cfg.c **** 			{0x25u, 0x13u},
 421:.\Generated_Source\PSoC4/cyfitter_cfg.c **** 			{0x26u, 0x04u},
 422:.\Generated_Source\PSoC4/cyfitter_cfg.c **** 			{0x28u, 0xE0u},
 423:.\Generated_Source\PSoC4/cyfitter_cfg.c **** 			{0x29u, 0x13u},
 424:.\Generated_Source\PSoC4/cyfitter_cfg.c **** 			{0x2Cu, 0x03u},
 425:.\Generated_Source\PSoC4/cyfitter_cfg.c **** 			{0x2Du, 0x10u},
 426:.\Generated_Source\PSoC4/cyfitter_cfg.c **** 			{0x2Eu, 0x14u},
 427:.\Generated_Source\PSoC4/cyfitter_cfg.c **** 			{0x30u, 0x10u},
 428:.\Generated_Source\PSoC4/cyfitter_cfg.c **** 			{0x31u, 0x0Cu},
 429:.\Generated_Source\PSoC4/cyfitter_cfg.c **** 			{0x32u, 0x0Fu},
 430:.\Generated_Source\PSoC4/cyfitter_cfg.c **** 			{0x33u, 0x10u},
 431:.\Generated_Source\PSoC4/cyfitter_cfg.c **** 			{0x34u, 0xE0u},
 432:.\Generated_Source\PSoC4/cyfitter_cfg.c **** 			{0x35u, 0x03u},
 433:.\Generated_Source\PSoC4/cyfitter_cfg.c **** 			{0x37u, 0x20u},
 434:.\Generated_Source\PSoC4/cyfitter_cfg.c **** 			{0x3Au, 0x08u},
 435:.\Generated_Source\PSoC4/cyfitter_cfg.c **** 			{0x3Eu, 0x01u},
 436:.\Generated_Source\PSoC4/cyfitter_cfg.c **** 			{0x3Fu, 0x01u},
 437:.\Generated_Source\PSoC4/cyfitter_cfg.c **** 			{0x40u, 0x31u},
 438:.\Generated_Source\PSoC4/cyfitter_cfg.c **** 			{0x41u, 0x06u},
 439:.\Generated_Source\PSoC4/cyfitter_cfg.c **** 			{0x46u, 0x0Bu},
 440:.\Generated_Source\PSoC4/cyfitter_cfg.c **** 			{0x47u, 0xCEu},
 441:.\Generated_Source\PSoC4/cyfitter_cfg.c **** 			{0x48u, 0x34u},
 442:.\Generated_Source\PSoC4/cyfitter_cfg.c **** 			{0x49u, 0xFFu},
 443:.\Generated_Source\PSoC4/cyfitter_cfg.c **** 			{0x4Au, 0xFFu},
 444:.\Generated_Source\PSoC4/cyfitter_cfg.c **** 			{0x4Bu, 0xFFu},
 445:.\Generated_Source\PSoC4/cyfitter_cfg.c **** 			{0x4Eu, 0xF0u},
 446:.\Generated_Source\PSoC4/cyfitter_cfg.c **** 			{0x4Fu, 0x44u},
 447:.\Generated_Source\PSoC4/cyfitter_cfg.c **** 			{0x50u, 0x0Cu},
 448:.\Generated_Source\PSoC4/cyfitter_cfg.c **** 			{0x54u, 0x01u},
 449:.\Generated_Source\PSoC4/cyfitter_cfg.c **** 			{0x58u, 0x04u},
 450:.\Generated_Source\PSoC4/cyfitter_cfg.c **** 			{0x59u, 0x04u},
 451:.\Generated_Source\PSoC4/cyfitter_cfg.c **** 			{0x5Au, 0x04u},
 452:.\Generated_Source\PSoC4/cyfitter_cfg.c **** 			{0x5Bu, 0x04u},
 453:.\Generated_Source\PSoC4/cyfitter_cfg.c **** 			{0x5Fu, 0x01u},
 454:.\Generated_Source\PSoC4/cyfitter_cfg.c **** 			{0x66u, 0xC0u},
 455:.\Generated_Source\PSoC4/cyfitter_cfg.c **** 			{0x6Au, 0x40u},
 456:.\Generated_Source\PSoC4/cyfitter_cfg.c **** 			{0x6Bu, 0x02u},
 457:.\Generated_Source\PSoC4/cyfitter_cfg.c **** 			{0x82u, 0x20u},
 458:.\Generated_Source\PSoC4/cyfitter_cfg.c **** 			{0x88u, 0x10u},
 459:.\Generated_Source\PSoC4/cyfitter_cfg.c **** 			{0x8Au, 0xACu},
ARM GAS  C:\Users\Petro\AppData\Local\Temp\ccSZcWJH.s 			page 16


 460:.\Generated_Source\PSoC4/cyfitter_cfg.c **** 			{0x8Eu, 0x03u},
 461:.\Generated_Source\PSoC4/cyfitter_cfg.c **** 			{0x8Fu, 0x08u},
 462:.\Generated_Source\PSoC4/cyfitter_cfg.c **** 			{0x90u, 0x10u},
 463:.\Generated_Source\PSoC4/cyfitter_cfg.c **** 			{0x92u, 0x40u},
 464:.\Generated_Source\PSoC4/cyfitter_cfg.c **** 			{0x95u, 0x71u},
 465:.\Generated_Source\PSoC4/cyfitter_cfg.c **** 			{0x97u, 0x06u},
 466:.\Generated_Source\PSoC4/cyfitter_cfg.c **** 			{0x98u, 0x0Cu},
 467:.\Generated_Source\PSoC4/cyfitter_cfg.c **** 			{0x99u, 0x2Cu},
 468:.\Generated_Source\PSoC4/cyfitter_cfg.c **** 			{0x9Au, 0x71u},
 469:.\Generated_Source\PSoC4/cyfitter_cfg.c **** 			{0x9Bu, 0x43u},
 470:.\Generated_Source\PSoC4/cyfitter_cfg.c **** 			{0x9Cu, 0x09u},
 471:.\Generated_Source\PSoC4/cyfitter_cfg.c **** 			{0x9Eu, 0xD0u},
 472:.\Generated_Source\PSoC4/cyfitter_cfg.c **** 			{0x9Fu, 0x0Cu},
 473:.\Generated_Source\PSoC4/cyfitter_cfg.c **** 			{0xA0u, 0x14u},
 474:.\Generated_Source\PSoC4/cyfitter_cfg.c **** 			{0xA1u, 0x80u},
 475:.\Generated_Source\PSoC4/cyfitter_cfg.c **** 			{0xA3u, 0x13u},
 476:.\Generated_Source\PSoC4/cyfitter_cfg.c **** 			{0xA4u, 0xDCu},
 477:.\Generated_Source\PSoC4/cyfitter_cfg.c **** 			{0xA5u, 0x71u},
 478:.\Generated_Source\PSoC4/cyfitter_cfg.c **** 			{0xA6u, 0x22u},
 479:.\Generated_Source\PSoC4/cyfitter_cfg.c **** 			{0xA7u, 0x0Eu},
 480:.\Generated_Source\PSoC4/cyfitter_cfg.c **** 			{0xB0u, 0x1Fu},
 481:.\Generated_Source\PSoC4/cyfitter_cfg.c **** 			{0xB3u, 0x30u},
 482:.\Generated_Source\PSoC4/cyfitter_cfg.c **** 			{0xB4u, 0xE0u},
 483:.\Generated_Source\PSoC4/cyfitter_cfg.c **** 			{0xB5u, 0x0Fu},
 484:.\Generated_Source\PSoC4/cyfitter_cfg.c **** 			{0xB7u, 0xC0u},
 485:.\Generated_Source\PSoC4/cyfitter_cfg.c **** 			{0xB9u, 0x88u},
 486:.\Generated_Source\PSoC4/cyfitter_cfg.c **** 			{0xBAu, 0x20u},
 487:.\Generated_Source\PSoC4/cyfitter_cfg.c **** 			{0xBBu, 0x20u},
 488:.\Generated_Source\PSoC4/cyfitter_cfg.c **** 			{0xBFu, 0x04u},
 489:.\Generated_Source\PSoC4/cyfitter_cfg.c **** 			{0xC0u, 0x03u},
 490:.\Generated_Source\PSoC4/cyfitter_cfg.c **** 			{0xC6u, 0x04u},
 491:.\Generated_Source\PSoC4/cyfitter_cfg.c **** 			{0xC9u, 0xFFu},
 492:.\Generated_Source\PSoC4/cyfitter_cfg.c **** 			{0xCAu, 0x07u},
 493:.\Generated_Source\PSoC4/cyfitter_cfg.c **** 			{0xCBu, 0xFFu},
 494:.\Generated_Source\PSoC4/cyfitter_cfg.c **** 			{0xCCu, 0x40u},
 495:.\Generated_Source\PSoC4/cyfitter_cfg.c **** 			{0xCDu, 0x20u},
 496:.\Generated_Source\PSoC4/cyfitter_cfg.c **** 			{0xCEu, 0xF0u},
 497:.\Generated_Source\PSoC4/cyfitter_cfg.c **** 			{0xCFu, 0x05u},
 498:.\Generated_Source\PSoC4/cyfitter_cfg.c **** 			{0xD0u, 0x08u},
 499:.\Generated_Source\PSoC4/cyfitter_cfg.c **** 			{0xD8u, 0x04u},
 500:.\Generated_Source\PSoC4/cyfitter_cfg.c **** 			{0xD9u, 0x04u},
 501:.\Generated_Source\PSoC4/cyfitter_cfg.c **** 			{0xDAu, 0x04u},
 502:.\Generated_Source\PSoC4/cyfitter_cfg.c **** 			{0xDFu, 0x01u},
 503:.\Generated_Source\PSoC4/cyfitter_cfg.c **** 			{0xE0u, 0x40u},
 504:.\Generated_Source\PSoC4/cyfitter_cfg.c **** 			{0xE1u, 0xA8u},
 505:.\Generated_Source\PSoC4/cyfitter_cfg.c **** 			{0xE2u, 0x40u},
 506:.\Generated_Source\PSoC4/cyfitter_cfg.c **** 			{0xE3u, 0x20u},
 507:.\Generated_Source\PSoC4/cyfitter_cfg.c **** 			{0x03u, 0x86u},
 508:.\Generated_Source\PSoC4/cyfitter_cfg.c **** 			{0x05u, 0x14u},
 509:.\Generated_Source\PSoC4/cyfitter_cfg.c **** 			{0x06u, 0x82u},
 510:.\Generated_Source\PSoC4/cyfitter_cfg.c **** 			{0x09u, 0x80u},
 511:.\Generated_Source\PSoC4/cyfitter_cfg.c **** 			{0x0Au, 0x08u},
 512:.\Generated_Source\PSoC4/cyfitter_cfg.c **** 			{0x0Bu, 0x80u},
 513:.\Generated_Source\PSoC4/cyfitter_cfg.c **** 			{0x0Cu, 0x20u},
 514:.\Generated_Source\PSoC4/cyfitter_cfg.c **** 			{0x0Du, 0x80u},
 515:.\Generated_Source\PSoC4/cyfitter_cfg.c **** 			{0x0Eu, 0x20u},
 516:.\Generated_Source\PSoC4/cyfitter_cfg.c **** 			{0x12u, 0x60u},
ARM GAS  C:\Users\Petro\AppData\Local\Temp\ccSZcWJH.s 			page 17


 517:.\Generated_Source\PSoC4/cyfitter_cfg.c **** 			{0x14u, 0x10u},
 518:.\Generated_Source\PSoC4/cyfitter_cfg.c **** 			{0x15u, 0x11u},
 519:.\Generated_Source\PSoC4/cyfitter_cfg.c **** 			{0x16u, 0x01u},
 520:.\Generated_Source\PSoC4/cyfitter_cfg.c **** 			{0x19u, 0x02u},
 521:.\Generated_Source\PSoC4/cyfitter_cfg.c **** 			{0x1Au, 0x08u},
 522:.\Generated_Source\PSoC4/cyfitter_cfg.c **** 			{0x1Bu, 0x22u},
 523:.\Generated_Source\PSoC4/cyfitter_cfg.c **** 			{0x1Cu, 0x40u},
 524:.\Generated_Source\PSoC4/cyfitter_cfg.c **** 			{0x1Du, 0x14u},
 525:.\Generated_Source\PSoC4/cyfitter_cfg.c **** 			{0x1Eu, 0x08u},
 526:.\Generated_Source\PSoC4/cyfitter_cfg.c **** 			{0x1Fu, 0x10u},
 527:.\Generated_Source\PSoC4/cyfitter_cfg.c **** 			{0x21u, 0xA4u},
 528:.\Generated_Source\PSoC4/cyfitter_cfg.c **** 			{0x22u, 0x20u},
 529:.\Generated_Source\PSoC4/cyfitter_cfg.c **** 			{0x26u, 0x98u},
 530:.\Generated_Source\PSoC4/cyfitter_cfg.c **** 			{0x27u, 0x40u},
 531:.\Generated_Source\PSoC4/cyfitter_cfg.c **** 			{0x28u, 0x10u},
 532:.\Generated_Source\PSoC4/cyfitter_cfg.c **** 			{0x29u, 0x01u},
 533:.\Generated_Source\PSoC4/cyfitter_cfg.c **** 			{0x2Au, 0x02u},
 534:.\Generated_Source\PSoC4/cyfitter_cfg.c **** 			{0x2Bu, 0xA0u},
 535:.\Generated_Source\PSoC4/cyfitter_cfg.c **** 			{0x2Cu, 0x20u},
 536:.\Generated_Source\PSoC4/cyfitter_cfg.c **** 			{0x2Du, 0x10u},
 537:.\Generated_Source\PSoC4/cyfitter_cfg.c **** 			{0x2Eu, 0x40u},
 538:.\Generated_Source\PSoC4/cyfitter_cfg.c **** 			{0x31u, 0xA4u},
 539:.\Generated_Source\PSoC4/cyfitter_cfg.c **** 			{0x33u, 0x04u},
 540:.\Generated_Source\PSoC4/cyfitter_cfg.c **** 			{0x36u, 0x14u},
 541:.\Generated_Source\PSoC4/cyfitter_cfg.c **** 			{0x3Bu, 0x80u},
 542:.\Generated_Source\PSoC4/cyfitter_cfg.c **** 			{0x3Fu, 0x01u},
 543:.\Generated_Source\PSoC4/cyfitter_cfg.c **** 			{0x41u, 0x04u},
 544:.\Generated_Source\PSoC4/cyfitter_cfg.c **** 			{0x46u, 0x02u},
 545:.\Generated_Source\PSoC4/cyfitter_cfg.c **** 			{0x47u, 0x04u},
 546:.\Generated_Source\PSoC4/cyfitter_cfg.c **** 			{0x49u, 0x01u},
 547:.\Generated_Source\PSoC4/cyfitter_cfg.c **** 			{0x4Eu, 0x04u},
 548:.\Generated_Source\PSoC4/cyfitter_cfg.c **** 			{0x53u, 0x40u},
 549:.\Generated_Source\PSoC4/cyfitter_cfg.c **** 			{0x54u, 0x01u},
 550:.\Generated_Source\PSoC4/cyfitter_cfg.c **** 			{0x56u, 0x45u},
 551:.\Generated_Source\PSoC4/cyfitter_cfg.c **** 			{0x57u, 0x08u},
 552:.\Generated_Source\PSoC4/cyfitter_cfg.c **** 			{0x5Cu, 0x62u},
 553:.\Generated_Source\PSoC4/cyfitter_cfg.c **** 			{0x5Fu, 0x08u},
 554:.\Generated_Source\PSoC4/cyfitter_cfg.c **** 			{0x80u, 0x40u},
 555:.\Generated_Source\PSoC4/cyfitter_cfg.c **** 			{0x82u, 0x80u},
 556:.\Generated_Source\PSoC4/cyfitter_cfg.c **** 			{0x83u, 0x01u},
 557:.\Generated_Source\PSoC4/cyfitter_cfg.c **** 			{0x84u, 0x21u},
 558:.\Generated_Source\PSoC4/cyfitter_cfg.c **** 			{0x88u, 0x02u},
 559:.\Generated_Source\PSoC4/cyfitter_cfg.c **** 			{0x89u, 0x21u},
 560:.\Generated_Source\PSoC4/cyfitter_cfg.c **** 			{0x8Bu, 0x08u},
 561:.\Generated_Source\PSoC4/cyfitter_cfg.c **** 			{0x91u, 0x10u},
 562:.\Generated_Source\PSoC4/cyfitter_cfg.c **** 			{0x92u, 0x40u},
 563:.\Generated_Source\PSoC4/cyfitter_cfg.c **** 			{0x94u, 0x80u},
 564:.\Generated_Source\PSoC4/cyfitter_cfg.c **** 			{0x97u, 0x21u},
 565:.\Generated_Source\PSoC4/cyfitter_cfg.c **** 			{0x9Bu, 0x08u},
 566:.\Generated_Source\PSoC4/cyfitter_cfg.c **** 			{0x9Du, 0x02u},
 567:.\Generated_Source\PSoC4/cyfitter_cfg.c **** 			{0x9Eu, 0x04u},
 568:.\Generated_Source\PSoC4/cyfitter_cfg.c **** 			{0x9Fu, 0x40u},
 569:.\Generated_Source\PSoC4/cyfitter_cfg.c **** 			{0xA0u, 0x20u},
 570:.\Generated_Source\PSoC4/cyfitter_cfg.c **** 			{0xA6u, 0x98u},
 571:.\Generated_Source\PSoC4/cyfitter_cfg.c **** 			{0xAAu, 0x40u},
 572:.\Generated_Source\PSoC4/cyfitter_cfg.c **** 			{0xC0u, 0xFBu},
 573:.\Generated_Source\PSoC4/cyfitter_cfg.c **** 			{0xC2u, 0xEBu},
ARM GAS  C:\Users\Petro\AppData\Local\Temp\ccSZcWJH.s 			page 18


 574:.\Generated_Source\PSoC4/cyfitter_cfg.c **** 			{0xC4u, 0xFCu},
 575:.\Generated_Source\PSoC4/cyfitter_cfg.c **** 			{0xCAu, 0x73u},
 576:.\Generated_Source\PSoC4/cyfitter_cfg.c **** 			{0xCCu, 0x6Eu},
 577:.\Generated_Source\PSoC4/cyfitter_cfg.c **** 			{0xCEu, 0x88u},
 578:.\Generated_Source\PSoC4/cyfitter_cfg.c **** 			{0xD0u, 0x52u},
 579:.\Generated_Source\PSoC4/cyfitter_cfg.c **** 			{0xD2u, 0x20u},
 580:.\Generated_Source\PSoC4/cyfitter_cfg.c **** 			{0xD6u, 0xF0u},
 581:.\Generated_Source\PSoC4/cyfitter_cfg.c **** 			{0xEEu, 0x08u},
 582:.\Generated_Source\PSoC4/cyfitter_cfg.c **** 			{0x87u, 0x02u},
 583:.\Generated_Source\PSoC4/cyfitter_cfg.c **** 			{0xE6u, 0x40u},
 584:.\Generated_Source\PSoC4/cyfitter_cfg.c **** 			{0x03u, 0x80u},
 585:.\Generated_Source\PSoC4/cyfitter_cfg.c **** 			{0x0Au, 0x10u},
 586:.\Generated_Source\PSoC4/cyfitter_cfg.c **** 			{0x62u, 0x20u},
 587:.\Generated_Source\PSoC4/cyfitter_cfg.c **** 			{0x6Fu, 0xA0u},
 588:.\Generated_Source\PSoC4/cyfitter_cfg.c **** 			{0x73u, 0x02u},
 589:.\Generated_Source\PSoC4/cyfitter_cfg.c **** 			{0x82u, 0x10u},
 590:.\Generated_Source\PSoC4/cyfitter_cfg.c **** 			{0x9Bu, 0x02u},
 591:.\Generated_Source\PSoC4/cyfitter_cfg.c **** 			{0xA2u, 0x20u},
 592:.\Generated_Source\PSoC4/cyfitter_cfg.c **** 			{0xA3u, 0x20u},
 593:.\Generated_Source\PSoC4/cyfitter_cfg.c **** 			{0xAAu, 0x20u},
 594:.\Generated_Source\PSoC4/cyfitter_cfg.c **** 			{0xAFu, 0x20u},
 595:.\Generated_Source\PSoC4/cyfitter_cfg.c **** 			{0xC0u, 0x10u},
 596:.\Generated_Source\PSoC4/cyfitter_cfg.c **** 			{0xC2u, 0x10u},
 597:.\Generated_Source\PSoC4/cyfitter_cfg.c **** 			{0xD8u, 0x40u},
 598:.\Generated_Source\PSoC4/cyfitter_cfg.c **** 			{0xDAu, 0x80u},
 599:.\Generated_Source\PSoC4/cyfitter_cfg.c **** 			{0xDCu, 0x60u},
 600:.\Generated_Source\PSoC4/cyfitter_cfg.c **** 			{0xE0u, 0x80u},
 601:.\Generated_Source\PSoC4/cyfitter_cfg.c **** 			{0xEEu, 0x90u},
 602:.\Generated_Source\PSoC4/cyfitter_cfg.c **** 			{0x0Fu, 0x02u},
 603:.\Generated_Source\PSoC4/cyfitter_cfg.c **** 			{0xC2u, 0x01u},
 604:.\Generated_Source\PSoC4/cyfitter_cfg.c **** 			{0xAFu, 0x01u},
 605:.\Generated_Source\PSoC4/cyfitter_cfg.c **** 			{0x10u, 0x01u},
 606:.\Generated_Source\PSoC4/cyfitter_cfg.c **** 			{0x11u, 0x01u},
 607:.\Generated_Source\PSoC4/cyfitter_cfg.c **** 		};
 608:.\Generated_Source\PSoC4/cyfitter_cfg.c **** 
 609:.\Generated_Source\PSoC4/cyfitter_cfg.c **** 
 610:.\Generated_Source\PSoC4/cyfitter_cfg.c **** 
 611:.\Generated_Source\PSoC4/cyfitter_cfg.c **** 		CYPACKED typedef struct {
 612:.\Generated_Source\PSoC4/cyfitter_cfg.c **** 			void CYFAR *address;
 613:.\Generated_Source\PSoC4/cyfitter_cfg.c **** 			uint16 size;
 614:.\Generated_Source\PSoC4/cyfitter_cfg.c **** 		} CYPACKED_ATTR cfg_memset_t;
 615:.\Generated_Source\PSoC4/cyfitter_cfg.c **** 
 616:.\Generated_Source\PSoC4/cyfitter_cfg.c **** 
 617:.\Generated_Source\PSoC4/cyfitter_cfg.c **** 		CYPACKED typedef struct {
 618:.\Generated_Source\PSoC4/cyfitter_cfg.c **** 			void CYFAR *dest;
 619:.\Generated_Source\PSoC4/cyfitter_cfg.c **** 			const void CYCODE *src;
 620:.\Generated_Source\PSoC4/cyfitter_cfg.c **** 			uint16 size;
 621:.\Generated_Source\PSoC4/cyfitter_cfg.c **** 		} CYPACKED_ATTR cfg_memcpy_t;
 622:.\Generated_Source\PSoC4/cyfitter_cfg.c **** 
 623:.\Generated_Source\PSoC4/cyfitter_cfg.c **** 		static const cfg_memset_t CYCODE cfg_memset_list [] = {
 624:.\Generated_Source\PSoC4/cyfitter_cfg.c **** 			/* address, size */
 625:.\Generated_Source\PSoC4/cyfitter_cfg.c **** 			{(void CYFAR *)(CYDEV_UDB_P0_U0_BASE), 128u},
 626:.\Generated_Source\PSoC4/cyfitter_cfg.c **** 			{(void CYFAR *)(CYDEV_UDB_P0_ROUTE_BASE), 768u},
 627:.\Generated_Source\PSoC4/cyfitter_cfg.c **** 			{(void CYFAR *)(CYDEV_UDB_DSI0_BASE), 1024u},
 628:.\Generated_Source\PSoC4/cyfitter_cfg.c **** 		};
 629:.\Generated_Source\PSoC4/cyfitter_cfg.c **** 
 630:.\Generated_Source\PSoC4/cyfitter_cfg.c **** 		/* UDB_0_1_1_CONFIG Address: CYDEV_UDB_P0_U1_BASE Size (bytes): 128 */
ARM GAS  C:\Users\Petro\AppData\Local\Temp\ccSZcWJH.s 			page 19


 631:.\Generated_Source\PSoC4/cyfitter_cfg.c **** 		static const uint8 CYCODE BS_UDB_0_1_1_CONFIG_VAL[] = {
 632:.\Generated_Source\PSoC4/cyfitter_cfg.c **** 			0x4Fu, 0x24u, 0x30u, 0x00u, 0x03u, 0xFFu, 0x00u, 0x00u, 0x73u, 0x00u, 0x0Cu, 0x63u, 0x01u, 0x1Cu
 633:.\Generated_Source\PSoC4/cyfitter_cfg.c **** 			0x00u, 0x10u, 0x00u, 0x00u, 0x00u, 0x08u, 0x33u, 0x00u, 0x7Fu, 0x18u, 0x00u, 0x00u, 0x5Cu, 0x00u
 634:.\Generated_Source\PSoC4/cyfitter_cfg.c **** 			0x08u, 0x40u, 0x00u, 0x00u, 0x04u, 0x60u, 0x00u, 0x00u, 0x0Cu, 0xE7u, 0x00u, 0x18u, 0x02u, 0x1Cu
 635:.\Generated_Source\PSoC4/cyfitter_cfg.c **** 			0x2Cu, 0x1Fu, 0x40u, 0x60u, 0x0Fu, 0x00u, 0x1Cu, 0x80u, 0x00u, 0x80u, 0x22u, 0x22u, 0x00u, 0x00u
 636:.\Generated_Source\PSoC4/cyfitter_cfg.c **** 			0x36u, 0x02u, 0x04u, 0x00u, 0x01u, 0x00u, 0xE0u, 0xC0u, 0x28u, 0xFFu, 0xFFu, 0xFFu, 0x62u, 0xA0u
 637:.\Generated_Source\PSoC4/cyfitter_cfg.c **** 			0x0Cu, 0x00u, 0x00u, 0x00u, 0x00u, 0x00u, 0x02u, 0x11u, 0x04u, 0x04u, 0x04u, 0x04u, 0x00u, 0x00u
 638:.\Generated_Source\PSoC4/cyfitter_cfg.c **** 			0x00u, 0x00u, 0x00u, 0x00u, 0x00u, 0x00u, 0x40u, 0x02u, 0x00u, 0x10u, 0x30u, 0x10u, 0x00u, 0x10u
 639:.\Generated_Source\PSoC4/cyfitter_cfg.c **** 			0x00u, 0x00u, 0x00u, 0x00u, 0x00u, 0x00u, 0x00u, 0x00u, 0x00u, 0x00u, 0x00u, 0x00u, 0x00u, 0x00u
 640:.\Generated_Source\PSoC4/cyfitter_cfg.c **** 
 641:.\Generated_Source\PSoC4/cyfitter_cfg.c **** 		static const cfg_memcpy_t CYCODE cfg_memcpy_list [] = {
 642:.\Generated_Source\PSoC4/cyfitter_cfg.c **** 			/* dest, src, size */
 643:.\Generated_Source\PSoC4/cyfitter_cfg.c **** 			{(void CYFAR *)(CYDEV_UDB_P0_U1_BASE), BS_UDB_0_1_1_CONFIG_VAL, 128u},
 644:.\Generated_Source\PSoC4/cyfitter_cfg.c **** 		};
 645:.\Generated_Source\PSoC4/cyfitter_cfg.c **** 
 646:.\Generated_Source\PSoC4/cyfitter_cfg.c **** 		uint8 CYDATA i;
 647:.\Generated_Source\PSoC4/cyfitter_cfg.c **** 
 648:.\Generated_Source\PSoC4/cyfitter_cfg.c **** 		/* Zero out critical memory blocks before beginning configuration */
 649:.\Generated_Source\PSoC4/cyfitter_cfg.c **** 		for (i = 0u; i < (sizeof(cfg_memset_list)/sizeof(cfg_memset_list[0])); i++)
 360              		.loc 1 649 0
 361 0118 0024     		mov	r4, #0
 362 011a 10E0     		b	.L15
 363              	.LVL26:
 364              	.L16:
 365              	.LBB4:
 650:.\Generated_Source\PSoC4/cyfitter_cfg.c **** 		{
 651:.\Generated_Source\PSoC4/cyfitter_cfg.c **** 			const cfg_memset_t CYCODE * CYDATA ms = &cfg_memset_list[i];
 652:.\Generated_Source\PSoC4/cyfitter_cfg.c **** 			CYMEMZERO(ms->address, (size_t)(uint32)(ms->size));
 366              		.loc 1 652 0 discriminator 3
 367 011c 4248     		ldr	r0, .L19+8
 368 011e 6300     		lsl	r3, r4, #1
 369 0120 1A19     		add	r2, r3, r4
 370 0122 5200     		lsl	r2, r2, #1
 371 0124 8218     		add	r2, r0, r2
 372 0126 9188     		ldrh	r1, [r2, #4]
 373 0128 1B19     		add	r3, r3, r4
 374 012a 5B00     		lsl	r3, r3, #1
 375 012c 1A5A     		ldrh	r2, [r3, r0]
 376 012e C318     		add	r3, r0, r3
 377 0130 5888     		ldrh	r0, [r3, #2]
 378 0132 0004     		lsl	r0, r0, #16
 379 0134 1043     		orr	r0, r2
 380 0136 FFF7FEFF 		bl	CYMEMZERO
 381              	.LVL27:
 382              	.LBE4:
 649:.\Generated_Source\PSoC4/cyfitter_cfg.c **** 		{
 383              		.loc 1 649 0 discriminator 3
 384 013a 0134     		add	r4, r4, #1
 385              	.LVL28:
 386 013c E4B2     		uxtb	r4, r4
 387              	.LVL29:
 388              	.L15:
 649:.\Generated_Source\PSoC4/cyfitter_cfg.c **** 		{
 389              		.loc 1 649 0 is_stmt 0 discriminator 1
 390 013e 022C     		cmp	r4, #2
 391 0140 ECD9     		bls	.L16
 392 0142 0024     		mov	r4, #0
ARM GAS  C:\Users\Petro\AppData\Local\Temp\ccSZcWJH.s 			page 20


 393              	.LVL30:
 394 0144 12E0     		b	.L17
 395              	.LVL31:
 396              	.L18:
 397              	.LBB5:
 653:.\Generated_Source\PSoC4/cyfitter_cfg.c **** 		}
 654:.\Generated_Source\PSoC4/cyfitter_cfg.c **** 
 655:.\Generated_Source\PSoC4/cyfitter_cfg.c **** 		/* Copy device configuration data into registers */
 656:.\Generated_Source\PSoC4/cyfitter_cfg.c **** 		for (i = 0u; i < (sizeof(cfg_memcpy_list)/sizeof(cfg_memcpy_list[0])); i++)
 657:.\Generated_Source\PSoC4/cyfitter_cfg.c **** 		{
 658:.\Generated_Source\PSoC4/cyfitter_cfg.c **** 			const cfg_memcpy_t CYCODE * CYDATA mc = &cfg_memcpy_list[i];
 659:.\Generated_Source\PSoC4/cyfitter_cfg.c **** 			void * CYDATA destPtr = mc->dest;
 398              		.loc 1 659 0 is_stmt 1 discriminator 3
 399 0146 384D     		ldr	r5, .L19+8
 400 0148 A300     		lsl	r3, r4, #2
 401 014a 1A19     		add	r2, r3, r4
 402 014c 5200     		lsl	r2, r2, #1
 403 014e AA18     		add	r2, r5, r2
 404 0150 918A     		ldrh	r1, [r2, #20]
 405 0152 D08A     		ldrh	r0, [r2, #22]
 406 0154 0004     		lsl	r0, r0, #16
 407 0156 0843     		orr	r0, r1
 408              	.LVL32:
 660:.\Generated_Source\PSoC4/cyfitter_cfg.c **** 			const void CYCODE * CYDATA srcPtr = mc->src;
 409              		.loc 1 660 0 discriminator 3
 410 0158 131C     		mov	r3, r2
 411 015a 128B     		ldrh	r2, [r2, #24]
 412 015c 598B     		ldrh	r1, [r3, #26]
 413 015e 0904     		lsl	r1, r1, #16
 414 0160 1143     		orr	r1, r2
 415              	.LVL33:
 661:.\Generated_Source\PSoC4/cyfitter_cfg.c **** 			uint16 CYDATA numBytes = mc->size;
 662:.\Generated_Source\PSoC4/cyfitter_cfg.c **** 			CYCONFIGCPYCODE(destPtr, srcPtr, numBytes);
 416              		.loc 1 662 0 discriminator 3
 417 0162 8022     		mov	r2, #128
 418 0164 FFF7FEFF 		bl	CYCONFIGCPYCODE
 419              	.LVL34:
 420              	.LBE5:
 656:.\Generated_Source\PSoC4/cyfitter_cfg.c **** 		{
 421              		.loc 1 656 0 discriminator 3
 422 0168 0134     		add	r4, r4, #1
 423              	.LVL35:
 424 016a E4B2     		uxtb	r4, r4
 425              	.LVL36:
 426              	.L17:
 656:.\Generated_Source\PSoC4/cyfitter_cfg.c **** 		{
 427              		.loc 1 656 0 is_stmt 0 discriminator 1
 428 016c 002C     		cmp	r4, #0
 429 016e EAD0     		beq	.L18
 663:.\Generated_Source\PSoC4/cyfitter_cfg.c **** 		}
 664:.\Generated_Source\PSoC4/cyfitter_cfg.c **** 
 665:.\Generated_Source\PSoC4/cyfitter_cfg.c **** 		cfg_write_bytes32(cy_cfg_addr_table, cy_cfg_data_table);
 430              		.loc 1 665 0 is_stmt 1
 431 0170 2D49     		ldr	r1, .L19+8
 432 0172 081C     		mov	r0, r1
 433 0174 2030     		add	r0, r0, #32
 434 0176 4831     		add	r1, r1, #72
ARM GAS  C:\Users\Petro\AppData\Local\Temp\ccSZcWJH.s 			page 21


 435 0178 FFF7FEFF 		bl	cfg_write_bytes32
 436              	.LVL37:
 666:.\Generated_Source\PSoC4/cyfitter_cfg.c **** 
 667:.\Generated_Source\PSoC4/cyfitter_cfg.c **** 		/* Perform normal device configuration. Order is not critical for these items. */
 668:.\Generated_Source\PSoC4/cyfitter_cfg.c **** 		CY_SET_XTND_REG16((void CYFAR *)(CYREG_UDB_BCTL0_DRV), 0x0100u);
 437              		.loc 1 668 0
 438 017c 8022     		mov	r2, #128
 439 017e 5200     		lsl	r2, r2, #1
 440 0180 2A4B     		ldr	r3, .L19+12
 441 0182 1A80     		strh	r2, [r3]
 669:.\Generated_Source\PSoC4/cyfitter_cfg.c **** 		CY_SET_XTND_REG8((void CYFAR *)(CYREG_UDB_BCTL0_DRV + 0x2u), 0x01u);
 442              		.loc 1 669 0
 443 0184 FF3A     		sub	r2, r2, #255
 444 0186 2A4B     		ldr	r3, .L19+16
 445 0188 1A70     		strb	r2, [r3]
 670:.\Generated_Source\PSoC4/cyfitter_cfg.c **** 
 671:.\Generated_Source\PSoC4/cyfitter_cfg.c **** 		/* HSIOM Starting address: CYDEV_HSIOM_BASE */
 672:.\Generated_Source\PSoC4/cyfitter_cfg.c **** 		CY_SET_XTND_REG32((void CYFAR *)(CYDEV_HSIOM_BASE), 0xEE000000u);
 446              		.loc 1 672 0
 447 018a EE22     		mov	r2, #238
 448 018c 1206     		lsl	r2, r2, #24
 449 018e 294B     		ldr	r3, .L19+20
 450 0190 1A60     		str	r2, [r3]
 673:.\Generated_Source\PSoC4/cyfitter_cfg.c **** 		CY_SET_XTND_REG32((void CYFAR *)(CYREG_HSIOM_PORT_SEL1), 0x00300000u);
 451              		.loc 1 673 0
 452 0192 C022     		mov	r2, #192
 453 0194 9203     		lsl	r2, r2, #14
 454 0196 284B     		ldr	r3, .L19+24
 455 0198 1A60     		str	r2, [r3]
 674:.\Generated_Source\PSoC4/cyfitter_cfg.c **** 
 675:.\Generated_Source\PSoC4/cyfitter_cfg.c **** 		/* UDB_PA_0 Starting address: CYDEV_UDB_PA0_BASE */
 676:.\Generated_Source\PSoC4/cyfitter_cfg.c **** 		CY_SET_XTND_REG32((void CYFAR *)(CYDEV_UDB_PA0_BASE), 0x00990000u);
 456              		.loc 1 676 0
 457 019a 9923     		mov	r3, #153
 458 019c 1B04     		lsl	r3, r3, #16
 459 019e 274A     		ldr	r2, .L19+28
 460 01a0 1360     		str	r3, [r2]
 677:.\Generated_Source\PSoC4/cyfitter_cfg.c **** 
 678:.\Generated_Source\PSoC4/cyfitter_cfg.c **** 		/* UDB_PA_1 Starting address: CYDEV_UDB_PA1_BASE */
 679:.\Generated_Source\PSoC4/cyfitter_cfg.c **** 		CY_SET_XTND_REG32((void CYFAR *)(CYDEV_UDB_PA1_BASE), 0x00990004u);
 461              		.loc 1 679 0
 462 01a2 2749     		ldr	r1, .L19+32
 463 01a4 274A     		ldr	r2, .L19+36
 464 01a6 1160     		str	r1, [r2]
 680:.\Generated_Source\PSoC4/cyfitter_cfg.c **** 		CY_SET_XTND_REG32((void CYFAR *)(CYREG_UDB_PA1_CFG4), 0x02000000u);
 465              		.loc 1 680 0
 466 01a8 8021     		mov	r1, #128
 467 01aa 8904     		lsl	r1, r1, #18
 468 01ac 264A     		ldr	r2, .L19+40
 469 01ae 1160     		str	r1, [r2]
 681:.\Generated_Source\PSoC4/cyfitter_cfg.c **** 		CY_SET_XTND_REG32((void CYFAR *)(CYREG_UDB_PA1_CFG8), 0x08000000u);
 470              		.loc 1 681 0
 471 01b0 8021     		mov	r1, #128
 472 01b2 0905     		lsl	r1, r1, #20
 473 01b4 254A     		ldr	r2, .L19+44
 474 01b6 1160     		str	r1, [r2]
 682:.\Generated_Source\PSoC4/cyfitter_cfg.c **** 
ARM GAS  C:\Users\Petro\AppData\Local\Temp\ccSZcWJH.s 			page 22


 683:.\Generated_Source\PSoC4/cyfitter_cfg.c **** 		/* UDB_PA_2 Starting address: CYDEV_UDB_PA2_BASE */
 684:.\Generated_Source\PSoC4/cyfitter_cfg.c **** 		CY_SET_XTND_REG32((void CYFAR *)(CYDEV_UDB_PA2_BASE), 0x00990000u);
 475              		.loc 1 684 0
 476 01b8 254A     		ldr	r2, .L19+48
 477 01ba 1360     		str	r3, [r2]
 685:.\Generated_Source\PSoC4/cyfitter_cfg.c **** 
 686:.\Generated_Source\PSoC4/cyfitter_cfg.c **** 		/* UDB_PA_3 Starting address: CYDEV_UDB_PA3_BASE */
 687:.\Generated_Source\PSoC4/cyfitter_cfg.c **** 		CY_SET_XTND_REG32((void CYFAR *)(CYDEV_UDB_PA3_BASE), 0x00990000u);
 478              		.loc 1 687 0
 479 01bc 254A     		ldr	r2, .L19+52
 480 01be 1360     		str	r3, [r2]
 688:.\Generated_Source\PSoC4/cyfitter_cfg.c **** 
 689:.\Generated_Source\PSoC4/cyfitter_cfg.c **** 		/* INT_SELECT Starting address: CYDEV_CPUSS_INT_SEL */
 690:.\Generated_Source\PSoC4/cyfitter_cfg.c **** 		CY_SET_XTND_REG32((void CYFAR *)(CYREG_CPUSS_INT_SEL), 0x0000000Eu);
 481              		.loc 1 690 0
 482 01c0 0E23     		mov	r3, #14
 483 01c2 254A     		ldr	r2, .L19+56
 484 01c4 1360     		str	r3, [r2]
 691:.\Generated_Source\PSoC4/cyfitter_cfg.c **** 
 692:.\Generated_Source\PSoC4/cyfitter_cfg.c **** 		/* INT_CONFIG Starting address: CYDEV_UDB_INT_CFG */
 693:.\Generated_Source\PSoC4/cyfitter_cfg.c **** 		CY_SET_XTND_REG32((void CYFAR *)(CYREG_UDB_INT_CFG), 0x0000000Eu);
 485              		.loc 1 693 0
 486 01c6 254A     		ldr	r2, .L19+60
 487 01c8 1360     		str	r3, [r2]
 694:.\Generated_Source\PSoC4/cyfitter_cfg.c **** 
 695:.\Generated_Source\PSoC4/cyfitter_cfg.c **** 		/* Enable digital routing */
 696:.\Generated_Source\PSoC4/cyfitter_cfg.c **** 		CY_SET_XTND_REG8((void *)CYREG_UDB_UDBIF_BANK_CTL, CY_GET_XTND_REG8((void *)CYREG_UDB_UDBIF_BANK_
 488              		.loc 1 696 0
 489 01ca 254B     		ldr	r3, .L19+64
 490 01cc 1978     		ldrb	r1, [r3]
 491 01ce 0222     		mov	r2, #2
 492 01d0 0A43     		orr	r2, r1
 493 01d2 1A70     		strb	r2, [r3]
 697:.\Generated_Source\PSoC4/cyfitter_cfg.c **** 
 698:.\Generated_Source\PSoC4/cyfitter_cfg.c **** 		/* Enable UDB array */
 699:.\Generated_Source\PSoC4/cyfitter_cfg.c **** 		CY_SET_XTND_REG8((void *)CYREG_UDB_UDBIF_WAIT_CFG, (uint8)((CY_GET_XTND_REG8((void *)CYREG_UDB_UD
 494              		.loc 1 699 0
 495 01d4 2348     		ldr	r0, .L19+68
 496 01d6 0278     		ldrb	r2, [r0]
 497 01d8 3C21     		mov	r1, #60
 498 01da 8A43     		bic	r2, r1
 499 01dc 2839     		sub	r1, r1, #40
 500 01de 0A43     		orr	r2, r1
 501 01e0 0270     		strb	r2, [r0]
 700:.\Generated_Source\PSoC4/cyfitter_cfg.c **** 		CY_SET_XTND_REG8((void *)CYREG_UDB_UDBIF_BANK_CTL, (uint8)(CY_GET_XTND_REG8((void *)CYREG_UDB_UDB
 502              		.loc 1 700 0
 503 01e2 1978     		ldrb	r1, [r3]
 504 01e4 1622     		mov	r2, #22
 505 01e6 0A43     		orr	r2, r1
 506 01e8 1A70     		strb	r2, [r3]
 507              	.LBE3:
 701:.\Generated_Source\PSoC4/cyfitter_cfg.c **** 	}
 702:.\Generated_Source\PSoC4/cyfitter_cfg.c **** 
 703:.\Generated_Source\PSoC4/cyfitter_cfg.c **** 	/* Perform second pass device configuration. These items must be configured in specific order afte
 704:.\Generated_Source\PSoC4/cyfitter_cfg.c **** 	/* IOPINS0_0 Starting address: CYDEV_GPIO_PRT0_BASE */
 705:.\Generated_Source\PSoC4/cyfitter_cfg.c **** 	CY_SET_XTND_REG32((void CYFAR *)(CYREG_GPIO_PRT0_PC), 0x00D80000u);
 508              		.loc 1 705 0
ARM GAS  C:\Users\Petro\AppData\Local\Temp\ccSZcWJH.s 			page 23


 509 01ea D822     		mov	r2, #216
 510 01ec 1204     		lsl	r2, r2, #16
 511 01ee 1E4B     		ldr	r3, .L19+72
 512 01f0 1A60     		str	r2, [r3]
 706:.\Generated_Source\PSoC4/cyfitter_cfg.c **** 
 707:.\Generated_Source\PSoC4/cyfitter_cfg.c **** 	/* IOPINS0_1 Starting address: CYDEV_GPIO_PRT1_BASE */
 708:.\Generated_Source\PSoC4/cyfitter_cfg.c **** 	CY_SET_XTND_REG32((void CYFAR *)(CYDEV_GPIO_PRT1_BASE), 0x00000020u);
 513              		.loc 1 708 0
 514 01f2 2022     		mov	r2, #32
 515 01f4 1D4B     		ldr	r3, .L19+76
 516 01f6 1A60     		str	r2, [r3]
 709:.\Generated_Source\PSoC4/cyfitter_cfg.c **** 	CY_SET_XTND_REG32((void CYFAR *)(CYREG_GPIO_PRT1_PC), 0x00031003u);
 517              		.loc 1 709 0
 518 01f8 1D4A     		ldr	r2, .L19+80
 519 01fa 1E4B     		ldr	r3, .L19+84
 520 01fc 1A60     		str	r2, [r3]
 710:.\Generated_Source\PSoC4/cyfitter_cfg.c **** 
 711:.\Generated_Source\PSoC4/cyfitter_cfg.c **** 	/* IOPINS0_2 Starting address: CYDEV_GPIO_PRT2_BASE */
 712:.\Generated_Source\PSoC4/cyfitter_cfg.c **** 	CY_SET_XTND_REG32((void CYFAR *)(CYDEV_GPIO_PRT2_BASE), 0x000000C0u);
 521              		.loc 1 712 0
 522 01fe C022     		mov	r2, #192
 523 0200 1D4B     		ldr	r3, .L19+88
 524 0202 1A60     		str	r2, [r3]
 713:.\Generated_Source\PSoC4/cyfitter_cfg.c **** 	CY_SET_XTND_REG32((void CYFAR *)(CYREG_GPIO_PRT2_PC), 0x00480000u);
 525              		.loc 1 713 0
 526 0204 9023     		mov	r3, #144
 527 0206 DB03     		lsl	r3, r3, #15
 528 0208 1C49     		ldr	r1, .L19+92
 529 020a 0B60     		str	r3, [r1]
 714:.\Generated_Source\PSoC4/cyfitter_cfg.c **** 
 715:.\Generated_Source\PSoC4/cyfitter_cfg.c **** 	/* IOPINS0_3 Starting address: CYDEV_GPIO_PRT3_BASE */
 716:.\Generated_Source\PSoC4/cyfitter_cfg.c **** 	CY_SET_XTND_REG32((void CYFAR *)(CYDEV_GPIO_PRT3_BASE), 0x000000C0u);
 530              		.loc 1 716 0
 531 020c 1C49     		ldr	r1, .L19+96
 532 020e 0A60     		str	r2, [r1]
 717:.\Generated_Source\PSoC4/cyfitter_cfg.c **** 	CY_SET_XTND_REG32((void CYFAR *)(CYREG_GPIO_PRT3_PC), 0x00480000u);
 533              		.loc 1 717 0
 534 0210 1C4A     		ldr	r2, .L19+100
 535 0212 1360     		str	r3, [r2]
 718:.\Generated_Source\PSoC4/cyfitter_cfg.c **** 
 719:.\Generated_Source\PSoC4/cyfitter_cfg.c **** 
 720:.\Generated_Source\PSoC4/cyfitter_cfg.c **** 	/* Setup clocks based on selections from Clock DWR */
 721:.\Generated_Source\PSoC4/cyfitter_cfg.c **** 	ClockSetup();
 536              		.loc 1 721 0
 537 0214 FFF7F4FE 		bl	ClockSetup
 538              	.LVL38:
 722:.\Generated_Source\PSoC4/cyfitter_cfg.c **** 
 723:.\Generated_Source\PSoC4/cyfitter_cfg.c **** 	/* Perform basic analog initialization to defaults */
 724:.\Generated_Source\PSoC4/cyfitter_cfg.c **** 	AnalogSetDefault();
 539              		.loc 1 724 0
 540 0218 FFF7FEFF 		bl	AnalogSetDefault
 541              	.LVL39:
 725:.\Generated_Source\PSoC4/cyfitter_cfg.c **** 
 726:.\Generated_Source\PSoC4/cyfitter_cfg.c **** }
 542              		.loc 1 726 0
 543              		@ sp needed
 544              	.LVL40:
ARM GAS  C:\Users\Petro\AppData\Local\Temp\ccSZcWJH.s 			page 24


 545 021c 38BD     		pop	{r3, r4, r5, pc}
 546              	.L20:
 547 021e C046     		.align	2
 548              	.L19:
 549 0220 6CF02E40 		.word	1076818028
 550 0224 1C700F40 		.word	1074753564
 551 0228 00000000 		.word	.LANCHOR0
 552 022c 00600F40 		.word	1074749440
 553 0230 02600F40 		.word	1074749442
 554 0234 00000240 		.word	1073872896
 555 0238 00010240 		.word	1073873152
 556 023c 00500F40 		.word	1074745344
 557 0240 04009900 		.word	10027012
 558 0244 10500F40 		.word	1074745360
 559 0248 14500F40 		.word	1074745364
 560 024c 18500F40 		.word	1074745368
 561 0250 20500F40 		.word	1074745376
 562 0254 30500F40 		.word	1074745392
 563 0258 20001040 		.word	1074790432
 564 025c 00800F40 		.word	1074757632
 565 0260 00700F40 		.word	1074753536
 566 0264 01700F40 		.word	1074753537
 567 0268 08000440 		.word	1074003976
 568 026c 00010440 		.word	1074004224
 569 0270 03100300 		.word	200707
 570 0274 08010440 		.word	1074004232
 571 0278 00020440 		.word	1074004480
 572 027c 08020440 		.word	1074004488
 573 0280 00030440 		.word	1074004736
 574 0284 08030440 		.word	1074004744
 575              		.cfi_endproc
 576              	.LFE8:
 577              		.size	cyfitter_cfg, .-cyfitter_cfg
 578              		.section	.rodata
 579              		.align	2
 580              		.set	.LANCHOR0,. + 0
 581              		.type	cfg_memset_list.4770, %object
 582              		.size	cfg_memset_list.4770, 18
 583              	cfg_memset_list.4770:
 584 0000 00300F40 		.word	1074737152
 585 0004 8000     		.short	128
 586 0006 00310F40 		.4byte	1074737408
 587 000a 0003     		.short	768
 588 000c 00400F40 		.word	1074741248
 589 0010 0004     		.short	1024
 590 0012 0000     		.space	2
 591              		.type	cfg_memcpy_list.4772, %object
 592              		.size	cfg_memcpy_list.4772, 10
 593              	cfg_memcpy_list.4772:
 594 0014 80300F40 		.word	1074737280
 595 0018 90020000 		.word	BS_UDB_0_1_1_CONFIG_VAL.4771
 596 001c 8000     		.short	128
 597 001e 0000     		.space	2
 598              		.type	cy_cfg_addr_table.4759, %object
 599              		.size	cy_cfg_addr_table.4759, 40
 600              	cy_cfg_addr_table.4759:
 601 0020 03000F40 		.word	1074724867
ARM GAS  C:\Users\Petro\AppData\Local\Temp\ccSZcWJH.s 			page 25


 602 0024 12300F40 		.word	1074737170
 603 0028 41310F40 		.word	1074737473
 604 002c 6A320F40 		.word	1074737770
 605 0030 4B330F40 		.word	1074737995
 606 0034 02400F40 		.word	1074741250
 607 0038 12410F40 		.word	1074741522
 608 003c 02420F40 		.word	1074741762
 609 0040 01430F40 		.word	1074742017
 610 0044 02600F40 		.word	1074749442
 611              		.type	cy_cfg_data_table.4760, %object
 612              		.size	cy_cfg_data_table.4760, 584
 613              	cy_cfg_data_table.4760:
 614 0048 80       		.byte	-128
 615 0049 38       		.byte	56
 616 004a 81       		.byte	-127
 617 004b 72       		.byte	114
 618 004c 82       		.byte	-126
 619 004d 0F       		.byte	15
 620 004e 00       		.byte	0
 621 004f 04       		.byte	4
 622 0050 0A       		.byte	10
 623 0051 02       		.byte	2
 624 0052 0E       		.byte	14
 625 0053 01       		.byte	1
 626 0054 12       		.byte	18
 627 0055 01       		.byte	1
 628 0056 25       		.byte	37
 629 0057 01       		.byte	1
 630 0058 2E       		.byte	46
 631 0059 02       		.byte	2
 632 005a 30       		.byte	48
 633 005b 04       		.byte	4
 634 005c 34       		.byte	52
 635 005d 02       		.byte	2
 636 005e 35       		.byte	53
 637 005f 01       		.byte	1
 638 0060 36       		.byte	54
 639 0061 01       		.byte	1
 640 0062 3E       		.byte	62
 641 0063 51       		.byte	81
 642 0064 3F       		.byte	63
 643 0065 10       		.byte	16
 644 0066 54       		.byte	84
 645 0067 18       		.byte	24
 646 0068 56       		.byte	86
 647 0069 04       		.byte	4
 648 006a 58       		.byte	88
 649 006b 04       		.byte	4
 650 006c 59       		.byte	89
 651 006d 04       		.byte	4
 652 006e 5B       		.byte	91
 653 006f 04       		.byte	4
 654 0070 5F       		.byte	95
 655 0071 01       		.byte	1
 656 0072 00       		.byte	0
 657 0073 20       		.byte	32
 658 0074 01       		.byte	1
ARM GAS  C:\Users\Petro\AppData\Local\Temp\ccSZcWJH.s 			page 26


 659 0075 02       		.byte	2
 660 0076 03       		.byte	3
 661 0077 02       		.byte	2
 662 0078 04       		.byte	4
 663 0079 80       		.byte	-128
 664 007a 05       		.byte	5
 665 007b 39       		.byte	57
 666 007c 09       		.byte	9
 667 007d 01       		.byte	1
 668 007e 0B       		.byte	11
 669 007f 80       		.byte	-128
 670 0080 0D       		.byte	13
 671 0081 20       		.byte	32
 672 0082 0E       		.byte	14
 673 0083 02       		.byte	2
 674 0084 0F       		.byte	15
 675 0085 20       		.byte	32
 676 0086 11       		.byte	17
 677 0087 80       		.byte	-128
 678 0088 16       		.byte	22
 679 0089 02       		.byte	2
 680 008a 17       		.byte	23
 681 008b 26       		.byte	38
 682 008c 18       		.byte	24
 683 008d 04       		.byte	4
 684 008e 19       		.byte	25
 685 008f 40       		.byte	64
 686 0090 1A       		.byte	26
 687 0091 80       		.byte	-128
 688 0092 1C       		.byte	28
 689 0093 10       		.byte	16
 690 0094 1D       		.byte	29
 691 0095 11       		.byte	17
 692 0096 1F       		.byte	31
 693 0097 41       		.byte	65
 694 0098 23       		.byte	35
 695 0099 08       		.byte	8
 696 009a 24       		.byte	36
 697 009b 40       		.byte	64
 698 009c 25       		.byte	37
 699 009d 68       		.byte	104
 700 009e 26       		.byte	38
 701 009f 01       		.byte	1
 702 00a0 2A       		.byte	42
 703 00a1 04       		.byte	4
 704 00a2 2D       		.byte	45
 705 00a3 28       		.byte	40
 706 00a4 2E       		.byte	46
 707 00a5 02       		.byte	2
 708 00a6 2F       		.byte	47
 709 00a7 11       		.byte	17
 710 00a8 30       		.byte	48
 711 00a9 10       		.byte	16
 712 00aa 31       		.byte	49
 713 00ab 10       		.byte	16
 714 00ac 36       		.byte	54
 715 00ad 80       		.byte	-128
ARM GAS  C:\Users\Petro\AppData\Local\Temp\ccSZcWJH.s 			page 27


 716 00ae 37       		.byte	55
 717 00af 26       		.byte	38
 718 00b0 3C       		.byte	60
 719 00b1 40       		.byte	64
 720 00b2 3E       		.byte	62
 721 00b3 08       		.byte	8
 722 00b4 3F       		.byte	63
 723 00b5 21       		.byte	33
 724 00b6 44       		.byte	68
 725 00b7 10       		.byte	16
 726 00b8 45       		.byte	69
 727 00b9 21       		.byte	33
 728 00ba 46       		.byte	70
 729 00bb 08       		.byte	8
 730 00bc 47       		.byte	71
 731 00bd 40       		.byte	64
 732 00be 4E       		.byte	78
 733 00bf 08       		.byte	8
 734 00c0 4F       		.byte	79
 735 00c1 20       		.byte	32
 736 00c2 54       		.byte	84
 737 00c3 10       		.byte	16
 738 00c4 57       		.byte	87
 739 00c5 02       		.byte	2
 740 00c6 58       		.byte	88
 741 00c7 01       		.byte	1
 742 00c8 5C       		.byte	92
 743 00c9 10       		.byte	16
 744 00ca 60       		.byte	96
 745 00cb 04       		.byte	4
 746 00cc 61       		.byte	97
 747 00cd 40       		.byte	64
 748 00ce 63       		.byte	99
 749 00cf 40       		.byte	64
 750 00d0 6C       		.byte	108
 751 00d1 20       		.byte	32
 752 00d2 6D       		.byte	109
 753 00d3 10       		.byte	16
 754 00d4 6E       		.byte	110
 755 00d5 40       		.byte	64
 756 00d6 77       		.byte	119
 757 00d7 26       		.byte	38
 758 00d8 84       		.byte	-124
 759 00d9 01       		.byte	1
 760 00da 85       		.byte	-123
 761 00db 08       		.byte	8
 762 00dc 87       		.byte	-121
 763 00dd 40       		.byte	64
 764 00de 8A       		.byte	-118
 765 00df 12       		.byte	18
 766 00e0 C0       		.byte	-64
 767 00e1 FB       		.byte	-5
 768 00e2 C2       		.byte	-62
 769 00e3 E8       		.byte	-24
 770 00e4 C4       		.byte	-60
 771 00e5 F1       		.byte	-15
 772 00e6 CA       		.byte	-54
ARM GAS  C:\Users\Petro\AppData\Local\Temp\ccSZcWJH.s 			page 28


 773 00e7 F2       		.byte	-14
 774 00e8 CC       		.byte	-52
 775 00e9 F0       		.byte	-16
 776 00ea CE       		.byte	-50
 777 00eb F0       		.byte	-16
 778 00ec D0       		.byte	-48
 779 00ed F0       		.byte	-16
 780 00ee D2       		.byte	-46
 781 00ef 20       		.byte	32
 782 00f0 D6       		.byte	-42
 783 00f1 21       		.byte	33
 784 00f2 D8       		.byte	-40
 785 00f3 0D       		.byte	13
 786 00f4 00       		.byte	0
 787 00f5 40       		.byte	64
 788 00f6 01       		.byte	1
 789 00f7 01       		.byte	1
 790 00f8 02       		.byte	2
 791 00f9 20       		.byte	32
 792 00fa 03       		.byte	3
 793 00fb 2A       		.byte	42
 794 00fc 04       		.byte	4
 795 00fd 13       		.byte	19
 796 00fe 06       		.byte	6
 797 00ff 0C       		.byte	12
 798 0100 08       		.byte	8
 799 0101 20       		.byte	32
 800 0102 0A       		.byte	10
 801 0103 C0       		.byte	-64
 802 0104 0E       		.byte	14
 803 0105 15       		.byte	21
 804 0106 14       		.byte	20
 805 0107 80       		.byte	-128
 806 0108 16       		.byte	22
 807 0109 20       		.byte	32
 808 010a 17       		.byte	23
 809 010b 04       		.byte	4
 810 010c 18       		.byte	24
 811 010d E0       		.byte	-32
 812 010e 19       		.byte	25
 813 010f 02       		.byte	2
 814 0110 1B       		.byte	27
 815 0111 09       		.byte	9
 816 0112 1E       		.byte	30
 817 0113 08       		.byte	8
 818 0114 20       		.byte	32
 819 0115 0A       		.byte	10
 820 0116 22       		.byte	34
 821 0117 14       		.byte	20
 822 0118 24       		.byte	36
 823 0119 13       		.byte	19
 824 011a 25       		.byte	37
 825 011b 13       		.byte	19
 826 011c 26       		.byte	38
 827 011d 04       		.byte	4
 828 011e 28       		.byte	40
 829 011f E0       		.byte	-32
ARM GAS  C:\Users\Petro\AppData\Local\Temp\ccSZcWJH.s 			page 29


 830 0120 29       		.byte	41
 831 0121 13       		.byte	19
 832 0122 2C       		.byte	44
 833 0123 03       		.byte	3
 834 0124 2D       		.byte	45
 835 0125 10       		.byte	16
 836 0126 2E       		.byte	46
 837 0127 14       		.byte	20
 838 0128 30       		.byte	48
 839 0129 10       		.byte	16
 840 012a 31       		.byte	49
 841 012b 0C       		.byte	12
 842 012c 32       		.byte	50
 843 012d 0F       		.byte	15
 844 012e 33       		.byte	51
 845 012f 10       		.byte	16
 846 0130 34       		.byte	52
 847 0131 E0       		.byte	-32
 848 0132 35       		.byte	53
 849 0133 03       		.byte	3
 850 0134 37       		.byte	55
 851 0135 20       		.byte	32
 852 0136 3A       		.byte	58
 853 0137 08       		.byte	8
 854 0138 3E       		.byte	62
 855 0139 01       		.byte	1
 856 013a 3F       		.byte	63
 857 013b 01       		.byte	1
 858 013c 40       		.byte	64
 859 013d 31       		.byte	49
 860 013e 41       		.byte	65
 861 013f 06       		.byte	6
 862 0140 46       		.byte	70
 863 0141 0B       		.byte	11
 864 0142 47       		.byte	71
 865 0143 CE       		.byte	-50
 866 0144 48       		.byte	72
 867 0145 34       		.byte	52
 868 0146 49       		.byte	73
 869 0147 FF       		.byte	-1
 870 0148 4A       		.byte	74
 871 0149 FF       		.byte	-1
 872 014a 4B       		.byte	75
 873 014b FF       		.byte	-1
 874 014c 4E       		.byte	78
 875 014d F0       		.byte	-16
 876 014e 4F       		.byte	79
 877 014f 44       		.byte	68
 878 0150 50       		.byte	80
 879 0151 0C       		.byte	12
 880 0152 54       		.byte	84
 881 0153 01       		.byte	1
 882 0154 58       		.byte	88
 883 0155 04       		.byte	4
 884 0156 59       		.byte	89
 885 0157 04       		.byte	4
 886 0158 5A       		.byte	90
ARM GAS  C:\Users\Petro\AppData\Local\Temp\ccSZcWJH.s 			page 30


 887 0159 04       		.byte	4
 888 015a 5B       		.byte	91
 889 015b 04       		.byte	4
 890 015c 5F       		.byte	95
 891 015d 01       		.byte	1
 892 015e 66       		.byte	102
 893 015f C0       		.byte	-64
 894 0160 6A       		.byte	106
 895 0161 40       		.byte	64
 896 0162 6B       		.byte	107
 897 0163 02       		.byte	2
 898 0164 82       		.byte	-126
 899 0165 20       		.byte	32
 900 0166 88       		.byte	-120
 901 0167 10       		.byte	16
 902 0168 8A       		.byte	-118
 903 0169 AC       		.byte	-84
 904 016a 8E       		.byte	-114
 905 016b 03       		.byte	3
 906 016c 8F       		.byte	-113
 907 016d 08       		.byte	8
 908 016e 90       		.byte	-112
 909 016f 10       		.byte	16
 910 0170 92       		.byte	-110
 911 0171 40       		.byte	64
 912 0172 95       		.byte	-107
 913 0173 71       		.byte	113
 914 0174 97       		.byte	-105
 915 0175 06       		.byte	6
 916 0176 98       		.byte	-104
 917 0177 0C       		.byte	12
 918 0178 99       		.byte	-103
 919 0179 2C       		.byte	44
 920 017a 9A       		.byte	-102
 921 017b 71       		.byte	113
 922 017c 9B       		.byte	-101
 923 017d 43       		.byte	67
 924 017e 9C       		.byte	-100
 925 017f 09       		.byte	9
 926 0180 9E       		.byte	-98
 927 0181 D0       		.byte	-48
 928 0182 9F       		.byte	-97
 929 0183 0C       		.byte	12
 930 0184 A0       		.byte	-96
 931 0185 14       		.byte	20
 932 0186 A1       		.byte	-95
 933 0187 80       		.byte	-128
 934 0188 A3       		.byte	-93
 935 0189 13       		.byte	19
 936 018a A4       		.byte	-92
 937 018b DC       		.byte	-36
 938 018c A5       		.byte	-91
 939 018d 71       		.byte	113
 940 018e A6       		.byte	-90
 941 018f 22       		.byte	34
 942 0190 A7       		.byte	-89
 943 0191 0E       		.byte	14
ARM GAS  C:\Users\Petro\AppData\Local\Temp\ccSZcWJH.s 			page 31


 944 0192 B0       		.byte	-80
 945 0193 1F       		.byte	31
 946 0194 B3       		.byte	-77
 947 0195 30       		.byte	48
 948 0196 B4       		.byte	-76
 949 0197 E0       		.byte	-32
 950 0198 B5       		.byte	-75
 951 0199 0F       		.byte	15
 952 019a B7       		.byte	-73
 953 019b C0       		.byte	-64
 954 019c B9       		.byte	-71
 955 019d 88       		.byte	-120
 956 019e BA       		.byte	-70
 957 019f 20       		.byte	32
 958 01a0 BB       		.byte	-69
 959 01a1 20       		.byte	32
 960 01a2 BF       		.byte	-65
 961 01a3 04       		.byte	4
 962 01a4 C0       		.byte	-64
 963 01a5 03       		.byte	3
 964 01a6 C6       		.byte	-58
 965 01a7 04       		.byte	4
 966 01a8 C9       		.byte	-55
 967 01a9 FF       		.byte	-1
 968 01aa CA       		.byte	-54
 969 01ab 07       		.byte	7
 970 01ac CB       		.byte	-53
 971 01ad FF       		.byte	-1
 972 01ae CC       		.byte	-52
 973 01af 40       		.byte	64
 974 01b0 CD       		.byte	-51
 975 01b1 20       		.byte	32
 976 01b2 CE       		.byte	-50
 977 01b3 F0       		.byte	-16
 978 01b4 CF       		.byte	-49
 979 01b5 05       		.byte	5
 980 01b6 D0       		.byte	-48
 981 01b7 08       		.byte	8
 982 01b8 D8       		.byte	-40
 983 01b9 04       		.byte	4
 984 01ba D9       		.byte	-39
 985 01bb 04       		.byte	4
 986 01bc DA       		.byte	-38
 987 01bd 04       		.byte	4
 988 01be DF       		.byte	-33
 989 01bf 01       		.byte	1
 990 01c0 E0       		.byte	-32
 991 01c1 40       		.byte	64
 992 01c2 E1       		.byte	-31
 993 01c3 A8       		.byte	-88
 994 01c4 E2       		.byte	-30
 995 01c5 40       		.byte	64
 996 01c6 E3       		.byte	-29
 997 01c7 20       		.byte	32
 998 01c8 03       		.byte	3
 999 01c9 86       		.byte	-122
 1000 01ca 05       		.byte	5
ARM GAS  C:\Users\Petro\AppData\Local\Temp\ccSZcWJH.s 			page 32


 1001 01cb 14       		.byte	20
 1002 01cc 06       		.byte	6
 1003 01cd 82       		.byte	-126
 1004 01ce 09       		.byte	9
 1005 01cf 80       		.byte	-128
 1006 01d0 0A       		.byte	10
 1007 01d1 08       		.byte	8
 1008 01d2 0B       		.byte	11
 1009 01d3 80       		.byte	-128
 1010 01d4 0C       		.byte	12
 1011 01d5 20       		.byte	32
 1012 01d6 0D       		.byte	13
 1013 01d7 80       		.byte	-128
 1014 01d8 0E       		.byte	14
 1015 01d9 20       		.byte	32
 1016 01da 12       		.byte	18
 1017 01db 60       		.byte	96
 1018 01dc 14       		.byte	20
 1019 01dd 10       		.byte	16
 1020 01de 15       		.byte	21
 1021 01df 11       		.byte	17
 1022 01e0 16       		.byte	22
 1023 01e1 01       		.byte	1
 1024 01e2 19       		.byte	25
 1025 01e3 02       		.byte	2
 1026 01e4 1A       		.byte	26
 1027 01e5 08       		.byte	8
 1028 01e6 1B       		.byte	27
 1029 01e7 22       		.byte	34
 1030 01e8 1C       		.byte	28
 1031 01e9 40       		.byte	64
 1032 01ea 1D       		.byte	29
 1033 01eb 14       		.byte	20
 1034 01ec 1E       		.byte	30
 1035 01ed 08       		.byte	8
 1036 01ee 1F       		.byte	31
 1037 01ef 10       		.byte	16
 1038 01f0 21       		.byte	33
 1039 01f1 A4       		.byte	-92
 1040 01f2 22       		.byte	34
 1041 01f3 20       		.byte	32
 1042 01f4 26       		.byte	38
 1043 01f5 98       		.byte	-104
 1044 01f6 27       		.byte	39
 1045 01f7 40       		.byte	64
 1046 01f8 28       		.byte	40
 1047 01f9 10       		.byte	16
 1048 01fa 29       		.byte	41
 1049 01fb 01       		.byte	1
 1050 01fc 2A       		.byte	42
 1051 01fd 02       		.byte	2
 1052 01fe 2B       		.byte	43
 1053 01ff A0       		.byte	-96
 1054 0200 2C       		.byte	44
 1055 0201 20       		.byte	32
 1056 0202 2D       		.byte	45
 1057 0203 10       		.byte	16
ARM GAS  C:\Users\Petro\AppData\Local\Temp\ccSZcWJH.s 			page 33


 1058 0204 2E       		.byte	46
 1059 0205 40       		.byte	64
 1060 0206 31       		.byte	49
 1061 0207 A4       		.byte	-92
 1062 0208 33       		.byte	51
 1063 0209 04       		.byte	4
 1064 020a 36       		.byte	54
 1065 020b 14       		.byte	20
 1066 020c 3B       		.byte	59
 1067 020d 80       		.byte	-128
 1068 020e 3F       		.byte	63
 1069 020f 01       		.byte	1
 1070 0210 41       		.byte	65
 1071 0211 04       		.byte	4
 1072 0212 46       		.byte	70
 1073 0213 02       		.byte	2
 1074 0214 47       		.byte	71
 1075 0215 04       		.byte	4
 1076 0216 49       		.byte	73
 1077 0217 01       		.byte	1
 1078 0218 4E       		.byte	78
 1079 0219 04       		.byte	4
 1080 021a 53       		.byte	83
 1081 021b 40       		.byte	64
 1082 021c 54       		.byte	84
 1083 021d 01       		.byte	1
 1084 021e 56       		.byte	86
 1085 021f 45       		.byte	69
 1086 0220 57       		.byte	87
 1087 0221 08       		.byte	8
 1088 0222 5C       		.byte	92
 1089 0223 62       		.byte	98
 1090 0224 5F       		.byte	95
 1091 0225 08       		.byte	8
 1092 0226 80       		.byte	-128
 1093 0227 40       		.byte	64
 1094 0228 82       		.byte	-126
 1095 0229 80       		.byte	-128
 1096 022a 83       		.byte	-125
 1097 022b 01       		.byte	1
 1098 022c 84       		.byte	-124
 1099 022d 21       		.byte	33
 1100 022e 88       		.byte	-120
 1101 022f 02       		.byte	2
 1102 0230 89       		.byte	-119
 1103 0231 21       		.byte	33
 1104 0232 8B       		.byte	-117
 1105 0233 08       		.byte	8
 1106 0234 91       		.byte	-111
 1107 0235 10       		.byte	16
 1108 0236 92       		.byte	-110
 1109 0237 40       		.byte	64
 1110 0238 94       		.byte	-108
 1111 0239 80       		.byte	-128
 1112 023a 97       		.byte	-105
 1113 023b 21       		.byte	33
 1114 023c 9B       		.byte	-101
ARM GAS  C:\Users\Petro\AppData\Local\Temp\ccSZcWJH.s 			page 34


 1115 023d 08       		.byte	8
 1116 023e 9D       		.byte	-99
 1117 023f 02       		.byte	2
 1118 0240 9E       		.byte	-98
 1119 0241 04       		.byte	4
 1120 0242 9F       		.byte	-97
 1121 0243 40       		.byte	64
 1122 0244 A0       		.byte	-96
 1123 0245 20       		.byte	32
 1124 0246 A6       		.byte	-90
 1125 0247 98       		.byte	-104
 1126 0248 AA       		.byte	-86
 1127 0249 40       		.byte	64
 1128 024a C0       		.byte	-64
 1129 024b FB       		.byte	-5
 1130 024c C2       		.byte	-62
 1131 024d EB       		.byte	-21
 1132 024e C4       		.byte	-60
 1133 024f FC       		.byte	-4
 1134 0250 CA       		.byte	-54
 1135 0251 73       		.byte	115
 1136 0252 CC       		.byte	-52
 1137 0253 6E       		.byte	110
 1138 0254 CE       		.byte	-50
 1139 0255 88       		.byte	-120
 1140 0256 D0       		.byte	-48
 1141 0257 52       		.byte	82
 1142 0258 D2       		.byte	-46
 1143 0259 20       		.byte	32
 1144 025a D6       		.byte	-42
 1145 025b F0       		.byte	-16
 1146 025c EE       		.byte	-18
 1147 025d 08       		.byte	8
 1148 025e 87       		.byte	-121
 1149 025f 02       		.byte	2
 1150 0260 E6       		.byte	-26
 1151 0261 40       		.byte	64
 1152 0262 03       		.byte	3
 1153 0263 80       		.byte	-128
 1154 0264 0A       		.byte	10
 1155 0265 10       		.byte	16
 1156 0266 62       		.byte	98
 1157 0267 20       		.byte	32
 1158 0268 6F       		.byte	111
 1159 0269 A0       		.byte	-96
 1160 026a 73       		.byte	115
 1161 026b 02       		.byte	2
 1162 026c 82       		.byte	-126
 1163 026d 10       		.byte	16
 1164 026e 9B       		.byte	-101
 1165 026f 02       		.byte	2
 1166 0270 A2       		.byte	-94
 1167 0271 20       		.byte	32
 1168 0272 A3       		.byte	-93
 1169 0273 20       		.byte	32
 1170 0274 AA       		.byte	-86
 1171 0275 20       		.byte	32
ARM GAS  C:\Users\Petro\AppData\Local\Temp\ccSZcWJH.s 			page 35


 1172 0276 AF       		.byte	-81
 1173 0277 20       		.byte	32
 1174 0278 C0       		.byte	-64
 1175 0279 10       		.byte	16
 1176 027a C2       		.byte	-62
 1177 027b 10       		.byte	16
 1178 027c D8       		.byte	-40
 1179 027d 40       		.byte	64
 1180 027e DA       		.byte	-38
 1181 027f 80       		.byte	-128
 1182 0280 DC       		.byte	-36
 1183 0281 60       		.byte	96
 1184 0282 E0       		.byte	-32
 1185 0283 80       		.byte	-128
 1186 0284 EE       		.byte	-18
 1187 0285 90       		.byte	-112
 1188 0286 0F       		.byte	15
 1189 0287 02       		.byte	2
 1190 0288 C2       		.byte	-62
 1191 0289 01       		.byte	1
 1192 028a AF       		.byte	-81
 1193 028b 01       		.byte	1
 1194 028c 10       		.byte	16
 1195 028d 01       		.byte	1
 1196 028e 11       		.byte	17
 1197 028f 01       		.byte	1
 1198              		.type	BS_UDB_0_1_1_CONFIG_VAL.4771, %object
 1199              		.size	BS_UDB_0_1_1_CONFIG_VAL.4771, 128
 1200              	BS_UDB_0_1_1_CONFIG_VAL.4771:
 1201 0290 4F       		.byte	79
 1202 0291 24       		.byte	36
 1203 0292 30       		.byte	48
 1204 0293 00       		.byte	0
 1205 0294 03       		.byte	3
 1206 0295 FF       		.byte	-1
 1207 0296 00       		.byte	0
 1208 0297 00       		.byte	0
 1209 0298 73       		.byte	115
 1210 0299 00       		.byte	0
 1211 029a 0C       		.byte	12
 1212 029b 63       		.byte	99
 1213 029c 01       		.byte	1
 1214 029d 1C       		.byte	28
 1215 029e 00       		.byte	0
 1216 029f E2       		.byte	-30
 1217 02a0 00       		.byte	0
 1218 02a1 10       		.byte	16
 1219 02a2 00       		.byte	0
 1220 02a3 00       		.byte	0
 1221 02a4 00       		.byte	0
 1222 02a5 08       		.byte	8
 1223 02a6 33       		.byte	51
 1224 02a7 00       		.byte	0
 1225 02a8 7F       		.byte	127
 1226 02a9 18       		.byte	24
 1227 02aa 00       		.byte	0
 1228 02ab 00       		.byte	0
ARM GAS  C:\Users\Petro\AppData\Local\Temp\ccSZcWJH.s 			page 36


 1229 02ac 5C       		.byte	92
 1230 02ad 00       		.byte	0
 1231 02ae 23       		.byte	35
 1232 02af 04       		.byte	4
 1233 02b0 08       		.byte	8
 1234 02b1 40       		.byte	64
 1235 02b2 00       		.byte	0
 1236 02b3 00       		.byte	0
 1237 02b4 04       		.byte	4
 1238 02b5 60       		.byte	96
 1239 02b6 00       		.byte	0
 1240 02b7 00       		.byte	0
 1241 02b8 0C       		.byte	12
 1242 02b9 E7       		.byte	-25
 1243 02ba 00       		.byte	0
 1244 02bb 18       		.byte	24
 1245 02bc 02       		.byte	2
 1246 02bd 1C       		.byte	28
 1247 02be 00       		.byte	0
 1248 02bf E1       		.byte	-31
 1249 02c0 2C       		.byte	44
 1250 02c1 1F       		.byte	31
 1251 02c2 40       		.byte	64
 1252 02c3 60       		.byte	96
 1253 02c4 0F       		.byte	15
 1254 02c5 00       		.byte	0
 1255 02c6 1C       		.byte	28
 1256 02c7 80       		.byte	-128
 1257 02c8 00       		.byte	0
 1258 02c9 80       		.byte	-128
 1259 02ca 22       		.byte	34
 1260 02cb 22       		.byte	34
 1261 02cc 00       		.byte	0
 1262 02cd 00       		.byte	0
 1263 02ce 04       		.byte	4
 1264 02cf 00       		.byte	0
 1265 02d0 36       		.byte	54
 1266 02d1 02       		.byte	2
 1267 02d2 04       		.byte	4
 1268 02d3 00       		.byte	0
 1269 02d4 01       		.byte	1
 1270 02d5 00       		.byte	0
 1271 02d6 E0       		.byte	-32
 1272 02d7 C0       		.byte	-64
 1273 02d8 28       		.byte	40
 1274 02d9 FF       		.byte	-1
 1275 02da FF       		.byte	-1
 1276 02db FF       		.byte	-1
 1277 02dc 62       		.byte	98
 1278 02dd A0       		.byte	-96
 1279 02de F0       		.byte	-16
 1280 02df 41       		.byte	65
 1281 02e0 0C       		.byte	12
 1282 02e1 00       		.byte	0
 1283 02e2 00       		.byte	0
 1284 02e3 00       		.byte	0
 1285 02e4 00       		.byte	0
ARM GAS  C:\Users\Petro\AppData\Local\Temp\ccSZcWJH.s 			page 37


 1286 02e5 00       		.byte	0
 1287 02e6 02       		.byte	2
 1288 02e7 11       		.byte	17
 1289 02e8 04       		.byte	4
 1290 02e9 04       		.byte	4
 1291 02ea 04       		.byte	4
 1292 02eb 04       		.byte	4
 1293 02ec 00       		.byte	0
 1294 02ed 00       		.byte	0
 1295 02ee 00       		.byte	0
 1296 02ef 01       		.byte	1
 1297 02f0 00       		.byte	0
 1298 02f1 00       		.byte	0
 1299 02f2 00       		.byte	0
 1300 02f3 00       		.byte	0
 1301 02f4 00       		.byte	0
 1302 02f5 00       		.byte	0
 1303 02f6 40       		.byte	64
 1304 02f7 02       		.byte	2
 1305 02f8 00       		.byte	0
 1306 02f9 10       		.byte	16
 1307 02fa 30       		.byte	48
 1308 02fb 10       		.byte	16
 1309 02fc 00       		.byte	0
 1310 02fd 10       		.byte	16
 1311 02fe 10       		.byte	16
 1312 02ff 12       		.byte	18
 1313 0300 00       		.byte	0
 1314 0301 00       		.byte	0
 1315 0302 00       		.byte	0
 1316 0303 00       		.byte	0
 1317 0304 00       		.byte	0
 1318 0305 00       		.byte	0
 1319 0306 00       		.byte	0
 1320 0307 00       		.byte	0
 1321 0308 00       		.byte	0
 1322 0309 00       		.byte	0
 1323 030a 00       		.byte	0
 1324 030b 00       		.byte	0
 1325 030c 00       		.byte	0
 1326 030d 00       		.byte	0
 1327 030e 00       		.byte	0
 1328 030f 00       		.byte	0
 1329              		.text
 1330              	.Letext0:
 1331              		.file 2 "c:\\program files (x86)\\cypress\\psoc creator\\3.3\\psoc creator\\import\\gnu\\arm\\4.9.
 1332              		.file 3 ".\\Generated_Source\\PSoC4\\cytypes.h"
 1333              		.file 4 ".\\Generated_Source\\PSoC4\\CyLib.h"
 1334              		.file 5 ".\\Generated_Source\\PSoC4\\CyLFClk.h"