ARM GAS  C:\Users\Petro\AppData\Local\Temp\ccPMXudc.s 			page 1


   1              		.cpu cortex-m0
   2              		.fpu softvfp
   3              		.eabi_attribute 20, 1
   4              		.eabi_attribute 21, 1
   5              		.eabi_attribute 23, 3
   6              		.eabi_attribute 24, 1
   7              		.eabi_attribute 25, 1
   8              		.eabi_attribute 26, 1
   9              		.eabi_attribute 30, 1
  10              		.eabi_attribute 34, 0
  11              		.eabi_attribute 18, 4
  12              		.code	16
  13              		.file	"LCD_BarGraph.c"
  14              		.text
  15              	.Ltext0:
  16              		.cfi_sections	.debug_frame
  17              		.section	.text.LCD_LoadCustomFonts,"ax",%progbits
  18              		.align	2
  19              		.global	LCD_LoadCustomFonts
  20              		.code	16
  21              		.thumb_func
  22              		.type	LCD_LoadCustomFonts, %function
  23              	LCD_LoadCustomFonts:
  24              	.LFB0:
  25              		.file 1 ".\\Generated_Source\\PSoC4\\LCD_BarGraph.c"
   1:.\Generated_Source\PSoC4/LCD_BarGraph.c **** /*******************************************************************************
   2:.\Generated_Source\PSoC4/LCD_BarGraph.c **** * File Name: LCD_BarGraph.c
   3:.\Generated_Source\PSoC4/LCD_BarGraph.c **** * Version 2.20
   4:.\Generated_Source\PSoC4/LCD_BarGraph.c **** *
   5:.\Generated_Source\PSoC4/LCD_BarGraph.c **** * Description:
   6:.\Generated_Source\PSoC4/LCD_BarGraph.c **** *  This file provides the custom character data and API for creating and using
   7:.\Generated_Source\PSoC4/LCD_BarGraph.c **** *  bar graphs with the Character LCD component.
   8:.\Generated_Source\PSoC4/LCD_BarGraph.c **** *
   9:.\Generated_Source\PSoC4/LCD_BarGraph.c **** * Note:
  10:.\Generated_Source\PSoC4/LCD_BarGraph.c **** *
  11:.\Generated_Source\PSoC4/LCD_BarGraph.c **** ********************************************************************************
  12:.\Generated_Source\PSoC4/LCD_BarGraph.c **** * Copyright 2008-2014, Cypress Semiconductor Corporation.  All rights reserved.
  13:.\Generated_Source\PSoC4/LCD_BarGraph.c **** * You may use this file only in accordance with the license, terms, conditions,
  14:.\Generated_Source\PSoC4/LCD_BarGraph.c **** * disclaimers, and limitations in the end user license agreement accompanying
  15:.\Generated_Source\PSoC4/LCD_BarGraph.c **** * the software package with which this file was provided.
  16:.\Generated_Source\PSoC4/LCD_BarGraph.c **** *******************************************************************************/
  17:.\Generated_Source\PSoC4/LCD_BarGraph.c **** 
  18:.\Generated_Source\PSoC4/LCD_BarGraph.c **** #include "LCD.h"
  19:.\Generated_Source\PSoC4/LCD_BarGraph.c **** 
  20:.\Generated_Source\PSoC4/LCD_BarGraph.c **** 
  21:.\Generated_Source\PSoC4/LCD_BarGraph.c **** uint8 const CYCODE LCD_customFonts[] = \
  22:.\Generated_Source\PSoC4/LCD_BarGraph.c **** {
  23:.\Generated_Source\PSoC4/LCD_BarGraph.c ****     /* Character LCD_CUSTOM_0   */
  24:.\Generated_Source\PSoC4/LCD_BarGraph.c ****     0x00u,    0x00u,    0x00u,    0x00u,    0x00u,    0x00u,    0x00u,    0x1Fu, \
  25:.\Generated_Source\PSoC4/LCD_BarGraph.c ****     /* Character LCD_CUSTOM_1   */
  26:.\Generated_Source\PSoC4/LCD_BarGraph.c ****     0x00u,    0x00u,    0x00u,    0x00u,    0x00u,    0x00u,    0x1Fu,    0x1Fu, \
  27:.\Generated_Source\PSoC4/LCD_BarGraph.c ****     /* Character LCD_CUSTOM_2   */
  28:.\Generated_Source\PSoC4/LCD_BarGraph.c ****     0x00u,    0x00u,    0x00u,    0x00u,    0x00u,    0x1Fu,    0x1Fu,    0x1Fu, \
  29:.\Generated_Source\PSoC4/LCD_BarGraph.c ****     /* Character LCD_CUSTOM_3   */
  30:.\Generated_Source\PSoC4/LCD_BarGraph.c ****     0x00u,    0x00u,    0x00u,    0x00u,    0x1Fu,    0x1Fu,    0x1Fu,    0x1Fu, \
  31:.\Generated_Source\PSoC4/LCD_BarGraph.c ****     /* Character LCD_CUSTOM_4   */
  32:.\Generated_Source\PSoC4/LCD_BarGraph.c ****     0x00u,    0x00u,    0x00u,    0x1Fu,    0x1Fu,    0x1Fu,    0x1Fu,    0x1Fu, \
ARM GAS  C:\Users\Petro\AppData\Local\Temp\ccPMXudc.s 			page 2


  33:.\Generated_Source\PSoC4/LCD_BarGraph.c ****     /* Character LCD_CUSTOM_5   */
  34:.\Generated_Source\PSoC4/LCD_BarGraph.c ****     0x00u,    0x00u,    0x1Fu,    0x1Fu,    0x1Fu,    0x1Fu,    0x1Fu,    0x1Fu, \
  35:.\Generated_Source\PSoC4/LCD_BarGraph.c ****     /* Character LCD_CUSTOM_6   */
  36:.\Generated_Source\PSoC4/LCD_BarGraph.c ****     0x00u,    0x1Fu,    0x1Fu,    0x1Fu,    0x1Fu,    0x1Fu,    0x1Fu,    0x1Fu, \
  37:.\Generated_Source\PSoC4/LCD_BarGraph.c ****     /* Character LCD_CUSTOM_7   */
  38:.\Generated_Source\PSoC4/LCD_BarGraph.c ****     0x1Fu,    0x1Fu,    0x1Fu,    0x1Fu,    0x1Fu,    0x1Fu,    0x1Fu,    0x1Fu \
  39:.\Generated_Source\PSoC4/LCD_BarGraph.c **** };
  40:.\Generated_Source\PSoC4/LCD_BarGraph.c **** 
  41:.\Generated_Source\PSoC4/LCD_BarGraph.c **** 
  42:.\Generated_Source\PSoC4/LCD_BarGraph.c **** /*******************************************************************************
  43:.\Generated_Source\PSoC4/LCD_BarGraph.c **** * Function Name: LCD_LoadCustomFonts
  44:.\Generated_Source\PSoC4/LCD_BarGraph.c **** ********************************************************************************
  45:.\Generated_Source\PSoC4/LCD_BarGraph.c **** *
  46:.\Generated_Source\PSoC4/LCD_BarGraph.c **** * Summary:
  47:.\Generated_Source\PSoC4/LCD_BarGraph.c **** *  Loads 8 custom font characters into the LCD Module for use.  Cannot use
  48:.\Generated_Source\PSoC4/LCD_BarGraph.c **** *  characters from two different font sets at once, but font sets can be
  49:.\Generated_Source\PSoC4/LCD_BarGraph.c **** *  switched out during runtime.
  50:.\Generated_Source\PSoC4/LCD_BarGraph.c **** *
  51:.\Generated_Source\PSoC4/LCD_BarGraph.c **** * Parameters:
  52:.\Generated_Source\PSoC4/LCD_BarGraph.c **** *  customData:  pointer to a constant array of 64 bytes representing 8 custom
  53:.\Generated_Source\PSoC4/LCD_BarGraph.c **** *               font characters.
  54:.\Generated_Source\PSoC4/LCD_BarGraph.c **** * Return:
  55:.\Generated_Source\PSoC4/LCD_BarGraph.c **** *  None.
  56:.\Generated_Source\PSoC4/LCD_BarGraph.c **** *
  57:.\Generated_Source\PSoC4/LCD_BarGraph.c **** * Theory:
  58:.\Generated_Source\PSoC4/LCD_BarGraph.c **** *  Prior to using this function user need to import the pointer to custom
  59:.\Generated_Source\PSoC4/LCD_BarGraph.c **** *  font array to your project by writting the following in the source code file
  60:.\Generated_Source\PSoC4/LCD_BarGraph.c **** *  where custom font will be used:
  61:.\Generated_Source\PSoC4/LCD_BarGraph.c **** *       extern uint8 const CYCODE LCD_Char_customFonts[];
  62:.\Generated_Source\PSoC4/LCD_BarGraph.c **** *  This function is not automatically called by the Start() routine and must be
  63:.\Generated_Source\PSoC4/LCD_BarGraph.c **** *  called manually by the user.
  64:.\Generated_Source\PSoC4/LCD_BarGraph.c **** *******************************************************************************/
  65:.\Generated_Source\PSoC4/LCD_BarGraph.c **** void LCD_LoadCustomFonts(uint8 const customData[]) 
  66:.\Generated_Source\PSoC4/LCD_BarGraph.c **** {
  26              		.loc 1 66 0
  27              		.cfi_startproc
  28              	.LVL0:
  29 0000 38B5     		push	{r3, r4, r5, lr}
  30              		.cfi_def_cfa_offset 16
  31              		.cfi_offset 3, -16
  32              		.cfi_offset 4, -12
  33              		.cfi_offset 5, -8
  34              		.cfi_offset 14, -4
  35 0002 051C     		mov	r5, r0
  67:.\Generated_Source\PSoC4/LCD_BarGraph.c ****     uint8 indexU8;
  68:.\Generated_Source\PSoC4/LCD_BarGraph.c **** 
  69:.\Generated_Source\PSoC4/LCD_BarGraph.c ****     LCD_IsReady();
  36              		.loc 1 69 0
  37 0004 FFF7FEFF 		bl	LCD_IsReady
  38              	.LVL1:
  70:.\Generated_Source\PSoC4/LCD_BarGraph.c ****     /* Set starting address in the LCD Module */
  71:.\Generated_Source\PSoC4/LCD_BarGraph.c ****     /* Optionally: Read the current address to restore at a later time */
  72:.\Generated_Source\PSoC4/LCD_BarGraph.c ****     LCD_WriteControl(LCD_CGRAM_0);
  39              		.loc 1 72 0
  40 0008 4020     		mov	r0, #64
  41 000a FFF7FEFF 		bl	LCD_WriteControl
  42              	.LVL2:
ARM GAS  C:\Users\Petro\AppData\Local\Temp\ccPMXudc.s 			page 3


  73:.\Generated_Source\PSoC4/LCD_BarGraph.c **** 
  74:.\Generated_Source\PSoC4/LCD_BarGraph.c ****     /* Load in the 64 bytes of CustomChar Data */
  75:.\Generated_Source\PSoC4/LCD_BarGraph.c ****     for(indexU8 = 0u; indexU8 < LCD_CUSTOM_CHAR_SET_LEN; indexU8++)
  43              		.loc 1 75 0
  44 000e 0024     		mov	r4, #0
  45 0010 04E0     		b	.L2
  46              	.LVL3:
  47              	.L3:
  76:.\Generated_Source\PSoC4/LCD_BarGraph.c ****     {
  77:.\Generated_Source\PSoC4/LCD_BarGraph.c ****         /* Delay between each write */
  78:.\Generated_Source\PSoC4/LCD_BarGraph.c ****         LCD_WriteData(customData[indexU8]);
  48              		.loc 1 78 0 discriminator 3
  49 0012 285D     		ldrb	r0, [r5, r4]
  50 0014 FFF7FEFF 		bl	LCD_WriteData
  51              	.LVL4:
  75:.\Generated_Source\PSoC4/LCD_BarGraph.c ****     {
  52              		.loc 1 75 0 discriminator 3
  53 0018 0134     		add	r4, r4, #1
  54              	.LVL5:
  55 001a E4B2     		uxtb	r4, r4
  56              	.LVL6:
  57              	.L2:
  75:.\Generated_Source\PSoC4/LCD_BarGraph.c ****     {
  58              		.loc 1 75 0 is_stmt 0 discriminator 1
  59 001c 3F2C     		cmp	r4, #63
  60 001e F8D9     		bls	.L3
  79:.\Generated_Source\PSoC4/LCD_BarGraph.c ****     }
  80:.\Generated_Source\PSoC4/LCD_BarGraph.c **** 
  81:.\Generated_Source\PSoC4/LCD_BarGraph.c ****     LCD_IsReady();
  61              		.loc 1 81 0 is_stmt 1
  62 0020 FFF7FEFF 		bl	LCD_IsReady
  63              	.LVL7:
  82:.\Generated_Source\PSoC4/LCD_BarGraph.c ****     LCD_WriteControl(LCD_DDRAM_0);
  64              		.loc 1 82 0
  65 0024 8020     		mov	r0, #128
  66 0026 FFF7FEFF 		bl	LCD_WriteControl
  67              	.LVL8:
  83:.\Generated_Source\PSoC4/LCD_BarGraph.c **** }
  68              		.loc 1 83 0
  69              		@ sp needed
  70              	.LVL9:
  71              	.LVL10:
  72 002a 38BD     		pop	{r3, r4, r5, pc}
  73              		.cfi_endproc
  74              	.LFE0:
  75              		.size	LCD_LoadCustomFonts, .-LCD_LoadCustomFonts
  76              		.section	.text.LCD_DrawVerticalBG,"ax",%progbits
  77              		.align	2
  78              		.global	LCD_DrawVerticalBG
  79              		.code	16
  80              		.thumb_func
  81              		.type	LCD_DrawVerticalBG, %function
  82              	LCD_DrawVerticalBG:
  83              	.LFB1:
  84:.\Generated_Source\PSoC4/LCD_BarGraph.c **** 
  85:.\Generated_Source\PSoC4/LCD_BarGraph.c **** 
  86:.\Generated_Source\PSoC4/LCD_BarGraph.c **** #if (LCD_CUSTOM_CHAR_SET == LCD_HORIZONTAL_BG)
ARM GAS  C:\Users\Petro\AppData\Local\Temp\ccPMXudc.s 			page 4


  87:.\Generated_Source\PSoC4/LCD_BarGraph.c **** 
  88:.\Generated_Source\PSoC4/LCD_BarGraph.c ****     /*******************************************************************************
  89:.\Generated_Source\PSoC4/LCD_BarGraph.c ****     * Function Name: LCD_DrawHorizontalBG
  90:.\Generated_Source\PSoC4/LCD_BarGraph.c ****     ********************************************************************************
  91:.\Generated_Source\PSoC4/LCD_BarGraph.c ****     *
  92:.\Generated_Source\PSoC4/LCD_BarGraph.c ****     * Summary:
  93:.\Generated_Source\PSoC4/LCD_BarGraph.c ****     *  Draws the horizontal bargraph.
  94:.\Generated_Source\PSoC4/LCD_BarGraph.c ****     *
  95:.\Generated_Source\PSoC4/LCD_BarGraph.c ****     * Parameters:
  96:.\Generated_Source\PSoC4/LCD_BarGraph.c ****     *  row:            The row in which the bar graph starts.
  97:.\Generated_Source\PSoC4/LCD_BarGraph.c ****     *  column:         The column in which the bar graph starts.
  98:.\Generated_Source\PSoC4/LCD_BarGraph.c ****     *  maxCharacters:  The max length of the graph in whole characters.
  99:.\Generated_Source\PSoC4/LCD_BarGraph.c ****     *  value:          The current length or height of the graph in pixels.
 100:.\Generated_Source\PSoC4/LCD_BarGraph.c ****     *
 101:.\Generated_Source\PSoC4/LCD_BarGraph.c ****     * Return:
 102:.\Generated_Source\PSoC4/LCD_BarGraph.c ****     *  void.
 103:.\Generated_Source\PSoC4/LCD_BarGraph.c ****     *
 104:.\Generated_Source\PSoC4/LCD_BarGraph.c ****     *******************************************************************************/
 105:.\Generated_Source\PSoC4/LCD_BarGraph.c ****     void LCD_DrawHorizontalBG(uint8 row, uint8 column, uint8 maxCharacters, uint8 value) \
 106:.\Generated_Source\PSoC4/LCD_BarGraph.c ****                                                             
 107:.\Generated_Source\PSoC4/LCD_BarGraph.c ****     {
 108:.\Generated_Source\PSoC4/LCD_BarGraph.c ****         /* 8-bit Counter */
 109:.\Generated_Source\PSoC4/LCD_BarGraph.c ****         uint8 count8;
 110:.\Generated_Source\PSoC4/LCD_BarGraph.c ****         uint8 fullChars;
 111:.\Generated_Source\PSoC4/LCD_BarGraph.c ****         uint8 remainingPixels;
 112:.\Generated_Source\PSoC4/LCD_BarGraph.c **** 
 113:.\Generated_Source\PSoC4/LCD_BarGraph.c ****         /* Number of full characters to draw */
 114:.\Generated_Source\PSoC4/LCD_BarGraph.c ****         fullChars = value / LCD_CHARACTER_WIDTH;
 115:.\Generated_Source\PSoC4/LCD_BarGraph.c **** 
 116:.\Generated_Source\PSoC4/LCD_BarGraph.c ****         /* Number of remaining pixels to draw */
 117:.\Generated_Source\PSoC4/LCD_BarGraph.c ****         remainingPixels = value % LCD_CHARACTER_WIDTH;
 118:.\Generated_Source\PSoC4/LCD_BarGraph.c **** 
 119:.\Generated_Source\PSoC4/LCD_BarGraph.c ****         /* Ensure that the maximum character limit is followed. */
 120:.\Generated_Source\PSoC4/LCD_BarGraph.c ****         if(fullChars >= maxCharacters)
 121:.\Generated_Source\PSoC4/LCD_BarGraph.c ****         {
 122:.\Generated_Source\PSoC4/LCD_BarGraph.c ****             fullChars = maxCharacters;
 123:.\Generated_Source\PSoC4/LCD_BarGraph.c ****         }
 124:.\Generated_Source\PSoC4/LCD_BarGraph.c **** 
 125:.\Generated_Source\PSoC4/LCD_BarGraph.c ****         /* Put Cursor at start position */
 126:.\Generated_Source\PSoC4/LCD_BarGraph.c ****         LCD_Position(row, column);
 127:.\Generated_Source\PSoC4/LCD_BarGraph.c **** 
 128:.\Generated_Source\PSoC4/LCD_BarGraph.c ****         /* Write full characters */
 129:.\Generated_Source\PSoC4/LCD_BarGraph.c ****         for(count8 = 0u; count8 < fullChars; count8++)
 130:.\Generated_Source\PSoC4/LCD_BarGraph.c ****         {
 131:.\Generated_Source\PSoC4/LCD_BarGraph.c ****             LCD_WriteData(LCD_CUSTOM_5);
 132:.\Generated_Source\PSoC4/LCD_BarGraph.c ****         }
 133:.\Generated_Source\PSoC4/LCD_BarGraph.c **** 
 134:.\Generated_Source\PSoC4/LCD_BarGraph.c ****         if(fullChars < maxCharacters)
 135:.\Generated_Source\PSoC4/LCD_BarGraph.c ****         {
 136:.\Generated_Source\PSoC4/LCD_BarGraph.c ****             /* Write remaining pixels */
 137:.\Generated_Source\PSoC4/LCD_BarGraph.c ****             LCD_WriteData(remainingPixels);
 138:.\Generated_Source\PSoC4/LCD_BarGraph.c **** 
 139:.\Generated_Source\PSoC4/LCD_BarGraph.c ****             if(fullChars < (maxCharacters - 1u))
 140:.\Generated_Source\PSoC4/LCD_BarGraph.c ****             {
 141:.\Generated_Source\PSoC4/LCD_BarGraph.c ****                 /* Fill with whitespace to end of bar graph */
 142:.\Generated_Source\PSoC4/LCD_BarGraph.c ****                 for(count8 = 0u; count8 < (maxCharacters - fullChars - 1u); count8++)
 143:.\Generated_Source\PSoC4/LCD_BarGraph.c ****                 {
ARM GAS  C:\Users\Petro\AppData\Local\Temp\ccPMXudc.s 			page 5


 144:.\Generated_Source\PSoC4/LCD_BarGraph.c ****                     LCD_WriteData(LCD_CUSTOM_0);
 145:.\Generated_Source\PSoC4/LCD_BarGraph.c ****                 }
 146:.\Generated_Source\PSoC4/LCD_BarGraph.c ****             }
 147:.\Generated_Source\PSoC4/LCD_BarGraph.c ****         }
 148:.\Generated_Source\PSoC4/LCD_BarGraph.c ****     }
 149:.\Generated_Source\PSoC4/LCD_BarGraph.c **** 
 150:.\Generated_Source\PSoC4/LCD_BarGraph.c **** #endif /* LCD_CUSTOM_CHAR_SET == LCD_HORIZONTAL_BG */
 151:.\Generated_Source\PSoC4/LCD_BarGraph.c **** 
 152:.\Generated_Source\PSoC4/LCD_BarGraph.c **** 
 153:.\Generated_Source\PSoC4/LCD_BarGraph.c **** #if (LCD_CUSTOM_CHAR_SET == LCD_VERTICAL_BG)
 154:.\Generated_Source\PSoC4/LCD_BarGraph.c **** 
 155:.\Generated_Source\PSoC4/LCD_BarGraph.c ****     /*******************************************************************************
 156:.\Generated_Source\PSoC4/LCD_BarGraph.c ****     *  Function Name: LCD_DrawVerticalBG
 157:.\Generated_Source\PSoC4/LCD_BarGraph.c ****     ********************************************************************************
 158:.\Generated_Source\PSoC4/LCD_BarGraph.c ****     *
 159:.\Generated_Source\PSoC4/LCD_BarGraph.c ****     * Summary:
 160:.\Generated_Source\PSoC4/LCD_BarGraph.c ****     *  Draws the vertical bargraph.
 161:.\Generated_Source\PSoC4/LCD_BarGraph.c ****     *
 162:.\Generated_Source\PSoC4/LCD_BarGraph.c ****     * Parameters:
 163:.\Generated_Source\PSoC4/LCD_BarGraph.c ****     *  row:            The row in which the bar graph starts.
 164:.\Generated_Source\PSoC4/LCD_BarGraph.c ****     *  column:         The column in which the bar graph starts.
 165:.\Generated_Source\PSoC4/LCD_BarGraph.c ****     *  maxCharacters:  The max height of the graph in whole characters.
 166:.\Generated_Source\PSoC4/LCD_BarGraph.c ****     *  value:          The current length or height of the graph in pixels.
 167:.\Generated_Source\PSoC4/LCD_BarGraph.c ****     *
 168:.\Generated_Source\PSoC4/LCD_BarGraph.c ****     * Return:
 169:.\Generated_Source\PSoC4/LCD_BarGraph.c ****     *  void.
 170:.\Generated_Source\PSoC4/LCD_BarGraph.c ****     *
 171:.\Generated_Source\PSoC4/LCD_BarGraph.c ****     *******************************************************************************/
 172:.\Generated_Source\PSoC4/LCD_BarGraph.c ****     void LCD_DrawVerticalBG(uint8 row, uint8 column, uint8 maxCharacters, uint8 value) \
 173:.\Generated_Source\PSoC4/LCD_BarGraph.c ****                                                             
 174:.\Generated_Source\PSoC4/LCD_BarGraph.c ****     {
  84              		.loc 1 174 0
  85              		.cfi_startproc
  86              	.LVL11:
  87 0000 F0B5     		push	{r4, r5, r6, r7, lr}
  88              		.cfi_def_cfa_offset 20
  89              		.cfi_offset 4, -20
  90              		.cfi_offset 5, -16
  91              		.cfi_offset 6, -12
  92              		.cfi_offset 7, -8
  93              		.cfi_offset 14, -4
  94 0002 4F46     		mov	r7, r9
  95 0004 80B4     		push	{r7}
  96              		.cfi_def_cfa_offset 24
  97              		.cfi_offset 9, -24
  98 0006 82B0     		sub	sp, sp, #8
  99              		.cfi_def_cfa_offset 32
 100 0008 061C     		mov	r6, r0
 101 000a 0191     		str	r1, [sp, #4]
 102 000c 151C     		mov	r5, r2
 103              	.LVL12:
 175:.\Generated_Source\PSoC4/LCD_BarGraph.c ****         /* 8-bit Counter */
 176:.\Generated_Source\PSoC4/LCD_BarGraph.c ****         uint8 count8 = 0u;
 177:.\Generated_Source\PSoC4/LCD_BarGraph.c ****         /* Current Row Tracker */
 178:.\Generated_Source\PSoC4/LCD_BarGraph.c ****         int8 currentRow;
 179:.\Generated_Source\PSoC4/LCD_BarGraph.c ****         uint8 fullChars;
 180:.\Generated_Source\PSoC4/LCD_BarGraph.c ****         uint8 remainingPixels;
ARM GAS  C:\Users\Petro\AppData\Local\Temp\ccPMXudc.s 			page 6


 181:.\Generated_Source\PSoC4/LCD_BarGraph.c **** 
 182:.\Generated_Source\PSoC4/LCD_BarGraph.c ****         /* Number of full characters to draw */
 183:.\Generated_Source\PSoC4/LCD_BarGraph.c ****         fullChars = value / LCD_CHARACTER_HEIGHT;
 104              		.loc 1 183 0
 105 000e DF08     		lsr	r7, r3, #3
 106              	.LVL13:
 184:.\Generated_Source\PSoC4/LCD_BarGraph.c **** 
 185:.\Generated_Source\PSoC4/LCD_BarGraph.c ****         /* Number of remaining pixels to draw */
 186:.\Generated_Source\PSoC4/LCD_BarGraph.c ****         remainingPixels = value % LCD_CHARACTER_HEIGHT;
 107              		.loc 1 186 0
 108 0010 0722     		mov	r2, #7
 109              	.LVL14:
 110 0012 1A40     		and	r2, r3
 111 0014 9146     		mov	r9, r2
 112              	.LVL15:
 187:.\Generated_Source\PSoC4/LCD_BarGraph.c **** 
 188:.\Generated_Source\PSoC4/LCD_BarGraph.c ****         /* Put Cursor at start position */
 189:.\Generated_Source\PSoC4/LCD_BarGraph.c ****         LCD_Position(row, column);
 113              		.loc 1 189 0
 114 0016 FFF7FEFF 		bl	LCD_Position
 115              	.LVL16:
 190:.\Generated_Source\PSoC4/LCD_BarGraph.c **** 
 191:.\Generated_Source\PSoC4/LCD_BarGraph.c ****         /* Make sure the bar graph fits inside the space allotted */
 192:.\Generated_Source\PSoC4/LCD_BarGraph.c ****         if(fullChars >= maxCharacters)
 116              		.loc 1 192 0
 117 001a AF42     		cmp	r7, r5
 118 001c 00D3     		bcc	.L5
 193:.\Generated_Source\PSoC4/LCD_BarGraph.c ****         {
 194:.\Generated_Source\PSoC4/LCD_BarGraph.c ****             fullChars = maxCharacters;
 119              		.loc 1 194 0
 120 001e 2F1C     		mov	r7, r5
 121              	.LVL17:
 122              	.L5:
 123 0020 0024     		mov	r4, #0
 124 0022 0DE0     		b	.L6
 125              	.LVL18:
 126              	.L8:
 195:.\Generated_Source\PSoC4/LCD_BarGraph.c ****         }
 196:.\Generated_Source\PSoC4/LCD_BarGraph.c **** 
 197:.\Generated_Source\PSoC4/LCD_BarGraph.c ****         /*  Write full characters */
 198:.\Generated_Source\PSoC4/LCD_BarGraph.c ****         while(count8 < fullChars)
 199:.\Generated_Source\PSoC4/LCD_BarGraph.c ****         {
 200:.\Generated_Source\PSoC4/LCD_BarGraph.c ****             LCD_WriteData(LCD_CUSTOM_7);
 127              		.loc 1 200 0
 128 0024 0720     		mov	r0, #7
 129 0026 FFF7FEFF 		bl	LCD_WriteData
 130              	.LVL19:
 201:.\Generated_Source\PSoC4/LCD_BarGraph.c **** 
 202:.\Generated_Source\PSoC4/LCD_BarGraph.c ****             count8++;
 131              		.loc 1 202 0
 132 002a 0134     		add	r4, r4, #1
 133              	.LVL20:
 134 002c E4B2     		uxtb	r4, r4
 135              	.LVL21:
 203:.\Generated_Source\PSoC4/LCD_BarGraph.c **** 
 204:.\Generated_Source\PSoC4/LCD_BarGraph.c ****             /* Each pass through, move one row higher */
 205:.\Generated_Source\PSoC4/LCD_BarGraph.c ****             if((((int8) row) - ((int8) count8)) >= 0)
ARM GAS  C:\Users\Petro\AppData\Local\Temp\ccPMXudc.s 			page 7


 136              		.loc 1 205 0
 137 002e 72B2     		sxtb	r2, r6
 138 0030 63B2     		sxtb	r3, r4
 139 0032 D21A     		sub	r2, r2, r3
 140 0034 06D4     		bmi	.L7
 206:.\Generated_Source\PSoC4/LCD_BarGraph.c ****             {
 207:.\Generated_Source\PSoC4/LCD_BarGraph.c ****                 LCD_Position(row - count8, column);
 141              		.loc 1 207 0
 142 0036 301B     		sub	r0, r6, r4
 143 0038 C0B2     		uxtb	r0, r0
 144 003a 0199     		ldr	r1, [sp, #4]
 145 003c FFF7FEFF 		bl	LCD_Position
 146              	.LVL22:
 147              	.L6:
 198:.\Generated_Source\PSoC4/LCD_BarGraph.c ****         {
 148              		.loc 1 198 0
 149 0040 BC42     		cmp	r4, r7
 150 0042 EFD3     		bcc	.L8
 151              	.L7:
 208:.\Generated_Source\PSoC4/LCD_BarGraph.c ****             }
 209:.\Generated_Source\PSoC4/LCD_BarGraph.c ****             else
 210:.\Generated_Source\PSoC4/LCD_BarGraph.c ****             {
 211:.\Generated_Source\PSoC4/LCD_BarGraph.c ****                 break;
 212:.\Generated_Source\PSoC4/LCD_BarGraph.c ****             }
 213:.\Generated_Source\PSoC4/LCD_BarGraph.c ****         }
 214:.\Generated_Source\PSoC4/LCD_BarGraph.c **** 
 215:.\Generated_Source\PSoC4/LCD_BarGraph.c ****         if(((((int8) row) - ((int8) count8)) >= 0) && (fullChars < maxCharacters))
 152              		.loc 1 215 0
 153 0044 73B2     		sxtb	r3, r6
 154 0046 62B2     		sxtb	r2, r4
 155 0048 9B1A     		sub	r3, r3, r2
 156 004a 25D4     		bmi	.L4
 157              		.loc 1 215 0 is_stmt 0 discriminator 1
 158 004c BD42     		cmp	r5, r7
 159 004e 23D9     		bls	.L4
 216:.\Generated_Source\PSoC4/LCD_BarGraph.c ****         {
 217:.\Generated_Source\PSoC4/LCD_BarGraph.c ****             /* Write remaining pixels */
 218:.\Generated_Source\PSoC4/LCD_BarGraph.c ****             if(remainingPixels == 0u)
 160              		.loc 1 218 0 is_stmt 1
 161 0050 4B46     		mov	r3, r9
 162 0052 002B     		cmp	r3, #0
 163 0054 03D1     		bne	.L10
 219:.\Generated_Source\PSoC4/LCD_BarGraph.c ****             {
 220:.\Generated_Source\PSoC4/LCD_BarGraph.c ****                 LCD_WriteData((uint8) ' ');
 164              		.loc 1 220 0
 165 0056 2020     		mov	r0, #32
 166 0058 FFF7FEFF 		bl	LCD_WriteData
 167              	.LVL23:
 168 005c 04E0     		b	.L11
 169              	.L10:
 221:.\Generated_Source\PSoC4/LCD_BarGraph.c ****             }
 222:.\Generated_Source\PSoC4/LCD_BarGraph.c ****             else
 223:.\Generated_Source\PSoC4/LCD_BarGraph.c ****             {
 224:.\Generated_Source\PSoC4/LCD_BarGraph.c ****                 LCD_WriteData(remainingPixels - 1u);
 170              		.loc 1 224 0
 171 005e 4846     		mov	r0, r9
 172 0060 0138     		sub	r0, r0, #1
ARM GAS  C:\Users\Petro\AppData\Local\Temp\ccPMXudc.s 			page 8


 173 0062 C0B2     		uxtb	r0, r0
 174 0064 FFF7FEFF 		bl	LCD_WriteData
 175              	.LVL24:
 176              	.L11:
 225:.\Generated_Source\PSoC4/LCD_BarGraph.c ****             }
 226:.\Generated_Source\PSoC4/LCD_BarGraph.c **** 
 227:.\Generated_Source\PSoC4/LCD_BarGraph.c ****             currentRow = ((int8) row) - ((int8) count8) - 1;
 177              		.loc 1 227 0
 178 0068 361B     		sub	r6, r6, r4
 179 006a 013E     		sub	r6, r6, #1
 180              	.LVL25:
 228:.\Generated_Source\PSoC4/LCD_BarGraph.c **** 
 229:.\Generated_Source\PSoC4/LCD_BarGraph.c ****             if(currentRow >= 0)
 181              		.loc 1 229 0
 182 006c F4B2     		uxtb	r4, r6
 183              	.LVL26:
 184 006e 3306     		lsl	r3, r6, #24
 185 0070 0DD5     		bpl	.L15
 186 0072 11E0     		b	.L4
 187              	.LVL27:
 188              	.L13:
 230:.\Generated_Source\PSoC4/LCD_BarGraph.c ****             {
 231:.\Generated_Source\PSoC4/LCD_BarGraph.c ****                 /* Move up one row and fill with whitespace till top of bar graph */
 232:.\Generated_Source\PSoC4/LCD_BarGraph.c ****                 for(count8 = 0u; count8 < (maxCharacters - fullChars - 1u); count8++)
 233:.\Generated_Source\PSoC4/LCD_BarGraph.c ****                 {
 234:.\Generated_Source\PSoC4/LCD_BarGraph.c ****                     LCD_Position((uint8)currentRow, column);
 189              		.loc 1 234 0 discriminator 3
 190 0074 E4B2     		uxtb	r4, r4
 191 0076 201C     		mov	r0, r4
 192 0078 0199     		ldr	r1, [sp, #4]
 193 007a FFF7FEFF 		bl	LCD_Position
 194              	.LVL28:
 235:.\Generated_Source\PSoC4/LCD_BarGraph.c ****                     LCD_WriteData((uint8) ' ');
 195              		.loc 1 235 0 discriminator 3
 196 007e 2020     		mov	r0, #32
 197 0080 FFF7FEFF 		bl	LCD_WriteData
 198              	.LVL29:
 236:.\Generated_Source\PSoC4/LCD_BarGraph.c ****                     currentRow --;
 199              		.loc 1 236 0 discriminator 3
 200 0084 013C     		sub	r4, r4, #1
 201              	.LVL30:
 202 0086 E4B2     		uxtb	r4, r4
 203              	.LVL31:
 232:.\Generated_Source\PSoC4/LCD_BarGraph.c ****                 {
 204              		.loc 1 232 0 discriminator 3
 205 0088 0136     		add	r6, r6, #1
 206              	.LVL32:
 207 008a F6B2     		uxtb	r6, r6
 208              	.LVL33:
 209 008c 00E0     		b	.L12
 210              	.LVL34:
 211              	.L15:
 212 008e 0026     		mov	r6, #0
 213              	.LVL35:
 214              	.L12:
 232:.\Generated_Source\PSoC4/LCD_BarGraph.c ****                 {
 215              		.loc 1 232 0 is_stmt 0 discriminator 1
ARM GAS  C:\Users\Petro\AppData\Local\Temp\ccPMXudc.s 			page 9


 216 0090 EB1B     		sub	r3, r5, r7
 217 0092 013B     		sub	r3, r3, #1
 218 0094 9E42     		cmp	r6, r3
 219 0096 EDD3     		bcc	.L13
 220              	.LVL36:
 221              	.L4:
 237:.\Generated_Source\PSoC4/LCD_BarGraph.c ****                 }
 238:.\Generated_Source\PSoC4/LCD_BarGraph.c ****             }
 239:.\Generated_Source\PSoC4/LCD_BarGraph.c ****         }
 240:.\Generated_Source\PSoC4/LCD_BarGraph.c ****     }
 222              		.loc 1 240 0 is_stmt 1
 223 0098 02B0     		add	sp, sp, #8
 224              		@ sp needed
 225              	.LVL37:
 226              	.LVL38:
 227 009a 04BC     		pop	{r2}
 228 009c 9146     		mov	r9, r2
 229 009e F0BD     		pop	{r4, r5, r6, r7, pc}
 230              		.cfi_endproc
 231              	.LFE1:
 232              		.size	LCD_DrawVerticalBG, .-LCD_DrawVerticalBG
 233              		.global	LCD_customFonts
 234              		.section	.rodata
 235              		.align	2
 236              		.type	LCD_customFonts, %object
 237              		.size	LCD_customFonts, 64
 238              	LCD_customFonts:
 239 0000 00       		.byte	0
 240 0001 00       		.byte	0
 241 0002 00       		.byte	0
 242 0003 00       		.byte	0
 243 0004 00       		.byte	0
 244 0005 00       		.byte	0
 245 0006 00       		.byte	0
 246 0007 1F       		.byte	31
 247 0008 00       		.byte	0
 248 0009 00       		.byte	0
 249 000a 00       		.byte	0
 250 000b 00       		.byte	0
 251 000c 00       		.byte	0
 252 000d 00       		.byte	0
 253 000e 1F       		.byte	31
 254 000f 1F       		.byte	31
 255 0010 00       		.byte	0
 256 0011 00       		.byte	0
 257 0012 00       		.byte	0
 258 0013 00       		.byte	0
 259 0014 00       		.byte	0
 260 0015 1F       		.byte	31
 261 0016 1F       		.byte	31
 262 0017 1F       		.byte	31
 263 0018 00       		.byte	0
 264 0019 00       		.byte	0
 265 001a 00       		.byte	0
 266 001b 00       		.byte	0
 267 001c 1F       		.byte	31
 268 001d 1F       		.byte	31
ARM GAS  C:\Users\Petro\AppData\Local\Temp\ccPMXudc.s 			page 10


 269 001e 1F       		.byte	31
 270 001f 1F       		.byte	31
 271 0020 00       		.byte	0
 272 0021 00       		.byte	0
 273 0022 00       		.byte	0
 274 0023 1F       		.byte	31
 275 0024 1F       		.byte	31
 276 0025 1F       		.byte	31
 277 0026 1F       		.byte	31
 278 0027 1F       		.byte	31
 279 0028 00       		.byte	0
 280 0029 00       		.byte	0
 281 002a 1F       		.byte	31
 282 002b 1F       		.byte	31
 283 002c 1F       		.byte	31
 284 002d 1F       		.byte	31
 285 002e 1F       		.byte	31
 286 002f 1F       		.byte	31
 287 0030 00       		.byte	0
 288 0031 1F       		.byte	31
 289 0032 1F       		.byte	31
 290 0033 1F       		.byte	31
 291 0034 1F       		.byte	31
 292 0035 1F       		.byte	31
 293 0036 1F       		.byte	31
 294 0037 1F       		.byte	31
 295 0038 1F       		.byte	31
 296 0039 1F       		.byte	31
 297 003a 1F       		.byte	31
 298 003b 1F       		.byte	31
 299 003c 1F       		.byte	31
 300 003d 1F       		.byte	31
 301 003e 1F       		.byte	31
 302 003f 1F       		.byte	31
 303              		.text
 304              	.Letext0:
 305              		.file 2 ".\\Generated_Source\\PSoC4\\cytypes.h"
 306              		.file 3 ".\\Generated_Source\\PSoC4\\LCD.h"