ARM GAS  C:\Users\Petro\AppData\Local\Temp\ccKN27tN.s 			page 1


   1              		.cpu cortex-m0
   2              		.fpu softvfp
   3              		.eabi_attribute 20, 1
   4              		.eabi_attribute 21, 1
   5              		.eabi_attribute 23, 3
   6              		.eabi_attribute 24, 1
   7              		.eabi_attribute 25, 1
   8              		.eabi_attribute 26, 1
   9              		.eabi_attribute 30, 1
  10              		.eabi_attribute 34, 0
  11              		.eabi_attribute 18, 4
  12              		.code	16
  13              		.file	"main.c"
  14              		.text
  15              	.Ltext0:
  16              		.cfi_sections	.debug_frame
  17              		.section	.text.wireHandler,"ax",%progbits
  18              		.align	2
  19              		.global	wireHandler
  20              		.code	16
  21              		.thumb_func
  22              		.type	wireHandler, %function
  23              	wireHandler:
  24              	.LFB37:
  25              		.file 1 ".\\main.c"
   1:.\main.c      **** #include <project.h>
   2:.\main.c      **** //#include <stdlib.h>       //include for itoa()
   3:.\main.c      **** #include <stdio.h>          //include for sprintf()
   4:.\main.c      **** 
   5:.\main.c      **** struct time{
   6:.\main.c      ****     uint16_t hour;
   7:.\main.c      ****     uint16_t min;
   8:.\main.c      ****     uint16_t sec;
   9:.\main.c      ****     uint16_t msec;
  10:.\main.c      **** };        
  11:.\main.c      **** struct time wire = {0,0,0,0};
  12:.\main.c      **** struct time uart = {0,0,0,0};
  13:.\main.c      **** 
  14:.\main.c      **** CY_ISR(wireHandler)
  15:.\main.c      **** {
  26              		.loc 1 15 0
  27              		.cfi_startproc
  28 0000 08B5     		push	{r3, lr}
  29              		.cfi_def_cfa_offset 8
  30              		.cfi_offset 3, -8
  31              		.cfi_offset 14, -4
  16:.\main.c      ****     if (++wire.sec==59){
  32              		.loc 1 16 0
  33 0002 0F4A     		ldr	r2, .L3
  34 0004 9388     		ldrh	r3, [r2, #4]
  35 0006 0133     		add	r3, r3, #1
  36 0008 9BB2     		uxth	r3, r3
  37 000a 9380     		strh	r3, [r2, #4]
  38 000c 3B2B     		cmp	r3, #59
  39 000e 12D1     		bne	.L2
  17:.\main.c      ****         wire.sec = 0;   
  40              		.loc 1 17 0
ARM GAS  C:\Users\Petro\AppData\Local\Temp\ccKN27tN.s 			page 2


  41 0010 0023     		mov	r3, #0
  42 0012 9380     		strh	r3, [r2, #4]
  18:.\main.c      ****         if (++wire.min==59){
  43              		.loc 1 18 0
  44 0014 5388     		ldrh	r3, [r2, #2]
  45 0016 0133     		add	r3, r3, #1
  46 0018 9BB2     		uxth	r3, r3
  47 001a 5380     		strh	r3, [r2, #2]
  48 001c 3B2B     		cmp	r3, #59
  49 001e 0AD1     		bne	.L2
  19:.\main.c      ****             wire.min = 0;    
  50              		.loc 1 19 0
  51 0020 0023     		mov	r3, #0
  52 0022 5380     		strh	r3, [r2, #2]
  20:.\main.c      ****             if (++wire.hour==24) 
  53              		.loc 1 20 0
  54 0024 1388     		ldrh	r3, [r2]
  55 0026 0133     		add	r3, r3, #1
  56 0028 9BB2     		uxth	r3, r3
  57 002a 1380     		strh	r3, [r2]
  58 002c 182B     		cmp	r3, #24
  59 002e 02D1     		bne	.L2
  21:.\main.c      ****                 wire.hour = 0;   
  60              		.loc 1 21 0
  61 0030 0022     		mov	r2, #0
  62 0032 034B     		ldr	r3, .L3
  63 0034 1A80     		strh	r2, [r3]
  64              	.L2:
  22:.\main.c      ****         }  
  23:.\main.c      ****     }   
  24:.\main.c      ****     Timer_wire_ClearInterrupt(Timer_wire_INTR_MASK_CC_MATCH);
  65              		.loc 1 24 0
  66 0036 0220     		mov	r0, #2
  67 0038 FFF7FEFF 		bl	Timer_wire_ClearInterrupt
  68              	.LVL0:
  25:.\main.c      **** }
  69              		.loc 1 25 0
  70              		@ sp needed
  71 003c 08BD     		pop	{r3, pc}
  72              	.L4:
  73 003e C046     		.align	2
  74              	.L3:
  75 0040 00000000 		.word	.LANCHOR0
  76              		.cfi_endproc
  77              	.LFE37:
  78              		.size	wireHandler, .-wireHandler
  79              		.section	.text.uartHandler,"ax",%progbits
  80              		.align	2
  81              		.global	uartHandler
  82              		.code	16
  83              		.thumb_func
  84              		.type	uartHandler, %function
  85              	uartHandler:
  86              	.LFB38:
  26:.\main.c      **** CY_ISR(uartHandler)
  27:.\main.c      **** {
  87              		.loc 1 27 0
ARM GAS  C:\Users\Petro\AppData\Local\Temp\ccKN27tN.s 			page 3


  88              		.cfi_startproc
  89 0000 08B5     		push	{r3, lr}
  90              		.cfi_def_cfa_offset 8
  91              		.cfi_offset 3, -8
  92              		.cfi_offset 14, -4
  28:.\main.c      ****     if (++uart.sec==59){
  93              		.loc 1 28 0
  94 0002 0F4A     		ldr	r2, .L7
  95 0004 9389     		ldrh	r3, [r2, #12]
  96 0006 0133     		add	r3, r3, #1
  97 0008 9BB2     		uxth	r3, r3
  98 000a 9381     		strh	r3, [r2, #12]
  99 000c 3B2B     		cmp	r3, #59
 100 000e 12D1     		bne	.L6
  29:.\main.c      ****         uart.sec = 0;   
 101              		.loc 1 29 0
 102 0010 0023     		mov	r3, #0
 103 0012 9381     		strh	r3, [r2, #12]
  30:.\main.c      ****         if (++uart.min==59){
 104              		.loc 1 30 0
 105 0014 5389     		ldrh	r3, [r2, #10]
 106 0016 0133     		add	r3, r3, #1
 107 0018 9BB2     		uxth	r3, r3
 108 001a 5381     		strh	r3, [r2, #10]
 109 001c 3B2B     		cmp	r3, #59
 110 001e 0AD1     		bne	.L6
  31:.\main.c      ****             uart.min = 0;    
 111              		.loc 1 31 0
 112 0020 0023     		mov	r3, #0
 113 0022 5381     		strh	r3, [r2, #10]
  32:.\main.c      ****             if (++uart.hour==24) 
 114              		.loc 1 32 0
 115 0024 1389     		ldrh	r3, [r2, #8]
 116 0026 0133     		add	r3, r3, #1
 117 0028 9BB2     		uxth	r3, r3
 118 002a 1381     		strh	r3, [r2, #8]
 119 002c 182B     		cmp	r3, #24
 120 002e 02D1     		bne	.L6
  33:.\main.c      ****                 uart.hour = 0;   
 121              		.loc 1 33 0
 122 0030 0022     		mov	r2, #0
 123 0032 034B     		ldr	r3, .L7
 124 0034 1A81     		strh	r2, [r3, #8]
 125              	.L6:
  34:.\main.c      ****         }  
  35:.\main.c      ****     }   
  36:.\main.c      ****     Timer_uart_ClearInterrupt(Timer_uart_INTR_MASK_CC_MATCH);
 126              		.loc 1 36 0
 127 0036 0220     		mov	r0, #2
 128 0038 FFF7FEFF 		bl	Timer_uart_ClearInterrupt
 129              	.LVL1:
  37:.\main.c      **** }
 130              		.loc 1 37 0
 131              		@ sp needed
 132 003c 08BD     		pop	{r3, pc}
 133              	.L8:
 134 003e C046     		.align	2
ARM GAS  C:\Users\Petro\AppData\Local\Temp\ccKN27tN.s 			page 4


 135              	.L7:
 136 0040 00000000 		.word	.LANCHOR0
 137              		.cfi_endproc
 138              	.LFE38:
 139              		.size	uartHandler, .-uartHandler
 140              		.section	.text.stopHandler,"ax",%progbits
 141              		.align	2
 142              		.global	stopHandler
 143              		.code	16
 144              		.thumb_func
 145              		.type	stopHandler, %function
 146              	stopHandler:
 147              	.LFB39:
  38:.\main.c      **** CY_ISR(stopHandler)
  39:.\main.c      **** {
 148              		.loc 1 39 0
 149              		.cfi_startproc
 150 0000 08B5     		push	{r3, lr}
 151              		.cfi_def_cfa_offset 8
 152              		.cfi_offset 3, -8
 153              		.cfi_offset 14, -4
  40:.\main.c      ****     Timer_wire_Stop();
 154              		.loc 1 40 0
 155 0002 FFF7FEFF 		bl	Timer_wire_Stop
 156              	.LVL2:
  41:.\main.c      ****     Timer_uart_Stop();
 157              		.loc 1 41 0
 158 0006 FFF7FEFF 		bl	Timer_uart_Stop
 159              	.LVL3:
  42:.\main.c      ****     butt_stop_ClearInterrupt();
 160              		.loc 1 42 0
 161 000a FFF7FEFF 		bl	butt_stop_ClearInterrupt
 162              	.LVL4:
  43:.\main.c      **** }
 163              		.loc 1 43 0
 164              		@ sp needed
 165 000e 08BD     		pop	{r3, pc}
 166              		.cfi_endproc
 167              	.LFE39:
 168              		.size	stopHandler, .-stopHandler
 169              		.section	.text.wstartHandler,"ax",%progbits
 170              		.align	2
 171              		.global	wstartHandler
 172              		.code	16
 173              		.thumb_func
 174              		.type	wstartHandler, %function
 175              	wstartHandler:
 176              	.LFB40:
  44:.\main.c      **** CY_ISR(wstartHandler)
  45:.\main.c      **** {
 177              		.loc 1 45 0
 178              		.cfi_startproc
 179 0000 08B5     		push	{r3, lr}
 180              		.cfi_def_cfa_offset 8
 181              		.cfi_offset 3, -8
 182              		.cfi_offset 14, -4
  46:.\main.c      ****     Timer_wire_Start();
ARM GAS  C:\Users\Petro\AppData\Local\Temp\ccKN27tN.s 			page 5


 183              		.loc 1 46 0
 184 0002 FFF7FEFF 		bl	Timer_wire_Start
 185              	.LVL5:
  47:.\main.c      ****     pin_wire_ClearInterrupt();
 186              		.loc 1 47 0
 187 0006 FFF7FEFF 		bl	pin_wire_ClearInterrupt
 188              	.LVL6:
  48:.\main.c      **** }
 189              		.loc 1 48 0
 190              		@ sp needed
 191 000a 08BD     		pop	{r3, pc}
 192              		.cfi_endproc
 193              	.LFE40:
 194              		.size	wstartHandler, .-wstartHandler
 195              		.section	.text.ustartHandler,"ax",%progbits
 196              		.align	2
 197              		.global	ustartHandler
 198              		.code	16
 199              		.thumb_func
 200              		.type	ustartHandler, %function
 201              	ustartHandler:
 202              	.LFB41:
  49:.\main.c      **** CY_ISR(ustartHandler)
  50:.\main.c      **** {
 203              		.loc 1 50 0
 204              		.cfi_startproc
 205 0000 08B5     		push	{r3, lr}
 206              		.cfi_def_cfa_offset 8
 207              		.cfi_offset 3, -8
 208              		.cfi_offset 14, -4
  51:.\main.c      ****     if(UART_GetChar() == 's') 
 209              		.loc 1 51 0
 210 0002 FFF7FEFF 		bl	UART_GetChar
 211              	.LVL7:
 212 0006 7328     		cmp	r0, #115
 213 0008 01D1     		bne	.L12
  52:.\main.c      ****     Timer_uart_Start();
 214              		.loc 1 52 0
 215 000a FFF7FEFF 		bl	Timer_uart_Start
 216              	.LVL8:
 217              	.L12:
  53:.\main.c      ****     Pin_red_Write(~Pin_red_Read());
 218              		.loc 1 53 0
 219 000e FFF7FEFF 		bl	Pin_red_Read
 220              	.LVL9:
 221 0012 C043     		mvn	r0, r0
 222 0014 C0B2     		uxtb	r0, r0
 223 0016 FFF7FEFF 		bl	Pin_red_Write
 224              	.LVL10:
  54:.\main.c      **** }
 225              		.loc 1 54 0
 226              		@ sp needed
 227 001a 08BD     		pop	{r3, pc}
 228              		.cfi_endproc
 229              	.LFE41:
 230              		.size	ustartHandler, .-ustartHandler
 231              		.section	.text.main,"ax",%progbits
ARM GAS  C:\Users\Petro\AppData\Local\Temp\ccKN27tN.s 			page 6


 232              		.align	2
 233              		.global	main
 234              		.code	16
 235              		.thumb_func
 236              		.type	main, %function
 237              	main:
 238              	.LFB42:
  55:.\main.c      **** int main()
  56:.\main.c      **** {   
 239              		.loc 1 56 0
 240              		.cfi_startproc
 241 0000 10B5     		push	{r4, lr}
 242              		.cfi_def_cfa_offset 8
 243              		.cfi_offset 4, -8
 244              		.cfi_offset 14, -4
 245 0002 8AB0     		sub	sp, sp, #40
 246              		.cfi_def_cfa_offset 48
  57:.\main.c      ****     char out_buffer[32];
  58:.\main.c      ****     
  59:.\main.c      ****     CyGlobalIntEnable; /* Enable global interrupts. */
 247              		.loc 1 59 0
 248              	@ 59 ".\main.c" 1
 249 0004 62B6     		CPSIE   i
 250              	@ 0 "" 2
  60:.\main.c      ****     isr_wire_StartEx(wireHandler);
 251              		.loc 1 60 0
 252              		.code	16
 253 0006 1B48     		ldr	r0, .L15
 254 0008 FFF7FEFF 		bl	isr_wire_StartEx
 255              	.LVL11:
  61:.\main.c      ****     isr_uart_StartEx(uartHandler); 
 256              		.loc 1 61 0
 257 000c 1A48     		ldr	r0, .L15+4
 258 000e FFF7FEFF 		bl	isr_uart_StartEx
 259              	.LVL12:
  62:.\main.c      ****     isr_stop_StartEx(stopHandler);
 260              		.loc 1 62 0
 261 0012 1A48     		ldr	r0, .L15+8
 262 0014 FFF7FEFF 		bl	isr_stop_StartEx
 263              	.LVL13:
  63:.\main.c      ****     isr_wstart_StartEx(wstartHandler);
 264              		.loc 1 63 0
 265 0018 1948     		ldr	r0, .L15+12
 266 001a FFF7FEFF 		bl	isr_wstart_StartEx
 267              	.LVL14:
  64:.\main.c      ****     isr_ustart_StartEx(ustartHandler);
 268              		.loc 1 64 0
 269 001e 1948     		ldr	r0, .L15+16
 270 0020 FFF7FEFF 		bl	isr_ustart_StartEx
 271              	.LVL15:
  65:.\main.c      ****     UART_Start();
 272              		.loc 1 65 0
 273 0024 FFF7FEFF 		bl	UART_Start
 274              	.LVL16:
 275              	.L14:
  66:.\main.c      ****     //Timer_uart_Start();
  67:.\main.c      ****     //LCD_Start();   
ARM GAS  C:\Users\Petro\AppData\Local\Temp\ccKN27tN.s 			page 7


  68:.\main.c      ****     //LCD_Position(0,0);
  69:.\main.c      ****     //LCD_PrintString("Start-Finish ");
  70:.\main.c      ****     uint16_t counter;
  71:.\main.c      ****     for(;;)
  72:.\main.c      ****     {
  73:.\main.c      ****         //if(UART_UartGetChar() == 's') Timer_uart_Start();
  74:.\main.c      ****         counter = Timer_wire_ReadCounter();
 276              		.loc 1 74 0 discriminator 1
 277 0028 FFF7FEFF 		bl	Timer_wire_ReadCounter
 278              	.LVL17:
  75:.\main.c      ****         sprintf(out_buffer,"Wired: %i:%i:%i:%i\n\r",wire.hour,wire.min,wire.sec, counter);
 279              		.loc 1 75 0 discriminator 1
 280 002c 164C     		ldr	r4, .L15+20
 281 002e 2288     		ldrh	r2, [r4]
 282 0030 6388     		ldrh	r3, [r4, #2]
 283 0032 A188     		ldrh	r1, [r4, #4]
 284 0034 0091     		str	r1, [sp]
 285 0036 0004     		lsl	r0, r0, #16
 286              	.LVL18:
 287 0038 000C     		lsr	r0, r0, #16
 288 003a 0190     		str	r0, [sp, #4]
 289 003c 02A8     		add	r0, sp, #8
 290 003e 1349     		ldr	r1, .L15+24
 291 0040 FFF7FEFF 		bl	sprintf
 292              	.LVL19:
  76:.\main.c      ****         UART_PutString(out_buffer);
 293              		.loc 1 76 0 discriminator 1
 294 0044 02A8     		add	r0, sp, #8
 295 0046 FFF7FEFF 		bl	UART_PutString
 296              	.LVL20:
  77:.\main.c      ****         counter = Timer_uart_ReadCounter();
 297              		.loc 1 77 0 discriminator 1
 298 004a FFF7FEFF 		bl	Timer_uart_ReadCounter
 299              	.LVL21:
  78:.\main.c      ****         sprintf(out_buffer,"Xbee:  %i:%i:%i:%i\n\n\r",uart.hour,uart.min,uart.sec, counter);
 300              		.loc 1 78 0 discriminator 1
 301 004e 2289     		ldrh	r2, [r4, #8]
 302 0050 6389     		ldrh	r3, [r4, #10]
 303 0052 A189     		ldrh	r1, [r4, #12]
 304 0054 0091     		str	r1, [sp]
 305 0056 0004     		lsl	r0, r0, #16
 306              	.LVL22:
 307 0058 000C     		lsr	r0, r0, #16
 308 005a 0190     		str	r0, [sp, #4]
 309 005c 02A8     		add	r0, sp, #8
 310 005e 0C49     		ldr	r1, .L15+28
 311 0060 FFF7FEFF 		bl	sprintf
 312              	.LVL23:
  79:.\main.c      ****         UART_PutString(out_buffer);
 313              		.loc 1 79 0 discriminator 1
 314 0064 02A8     		add	r0, sp, #8
 315 0066 FFF7FEFF 		bl	UART_PutString
 316              	.LVL24:
  80:.\main.c      ****         CyDelay(100);
 317              		.loc 1 80 0 discriminator 1
 318 006a 6420     		mov	r0, #100
 319 006c FFF7FEFF 		bl	CyDelay
ARM GAS  C:\Users\Petro\AppData\Local\Temp\ccKN27tN.s 			page 8


 320              	.LVL25:
  81:.\main.c      ****     }
 321              		.loc 1 81 0 discriminator 1
 322 0070 DAE7     		b	.L14
 323              	.L16:
 324 0072 C046     		.align	2
 325              	.L15:
 326 0074 00000000 		.word	wireHandler
 327 0078 00000000 		.word	uartHandler
 328 007c 00000000 		.word	stopHandler
 329 0080 00000000 		.word	wstartHandler
 330 0084 00000000 		.word	ustartHandler
 331 0088 00000000 		.word	.LANCHOR0
 332 008c 00000000 		.word	.LC8
 333 0090 18000000 		.word	.LC10
 334              		.cfi_endproc
 335              	.LFE42:
 336              		.size	main, .-main
 337              		.global	uart
 338              		.global	wire
 339              		.section	.rodata.str1.4,"aMS",%progbits,1
 340              		.align	2
 341              	.LC8:
 342 0000 57697265 		.ascii	"Wired: %i:%i:%i:%i\012\015\000"
 342      643A2025 
 342      693A2569 
 342      3A25693A 
 342      25690A0D 
 343 0015 000000   		.space	3
 344              	.LC10:
 345 0018 58626565 		.ascii	"Xbee:  %i:%i:%i:%i\012\012\015\000"
 345      3A202025 
 345      693A2569 
 345      3A25693A 
 345      25690A0A 
 346 002e 0000     		.bss
 347              		.align	2
 348              		.set	.LANCHOR0,. + 0
 349              		.type	wire, %object
 350              		.size	wire, 8
 351              	wire:
 352 0000 00000000 		.space	8
 352      00000000 
 353              		.type	uart, %object
 354              		.size	uart, 8
 355              	uart:
 356 0008 00000000 		.space	8
 356      00000000 
 357              		.text
 358              	.Letext0:
 359              		.file 2 "c:\\program files (x86)\\cypress\\psoc creator\\3.3\\psoc creator\\import\\gnu\\arm\\4.9.
 360              		.file 3 "c:\\program files (x86)\\cypress\\psoc creator\\3.3\\psoc creator\\import\\gnu\\arm\\4.9.
 361              		.file 4 "Generated_Source\\PSoC4/cytypes.h"
 362              		.file 5 "Generated_Source\\PSoC4/Timer_wire.h"
 363              		.file 6 "Generated_Source\\PSoC4/Timer_uart.h"
 364              		.file 7 "Generated_Source\\PSoC4/butt_stop.h"
 365              		.file 8 "Generated_Source\\PSoC4/pin_wire.h"
ARM GAS  C:\Users\Petro\AppData\Local\Temp\ccKN27tN.s 			page 9


 366              		.file 9 "Generated_Source\\PSoC4/UART.h"
 367              		.file 10 "Generated_Source\\PSoC4/Pin_red.h"
 368              		.file 11 "Generated_Source\\PSoC4/isr_wire.h"
 369              		.file 12 "Generated_Source\\PSoC4/isr_uart.h"
 370              		.file 13 "Generated_Source\\PSoC4/isr_stop.h"
 371              		.file 14 "Generated_Source\\PSoC4/isr_wstart.h"
 372              		.file 15 "Generated_Source\\PSoC4/isr_ustart.h"
 373              		.file 16 "c:\\program files (x86)\\cypress\\psoc creator\\3.3\\psoc creator\\import\\gnu\\arm\\4.9
 374              		.file 17 "Generated_Source\\PSoC4/CyLib.h"