ARM GAS  C:\Users\Petro\AppData\Local\Temp\ccUE2yAk.s 			page 1


   1              		.cpu cortex-m0
   2              		.fpu softvfp
   3              		.eabi_attribute 20, 1
   4              		.eabi_attribute 21, 1
   5              		.eabi_attribute 23, 3
   6              		.eabi_attribute 24, 1
   7              		.eabi_attribute 25, 1
   8              		.eabi_attribute 26, 1
   9              		.eabi_attribute 30, 1
  10              		.eabi_attribute 34, 0
  11              		.eabi_attribute 18, 4
  12              		.code	16
  13              		.file	"main.c"
  14              		.text
  15              	.Ltext0:
  16              		.cfi_sections	.debug_frame
  17              		.section	.text.buttHandler,"ax",%progbits
  18              		.align	2
  19              		.global	buttHandler
  20              		.code	16
  21              		.thumb_func
  22              		.type	buttHandler, %function
  23              	buttHandler:
  24              	.LFB34:
  25              		.file 1 ".\\main.c"
   1:.\main.c      **** #include <project.h>
   2:.\main.c      **** 
   3:.\main.c      **** CY_ISR(buttHandler)
   4:.\main.c      **** {
  26              		.loc 1 4 0
  27              		.cfi_startproc
  28 0000 08B5     		push	{r3, lr}
  29              		.cfi_def_cfa_offset 8
  30              		.cfi_offset 3, -8
  31              		.cfi_offset 14, -4
   5:.\main.c      ****     Pin_blue_Write(~Pin_blue_Read());
  32              		.loc 1 5 0
  33 0002 FFF7FEFF 		bl	Pin_blue_Read
  34              	.LVL0:
  35 0006 C043     		mvn	r0, r0
  36 0008 C0B2     		uxtb	r0, r0
  37 000a FFF7FEFF 		bl	Pin_blue_Write
  38              	.LVL1:
   6:.\main.c      ****     Pin_wire_Write(1);
  39              		.loc 1 6 0
  40 000e 0120     		mov	r0, #1
  41 0010 FFF7FEFF 		bl	Pin_wire_Write
  42              	.LVL2:
   7:.\main.c      ****     //CyDelay(1);
   8:.\main.c      ****     Pin_wire_Write(0);
  43              		.loc 1 8 0
  44 0014 0020     		mov	r0, #0
  45 0016 FFF7FEFF 		bl	Pin_wire_Write
  46              	.LVL3:
   9:.\main.c      ****     UART_UartPutString("start\0");
  47              		.loc 1 9 0
  48 001a 0348     		ldr	r0, .L2
ARM GAS  C:\Users\Petro\AppData\Local\Temp\ccUE2yAk.s 			page 2


  49 001c FFF7FEFF 		bl	UART_UartPutString
  50              	.LVL4:
  10:.\main.c      ****     
  11:.\main.c      ****     Pin_start_ClearInterrupt(); 
  51              		.loc 1 11 0
  52 0020 FFF7FEFF 		bl	Pin_start_ClearInterrupt
  53              	.LVL5:
  12:.\main.c      **** }
  54              		.loc 1 12 0
  55              		@ sp needed
  56 0024 08BD     		pop	{r3, pc}
  57              	.L3:
  58 0026 C046     		.align	2
  59              	.L2:
  60 0028 00000000 		.word	.LANCHOR0
  61              		.cfi_endproc
  62              	.LFE34:
  63              		.size	buttHandler, .-buttHandler
  64              		.section	.text.main,"ax",%progbits
  65              		.align	2
  66              		.global	main
  67              		.code	16
  68              		.thumb_func
  69              		.type	main, %function
  70              	main:
  71              	.LFB35:
  13:.\main.c      **** 
  14:.\main.c      **** int main()
  15:.\main.c      **** {
  72              		.loc 1 15 0
  73              		.cfi_startproc
  74 0000 08B5     		push	{r3, lr}
  75              		.cfi_def_cfa_offset 8
  76              		.cfi_offset 3, -8
  77              		.cfi_offset 14, -4
  16:.\main.c      ****     CyGlobalIntEnable; /* Enable global interrupts. */
  78              		.loc 1 16 0
  79              	@ 16 ".\main.c" 1
  80 0002 62B6     		CPSIE   i
  81              	@ 0 "" 2
  17:.\main.c      ****     UART_Start();
  82              		.loc 1 17 0
  83              		.code	16
  84 0004 FFF7FEFF 		bl	UART_Start
  85              	.LVL6:
  18:.\main.c      ****     int_start_StartEx(buttHandler);
  86              		.loc 1 18 0
  87 0008 0848     		ldr	r0, .L6
  88 000a FFF7FEFF 		bl	int_start_StartEx
  89              	.LVL7:
  90              	.L5:
  19:.\main.c      ****     for(;;)
  20:.\main.c      ****     {  
  21:.\main.c      ****         UART_UartPutChar('f');
  91              		.loc 1 21 0 discriminator 1
  92 000e 6620     		mov	r0, #102
  93 0010 FFF7FEFF 		bl	UART_SpiUartWriteTxData
ARM GAS  C:\Users\Petro\AppData\Local\Temp\ccUE2yAk.s 			page 3


  94              	.LVL8:
  22:.\main.c      ****         Pin_green_Write(~Pin_green_Read());
  95              		.loc 1 22 0 discriminator 1
  96 0014 FFF7FEFF 		bl	Pin_green_Read
  97              	.LVL9:
  98 0018 C043     		mvn	r0, r0
  99 001a C0B2     		uxtb	r0, r0
 100 001c FFF7FEFF 		bl	Pin_green_Write
 101              	.LVL10:
  23:.\main.c      ****         CyDelay(500);
 102              		.loc 1 23 0 discriminator 1
 103 0020 FA20     		mov	r0, #250
 104 0022 4000     		lsl	r0, r0, #1
 105 0024 FFF7FEFF 		bl	CyDelay
 106              	.LVL11:
  24:.\main.c      ****     }
 107              		.loc 1 24 0 discriminator 1
 108 0028 F1E7     		b	.L5
 109              	.L7:
 110 002a C046     		.align	2
 111              	.L6:
 112 002c 00000000 		.word	buttHandler
 113              		.cfi_endproc
 114              	.LFE35:
 115              		.size	main, .-main
 116              		.section	.rodata
 117              		.align	2
 118              		.set	.LANCHOR0,. + 0
 119              	.LC0:
 120 0000 73746172 		.ascii	"start\000\000"
 120      740000
 121 0007 00       		.text
 122              	.Letext0:
 123              		.file 2 "Generated_Source\\PSoC4/cytypes.h"
 124              		.file 3 "Generated_Source\\PSoC4/Pin_blue.h"
 125              		.file 4 "Generated_Source\\PSoC4/Pin_wire.h"
 126              		.file 5 "Generated_Source\\PSoC4/UART_SPI_UART.h"
 127              		.file 6 "Generated_Source\\PSoC4/Pin_start.h"
 128              		.file 7 "Generated_Source\\PSoC4/int_start.h"
 129              		.file 8 "Generated_Source\\PSoC4/Pin_green.h"
 130              		.file 9 "Generated_Source\\PSoC4/UART.h"
 131              		.file 10 "Generated_Source\\PSoC4/CyLib.h"