ARM GAS  C:\Users\Petro\AppData\Local\Temp\ccbUb65J.s 			page 1


   1              		.cpu cortex-m0
   2              		.fpu softvfp
   3              		.eabi_attribute 20, 1
   4              		.eabi_attribute 21, 1
   5              		.eabi_attribute 23, 3
   6              		.eabi_attribute 24, 1
   7              		.eabi_attribute 25, 1
   8              		.eabi_attribute 26, 1
   9              		.eabi_attribute 30, 4
  10              		.eabi_attribute 34, 0
  11              		.eabi_attribute 18, 4
  12              		.code	16
  13              		.file	"display.c"
  14              		.text
  15              	.Ltext0:
  16              		.cfi_sections	.debug_frame
  17              		.section	.text.DisplayStart,"ax",%progbits
  18              		.align	1
  19              		.global	DisplayStart
  20              		.code	16
  21              		.thumb_func
  22              		.type	DisplayStart, %function
  23              	DisplayStart:
  24              	.LFB63:
  25              		.file 1 "..\\..\\common\\lib\\lib_Display\\display.c"
   1:..\..\common\lib\lib_Display/display.c **** 
   2:..\..\common\lib\lib_Display/display.c **** #include <CyLib.h>
   3:..\..\common\lib\lib_Display/display.c **** #include <stdio.h>
   4:..\..\common\lib\lib_Display/display.c **** //#include "lib_RTC\RTC_WDT.h"
   5:..\..\common\lib\lib_Display/display.c **** #include "..\..\common\lib\lib_Display\display.h"
   6:..\..\common\lib\lib_Display/display.c **** #include "..\..\common\lib\nokia5110\LCD5110_Graph.h"
   7:..\..\common\lib\lib_Display/display.c **** #include "project.h"
   8:..\..\common\lib\lib_Display/display.c **** 
   9:..\..\common\lib\lib_Display/display.c **** /*resistive voltage divider 1/10 */
  10:..\..\common\lib\lib_Display/display.c **** #define BATT_0_PERCENT      0.40
  11:..\..\common\lib\lib_Display/display.c **** #define BATT_25_PERCENT     0.42
  12:..\..\common\lib\lib_Display/display.c **** #define BATT_50_PERCENT     0.44
  13:..\..\common\lib\lib_Display/display.c **** #define BATT_75_PERCENT     0.46
  14:..\..\common\lib\lib_Display/display.c **** #define BATT_100_PERCENT    0.48
  15:..\..\common\lib\lib_Display/display.c **** 
  16:..\..\common\lib\lib_Display/display.c **** #define MAX_LEN_DISPLAY     11
  17:..\..\common\lib\lib_Display/display.c **** 
  18:..\..\common\lib\lib_Display/display.c **** /*network quality*/
  19:..\..\common\lib\lib_Display/display.c **** #define NUM_STICK_NETWORK_QUALITY   4
  20:..\..\common\lib\lib_Display/display.c **** 
  21:..\..\common\lib\lib_Display/display.c **** extern unsigned char SmallFont[];
  22:..\..\common\lib\lib_Display/display.c **** extern unsigned char TinyFont[];
  23:..\..\common\lib\lib_Display/display.c **** extern unsigned char BigNumbers[];
  24:..\..\common\lib\lib_Display/display.c **** extern unsigned char MediumNumbers[];
  25:..\..\common\lib\lib_Display/display.c **** extern uint8_t logoCypress[];
  26:..\..\common\lib\lib_Display/display.c **** extern uint8_t homeSkreen[];
  27:..\..\common\lib\lib_Display/display.c **** extern uint8_t homeSkreenNull[];
  28:..\..\common\lib\lib_Display/display.c **** extern uint8_t networkOn[];
  29:..\..\common\lib\lib_Display/display.c **** extern uint8_t SDinsert[];
  30:..\..\common\lib\lib_Display/display.c **** extern uint8_t SDnoInsert[];
  31:..\..\common\lib\lib_Display/display.c **** 
  32:..\..\common\lib\lib_Display/display.c **** /*buffer for print string on LCD*/
ARM GAS  C:\Users\Petro\AppData\Local\Temp\ccbUb65J.s 			page 2


  33:..\..\common\lib\lib_Display/display.c **** static  char buff[100];
  34:..\..\common\lib\lib_Display/display.c **** 
  35:..\..\common\lib\lib_Display/display.c **** 
  36:..\..\common\lib\lib_Display/display.c **** /*******************************************************************************
  37:..\..\common\lib\lib_Display/display.c **** * Function name: DisplayConfig
  38:..\..\common\lib\lib_Display/display.c **** ********************************************************************************
  39:..\..\common\lib\lib_Display/display.c **** *
  40:..\..\common\lib\lib_Display/display.c **** * Summary:
  41:..\..\common\lib\lib_Display/display.c **** * initialization display
  42:..\..\common\lib\lib_Display/display.c **** *
  43:..\..\common\lib\lib_Display/display.c **** *******************************************************************************/	
  44:..\..\common\lib\lib_Display/display.c **** void DisplayStart(void)
  45:..\..\common\lib\lib_Display/display.c **** {
  26              		.loc 1 45 0
  27              		.cfi_startproc
  28 0000 07B5     		push	{r0, r1, r2, lr}
  29              		.cfi_def_cfa_offset 16
  30              		.cfi_offset 0, -16
  31              		.cfi_offset 1, -12
  32              		.cfi_offset 2, -8
  33              		.cfi_offset 14, -4
  46:..\..\common\lib\lib_Display/display.c ****     /*backlight off*/
  47:..\..\common\lib\lib_Display/display.c ****     LCD_BL_Write(0);
  34              		.loc 1 47 0
  35 0002 0020     		mov	r0, #0
  36 0004 FFF7FEFF 		bl	LCD_BL_Write
  37              	.LVL0:
  48:..\..\common\lib\lib_Display/display.c ****     
  49:..\..\common\lib\lib_Display/display.c ****     InitLCD(LCD_CONTRAST);
  38              		.loc 1 49 0
  39 0008 4620     		mov	r0, #70
  40 000a FFF7FEFF 		bl	InitLCD
  41              	.LVL1:
  50:..\..\common\lib\lib_Display/display.c ****     setFont(SmallFont);
  42              		.loc 1 50 0
  43 000e 0848     		ldr	r0, .L2
  44 0010 FFF7FEFF 		bl	setFont
  45              	.LVL2:
  51:..\..\common\lib\lib_Display/display.c ****     clrScr();
  46              		.loc 1 51 0
  47 0014 FFF7FEFF 		bl	clrScr
  48              	.LVL3:
  52:..\..\common\lib\lib_Display/display.c ****     drawBitmap(0, 0, homeSkreenNull, 84, 48);
  49              		.loc 1 52 0
  50 0018 0020     		mov	r0, #0
  51 001a 3023     		mov	r3, #48
  52 001c 011C     		mov	r1, r0
  53 001e 0093     		str	r3, [sp]
  54 0020 044A     		ldr	r2, .L2+4
  55 0022 2433     		add	r3, r3, #36
  56 0024 FFF7FEFF 		bl	drawBitmap
  57              	.LVL4:
  53:..\..\common\lib\lib_Display/display.c ****     update();
  54:..\..\common\lib\lib_Display/display.c **** }
  58              		.loc 1 54 0
  59              		@ sp needed
  53:..\..\common\lib\lib_Display/display.c ****     update();
ARM GAS  C:\Users\Petro\AppData\Local\Temp\ccbUb65J.s 			page 3


  60              		.loc 1 53 0
  61 0028 FFF7FEFF 		bl	update
  62              	.LVL5:
  63              		.loc 1 54 0
  64 002c 07BD     		pop	{r0, r1, r2, pc}
  65              	.L3:
  66 002e C046     		.align	2
  67              	.L2:
  68 0030 00000000 		.word	SmallFont
  69 0034 00000000 		.word	homeSkreenNull
  70              		.cfi_endproc
  71              	.LFE63:
  72              		.size	DisplayStart, .-DisplayStart
  73              		.section	.text.Display,"ax",%progbits
  74              		.align	1
  75              		.global	Display
  76              		.code	16
  77              		.thumb_func
  78              		.type	Display, %function
  79              	Display:
  80              	.LFB64:
  55:..\..\common\lib\lib_Display/display.c **** 	
  56:..\..\common\lib\lib_Display/display.c **** 
  57:..\..\common\lib\lib_Display/display.c **** /*******************************************************************************
  58:..\..\common\lib\lib_Display/display.c **** * Function Name: DisplayPrintf
  59:..\..\common\lib\lib_Display/display.c **** ********************************************************************************
  60:..\..\common\lib\lib_Display/display.c **** *
  61:..\..\common\lib\lib_Display/display.c **** * Summary:
  62:..\..\common\lib\lib_Display/display.c **** *   Writes a zero terminated string to the LCD.
  63:..\..\common\lib\lib_Display/display.c **** *
  64:..\..\common\lib\lib_Display/display.c **** * Parameters:
  65:..\..\common\lib\lib_Display/display.c **** *  string: Pointer to head of char8 array to be written to the LCD module
  66:..\..\common\lib\lib_Display/display.c **** * Note:
  67:..\..\common\lib\lib_Display/display.c **** *   print string from position row = 0, column = 0
  68:..\..\common\lib\lib_Display/display.c **** *
  69:..\..\common\lib\lib_Display/display.c **** *******************************************************************************/
  70:..\..\common\lib\lib_Display/display.c **** void Display(char *message)
  71:..\..\common\lib\lib_Display/display.c **** {    
  81              		.loc 1 71 0
  82              		.cfi_startproc
  83              	.LVL6:
  84 0000 7FB5     		push	{r0, r1, r2, r3, r4, r5, r6, lr}
  85              		.cfi_def_cfa_offset 32
  86              		.cfi_offset 0, -32
  87              		.cfi_offset 1, -28
  88              		.cfi_offset 2, -24
  89              		.cfi_offset 3, -20
  90              		.cfi_offset 4, -16
  91              		.cfi_offset 5, -12
  92              		.cfi_offset 6, -8
  93              		.cfi_offset 14, -4
  72:..\..\common\lib\lib_Display/display.c ****     uint8_t len;
  73:..\..\common\lib\lib_Display/display.c ****     char strNull[11] = {"           "};
  94              		.loc 1 73 0
  95 0002 0B25     		mov	r5, #11
  71:..\..\common\lib\lib_Display/display.c ****     uint8_t len;
  96              		.loc 1 71 0
ARM GAS  C:\Users\Petro\AppData\Local\Temp\ccbUb65J.s 			page 4


  97 0004 061C     		mov	r6, r0
  98              		.loc 1 73 0
  99 0006 1149     		ldr	r1, .L7
 100 0008 2A1C     		mov	r2, r5
 101 000a 01A8     		add	r0, sp, #4
 102              	.LVL7:
 103 000c FFF7FEFF 		bl	memcpy
 104              	.LVL8:
  74:..\..\common\lib\lib_Display/display.c ****     strncpy(buff,message,MAX_LEN_DISPLAY);
 105              		.loc 1 74 0
 106 0010 0F4C     		ldr	r4, .L7+4
 107 0012 311C     		mov	r1, r6
 108 0014 2A1C     		mov	r2, r5
 109 0016 201C     		mov	r0, r4
 110 0018 FFF7FEFF 		bl	strncpy
 111              	.LVL9:
  75:..\..\common\lib\lib_Display/display.c ****     len = strlen(message);
 112              		.loc 1 75 0
 113 001c 301C     		mov	r0, r6
 114 001e FFF7FEFF 		bl	strlen
 115              	.LVL10:
  76:..\..\common\lib\lib_Display/display.c ****     if(len < MAX_LEN_DISPLAY)
 116              		.loc 1 76 0
 117 0022 C3B2     		uxtb	r3, r0
 118 0024 0A2B     		cmp	r3, #10
 119 0026 05D8     		bhi	.L5
 120 0028 C2B2     		uxtb	r2, r0
  77:..\..\common\lib\lib_Display/display.c ****     {
  78:..\..\common\lib\lib_Display/display.c ****         strncat(buff,strNull,MAX_LEN_DISPLAY-len);
 121              		.loc 1 78 0
 122 002a AA1A     		sub	r2, r5, r2
 123 002c 201C     		mov	r0, r4
 124              	.LVL11:
 125 002e 01A9     		add	r1, sp, #4
 126 0030 FFF7FEFF 		bl	strncat
 127              	.LVL12:
 128              	.L5:
  79:..\..\common\lib\lib_Display/display.c ****     }
  80:..\..\common\lib\lib_Display/display.c ****     
  81:..\..\common\lib\lib_Display/display.c ****     setFont(SmallFont);
 129              		.loc 1 81 0
 130 0034 0748     		ldr	r0, .L7+8
 131 0036 FFF7FEFF 		bl	setFont
 132              	.LVL13:
  82:..\..\common\lib\lib_Display/display.c ****     print(buff,8,40);
 133              		.loc 1 82 0
 134 003a 201C     		mov	r0, r4
 135 003c 0821     		mov	r1, #8
 136 003e 2822     		mov	r2, #40
 137 0040 FFF7FEFF 		bl	print
 138              	.LVL14:
  83:..\..\common\lib\lib_Display/display.c ****     update();
  84:..\..\common\lib\lib_Display/display.c **** }
 139              		.loc 1 84 0
 140              		@ sp needed
  83:..\..\common\lib\lib_Display/display.c ****     update();
 141              		.loc 1 83 0
ARM GAS  C:\Users\Petro\AppData\Local\Temp\ccbUb65J.s 			page 5


 142 0044 FFF7FEFF 		bl	update
 143              	.LVL15:
 144              	.LVL16:
 145              		.loc 1 84 0
 146 0048 7FBD     		pop	{r0, r1, r2, r3, r4, r5, r6, pc}
 147              	.L8:
 148 004a C046     		.align	2
 149              	.L7:
 150 004c 00000000 		.word	.LANCHOR0
 151 0050 00000000 		.word	.LANCHOR1
 152 0054 00000000 		.word	SmallFont
 153              		.cfi_endproc
 154              	.LFE64:
 155              		.size	Display, .-Display
 156              		.section	.text.DisplayIndicatorSD,"ax",%progbits
 157              		.align	1
 158              		.global	DisplayIndicatorSD
 159              		.code	16
 160              		.thumb_func
 161              		.type	DisplayIndicatorSD, %function
 162              	DisplayIndicatorSD:
 163              	.LFB65:
  85:..\..\common\lib\lib_Display/display.c **** 
  86:..\..\common\lib\lib_Display/display.c **** /*******************************************************************************
  87:..\..\common\lib\lib_Display/display.c **** * Function name: DisplayPutIndicatorSD
  88:..\..\common\lib\lib_Display/display.c **** ********************************************************************************
  89:..\..\common\lib\lib_Display/display.c **** *
  90:..\..\common\lib\lib_Display/display.c **** * Summary:
  91:..\..\common\lib\lib_Display/display.c **** *   print incator SD card 
  92:..\..\common\lib\lib_Display/display.c **** *
  93:..\..\common\lib\lib_Display/display.c **** * Parametrs:
  94:..\..\common\lib\lib_Display/display.c **** *   state = SD_INSERT or state = SD_NO_INSERT
  95:..\..\common\lib\lib_Display/display.c **** *******************************************************************************/
  96:..\..\common\lib\lib_Display/display.c **** void DisplayIndicatorSD(SDindicator indicator)
  97:..\..\common\lib\lib_Display/display.c **** {
 164              		.loc 1 97 0
 165              		.cfi_startproc
 166              	.LVL17:
 167 0000 0823     		mov	r3, #8
 168 0002 07B5     		push	{r0, r1, r2, lr}
 169              		.cfi_def_cfa_offset 16
 170              		.cfi_offset 0, -16
 171              		.cfi_offset 1, -12
 172              		.cfi_offset 2, -8
 173              		.cfi_offset 14, -4
  98:..\..\common\lib\lib_Display/display.c ****     if(indicator == SD_INSERT)
  99:..\..\common\lib\lib_Display/display.c ****     {
 100:..\..\common\lib\lib_Display/display.c ****         drawBitmap(64, 1, SDinsert, 10, 8);
 174              		.loc 1 100 0
 175 0004 0093     		str	r3, [sp]
  98:..\..\common\lib\lib_Display/display.c ****     if(indicator == SD_INSERT)
 176              		.loc 1 98 0
 177 0006 0028     		cmp	r0, #0
 178 0008 04D1     		bne	.L10
 179              		.loc 1 100 0
 180 000a 4030     		add	r0, r0, #64
 181              	.LVL18:
ARM GAS  C:\Users\Petro\AppData\Local\Temp\ccbUb65J.s 			page 6


 182 000c 0121     		mov	r1, #1
 183 000e 064A     		ldr	r2, .L13
 184 0010 0233     		add	r3, r3, #2
 185 0012 03E0     		b	.L12
 186              	.LVL19:
 187              	.L10:
 101:..\..\common\lib\lib_Display/display.c ****     }
 102:..\..\common\lib\lib_Display/display.c ****     else
 103:..\..\common\lib\lib_Display/display.c ****     {
 104:..\..\common\lib\lib_Display/display.c ****         drawBitmap(64, 1, SDnoInsert, 10, 8);
 188              		.loc 1 104 0
 189 0014 4020     		mov	r0, #64
 190              	.LVL20:
 191 0016 0121     		mov	r1, #1
 192 0018 0A23     		mov	r3, #10
 193 001a 044A     		ldr	r2, .L13+4
 194              	.L12:
 195 001c FFF7FEFF 		bl	drawBitmap
 196              	.LVL21:
 105:..\..\common\lib\lib_Display/display.c ****     }
 106:..\..\common\lib\lib_Display/display.c ****     update();
 107:..\..\common\lib\lib_Display/display.c **** }
 197              		.loc 1 107 0
 198              		@ sp needed
 106:..\..\common\lib\lib_Display/display.c **** }
 199              		.loc 1 106 0
 200 0020 FFF7FEFF 		bl	update
 201              	.LVL22:
 202              		.loc 1 107 0
 203 0024 07BD     		pop	{r0, r1, r2, pc}
 204              	.L14:
 205 0026 C046     		.align	2
 206              	.L13:
 207 0028 00000000 		.word	SDinsert
 208 002c 00000000 		.word	SDnoInsert
 209              		.cfi_endproc
 210              	.LFE65:
 211              		.size	DisplayIndicatorSD, .-DisplayIndicatorSD
 212              		.section	.text.DisplayIndicatorNetwork,"ax",%progbits
 213              		.align	1
 214              		.global	DisplayIndicatorNetwork
 215              		.code	16
 216              		.thumb_func
 217              		.type	DisplayIndicatorNetwork, %function
 218              	DisplayIndicatorNetwork:
 219              	.LFB66:
 108:..\..\common\lib\lib_Display/display.c **** 
 109:..\..\common\lib\lib_Display/display.c **** /*******************************************************************************
 110:..\..\common\lib\lib_Display/display.c **** * Function name: DisplayPutIndicatorNetwork
 111:..\..\common\lib\lib_Display/display.c **** ********************************************************************************
 112:..\..\common\lib\lib_Display/display.c **** *
 113:..\..\common\lib\lib_Display/display.c **** * Summary:
 114:..\..\common\lib\lib_Display/display.c **** *   print incator connect  from position row = 1, column = 15
 115:..\..\common\lib\lib_Display/display.c **** *
 116:..\..\common\lib\lib_Display/display.c **** * Parametrs:
 117:..\..\common\lib\lib_Display/display.c **** *   state = CONNECT or state = DISCONNECT
 118:..\..\common\lib\lib_Display/display.c **** *******************************************************************************/
ARM GAS  C:\Users\Petro\AppData\Local\Temp\ccbUb65J.s 			page 7


 119:..\..\common\lib\lib_Display/display.c **** void DisplayIndicatorNetwork(NetworkIndicator indicator)
 120:..\..\common\lib\lib_Display/display.c **** {
 220              		.loc 1 120 0
 221              		.cfi_startproc
 222              	.LVL23:
 223 0000 07B5     		push	{r0, r1, r2, lr}
 224              		.cfi_def_cfa_offset 16
 225              		.cfi_offset 0, -16
 226              		.cfi_offset 1, -12
 227              		.cfi_offset 2, -8
 228              		.cfi_offset 14, -4
 121:..\..\common\lib\lib_Display/display.c ****     if(indicator == CONNECT)
 229              		.loc 1 121 0
 230 0002 0028     		cmp	r0, #0
 231 0004 08D1     		bne	.L16
 122:..\..\common\lib\lib_Display/display.c ****     {
 123:..\..\common\lib\lib_Display/display.c ****         drawBitmap(1,3,networkOn,6,35);
 232              		.loc 1 123 0
 233 0006 2323     		mov	r3, #35
 234 0008 0130     		add	r0, r0, #1
 235              	.LVL24:
 236 000a 0093     		str	r3, [sp]
 237 000c 0321     		mov	r1, #3
 238 000e 104A     		ldr	r2, .L18
 239 0010 1D3B     		sub	r3, r3, #29
 240 0012 FFF7FEFF 		bl	drawBitmap
 241              	.LVL25:
 242 0016 18E0     		b	.L17
 243              	.LVL26:
 244              	.L16:
 124:..\..\common\lib\lib_Display/display.c ****     }
 125:..\..\common\lib\lib_Display/display.c ****     else
 126:..\..\common\lib\lib_Display/display.c ****     {
 127:..\..\common\lib\lib_Display/display.c ****         clrVLine(1,3,35);
 245              		.loc 1 127 0
 246 0018 0120     		mov	r0, #1
 247              	.LVL27:
 248 001a 0321     		mov	r1, #3
 249 001c 2322     		mov	r2, #35
 250 001e FFF7FEFF 		bl	clrVLine
 251              	.LVL28:
 128:..\..\common\lib\lib_Display/display.c ****         clrVLine(2,3,35);
 252              		.loc 1 128 0
 253 0022 0220     		mov	r0, #2
 254 0024 0321     		mov	r1, #3
 255 0026 2322     		mov	r2, #35
 256 0028 FFF7FEFF 		bl	clrVLine
 257              	.LVL29:
 129:..\..\common\lib\lib_Display/display.c ****         clrVLine(3,3,35);
 258              		.loc 1 129 0
 259 002c 0320     		mov	r0, #3
 260 002e 2322     		mov	r2, #35
 261 0030 011C     		mov	r1, r0
 262 0032 FFF7FEFF 		bl	clrVLine
 263              	.LVL30:
 130:..\..\common\lib\lib_Display/display.c ****         clrVLine(4,3,35);
 264              		.loc 1 130 0
ARM GAS  C:\Users\Petro\AppData\Local\Temp\ccbUb65J.s 			page 8


 265 0036 0420     		mov	r0, #4
 266 0038 0321     		mov	r1, #3
 267 003a 2322     		mov	r2, #35
 268 003c FFF7FEFF 		bl	clrVLine
 269              	.LVL31:
 131:..\..\common\lib\lib_Display/display.c ****         clrVLine(5,3,35);
 270              		.loc 1 131 0
 271 0040 0520     		mov	r0, #5
 272 0042 0321     		mov	r1, #3
 273 0044 2322     		mov	r2, #35
 274 0046 FFF7FEFF 		bl	clrVLine
 275              	.LVL32:
 276              	.L17:
 132:..\..\common\lib\lib_Display/display.c ****     }
 133:..\..\common\lib\lib_Display/display.c ****     update();
 277              		.loc 1 133 0
 278 004a FFF7FEFF 		bl	update
 279              	.LVL33:
 134:..\..\common\lib\lib_Display/display.c **** }
 280              		.loc 1 134 0
 281              		@ sp needed
 282 004e 07BD     		pop	{r0, r1, r2, pc}
 283              	.L19:
 284              		.align	2
 285              	.L18:
 286 0050 00000000 		.word	networkOn
 287              		.cfi_endproc
 288              	.LFE66:
 289              		.size	DisplayIndicatorNetwork, .-DisplayIndicatorNetwork
 290              		.section	.text.DisplayNetworkQuality,"ax",%progbits
 291              		.align	1
 292              		.global	DisplayNetworkQuality
 293              		.code	16
 294              		.thumb_func
 295              		.type	DisplayNetworkQuality, %function
 296              	DisplayNetworkQuality:
 297              	.LFB67:
 135:..\..\common\lib\lib_Display/display.c **** 
 136:..\..\common\lib\lib_Display/display.c **** /*******************************************************************************
 137:..\..\common\lib\lib_Display/display.c **** * Function name: DisplayNetworkQuality
 138:..\..\common\lib\lib_Display/display.c **** ********************************************************************************
 139:..\..\common\lib\lib_Display/display.c **** *
 140:..\..\common\lib\lib_Display/display.c **** * Summary:
 141:..\..\common\lib\lib_Display/display.c **** *   print quality network
 142:..\..\common\lib\lib_Display/display.c **** *
 143:..\..\common\lib\lib_Display/display.c **** * Parametrs:
 144:..\..\common\lib\lib_Display/display.c **** *   quality - quality network 0..5
 145:..\..\common\lib\lib_Display/display.c **** *******************************************************************************/
 146:..\..\common\lib\lib_Display/display.c **** void DisplayNetworkQuality(uint8_t quality)
 147:..\..\common\lib\lib_Display/display.c **** {
 298              		.loc 1 147 0
 299              		.cfi_startproc
 300              	.LVL34:
 301 0000 10B5     		push	{r4, lr}
 302              		.cfi_def_cfa_offset 8
 303              		.cfi_offset 4, -8
 304              		.cfi_offset 14, -4
ARM GAS  C:\Users\Petro\AppData\Local\Temp\ccbUb65J.s 			page 9


 148:..\..\common\lib\lib_Display/display.c ****     clrVLine(1,3,35);
 305              		.loc 1 148 0
 306 0002 0321     		mov	r1, #3
 147:..\..\common\lib\lib_Display/display.c ****     clrVLine(1,3,35);
 307              		.loc 1 147 0
 308 0004 041C     		mov	r4, r0
 309              		.loc 1 148 0
 310 0006 2322     		mov	r2, #35
 311 0008 0120     		mov	r0, #1
 312              	.LVL35:
 313 000a FFF7FEFF 		bl	clrVLine
 314              	.LVL36:
 149:..\..\common\lib\lib_Display/display.c ****     clrVLine(2,3,35);
 315              		.loc 1 149 0
 316 000e 0220     		mov	r0, #2
 317 0010 0321     		mov	r1, #3
 318 0012 2322     		mov	r2, #35
 319 0014 FFF7FEFF 		bl	clrVLine
 320              	.LVL37:
 150:..\..\common\lib\lib_Display/display.c ****     clrVLine(3,3,35);
 321              		.loc 1 150 0
 322 0018 0320     		mov	r0, #3
 323 001a 2322     		mov	r2, #35
 324 001c 011C     		mov	r1, r0
 325 001e FFF7FEFF 		bl	clrVLine
 326              	.LVL38:
 151:..\..\common\lib\lib_Display/display.c ****     clrVLine(4,3,35);
 327              		.loc 1 151 0
 328 0022 0420     		mov	r0, #4
 329 0024 0321     		mov	r1, #3
 330 0026 2322     		mov	r2, #35
 331 0028 FFF7FEFF 		bl	clrVLine
 332              	.LVL39:
 152:..\..\common\lib\lib_Display/display.c ****     clrVLine(5,3,35);
 333              		.loc 1 152 0
 334 002c 0520     		mov	r0, #5
 335 002e 0321     		mov	r1, #3
 336 0030 2322     		mov	r2, #35
 337 0032 FFF7FEFF 		bl	clrVLine
 338              	.LVL40:
 153:..\..\common\lib\lib_Display/display.c ****     
 154:..\..\common\lib\lib_Display/display.c ****     if(quality > 1)
 339              		.loc 1 154 0
 340 0036 012C     		cmp	r4, #1
 341 0038 4BD9     		bls	.L23
 155:..\..\common\lib\lib_Display/display.c ****     {
 156:..\..\common\lib\lib_Display/display.c ****         drawVLine(1,31,7);
 342              		.loc 1 156 0
 343 003a 0120     		mov	r0, #1
 344 003c 1F21     		mov	r1, #31
 345 003e 0722     		mov	r2, #7
 346 0040 FFF7FEFF 		bl	drawVLine
 347              	.LVL41:
 157:..\..\common\lib\lib_Display/display.c ****         drawVLine(2,31,7);
 348              		.loc 1 157 0
 349 0044 0220     		mov	r0, #2
 350 0046 1F21     		mov	r1, #31
ARM GAS  C:\Users\Petro\AppData\Local\Temp\ccbUb65J.s 			page 10


 351 0048 0722     		mov	r2, #7
 352 004a FFF7FEFF 		bl	drawVLine
 353              	.LVL42:
 158:..\..\common\lib\lib_Display/display.c ****         drawVLine(3,31,7);
 354              		.loc 1 158 0
 355 004e 0320     		mov	r0, #3
 356 0050 1F21     		mov	r1, #31
 357 0052 0722     		mov	r2, #7
 358 0054 FFF7FEFF 		bl	drawVLine
 359              	.LVL43:
 159:..\..\common\lib\lib_Display/display.c ****     }
 160:..\..\common\lib\lib_Display/display.c ****     if(quality > 2)
 360              		.loc 1 160 0
 361 0058 022C     		cmp	r4, #2
 362 005a 3AD0     		beq	.L23
 161:..\..\common\lib\lib_Display/display.c ****     {
 162:..\..\common\lib\lib_Display/display.c ****         drawVLine(1,22,7);
 363              		.loc 1 162 0
 364 005c 0120     		mov	r0, #1
 365 005e 1621     		mov	r1, #22
 366 0060 0722     		mov	r2, #7
 367 0062 FFF7FEFF 		bl	drawVLine
 368              	.LVL44:
 163:..\..\common\lib\lib_Display/display.c ****         drawVLine(2,22,7);
 369              		.loc 1 163 0
 370 0066 0220     		mov	r0, #2
 371 0068 1621     		mov	r1, #22
 372 006a 0722     		mov	r2, #7
 373 006c FFF7FEFF 		bl	drawVLine
 374              	.LVL45:
 164:..\..\common\lib\lib_Display/display.c ****         drawVLine(3,22,7);
 375              		.loc 1 164 0
 376 0070 0320     		mov	r0, #3
 377 0072 1621     		mov	r1, #22
 378 0074 0722     		mov	r2, #7
 379 0076 FFF7FEFF 		bl	drawVLine
 380              	.LVL46:
 165:..\..\common\lib\lib_Display/display.c ****     }
 166:..\..\common\lib\lib_Display/display.c ****     if(quality > 3)
 381              		.loc 1 166 0
 382 007a 032C     		cmp	r4, #3
 383 007c 29D0     		beq	.L23
 167:..\..\common\lib\lib_Display/display.c ****     {
 168:..\..\common\lib\lib_Display/display.c ****         drawVLine(1,13,7);
 384              		.loc 1 168 0
 385 007e 0120     		mov	r0, #1
 386 0080 0D21     		mov	r1, #13
 387 0082 0722     		mov	r2, #7
 388 0084 FFF7FEFF 		bl	drawVLine
 389              	.LVL47:
 169:..\..\common\lib\lib_Display/display.c ****         drawVLine(2,13,7);
 390              		.loc 1 169 0
 391 0088 0220     		mov	r0, #2
 392 008a 0D21     		mov	r1, #13
 393 008c 0722     		mov	r2, #7
 394 008e FFF7FEFF 		bl	drawVLine
 395              	.LVL48:
ARM GAS  C:\Users\Petro\AppData\Local\Temp\ccbUb65J.s 			page 11


 170:..\..\common\lib\lib_Display/display.c ****         drawVLine(3,13,7);
 396              		.loc 1 170 0
 397 0092 0320     		mov	r0, #3
 398 0094 0D21     		mov	r1, #13
 399 0096 0722     		mov	r2, #7
 400 0098 FFF7FEFF 		bl	drawVLine
 401              	.LVL49:
 171:..\..\common\lib\lib_Display/display.c ****         drawVLine(4,13,7);
 402              		.loc 1 171 0
 403 009c 0420     		mov	r0, #4
 404 009e 0D21     		mov	r1, #13
 405 00a0 0722     		mov	r2, #7
 406 00a2 FFF7FEFF 		bl	drawVLine
 407              	.LVL50:
 172:..\..\common\lib\lib_Display/display.c ****     }
 173:..\..\common\lib\lib_Display/display.c ****     if(quality > 4)
 408              		.loc 1 173 0
 409 00a6 042C     		cmp	r4, #4
 410 00a8 13D0     		beq	.L23
 174:..\..\common\lib\lib_Display/display.c ****     {
 175:..\..\common\lib\lib_Display/display.c ****         drawVLine(1,4,7);
 411              		.loc 1 175 0
 412 00aa 0120     		mov	r0, #1
 413 00ac 0421     		mov	r1, #4
 414 00ae 0722     		mov	r2, #7
 415 00b0 FFF7FEFF 		bl	drawVLine
 416              	.LVL51:
 176:..\..\common\lib\lib_Display/display.c ****         drawVLine(2,4,7);
 417              		.loc 1 176 0
 418 00b4 0220     		mov	r0, #2
 419 00b6 0421     		mov	r1, #4
 420 00b8 0722     		mov	r2, #7
 421 00ba FFF7FEFF 		bl	drawVLine
 422              	.LVL52:
 177:..\..\common\lib\lib_Display/display.c ****         drawVLine(3,4,7);
 423              		.loc 1 177 0
 424 00be 0320     		mov	r0, #3
 425 00c0 0421     		mov	r1, #4
 426 00c2 0722     		mov	r2, #7
 427 00c4 FFF7FEFF 		bl	drawVLine
 428              	.LVL53:
 178:..\..\common\lib\lib_Display/display.c ****         drawVLine(4,4,7);
 429              		.loc 1 178 0
 430 00c8 0420     		mov	r0, #4
 431 00ca 0722     		mov	r2, #7
 432 00cc 011C     		mov	r1, r0
 433 00ce FFF7FEFF 		bl	drawVLine
 434              	.LVL54:
 435              	.L23:
 179:..\..\common\lib\lib_Display/display.c ****     }
 180:..\..\common\lib\lib_Display/display.c **** //    if(quality > BATT_0_PERCENT)
 181:..\..\common\lib\lib_Display/display.c **** //    {
 182:..\..\common\lib\lib_Display/display.c **** //        drawVLine(79,31,7);
 183:..\..\common\lib\lib_Display/display.c **** //        drawVLine(80,31,7);
 184:..\..\common\lib\lib_Display/display.c **** //        drawVLine(81,31,7);
 185:..\..\common\lib\lib_Display/display.c **** //    }
 186:..\..\common\lib\lib_Display/display.c **** //    if(quality > BATT_25_PERCENT)
ARM GAS  C:\Users\Petro\AppData\Local\Temp\ccbUb65J.s 			page 12


 187:..\..\common\lib\lib_Display/display.c **** //    {
 188:..\..\common\lib\lib_Display/display.c **** //        drawVLine(79,22,7);
 189:..\..\common\lib\lib_Display/display.c **** //        drawVLine(80,22,7);
 190:..\..\common\lib\lib_Display/display.c **** //        drawVLine(81,22,7);
 191:..\..\common\lib\lib_Display/display.c **** //    }
 192:..\..\common\lib\lib_Display/display.c **** //    if(quality > BATT_50_PERCENT)
 193:..\..\common\lib\lib_Display/display.c **** //    {
 194:..\..\common\lib\lib_Display/display.c **** //        drawVLine(78,13,7);
 195:..\..\common\lib\lib_Display/display.c **** //        drawVLine(79,13,7);
 196:..\..\common\lib\lib_Display/display.c **** //        drawVLine(80,13,7);
 197:..\..\common\lib\lib_Display/display.c **** //        drawVLine(81,13,7);
 198:..\..\common\lib\lib_Display/display.c **** //    }
 199:..\..\common\lib\lib_Display/display.c **** //    if(quality > BATT_75_PERCENT)
 200:..\..\common\lib\lib_Display/display.c **** //    {
 201:..\..\common\lib\lib_Display/display.c **** //        drawVLine(77,4,7);
 202:..\..\common\lib\lib_Display/display.c **** //        drawVLine(78,4,7);
 203:..\..\common\lib\lib_Display/display.c **** //        drawVLine(79,4,7);
 204:..\..\common\lib\lib_Display/display.c **** //        drawVLine(80,4,7);
 205:..\..\common\lib\lib_Display/display.c **** //        drawVLine(81,4,7);
 206:..\..\common\lib\lib_Display/display.c **** //    }
 207:..\..\common\lib\lib_Display/display.c ****     update(); 
 436              		.loc 1 207 0
 437 00d2 FFF7FEFF 		bl	update
 438              	.LVL55:
 208:..\..\common\lib\lib_Display/display.c **** }
 439              		.loc 1 208 0
 440              		@ sp needed
 441 00d6 10BD     		pop	{r4, pc}
 442              		.cfi_endproc
 443              	.LFE67:
 444              		.size	DisplayNetworkQuality, .-DisplayNetworkQuality
 445              		.section	.text.DisplayRealTime,"ax",%progbits
 446              		.align	1
 447              		.global	DisplayRealTime
 448              		.code	16
 449              		.thumb_func
 450              		.type	DisplayRealTime, %function
 451              	DisplayRealTime:
 452              	.LFB68:
 209:..\..\common\lib\lib_Display/display.c **** 
 210:..\..\common\lib\lib_Display/display.c **** /*******************************************************************************
 211:..\..\common\lib\lib_Display/display.c **** * Function name: DisplayPrintfRealTime
 212:..\..\common\lib\lib_Display/display.c **** ********************************************************************************
 213:..\..\common\lib\lib_Display/display.c **** *
 214:..\..\common\lib\lib_Display/display.c **** * Summary:
 215:..\..\common\lib\lib_Display/display.c **** *   print real time from position row = 1, column = 0
 216:..\..\common\lib\lib_Display/display.c **** *
 217:..\..\common\lib\lib_Display/display.c **** *******************************************************************************/
 218:..\..\common\lib\lib_Display/display.c **** void DisplayRealTime(void)
 219:..\..\common\lib\lib_Display/display.c **** {
 453              		.loc 1 219 0
 454              		.cfi_startproc
 455 0000 F7B5     		push	{r0, r1, r2, r4, r5, r6, r7, lr}
 456              		.cfi_def_cfa_offset 32
 457              		.cfi_offset 0, -32
 458              		.cfi_offset 1, -28
 459              		.cfi_offset 2, -24
ARM GAS  C:\Users\Petro\AppData\Local\Temp\ccbUb65J.s 			page 13


 460              		.cfi_offset 4, -20
 461              		.cfi_offset 5, -16
 462              		.cfi_offset 6, -12
 463              		.cfi_offset 7, -8
 464              		.cfi_offset 14, -4
 220:..\..\common\lib\lib_Display/display.c ****     uint32_t time;
 221:..\..\common\lib\lib_Display/display.c ****     
 222:..\..\common\lib\lib_Display/display.c ****     setFont(SmallFont);
 465              		.loc 1 222 0
 466 0002 1448     		ldr	r0, .L34
 467 0004 FFF7FEFF 		bl	setFont
 468              	.LVL56:
 223:..\..\common\lib\lib_Display/display.c ****     time = RTC_GetTime();
 469              		.loc 1 223 0
 470 0008 FFF7FEFF 		bl	RTC_GetTime
 471              	.LVL57:
 472              	.LBB8:
 473              	.LBB9:
 474              		.file 2 "Generated_Source\\PSoC4/RTC.h"
   1:Generated_Source\PSoC4/RTC.h **** /***************************************************************************//**
   2:Generated_Source\PSoC4/RTC.h **** * \file Name: RTC.h
   3:Generated_Source\PSoC4/RTC.h **** * \version 1.10
   4:Generated_Source\PSoC4/RTC.h **** *
   5:Generated_Source\PSoC4/RTC.h **** * \brief
   6:Generated_Source\PSoC4/RTC.h **** *  This file provides constants and parameter values for the RTC_P4 Component.
   7:Generated_Source\PSoC4/RTC.h **** *
   8:Generated_Source\PSoC4/RTC.h **** ********************************************************************************
   9:Generated_Source\PSoC4/RTC.h **** * Copyright 2015-2016, Cypress Semiconductor Corporation.  All rights reserved.
  10:Generated_Source\PSoC4/RTC.h **** * You may use this file only in accordance with the license, terms, conditions,
  11:Generated_Source\PSoC4/RTC.h **** * disclaimers, and limitations in the end user license agreement accompanying
  12:Generated_Source\PSoC4/RTC.h **** * the software package with which this file was provided.
  13:Generated_Source\PSoC4/RTC.h **** *******************************************************************************/
  14:Generated_Source\PSoC4/RTC.h **** 
  15:Generated_Source\PSoC4/RTC.h **** #if !defined(CY_RTC_P4_RTC_H)
  16:Generated_Source\PSoC4/RTC.h **** #define CY_RTC_P4_RTC_H
  17:Generated_Source\PSoC4/RTC.h **** 
  18:Generated_Source\PSoC4/RTC.h **** #include <cytypes.h>
  19:Generated_Source\PSoC4/RTC.h **** #include <CyLib.h>
  20:Generated_Source\PSoC4/RTC.h **** 
  21:Generated_Source\PSoC4/RTC.h **** 
  22:Generated_Source\PSoC4/RTC.h **** /*******************************************************************************
  23:Generated_Source\PSoC4/RTC.h **** *    Data types definition
  24:Generated_Source\PSoC4/RTC.h **** *******************************************************************************/
  25:Generated_Source\PSoC4/RTC.h **** 
  26:Generated_Source\PSoC4/RTC.h **** typedef enum
  27:Generated_Source\PSoC4/RTC.h **** {
  28:Generated_Source\PSoC4/RTC.h ****     RTC_DST_DATE_RELATIVE = 0u,
  29:Generated_Source\PSoC4/RTC.h ****     RTC_DST_DATE_FIXED = 1u
  30:Generated_Source\PSoC4/RTC.h **** }RTC_DST_DATETYPE_ENUM;
  31:Generated_Source\PSoC4/RTC.h **** 
  32:Generated_Source\PSoC4/RTC.h **** /**
  33:Generated_Source\PSoC4/RTC.h **** * \addtogroup group_structures
  34:Generated_Source\PSoC4/RTC.h **** * @{
  35:Generated_Source\PSoC4/RTC.h **** */
  36:Generated_Source\PSoC4/RTC.h **** 
  37:Generated_Source\PSoC4/RTC.h **** /**
  38:Generated_Source\PSoC4/RTC.h **** * This is the data structure that is used to save the current time and date 
ARM GAS  C:\Users\Petro\AppData\Local\Temp\ccbUb65J.s 			page 14


  39:Generated_Source\PSoC4/RTC.h **** * (RTC_currentTimeDate), and Alarm time and date (RTC_alarmCfgTimeDate).
  40:Generated_Source\PSoC4/RTC.h **** */
  41:Generated_Source\PSoC4/RTC.h **** typedef struct
  42:Generated_Source\PSoC4/RTC.h **** {
  43:Generated_Source\PSoC4/RTC.h ****     uint32 time;
  44:Generated_Source\PSoC4/RTC.h ****     uint32 date;
  45:Generated_Source\PSoC4/RTC.h ****     uint32 dayOfWeek;
  46:Generated_Source\PSoC4/RTC.h ****     uint32 status;
  47:Generated_Source\PSoC4/RTC.h **** }RTC_DATE_TIME;
  48:Generated_Source\PSoC4/RTC.h **** 
  49:Generated_Source\PSoC4/RTC.h **** /**
  50:Generated_Source\PSoC4/RTC.h **** * This is the data structure that is used to save time and date values for 
  51:Generated_Source\PSoC4/RTC.h **** * Daylight Savings Time Start and Stop (RTC_dstTimeDateStart and 
  52:Generated_Source\PSoC4/RTC.h **** * RTC_dstTimeDateStop).
  53:Generated_Source\PSoC4/RTC.h **** */
  54:Generated_Source\PSoC4/RTC.h **** typedef struct
  55:Generated_Source\PSoC4/RTC.h **** {
  56:Generated_Source\PSoC4/RTC.h ****     uint32 hour;
  57:Generated_Source\PSoC4/RTC.h ****     uint32 dayOfWeek;
  58:Generated_Source\PSoC4/RTC.h ****     uint32 dayOfMonth;
  59:Generated_Source\PSoC4/RTC.h ****     uint32 weekOfMonth;
  60:Generated_Source\PSoC4/RTC.h ****     uint32 month;
  61:Generated_Source\PSoC4/RTC.h ****     uint8  timeFormat;
  62:Generated_Source\PSoC4/RTC.h **** }RTC_DST_TIME;
  63:Generated_Source\PSoC4/RTC.h **** 
  64:Generated_Source\PSoC4/RTC.h **** /** @} structures */
  65:Generated_Source\PSoC4/RTC.h **** 
  66:Generated_Source\PSoC4/RTC.h **** /*******************************************************************************
  67:Generated_Source\PSoC4/RTC.h **** *    Enumerated Types and Parameters
  68:Generated_Source\PSoC4/RTC.h **** *******************************************************************************/
  69:Generated_Source\PSoC4/RTC.h **** /* Time Format setting constants */
  70:Generated_Source\PSoC4/RTC.h **** #define RTC__HOUR_12 1
  71:Generated_Source\PSoC4/RTC.h **** #define RTC__HOUR_24 0
  72:Generated_Source\PSoC4/RTC.h **** 
  73:Generated_Source\PSoC4/RTC.h **** /*  Date Format setting constants */
  74:Generated_Source\PSoC4/RTC.h **** #define RTC__MM_DD_YYYY 0
  75:Generated_Source\PSoC4/RTC.h **** #define RTC__DD_MM_YYYY 1
  76:Generated_Source\PSoC4/RTC.h **** #define RTC__YYYY_MM_DD 2
  77:Generated_Source\PSoC4/RTC.h **** 
  78:Generated_Source\PSoC4/RTC.h **** /* Date Type setting constants */
  79:Generated_Source\PSoC4/RTC.h **** #define RTC__RELATIVE 0
  80:Generated_Source\PSoC4/RTC.h **** #define RTC__FIXED 1
  81:Generated_Source\PSoC4/RTC.h **** 
  82:Generated_Source\PSoC4/RTC.h **** /* DST Hour setting constants */
  83:Generated_Source\PSoC4/RTC.h **** #define RTC__H0000 0
  84:Generated_Source\PSoC4/RTC.h **** #define RTC__H0100 1
  85:Generated_Source\PSoC4/RTC.h **** #define RTC__H0200 2
  86:Generated_Source\PSoC4/RTC.h **** #define RTC__H0300 3
  87:Generated_Source\PSoC4/RTC.h **** #define RTC__H0400 4
  88:Generated_Source\PSoC4/RTC.h **** #define RTC__H0500 5
  89:Generated_Source\PSoC4/RTC.h **** #define RTC__H0600 6
  90:Generated_Source\PSoC4/RTC.h **** #define RTC__H0700 7
  91:Generated_Source\PSoC4/RTC.h **** #define RTC__H0800 8
  92:Generated_Source\PSoC4/RTC.h **** #define RTC__H0900 9
  93:Generated_Source\PSoC4/RTC.h **** #define RTC__H1000 10
  94:Generated_Source\PSoC4/RTC.h **** #define RTC__H1100 11
  95:Generated_Source\PSoC4/RTC.h **** #define RTC__H1200 12
ARM GAS  C:\Users\Petro\AppData\Local\Temp\ccbUb65J.s 			page 15


  96:Generated_Source\PSoC4/RTC.h **** #define RTC__H1300 13
  97:Generated_Source\PSoC4/RTC.h **** #define RTC__H1400 14
  98:Generated_Source\PSoC4/RTC.h **** #define RTC__H1500 15
  99:Generated_Source\PSoC4/RTC.h **** #define RTC__H1600 16
 100:Generated_Source\PSoC4/RTC.h **** #define RTC__H1700 17
 101:Generated_Source\PSoC4/RTC.h **** #define RTC__H1800 18
 102:Generated_Source\PSoC4/RTC.h **** #define RTC__H1900 19
 103:Generated_Source\PSoC4/RTC.h **** #define RTC__H2000 20
 104:Generated_Source\PSoC4/RTC.h **** #define RTC__H2100 21
 105:Generated_Source\PSoC4/RTC.h **** #define RTC__H2200 22
 106:Generated_Source\PSoC4/RTC.h **** #define RTC__H2300 23
 107:Generated_Source\PSoC4/RTC.h **** 
 108:Generated_Source\PSoC4/RTC.h **** /* DST DayOfWeek setting constants */
 109:Generated_Source\PSoC4/RTC.h **** #define RTC__SUNDAY 1
 110:Generated_Source\PSoC4/RTC.h **** #define RTC__MONDAY 2
 111:Generated_Source\PSoC4/RTC.h **** #define RTC__TUESDAY 3
 112:Generated_Source\PSoC4/RTC.h **** #define RTC__WEDNESDAY 4
 113:Generated_Source\PSoC4/RTC.h **** #define RTC__THURSDAY 5
 114:Generated_Source\PSoC4/RTC.h **** #define RTC__FRIDAY 6
 115:Generated_Source\PSoC4/RTC.h **** #define RTC__SATURDAY 7
 116:Generated_Source\PSoC4/RTC.h **** 
 117:Generated_Source\PSoC4/RTC.h **** /* DST Month setting constants */
 118:Generated_Source\PSoC4/RTC.h **** #define RTC__JAN 1
 119:Generated_Source\PSoC4/RTC.h **** #define RTC__FEB 2
 120:Generated_Source\PSoC4/RTC.h **** #define RTC__MAR 3
 121:Generated_Source\PSoC4/RTC.h **** #define RTC__APR 4
 122:Generated_Source\PSoC4/RTC.h **** #define RTC__MAY 5
 123:Generated_Source\PSoC4/RTC.h **** #define RTC__JUN 6
 124:Generated_Source\PSoC4/RTC.h **** #define RTC__JUL 7
 125:Generated_Source\PSoC4/RTC.h **** #define RTC__AUG 8
 126:Generated_Source\PSoC4/RTC.h **** #define RTC__SEP 9
 127:Generated_Source\PSoC4/RTC.h **** #define RTC__OCT 10
 128:Generated_Source\PSoC4/RTC.h **** #define RTC__NOV 11
 129:Generated_Source\PSoC4/RTC.h **** #define RTC__DEC 12
 130:Generated_Source\PSoC4/RTC.h **** 
 131:Generated_Source\PSoC4/RTC.h **** /* DST WeekOfMonth setting constants */
 132:Generated_Source\PSoC4/RTC.h **** #define RTC__FIRST 1
 133:Generated_Source\PSoC4/RTC.h **** #define RTC__SECOND 2
 134:Generated_Source\PSoC4/RTC.h **** #define RTC__THIRD 3
 135:Generated_Source\PSoC4/RTC.h **** #define RTC__FOURTH 4
 136:Generated_Source\PSoC4/RTC.h **** #define RTC__FIFTH 5
 137:Generated_Source\PSoC4/RTC.h **** #define RTC__LAST 6
 138:Generated_Source\PSoC4/RTC.h **** 
 139:Generated_Source\PSoC4/RTC.h **** 
 140:Generated_Source\PSoC4/RTC.h **** #define RTC_INITIAL_DATA_FORMAT     (0u)
 141:Generated_Source\PSoC4/RTC.h **** #define RTC_INITIAL_TIME_FORMAT     (0u)
 142:Generated_Source\PSoC4/RTC.h **** #define RTC_INITIAL_UPDATE_MODE     (0u)
 143:Generated_Source\PSoC4/RTC.h **** #define RTC_INITIAL_SECOND          (0u)
 144:Generated_Source\PSoC4/RTC.h **** #define RTC_INITIAL_MINUTE          (16u)
 145:Generated_Source\PSoC4/RTC.h **** #define RTC_INITIAL_HOUR            (10u)
 146:Generated_Source\PSoC4/RTC.h **** #define RTC_INITIAL_DAY             (9u)
 147:Generated_Source\PSoC4/RTC.h **** #define RTC_INITIAL_MONTH           (8u)
 148:Generated_Source\PSoC4/RTC.h **** #define RTC_INITIAL_YEAR            (2016u)
 149:Generated_Source\PSoC4/RTC.h **** 
 150:Generated_Source\PSoC4/RTC.h **** #define RTC_INITIAL_ALARM_STATUS    (0u)
 151:Generated_Source\PSoC4/RTC.h **** 
 152:Generated_Source\PSoC4/RTC.h **** #define RTC_INITIAL_DST_STATUS      (0u)
ARM GAS  C:\Users\Petro\AppData\Local\Temp\ccbUb65J.s 			page 16


 153:Generated_Source\PSoC4/RTC.h **** #define RTC_INITIAL_DST_DATE_TYPE   (0u)
 154:Generated_Source\PSoC4/RTC.h **** #define RTC_INITIAL_DST_START_MONTH (3uL)
 155:Generated_Source\PSoC4/RTC.h **** #define RTC_INITIAL_DST_START_WOM   (6uL)
 156:Generated_Source\PSoC4/RTC.h **** #define RTC_INITIAL_DST_START_DOM   (22uL)
 157:Generated_Source\PSoC4/RTC.h **** #define RTC_INITIAL_DST_START_DOW   (1uL)
 158:Generated_Source\PSoC4/RTC.h **** #define RTC_INITIAL_DST_START_HRS   (0uL)
 159:Generated_Source\PSoC4/RTC.h **** #define RTC_INITIAL_DST_STOP_MONTH  (10uL)
 160:Generated_Source\PSoC4/RTC.h **** #define RTC_INITIAL_DST_STOP_DOM    (22uL)
 161:Generated_Source\PSoC4/RTC.h **** #define RTC_INITIAL_DST_STOP_DOW    (1uL)
 162:Generated_Source\PSoC4/RTC.h **** #define RTC_INITIAL_DST_STOP_WOM    (6uL)
 163:Generated_Source\PSoC4/RTC.h **** #define RTC_INITIAL_DST_STOP_HRS    (0uL)
 164:Generated_Source\PSoC4/RTC.h **** 
 165:Generated_Source\PSoC4/RTC.h **** /* Day of week definitions */
 166:Generated_Source\PSoC4/RTC.h **** #define RTC_SUNDAY     (RTC__SUNDAY)
 167:Generated_Source\PSoC4/RTC.h **** #define RTC_MONDAY     (RTC__MONDAY)
 168:Generated_Source\PSoC4/RTC.h **** #define RTC_TUESDAY    (RTC__TUESDAY)
 169:Generated_Source\PSoC4/RTC.h **** #define RTC_WEDNESDAY  (RTC__WEDNESDAY)
 170:Generated_Source\PSoC4/RTC.h **** #define RTC_THURSDAY   (RTC__THURSDAY)
 171:Generated_Source\PSoC4/RTC.h **** #define RTC_FRIDAY     (RTC__FRIDAY)
 172:Generated_Source\PSoC4/RTC.h **** #define RTC_SATURDAY   (RTC__SATURDAY)
 173:Generated_Source\PSoC4/RTC.h **** 
 174:Generated_Source\PSoC4/RTC.h **** /* DST WeekOfMonth setting constants definitions */
 175:Generated_Source\PSoC4/RTC.h **** #define RTC_FIRST      (RTC__FIRST)
 176:Generated_Source\PSoC4/RTC.h **** #define RTC_SECOND     (RTC__SECOND)
 177:Generated_Source\PSoC4/RTC.h **** #define RTC_THIRD      (RTC__THIRD)
 178:Generated_Source\PSoC4/RTC.h **** #define RTC_FOURTH     (RTC__FOURTH)
 179:Generated_Source\PSoC4/RTC.h **** #define RTC_FIFTH      (RTC__FIFTH)
 180:Generated_Source\PSoC4/RTC.h **** #define RTC_LAST       (RTC__LAST)
 181:Generated_Source\PSoC4/RTC.h **** 
 182:Generated_Source\PSoC4/RTC.h **** /* Month definitions */
 183:Generated_Source\PSoC4/RTC.h **** #define RTC_JANUARY    (RTC__JAN)
 184:Generated_Source\PSoC4/RTC.h **** #define RTC_FEBRUARY   (RTC__FEB)
 185:Generated_Source\PSoC4/RTC.h **** #define RTC_MARCH      (RTC__MAR)
 186:Generated_Source\PSoC4/RTC.h **** #define RTC_APRIL      (RTC__APR)
 187:Generated_Source\PSoC4/RTC.h **** #define RTC_MAY        (RTC__MAY)
 188:Generated_Source\PSoC4/RTC.h **** #define RTC_JUNE       (RTC__JUN)
 189:Generated_Source\PSoC4/RTC.h **** #define RTC_JULY       (RTC__JUL)
 190:Generated_Source\PSoC4/RTC.h **** #define RTC_AUGUST     (RTC__AUG)
 191:Generated_Source\PSoC4/RTC.h **** #define RTC_SEPTEMBER  (RTC__SEP)
 192:Generated_Source\PSoC4/RTC.h **** #define RTC_OCTOBER    (RTC__OCT)
 193:Generated_Source\PSoC4/RTC.h **** #define RTC_NOVEMBER   (RTC__NOV)
 194:Generated_Source\PSoC4/RTC.h **** #define RTC_DECEMBER   (RTC__DEC)
 195:Generated_Source\PSoC4/RTC.h **** 
 196:Generated_Source\PSoC4/RTC.h **** #define RTC_DAYS_PER_WEEK       (7u)
 197:Generated_Source\PSoC4/RTC.h **** 
 198:Generated_Source\PSoC4/RTC.h **** /* Number of days in month definitions */
 199:Generated_Source\PSoC4/RTC.h **** #define RTC_DAYS_IN_JANUARY     (31u)
 200:Generated_Source\PSoC4/RTC.h **** #define RTC_DAYS_IN_FEBRUARY    (28u)
 201:Generated_Source\PSoC4/RTC.h **** #define RTC_DAYS_IN_MARCH       (31u)
 202:Generated_Source\PSoC4/RTC.h **** #define RTC_DAYS_IN_APRIL       (30u)
 203:Generated_Source\PSoC4/RTC.h **** #define RTC_DAYS_IN_MAY         (31u)
 204:Generated_Source\PSoC4/RTC.h **** #define RTC_DAYS_IN_JUNE        (30u)
 205:Generated_Source\PSoC4/RTC.h **** #define RTC_DAYS_IN_JULY        (31u)
 206:Generated_Source\PSoC4/RTC.h **** #define RTC_DAYS_IN_AUGUST      (31u)
 207:Generated_Source\PSoC4/RTC.h **** #define RTC_DAYS_IN_SEPTEMBER   (30u)
 208:Generated_Source\PSoC4/RTC.h **** #define RTC_DAYS_IN_OCTOBER     (31u)
 209:Generated_Source\PSoC4/RTC.h **** #define RTC_DAYS_IN_NOVEMBER    (30u)
ARM GAS  C:\Users\Petro\AppData\Local\Temp\ccbUb65J.s 			page 17


 210:Generated_Source\PSoC4/RTC.h **** #define RTC_DAYS_IN_DECEMBER    (31u)
 211:Generated_Source\PSoC4/RTC.h **** 
 212:Generated_Source\PSoC4/RTC.h **** #define RTC_MONTHS_PER_YEAR     (12uL)
 213:Generated_Source\PSoC4/RTC.h **** 
 214:Generated_Source\PSoC4/RTC.h **** #define RTC_HOURS_PER_DAY       (24uL)
 215:Generated_Source\PSoC4/RTC.h **** #define RTC_HOURS_PER_HALF_DAY  (12uL)
 216:Generated_Source\PSoC4/RTC.h **** 
 217:Generated_Source\PSoC4/RTC.h **** #define RTC_SECONDS_PER_MINUTE  (60uL)
 218:Generated_Source\PSoC4/RTC.h **** #define RTC_SECONDS_PER_HOUR    (3600uL)
 219:Generated_Source\PSoC4/RTC.h **** #define RTC_SECONDS_PER_DAY     (24uL * 3600uL)
 220:Generated_Source\PSoC4/RTC.h **** 
 221:Generated_Source\PSoC4/RTC.h **** #define RTC_SECONDS_PER_LEAP_YEAR    (366uL * 24uL * 3600uL)
 222:Generated_Source\PSoC4/RTC.h **** #define RTC_SECONDS_PER_NONLEAP_YEAR (365uL * 24uL * 3600uL)
 223:Generated_Source\PSoC4/RTC.h **** 
 224:Generated_Source\PSoC4/RTC.h **** #define RTC_UNIX_TIME_PM   ((12uL * 3600uL) + 1uL)
 225:Generated_Source\PSoC4/RTC.h **** 
 226:Generated_Source\PSoC4/RTC.h **** /* AM/PM status definitions */
 227:Generated_Source\PSoC4/RTC.h **** #define RTC_AM                 (0u)
 228:Generated_Source\PSoC4/RTC.h **** #define RTC_PM                 (1u)
 229:Generated_Source\PSoC4/RTC.h **** 
 230:Generated_Source\PSoC4/RTC.h **** /* Time format definitions */
 231:Generated_Source\PSoC4/RTC.h **** #define RTC_12_HOURS_FORMAT    (RTC__HOUR_12)
 232:Generated_Source\PSoC4/RTC.h **** #define RTC_24_HOURS_FORMAT    (RTC__HOUR_24)
 233:Generated_Source\PSoC4/RTC.h **** 
 234:Generated_Source\PSoC4/RTC.h **** /* UNIX time begins in 1970 year.  */
 235:Generated_Source\PSoC4/RTC.h **** #define RTC_YEAR_0             (1970u)
 236:Generated_Source\PSoC4/RTC.h **** 
 237:Generated_Source\PSoC4/RTC.h **** /* Definition of date register fields */
 238:Generated_Source\PSoC4/RTC.h **** #if(RTC_INITIAL_DATA_FORMAT == RTC__MM_DD_YYYY)
 239:Generated_Source\PSoC4/RTC.h ****     #define RTC_10_MONTH_OFFSET   (28u)
 240:Generated_Source\PSoC4/RTC.h ****     #define RTC_MONTH_OFFSET      (24u)
 241:Generated_Source\PSoC4/RTC.h ****     #define RTC_10_DAY_OFFSET     (20u)
 242:Generated_Source\PSoC4/RTC.h ****     #define RTC_DAY_OFFSET        (16u)
 243:Generated_Source\PSoC4/RTC.h ****     #define RTC_1000_YEAR_OFFSET  (12u)
 244:Generated_Source\PSoC4/RTC.h ****     #define RTC_100_YEAR_OFFSET   (8u)
 245:Generated_Source\PSoC4/RTC.h ****     #define RTC_10_YEAR_OFFSET    (4u)
 246:Generated_Source\PSoC4/RTC.h ****     #define RTC_YEAR_OFFSET       (0u)
 247:Generated_Source\PSoC4/RTC.h **** #elif(RTC_INITIAL_DATA_FORMAT == RTC__DD_MM_YYYY)
 248:Generated_Source\PSoC4/RTC.h ****     #define RTC_10_MONTH_OFFSET   (20u)
 249:Generated_Source\PSoC4/RTC.h ****     #define RTC_MONTH_OFFSET      (16u)
 250:Generated_Source\PSoC4/RTC.h ****     #define RTC_10_DAY_OFFSET     (28u)
 251:Generated_Source\PSoC4/RTC.h ****     #define RTC_DAY_OFFSET        (24u)
 252:Generated_Source\PSoC4/RTC.h ****     #define RTC_1000_YEAR_OFFSET  (12u)
 253:Generated_Source\PSoC4/RTC.h ****     #define RTC_100_YEAR_OFFSET   (8u)
 254:Generated_Source\PSoC4/RTC.h ****     #define RTC_10_YEAR_OFFSET    (4u)
 255:Generated_Source\PSoC4/RTC.h ****     #define RTC_YEAR_OFFSET       (0u)
 256:Generated_Source\PSoC4/RTC.h **** #else
 257:Generated_Source\PSoC4/RTC.h ****     #define RTC_10_MONTH_OFFSET   (12u)
 258:Generated_Source\PSoC4/RTC.h ****     #define RTC_MONTH_OFFSET      (8u)
 259:Generated_Source\PSoC4/RTC.h ****     #define RTC_10_DAY_OFFSET     (4u)
 260:Generated_Source\PSoC4/RTC.h ****     #define RTC_DAY_OFFSET        (0u)
 261:Generated_Source\PSoC4/RTC.h ****     #define RTC_1000_YEAR_OFFSET  (28u)
 262:Generated_Source\PSoC4/RTC.h ****     #define RTC_100_YEAR_OFFSET   (24u)
 263:Generated_Source\PSoC4/RTC.h ****     #define RTC_10_YEAR_OFFSET    (20u)
 264:Generated_Source\PSoC4/RTC.h ****     #define RTC_YEAR_OFFSET       (16u)
 265:Generated_Source\PSoC4/RTC.h **** #endif /* (RTC_INITIAL_DATA_FORMAT == RTC__MM_DD_YYYY) */
 266:Generated_Source\PSoC4/RTC.h **** 
ARM GAS  C:\Users\Petro\AppData\Local\Temp\ccbUb65J.s 			page 18


 267:Generated_Source\PSoC4/RTC.h **** #define RTC_10_MONTH_MASK          (0x00000001uL << RTC_10_MONTH_OFFSET)
 268:Generated_Source\PSoC4/RTC.h **** #define RTC_MONTH_MASK             (0x0000000FuL << RTC_MONTH_OFFSET)
 269:Generated_Source\PSoC4/RTC.h **** #define RTC_10_DAY_MASK            (0x00000003uL << RTC_10_DAY_OFFSET)
 270:Generated_Source\PSoC4/RTC.h **** #define RTC_DAY_MASK               (0x0000000FuL << RTC_DAY_OFFSET)
 271:Generated_Source\PSoC4/RTC.h **** #define RTC_1000_YEAR_MASK         (0x00000003uL << RTC_1000_YEAR_OFFSET)
 272:Generated_Source\PSoC4/RTC.h **** #define RTC_100_YEAR_MASK          (0x0000000FuL << RTC_100_YEAR_OFFSET)
 273:Generated_Source\PSoC4/RTC.h **** #define RTC_10_YEAR_MASK           (0x0000000FuL << RTC_10_YEAR_OFFSET)
 274:Generated_Source\PSoC4/RTC.h **** #define RTC_YEAR_MASK              (0x0000000FuL << RTC_YEAR_OFFSET)
 275:Generated_Source\PSoC4/RTC.h **** 
 276:Generated_Source\PSoC4/RTC.h **** #define  RTC_MONTH_FULL_MASK       (RTC_10_MONTH_MASK  | RTC_MONTH_MASK)
 277:Generated_Source\PSoC4/RTC.h **** #define  RTC_DAY_FULL_MASK         (RTC_10_DAY_MASK    | RTC_DAY_MASK)
 278:Generated_Source\PSoC4/RTC.h **** #define  RTC_YEAR_FULL_MASK        (RTC_1000_YEAR_MASK | RTC_100_YEAR_MASK |\
 279:Generated_Source\PSoC4/RTC.h ****                                                  RTC_10_YEAR_MASK   | RTC_YEAR_MASK)
 280:Generated_Source\PSoC4/RTC.h **** 
 281:Generated_Source\PSoC4/RTC.h **** 
 282:Generated_Source\PSoC4/RTC.h **** /* Definition of time register fields */
 283:Generated_Source\PSoC4/RTC.h **** #define RTC_TIME_FORMAT_OFFSET     (23u)
 284:Generated_Source\PSoC4/RTC.h **** #define RTC_PERIOD_OF_DAY_OFFSET   (22u)
 285:Generated_Source\PSoC4/RTC.h **** #define RTC_10_HOURS_OFFSET        (20u)
 286:Generated_Source\PSoC4/RTC.h **** #define RTC_HOURS_OFFSET           (16u)
 287:Generated_Source\PSoC4/RTC.h **** #define RTC_10_MINUTES_OFFSET      (12u)
 288:Generated_Source\PSoC4/RTC.h **** #define RTC_MINUTES_OFFSET         (8u)
 289:Generated_Source\PSoC4/RTC.h **** #define RTC_10_SECONDS_OFFSET      (4u)
 290:Generated_Source\PSoC4/RTC.h **** #define RTC_SECONDS_OFFSET         (0u)
 291:Generated_Source\PSoC4/RTC.h **** 
 292:Generated_Source\PSoC4/RTC.h **** #define RTC_TIME_FORMAT_MASK       (0x00000001uL << RTC_TIME_FORMAT_OFFSET)
 293:Generated_Source\PSoC4/RTC.h **** #define RTC_PERIOD_OF_DAY_MASK     (0x00000001uL << RTC_PERIOD_OF_DAY_OFFSET)
 294:Generated_Source\PSoC4/RTC.h **** #define RTC_10_HOURS_MASK          (0x00000003uL << RTC_10_HOURS_OFFSET)
 295:Generated_Source\PSoC4/RTC.h **** #define RTC_HOURS_MASK             (0x0000000FuL << RTC_HOURS_OFFSET)
 296:Generated_Source\PSoC4/RTC.h **** #define RTC_10_MINUTES_MASK        (0x00000007uL << RTC_10_MINUTES_OFFSET)
 297:Generated_Source\PSoC4/RTC.h **** #define RTC_MINUTES_MASK           (0x0000000FuL << RTC_MINUTES_OFFSET)
 298:Generated_Source\PSoC4/RTC.h **** #define RTC_10_SECONDS_MASK        (0x00000007uL << RTC_10_SECONDS_OFFSET)
 299:Generated_Source\PSoC4/RTC.h **** #define RTC_SECONDS_MASK           (0x0000000FuL << RTC_SECONDS_OFFSET)
 300:Generated_Source\PSoC4/RTC.h **** 
 301:Generated_Source\PSoC4/RTC.h **** #define RTC_HOURS_FULL_MASK        (RTC_10_HOURS_MASK   | RTC_HOURS_MASK)
 302:Generated_Source\PSoC4/RTC.h **** #define RTC_MINUTES_FULL_MASK      (RTC_10_MINUTES_MASK | RTC_MINUTES_MASK)
 303:Generated_Source\PSoC4/RTC.h **** #define RTC_SECONDS_FULL_MASK      (RTC_10_SECONDS_MASK | RTC_SECONDS_MASK)
 304:Generated_Source\PSoC4/RTC.h **** 
 305:Generated_Source\PSoC4/RTC.h **** #define RTC_ALARM_SEC_MASK         (0x00000001uL)
 306:Generated_Source\PSoC4/RTC.h **** #define RTC_ALARM_MIN_MASK         (0x00000002uL)
 307:Generated_Source\PSoC4/RTC.h **** #define RTC_ALARM_HOUR_MASK        (0x00000004uL)
 308:Generated_Source\PSoC4/RTC.h **** #define RTC_ALARM_DAYOFWEEK_MASK   (0x00000008uL)
 309:Generated_Source\PSoC4/RTC.h **** #define RTC_ALARM_DAYOFMONTH_MASK  (0x00000010uL)
 310:Generated_Source\PSoC4/RTC.h **** #define RTC_ALARM_MONTH_MASK       (0x00000020uL)
 311:Generated_Source\PSoC4/RTC.h **** #define RTC_ALARM_YEAR_MASK        (0x00000040uL)
 312:Generated_Source\PSoC4/RTC.h **** 
 313:Generated_Source\PSoC4/RTC.h **** #define RTC_STATUS_DST_OFFSET      (1u)
 314:Generated_Source\PSoC4/RTC.h **** #define RTC_STATUS_ALARM_OFFSET    (2u)
 315:Generated_Source\PSoC4/RTC.h **** #define RTC_STATUS_LY_OFFSET       (3u)
 316:Generated_Source\PSoC4/RTC.h **** #define RTC_STATUS_AM_PM_OFFSET    (4u)
 317:Generated_Source\PSoC4/RTC.h **** 
 318:Generated_Source\PSoC4/RTC.h **** /* Definition of the RTC status values. */
 319:Generated_Source\PSoC4/RTC.h **** #define RTC_STATUS_DST             (1uL << RTC_STATUS_DST_OFFSET)
 320:Generated_Source\PSoC4/RTC.h **** #define RTC_STATUS_LY              (1uL << RTC_STATUS_LY_OFFSET)
 321:Generated_Source\PSoC4/RTC.h **** #define RTC_STATUS_AM_PM           (1uL << RTC_STATUS_AM_PM_OFFSET)
 322:Generated_Source\PSoC4/RTC.h **** 
 323:Generated_Source\PSoC4/RTC.h **** /* Number of bits per one BCD digit. */
ARM GAS  C:\Users\Petro\AppData\Local\Temp\ccbUb65J.s 			page 19


 324:Generated_Source\PSoC4/RTC.h **** #define RTC_BCD_NUMBER_SIZE        (4u)
 325:Generated_Source\PSoC4/RTC.h **** #define RTC_BCD_ONE_DIGIT_MASK     (0x0000000FuL)
 326:Generated_Source\PSoC4/RTC.h **** 
 327:Generated_Source\PSoC4/RTC.h **** /*******************************************************************************
 328:Generated_Source\PSoC4/RTC.h **** *    Function Prototypes
 329:Generated_Source\PSoC4/RTC.h **** *******************************************************************************/
 330:Generated_Source\PSoC4/RTC.h **** /**
 331:Generated_Source\PSoC4/RTC.h **** * \addtogroup group_api
 332:Generated_Source\PSoC4/RTC.h **** * @{
 333:Generated_Source\PSoC4/RTC.h **** */
 334:Generated_Source\PSoC4/RTC.h **** void   RTC_Start(void);
 335:Generated_Source\PSoC4/RTC.h **** void   RTC_Stop(void);
 336:Generated_Source\PSoC4/RTC.h **** void   RTC_Init(void);
 337:Generated_Source\PSoC4/RTC.h **** void   RTC_SetUnixTime(uint64 unixTime);
 338:Generated_Source\PSoC4/RTC.h **** uint64 RTC_GetUnixTime(void);
 339:Generated_Source\PSoC4/RTC.h **** void   RTC_SetPeriod(uint32 ticks, uint32 refOneSecTicks);
 340:Generated_Source\PSoC4/RTC.h **** uint32 RTC_GetPeriod(void);
 341:Generated_Source\PSoC4/RTC.h **** uint32 RTC_GetRefOneSec(void);
 342:Generated_Source\PSoC4/RTC.h **** void   RTC_SetDateAndTime(uint32 inputTime, uint32 inputDate);
 343:Generated_Source\PSoC4/RTC.h **** void   RTC_GetDateAndTime(RTC_DATE_TIME* dateTime);
 344:Generated_Source\PSoC4/RTC.h **** uint32 RTC_GetTime(void);
 345:Generated_Source\PSoC4/RTC.h **** uint32 RTC_GetDate(void);
 346:Generated_Source\PSoC4/RTC.h **** void   RTC_SetAlarmDateAndTime(const RTC_DATE_TIME* alarmTime);
 347:Generated_Source\PSoC4/RTC.h **** void   RTC_GetAlarmDateAndTime(RTC_DATE_TIME* alarmTimeDate);
 348:Generated_Source\PSoC4/RTC.h **** void   RTC_SetAlarmMask(uint32 mask);
 349:Generated_Source\PSoC4/RTC.h **** uint32 RTC_GetAlarmMask(void);
 350:Generated_Source\PSoC4/RTC.h **** uint32 RTC_ReadStatus(void);
 351:Generated_Source\PSoC4/RTC.h **** uint32 RTC_GetAlarmStatus(void);
 352:Generated_Source\PSoC4/RTC.h **** void   RTC_ClearAlarmStatus(void);
 353:Generated_Source\PSoC4/RTC.h **** void   RTC_SetDSTStartTime(const RTC_DST_TIME* dstStartTime,
 354:Generated_Source\PSoC4/RTC.h ****                                               RTC_DST_DATETYPE_ENUM type);
 355:Generated_Source\PSoC4/RTC.h **** void   RTC_SetDSTStopTime(const RTC_DST_TIME* dstStopTime,
 356:Generated_Source\PSoC4/RTC.h ****                                              RTC_DST_DATETYPE_ENUM type);
 357:Generated_Source\PSoC4/RTC.h **** uint32 RTC_ConvertBCDToDec(uint32 bcdNum);
 358:Generated_Source\PSoC4/RTC.h **** uint32 RTC_ConvertDecToBCD(uint32 decNum);
 359:Generated_Source\PSoC4/RTC.h **** void   RTC_Update(void);
 360:Generated_Source\PSoC4/RTC.h **** void*  RTC_SetAlarmHandler(void (*CallbackFunction)(void));
 361:Generated_Source\PSoC4/RTC.h **** 
 362:Generated_Source\PSoC4/RTC.h **** static uint32 RTC_ConstructDate(uint32 month, uint32 day, uint32 year);
 363:Generated_Source\PSoC4/RTC.h **** static uint32 RTC_ConstructTime(uint32 timeFormat, uint32 stateAmPm, uint32 hour, uint32 min, uint3
 364:Generated_Source\PSoC4/RTC.h **** /** @} api */
 365:Generated_Source\PSoC4/RTC.h **** 
 366:Generated_Source\PSoC4/RTC.h **** static uint32 RTC_GetTimeFormat(uint32 inputTime);
 367:Generated_Source\PSoC4/RTC.h **** static uint32 RTC_SetTimeFormat(uint32 inputTime, uint32 timeFormat);
 368:Generated_Source\PSoC4/RTC.h **** 
 369:Generated_Source\PSoC4/RTC.h **** /**
 370:Generated_Source\PSoC4/RTC.h **** * \addtogroup group_api
 371:Generated_Source\PSoC4/RTC.h **** * @{
 372:Generated_Source\PSoC4/RTC.h **** */
 373:Generated_Source\PSoC4/RTC.h **** static uint32 RTC_LeapYear(uint32 year);
 374:Generated_Source\PSoC4/RTC.h **** static uint32 RTC_IsBitSet(uint32 var, uint32 mask);
 375:Generated_Source\PSoC4/RTC.h **** static uint32 RTC_GetSecond(uint32 inputTime);
 376:Generated_Source\PSoC4/RTC.h **** static uint32 RTC_GetMinutes(uint32 inputTime);
 377:Generated_Source\PSoC4/RTC.h **** static uint32 RTC_GetHours(uint32 inputTime);
 378:Generated_Source\PSoC4/RTC.h **** static uint32 RTC_GetAmPm(uint32 inputTime);
 379:Generated_Source\PSoC4/RTC.h **** static uint32 RTC_GetDay(uint32 date);
 380:Generated_Source\PSoC4/RTC.h **** static uint32 RTC_GetMonth(uint32 date);
ARM GAS  C:\Users\Petro\AppData\Local\Temp\ccbUb65J.s 			page 20


 381:Generated_Source\PSoC4/RTC.h **** static uint32 RTC_GetYear(uint32 date);
 382:Generated_Source\PSoC4/RTC.h **** /** @} api */
 383:Generated_Source\PSoC4/RTC.h **** 
 384:Generated_Source\PSoC4/RTC.h **** static uint32 RTC_SetSecond(uint32 inputTime, uint32 inputSecond);
 385:Generated_Source\PSoC4/RTC.h **** static uint32 RTC_SetMinutes(uint32 inputTime, uint32 inputMinute);
 386:Generated_Source\PSoC4/RTC.h **** static uint32 RTC_SetHours(uint32 inputTime, uint32 inputHours);
 387:Generated_Source\PSoC4/RTC.h **** static uint32 RTC_SetAmPm(uint32 inputTime, uint32 periodOfDay);
 388:Generated_Source\PSoC4/RTC.h **** static uint32 RTC_SetDay(uint32 inputDate, uint32 inputDay);
 389:Generated_Source\PSoC4/RTC.h **** static uint32 RTC_SetMonth(uint32 inputDate, uint32 inputMonth);
 390:Generated_Source\PSoC4/RTC.h **** static uint32 RTC_SetYear(uint32 inputDate, uint32 inputYear);
 391:Generated_Source\PSoC4/RTC.h **** 
 392:Generated_Source\PSoC4/RTC.h **** uint64 RTC_ConstructUnixAlarmTime(const RTC_DATE_TIME* alarmTime, uint8 alarmCfgMask);
 393:Generated_Source\PSoC4/RTC.h **** uint64 RTC_GetDstUnixTime(const RTC_DST_TIME* dstTime);
 394:Generated_Source\PSoC4/RTC.h **** uint64 RTC_GetNexAlarmTime(uint64 curUnixTime, uint8 alarmCfgMask);
 395:Generated_Source\PSoC4/RTC.h **** 
 396:Generated_Source\PSoC4/RTC.h **** static uint32 RTC_GetNextMinSec(uint32 curVal);
 397:Generated_Source\PSoC4/RTC.h **** static uint32 RTC_GetNextHour(uint32 curVal);
 398:Generated_Source\PSoC4/RTC.h **** static uint32 RTC_GetNextDay(uint32 curYear, uint32 curMonth, uint32 curDay, uint32 alarmCfgMask);
 399:Generated_Source\PSoC4/RTC.h **** static uint32 RTC_GetNextMonth(uint32 curMonth);
 400:Generated_Source\PSoC4/RTC.h **** static uint32 RTC_GetNextYear(uint32 curYear);
 401:Generated_Source\PSoC4/RTC.h **** static uint32 RTC_GetDayOfWeek(uint32 day, uint32 month, uint32 year);
 402:Generated_Source\PSoC4/RTC.h **** 
 403:Generated_Source\PSoC4/RTC.h **** uint32 RTC_DaysInMonth(uint32 month, uint32 year);
 404:Generated_Source\PSoC4/RTC.h **** uint32 RTC_DaysBeforeMonth(uint32 month, uint32 year);
 405:Generated_Source\PSoC4/RTC.h **** 
 406:Generated_Source\PSoC4/RTC.h **** /**
 407:Generated_Source\PSoC4/RTC.h **** * \addtogroup group_api
 408:Generated_Source\PSoC4/RTC.h **** * @{
 409:Generated_Source\PSoC4/RTC.h **** */
 410:Generated_Source\PSoC4/RTC.h **** void   RTC_UnixToDateTime(RTC_DATE_TIME* dateTime, uint64 unixTime, uint32 timeFormat);
 411:Generated_Source\PSoC4/RTC.h **** uint64 RTC_DateTimeToUnix(uint32 inputDate, uint32 inputTime);
 412:Generated_Source\PSoC4/RTC.h **** /** @} api */
 413:Generated_Source\PSoC4/RTC.h **** 
 414:Generated_Source\PSoC4/RTC.h **** uint32 RTC_RelativeToFixed(uint32 dayOfWeek, uint32 weekOfMonth, uint32 month, uint32 year);
 415:Generated_Source\PSoC4/RTC.h **** 
 416:Generated_Source\PSoC4/RTC.h **** 
 417:Generated_Source\PSoC4/RTC.h **** #if defined(CYDEV_RTC_SOURCE_WDT)
 418:Generated_Source\PSoC4/RTC.h ****     #if((0u != CYDEV_WDT_GENERATE_ISR) && (0u == RTC_INITIAL_UPDATE_MODE))
 419:Generated_Source\PSoC4/RTC.h ****         static void RTC_CySysRtcSetCallback(uint32 wdtNumber);
 420:Generated_Source\PSoC4/RTC.h ****         static void RTC_CySysRtcResetCallback(uint32 wdtNumber);
 421:Generated_Source\PSoC4/RTC.h ****     #endif /* ((0u != CYDEV_WDT_GENERATE_ISR) && (0u == RTC_INITIAL_UPDATE_MODE)) */
 422:Generated_Source\PSoC4/RTC.h **** #endif /* (CYDEV_RTC_SOURCE_WDT) */
 423:Generated_Source\PSoC4/RTC.h **** 
 424:Generated_Source\PSoC4/RTC.h **** /*******************************************************************************
 425:Generated_Source\PSoC4/RTC.h **** * Function Name: RTC_IsBitSet
 426:Generated_Source\PSoC4/RTC.h **** ****************************************************************************//**
 427:Generated_Source\PSoC4/RTC.h **** *
 428:Generated_Source\PSoC4/RTC.h **** * \brief
 429:Generated_Source\PSoC4/RTC.h **** *  Checks the state of a bit passed through parameter.
 430:Generated_Source\PSoC4/RTC.h **** *
 431:Generated_Source\PSoC4/RTC.h **** * \param
 432:Generated_Source\PSoC4/RTC.h **** *  var The variable to be checked.
 433:Generated_Source\PSoC4/RTC.h **** * \param
 434:Generated_Source\PSoC4/RTC.h **** *  mask The mask for a bit to be checked.
 435:Generated_Source\PSoC4/RTC.h **** *
 436:Generated_Source\PSoC4/RTC.h **** * \return
 437:Generated_Source\PSoC4/RTC.h **** *  0u - Bit is not set.
ARM GAS  C:\Users\Petro\AppData\Local\Temp\ccbUb65J.s 			page 21


 438:Generated_Source\PSoC4/RTC.h **** * \return
 439:Generated_Source\PSoC4/RTC.h **** *  1u - Bit is set.
 440:Generated_Source\PSoC4/RTC.h **** *
 441:Generated_Source\PSoC4/RTC.h **** *******************************************************************************/
 442:Generated_Source\PSoC4/RTC.h **** static CY_INLINE uint32 RTC_IsBitSet(uint32 var, uint32 mask)
 443:Generated_Source\PSoC4/RTC.h **** {
 444:Generated_Source\PSoC4/RTC.h ****     return ((mask == (var & mask)) ? 1Lu : 0Lu);
 445:Generated_Source\PSoC4/RTC.h **** }
 446:Generated_Source\PSoC4/RTC.h **** 
 447:Generated_Source\PSoC4/RTC.h **** 
 448:Generated_Source\PSoC4/RTC.h **** /*******************************************************************************
 449:Generated_Source\PSoC4/RTC.h **** * Function Name: RTC_LeapYear
 450:Generated_Source\PSoC4/RTC.h **** ****************************************************************************//**
 451:Generated_Source\PSoC4/RTC.h **** *
 452:Generated_Source\PSoC4/RTC.h **** * \brief
 453:Generated_Source\PSoC4/RTC.h **** * Checks whether the year passed through the parameter is
 454:Generated_Source\PSoC4/RTC.h **** * leap or no.
 455:Generated_Source\PSoC4/RTC.h **** *
 456:Generated_Source\PSoC4/RTC.h **** * \param
 457:Generated_Source\PSoC4/RTC.h **** *  year The year to be checked.
 458:Generated_Source\PSoC4/RTC.h **** *
 459:Generated_Source\PSoC4/RTC.h **** *
 460:Generated_Source\PSoC4/RTC.h **** * \return
 461:Generated_Source\PSoC4/RTC.h **** *  0u - The year is not leap.
 462:Generated_Source\PSoC4/RTC.h **** * \return
 463:Generated_Source\PSoC4/RTC.h **** *  1u - The year is leap.
 464:Generated_Source\PSoC4/RTC.h **** *
 465:Generated_Source\PSoC4/RTC.h **** *******************************************************************************/
 466:Generated_Source\PSoC4/RTC.h **** static CY_INLINE uint32 RTC_LeapYear(uint32 year)
 467:Generated_Source\PSoC4/RTC.h **** {
 468:Generated_Source\PSoC4/RTC.h ****     uint32 retVal;
 469:Generated_Source\PSoC4/RTC.h **** 
 470:Generated_Source\PSoC4/RTC.h ****     if(((0u == (year % 4Lu)) && (0u != (year % 100Lu))) || (0u == (year % 400Lu)))
 471:Generated_Source\PSoC4/RTC.h ****     {
 472:Generated_Source\PSoC4/RTC.h ****         retVal = 1uL;
 473:Generated_Source\PSoC4/RTC.h ****     }
 474:Generated_Source\PSoC4/RTC.h ****     else
 475:Generated_Source\PSoC4/RTC.h ****     {
 476:Generated_Source\PSoC4/RTC.h ****         retVal = 0uL;
 477:Generated_Source\PSoC4/RTC.h ****     }
 478:Generated_Source\PSoC4/RTC.h **** 
 479:Generated_Source\PSoC4/RTC.h ****     return(retVal);
 480:Generated_Source\PSoC4/RTC.h **** }
 481:Generated_Source\PSoC4/RTC.h **** 
 482:Generated_Source\PSoC4/RTC.h **** 
 483:Generated_Source\PSoC4/RTC.h **** /*******************************************************************************
 484:Generated_Source\PSoC4/RTC.h **** * Function Name: RTC_GetSecond
 485:Generated_Source\PSoC4/RTC.h **** ****************************************************************************//**
 486:Generated_Source\PSoC4/RTC.h **** *
 487:Generated_Source\PSoC4/RTC.h **** * \brief
 488:Generated_Source\PSoC4/RTC.h **** *  Returns the seconds value from the time value that is passed as a/the parameter.
 489:Generated_Source\PSoC4/RTC.h **** *
 490:Generated_Source\PSoC4/RTC.h **** * \param
 491:Generated_Source\PSoC4/RTC.h **** *  time The time value.
 492:Generated_Source\PSoC4/RTC.h **** *
 493:Generated_Source\PSoC4/RTC.h **** * \return
 494:Generated_Source\PSoC4/RTC.h **** *  The seconds value.
ARM GAS  C:\Users\Petro\AppData\Local\Temp\ccbUb65J.s 			page 22


 495:Generated_Source\PSoC4/RTC.h **** *
 496:Generated_Source\PSoC4/RTC.h **** *******************************************************************************/
 497:Generated_Source\PSoC4/RTC.h **** static CY_INLINE uint32 RTC_GetSecond(uint32 inputTime)
 498:Generated_Source\PSoC4/RTC.h **** {
 499:Generated_Source\PSoC4/RTC.h ****     uint32 retVal;
 500:Generated_Source\PSoC4/RTC.h **** 
 501:Generated_Source\PSoC4/RTC.h ****     retVal  = ((inputTime & RTC_10_SECONDS_MASK) >> RTC_10_SECONDS_OFFSET) * 10u;
 502:Generated_Source\PSoC4/RTC.h ****     retVal += (inputTime & RTC_SECONDS_MASK) >> RTC_SECONDS_OFFSET;
 503:Generated_Source\PSoC4/RTC.h **** 
 504:Generated_Source\PSoC4/RTC.h ****     return (retVal);
 505:Generated_Source\PSoC4/RTC.h **** }
 506:Generated_Source\PSoC4/RTC.h **** 
 507:Generated_Source\PSoC4/RTC.h **** 
 508:Generated_Source\PSoC4/RTC.h **** /*******************************************************************************
 509:Generated_Source\PSoC4/RTC.h **** * Function Name: RTC_GetMinutes
 510:Generated_Source\PSoC4/RTC.h **** ****************************************************************************//**
 511:Generated_Source\PSoC4/RTC.h **** *
 512:Generated_Source\PSoC4/RTC.h **** * \brief
 513:Generated_Source\PSoC4/RTC.h **** *  Returns the minutes value from the time value that is passed as a/the 
 514:Generated_Source\PSoC4/RTC.h **** * parameter.
 515:Generated_Source\PSoC4/RTC.h **** *
 516:Generated_Source\PSoC4/RTC.h **** * \param
 517:Generated_Source\PSoC4/RTC.h **** *  time The time value.
 518:Generated_Source\PSoC4/RTC.h **** *
 519:Generated_Source\PSoC4/RTC.h **** * \return
 520:Generated_Source\PSoC4/RTC.h **** *  The minutes value.
 521:Generated_Source\PSoC4/RTC.h **** *
 522:Generated_Source\PSoC4/RTC.h **** *******************************************************************************/
 523:Generated_Source\PSoC4/RTC.h **** static CY_INLINE uint32 RTC_GetMinutes(uint32 inputTime)
 524:Generated_Source\PSoC4/RTC.h **** {
 525:Generated_Source\PSoC4/RTC.h ****     uint32 retVal;
 526:Generated_Source\PSoC4/RTC.h **** 
 527:Generated_Source\PSoC4/RTC.h ****     retVal  = ((inputTime & RTC_10_MINUTES_MASK) >> RTC_10_MINUTES_OFFSET) * 10u;
 528:Generated_Source\PSoC4/RTC.h ****     retVal += (inputTime & RTC_MINUTES_MASK) >> RTC_MINUTES_OFFSET;
 529:Generated_Source\PSoC4/RTC.h **** 
 530:Generated_Source\PSoC4/RTC.h ****     return (retVal);
 531:Generated_Source\PSoC4/RTC.h **** }
 532:Generated_Source\PSoC4/RTC.h **** 
 533:Generated_Source\PSoC4/RTC.h **** 
 534:Generated_Source\PSoC4/RTC.h **** /*******************************************************************************
 535:Generated_Source\PSoC4/RTC.h **** * Function Name: RTC_GetHours
 536:Generated_Source\PSoC4/RTC.h **** ****************************************************************************//**
 537:Generated_Source\PSoC4/RTC.h **** *
 538:Generated_Source\PSoC4/RTC.h **** * \brief
 539:Generated_Source\PSoC4/RTC.h **** *  Returns the hours value from the time value that is passed as a/the parameter.
 540:Generated_Source\PSoC4/RTC.h **** *
 541:Generated_Source\PSoC4/RTC.h **** * \param
 542:Generated_Source\PSoC4/RTC.h **** *  time The time value.
 543:Generated_Source\PSoC4/RTC.h **** *
 544:Generated_Source\PSoC4/RTC.h **** * \return
 545:Generated_Source\PSoC4/RTC.h **** *  The hours value.
 546:Generated_Source\PSoC4/RTC.h **** *
 547:Generated_Source\PSoC4/RTC.h **** *******************************************************************************/
 548:Generated_Source\PSoC4/RTC.h **** static CY_INLINE uint32 RTC_GetHours(uint32 inputTime)
 549:Generated_Source\PSoC4/RTC.h **** {
 550:Generated_Source\PSoC4/RTC.h ****     uint32 retVal;
 551:Generated_Source\PSoC4/RTC.h **** 
ARM GAS  C:\Users\Petro\AppData\Local\Temp\ccbUb65J.s 			page 23


 552:Generated_Source\PSoC4/RTC.h ****     retVal  = ((inputTime & RTC_10_HOURS_MASK) >> RTC_10_HOURS_OFFSET) * 10u;
 475              		.loc 2 552 0
 476 000c 0A24     		mov	r4, #10
 477              	.LBE9:
 478              	.LBE8:
 479              	.LBB14:
 480              	.LBB15:
 527:Generated_Source\PSoC4/RTC.h ****     retVal += (inputTime & RTC_MINUTES_MASK) >> RTC_MINUTES_OFFSET;
 481              		.loc 2 527 0
 482 000e 4304     		lsl	r3, r0, #17
 483 0010 5B0F     		lsr	r3, r3, #29
 484 0012 6343     		mul	r3, r4
 485 0014 191C     		mov	r1, r3
 486              	.LBE15:
 487              	.LBE14:
 488              	.LBB17:
 489              	.LBB10:
 490              		.loc 2 552 0
 491 0016 8202     		lsl	r2, r0, #10
 492 0018 920F     		lsr	r2, r2, #30
 493 001a 6243     		mul	r2, r4
 494              	.LBE10:
 495              	.LBE17:
 496              	.LBB18:
 497              	.LBB16:
 528:Generated_Source\PSoC4/RTC.h **** 
 498              		.loc 2 528 0
 499 001c 0305     		lsl	r3, r0, #20
 500 001e 1B0F     		lsr	r3, r3, #28
 501 0020 CB18     		add	r3, r1, r3
 502              	.LBE16:
 503              	.LBE18:
 504              	.LBB19:
 505              	.LBB20:
 502:Generated_Source\PSoC4/RTC.h **** 
 506              		.loc 2 502 0
 507 0022 0F21     		mov	r1, #15
 508              	.LBE20:
 509              	.LBE19:
 510              	.LBB23:
 511              	.LBB11:
 512              		.loc 2 552 0
 513 0024 171C     		mov	r7, r2
 514              	.LVL58:
 515              	.LBE11:
 516              	.LBE23:
 517              	.LBB24:
 518              	.LBB21:
 501:Generated_Source\PSoC4/RTC.h ****     retVal += (inputTime & RTC_SECONDS_MASK) >> RTC_SECONDS_OFFSET;
 519              		.loc 2 501 0
 520 0026 4606     		lsl	r6, r0, #25
 521 0028 760F     		lsr	r6, r6, #29
 522 002a 6643     		mul	r6, r4
 523              	.LVL59:
 524              	.LBE21:
 525              	.LBE24:
 224:..\..\common\lib\lib_Display/display.c ****     sprintf(buff, "%02lu:%02lu:%02lu", RTC_GetHours(time),RTC_GetMinutes(time), RTC_GetSecond(time)
ARM GAS  C:\Users\Petro\AppData\Local\Temp\ccbUb65J.s 			page 24


 526              		.loc 1 224 0
 527 002c 0A4D     		ldr	r5, .L34+4
 528              	.LBB25:
 529              	.LBB12:
 553:Generated_Source\PSoC4/RTC.h ****     retVal += (inputTime & RTC_HOURS_MASK) >> RTC_HOURS_OFFSET;
 530              		.loc 2 553 0
 531 002e 0203     		lsl	r2, r0, #12
 532              	.LVL60:
 533              	.LBE12:
 534              	.LBE25:
 535              	.LBB26:
 536              	.LBB22:
 502:Generated_Source\PSoC4/RTC.h **** 
 537              		.loc 2 502 0
 538 0030 0840     		and	r0, r1
 539              	.LVL61:
 540 0032 3018     		add	r0, r6, r0
 541              	.LVL62:
 542              	.LBE22:
 543              	.LBE26:
 544              	.LBB27:
 545              	.LBB13:
 546              		.loc 2 553 0
 547 0034 120F     		lsr	r2, r2, #28
 548 0036 BA18     		add	r2, r7, r2
 549              	.LBE13:
 550              	.LBE27:
 551              		.loc 1 224 0
 552 0038 0090     		str	r0, [sp]
 553 003a 0849     		ldr	r1, .L34+8
 554 003c 281C     		mov	r0, r5
 555              	.LVL63:
 556 003e FFF7FEFF 		bl	sprintf
 557              	.LVL64:
 225:..\..\common\lib\lib_Display/display.c ****     //sprintf(buff,"%02d:%02d:%02d", 13,59,59);
 226:..\..\common\lib\lib_Display/display.c ****     print(buff,10,0);
 558              		.loc 1 226 0
 559 0042 281C     		mov	r0, r5
 560 0044 211C     		mov	r1, r4
 561 0046 0022     		mov	r2, #0
 562 0048 FFF7FEFF 		bl	print
 563              	.LVL65:
 227:..\..\common\lib\lib_Display/display.c ****     update();
 228:..\..\common\lib\lib_Display/display.c ****     
 229:..\..\common\lib\lib_Display/display.c **** }
 564              		.loc 1 229 0
 565              		@ sp needed
 227:..\..\common\lib\lib_Display/display.c ****     update();
 566              		.loc 1 227 0
 567 004c FFF7FEFF 		bl	update
 568              	.LVL66:
 569              		.loc 1 229 0
 570 0050 F7BD     		pop	{r0, r1, r2, r4, r5, r6, r7, pc}
 571              	.L35:
 572 0052 C046     		.align	2
 573              	.L34:
 574 0054 00000000 		.word	SmallFont
ARM GAS  C:\Users\Petro\AppData\Local\Temp\ccbUb65J.s 			page 25


 575 0058 00000000 		.word	.LANCHOR1
 576 005c 00000000 		.word	.LC11
 577              		.cfi_endproc
 578              	.LFE68:
 579              		.size	DisplayRealTime, .-DisplayRealTime
 580              		.section	.text.DisplayLoading,"ax",%progbits
 581              		.align	1
 582              		.global	DisplayLoading
 583              		.code	16
 584              		.thumb_func
 585              		.type	DisplayLoading, %function
 586              	DisplayLoading:
 587              	.LFB69:
 230:..\..\common\lib\lib_Display/display.c **** 
 231:..\..\common\lib\lib_Display/display.c **** 
 232:..\..\common\lib\lib_Display/display.c **** /*******************************************************************************
 233:..\..\common\lib\lib_Display/display.c **** * Function name: DisplayPrintfLoading
 234:..\..\common\lib\lib_Display/display.c **** ********************************************************************************
 235:..\..\common\lib\lib_Display/display.c **** *
 236:..\..\common\lib\lib_Display/display.c **** * print loading from position row = 1, column = 0
 237:..\..\common\lib\lib_Display/display.c **** *
 238:..\..\common\lib\lib_Display/display.c **** *******************************************************************************/
 239:..\..\common\lib\lib_Display/display.c **** void DisplayLoading(uint32_t numLoad)
 240:..\..\common\lib\lib_Display/display.c **** {
 588              		.loc 1 240 0
 589              		.cfi_startproc
 590              	.LVL67:
 241:..\..\common\lib\lib_Display/display.c **** //    if(numLoad == 0)
 242:..\..\common\lib\lib_Display/display.c **** //    {
 243:..\..\common\lib\lib_Display/display.c **** //        /*clear row 1*/
 244:..\..\common\lib\lib_Display/display.c **** //        LCD_Position(1,0);
 245:..\..\common\lib\lib_Display/display.c **** //        LCD_PrintString("             ");
 246:..\..\common\lib\lib_Display/display.c **** //    }
 247:..\..\common\lib\lib_Display/display.c **** //    if((numLoad > 0) && numLoad < 16)
 248:..\..\common\lib\lib_Display/display.c **** //    {
 249:..\..\common\lib\lib_Display/display.c **** //        LCD_Position(1,numLoad-1);
 250:..\..\common\lib\lib_Display/display.c **** //        LCD_PutChar(LCD_CUSTOM_4);
 251:..\..\common\lib\lib_Display/display.c **** //    }
 252:..\..\common\lib\lib_Display/display.c **** }
 591              		.loc 1 252 0
 592              		@ sp needed
 593 0000 7047     		bx	lr
 594              		.cfi_endproc
 595              	.LFE69:
 596              		.size	DisplayLoading, .-DisplayLoading
 597              		.global	__aeabi_fcmplt
 598              		.global	__aeabi_f2d
 599              		.global	__aeabi_dcmpgt
 600              		.section	.text.DisplayBattVoltage,"ax",%progbits
 601              		.align	1
 602              		.global	DisplayBattVoltage
 603              		.code	16
 604              		.thumb_func
 605              		.type	DisplayBattVoltage, %function
 606              	DisplayBattVoltage:
 607              	.LFB70:
 253:..\..\common\lib\lib_Display/display.c **** 
ARM GAS  C:\Users\Petro\AppData\Local\Temp\ccbUb65J.s 			page 26


 254:..\..\common\lib\lib_Display/display.c **** /*******************************************************************************
 255:..\..\common\lib\lib_Display/display.c **** * Function name: DisplayBattVoltage
 256:..\..\common\lib\lib_Display/display.c **** ********************************************************************************
 257:..\..\common\lib\lib_Display/display.c **** *
 258:..\..\common\lib\lib_Display/display.c **** * print voltage battery
 259:..\..\common\lib\lib_Display/display.c **** *
 260:..\..\common\lib\lib_Display/display.c **** *******************************************************************************/
 261:..\..\common\lib\lib_Display/display.c **** void DisplayBattVoltage(float voltage)
 262:..\..\common\lib\lib_Display/display.c **** {
 608              		.loc 1 262 0
 609              		.cfi_startproc
 610              	.LVL68:
 611 0000 38B5     		push	{r3, r4, r5, lr}
 612              		.cfi_def_cfa_offset 16
 613              		.cfi_offset 3, -16
 614              		.cfi_offset 4, -12
 615              		.cfi_offset 5, -8
 616              		.cfi_offset 14, -4
 263:..\..\common\lib\lib_Display/display.c ****     if(voltage < 0)return;
 617              		.loc 1 263 0
 618 0002 0021     		mov	r1, #0
 262:..\..\common\lib\lib_Display/display.c ****     if(voltage < 0)return;
 619              		.loc 1 262 0
 620 0004 051C     		add	r5, r0, #0
 621              		.loc 1 263 0
 622 0006 FFF7FEFF 		bl	__aeabi_fcmplt
 623              	.LVL69:
 624 000a 0028     		cmp	r0, #0
 625 000c 78D1     		bne	.L37
 626 000e 4D24     		mov	r4, #77
 627              	.L39:
 628              	.LVL70:
 264:..\..\common\lib\lib_Display/display.c ****     
 265:..\..\common\lib\lib_Display/display.c ****     /*clear image batt*/
 266:..\..\common\lib\lib_Display/display.c ****     uint8_t i;
 267:..\..\common\lib\lib_Display/display.c ****     for(i=0;i<5;i++)
 268:..\..\common\lib\lib_Display/display.c ****     {
 269:..\..\common\lib\lib_Display/display.c ****         clrVLine(77+i,4,35);
 629              		.loc 1 269 0 discriminator 3
 630 0010 201C     		mov	r0, r4
 631 0012 0421     		mov	r1, #4
 632 0014 2322     		mov	r2, #35
 633 0016 0134     		add	r4, r4, #1
 634              	.LVL71:
 635 0018 FFF7FEFF 		bl	clrVLine
 636              	.LVL72:
 267:..\..\common\lib\lib_Display/display.c ****     {
 637              		.loc 1 267 0 discriminator 3
 638 001c 522C     		cmp	r4, #82
 639 001e F7D1     		bne	.L39
 270:..\..\common\lib\lib_Display/display.c ****     }
 271:..\..\common\lib\lib_Display/display.c ****     
 272:..\..\common\lib\lib_Display/display.c ****     if(voltage > BATT_0_PERCENT)
 640              		.loc 1 272 0
 641 0020 281C     		add	r0, r5, #0
 642 0022 FFF7FEFF 		bl	__aeabi_f2d
 643              	.LVL73:
ARM GAS  C:\Users\Petro\AppData\Local\Temp\ccbUb65J.s 			page 27


 644 0026 374A     		ldr	r2, .L52
 645 0028 374B     		ldr	r3, .L52+4
 646 002a 041C     		mov	r4, r0
 647 002c 0D1C     		mov	r5, r1
 648              	.LVL74:
 649 002e FFF7FEFF 		bl	__aeabi_dcmpgt
 650              	.LVL75:
 651 0032 0028     		cmp	r0, #0
 652 0034 0ED0     		beq	.L40
 273:..\..\common\lib\lib_Display/display.c ****     {
 274:..\..\common\lib\lib_Display/display.c ****         drawVLine(79,31,7);
 653              		.loc 1 274 0
 654 0036 4F20     		mov	r0, #79
 655 0038 1F21     		mov	r1, #31
 656 003a 0722     		mov	r2, #7
 657 003c FFF7FEFF 		bl	drawVLine
 658              	.LVL76:
 275:..\..\common\lib\lib_Display/display.c ****         drawVLine(80,31,7);
 659              		.loc 1 275 0
 660 0040 5020     		mov	r0, #80
 661 0042 1F21     		mov	r1, #31
 662 0044 0722     		mov	r2, #7
 663 0046 FFF7FEFF 		bl	drawVLine
 664              	.LVL77:
 276:..\..\common\lib\lib_Display/display.c ****         drawVLine(81,31,7);
 665              		.loc 1 276 0
 666 004a 5120     		mov	r0, #81
 667 004c 1F21     		mov	r1, #31
 668 004e 0722     		mov	r2, #7
 669 0050 FFF7FEFF 		bl	drawVLine
 670              	.LVL78:
 671              	.L40:
 277:..\..\common\lib\lib_Display/display.c ****     }
 278:..\..\common\lib\lib_Display/display.c ****     if(voltage > BATT_25_PERCENT)
 672              		.loc 1 278 0
 673 0054 201C     		mov	r0, r4
 674 0056 291C     		mov	r1, r5
 675 0058 2C4A     		ldr	r2, .L52+8
 676 005a 2D4B     		ldr	r3, .L52+12
 677 005c FFF7FEFF 		bl	__aeabi_dcmpgt
 678              	.LVL79:
 679 0060 0028     		cmp	r0, #0
 680 0062 0ED0     		beq	.L42
 279:..\..\common\lib\lib_Display/display.c ****     {
 280:..\..\common\lib\lib_Display/display.c ****         drawVLine(79,22,7);
 681              		.loc 1 280 0
 682 0064 4F20     		mov	r0, #79
 683 0066 1621     		mov	r1, #22
 684 0068 0722     		mov	r2, #7
 685 006a FFF7FEFF 		bl	drawVLine
 686              	.LVL80:
 281:..\..\common\lib\lib_Display/display.c ****         drawVLine(80,22,7);
 687              		.loc 1 281 0
 688 006e 5020     		mov	r0, #80
 689 0070 1621     		mov	r1, #22
 690 0072 0722     		mov	r2, #7
 691 0074 FFF7FEFF 		bl	drawVLine
ARM GAS  C:\Users\Petro\AppData\Local\Temp\ccbUb65J.s 			page 28


 692              	.LVL81:
 282:..\..\common\lib\lib_Display/display.c ****         drawVLine(81,22,7);
 693              		.loc 1 282 0
 694 0078 5120     		mov	r0, #81
 695 007a 1621     		mov	r1, #22
 696 007c 0722     		mov	r2, #7
 697 007e FFF7FEFF 		bl	drawVLine
 698              	.LVL82:
 699              	.L42:
 283:..\..\common\lib\lib_Display/display.c ****     }
 284:..\..\common\lib\lib_Display/display.c ****     if(voltage > BATT_50_PERCENT)
 700              		.loc 1 284 0
 701 0082 201C     		mov	r0, r4
 702 0084 291C     		mov	r1, r5
 703 0086 234A     		ldr	r2, .L52+16
 704 0088 234B     		ldr	r3, .L52+20
 705 008a FFF7FEFF 		bl	__aeabi_dcmpgt
 706              	.LVL83:
 707 008e 0028     		cmp	r0, #0
 708 0090 13D0     		beq	.L44
 285:..\..\common\lib\lib_Display/display.c ****     {
 286:..\..\common\lib\lib_Display/display.c ****         drawVLine(78,13,7);
 709              		.loc 1 286 0
 710 0092 4E20     		mov	r0, #78
 711 0094 0D21     		mov	r1, #13
 712 0096 0722     		mov	r2, #7
 713 0098 FFF7FEFF 		bl	drawVLine
 714              	.LVL84:
 287:..\..\common\lib\lib_Display/display.c ****         drawVLine(79,13,7);
 715              		.loc 1 287 0
 716 009c 4F20     		mov	r0, #79
 717 009e 0D21     		mov	r1, #13
 718 00a0 0722     		mov	r2, #7
 719 00a2 FFF7FEFF 		bl	drawVLine
 720              	.LVL85:
 288:..\..\common\lib\lib_Display/display.c ****         drawVLine(80,13,7);
 721              		.loc 1 288 0
 722 00a6 5020     		mov	r0, #80
 723 00a8 0D21     		mov	r1, #13
 724 00aa 0722     		mov	r2, #7
 725 00ac FFF7FEFF 		bl	drawVLine
 726              	.LVL86:
 289:..\..\common\lib\lib_Display/display.c ****         drawVLine(81,13,7);
 727              		.loc 1 289 0
 728 00b0 5120     		mov	r0, #81
 729 00b2 0D21     		mov	r1, #13
 730 00b4 0722     		mov	r2, #7
 731 00b6 FFF7FEFF 		bl	drawVLine
 732              	.LVL87:
 733              	.L44:
 290:..\..\common\lib\lib_Display/display.c ****     }
 291:..\..\common\lib\lib_Display/display.c ****     if(voltage > BATT_75_PERCENT)
 734              		.loc 1 291 0
 735 00ba 201C     		mov	r0, r4
 736 00bc 291C     		mov	r1, r5
 737 00be 174A     		ldr	r2, .L52+24
 738 00c0 174B     		ldr	r3, .L52+28
ARM GAS  C:\Users\Petro\AppData\Local\Temp\ccbUb65J.s 			page 29


 739 00c2 FFF7FEFF 		bl	__aeabi_dcmpgt
 740              	.LVL88:
 741 00c6 0028     		cmp	r0, #0
 742 00c8 18D0     		beq	.L46
 292:..\..\common\lib\lib_Display/display.c ****     {
 293:..\..\common\lib\lib_Display/display.c ****         drawVLine(77,4,7);
 743              		.loc 1 293 0
 744 00ca 4D20     		mov	r0, #77
 745 00cc 0421     		mov	r1, #4
 746 00ce 0722     		mov	r2, #7
 747 00d0 FFF7FEFF 		bl	drawVLine
 748              	.LVL89:
 294:..\..\common\lib\lib_Display/display.c ****         drawVLine(78,4,7);
 749              		.loc 1 294 0
 750 00d4 4E20     		mov	r0, #78
 751 00d6 0421     		mov	r1, #4
 752 00d8 0722     		mov	r2, #7
 753 00da FFF7FEFF 		bl	drawVLine
 754              	.LVL90:
 295:..\..\common\lib\lib_Display/display.c ****         drawVLine(79,4,7);
 755              		.loc 1 295 0
 756 00de 4F20     		mov	r0, #79
 757 00e0 0421     		mov	r1, #4
 758 00e2 0722     		mov	r2, #7
 759 00e4 FFF7FEFF 		bl	drawVLine
 760              	.LVL91:
 296:..\..\common\lib\lib_Display/display.c ****         drawVLine(80,4,7);
 761              		.loc 1 296 0
 762 00e8 5020     		mov	r0, #80
 763 00ea 0421     		mov	r1, #4
 764 00ec 0722     		mov	r2, #7
 765 00ee FFF7FEFF 		bl	drawVLine
 766              	.LVL92:
 297:..\..\common\lib\lib_Display/display.c ****         drawVLine(81,4,7);
 767              		.loc 1 297 0
 768 00f2 5120     		mov	r0, #81
 769 00f4 0421     		mov	r1, #4
 770 00f6 0722     		mov	r2, #7
 771 00f8 FFF7FEFF 		bl	drawVLine
 772              	.LVL93:
 773              	.L46:
 298:..\..\common\lib\lib_Display/display.c ****     }
 299:..\..\common\lib\lib_Display/display.c ****     update();
 774              		.loc 1 299 0
 775 00fc FFF7FEFF 		bl	update
 776              	.LVL94:
 777              	.L37:
 300:..\..\common\lib\lib_Display/display.c **** }
 778              		.loc 1 300 0
 779              		@ sp needed
 780 0100 38BD     		pop	{r3, r4, r5, pc}
 781              	.L53:
 782 0102 C046     		.align	2
 783              	.L52:
 784 0104 9A999999 		.word	-1717986918
 785 0108 9999D93F 		.word	1071225241
 786 010c E17A14AE 		.word	-1374389535
ARM GAS  C:\Users\Petro\AppData\Local\Temp\ccbUb65J.s 			page 30


 787 0110 47E1DA3F 		.word	1071309127
 788 0114 295C8FC2 		.word	-1030792151
 789 0118 F528DC3F 		.word	1071393013
 790 011c 713D0AD7 		.word	-687194767
 791 0120 A370DD3F 		.word	1071476899
 792              		.cfi_endproc
 793              	.LFE70:
 794              		.size	DisplayBattVoltage, .-DisplayBattVoltage
 795              		.global	__aeabi_uidiv
 796              		.global	__aeabi_uidivmod
 797              		.section	.text.DisplayLastSkierTime,"ax",%progbits
 798              		.align	1
 799              		.global	DisplayLastSkierTime
 800              		.code	16
 801              		.thumb_func
 802              		.type	DisplayLastSkierTime, %function
 803              	DisplayLastSkierTime:
 804              	.LFB71:
 301:..\..\common\lib\lib_Display/display.c **** 
 302:..\..\common\lib\lib_Display/display.c **** /*******************************************************************************
 303:..\..\common\lib\lib_Display/display.c **** * Function name: DisplayPrintLastTimeSkier
 304:..\..\common\lib\lib_Display/display.c **** ********************************************************************************
 305:..\..\common\lib\lib_Display/display.c **** *
 306:..\..\common\lib\lib_Display/display.c **** * Summary:
 307:..\..\common\lib\lib_Display/display.c **** *   print time last skier from position row = 1, column = 0
 308:..\..\common\lib\lib_Display/display.c **** *
 309:..\..\common\lib\lib_Display/display.c **** *******************************************************************************/
 310:..\..\common\lib\lib_Display/display.c **** void DisplayLastSkierTime(uint32_t sec, uint16_t milisec)
 311:..\..\common\lib\lib_Display/display.c **** {
 805              		.loc 1 311 0
 806              		.cfi_startproc
 807              	.LVL95:
 312:..\..\common\lib\lib_Display/display.c ****     if(sec > 60000 || milisec >= 1000)return;
 808              		.loc 1 312 0
 809 0000 144B     		ldr	r3, .L56
 311:..\..\common\lib\lib_Display/display.c ****     if(sec > 60000 || milisec >= 1000)return;
 810              		.loc 1 311 0
 811 0002 73B5     		push	{r0, r1, r4, r5, r6, lr}
 812              		.cfi_def_cfa_offset 24
 813              		.cfi_offset 0, -24
 814              		.cfi_offset 1, -20
 815              		.cfi_offset 4, -16
 816              		.cfi_offset 5, -12
 817              		.cfi_offset 6, -8
 818              		.cfi_offset 14, -4
 819              		.loc 1 312 0
 820 0004 9842     		cmp	r0, r3
 821 0006 24D8     		bhi	.L54
 822              		.loc 1 312 0 is_stmt 0 discriminator 1
 823 0008 134B     		ldr	r3, .L56+4
 824 000a 9942     		cmp	r1, r3
 825 000c 21D8     		bhi	.L54
 826 000e 041C     		mov	r4, r0
 313:..\..\common\lib\lib_Display/display.c ****         
 314:..\..\common\lib\lib_Display/display.c ****     setFont(SmallFont);
 315:..\..\common\lib\lib_Display/display.c ****     printNumI(sec/60,22,11,3,' ');
 827              		.loc 1 315 0 is_stmt 1
ARM GAS  C:\Users\Petro\AppData\Local\Temp\ccbUb65J.s 			page 31


 828 0010 2025     		mov	r5, #32
 314:..\..\common\lib\lib_Display/display.c ****     printNumI(sec/60,22,11,3,' ');
 829              		.loc 1 314 0
 830 0012 1248     		ldr	r0, .L56+8
 831              	.LVL96:
 832 0014 0E1C     		mov	r6, r1
 833 0016 FFF7FEFF 		bl	setFont
 834              	.LVL97:
 835              		.loc 1 315 0
 836 001a 3C21     		mov	r1, #60
 837 001c 201C     		mov	r0, r4
 838 001e FFF7FEFF 		bl	__aeabi_uidiv
 839              	.LVL98:
 840 0022 0B22     		mov	r2, #11
 841 0024 0323     		mov	r3, #3
 842 0026 1621     		mov	r1, #22
 843 0028 0095     		str	r5, [sp]
 844 002a FFF7FEFF 		bl	printNumI
 845              	.LVL99:
 316:..\..\common\lib\lib_Display/display.c ****     printNumI(sec%60,28,20,2,' ');
 846              		.loc 1 316 0
 847 002e 201C     		mov	r0, r4
 848 0030 3C21     		mov	r1, #60
 849 0032 FFF7FEFF 		bl	__aeabi_uidivmod
 850              	.LVL100:
 851 0036 1422     		mov	r2, #20
 852 0038 081C     		mov	r0, r1
 853 003a 0223     		mov	r3, #2
 854 003c 1C21     		mov	r1, #28
 855 003e 0095     		str	r5, [sp]
 856 0040 FFF7FEFF 		bl	printNumI
 857              	.LVL101:
 317:..\..\common\lib\lib_Display/display.c ****     printNumI(milisec,22,29,3,' ');
 858              		.loc 1 317 0
 859 0044 0095     		str	r5, [sp]
 860 0046 301C     		mov	r0, r6
 861 0048 1621     		mov	r1, #22
 862 004a 1D22     		mov	r2, #29
 863 004c 0323     		mov	r3, #3
 864 004e FFF7FEFF 		bl	printNumI
 865              	.LVL102:
 866              	.L54:
 318:..\..\common\lib\lib_Display/display.c **** }
 867              		.loc 1 318 0
 868              		@ sp needed
 869 0052 73BD     		pop	{r0, r1, r4, r5, r6, pc}
 870              	.L57:
 871              		.align	2
 872              	.L56:
 873 0054 60EA0000 		.word	60000
 874 0058 E7030000 		.word	999
 875 005c 00000000 		.word	SmallFont
 876              		.cfi_endproc
 877              	.LFE71:
 878              		.size	DisplayLastSkierTime, .-DisplayLastSkierTime
 879              		.section	.text.DisplayNumSkierOnWay,"ax",%progbits
 880              		.align	1
ARM GAS  C:\Users\Petro\AppData\Local\Temp\ccbUb65J.s 			page 32


 881              		.global	DisplayNumSkierOnWay
 882              		.code	16
 883              		.thumb_func
 884              		.type	DisplayNumSkierOnWay, %function
 885              	DisplayNumSkierOnWay:
 886              	.LFB72:
 319:..\..\common\lib\lib_Display/display.c **** 
 320:..\..\common\lib\lib_Display/display.c **** /*******************************************************************************
 321:..\..\common\lib\lib_Display/display.c **** * Function name: DisplayPrintNumSkierOnWay
 322:..\..\common\lib\lib_Display/display.c **** ********************************************************************************
 323:..\..\common\lib\lib_Display/display.c **** *
 324:..\..\common\lib\lib_Display/display.c **** * Summary:
 325:..\..\common\lib\lib_Display/display.c **** *   print number skier on way from position row = 1, column = 11
 326:..\..\common\lib\lib_Display/display.c **** *
 327:..\..\common\lib\lib_Display/display.c **** *******************************************************************************/
 328:..\..\common\lib\lib_Display/display.c **** void DisplayNumSkierOnWay(uint32_t num)
 329:..\..\common\lib\lib_Display/display.c **** {
 887              		.loc 1 329 0
 888              		.cfi_startproc
 889              	.LVL103:
 890 0000 37B5     		push	{r0, r1, r2, r4, r5, lr}
 891              		.cfi_def_cfa_offset 24
 892              		.cfi_offset 0, -24
 893              		.cfi_offset 1, -20
 894              		.cfi_offset 2, -16
 895              		.cfi_offset 4, -12
 896              		.cfi_offset 5, -8
 897              		.cfi_offset 14, -4
 898              		.loc 1 329 0
 899 0002 051C     		mov	r5, r0
 330:..\..\common\lib\lib_Display/display.c ****     setFont(MediumNumbers);
 331:..\..\common\lib\lib_Display/display.c ****     printNumI(num,43,14,1,' ');
 900              		.loc 1 331 0
 901 0004 2024     		mov	r4, #32
 330:..\..\common\lib\lib_Display/display.c ****     setFont(MediumNumbers);
 902              		.loc 1 330 0
 903 0006 0A48     		ldr	r0, .L59
 904              	.LVL104:
 905 0008 FFF7FEFF 		bl	setFont
 906              	.LVL105:
 907              		.loc 1 331 0
 908 000c 281C     		mov	r0, r5
 909 000e 0094     		str	r4, [sp]
 910 0010 2B21     		mov	r1, #43
 911 0012 0E22     		mov	r2, #14
 912 0014 0123     		mov	r3, #1
 913 0016 FFF7FEFF 		bl	printNumI
 914              	.LVL106:
 332:..\..\common\lib\lib_Display/display.c ****     printNumI(4,64,14,1,' ');
 915              		.loc 1 332 0
 916 001a 0420     		mov	r0, #4
 917 001c 4021     		mov	r1, #64
 918 001e 0E22     		mov	r2, #14
 919 0020 0123     		mov	r3, #1
 920 0022 0094     		str	r4, [sp]
 921 0024 FFF7FEFF 		bl	printNumI
 922              	.LVL107:
ARM GAS  C:\Users\Petro\AppData\Local\Temp\ccbUb65J.s 			page 33


 333:..\..\common\lib\lib_Display/display.c ****     update();
 334:..\..\common\lib\lib_Display/display.c **** }
 923              		.loc 1 334 0
 924              		@ sp needed
 333:..\..\common\lib\lib_Display/display.c ****     update();
 925              		.loc 1 333 0
 926 0028 FFF7FEFF 		bl	update
 927              	.LVL108:
 928              	.LVL109:
 929              		.loc 1 334 0
 930 002c 37BD     		pop	{r0, r1, r2, r4, r5, pc}
 931              	.L60:
 932 002e C046     		.align	2
 933              	.L59:
 934 0030 00000000 		.word	MediumNumbers
 935              		.cfi_endproc
 936              	.LFE72:
 937              		.size	DisplayNumSkierOnWay, .-DisplayNumSkierOnWay
 938              		.section	.text.DisplayTestMode,"ax",%progbits
 939              		.align	1
 940              		.global	DisplayTestMode
 941              		.code	16
 942              		.thumb_func
 943              		.type	DisplayTestMode, %function
 944              	DisplayTestMode:
 945              	.LFB73:
 335:..\..\common\lib\lib_Display/display.c **** 
 336:..\..\common\lib\lib_Display/display.c **** /*******************************************************************************
 337:..\..\common\lib\lib_Display/display.c **** * Function name: DisplayTestMode
 338:..\..\common\lib\lib_Display/display.c **** ********************************************************************************
 339:..\..\common\lib\lib_Display/display.c **** *
 340:..\..\common\lib\lib_Display/display.c **** * Summary:
 341:..\..\common\lib\lib_Display/display.c **** *   display on indicator test mode
 342:..\..\common\lib\lib_Display/display.c **** *
 343:..\..\common\lib\lib_Display/display.c **** *******************************************************************************/
 344:..\..\common\lib\lib_Display/display.c **** void DisplayTestMode(uint8_t state)
 345:..\..\common\lib\lib_Display/display.c **** {
 946              		.loc 1 345 0
 947              		.cfi_startproc
 948              	.LVL110:
 949 0000 10B5     		push	{r4, lr}
 950              		.cfi_def_cfa_offset 8
 951              		.cfi_offset 4, -8
 952              		.cfi_offset 14, -4
 953              		.loc 1 345 0
 954 0002 041C     		mov	r4, r0
 346:..\..\common\lib\lib_Display/display.c ****     setFont(TinyFont);
 955              		.loc 1 346 0
 956 0004 0548     		ldr	r0, .L65
 957              	.LVL111:
 958 0006 FFF7FEFF 		bl	setFont
 959              	.LVL112:
 347:..\..\common\lib\lib_Display/display.c ****     if(state > 0)
 348:..\..\common\lib\lib_Display/display.c ****         print("test",43,31);
 960              		.loc 1 348 0
 961 000a 0548     		ldr	r0, .L65+4
 347:..\..\common\lib\lib_Display/display.c ****     if(state > 0)
ARM GAS  C:\Users\Petro\AppData\Local\Temp\ccbUb65J.s 			page 34


 962              		.loc 1 347 0
 963 000c 002C     		cmp	r4, #0
 964 000e 00D1     		bne	.L64
 349:..\..\common\lib\lib_Display/display.c ****     else
 350:..\..\common\lib\lib_Display/display.c ****         print("    ",43,31); 
 965              		.loc 1 350 0
 966 0010 0448     		ldr	r0, .L65+8
 967              	.L64:
 968 0012 2B21     		mov	r1, #43
 969 0014 1F22     		mov	r2, #31
 970 0016 FFF7FEFF 		bl	print
 971              	.LVL113:
 351:..\..\common\lib\lib_Display/display.c **** }
 972              		.loc 1 351 0
 973              		@ sp needed
 974 001a 10BD     		pop	{r4, pc}
 975              	.L66:
 976              		.align	2
 977              	.L65:
 978 001c 00000000 		.word	TinyFont
 979 0020 12000000 		.word	.LC16
 980 0024 17000000 		.word	.LC18
 981              		.cfi_endproc
 982              	.LFE73:
 983              		.size	DisplayTestMode, .-DisplayTestMode
 984              		.section	.text.DisplaBacklightOn,"ax",%progbits
 985              		.align	1
 986              		.global	DisplaBacklightOn
 987              		.code	16
 988              		.thumb_func
 989              		.type	DisplaBacklightOn, %function
 990              	DisplaBacklightOn:
 991              	.LFB74:
 352:..\..\common\lib\lib_Display/display.c **** 
 353:..\..\common\lib\lib_Display/display.c **** /*******************************************************************************
 354:..\..\common\lib\lib_Display/display.c **** * Function name: DisplaBacklightOn/DisplaBacklightOff
 355:..\..\common\lib\lib_Display/display.c **** ********************************************************************************
 356:..\..\common\lib\lib_Display/display.c **** *
 357:..\..\common\lib\lib_Display/display.c **** * Summary:
 358:..\..\common\lib\lib_Display/display.c **** *   on and off backlight display
 359:..\..\common\lib\lib_Display/display.c **** *
 360:..\..\common\lib\lib_Display/display.c **** *******************************************************************************/
 361:..\..\common\lib\lib_Display/display.c **** void DisplaBacklightOn(void)
 362:..\..\common\lib\lib_Display/display.c **** {
 992              		.loc 1 362 0
 993              		.cfi_startproc
 994 0000 08B5     		push	{r3, lr}
 995              		.cfi_def_cfa_offset 8
 996              		.cfi_offset 3, -8
 997              		.cfi_offset 14, -4
 363:..\..\common\lib\lib_Display/display.c ****     LCD_BL_Write(1);
 998              		.loc 1 363 0
 999 0002 0120     		mov	r0, #1
 1000 0004 FFF7FEFF 		bl	LCD_BL_Write
 1001              	.LVL114:
 364:..\..\common\lib\lib_Display/display.c **** }
 1002              		.loc 1 364 0
ARM GAS  C:\Users\Petro\AppData\Local\Temp\ccbUb65J.s 			page 35


 1003              		@ sp needed
 1004 0008 08BD     		pop	{r3, pc}
 1005              		.cfi_endproc
 1006              	.LFE74:
 1007              		.size	DisplaBacklightOn, .-DisplaBacklightOn
 1008              		.section	.text.DisplaBacklightOff,"ax",%progbits
 1009              		.align	1
 1010              		.global	DisplaBacklightOff
 1011              		.code	16
 1012              		.thumb_func
 1013              		.type	DisplaBacklightOff, %function
 1014              	DisplaBacklightOff:
 1015              	.LFB75:
 365:..\..\common\lib\lib_Display/display.c **** 
 366:..\..\common\lib\lib_Display/display.c **** void DisplaBacklightOff(void)
 367:..\..\common\lib\lib_Display/display.c **** {
 1016              		.loc 1 367 0
 1017              		.cfi_startproc
 1018 0000 08B5     		push	{r3, lr}
 1019              		.cfi_def_cfa_offset 8
 1020              		.cfi_offset 3, -8
 1021              		.cfi_offset 14, -4
 368:..\..\common\lib\lib_Display/display.c ****     LCD_BL_Write(0);
 1022              		.loc 1 368 0
 1023 0002 0020     		mov	r0, #0
 1024 0004 FFF7FEFF 		bl	LCD_BL_Write
 1025              	.LVL115:
 369:..\..\common\lib\lib_Display/display.c **** }
 1026              		.loc 1 369 0
 1027              		@ sp needed
 1028 0008 08BD     		pop	{r3, pc}
 1029              		.cfi_endproc
 1030              	.LFE75:
 1031              		.size	DisplaBacklightOff, .-DisplaBacklightOff
 1032              		.comm	_contrast,4,4
 1033              		.comm	_sleep,1,1
 1034              		.comm	scrbuf,504,1
 1035              		.comm	cfont,12,4
 1036              		.section	.rodata
 1037              		.set	.LANCHOR0,. + 0
 1038              	.LC2:
 1039 0000 20202020 		.ascii	"           \000"
 1039      20202020 
 1039      20202000 
 1040              		.section	.rodata.str1.1,"aMS",%progbits,1
 1041              	.LC11:
 1042 0000 2530326C 		.ascii	"%02lu:%02lu:%02lu\000"
 1042      753A2530 
 1042      326C753A 
 1042      2530326C 
 1042      7500
 1043              	.LC16:
 1044 0012 74657374 		.ascii	"test\000"
 1044      00
 1045              	.LC18:
 1046 0017 20202020 		.ascii	"    \000"
 1046      00
ARM GAS  C:\Users\Petro\AppData\Local\Temp\ccbUb65J.s 			page 36


 1047              		.bss
 1048              		.set	.LANCHOR1,. + 0
 1049              		.type	buff, %object
 1050              		.size	buff, 100
 1051              	buff:
 1052 0000 00000000 		.space	100
 1052      00000000 
 1052      00000000 
 1052      00000000 
 1052      00000000 
 1053              		.text
 1054              	.Letext0:
 1055              		.file 3 "c:\\program files (x86)\\cypress\\psoc creator\\4.0\\psoc creator\\import\\gnu\\arm\\4.9.
 1056              		.file 4 "c:\\program files (x86)\\cypress\\psoc creator\\4.0\\psoc creator\\import\\gnu\\arm\\4.9.
 1057              		.file 5 "Generated_Source\\PSoC4/cytypes.h"
 1058              		.file 6 "c:\\program files (x86)\\cypress\\psoc creator\\4.0\\psoc creator\\import\\gnu\\arm\\4.9.
 1059              		.file 7 "./..\\..\\common\\lib\\lib_Display\\display.h"
 1060              		.file 8 "Generated_Source\\PSoC4/ble_Stack.h"
 1061              		.file 9 "./..\\..\\common\\lib\\nokia5110\\LCD5110_Graph.h"
 1062              		.file 10 "Generated_Source\\PSoC4/LCD_BL.h"
 1063              		.file 11 "c:\\program files (x86)\\cypress\\psoc creator\\4.0\\psoc creator\\import\\gnu\\arm\\4.9
 1064              		.file 12 "c:\\program files (x86)\\cypress\\psoc creator\\4.0\\psoc creator\\import\\gnu\\arm\\4.9