ARM GAS  C:\Users\Petro\AppData\Local\Temp\cc6W0syg.s 			page 1


   1              		.cpu cortex-m0
   2              		.fpu softvfp
   3              		.eabi_attribute 20, 1
   4              		.eabi_attribute 21, 1
   5              		.eabi_attribute 23, 3
   6              		.eabi_attribute 24, 1
   7              		.eabi_attribute 25, 1
   8              		.eabi_attribute 26, 1
   9              		.eabi_attribute 30, 4
  10              		.eabi_attribute 34, 0
  11              		.eabi_attribute 18, 4
  12              		.code	16
  13              		.file	"LCD5110_Graph.c"
  14              		.text
  15              	.Ltext0:
  16              		.cfi_sections	.debug_frame
  17              		.section	.text._convert_float,"ax",%progbits
  18              		.align	1
  19              		.global	_convert_float
  20              		.code	16
  21              		.thumb_func
  22              		.type	_convert_float, %function
  23              	_convert_float:
  24              	.LFB63:
  25              		.file 1 "./..\\..\\common\\lib\\nokia5110/HW_ARM.h"
   1:./..\..\common\lib\nokia5110/HW_ARM.h **** #include "stdio.h"
   2:./..\..\common\lib\nokia5110/HW_ARM.h **** #include "stdint.h"
   3:./..\..\common\lib\nokia5110/HW_ARM.h **** 
   4:./..\..\common\lib\nokia5110/HW_ARM.h **** void _convert_float(char *buf, double num, int width, uint8_t prec)
   5:./..\..\common\lib\nokia5110/HW_ARM.h **** {
  26              		.loc 1 5 0
  27              		.cfi_startproc
  28              	.LVL0:
  29 0000 7FB5     		push	{r0, r1, r2, r3, r4, r5, r6, lr}
  30              		.cfi_def_cfa_offset 32
  31              		.cfi_offset 0, -32
  32              		.cfi_offset 1, -28
  33              		.cfi_offset 2, -24
  34              		.cfi_offset 3, -20
  35              		.cfi_offset 4, -16
  36              		.cfi_offset 5, -12
  37              		.cfi_offset 6, -8
  38              		.cfi_offset 14, -4
  39              		.loc 1 5 0
  40 0002 061C     		mov	r6, r0
  41 0004 1D1C     		mov	r5, r3
  42 0006 141C     		mov	r4, r2
  43 0008 08AB     		add	r3, sp, #32
  44              	.LVL1:
  45 000a 04CB     		ldmia	r3!, {r2}
  46              	.LVL2:
   6:./..\..\common\lib\nokia5110/HW_ARM.h **** 	char format[10];
   7:./..\..\common\lib\nokia5110/HW_ARM.h **** 	
   8:./..\..\common\lib\nokia5110/HW_ARM.h **** 	sprintf(format, "%%%i.%if", width, prec);
  47              		.loc 1 8 0
  48 000c 01A8     		add	r0, sp, #4
  49              	.LVL3:
ARM GAS  C:\Users\Petro\AppData\Local\Temp\cc6W0syg.s 			page 2


   5:./..\..\common\lib\nokia5110/HW_ARM.h **** 	char format[10];
  50              		.loc 1 5 0
  51 000e 1B78     		ldrb	r3, [r3]
  52              	.LVL4:
  53              		.loc 1 8 0
  54 0010 0449     		ldr	r1, .L2
  55 0012 FFF7FEFF 		bl	sprintf
  56              	.LVL5:
   9:./..\..\common\lib\nokia5110/HW_ARM.h **** 	sprintf(buf, format, num);
  57              		.loc 1 9 0
  58 0016 301C     		mov	r0, r6
  59 0018 2B1C     		mov	r3, r5
  60 001a 01A9     		add	r1, sp, #4
  61 001c 221C     		mov	r2, r4
  62 001e FFF7FEFF 		bl	sprintf
  63              	.LVL6:
  10:./..\..\common\lib\nokia5110/HW_ARM.h **** }
  64              		.loc 1 10 0
  65              		@ sp needed
  66              	.LVL7:
  67 0022 7FBD     		pop	{r0, r1, r2, r3, r4, r5, r6, pc}
  68              	.L3:
  69              		.align	2
  70              	.L2:
  71 0024 00000000 		.word	.LC0
  72              		.cfi_endproc
  73              	.LFE63:
  74              		.size	_convert_float, .-_convert_float
  75              		.section	.text._LCD_Write,"ax",%progbits
  76              		.align	1
  77              		.global	_LCD_Write
  78              		.code	16
  79              		.thumb_func
  80              		.type	_LCD_Write, %function
  81              	_LCD_Write:
  82              	.LFB64:
  83              		.file 2 "..\\..\\common\\lib\\nokia5110\\LCD5110_Graph.c"
   1:..\..\common\lib\nokia5110/LCD5110_Graph.c **** /*
   2:..\..\common\lib\nokia5110/LCD5110_Graph.c ****   LCD5110_Graph.cpp - Arduino/chipKit library support for Nokia 5110 compatible LCDs
   3:..\..\common\lib\nokia5110/LCD5110_Graph.c ****   Copyright (C)2015 Rinky-Dink Electronics, Henning Karlsen. All right reserved
   4:..\..\common\lib\nokia5110/LCD5110_Graph.c ****   
   5:..\..\common\lib\nokia5110/LCD5110_Graph.c ****   Basic functionality of this library are based on the demo-code provided by
   6:..\..\common\lib\nokia5110/LCD5110_Graph.c ****   ITead studio. You can find the latest version of the library at
   7:..\..\common\lib\nokia5110/LCD5110_Graph.c ****   http://www.RinkyDinkElectronics.com/
   8:..\..\common\lib\nokia5110/LCD5110_Graph.c **** 
   9:..\..\common\lib\nokia5110/LCD5110_Graph.c ****   This library has been made to make it easy to use the Nokia 5110 LCD module 
  10:..\..\common\lib\nokia5110/LCD5110_Graph.c ****   as a graphics display on an Arduino or a chipKit.
  11:..\..\common\lib\nokia5110/LCD5110_Graph.c **** 
  12:..\..\common\lib\nokia5110/LCD5110_Graph.c ****   This library is free software; you can redistribute it and/or
  13:..\..\common\lib\nokia5110/LCD5110_Graph.c ****   modify it under the terms of the CC BY-NC-SA 3.0 license.
  14:..\..\common\lib\nokia5110/LCD5110_Graph.c ****   Please see the included documents for further information.
  15:..\..\common\lib\nokia5110/LCD5110_Graph.c **** 
  16:..\..\common\lib\nokia5110/LCD5110_Graph.c ****   Commercial use of this library requires you to buy a license that
  17:..\..\common\lib\nokia5110/LCD5110_Graph.c ****   will allow commercial use. This includes using the library,
  18:..\..\common\lib\nokia5110/LCD5110_Graph.c ****   modified or not, as a tool to sell products.
  19:..\..\common\lib\nokia5110/LCD5110_Graph.c **** 
  20:..\..\common\lib\nokia5110/LCD5110_Graph.c ****   The license applies to all part of the library including the 
ARM GAS  C:\Users\Petro\AppData\Local\Temp\cc6W0syg.s 			page 3


  21:..\..\common\lib\nokia5110/LCD5110_Graph.c ****   examples and tools supplied with the library.
  22:..\..\common\lib\nokia5110/LCD5110_Graph.c **** */
  23:..\..\common\lib\nokia5110/LCD5110_Graph.c **** 
  24:..\..\common\lib\nokia5110/LCD5110_Graph.c **** #include "LCD5110_Graph.h"
  25:..\..\common\lib\nokia5110/LCD5110_Graph.c **** #include "stdlib.h"
  26:..\..\common\lib\nokia5110/LCD5110_Graph.c **** 
  27:..\..\common\lib\nokia5110/LCD5110_Graph.c **** #if defined(__AVR__)
  28:..\..\common\lib\nokia5110/LCD5110_Graph.c **** 	#include <avr/pgmspace.h>
  29:..\..\common\lib\nokia5110/LCD5110_Graph.c **** 	#include "hardware/avr/HW_AVR.h"
  30:..\..\common\lib\nokia5110/LCD5110_Graph.c **** #elif defined(__PIC32MX__)
  31:..\..\common\lib\nokia5110/LCD5110_Graph.c **** 	#pragma message("Compiling for PIC32 Architecture...")
  32:..\..\common\lib\nokia5110/LCD5110_Graph.c **** 	#include "hardware/pic32/HW_PIC32.h"
  33:..\..\common\lib\nokia5110/LCD5110_Graph.c **** #elif defined(__arm__)
  34:..\..\common\lib\nokia5110/LCD5110_Graph.c **** 	//#pragma message("Compiling for ARM Architecture...")
  35:..\..\common\lib\nokia5110/LCD5110_Graph.c **** 	#include "..\..\common\lib\nokia5110/HW_ARM.h"
  36:..\..\common\lib\nokia5110/LCD5110_Graph.c **** #endif
  37:..\..\common\lib\nokia5110/LCD5110_Graph.c **** 
  38:..\..\common\lib\nokia5110/LCD5110_Graph.c **** //void LCD5110(int SCK, int MOSI, int DC, int RST, int CS)
  39:..\..\common\lib\nokia5110/LCD5110_Graph.c **** //{ 
  40:..\..\common\lib\nokia5110/LCD5110_Graph.c **** //	P_SCK	= portOutputRegister(digitalPinToPort(SCK));
  41:..\..\common\lib\nokia5110/LCD5110_Graph.c **** //	B_SCK	= digitalPinToBitMask(SCK);
  42:..\..\common\lib\nokia5110/LCD5110_Graph.c **** //	P_MOSI	= portOutputRegister(digitalPinToPort(MOSI));
  43:..\..\common\lib\nokia5110/LCD5110_Graph.c **** //	B_MOSI	= digitalPinToBitMask(MOSI);
  44:..\..\common\lib\nokia5110/LCD5110_Graph.c **** //	P_DC	= portOutputRegister(digitalPinToPort(DC));
  45:..\..\common\lib\nokia5110/LCD5110_Graph.c **** //	B_DC	= digitalPinToBitMask(DC);
  46:..\..\common\lib\nokia5110/LCD5110_Graph.c **** //	P_RST	= portOutputRegister(digitalPinToPort(RST));
  47:..\..\common\lib\nokia5110/LCD5110_Graph.c **** //	B_RST	= digitalPinToBitMask(RST);
  48:..\..\common\lib\nokia5110/LCD5110_Graph.c **** //	P_CS	= portOutputRegister(digitalPinToPort(CS));
  49:..\..\common\lib\nokia5110/LCD5110_Graph.c **** //	B_CS	= digitalPinToBitMask(CS);
  50:..\..\common\lib\nokia5110/LCD5110_Graph.c **** //	pinMode(SCK,OUTPUT);
  51:..\..\common\lib\nokia5110/LCD5110_Graph.c **** //	pinMode(MOSI,OUTPUT);
  52:..\..\common\lib\nokia5110/LCD5110_Graph.c **** //	pinMode(DC,OUTPUT);
  53:..\..\common\lib\nokia5110/LCD5110_Graph.c **** //	pinMode(RST,OUTPUT);
  54:..\..\common\lib\nokia5110/LCD5110_Graph.c **** //	pinMode(CS,OUTPUT);
  55:..\..\common\lib\nokia5110/LCD5110_Graph.c **** //	SCK_Pin=SCK;
  56:..\..\common\lib\nokia5110/LCD5110_Graph.c **** //	RST_Pin=RST;
  57:..\..\common\lib\nokia5110/LCD5110_Graph.c **** //}
  58:..\..\common\lib\nokia5110/LCD5110_Graph.c **** 
  59:..\..\common\lib\nokia5110/LCD5110_Graph.c **** void _LCD_Write(unsigned char data, unsigned char mode)
  60:..\..\common\lib\nokia5110/LCD5110_Graph.c **** {   
  84              		.loc 2 60 0
  85              		.cfi_startproc
  86              	.LVL8:
  87 0000 10B5     		push	{r4, lr}
  88              		.cfi_def_cfa_offset 8
  89              		.cfi_offset 4, -8
  90              		.cfi_offset 14, -4
  91              		.loc 2 60 0
  92 0002 041C     		mov	r4, r0
  61:..\..\common\lib\nokia5110/LCD5110_Graph.c ****     //cbi(P_CS, B_CS);
  62:..\..\common\lib\nokia5110/LCD5110_Graph.c **** 
  63:..\..\common\lib\nokia5110/LCD5110_Graph.c **** 	if (mode==LCD_COMMAND)
  64:..\..\common\lib\nokia5110/LCD5110_Graph.c **** 		//cbi(P_DC, B_DC);
  65:..\..\common\lib\nokia5110/LCD5110_Graph.c ****         DC_Write(0);
  93              		.loc 2 65 0
  94 0004 081E     		sub	r0, r1, #0
  95              	.LVL9:
ARM GAS  C:\Users\Petro\AppData\Local\Temp\cc6W0syg.s 			page 4


  63:..\..\common\lib\nokia5110/LCD5110_Graph.c **** 		//cbi(P_DC, B_DC);
  96              		.loc 2 63 0
  97 0006 00D0     		beq	.L7
  66:..\..\common\lib\nokia5110/LCD5110_Graph.c **** 	else
  67:..\..\common\lib\nokia5110/LCD5110_Graph.c **** 		//sbi(P_DC, B_DC);
  68:..\..\common\lib\nokia5110/LCD5110_Graph.c ****         DC_Write(1);
  98              		.loc 2 68 0
  99 0008 0120     		mov	r0, #1
 100              	.L7:
 101 000a FFF7FEFF 		bl	DC_Write
 102              	.LVL10:
  69:..\..\common\lib\nokia5110/LCD5110_Graph.c **** 
  70:..\..\common\lib\nokia5110/LCD5110_Graph.c **** //    char c;
  71:..\..\common\lib\nokia5110/LCD5110_Graph.c **** //	for (c=0; c<8; c++)
  72:..\..\common\lib\nokia5110/LCD5110_Graph.c **** //	{
  73:..\..\common\lib\nokia5110/LCD5110_Graph.c **** //		if (data & 0x80)
  74:..\..\common\lib\nokia5110/LCD5110_Graph.c **** //			sbi(P_MOSI, B_MOSI);
  75:..\..\common\lib\nokia5110/LCD5110_Graph.c **** //		else
  76:..\..\common\lib\nokia5110/LCD5110_Graph.c **** //			cbi(P_MOSI, B_MOSI);
  77:..\..\common\lib\nokia5110/LCD5110_Graph.c **** //		data = data<<1;
  78:..\..\common\lib\nokia5110/LCD5110_Graph.c **** //		pulseClock;
  79:..\..\common\lib\nokia5110/LCD5110_Graph.c **** //	}
  80:..\..\common\lib\nokia5110/LCD5110_Graph.c ****     //SPIM_WriteTxData(data);
  81:..\..\common\lib\nokia5110/LCD5110_Graph.c ****     CE_Write(0);
 103              		.loc 2 81 0
 104 000e 0020     		mov	r0, #0
 105 0010 FFF7FEFF 		bl	CE_Write
 106              	.LVL11:
  82:..\..\common\lib\nokia5110/LCD5110_Graph.c ****     SwSPI_Master_SendByte(data);
 107              		.loc 2 82 0
 108 0014 201C     		mov	r0, r4
 109 0016 FFF7FEFF 		bl	SwSPI_Master_SendByte
 110              	.LVL12:
  83:..\..\common\lib\nokia5110/LCD5110_Graph.c ****     CE_Write(1);
 111              		.loc 2 83 0
 112 001a 0120     		mov	r0, #1
 113 001c FFF7FEFF 		bl	CE_Write
 114              	.LVL13:
  84:..\..\common\lib\nokia5110/LCD5110_Graph.c **** 
  85:..\..\common\lib\nokia5110/LCD5110_Graph.c **** 	//sbi(P_CS, B_CS);
  86:..\..\common\lib\nokia5110/LCD5110_Graph.c **** }
 115              		.loc 2 86 0
 116              		@ sp needed
 117 0020 10BD     		pop	{r4, pc}
 118              		.cfi_endproc
 119              	.LFE64:
 120              		.size	_LCD_Write, .-_LCD_Write
 121              		.section	.text.setContrast,"ax",%progbits
 122              		.align	1
 123              		.global	setContrast
 124              		.code	16
 125              		.thumb_func
 126              		.type	setContrast, %function
 127              	setContrast:
 128              	.LFB66:
  87:..\..\common\lib\nokia5110/LCD5110_Graph.c **** 
  88:..\..\common\lib\nokia5110/LCD5110_Graph.c **** void InitLCD(int contrast)
ARM GAS  C:\Users\Petro\AppData\Local\Temp\cc6W0syg.s 			page 5


  89:..\..\common\lib\nokia5110/LCD5110_Graph.c **** {
  90:..\..\common\lib\nokia5110/LCD5110_Graph.c ****     //SPIM_Start();
  91:..\..\common\lib\nokia5110/LCD5110_Graph.c ****     
  92:..\..\common\lib\nokia5110/LCD5110_Graph.c **** 	if (contrast>0x7F)
  93:..\..\common\lib\nokia5110/LCD5110_Graph.c **** 		contrast=0x7F;
  94:..\..\common\lib\nokia5110/LCD5110_Graph.c **** 	if (contrast<0)
  95:..\..\common\lib\nokia5110/LCD5110_Graph.c **** 		contrast=0;
  96:..\..\common\lib\nokia5110/LCD5110_Graph.c **** 
  97:..\..\common\lib\nokia5110/LCD5110_Graph.c **** 	resetLCD;
  98:..\..\common\lib\nokia5110/LCD5110_Graph.c **** 
  99:..\..\common\lib\nokia5110/LCD5110_Graph.c **** 	_LCD_Write(PCD8544_FUNCTIONSET | PCD8544_EXTENDEDINSTRUCTION, LCD_COMMAND);
 100:..\..\common\lib\nokia5110/LCD5110_Graph.c **** 	_LCD_Write(PCD8544_SETVOP | contrast, LCD_COMMAND);
 101:..\..\common\lib\nokia5110/LCD5110_Graph.c **** 	_LCD_Write(PCD8544_SETTEMP | LCD_TEMP, LCD_COMMAND);
 102:..\..\common\lib\nokia5110/LCD5110_Graph.c **** 	_LCD_Write(PCD8544_SETBIAS | LCD_BIAS, LCD_COMMAND);
 103:..\..\common\lib\nokia5110/LCD5110_Graph.c **** 	_LCD_Write(PCD8544_FUNCTIONSET, LCD_COMMAND);
 104:..\..\common\lib\nokia5110/LCD5110_Graph.c **** 	_LCD_Write(PCD8544_SETYADDR, LCD_COMMAND);
 105:..\..\common\lib\nokia5110/LCD5110_Graph.c **** 	_LCD_Write(PCD8544_SETXADDR, LCD_COMMAND);
 106:..\..\common\lib\nokia5110/LCD5110_Graph.c **** 	_LCD_Write(PCD8544_DISPLAYCONTROL | PCD8544_DISPLAYNORMAL, LCD_COMMAND);
 107:..\..\common\lib\nokia5110/LCD5110_Graph.c **** 
 108:..\..\common\lib\nokia5110/LCD5110_Graph.c **** 	clrScr();
 109:..\..\common\lib\nokia5110/LCD5110_Graph.c **** 	update();
 110:..\..\common\lib\nokia5110/LCD5110_Graph.c **** 	cfont.font=0;
 111:..\..\common\lib\nokia5110/LCD5110_Graph.c **** 	_sleep=false;
 112:..\..\common\lib\nokia5110/LCD5110_Graph.c **** 	_contrast=contrast;
 113:..\..\common\lib\nokia5110/LCD5110_Graph.c **** }
 114:..\..\common\lib\nokia5110/LCD5110_Graph.c **** 
 115:..\..\common\lib\nokia5110/LCD5110_Graph.c **** void setContrast(int contrast)
 116:..\..\common\lib\nokia5110/LCD5110_Graph.c **** {
 129              		.loc 2 116 0
 130              		.cfi_startproc
 131              	.LVL14:
 132 0000 10B5     		push	{r4, lr}
 133              		.cfi_def_cfa_offset 8
 134              		.cfi_offset 4, -8
 135              		.cfi_offset 14, -4
 136              		.loc 2 116 0
 137 0002 041E     		sub	r4, r0, #0
 117:..\..\common\lib\nokia5110/LCD5110_Graph.c **** 	if (contrast>0x7F)
 138              		.loc 2 117 0
 139 0004 7F2C     		cmp	r4, #127
 140 0006 03DC     		bgt	.L12
 118:..\..\common\lib\nokia5110/LCD5110_Graph.c **** 		contrast=0x7F;
 119:..\..\common\lib\nokia5110/LCD5110_Graph.c **** 	if (contrast<0)
 120:..\..\common\lib\nokia5110/LCD5110_Graph.c **** 		contrast=0;
 141              		.loc 2 120 0
 142 0008 C343     		mvn	r3, r0
 143 000a DB17     		asr	r3, r3, #31
 144 000c 1C40     		and	r4, r3
 145 000e 00E0     		b	.L11
 146              	.L12:
 118:..\..\common\lib\nokia5110/LCD5110_Graph.c **** 		contrast=0x7F;
 147              		.loc 2 118 0
 148 0010 7F24     		mov	r4, #127
 149              	.LVL15:
 150              	.L11:
 121:..\..\common\lib\nokia5110/LCD5110_Graph.c **** 	_LCD_Write(PCD8544_FUNCTIONSET | PCD8544_EXTENDEDINSTRUCTION, LCD_COMMAND);
 151              		.loc 2 121 0
ARM GAS  C:\Users\Petro\AppData\Local\Temp\cc6W0syg.s 			page 6


 152 0012 2120     		mov	r0, #33
 153 0014 0021     		mov	r1, #0
 154 0016 FFF7FEFF 		bl	_LCD_Write
 155              	.LVL16:
 122:..\..\common\lib\nokia5110/LCD5110_Graph.c **** 	_LCD_Write(PCD8544_SETVOP | contrast, LCD_COMMAND);
 156              		.loc 2 122 0
 157 001a 8020     		mov	r0, #128
 158 001c 4042     		neg	r0, r0
 159 001e 2043     		orr	r0, r4
 160 0020 C0B2     		uxtb	r0, r0
 161 0022 0021     		mov	r1, #0
 162 0024 FFF7FEFF 		bl	_LCD_Write
 163              	.LVL17:
 123:..\..\common\lib\nokia5110/LCD5110_Graph.c **** 	_LCD_Write(PCD8544_FUNCTIONSET, LCD_COMMAND);
 164              		.loc 2 123 0
 165 0028 2020     		mov	r0, #32
 166 002a 0021     		mov	r1, #0
 167 002c FFF7FEFF 		bl	_LCD_Write
 168              	.LVL18:
 124:..\..\common\lib\nokia5110/LCD5110_Graph.c **** 	_contrast=contrast;
 169              		.loc 2 124 0
 170 0030 014B     		ldr	r3, .L14
 125:..\..\common\lib\nokia5110/LCD5110_Graph.c **** }
 171              		.loc 2 125 0
 172              		@ sp needed
 124:..\..\common\lib\nokia5110/LCD5110_Graph.c **** 	_contrast=contrast;
 173              		.loc 2 124 0
 174 0032 1C60     		str	r4, [r3]
 175              	.LVL19:
 176              		.loc 2 125 0
 177 0034 10BD     		pop	{r4, pc}
 178              	.L15:
 179 0036 C046     		.align	2
 180              	.L14:
 181 0038 00000000 		.word	_contrast
 182              		.cfi_endproc
 183              	.LFE66:
 184              		.size	setContrast, .-setContrast
 185              		.section	.text.enableSleep,"ax",%progbits
 186              		.align	1
 187              		.global	enableSleep
 188              		.code	16
 189              		.thumb_func
 190              		.type	enableSleep, %function
 191              	enableSleep:
 192              	.LFB67:
 126:..\..\common\lib\nokia5110/LCD5110_Graph.c **** 
 127:..\..\common\lib\nokia5110/LCD5110_Graph.c **** void enableSleep()
 128:..\..\common\lib\nokia5110/LCD5110_Graph.c **** {
 193              		.loc 2 128 0
 194              		.cfi_startproc
 129:..\..\common\lib\nokia5110/LCD5110_Graph.c **** 	_sleep = true;
 195              		.loc 2 129 0
 196 0000 0122     		mov	r2, #1
 197 0002 0C4B     		ldr	r3, .L18
 128:..\..\common\lib\nokia5110/LCD5110_Graph.c **** 	_sleep = true;
 198              		.loc 2 128 0
ARM GAS  C:\Users\Petro\AppData\Local\Temp\cc6W0syg.s 			page 7


 199 0004 10B5     		push	{r4, lr}
 200              		.cfi_def_cfa_offset 8
 201              		.cfi_offset 4, -8
 202              		.cfi_offset 14, -4
 130:..\..\common\lib\nokia5110/LCD5110_Graph.c **** 	_LCD_Write(PCD8544_SETYADDR, LCD_COMMAND);
 203              		.loc 2 130 0
 204 0006 4020     		mov	r0, #64
 205 0008 0021     		mov	r1, #0
 129:..\..\common\lib\nokia5110/LCD5110_Graph.c **** 	_sleep = true;
 206              		.loc 2 129 0
 207 000a 1A70     		strb	r2, [r3]
 131:..\..\common\lib\nokia5110/LCD5110_Graph.c **** 	_LCD_Write(PCD8544_SETXADDR, LCD_COMMAND);
 208              		.loc 2 131 0
 209 000c FC24     		mov	r4, #252
 130:..\..\common\lib\nokia5110/LCD5110_Graph.c **** 	_LCD_Write(PCD8544_SETYADDR, LCD_COMMAND);
 210              		.loc 2 130 0
 211 000e FFF7FEFF 		bl	_LCD_Write
 212              	.LVL20:
 213              		.loc 2 131 0
 214 0012 8020     		mov	r0, #128
 215 0014 0021     		mov	r1, #0
 216 0016 FFF7FEFF 		bl	_LCD_Write
 217              	.LVL21:
 218 001a 6400     		lsl	r4, r4, #1
 219              	.LVL22:
 220              	.L17:
 132:..\..\common\lib\nokia5110/LCD5110_Graph.c ****     int b;
 133:..\..\common\lib\nokia5110/LCD5110_Graph.c **** 	for (b=0; b<504; b++)
 134:..\..\common\lib\nokia5110/LCD5110_Graph.c **** 		_LCD_Write(0, LCD_DATA);
 221              		.loc 2 134 0 discriminator 3
 222 001c 0020     		mov	r0, #0
 223 001e 0121     		mov	r1, #1
 224 0020 013C     		sub	r4, r4, #1
 225              	.LVL23:
 226 0022 FFF7FEFF 		bl	_LCD_Write
 227              	.LVL24:
 133:..\..\common\lib\nokia5110/LCD5110_Graph.c **** 		_LCD_Write(0, LCD_DATA);
 228              		.loc 2 133 0 discriminator 3
 229 0026 002C     		cmp	r4, #0
 230 0028 F8D1     		bne	.L17
 135:..\..\common\lib\nokia5110/LCD5110_Graph.c **** 	_LCD_Write(PCD8544_FUNCTIONSET | PCD8544_POWERDOWN, LCD_COMMAND);
 231              		.loc 2 135 0
 232 002a 2420     		mov	r0, #36
 233 002c 211C     		mov	r1, r4
 234 002e FFF7FEFF 		bl	_LCD_Write
 235              	.LVL25:
 136:..\..\common\lib\nokia5110/LCD5110_Graph.c **** }
 236              		.loc 2 136 0
 237              		@ sp needed
 238 0032 10BD     		pop	{r4, pc}
 239              	.L19:
 240              		.align	2
 241              	.L18:
 242 0034 00000000 		.word	_sleep
 243              		.cfi_endproc
 244              	.LFE67:
 245              		.size	enableSleep, .-enableSleep
ARM GAS  C:\Users\Petro\AppData\Local\Temp\cc6W0syg.s 			page 8


 246              		.section	.text.update,"ax",%progbits
 247              		.align	1
 248              		.global	update
 249              		.code	16
 250              		.thumb_func
 251              		.type	update, %function
 252              	update:
 253              	.LFB69:
 137:..\..\common\lib\nokia5110/LCD5110_Graph.c **** 
 138:..\..\common\lib\nokia5110/LCD5110_Graph.c **** void disableSleep()
 139:..\..\common\lib\nokia5110/LCD5110_Graph.c **** {
 140:..\..\common\lib\nokia5110/LCD5110_Graph.c **** 	_sleep = false;
 141:..\..\common\lib\nokia5110/LCD5110_Graph.c **** 	_LCD_Write(PCD8544_FUNCTIONSET | PCD8544_EXTENDEDINSTRUCTION, LCD_COMMAND);
 142:..\..\common\lib\nokia5110/LCD5110_Graph.c **** 	_LCD_Write(PCD8544_SETVOP | _contrast, LCD_COMMAND);
 143:..\..\common\lib\nokia5110/LCD5110_Graph.c **** 	_LCD_Write(PCD8544_SETTEMP | LCD_TEMP, LCD_COMMAND);
 144:..\..\common\lib\nokia5110/LCD5110_Graph.c **** 	_LCD_Write(PCD8544_SETBIAS | LCD_BIAS, LCD_COMMAND);
 145:..\..\common\lib\nokia5110/LCD5110_Graph.c **** 	_LCD_Write(PCD8544_FUNCTIONSET, LCD_COMMAND);
 146:..\..\common\lib\nokia5110/LCD5110_Graph.c **** 	_LCD_Write(PCD8544_DISPLAYCONTROL | PCD8544_DISPLAYNORMAL, LCD_COMMAND);
 147:..\..\common\lib\nokia5110/LCD5110_Graph.c **** 	update();
 148:..\..\common\lib\nokia5110/LCD5110_Graph.c **** }
 149:..\..\common\lib\nokia5110/LCD5110_Graph.c **** 
 150:..\..\common\lib\nokia5110/LCD5110_Graph.c **** void update()
 151:..\..\common\lib\nokia5110/LCD5110_Graph.c **** {
 254              		.loc 2 151 0
 255              		.cfi_startproc
 152:..\..\common\lib\nokia5110/LCD5110_Graph.c **** 	if (_sleep==false)
 256              		.loc 2 152 0
 257 0000 0B4B     		ldr	r3, .L24
 151:..\..\common\lib\nokia5110/LCD5110_Graph.c **** 	if (_sleep==false)
 258              		.loc 2 151 0
 259 0002 10B5     		push	{r4, lr}
 260              		.cfi_def_cfa_offset 8
 261              		.cfi_offset 4, -8
 262              		.cfi_offset 14, -4
 263              		.loc 2 152 0
 264 0004 1C78     		ldrb	r4, [r3]
 265 0006 002C     		cmp	r4, #0
 266 0008 11D1     		bne	.L20
 267              	.LBB11:
 268              	.LBB12:
 153:..\..\common\lib\nokia5110/LCD5110_Graph.c **** 	{
 154:..\..\common\lib\nokia5110/LCD5110_Graph.c **** 		_LCD_Write(PCD8544_SETYADDR, LCD_COMMAND);
 269              		.loc 2 154 0
 270 000a 4020     		mov	r0, #64
 271 000c 211C     		mov	r1, r4
 272 000e FFF7FEFF 		bl	_LCD_Write
 273              	.LVL26:
 155:..\..\common\lib\nokia5110/LCD5110_Graph.c **** 		_LCD_Write(PCD8544_SETXADDR, LCD_COMMAND);
 274              		.loc 2 155 0
 275 0012 8020     		mov	r0, #128
 276 0014 211C     		mov	r1, r4
 277 0016 FFF7FEFF 		bl	_LCD_Write
 278              	.LVL27:
 279              	.L22:
 156:..\..\common\lib\nokia5110/LCD5110_Graph.c ****         int b;
 157:..\..\common\lib\nokia5110/LCD5110_Graph.c **** 		for (b=0; b<504; b++)
 158:..\..\common\lib\nokia5110/LCD5110_Graph.c **** 			_LCD_Write(scrbuf[b], LCD_DATA);
ARM GAS  C:\Users\Petro\AppData\Local\Temp\cc6W0syg.s 			page 9


 280              		.loc 2 158 0
 281 001a 064B     		ldr	r3, .L24+4
 282 001c 0121     		mov	r1, #1
 283 001e 185D     		ldrb	r0, [r3, r4]
 284 0020 FFF7FEFF 		bl	_LCD_Write
 285              	.LVL28:
 157:..\..\common\lib\nokia5110/LCD5110_Graph.c **** 			_LCD_Write(scrbuf[b], LCD_DATA);
 286              		.loc 2 157 0
 287 0024 FC23     		mov	r3, #252
 288 0026 0134     		add	r4, r4, #1
 289              	.LVL29:
 290 0028 5B00     		lsl	r3, r3, #1
 291 002a 9C42     		cmp	r4, r3
 292 002c F5D1     		bne	.L22
 293              	.LVL30:
 294              	.L20:
 295              	.LBE12:
 296              	.LBE11:
 159:..\..\common\lib\nokia5110/LCD5110_Graph.c **** 	}
 160:..\..\common\lib\nokia5110/LCD5110_Graph.c **** }
 297              		.loc 2 160 0
 298              		@ sp needed
 299 002e 10BD     		pop	{r4, pc}
 300              	.L25:
 301              		.align	2
 302              	.L24:
 303 0030 00000000 		.word	_sleep
 304 0034 00000000 		.word	scrbuf
 305              		.cfi_endproc
 306              	.LFE69:
 307              		.size	update, .-update
 308              		.section	.text.disableSleep,"ax",%progbits
 309              		.align	1
 310              		.global	disableSleep
 311              		.code	16
 312              		.thumb_func
 313              		.type	disableSleep, %function
 314              	disableSleep:
 315              	.LFB68:
 139:..\..\common\lib\nokia5110/LCD5110_Graph.c **** 	_sleep = false;
 316              		.loc 2 139 0
 317              		.cfi_startproc
 318 0000 10B5     		push	{r4, lr}
 319              		.cfi_def_cfa_offset 8
 320              		.cfi_offset 4, -8
 321              		.cfi_offset 14, -4
 140:..\..\common\lib\nokia5110/LCD5110_Graph.c **** 	_LCD_Write(PCD8544_FUNCTIONSET | PCD8544_EXTENDEDINSTRUCTION, LCD_COMMAND);
 322              		.loc 2 140 0
 323 0002 0024     		mov	r4, #0
 324 0004 104B     		ldr	r3, .L27
 141:..\..\common\lib\nokia5110/LCD5110_Graph.c **** 	_LCD_Write(PCD8544_SETVOP | _contrast, LCD_COMMAND);
 325              		.loc 2 141 0
 326 0006 211C     		mov	r1, r4
 327 0008 2120     		mov	r0, #33
 140:..\..\common\lib\nokia5110/LCD5110_Graph.c **** 	_LCD_Write(PCD8544_FUNCTIONSET | PCD8544_EXTENDEDINSTRUCTION, LCD_COMMAND);
 328              		.loc 2 140 0
 329 000a 1C70     		strb	r4, [r3]
ARM GAS  C:\Users\Petro\AppData\Local\Temp\cc6W0syg.s 			page 10


 141:..\..\common\lib\nokia5110/LCD5110_Graph.c **** 	_LCD_Write(PCD8544_SETVOP | _contrast, LCD_COMMAND);
 330              		.loc 2 141 0
 331 000c FFF7FEFF 		bl	_LCD_Write
 332              	.LVL31:
 142:..\..\common\lib\nokia5110/LCD5110_Graph.c **** 	_LCD_Write(PCD8544_SETTEMP | LCD_TEMP, LCD_COMMAND);
 333              		.loc 2 142 0
 334 0010 8020     		mov	r0, #128
 335 0012 0E4B     		ldr	r3, .L27+4
 336 0014 4042     		neg	r0, r0
 337 0016 1B68     		ldr	r3, [r3]
 338 0018 211C     		mov	r1, r4
 339 001a 1843     		orr	r0, r3
 340 001c C0B2     		uxtb	r0, r0
 341 001e FFF7FEFF 		bl	_LCD_Write
 342              	.LVL32:
 143:..\..\common\lib\nokia5110/LCD5110_Graph.c **** 	_LCD_Write(PCD8544_SETBIAS | LCD_BIAS, LCD_COMMAND);
 343              		.loc 2 143 0
 344 0022 211C     		mov	r1, r4
 345 0024 0620     		mov	r0, #6
 346 0026 FFF7FEFF 		bl	_LCD_Write
 347              	.LVL33:
 144:..\..\common\lib\nokia5110/LCD5110_Graph.c **** 	_LCD_Write(PCD8544_FUNCTIONSET, LCD_COMMAND);
 348              		.loc 2 144 0
 349 002a 211C     		mov	r1, r4
 350 002c 1320     		mov	r0, #19
 351 002e FFF7FEFF 		bl	_LCD_Write
 352              	.LVL34:
 145:..\..\common\lib\nokia5110/LCD5110_Graph.c **** 	_LCD_Write(PCD8544_DISPLAYCONTROL | PCD8544_DISPLAYNORMAL, LCD_COMMAND);
 353              		.loc 2 145 0
 354 0032 211C     		mov	r1, r4
 355 0034 2020     		mov	r0, #32
 356 0036 FFF7FEFF 		bl	_LCD_Write
 357              	.LVL35:
 146:..\..\common\lib\nokia5110/LCD5110_Graph.c **** 	update();
 358              		.loc 2 146 0
 359 003a 0C20     		mov	r0, #12
 360 003c 211C     		mov	r1, r4
 361 003e FFF7FEFF 		bl	_LCD_Write
 362              	.LVL36:
 148:..\..\common\lib\nokia5110/LCD5110_Graph.c **** 
 363              		.loc 2 148 0
 364              		@ sp needed
 147:..\..\common\lib\nokia5110/LCD5110_Graph.c **** }
 365              		.loc 2 147 0
 366 0042 FFF7FEFF 		bl	update
 367              	.LVL37:
 148:..\..\common\lib\nokia5110/LCD5110_Graph.c **** 
 368              		.loc 2 148 0
 369 0046 10BD     		pop	{r4, pc}
 370              	.L28:
 371              		.align	2
 372              	.L27:
 373 0048 00000000 		.word	_sleep
 374 004c 00000000 		.word	_contrast
 375              		.cfi_endproc
 376              	.LFE68:
 377              		.size	disableSleep, .-disableSleep
ARM GAS  C:\Users\Petro\AppData\Local\Temp\cc6W0syg.s 			page 11


 378              		.section	.text.clrScr,"ax",%progbits
 379              		.align	1
 380              		.global	clrScr
 381              		.code	16
 382              		.thumb_func
 383              		.type	clrScr, %function
 384              	clrScr:
 385              	.LFB70:
 161:..\..\common\lib\nokia5110/LCD5110_Graph.c **** 
 162:..\..\common\lib\nokia5110/LCD5110_Graph.c **** void clrScr()
 163:..\..\common\lib\nokia5110/LCD5110_Graph.c **** {
 386              		.loc 2 163 0
 387              		.cfi_startproc
 388              	.LVL38:
 164:..\..\common\lib\nokia5110/LCD5110_Graph.c ****     int c;
 165:..\..\common\lib\nokia5110/LCD5110_Graph.c **** 	for (c=0; c<504; c++)
 389              		.loc 2 165 0
 390 0000 0023     		mov	r3, #0
 391              	.LVL39:
 392              	.L30:
 166:..\..\common\lib\nokia5110/LCD5110_Graph.c **** 		scrbuf[c]=0;
 393              		.loc 2 166 0 discriminator 3
 394 0002 0021     		mov	r1, #0
 395 0004 044A     		ldr	r2, .L31
 396 0006 9A18     		add	r2, r3, r2
 397 0008 1170     		strb	r1, [r2]
 165:..\..\common\lib\nokia5110/LCD5110_Graph.c **** 		scrbuf[c]=0;
 398              		.loc 2 165 0 discriminator 3
 399 000a FC22     		mov	r2, #252
 400 000c 0133     		add	r3, r3, #1
 401              	.LVL40:
 402 000e 5200     		lsl	r2, r2, #1
 403 0010 9342     		cmp	r3, r2
 404 0012 F6D1     		bne	.L30
 167:..\..\common\lib\nokia5110/LCD5110_Graph.c **** }
 405              		.loc 2 167 0
 406              		@ sp needed
 407 0014 7047     		bx	lr
 408              	.L32:
 409 0016 C046     		.align	2
 410              	.L31:
 411 0018 00000000 		.word	scrbuf
 412              		.cfi_endproc
 413              	.LFE70:
 414              		.size	clrScr, .-clrScr
 415              		.section	.text.InitLCD,"ax",%progbits
 416              		.align	1
 417              		.global	InitLCD
 418              		.code	16
 419              		.thumb_func
 420              		.type	InitLCD, %function
 421              	InitLCD:
 422              	.LFB65:
  89:..\..\common\lib\nokia5110/LCD5110_Graph.c ****     //SPIM_Start();
 423              		.loc 2 89 0
 424              		.cfi_startproc
 425              	.LVL41:
ARM GAS  C:\Users\Petro\AppData\Local\Temp\cc6W0syg.s 			page 12


 426 0000 10B5     		push	{r4, lr}
 427              		.cfi_def_cfa_offset 8
 428              		.cfi_offset 4, -8
 429              		.cfi_offset 14, -4
  89:..\..\common\lib\nokia5110/LCD5110_Graph.c ****     //SPIM_Start();
 430              		.loc 2 89 0
 431 0002 041E     		sub	r4, r0, #0
  92:..\..\common\lib\nokia5110/LCD5110_Graph.c **** 		contrast=0x7F;
 432              		.loc 2 92 0
 433 0004 7F2C     		cmp	r4, #127
 434 0006 03DC     		bgt	.L36
  95:..\..\common\lib\nokia5110/LCD5110_Graph.c **** 
 435              		.loc 2 95 0
 436 0008 C343     		mvn	r3, r0
 437 000a DB17     		asr	r3, r3, #31
 438 000c 1C40     		and	r4, r3
 439 000e 00E0     		b	.L35
 440              	.L36:
  93:..\..\common\lib\nokia5110/LCD5110_Graph.c **** 	if (contrast<0)
 441              		.loc 2 93 0
 442 0010 7F24     		mov	r4, #127
 443              	.LVL42:
 444              	.L35:
  97:..\..\common\lib\nokia5110/LCD5110_Graph.c **** 
 445              		.loc 2 97 0
 446 0012 0020     		mov	r0, #0
 447 0014 FFF7FEFF 		bl	RST_Write
 448              	.LVL43:
 449 0018 0120     		mov	r0, #1
 450 001a FFF7FEFF 		bl	RST_Write
 451              	.LVL44:
  99:..\..\common\lib\nokia5110/LCD5110_Graph.c **** 	_LCD_Write(PCD8544_SETVOP | contrast, LCD_COMMAND);
 452              		.loc 2 99 0
 453 001e 2120     		mov	r0, #33
 454 0020 0021     		mov	r1, #0
 455 0022 FFF7FEFF 		bl	_LCD_Write
 456              	.LVL45:
 100:..\..\common\lib\nokia5110/LCD5110_Graph.c **** 	_LCD_Write(PCD8544_SETTEMP | LCD_TEMP, LCD_COMMAND);
 457              		.loc 2 100 0
 458 0026 8020     		mov	r0, #128
 459 0028 4042     		neg	r0, r0
 460 002a 2043     		orr	r0, r4
 461 002c C0B2     		uxtb	r0, r0
 462 002e 0021     		mov	r1, #0
 463 0030 FFF7FEFF 		bl	_LCD_Write
 464              	.LVL46:
 101:..\..\common\lib\nokia5110/LCD5110_Graph.c **** 	_LCD_Write(PCD8544_SETBIAS | LCD_BIAS, LCD_COMMAND);
 465              		.loc 2 101 0
 466 0034 0620     		mov	r0, #6
 467 0036 0021     		mov	r1, #0
 468 0038 FFF7FEFF 		bl	_LCD_Write
 469              	.LVL47:
 102:..\..\common\lib\nokia5110/LCD5110_Graph.c **** 	_LCD_Write(PCD8544_FUNCTIONSET, LCD_COMMAND);
 470              		.loc 2 102 0
 471 003c 1320     		mov	r0, #19
 472 003e 0021     		mov	r1, #0
 473 0040 FFF7FEFF 		bl	_LCD_Write
ARM GAS  C:\Users\Petro\AppData\Local\Temp\cc6W0syg.s 			page 13


 474              	.LVL48:
 103:..\..\common\lib\nokia5110/LCD5110_Graph.c **** 	_LCD_Write(PCD8544_SETYADDR, LCD_COMMAND);
 475              		.loc 2 103 0
 476 0044 2020     		mov	r0, #32
 477 0046 0021     		mov	r1, #0
 478 0048 FFF7FEFF 		bl	_LCD_Write
 479              	.LVL49:
 104:..\..\common\lib\nokia5110/LCD5110_Graph.c **** 	_LCD_Write(PCD8544_SETXADDR, LCD_COMMAND);
 480              		.loc 2 104 0
 481 004c 4020     		mov	r0, #64
 482 004e 0021     		mov	r1, #0
 483 0050 FFF7FEFF 		bl	_LCD_Write
 484              	.LVL50:
 105:..\..\common\lib\nokia5110/LCD5110_Graph.c **** 	_LCD_Write(PCD8544_DISPLAYCONTROL | PCD8544_DISPLAYNORMAL, LCD_COMMAND);
 485              		.loc 2 105 0
 486 0054 8020     		mov	r0, #128
 487 0056 0021     		mov	r1, #0
 488 0058 FFF7FEFF 		bl	_LCD_Write
 489              	.LVL51:
 106:..\..\common\lib\nokia5110/LCD5110_Graph.c **** 
 490              		.loc 2 106 0
 491 005c 0C20     		mov	r0, #12
 492 005e 0021     		mov	r1, #0
 493 0060 FFF7FEFF 		bl	_LCD_Write
 494              	.LVL52:
 108:..\..\common\lib\nokia5110/LCD5110_Graph.c **** 	update();
 495              		.loc 2 108 0
 496 0064 FFF7FEFF 		bl	clrScr
 497              	.LVL53:
 109:..\..\common\lib\nokia5110/LCD5110_Graph.c **** 	cfont.font=0;
 498              		.loc 2 109 0
 499 0068 FFF7FEFF 		bl	update
 500              	.LVL54:
 110:..\..\common\lib\nokia5110/LCD5110_Graph.c **** 	_sleep=false;
 501              		.loc 2 110 0
 502 006c 0023     		mov	r3, #0
 503 006e 034A     		ldr	r2, .L38
 113:..\..\common\lib\nokia5110/LCD5110_Graph.c **** 
 504              		.loc 2 113 0
 505              		@ sp needed
 110:..\..\common\lib\nokia5110/LCD5110_Graph.c **** 	_sleep=false;
 506              		.loc 2 110 0
 507 0070 1360     		str	r3, [r2]
 111:..\..\common\lib\nokia5110/LCD5110_Graph.c **** 	_contrast=contrast;
 508              		.loc 2 111 0
 509 0072 034A     		ldr	r2, .L38+4
 510 0074 1370     		strb	r3, [r2]
 112:..\..\common\lib\nokia5110/LCD5110_Graph.c **** }
 511              		.loc 2 112 0
 512 0076 034B     		ldr	r3, .L38+8
 513 0078 1C60     		str	r4, [r3]
 514              	.LVL55:
 113:..\..\common\lib\nokia5110/LCD5110_Graph.c **** 
 515              		.loc 2 113 0
 516 007a 10BD     		pop	{r4, pc}
 517              	.L39:
 518              		.align	2
ARM GAS  C:\Users\Petro\AppData\Local\Temp\cc6W0syg.s 			page 14


 519              	.L38:
 520 007c 00000000 		.word	cfont
 521 0080 00000000 		.word	_sleep
 522 0084 00000000 		.word	_contrast
 523              		.cfi_endproc
 524              	.LFE65:
 525              		.size	InitLCD, .-InitLCD
 526              		.section	.text.fillScr,"ax",%progbits
 527              		.align	1
 528              		.global	fillScr
 529              		.code	16
 530              		.thumb_func
 531              		.type	fillScr, %function
 532              	fillScr:
 533              	.LFB71:
 168:..\..\common\lib\nokia5110/LCD5110_Graph.c **** 
 169:..\..\common\lib\nokia5110/LCD5110_Graph.c **** void fillScr()
 170:..\..\common\lib\nokia5110/LCD5110_Graph.c **** {
 534              		.loc 2 170 0
 535              		.cfi_startproc
 536              	.LVL56:
 171:..\..\common\lib\nokia5110/LCD5110_Graph.c ****     int c;
 172:..\..\common\lib\nokia5110/LCD5110_Graph.c **** 	for (c=0; c<504; c++)
 537              		.loc 2 172 0
 538 0000 0023     		mov	r3, #0
 539              	.LVL57:
 540              	.L41:
 173:..\..\common\lib\nokia5110/LCD5110_Graph.c **** 		scrbuf[c]=255;
 541              		.loc 2 173 0 discriminator 3
 542 0002 FF21     		mov	r1, #255
 543 0004 034A     		ldr	r2, .L42
 544 0006 D154     		strb	r1, [r2, r3]
 172:..\..\common\lib\nokia5110/LCD5110_Graph.c **** 		scrbuf[c]=255;
 545              		.loc 2 172 0 discriminator 3
 546 0008 FC22     		mov	r2, #252
 547 000a 0133     		add	r3, r3, #1
 548              	.LVL58:
 549 000c 5200     		lsl	r2, r2, #1
 550 000e 9342     		cmp	r3, r2
 551 0010 F7D1     		bne	.L41
 174:..\..\common\lib\nokia5110/LCD5110_Graph.c **** }
 552              		.loc 2 174 0
 553              		@ sp needed
 554 0012 7047     		bx	lr
 555              	.L43:
 556              		.align	2
 557              	.L42:
 558 0014 00000000 		.word	scrbuf
 559              		.cfi_endproc
 560              	.LFE71:
 561              		.size	fillScr, .-fillScr
 562              		.section	.text.invert,"ax",%progbits
 563              		.align	1
 564              		.global	invert
 565              		.code	16
 566              		.thumb_func
 567              		.type	invert, %function
ARM GAS  C:\Users\Petro\AppData\Local\Temp\cc6W0syg.s 			page 15


 568              	invert:
 569              	.LFB72:
 175:..\..\common\lib\nokia5110/LCD5110_Graph.c **** 
 176:..\..\common\lib\nokia5110/LCD5110_Graph.c **** void invert(bool mode)
 177:..\..\common\lib\nokia5110/LCD5110_Graph.c **** {
 570              		.loc 2 177 0
 571              		.cfi_startproc
 572              	.LVL59:
 573 0000 011C     		mov	r1, r0
 574 0002 08B5     		push	{r3, lr}
 575              		.cfi_def_cfa_offset 8
 576              		.cfi_offset 3, -8
 577              		.cfi_offset 14, -4
 178:..\..\common\lib\nokia5110/LCD5110_Graph.c **** 	if (mode==true)
 179:..\..\common\lib\nokia5110/LCD5110_Graph.c **** 		_LCD_Write(PCD8544_DISPLAYCONTROL | PCD8544_DISPLAYINVERTED, LCD_COMMAND);
 180:..\..\common\lib\nokia5110/LCD5110_Graph.c **** 	else
 181:..\..\common\lib\nokia5110/LCD5110_Graph.c **** 		_LCD_Write(PCD8544_DISPLAYCONTROL | PCD8544_DISPLAYNORMAL, LCD_COMMAND);
 578              		.loc 2 181 0
 579 0004 0C20     		mov	r0, #12
 580              	.LVL60:
 178:..\..\common\lib\nokia5110/LCD5110_Graph.c **** 	if (mode==true)
 581              		.loc 2 178 0
 582 0006 0029     		cmp	r1, #0
 583 0008 01D0     		beq	.L47
 179:..\..\common\lib\nokia5110/LCD5110_Graph.c **** 	else
 584              		.loc 2 179 0
 585 000a 0D20     		mov	r0, #13
 586 000c 0021     		mov	r1, #0
 587              	.L47:
 588              		.loc 2 181 0
 589 000e FFF7FEFF 		bl	_LCD_Write
 590              	.LVL61:
 182:..\..\common\lib\nokia5110/LCD5110_Graph.c **** }
 591              		.loc 2 182 0
 592              		@ sp needed
 593 0012 08BD     		pop	{r3, pc}
 594              		.cfi_endproc
 595              	.LFE72:
 596              		.size	invert, .-invert
 597              		.section	.text.setPixel,"ax",%progbits
 598              		.align	1
 599              		.global	setPixel
 600              		.code	16
 601              		.thumb_func
 602              		.type	setPixel, %function
 603              	setPixel:
 604              	.LFB73:
 183:..\..\common\lib\nokia5110/LCD5110_Graph.c **** 
 184:..\..\common\lib\nokia5110/LCD5110_Graph.c **** void setPixel(uint16_t x, uint16_t y)
 185:..\..\common\lib\nokia5110/LCD5110_Graph.c **** {
 605              		.loc 2 185 0
 606              		.cfi_startproc
 607              	.LVL62:
 186:..\..\common\lib\nokia5110/LCD5110_Graph.c **** 	int by, bi;
 187:..\..\common\lib\nokia5110/LCD5110_Graph.c **** 
 188:..\..\common\lib\nokia5110/LCD5110_Graph.c **** 	if ((x>=0) && (x<84) && (y>=0) && (y<48))
 608              		.loc 2 188 0
ARM GAS  C:\Users\Petro\AppData\Local\Temp\cc6W0syg.s 			page 16


 609 0000 5328     		cmp	r0, #83
 610 0002 0ED8     		bhi	.L48
 611              		.loc 2 188 0 is_stmt 0 discriminator 1
 612 0004 2F29     		cmp	r1, #47
 613 0006 0CD8     		bhi	.L48
 614              	.LVL63:
 615              	.LBB15:
 616              	.LBB16:
 189:..\..\common\lib\nokia5110/LCD5110_Graph.c **** 	{
 190:..\..\common\lib\nokia5110/LCD5110_Graph.c **** 		by=((y/8)*84)+x;
 617              		.loc 2 190 0 is_stmt 1
 618 0008 5423     		mov	r3, #84
 619 000a CA08     		lsr	r2, r1, #3
 620 000c 5343     		mul	r3, r2
 621 000e 1818     		add	r0, r3, r0
 622              	.LVL64:
 191:..\..\common\lib\nokia5110/LCD5110_Graph.c **** 		bi=y % 8;
 623              		.loc 2 191 0
 624 0010 0723     		mov	r3, #7
 625 0012 1940     		and	r1, r3
 626              	.LVL65:
 192:..\..\common\lib\nokia5110/LCD5110_Graph.c **** 
 193:..\..\common\lib\nokia5110/LCD5110_Graph.c **** 		scrbuf[by]=scrbuf[by] | (1<<bi);
 627              		.loc 2 193 0
 628 0014 063B     		sub	r3, r3, #6
 629 0016 8B40     		lsl	r3, r3, r1
 630 0018 191C     		mov	r1, r3
 631 001a 024A     		ldr	r2, .L50
 632 001c 135C     		ldrb	r3, [r2, r0]
 633 001e 1943     		orr	r1, r3
 634 0020 1154     		strb	r1, [r2, r0]
 635              	.LVL66:
 636              	.L48:
 637              	.LBE16:
 638              	.LBE15:
 194:..\..\common\lib\nokia5110/LCD5110_Graph.c **** 	}
 195:..\..\common\lib\nokia5110/LCD5110_Graph.c **** }
 639              		.loc 2 195 0
 640              		@ sp needed
 641 0022 7047     		bx	lr
 642              	.L51:
 643              		.align	2
 644              	.L50:
 645 0024 00000000 		.word	scrbuf
 646              		.cfi_endproc
 647              	.LFE73:
 648              		.size	setPixel, .-setPixel
 649              		.section	.text.clrPixel,"ax",%progbits
 650              		.align	1
 651              		.global	clrPixel
 652              		.code	16
 653              		.thumb_func
 654              		.type	clrPixel, %function
 655              	clrPixel:
 656              	.LFB74:
 196:..\..\common\lib\nokia5110/LCD5110_Graph.c **** 
 197:..\..\common\lib\nokia5110/LCD5110_Graph.c **** void clrPixel(uint16_t x, uint16_t y)
ARM GAS  C:\Users\Petro\AppData\Local\Temp\cc6W0syg.s 			page 17


 198:..\..\common\lib\nokia5110/LCD5110_Graph.c **** {
 657              		.loc 2 198 0
 658              		.cfi_startproc
 659              	.LVL67:
 199:..\..\common\lib\nokia5110/LCD5110_Graph.c **** 	int by, bi;
 200:..\..\common\lib\nokia5110/LCD5110_Graph.c **** 
 201:..\..\common\lib\nokia5110/LCD5110_Graph.c **** 	if ((x>=0) && (x<84) && (y>=0) && (y<48))
 660              		.loc 2 201 0
 661 0000 5328     		cmp	r0, #83
 662 0002 0ED8     		bhi	.L52
 663              		.loc 2 201 0 is_stmt 0 discriminator 1
 664 0004 2F29     		cmp	r1, #47
 665 0006 0CD8     		bhi	.L52
 666              	.LVL68:
 667              	.LBB19:
 668              	.LBB20:
 202:..\..\common\lib\nokia5110/LCD5110_Graph.c **** 	{
 203:..\..\common\lib\nokia5110/LCD5110_Graph.c **** 		by=((y/8)*84)+x;
 669              		.loc 2 203 0 is_stmt 1
 670 0008 5423     		mov	r3, #84
 671 000a CA08     		lsr	r2, r1, #3
 672 000c 5343     		mul	r3, r2
 673 000e 1818     		add	r0, r3, r0
 674              	.LVL69:
 204:..\..\common\lib\nokia5110/LCD5110_Graph.c **** 		bi=y % 8;
 675              		.loc 2 204 0
 676 0010 0723     		mov	r3, #7
 677 0012 1940     		and	r1, r3
 678              	.LVL70:
 205:..\..\common\lib\nokia5110/LCD5110_Graph.c **** 
 206:..\..\common\lib\nokia5110/LCD5110_Graph.c **** 		scrbuf[by]=scrbuf[by] & ~(1<<bi);
 679              		.loc 2 206 0
 680 0014 063B     		sub	r3, r3, #6
 681 0016 8B40     		lsl	r3, r3, r1
 682 0018 191C     		mov	r1, r3
 683 001a 024A     		ldr	r2, .L54
 684 001c 135C     		ldrb	r3, [r2, r0]
 685 001e 8B43     		bic	r3, r1
 686 0020 1354     		strb	r3, [r2, r0]
 687              	.LVL71:
 688              	.L52:
 689              	.LBE20:
 690              	.LBE19:
 207:..\..\common\lib\nokia5110/LCD5110_Graph.c **** 	}
 208:..\..\common\lib\nokia5110/LCD5110_Graph.c **** }
 691              		.loc 2 208 0
 692              		@ sp needed
 693 0022 7047     		bx	lr
 694              	.L55:
 695              		.align	2
 696              	.L54:
 697 0024 00000000 		.word	scrbuf
 698              		.cfi_endproc
 699              	.LFE74:
 700              		.size	clrPixel, .-clrPixel
 701              		.section	.text.invPixel,"ax",%progbits
 702              		.align	1
ARM GAS  C:\Users\Petro\AppData\Local\Temp\cc6W0syg.s 			page 18


 703              		.global	invPixel
 704              		.code	16
 705              		.thumb_func
 706              		.type	invPixel, %function
 707              	invPixel:
 708              	.LFB75:
 209:..\..\common\lib\nokia5110/LCD5110_Graph.c **** 
 210:..\..\common\lib\nokia5110/LCD5110_Graph.c **** void invPixel(uint16_t x, uint16_t y)
 211:..\..\common\lib\nokia5110/LCD5110_Graph.c **** {
 709              		.loc 2 211 0
 710              		.cfi_startproc
 711              	.LVL72:
 712 0000 70B5     		push	{r4, r5, r6, lr}
 713              		.cfi_def_cfa_offset 16
 714              		.cfi_offset 4, -16
 715              		.cfi_offset 5, -12
 716              		.cfi_offset 6, -8
 717              		.cfi_offset 14, -4
 212:..\..\common\lib\nokia5110/LCD5110_Graph.c **** 	int by, bi;
 213:..\..\common\lib\nokia5110/LCD5110_Graph.c **** 
 214:..\..\common\lib\nokia5110/LCD5110_Graph.c **** 	if ((x>=0) && (x<84) && (y>=0) && (y<48))
 718              		.loc 2 214 0
 719 0002 5328     		cmp	r0, #83
 720 0004 16D8     		bhi	.L56
 721              		.loc 2 214 0 is_stmt 0 discriminator 1
 722 0006 2F29     		cmp	r1, #47
 723 0008 14D8     		bhi	.L56
 215:..\..\common\lib\nokia5110/LCD5110_Graph.c **** 	{
 216:..\..\common\lib\nokia5110/LCD5110_Graph.c **** 		by=((y/8)*84)+x;
 724              		.loc 2 216 0 is_stmt 1
 725 000a 5423     		mov	r3, #84
 726 000c CA08     		lsr	r2, r1, #3
 727 000e 5343     		mul	r3, r2
 728 0010 1818     		add	r0, r3, r0
 729              	.LVL73:
 217:..\..\common\lib\nokia5110/LCD5110_Graph.c **** 		bi=y % 8;
 730              		.loc 2 217 0
 731 0012 0723     		mov	r3, #7
 218:..\..\common\lib\nokia5110/LCD5110_Graph.c **** 
 219:..\..\common\lib\nokia5110/LCD5110_Graph.c **** 		if ((scrbuf[by] & (1<<bi))==0)
 732              		.loc 2 219 0
 733 0014 0124     		mov	r4, #1
 734 0016 084A     		ldr	r2, .L60
 217:..\..\common\lib\nokia5110/LCD5110_Graph.c **** 		bi=y % 8;
 735              		.loc 2 217 0
 736 0018 1940     		and	r1, r3
 737              	.LVL74:
 738              		.loc 2 219 0
 739 001a 135C     		ldrb	r3, [r2, r0]
 740 001c 261C     		mov	r6, r4
 741 001e 1D1C     		mov	r5, r3
 742 0020 8E40     		lsl	r6, r6, r1
 743 0022 0D41     		asr	r5, r5, r1
 744 0024 311C     		mov	r1, r6
 745              	.LVL75:
 746 0026 2542     		tst	r5, r4
 747 0028 01D1     		bne	.L58
ARM GAS  C:\Users\Petro\AppData\Local\Temp\cc6W0syg.s 			page 19


 220:..\..\common\lib\nokia5110/LCD5110_Graph.c **** 			scrbuf[by]=scrbuf[by] | (1<<bi);
 748              		.loc 2 220 0
 749 002a 1943     		orr	r1, r3
 750 002c 01E0     		b	.L59
 751              	.L58:
 221:..\..\common\lib\nokia5110/LCD5110_Graph.c **** 		else
 222:..\..\common\lib\nokia5110/LCD5110_Graph.c **** 			scrbuf[by]=scrbuf[by] & ~(1<<bi);
 752              		.loc 2 222 0
 753 002e B343     		bic	r3, r6
 754 0030 191C     		mov	r1, r3
 755              	.L59:
 756 0032 1154     		strb	r1, [r2, r0]
 757              	.LVL76:
 758              	.L56:
 223:..\..\common\lib\nokia5110/LCD5110_Graph.c **** 	}
 224:..\..\common\lib\nokia5110/LCD5110_Graph.c **** }
 759              		.loc 2 224 0
 760              		@ sp needed
 761 0034 70BD     		pop	{r4, r5, r6, pc}
 762              	.L61:
 763 0036 C046     		.align	2
 764              	.L60:
 765 0038 00000000 		.word	scrbuf
 766              		.cfi_endproc
 767              	.LFE75:
 768              		.size	invPixel, .-invPixel
 769              		.section	.text.invertText,"ax",%progbits
 770              		.align	1
 771              		.global	invertText
 772              		.code	16
 773              		.thumb_func
 774              		.type	invertText, %function
 775              	invertText:
 776              	.LFB76:
 225:..\..\common\lib\nokia5110/LCD5110_Graph.c **** 
 226:..\..\common\lib\nokia5110/LCD5110_Graph.c **** void invertText(bool mode)
 227:..\..\common\lib\nokia5110/LCD5110_Graph.c **** {
 777              		.loc 2 227 0
 778              		.cfi_startproc
 779              	.LVL77:
 780 0000 034B     		ldr	r3, .L65
 228:..\..\common\lib\nokia5110/LCD5110_Graph.c **** 	if (mode==true)
 781              		.loc 2 228 0
 782 0002 0028     		cmp	r0, #0
 783 0004 02D0     		beq	.L63
 229:..\..\common\lib\nokia5110/LCD5110_Graph.c **** 		cfont.inverted=1;
 784              		.loc 2 229 0
 785 0006 0122     		mov	r2, #1
 786 0008 1A72     		strb	r2, [r3, #8]
 787 000a 00E0     		b	.L62
 788              	.L63:
 230:..\..\common\lib\nokia5110/LCD5110_Graph.c **** 	else
 231:..\..\common\lib\nokia5110/LCD5110_Graph.c **** 		cfont.inverted=0;
 789              		.loc 2 231 0
 790 000c 1872     		strb	r0, [r3, #8]
 791              	.L62:
 232:..\..\common\lib\nokia5110/LCD5110_Graph.c **** }
ARM GAS  C:\Users\Petro\AppData\Local\Temp\cc6W0syg.s 			page 20


 792              		.loc 2 232 0
 793              		@ sp needed
 794 000e 7047     		bx	lr
 795              	.L66:
 796              		.align	2
 797              	.L65:
 798 0010 00000000 		.word	cfont
 799              		.cfi_endproc
 800              	.LFE76:
 801              		.size	invertText, .-invertText
 802              		.section	.text._print_char,"ax",%progbits
 803              		.align	1
 804              		.global	_print_char
 805              		.code	16
 806              		.thumb_func
 807              		.type	_print_char, %function
 808              	_print_char:
 809              	.LFB81:
 233:..\..\common\lib\nokia5110/LCD5110_Graph.c **** 
 234:..\..\common\lib\nokia5110/LCD5110_Graph.c **** void print(char *st, int x, int y)
 235:..\..\common\lib\nokia5110/LCD5110_Graph.c **** {
 236:..\..\common\lib\nokia5110/LCD5110_Graph.c **** 	unsigned char ch;
 237:..\..\common\lib\nokia5110/LCD5110_Graph.c **** 	int stl;
 238:..\..\common\lib\nokia5110/LCD5110_Graph.c **** 
 239:..\..\common\lib\nokia5110/LCD5110_Graph.c **** 	stl = strlen(st);
 240:..\..\common\lib\nokia5110/LCD5110_Graph.c **** 	if (x == RIGHT)
 241:..\..\common\lib\nokia5110/LCD5110_Graph.c **** 		x = 84-(stl*cfont.x_size);
 242:..\..\common\lib\nokia5110/LCD5110_Graph.c **** 	if (x == CENTER)
 243:..\..\common\lib\nokia5110/LCD5110_Graph.c **** 		x = (84-(stl*cfont.x_size))/2;
 244:..\..\common\lib\nokia5110/LCD5110_Graph.c **** 
 245:..\..\common\lib\nokia5110/LCD5110_Graph.c ****     int cnt;
 246:..\..\common\lib\nokia5110/LCD5110_Graph.c **** 	for (cnt=0; cnt<stl; cnt++)
 247:..\..\common\lib\nokia5110/LCD5110_Graph.c **** 			_print_char(*st++, x + (cnt*(cfont.x_size)), y);
 248:..\..\common\lib\nokia5110/LCD5110_Graph.c **** }
 249:..\..\common\lib\nokia5110/LCD5110_Graph.c **** 
 250:..\..\common\lib\nokia5110/LCD5110_Graph.c **** void prints(char *st, int x, int y)
 251:..\..\common\lib\nokia5110/LCD5110_Graph.c **** {
 252:..\..\common\lib\nokia5110/LCD5110_Graph.c **** //	char buf[st.length()+1];
 253:..\..\common\lib\nokia5110/LCD5110_Graph.c **** //
 254:..\..\common\lib\nokia5110/LCD5110_Graph.c **** //	st.toCharArray(buf, st.length()+1);
 255:..\..\common\lib\nokia5110/LCD5110_Graph.c **** 	print(st, x, y);
 256:..\..\common\lib\nokia5110/LCD5110_Graph.c **** }
 257:..\..\common\lib\nokia5110/LCD5110_Graph.c **** 
 258:..\..\common\lib\nokia5110/LCD5110_Graph.c **** void printNumI(long num, int x, int y, int length, char filler)
 259:..\..\common\lib\nokia5110/LCD5110_Graph.c **** {
 260:..\..\common\lib\nokia5110/LCD5110_Graph.c **** 	char buf[25];
 261:..\..\common\lib\nokia5110/LCD5110_Graph.c **** 	char st[27];
 262:..\..\common\lib\nokia5110/LCD5110_Graph.c **** 	bool neg=false;
 263:..\..\common\lib\nokia5110/LCD5110_Graph.c **** 	int c=0, f=0;
 264:..\..\common\lib\nokia5110/LCD5110_Graph.c ****   
 265:..\..\common\lib\nokia5110/LCD5110_Graph.c **** 	if (num==0)
 266:..\..\common\lib\nokia5110/LCD5110_Graph.c **** 	{
 267:..\..\common\lib\nokia5110/LCD5110_Graph.c **** 		if (length!=0)
 268:..\..\common\lib\nokia5110/LCD5110_Graph.c **** 		{
 269:..\..\common\lib\nokia5110/LCD5110_Graph.c **** 			for (c=0; c<(length-1); c++)
 270:..\..\common\lib\nokia5110/LCD5110_Graph.c **** 				st[c]=filler;
 271:..\..\common\lib\nokia5110/LCD5110_Graph.c **** 			st[c]=48;
ARM GAS  C:\Users\Petro\AppData\Local\Temp\cc6W0syg.s 			page 21


 272:..\..\common\lib\nokia5110/LCD5110_Graph.c **** 			st[c+1]=0;
 273:..\..\common\lib\nokia5110/LCD5110_Graph.c **** 		}
 274:..\..\common\lib\nokia5110/LCD5110_Graph.c **** 		else
 275:..\..\common\lib\nokia5110/LCD5110_Graph.c **** 		{
 276:..\..\common\lib\nokia5110/LCD5110_Graph.c **** 			st[0]=48;
 277:..\..\common\lib\nokia5110/LCD5110_Graph.c **** 			st[1]=0;
 278:..\..\common\lib\nokia5110/LCD5110_Graph.c **** 		}
 279:..\..\common\lib\nokia5110/LCD5110_Graph.c **** 	}
 280:..\..\common\lib\nokia5110/LCD5110_Graph.c **** 	else
 281:..\..\common\lib\nokia5110/LCD5110_Graph.c **** 	{
 282:..\..\common\lib\nokia5110/LCD5110_Graph.c **** 		if (num<0)
 283:..\..\common\lib\nokia5110/LCD5110_Graph.c **** 		{
 284:..\..\common\lib\nokia5110/LCD5110_Graph.c **** 			neg=true;
 285:..\..\common\lib\nokia5110/LCD5110_Graph.c **** 			num=-num;
 286:..\..\common\lib\nokia5110/LCD5110_Graph.c **** 		}
 287:..\..\common\lib\nokia5110/LCD5110_Graph.c **** 	  
 288:..\..\common\lib\nokia5110/LCD5110_Graph.c **** 		while (num>0)
 289:..\..\common\lib\nokia5110/LCD5110_Graph.c **** 		{
 290:..\..\common\lib\nokia5110/LCD5110_Graph.c **** 			buf[c]=48+(num % 10);
 291:..\..\common\lib\nokia5110/LCD5110_Graph.c **** 			c++;
 292:..\..\common\lib\nokia5110/LCD5110_Graph.c **** 			num=(num-(num % 10))/10;
 293:..\..\common\lib\nokia5110/LCD5110_Graph.c **** 		}
 294:..\..\common\lib\nokia5110/LCD5110_Graph.c **** 		buf[c]=0;
 295:..\..\common\lib\nokia5110/LCD5110_Graph.c **** 	  
 296:..\..\common\lib\nokia5110/LCD5110_Graph.c **** 		if (neg)
 297:..\..\common\lib\nokia5110/LCD5110_Graph.c **** 		{
 298:..\..\common\lib\nokia5110/LCD5110_Graph.c **** 			st[0]=45;
 299:..\..\common\lib\nokia5110/LCD5110_Graph.c **** 		}
 300:..\..\common\lib\nokia5110/LCD5110_Graph.c **** 	  
 301:..\..\common\lib\nokia5110/LCD5110_Graph.c **** 		if (length>(c+neg))
 302:..\..\common\lib\nokia5110/LCD5110_Graph.c **** 		{
 303:..\..\common\lib\nokia5110/LCD5110_Graph.c ****             int i;
 304:..\..\common\lib\nokia5110/LCD5110_Graph.c **** 			for (i=0; i<(length-c-neg); i++)
 305:..\..\common\lib\nokia5110/LCD5110_Graph.c **** 			{
 306:..\..\common\lib\nokia5110/LCD5110_Graph.c **** 				st[i+neg]=filler;
 307:..\..\common\lib\nokia5110/LCD5110_Graph.c **** 				f++;
 308:..\..\common\lib\nokia5110/LCD5110_Graph.c **** 			}
 309:..\..\common\lib\nokia5110/LCD5110_Graph.c **** 		}
 310:..\..\common\lib\nokia5110/LCD5110_Graph.c **** 
 311:..\..\common\lib\nokia5110/LCD5110_Graph.c ****         int i;
 312:..\..\common\lib\nokia5110/LCD5110_Graph.c **** 		for (i=0; i<c; i++)
 313:..\..\common\lib\nokia5110/LCD5110_Graph.c **** 		{
 314:..\..\common\lib\nokia5110/LCD5110_Graph.c **** 			st[i+neg+f]=buf[c-i-1];
 315:..\..\common\lib\nokia5110/LCD5110_Graph.c **** 		}
 316:..\..\common\lib\nokia5110/LCD5110_Graph.c **** 		st[c+neg+f]=0;
 317:..\..\common\lib\nokia5110/LCD5110_Graph.c **** 
 318:..\..\common\lib\nokia5110/LCD5110_Graph.c **** 	}
 319:..\..\common\lib\nokia5110/LCD5110_Graph.c **** 
 320:..\..\common\lib\nokia5110/LCD5110_Graph.c **** 	print(st,x,y);
 321:..\..\common\lib\nokia5110/LCD5110_Graph.c **** }
 322:..\..\common\lib\nokia5110/LCD5110_Graph.c **** 
 323:..\..\common\lib\nokia5110/LCD5110_Graph.c **** void printNumF(double num, uint8 dec, int x, int y, char divider, int length, char filler)
 324:..\..\common\lib\nokia5110/LCD5110_Graph.c **** {
 325:..\..\common\lib\nokia5110/LCD5110_Graph.c **** 	char st[27];
 326:..\..\common\lib\nokia5110/LCD5110_Graph.c ****     uint8_t size;
 327:..\..\common\lib\nokia5110/LCD5110_Graph.c **** 	bool neg=false;
 328:..\..\common\lib\nokia5110/LCD5110_Graph.c **** 
ARM GAS  C:\Users\Petro\AppData\Local\Temp\cc6W0syg.s 			page 22


 329:..\..\common\lib\nokia5110/LCD5110_Graph.c **** 	if (num<0)
 330:..\..\common\lib\nokia5110/LCD5110_Graph.c **** 		neg = true;
 331:..\..\common\lib\nokia5110/LCD5110_Graph.c **** 
 332:..\..\common\lib\nokia5110/LCD5110_Graph.c **** 	_convert_float(st, num, length, dec);
 333:..\..\common\lib\nokia5110/LCD5110_Graph.c **** 
 334:..\..\common\lib\nokia5110/LCD5110_Graph.c **** 	if (divider != '.')
 335:..\..\common\lib\nokia5110/LCD5110_Graph.c **** 	{
 336:..\..\common\lib\nokia5110/LCD5110_Graph.c ****         size = sizeof st;
 337:..\..\common\lib\nokia5110/LCD5110_Graph.c ****         int i;
 338:..\..\common\lib\nokia5110/LCD5110_Graph.c **** 		for (i=0; i<size; i++)
 339:..\..\common\lib\nokia5110/LCD5110_Graph.c **** 			if (st[i]=='.')
 340:..\..\common\lib\nokia5110/LCD5110_Graph.c **** 				st[i]=divider;
 341:..\..\common\lib\nokia5110/LCD5110_Graph.c **** 	}
 342:..\..\common\lib\nokia5110/LCD5110_Graph.c **** 
 343:..\..\common\lib\nokia5110/LCD5110_Graph.c **** 	if (filler != ' ')
 344:..\..\common\lib\nokia5110/LCD5110_Graph.c **** 	{
 345:..\..\common\lib\nokia5110/LCD5110_Graph.c **** 		if (neg)
 346:..\..\common\lib\nokia5110/LCD5110_Graph.c **** 		{
 347:..\..\common\lib\nokia5110/LCD5110_Graph.c **** 			st[0]='-';
 348:..\..\common\lib\nokia5110/LCD5110_Graph.c ****             size = sizeof st;
 349:..\..\common\lib\nokia5110/LCD5110_Graph.c ****             int i;
 350:..\..\common\lib\nokia5110/LCD5110_Graph.c **** 			for (i=1; i<size; i++)
 351:..\..\common\lib\nokia5110/LCD5110_Graph.c **** 				if ((st[i]==' ') || (st[i]=='-'))
 352:..\..\common\lib\nokia5110/LCD5110_Graph.c **** 					st[i]=filler;
 353:..\..\common\lib\nokia5110/LCD5110_Graph.c **** 		}
 354:..\..\common\lib\nokia5110/LCD5110_Graph.c **** 		else
 355:..\..\common\lib\nokia5110/LCD5110_Graph.c **** 		{
 356:..\..\common\lib\nokia5110/LCD5110_Graph.c ****             size = sizeof st;
 357:..\..\common\lib\nokia5110/LCD5110_Graph.c ****             int i;
 358:..\..\common\lib\nokia5110/LCD5110_Graph.c **** 			for (i=0; i<size; i++)
 359:..\..\common\lib\nokia5110/LCD5110_Graph.c **** 				if (st[i]==' ')
 360:..\..\common\lib\nokia5110/LCD5110_Graph.c **** 					st[i]=filler;
 361:..\..\common\lib\nokia5110/LCD5110_Graph.c **** 		}
 362:..\..\common\lib\nokia5110/LCD5110_Graph.c **** 	}
 363:..\..\common\lib\nokia5110/LCD5110_Graph.c **** 
 364:..\..\common\lib\nokia5110/LCD5110_Graph.c **** 	print(st,x,y);
 365:..\..\common\lib\nokia5110/LCD5110_Graph.c **** }
 366:..\..\common\lib\nokia5110/LCD5110_Graph.c **** 
 367:..\..\common\lib\nokia5110/LCD5110_Graph.c **** void _print_char(unsigned char c, int x, int y)
 368:..\..\common\lib\nokia5110/LCD5110_Graph.c **** {
 810              		.loc 2 368 0
 811              		.cfi_startproc
 812              	.LVL78:
 813 0000 F0B5     		push	{r4, r5, r6, r7, lr}
 814              		.cfi_def_cfa_offset 20
 815              		.cfi_offset 4, -20
 816              		.cfi_offset 5, -16
 817              		.cfi_offset 6, -12
 818              		.cfi_offset 7, -8
 819              		.cfi_offset 14, -4
 820 0002 85B0     		sub	sp, sp, #20
 821              		.cfi_def_cfa_offset 40
 822              		.loc 2 368 0
 823 0004 0192     		str	r2, [sp, #4]
 369:..\..\common\lib\nokia5110/LCD5110_Graph.c **** 	if ((cfont.y_size % 8) == 0)
 824              		.loc 2 369 0
 825 0006 3E4A     		ldr	r2, .L91
ARM GAS  C:\Users\Petro\AppData\Local\Temp\cc6W0syg.s 			page 23


 826              	.LVL79:
 368:..\..\common\lib\nokia5110/LCD5110_Graph.c **** 	if ((cfont.y_size % 8) == 0)
 827              		.loc 2 368 0
 828 0008 0391     		str	r1, [sp, #12]
 829              		.loc 2 369 0
 830 000a 5379     		ldrb	r3, [r2, #5]
 831 000c 0725     		mov	r5, #7
 832 000e 191C     		mov	r1, r3
 833              	.LVL80:
 834 0010 9479     		ldrb	r4, [r2, #6]
 835 0012 2940     		and	r1, r5
 836 0014 1679     		ldrb	r6, [r2, #4]
 837 0016 0029     		cmp	r1, #0
 838 0018 38D1     		bne	.L68
 839              	.LBB21:
 370:..\..\common\lib\nokia5110/LCD5110_Graph.c **** 	{
 371:..\..\common\lib\nokia5110/LCD5110_Graph.c **** 		int font_idx = ((c - cfont.offset)*(cfont.x_size*(cfont.y_size/8)))+4;
 840              		.loc 2 371 0
 841 001a DB08     		lsr	r3, r3, #3
 842 001c 7343     		mul	r3, r6
 843 001e 001B     		sub	r0, r0, r4
 844              	.LVL81:
 845 0020 4343     		mul	r3, r0
 846 0022 0293     		str	r3, [sp, #8]
 847              	.LVL82:
 848 0024 6B46     		mov	r3, sp
 849              	.LVL83:
 372:..\..\common\lib\nokia5110/LCD5110_Graph.c ****         int rowcnt;
 373:..\..\common\lib\nokia5110/LCD5110_Graph.c **** 		for (rowcnt=0; rowcnt<(cfont.y_size/8); rowcnt++)
 850              		.loc 2 373 0
 851 0026 0C1C     		mov	r4, r1
 852 0028 9D88     		ldrh	r5, [r3, #4]
 853              	.LVL84:
 854              	.L69:
 855              		.loc 2 373 0 is_stmt 0 discriminator 1
 856 002a 354B     		ldr	r3, .L91
 857 002c 5B79     		ldrb	r3, [r3, #5]
 858 002e DB08     		lsr	r3, r3, #3
 859 0030 9C42     		cmp	r4, r3
 860 0032 62DA     		bge	.L67
 861 0034 0026     		mov	r6, #0
 862              	.L75:
 863              	.LVL85:
 864              	.LBB22:
 374:..\..\common\lib\nokia5110/LCD5110_Graph.c **** 		{
 375:..\..\common\lib\nokia5110/LCD5110_Graph.c ****             int cnt;
 376:..\..\common\lib\nokia5110/LCD5110_Graph.c **** 			for(cnt=0; cnt<cfont.x_size; cnt++)
 865              		.loc 2 376 0 is_stmt 1 discriminator 1
 866 0036 324B     		ldr	r3, .L91
 867 0038 1B79     		ldrb	r3, [r3, #4]
 868 003a 9E42     		cmp	r6, r3
 869 003c 22DA     		bge	.L89
 870 003e 0027     		mov	r7, #0
 871              	.L74:
 872              	.LVL86:
 873              	.LBB23:
 377:..\..\common\lib\nokia5110/LCD5110_Graph.c **** 			{
ARM GAS  C:\Users\Petro\AppData\Local\Temp\cc6W0syg.s 			page 24


 378:..\..\common\lib\nokia5110/LCD5110_Graph.c ****                 int b;
 379:..\..\common\lib\nokia5110/LCD5110_Graph.c **** 				for (b=0; b<8; b++)
 380:..\..\common\lib\nokia5110/LCD5110_Graph.c **** 					if ((fontbyte(font_idx+cnt+(rowcnt*cfont.x_size)) & (1<<b))!=0)
 874              		.loc 2 380 0
 875 0040 2F49     		ldr	r1, .L91
 876 0042 0298     		ldr	r0, [sp, #8]
 877 0044 0B79     		ldrb	r3, [r1, #4]
 878 0046 6343     		mul	r3, r4
 879 0048 1A1C     		mov	r2, r3
 880 004a 0B68     		ldr	r3, [r1]
 881 004c 9B19     		add	r3, r3, r6
 882 004e 1B18     		add	r3, r3, r0
 883 0050 9B18     		add	r3, r3, r2
 884 0052 1B79     		ldrb	r3, [r3, #4]
 885 0054 0A7A     		ldrb	r2, [r1, #8]
 886 0056 3B41     		asr	r3, r3, r7
 887 0058 0399     		ldr	r1, [sp, #12]
 888 005a 7018     		add	r0, r6, r1
 889 005c E919     		add	r1, r5, r7
 381:..\..\common\lib\nokia5110/LCD5110_Graph.c **** 						if (cfont.inverted==0)
 382:..\..\common\lib\nokia5110/LCD5110_Graph.c **** 							setPixel(x+cnt, y+(rowcnt*8)+b);
 890              		.loc 2 382 0
 891 005e 80B2     		uxth	r0, r0
 892 0060 89B2     		uxth	r1, r1
 380:..\..\common\lib\nokia5110/LCD5110_Graph.c **** 						if (cfont.inverted==0)
 893              		.loc 2 380 0
 894 0062 DB07     		lsl	r3, r3, #31
 895 0064 02D5     		bpl	.L70
 381:..\..\common\lib\nokia5110/LCD5110_Graph.c **** 						if (cfont.inverted==0)
 896              		.loc 2 381 0
 897 0066 002A     		cmp	r2, #0
 898 0068 02D1     		bne	.L87
 899 006a 04E0     		b	.L73
 900              	.L70:
 383:..\..\common\lib\nokia5110/LCD5110_Graph.c **** 						else
 384:..\..\common\lib\nokia5110/LCD5110_Graph.c **** 							clrPixel(x+cnt, y+(rowcnt*8)+b);
 385:..\..\common\lib\nokia5110/LCD5110_Graph.c **** 					else
 386:..\..\common\lib\nokia5110/LCD5110_Graph.c **** 						if (cfont.inverted==0)
 901              		.loc 2 386 0
 902 006c 002A     		cmp	r2, #0
 903 006e 02D1     		bne	.L73
 904              	.L87:
 387:..\..\common\lib\nokia5110/LCD5110_Graph.c **** 							clrPixel(x+cnt, y+(rowcnt*8)+b);
 905              		.loc 2 387 0
 906 0070 FFF7FEFF 		bl	clrPixel
 907              	.LVL87:
 908 0074 01E0     		b	.L72
 909              	.L73:
 388:..\..\common\lib\nokia5110/LCD5110_Graph.c **** 						else
 389:..\..\common\lib\nokia5110/LCD5110_Graph.c **** 							setPixel(x+cnt, y+(rowcnt*8)+b);
 910              		.loc 2 389 0
 911 0076 FFF7FEFF 		bl	setPixel
 912              	.LVL88:
 913              	.L72:
 379:..\..\common\lib\nokia5110/LCD5110_Graph.c **** 					if ((fontbyte(font_idx+cnt+(rowcnt*cfont.x_size)) & (1<<b))!=0)
 914              		.loc 2 379 0 discriminator 2
 915 007a 0137     		add	r7, r7, #1
ARM GAS  C:\Users\Petro\AppData\Local\Temp\cc6W0syg.s 			page 25


 916              	.LVL89:
 917 007c 082F     		cmp	r7, #8
 918 007e DFD1     		bne	.L74
 919              	.LBE23:
 376:..\..\common\lib\nokia5110/LCD5110_Graph.c **** 			{
 920              		.loc 2 376 0 discriminator 2
 921 0080 0136     		add	r6, r6, #1
 922              	.LVL90:
 923 0082 D8E7     		b	.L75
 924              	.LVL91:
 925              	.L89:
 926 0084 0835     		add	r5, r5, #8
 927              	.LBE22:
 373:..\..\common\lib\nokia5110/LCD5110_Graph.c **** 		{
 928              		.loc 2 373 0 discriminator 2
 929 0086 0134     		add	r4, r4, #1
 930              	.LVL92:
 931 0088 ADB2     		uxth	r5, r5
 932 008a CEE7     		b	.L69
 933              	.LVL93:
 934              	.L68:
 935              	.LBE21:
 936              	.LBB24:
 390:..\..\common\lib\nokia5110/LCD5110_Graph.c **** 			}
 391:..\..\common\lib\nokia5110/LCD5110_Graph.c **** 		}
 392:..\..\common\lib\nokia5110/LCD5110_Graph.c **** 	}
 393:..\..\common\lib\nokia5110/LCD5110_Graph.c **** 	else
 394:..\..\common\lib\nokia5110/LCD5110_Graph.c **** 	{
 395:..\..\common\lib\nokia5110/LCD5110_Graph.c **** 		int font_idx = ((c - cfont.offset)*((cfont.x_size*cfont.y_size/8)))+4;
 396:..\..\common\lib\nokia5110/LCD5110_Graph.c **** 		int cbyte=fontbyte(font_idx);
 397:..\..\common\lib\nokia5110/LCD5110_Graph.c **** 		int cbit=7;
 398:..\..\common\lib\nokia5110/LCD5110_Graph.c ****         int cx;
 399:..\..\common\lib\nokia5110/LCD5110_Graph.c **** 		for (cx=0; cx<cfont.x_size; cx++)
 937              		.loc 2 399 0
 938 008c 0027     		mov	r7, #0
 395:..\..\common\lib\nokia5110/LCD5110_Graph.c **** 		int cbyte=fontbyte(font_idx);
 939              		.loc 2 395 0
 940 008e 7343     		mul	r3, r6
 941 0090 041B     		sub	r4, r0, r4
 942 0092 DB10     		asr	r3, r3, #3
 943 0094 5C43     		mul	r4, r3
 396:..\..\common\lib\nokia5110/LCD5110_Graph.c **** 		int cbit=7;
 944              		.loc 2 396 0
 945 0096 1368     		ldr	r3, [r2]
 395:..\..\common\lib\nokia5110/LCD5110_Graph.c **** 		int cbyte=fontbyte(font_idx);
 946              		.loc 2 395 0
 947 0098 0434     		add	r4, r4, #4
 948              	.LVL94:
 396:..\..\common\lib\nokia5110/LCD5110_Graph.c **** 		int cbit=7;
 949              		.loc 2 396 0
 950 009a 1B5D     		ldrb	r3, [r3, r4]
 951 009c 0293     		str	r3, [sp, #8]
 952              	.LVL95:
 953              	.L76:
 954              		.loc 2 399 0 discriminator 1
 955 009e 184B     		ldr	r3, .L91
 956 00a0 1B79     		ldrb	r3, [r3, #4]
ARM GAS  C:\Users\Petro\AppData\Local\Temp\cc6W0syg.s 			page 26


 957 00a2 9F42     		cmp	r7, r3
 958 00a4 29DA     		bge	.L67
 959 00a6 0026     		mov	r6, #0
 960              	.L84:
 961              	.LVL96:
 962              	.LBB25:
 400:..\..\common\lib\nokia5110/LCD5110_Graph.c **** 		{
 401:..\..\common\lib\nokia5110/LCD5110_Graph.c ****             int cy;
 402:..\..\common\lib\nokia5110/LCD5110_Graph.c **** 			for (cy=0; cy<cfont.y_size; cy++)
 963              		.loc 2 402 0 discriminator 1
 964 00a8 154B     		ldr	r3, .L91
 965 00aa 5A79     		ldrb	r2, [r3, #5]
 966 00ac 9642     		cmp	r6, r2
 967 00ae 22DA     		bge	.L90
 968 00b0 1A7A     		ldrb	r2, [r3, #8]
 969 00b2 039B     		ldr	r3, [sp, #12]
 970 00b4 F818     		add	r0, r7, r3
 403:..\..\common\lib\nokia5110/LCD5110_Graph.c **** 			{
 404:..\..\common\lib\nokia5110/LCD5110_Graph.c **** 				if ((cbyte & (1<<cbit)) != 0)
 971              		.loc 2 404 0
 972 00b6 029B     		ldr	r3, [sp, #8]
 973 00b8 2B41     		asr	r3, r3, r5
 974 00ba DB07     		lsl	r3, r3, #31
 975 00bc 06D5     		bpl	.L77
 976 00be 019B     		ldr	r3, [sp, #4]
 405:..\..\common\lib\nokia5110/LCD5110_Graph.c **** 					if (cfont.inverted==0)
 406:..\..\common\lib\nokia5110/LCD5110_Graph.c **** 						setPixel(x+cx, y+cy);
 977              		.loc 2 406 0
 978 00c0 80B2     		uxth	r0, r0
 979 00c2 F118     		add	r1, r6, r3
 980 00c4 89B2     		uxth	r1, r1
 405:..\..\common\lib\nokia5110/LCD5110_Graph.c **** 					if (cfont.inverted==0)
 981              		.loc 2 405 0
 982 00c6 002A     		cmp	r2, #0
 983 00c8 06D1     		bne	.L88
 984 00ca 08E0     		b	.L80
 985              	.L77:
 986 00cc 019B     		ldr	r3, [sp, #4]
 407:..\..\common\lib\nokia5110/LCD5110_Graph.c **** 					else
 408:..\..\common\lib\nokia5110/LCD5110_Graph.c **** 						clrPixel(x+cx, y+cy);
 409:..\..\common\lib\nokia5110/LCD5110_Graph.c **** 				else
 410:..\..\common\lib\nokia5110/LCD5110_Graph.c **** 					if (cfont.inverted==0)
 411:..\..\common\lib\nokia5110/LCD5110_Graph.c **** 						clrPixel(x+cx, y+cy);
 987              		.loc 2 411 0
 988 00ce 80B2     		uxth	r0, r0
 989 00d0 F118     		add	r1, r6, r3
 990 00d2 89B2     		uxth	r1, r1
 410:..\..\common\lib\nokia5110/LCD5110_Graph.c **** 						clrPixel(x+cx, y+cy);
 991              		.loc 2 410 0
 992 00d4 002A     		cmp	r2, #0
 993 00d6 02D1     		bne	.L80
 994              	.L88:
 995              		.loc 2 411 0
 996 00d8 FFF7FEFF 		bl	clrPixel
 997              	.LVL97:
 998 00dc 01E0     		b	.L79
 999              	.L80:
ARM GAS  C:\Users\Petro\AppData\Local\Temp\cc6W0syg.s 			page 27


 412:..\..\common\lib\nokia5110/LCD5110_Graph.c **** 					else
 413:..\..\common\lib\nokia5110/LCD5110_Graph.c **** 						setPixel(x+cx, y+cy);
 1000              		.loc 2 413 0
 1001 00de FFF7FEFF 		bl	setPixel
 1002              	.LVL98:
 1003              	.L79:
 414:..\..\common\lib\nokia5110/LCD5110_Graph.c **** 				cbit--;
 415:..\..\common\lib\nokia5110/LCD5110_Graph.c **** 				if (cbit<0)
 1004              		.loc 2 415 0
 1005 00e2 013D     		sub	r5, r5, #1
 1006 00e4 05D5     		bpl	.L81
 1007              	.LVL99:
 416:..\..\common\lib\nokia5110/LCD5110_Graph.c **** 				{
 417:..\..\common\lib\nokia5110/LCD5110_Graph.c **** 					cbit=7;
 1008              		.loc 2 417 0
 1009 00e6 0725     		mov	r5, #7
 418:..\..\common\lib\nokia5110/LCD5110_Graph.c **** 					font_idx++;
 419:..\..\common\lib\nokia5110/LCD5110_Graph.c **** 					cbyte=fontbyte(font_idx);
 1010              		.loc 2 419 0
 1011 00e8 054B     		ldr	r3, .L91
 418:..\..\common\lib\nokia5110/LCD5110_Graph.c **** 					font_idx++;
 1012              		.loc 2 418 0
 1013 00ea 0134     		add	r4, r4, #1
 1014              	.LVL100:
 1015              		.loc 2 419 0
 1016 00ec 1B68     		ldr	r3, [r3]
 1017 00ee 1B5D     		ldrb	r3, [r3, r4]
 1018 00f0 0293     		str	r3, [sp, #8]
 1019              	.LVL101:
 1020              	.L81:
 402:..\..\common\lib\nokia5110/LCD5110_Graph.c **** 			{
 1021              		.loc 2 402 0 discriminator 2
 1022 00f2 0136     		add	r6, r6, #1
 1023              	.LVL102:
 1024 00f4 D8E7     		b	.L84
 1025              	.L90:
 1026              	.LBE25:
 399:..\..\common\lib\nokia5110/LCD5110_Graph.c **** 		{
 1027              		.loc 2 399 0 discriminator 2
 1028 00f6 0137     		add	r7, r7, #1
 1029              	.LVL103:
 1030 00f8 D1E7     		b	.L76
 1031              	.LVL104:
 1032              	.L67:
 1033              	.LBE24:
 420:..\..\common\lib\nokia5110/LCD5110_Graph.c **** 				}
 421:..\..\common\lib\nokia5110/LCD5110_Graph.c **** 			}
 422:..\..\common\lib\nokia5110/LCD5110_Graph.c **** 		}
 423:..\..\common\lib\nokia5110/LCD5110_Graph.c **** 	}
 424:..\..\common\lib\nokia5110/LCD5110_Graph.c **** }
 1034              		.loc 2 424 0
 1035 00fa 05B0     		add	sp, sp, #20
 1036              		@ sp needed
 1037 00fc F0BD     		pop	{r4, r5, r6, r7, pc}
 1038              	.L92:
 1039 00fe C046     		.align	2
 1040              	.L91:
ARM GAS  C:\Users\Petro\AppData\Local\Temp\cc6W0syg.s 			page 28


 1041 0100 00000000 		.word	cfont
 1042              		.cfi_endproc
 1043              	.LFE81:
 1044              		.size	_print_char, .-_print_char
 1045              		.section	.text.print,"ax",%progbits
 1046              		.align	1
 1047              		.global	print
 1048              		.code	16
 1049              		.thumb_func
 1050              		.type	print, %function
 1051              	print:
 1052              	.LFB77:
 235:..\..\common\lib\nokia5110/LCD5110_Graph.c **** 	unsigned char ch;
 1053              		.loc 2 235 0
 1054              		.cfi_startproc
 1055              	.LVL105:
 1056 0000 F7B5     		push	{r0, r1, r2, r4, r5, r6, r7, lr}
 1057              		.cfi_def_cfa_offset 32
 1058              		.cfi_offset 0, -32
 1059              		.cfi_offset 1, -28
 1060              		.cfi_offset 2, -24
 1061              		.cfi_offset 4, -20
 1062              		.cfi_offset 5, -16
 1063              		.cfi_offset 6, -12
 1064              		.cfi_offset 7, -8
 1065              		.cfi_offset 14, -4
 235:..\..\common\lib\nokia5110/LCD5110_Graph.c **** 	unsigned char ch;
 1066              		.loc 2 235 0
 1067 0002 071C     		mov	r7, r0
 1068 0004 0C1C     		mov	r4, r1
 1069 0006 0192     		str	r2, [sp, #4]
 239:..\..\common\lib\nokia5110/LCD5110_Graph.c **** 	if (x == RIGHT)
 1070              		.loc 2 239 0
 1071 0008 FFF7FEFF 		bl	strlen
 1072              	.LVL106:
 240:..\..\common\lib\nokia5110/LCD5110_Graph.c **** 		x = 84-(stl*cfont.x_size);
 1073              		.loc 2 240 0
 1074 000c 104B     		ldr	r3, .L99
 239:..\..\common\lib\nokia5110/LCD5110_Graph.c **** 	if (x == RIGHT)
 1075              		.loc 2 239 0
 1076 000e 061C     		mov	r6, r0
 1077              	.LVL107:
 240:..\..\common\lib\nokia5110/LCD5110_Graph.c **** 		x = 84-(stl*cfont.x_size);
 1078              		.loc 2 240 0
 1079 0010 9C42     		cmp	r4, r3
 1080 0012 04D1     		bne	.L94
 241:..\..\common\lib\nokia5110/LCD5110_Graph.c **** 	if (x == CENTER)
 1081              		.loc 2 241 0
 1082 0014 0F4B     		ldr	r3, .L99+4
 1083 0016 1C79     		ldrb	r4, [r3, #4]
 1084              	.LVL108:
 1085 0018 5423     		mov	r3, #84
 1086 001a 4443     		mul	r4, r0
 1087 001c 1C1B     		sub	r4, r3, r4
 1088              	.LVL109:
 1089              	.L94:
 242:..\..\common\lib\nokia5110/LCD5110_Graph.c **** 		x = (84-(stl*cfont.x_size))/2;
ARM GAS  C:\Users\Petro\AppData\Local\Temp\cc6W0syg.s 			page 29


 1090              		.loc 2 242 0
 1091 001e 0E4B     		ldr	r3, .L99+8
 1092 0020 9C42     		cmp	r4, r3
 1093 0022 07D1     		bne	.L95
 243:..\..\common\lib\nokia5110/LCD5110_Graph.c **** 
 1094              		.loc 2 243 0
 1095 0024 5422     		mov	r2, #84
 1096 0026 0B4B     		ldr	r3, .L99+4
 1097 0028 1B79     		ldrb	r3, [r3, #4]
 1098 002a 7343     		mul	r3, r6
 1099 002c D31A     		sub	r3, r2, r3
 1100 002e DC0F     		lsr	r4, r3, #31
 1101              	.LVL110:
 1102 0030 E418     		add	r4, r4, r3
 1103 0032 6410     		asr	r4, r4, #1
 1104              	.LVL111:
 1105              	.L95:
 246:..\..\common\lib\nokia5110/LCD5110_Graph.c **** 			_print_char(*st++, x + (cnt*(cfont.x_size)), y);
 1106              		.loc 2 246 0
 1107 0034 0025     		mov	r5, #0
 1108              	.LVL112:
 1109              	.L96:
 246:..\..\common\lib\nokia5110/LCD5110_Graph.c **** 			_print_char(*st++, x + (cnt*(cfont.x_size)), y);
 1110              		.loc 2 246 0 is_stmt 0 discriminator 1
 1111 0036 B542     		cmp	r5, r6
 1112 0038 09DA     		bge	.L98
 1113              	.LVL113:
 247:..\..\common\lib\nokia5110/LCD5110_Graph.c **** }
 1114              		.loc 2 247 0 is_stmt 1 discriminator 3
 1115 003a 064B     		ldr	r3, .L99+4
 1116 003c 785D     		ldrb	r0, [r7, r5]
 1117 003e 1979     		ldrb	r1, [r3, #4]
 1118 0040 019A     		ldr	r2, [sp, #4]
 1119 0042 6943     		mul	r1, r5
 1120 0044 6118     		add	r1, r4, r1
 1121 0046 FFF7FEFF 		bl	_print_char
 1122              	.LVL114:
 246:..\..\common\lib\nokia5110/LCD5110_Graph.c **** 			_print_char(*st++, x + (cnt*(cfont.x_size)), y);
 1123              		.loc 2 246 0 discriminator 3
 1124 004a 0135     		add	r5, r5, #1
 1125              	.LVL115:
 1126 004c F3E7     		b	.L96
 1127              	.L98:
 248:..\..\common\lib\nokia5110/LCD5110_Graph.c **** 
 1128              		.loc 2 248 0
 1129              		@ sp needed
 1130              	.LVL116:
 1131              	.LVL117:
 1132              	.LVL118:
 1133 004e F7BD     		pop	{r0, r1, r2, r4, r5, r6, r7, pc}
 1134              	.L100:
 1135              		.align	2
 1136              	.L99:
 1137 0050 0F270000 		.word	9999
 1138 0054 00000000 		.word	cfont
 1139 0058 0E270000 		.word	9998
 1140              		.cfi_endproc
ARM GAS  C:\Users\Petro\AppData\Local\Temp\cc6W0syg.s 			page 30


 1141              	.LFE77:
 1142              		.size	print, .-print
 1143              		.section	.text.prints,"ax",%progbits
 1144              		.align	1
 1145              		.global	prints
 1146              		.code	16
 1147              		.thumb_func
 1148              		.type	prints, %function
 1149              	prints:
 1150              	.LFB78:
 251:..\..\common\lib\nokia5110/LCD5110_Graph.c **** //	char buf[st.length()+1];
 1151              		.loc 2 251 0
 1152              		.cfi_startproc
 1153              	.LVL119:
 1154 0000 08B5     		push	{r3, lr}
 1155              		.cfi_def_cfa_offset 8
 1156              		.cfi_offset 3, -8
 1157              		.cfi_offset 14, -4
 255:..\..\common\lib\nokia5110/LCD5110_Graph.c **** }
 1158              		.loc 2 255 0
 1159 0002 FFF7FEFF 		bl	print
 1160              	.LVL120:
 256:..\..\common\lib\nokia5110/LCD5110_Graph.c **** 
 1161              		.loc 2 256 0
 1162              		@ sp needed
 1163 0006 08BD     		pop	{r3, pc}
 1164              		.cfi_endproc
 1165              	.LFE78:
 1166              		.size	prints, .-prints
 1167              		.global	__aeabi_idivmod
 1168              		.global	__aeabi_idiv
 1169              		.section	.text.printNumI,"ax",%progbits
 1170              		.align	1
 1171              		.global	printNumI
 1172              		.code	16
 1173              		.thumb_func
 1174              		.type	printNumI, %function
 1175              	printNumI:
 1176              	.LFB79:
 259:..\..\common\lib\nokia5110/LCD5110_Graph.c **** 	char buf[25];
 1177              		.loc 2 259 0
 1178              		.cfi_startproc
 1179              	.LVL121:
 1180 0000 F0B5     		push	{r4, r5, r6, r7, lr}
 1181              		.cfi_def_cfa_offset 20
 1182              		.cfi_offset 4, -20
 1183              		.cfi_offset 5, -16
 1184              		.cfi_offset 6, -12
 1185              		.cfi_offset 7, -8
 1186              		.cfi_offset 14, -4
 1187 0002 93B0     		sub	sp, sp, #76
 1188              		.cfi_def_cfa_offset 96
 259:..\..\common\lib\nokia5110/LCD5110_Graph.c **** 	char buf[25];
 1189              		.loc 2 259 0
 1190 0004 1F1C     		mov	r7, r3
 1191 0006 18AB     		add	r3, sp, #96
 1192              	.LVL122:
ARM GAS  C:\Users\Petro\AppData\Local\Temp\cc6W0syg.s 			page 31


 1193 0008 1B78     		ldrb	r3, [r3]
 1194              	.LVL123:
 1195 000a 041E     		sub	r4, r0, #0
 1196 000c 0291     		str	r1, [sp, #8]
 1197 000e 0392     		str	r2, [sp, #12]
 1198 0010 0193     		str	r3, [sp, #4]
 265:..\..\common\lib\nokia5110/LCD5110_Graph.c **** 	{
 1199              		.loc 2 265 0
 1200 0012 14D1     		bne	.L103
 1201 0014 0BA8     		add	r0, sp, #44
 1202              	.LVL124:
 267:..\..\common\lib\nokia5110/LCD5110_Graph.c **** 		{
 1203              		.loc 2 267 0
 1204 0016 002F     		cmp	r7, #0
 1205 0018 0DD0     		beq	.L123
 1206              	.LVL125:
 1207              	.L104:
 269:..\..\common\lib\nokia5110/LCD5110_Graph.c **** 				st[c]=filler;
 1208              		.loc 2 269 0 discriminator 1
 1209 001a 7B1E     		sub	r3, r7, #1
 1210 001c 9C42     		cmp	r4, r3
 1211 001e 04DA     		bge	.L124
 270:..\..\common\lib\nokia5110/LCD5110_Graph.c **** 			st[c]=48;
 1212              		.loc 2 270 0 discriminator 3
 1213 0020 6B46     		mov	r3, sp
 1214 0022 1B79     		ldrb	r3, [r3, #4]
 1215 0024 0355     		strb	r3, [r0, r4]
 269:..\..\common\lib\nokia5110/LCD5110_Graph.c **** 				st[c]=filler;
 1216              		.loc 2 269 0 discriminator 3
 1217 0026 0134     		add	r4, r4, #1
 1218              	.LVL126:
 1219 0028 F7E7     		b	.L104
 1220              	.L124:
 271:..\..\common\lib\nokia5110/LCD5110_Graph.c **** 			st[c+1]=0;
 1221              		.loc 2 271 0
 1222 002a 3023     		mov	r3, #48
 1223 002c 0355     		strb	r3, [r0, r4]
 272:..\..\common\lib\nokia5110/LCD5110_Graph.c **** 		}
 1224              		.loc 2 272 0
 1225 002e 0023     		mov	r3, #0
 1226 0030 0419     		add	r4, r0, r4
 1227              	.LVL127:
 1228 0032 6370     		strb	r3, [r4, #1]
 1229 0034 43E0     		b	.L107
 1230              	.LVL128:
 1231              	.L123:
 276:..\..\common\lib\nokia5110/LCD5110_Graph.c **** 			st[1]=0;
 1232              		.loc 2 276 0
 1233 0036 3023     		mov	r3, #48
 277:..\..\common\lib\nokia5110/LCD5110_Graph.c **** 		}
 1234              		.loc 2 277 0
 1235 0038 4770     		strb	r7, [r0, #1]
 276:..\..\common\lib\nokia5110/LCD5110_Graph.c **** 			st[1]=0;
 1236              		.loc 2 276 0
 1237 003a 0370     		strb	r3, [r0]
 1238 003c 3FE0     		b	.L107
 1239              	.LVL129:
ARM GAS  C:\Users\Petro\AppData\Local\Temp\cc6W0syg.s 			page 32


 1240              	.L103:
 262:..\..\common\lib\nokia5110/LCD5110_Graph.c **** 	int c=0, f=0;
 1241              		.loc 2 262 0
 1242 003e 0026     		mov	r6, #0
 1243              	.LBB26:
 282:..\..\common\lib\nokia5110/LCD5110_Graph.c **** 		{
 1244              		.loc 2 282 0
 1245 0040 B042     		cmp	r0, r6
 1246 0042 01DA     		bge	.L108
 1247              	.LVL130:
 285:..\..\common\lib\nokia5110/LCD5110_Graph.c **** 		}
 1248              		.loc 2 285 0
 1249 0044 4442     		neg	r4, r0
 1250              	.LVL131:
 284:..\..\common\lib\nokia5110/LCD5110_Graph.c **** 			num=-num;
 1251              		.loc 2 284 0
 1252 0046 0136     		add	r6, r6, #1
 1253              	.LVL132:
 1254              	.L108:
 1255              	.LBE26:
 262:..\..\common\lib\nokia5110/LCD5110_Graph.c **** 	int c=0, f=0;
 1256              		.loc 2 262 0
 1257 0048 0025     		mov	r5, #0
 1258              	.LVL133:
 1259              	.L109:
 1260              	.LBB28:
 290:..\..\common\lib\nokia5110/LCD5110_Graph.c **** 			c++;
 1261              		.loc 2 290 0
 1262 004a 201C     		mov	r0, r4
 1263 004c 0A21     		mov	r1, #10
 1264 004e FFF7FEFF 		bl	__aeabi_idivmod
 1265              	.LVL134:
 1266 0052 0B1C     		mov	r3, r1
 1267 0054 04AA     		add	r2, sp, #16
 1268 0056 3033     		add	r3, r3, #48
 292:..\..\common\lib\nokia5110/LCD5110_Graph.c **** 		}
 1269              		.loc 2 292 0
 1270 0058 601A     		sub	r0, r4, r1
 290:..\..\common\lib\nokia5110/LCD5110_Graph.c **** 			c++;
 1271              		.loc 2 290 0
 1272 005a AB54     		strb	r3, [r5, r2]
 292:..\..\common\lib\nokia5110/LCD5110_Graph.c **** 		}
 1273              		.loc 2 292 0
 1274 005c 0A21     		mov	r1, #10
 1275 005e FFF7FEFF 		bl	__aeabi_idiv
 1276              	.LVL135:
 291:..\..\common\lib\nokia5110/LCD5110_Graph.c **** 			num=(num-(num % 10))/10;
 1277              		.loc 2 291 0
 1278 0062 0135     		add	r5, r5, #1
 1279              	.LVL136:
 292:..\..\common\lib\nokia5110/LCD5110_Graph.c **** 		}
 1280              		.loc 2 292 0
 1281 0064 041E     		sub	r4, r0, #0
 1282              	.LVL137:
 288:..\..\common\lib\nokia5110/LCD5110_Graph.c **** 		{
 1283              		.loc 2 288 0
 1284 0066 F0D1     		bne	.L109
ARM GAS  C:\Users\Petro\AppData\Local\Temp\cc6W0syg.s 			page 33


 294:..\..\common\lib\nokia5110/LCD5110_Graph.c **** 	  
 1285              		.loc 2 294 0
 1286 0068 04AB     		add	r3, sp, #16
 1287 006a 5855     		strb	r0, [r3, r5]
 296:..\..\common\lib\nokia5110/LCD5110_Graph.c **** 		{
 1288              		.loc 2 296 0
 1289 006c 002E     		cmp	r6, #0
 1290 006e 02D0     		beq	.L110
 298:..\..\common\lib\nokia5110/LCD5110_Graph.c **** 		}
 1291              		.loc 2 298 0
 1292 0070 2D22     		mov	r2, #45
 1293 0072 0BAB     		add	r3, sp, #44
 1294 0074 1A70     		strb	r2, [r3]
 1295              	.L110:
 301:..\..\common\lib\nokia5110/LCD5110_Graph.c **** 		{
 1296              		.loc 2 301 0
 1297 0076 A819     		add	r0, r5, r6
 1298              	.LVL138:
 1299              	.LBE28:
 263:..\..\common\lib\nokia5110/LCD5110_Graph.c ****   
 1300              		.loc 2 263 0
 1301 0078 0023     		mov	r3, #0
 1302              	.LBB29:
 301:..\..\common\lib\nokia5110/LCD5110_Graph.c **** 		{
 1303              		.loc 2 301 0
 1304 007a 8742     		cmp	r7, r0
 1305 007c 0EDD     		ble	.L112
 1306 007e 0021     		mov	r1, #0
 1307              	.LVL139:
 1308              	.L111:
 1309              	.LBB27:
 304:..\..\common\lib\nokia5110/LCD5110_Graph.c **** 			{
 1310              		.loc 2 304 0 discriminator 1
 1311 0080 7B1B     		sub	r3, r7, r5
 1312 0082 9A1B     		sub	r2, r3, r6
 1313 0084 9142     		cmp	r1, r2
 1314 0086 06DA     		bge	.L125
 306:..\..\common\lib\nokia5110/LCD5110_Graph.c **** 				f++;
 1315              		.loc 2 306 0 discriminator 3
 1316 0088 6A46     		mov	r2, sp
 1317 008a 0BAB     		add	r3, sp, #44
 1318 008c 1279     		ldrb	r2, [r2, #4]
 1319 008e 9B19     		add	r3, r3, r6
 1320 0090 5A54     		strb	r2, [r3, r1]
 307:..\..\common\lib\nokia5110/LCD5110_Graph.c **** 			}
 1321              		.loc 2 307 0 discriminator 3
 1322 0092 0131     		add	r1, r1, #1
 1323              	.LVL140:
 1324 0094 F4E7     		b	.L111
 1325              	.L125:
 1326 0096 D343     		mvn	r3, r2
 1327 0098 DB17     		asr	r3, r3, #31
 1328 009a 1340     		and	r3, r2
 1329              	.LVL141:
 1330              	.L112:
 1331              	.LBE27:
 312:..\..\common\lib\nokia5110/LCD5110_Graph.c **** 		{
ARM GAS  C:\Users\Petro\AppData\Local\Temp\cc6W0syg.s 			page 34


 1332              		.loc 2 312 0
 1333 009c 0022     		mov	r2, #0
 1334              	.LVL142:
 1335              	.L115:
 1336 009e 0BAF     		add	r7, sp, #44
 1337 00a0 9C19     		add	r4, r3, r6
 1338 00a2 A91A     		sub	r1, r5, r2
 1339 00a4 3C19     		add	r4, r7, r4
 1340 00a6 12AF     		add	r7, sp, #72
 1341 00a8 7918     		add	r1, r7, r1
 1342 00aa 3939     		sub	r1, r1, #57
 314:..\..\common\lib\nokia5110/LCD5110_Graph.c **** 		}
 1343              		.loc 2 314 0 discriminator 3
 1344 00ac 0978     		ldrb	r1, [r1]
 1345 00ae A154     		strb	r1, [r4, r2]
 312:..\..\common\lib\nokia5110/LCD5110_Graph.c **** 		{
 1346              		.loc 2 312 0 discriminator 3
 1347 00b0 0132     		add	r2, r2, #1
 1348              	.LVL143:
 1349 00b2 AA42     		cmp	r2, r5
 1350 00b4 F3D1     		bne	.L115
 316:..\..\common\lib\nokia5110/LCD5110_Graph.c **** 
 1351              		.loc 2 316 0
 1352 00b6 0BAA     		add	r2, sp, #44
 1353              	.LVL144:
 1354 00b8 D318     		add	r3, r2, r3
 1355              	.LVL145:
 1356 00ba 0022     		mov	r2, #0
 1357 00bc 1A54     		strb	r2, [r3, r0]
 1358              	.LVL146:
 1359              	.L107:
 1360              	.LBE29:
 320:..\..\common\lib\nokia5110/LCD5110_Graph.c **** }
 1361              		.loc 2 320 0
 1362 00be 0BA8     		add	r0, sp, #44
 1363 00c0 0299     		ldr	r1, [sp, #8]
 1364 00c2 039A     		ldr	r2, [sp, #12]
 1365 00c4 FFF7FEFF 		bl	print
 1366              	.LVL147:
 321:..\..\common\lib\nokia5110/LCD5110_Graph.c **** 
 1367              		.loc 2 321 0
 1368 00c8 13B0     		add	sp, sp, #76
 1369              		@ sp needed
 1370 00ca F0BD     		pop	{r4, r5, r6, r7, pc}
 1371              		.cfi_endproc
 1372              	.LFE79:
 1373              		.size	printNumI, .-printNumI
 1374              		.global	__aeabi_dcmplt
 1375              		.section	.text.printNumF,"ax",%progbits
 1376              		.align	1
 1377              		.global	printNumF
 1378              		.code	16
 1379              		.thumb_func
 1380              		.type	printNumF, %function
 1381              	printNumF:
 1382              	.LFB80:
 324:..\..\common\lib\nokia5110/LCD5110_Graph.c **** 	char st[27];
ARM GAS  C:\Users\Petro\AppData\Local\Temp\cc6W0syg.s 			page 35


 1383              		.loc 2 324 0
 1384              		.cfi_startproc
 1385              	.LVL148:
 1386 0000 F0B5     		push	{r4, r5, r6, r7, lr}
 1387              		.cfi_def_cfa_offset 20
 1388              		.cfi_offset 4, -20
 1389              		.cfi_offset 5, -16
 1390              		.cfi_offset 6, -12
 1391              		.cfi_offset 7, -8
 1392              		.cfi_offset 14, -4
 1393 0002 061C     		mov	r6, r0
 1394 0004 0F1C     		mov	r7, r1
 1395              	.LVL149:
 1396 0006 8DB0     		sub	sp, sp, #52
 1397              		.cfi_def_cfa_offset 72
 324:..\..\common\lib\nokia5110/LCD5110_Graph.c **** 	char st[27];
 1398              		.loc 2 324 0
 1399 0008 0393     		str	r3, [sp, #12]
 1400 000a 12AB     		add	r3, sp, #72
 1401              	.LVL150:
 1402 000c 02CB     		ldmia	r3!, {r1}
 1403              	.LVL151:
 332:..\..\common\lib\nokia5110/LCD5110_Graph.c **** 
 1404              		.loc 2 332 0
 1405 000e 05AC     		add	r4, sp, #20
 324:..\..\common\lib\nokia5110/LCD5110_Graph.c **** 	char st[27];
 1406              		.loc 2 324 0
 1407 0010 1B78     		ldrb	r3, [r3]
 1408              	.LVL152:
 332:..\..\common\lib\nokia5110/LCD5110_Graph.c **** 
 1409              		.loc 2 332 0
 1410 0012 201C     		mov	r0, r4
 1411              	.LVL153:
 324:..\..\common\lib\nokia5110/LCD5110_Graph.c **** 	char st[27];
 1412              		.loc 2 324 0
 1413 0014 0293     		str	r3, [sp, #8]
 1414 0016 15AB     		add	r3, sp, #84
 1415              	.LVL154:
 1416 0018 1D78     		ldrb	r5, [r3]
 332:..\..\common\lib\nokia5110/LCD5110_Graph.c **** 
 1417              		.loc 2 332 0
 1418 001a 149B     		ldr	r3, [sp, #80]
 1419              	.LVL155:
 1420 001c 0192     		str	r2, [sp, #4]
 1421 001e 0093     		str	r3, [sp]
 1422 0020 321C     		mov	r2, r6
 1423              	.LVL156:
 1424 0022 3B1C     		mov	r3, r7
 1425 0024 FFF7FEFF 		bl	_convert_float
 1426              	.LVL157:
 334:..\..\common\lib\nokia5110/LCD5110_Graph.c **** 	{
 1427              		.loc 2 334 0
 1428 0028 029A     		ldr	r2, [sp, #8]
 1429 002a 0023     		mov	r3, #0
 1430 002c 2E2A     		cmp	r2, #46
 1431 002e 05D1     		bne	.L127
 1432              	.L131:
ARM GAS  C:\Users\Petro\AppData\Local\Temp\cc6W0syg.s 			page 36


 343:..\..\common\lib\nokia5110/LCD5110_Graph.c **** 	{
 1433              		.loc 2 343 0
 1434 0030 202D     		cmp	r5, #32
 1435 0032 0AD1     		bne	.L128
 1436 0034 1CE0     		b	.L129
 1437              	.LVL158:
 1438              	.L130:
 1439              	.LBB30:
 338:..\..\common\lib\nokia5110/LCD5110_Graph.c **** 			if (st[i]=='.')
 1440              		.loc 2 338 0 discriminator 2
 1441 0036 0133     		add	r3, r3, #1
 1442              	.LVL159:
 1443 0038 1B2B     		cmp	r3, #27
 1444 003a F9D0     		beq	.L131
 1445              	.LVL160:
 1446              	.L127:
 339:..\..\common\lib\nokia5110/LCD5110_Graph.c **** 				st[i]=divider;
 1447              		.loc 2 339 0
 1448 003c E25C     		ldrb	r2, [r4, r3]
 1449 003e 2E2A     		cmp	r2, #46
 1450 0040 F9D1     		bne	.L130
 340:..\..\common\lib\nokia5110/LCD5110_Graph.c **** 	}
 1451              		.loc 2 340 0
 1452 0042 6A46     		mov	r2, sp
 1453 0044 127A     		ldrb	r2, [r2, #8]
 1454 0046 E254     		strb	r2, [r4, r3]
 1455 0048 F5E7     		b	.L130
 1456              	.LVL161:
 1457              	.L128:
 1458              	.LBE30:
 345:..\..\common\lib\nokia5110/LCD5110_Graph.c **** 		{
 1459              		.loc 2 345 0
 1460 004a 301C     		mov	r0, r6
 1461 004c 391C     		mov	r1, r7
 1462 004e 0022     		mov	r2, #0
 1463 0050 0023     		mov	r3, #0
 1464 0052 FFF7FEFF 		bl	__aeabi_dcmplt
 1465              	.LVL162:
 1466 0056 0028     		cmp	r0, #0
 1467 0058 16D0     		beq	.L132
 1468              	.LBB31:
 347:..\..\common\lib\nokia5110/LCD5110_Graph.c ****             size = sizeof st;
 1469              		.loc 2 347 0
 1470 005a 2D23     		mov	r3, #45
 1471 005c 2370     		strb	r3, [r4]
 1472              	.LVL163:
 350:..\..\common\lib\nokia5110/LCD5110_Graph.c **** 				if ((st[i]==' ') || (st[i]=='-'))
 1473              		.loc 2 350 0
 1474 005e 2C3B     		sub	r3, r3, #44
 1475              	.LVL164:
 1476              	.L136:
 351:..\..\common\lib\nokia5110/LCD5110_Graph.c **** 					st[i]=filler;
 1477              		.loc 2 351 0
 1478 0060 E25C     		ldrb	r2, [r4, r3]
 1479 0062 202A     		cmp	r2, #32
 1480 0064 0BD0     		beq	.L134
 351:..\..\common\lib\nokia5110/LCD5110_Graph.c **** 					st[i]=filler;
ARM GAS  C:\Users\Petro\AppData\Local\Temp\cc6W0syg.s 			page 37


 1481              		.loc 2 351 0 is_stmt 0 discriminator 1
 1482 0066 2D2A     		cmp	r2, #45
 1483 0068 09D0     		beq	.L134
 1484              	.L135:
 350:..\..\common\lib\nokia5110/LCD5110_Graph.c **** 				if ((st[i]==' ') || (st[i]=='-'))
 1485              		.loc 2 350 0 is_stmt 1 discriminator 2
 1486 006a 0133     		add	r3, r3, #1
 1487              	.LVL165:
 1488 006c 1B2B     		cmp	r3, #27
 1489 006e F7D1     		bne	.L136
 1490              	.LVL166:
 1491              	.L129:
 1492              	.LBE31:
 364:..\..\common\lib\nokia5110/LCD5110_Graph.c **** }
 1493              		.loc 2 364 0
 1494 0070 201C     		mov	r0, r4
 1495 0072 0399     		ldr	r1, [sp, #12]
 1496 0074 129A     		ldr	r2, [sp, #72]
 1497 0076 FFF7FEFF 		bl	print
 1498              	.LVL167:
 365:..\..\common\lib\nokia5110/LCD5110_Graph.c **** 
 1499              		.loc 2 365 0
 1500 007a 0DB0     		add	sp, sp, #52
 1501              		@ sp needed
 1502              	.LVL168:
 1503 007c F0BD     		pop	{r4, r5, r6, r7, pc}
 1504              	.LVL169:
 1505              	.L134:
 1506              	.LBB32:
 352:..\..\common\lib\nokia5110/LCD5110_Graph.c **** 		}
 1507              		.loc 2 352 0
 1508 007e E554     		strb	r5, [r4, r3]
 1509 0080 F3E7     		b	.L135
 1510              	.LVL170:
 1511              	.L137:
 1512              	.LBE32:
 1513              	.LBB33:
 358:..\..\common\lib\nokia5110/LCD5110_Graph.c **** 				if (st[i]==' ')
 1514              		.loc 2 358 0 discriminator 2
 1515 0082 0130     		add	r0, r0, #1
 1516              	.LVL171:
 1517 0084 1B28     		cmp	r0, #27
 1518 0086 F3D0     		beq	.L129
 1519              	.LVL172:
 1520              	.L132:
 359:..\..\common\lib\nokia5110/LCD5110_Graph.c **** 					st[i]=filler;
 1521              		.loc 2 359 0
 1522 0088 235C     		ldrb	r3, [r4, r0]
 1523 008a 202B     		cmp	r3, #32
 1524 008c F9D1     		bne	.L137
 360:..\..\common\lib\nokia5110/LCD5110_Graph.c **** 		}
 1525              		.loc 2 360 0
 1526 008e 2554     		strb	r5, [r4, r0]
 1527 0090 F7E7     		b	.L137
 1528              	.LBE33:
 1529              		.cfi_endproc
 1530              	.LFE80:
ARM GAS  C:\Users\Petro\AppData\Local\Temp\cc6W0syg.s 			page 38


 1531              		.size	printNumF, .-printNumF
 1532              		.section	.text.setFont,"ax",%progbits
 1533              		.align	1
 1534              		.global	setFont
 1535              		.code	16
 1536              		.thumb_func
 1537              		.type	setFont, %function
 1538              	setFont:
 1539              	.LFB82:
 425:..\..\common\lib\nokia5110/LCD5110_Graph.c **** 
 426:..\..\common\lib\nokia5110/LCD5110_Graph.c **** void setFont(uint8_t* font)
 427:..\..\common\lib\nokia5110/LCD5110_Graph.c **** {
 1540              		.loc 2 427 0
 1541              		.cfi_startproc
 1542              	.LVL173:
 428:..\..\common\lib\nokia5110/LCD5110_Graph.c **** 	cfont.font=font;
 1543              		.loc 2 428 0
 1544 0000 064B     		ldr	r3, .L147
 429:..\..\common\lib\nokia5110/LCD5110_Graph.c **** 	cfont.x_size=fontbyte(0);
 430:..\..\common\lib\nokia5110/LCD5110_Graph.c **** 	cfont.y_size=fontbyte(1);
 431:..\..\common\lib\nokia5110/LCD5110_Graph.c **** 	cfont.offset=fontbyte(2);
 432:..\..\common\lib\nokia5110/LCD5110_Graph.c **** 	cfont.numchars=fontbyte(3);
 433:..\..\common\lib\nokia5110/LCD5110_Graph.c **** 	cfont.inverted=0;
 434:..\..\common\lib\nokia5110/LCD5110_Graph.c **** }
 1545              		.loc 2 434 0
 1546              		@ sp needed
 428:..\..\common\lib\nokia5110/LCD5110_Graph.c **** 	cfont.font=font;
 1547              		.loc 2 428 0
 1548 0002 1860     		str	r0, [r3]
 429:..\..\common\lib\nokia5110/LCD5110_Graph.c **** 	cfont.x_size=fontbyte(0);
 1549              		.loc 2 429 0
 1550 0004 0278     		ldrb	r2, [r0]
 1551 0006 1A71     		strb	r2, [r3, #4]
 430:..\..\common\lib\nokia5110/LCD5110_Graph.c **** 	cfont.offset=fontbyte(2);
 1552              		.loc 2 430 0
 1553 0008 4278     		ldrb	r2, [r0, #1]
 1554 000a 5A71     		strb	r2, [r3, #5]
 431:..\..\common\lib\nokia5110/LCD5110_Graph.c **** 	cfont.numchars=fontbyte(3);
 1555              		.loc 2 431 0
 1556 000c 8278     		ldrb	r2, [r0, #2]
 1557 000e 9A71     		strb	r2, [r3, #6]
 432:..\..\common\lib\nokia5110/LCD5110_Graph.c **** 	cfont.inverted=0;
 1558              		.loc 2 432 0
 1559 0010 C278     		ldrb	r2, [r0, #3]
 1560 0012 DA71     		strb	r2, [r3, #7]
 433:..\..\common\lib\nokia5110/LCD5110_Graph.c **** }
 1561              		.loc 2 433 0
 1562 0014 0022     		mov	r2, #0
 1563 0016 1A72     		strb	r2, [r3, #8]
 1564              		.loc 2 434 0
 1565 0018 7047     		bx	lr
 1566              	.L148:
 1567 001a C046     		.align	2
 1568              	.L147:
 1569 001c 00000000 		.word	cfont
 1570              		.cfi_endproc
 1571              	.LFE82:
ARM GAS  C:\Users\Petro\AppData\Local\Temp\cc6W0syg.s 			page 39


 1572              		.size	setFont, .-setFont
 1573              		.section	.text.drawHLine,"ax",%progbits
 1574              		.align	1
 1575              		.global	drawHLine
 1576              		.code	16
 1577              		.thumb_func
 1578              		.type	drawHLine, %function
 1579              	drawHLine:
 1580              	.LFB83:
 435:..\..\common\lib\nokia5110/LCD5110_Graph.c **** 
 436:..\..\common\lib\nokia5110/LCD5110_Graph.c **** void drawHLine(int x, int y, int l)
 437:..\..\common\lib\nokia5110/LCD5110_Graph.c **** {
 1581              		.loc 2 437 0
 1582              		.cfi_startproc
 1583              	.LVL174:
 1584 0000 30B5     		push	{r4, r5, lr}
 1585              		.cfi_def_cfa_offset 12
 1586              		.cfi_offset 4, -12
 1587              		.cfi_offset 5, -8
 1588              		.cfi_offset 14, -4
 438:..\..\common\lib\nokia5110/LCD5110_Graph.c **** 	int by, bi;
 439:..\..\common\lib\nokia5110/LCD5110_Graph.c **** 
 440:..\..\common\lib\nokia5110/LCD5110_Graph.c **** 	if ((x>=0) && (x<84) && (y>=0) && (y<48))
 1589              		.loc 2 440 0
 1590 0002 5328     		cmp	r0, #83
 1591 0004 14D8     		bhi	.L149
 1592              		.loc 2 440 0 is_stmt 0 discriminator 2
 1593 0006 2F29     		cmp	r1, #47
 1594 0008 12D8     		bhi	.L149
 1595              	.LBB38:
 1596              	.LBB39:
 1597              	.LBB40:
 441:..\..\common\lib\nokia5110/LCD5110_Graph.c **** 	{
 442:..\..\common\lib\nokia5110/LCD5110_Graph.c ****         int cx;
 443:..\..\common\lib\nokia5110/LCD5110_Graph.c **** 		for (cx=0; cx<l; cx++)
 444:..\..\common\lib\nokia5110/LCD5110_Graph.c **** 		{
 445:..\..\common\lib\nokia5110/LCD5110_Graph.c **** 			by=((y/8)*84)+x;
 1598              		.loc 2 445 0 is_stmt 1
 1599 000a 5423     		mov	r3, #84
 1600 000c CC10     		asr	r4, r1, #3
 1601 000e 6343     		mul	r3, r4
 1602 0010 1818     		add	r0, r3, r0
 1603              	.LVL175:
 446:..\..\common\lib\nokia5110/LCD5110_Graph.c **** 			bi=y % 8;
 1604              		.loc 2 446 0
 1605 0012 0723     		mov	r3, #7
 1606 0014 1940     		and	r1, r3
 1607              	.LVL176:
 447:..\..\common\lib\nokia5110/LCD5110_Graph.c **** 
 448:..\..\common\lib\nokia5110/LCD5110_Graph.c **** 			scrbuf[by+cx] |= (1<<bi);
 1608              		.loc 2 448 0
 1609 0016 063B     		sub	r3, r3, #6
 1610 0018 8B40     		lsl	r3, r3, r1
 1611 001a D9B2     		uxtb	r1, r3
 1612 001c 0023     		mov	r3, #0
 1613              	.L152:
 1614              	.LVL177:
ARM GAS  C:\Users\Petro\AppData\Local\Temp\cc6W0syg.s 			page 40


 443:..\..\common\lib\nokia5110/LCD5110_Graph.c **** 		{
 1615              		.loc 2 443 0
 1616 001e 9342     		cmp	r3, r2
 1617 0020 06DA     		bge	.L149
 1618              	.LVL178:
 1619 0022 044C     		ldr	r4, .L154
 1620 0024 0419     		add	r4, r0, r4
 1621              		.loc 2 448 0
 1622 0026 E55C     		ldrb	r5, [r4, r3]
 1623 0028 0D43     		orr	r5, r1
 1624 002a E554     		strb	r5, [r4, r3]
 443:..\..\common\lib\nokia5110/LCD5110_Graph.c **** 		{
 1625              		.loc 2 443 0
 1626 002c 0133     		add	r3, r3, #1
 1627              	.LVL179:
 1628 002e F6E7     		b	.L152
 1629              	.LVL180:
 1630              	.L149:
 1631              	.LBE40:
 1632              	.LBE39:
 1633              	.LBE38:
 449:..\..\common\lib\nokia5110/LCD5110_Graph.c **** 		}
 450:..\..\common\lib\nokia5110/LCD5110_Graph.c **** 	}
 451:..\..\common\lib\nokia5110/LCD5110_Graph.c **** }
 1634              		.loc 2 451 0
 1635              		@ sp needed
 1636 0030 30BD     		pop	{r4, r5, pc}
 1637              	.L155:
 1638 0032 C046     		.align	2
 1639              	.L154:
 1640 0034 00000000 		.word	scrbuf
 1641              		.cfi_endproc
 1642              	.LFE83:
 1643              		.size	drawHLine, .-drawHLine
 1644              		.section	.text.clrHLine,"ax",%progbits
 1645              		.align	1
 1646              		.global	clrHLine
 1647              		.code	16
 1648              		.thumb_func
 1649              		.type	clrHLine, %function
 1650              	clrHLine:
 1651              	.LFB84:
 452:..\..\common\lib\nokia5110/LCD5110_Graph.c **** 
 453:..\..\common\lib\nokia5110/LCD5110_Graph.c **** void clrHLine(int x, int y, int l)
 454:..\..\common\lib\nokia5110/LCD5110_Graph.c **** {
 1652              		.loc 2 454 0
 1653              		.cfi_startproc
 1654              	.LVL181:
 1655 0000 30B5     		push	{r4, r5, lr}
 1656              		.cfi_def_cfa_offset 12
 1657              		.cfi_offset 4, -12
 1658              		.cfi_offset 5, -8
 1659              		.cfi_offset 14, -4
 455:..\..\common\lib\nokia5110/LCD5110_Graph.c **** 	int by, bi;
 456:..\..\common\lib\nokia5110/LCD5110_Graph.c **** 
 457:..\..\common\lib\nokia5110/LCD5110_Graph.c **** 	if ((x>=0) && (x<84) && (y>=0) && (y<48))
 1660              		.loc 2 457 0
ARM GAS  C:\Users\Petro\AppData\Local\Temp\cc6W0syg.s 			page 41


 1661 0002 5328     		cmp	r0, #83
 1662 0004 15D8     		bhi	.L156
 1663              		.loc 2 457 0 is_stmt 0 discriminator 2
 1664 0006 2F29     		cmp	r1, #47
 1665 0008 13D8     		bhi	.L156
 1666              	.LBB45:
 1667              	.LBB46:
 1668              	.LBB47:
 458:..\..\common\lib\nokia5110/LCD5110_Graph.c **** 	{
 459:..\..\common\lib\nokia5110/LCD5110_Graph.c ****         int cx;
 460:..\..\common\lib\nokia5110/LCD5110_Graph.c **** 		for (cx=0; cx<l; cx++)
 461:..\..\common\lib\nokia5110/LCD5110_Graph.c **** 		{
 462:..\..\common\lib\nokia5110/LCD5110_Graph.c **** 			by=((y/8)*84)+x;
 1669              		.loc 2 462 0 is_stmt 1
 1670 000a 5423     		mov	r3, #84
 1671 000c CC10     		asr	r4, r1, #3
 1672 000e 6343     		mul	r3, r4
 1673 0010 1818     		add	r0, r3, r0
 1674              	.LVL182:
 463:..\..\common\lib\nokia5110/LCD5110_Graph.c **** 			bi=y % 8;
 1675              		.loc 2 463 0
 1676 0012 0723     		mov	r3, #7
 1677 0014 1940     		and	r1, r3
 1678              	.LVL183:
 464:..\..\common\lib\nokia5110/LCD5110_Graph.c **** 
 465:..\..\common\lib\nokia5110/LCD5110_Graph.c **** 			scrbuf[by+cx] &= ~(1<<bi);
 1679              		.loc 2 465 0
 1680 0016 063B     		sub	r3, r3, #6
 1681 0018 8B40     		lsl	r3, r3, r1
 1682 001a D943     		mvn	r1, r3
 1683 001c 0023     		mov	r3, #0
 1684 001e C9B2     		uxtb	r1, r1
 1685              	.L159:
 1686              	.LVL184:
 460:..\..\common\lib\nokia5110/LCD5110_Graph.c **** 		{
 1687              		.loc 2 460 0
 1688 0020 9342     		cmp	r3, r2
 1689 0022 06DA     		bge	.L156
 1690              	.LVL185:
 1691 0024 034C     		ldr	r4, .L161
 1692 0026 0419     		add	r4, r0, r4
 1693              		.loc 2 465 0
 1694 0028 E55C     		ldrb	r5, [r4, r3]
 1695 002a 0D40     		and	r5, r1
 1696 002c E554     		strb	r5, [r4, r3]
 460:..\..\common\lib\nokia5110/LCD5110_Graph.c **** 		{
 1697              		.loc 2 460 0
 1698 002e 0133     		add	r3, r3, #1
 1699              	.LVL186:
 1700 0030 F6E7     		b	.L159
 1701              	.LVL187:
 1702              	.L156:
 1703              	.LBE47:
 1704              	.LBE46:
 1705              	.LBE45:
 466:..\..\common\lib\nokia5110/LCD5110_Graph.c **** 		}
 467:..\..\common\lib\nokia5110/LCD5110_Graph.c **** 	}
ARM GAS  C:\Users\Petro\AppData\Local\Temp\cc6W0syg.s 			page 42


 468:..\..\common\lib\nokia5110/LCD5110_Graph.c **** }
 1706              		.loc 2 468 0
 1707              		@ sp needed
 1708 0032 30BD     		pop	{r4, r5, pc}
 1709              	.L162:
 1710              		.align	2
 1711              	.L161:
 1712 0034 00000000 		.word	scrbuf
 1713              		.cfi_endproc
 1714              	.LFE84:
 1715              		.size	clrHLine, .-clrHLine
 1716              		.section	.text.drawVLine,"ax",%progbits
 1717              		.align	1
 1718              		.global	drawVLine
 1719              		.code	16
 1720              		.thumb_func
 1721              		.type	drawVLine, %function
 1722              	drawVLine:
 1723              	.LFB85:
 469:..\..\common\lib\nokia5110/LCD5110_Graph.c **** 
 470:..\..\common\lib\nokia5110/LCD5110_Graph.c **** void drawVLine(int x, int y, int l)
 471:..\..\common\lib\nokia5110/LCD5110_Graph.c **** {
 1724              		.loc 2 471 0
 1725              		.cfi_startproc
 1726              	.LVL188:
 1727 0000 F8B5     		push	{r3, r4, r5, r6, r7, lr}
 1728              		.cfi_def_cfa_offset 24
 1729              		.cfi_offset 3, -24
 1730              		.cfi_offset 4, -20
 1731              		.cfi_offset 5, -16
 1732              		.cfi_offset 6, -12
 1733              		.cfi_offset 7, -8
 1734              		.cfi_offset 14, -4
 1735              		.loc 2 471 0
 1736 0002 051C     		mov	r5, r0
 1737 0004 0E1C     		mov	r6, r1
 1738 0006 171C     		mov	r7, r2
 472:..\..\common\lib\nokia5110/LCD5110_Graph.c **** 	int by, bi;
 473:..\..\common\lib\nokia5110/LCD5110_Graph.c **** 
 474:..\..\common\lib\nokia5110/LCD5110_Graph.c **** 	if ((x>=0) && (x<84) && (y>=0) && (y<48))
 1739              		.loc 2 474 0
 1740 0008 5328     		cmp	r0, #83
 1741 000a 0BD8     		bhi	.L163
 1742 000c 0024     		mov	r4, #0
 1743              		.loc 2 474 0 is_stmt 0 discriminator 2
 1744 000e 2F29     		cmp	r1, #47
 1745 0010 08D8     		bhi	.L163
 1746              	.LVL189:
 1747              	.L165:
 1748              	.LBB52:
 1749              	.LBB53:
 1750              	.LBB54:
 475:..\..\common\lib\nokia5110/LCD5110_Graph.c **** 	{
 476:..\..\common\lib\nokia5110/LCD5110_Graph.c ****         int cy;
 477:..\..\common\lib\nokia5110/LCD5110_Graph.c **** 		for (cy=0; cy<l; cy++)
 1751              		.loc 2 477 0 is_stmt 1
 1752 0012 BC42     		cmp	r4, r7
ARM GAS  C:\Users\Petro\AppData\Local\Temp\cc6W0syg.s 			page 43


 1753 0014 06DA     		bge	.L163
 1754 0016 A119     		add	r1, r4, r6
 478:..\..\common\lib\nokia5110/LCD5110_Graph.c **** 		{
 479:..\..\common\lib\nokia5110/LCD5110_Graph.c **** 			setPixel(x, y+cy);
 1755              		.loc 2 479 0
 1756 0018 A8B2     		uxth	r0, r5
 1757 001a 89B2     		uxth	r1, r1
 1758 001c FFF7FEFF 		bl	setPixel
 1759              	.LVL190:
 477:..\..\common\lib\nokia5110/LCD5110_Graph.c **** 		{
 1760              		.loc 2 477 0
 1761 0020 0134     		add	r4, r4, #1
 1762              	.LVL191:
 1763 0022 F6E7     		b	.L165
 1764              	.LVL192:
 1765              	.L163:
 1766              	.LBE54:
 1767              	.LBE53:
 1768              	.LBE52:
 480:..\..\common\lib\nokia5110/LCD5110_Graph.c **** 		}
 481:..\..\common\lib\nokia5110/LCD5110_Graph.c **** 	}
 482:..\..\common\lib\nokia5110/LCD5110_Graph.c **** }
 1769              		.loc 2 482 0
 1770              		@ sp needed
 1771              	.LVL193:
 1772              	.LVL194:
 1773              	.LVL195:
 1774 0024 F8BD     		pop	{r3, r4, r5, r6, r7, pc}
 1775              		.cfi_endproc
 1776              	.LFE85:
 1777              		.size	drawVLine, .-drawVLine
 1778              		.section	.text.clrVLine,"ax",%progbits
 1779              		.align	1
 1780              		.global	clrVLine
 1781              		.code	16
 1782              		.thumb_func
 1783              		.type	clrVLine, %function
 1784              	clrVLine:
 1785              	.LFB86:
 483:..\..\common\lib\nokia5110/LCD5110_Graph.c **** 
 484:..\..\common\lib\nokia5110/LCD5110_Graph.c **** void clrVLine(int x, int y, int l)
 485:..\..\common\lib\nokia5110/LCD5110_Graph.c **** {
 1786              		.loc 2 485 0
 1787              		.cfi_startproc
 1788              	.LVL196:
 1789 0000 F8B5     		push	{r3, r4, r5, r6, r7, lr}
 1790              		.cfi_def_cfa_offset 24
 1791              		.cfi_offset 3, -24
 1792              		.cfi_offset 4, -20
 1793              		.cfi_offset 5, -16
 1794              		.cfi_offset 6, -12
 1795              		.cfi_offset 7, -8
 1796              		.cfi_offset 14, -4
 1797              		.loc 2 485 0
 1798 0002 051C     		mov	r5, r0
 1799 0004 0E1C     		mov	r6, r1
 1800 0006 171C     		mov	r7, r2
ARM GAS  C:\Users\Petro\AppData\Local\Temp\cc6W0syg.s 			page 44


 486:..\..\common\lib\nokia5110/LCD5110_Graph.c **** 	int by, bi;
 487:..\..\common\lib\nokia5110/LCD5110_Graph.c **** 
 488:..\..\common\lib\nokia5110/LCD5110_Graph.c **** 	if ((x>=0) && (x<84) && (y>=0) && (y<48))
 1801              		.loc 2 488 0
 1802 0008 5328     		cmp	r0, #83
 1803 000a 0BD8     		bhi	.L169
 1804 000c 0024     		mov	r4, #0
 1805              		.loc 2 488 0 is_stmt 0 discriminator 2
 1806 000e 2F29     		cmp	r1, #47
 1807 0010 08D8     		bhi	.L169
 1808              	.LVL197:
 1809              	.L171:
 1810              	.LBB59:
 1811              	.LBB60:
 1812              	.LBB61:
 489:..\..\common\lib\nokia5110/LCD5110_Graph.c **** 	{
 490:..\..\common\lib\nokia5110/LCD5110_Graph.c ****         int cy;
 491:..\..\common\lib\nokia5110/LCD5110_Graph.c **** 		for (cy=0; cy<l; cy++)
 1813              		.loc 2 491 0 is_stmt 1
 1814 0012 BC42     		cmp	r4, r7
 1815 0014 06DA     		bge	.L169
 1816 0016 A119     		add	r1, r4, r6
 492:..\..\common\lib\nokia5110/LCD5110_Graph.c **** 		{
 493:..\..\common\lib\nokia5110/LCD5110_Graph.c **** 			clrPixel(x, y+cy);
 1817              		.loc 2 493 0
 1818 0018 A8B2     		uxth	r0, r5
 1819 001a 89B2     		uxth	r1, r1
 1820 001c FFF7FEFF 		bl	clrPixel
 1821              	.LVL198:
 491:..\..\common\lib\nokia5110/LCD5110_Graph.c **** 		{
 1822              		.loc 2 491 0
 1823 0020 0134     		add	r4, r4, #1
 1824              	.LVL199:
 1825 0022 F6E7     		b	.L171
 1826              	.LVL200:
 1827              	.L169:
 1828              	.LBE61:
 1829              	.LBE60:
 1830              	.LBE59:
 494:..\..\common\lib\nokia5110/LCD5110_Graph.c **** 		}
 495:..\..\common\lib\nokia5110/LCD5110_Graph.c **** 	}
 496:..\..\common\lib\nokia5110/LCD5110_Graph.c **** }
 1831              		.loc 2 496 0
 1832              		@ sp needed
 1833              	.LVL201:
 1834              	.LVL202:
 1835              	.LVL203:
 1836 0024 F8BD     		pop	{r3, r4, r5, r6, r7, pc}
 1837              		.cfi_endproc
 1838              	.LFE86:
 1839              		.size	clrVLine, .-clrVLine
 1840              		.global	__aeabi_i2d
 1841              		.global	__aeabi_ddiv
 1842              		.global	__aeabi_dadd
 1843              		.global	__aeabi_d2iz
 1844              		.global	__aeabi_dsub
 1845              		.global	__aeabi_i2f
ARM GAS  C:\Users\Petro\AppData\Local\Temp\cc6W0syg.s 			page 45


 1846              		.global	__aeabi_f2d
 1847              		.global	__aeabi_fdiv
 1848              		.section	.text.drawLine,"ax",%progbits
 1849              		.align	1
 1850              		.global	drawLine
 1851              		.code	16
 1852              		.thumb_func
 1853              		.type	drawLine, %function
 1854              	drawLine:
 1855              	.LFB87:
 497:..\..\common\lib\nokia5110/LCD5110_Graph.c **** 
 498:..\..\common\lib\nokia5110/LCD5110_Graph.c **** void drawLine(int x1, int y1, int x2, int y2)
 499:..\..\common\lib\nokia5110/LCD5110_Graph.c **** {
 1856              		.loc 2 499 0
 1857              		.cfi_startproc
 1858              	.LVL204:
 1859 0000 F0B5     		push	{r4, r5, r6, r7, lr}
 1860              		.cfi_def_cfa_offset 20
 1861              		.cfi_offset 4, -20
 1862              		.cfi_offset 5, -16
 1863              		.cfi_offset 6, -12
 1864              		.cfi_offset 7, -8
 1865              		.cfi_offset 14, -4
 1866 0002 85B0     		sub	sp, sp, #20
 1867              		.cfi_def_cfa_offset 40
 1868              		.loc 2 499 0
 1869 0004 1E1C     		mov	r6, r3
 1870 0006 041C     		mov	r4, r0
 1871 0008 0D1C     		mov	r5, r1
 1872 000a 0092     		str	r2, [sp]
 500:..\..\common\lib\nokia5110/LCD5110_Graph.c **** 	int tmp;
 501:..\..\common\lib\nokia5110/LCD5110_Graph.c **** 	double delta, tx, ty;
 502:..\..\common\lib\nokia5110/LCD5110_Graph.c **** 	double m, b, dx, dy;
 503:..\..\common\lib\nokia5110/LCD5110_Graph.c **** 	
 504:..\..\common\lib\nokia5110/LCD5110_Graph.c **** 	if (((x2-x1)<0))
 1873              		.loc 2 504 0
 1874 000c 131A     		sub	r3, r2, r0
 1875              	.LVL205:
 1876 000e 03D5     		bpl	.L176
 505:..\..\common\lib\nokia5110/LCD5110_Graph.c **** 	{
 506:..\..\common\lib\nokia5110/LCD5110_Graph.c **** 		tmp=x1;
 507:..\..\common\lib\nokia5110/LCD5110_Graph.c **** 		x1=x2;
 508:..\..\common\lib\nokia5110/LCD5110_Graph.c **** 		x2=tmp;
 509:..\..\common\lib\nokia5110/LCD5110_Graph.c **** 		tmp=y1;
 510:..\..\common\lib\nokia5110/LCD5110_Graph.c **** 		y1=y2;
 1877              		.loc 2 510 0
 1878 0010 351C     		mov	r5, r6
 507:..\..\common\lib\nokia5110/LCD5110_Graph.c **** 		x2=tmp;
 1879              		.loc 2 507 0
 1880 0012 141C     		mov	r4, r2
 511:..\..\common\lib\nokia5110/LCD5110_Graph.c **** 		y2=tmp;
 1881              		.loc 2 511 0
 1882 0014 0E1C     		mov	r6, r1
 1883              	.LVL206:
 508:..\..\common\lib\nokia5110/LCD5110_Graph.c **** 		tmp=y1;
 1884              		.loc 2 508 0
 1885 0016 0090     		str	r0, [sp]
ARM GAS  C:\Users\Petro\AppData\Local\Temp\cc6W0syg.s 			page 46


 1886              	.LVL207:
 1887              	.L176:
 512:..\..\common\lib\nokia5110/LCD5110_Graph.c **** 	}
 513:..\..\common\lib\nokia5110/LCD5110_Graph.c ****     if (((y2-y1)<0))
 1888              		.loc 2 513 0
 1889 0018 731B     		sub	r3, r6, r5
 1890 001a 05D5     		bpl	.L177
 1891 001c 2B1C     		mov	r3, r5
 514:..\..\common\lib\nokia5110/LCD5110_Graph.c **** 	{
 515:..\..\common\lib\nokia5110/LCD5110_Graph.c **** 		tmp=x1;
 516:..\..\common\lib\nokia5110/LCD5110_Graph.c **** 		x1=x2;
 517:..\..\common\lib\nokia5110/LCD5110_Graph.c **** 		x2=tmp;
 518:..\..\common\lib\nokia5110/LCD5110_Graph.c **** 		tmp=y1;
 519:..\..\common\lib\nokia5110/LCD5110_Graph.c **** 		y1=y2;
 1892              		.loc 2 519 0
 1893 001e 351C     		mov	r5, r6
 1894              	.LVL208:
 520:..\..\common\lib\nokia5110/LCD5110_Graph.c **** 		y2=tmp;
 1895              		.loc 2 520 0
 1896 0020 1E1C     		mov	r6, r3
 1897              	.LVL209:
 513:..\..\common\lib\nokia5110/LCD5110_Graph.c **** 	{
 1898              		.loc 2 513 0
 1899 0022 231C     		mov	r3, r4
 1900              	.LVL210:
 516:..\..\common\lib\nokia5110/LCD5110_Graph.c **** 		x2=tmp;
 1901              		.loc 2 516 0
 1902 0024 009C     		ldr	r4, [sp]
 1903              	.LVL211:
 517:..\..\common\lib\nokia5110/LCD5110_Graph.c **** 		tmp=y1;
 1904              		.loc 2 517 0
 1905 0026 0093     		str	r3, [sp]
 1906              	.LVL212:
 1907              	.L177:
 521:..\..\common\lib\nokia5110/LCD5110_Graph.c **** 	}
 522:..\..\common\lib\nokia5110/LCD5110_Graph.c **** 
 523:..\..\common\lib\nokia5110/LCD5110_Graph.c **** 	if (y1==y2)
 524:..\..\common\lib\nokia5110/LCD5110_Graph.c **** 	{
 525:..\..\common\lib\nokia5110/LCD5110_Graph.c **** 		if (x1>x2)
 1908              		.loc 2 525 0
 1909 0028 009B     		ldr	r3, [sp]
 523:..\..\common\lib\nokia5110/LCD5110_Graph.c **** 	{
 1910              		.loc 2 523 0
 1911 002a B542     		cmp	r5, r6
 1912 002c 0BD1     		bne	.L178
 1913              		.loc 2 525 0
 1914 002e 9C42     		cmp	r4, r3
 1915 0030 02DD     		ble	.L179
 1916 0032 231C     		mov	r3, r4
 1917 0034 009C     		ldr	r4, [sp]
 1918              	.LVL213:
 1919 0036 0093     		str	r3, [sp]
 1920              	.LVL214:
 1921              	.L179:
 526:..\..\common\lib\nokia5110/LCD5110_Graph.c **** 		{
 527:..\..\common\lib\nokia5110/LCD5110_Graph.c **** 			tmp=x1;
 528:..\..\common\lib\nokia5110/LCD5110_Graph.c **** 			x1=x2;
ARM GAS  C:\Users\Petro\AppData\Local\Temp\cc6W0syg.s 			page 47


 529:..\..\common\lib\nokia5110/LCD5110_Graph.c **** 			x2=tmp;
 530:..\..\common\lib\nokia5110/LCD5110_Graph.c **** 		}
 531:..\..\common\lib\nokia5110/LCD5110_Graph.c **** 		drawHLine(x1, y1, x2-x1);
 1922              		.loc 2 531 0
 1923 0038 009B     		ldr	r3, [sp]
 1924 003a 201C     		mov	r0, r4
 1925 003c 1A1B     		sub	r2, r3, r4
 1926 003e 291C     		mov	r1, r5
 1927 0040 FFF7FEFF 		bl	drawHLine
 1928              	.LVL215:
 1929 0044 92E0     		b	.L175
 1930              	.LVL216:
 1931              	.L178:
 532:..\..\common\lib\nokia5110/LCD5110_Graph.c **** 	}
 533:..\..\common\lib\nokia5110/LCD5110_Graph.c **** 	else if (x1==x2)
 1932              		.loc 2 533 0
 1933 0046 9C42     		cmp	r4, r3
 1934 0048 0AD1     		bne	.L181
 534:..\..\common\lib\nokia5110/LCD5110_Graph.c **** 	{
 535:..\..\common\lib\nokia5110/LCD5110_Graph.c **** 		if (y1>y2)
 1935              		.loc 2 535 0
 1936 004a B542     		cmp	r5, r6
 1937 004c 02DD     		ble	.L182
 1938 004e 2B1C     		mov	r3, r5
 1939              	.LVL217:
 1940 0050 351C     		mov	r5, r6
 1941              	.LVL218:
 1942 0052 1E1C     		mov	r6, r3
 1943              	.LVL219:
 1944              	.L182:
 536:..\..\common\lib\nokia5110/LCD5110_Graph.c **** 		{
 537:..\..\common\lib\nokia5110/LCD5110_Graph.c **** 			tmp=y1;
 538:..\..\common\lib\nokia5110/LCD5110_Graph.c **** 			y1=y2;
 539:..\..\common\lib\nokia5110/LCD5110_Graph.c **** 			y2=tmp;
 540:..\..\common\lib\nokia5110/LCD5110_Graph.c **** 		}
 541:..\..\common\lib\nokia5110/LCD5110_Graph.c **** 		drawVLine(x1, y1, y2-y1);
 1945              		.loc 2 541 0
 1946 0054 721B     		sub	r2, r6, r5
 1947 0056 201C     		mov	r0, r4
 1948 0058 291C     		mov	r1, r5
 1949 005a FFF7FEFF 		bl	drawVLine
 1950              	.LVL220:
 1951 005e 85E0     		b	.L175
 1952              	.LVL221:
 1953              	.L181:
 542:..\..\common\lib\nokia5110/LCD5110_Graph.c **** 	}
 543:..\..\common\lib\nokia5110/LCD5110_Graph.c **** 	else if (abs(x2-x1)>abs(y2-y1))
 1954              		.loc 2 543 0
 1955 0060 009B     		ldr	r3, [sp]
 1956              	.LVL222:
 1957 0062 771B     		sub	r7, r6, r5
 1958 0064 1B1B     		sub	r3, r3, r4
 1959 0066 D917     		asr	r1, r3, #31
 1960 0068 5A18     		add	r2, r3, r1
 1961 006a 4A40     		eor	r2, r1
 1962 006c F917     		asr	r1, r7, #31
 1963 006e 0293     		str	r3, [sp, #8]
ARM GAS  C:\Users\Petro\AppData\Local\Temp\cc6W0syg.s 			page 48


 1964 0070 7B18     		add	r3, r7, r1
 1965 0072 4B40     		eor	r3, r1
 1966 0074 9A42     		cmp	r2, r3
 1967 0076 4BDD     		ble	.L183
 544:..\..\common\lib\nokia5110/LCD5110_Graph.c **** 	{
 545:..\..\common\lib\nokia5110/LCD5110_Graph.c **** 		delta=((double)(y2-y1)/(double)(x2-x1));
 1968              		.loc 2 545 0
 1969 0078 381C     		mov	r0, r7
 1970 007a FFF7FEFF 		bl	__aeabi_i2d
 1971              	.LVL223:
 1972 007e 061C     		mov	r6, r0
 1973              	.LVL224:
 1974 0080 0298     		ldr	r0, [sp, #8]
 1975 0082 0F1C     		mov	r7, r1
 1976 0084 FFF7FEFF 		bl	__aeabi_i2d
 1977              	.LVL225:
 1978 0088 0B1C     		mov	r3, r1
 1979 008a 021C     		mov	r2, r0
 1980 008c 391C     		mov	r1, r7
 1981 008e 301C     		mov	r0, r6
 1982 0090 FFF7FEFF 		bl	__aeabi_ddiv
 1983              	.LVL226:
 1984 0094 0290     		str	r0, [sp, #8]
 1985 0096 0391     		str	r1, [sp, #12]
 1986              	.LVL227:
 546:..\..\common\lib\nokia5110/LCD5110_Graph.c **** 		ty=(double)(y1);
 1987              		.loc 2 546 0
 1988 0098 281C     		mov	r0, r5
 1989              	.LVL228:
 1990 009a FFF7FEFF 		bl	__aeabi_i2d
 1991              	.LVL229:
 547:..\..\common\lib\nokia5110/LCD5110_Graph.c **** 		if (x1>x2)
 1992              		.loc 2 547 0
 1993 009e 009B     		ldr	r3, [sp]
 546:..\..\common\lib\nokia5110/LCD5110_Graph.c **** 		ty=(double)(y1);
 1994              		.loc 2 546 0
 1995 00a0 061C     		mov	r6, r0
 1996 00a2 0F1C     		mov	r7, r1
 1997              	.LVL230:
 1998              		.loc 2 547 0
 1999 00a4 9C42     		cmp	r4, r3
 2000 00a6 19DD     		ble	.L186
 2001              	.LVL231:
 2002              	.L185:
 2003              	.LBB62:
 548:..\..\common\lib\nokia5110/LCD5110_Graph.c **** 		{
 549:..\..\common\lib\nokia5110/LCD5110_Graph.c ****             int i;
 550:..\..\common\lib\nokia5110/LCD5110_Graph.c **** 			for (i=x1; i>=x2; i--)
 551:..\..\common\lib\nokia5110/LCD5110_Graph.c **** 			{
 552:..\..\common\lib\nokia5110/LCD5110_Graph.c **** 				setPixel(i, (int)(ty+0.5));
 2004              		.loc 2 552 0 discriminator 3
 2005 00a8 0022     		mov	r2, #0
 2006 00aa 314B     		ldr	r3, .L190
 2007 00ac 301C     		mov	r0, r6
 2008 00ae 391C     		mov	r1, r7
 2009 00b0 FFF7FEFF 		bl	__aeabi_dadd
 2010              	.LVL232:
ARM GAS  C:\Users\Petro\AppData\Local\Temp\cc6W0syg.s 			page 49


 2011 00b4 FFF7FEFF 		bl	__aeabi_d2iz
 2012              	.LVL233:
 2013 00b8 A5B2     		uxth	r5, r4
 2014 00ba 81B2     		uxth	r1, r0
 2015 00bc 281C     		mov	r0, r5
 2016 00be FFF7FEFF 		bl	setPixel
 2017              	.LVL234:
 553:..\..\common\lib\nokia5110/LCD5110_Graph.c ****         		ty=ty-delta;
 2018              		.loc 2 553 0 discriminator 3
 2019 00c2 029A     		ldr	r2, [sp, #8]
 2020 00c4 039B     		ldr	r3, [sp, #12]
 2021 00c6 301C     		mov	r0, r6
 2022 00c8 391C     		mov	r1, r7
 2023 00ca FFF7FEFF 		bl	__aeabi_dsub
 2024              	.LVL235:
 550:..\..\common\lib\nokia5110/LCD5110_Graph.c **** 			{
 2025              		.loc 2 550 0 discriminator 3
 2026 00ce 009B     		ldr	r3, [sp]
 2027 00d0 013C     		sub	r4, r4, #1
 2028              	.LVL236:
 2029              		.loc 2 553 0 discriminator 3
 2030 00d2 061C     		mov	r6, r0
 2031              	.LVL237:
 2032 00d4 0F1C     		mov	r7, r1
 2033              	.LVL238:
 550:..\..\common\lib\nokia5110/LCD5110_Graph.c **** 			{
 2034              		.loc 2 550 0 discriminator 3
 2035 00d6 9C42     		cmp	r4, r3
 2036 00d8 E6DA     		bge	.L185
 2037 00da 47E0     		b	.L175
 2038              	.LVL239:
 2039              	.L186:
 2040              	.LBE62:
 2041              	.LBB63:
 554:..\..\common\lib\nokia5110/LCD5110_Graph.c **** 			}
 555:..\..\common\lib\nokia5110/LCD5110_Graph.c **** 		}
 556:..\..\common\lib\nokia5110/LCD5110_Graph.c **** 		else
 557:..\..\common\lib\nokia5110/LCD5110_Graph.c **** 		{
 558:..\..\common\lib\nokia5110/LCD5110_Graph.c ****             int i;
 559:..\..\common\lib\nokia5110/LCD5110_Graph.c **** 			for (i=x1; i<=x2; i++)
 560:..\..\common\lib\nokia5110/LCD5110_Graph.c **** 			{
 561:..\..\common\lib\nokia5110/LCD5110_Graph.c **** 				setPixel(i, (int)(ty+0.5));
 2042              		.loc 2 561 0 discriminator 3
 2043 00dc 0022     		mov	r2, #0
 2044 00de 244B     		ldr	r3, .L190
 2045 00e0 301C     		mov	r0, r6
 2046 00e2 391C     		mov	r1, r7
 2047 00e4 FFF7FEFF 		bl	__aeabi_dadd
 2048              	.LVL240:
 2049 00e8 FFF7FEFF 		bl	__aeabi_d2iz
 2050              	.LVL241:
 2051 00ec A5B2     		uxth	r5, r4
 2052 00ee 81B2     		uxth	r1, r0
 2053 00f0 281C     		mov	r0, r5
 2054 00f2 FFF7FEFF 		bl	setPixel
 2055              	.LVL242:
 562:..\..\common\lib\nokia5110/LCD5110_Graph.c ****         		ty=ty+delta;
ARM GAS  C:\Users\Petro\AppData\Local\Temp\cc6W0syg.s 			page 50


 2056              		.loc 2 562 0 discriminator 3
 2057 00f6 029A     		ldr	r2, [sp, #8]
 2058 00f8 039B     		ldr	r3, [sp, #12]
 2059 00fa 301C     		mov	r0, r6
 2060 00fc 391C     		mov	r1, r7
 2061 00fe FFF7FEFF 		bl	__aeabi_dadd
 2062              	.LVL243:
 559:..\..\common\lib\nokia5110/LCD5110_Graph.c **** 			{
 2063              		.loc 2 559 0 discriminator 3
 2064 0102 009B     		ldr	r3, [sp]
 2065 0104 0134     		add	r4, r4, #1
 2066              	.LVL244:
 2067              		.loc 2 562 0 discriminator 3
 2068 0106 061C     		mov	r6, r0
 2069              	.LVL245:
 2070 0108 0F1C     		mov	r7, r1
 2071              	.LVL246:
 559:..\..\common\lib\nokia5110/LCD5110_Graph.c **** 			{
 2072              		.loc 2 559 0 discriminator 3
 2073 010a 9C42     		cmp	r4, r3
 2074 010c E6DD     		ble	.L186
 2075 010e 2DE0     		b	.L175
 2076              	.LVL247:
 2077              	.L183:
 2078              	.LBE63:
 563:..\..\common\lib\nokia5110/LCD5110_Graph.c **** 			}
 564:..\..\common\lib\nokia5110/LCD5110_Graph.c **** 		}
 565:..\..\common\lib\nokia5110/LCD5110_Graph.c **** 	}
 566:..\..\common\lib\nokia5110/LCD5110_Graph.c **** 	else
 567:..\..\common\lib\nokia5110/LCD5110_Graph.c **** 	{
 568:..\..\common\lib\nokia5110/LCD5110_Graph.c **** 		delta=((float)(x2-x1)/(float)(y2-y1));
 569:..\..\common\lib\nokia5110/LCD5110_Graph.c **** 		tx=(float)(x1);
 570:..\..\common\lib\nokia5110/LCD5110_Graph.c ****         if (y1>y2)
 2079              		.loc 2 570 0
 2080 0110 B542     		cmp	r5, r6
 2081 0112 2BDC     		bgt	.L175
 569:..\..\common\lib\nokia5110/LCD5110_Graph.c ****         if (y1>y2)
 2082              		.loc 2 569 0
 2083 0114 201C     		mov	r0, r4
 2084 0116 FFF7FEFF 		bl	__aeabi_i2f
 2085              	.LVL248:
 2086 011a FFF7FEFF 		bl	__aeabi_f2d
 2087              	.LVL249:
 2088 011e 0090     		str	r0, [sp]
 2089 0120 0191     		str	r1, [sp, #4]
 2090              	.LVL250:
 2091              	.L188:
 2092              	.LBB64:
 571:..\..\common\lib\nokia5110/LCD5110_Graph.c ****         {
 572:..\..\common\lib\nokia5110/LCD5110_Graph.c ****             int i;
 573:..\..\common\lib\nokia5110/LCD5110_Graph.c **** 			for (i=y2+1; i>y1; i--)
 574:..\..\common\lib\nokia5110/LCD5110_Graph.c **** 			{
 575:..\..\common\lib\nokia5110/LCD5110_Graph.c **** 		 		setPixel((int)(tx+0.5), i);
 576:..\..\common\lib\nokia5110/LCD5110_Graph.c ****         		tx=tx+delta;
 577:..\..\common\lib\nokia5110/LCD5110_Graph.c **** 			}
 578:..\..\common\lib\nokia5110/LCD5110_Graph.c ****         }
 579:..\..\common\lib\nokia5110/LCD5110_Graph.c ****         else
ARM GAS  C:\Users\Petro\AppData\Local\Temp\cc6W0syg.s 			page 51


 580:..\..\common\lib\nokia5110/LCD5110_Graph.c ****         {
 581:..\..\common\lib\nokia5110/LCD5110_Graph.c ****             int i;
 582:..\..\common\lib\nokia5110/LCD5110_Graph.c **** 			for (i=y1; i<y2+1; i++)
 2093              		.loc 2 582 0 discriminator 1
 2094 0122 AE42     		cmp	r6, r5
 2095 0124 22DB     		blt	.L175
 583:..\..\common\lib\nokia5110/LCD5110_Graph.c **** 			{
 584:..\..\common\lib\nokia5110/LCD5110_Graph.c **** 		 		setPixel((int)(tx+0.5), i);
 2096              		.loc 2 584 0 discriminator 3
 2097 0126 0098     		ldr	r0, [sp]
 2098 0128 0199     		ldr	r1, [sp, #4]
 2099 012a 0022     		mov	r2, #0
 2100 012c 104B     		ldr	r3, .L190
 2101 012e FFF7FEFF 		bl	__aeabi_dadd
 2102              	.LVL251:
 2103 0132 FFF7FEFF 		bl	__aeabi_d2iz
 2104              	.LVL252:
 2105 0136 A9B2     		uxth	r1, r5
 2106 0138 80B2     		uxth	r0, r0
 2107 013a FFF7FEFF 		bl	setPixel
 2108              	.LVL253:
 2109              	.LBE64:
 568:..\..\common\lib\nokia5110/LCD5110_Graph.c **** 		tx=(float)(x1);
 2110              		.loc 2 568 0 discriminator 3
 2111 013e 0298     		ldr	r0, [sp, #8]
 2112 0140 FFF7FEFF 		bl	__aeabi_i2f
 2113              	.LVL254:
 2114 0144 041C     		add	r4, r0, #0
 2115 0146 381C     		mov	r0, r7
 2116 0148 FFF7FEFF 		bl	__aeabi_i2f
 2117              	.LVL255:
 2118 014c 011C     		add	r1, r0, #0
 2119 014e 201C     		add	r0, r4, #0
 2120 0150 FFF7FEFF 		bl	__aeabi_fdiv
 2121              	.LVL256:
 2122 0154 FFF7FEFF 		bl	__aeabi_f2d
 2123              	.LVL257:
 2124 0158 021C     		mov	r2, r0
 2125 015a 0B1C     		mov	r3, r1
 2126              	.LBB65:
 585:..\..\common\lib\nokia5110/LCD5110_Graph.c ****         		tx=tx+delta;
 2127              		.loc 2 585 0 discriminator 3
 2128 015c 0098     		ldr	r0, [sp]
 2129 015e 0199     		ldr	r1, [sp, #4]
 2130 0160 FFF7FEFF 		bl	__aeabi_dadd
 2131              	.LVL258:
 582:..\..\common\lib\nokia5110/LCD5110_Graph.c **** 			{
 2132              		.loc 2 582 0 discriminator 3
 2133 0164 0135     		add	r5, r5, #1
 2134              	.LVL259:
 2135              		.loc 2 585 0 discriminator 3
 2136 0166 0090     		str	r0, [sp]
 2137 0168 0191     		str	r1, [sp, #4]
 2138              	.LVL260:
 2139 016a DAE7     		b	.L188
 2140              	.LVL261:
 2141              	.L175:
ARM GAS  C:\Users\Petro\AppData\Local\Temp\cc6W0syg.s 			page 52


 2142              	.LBE65:
 586:..\..\common\lib\nokia5110/LCD5110_Graph.c **** 			}
 587:..\..\common\lib\nokia5110/LCD5110_Graph.c ****         }
 588:..\..\common\lib\nokia5110/LCD5110_Graph.c **** 	}
 589:..\..\common\lib\nokia5110/LCD5110_Graph.c **** 
 590:..\..\common\lib\nokia5110/LCD5110_Graph.c **** }
 2143              		.loc 2 590 0
 2144 016c 05B0     		add	sp, sp, #20
 2145              		@ sp needed
 2146 016e F0BD     		pop	{r4, r5, r6, r7, pc}
 2147              	.L191:
 2148              		.align	2
 2149              	.L190:
 2150 0170 0000E03F 		.word	1071644672
 2151              		.cfi_endproc
 2152              	.LFE87:
 2153              		.size	drawLine, .-drawLine
 2154              		.section	.text.clrLine,"ax",%progbits
 2155              		.align	1
 2156              		.global	clrLine
 2157              		.code	16
 2158              		.thumb_func
 2159              		.type	clrLine, %function
 2160              	clrLine:
 2161              	.LFB88:
 591:..\..\common\lib\nokia5110/LCD5110_Graph.c **** 
 592:..\..\common\lib\nokia5110/LCD5110_Graph.c **** void clrLine(int x1, int y1, int x2, int y2)
 593:..\..\common\lib\nokia5110/LCD5110_Graph.c **** {
 2162              		.loc 2 593 0
 2163              		.cfi_startproc
 2164              	.LVL262:
 2165 0000 F0B5     		push	{r4, r5, r6, r7, lr}
 2166              		.cfi_def_cfa_offset 20
 2167              		.cfi_offset 4, -20
 2168              		.cfi_offset 5, -16
 2169              		.cfi_offset 6, -12
 2170              		.cfi_offset 7, -8
 2171              		.cfi_offset 14, -4
 2172 0002 85B0     		sub	sp, sp, #20
 2173              		.cfi_def_cfa_offset 40
 2174              		.loc 2 593 0
 2175 0004 1E1C     		mov	r6, r3
 2176 0006 041C     		mov	r4, r0
 2177 0008 0D1C     		mov	r5, r1
 2178 000a 0092     		str	r2, [sp]
 594:..\..\common\lib\nokia5110/LCD5110_Graph.c **** 	int tmp;
 595:..\..\common\lib\nokia5110/LCD5110_Graph.c **** 	double delta, tx, ty;
 596:..\..\common\lib\nokia5110/LCD5110_Graph.c **** 	double m, b, dx, dy;
 597:..\..\common\lib\nokia5110/LCD5110_Graph.c **** 	
 598:..\..\common\lib\nokia5110/LCD5110_Graph.c **** 	if (((x2-x1)<0))
 2179              		.loc 2 598 0
 2180 000c 131A     		sub	r3, r2, r0
 2181              	.LVL263:
 2182 000e 03D5     		bpl	.L193
 599:..\..\common\lib\nokia5110/LCD5110_Graph.c **** 	{
 600:..\..\common\lib\nokia5110/LCD5110_Graph.c **** 		tmp=x1;
 601:..\..\common\lib\nokia5110/LCD5110_Graph.c **** 		x1=x2;
ARM GAS  C:\Users\Petro\AppData\Local\Temp\cc6W0syg.s 			page 53


 602:..\..\common\lib\nokia5110/LCD5110_Graph.c **** 		x2=tmp;
 603:..\..\common\lib\nokia5110/LCD5110_Graph.c **** 		tmp=y1;
 604:..\..\common\lib\nokia5110/LCD5110_Graph.c **** 		y1=y2;
 2183              		.loc 2 604 0
 2184 0010 351C     		mov	r5, r6
 601:..\..\common\lib\nokia5110/LCD5110_Graph.c **** 		x2=tmp;
 2185              		.loc 2 601 0
 2186 0012 141C     		mov	r4, r2
 605:..\..\common\lib\nokia5110/LCD5110_Graph.c **** 		y2=tmp;
 2187              		.loc 2 605 0
 2188 0014 0E1C     		mov	r6, r1
 2189              	.LVL264:
 602:..\..\common\lib\nokia5110/LCD5110_Graph.c **** 		tmp=y1;
 2190              		.loc 2 602 0
 2191 0016 0090     		str	r0, [sp]
 2192              	.LVL265:
 2193              	.L193:
 606:..\..\common\lib\nokia5110/LCD5110_Graph.c **** 	}
 607:..\..\common\lib\nokia5110/LCD5110_Graph.c ****     if (((y2-y1)<0))
 2194              		.loc 2 607 0
 2195 0018 731B     		sub	r3, r6, r5
 2196 001a 05D5     		bpl	.L194
 2197 001c 2B1C     		mov	r3, r5
 608:..\..\common\lib\nokia5110/LCD5110_Graph.c **** 	{
 609:..\..\common\lib\nokia5110/LCD5110_Graph.c **** 		tmp=x1;
 610:..\..\common\lib\nokia5110/LCD5110_Graph.c **** 		x1=x2;
 611:..\..\common\lib\nokia5110/LCD5110_Graph.c **** 		x2=tmp;
 612:..\..\common\lib\nokia5110/LCD5110_Graph.c **** 		tmp=y1;
 613:..\..\common\lib\nokia5110/LCD5110_Graph.c **** 		y1=y2;
 2198              		.loc 2 613 0
 2199 001e 351C     		mov	r5, r6
 2200              	.LVL266:
 614:..\..\common\lib\nokia5110/LCD5110_Graph.c **** 		y2=tmp;
 2201              		.loc 2 614 0
 2202 0020 1E1C     		mov	r6, r3
 2203              	.LVL267:
 607:..\..\common\lib\nokia5110/LCD5110_Graph.c **** 	{
 2204              		.loc 2 607 0
 2205 0022 231C     		mov	r3, r4
 2206              	.LVL268:
 610:..\..\common\lib\nokia5110/LCD5110_Graph.c **** 		x2=tmp;
 2207              		.loc 2 610 0
 2208 0024 009C     		ldr	r4, [sp]
 2209              	.LVL269:
 611:..\..\common\lib\nokia5110/LCD5110_Graph.c **** 		tmp=y1;
 2210              		.loc 2 611 0
 2211 0026 0093     		str	r3, [sp]
 2212              	.LVL270:
 2213              	.L194:
 615:..\..\common\lib\nokia5110/LCD5110_Graph.c **** 	}
 616:..\..\common\lib\nokia5110/LCD5110_Graph.c **** 
 617:..\..\common\lib\nokia5110/LCD5110_Graph.c **** 	if (y1==y2)
 618:..\..\common\lib\nokia5110/LCD5110_Graph.c **** 	{
 619:..\..\common\lib\nokia5110/LCD5110_Graph.c **** 		if (x1>x2)
 2214              		.loc 2 619 0
 2215 0028 009B     		ldr	r3, [sp]
 617:..\..\common\lib\nokia5110/LCD5110_Graph.c **** 	{
ARM GAS  C:\Users\Petro\AppData\Local\Temp\cc6W0syg.s 			page 54


 2216              		.loc 2 617 0
 2217 002a B542     		cmp	r5, r6
 2218 002c 0BD1     		bne	.L195
 2219              		.loc 2 619 0
 2220 002e 9C42     		cmp	r4, r3
 2221 0030 02DD     		ble	.L196
 2222 0032 231C     		mov	r3, r4
 2223 0034 009C     		ldr	r4, [sp]
 2224              	.LVL271:
 2225 0036 0093     		str	r3, [sp]
 2226              	.LVL272:
 2227              	.L196:
 620:..\..\common\lib\nokia5110/LCD5110_Graph.c **** 		{
 621:..\..\common\lib\nokia5110/LCD5110_Graph.c **** 			tmp=x1;
 622:..\..\common\lib\nokia5110/LCD5110_Graph.c **** 			x1=x2;
 623:..\..\common\lib\nokia5110/LCD5110_Graph.c **** 			x2=tmp;
 624:..\..\common\lib\nokia5110/LCD5110_Graph.c **** 		}
 625:..\..\common\lib\nokia5110/LCD5110_Graph.c **** 		clrHLine(x1, y1, x2-x1);
 2228              		.loc 2 625 0
 2229 0038 009B     		ldr	r3, [sp]
 2230 003a 201C     		mov	r0, r4
 2231 003c 1A1B     		sub	r2, r3, r4
 2232 003e 291C     		mov	r1, r5
 2233 0040 FFF7FEFF 		bl	clrHLine
 2234              	.LVL273:
 2235 0044 92E0     		b	.L192
 2236              	.LVL274:
 2237              	.L195:
 626:..\..\common\lib\nokia5110/LCD5110_Graph.c **** 	}
 627:..\..\common\lib\nokia5110/LCD5110_Graph.c **** 	else if (x1==x2)
 2238              		.loc 2 627 0
 2239 0046 9C42     		cmp	r4, r3
 2240 0048 0AD1     		bne	.L198
 628:..\..\common\lib\nokia5110/LCD5110_Graph.c **** 	{
 629:..\..\common\lib\nokia5110/LCD5110_Graph.c **** 		if (y1>y2)
 2241              		.loc 2 629 0
 2242 004a B542     		cmp	r5, r6
 2243 004c 02DD     		ble	.L199
 2244 004e 2B1C     		mov	r3, r5
 2245              	.LVL275:
 2246 0050 351C     		mov	r5, r6
 2247              	.LVL276:
 2248 0052 1E1C     		mov	r6, r3
 2249              	.LVL277:
 2250              	.L199:
 630:..\..\common\lib\nokia5110/LCD5110_Graph.c **** 		{
 631:..\..\common\lib\nokia5110/LCD5110_Graph.c **** 			tmp=y1;
 632:..\..\common\lib\nokia5110/LCD5110_Graph.c **** 			y1=y2;
 633:..\..\common\lib\nokia5110/LCD5110_Graph.c **** 			y2=tmp;
 634:..\..\common\lib\nokia5110/LCD5110_Graph.c **** 		}
 635:..\..\common\lib\nokia5110/LCD5110_Graph.c **** 		clrVLine(x1, y1, y2-y1);
 2251              		.loc 2 635 0
 2252 0054 721B     		sub	r2, r6, r5
 2253 0056 201C     		mov	r0, r4
 2254 0058 291C     		mov	r1, r5
 2255 005a FFF7FEFF 		bl	clrVLine
 2256              	.LVL278:
ARM GAS  C:\Users\Petro\AppData\Local\Temp\cc6W0syg.s 			page 55


 2257 005e 85E0     		b	.L192
 2258              	.LVL279:
 2259              	.L198:
 636:..\..\common\lib\nokia5110/LCD5110_Graph.c **** 	}
 637:..\..\common\lib\nokia5110/LCD5110_Graph.c **** 	else if (abs(x2-x1)>abs(y2-y1))
 2260              		.loc 2 637 0
 2261 0060 009B     		ldr	r3, [sp]
 2262              	.LVL280:
 2263 0062 771B     		sub	r7, r6, r5
 2264 0064 1B1B     		sub	r3, r3, r4
 2265 0066 D917     		asr	r1, r3, #31
 2266 0068 5A18     		add	r2, r3, r1
 2267 006a 4A40     		eor	r2, r1
 2268 006c F917     		asr	r1, r7, #31
 2269 006e 0293     		str	r3, [sp, #8]
 2270 0070 7B18     		add	r3, r7, r1
 2271 0072 4B40     		eor	r3, r1
 2272 0074 9A42     		cmp	r2, r3
 2273 0076 4BDD     		ble	.L200
 638:..\..\common\lib\nokia5110/LCD5110_Graph.c **** 	{
 639:..\..\common\lib\nokia5110/LCD5110_Graph.c **** 		delta=((double)(y2-y1))/((double)(x2-x1));
 2274              		.loc 2 639 0
 2275 0078 381C     		mov	r0, r7
 2276 007a FFF7FEFF 		bl	__aeabi_i2d
 2277              	.LVL281:
 2278 007e 061C     		mov	r6, r0
 2279              	.LVL282:
 2280 0080 0298     		ldr	r0, [sp, #8]
 2281 0082 0F1C     		mov	r7, r1
 2282 0084 FFF7FEFF 		bl	__aeabi_i2d
 2283              	.LVL283:
 2284 0088 0B1C     		mov	r3, r1
 2285 008a 021C     		mov	r2, r0
 2286 008c 391C     		mov	r1, r7
 2287 008e 301C     		mov	r0, r6
 2288 0090 FFF7FEFF 		bl	__aeabi_ddiv
 2289              	.LVL284:
 2290 0094 0290     		str	r0, [sp, #8]
 2291 0096 0391     		str	r1, [sp, #12]
 2292              	.LVL285:
 640:..\..\common\lib\nokia5110/LCD5110_Graph.c **** 		ty=(double)(y1);
 2293              		.loc 2 640 0
 2294 0098 281C     		mov	r0, r5
 2295              	.LVL286:
 2296 009a FFF7FEFF 		bl	__aeabi_i2d
 2297              	.LVL287:
 641:..\..\common\lib\nokia5110/LCD5110_Graph.c **** 		if (x1>x2)
 2298              		.loc 2 641 0
 2299 009e 009B     		ldr	r3, [sp]
 640:..\..\common\lib\nokia5110/LCD5110_Graph.c **** 		ty=(double)(y1);
 2300              		.loc 2 640 0
 2301 00a0 061C     		mov	r6, r0
 2302 00a2 0F1C     		mov	r7, r1
 2303              	.LVL288:
 2304              		.loc 2 641 0
 2305 00a4 9C42     		cmp	r4, r3
 2306 00a6 19DD     		ble	.L203
ARM GAS  C:\Users\Petro\AppData\Local\Temp\cc6W0syg.s 			page 56


 2307              	.LVL289:
 2308              	.L202:
 2309              	.LBB66:
 642:..\..\common\lib\nokia5110/LCD5110_Graph.c **** 		{
 643:..\..\common\lib\nokia5110/LCD5110_Graph.c ****             int i;
 644:..\..\common\lib\nokia5110/LCD5110_Graph.c **** 			for ( i=x1; i>=x2; i--)
 645:..\..\common\lib\nokia5110/LCD5110_Graph.c **** 			{
 646:..\..\common\lib\nokia5110/LCD5110_Graph.c **** 				clrPixel(i, (int)(ty+0.5));
 2310              		.loc 2 646 0 discriminator 3
 2311 00a8 0022     		mov	r2, #0
 2312 00aa 314B     		ldr	r3, .L207
 2313 00ac 301C     		mov	r0, r6
 2314 00ae 391C     		mov	r1, r7
 2315 00b0 FFF7FEFF 		bl	__aeabi_dadd
 2316              	.LVL290:
 2317 00b4 FFF7FEFF 		bl	__aeabi_d2iz
 2318              	.LVL291:
 2319 00b8 A5B2     		uxth	r5, r4
 2320 00ba 81B2     		uxth	r1, r0
 2321 00bc 281C     		mov	r0, r5
 2322 00be FFF7FEFF 		bl	clrPixel
 2323              	.LVL292:
 647:..\..\common\lib\nokia5110/LCD5110_Graph.c ****         		ty=ty-delta;
 2324              		.loc 2 647 0 discriminator 3
 2325 00c2 029A     		ldr	r2, [sp, #8]
 2326 00c4 039B     		ldr	r3, [sp, #12]
 2327 00c6 301C     		mov	r0, r6
 2328 00c8 391C     		mov	r1, r7
 2329 00ca FFF7FEFF 		bl	__aeabi_dsub
 2330              	.LVL293:
 644:..\..\common\lib\nokia5110/LCD5110_Graph.c **** 			{
 2331              		.loc 2 644 0 discriminator 3
 2332 00ce 009B     		ldr	r3, [sp]
 2333 00d0 013C     		sub	r4, r4, #1
 2334              	.LVL294:
 2335              		.loc 2 647 0 discriminator 3
 2336 00d2 061C     		mov	r6, r0
 2337              	.LVL295:
 2338 00d4 0F1C     		mov	r7, r1
 2339              	.LVL296:
 644:..\..\common\lib\nokia5110/LCD5110_Graph.c **** 			{
 2340              		.loc 2 644 0 discriminator 3
 2341 00d6 9C42     		cmp	r4, r3
 2342 00d8 E6DA     		bge	.L202
 2343 00da 47E0     		b	.L192
 2344              	.LVL297:
 2345              	.L203:
 2346              	.LBE66:
 2347              	.LBB67:
 648:..\..\common\lib\nokia5110/LCD5110_Graph.c **** 			}
 649:..\..\common\lib\nokia5110/LCD5110_Graph.c **** 		}
 650:..\..\common\lib\nokia5110/LCD5110_Graph.c **** 		else
 651:..\..\common\lib\nokia5110/LCD5110_Graph.c **** 		{
 652:..\..\common\lib\nokia5110/LCD5110_Graph.c ****             int i;
 653:..\..\common\lib\nokia5110/LCD5110_Graph.c **** 			for (i=x1; i<=x2; i++)
 654:..\..\common\lib\nokia5110/LCD5110_Graph.c **** 			{
 655:..\..\common\lib\nokia5110/LCD5110_Graph.c **** 				clrPixel(i, (int)(ty+0.5));
ARM GAS  C:\Users\Petro\AppData\Local\Temp\cc6W0syg.s 			page 57


 2348              		.loc 2 655 0 discriminator 3
 2349 00dc 0022     		mov	r2, #0
 2350 00de 244B     		ldr	r3, .L207
 2351 00e0 301C     		mov	r0, r6
 2352 00e2 391C     		mov	r1, r7
 2353 00e4 FFF7FEFF 		bl	__aeabi_dadd
 2354              	.LVL298:
 2355 00e8 FFF7FEFF 		bl	__aeabi_d2iz
 2356              	.LVL299:
 2357 00ec A5B2     		uxth	r5, r4
 2358 00ee 81B2     		uxth	r1, r0
 2359 00f0 281C     		mov	r0, r5
 2360 00f2 FFF7FEFF 		bl	clrPixel
 2361              	.LVL300:
 656:..\..\common\lib\nokia5110/LCD5110_Graph.c ****         		ty=ty+delta;
 2362              		.loc 2 656 0 discriminator 3
 2363 00f6 029A     		ldr	r2, [sp, #8]
 2364 00f8 039B     		ldr	r3, [sp, #12]
 2365 00fa 301C     		mov	r0, r6
 2366 00fc 391C     		mov	r1, r7
 2367 00fe FFF7FEFF 		bl	__aeabi_dadd
 2368              	.LVL301:
 653:..\..\common\lib\nokia5110/LCD5110_Graph.c **** 			{
 2369              		.loc 2 653 0 discriminator 3
 2370 0102 009B     		ldr	r3, [sp]
 2371 0104 0134     		add	r4, r4, #1
 2372              	.LVL302:
 2373              		.loc 2 656 0 discriminator 3
 2374 0106 061C     		mov	r6, r0
 2375              	.LVL303:
 2376 0108 0F1C     		mov	r7, r1
 2377              	.LVL304:
 653:..\..\common\lib\nokia5110/LCD5110_Graph.c **** 			{
 2378              		.loc 2 653 0 discriminator 3
 2379 010a 9C42     		cmp	r4, r3
 2380 010c E6DD     		ble	.L203
 2381 010e 2DE0     		b	.L192
 2382              	.LVL305:
 2383              	.L200:
 2384              	.LBE67:
 657:..\..\common\lib\nokia5110/LCD5110_Graph.c **** 			}
 658:..\..\common\lib\nokia5110/LCD5110_Graph.c **** 		}
 659:..\..\common\lib\nokia5110/LCD5110_Graph.c **** 	}
 660:..\..\common\lib\nokia5110/LCD5110_Graph.c **** 	else
 661:..\..\common\lib\nokia5110/LCD5110_Graph.c **** 	{
 662:..\..\common\lib\nokia5110/LCD5110_Graph.c **** 		delta=((float)(x2-x1)/(float)(y2-y1));
 663:..\..\common\lib\nokia5110/LCD5110_Graph.c **** 		tx=(float)(x1);
 664:..\..\common\lib\nokia5110/LCD5110_Graph.c ****         if (y1>y2)
 2385              		.loc 2 664 0
 2386 0110 B542     		cmp	r5, r6
 2387 0112 2BDC     		bgt	.L192
 663:..\..\common\lib\nokia5110/LCD5110_Graph.c ****         if (y1>y2)
 2388              		.loc 2 663 0
 2389 0114 201C     		mov	r0, r4
 2390 0116 FFF7FEFF 		bl	__aeabi_i2f
 2391              	.LVL306:
 2392 011a FFF7FEFF 		bl	__aeabi_f2d
ARM GAS  C:\Users\Petro\AppData\Local\Temp\cc6W0syg.s 			page 58


 2393              	.LVL307:
 2394 011e 0090     		str	r0, [sp]
 2395 0120 0191     		str	r1, [sp, #4]
 2396              	.LVL308:
 2397              	.L205:
 2398              	.LBB68:
 665:..\..\common\lib\nokia5110/LCD5110_Graph.c ****         {
 666:..\..\common\lib\nokia5110/LCD5110_Graph.c ****             int i;
 667:..\..\common\lib\nokia5110/LCD5110_Graph.c **** 			for (i=y2+1; i>y1; i--)
 668:..\..\common\lib\nokia5110/LCD5110_Graph.c **** 			{
 669:..\..\common\lib\nokia5110/LCD5110_Graph.c **** 		 		clrPixel((int)(tx+0.5), i);
 670:..\..\common\lib\nokia5110/LCD5110_Graph.c ****         		tx=tx+delta;
 671:..\..\common\lib\nokia5110/LCD5110_Graph.c **** 			}
 672:..\..\common\lib\nokia5110/LCD5110_Graph.c ****         }
 673:..\..\common\lib\nokia5110/LCD5110_Graph.c ****         else
 674:..\..\common\lib\nokia5110/LCD5110_Graph.c ****         {
 675:..\..\common\lib\nokia5110/LCD5110_Graph.c ****             int i;
 676:..\..\common\lib\nokia5110/LCD5110_Graph.c **** 			for (i=y1; i<y2+1; i++)
 2399              		.loc 2 676 0 discriminator 1
 2400 0122 AE42     		cmp	r6, r5
 2401 0124 22DB     		blt	.L192
 677:..\..\common\lib\nokia5110/LCD5110_Graph.c **** 			{
 678:..\..\common\lib\nokia5110/LCD5110_Graph.c **** 		 		clrPixel((int)(tx+0.5), i);
 2402              		.loc 2 678 0 discriminator 3
 2403 0126 0098     		ldr	r0, [sp]
 2404 0128 0199     		ldr	r1, [sp, #4]
 2405 012a 0022     		mov	r2, #0
 2406 012c 104B     		ldr	r3, .L207
 2407 012e FFF7FEFF 		bl	__aeabi_dadd
 2408              	.LVL309:
 2409 0132 FFF7FEFF 		bl	__aeabi_d2iz
 2410              	.LVL310:
 2411 0136 A9B2     		uxth	r1, r5
 2412 0138 80B2     		uxth	r0, r0
 2413 013a FFF7FEFF 		bl	clrPixel
 2414              	.LVL311:
 2415              	.LBE68:
 662:..\..\common\lib\nokia5110/LCD5110_Graph.c **** 		tx=(float)(x1);
 2416              		.loc 2 662 0 discriminator 3
 2417 013e 0298     		ldr	r0, [sp, #8]
 2418 0140 FFF7FEFF 		bl	__aeabi_i2f
 2419              	.LVL312:
 2420 0144 041C     		add	r4, r0, #0
 2421 0146 381C     		mov	r0, r7
 2422 0148 FFF7FEFF 		bl	__aeabi_i2f
 2423              	.LVL313:
 2424 014c 011C     		add	r1, r0, #0
 2425 014e 201C     		add	r0, r4, #0
 2426 0150 FFF7FEFF 		bl	__aeabi_fdiv
 2427              	.LVL314:
 2428 0154 FFF7FEFF 		bl	__aeabi_f2d
 2429              	.LVL315:
 2430 0158 021C     		mov	r2, r0
 2431 015a 0B1C     		mov	r3, r1
 2432              	.LBB69:
 679:..\..\common\lib\nokia5110/LCD5110_Graph.c ****         		tx=tx+delta;
 2433              		.loc 2 679 0 discriminator 3
ARM GAS  C:\Users\Petro\AppData\Local\Temp\cc6W0syg.s 			page 59


 2434 015c 0098     		ldr	r0, [sp]
 2435 015e 0199     		ldr	r1, [sp, #4]
 2436 0160 FFF7FEFF 		bl	__aeabi_dadd
 2437              	.LVL316:
 676:..\..\common\lib\nokia5110/LCD5110_Graph.c **** 			{
 2438              		.loc 2 676 0 discriminator 3
 2439 0164 0135     		add	r5, r5, #1
 2440              	.LVL317:
 2441              		.loc 2 679 0 discriminator 3
 2442 0166 0090     		str	r0, [sp]
 2443 0168 0191     		str	r1, [sp, #4]
 2444              	.LVL318:
 2445 016a DAE7     		b	.L205
 2446              	.LVL319:
 2447              	.L192:
 2448              	.LBE69:
 680:..\..\common\lib\nokia5110/LCD5110_Graph.c **** 			}
 681:..\..\common\lib\nokia5110/LCD5110_Graph.c ****         }
 682:..\..\common\lib\nokia5110/LCD5110_Graph.c **** 	}
 683:..\..\common\lib\nokia5110/LCD5110_Graph.c **** 
 684:..\..\common\lib\nokia5110/LCD5110_Graph.c **** }
 2449              		.loc 2 684 0
 2450 016c 05B0     		add	sp, sp, #20
 2451              		@ sp needed
 2452 016e F0BD     		pop	{r4, r5, r6, r7, pc}
 2453              	.L208:
 2454              		.align	2
 2455              	.L207:
 2456 0170 0000E03F 		.word	1071644672
 2457              		.cfi_endproc
 2458              	.LFE88:
 2459              		.size	clrLine, .-clrLine
 2460              		.section	.text.drawRect,"ax",%progbits
 2461              		.align	1
 2462              		.global	drawRect
 2463              		.code	16
 2464              		.thumb_func
 2465              		.type	drawRect, %function
 2466              	drawRect:
 2467              	.LFB89:
 685:..\..\common\lib\nokia5110/LCD5110_Graph.c **** 
 686:..\..\common\lib\nokia5110/LCD5110_Graph.c **** void drawRect(int x1, int y1, int x2, int y2)
 687:..\..\common\lib\nokia5110/LCD5110_Graph.c **** {
 2468              		.loc 2 687 0
 2469              		.cfi_startproc
 2470              	.LVL320:
 2471 0000 F7B5     		push	{r0, r1, r2, r4, r5, r6, r7, lr}
 2472              		.cfi_def_cfa_offset 32
 2473              		.cfi_offset 0, -32
 2474              		.cfi_offset 1, -28
 2475              		.cfi_offset 2, -24
 2476              		.cfi_offset 4, -20
 2477              		.cfi_offset 5, -16
 2478              		.cfi_offset 6, -12
 2479              		.cfi_offset 7, -8
 2480              		.cfi_offset 14, -4
 2481              		.loc 2 687 0
ARM GAS  C:\Users\Petro\AppData\Local\Temp\cc6W0syg.s 			page 60


 2482 0002 051C     		mov	r5, r0
 2483 0004 0C1C     		mov	r4, r1
 2484 0006 161C     		mov	r6, r2
 2485 0008 1F1C     		mov	r7, r3
 688:..\..\common\lib\nokia5110/LCD5110_Graph.c **** 	int tmp;
 689:..\..\common\lib\nokia5110/LCD5110_Graph.c **** 
 690:..\..\common\lib\nokia5110/LCD5110_Graph.c **** 	if (x1>x2)
 2486              		.loc 2 690 0
 2487 000a 9042     		cmp	r0, r2
 2488 000c 01DD     		ble	.L210
 2489 000e 151C     		mov	r5, r2
 2490 0010 061C     		mov	r6, r0
 2491              	.L210:
 2492              	.LVL321:
 691:..\..\common\lib\nokia5110/LCD5110_Graph.c **** 	{
 692:..\..\common\lib\nokia5110/LCD5110_Graph.c **** 		tmp=x1;
 693:..\..\common\lib\nokia5110/LCD5110_Graph.c **** 		x1=x2;
 694:..\..\common\lib\nokia5110/LCD5110_Graph.c **** 		x2=tmp;
 695:..\..\common\lib\nokia5110/LCD5110_Graph.c **** 	}
 696:..\..\common\lib\nokia5110/LCD5110_Graph.c **** 	if (y1>y2)
 2493              		.loc 2 696 0
 2494 0012 BC42     		cmp	r4, r7
 2495 0014 02DD     		ble	.L211
 2496 0016 231C     		mov	r3, r4
 2497              	.LVL322:
 2498 0018 3C1C     		mov	r4, r7
 2499 001a 1F1C     		mov	r7, r3
 2500              	.LVL323:
 2501              	.L211:
 697:..\..\common\lib\nokia5110/LCD5110_Graph.c **** 	{
 698:..\..\common\lib\nokia5110/LCD5110_Graph.c **** 		tmp=y1;
 699:..\..\common\lib\nokia5110/LCD5110_Graph.c **** 		y1=y2;
 700:..\..\common\lib\nokia5110/LCD5110_Graph.c **** 		y2=tmp;
 701:..\..\common\lib\nokia5110/LCD5110_Graph.c **** 	}
 702:..\..\common\lib\nokia5110/LCD5110_Graph.c **** 
 703:..\..\common\lib\nokia5110/LCD5110_Graph.c **** 	drawHLine(x1, y1, x2-x1);
 2502              		.loc 2 703 0
 2503 001c 731B     		sub	r3, r6, r5
 2504 001e 1A1C     		mov	r2, r3
 2505 0020 281C     		mov	r0, r5
 2506 0022 211C     		mov	r1, r4
 2507 0024 0193     		str	r3, [sp, #4]
 2508 0026 FFF7FEFF 		bl	drawHLine
 2509              	.LVL324:
 704:..\..\common\lib\nokia5110/LCD5110_Graph.c **** 	drawHLine(x1, y2, x2-x1);
 2510              		.loc 2 704 0
 2511 002a 281C     		mov	r0, r5
 2512 002c 391C     		mov	r1, r7
 2513 002e 019A     		ldr	r2, [sp, #4]
 705:..\..\common\lib\nokia5110/LCD5110_Graph.c **** 	drawVLine(x1, y1, y2-y1);
 2514              		.loc 2 705 0
 2515 0030 3F1B     		sub	r7, r7, r4
 2516              	.LVL325:
 704:..\..\common\lib\nokia5110/LCD5110_Graph.c **** 	drawHLine(x1, y2, x2-x1);
 2517              		.loc 2 704 0
 2518 0032 FFF7FEFF 		bl	drawHLine
 2519              	.LVL326:
ARM GAS  C:\Users\Petro\AppData\Local\Temp\cc6W0syg.s 			page 61


 2520              		.loc 2 705 0
 2521 0036 281C     		mov	r0, r5
 2522 0038 3A1C     		mov	r2, r7
 2523 003a 211C     		mov	r1, r4
 2524 003c FFF7FEFF 		bl	drawVLine
 2525              	.LVL327:
 706:..\..\common\lib\nokia5110/LCD5110_Graph.c **** 	drawVLine(x2, y1, y2-y1+1);
 2526              		.loc 2 706 0
 2527 0040 7A1C     		add	r2, r7, #1
 2528 0042 301C     		mov	r0, r6
 2529 0044 211C     		mov	r1, r4
 2530 0046 FFF7FEFF 		bl	drawVLine
 2531              	.LVL328:
 707:..\..\common\lib\nokia5110/LCD5110_Graph.c **** }
 2532              		.loc 2 707 0
 2533              		@ sp needed
 2534              	.LVL329:
 2535              	.LVL330:
 2536              	.LVL331:
 2537 004a F7BD     		pop	{r0, r1, r2, r4, r5, r6, r7, pc}
 2538              		.cfi_endproc
 2539              	.LFE89:
 2540              		.size	drawRect, .-drawRect
 2541              		.section	.text.clrRect,"ax",%progbits
 2542              		.align	1
 2543              		.global	clrRect
 2544              		.code	16
 2545              		.thumb_func
 2546              		.type	clrRect, %function
 2547              	clrRect:
 2548              	.LFB90:
 708:..\..\common\lib\nokia5110/LCD5110_Graph.c **** 
 709:..\..\common\lib\nokia5110/LCD5110_Graph.c **** void clrRect(int x1, int y1, int x2, int y2)
 710:..\..\common\lib\nokia5110/LCD5110_Graph.c **** {
 2549              		.loc 2 710 0
 2550              		.cfi_startproc
 2551              	.LVL332:
 2552 0000 F7B5     		push	{r0, r1, r2, r4, r5, r6, r7, lr}
 2553              		.cfi_def_cfa_offset 32
 2554              		.cfi_offset 0, -32
 2555              		.cfi_offset 1, -28
 2556              		.cfi_offset 2, -24
 2557              		.cfi_offset 4, -20
 2558              		.cfi_offset 5, -16
 2559              		.cfi_offset 6, -12
 2560              		.cfi_offset 7, -8
 2561              		.cfi_offset 14, -4
 2562              		.loc 2 710 0
 2563 0002 051C     		mov	r5, r0
 2564 0004 0C1C     		mov	r4, r1
 2565 0006 161C     		mov	r6, r2
 2566 0008 1F1C     		mov	r7, r3
 711:..\..\common\lib\nokia5110/LCD5110_Graph.c **** 	int tmp;
 712:..\..\common\lib\nokia5110/LCD5110_Graph.c **** 
 713:..\..\common\lib\nokia5110/LCD5110_Graph.c **** 	if (x1>x2)
 2567              		.loc 2 713 0
 2568 000a 9042     		cmp	r0, r2
ARM GAS  C:\Users\Petro\AppData\Local\Temp\cc6W0syg.s 			page 62


 2569 000c 01DD     		ble	.L213
 2570 000e 151C     		mov	r5, r2
 2571 0010 061C     		mov	r6, r0
 2572              	.L213:
 2573              	.LVL333:
 714:..\..\common\lib\nokia5110/LCD5110_Graph.c **** 	{
 715:..\..\common\lib\nokia5110/LCD5110_Graph.c **** 		tmp=x1;
 716:..\..\common\lib\nokia5110/LCD5110_Graph.c **** 		x1=x2;
 717:..\..\common\lib\nokia5110/LCD5110_Graph.c **** 		x2=tmp;
 718:..\..\common\lib\nokia5110/LCD5110_Graph.c **** 	}
 719:..\..\common\lib\nokia5110/LCD5110_Graph.c **** 	if (y1>y2)
 2574              		.loc 2 719 0
 2575 0012 BC42     		cmp	r4, r7
 2576 0014 02DD     		ble	.L214
 2577 0016 231C     		mov	r3, r4
 2578              	.LVL334:
 2579 0018 3C1C     		mov	r4, r7
 2580 001a 1F1C     		mov	r7, r3
 2581              	.LVL335:
 2582              	.L214:
 720:..\..\common\lib\nokia5110/LCD5110_Graph.c **** 	{
 721:..\..\common\lib\nokia5110/LCD5110_Graph.c **** 		tmp=y1;
 722:..\..\common\lib\nokia5110/LCD5110_Graph.c **** 		y1=y2;
 723:..\..\common\lib\nokia5110/LCD5110_Graph.c **** 		y2=tmp;
 724:..\..\common\lib\nokia5110/LCD5110_Graph.c **** 	}
 725:..\..\common\lib\nokia5110/LCD5110_Graph.c **** 
 726:..\..\common\lib\nokia5110/LCD5110_Graph.c **** 	clrHLine(x1, y1, x2-x1);
 2583              		.loc 2 726 0
 2584 001c 731B     		sub	r3, r6, r5
 2585 001e 1A1C     		mov	r2, r3
 2586 0020 281C     		mov	r0, r5
 2587 0022 211C     		mov	r1, r4
 2588 0024 0193     		str	r3, [sp, #4]
 2589 0026 FFF7FEFF 		bl	clrHLine
 2590              	.LVL336:
 727:..\..\common\lib\nokia5110/LCD5110_Graph.c **** 	clrHLine(x1, y2, x2-x1);
 2591              		.loc 2 727 0
 2592 002a 281C     		mov	r0, r5
 2593 002c 391C     		mov	r1, r7
 2594 002e 019A     		ldr	r2, [sp, #4]
 728:..\..\common\lib\nokia5110/LCD5110_Graph.c **** 	clrVLine(x1, y1, y2-y1);
 2595              		.loc 2 728 0
 2596 0030 3F1B     		sub	r7, r7, r4
 2597              	.LVL337:
 727:..\..\common\lib\nokia5110/LCD5110_Graph.c **** 	clrHLine(x1, y2, x2-x1);
 2598              		.loc 2 727 0
 2599 0032 FFF7FEFF 		bl	clrHLine
 2600              	.LVL338:
 2601              		.loc 2 728 0
 2602 0036 281C     		mov	r0, r5
 2603 0038 3A1C     		mov	r2, r7
 2604 003a 211C     		mov	r1, r4
 2605 003c FFF7FEFF 		bl	clrVLine
 2606              	.LVL339:
 729:..\..\common\lib\nokia5110/LCD5110_Graph.c **** 	clrVLine(x2, y1, y2-y1+1);
 2607              		.loc 2 729 0
 2608 0040 7A1C     		add	r2, r7, #1
ARM GAS  C:\Users\Petro\AppData\Local\Temp\cc6W0syg.s 			page 63


 2609 0042 301C     		mov	r0, r6
 2610 0044 211C     		mov	r1, r4
 2611 0046 FFF7FEFF 		bl	clrVLine
 2612              	.LVL340:
 730:..\..\common\lib\nokia5110/LCD5110_Graph.c **** }
 2613              		.loc 2 730 0
 2614              		@ sp needed
 2615              	.LVL341:
 2616              	.LVL342:
 2617              	.LVL343:
 2618 004a F7BD     		pop	{r0, r1, r2, r4, r5, r6, r7, pc}
 2619              		.cfi_endproc
 2620              	.LFE90:
 2621              		.size	clrRect, .-clrRect
 2622              		.section	.text.drawRoundRect,"ax",%progbits
 2623              		.align	1
 2624              		.global	drawRoundRect
 2625              		.code	16
 2626              		.thumb_func
 2627              		.type	drawRoundRect, %function
 2628              	drawRoundRect:
 2629              	.LFB91:
 731:..\..\common\lib\nokia5110/LCD5110_Graph.c **** 
 732:..\..\common\lib\nokia5110/LCD5110_Graph.c **** void drawRoundRect(int x1, int y1, int x2, int y2)
 733:..\..\common\lib\nokia5110/LCD5110_Graph.c **** {
 2630              		.loc 2 733 0
 2631              		.cfi_startproc
 2632              	.LVL344:
 2633 0000 F0B5     		push	{r4, r5, r6, r7, lr}
 2634              		.cfi_def_cfa_offset 20
 2635              		.cfi_offset 4, -20
 2636              		.cfi_offset 5, -16
 2637              		.cfi_offset 6, -12
 2638              		.cfi_offset 7, -8
 2639              		.cfi_offset 14, -4
 2640 0002 87B0     		sub	sp, sp, #28
 2641              		.cfi_def_cfa_offset 48
 2642              		.loc 2 733 0
 2643 0004 051C     		mov	r5, r0
 2644 0006 0C1C     		mov	r4, r1
 2645 0008 0192     		str	r2, [sp, #4]
 2646 000a 0293     		str	r3, [sp, #8]
 734:..\..\common\lib\nokia5110/LCD5110_Graph.c **** 	int tmp;
 735:..\..\common\lib\nokia5110/LCD5110_Graph.c **** 
 736:..\..\common\lib\nokia5110/LCD5110_Graph.c **** 	if (x1>x2)
 2647              		.loc 2 736 0
 2648 000c 9042     		cmp	r0, r2
 2649 000e 01DD     		ble	.L216
 2650 0010 151C     		mov	r5, r2
 2651 0012 0190     		str	r0, [sp, #4]
 2652              	.L216:
 2653              	.LVL345:
 737:..\..\common\lib\nokia5110/LCD5110_Graph.c **** 	{
 738:..\..\common\lib\nokia5110/LCD5110_Graph.c **** 		tmp=x1;
 739:..\..\common\lib\nokia5110/LCD5110_Graph.c **** 		x1=x2;
 740:..\..\common\lib\nokia5110/LCD5110_Graph.c **** 		x2=tmp;
 741:..\..\common\lib\nokia5110/LCD5110_Graph.c **** 	}
ARM GAS  C:\Users\Petro\AppData\Local\Temp\cc6W0syg.s 			page 64


 742:..\..\common\lib\nokia5110/LCD5110_Graph.c **** 	if (y1>y2)
 2654              		.loc 2 742 0
 2655 0014 029B     		ldr	r3, [sp, #8]
 2656              	.LVL346:
 2657 0016 9C42     		cmp	r4, r3
 2658 0018 02DD     		ble	.L217
 2659 001a 231C     		mov	r3, r4
 2660 001c 029C     		ldr	r4, [sp, #8]
 2661 001e 0293     		str	r3, [sp, #8]
 2662              	.LVL347:
 2663              	.L217:
 743:..\..\common\lib\nokia5110/LCD5110_Graph.c **** 	{
 744:..\..\common\lib\nokia5110/LCD5110_Graph.c **** 		tmp=y1;
 745:..\..\common\lib\nokia5110/LCD5110_Graph.c **** 		y1=y2;
 746:..\..\common\lib\nokia5110/LCD5110_Graph.c **** 		y2=tmp;
 747:..\..\common\lib\nokia5110/LCD5110_Graph.c **** 	}
 748:..\..\common\lib\nokia5110/LCD5110_Graph.c **** 	if ((x2-x1)>4 && (y2-y1)>4)
 2664              		.loc 2 748 0
 2665 0020 019B     		ldr	r3, [sp, #4]
 2666 0022 5B1B     		sub	r3, r3, r5
 2667 0024 0393     		str	r3, [sp, #12]
 2668 0026 042B     		cmp	r3, #4
 2669 0028 39DD     		ble	.L215
 2670              		.loc 2 748 0 is_stmt 0 discriminator 1
 2671 002a 029B     		ldr	r3, [sp, #8]
 2672 002c 1B1B     		sub	r3, r3, r4
 2673 002e 0493     		str	r3, [sp, #16]
 2674 0030 042B     		cmp	r3, #4
 2675 0032 34DD     		ble	.L215
 749:..\..\common\lib\nokia5110/LCD5110_Graph.c **** 	{
 750:..\..\common\lib\nokia5110/LCD5110_Graph.c **** 		setPixel(x1+1,y1+1);
 2676              		.loc 2 750 0 is_stmt 1
 2677 0034 661C     		add	r6, r4, #1
 2678 0036 6F1C     		add	r7, r5, #1
 2679 0038 BFB2     		uxth	r7, r7
 2680 003a B6B2     		uxth	r6, r6
 2681 003c 381C     		mov	r0, r7
 2682 003e 311C     		mov	r1, r6
 2683 0040 FFF7FEFF 		bl	setPixel
 2684              	.LVL348:
 751:..\..\common\lib\nokia5110/LCD5110_Graph.c **** 		setPixel(x2-1,y1+1);
 2685              		.loc 2 751 0
 2686 0044 019B     		ldr	r3, [sp, #4]
 2687 0046 311C     		mov	r1, r6
 2688 0048 013B     		sub	r3, r3, #1
 2689 004a 9BB2     		uxth	r3, r3
 2690 004c 181C     		mov	r0, r3
 2691 004e 0593     		str	r3, [sp, #20]
 2692 0050 FFF7FEFF 		bl	setPixel
 2693              	.LVL349:
 752:..\..\common\lib\nokia5110/LCD5110_Graph.c **** 		setPixel(x1+1,y2-1);
 2694              		.loc 2 752 0
 2695 0054 029B     		ldr	r3, [sp, #8]
 2696 0056 381C     		mov	r0, r7
 2697 0058 5E1E     		sub	r6, r3, #1
 2698 005a B6B2     		uxth	r6, r6
 2699 005c 311C     		mov	r1, r6
ARM GAS  C:\Users\Petro\AppData\Local\Temp\cc6W0syg.s 			page 65


 2700 005e FFF7FEFF 		bl	setPixel
 2701              	.LVL350:
 753:..\..\common\lib\nokia5110/LCD5110_Graph.c **** 		setPixel(x2-1,y2-1);
 2702              		.loc 2 753 0
 2703 0062 311C     		mov	r1, r6
 2704 0064 0598     		ldr	r0, [sp, #20]
 2705 0066 FFF7FEFF 		bl	setPixel
 2706              	.LVL351:
 754:..\..\common\lib\nokia5110/LCD5110_Graph.c **** 		drawHLine(x1+2, y1, x2-x1-3);
 2707              		.loc 2 754 0
 2708 006a 039E     		ldr	r6, [sp, #12]
 2709 006c AF1C     		add	r7, r5, #2
 2710 006e 033E     		sub	r6, r6, #3
 2711 0070 211C     		mov	r1, r4
 2712 0072 321C     		mov	r2, r6
 2713 0074 381C     		mov	r0, r7
 2714 0076 FFF7FEFF 		bl	drawHLine
 2715              	.LVL352:
 755:..\..\common\lib\nokia5110/LCD5110_Graph.c **** 		drawHLine(x1+2, y2, x2-x1-3);
 2716              		.loc 2 755 0
 2717 007a 321C     		mov	r2, r6
 2718 007c 381C     		mov	r0, r7
 2719 007e 0299     		ldr	r1, [sp, #8]
 2720 0080 FFF7FEFF 		bl	drawHLine
 2721              	.LVL353:
 756:..\..\common\lib\nokia5110/LCD5110_Graph.c **** 		drawVLine(x1, y1+2, y2-y1-3);
 2722              		.loc 2 756 0
 2723 0084 049E     		ldr	r6, [sp, #16]
 2724 0086 0234     		add	r4, r4, #2
 2725              	.LVL354:
 2726 0088 033E     		sub	r6, r6, #3
 2727 008a 281C     		mov	r0, r5
 2728 008c 211C     		mov	r1, r4
 2729 008e 321C     		mov	r2, r6
 2730 0090 FFF7FEFF 		bl	drawVLine
 2731              	.LVL355:
 757:..\..\common\lib\nokia5110/LCD5110_Graph.c **** 		drawVLine(x2, y1+2, y2-y1-3);
 2732              		.loc 2 757 0
 2733 0094 0198     		ldr	r0, [sp, #4]
 2734 0096 211C     		mov	r1, r4
 2735 0098 321C     		mov	r2, r6
 2736 009a FFF7FEFF 		bl	drawVLine
 2737              	.LVL356:
 2738              	.L215:
 758:..\..\common\lib\nokia5110/LCD5110_Graph.c **** 	}
 759:..\..\common\lib\nokia5110/LCD5110_Graph.c **** }
 2739              		.loc 2 759 0
 2740 009e 07B0     		add	sp, sp, #28
 2741              		@ sp needed
 2742              	.LVL357:
 2743 00a0 F0BD     		pop	{r4, r5, r6, r7, pc}
 2744              		.cfi_endproc
 2745              	.LFE91:
 2746              		.size	drawRoundRect, .-drawRoundRect
 2747              		.section	.text.clrRoundRect,"ax",%progbits
 2748              		.align	1
 2749              		.global	clrRoundRect
ARM GAS  C:\Users\Petro\AppData\Local\Temp\cc6W0syg.s 			page 66


 2750              		.code	16
 2751              		.thumb_func
 2752              		.type	clrRoundRect, %function
 2753              	clrRoundRect:
 2754              	.LFB92:
 760:..\..\common\lib\nokia5110/LCD5110_Graph.c **** 
 761:..\..\common\lib\nokia5110/LCD5110_Graph.c **** void clrRoundRect(int x1, int y1, int x2, int y2)
 762:..\..\common\lib\nokia5110/LCD5110_Graph.c **** {
 2755              		.loc 2 762 0
 2756              		.cfi_startproc
 2757              	.LVL358:
 2758 0000 F0B5     		push	{r4, r5, r6, r7, lr}
 2759              		.cfi_def_cfa_offset 20
 2760              		.cfi_offset 4, -20
 2761              		.cfi_offset 5, -16
 2762              		.cfi_offset 6, -12
 2763              		.cfi_offset 7, -8
 2764              		.cfi_offset 14, -4
 2765 0002 87B0     		sub	sp, sp, #28
 2766              		.cfi_def_cfa_offset 48
 2767              		.loc 2 762 0
 2768 0004 051C     		mov	r5, r0
 2769 0006 0C1C     		mov	r4, r1
 2770 0008 0192     		str	r2, [sp, #4]
 2771 000a 0293     		str	r3, [sp, #8]
 763:..\..\common\lib\nokia5110/LCD5110_Graph.c **** 	int tmp;
 764:..\..\common\lib\nokia5110/LCD5110_Graph.c **** 
 765:..\..\common\lib\nokia5110/LCD5110_Graph.c **** 	if (x1>x2)
 2772              		.loc 2 765 0
 2773 000c 9042     		cmp	r0, r2
 2774 000e 01DD     		ble	.L220
 2775 0010 151C     		mov	r5, r2
 2776 0012 0190     		str	r0, [sp, #4]
 2777              	.L220:
 2778              	.LVL359:
 766:..\..\common\lib\nokia5110/LCD5110_Graph.c **** 	{
 767:..\..\common\lib\nokia5110/LCD5110_Graph.c **** 		tmp=x1;
 768:..\..\common\lib\nokia5110/LCD5110_Graph.c **** 		x1=x2;
 769:..\..\common\lib\nokia5110/LCD5110_Graph.c **** 		x2=tmp;
 770:..\..\common\lib\nokia5110/LCD5110_Graph.c **** 	}
 771:..\..\common\lib\nokia5110/LCD5110_Graph.c **** 	if (y1>y2)
 2779              		.loc 2 771 0
 2780 0014 029B     		ldr	r3, [sp, #8]
 2781              	.LVL360:
 2782 0016 9C42     		cmp	r4, r3
 2783 0018 02DD     		ble	.L221
 2784 001a 231C     		mov	r3, r4
 2785 001c 029C     		ldr	r4, [sp, #8]
 2786 001e 0293     		str	r3, [sp, #8]
 2787              	.LVL361:
 2788              	.L221:
 772:..\..\common\lib\nokia5110/LCD5110_Graph.c **** 	{
 773:..\..\common\lib\nokia5110/LCD5110_Graph.c **** 		tmp=y1;
 774:..\..\common\lib\nokia5110/LCD5110_Graph.c **** 		y1=y2;
 775:..\..\common\lib\nokia5110/LCD5110_Graph.c **** 		y2=tmp;
 776:..\..\common\lib\nokia5110/LCD5110_Graph.c **** 	}
 777:..\..\common\lib\nokia5110/LCD5110_Graph.c **** 	if ((x2-x1)>4 && (y2-y1)>4)
ARM GAS  C:\Users\Petro\AppData\Local\Temp\cc6W0syg.s 			page 67


 2789              		.loc 2 777 0
 2790 0020 019B     		ldr	r3, [sp, #4]
 2791 0022 5B1B     		sub	r3, r3, r5
 2792 0024 0393     		str	r3, [sp, #12]
 2793 0026 042B     		cmp	r3, #4
 2794 0028 39DD     		ble	.L219
 2795              		.loc 2 777 0 is_stmt 0 discriminator 1
 2796 002a 029B     		ldr	r3, [sp, #8]
 2797 002c 1B1B     		sub	r3, r3, r4
 2798 002e 0493     		str	r3, [sp, #16]
 2799 0030 042B     		cmp	r3, #4
 2800 0032 34DD     		ble	.L219
 778:..\..\common\lib\nokia5110/LCD5110_Graph.c **** 	{
 779:..\..\common\lib\nokia5110/LCD5110_Graph.c **** 		clrPixel(x1+1,y1+1);
 2801              		.loc 2 779 0 is_stmt 1
 2802 0034 661C     		add	r6, r4, #1
 2803 0036 6F1C     		add	r7, r5, #1
 2804 0038 BFB2     		uxth	r7, r7
 2805 003a B6B2     		uxth	r6, r6
 2806 003c 381C     		mov	r0, r7
 2807 003e 311C     		mov	r1, r6
 2808 0040 FFF7FEFF 		bl	clrPixel
 2809              	.LVL362:
 780:..\..\common\lib\nokia5110/LCD5110_Graph.c **** 		clrPixel(x2-1,y1+1);
 2810              		.loc 2 780 0
 2811 0044 019B     		ldr	r3, [sp, #4]
 2812 0046 311C     		mov	r1, r6
 2813 0048 013B     		sub	r3, r3, #1
 2814 004a 9BB2     		uxth	r3, r3
 2815 004c 181C     		mov	r0, r3
 2816 004e 0593     		str	r3, [sp, #20]
 2817 0050 FFF7FEFF 		bl	clrPixel
 2818              	.LVL363:
 781:..\..\common\lib\nokia5110/LCD5110_Graph.c **** 		clrPixel(x1+1,y2-1);
 2819              		.loc 2 781 0
 2820 0054 029B     		ldr	r3, [sp, #8]
 2821 0056 381C     		mov	r0, r7
 2822 0058 5E1E     		sub	r6, r3, #1
 2823 005a B6B2     		uxth	r6, r6
 2824 005c 311C     		mov	r1, r6
 2825 005e FFF7FEFF 		bl	clrPixel
 2826              	.LVL364:
 782:..\..\common\lib\nokia5110/LCD5110_Graph.c **** 		clrPixel(x2-1,y2-1);
 2827              		.loc 2 782 0
 2828 0062 311C     		mov	r1, r6
 2829 0064 0598     		ldr	r0, [sp, #20]
 2830 0066 FFF7FEFF 		bl	clrPixel
 2831              	.LVL365:
 783:..\..\common\lib\nokia5110/LCD5110_Graph.c **** 		clrHLine(x1+2, y1, x2-x1-3);
 2832              		.loc 2 783 0
 2833 006a 039E     		ldr	r6, [sp, #12]
 2834 006c AF1C     		add	r7, r5, #2
 2835 006e 033E     		sub	r6, r6, #3
 2836 0070 211C     		mov	r1, r4
 2837 0072 321C     		mov	r2, r6
 2838 0074 381C     		mov	r0, r7
 2839 0076 FFF7FEFF 		bl	clrHLine
ARM GAS  C:\Users\Petro\AppData\Local\Temp\cc6W0syg.s 			page 68


 2840              	.LVL366:
 784:..\..\common\lib\nokia5110/LCD5110_Graph.c **** 		clrHLine(x1+2, y2, x2-x1-3);
 2841              		.loc 2 784 0
 2842 007a 321C     		mov	r2, r6
 2843 007c 381C     		mov	r0, r7
 2844 007e 0299     		ldr	r1, [sp, #8]
 2845 0080 FFF7FEFF 		bl	clrHLine
 2846              	.LVL367:
 785:..\..\common\lib\nokia5110/LCD5110_Graph.c **** 		clrVLine(x1, y1+2, y2-y1-3);
 2847              		.loc 2 785 0
 2848 0084 049E     		ldr	r6, [sp, #16]
 2849 0086 0234     		add	r4, r4, #2
 2850              	.LVL368:
 2851 0088 033E     		sub	r6, r6, #3
 2852 008a 281C     		mov	r0, r5
 2853 008c 211C     		mov	r1, r4
 2854 008e 321C     		mov	r2, r6
 2855 0090 FFF7FEFF 		bl	clrVLine
 2856              	.LVL369:
 786:..\..\common\lib\nokia5110/LCD5110_Graph.c **** 		clrVLine(x2, y1+2, y2-y1-3);
 2857              		.loc 2 786 0
 2858 0094 0198     		ldr	r0, [sp, #4]
 2859 0096 211C     		mov	r1, r4
 2860 0098 321C     		mov	r2, r6
 2861 009a FFF7FEFF 		bl	clrVLine
 2862              	.LVL370:
 2863              	.L219:
 787:..\..\common\lib\nokia5110/LCD5110_Graph.c **** 	}
 788:..\..\common\lib\nokia5110/LCD5110_Graph.c **** }
 2864              		.loc 2 788 0
 2865 009e 07B0     		add	sp, sp, #28
 2866              		@ sp needed
 2867              	.LVL371:
 2868 00a0 F0BD     		pop	{r4, r5, r6, r7, pc}
 2869              		.cfi_endproc
 2870              	.LFE92:
 2871              		.size	clrRoundRect, .-clrRoundRect
 2872              		.section	.text.drawCircle,"ax",%progbits
 2873              		.align	1
 2874              		.global	drawCircle
 2875              		.code	16
 2876              		.thumb_func
 2877              		.type	drawCircle, %function
 2878              	drawCircle:
 2879              	.LFB93:
 789:..\..\common\lib\nokia5110/LCD5110_Graph.c **** 
 790:..\..\common\lib\nokia5110/LCD5110_Graph.c **** void drawCircle(int x, int y, int radius)
 791:..\..\common\lib\nokia5110/LCD5110_Graph.c **** {
 2880              		.loc 2 791 0
 2881              		.cfi_startproc
 2882              	.LVL372:
 792:..\..\common\lib\nokia5110/LCD5110_Graph.c **** 	int f = 1 - radius;
 2883              		.loc 2 792 0
 2884 0000 0123     		mov	r3, #1
 791:..\..\common\lib\nokia5110/LCD5110_Graph.c **** 	int f = 1 - radius;
 2885              		.loc 2 791 0
 2886 0002 F0B5     		push	{r4, r5, r6, r7, lr}
ARM GAS  C:\Users\Petro\AppData\Local\Temp\cc6W0syg.s 			page 69


 2887              		.cfi_def_cfa_offset 20
 2888              		.cfi_offset 4, -20
 2889              		.cfi_offset 5, -16
 2890              		.cfi_offset 6, -12
 2891              		.cfi_offset 7, -8
 2892              		.cfi_offset 14, -4
 2893              		.loc 2 792 0
 2894 0004 9B1A     		sub	r3, r3, r2
 791:..\..\common\lib\nokia5110/LCD5110_Graph.c **** 	int f = 1 - radius;
 2895              		.loc 2 791 0
 2896 0006 89B0     		sub	sp, sp, #36
 2897              		.cfi_def_cfa_offset 56
 2898              		.loc 2 792 0
 2899 0008 0393     		str	r3, [sp, #12]
 2900              	.LVL373:
 793:..\..\common\lib\nokia5110/LCD5110_Graph.c **** 	int ddF_x = 1;
 794:..\..\common\lib\nokia5110/LCD5110_Graph.c **** 	int ddF_y = -2 * radius;
 2901              		.loc 2 794 0
 2902 000a 5300     		lsl	r3, r2, #1
 2903              	.LVL374:
 2904 000c 5B42     		neg	r3, r3
 2905 000e 0793     		str	r3, [sp, #28]
 2906              	.LVL375:
 795:..\..\common\lib\nokia5110/LCD5110_Graph.c **** 	int x1 = 0;
 796:..\..\common\lib\nokia5110/LCD5110_Graph.c **** 	int y1 = radius;
 797:..\..\common\lib\nokia5110/LCD5110_Graph.c **** 	char ch, cl;
 798:..\..\common\lib\nokia5110/LCD5110_Graph.c **** 	
 799:..\..\common\lib\nokia5110/LCD5110_Graph.c **** 	setPixel(x, y + radius);
 2907              		.loc 2 799 0
 2908 0010 83B2     		uxth	r3, r0
 2909              	.LVL376:
 2910 0012 0193     		str	r3, [sp, #4]
 2911 0014 6B46     		mov	r3, sp
 791:..\..\common\lib\nokia5110/LCD5110_Graph.c **** 	int f = 1 - radius;
 2912              		.loc 2 791 0
 2913 0016 0292     		str	r2, [sp, #8]
 2914              	.LVL377:
 2915              		.loc 2 799 0
 2916 0018 1D89     		ldrh	r5, [r3, #8]
 2917 001a 8CB2     		uxth	r4, r1
 2918 001c 2919     		add	r1, r5, r4
 2919              	.LVL378:
 2920 001e 89B2     		uxth	r1, r1
 2921 0020 0198     		ldr	r0, [sp, #4]
 2922              	.LVL379:
 2923 0022 FFF7FEFF 		bl	setPixel
 2924              	.LVL380:
 800:..\..\common\lib\nokia5110/LCD5110_Graph.c **** 	setPixel(x, y - radius);
 2925              		.loc 2 800 0
 2926 0026 611B     		sub	r1, r4, r5
 2927 0028 89B2     		uxth	r1, r1
 2928 002a 0198     		ldr	r0, [sp, #4]
 2929 002c FFF7FEFF 		bl	setPixel
 2930              	.LVL381:
 801:..\..\common\lib\nokia5110/LCD5110_Graph.c **** 	setPixel(x + radius, y);
 2931              		.loc 2 801 0
 2932 0030 019B     		ldr	r3, [sp, #4]
ARM GAS  C:\Users\Petro\AppData\Local\Temp\cc6W0syg.s 			page 70


 2933 0032 211C     		mov	r1, r4
 2934 0034 E818     		add	r0, r5, r3
 2935 0036 80B2     		uxth	r0, r0
 2936 0038 FFF7FEFF 		bl	setPixel
 2937              	.LVL382:
 802:..\..\common\lib\nokia5110/LCD5110_Graph.c **** 	setPixel(x - radius, y);
 2938              		.loc 2 802 0
 2939 003c 019B     		ldr	r3, [sp, #4]
 2940 003e 211C     		mov	r1, r4
 2941 0040 581B     		sub	r0, r3, r5
 2942 0042 80B2     		uxth	r0, r0
 2943 0044 FFF7FEFF 		bl	setPixel
 2944              	.LVL383:
 795:..\..\common\lib\nokia5110/LCD5110_Graph.c **** 	int y1 = radius;
 2945              		.loc 2 795 0
 2946 0048 0023     		mov	r3, #0
 2947 004a 0493     		str	r3, [sp, #16]
 2948              	.LVL384:
 2949              	.L224:
 803:..\..\common\lib\nokia5110/LCD5110_Graph.c ****  
 804:..\..\common\lib\nokia5110/LCD5110_Graph.c **** 	while(x1 < y1)
 2950              		.loc 2 804 0
 2951 004c 049B     		ldr	r3, [sp, #16]
 2952 004e 029A     		ldr	r2, [sp, #8]
 2953 0050 9342     		cmp	r3, r2
 2954 0052 56DA     		bge	.L227
 805:..\..\common\lib\nokia5110/LCD5110_Graph.c **** 	{
 806:..\..\common\lib\nokia5110/LCD5110_Graph.c **** 		if(f >= 0) 
 2955              		.loc 2 806 0
 2956 0054 039B     		ldr	r3, [sp, #12]
 2957 0056 002B     		cmp	r3, #0
 2958 0058 0ADB     		blt	.L225
 807:..\..\common\lib\nokia5110/LCD5110_Graph.c **** 		{
 808:..\..\common\lib\nokia5110/LCD5110_Graph.c **** 			y1--;
 2959              		.loc 2 808 0
 2960 005a 029B     		ldr	r3, [sp, #8]
 2961 005c 013B     		sub	r3, r3, #1
 2962 005e 0293     		str	r3, [sp, #8]
 2963              	.LVL385:
 809:..\..\common\lib\nokia5110/LCD5110_Graph.c **** 			ddF_y += 2;
 2964              		.loc 2 809 0
 2965 0060 079B     		ldr	r3, [sp, #28]
 2966              	.LVL386:
 2967 0062 0233     		add	r3, r3, #2
 2968 0064 0793     		str	r3, [sp, #28]
 2969              	.LVL387:
 810:..\..\common\lib\nokia5110/LCD5110_Graph.c **** 			f += ddF_y;
 2970              		.loc 2 810 0
 2971 0066 079A     		ldr	r2, [sp, #28]
 2972 0068 039B     		ldr	r3, [sp, #12]
 2973              	.LVL388:
 2974 006a 9446     		mov	ip, r2
 2975 006c 6344     		add	r3, r3, ip
 2976 006e 0393     		str	r3, [sp, #12]
 2977              	.LVL389:
 2978              	.L225:
 811:..\..\common\lib\nokia5110/LCD5110_Graph.c **** 		}
ARM GAS  C:\Users\Petro\AppData\Local\Temp\cc6W0syg.s 			page 71


 812:..\..\common\lib\nokia5110/LCD5110_Graph.c **** 		x1++;
 2979              		.loc 2 812 0
 2980 0070 049B     		ldr	r3, [sp, #16]
 813:..\..\common\lib\nokia5110/LCD5110_Graph.c **** 		ddF_x += 2;
 814:..\..\common\lib\nokia5110/LCD5110_Graph.c **** 		f += ddF_x;    
 2981              		.loc 2 814 0
 2982 0072 039A     		ldr	r2, [sp, #12]
 812:..\..\common\lib\nokia5110/LCD5110_Graph.c **** 		ddF_x += 2;
 2983              		.loc 2 812 0
 2984 0074 0133     		add	r3, r3, #1
 2985 0076 0493     		str	r3, [sp, #16]
 2986              	.LVL390:
 2987 0078 5B00     		lsl	r3, r3, #1
 2988              	.LVL391:
 2989 007a 0133     		add	r3, r3, #1
 2990              	.LVL392:
 2991              		.loc 2 814 0
 2992 007c D318     		add	r3, r2, r3
 2993              	.LVL393:
 2994 007e 0393     		str	r3, [sp, #12]
 2995              	.LVL394:
 2996 0080 6B46     		mov	r3, sp
 2997              	.LVL395:
 2998 0082 019A     		ldr	r2, [sp, #4]
 2999 0084 1B8A     		ldrh	r3, [r3, #16]
 3000 0086 9F18     		add	r7, r3, r2
 3001 0088 0693     		str	r3, [sp, #24]
 815:..\..\common\lib\nokia5110/LCD5110_Graph.c **** 		setPixel(x + x1, y + y1);
 3002              		.loc 2 815 0
 3003 008a 6B46     		mov	r3, sp
 3004 008c 1B89     		ldrh	r3, [r3, #8]
 3005 008e BFB2     		uxth	r7, r7
 3006 0090 1D19     		add	r5, r3, r4
 3007 0092 ADB2     		uxth	r5, r5
 3008 0094 381C     		mov	r0, r7
 3009 0096 291C     		mov	r1, r5
 3010 0098 0593     		str	r3, [sp, #20]
 3011 009a FFF7FEFF 		bl	setPixel
 3012              	.LVL396:
 3013 009e 069A     		ldr	r2, [sp, #24]
 3014 00a0 019B     		ldr	r3, [sp, #4]
 816:..\..\common\lib\nokia5110/LCD5110_Graph.c **** 		setPixel(x - x1, y + y1);
 3015              		.loc 2 816 0
 3016 00a2 291C     		mov	r1, r5
 3017 00a4 9E1A     		sub	r6, r3, r2
 3018 00a6 B6B2     		uxth	r6, r6
 3019 00a8 301C     		mov	r0, r6
 3020 00aa FFF7FEFF 		bl	setPixel
 3021              	.LVL397:
 817:..\..\common\lib\nokia5110/LCD5110_Graph.c **** 		setPixel(x + x1, y - y1);
 3022              		.loc 2 817 0
 3023 00ae 059B     		ldr	r3, [sp, #20]
 3024 00b0 381C     		mov	r0, r7
 3025 00b2 E51A     		sub	r5, r4, r3
 3026 00b4 ADB2     		uxth	r5, r5
 3027 00b6 291C     		mov	r1, r5
 3028 00b8 FFF7FEFF 		bl	setPixel
ARM GAS  C:\Users\Petro\AppData\Local\Temp\cc6W0syg.s 			page 72


 3029              	.LVL398:
 818:..\..\common\lib\nokia5110/LCD5110_Graph.c **** 		setPixel(x - x1, y - y1);
 3030              		.loc 2 818 0
 3031 00bc 301C     		mov	r0, r6
 3032 00be 291C     		mov	r1, r5
 3033 00c0 FFF7FEFF 		bl	setPixel
 3034              	.LVL399:
 819:..\..\common\lib\nokia5110/LCD5110_Graph.c **** 		setPixel(x + y1, y + x1);
 3035              		.loc 2 819 0
 3036 00c4 059B     		ldr	r3, [sp, #20]
 3037 00c6 019A     		ldr	r2, [sp, #4]
 3038 00c8 9F18     		add	r7, r3, r2
 3039 00ca 069B     		ldr	r3, [sp, #24]
 3040 00cc BFB2     		uxth	r7, r7
 3041 00ce 1D19     		add	r5, r3, r4
 3042 00d0 ADB2     		uxth	r5, r5
 3043 00d2 381C     		mov	r0, r7
 3044 00d4 291C     		mov	r1, r5
 3045 00d6 FFF7FEFF 		bl	setPixel
 3046              	.LVL400:
 820:..\..\common\lib\nokia5110/LCD5110_Graph.c **** 		setPixel(x - y1, y + x1);
 3047              		.loc 2 820 0
 3048 00da 019B     		ldr	r3, [sp, #4]
 3049 00dc 059A     		ldr	r2, [sp, #20]
 3050 00de 291C     		mov	r1, r5
 3051 00e0 9E1A     		sub	r6, r3, r2
 3052 00e2 B6B2     		uxth	r6, r6
 3053 00e4 301C     		mov	r0, r6
 3054 00e6 FFF7FEFF 		bl	setPixel
 3055              	.LVL401:
 3056 00ea 069B     		ldr	r3, [sp, #24]
 821:..\..\common\lib\nokia5110/LCD5110_Graph.c **** 		setPixel(x + y1, y - x1);
 3057              		.loc 2 821 0
 3058 00ec 381C     		mov	r0, r7
 3059 00ee E51A     		sub	r5, r4, r3
 3060 00f0 ADB2     		uxth	r5, r5
 3061 00f2 291C     		mov	r1, r5
 3062 00f4 FFF7FEFF 		bl	setPixel
 3063              	.LVL402:
 822:..\..\common\lib\nokia5110/LCD5110_Graph.c **** 		setPixel(x - y1, y - x1);
 3064              		.loc 2 822 0
 3065 00f8 301C     		mov	r0, r6
 3066 00fa 291C     		mov	r1, r5
 3067 00fc FFF7FEFF 		bl	setPixel
 3068              	.LVL403:
 3069 0100 A4E7     		b	.L224
 3070              	.LVL404:
 3071              	.L227:
 823:..\..\common\lib\nokia5110/LCD5110_Graph.c **** 	}
 824:..\..\common\lib\nokia5110/LCD5110_Graph.c **** }
 3072              		.loc 2 824 0
 3073 0102 09B0     		add	sp, sp, #36
 3074              		@ sp needed
 3075 0104 F0BD     		pop	{r4, r5, r6, r7, pc}
 3076              		.cfi_endproc
 3077              	.LFE93:
 3078              		.size	drawCircle, .-drawCircle
ARM GAS  C:\Users\Petro\AppData\Local\Temp\cc6W0syg.s 			page 73


 3079              		.section	.text.clrCircle,"ax",%progbits
 3080              		.align	1
 3081              		.global	clrCircle
 3082              		.code	16
 3083              		.thumb_func
 3084              		.type	clrCircle, %function
 3085              	clrCircle:
 3086              	.LFB94:
 825:..\..\common\lib\nokia5110/LCD5110_Graph.c **** 
 826:..\..\common\lib\nokia5110/LCD5110_Graph.c **** void clrCircle(int x, int y, int radius)
 827:..\..\common\lib\nokia5110/LCD5110_Graph.c **** {
 3087              		.loc 2 827 0
 3088              		.cfi_startproc
 3089              	.LVL405:
 828:..\..\common\lib\nokia5110/LCD5110_Graph.c **** 	int f = 1 - radius;
 3090              		.loc 2 828 0
 3091 0000 0123     		mov	r3, #1
 827:..\..\common\lib\nokia5110/LCD5110_Graph.c **** 	int f = 1 - radius;
 3092              		.loc 2 827 0
 3093 0002 F0B5     		push	{r4, r5, r6, r7, lr}
 3094              		.cfi_def_cfa_offset 20
 3095              		.cfi_offset 4, -20
 3096              		.cfi_offset 5, -16
 3097              		.cfi_offset 6, -12
 3098              		.cfi_offset 7, -8
 3099              		.cfi_offset 14, -4
 3100              		.loc 2 828 0
 3101 0004 9B1A     		sub	r3, r3, r2
 827:..\..\common\lib\nokia5110/LCD5110_Graph.c **** 	int f = 1 - radius;
 3102              		.loc 2 827 0
 3103 0006 89B0     		sub	sp, sp, #36
 3104              		.cfi_def_cfa_offset 56
 3105              		.loc 2 828 0
 3106 0008 0393     		str	r3, [sp, #12]
 3107              	.LVL406:
 829:..\..\common\lib\nokia5110/LCD5110_Graph.c **** 	int ddF_x = 1;
 830:..\..\common\lib\nokia5110/LCD5110_Graph.c **** 	int ddF_y = -2 * radius;
 3108              		.loc 2 830 0
 3109 000a 5300     		lsl	r3, r2, #1
 3110              	.LVL407:
 3111 000c 5B42     		neg	r3, r3
 3112 000e 0793     		str	r3, [sp, #28]
 3113              	.LVL408:
 831:..\..\common\lib\nokia5110/LCD5110_Graph.c **** 	int x1 = 0;
 832:..\..\common\lib\nokia5110/LCD5110_Graph.c **** 	int y1 = radius;
 833:..\..\common\lib\nokia5110/LCD5110_Graph.c **** 	char ch, cl;
 834:..\..\common\lib\nokia5110/LCD5110_Graph.c **** 	
 835:..\..\common\lib\nokia5110/LCD5110_Graph.c **** 	clrPixel(x, y + radius);
 3114              		.loc 2 835 0
 3115 0010 83B2     		uxth	r3, r0
 3116              	.LVL409:
 3117 0012 0193     		str	r3, [sp, #4]
 3118 0014 6B46     		mov	r3, sp
 827:..\..\common\lib\nokia5110/LCD5110_Graph.c **** 	int f = 1 - radius;
 3119              		.loc 2 827 0
 3120 0016 0292     		str	r2, [sp, #8]
 3121              	.LVL410:
ARM GAS  C:\Users\Petro\AppData\Local\Temp\cc6W0syg.s 			page 74


 3122              		.loc 2 835 0
 3123 0018 1D89     		ldrh	r5, [r3, #8]
 3124 001a 8CB2     		uxth	r4, r1
 3125 001c 2919     		add	r1, r5, r4
 3126              	.LVL411:
 3127 001e 89B2     		uxth	r1, r1
 3128 0020 0198     		ldr	r0, [sp, #4]
 3129              	.LVL412:
 3130 0022 FFF7FEFF 		bl	clrPixel
 3131              	.LVL413:
 836:..\..\common\lib\nokia5110/LCD5110_Graph.c **** 	clrPixel(x, y - radius);
 3132              		.loc 2 836 0
 3133 0026 611B     		sub	r1, r4, r5
 3134 0028 89B2     		uxth	r1, r1
 3135 002a 0198     		ldr	r0, [sp, #4]
 3136 002c FFF7FEFF 		bl	clrPixel
 3137              	.LVL414:
 837:..\..\common\lib\nokia5110/LCD5110_Graph.c **** 	clrPixel(x + radius, y);
 3138              		.loc 2 837 0
 3139 0030 019B     		ldr	r3, [sp, #4]
 3140 0032 211C     		mov	r1, r4
 3141 0034 E818     		add	r0, r5, r3
 3142 0036 80B2     		uxth	r0, r0
 3143 0038 FFF7FEFF 		bl	clrPixel
 3144              	.LVL415:
 838:..\..\common\lib\nokia5110/LCD5110_Graph.c **** 	clrPixel(x - radius, y);
 3145              		.loc 2 838 0
 3146 003c 019B     		ldr	r3, [sp, #4]
 3147 003e 211C     		mov	r1, r4
 3148 0040 581B     		sub	r0, r3, r5
 3149 0042 80B2     		uxth	r0, r0
 3150 0044 FFF7FEFF 		bl	clrPixel
 3151              	.LVL416:
 831:..\..\common\lib\nokia5110/LCD5110_Graph.c **** 	int y1 = radius;
 3152              		.loc 2 831 0
 3153 0048 0023     		mov	r3, #0
 3154 004a 0493     		str	r3, [sp, #16]
 3155              	.LVL417:
 3156              	.L229:
 839:..\..\common\lib\nokia5110/LCD5110_Graph.c ****  
 840:..\..\common\lib\nokia5110/LCD5110_Graph.c **** 	while(x1 < y1)
 3157              		.loc 2 840 0
 3158 004c 049B     		ldr	r3, [sp, #16]
 3159 004e 029A     		ldr	r2, [sp, #8]
 3160 0050 9342     		cmp	r3, r2
 3161 0052 56DA     		bge	.L232
 841:..\..\common\lib\nokia5110/LCD5110_Graph.c **** 	{
 842:..\..\common\lib\nokia5110/LCD5110_Graph.c **** 		if(f >= 0) 
 3162              		.loc 2 842 0
 3163 0054 039B     		ldr	r3, [sp, #12]
 3164 0056 002B     		cmp	r3, #0
 3165 0058 0ADB     		blt	.L230
 843:..\..\common\lib\nokia5110/LCD5110_Graph.c **** 		{
 844:..\..\common\lib\nokia5110/LCD5110_Graph.c **** 			y1--;
 3166              		.loc 2 844 0
 3167 005a 029B     		ldr	r3, [sp, #8]
 3168 005c 013B     		sub	r3, r3, #1
ARM GAS  C:\Users\Petro\AppData\Local\Temp\cc6W0syg.s 			page 75


 3169 005e 0293     		str	r3, [sp, #8]
 3170              	.LVL418:
 845:..\..\common\lib\nokia5110/LCD5110_Graph.c **** 			ddF_y += 2;
 3171              		.loc 2 845 0
 3172 0060 079B     		ldr	r3, [sp, #28]
 3173              	.LVL419:
 3174 0062 0233     		add	r3, r3, #2
 3175 0064 0793     		str	r3, [sp, #28]
 3176              	.LVL420:
 846:..\..\common\lib\nokia5110/LCD5110_Graph.c **** 			f += ddF_y;
 3177              		.loc 2 846 0
 3178 0066 079A     		ldr	r2, [sp, #28]
 3179 0068 039B     		ldr	r3, [sp, #12]
 3180              	.LVL421:
 3181 006a 9446     		mov	ip, r2
 3182 006c 6344     		add	r3, r3, ip
 3183 006e 0393     		str	r3, [sp, #12]
 3184              	.LVL422:
 3185              	.L230:
 847:..\..\common\lib\nokia5110/LCD5110_Graph.c **** 		}
 848:..\..\common\lib\nokia5110/LCD5110_Graph.c **** 		x1++;
 3186              		.loc 2 848 0
 3187 0070 049B     		ldr	r3, [sp, #16]
 849:..\..\common\lib\nokia5110/LCD5110_Graph.c **** 		ddF_x += 2;
 850:..\..\common\lib\nokia5110/LCD5110_Graph.c **** 		f += ddF_x;    
 3188              		.loc 2 850 0
 3189 0072 039A     		ldr	r2, [sp, #12]
 848:..\..\common\lib\nokia5110/LCD5110_Graph.c **** 		ddF_x += 2;
 3190              		.loc 2 848 0
 3191 0074 0133     		add	r3, r3, #1
 3192 0076 0493     		str	r3, [sp, #16]
 3193              	.LVL423:
 3194 0078 5B00     		lsl	r3, r3, #1
 3195              	.LVL424:
 3196 007a 0133     		add	r3, r3, #1
 3197              	.LVL425:
 3198              		.loc 2 850 0
 3199 007c D318     		add	r3, r2, r3
 3200              	.LVL426:
 3201 007e 0393     		str	r3, [sp, #12]
 3202              	.LVL427:
 3203 0080 6B46     		mov	r3, sp
 3204              	.LVL428:
 3205 0082 019A     		ldr	r2, [sp, #4]
 3206 0084 1B8A     		ldrh	r3, [r3, #16]
 3207 0086 9F18     		add	r7, r3, r2
 3208 0088 0693     		str	r3, [sp, #24]
 851:..\..\common\lib\nokia5110/LCD5110_Graph.c **** 		clrPixel(x + x1, y + y1);
 3209              		.loc 2 851 0
 3210 008a 6B46     		mov	r3, sp
 3211 008c 1B89     		ldrh	r3, [r3, #8]
 3212 008e BFB2     		uxth	r7, r7
 3213 0090 1D19     		add	r5, r3, r4
 3214 0092 ADB2     		uxth	r5, r5
 3215 0094 381C     		mov	r0, r7
 3216 0096 291C     		mov	r1, r5
 3217 0098 0593     		str	r3, [sp, #20]
ARM GAS  C:\Users\Petro\AppData\Local\Temp\cc6W0syg.s 			page 76


 3218 009a FFF7FEFF 		bl	clrPixel
 3219              	.LVL429:
 3220 009e 069A     		ldr	r2, [sp, #24]
 3221 00a0 019B     		ldr	r3, [sp, #4]
 852:..\..\common\lib\nokia5110/LCD5110_Graph.c **** 		clrPixel(x - x1, y + y1);
 3222              		.loc 2 852 0
 3223 00a2 291C     		mov	r1, r5
 3224 00a4 9E1A     		sub	r6, r3, r2
 3225 00a6 B6B2     		uxth	r6, r6
 3226 00a8 301C     		mov	r0, r6
 3227 00aa FFF7FEFF 		bl	clrPixel
 3228              	.LVL430:
 853:..\..\common\lib\nokia5110/LCD5110_Graph.c **** 		clrPixel(x + x1, y - y1);
 3229              		.loc 2 853 0
 3230 00ae 059B     		ldr	r3, [sp, #20]
 3231 00b0 381C     		mov	r0, r7
 3232 00b2 E51A     		sub	r5, r4, r3
 3233 00b4 ADB2     		uxth	r5, r5
 3234 00b6 291C     		mov	r1, r5
 3235 00b8 FFF7FEFF 		bl	clrPixel
 3236              	.LVL431:
 854:..\..\common\lib\nokia5110/LCD5110_Graph.c **** 		clrPixel(x - x1, y - y1);
 3237              		.loc 2 854 0
 3238 00bc 301C     		mov	r0, r6
 3239 00be 291C     		mov	r1, r5
 3240 00c0 FFF7FEFF 		bl	clrPixel
 3241              	.LVL432:
 855:..\..\common\lib\nokia5110/LCD5110_Graph.c **** 		clrPixel(x + y1, y + x1);
 3242              		.loc 2 855 0
 3243 00c4 059B     		ldr	r3, [sp, #20]
 3244 00c6 019A     		ldr	r2, [sp, #4]
 3245 00c8 9F18     		add	r7, r3, r2
 3246 00ca 069B     		ldr	r3, [sp, #24]
 3247 00cc BFB2     		uxth	r7, r7
 3248 00ce 1D19     		add	r5, r3, r4
 3249 00d0 ADB2     		uxth	r5, r5
 3250 00d2 381C     		mov	r0, r7
 3251 00d4 291C     		mov	r1, r5
 3252 00d6 FFF7FEFF 		bl	clrPixel
 3253              	.LVL433:
 856:..\..\common\lib\nokia5110/LCD5110_Graph.c **** 		clrPixel(x - y1, y + x1);
 3254              		.loc 2 856 0
 3255 00da 019B     		ldr	r3, [sp, #4]
 3256 00dc 059A     		ldr	r2, [sp, #20]
 3257 00de 291C     		mov	r1, r5
 3258 00e0 9E1A     		sub	r6, r3, r2
 3259 00e2 B6B2     		uxth	r6, r6
 3260 00e4 301C     		mov	r0, r6
 3261 00e6 FFF7FEFF 		bl	clrPixel
 3262              	.LVL434:
 3263 00ea 069B     		ldr	r3, [sp, #24]
 857:..\..\common\lib\nokia5110/LCD5110_Graph.c **** 		clrPixel(x + y1, y - x1);
 3264              		.loc 2 857 0
 3265 00ec 381C     		mov	r0, r7
 3266 00ee E51A     		sub	r5, r4, r3
 3267 00f0 ADB2     		uxth	r5, r5
 3268 00f2 291C     		mov	r1, r5
ARM GAS  C:\Users\Petro\AppData\Local\Temp\cc6W0syg.s 			page 77


 3269 00f4 FFF7FEFF 		bl	clrPixel
 3270              	.LVL435:
 858:..\..\common\lib\nokia5110/LCD5110_Graph.c **** 		clrPixel(x - y1, y - x1);
 3271              		.loc 2 858 0
 3272 00f8 301C     		mov	r0, r6
 3273 00fa 291C     		mov	r1, r5
 3274 00fc FFF7FEFF 		bl	clrPixel
 3275              	.LVL436:
 3276 0100 A4E7     		b	.L229
 3277              	.LVL437:
 3278              	.L232:
 859:..\..\common\lib\nokia5110/LCD5110_Graph.c **** 	}
 860:..\..\common\lib\nokia5110/LCD5110_Graph.c **** }
 3279              		.loc 2 860 0
 3280 0102 09B0     		add	sp, sp, #36
 3281              		@ sp needed
 3282 0104 F0BD     		pop	{r4, r5, r6, r7, pc}
 3283              		.cfi_endproc
 3284              	.LFE94:
 3285              		.size	clrCircle, .-clrCircle
 3286              		.section	.text.drawBitmap,"ax",%progbits
 3287              		.align	1
 3288              		.global	drawBitmap
 3289              		.code	16
 3290              		.thumb_func
 3291              		.type	drawBitmap, %function
 3292              	drawBitmap:
 3293              	.LFB95:
 861:..\..\common\lib\nokia5110/LCD5110_Graph.c **** 
 862:..\..\common\lib\nokia5110/LCD5110_Graph.c **** void drawBitmap(int x, int y, uint8_t* bitmap, int sx, int sy)
 863:..\..\common\lib\nokia5110/LCD5110_Graph.c **** {
 3294              		.loc 2 863 0
 3295              		.cfi_startproc
 3296              	.LVL438:
 3297 0000 F0B5     		push	{r4, r5, r6, r7, lr}
 3298              		.cfi_def_cfa_offset 20
 3299              		.cfi_offset 4, -20
 3300              		.cfi_offset 5, -16
 3301              		.cfi_offset 6, -12
 3302              		.cfi_offset 7, -8
 3303              		.cfi_offset 14, -4
 3304 0002 0F1C     		mov	r7, r1
 3305 0004 1E1C     		mov	r6, r3
 864:..\..\common\lib\nokia5110/LCD5110_Graph.c **** 	int bit;
 865:..\..\common\lib\nokia5110/LCD5110_Graph.c **** 	uint8_t data;
 866:..\..\common\lib\nokia5110/LCD5110_Graph.c **** 
 867:..\..\common\lib\nokia5110/LCD5110_Graph.c ****     int cy;
 868:..\..\common\lib\nokia5110/LCD5110_Graph.c **** 	for (cy=0; cy<sy; cy++)
 3306              		.loc 2 868 0
 3307 0006 0024     		mov	r4, #0
 863:..\..\common\lib\nokia5110/LCD5110_Graph.c **** 	int bit;
 3308              		.loc 2 863 0
 3309 0008 85B0     		sub	sp, sp, #20
 3310              		.cfi_def_cfa_offset 40
 863:..\..\common\lib\nokia5110/LCD5110_Graph.c **** 	int bit;
 3311              		.loc 2 863 0
 3312 000a 0290     		str	r0, [sp, #8]
ARM GAS  C:\Users\Petro\AppData\Local\Temp\cc6W0syg.s 			page 78


 3313 000c 0392     		str	r2, [sp, #12]
 3314              	.LVL439:
 3315              	.L234:
 3316              		.loc 2 868 0 discriminator 1
 3317 000e 0A9B     		ldr	r3, [sp, #40]
 3318 0010 9C42     		cmp	r4, r3
 3319 0012 28DA     		bge	.L241
 3320              	.LVL440:
 3321              	.LBB70:
 869:..\..\common\lib\nokia5110/LCD5110_Graph.c **** 	{
 870:..\..\common\lib\nokia5110/LCD5110_Graph.c **** 		bit= cy % 8;
 871:..\..\common\lib\nokia5110/LCD5110_Graph.c ****         int cx;
 872:..\..\common\lib\nokia5110/LCD5110_Graph.c **** 		for(cx=0; cx<sx; cx++)
 873:..\..\common\lib\nokia5110/LCD5110_Graph.c **** 		{
 874:..\..\common\lib\nokia5110/LCD5110_Graph.c **** 			data=bitmapbyte(cx+((cy/8)*sx));
 3322              		.loc 2 874 0
 3323 0014 E317     		asr	r3, r4, #31
 3324 0016 5B0F     		lsr	r3, r3, #29
 3325 0018 1B19     		add	r3, r3, r4
 3326 001a DB10     		asr	r3, r3, #3
 3327 001c 7343     		mul	r3, r6
 3328 001e 0193     		str	r3, [sp, #4]
 870:..\..\common\lib\nokia5110/LCD5110_Graph.c ****         int cx;
 3329              		.loc 2 870 0
 3330 0020 124B     		ldr	r3, .L243
 3331 0022 2340     		and	r3, r4
 3332 0024 04D5     		bpl	.L235
 3333 0026 0822     		mov	r2, #8
 3334 0028 013B     		sub	r3, r3, #1
 3335 002a 5242     		neg	r2, r2
 3336 002c 1343     		orr	r3, r2
 3337 002e 0133     		add	r3, r3, #1
 3338              	.L235:
 875:..\..\common\lib\nokia5110/LCD5110_Graph.c **** 			if ((data & (1<<bit))>0)
 3339              		.loc 2 875 0
 3340 0030 0122     		mov	r2, #1
 3341 0032 9A40     		lsl	r2, r2, r3
 872:..\..\common\lib\nokia5110/LCD5110_Graph.c **** 		{
 3342              		.loc 2 872 0
 3343 0034 0025     		mov	r5, #0
 3344              		.loc 2 875 0
 3345 0036 0092     		str	r2, [sp]
 3346              	.LVL441:
 3347              	.L236:
 872:..\..\common\lib\nokia5110/LCD5110_Graph.c **** 		{
 3348              		.loc 2 872 0 discriminator 1
 3349 0038 B542     		cmp	r5, r6
 3350 003a 12DA     		bge	.L242
 3351              	.LVL442:
 3352 003c 019A     		ldr	r2, [sp, #4]
 3353 003e 039B     		ldr	r3, [sp, #12]
 3354 0040 E119     		add	r1, r4, r7
 3355 0042 9B18     		add	r3, r3, r2
 3356 0044 029A     		ldr	r2, [sp, #8]
 3357              		.loc 2 875 0
 3358 0046 5B5D     		ldrb	r3, [r3, r5]
 3359 0048 A818     		add	r0, r5, r2
ARM GAS  C:\Users\Petro\AppData\Local\Temp\cc6W0syg.s 			page 79


 3360 004a 009A     		ldr	r2, [sp]
 876:..\..\common\lib\nokia5110/LCD5110_Graph.c **** 				setPixel(x+cx, y+cy);
 3361              		.loc 2 876 0
 3362 004c 80B2     		uxth	r0, r0
 3363 004e 89B2     		uxth	r1, r1
 875:..\..\common\lib\nokia5110/LCD5110_Graph.c **** 			if ((data & (1<<bit))>0)
 3364              		.loc 2 875 0
 3365 0050 1A42     		tst	r2, r3
 3366 0052 02D0     		beq	.L237
 3367              		.loc 2 876 0
 3368 0054 FFF7FEFF 		bl	setPixel
 3369              	.LVL443:
 3370 0058 01E0     		b	.L238
 3371              	.LVL444:
 3372              	.L237:
 877:..\..\common\lib\nokia5110/LCD5110_Graph.c **** 			else
 878:..\..\common\lib\nokia5110/LCD5110_Graph.c **** 				clrPixel(x+cx, y+cy);
 3373              		.loc 2 878 0
 3374 005a FFF7FEFF 		bl	clrPixel
 3375              	.LVL445:
 3376              	.L238:
 872:..\..\common\lib\nokia5110/LCD5110_Graph.c **** 		{
 3377              		.loc 2 872 0 discriminator 2
 3378 005e 0135     		add	r5, r5, #1
 3379              	.LVL446:
 3380 0060 EAE7     		b	.L236
 3381              	.L242:
 3382              	.LBE70:
 868:..\..\common\lib\nokia5110/LCD5110_Graph.c **** 	{
 3383              		.loc 2 868 0 discriminator 2
 3384 0062 0134     		add	r4, r4, #1
 3385              	.LVL447:
 3386 0064 D3E7     		b	.L234
 3387              	.LVL448:
 3388              	.L241:
 879:..\..\common\lib\nokia5110/LCD5110_Graph.c **** 		}
 880:..\..\common\lib\nokia5110/LCD5110_Graph.c **** 	}      
 881:..\..\common\lib\nokia5110/LCD5110_Graph.c **** }
 3389              		.loc 2 881 0
 3390 0066 05B0     		add	sp, sp, #20
 3391              		@ sp needed
 3392              	.LVL449:
 3393              	.LVL450:
 3394              	.LVL451:
 3395 0068 F0BD     		pop	{r4, r5, r6, r7, pc}
 3396              	.L244:
 3397 006a C046     		.align	2
 3398              	.L243:
 3399 006c 07000080 		.word	-2147483641
 3400              		.cfi_endproc
 3401              	.LFE95:
 3402              		.size	drawBitmap, .-drawBitmap
 3403              		.comm	_contrast,4,4
 3404              		.comm	_sleep,1,1
 3405              		.comm	scrbuf,504,1
 3406              		.comm	cfont,12,4
 3407              		.section	.rodata.str1.1,"aMS",%progbits,1
ARM GAS  C:\Users\Petro\AppData\Local\Temp\cc6W0syg.s 			page 80


 3408              	.LC0:
 3409 0000 25252569 		.ascii	"%%%i.%if\000"
 3409      2E256966 
 3409      00
 3410              		.text
 3411              	.Letext0:
 3412              		.file 3 "c:\\program files (x86)\\cypress\\psoc creator\\4.0\\psoc creator\\import\\gnu\\arm\\4.9.
 3413              		.file 4 "c:\\program files (x86)\\cypress\\psoc creator\\4.0\\psoc creator\\import\\gnu\\arm\\4.9.
 3414              		.file 5 "Generated_Source\\PSoC4/cytypes.h"
 3415              		.file 6 "c:\\program files (x86)\\cypress\\psoc creator\\4.0\\psoc creator\\import\\gnu\\arm\\4.9.
 3416              		.file 7 "..\\..\\common\\lib\\nokia5110\\LCD5110_Graph.h"
 3417              		.file 8 "Generated_Source\\PSoC4/DC.h"
 3418              		.file 9 "Generated_Source\\PSoC4/CE.h"
 3419              		.file 10 "Generated_Source\\PSoC4/SwSPI_Master.h"
 3420              		.file 11 "Generated_Source\\PSoC4/RST.h"
 3421              		.file 12 "c:\\program files (x86)\\cypress\\psoc creator\\4.0\\psoc creator\\import\\gnu\\arm\\4.9
 3422              		.file 13 "Generated_Source\\PSoC4/ble_Stack.h"
 3423              		.file 14 "c:\\program files (x86)\\cypress\\psoc creator\\4.0\\psoc creator\\import\\gnu\\arm\\4.9
 3424              		.section	.debug_info,"",%progbits
 3425              	.Ldebug_info0:
 3426 0000 D71D0000 		.4byte	0x1dd7
 3427 0004 0400     		.2byte	0x4
 3428 0006 00000000 		.4byte	.Ldebug_abbrev0
 3429 000a 04       		.byte	0x4
 3430 000b 01       		.uleb128 0x1
 3431 000c 2B000000 		.4byte	.LASF144
 3432 0010 01       		.byte	0x1
 3433 0011 19010000 		.4byte	.LASF145
 3434 0015 F1070000 		.4byte	.LASF146
 3435 0019 68000000 		.4byte	.Ldebug_ranges0+0x68
 3436 001d 00000000 		.4byte	0
 3437 0021 00000000 		.4byte	.Ldebug_line0
 3438 0025 02       		.uleb128 0x2
 3439 0026 08       		.byte	0x8
 3440 0027 04       		.byte	0x4
 3441 0028 D60A0000 		.4byte	.LASF0
 3442 002c 03       		.uleb128 0x3
 3443 002d 04       		.byte	0x4
 3444 002e 05       		.byte	0x5
 3445 002f 696E7400 		.ascii	"int\000"
 3446 0033 02       		.uleb128 0x2
 3447 0034 04       		.byte	0x4
 3448 0035 04       		.byte	0x4
 3449 0036 D2070000 		.4byte	.LASF1
 3450 003a 02       		.uleb128 0x2
 3451 003b 01       		.byte	0x1
 3452 003c 06       		.byte	0x6
 3453 003d 93020000 		.4byte	.LASF2
 3454 0041 04       		.uleb128 0x4
 3455 0042 7F010000 		.4byte	.LASF5
 3456 0046 03       		.byte	0x3
 3457 0047 1D       		.byte	0x1d
 3458 0048 4C000000 		.4byte	0x4c
 3459 004c 02       		.uleb128 0x2
 3460 004d 01       		.byte	0x1
 3461 004e 08       		.byte	0x8
 3462 004f 32080000 		.4byte	.LASF3
ARM GAS  C:\Users\Petro\AppData\Local\Temp\cc6W0syg.s 			page 81


 3463 0053 02       		.uleb128 0x2
 3464 0054 02       		.byte	0x2
 3465 0055 05       		.byte	0x5
 3466 0056 4F080000 		.4byte	.LASF4
 3467 005a 04       		.uleb128 0x4
 3468 005b 30090000 		.4byte	.LASF6
 3469 005f 03       		.byte	0x3
 3470 0060 2B       		.byte	0x2b
 3471 0061 65000000 		.4byte	0x65
 3472 0065 02       		.uleb128 0x2
 3473 0066 02       		.byte	0x2
 3474 0067 07       		.byte	0x7
 3475 0068 0E050000 		.4byte	.LASF7
 3476 006c 02       		.uleb128 0x2
 3477 006d 04       		.byte	0x4
 3478 006e 05       		.byte	0x5
 3479 006f AE010000 		.4byte	.LASF8
 3480 0073 02       		.uleb128 0x2
 3481 0074 04       		.byte	0x4
 3482 0075 07       		.byte	0x7
 3483 0076 89040000 		.4byte	.LASF9
 3484 007a 02       		.uleb128 0x2
 3485 007b 08       		.byte	0x8
 3486 007c 05       		.byte	0x5
 3487 007d 85020000 		.4byte	.LASF10
 3488 0081 02       		.uleb128 0x2
 3489 0082 08       		.byte	0x8
 3490 0083 07       		.byte	0x7
 3491 0084 B7020000 		.4byte	.LASF11
 3492 0088 02       		.uleb128 0x2
 3493 0089 04       		.byte	0x4
 3494 008a 07       		.byte	0x7
 3495 008b 46040000 		.4byte	.LASF12
 3496 008f 04       		.uleb128 0x4
 3497 0090 050A0000 		.4byte	.LASF13
 3498 0094 04       		.byte	0x4
 3499 0095 15       		.byte	0x15
 3500 0096 41000000 		.4byte	0x41
 3501 009a 04       		.uleb128 0x4
 3502 009b 72040000 		.4byte	.LASF14
 3503 009f 04       		.byte	0x4
 3504 00a0 21       		.byte	0x21
 3505 00a1 5A000000 		.4byte	0x5a
 3506 00a5 05       		.uleb128 0x5
 3507 00a6 95030000 		.4byte	.LASF15
 3508 00aa 05       		.byte	0x5
 3509 00ab 9801     		.2byte	0x198
 3510 00ad 4C000000 		.4byte	0x4c
 3511 00b1 02       		.uleb128 0x2
 3512 00b2 01       		.byte	0x1
 3513 00b3 08       		.byte	0x8
 3514 00b4 26090000 		.4byte	.LASF16
 3515 00b8 04       		.uleb128 0x4
 3516 00b9 C8000000 		.4byte	.LASF17
 3517 00bd 06       		.byte	0x6
 3518 00be D4       		.byte	0xd4
 3519 00bf 88000000 		.4byte	0x88
ARM GAS  C:\Users\Petro\AppData\Local\Temp\cc6W0syg.s 			page 82


 3520 00c3 02       		.uleb128 0x2
 3521 00c4 04       		.byte	0x4
 3522 00c5 07       		.byte	0x7
 3523 00c6 E4060000 		.4byte	.LASF18
 3524 00ca 06       		.uleb128 0x6
 3525 00cb 04       		.byte	0x4
 3526 00cc B1000000 		.4byte	0xb1
 3527 00d0 06       		.uleb128 0x6
 3528 00d1 04       		.byte	0x4
 3529 00d2 D6000000 		.4byte	0xd6
 3530 00d6 07       		.uleb128 0x7
 3531 00d7 B1000000 		.4byte	0xb1
 3532 00db 08       		.uleb128 0x8
 3533 00dc B1000000 		.4byte	0xb1
 3534 00e0 EB000000 		.4byte	0xeb
 3535 00e4 09       		.uleb128 0x9
 3536 00e5 C3000000 		.4byte	0xc3
 3537 00e9 18       		.byte	0x18
 3538 00ea 00       		.byte	0
 3539 00eb 0A       		.uleb128 0xa
 3540 00ec 01       		.byte	0x1
 3541 00ed 0D       		.byte	0xd
 3542 00ee A4       		.byte	0xa4
 3543 00ef 70020000 		.4byte	0x270
 3544 00f3 0B       		.uleb128 0xb
 3545 00f4 21050000 		.4byte	.LASF19
 3546 00f8 00       		.sleb128 0
 3547 00f9 0B       		.uleb128 0xb
 3548 00fa 9F020000 		.4byte	.LASF20
 3549 00fe 01       		.sleb128 1
 3550 00ff 0B       		.uleb128 0xb
 3551 0100 9C010000 		.4byte	.LASF21
 3552 0104 02       		.sleb128 2
 3553 0105 0B       		.uleb128 0xb
 3554 0106 A8090000 		.4byte	.LASF22
 3555 010a 03       		.sleb128 3
 3556 010b 0B       		.uleb128 0xb
 3557 010c C6010000 		.4byte	.LASF23
 3558 0110 04       		.sleb128 4
 3559 0111 0B       		.uleb128 0xb
 3560 0112 44010000 		.4byte	.LASF24
 3561 0116 05       		.sleb128 5
 3562 0117 0B       		.uleb128 0xb
 3563 0118 48060000 		.4byte	.LASF25
 3564 011c 20       		.sleb128 32
 3565 011d 0B       		.uleb128 0xb
 3566 011e ED020000 		.4byte	.LASF26
 3567 0122 21       		.sleb128 33
 3568 0123 0B       		.uleb128 0xb
 3569 0124 78050000 		.4byte	.LASF27
 3570 0128 22       		.sleb128 34
 3571 0129 0B       		.uleb128 0xb
 3572 012a D5050000 		.4byte	.LASF28
 3573 012e 23       		.sleb128 35
 3574 012f 0B       		.uleb128 0xb
 3575 0130 36070000 		.4byte	.LASF29
 3576 0134 24       		.sleb128 36
ARM GAS  C:\Users\Petro\AppData\Local\Temp\cc6W0syg.s 			page 83


 3577 0135 0B       		.uleb128 0xb
 3578 0136 FB060000 		.4byte	.LASF30
 3579 013a 25       		.sleb128 37
 3580 013b 0B       		.uleb128 0xb
 3581 013c 4F030000 		.4byte	.LASF31
 3582 0140 26       		.sleb128 38
 3583 0141 0B       		.uleb128 0xb
 3584 0142 9C050000 		.4byte	.LASF32
 3585 0146 27       		.sleb128 39
 3586 0147 0B       		.uleb128 0xb
 3587 0148 7A060000 		.4byte	.LASF33
 3588 014c 28       		.sleb128 40
 3589 014d 0B       		.uleb128 0xb
 3590 014e 3D020000 		.4byte	.LASF34
 3591 0152 29       		.sleb128 41
 3592 0153 0B       		.uleb128 0xb
 3593 0154 CF000000 		.4byte	.LASF35
 3594 0158 2A       		.sleb128 42
 3595 0159 0B       		.uleb128 0xb
 3596 015a CE020000 		.4byte	.LASF36
 3597 015e 2B       		.sleb128 43
 3598 015f 0B       		.uleb128 0xb
 3599 0160 480A0000 		.4byte	.LASF37
 3600 0164 2C       		.sleb128 44
 3601 0165 0B       		.uleb128 0xb
 3602 0166 DE080000 		.4byte	.LASF38
 3603 016a C000     		.sleb128 64
 3604 016c 0B       		.uleb128 0xb
 3605 016d FB050000 		.4byte	.LASF39
 3606 0171 C100     		.sleb128 65
 3607 0173 0B       		.uleb128 0xb
 3608 0174 DD0A0000 		.4byte	.LASF40
 3609 0178 C200     		.sleb128 66
 3610 017a 0B       		.uleb128 0xb
 3611 017b 77030000 		.4byte	.LASF41
 3612 017f C300     		.sleb128 67
 3613 0181 0B       		.uleb128 0xb
 3614 0182 A4040000 		.4byte	.LASF42
 3615 0186 C400     		.sleb128 68
 3616 0188 0B       		.uleb128 0xb
 3617 0189 AB070000 		.4byte	.LASF43
 3618 018d C500     		.sleb128 69
 3619 018f 0B       		.uleb128 0xb
 3620 0190 BA060000 		.4byte	.LASF44
 3621 0194 C600     		.sleb128 70
 3622 0196 0B       		.uleb128 0xb
 3623 0197 F8080000 		.4byte	.LASF45
 3624 019b C700     		.sleb128 71
 3625 019d 0B       		.uleb128 0xb
 3626 019e 210A0000 		.4byte	.LASF46
 3627 01a2 C800     		.sleb128 72
 3628 01a4 0B       		.uleb128 0xb
 3629 01a5 04030000 		.4byte	.LASF47
 3630 01a9 C900     		.sleb128 73
 3631 01ab 0B       		.uleb128 0xb
 3632 01ac 64090000 		.4byte	.LASF48
 3633 01b0 CA00     		.sleb128 74
ARM GAS  C:\Users\Petro\AppData\Local\Temp\cc6W0syg.s 			page 84


 3634 01b2 0B       		.uleb128 0xb
 3635 01b3 60010000 		.4byte	.LASF49
 3636 01b7 CB00     		.sleb128 75
 3637 01b9 0B       		.uleb128 0xb
 3638 01ba BB050000 		.4byte	.LASF50
 3639 01be CC00     		.sleb128 76
 3640 01c0 0B       		.uleb128 0xb
 3641 01c1 15070000 		.4byte	.LASF51
 3642 01c5 CD00     		.sleb128 77
 3643 01c7 0B       		.uleb128 0xb
 3644 01c8 27030000 		.4byte	.LASF52
 3645 01cc CE00     		.sleb128 78
 3646 01ce 0B       		.uleb128 0xb
 3647 01cf 83080000 		.4byte	.LASF53
 3648 01d3 CF00     		.sleb128 79
 3649 01d5 0B       		.uleb128 0xb
 3650 01d6 59050000 		.4byte	.LASF54
 3651 01da D000     		.sleb128 80
 3652 01dc 0B       		.uleb128 0xb
 3653 01dd 9B030000 		.4byte	.LASF55
 3654 01e1 D100     		.sleb128 81
 3655 01e3 0B       		.uleb128 0xb
 3656 01e4 59070000 		.4byte	.LASF56
 3657 01e8 D200     		.sleb128 82
 3658 01ea 0B       		.uleb128 0xb
 3659 01eb 59080000 		.4byte	.LASF57
 3660 01ef D300     		.sleb128 83
 3661 01f1 0B       		.uleb128 0xb
 3662 01f2 BD080000 		.4byte	.LASF58
 3663 01f6 D400     		.sleb128 84
 3664 01f8 0B       		.uleb128 0xb
 3665 01f9 C2040000 		.4byte	.LASF59
 3666 01fd D500     		.sleb128 85
 3667 01ff 0B       		.uleb128 0xb
 3668 0200 24040000 		.4byte	.LASF60
 3669 0204 D600     		.sleb128 86
 3670 0206 0B       		.uleb128 0xb
 3671 0207 3B090000 		.4byte	.LASF61
 3672 020b D700     		.sleb128 87
 3673 020d 0B       		.uleb128 0xb
 3674 020e 0C020000 		.4byte	.LASF62
 3675 0212 F000     		.sleb128 112
 3676 0214 0B       		.uleb128 0xb
 3677 0215 950A0000 		.4byte	.LASF63
 3678 0219 F100     		.sleb128 113
 3679 021b 0B       		.uleb128 0xb
 3680 021c 1F060000 		.4byte	.LASF64
 3681 0220 F200     		.sleb128 114
 3682 0222 0B       		.uleb128 0xb
 3683 0223 9C060000 		.4byte	.LASF65
 3684 0227 F300     		.sleb128 115
 3685 0229 0B       		.uleb128 0xb
 3686 022a 8D070000 		.4byte	.LASF66
 3687 022e F400     		.sleb128 116
 3688 0230 0B       		.uleb128 0xb
 3689 0231 740A0000 		.4byte	.LASF67
 3690 0235 F500     		.sleb128 117
ARM GAS  C:\Users\Petro\AppData\Local\Temp\cc6W0syg.s 			page 85


 3691 0237 0B       		.uleb128 0xb
 3692 0238 F8000000 		.4byte	.LASF68
 3693 023c F600     		.sleb128 118
 3694 023e 0B       		.uleb128 0xb
 3695 023f 82090000 		.4byte	.LASF69
 3696 0243 F700     		.sleb128 119
 3697 0245 0B       		.uleb128 0xb
 3698 0246 00000000 		.4byte	.LASF70
 3699 024a F800     		.sleb128 120
 3700 024c 0B       		.uleb128 0xb
 3701 024d 5A020000 		.4byte	.LASF71
 3702 0251 F900     		.sleb128 121
 3703 0253 0B       		.uleb128 0xb
 3704 0254 F0030000 		.4byte	.LASF72
 3705 0258 FA00     		.sleb128 122
 3706 025a 0B       		.uleb128 0xb
 3707 025b E1010000 		.4byte	.LASF73
 3708 025f FA01     		.sleb128 250
 3709 0261 0B       		.uleb128 0xb
 3710 0262 53040000 		.4byte	.LASF74
 3711 0266 FB01     		.sleb128 251
 3712 0268 0B       		.uleb128 0xb
 3713 0269 ED060000 		.4byte	.LASF75
 3714 026d FF01     		.sleb128 255
 3715 026f 00       		.byte	0
 3716 0270 0C       		.uleb128 0xc
 3717 0271 0C       		.byte	0xc
 3718 0272 07       		.byte	0x7
 3719 0273 3F       		.byte	0x3f
 3720 0274 C1020000 		.4byte	0x2c1
 3721 0278 0D       		.uleb128 0xd
 3722 0279 EA090000 		.4byte	.LASF76
 3723 027d 07       		.byte	0x7
 3724 027e 41       		.byte	0x41
 3725 027f C1020000 		.4byte	0x2c1
 3726 0283 00       		.byte	0
 3727 0284 0D       		.uleb128 0xd
 3728 0285 2F070000 		.4byte	.LASF77
 3729 0289 07       		.byte	0x7
 3730 028a 42       		.byte	0x42
 3731 028b 8F000000 		.4byte	0x8f
 3732 028f 04       		.byte	0x4
 3733 0290 0D       		.uleb128 0xd
 3734 0291 48080000 		.4byte	.LASF78
 3735 0295 07       		.byte	0x7
 3736 0296 43       		.byte	0x43
 3737 0297 8F000000 		.4byte	0x8f
 3738 029b 05       		.byte	0x5
 3739 029c 0D       		.uleb128 0xd
 3740 029d A1090000 		.4byte	.LASF79
 3741 02a1 07       		.byte	0x7
 3742 02a2 44       		.byte	0x44
 3743 02a3 8F000000 		.4byte	0x8f
 3744 02a7 06       		.byte	0x6
 3745 02a8 0D       		.uleb128 0xd
 3746 02a9 BD010000 		.4byte	.LASF80
 3747 02ad 07       		.byte	0x7
ARM GAS  C:\Users\Petro\AppData\Local\Temp\cc6W0syg.s 			page 86


 3748 02ae 45       		.byte	0x45
 3749 02af 8F000000 		.4byte	0x8f
 3750 02b3 07       		.byte	0x7
 3751 02b4 0D       		.uleb128 0xd
 3752 02b5 7A080000 		.4byte	.LASF81
 3753 02b9 07       		.byte	0x7
 3754 02ba 46       		.byte	0x46
 3755 02bb 8F000000 		.4byte	0x8f
 3756 02bf 08       		.byte	0x8
 3757 02c0 00       		.byte	0
 3758 02c1 06       		.uleb128 0x6
 3759 02c2 04       		.byte	0x4
 3760 02c3 8F000000 		.4byte	0x8f
 3761 02c7 04       		.uleb128 0x4
 3762 02c8 6C060000 		.4byte	.LASF82
 3763 02cc 07       		.byte	0x7
 3764 02cd 47       		.byte	0x47
 3765 02ce 70020000 		.4byte	0x270
 3766 02d2 0E       		.uleb128 0xe
 3767 02d3 C6090000 		.4byte	.LASF147
 3768 02d7 02       		.byte	0x2
 3769 02d8 96       		.byte	0x96
 3770 02d9 01       		.byte	0x1
 3771 02da EA020000 		.4byte	0x2ea
 3772 02de 0F       		.uleb128 0xf
 3773 02df 10       		.uleb128 0x10
 3774 02e0 6200     		.ascii	"b\000"
 3775 02e2 02       		.byte	0x2
 3776 02e3 9C       		.byte	0x9c
 3777 02e4 2C000000 		.4byte	0x2c
 3778 02e8 00       		.byte	0
 3779 02e9 00       		.byte	0
 3780 02ea 11       		.uleb128 0x11
 3781 02eb 9B040000 		.4byte	.LASF83
 3782 02ef 02       		.byte	0x2
 3783 02f0 B8       		.byte	0xb8
 3784 02f1 01       		.byte	0x1
 3785 02f2 1D030000 		.4byte	0x31d
 3786 02f6 12       		.uleb128 0x12
 3787 02f7 7800     		.ascii	"x\000"
 3788 02f9 02       		.byte	0x2
 3789 02fa B8       		.byte	0xb8
 3790 02fb 9A000000 		.4byte	0x9a
 3791 02ff 12       		.uleb128 0x12
 3792 0300 7900     		.ascii	"y\000"
 3793 0302 02       		.byte	0x2
 3794 0303 B8       		.byte	0xb8
 3795 0304 9A000000 		.4byte	0x9a
 3796 0308 10       		.uleb128 0x10
 3797 0309 627900   		.ascii	"by\000"
 3798 030c 02       		.byte	0x2
 3799 030d BA       		.byte	0xba
 3800 030e 2C000000 		.4byte	0x2c
 3801 0312 10       		.uleb128 0x10
 3802 0313 626900   		.ascii	"bi\000"
 3803 0316 02       		.byte	0x2
 3804 0317 BA       		.byte	0xba
ARM GAS  C:\Users\Petro\AppData\Local\Temp\cc6W0syg.s 			page 87


 3805 0318 2C000000 		.4byte	0x2c
 3806 031c 00       		.byte	0
 3807 031d 11       		.uleb128 0x11
 3808 031e 16060000 		.4byte	.LASF84
 3809 0322 02       		.byte	0x2
 3810 0323 C5       		.byte	0xc5
 3811 0324 01       		.byte	0x1
 3812 0325 50030000 		.4byte	0x350
 3813 0329 12       		.uleb128 0x12
 3814 032a 7800     		.ascii	"x\000"
 3815 032c 02       		.byte	0x2
 3816 032d C5       		.byte	0xc5
 3817 032e 9A000000 		.4byte	0x9a
 3818 0332 12       		.uleb128 0x12
 3819 0333 7900     		.ascii	"y\000"
 3820 0335 02       		.byte	0x2
 3821 0336 C5       		.byte	0xc5
 3822 0337 9A000000 		.4byte	0x9a
 3823 033b 10       		.uleb128 0x10
 3824 033c 627900   		.ascii	"by\000"
 3825 033f 02       		.byte	0x2
 3826 0340 C7       		.byte	0xc7
 3827 0341 2C000000 		.4byte	0x2c
 3828 0345 10       		.uleb128 0x10
 3829 0346 626900   		.ascii	"bi\000"
 3830 0349 02       		.byte	0x2
 3831 034a C7       		.byte	0xc7
 3832 034b 2C000000 		.4byte	0x2c
 3833 034f 00       		.byte	0
 3834 0350 13       		.uleb128 0x13
 3835 0351 83070000 		.4byte	.LASF85
 3836 0355 02       		.byte	0x2
 3837 0356 B401     		.2byte	0x1b4
 3838 0358 01       		.byte	0x1
 3839 0359 9F030000 		.4byte	0x39f
 3840 035d 14       		.uleb128 0x14
 3841 035e 7800     		.ascii	"x\000"
 3842 0360 02       		.byte	0x2
 3843 0361 B401     		.2byte	0x1b4
 3844 0363 2C000000 		.4byte	0x2c
 3845 0367 14       		.uleb128 0x14
 3846 0368 7900     		.ascii	"y\000"
 3847 036a 02       		.byte	0x2
 3848 036b B401     		.2byte	0x1b4
 3849 036d 2C000000 		.4byte	0x2c
 3850 0371 14       		.uleb128 0x14
 3851 0372 6C00     		.ascii	"l\000"
 3852 0374 02       		.byte	0x2
 3853 0375 B401     		.2byte	0x1b4
 3854 0377 2C000000 		.4byte	0x2c
 3855 037b 15       		.uleb128 0x15
 3856 037c 627900   		.ascii	"by\000"
 3857 037f 02       		.byte	0x2
 3858 0380 B601     		.2byte	0x1b6
 3859 0382 2C000000 		.4byte	0x2c
 3860 0386 15       		.uleb128 0x15
 3861 0387 626900   		.ascii	"bi\000"
ARM GAS  C:\Users\Petro\AppData\Local\Temp\cc6W0syg.s 			page 88


 3862 038a 02       		.byte	0x2
 3863 038b B601     		.2byte	0x1b6
 3864 038d 2C000000 		.4byte	0x2c
 3865 0391 0F       		.uleb128 0xf
 3866 0392 15       		.uleb128 0x15
 3867 0393 637800   		.ascii	"cx\000"
 3868 0396 02       		.byte	0x2
 3869 0397 BA01     		.2byte	0x1ba
 3870 0399 2C000000 		.4byte	0x2c
 3871 039d 00       		.byte	0
 3872 039e 00       		.byte	0
 3873 039f 13       		.uleb128 0x13
 3874 03a0 DB060000 		.4byte	.LASF86
 3875 03a4 02       		.byte	0x2
 3876 03a5 C501     		.2byte	0x1c5
 3877 03a7 01       		.byte	0x1
 3878 03a8 EE030000 		.4byte	0x3ee
 3879 03ac 14       		.uleb128 0x14
 3880 03ad 7800     		.ascii	"x\000"
 3881 03af 02       		.byte	0x2
 3882 03b0 C501     		.2byte	0x1c5
 3883 03b2 2C000000 		.4byte	0x2c
 3884 03b6 14       		.uleb128 0x14
 3885 03b7 7900     		.ascii	"y\000"
 3886 03b9 02       		.byte	0x2
 3887 03ba C501     		.2byte	0x1c5
 3888 03bc 2C000000 		.4byte	0x2c
 3889 03c0 14       		.uleb128 0x14
 3890 03c1 6C00     		.ascii	"l\000"
 3891 03c3 02       		.byte	0x2
 3892 03c4 C501     		.2byte	0x1c5
 3893 03c6 2C000000 		.4byte	0x2c
 3894 03ca 15       		.uleb128 0x15
 3895 03cb 627900   		.ascii	"by\000"
 3896 03ce 02       		.byte	0x2
 3897 03cf C701     		.2byte	0x1c7
 3898 03d1 2C000000 		.4byte	0x2c
 3899 03d5 15       		.uleb128 0x15
 3900 03d6 626900   		.ascii	"bi\000"
 3901 03d9 02       		.byte	0x2
 3902 03da C701     		.2byte	0x1c7
 3903 03dc 2C000000 		.4byte	0x2c
 3904 03e0 0F       		.uleb128 0xf
 3905 03e1 15       		.uleb128 0x15
 3906 03e2 637800   		.ascii	"cx\000"
 3907 03e5 02       		.byte	0x2
 3908 03e6 CB01     		.2byte	0x1cb
 3909 03e8 2C000000 		.4byte	0x2c
 3910 03ec 00       		.byte	0
 3911 03ed 00       		.byte	0
 3912 03ee 13       		.uleb128 0x13
 3913 03ef F2040000 		.4byte	.LASF87
 3914 03f3 02       		.byte	0x2
 3915 03f4 D601     		.2byte	0x1d6
 3916 03f6 01       		.byte	0x1
 3917 03f7 3D040000 		.4byte	0x43d
 3918 03fb 14       		.uleb128 0x14
ARM GAS  C:\Users\Petro\AppData\Local\Temp\cc6W0syg.s 			page 89


 3919 03fc 7800     		.ascii	"x\000"
 3920 03fe 02       		.byte	0x2
 3921 03ff D601     		.2byte	0x1d6
 3922 0401 2C000000 		.4byte	0x2c
 3923 0405 14       		.uleb128 0x14
 3924 0406 7900     		.ascii	"y\000"
 3925 0408 02       		.byte	0x2
 3926 0409 D601     		.2byte	0x1d6
 3927 040b 2C000000 		.4byte	0x2c
 3928 040f 14       		.uleb128 0x14
 3929 0410 6C00     		.ascii	"l\000"
 3930 0412 02       		.byte	0x2
 3931 0413 D601     		.2byte	0x1d6
 3932 0415 2C000000 		.4byte	0x2c
 3933 0419 15       		.uleb128 0x15
 3934 041a 627900   		.ascii	"by\000"
 3935 041d 02       		.byte	0x2
 3936 041e D801     		.2byte	0x1d8
 3937 0420 2C000000 		.4byte	0x2c
 3938 0424 15       		.uleb128 0x15
 3939 0425 626900   		.ascii	"bi\000"
 3940 0428 02       		.byte	0x2
 3941 0429 D801     		.2byte	0x1d8
 3942 042b 2C000000 		.4byte	0x2c
 3943 042f 0F       		.uleb128 0xf
 3944 0430 15       		.uleb128 0x15
 3945 0431 637900   		.ascii	"cy\000"
 3946 0434 02       		.byte	0x2
 3947 0435 DC01     		.2byte	0x1dc
 3948 0437 2C000000 		.4byte	0x2c
 3949 043b 00       		.byte	0
 3950 043c 00       		.byte	0
 3951 043d 13       		.uleb128 0x13
 3952 043e 1B040000 		.4byte	.LASF88
 3953 0442 02       		.byte	0x2
 3954 0443 E401     		.2byte	0x1e4
 3955 0445 01       		.byte	0x1
 3956 0446 8C040000 		.4byte	0x48c
 3957 044a 14       		.uleb128 0x14
 3958 044b 7800     		.ascii	"x\000"
 3959 044d 02       		.byte	0x2
 3960 044e E401     		.2byte	0x1e4
 3961 0450 2C000000 		.4byte	0x2c
 3962 0454 14       		.uleb128 0x14
 3963 0455 7900     		.ascii	"y\000"
 3964 0457 02       		.byte	0x2
 3965 0458 E401     		.2byte	0x1e4
 3966 045a 2C000000 		.4byte	0x2c
 3967 045e 14       		.uleb128 0x14
 3968 045f 6C00     		.ascii	"l\000"
 3969 0461 02       		.byte	0x2
 3970 0462 E401     		.2byte	0x1e4
 3971 0464 2C000000 		.4byte	0x2c
 3972 0468 15       		.uleb128 0x15
 3973 0469 627900   		.ascii	"by\000"
 3974 046c 02       		.byte	0x2
 3975 046d E601     		.2byte	0x1e6
ARM GAS  C:\Users\Petro\AppData\Local\Temp\cc6W0syg.s 			page 90


 3976 046f 2C000000 		.4byte	0x2c
 3977 0473 15       		.uleb128 0x15
 3978 0474 626900   		.ascii	"bi\000"
 3979 0477 02       		.byte	0x2
 3980 0478 E601     		.2byte	0x1e6
 3981 047a 2C000000 		.4byte	0x2c
 3982 047e 0F       		.uleb128 0xf
 3983 047f 15       		.uleb128 0x15
 3984 0480 637900   		.ascii	"cy\000"
 3985 0483 02       		.byte	0x2
 3986 0484 EA01     		.2byte	0x1ea
 3987 0486 2C000000 		.4byte	0x2c
 3988 048a 00       		.byte	0
 3989 048b 00       		.byte	0
 3990 048c 16       		.uleb128 0x16
 3991 048d BB0A0000 		.4byte	.LASF91
 3992 0491 01       		.byte	0x1
 3993 0492 04       		.byte	0x4
 3994 0493 00000000 		.4byte	.LFB63
 3995 0497 28000000 		.4byte	.LFE63-.LFB63
 3996 049b 01       		.uleb128 0x1
 3997 049c 9C       		.byte	0x9c
 3998 049d 31050000 		.4byte	0x531
 3999 04a1 17       		.uleb128 0x17
 4000 04a2 62756600 		.ascii	"buf\000"
 4001 04a6 01       		.byte	0x1
 4002 04a7 04       		.byte	0x4
 4003 04a8 CA000000 		.4byte	0xca
 4004 04ac 00000000 		.4byte	.LLST0
 4005 04b0 17       		.uleb128 0x17
 4006 04b1 6E756D00 		.ascii	"num\000"
 4007 04b5 01       		.byte	0x1
 4008 04b6 04       		.byte	0x4
 4009 04b7 25000000 		.4byte	0x25
 4010 04bb 2C000000 		.4byte	.LLST1
 4011 04bf 18       		.uleb128 0x18
 4012 04c0 FC040000 		.4byte	.LASF89
 4013 04c4 01       		.byte	0x1
 4014 04c5 04       		.byte	0x4
 4015 04c6 2C000000 		.4byte	0x2c
 4016 04ca 54000000 		.4byte	.LLST2
 4017 04ce 18       		.uleb128 0x18
 4018 04cf C1090000 		.4byte	.LASF90
 4019 04d3 01       		.byte	0x1
 4020 04d4 04       		.byte	0x4
 4021 04d5 8F000000 		.4byte	0x8f
 4022 04d9 8C000000 		.4byte	.LLST3
 4023 04dd 19       		.uleb128 0x19
 4024 04de A2080000 		.4byte	.LASF97
 4025 04e2 01       		.byte	0x1
 4026 04e3 06       		.byte	0x6
 4027 04e4 31050000 		.4byte	0x531
 4028 04e8 02       		.uleb128 0x2
 4029 04e9 91       		.byte	0x91
 4030 04ea 64       		.sleb128 -28
 4031 04eb 1A       		.uleb128 0x1a
 4032 04ec 16000000 		.4byte	.LVL5
ARM GAS  C:\Users\Petro\AppData\Local\Temp\cc6W0syg.s 			page 91


 4033 04f0 6A1D0000 		.4byte	0x1d6a
 4034 04f4 1A050000 		.4byte	0x51a
 4035 04f8 1B       		.uleb128 0x1b
 4036 04f9 01       		.uleb128 0x1
 4037 04fa 53       		.byte	0x53
 4038 04fb 07       		.uleb128 0x7
 4039 04fc 91       		.byte	0x91
 4040 04fd 04       		.sleb128 4
 4041 04fe 94       		.byte	0x94
 4042 04ff 01       		.byte	0x1
 4043 0500 08       		.byte	0x8
 4044 0501 FF       		.byte	0xff
 4045 0502 1A       		.byte	0x1a
 4046 0503 1B       		.uleb128 0x1b
 4047 0504 01       		.uleb128 0x1
 4048 0505 52       		.byte	0x52
 4049 0506 03       		.uleb128 0x3
 4050 0507 91       		.byte	0x91
 4051 0508 00       		.sleb128 0
 4052 0509 06       		.byte	0x6
 4053 050a 1B       		.uleb128 0x1b
 4054 050b 01       		.uleb128 0x1
 4055 050c 51       		.byte	0x51
 4056 050d 05       		.uleb128 0x5
 4057 050e 03       		.byte	0x3
 4058 050f 00000000 		.4byte	.LC0
 4059 0513 1B       		.uleb128 0x1b
 4060 0514 01       		.uleb128 0x1
 4061 0515 50       		.byte	0x50
 4062 0516 02       		.uleb128 0x2
 4063 0517 91       		.byte	0x91
 4064 0518 64       		.sleb128 -28
 4065 0519 00       		.byte	0
 4066 051a 1C       		.uleb128 0x1c
 4067 051b 22000000 		.4byte	.LVL6
 4068 051f 6A1D0000 		.4byte	0x1d6a
 4069 0523 1B       		.uleb128 0x1b
 4070 0524 01       		.uleb128 0x1
 4071 0525 51       		.byte	0x51
 4072 0526 02       		.uleb128 0x2
 4073 0527 91       		.byte	0x91
 4074 0528 64       		.sleb128 -28
 4075 0529 1B       		.uleb128 0x1b
 4076 052a 01       		.uleb128 0x1
 4077 052b 50       		.byte	0x50
 4078 052c 02       		.uleb128 0x2
 4079 052d 76       		.byte	0x76
 4080 052e 00       		.sleb128 0
 4081 052f 00       		.byte	0
 4082 0530 00       		.byte	0
 4083 0531 08       		.uleb128 0x8
 4084 0532 B1000000 		.4byte	0xb1
 4085 0536 41050000 		.4byte	0x541
 4086 053a 09       		.uleb128 0x9
 4087 053b C3000000 		.4byte	0xc3
 4088 053f 09       		.byte	0x9
 4089 0540 00       		.byte	0
ARM GAS  C:\Users\Petro\AppData\Local\Temp\cc6W0syg.s 			page 92


 4090 0541 16       		.uleb128 0x16
 4091 0542 38050000 		.4byte	.LASF92
 4092 0546 02       		.byte	0x2
 4093 0547 3B       		.byte	0x3b
 4094 0548 00000000 		.4byte	.LFB64
 4095 054c 22000000 		.4byte	.LFE64-.LFB64
 4096 0550 01       		.uleb128 0x1
 4097 0551 9C       		.byte	0x9c
 4098 0552 B4050000 		.4byte	0x5b4
 4099 0556 18       		.uleb128 0x18
 4100 0557 02050000 		.4byte	.LASF93
 4101 055b 02       		.byte	0x2
 4102 055c 3B       		.byte	0x3b
 4103 055d 4C000000 		.4byte	0x4c
 4104 0561 C4000000 		.4byte	.LLST4
 4105 0565 18       		.uleb128 0x18
 4106 0566 2B090000 		.4byte	.LASF94
 4107 056a 02       		.byte	0x2
 4108 056b 3B       		.byte	0x3b
 4109 056c 4C000000 		.4byte	0x4c
 4110 0570 E5000000 		.4byte	.LLST5
 4111 0574 1D       		.uleb128 0x1d
 4112 0575 0E000000 		.4byte	.LVL10
 4113 0579 851D0000 		.4byte	0x1d85
 4114 057d 1A       		.uleb128 0x1a
 4115 057e 14000000 		.4byte	.LVL11
 4116 0582 961D0000 		.4byte	0x1d96
 4117 0586 90050000 		.4byte	0x590
 4118 058a 1B       		.uleb128 0x1b
 4119 058b 01       		.uleb128 0x1
 4120 058c 50       		.byte	0x50
 4121 058d 01       		.uleb128 0x1
 4122 058e 30       		.byte	0x30
 4123 058f 00       		.byte	0
 4124 0590 1A       		.uleb128 0x1a
 4125 0591 1A000000 		.4byte	.LVL12
 4126 0595 A71D0000 		.4byte	0x1da7
 4127 0599 A4050000 		.4byte	0x5a4
 4128 059d 1B       		.uleb128 0x1b
 4129 059e 01       		.uleb128 0x1
 4130 059f 50       		.byte	0x50
 4131 05a0 02       		.uleb128 0x2
 4132 05a1 74       		.byte	0x74
 4133 05a2 00       		.sleb128 0
 4134 05a3 00       		.byte	0
 4135 05a4 1C       		.uleb128 0x1c
 4136 05a5 20000000 		.4byte	.LVL13
 4137 05a9 961D0000 		.4byte	0x1d96
 4138 05ad 1B       		.uleb128 0x1b
 4139 05ae 01       		.uleb128 0x1
 4140 05af 50       		.byte	0x50
 4141 05b0 01       		.uleb128 0x1
 4142 05b1 31       		.byte	0x31
 4143 05b2 00       		.byte	0
 4144 05b3 00       		.byte	0
 4145 05b4 16       		.uleb128 0x16
 4146 05b5 C2030000 		.4byte	.LASF95
ARM GAS  C:\Users\Petro\AppData\Local\Temp\cc6W0syg.s 			page 93


 4147 05b9 02       		.byte	0x2
 4148 05ba 73       		.byte	0x73
 4149 05bb 00000000 		.4byte	.LFB66
 4150 05bf 3C000000 		.4byte	.LFE66-.LFB66
 4151 05c3 01       		.uleb128 0x1
 4152 05c4 9C       		.byte	0x9c
 4153 05c5 23060000 		.4byte	0x623
 4154 05c9 18       		.uleb128 0x18
 4155 05ca E1090000 		.4byte	.LASF96
 4156 05ce 02       		.byte	0x2
 4157 05cf 73       		.byte	0x73
 4158 05d0 2C000000 		.4byte	0x2c
 4159 05d4 06010000 		.4byte	.LLST6
 4160 05d8 1A       		.uleb128 0x1a
 4161 05d9 1A000000 		.4byte	.LVL16
 4162 05dd 41050000 		.4byte	0x541
 4163 05e1 F1050000 		.4byte	0x5f1
 4164 05e5 1B       		.uleb128 0x1b
 4165 05e6 01       		.uleb128 0x1
 4166 05e7 51       		.byte	0x51
 4167 05e8 01       		.uleb128 0x1
 4168 05e9 30       		.byte	0x30
 4169 05ea 1B       		.uleb128 0x1b
 4170 05eb 01       		.uleb128 0x1
 4171 05ec 50       		.byte	0x50
 4172 05ed 02       		.uleb128 0x2
 4173 05ee 08       		.byte	0x8
 4174 05ef 21       		.byte	0x21
 4175 05f0 00       		.byte	0
 4176 05f1 1A       		.uleb128 0x1a
 4177 05f2 28000000 		.4byte	.LVL17
 4178 05f6 41050000 		.4byte	0x541
 4179 05fa 0D060000 		.4byte	0x60d
 4180 05fe 1B       		.uleb128 0x1b
 4181 05ff 01       		.uleb128 0x1
 4182 0600 51       		.byte	0x51
 4183 0601 01       		.uleb128 0x1
 4184 0602 30       		.byte	0x30
 4185 0603 1B       		.uleb128 0x1b
 4186 0604 01       		.uleb128 0x1
 4187 0605 50       		.byte	0x50
 4188 0606 05       		.uleb128 0x5
 4189 0607 74       		.byte	0x74
 4190 0608 00       		.sleb128 0
 4191 0609 09       		.byte	0x9
 4192 060a 80       		.byte	0x80
 4193 060b 21       		.byte	0x21
 4194 060c 00       		.byte	0
 4195 060d 1C       		.uleb128 0x1c
 4196 060e 30000000 		.4byte	.LVL18
 4197 0612 41050000 		.4byte	0x541
 4198 0616 1B       		.uleb128 0x1b
 4199 0617 01       		.uleb128 0x1
 4200 0618 51       		.byte	0x51
 4201 0619 01       		.uleb128 0x1
 4202 061a 30       		.byte	0x30
 4203 061b 1B       		.uleb128 0x1b
ARM GAS  C:\Users\Petro\AppData\Local\Temp\cc6W0syg.s 			page 94


 4204 061c 01       		.uleb128 0x1
 4205 061d 50       		.byte	0x50
 4206 061e 02       		.uleb128 0x2
 4207 061f 08       		.byte	0x8
 4208 0620 20       		.byte	0x20
 4209 0621 00       		.byte	0
 4210 0622 00       		.byte	0
 4211 0623 1E       		.uleb128 0x1e
 4212 0624 CA0A0000 		.4byte	.LASF98
 4213 0628 02       		.byte	0x2
 4214 0629 7F       		.byte	0x7f
 4215 062a 00000000 		.4byte	.LFB67
 4216 062e 38000000 		.4byte	.LFE67-.LFB67
 4217 0632 01       		.uleb128 0x1
 4218 0633 9C       		.byte	0x9c
 4219 0634 A6060000 		.4byte	0x6a6
 4220 0638 1F       		.uleb128 0x1f
 4221 0639 6200     		.ascii	"b\000"
 4222 063b 02       		.byte	0x2
 4223 063c 84       		.byte	0x84
 4224 063d 2C000000 		.4byte	0x2c
 4225 0641 33010000 		.4byte	.LLST7
 4226 0645 1A       		.uleb128 0x1a
 4227 0646 12000000 		.4byte	.LVL20
 4228 064a 41050000 		.4byte	0x541
 4229 064e 5E060000 		.4byte	0x65e
 4230 0652 1B       		.uleb128 0x1b
 4231 0653 01       		.uleb128 0x1
 4232 0654 51       		.byte	0x51
 4233 0655 01       		.uleb128 0x1
 4234 0656 30       		.byte	0x30
 4235 0657 1B       		.uleb128 0x1b
 4236 0658 01       		.uleb128 0x1
 4237 0659 50       		.byte	0x50
 4238 065a 02       		.uleb128 0x2
 4239 065b 08       		.byte	0x8
 4240 065c 40       		.byte	0x40
 4241 065d 00       		.byte	0
 4242 065e 1A       		.uleb128 0x1a
 4243 065f 1A000000 		.4byte	.LVL21
 4244 0663 41050000 		.4byte	0x541
 4245 0667 77060000 		.4byte	0x677
 4246 066b 1B       		.uleb128 0x1b
 4247 066c 01       		.uleb128 0x1
 4248 066d 51       		.byte	0x51
 4249 066e 01       		.uleb128 0x1
 4250 066f 30       		.byte	0x30
 4251 0670 1B       		.uleb128 0x1b
 4252 0671 01       		.uleb128 0x1
 4253 0672 50       		.byte	0x50
 4254 0673 02       		.uleb128 0x2
 4255 0674 09       		.byte	0x9
 4256 0675 80       		.byte	0x80
 4257 0676 00       		.byte	0
 4258 0677 1A       		.uleb128 0x1a
 4259 0678 26000000 		.4byte	.LVL24
 4260 067c 41050000 		.4byte	0x541
ARM GAS  C:\Users\Petro\AppData\Local\Temp\cc6W0syg.s 			page 95


 4261 0680 8F060000 		.4byte	0x68f
 4262 0684 1B       		.uleb128 0x1b
 4263 0685 01       		.uleb128 0x1
 4264 0686 51       		.byte	0x51
 4265 0687 01       		.uleb128 0x1
 4266 0688 31       		.byte	0x31
 4267 0689 1B       		.uleb128 0x1b
 4268 068a 01       		.uleb128 0x1
 4269 068b 50       		.byte	0x50
 4270 068c 01       		.uleb128 0x1
 4271 068d 30       		.byte	0x30
 4272 068e 00       		.byte	0
 4273 068f 1C       		.uleb128 0x1c
 4274 0690 32000000 		.4byte	.LVL25
 4275 0694 41050000 		.4byte	0x541
 4276 0698 1B       		.uleb128 0x1b
 4277 0699 01       		.uleb128 0x1
 4278 069a 51       		.byte	0x51
 4279 069b 02       		.uleb128 0x2
 4280 069c 74       		.byte	0x74
 4281 069d 00       		.sleb128 0
 4282 069e 1B       		.uleb128 0x1b
 4283 069f 01       		.uleb128 0x1
 4284 06a0 50       		.byte	0x50
 4285 06a1 02       		.uleb128 0x2
 4286 06a2 08       		.byte	0x8
 4287 06a3 24       		.byte	0x24
 4288 06a4 00       		.byte	0
 4289 06a5 00       		.byte	0
 4290 06a6 20       		.uleb128 0x20
 4291 06a7 D2020000 		.4byte	0x2d2
 4292 06ab 00000000 		.4byte	.LFB69
 4293 06af 38000000 		.4byte	.LFE69-.LFB69
 4294 06b3 01       		.uleb128 0x1
 4295 06b4 9C       		.byte	0x9c
 4296 06b5 10070000 		.4byte	0x710
 4297 06b9 21       		.uleb128 0x21
 4298 06ba 0A000000 		.4byte	.LBB12
 4299 06be 24000000 		.4byte	.LBE12-.LBB12
 4300 06c2 22       		.uleb128 0x22
 4301 06c3 DF020000 		.4byte	0x2df
 4302 06c7 69010000 		.4byte	.LLST8
 4303 06cb 1A       		.uleb128 0x1a
 4304 06cc 12000000 		.4byte	.LVL26
 4305 06d0 41050000 		.4byte	0x541
 4306 06d4 E5060000 		.4byte	0x6e5
 4307 06d8 1B       		.uleb128 0x1b
 4308 06d9 01       		.uleb128 0x1
 4309 06da 51       		.byte	0x51
 4310 06db 02       		.uleb128 0x2
 4311 06dc 74       		.byte	0x74
 4312 06dd 00       		.sleb128 0
 4313 06de 1B       		.uleb128 0x1b
 4314 06df 01       		.uleb128 0x1
 4315 06e0 50       		.byte	0x50
 4316 06e1 02       		.uleb128 0x2
 4317 06e2 08       		.byte	0x8
ARM GAS  C:\Users\Petro\AppData\Local\Temp\cc6W0syg.s 			page 96


 4318 06e3 40       		.byte	0x40
 4319 06e4 00       		.byte	0
 4320 06e5 1A       		.uleb128 0x1a
 4321 06e6 1A000000 		.4byte	.LVL27
 4322 06ea 41050000 		.4byte	0x541
 4323 06ee FF060000 		.4byte	0x6ff
 4324 06f2 1B       		.uleb128 0x1b
 4325 06f3 01       		.uleb128 0x1
 4326 06f4 51       		.byte	0x51
 4327 06f5 02       		.uleb128 0x2
 4328 06f6 74       		.byte	0x74
 4329 06f7 00       		.sleb128 0
 4330 06f8 1B       		.uleb128 0x1b
 4331 06f9 01       		.uleb128 0x1
 4332 06fa 50       		.byte	0x50
 4333 06fb 02       		.uleb128 0x2
 4334 06fc 09       		.byte	0x9
 4335 06fd 80       		.byte	0x80
 4336 06fe 00       		.byte	0
 4337 06ff 1C       		.uleb128 0x1c
 4338 0700 24000000 		.4byte	.LVL28
 4339 0704 41050000 		.4byte	0x541
 4340 0708 1B       		.uleb128 0x1b
 4341 0709 01       		.uleb128 0x1
 4342 070a 51       		.byte	0x51
 4343 070b 01       		.uleb128 0x1
 4344 070c 31       		.byte	0x31
 4345 070d 00       		.byte	0
 4346 070e 00       		.byte	0
 4347 070f 00       		.byte	0
 4348 0710 1E       		.uleb128 0x1e
 4349 0711 CE030000 		.4byte	.LASF99
 4350 0715 02       		.byte	0x2
 4351 0716 8A       		.byte	0x8a
 4352 0717 00000000 		.4byte	.LFB68
 4353 071b 50000000 		.4byte	.LFE68-.LFB68
 4354 071f 01       		.uleb128 0x1
 4355 0720 9C       		.byte	0x9c
 4356 0721 C2070000 		.4byte	0x7c2
 4357 0725 1A       		.uleb128 0x1a
 4358 0726 10000000 		.4byte	.LVL31
 4359 072a 41050000 		.4byte	0x541
 4360 072e 3F070000 		.4byte	0x73f
 4361 0732 1B       		.uleb128 0x1b
 4362 0733 01       		.uleb128 0x1
 4363 0734 51       		.byte	0x51
 4364 0735 02       		.uleb128 0x2
 4365 0736 74       		.byte	0x74
 4366 0737 00       		.sleb128 0
 4367 0738 1B       		.uleb128 0x1b
 4368 0739 01       		.uleb128 0x1
 4369 073a 50       		.byte	0x50
 4370 073b 02       		.uleb128 0x2
 4371 073c 08       		.byte	0x8
 4372 073d 21       		.byte	0x21
 4373 073e 00       		.byte	0
 4374 073f 1A       		.uleb128 0x1a
ARM GAS  C:\Users\Petro\AppData\Local\Temp\cc6W0syg.s 			page 97


 4375 0740 22000000 		.4byte	.LVL32
 4376 0744 41050000 		.4byte	0x541
 4377 0748 53070000 		.4byte	0x753
 4378 074c 1B       		.uleb128 0x1b
 4379 074d 01       		.uleb128 0x1
 4380 074e 51       		.byte	0x51
 4381 074f 02       		.uleb128 0x2
 4382 0750 74       		.byte	0x74
 4383 0751 00       		.sleb128 0
 4384 0752 00       		.byte	0
 4385 0753 1A       		.uleb128 0x1a
 4386 0754 2A000000 		.4byte	.LVL33
 4387 0758 41050000 		.4byte	0x541
 4388 075c 6C070000 		.4byte	0x76c
 4389 0760 1B       		.uleb128 0x1b
 4390 0761 01       		.uleb128 0x1
 4391 0762 51       		.byte	0x51
 4392 0763 02       		.uleb128 0x2
 4393 0764 74       		.byte	0x74
 4394 0765 00       		.sleb128 0
 4395 0766 1B       		.uleb128 0x1b
 4396 0767 01       		.uleb128 0x1
 4397 0768 50       		.byte	0x50
 4398 0769 01       		.uleb128 0x1
 4399 076a 36       		.byte	0x36
 4400 076b 00       		.byte	0
 4401 076c 1A       		.uleb128 0x1a
 4402 076d 32000000 		.4byte	.LVL34
 4403 0771 41050000 		.4byte	0x541
 4404 0775 85070000 		.4byte	0x785
 4405 0779 1B       		.uleb128 0x1b
 4406 077a 01       		.uleb128 0x1
 4407 077b 51       		.byte	0x51
 4408 077c 02       		.uleb128 0x2
 4409 077d 74       		.byte	0x74
 4410 077e 00       		.sleb128 0
 4411 077f 1B       		.uleb128 0x1b
 4412 0780 01       		.uleb128 0x1
 4413 0781 50       		.byte	0x50
 4414 0782 01       		.uleb128 0x1
 4415 0783 43       		.byte	0x43
 4416 0784 00       		.byte	0
 4417 0785 1A       		.uleb128 0x1a
 4418 0786 3A000000 		.4byte	.LVL35
 4419 078a 41050000 		.4byte	0x541
 4420 078e 9F070000 		.4byte	0x79f
 4421 0792 1B       		.uleb128 0x1b
 4422 0793 01       		.uleb128 0x1
 4423 0794 51       		.byte	0x51
 4424 0795 02       		.uleb128 0x2
 4425 0796 74       		.byte	0x74
 4426 0797 00       		.sleb128 0
 4427 0798 1B       		.uleb128 0x1b
 4428 0799 01       		.uleb128 0x1
 4429 079a 50       		.byte	0x50
 4430 079b 02       		.uleb128 0x2
 4431 079c 08       		.byte	0x8
ARM GAS  C:\Users\Petro\AppData\Local\Temp\cc6W0syg.s 			page 98


 4432 079d 20       		.byte	0x20
 4433 079e 00       		.byte	0
 4434 079f 1A       		.uleb128 0x1a
 4435 07a0 42000000 		.4byte	.LVL36
 4436 07a4 41050000 		.4byte	0x541
 4437 07a8 B8070000 		.4byte	0x7b8
 4438 07ac 1B       		.uleb128 0x1b
 4439 07ad 01       		.uleb128 0x1
 4440 07ae 51       		.byte	0x51
 4441 07af 02       		.uleb128 0x2
 4442 07b0 74       		.byte	0x74
 4443 07b1 00       		.sleb128 0
 4444 07b2 1B       		.uleb128 0x1b
 4445 07b3 01       		.uleb128 0x1
 4446 07b4 50       		.byte	0x50
 4447 07b5 01       		.uleb128 0x1
 4448 07b6 3C       		.byte	0x3c
 4449 07b7 00       		.byte	0
 4450 07b8 1D       		.uleb128 0x1d
 4451 07b9 46000000 		.4byte	.LVL37
 4452 07bd D2020000 		.4byte	0x2d2
 4453 07c1 00       		.byte	0
 4454 07c2 1E       		.uleb128 0x1e
 4455 07c3 FF010000 		.4byte	.LASF100
 4456 07c7 02       		.byte	0x2
 4457 07c8 A2       		.byte	0xa2
 4458 07c9 00000000 		.4byte	.LFB70
 4459 07cd 1C000000 		.4byte	.LFE70-.LFB70
 4460 07d1 01       		.uleb128 0x1
 4461 07d2 9C       		.byte	0x9c
 4462 07d3 E5070000 		.4byte	0x7e5
 4463 07d7 1F       		.uleb128 0x1f
 4464 07d8 6300     		.ascii	"c\000"
 4465 07da 02       		.byte	0x2
 4466 07db A4       		.byte	0xa4
 4467 07dc 2C000000 		.4byte	0x2c
 4468 07e0 7C010000 		.4byte	.LLST9
 4469 07e4 00       		.byte	0
 4470 07e5 16       		.uleb128 0x16
 4471 07e6 B9000000 		.4byte	.LASF101
 4472 07ea 02       		.byte	0x2
 4473 07eb 58       		.byte	0x58
 4474 07ec 00000000 		.4byte	.LFB65
 4475 07f0 88000000 		.4byte	.LFE65-.LFB65
 4476 07f4 01       		.uleb128 0x1
 4477 07f5 9C       		.byte	0x9c
 4478 07f6 0A090000 		.4byte	0x90a
 4479 07fa 18       		.uleb128 0x18
 4480 07fb E1090000 		.4byte	.LASF96
 4481 07ff 02       		.byte	0x2
 4482 0800 58       		.byte	0x58
 4483 0801 2C000000 		.4byte	0x2c
 4484 0805 9B010000 		.4byte	.LLST10
 4485 0809 1A       		.uleb128 0x1a
 4486 080a 18000000 		.4byte	.LVL43
 4487 080e B81D0000 		.4byte	0x1db8
 4488 0812 1C080000 		.4byte	0x81c
ARM GAS  C:\Users\Petro\AppData\Local\Temp\cc6W0syg.s 			page 99


 4489 0816 1B       		.uleb128 0x1b
 4490 0817 01       		.uleb128 0x1
 4491 0818 50       		.byte	0x50
 4492 0819 01       		.uleb128 0x1
 4493 081a 30       		.byte	0x30
 4494 081b 00       		.byte	0
 4495 081c 1A       		.uleb128 0x1a
 4496 081d 1E000000 		.4byte	.LVL44
 4497 0821 B81D0000 		.4byte	0x1db8
 4498 0825 2F080000 		.4byte	0x82f
 4499 0829 1B       		.uleb128 0x1b
 4500 082a 01       		.uleb128 0x1
 4501 082b 50       		.byte	0x50
 4502 082c 01       		.uleb128 0x1
 4503 082d 31       		.byte	0x31
 4504 082e 00       		.byte	0
 4505 082f 1A       		.uleb128 0x1a
 4506 0830 26000000 		.4byte	.LVL45
 4507 0834 41050000 		.4byte	0x541
 4508 0838 48080000 		.4byte	0x848
 4509 083c 1B       		.uleb128 0x1b
 4510 083d 01       		.uleb128 0x1
 4511 083e 51       		.byte	0x51
 4512 083f 01       		.uleb128 0x1
 4513 0840 30       		.byte	0x30
 4514 0841 1B       		.uleb128 0x1b
 4515 0842 01       		.uleb128 0x1
 4516 0843 50       		.byte	0x50
 4517 0844 02       		.uleb128 0x2
 4518 0845 08       		.byte	0x8
 4519 0846 21       		.byte	0x21
 4520 0847 00       		.byte	0
 4521 0848 1A       		.uleb128 0x1a
 4522 0849 34000000 		.4byte	.LVL46
 4523 084d 41050000 		.4byte	0x541
 4524 0851 64080000 		.4byte	0x864
 4525 0855 1B       		.uleb128 0x1b
 4526 0856 01       		.uleb128 0x1
 4527 0857 51       		.byte	0x51
 4528 0858 01       		.uleb128 0x1
 4529 0859 30       		.byte	0x30
 4530 085a 1B       		.uleb128 0x1b
 4531 085b 01       		.uleb128 0x1
 4532 085c 50       		.byte	0x50
 4533 085d 05       		.uleb128 0x5
 4534 085e 74       		.byte	0x74
 4535 085f 00       		.sleb128 0
 4536 0860 09       		.byte	0x9
 4537 0861 80       		.byte	0x80
 4538 0862 21       		.byte	0x21
 4539 0863 00       		.byte	0
 4540 0864 1A       		.uleb128 0x1a
 4541 0865 3C000000 		.4byte	.LVL47
 4542 0869 41050000 		.4byte	0x541
 4543 086d 7C080000 		.4byte	0x87c
 4544 0871 1B       		.uleb128 0x1b
 4545 0872 01       		.uleb128 0x1
ARM GAS  C:\Users\Petro\AppData\Local\Temp\cc6W0syg.s 			page 100


 4546 0873 51       		.byte	0x51
 4547 0874 01       		.uleb128 0x1
 4548 0875 30       		.byte	0x30
 4549 0876 1B       		.uleb128 0x1b
 4550 0877 01       		.uleb128 0x1
 4551 0878 50       		.byte	0x50
 4552 0879 01       		.uleb128 0x1
 4553 087a 36       		.byte	0x36
 4554 087b 00       		.byte	0
 4555 087c 1A       		.uleb128 0x1a
 4556 087d 44000000 		.4byte	.LVL48
 4557 0881 41050000 		.4byte	0x541
 4558 0885 94080000 		.4byte	0x894
 4559 0889 1B       		.uleb128 0x1b
 4560 088a 01       		.uleb128 0x1
 4561 088b 51       		.byte	0x51
 4562 088c 01       		.uleb128 0x1
 4563 088d 30       		.byte	0x30
 4564 088e 1B       		.uleb128 0x1b
 4565 088f 01       		.uleb128 0x1
 4566 0890 50       		.byte	0x50
 4567 0891 01       		.uleb128 0x1
 4568 0892 43       		.byte	0x43
 4569 0893 00       		.byte	0
 4570 0894 1A       		.uleb128 0x1a
 4571 0895 4C000000 		.4byte	.LVL49
 4572 0899 41050000 		.4byte	0x541
 4573 089d AD080000 		.4byte	0x8ad
 4574 08a1 1B       		.uleb128 0x1b
 4575 08a2 01       		.uleb128 0x1
 4576 08a3 51       		.byte	0x51
 4577 08a4 01       		.uleb128 0x1
 4578 08a5 30       		.byte	0x30
 4579 08a6 1B       		.uleb128 0x1b
 4580 08a7 01       		.uleb128 0x1
 4581 08a8 50       		.byte	0x50
 4582 08a9 02       		.uleb128 0x2
 4583 08aa 08       		.byte	0x8
 4584 08ab 20       		.byte	0x20
 4585 08ac 00       		.byte	0
 4586 08ad 1A       		.uleb128 0x1a
 4587 08ae 54000000 		.4byte	.LVL50
 4588 08b2 41050000 		.4byte	0x541
 4589 08b6 C6080000 		.4byte	0x8c6
 4590 08ba 1B       		.uleb128 0x1b
 4591 08bb 01       		.uleb128 0x1
 4592 08bc 51       		.byte	0x51
 4593 08bd 01       		.uleb128 0x1
 4594 08be 30       		.byte	0x30
 4595 08bf 1B       		.uleb128 0x1b
 4596 08c0 01       		.uleb128 0x1
 4597 08c1 50       		.byte	0x50
 4598 08c2 02       		.uleb128 0x2
 4599 08c3 08       		.byte	0x8
 4600 08c4 40       		.byte	0x40
 4601 08c5 00       		.byte	0
 4602 08c6 1A       		.uleb128 0x1a
ARM GAS  C:\Users\Petro\AppData\Local\Temp\cc6W0syg.s 			page 101


 4603 08c7 5C000000 		.4byte	.LVL51
 4604 08cb 41050000 		.4byte	0x541
 4605 08cf DF080000 		.4byte	0x8df
 4606 08d3 1B       		.uleb128 0x1b
 4607 08d4 01       		.uleb128 0x1
 4608 08d5 51       		.byte	0x51
 4609 08d6 01       		.uleb128 0x1
 4610 08d7 30       		.byte	0x30
 4611 08d8 1B       		.uleb128 0x1b
 4612 08d9 01       		.uleb128 0x1
 4613 08da 50       		.byte	0x50
 4614 08db 02       		.uleb128 0x2
 4615 08dc 09       		.byte	0x9
 4616 08dd 80       		.byte	0x80
 4617 08de 00       		.byte	0
 4618 08df 1A       		.uleb128 0x1a
 4619 08e0 64000000 		.4byte	.LVL52
 4620 08e4 41050000 		.4byte	0x541
 4621 08e8 F7080000 		.4byte	0x8f7
 4622 08ec 1B       		.uleb128 0x1b
 4623 08ed 01       		.uleb128 0x1
 4624 08ee 51       		.byte	0x51
 4625 08ef 01       		.uleb128 0x1
 4626 08f0 30       		.byte	0x30
 4627 08f1 1B       		.uleb128 0x1b
 4628 08f2 01       		.uleb128 0x1
 4629 08f3 50       		.byte	0x50
 4630 08f4 01       		.uleb128 0x1
 4631 08f5 3C       		.byte	0x3c
 4632 08f6 00       		.byte	0
 4633 08f7 1D       		.uleb128 0x1d
 4634 08f8 68000000 		.4byte	.LVL53
 4635 08fc C2070000 		.4byte	0x7c2
 4636 0900 1D       		.uleb128 0x1d
 4637 0901 6C000000 		.4byte	.LVL54
 4638 0905 D2020000 		.4byte	0x2d2
 4639 0909 00       		.byte	0
 4640 090a 1E       		.uleb128 0x1e
 4641 090b 7D020000 		.4byte	.LASF102
 4642 090f 02       		.byte	0x2
 4643 0910 A9       		.byte	0xa9
 4644 0911 00000000 		.4byte	.LFB71
 4645 0915 18000000 		.4byte	.LFE71-.LFB71
 4646 0919 01       		.uleb128 0x1
 4647 091a 9C       		.byte	0x9c
 4648 091b 2D090000 		.4byte	0x92d
 4649 091f 1F       		.uleb128 0x1f
 4650 0920 6300     		.ascii	"c\000"
 4651 0922 02       		.byte	0x2
 4652 0923 AB       		.byte	0xab
 4653 0924 2C000000 		.4byte	0x2c
 4654 0928 C8010000 		.4byte	.LLST11
 4655 092c 00       		.byte	0
 4656 092d 16       		.uleb128 0x16
 4657 092e FB0A0000 		.4byte	.LASF103
 4658 0932 02       		.byte	0x2
 4659 0933 B0       		.byte	0xb0
ARM GAS  C:\Users\Petro\AppData\Local\Temp\cc6W0syg.s 			page 102


 4660 0934 00000000 		.4byte	.LFB72
 4661 0938 14000000 		.4byte	.LFE72-.LFB72
 4662 093c 01       		.uleb128 0x1
 4663 093d 9C       		.byte	0x9c
 4664 093e 5B090000 		.4byte	0x95b
 4665 0942 18       		.uleb128 0x18
 4666 0943 2B090000 		.4byte	.LASF94
 4667 0947 02       		.byte	0x2
 4668 0948 B0       		.byte	0xb0
 4669 0949 5B090000 		.4byte	0x95b
 4670 094d E7010000 		.4byte	.LLST12
 4671 0951 1D       		.uleb128 0x1d
 4672 0952 12000000 		.4byte	.LVL61
 4673 0956 41050000 		.4byte	0x541
 4674 095a 00       		.byte	0
 4675 095b 02       		.uleb128 0x2
 4676 095c 01       		.byte	0x1
 4677 095d 02       		.byte	0x2
 4678 095e 2C080000 		.4byte	.LASF104
 4679 0962 20       		.uleb128 0x20
 4680 0963 EA020000 		.4byte	0x2ea
 4681 0967 00000000 		.4byte	.LFB73
 4682 096b 28000000 		.4byte	.LFE73-.LFB73
 4683 096f 01       		.uleb128 0x1
 4684 0970 9C       		.byte	0x9c
 4685 0971 CA090000 		.4byte	0x9ca
 4686 0975 23       		.uleb128 0x23
 4687 0976 F6020000 		.4byte	0x2f6
 4688 097a 08020000 		.4byte	.LLST13
 4689 097e 23       		.uleb128 0x23
 4690 097f FF020000 		.4byte	0x2ff
 4691 0983 29020000 		.4byte	.LLST14
 4692 0987 24       		.uleb128 0x24
 4693 0988 08030000 		.4byte	0x308
 4694 098c 24       		.uleb128 0x24
 4695 098d 12030000 		.4byte	0x312
 4696 0991 21       		.uleb128 0x21
 4697 0992 08000000 		.4byte	.LBB15
 4698 0996 1A000000 		.4byte	.LBE15-.LBB15
 4699 099a 23       		.uleb128 0x23
 4700 099b FF020000 		.4byte	0x2ff
 4701 099f 4A020000 		.4byte	.LLST15
 4702 09a3 23       		.uleb128 0x23
 4703 09a4 F6020000 		.4byte	0x2f6
 4704 09a8 6B020000 		.4byte	.LLST16
 4705 09ac 21       		.uleb128 0x21
 4706 09ad 08000000 		.4byte	.LBB16
 4707 09b1 1A000000 		.4byte	.LBE16-.LBB16
 4708 09b5 22       		.uleb128 0x22
 4709 09b6 08030000 		.4byte	0x308
 4710 09ba 8C020000 		.4byte	.LLST17
 4711 09be 22       		.uleb128 0x22
 4712 09bf 12030000 		.4byte	0x312
 4713 09c3 9F020000 		.4byte	.LLST18
 4714 09c7 00       		.byte	0
 4715 09c8 00       		.byte	0
 4716 09c9 00       		.byte	0
ARM GAS  C:\Users\Petro\AppData\Local\Temp\cc6W0syg.s 			page 103


 4717 09ca 20       		.uleb128 0x20
 4718 09cb 1D030000 		.4byte	0x31d
 4719 09cf 00000000 		.4byte	.LFB74
 4720 09d3 28000000 		.4byte	.LFE74-.LFB74
 4721 09d7 01       		.uleb128 0x1
 4722 09d8 9C       		.byte	0x9c
 4723 09d9 320A0000 		.4byte	0xa32
 4724 09dd 23       		.uleb128 0x23
 4725 09de 29030000 		.4byte	0x329
 4726 09e2 CE020000 		.4byte	.LLST19
 4727 09e6 23       		.uleb128 0x23
 4728 09e7 32030000 		.4byte	0x332
 4729 09eb EF020000 		.4byte	.LLST20
 4730 09ef 24       		.uleb128 0x24
 4731 09f0 3B030000 		.4byte	0x33b
 4732 09f4 24       		.uleb128 0x24
 4733 09f5 45030000 		.4byte	0x345
 4734 09f9 21       		.uleb128 0x21
 4735 09fa 08000000 		.4byte	.LBB19
 4736 09fe 1A000000 		.4byte	.LBE19-.LBB19
 4737 0a02 23       		.uleb128 0x23
 4738 0a03 32030000 		.4byte	0x332
 4739 0a07 10030000 		.4byte	.LLST21
 4740 0a0b 23       		.uleb128 0x23
 4741 0a0c 29030000 		.4byte	0x329
 4742 0a10 31030000 		.4byte	.LLST22
 4743 0a14 21       		.uleb128 0x21
 4744 0a15 08000000 		.4byte	.LBB20
 4745 0a19 1A000000 		.4byte	.LBE20-.LBB20
 4746 0a1d 22       		.uleb128 0x22
 4747 0a1e 3B030000 		.4byte	0x33b
 4748 0a22 52030000 		.4byte	.LLST23
 4749 0a26 22       		.uleb128 0x22
 4750 0a27 45030000 		.4byte	0x345
 4751 0a2b 65030000 		.4byte	.LLST24
 4752 0a2f 00       		.byte	0
 4753 0a30 00       		.byte	0
 4754 0a31 00       		.byte	0
 4755 0a32 16       		.uleb128 0x16
 4756 0a33 B4080000 		.4byte	.LASF105
 4757 0a37 02       		.byte	0x2
 4758 0a38 D2       		.byte	0xd2
 4759 0a39 00000000 		.4byte	.LFB75
 4760 0a3d 3C000000 		.4byte	.LFE75-.LFB75
 4761 0a41 01       		.uleb128 0x1
 4762 0a42 9C       		.byte	0x9c
 4763 0a43 7E0A0000 		.4byte	0xa7e
 4764 0a47 17       		.uleb128 0x17
 4765 0a48 7800     		.ascii	"x\000"
 4766 0a4a 02       		.byte	0x2
 4767 0a4b D2       		.byte	0xd2
 4768 0a4c 9A000000 		.4byte	0x9a
 4769 0a50 94030000 		.4byte	.LLST25
 4770 0a54 17       		.uleb128 0x17
 4771 0a55 7900     		.ascii	"y\000"
 4772 0a57 02       		.byte	0x2
 4773 0a58 D2       		.byte	0xd2
ARM GAS  C:\Users\Petro\AppData\Local\Temp\cc6W0syg.s 			page 104


 4774 0a59 9A000000 		.4byte	0x9a
 4775 0a5d B5030000 		.4byte	.LLST26
 4776 0a61 1F       		.uleb128 0x1f
 4777 0a62 627900   		.ascii	"by\000"
 4778 0a65 02       		.byte	0x2
 4779 0a66 D4       		.byte	0xd4
 4780 0a67 2C000000 		.4byte	0x2c
 4781 0a6b D6030000 		.4byte	.LLST27
 4782 0a6f 1F       		.uleb128 0x1f
 4783 0a70 626900   		.ascii	"bi\000"
 4784 0a73 02       		.byte	0x2
 4785 0a74 D4       		.byte	0xd4
 4786 0a75 2C000000 		.4byte	0x2c
 4787 0a79 E9030000 		.4byte	.LLST28
 4788 0a7d 00       		.byte	0
 4789 0a7e 16       		.uleb128 0x16
 4790 0a7f 32020000 		.4byte	.LASF106
 4791 0a83 02       		.byte	0x2
 4792 0a84 E2       		.byte	0xe2
 4793 0a85 00000000 		.4byte	.LFB76
 4794 0a89 14000000 		.4byte	.LFE76-.LFB76
 4795 0a8d 01       		.uleb128 0x1
 4796 0a8e 9C       		.byte	0x9c
 4797 0a8f A10A0000 		.4byte	0xaa1
 4798 0a93 25       		.uleb128 0x25
 4799 0a94 2B090000 		.4byte	.LASF94
 4800 0a98 02       		.byte	0x2
 4801 0a99 E2       		.byte	0xe2
 4802 0a9a 5B090000 		.4byte	0x95b
 4803 0a9e 01       		.uleb128 0x1
 4804 0a9f 50       		.byte	0x50
 4805 0aa0 00       		.byte	0
 4806 0aa1 26       		.uleb128 0x26
 4807 0aa2 E4030000 		.4byte	.LASF107
 4808 0aa6 02       		.byte	0x2
 4809 0aa7 6F01     		.2byte	0x16f
 4810 0aa9 00000000 		.4byte	.LFB81
 4811 0aad 04010000 		.4byte	.LFE81-.LFB81
 4812 0ab1 01       		.uleb128 0x1
 4813 0ab2 9C       		.byte	0x9c
 4814 0ab3 C80B0000 		.4byte	0xbc8
 4815 0ab7 27       		.uleb128 0x27
 4816 0ab8 6300     		.ascii	"c\000"
 4817 0aba 02       		.byte	0x2
 4818 0abb 6F01     		.2byte	0x16f
 4819 0abd 4C000000 		.4byte	0x4c
 4820 0ac1 FC030000 		.4byte	.LLST29
 4821 0ac5 27       		.uleb128 0x27
 4822 0ac6 7800     		.ascii	"x\000"
 4823 0ac8 02       		.byte	0x2
 4824 0ac9 6F01     		.2byte	0x16f
 4825 0acb 2C000000 		.4byte	0x2c
 4826 0acf 36040000 		.4byte	.LLST30
 4827 0ad3 27       		.uleb128 0x27
 4828 0ad4 7900     		.ascii	"y\000"
 4829 0ad6 02       		.byte	0x2
 4830 0ad7 6F01     		.2byte	0x16f
ARM GAS  C:\Users\Petro\AppData\Local\Temp\cc6W0syg.s 			page 105


 4831 0ad9 2C000000 		.4byte	0x2c
 4832 0add 55040000 		.4byte	.LLST31
 4833 0ae1 28       		.uleb128 0x28
 4834 0ae2 1A000000 		.4byte	.LBB21
 4835 0ae6 72000000 		.4byte	.LBE21-.LBB21
 4836 0aea 530B0000 		.4byte	0xb53
 4837 0aee 29       		.uleb128 0x29
 4838 0aef 16090000 		.4byte	.LASF108
 4839 0af3 02       		.byte	0x2
 4840 0af4 7301     		.2byte	0x173
 4841 0af6 2C000000 		.4byte	0x2c
 4842 0afa 74040000 		.4byte	.LLST32
 4843 0afe 29       		.uleb128 0x29
 4844 0aff 82040000 		.4byte	.LASF109
 4845 0b03 02       		.byte	0x2
 4846 0b04 7401     		.2byte	0x174
 4847 0b06 2C000000 		.4byte	0x2c
 4848 0b0a 99040000 		.4byte	.LLST33
 4849 0b0e 21       		.uleb128 0x21
 4850 0b0f 36000000 		.4byte	.LBB22
 4851 0b13 50000000 		.4byte	.LBE22-.LBB22
 4852 0b17 2A       		.uleb128 0x2a
 4853 0b18 636E7400 		.ascii	"cnt\000"
 4854 0b1c 02       		.byte	0x2
 4855 0b1d 7701     		.2byte	0x177
 4856 0b1f 2C000000 		.4byte	0x2c
 4857 0b23 B8040000 		.4byte	.LLST34
 4858 0b27 21       		.uleb128 0x21
 4859 0b28 40000000 		.4byte	.LBB23
 4860 0b2c 40000000 		.4byte	.LBE23-.LBB23
 4861 0b30 2A       		.uleb128 0x2a
 4862 0b31 6200     		.ascii	"b\000"
 4863 0b33 02       		.byte	0x2
 4864 0b34 7A01     		.2byte	0x17a
 4865 0b36 2C000000 		.4byte	0x2c
 4866 0b3a CB040000 		.4byte	.LLST35
 4867 0b3e 1D       		.uleb128 0x1d
 4868 0b3f 74000000 		.4byte	.LVL87
 4869 0b43 1D030000 		.4byte	0x31d
 4870 0b47 1D       		.uleb128 0x1d
 4871 0b48 7A000000 		.4byte	.LVL88
 4872 0b4c EA020000 		.4byte	0x2ea
 4873 0b50 00       		.byte	0
 4874 0b51 00       		.byte	0
 4875 0b52 00       		.byte	0
 4876 0b53 21       		.uleb128 0x21
 4877 0b54 8C000000 		.4byte	.LBB24
 4878 0b58 6E000000 		.4byte	.LBE24-.LBB24
 4879 0b5c 29       		.uleb128 0x29
 4880 0b5d 16090000 		.4byte	.LASF108
 4881 0b61 02       		.byte	0x2
 4882 0b62 8B01     		.2byte	0x18b
 4883 0b64 2C000000 		.4byte	0x2c
 4884 0b68 DE040000 		.4byte	.LLST36
 4885 0b6c 29       		.uleb128 0x29
 4886 0b6d 42060000 		.4byte	.LASF110
 4887 0b71 02       		.byte	0x2
ARM GAS  C:\Users\Petro\AppData\Local\Temp\cc6W0syg.s 			page 106


 4888 0b72 8C01     		.2byte	0x18c
 4889 0b74 2C000000 		.4byte	0x2c
 4890 0b78 F1040000 		.4byte	.LLST37
 4891 0b7c 29       		.uleb128 0x29
 4892 0b7d 0D0A0000 		.4byte	.LASF111
 4893 0b81 02       		.byte	0x2
 4894 0b82 8D01     		.2byte	0x18d
 4895 0b84 2C000000 		.4byte	0x2c
 4896 0b88 05050000 		.4byte	.LLST38
 4897 0b8c 2A       		.uleb128 0x2a
 4898 0b8d 637800   		.ascii	"cx\000"
 4899 0b90 02       		.byte	0x2
 4900 0b91 8E01     		.2byte	0x18e
 4901 0b93 2C000000 		.4byte	0x2c
 4902 0b97 3C050000 		.4byte	.LLST39
 4903 0b9b 21       		.uleb128 0x21
 4904 0b9c A8000000 		.4byte	.LBB25
 4905 0ba0 4E000000 		.4byte	.LBE25-.LBB25
 4906 0ba4 2A       		.uleb128 0x2a
 4907 0ba5 637900   		.ascii	"cy\000"
 4908 0ba8 02       		.byte	0x2
 4909 0ba9 9101     		.2byte	0x191
 4910 0bab 2C000000 		.4byte	0x2c
 4911 0baf 4F050000 		.4byte	.LLST40
 4912 0bb3 1D       		.uleb128 0x1d
 4913 0bb4 DC000000 		.4byte	.LVL97
 4914 0bb8 1D030000 		.4byte	0x31d
 4915 0bbc 1D       		.uleb128 0x1d
 4916 0bbd E2000000 		.4byte	.LVL98
 4917 0bc1 EA020000 		.4byte	0x2ea
 4918 0bc5 00       		.byte	0
 4919 0bc6 00       		.byte	0
 4920 0bc7 00       		.byte	0
 4921 0bc8 16       		.uleb128 0x16
 4922 0bc9 DB010000 		.4byte	.LASF112
 4923 0bcd 02       		.byte	0x2
 4924 0bce EA       		.byte	0xea
 4925 0bcf 00000000 		.4byte	.LFB77
 4926 0bd3 5C000000 		.4byte	.LFE77-.LFB77
 4927 0bd7 01       		.uleb128 0x1
 4928 0bd8 9C       		.byte	0x9c
 4929 0bd9 530C0000 		.4byte	0xc53
 4930 0bdd 17       		.uleb128 0x17
 4931 0bde 737400   		.ascii	"st\000"
 4932 0be1 02       		.byte	0x2
 4933 0be2 EA       		.byte	0xea
 4934 0be3 CA000000 		.4byte	0xca
 4935 0be7 62050000 		.4byte	.LLST41
 4936 0beb 17       		.uleb128 0x17
 4937 0bec 7800     		.ascii	"x\000"
 4938 0bee 02       		.byte	0x2
 4939 0bef EA       		.byte	0xea
 4940 0bf0 2C000000 		.4byte	0x2c
 4941 0bf4 B2050000 		.4byte	.LLST42
 4942 0bf8 17       		.uleb128 0x17
 4943 0bf9 7900     		.ascii	"y\000"
 4944 0bfb 02       		.byte	0x2
ARM GAS  C:\Users\Petro\AppData\Local\Temp\cc6W0syg.s 			page 107


 4945 0bfc EA       		.byte	0xea
 4946 0bfd 2C000000 		.4byte	0x2c
 4947 0c01 F4050000 		.4byte	.LLST43
 4948 0c05 10       		.uleb128 0x10
 4949 0c06 636800   		.ascii	"ch\000"
 4950 0c09 02       		.byte	0x2
 4951 0c0a EC       		.byte	0xec
 4952 0c0b 4C000000 		.4byte	0x4c
 4953 0c0f 1F       		.uleb128 0x1f
 4954 0c10 73746C00 		.ascii	"stl\000"
 4955 0c14 02       		.byte	0x2
 4956 0c15 ED       		.byte	0xed
 4957 0c16 2C000000 		.4byte	0x2c
 4958 0c1a 13060000 		.4byte	.LLST44
 4959 0c1e 1F       		.uleb128 0x1f
 4960 0c1f 636E7400 		.ascii	"cnt\000"
 4961 0c23 02       		.byte	0x2
 4962 0c24 F5       		.byte	0xf5
 4963 0c25 2C000000 		.4byte	0x2c
 4964 0c29 31060000 		.4byte	.LLST45
 4965 0c2d 1A       		.uleb128 0x1a
 4966 0c2e 0C000000 		.4byte	.LVL106
 4967 0c32 C91D0000 		.4byte	0x1dc9
 4968 0c36 410C0000 		.4byte	0xc41
 4969 0c3a 1B       		.uleb128 0x1b
 4970 0c3b 01       		.uleb128 0x1
 4971 0c3c 50       		.byte	0x50
 4972 0c3d 02       		.uleb128 0x2
 4973 0c3e 77       		.byte	0x77
 4974 0c3f 00       		.sleb128 0
 4975 0c40 00       		.byte	0
 4976 0c41 1C       		.uleb128 0x1c
 4977 0c42 4A000000 		.4byte	.LVL114
 4978 0c46 A10A0000 		.4byte	0xaa1
 4979 0c4a 1B       		.uleb128 0x1b
 4980 0c4b 01       		.uleb128 0x1
 4981 0c4c 52       		.byte	0x52
 4982 0c4d 03       		.uleb128 0x3
 4983 0c4e 91       		.byte	0x91
 4984 0c4f 64       		.sleb128 -28
 4985 0c50 06       		.byte	0x6
 4986 0c51 00       		.byte	0
 4987 0c52 00       		.byte	0
 4988 0c53 16       		.uleb128 0x16
 4989 0c54 C1000000 		.4byte	.LASF113
 4990 0c58 02       		.byte	0x2
 4991 0c59 FA       		.byte	0xfa
 4992 0c5a 00000000 		.4byte	.LFB78
 4993 0c5e 08000000 		.4byte	.LFE78-.LFB78
 4994 0c62 01       		.uleb128 0x1
 4995 0c63 9C       		.byte	0x9c
 4996 0c64 B00C0000 		.4byte	0xcb0
 4997 0c68 17       		.uleb128 0x17
 4998 0c69 737400   		.ascii	"st\000"
 4999 0c6c 02       		.byte	0x2
 5000 0c6d FA       		.byte	0xfa
 5001 0c6e CA000000 		.4byte	0xca
ARM GAS  C:\Users\Petro\AppData\Local\Temp\cc6W0syg.s 			page 108


 5002 0c72 50060000 		.4byte	.LLST46
 5003 0c76 17       		.uleb128 0x17
 5004 0c77 7800     		.ascii	"x\000"
 5005 0c79 02       		.byte	0x2
 5006 0c7a FA       		.byte	0xfa
 5007 0c7b 2C000000 		.4byte	0x2c
 5008 0c7f 71060000 		.4byte	.LLST47
 5009 0c83 17       		.uleb128 0x17
 5010 0c84 7900     		.ascii	"y\000"
 5011 0c86 02       		.byte	0x2
 5012 0c87 FA       		.byte	0xfa
 5013 0c88 2C000000 		.4byte	0x2c
 5014 0c8c 92060000 		.4byte	.LLST48
 5015 0c90 1C       		.uleb128 0x1c
 5016 0c91 06000000 		.4byte	.LVL120
 5017 0c95 C80B0000 		.4byte	0xbc8
 5018 0c99 1B       		.uleb128 0x1b
 5019 0c9a 01       		.uleb128 0x1
 5020 0c9b 52       		.byte	0x52
 5021 0c9c 03       		.uleb128 0x3
 5022 0c9d F3       		.byte	0xf3
 5023 0c9e 01       		.uleb128 0x1
 5024 0c9f 52       		.byte	0x52
 5025 0ca0 1B       		.uleb128 0x1b
 5026 0ca1 01       		.uleb128 0x1
 5027 0ca2 51       		.byte	0x51
 5028 0ca3 03       		.uleb128 0x3
 5029 0ca4 F3       		.byte	0xf3
 5030 0ca5 01       		.uleb128 0x1
 5031 0ca6 51       		.byte	0x51
 5032 0ca7 1B       		.uleb128 0x1b
 5033 0ca8 01       		.uleb128 0x1
 5034 0ca9 50       		.byte	0x50
 5035 0caa 03       		.uleb128 0x3
 5036 0cab F3       		.byte	0xf3
 5037 0cac 01       		.uleb128 0x1
 5038 0cad 50       		.byte	0x50
 5039 0cae 00       		.byte	0
 5040 0caf 00       		.byte	0
 5041 0cb0 2B       		.uleb128 0x2b
 5042 0cb1 D7090000 		.4byte	.LASF114
 5043 0cb5 02       		.byte	0x2
 5044 0cb6 0201     		.2byte	0x102
 5045 0cb8 00000000 		.4byte	.LFB79
 5046 0cbc CC000000 		.4byte	.LFE79-.LFB79
 5047 0cc0 01       		.uleb128 0x1
 5048 0cc1 9C       		.byte	0x9c
 5049 0cc2 AD0D0000 		.4byte	0xdad
 5050 0cc6 27       		.uleb128 0x27
 5051 0cc7 6E756D00 		.ascii	"num\000"
 5052 0ccb 02       		.byte	0x2
 5053 0ccc 0201     		.2byte	0x102
 5054 0cce 6C000000 		.4byte	0x6c
 5055 0cd2 B3060000 		.4byte	.LLST49
 5056 0cd6 27       		.uleb128 0x27
 5057 0cd7 7800     		.ascii	"x\000"
 5058 0cd9 02       		.byte	0x2
ARM GAS  C:\Users\Petro\AppData\Local\Temp\cc6W0syg.s 			page 109


 5059 0cda 0201     		.2byte	0x102
 5060 0cdc 2C000000 		.4byte	0x2c
 5061 0ce0 16070000 		.4byte	.LLST50
 5062 0ce4 27       		.uleb128 0x27
 5063 0ce5 7900     		.ascii	"y\000"
 5064 0ce7 02       		.byte	0x2
 5065 0ce8 0201     		.2byte	0x102
 5066 0cea 2C000000 		.4byte	0x2c
 5067 0cee 36070000 		.4byte	.LLST51
 5068 0cf2 2C       		.uleb128 0x2c
 5069 0cf3 1F090000 		.4byte	.LASF115
 5070 0cf7 02       		.byte	0x2
 5071 0cf8 0201     		.2byte	0x102
 5072 0cfa 2C000000 		.4byte	0x2c
 5073 0cfe 56070000 		.4byte	.LLST52
 5074 0d02 2C       		.uleb128 0x2c
 5075 0d03 14040000 		.4byte	.LASF116
 5076 0d07 02       		.byte	0x2
 5077 0d08 0201     		.2byte	0x102
 5078 0d0a B1000000 		.4byte	0xb1
 5079 0d0e 82070000 		.4byte	.LLST53
 5080 0d12 2D       		.uleb128 0x2d
 5081 0d13 62756600 		.ascii	"buf\000"
 5082 0d17 02       		.byte	0x2
 5083 0d18 0401     		.2byte	0x104
 5084 0d1a DB000000 		.4byte	0xdb
 5085 0d1e 03       		.uleb128 0x3
 5086 0d1f 91       		.byte	0x91
 5087 0d20 B07F     		.sleb128 -80
 5088 0d22 2D       		.uleb128 0x2d
 5089 0d23 737400   		.ascii	"st\000"
 5090 0d26 02       		.byte	0x2
 5091 0d27 0501     		.2byte	0x105
 5092 0d29 AD0D0000 		.4byte	0xdad
 5093 0d2d 02       		.uleb128 0x2
 5094 0d2e 91       		.byte	0x91
 5095 0d2f 4C       		.sleb128 -52
 5096 0d30 2A       		.uleb128 0x2a
 5097 0d31 6E656700 		.ascii	"neg\000"
 5098 0d35 02       		.byte	0x2
 5099 0d36 0601     		.2byte	0x106
 5100 0d38 5B090000 		.4byte	0x95b
 5101 0d3c AE070000 		.4byte	.LLST54
 5102 0d40 2A       		.uleb128 0x2a
 5103 0d41 6300     		.ascii	"c\000"
 5104 0d43 02       		.byte	0x2
 5105 0d44 0701     		.2byte	0x107
 5106 0d46 2C000000 		.4byte	0x2c
 5107 0d4a D9070000 		.4byte	.LLST55
 5108 0d4e 2A       		.uleb128 0x2a
 5109 0d4f 6600     		.ascii	"f\000"
 5110 0d51 02       		.byte	0x2
 5111 0d52 0701     		.2byte	0x107
 5112 0d54 2C000000 		.4byte	0x2c
 5113 0d58 0F080000 		.4byte	.LLST56
 5114 0d5c 2E       		.uleb128 0x2e
 5115 0d5d 00000000 		.4byte	.Ldebug_ranges0+0
ARM GAS  C:\Users\Petro\AppData\Local\Temp\cc6W0syg.s 			page 110


 5116 0d61 8C0D0000 		.4byte	0xd8c
 5117 0d65 2A       		.uleb128 0x2a
 5118 0d66 6900     		.ascii	"i\000"
 5119 0d68 02       		.byte	0x2
 5120 0d69 3701     		.2byte	0x137
 5121 0d6b 2C000000 		.4byte	0x2c
 5122 0d6f 39080000 		.4byte	.LLST57
 5123 0d73 21       		.uleb128 0x21
 5124 0d74 80000000 		.4byte	.LBB27
 5125 0d78 1C000000 		.4byte	.LBE27-.LBB27
 5126 0d7c 2A       		.uleb128 0x2a
 5127 0d7d 6900     		.ascii	"i\000"
 5128 0d7f 02       		.byte	0x2
 5129 0d80 2F01     		.2byte	0x12f
 5130 0d82 2C000000 		.4byte	0x2c
 5131 0d86 58080000 		.4byte	.LLST58
 5132 0d8a 00       		.byte	0
 5133 0d8b 00       		.byte	0
 5134 0d8c 1C       		.uleb128 0x1c
 5135 0d8d C8000000 		.4byte	.LVL147
 5136 0d91 C80B0000 		.4byte	0xbc8
 5137 0d95 1B       		.uleb128 0x1b
 5138 0d96 01       		.uleb128 0x1
 5139 0d97 52       		.byte	0x52
 5140 0d98 04       		.uleb128 0x4
 5141 0d99 91       		.byte	0x91
 5142 0d9a AC7F     		.sleb128 -84
 5143 0d9c 06       		.byte	0x6
 5144 0d9d 1B       		.uleb128 0x1b
 5145 0d9e 01       		.uleb128 0x1
 5146 0d9f 51       		.byte	0x51
 5147 0da0 04       		.uleb128 0x4
 5148 0da1 91       		.byte	0x91
 5149 0da2 A87F     		.sleb128 -88
 5150 0da4 06       		.byte	0x6
 5151 0da5 1B       		.uleb128 0x1b
 5152 0da6 01       		.uleb128 0x1
 5153 0da7 50       		.byte	0x50
 5154 0da8 02       		.uleb128 0x2
 5155 0da9 91       		.byte	0x91
 5156 0daa 4C       		.sleb128 -52
 5157 0dab 00       		.byte	0
 5158 0dac 00       		.byte	0
 5159 0dad 08       		.uleb128 0x8
 5160 0dae B1000000 		.4byte	0xb1
 5161 0db2 BD0D0000 		.4byte	0xdbd
 5162 0db6 09       		.uleb128 0x9
 5163 0db7 C3000000 		.4byte	0xc3
 5164 0dbb 1A       		.byte	0x1a
 5165 0dbc 00       		.byte	0
 5166 0dbd 2B       		.uleb128 0x2b
 5167 0dbe CD090000 		.4byte	.LASF117
 5168 0dc2 02       		.byte	0x2
 5169 0dc3 4301     		.2byte	0x143
 5170 0dc5 00000000 		.4byte	.LFB80
 5171 0dc9 92000000 		.4byte	.LFE80-.LFB80
 5172 0dcd 01       		.uleb128 0x1
ARM GAS  C:\Users\Petro\AppData\Local\Temp\cc6W0syg.s 			page 111


 5173 0dce 9C       		.byte	0x9c
 5174 0dcf F20E0000 		.4byte	0xef2
 5175 0dd3 27       		.uleb128 0x27
 5176 0dd4 6E756D00 		.ascii	"num\000"
 5177 0dd8 02       		.byte	0x2
 5178 0dd9 4301     		.2byte	0x143
 5179 0ddb 25000000 		.4byte	0x25
 5180 0ddf 6B080000 		.4byte	.LLST59
 5181 0de3 27       		.uleb128 0x27
 5182 0de4 64656300 		.ascii	"dec\000"
 5183 0de8 02       		.byte	0x2
 5184 0de9 4301     		.2byte	0x143
 5185 0deb A5000000 		.4byte	0xa5
 5186 0def 93080000 		.4byte	.LLST60
 5187 0df3 27       		.uleb128 0x27
 5188 0df4 7800     		.ascii	"x\000"
 5189 0df6 02       		.byte	0x2
 5190 0df7 4301     		.2byte	0x143
 5191 0df9 2C000000 		.4byte	0x2c
 5192 0dfd B4080000 		.4byte	.LLST61
 5193 0e01 27       		.uleb128 0x27
 5194 0e02 7900     		.ascii	"y\000"
 5195 0e04 02       		.byte	0x2
 5196 0e05 4301     		.2byte	0x143
 5197 0e07 2C000000 		.4byte	0x2c
 5198 0e0b EB080000 		.4byte	.LLST62
 5199 0e0f 2C       		.uleb128 0x2c
 5200 0e10 190A0000 		.4byte	.LASF118
 5201 0e14 02       		.byte	0x2
 5202 0e15 4301     		.2byte	0x143
 5203 0e17 B1000000 		.4byte	0xb1
 5204 0e1b 23090000 		.4byte	.LLST63
 5205 0e1f 2C       		.uleb128 0x2c
 5206 0e20 1F090000 		.4byte	.LASF115
 5207 0e24 02       		.byte	0x2
 5208 0e25 4301     		.2byte	0x143
 5209 0e27 2C000000 		.4byte	0x2c
 5210 0e2b 5B090000 		.4byte	.LLST64
 5211 0e2f 2C       		.uleb128 0x2c
 5212 0e30 14040000 		.4byte	.LASF116
 5213 0e34 02       		.byte	0x2
 5214 0e35 4301     		.2byte	0x143
 5215 0e37 B1000000 		.4byte	0xb1
 5216 0e3b 93090000 		.4byte	.LLST65
 5217 0e3f 2D       		.uleb128 0x2d
 5218 0e40 737400   		.ascii	"st\000"
 5219 0e43 02       		.byte	0x2
 5220 0e44 4501     		.2byte	0x145
 5221 0e46 AD0D0000 		.4byte	0xdad
 5222 0e4a 02       		.uleb128 0x2
 5223 0e4b 91       		.byte	0x91
 5224 0e4c 4C       		.sleb128 -52
 5225 0e4d 29       		.uleb128 0x29
 5226 0e4e B2020000 		.4byte	.LASF119
 5227 0e52 02       		.byte	0x2
 5228 0e53 4601     		.2byte	0x146
 5229 0e55 8F000000 		.4byte	0x8f
ARM GAS  C:\Users\Petro\AppData\Local\Temp\cc6W0syg.s 			page 112


 5230 0e59 E3090000 		.4byte	.LLST66
 5231 0e5d 15       		.uleb128 0x15
 5232 0e5e 6E656700 		.ascii	"neg\000"
 5233 0e62 02       		.byte	0x2
 5234 0e63 4701     		.2byte	0x147
 5235 0e65 5B090000 		.4byte	0x95b
 5236 0e69 28       		.uleb128 0x28
 5237 0e6a 36000000 		.4byte	.LBB30
 5238 0e6e 14000000 		.4byte	.LBE30-.LBB30
 5239 0e72 850E0000 		.4byte	0xe85
 5240 0e76 2A       		.uleb128 0x2a
 5241 0e77 6900     		.ascii	"i\000"
 5242 0e79 02       		.byte	0x2
 5243 0e7a 5101     		.2byte	0x151
 5244 0e7c 2C000000 		.4byte	0x2c
 5245 0e80 030A0000 		.4byte	.LLST67
 5246 0e84 00       		.byte	0
 5247 0e85 2E       		.uleb128 0x2e
 5248 0e86 20000000 		.4byte	.Ldebug_ranges0+0x20
 5249 0e8a 9D0E0000 		.4byte	0xe9d
 5250 0e8e 2A       		.uleb128 0x2a
 5251 0e8f 6900     		.ascii	"i\000"
 5252 0e91 02       		.byte	0x2
 5253 0e92 5D01     		.2byte	0x15d
 5254 0e94 2C000000 		.4byte	0x2c
 5255 0e98 160A0000 		.4byte	.LLST68
 5256 0e9c 00       		.byte	0
 5257 0e9d 28       		.uleb128 0x28
 5258 0e9e 82000000 		.4byte	.LBB33
 5259 0ea2 10000000 		.4byte	.LBE33-.LBB33
 5260 0ea6 B70E0000 		.4byte	0xeb7
 5261 0eaa 2D       		.uleb128 0x2d
 5262 0eab 6900     		.ascii	"i\000"
 5263 0ead 02       		.byte	0x2
 5264 0eae 6501     		.2byte	0x165
 5265 0eb0 2C000000 		.4byte	0x2c
 5266 0eb4 01       		.uleb128 0x1
 5267 0eb5 50       		.byte	0x50
 5268 0eb6 00       		.byte	0
 5269 0eb7 1A       		.uleb128 0x1a
 5270 0eb8 28000000 		.4byte	.LVL157
 5271 0ebc 8C040000 		.4byte	0x48c
 5272 0ec0 D30E0000 		.4byte	0xed3
 5273 0ec4 1B       		.uleb128 0x1b
 5274 0ec5 01       		.uleb128 0x1
 5275 0ec6 50       		.byte	0x50
 5276 0ec7 02       		.uleb128 0x2
 5277 0ec8 74       		.byte	0x74
 5278 0ec9 00       		.sleb128 0
 5279 0eca 1B       		.uleb128 0x1b
 5280 0ecb 02       		.uleb128 0x2
 5281 0ecc 7D       		.byte	0x7d
 5282 0ecd 00       		.sleb128 0
 5283 0ece 03       		.uleb128 0x3
 5284 0ecf 91       		.byte	0x91
 5285 0ed0 08       		.sleb128 8
 5286 0ed1 06       		.byte	0x6
ARM GAS  C:\Users\Petro\AppData\Local\Temp\cc6W0syg.s 			page 113


 5287 0ed2 00       		.byte	0
 5288 0ed3 1C       		.uleb128 0x1c
 5289 0ed4 7A000000 		.4byte	.LVL167
 5290 0ed8 C80B0000 		.4byte	0xbc8
 5291 0edc 1B       		.uleb128 0x1b
 5292 0edd 01       		.uleb128 0x1
 5293 0ede 52       		.byte	0x52
 5294 0edf 03       		.uleb128 0x3
 5295 0ee0 91       		.byte	0x91
 5296 0ee1 00       		.sleb128 0
 5297 0ee2 06       		.byte	0x6
 5298 0ee3 1B       		.uleb128 0x1b
 5299 0ee4 01       		.uleb128 0x1
 5300 0ee5 51       		.byte	0x51
 5301 0ee6 03       		.uleb128 0x3
 5302 0ee7 91       		.byte	0x91
 5303 0ee8 44       		.sleb128 -60
 5304 0ee9 06       		.byte	0x6
 5305 0eea 1B       		.uleb128 0x1b
 5306 0eeb 01       		.uleb128 0x1
 5307 0eec 50       		.byte	0x50
 5308 0eed 02       		.uleb128 0x2
 5309 0eee 74       		.byte	0x74
 5310 0eef 00       		.sleb128 0
 5311 0ef0 00       		.byte	0
 5312 0ef1 00       		.byte	0
 5313 0ef2 26       		.uleb128 0x26
 5314 0ef3 6C0A0000 		.4byte	.LASF120
 5315 0ef7 02       		.byte	0x2
 5316 0ef8 AA01     		.2byte	0x1aa
 5317 0efa 00000000 		.4byte	.LFB82
 5318 0efe 20000000 		.4byte	.LFE82-.LFB82
 5319 0f02 01       		.uleb128 0x1
 5320 0f03 9C       		.byte	0x9c
 5321 0f04 170F0000 		.4byte	0xf17
 5322 0f08 2F       		.uleb128 0x2f
 5323 0f09 EA090000 		.4byte	.LASF76
 5324 0f0d 02       		.byte	0x2
 5325 0f0e AA01     		.2byte	0x1aa
 5326 0f10 C1020000 		.4byte	0x2c1
 5327 0f14 01       		.uleb128 0x1
 5328 0f15 50       		.byte	0x50
 5329 0f16 00       		.byte	0
 5330 0f17 20       		.uleb128 0x20
 5331 0f18 50030000 		.4byte	0x350
 5332 0f1c 00000000 		.4byte	.LFB83
 5333 0f20 38000000 		.4byte	.LFE83-.LFB83
 5334 0f24 01       		.uleb128 0x1
 5335 0f25 9C       		.byte	0x9c
 5336 0f26 960F0000 		.4byte	0xf96
 5337 0f2a 23       		.uleb128 0x23
 5338 0f2b 5D030000 		.4byte	0x35d
 5339 0f2f 400A0000 		.4byte	.LLST69
 5340 0f33 23       		.uleb128 0x23
 5341 0f34 67030000 		.4byte	0x367
 5342 0f38 610A0000 		.4byte	.LLST70
 5343 0f3c 30       		.uleb128 0x30
ARM GAS  C:\Users\Petro\AppData\Local\Temp\cc6W0syg.s 			page 114


 5344 0f3d 71030000 		.4byte	0x371
 5345 0f41 01       		.uleb128 0x1
 5346 0f42 52       		.byte	0x52
 5347 0f43 24       		.uleb128 0x24
 5348 0f44 7B030000 		.4byte	0x37b
 5349 0f48 24       		.uleb128 0x24
 5350 0f49 86030000 		.4byte	0x386
 5351 0f4d 21       		.uleb128 0x21
 5352 0f4e 0A000000 		.4byte	.LBB38
 5353 0f52 26000000 		.4byte	.LBE38-.LBB38
 5354 0f56 31       		.uleb128 0x31
 5355 0f57 71030000 		.4byte	0x371
 5356 0f5b 31       		.uleb128 0x31
 5357 0f5c 67030000 		.4byte	0x367
 5358 0f60 31       		.uleb128 0x31
 5359 0f61 5D030000 		.4byte	0x35d
 5360 0f65 21       		.uleb128 0x21
 5361 0f66 0A000000 		.4byte	.LBB39
 5362 0f6a 26000000 		.4byte	.LBE39-.LBB39
 5363 0f6e 22       		.uleb128 0x22
 5364 0f6f 7B030000 		.4byte	0x37b
 5365 0f73 820A0000 		.4byte	.LLST71
 5366 0f77 22       		.uleb128 0x22
 5367 0f78 86030000 		.4byte	0x386
 5368 0f7c A10A0000 		.4byte	.LLST72
 5369 0f80 21       		.uleb128 0x21
 5370 0f81 0A000000 		.4byte	.LBB40
 5371 0f85 26000000 		.4byte	.LBE40-.LBB40
 5372 0f89 22       		.uleb128 0x22
 5373 0f8a 92030000 		.4byte	0x392
 5374 0f8e B90A0000 		.4byte	.LLST73
 5375 0f92 00       		.byte	0
 5376 0f93 00       		.byte	0
 5377 0f94 00       		.byte	0
 5378 0f95 00       		.byte	0
 5379 0f96 20       		.uleb128 0x20
 5380 0f97 9F030000 		.4byte	0x39f
 5381 0f9b 00000000 		.4byte	.LFB84
 5382 0f9f 38000000 		.4byte	.LFE84-.LFB84
 5383 0fa3 01       		.uleb128 0x1
 5384 0fa4 9C       		.byte	0x9c
 5385 0fa5 15100000 		.4byte	0x1015
 5386 0fa9 23       		.uleb128 0x23
 5387 0faa AC030000 		.4byte	0x3ac
 5388 0fae CC0A0000 		.4byte	.LLST74
 5389 0fb2 23       		.uleb128 0x23
 5390 0fb3 B6030000 		.4byte	0x3b6
 5391 0fb7 ED0A0000 		.4byte	.LLST75
 5392 0fbb 30       		.uleb128 0x30
 5393 0fbc C0030000 		.4byte	0x3c0
 5394 0fc0 01       		.uleb128 0x1
 5395 0fc1 52       		.byte	0x52
 5396 0fc2 24       		.uleb128 0x24
 5397 0fc3 CA030000 		.4byte	0x3ca
 5398 0fc7 24       		.uleb128 0x24
 5399 0fc8 D5030000 		.4byte	0x3d5
 5400 0fcc 21       		.uleb128 0x21
ARM GAS  C:\Users\Petro\AppData\Local\Temp\cc6W0syg.s 			page 115


 5401 0fcd 0A000000 		.4byte	.LBB45
 5402 0fd1 28000000 		.4byte	.LBE45-.LBB45
 5403 0fd5 31       		.uleb128 0x31
 5404 0fd6 C0030000 		.4byte	0x3c0
 5405 0fda 31       		.uleb128 0x31
 5406 0fdb B6030000 		.4byte	0x3b6
 5407 0fdf 31       		.uleb128 0x31
 5408 0fe0 AC030000 		.4byte	0x3ac
 5409 0fe4 21       		.uleb128 0x21
 5410 0fe5 0A000000 		.4byte	.LBB46
 5411 0fe9 28000000 		.4byte	.LBE46-.LBB46
 5412 0fed 22       		.uleb128 0x22
 5413 0fee CA030000 		.4byte	0x3ca
 5414 0ff2 0E0B0000 		.4byte	.LLST76
 5415 0ff6 22       		.uleb128 0x22
 5416 0ff7 D5030000 		.4byte	0x3d5
 5417 0ffb 2D0B0000 		.4byte	.LLST77
 5418 0fff 21       		.uleb128 0x21
 5419 1000 0A000000 		.4byte	.LBB47
 5420 1004 28000000 		.4byte	.LBE47-.LBB47
 5421 1008 22       		.uleb128 0x22
 5422 1009 E1030000 		.4byte	0x3e1
 5423 100d 450B0000 		.4byte	.LLST78
 5424 1011 00       		.byte	0
 5425 1012 00       		.byte	0
 5426 1013 00       		.byte	0
 5427 1014 00       		.byte	0
 5428 1015 20       		.uleb128 0x20
 5429 1016 EE030000 		.4byte	0x3ee
 5430 101a 00000000 		.4byte	.LFB85
 5431 101e 26000000 		.4byte	.LFE85-.LFB85
 5432 1022 01       		.uleb128 0x1
 5433 1023 9C       		.byte	0x9c
 5434 1024 A7100000 		.4byte	0x10a7
 5435 1028 23       		.uleb128 0x23
 5436 1029 FB030000 		.4byte	0x3fb
 5437 102d 580B0000 		.4byte	.LLST79
 5438 1031 23       		.uleb128 0x23
 5439 1032 05040000 		.4byte	0x405
 5440 1036 840B0000 		.4byte	.LLST80
 5441 103a 23       		.uleb128 0x23
 5442 103b 0F040000 		.4byte	0x40f
 5443 103f B00B0000 		.4byte	.LLST81
 5444 1043 24       		.uleb128 0x24
 5445 1044 19040000 		.4byte	0x419
 5446 1048 24       		.uleb128 0x24
 5447 1049 24040000 		.4byte	0x424
 5448 104d 21       		.uleb128 0x21
 5449 104e 12000000 		.4byte	.LBB52
 5450 1052 12000000 		.4byte	.LBE52-.LBB52
 5451 1056 31       		.uleb128 0x31
 5452 1057 0F040000 		.4byte	0x40f
 5453 105b 31       		.uleb128 0x31
 5454 105c 05040000 		.4byte	0x405
 5455 1060 31       		.uleb128 0x31
 5456 1061 FB030000 		.4byte	0x3fb
 5457 1065 21       		.uleb128 0x21
ARM GAS  C:\Users\Petro\AppData\Local\Temp\cc6W0syg.s 			page 116


 5458 1066 12000000 		.4byte	.LBB53
 5459 106a 12000000 		.4byte	.LBE53-.LBB53
 5460 106e 24       		.uleb128 0x24
 5461 106f 19040000 		.4byte	0x419
 5462 1073 24       		.uleb128 0x24
 5463 1074 24040000 		.4byte	0x424
 5464 1078 21       		.uleb128 0x21
 5465 1079 12000000 		.4byte	.LBB54
 5466 107d 12000000 		.4byte	.LBE54-.LBB54
 5467 1081 22       		.uleb128 0x22
 5468 1082 30040000 		.4byte	0x430
 5469 1086 DC0B0000 		.4byte	.LLST82
 5470 108a 1C       		.uleb128 0x1c
 5471 108b 20000000 		.4byte	.LVL190
 5472 108f EA020000 		.4byte	0x2ea
 5473 1093 1B       		.uleb128 0x1b
 5474 1094 01       		.uleb128 0x1
 5475 1095 51       		.byte	0x51
 5476 1096 05       		.uleb128 0x5
 5477 1097 74       		.byte	0x74
 5478 1098 00       		.sleb128 0
 5479 1099 76       		.byte	0x76
 5480 109a 00       		.sleb128 0
 5481 109b 22       		.byte	0x22
 5482 109c 1B       		.uleb128 0x1b
 5483 109d 01       		.uleb128 0x1
 5484 109e 50       		.byte	0x50
 5485 109f 02       		.uleb128 0x2
 5486 10a0 75       		.byte	0x75
 5487 10a1 00       		.sleb128 0
 5488 10a2 00       		.byte	0
 5489 10a3 00       		.byte	0
 5490 10a4 00       		.byte	0
 5491 10a5 00       		.byte	0
 5492 10a6 00       		.byte	0
 5493 10a7 20       		.uleb128 0x20
 5494 10a8 3D040000 		.4byte	0x43d
 5495 10ac 00000000 		.4byte	.LFB86
 5496 10b0 26000000 		.4byte	.LFE86-.LFB86
 5497 10b4 01       		.uleb128 0x1
 5498 10b5 9C       		.byte	0x9c
 5499 10b6 39110000 		.4byte	0x1139
 5500 10ba 23       		.uleb128 0x23
 5501 10bb 4A040000 		.4byte	0x44a
 5502 10bf EF0B0000 		.4byte	.LLST83
 5503 10c3 23       		.uleb128 0x23
 5504 10c4 54040000 		.4byte	0x454
 5505 10c8 1B0C0000 		.4byte	.LLST84
 5506 10cc 23       		.uleb128 0x23
 5507 10cd 5E040000 		.4byte	0x45e
 5508 10d1 470C0000 		.4byte	.LLST85
 5509 10d5 24       		.uleb128 0x24
 5510 10d6 68040000 		.4byte	0x468
 5511 10da 24       		.uleb128 0x24
 5512 10db 73040000 		.4byte	0x473
 5513 10df 21       		.uleb128 0x21
 5514 10e0 12000000 		.4byte	.LBB59
ARM GAS  C:\Users\Petro\AppData\Local\Temp\cc6W0syg.s 			page 117


 5515 10e4 12000000 		.4byte	.LBE59-.LBB59
 5516 10e8 31       		.uleb128 0x31
 5517 10e9 5E040000 		.4byte	0x45e
 5518 10ed 31       		.uleb128 0x31
 5519 10ee 54040000 		.4byte	0x454
 5520 10f2 31       		.uleb128 0x31
 5521 10f3 4A040000 		.4byte	0x44a
 5522 10f7 21       		.uleb128 0x21
 5523 10f8 12000000 		.4byte	.LBB60
 5524 10fc 12000000 		.4byte	.LBE60-.LBB60
 5525 1100 24       		.uleb128 0x24
 5526 1101 68040000 		.4byte	0x468
 5527 1105 24       		.uleb128 0x24
 5528 1106 73040000 		.4byte	0x473
 5529 110a 21       		.uleb128 0x21
 5530 110b 12000000 		.4byte	.LBB61
 5531 110f 12000000 		.4byte	.LBE61-.LBB61
 5532 1113 22       		.uleb128 0x22
 5533 1114 7F040000 		.4byte	0x47f
 5534 1118 730C0000 		.4byte	.LLST86
 5535 111c 1C       		.uleb128 0x1c
 5536 111d 20000000 		.4byte	.LVL198
 5537 1121 1D030000 		.4byte	0x31d
 5538 1125 1B       		.uleb128 0x1b
 5539 1126 01       		.uleb128 0x1
 5540 1127 51       		.byte	0x51
 5541 1128 05       		.uleb128 0x5
 5542 1129 74       		.byte	0x74
 5543 112a 00       		.sleb128 0
 5544 112b 76       		.byte	0x76
 5545 112c 00       		.sleb128 0
 5546 112d 22       		.byte	0x22
 5547 112e 1B       		.uleb128 0x1b
 5548 112f 01       		.uleb128 0x1
 5549 1130 50       		.byte	0x50
 5550 1131 02       		.uleb128 0x2
 5551 1132 75       		.byte	0x75
 5552 1133 00       		.sleb128 0
 5553 1134 00       		.byte	0
 5554 1135 00       		.byte	0
 5555 1136 00       		.byte	0
 5556 1137 00       		.byte	0
 5557 1138 00       		.byte	0
 5558 1139 2B       		.uleb128 0x2b
 5559 113a DB030000 		.4byte	.LASF121
 5560 113e 02       		.byte	0x2
 5561 113f F201     		.2byte	0x1f2
 5562 1141 00000000 		.4byte	.LFB87
 5563 1145 74010000 		.4byte	.LFE87-.LFB87
 5564 1149 01       		.uleb128 0x1
 5565 114a 9C       		.byte	0x9c
 5566 114b B3120000 		.4byte	0x12b3
 5567 114f 27       		.uleb128 0x27
 5568 1150 783100   		.ascii	"x1\000"
 5569 1153 02       		.byte	0x2
 5570 1154 F201     		.2byte	0x1f2
 5571 1156 2C000000 		.4byte	0x2c
ARM GAS  C:\Users\Petro\AppData\Local\Temp\cc6W0syg.s 			page 118


 5572 115a 860C0000 		.4byte	.LLST87
 5573 115e 27       		.uleb128 0x27
 5574 115f 793100   		.ascii	"y1\000"
 5575 1162 02       		.byte	0x2
 5576 1163 F201     		.2byte	0x1f2
 5577 1165 2C000000 		.4byte	0x2c
 5578 1169 DB0C0000 		.4byte	.LLST88
 5579 116d 27       		.uleb128 0x27
 5580 116e 783200   		.ascii	"x2\000"
 5581 1171 02       		.byte	0x2
 5582 1172 F201     		.2byte	0x1f2
 5583 1174 2C000000 		.4byte	0x2c
 5584 1178 3B0D0000 		.4byte	.LLST89
 5585 117c 27       		.uleb128 0x27
 5586 117d 793200   		.ascii	"y2\000"
 5587 1180 02       		.byte	0x2
 5588 1181 F201     		.2byte	0x1f2
 5589 1183 2C000000 		.4byte	0x2c
 5590 1187 880D0000 		.4byte	.LLST90
 5591 118b 15       		.uleb128 0x15
 5592 118c 746D7000 		.ascii	"tmp\000"
 5593 1190 02       		.byte	0x2
 5594 1191 F401     		.2byte	0x1f4
 5595 1193 2C000000 		.4byte	0x2c
 5596 1197 29       		.uleb128 0x29
 5597 1198 06020000 		.4byte	.LASF122
 5598 119c 02       		.byte	0x2
 5599 119d F501     		.2byte	0x1f5
 5600 119f 25000000 		.4byte	0x25
 5601 11a3 DD0D0000 		.4byte	.LLST91
 5602 11a7 2A       		.uleb128 0x2a
 5603 11a8 747800   		.ascii	"tx\000"
 5604 11ab 02       		.byte	0x2
 5605 11ac F501     		.2byte	0x1f5
 5606 11ae 25000000 		.4byte	0x25
 5607 11b2 1C0E0000 		.4byte	.LLST92
 5608 11b6 2A       		.uleb128 0x2a
 5609 11b7 747900   		.ascii	"ty\000"
 5610 11ba 02       		.byte	0x2
 5611 11bb F501     		.2byte	0x1f5
 5612 11bd 25000000 		.4byte	0x25
 5613 11c1 530E0000 		.4byte	.LLST93
 5614 11c5 15       		.uleb128 0x15
 5615 11c6 6D00     		.ascii	"m\000"
 5616 11c8 02       		.byte	0x2
 5617 11c9 F601     		.2byte	0x1f6
 5618 11cb 25000000 		.4byte	0x25
 5619 11cf 15       		.uleb128 0x15
 5620 11d0 6200     		.ascii	"b\000"
 5621 11d2 02       		.byte	0x2
 5622 11d3 F601     		.2byte	0x1f6
 5623 11d5 25000000 		.4byte	0x25
 5624 11d9 15       		.uleb128 0x15
 5625 11da 647800   		.ascii	"dx\000"
 5626 11dd 02       		.byte	0x2
 5627 11de F601     		.2byte	0x1f6
 5628 11e0 25000000 		.4byte	0x25
ARM GAS  C:\Users\Petro\AppData\Local\Temp\cc6W0syg.s 			page 119


 5629 11e4 15       		.uleb128 0x15
 5630 11e5 647900   		.ascii	"dy\000"
 5631 11e8 02       		.byte	0x2
 5632 11e9 F601     		.2byte	0x1f6
 5633 11eb 25000000 		.4byte	0x25
 5634 11ef 28       		.uleb128 0x28
 5635 11f0 A8000000 		.4byte	.LBB62
 5636 11f4 34000000 		.4byte	.LBE62-.LBB62
 5637 11f8 1B120000 		.4byte	0x121b
 5638 11fc 2A       		.uleb128 0x2a
 5639 11fd 6900     		.ascii	"i\000"
 5640 11ff 02       		.byte	0x2
 5641 1200 2502     		.2byte	0x225
 5642 1202 2C000000 		.4byte	0x2c
 5643 1206 8B0E0000 		.4byte	.LLST94
 5644 120a 1C       		.uleb128 0x1c
 5645 120b C2000000 		.4byte	.LVL234
 5646 120f EA020000 		.4byte	0x2ea
 5647 1213 1B       		.uleb128 0x1b
 5648 1214 01       		.uleb128 0x1
 5649 1215 50       		.byte	0x50
 5650 1216 02       		.uleb128 0x2
 5651 1217 75       		.byte	0x75
 5652 1218 00       		.sleb128 0
 5653 1219 00       		.byte	0
 5654 121a 00       		.byte	0
 5655 121b 28       		.uleb128 0x28
 5656 121c DC000000 		.4byte	.LBB63
 5657 1220 34000000 		.4byte	.LBE63-.LBB63
 5658 1224 47120000 		.4byte	0x1247
 5659 1228 2A       		.uleb128 0x2a
 5660 1229 6900     		.ascii	"i\000"
 5661 122b 02       		.byte	0x2
 5662 122c 2E02     		.2byte	0x22e
 5663 122e 2C000000 		.4byte	0x2c
 5664 1232 B60E0000 		.4byte	.LLST95
 5665 1236 1C       		.uleb128 0x1c
 5666 1237 F6000000 		.4byte	.LVL242
 5667 123b EA020000 		.4byte	0x2ea
 5668 123f 1B       		.uleb128 0x1b
 5669 1240 01       		.uleb128 0x1
 5670 1241 50       		.byte	0x50
 5671 1242 02       		.uleb128 0x2
 5672 1243 75       		.byte	0x75
 5673 1244 00       		.sleb128 0
 5674 1245 00       		.byte	0
 5675 1246 00       		.byte	0
 5676 1247 2E       		.uleb128 0x2e
 5677 1248 38000000 		.4byte	.Ldebug_ranges0+0x38
 5678 124c 6F120000 		.4byte	0x126f
 5679 1250 2A       		.uleb128 0x2a
 5680 1251 6900     		.ascii	"i\000"
 5681 1253 02       		.byte	0x2
 5682 1254 4502     		.2byte	0x245
 5683 1256 2C000000 		.4byte	0x2c
 5684 125a E10E0000 		.4byte	.LLST96
 5685 125e 1C       		.uleb128 0x1c
ARM GAS  C:\Users\Petro\AppData\Local\Temp\cc6W0syg.s 			page 120


 5686 125f 3E010000 		.4byte	.LVL253
 5687 1263 EA020000 		.4byte	0x2ea
 5688 1267 1B       		.uleb128 0x1b
 5689 1268 01       		.uleb128 0x1
 5690 1269 51       		.byte	0x51
 5691 126a 02       		.uleb128 0x2
 5692 126b 75       		.byte	0x75
 5693 126c 00       		.sleb128 0
 5694 126d 00       		.byte	0
 5695 126e 00       		.byte	0
 5696 126f 1A       		.uleb128 0x1a
 5697 1270 44000000 		.4byte	.LVL215
 5698 1274 50030000 		.4byte	0x350
 5699 1278 93120000 		.4byte	0x1293
 5700 127c 1B       		.uleb128 0x1b
 5701 127d 01       		.uleb128 0x1
 5702 127e 52       		.byte	0x52
 5703 127f 06       		.uleb128 0x6
 5704 1280 7D       		.byte	0x7d
 5705 1281 00       		.sleb128 0
 5706 1282 06       		.byte	0x6
 5707 1283 74       		.byte	0x74
 5708 1284 00       		.sleb128 0
 5709 1285 1C       		.byte	0x1c
 5710 1286 1B       		.uleb128 0x1b
 5711 1287 01       		.uleb128 0x1
 5712 1288 51       		.byte	0x51
 5713 1289 02       		.uleb128 0x2
 5714 128a 75       		.byte	0x75
 5715 128b 00       		.sleb128 0
 5716 128c 1B       		.uleb128 0x1b
 5717 128d 01       		.uleb128 0x1
 5718 128e 50       		.byte	0x50
 5719 128f 02       		.uleb128 0x2
 5720 1290 74       		.byte	0x74
 5721 1291 00       		.sleb128 0
 5722 1292 00       		.byte	0
 5723 1293 1C       		.uleb128 0x1c
 5724 1294 5E000000 		.4byte	.LVL220
 5725 1298 EE030000 		.4byte	0x3ee
 5726 129c 1B       		.uleb128 0x1b
 5727 129d 01       		.uleb128 0x1
 5728 129e 52       		.byte	0x52
 5729 129f 05       		.uleb128 0x5
 5730 12a0 76       		.byte	0x76
 5731 12a1 00       		.sleb128 0
 5732 12a2 75       		.byte	0x75
 5733 12a3 00       		.sleb128 0
 5734 12a4 1C       		.byte	0x1c
 5735 12a5 1B       		.uleb128 0x1b
 5736 12a6 01       		.uleb128 0x1
 5737 12a7 51       		.byte	0x51
 5738 12a8 02       		.uleb128 0x2
 5739 12a9 75       		.byte	0x75
 5740 12aa 00       		.sleb128 0
 5741 12ab 1B       		.uleb128 0x1b
 5742 12ac 01       		.uleb128 0x1
ARM GAS  C:\Users\Petro\AppData\Local\Temp\cc6W0syg.s 			page 121


 5743 12ad 50       		.byte	0x50
 5744 12ae 02       		.uleb128 0x2
 5745 12af 74       		.byte	0x74
 5746 12b0 00       		.sleb128 0
 5747 12b1 00       		.byte	0
 5748 12b2 00       		.byte	0
 5749 12b3 2B       		.uleb128 0x2b
 5750 12b4 23000000 		.4byte	.LASF123
 5751 12b8 02       		.byte	0x2
 5752 12b9 5002     		.2byte	0x250
 5753 12bb 00000000 		.4byte	.LFB88
 5754 12bf 74010000 		.4byte	.LFE88-.LFB88
 5755 12c3 01       		.uleb128 0x1
 5756 12c4 9C       		.byte	0x9c
 5757 12c5 2D140000 		.4byte	0x142d
 5758 12c9 27       		.uleb128 0x27
 5759 12ca 783100   		.ascii	"x1\000"
 5760 12cd 02       		.byte	0x2
 5761 12ce 5002     		.2byte	0x250
 5762 12d0 2C000000 		.4byte	0x2c
 5763 12d4 0C0F0000 		.4byte	.LLST97
 5764 12d8 27       		.uleb128 0x27
 5765 12d9 793100   		.ascii	"y1\000"
 5766 12dc 02       		.byte	0x2
 5767 12dd 5002     		.2byte	0x250
 5768 12df 2C000000 		.4byte	0x2c
 5769 12e3 610F0000 		.4byte	.LLST98
 5770 12e7 27       		.uleb128 0x27
 5771 12e8 783200   		.ascii	"x2\000"
 5772 12eb 02       		.byte	0x2
 5773 12ec 5002     		.2byte	0x250
 5774 12ee 2C000000 		.4byte	0x2c
 5775 12f2 C10F0000 		.4byte	.LLST99
 5776 12f6 27       		.uleb128 0x27
 5777 12f7 793200   		.ascii	"y2\000"
 5778 12fa 02       		.byte	0x2
 5779 12fb 5002     		.2byte	0x250
 5780 12fd 2C000000 		.4byte	0x2c
 5781 1301 0E100000 		.4byte	.LLST100
 5782 1305 15       		.uleb128 0x15
 5783 1306 746D7000 		.ascii	"tmp\000"
 5784 130a 02       		.byte	0x2
 5785 130b 5202     		.2byte	0x252
 5786 130d 2C000000 		.4byte	0x2c
 5787 1311 29       		.uleb128 0x29
 5788 1312 06020000 		.4byte	.LASF122
 5789 1316 02       		.byte	0x2
 5790 1317 5302     		.2byte	0x253
 5791 1319 25000000 		.4byte	0x25
 5792 131d 63100000 		.4byte	.LLST101
 5793 1321 2A       		.uleb128 0x2a
 5794 1322 747800   		.ascii	"tx\000"
 5795 1325 02       		.byte	0x2
 5796 1326 5302     		.2byte	0x253
 5797 1328 25000000 		.4byte	0x25
 5798 132c A2100000 		.4byte	.LLST102
 5799 1330 2A       		.uleb128 0x2a
ARM GAS  C:\Users\Petro\AppData\Local\Temp\cc6W0syg.s 			page 122


 5800 1331 747900   		.ascii	"ty\000"
 5801 1334 02       		.byte	0x2
 5802 1335 5302     		.2byte	0x253
 5803 1337 25000000 		.4byte	0x25
 5804 133b D9100000 		.4byte	.LLST103
 5805 133f 15       		.uleb128 0x15
 5806 1340 6D00     		.ascii	"m\000"
 5807 1342 02       		.byte	0x2
 5808 1343 5402     		.2byte	0x254
 5809 1345 25000000 		.4byte	0x25
 5810 1349 15       		.uleb128 0x15
 5811 134a 6200     		.ascii	"b\000"
 5812 134c 02       		.byte	0x2
 5813 134d 5402     		.2byte	0x254
 5814 134f 25000000 		.4byte	0x25
 5815 1353 15       		.uleb128 0x15
 5816 1354 647800   		.ascii	"dx\000"
 5817 1357 02       		.byte	0x2
 5818 1358 5402     		.2byte	0x254
 5819 135a 25000000 		.4byte	0x25
 5820 135e 15       		.uleb128 0x15
 5821 135f 647900   		.ascii	"dy\000"
 5822 1362 02       		.byte	0x2
 5823 1363 5402     		.2byte	0x254
 5824 1365 25000000 		.4byte	0x25
 5825 1369 28       		.uleb128 0x28
 5826 136a A8000000 		.4byte	.LBB66
 5827 136e 34000000 		.4byte	.LBE66-.LBB66
 5828 1372 95130000 		.4byte	0x1395
 5829 1376 2A       		.uleb128 0x2a
 5830 1377 6900     		.ascii	"i\000"
 5831 1379 02       		.byte	0x2
 5832 137a 8302     		.2byte	0x283
 5833 137c 2C000000 		.4byte	0x2c
 5834 1380 11110000 		.4byte	.LLST104
 5835 1384 1C       		.uleb128 0x1c
 5836 1385 C2000000 		.4byte	.LVL292
 5837 1389 1D030000 		.4byte	0x31d
 5838 138d 1B       		.uleb128 0x1b
 5839 138e 01       		.uleb128 0x1
 5840 138f 50       		.byte	0x50
 5841 1390 02       		.uleb128 0x2
 5842 1391 75       		.byte	0x75
 5843 1392 00       		.sleb128 0
 5844 1393 00       		.byte	0
 5845 1394 00       		.byte	0
 5846 1395 28       		.uleb128 0x28
 5847 1396 DC000000 		.4byte	.LBB67
 5848 139a 34000000 		.4byte	.LBE67-.LBB67
 5849 139e C1130000 		.4byte	0x13c1
 5850 13a2 2A       		.uleb128 0x2a
 5851 13a3 6900     		.ascii	"i\000"
 5852 13a5 02       		.byte	0x2
 5853 13a6 8C02     		.2byte	0x28c
 5854 13a8 2C000000 		.4byte	0x2c
 5855 13ac 3C110000 		.4byte	.LLST105
 5856 13b0 1C       		.uleb128 0x1c
ARM GAS  C:\Users\Petro\AppData\Local\Temp\cc6W0syg.s 			page 123


 5857 13b1 F6000000 		.4byte	.LVL300
 5858 13b5 1D030000 		.4byte	0x31d
 5859 13b9 1B       		.uleb128 0x1b
 5860 13ba 01       		.uleb128 0x1
 5861 13bb 50       		.byte	0x50
 5862 13bc 02       		.uleb128 0x2
 5863 13bd 75       		.byte	0x75
 5864 13be 00       		.sleb128 0
 5865 13bf 00       		.byte	0
 5866 13c0 00       		.byte	0
 5867 13c1 2E       		.uleb128 0x2e
 5868 13c2 50000000 		.4byte	.Ldebug_ranges0+0x50
 5869 13c6 E9130000 		.4byte	0x13e9
 5870 13ca 2A       		.uleb128 0x2a
 5871 13cb 6900     		.ascii	"i\000"
 5872 13cd 02       		.byte	0x2
 5873 13ce A302     		.2byte	0x2a3
 5874 13d0 2C000000 		.4byte	0x2c
 5875 13d4 67110000 		.4byte	.LLST106
 5876 13d8 1C       		.uleb128 0x1c
 5877 13d9 3E010000 		.4byte	.LVL311
 5878 13dd 1D030000 		.4byte	0x31d
 5879 13e1 1B       		.uleb128 0x1b
 5880 13e2 01       		.uleb128 0x1
 5881 13e3 51       		.byte	0x51
 5882 13e4 02       		.uleb128 0x2
 5883 13e5 75       		.byte	0x75
 5884 13e6 00       		.sleb128 0
 5885 13e7 00       		.byte	0
 5886 13e8 00       		.byte	0
 5887 13e9 1A       		.uleb128 0x1a
 5888 13ea 44000000 		.4byte	.LVL273
 5889 13ee 9F030000 		.4byte	0x39f
 5890 13f2 0D140000 		.4byte	0x140d
 5891 13f6 1B       		.uleb128 0x1b
 5892 13f7 01       		.uleb128 0x1
 5893 13f8 52       		.byte	0x52
 5894 13f9 06       		.uleb128 0x6
 5895 13fa 7D       		.byte	0x7d
 5896 13fb 00       		.sleb128 0
 5897 13fc 06       		.byte	0x6
 5898 13fd 74       		.byte	0x74
 5899 13fe 00       		.sleb128 0
 5900 13ff 1C       		.byte	0x1c
 5901 1400 1B       		.uleb128 0x1b
 5902 1401 01       		.uleb128 0x1
 5903 1402 51       		.byte	0x51
 5904 1403 02       		.uleb128 0x2
 5905 1404 75       		.byte	0x75
 5906 1405 00       		.sleb128 0
 5907 1406 1B       		.uleb128 0x1b
 5908 1407 01       		.uleb128 0x1
 5909 1408 50       		.byte	0x50
 5910 1409 02       		.uleb128 0x2
 5911 140a 74       		.byte	0x74
 5912 140b 00       		.sleb128 0
 5913 140c 00       		.byte	0
ARM GAS  C:\Users\Petro\AppData\Local\Temp\cc6W0syg.s 			page 124


 5914 140d 1C       		.uleb128 0x1c
 5915 140e 5E000000 		.4byte	.LVL278
 5916 1412 3D040000 		.4byte	0x43d
 5917 1416 1B       		.uleb128 0x1b
 5918 1417 01       		.uleb128 0x1
 5919 1418 52       		.byte	0x52
 5920 1419 05       		.uleb128 0x5
 5921 141a 76       		.byte	0x76
 5922 141b 00       		.sleb128 0
 5923 141c 75       		.byte	0x75
 5924 141d 00       		.sleb128 0
 5925 141e 1C       		.byte	0x1c
 5926 141f 1B       		.uleb128 0x1b
 5927 1420 01       		.uleb128 0x1
 5928 1421 51       		.byte	0x51
 5929 1422 02       		.uleb128 0x2
 5930 1423 75       		.byte	0x75
 5931 1424 00       		.sleb128 0
 5932 1425 1B       		.uleb128 0x1b
 5933 1426 01       		.uleb128 0x1
 5934 1427 50       		.byte	0x50
 5935 1428 02       		.uleb128 0x2
 5936 1429 74       		.byte	0x74
 5937 142a 00       		.sleb128 0
 5938 142b 00       		.byte	0
 5939 142c 00       		.byte	0
 5940 142d 26       		.uleb128 0x26
 5941 142e FC090000 		.4byte	.LASF124
 5942 1432 02       		.byte	0x2
 5943 1433 AE02     		.2byte	0x2ae
 5944 1435 00000000 		.4byte	.LFB89
 5945 1439 4C000000 		.4byte	.LFE89-.LFB89
 5946 143d 01       		.uleb128 0x1
 5947 143e 9C       		.byte	0x9c
 5948 143f 04150000 		.4byte	0x1504
 5949 1443 27       		.uleb128 0x27
 5950 1444 783100   		.ascii	"x1\000"
 5951 1447 02       		.byte	0x2
 5952 1448 AE02     		.2byte	0x2ae
 5953 144a 2C000000 		.4byte	0x2c
 5954 144e 92110000 		.4byte	.LLST107
 5955 1452 27       		.uleb128 0x27
 5956 1453 793100   		.ascii	"y1\000"
 5957 1456 02       		.byte	0x2
 5958 1457 AE02     		.2byte	0x2ae
 5959 1459 2C000000 		.4byte	0x2c
 5960 145d B0110000 		.4byte	.LLST108
 5961 1461 27       		.uleb128 0x27
 5962 1462 783200   		.ascii	"x2\000"
 5963 1465 02       		.byte	0x2
 5964 1466 AE02     		.2byte	0x2ae
 5965 1468 2C000000 		.4byte	0x2c
 5966 146c CE110000 		.4byte	.LLST109
 5967 1470 27       		.uleb128 0x27
 5968 1471 793200   		.ascii	"y2\000"
 5969 1474 02       		.byte	0x2
 5970 1475 AE02     		.2byte	0x2ae
ARM GAS  C:\Users\Petro\AppData\Local\Temp\cc6W0syg.s 			page 125


 5971 1477 2C000000 		.4byte	0x2c
 5972 147b EC110000 		.4byte	.LLST110
 5973 147f 15       		.uleb128 0x15
 5974 1480 746D7000 		.ascii	"tmp\000"
 5975 1484 02       		.byte	0x2
 5976 1485 B002     		.2byte	0x2b0
 5977 1487 2C000000 		.4byte	0x2c
 5978 148b 1A       		.uleb128 0x1a
 5979 148c 2A000000 		.4byte	.LVL324
 5980 1490 50030000 		.4byte	0x350
 5981 1494 AC140000 		.4byte	0x14ac
 5982 1498 1B       		.uleb128 0x1b
 5983 1499 01       		.uleb128 0x1
 5984 149a 52       		.byte	0x52
 5985 149b 03       		.uleb128 0x3
 5986 149c 91       		.byte	0x91
 5987 149d 64       		.sleb128 -28
 5988 149e 06       		.byte	0x6
 5989 149f 1B       		.uleb128 0x1b
 5990 14a0 01       		.uleb128 0x1
 5991 14a1 51       		.byte	0x51
 5992 14a2 02       		.uleb128 0x2
 5993 14a3 74       		.byte	0x74
 5994 14a4 00       		.sleb128 0
 5995 14a5 1B       		.uleb128 0x1b
 5996 14a6 01       		.uleb128 0x1
 5997 14a7 50       		.byte	0x50
 5998 14a8 02       		.uleb128 0x2
 5999 14a9 75       		.byte	0x75
 6000 14aa 00       		.sleb128 0
 6001 14ab 00       		.byte	0
 6002 14ac 1A       		.uleb128 0x1a
 6003 14ad 36000000 		.4byte	.LVL326
 6004 14b1 50030000 		.4byte	0x350
 6005 14b5 C7140000 		.4byte	0x14c7
 6006 14b9 1B       		.uleb128 0x1b
 6007 14ba 01       		.uleb128 0x1
 6008 14bb 52       		.byte	0x52
 6009 14bc 03       		.uleb128 0x3
 6010 14bd 91       		.byte	0x91
 6011 14be 64       		.sleb128 -28
 6012 14bf 06       		.byte	0x6
 6013 14c0 1B       		.uleb128 0x1b
 6014 14c1 01       		.uleb128 0x1
 6015 14c2 50       		.byte	0x50
 6016 14c3 02       		.uleb128 0x2
 6017 14c4 75       		.byte	0x75
 6018 14c5 00       		.sleb128 0
 6019 14c6 00       		.byte	0
 6020 14c7 1A       		.uleb128 0x1a
 6021 14c8 40000000 		.4byte	.LVL327
 6022 14cc EE030000 		.4byte	0x3ee
 6023 14d0 E7140000 		.4byte	0x14e7
 6024 14d4 1B       		.uleb128 0x1b
 6025 14d5 01       		.uleb128 0x1
 6026 14d6 52       		.byte	0x52
 6027 14d7 02       		.uleb128 0x2
ARM GAS  C:\Users\Petro\AppData\Local\Temp\cc6W0syg.s 			page 126


 6028 14d8 77       		.byte	0x77
 6029 14d9 00       		.sleb128 0
 6030 14da 1B       		.uleb128 0x1b
 6031 14db 01       		.uleb128 0x1
 6032 14dc 51       		.byte	0x51
 6033 14dd 02       		.uleb128 0x2
 6034 14de 74       		.byte	0x74
 6035 14df 00       		.sleb128 0
 6036 14e0 1B       		.uleb128 0x1b
 6037 14e1 01       		.uleb128 0x1
 6038 14e2 50       		.byte	0x50
 6039 14e3 02       		.uleb128 0x2
 6040 14e4 75       		.byte	0x75
 6041 14e5 00       		.sleb128 0
 6042 14e6 00       		.byte	0
 6043 14e7 1C       		.uleb128 0x1c
 6044 14e8 4A000000 		.4byte	.LVL328
 6045 14ec EE030000 		.4byte	0x3ee
 6046 14f0 1B       		.uleb128 0x1b
 6047 14f1 01       		.uleb128 0x1
 6048 14f2 52       		.byte	0x52
 6049 14f3 02       		.uleb128 0x2
 6050 14f4 77       		.byte	0x77
 6051 14f5 01       		.sleb128 1
 6052 14f6 1B       		.uleb128 0x1b
 6053 14f7 01       		.uleb128 0x1
 6054 14f8 51       		.byte	0x51
 6055 14f9 02       		.uleb128 0x2
 6056 14fa 74       		.byte	0x74
 6057 14fb 00       		.sleb128 0
 6058 14fc 1B       		.uleb128 0x1b
 6059 14fd 01       		.uleb128 0x1
 6060 14fe 50       		.byte	0x50
 6061 14ff 02       		.uleb128 0x2
 6062 1500 76       		.byte	0x76
 6063 1501 00       		.sleb128 0
 6064 1502 00       		.byte	0
 6065 1503 00       		.byte	0
 6066 1504 26       		.uleb128 0x26
 6067 1505 40080000 		.4byte	.LASF125
 6068 1509 02       		.byte	0x2
 6069 150a C502     		.2byte	0x2c5
 6070 150c 00000000 		.4byte	.LFB90
 6071 1510 4C000000 		.4byte	.LFE90-.LFB90
 6072 1514 01       		.uleb128 0x1
 6073 1515 9C       		.byte	0x9c
 6074 1516 DB150000 		.4byte	0x15db
 6075 151a 27       		.uleb128 0x27
 6076 151b 783100   		.ascii	"x1\000"
 6077 151e 02       		.byte	0x2
 6078 151f C502     		.2byte	0x2c5
 6079 1521 2C000000 		.4byte	0x2c
 6080 1525 15120000 		.4byte	.LLST111
 6081 1529 27       		.uleb128 0x27
 6082 152a 793100   		.ascii	"y1\000"
 6083 152d 02       		.byte	0x2
 6084 152e C502     		.2byte	0x2c5
ARM GAS  C:\Users\Petro\AppData\Local\Temp\cc6W0syg.s 			page 127


 6085 1530 2C000000 		.4byte	0x2c
 6086 1534 33120000 		.4byte	.LLST112
 6087 1538 27       		.uleb128 0x27
 6088 1539 783200   		.ascii	"x2\000"
 6089 153c 02       		.byte	0x2
 6090 153d C502     		.2byte	0x2c5
 6091 153f 2C000000 		.4byte	0x2c
 6092 1543 51120000 		.4byte	.LLST113
 6093 1547 27       		.uleb128 0x27
 6094 1548 793200   		.ascii	"y2\000"
 6095 154b 02       		.byte	0x2
 6096 154c C502     		.2byte	0x2c5
 6097 154e 2C000000 		.4byte	0x2c
 6098 1552 6F120000 		.4byte	.LLST114
 6099 1556 15       		.uleb128 0x15
 6100 1557 746D7000 		.ascii	"tmp\000"
 6101 155b 02       		.byte	0x2
 6102 155c C702     		.2byte	0x2c7
 6103 155e 2C000000 		.4byte	0x2c
 6104 1562 1A       		.uleb128 0x1a
 6105 1563 2A000000 		.4byte	.LVL336
 6106 1567 9F030000 		.4byte	0x39f
 6107 156b 83150000 		.4byte	0x1583
 6108 156f 1B       		.uleb128 0x1b
 6109 1570 01       		.uleb128 0x1
 6110 1571 52       		.byte	0x52
 6111 1572 03       		.uleb128 0x3
 6112 1573 91       		.byte	0x91
 6113 1574 64       		.sleb128 -28
 6114 1575 06       		.byte	0x6
 6115 1576 1B       		.uleb128 0x1b
 6116 1577 01       		.uleb128 0x1
 6117 1578 51       		.byte	0x51
 6118 1579 02       		.uleb128 0x2
 6119 157a 74       		.byte	0x74
 6120 157b 00       		.sleb128 0
 6121 157c 1B       		.uleb128 0x1b
 6122 157d 01       		.uleb128 0x1
 6123 157e 50       		.byte	0x50
 6124 157f 02       		.uleb128 0x2
 6125 1580 75       		.byte	0x75
 6126 1581 00       		.sleb128 0
 6127 1582 00       		.byte	0
 6128 1583 1A       		.uleb128 0x1a
 6129 1584 36000000 		.4byte	.LVL338
 6130 1588 9F030000 		.4byte	0x39f
 6131 158c 9E150000 		.4byte	0x159e
 6132 1590 1B       		.uleb128 0x1b
 6133 1591 01       		.uleb128 0x1
 6134 1592 52       		.byte	0x52
 6135 1593 03       		.uleb128 0x3
 6136 1594 91       		.byte	0x91
 6137 1595 64       		.sleb128 -28
 6138 1596 06       		.byte	0x6
 6139 1597 1B       		.uleb128 0x1b
 6140 1598 01       		.uleb128 0x1
 6141 1599 50       		.byte	0x50
ARM GAS  C:\Users\Petro\AppData\Local\Temp\cc6W0syg.s 			page 128


 6142 159a 02       		.uleb128 0x2
 6143 159b 75       		.byte	0x75
 6144 159c 00       		.sleb128 0
 6145 159d 00       		.byte	0
 6146 159e 1A       		.uleb128 0x1a
 6147 159f 40000000 		.4byte	.LVL339
 6148 15a3 3D040000 		.4byte	0x43d
 6149 15a7 BE150000 		.4byte	0x15be
 6150 15ab 1B       		.uleb128 0x1b
 6151 15ac 01       		.uleb128 0x1
 6152 15ad 52       		.byte	0x52
 6153 15ae 02       		.uleb128 0x2
 6154 15af 77       		.byte	0x77
 6155 15b0 00       		.sleb128 0
 6156 15b1 1B       		.uleb128 0x1b
 6157 15b2 01       		.uleb128 0x1
 6158 15b3 51       		.byte	0x51
 6159 15b4 02       		.uleb128 0x2
 6160 15b5 74       		.byte	0x74
 6161 15b6 00       		.sleb128 0
 6162 15b7 1B       		.uleb128 0x1b
 6163 15b8 01       		.uleb128 0x1
 6164 15b9 50       		.byte	0x50
 6165 15ba 02       		.uleb128 0x2
 6166 15bb 75       		.byte	0x75
 6167 15bc 00       		.sleb128 0
 6168 15bd 00       		.byte	0
 6169 15be 1C       		.uleb128 0x1c
 6170 15bf 4A000000 		.4byte	.LVL340
 6171 15c3 3D040000 		.4byte	0x43d
 6172 15c7 1B       		.uleb128 0x1b
 6173 15c8 01       		.uleb128 0x1
 6174 15c9 52       		.byte	0x52
 6175 15ca 02       		.uleb128 0x2
 6176 15cb 77       		.byte	0x77
 6177 15cc 01       		.sleb128 1
 6178 15cd 1B       		.uleb128 0x1b
 6179 15ce 01       		.uleb128 0x1
 6180 15cf 51       		.byte	0x51
 6181 15d0 02       		.uleb128 0x2
 6182 15d1 74       		.byte	0x74
 6183 15d2 00       		.sleb128 0
 6184 15d3 1B       		.uleb128 0x1b
 6185 15d4 01       		.uleb128 0x1
 6186 15d5 50       		.byte	0x50
 6187 15d6 02       		.uleb128 0x2
 6188 15d7 76       		.byte	0x76
 6189 15d8 00       		.sleb128 0
 6190 15d9 00       		.byte	0
 6191 15da 00       		.byte	0
 6192 15db 26       		.uleb128 0x26
 6193 15dc E3070000 		.4byte	.LASF126
 6194 15e0 02       		.byte	0x2
 6195 15e1 DC02     		.2byte	0x2dc
 6196 15e3 00000000 		.4byte	.LFB91
 6197 15e7 A2000000 		.4byte	.LFE91-.LFB91
 6198 15eb 01       		.uleb128 0x1
ARM GAS  C:\Users\Petro\AppData\Local\Temp\cc6W0syg.s 			page 129


 6199 15ec 9C       		.byte	0x9c
 6200 15ed 24170000 		.4byte	0x1724
 6201 15f1 27       		.uleb128 0x27
 6202 15f2 783100   		.ascii	"x1\000"
 6203 15f5 02       		.byte	0x2
 6204 15f6 DC02     		.2byte	0x2dc
 6205 15f8 2C000000 		.4byte	0x2c
 6206 15fc 98120000 		.4byte	.LLST115
 6207 1600 27       		.uleb128 0x27
 6208 1601 793100   		.ascii	"y1\000"
 6209 1604 02       		.byte	0x2
 6210 1605 DC02     		.2byte	0x2dc
 6211 1607 2C000000 		.4byte	0x2c
 6212 160b B6120000 		.4byte	.LLST116
 6213 160f 27       		.uleb128 0x27
 6214 1610 783200   		.ascii	"x2\000"
 6215 1613 02       		.byte	0x2
 6216 1614 DC02     		.2byte	0x2dc
 6217 1616 2C000000 		.4byte	0x2c
 6218 161a E1120000 		.4byte	.LLST117
 6219 161e 27       		.uleb128 0x27
 6220 161f 793200   		.ascii	"y2\000"
 6221 1622 02       		.byte	0x2
 6222 1623 DC02     		.2byte	0x2dc
 6223 1625 2C000000 		.4byte	0x2c
 6224 1629 00130000 		.4byte	.LLST118
 6225 162d 15       		.uleb128 0x15
 6226 162e 746D7000 		.ascii	"tmp\000"
 6227 1632 02       		.byte	0x2
 6228 1633 DE02     		.2byte	0x2de
 6229 1635 2C000000 		.4byte	0x2c
 6230 1639 1A       		.uleb128 0x1a
 6231 163a 44000000 		.4byte	.LVL348
 6232 163e EA020000 		.4byte	0x2ea
 6233 1642 53160000 		.4byte	0x1653
 6234 1646 1B       		.uleb128 0x1b
 6235 1647 01       		.uleb128 0x1
 6236 1648 51       		.byte	0x51
 6237 1649 02       		.uleb128 0x2
 6238 164a 76       		.byte	0x76
 6239 164b 00       		.sleb128 0
 6240 164c 1B       		.uleb128 0x1b
 6241 164d 01       		.uleb128 0x1
 6242 164e 50       		.byte	0x50
 6243 164f 02       		.uleb128 0x2
 6244 1650 77       		.byte	0x77
 6245 1651 00       		.sleb128 0
 6246 1652 00       		.byte	0
 6247 1653 1A       		.uleb128 0x1a
 6248 1654 54000000 		.4byte	.LVL349
 6249 1658 EA020000 		.4byte	0x2ea
 6250 165c 6F160000 		.4byte	0x166f
 6251 1660 1B       		.uleb128 0x1b
 6252 1661 01       		.uleb128 0x1
 6253 1662 51       		.byte	0x51
 6254 1663 02       		.uleb128 0x2
 6255 1664 76       		.byte	0x76
ARM GAS  C:\Users\Petro\AppData\Local\Temp\cc6W0syg.s 			page 130


 6256 1665 00       		.sleb128 0
 6257 1666 1B       		.uleb128 0x1b
 6258 1667 01       		.uleb128 0x1
 6259 1668 50       		.byte	0x50
 6260 1669 04       		.uleb128 0x4
 6261 166a 91       		.byte	0x91
 6262 166b 64       		.sleb128 -28
 6263 166c 94       		.byte	0x94
 6264 166d 02       		.byte	0x2
 6265 166e 00       		.byte	0
 6266 166f 1A       		.uleb128 0x1a
 6267 1670 62000000 		.4byte	.LVL350
 6268 1674 EA020000 		.4byte	0x2ea
 6269 1678 89160000 		.4byte	0x1689
 6270 167c 1B       		.uleb128 0x1b
 6271 167d 01       		.uleb128 0x1
 6272 167e 51       		.byte	0x51
 6273 167f 02       		.uleb128 0x2
 6274 1680 76       		.byte	0x76
 6275 1681 00       		.sleb128 0
 6276 1682 1B       		.uleb128 0x1b
 6277 1683 01       		.uleb128 0x1
 6278 1684 50       		.byte	0x50
 6279 1685 02       		.uleb128 0x2
 6280 1686 77       		.byte	0x77
 6281 1687 00       		.sleb128 0
 6282 1688 00       		.byte	0
 6283 1689 1A       		.uleb128 0x1a
 6284 168a 6A000000 		.4byte	.LVL351
 6285 168e EA020000 		.4byte	0x2ea
 6286 1692 A5160000 		.4byte	0x16a5
 6287 1696 1B       		.uleb128 0x1b
 6288 1697 01       		.uleb128 0x1
 6289 1698 51       		.byte	0x51
 6290 1699 02       		.uleb128 0x2
 6291 169a 76       		.byte	0x76
 6292 169b 00       		.sleb128 0
 6293 169c 1B       		.uleb128 0x1b
 6294 169d 01       		.uleb128 0x1
 6295 169e 50       		.byte	0x50
 6296 169f 04       		.uleb128 0x4
 6297 16a0 91       		.byte	0x91
 6298 16a1 64       		.sleb128 -28
 6299 16a2 94       		.byte	0x94
 6300 16a3 02       		.byte	0x2
 6301 16a4 00       		.byte	0
 6302 16a5 1A       		.uleb128 0x1a
 6303 16a6 7A000000 		.4byte	.LVL352
 6304 16aa 50030000 		.4byte	0x350
 6305 16ae C5160000 		.4byte	0x16c5
 6306 16b2 1B       		.uleb128 0x1b
 6307 16b3 01       		.uleb128 0x1
 6308 16b4 52       		.byte	0x52
 6309 16b5 02       		.uleb128 0x2
 6310 16b6 76       		.byte	0x76
 6311 16b7 00       		.sleb128 0
 6312 16b8 1B       		.uleb128 0x1b
ARM GAS  C:\Users\Petro\AppData\Local\Temp\cc6W0syg.s 			page 131


 6313 16b9 01       		.uleb128 0x1
 6314 16ba 51       		.byte	0x51
 6315 16bb 02       		.uleb128 0x2
 6316 16bc 74       		.byte	0x74
 6317 16bd 00       		.sleb128 0
 6318 16be 1B       		.uleb128 0x1b
 6319 16bf 01       		.uleb128 0x1
 6320 16c0 50       		.byte	0x50
 6321 16c1 02       		.uleb128 0x2
 6322 16c2 77       		.byte	0x77
 6323 16c3 00       		.sleb128 0
 6324 16c4 00       		.byte	0
 6325 16c5 1A       		.uleb128 0x1a
 6326 16c6 84000000 		.4byte	.LVL353
 6327 16ca 50030000 		.4byte	0x350
 6328 16ce E6160000 		.4byte	0x16e6
 6329 16d2 1B       		.uleb128 0x1b
 6330 16d3 01       		.uleb128 0x1
 6331 16d4 52       		.byte	0x52
 6332 16d5 02       		.uleb128 0x2
 6333 16d6 76       		.byte	0x76
 6334 16d7 00       		.sleb128 0
 6335 16d8 1B       		.uleb128 0x1b
 6336 16d9 01       		.uleb128 0x1
 6337 16da 51       		.byte	0x51
 6338 16db 03       		.uleb128 0x3
 6339 16dc 91       		.byte	0x91
 6340 16dd 58       		.sleb128 -40
 6341 16de 06       		.byte	0x6
 6342 16df 1B       		.uleb128 0x1b
 6343 16e0 01       		.uleb128 0x1
 6344 16e1 50       		.byte	0x50
 6345 16e2 02       		.uleb128 0x2
 6346 16e3 77       		.byte	0x77
 6347 16e4 00       		.sleb128 0
 6348 16e5 00       		.byte	0
 6349 16e6 1A       		.uleb128 0x1a
 6350 16e7 94000000 		.4byte	.LVL355
 6351 16eb EE030000 		.4byte	0x3ee
 6352 16ef 06170000 		.4byte	0x1706
 6353 16f3 1B       		.uleb128 0x1b
 6354 16f4 01       		.uleb128 0x1
 6355 16f5 52       		.byte	0x52
 6356 16f6 02       		.uleb128 0x2
 6357 16f7 76       		.byte	0x76
 6358 16f8 00       		.sleb128 0
 6359 16f9 1B       		.uleb128 0x1b
 6360 16fa 01       		.uleb128 0x1
 6361 16fb 51       		.byte	0x51
 6362 16fc 02       		.uleb128 0x2
 6363 16fd 74       		.byte	0x74
 6364 16fe 00       		.sleb128 0
 6365 16ff 1B       		.uleb128 0x1b
 6366 1700 01       		.uleb128 0x1
 6367 1701 50       		.byte	0x50
 6368 1702 02       		.uleb128 0x2
 6369 1703 75       		.byte	0x75
ARM GAS  C:\Users\Petro\AppData\Local\Temp\cc6W0syg.s 			page 132


 6370 1704 00       		.sleb128 0
 6371 1705 00       		.byte	0
 6372 1706 1C       		.uleb128 0x1c
 6373 1707 9E000000 		.4byte	.LVL356
 6374 170b EE030000 		.4byte	0x3ee
 6375 170f 1B       		.uleb128 0x1b
 6376 1710 01       		.uleb128 0x1
 6377 1711 52       		.byte	0x52
 6378 1712 02       		.uleb128 0x2
 6379 1713 76       		.byte	0x76
 6380 1714 00       		.sleb128 0
 6381 1715 1B       		.uleb128 0x1b
 6382 1716 01       		.uleb128 0x1
 6383 1717 51       		.byte	0x51
 6384 1718 02       		.uleb128 0x2
 6385 1719 74       		.byte	0x74
 6386 171a 00       		.sleb128 0
 6387 171b 1B       		.uleb128 0x1b
 6388 171c 01       		.uleb128 0x1
 6389 171d 50       		.byte	0x50
 6390 171e 03       		.uleb128 0x3
 6391 171f 91       		.byte	0x91
 6392 1720 54       		.sleb128 -44
 6393 1721 06       		.byte	0x6
 6394 1722 00       		.byte	0
 6395 1723 00       		.byte	0
 6396 1724 26       		.uleb128 0x26
 6397 1725 EF090000 		.4byte	.LASF127
 6398 1729 02       		.byte	0x2
 6399 172a F902     		.2byte	0x2f9
 6400 172c 00000000 		.4byte	.LFB92
 6401 1730 A2000000 		.4byte	.LFE92-.LFB92
 6402 1734 01       		.uleb128 0x1
 6403 1735 9C       		.byte	0x9c
 6404 1736 6D180000 		.4byte	0x186d
 6405 173a 27       		.uleb128 0x27
 6406 173b 783100   		.ascii	"x1\000"
 6407 173e 02       		.byte	0x2
 6408 173f F902     		.2byte	0x2f9
 6409 1741 2C000000 		.4byte	0x2c
 6410 1745 1F130000 		.4byte	.LLST119
 6411 1749 27       		.uleb128 0x27
 6412 174a 793100   		.ascii	"y1\000"
 6413 174d 02       		.byte	0x2
 6414 174e F902     		.2byte	0x2f9
 6415 1750 2C000000 		.4byte	0x2c
 6416 1754 3D130000 		.4byte	.LLST120
 6417 1758 27       		.uleb128 0x27
 6418 1759 783200   		.ascii	"x2\000"
 6419 175c 02       		.byte	0x2
 6420 175d F902     		.2byte	0x2f9
 6421 175f 2C000000 		.4byte	0x2c
 6422 1763 68130000 		.4byte	.LLST121
 6423 1767 27       		.uleb128 0x27
 6424 1768 793200   		.ascii	"y2\000"
 6425 176b 02       		.byte	0x2
 6426 176c F902     		.2byte	0x2f9
ARM GAS  C:\Users\Petro\AppData\Local\Temp\cc6W0syg.s 			page 133


 6427 176e 2C000000 		.4byte	0x2c
 6428 1772 87130000 		.4byte	.LLST122
 6429 1776 15       		.uleb128 0x15
 6430 1777 746D7000 		.ascii	"tmp\000"
 6431 177b 02       		.byte	0x2
 6432 177c FB02     		.2byte	0x2fb
 6433 177e 2C000000 		.4byte	0x2c
 6434 1782 1A       		.uleb128 0x1a
 6435 1783 44000000 		.4byte	.LVL362
 6436 1787 1D030000 		.4byte	0x31d
 6437 178b 9C170000 		.4byte	0x179c
 6438 178f 1B       		.uleb128 0x1b
 6439 1790 01       		.uleb128 0x1
 6440 1791 51       		.byte	0x51
 6441 1792 02       		.uleb128 0x2
 6442 1793 76       		.byte	0x76
 6443 1794 00       		.sleb128 0
 6444 1795 1B       		.uleb128 0x1b
 6445 1796 01       		.uleb128 0x1
 6446 1797 50       		.byte	0x50
 6447 1798 02       		.uleb128 0x2
 6448 1799 77       		.byte	0x77
 6449 179a 00       		.sleb128 0
 6450 179b 00       		.byte	0
 6451 179c 1A       		.uleb128 0x1a
 6452 179d 54000000 		.4byte	.LVL363
 6453 17a1 1D030000 		.4byte	0x31d
 6454 17a5 B8170000 		.4byte	0x17b8
 6455 17a9 1B       		.uleb128 0x1b
 6456 17aa 01       		.uleb128 0x1
 6457 17ab 51       		.byte	0x51
 6458 17ac 02       		.uleb128 0x2
 6459 17ad 76       		.byte	0x76
 6460 17ae 00       		.sleb128 0
 6461 17af 1B       		.uleb128 0x1b
 6462 17b0 01       		.uleb128 0x1
 6463 17b1 50       		.byte	0x50
 6464 17b2 04       		.uleb128 0x4
 6465 17b3 91       		.byte	0x91
 6466 17b4 64       		.sleb128 -28
 6467 17b5 94       		.byte	0x94
 6468 17b6 02       		.byte	0x2
 6469 17b7 00       		.byte	0
 6470 17b8 1A       		.uleb128 0x1a
 6471 17b9 62000000 		.4byte	.LVL364
 6472 17bd 1D030000 		.4byte	0x31d
 6473 17c1 D2170000 		.4byte	0x17d2
 6474 17c5 1B       		.uleb128 0x1b
 6475 17c6 01       		.uleb128 0x1
 6476 17c7 51       		.byte	0x51
 6477 17c8 02       		.uleb128 0x2
 6478 17c9 76       		.byte	0x76
 6479 17ca 00       		.sleb128 0
 6480 17cb 1B       		.uleb128 0x1b
 6481 17cc 01       		.uleb128 0x1
 6482 17cd 50       		.byte	0x50
 6483 17ce 02       		.uleb128 0x2
ARM GAS  C:\Users\Petro\AppData\Local\Temp\cc6W0syg.s 			page 134


 6484 17cf 77       		.byte	0x77
 6485 17d0 00       		.sleb128 0
 6486 17d1 00       		.byte	0
 6487 17d2 1A       		.uleb128 0x1a
 6488 17d3 6A000000 		.4byte	.LVL365
 6489 17d7 1D030000 		.4byte	0x31d
 6490 17db EE170000 		.4byte	0x17ee
 6491 17df 1B       		.uleb128 0x1b
 6492 17e0 01       		.uleb128 0x1
 6493 17e1 51       		.byte	0x51
 6494 17e2 02       		.uleb128 0x2
 6495 17e3 76       		.byte	0x76
 6496 17e4 00       		.sleb128 0
 6497 17e5 1B       		.uleb128 0x1b
 6498 17e6 01       		.uleb128 0x1
 6499 17e7 50       		.byte	0x50
 6500 17e8 04       		.uleb128 0x4
 6501 17e9 91       		.byte	0x91
 6502 17ea 64       		.sleb128 -28
 6503 17eb 94       		.byte	0x94
 6504 17ec 02       		.byte	0x2
 6505 17ed 00       		.byte	0
 6506 17ee 1A       		.uleb128 0x1a
 6507 17ef 7A000000 		.4byte	.LVL366
 6508 17f3 9F030000 		.4byte	0x39f
 6509 17f7 0E180000 		.4byte	0x180e
 6510 17fb 1B       		.uleb128 0x1b
 6511 17fc 01       		.uleb128 0x1
 6512 17fd 52       		.byte	0x52
 6513 17fe 02       		.uleb128 0x2
 6514 17ff 76       		.byte	0x76
 6515 1800 00       		.sleb128 0
 6516 1801 1B       		.uleb128 0x1b
 6517 1802 01       		.uleb128 0x1
 6518 1803 51       		.byte	0x51
 6519 1804 02       		.uleb128 0x2
 6520 1805 74       		.byte	0x74
 6521 1806 00       		.sleb128 0
 6522 1807 1B       		.uleb128 0x1b
 6523 1808 01       		.uleb128 0x1
 6524 1809 50       		.byte	0x50
 6525 180a 02       		.uleb128 0x2
 6526 180b 77       		.byte	0x77
 6527 180c 00       		.sleb128 0
 6528 180d 00       		.byte	0
 6529 180e 1A       		.uleb128 0x1a
 6530 180f 84000000 		.4byte	.LVL367
 6531 1813 9F030000 		.4byte	0x39f
 6532 1817 2F180000 		.4byte	0x182f
 6533 181b 1B       		.uleb128 0x1b
 6534 181c 01       		.uleb128 0x1
 6535 181d 52       		.byte	0x52
 6536 181e 02       		.uleb128 0x2
 6537 181f 76       		.byte	0x76
 6538 1820 00       		.sleb128 0
 6539 1821 1B       		.uleb128 0x1b
 6540 1822 01       		.uleb128 0x1
ARM GAS  C:\Users\Petro\AppData\Local\Temp\cc6W0syg.s 			page 135


 6541 1823 51       		.byte	0x51
 6542 1824 03       		.uleb128 0x3
 6543 1825 91       		.byte	0x91
 6544 1826 58       		.sleb128 -40
 6545 1827 06       		.byte	0x6
 6546 1828 1B       		.uleb128 0x1b
 6547 1829 01       		.uleb128 0x1
 6548 182a 50       		.byte	0x50
 6549 182b 02       		.uleb128 0x2
 6550 182c 77       		.byte	0x77
 6551 182d 00       		.sleb128 0
 6552 182e 00       		.byte	0
 6553 182f 1A       		.uleb128 0x1a
 6554 1830 94000000 		.4byte	.LVL369
 6555 1834 3D040000 		.4byte	0x43d
 6556 1838 4F180000 		.4byte	0x184f
 6557 183c 1B       		.uleb128 0x1b
 6558 183d 01       		.uleb128 0x1
 6559 183e 52       		.byte	0x52
 6560 183f 02       		.uleb128 0x2
 6561 1840 76       		.byte	0x76
 6562 1841 00       		.sleb128 0
 6563 1842 1B       		.uleb128 0x1b
 6564 1843 01       		.uleb128 0x1
 6565 1844 51       		.byte	0x51
 6566 1845 02       		.uleb128 0x2
 6567 1846 74       		.byte	0x74
 6568 1847 00       		.sleb128 0
 6569 1848 1B       		.uleb128 0x1b
 6570 1849 01       		.uleb128 0x1
 6571 184a 50       		.byte	0x50
 6572 184b 02       		.uleb128 0x2
 6573 184c 75       		.byte	0x75
 6574 184d 00       		.sleb128 0
 6575 184e 00       		.byte	0
 6576 184f 1C       		.uleb128 0x1c
 6577 1850 9E000000 		.4byte	.LVL370
 6578 1854 3D040000 		.4byte	0x43d
 6579 1858 1B       		.uleb128 0x1b
 6580 1859 01       		.uleb128 0x1
 6581 185a 52       		.byte	0x52
 6582 185b 02       		.uleb128 0x2
 6583 185c 76       		.byte	0x76
 6584 185d 00       		.sleb128 0
 6585 185e 1B       		.uleb128 0x1b
 6586 185f 01       		.uleb128 0x1
 6587 1860 51       		.byte	0x51
 6588 1861 02       		.uleb128 0x2
 6589 1862 74       		.byte	0x74
 6590 1863 00       		.sleb128 0
 6591 1864 1B       		.uleb128 0x1b
 6592 1865 01       		.uleb128 0x1
 6593 1866 50       		.byte	0x50
 6594 1867 03       		.uleb128 0x3
 6595 1868 91       		.byte	0x91
 6596 1869 54       		.sleb128 -44
 6597 186a 06       		.byte	0x6
ARM GAS  C:\Users\Petro\AppData\Local\Temp\cc6W0syg.s 			page 136


 6598 186b 00       		.byte	0
 6599 186c 00       		.byte	0
 6600 186d 26       		.uleb128 0x26
 6601 186e D8070000 		.4byte	.LASF128
 6602 1872 02       		.byte	0x2
 6603 1873 1603     		.2byte	0x316
 6604 1875 00000000 		.4byte	.LFB93
 6605 1879 06010000 		.4byte	.LFE93-.LFB93
 6606 187d 01       		.uleb128 0x1
 6607 187e 9C       		.byte	0x9c
 6608 187f 581A0000 		.4byte	0x1a58
 6609 1883 27       		.uleb128 0x27
 6610 1884 7800     		.ascii	"x\000"
 6611 1886 02       		.byte	0x2
 6612 1887 1603     		.2byte	0x316
 6613 1889 2C000000 		.4byte	0x2c
 6614 188d A6130000 		.4byte	.LLST123
 6615 1891 27       		.uleb128 0x27
 6616 1892 7900     		.ascii	"y\000"
 6617 1894 02       		.byte	0x2
 6618 1895 1603     		.2byte	0x316
 6619 1897 2C000000 		.4byte	0x2c
 6620 189b C7130000 		.4byte	.LLST124
 6621 189f 2C       		.uleb128 0x2c
 6622 18a0 3B060000 		.4byte	.LASF129
 6623 18a4 02       		.byte	0x2
 6624 18a5 1603     		.2byte	0x316
 6625 18a7 2C000000 		.4byte	0x2c
 6626 18ab E8130000 		.4byte	.LLST125
 6627 18af 2A       		.uleb128 0x2a
 6628 18b0 6600     		.ascii	"f\000"
 6629 18b2 02       		.byte	0x2
 6630 18b3 1803     		.2byte	0x318
 6631 18b5 2C000000 		.4byte	0x2c
 6632 18b9 15140000 		.4byte	.LLST126
 6633 18bd 29       		.uleb128 0x29
 6634 18be E6040000 		.4byte	.LASF130
 6635 18c2 02       		.byte	0x2
 6636 18c3 1903     		.2byte	0x319
 6637 18c5 2C000000 		.4byte	0x2c
 6638 18c9 4B140000 		.4byte	.LLST127
 6639 18cd 29       		.uleb128 0x29
 6640 18ce EC040000 		.4byte	.LASF131
 6641 18d2 02       		.byte	0x2
 6642 18d3 1A03     		.2byte	0x31a
 6643 18d5 2C000000 		.4byte	0x2c
 6644 18d9 C2140000 		.4byte	.LLST128
 6645 18dd 2A       		.uleb128 0x2a
 6646 18de 783100   		.ascii	"x1\000"
 6647 18e1 02       		.byte	0x2
 6648 18e2 1B03     		.2byte	0x31b
 6649 18e4 2C000000 		.4byte	0x2c
 6650 18e8 03150000 		.4byte	.LLST129
 6651 18ec 2A       		.uleb128 0x2a
 6652 18ed 793100   		.ascii	"y1\000"
 6653 18f0 02       		.byte	0x2
 6654 18f1 1C03     		.2byte	0x31c
ARM GAS  C:\Users\Petro\AppData\Local\Temp\cc6W0syg.s 			page 137


 6655 18f3 2C000000 		.4byte	0x2c
 6656 18f7 45150000 		.4byte	.LLST130
 6657 18fb 15       		.uleb128 0x15
 6658 18fc 636800   		.ascii	"ch\000"
 6659 18ff 02       		.byte	0x2
 6660 1900 1D03     		.2byte	0x31d
 6661 1902 B1000000 		.4byte	0xb1
 6662 1906 15       		.uleb128 0x15
 6663 1907 636C00   		.ascii	"cl\000"
 6664 190a 02       		.byte	0x2
 6665 190b 1D03     		.2byte	0x31d
 6666 190d B1000000 		.4byte	0xb1
 6667 1911 1A       		.uleb128 0x1a
 6668 1912 26000000 		.4byte	.LVL380
 6669 1916 EA020000 		.4byte	0x2ea
 6670 191a 30190000 		.4byte	0x1930
 6671 191e 1B       		.uleb128 0x1b
 6672 191f 01       		.uleb128 0x1
 6673 1920 51       		.byte	0x51
 6674 1921 05       		.uleb128 0x5
 6675 1922 75       		.byte	0x75
 6676 1923 00       		.sleb128 0
 6677 1924 74       		.byte	0x74
 6678 1925 00       		.sleb128 0
 6679 1926 22       		.byte	0x22
 6680 1927 1B       		.uleb128 0x1b
 6681 1928 01       		.uleb128 0x1
 6682 1929 50       		.byte	0x50
 6683 192a 04       		.uleb128 0x4
 6684 192b 91       		.byte	0x91
 6685 192c 4C       		.sleb128 -52
 6686 192d 94       		.byte	0x94
 6687 192e 02       		.byte	0x2
 6688 192f 00       		.byte	0
 6689 1930 1A       		.uleb128 0x1a
 6690 1931 30000000 		.4byte	.LVL381
 6691 1935 EA020000 		.4byte	0x2ea
 6692 1939 4F190000 		.4byte	0x194f
 6693 193d 1B       		.uleb128 0x1b
 6694 193e 01       		.uleb128 0x1
 6695 193f 51       		.byte	0x51
 6696 1940 05       		.uleb128 0x5
 6697 1941 74       		.byte	0x74
 6698 1942 00       		.sleb128 0
 6699 1943 75       		.byte	0x75
 6700 1944 00       		.sleb128 0
 6701 1945 1C       		.byte	0x1c
 6702 1946 1B       		.uleb128 0x1b
 6703 1947 01       		.uleb128 0x1
 6704 1948 50       		.byte	0x50
 6705 1949 04       		.uleb128 0x4
 6706 194a 91       		.byte	0x91
 6707 194b 4C       		.sleb128 -52
 6708 194c 94       		.byte	0x94
 6709 194d 02       		.byte	0x2
 6710 194e 00       		.byte	0
 6711 194f 1A       		.uleb128 0x1a
ARM GAS  C:\Users\Petro\AppData\Local\Temp\cc6W0syg.s 			page 138


 6712 1950 3C000000 		.4byte	.LVL382
 6713 1954 EA020000 		.4byte	0x2ea
 6714 1958 6D190000 		.4byte	0x196d
 6715 195c 1B       		.uleb128 0x1b
 6716 195d 01       		.uleb128 0x1
 6717 195e 51       		.byte	0x51
 6718 195f 02       		.uleb128 0x2
 6719 1960 74       		.byte	0x74
 6720 1961 00       		.sleb128 0
 6721 1962 1B       		.uleb128 0x1b
 6722 1963 01       		.uleb128 0x1
 6723 1964 50       		.byte	0x50
 6724 1965 06       		.uleb128 0x6
 6725 1966 75       		.byte	0x75
 6726 1967 00       		.sleb128 0
 6727 1968 91       		.byte	0x91
 6728 1969 4C       		.sleb128 -52
 6729 196a 06       		.byte	0x6
 6730 196b 22       		.byte	0x22
 6731 196c 00       		.byte	0
 6732 196d 1A       		.uleb128 0x1a
 6733 196e 48000000 		.4byte	.LVL383
 6734 1972 EA020000 		.4byte	0x2ea
 6735 1976 8B190000 		.4byte	0x198b
 6736 197a 1B       		.uleb128 0x1b
 6737 197b 01       		.uleb128 0x1
 6738 197c 51       		.byte	0x51
 6739 197d 02       		.uleb128 0x2
 6740 197e 74       		.byte	0x74
 6741 197f 00       		.sleb128 0
 6742 1980 1B       		.uleb128 0x1b
 6743 1981 01       		.uleb128 0x1
 6744 1982 50       		.byte	0x50
 6745 1983 06       		.uleb128 0x6
 6746 1984 91       		.byte	0x91
 6747 1985 4C       		.sleb128 -52
 6748 1986 06       		.byte	0x6
 6749 1987 75       		.byte	0x75
 6750 1988 00       		.sleb128 0
 6751 1989 1C       		.byte	0x1c
 6752 198a 00       		.byte	0
 6753 198b 1A       		.uleb128 0x1a
 6754 198c 9E000000 		.4byte	.LVL396
 6755 1990 EA020000 		.4byte	0x2ea
 6756 1994 A5190000 		.4byte	0x19a5
 6757 1998 1B       		.uleb128 0x1b
 6758 1999 01       		.uleb128 0x1
 6759 199a 51       		.byte	0x51
 6760 199b 02       		.uleb128 0x2
 6761 199c 75       		.byte	0x75
 6762 199d 00       		.sleb128 0
 6763 199e 1B       		.uleb128 0x1b
 6764 199f 01       		.uleb128 0x1
 6765 19a0 50       		.byte	0x50
 6766 19a1 02       		.uleb128 0x2
 6767 19a2 77       		.byte	0x77
 6768 19a3 00       		.sleb128 0
ARM GAS  C:\Users\Petro\AppData\Local\Temp\cc6W0syg.s 			page 139


 6769 19a4 00       		.byte	0
 6770 19a5 1A       		.uleb128 0x1a
 6771 19a6 AE000000 		.4byte	.LVL397
 6772 19aa EA020000 		.4byte	0x2ea
 6773 19ae BF190000 		.4byte	0x19bf
 6774 19b2 1B       		.uleb128 0x1b
 6775 19b3 01       		.uleb128 0x1
 6776 19b4 51       		.byte	0x51
 6777 19b5 02       		.uleb128 0x2
 6778 19b6 75       		.byte	0x75
 6779 19b7 00       		.sleb128 0
 6780 19b8 1B       		.uleb128 0x1b
 6781 19b9 01       		.uleb128 0x1
 6782 19ba 50       		.byte	0x50
 6783 19bb 02       		.uleb128 0x2
 6784 19bc 76       		.byte	0x76
 6785 19bd 00       		.sleb128 0
 6786 19be 00       		.byte	0
 6787 19bf 1A       		.uleb128 0x1a
 6788 19c0 BC000000 		.4byte	.LVL398
 6789 19c4 EA020000 		.4byte	0x2ea
 6790 19c8 D9190000 		.4byte	0x19d9
 6791 19cc 1B       		.uleb128 0x1b
 6792 19cd 01       		.uleb128 0x1
 6793 19ce 51       		.byte	0x51
 6794 19cf 02       		.uleb128 0x2
 6795 19d0 75       		.byte	0x75
 6796 19d1 00       		.sleb128 0
 6797 19d2 1B       		.uleb128 0x1b
 6798 19d3 01       		.uleb128 0x1
 6799 19d4 50       		.byte	0x50
 6800 19d5 02       		.uleb128 0x2
 6801 19d6 77       		.byte	0x77
 6802 19d7 00       		.sleb128 0
 6803 19d8 00       		.byte	0
 6804 19d9 1A       		.uleb128 0x1a
 6805 19da C4000000 		.4byte	.LVL399
 6806 19de EA020000 		.4byte	0x2ea
 6807 19e2 F3190000 		.4byte	0x19f3
 6808 19e6 1B       		.uleb128 0x1b
 6809 19e7 01       		.uleb128 0x1
 6810 19e8 51       		.byte	0x51
 6811 19e9 02       		.uleb128 0x2
 6812 19ea 75       		.byte	0x75
 6813 19eb 00       		.sleb128 0
 6814 19ec 1B       		.uleb128 0x1b
 6815 19ed 01       		.uleb128 0x1
 6816 19ee 50       		.byte	0x50
 6817 19ef 02       		.uleb128 0x2
 6818 19f0 76       		.byte	0x76
 6819 19f1 00       		.sleb128 0
 6820 19f2 00       		.byte	0
 6821 19f3 1A       		.uleb128 0x1a
 6822 19f4 DA000000 		.4byte	.LVL400
 6823 19f8 EA020000 		.4byte	0x2ea
 6824 19fc 0D1A0000 		.4byte	0x1a0d
 6825 1a00 1B       		.uleb128 0x1b
ARM GAS  C:\Users\Petro\AppData\Local\Temp\cc6W0syg.s 			page 140


 6826 1a01 01       		.uleb128 0x1
 6827 1a02 51       		.byte	0x51
 6828 1a03 02       		.uleb128 0x2
 6829 1a04 75       		.byte	0x75
 6830 1a05 00       		.sleb128 0
 6831 1a06 1B       		.uleb128 0x1b
 6832 1a07 01       		.uleb128 0x1
 6833 1a08 50       		.byte	0x50
 6834 1a09 02       		.uleb128 0x2
 6835 1a0a 77       		.byte	0x77
 6836 1a0b 00       		.sleb128 0
 6837 1a0c 00       		.byte	0
 6838 1a0d 1A       		.uleb128 0x1a
 6839 1a0e EA000000 		.4byte	.LVL401
 6840 1a12 EA020000 		.4byte	0x2ea
 6841 1a16 271A0000 		.4byte	0x1a27
 6842 1a1a 1B       		.uleb128 0x1b
 6843 1a1b 01       		.uleb128 0x1
 6844 1a1c 51       		.byte	0x51
 6845 1a1d 02       		.uleb128 0x2
 6846 1a1e 75       		.byte	0x75
 6847 1a1f 00       		.sleb128 0
 6848 1a20 1B       		.uleb128 0x1b
 6849 1a21 01       		.uleb128 0x1
 6850 1a22 50       		.byte	0x50
 6851 1a23 02       		.uleb128 0x2
 6852 1a24 76       		.byte	0x76
 6853 1a25 00       		.sleb128 0
 6854 1a26 00       		.byte	0
 6855 1a27 1A       		.uleb128 0x1a
 6856 1a28 F8000000 		.4byte	.LVL402
 6857 1a2c EA020000 		.4byte	0x2ea
 6858 1a30 411A0000 		.4byte	0x1a41
 6859 1a34 1B       		.uleb128 0x1b
 6860 1a35 01       		.uleb128 0x1
 6861 1a36 51       		.byte	0x51
 6862 1a37 02       		.uleb128 0x2
 6863 1a38 75       		.byte	0x75
 6864 1a39 00       		.sleb128 0
 6865 1a3a 1B       		.uleb128 0x1b
 6866 1a3b 01       		.uleb128 0x1
 6867 1a3c 50       		.byte	0x50
 6868 1a3d 02       		.uleb128 0x2
 6869 1a3e 77       		.byte	0x77
 6870 1a3f 00       		.sleb128 0
 6871 1a40 00       		.byte	0
 6872 1a41 1C       		.uleb128 0x1c
 6873 1a42 00010000 		.4byte	.LVL403
 6874 1a46 EA020000 		.4byte	0x2ea
 6875 1a4a 1B       		.uleb128 0x1b
 6876 1a4b 01       		.uleb128 0x1
 6877 1a4c 51       		.byte	0x51
 6878 1a4d 02       		.uleb128 0x2
 6879 1a4e 75       		.byte	0x75
 6880 1a4f 00       		.sleb128 0
 6881 1a50 1B       		.uleb128 0x1b
 6882 1a51 01       		.uleb128 0x1
ARM GAS  C:\Users\Petro\AppData\Local\Temp\cc6W0syg.s 			page 141


 6883 1a52 50       		.byte	0x50
 6884 1a53 02       		.uleb128 0x2
 6885 1a54 76       		.byte	0x76
 6886 1a55 00       		.sleb128 0
 6887 1a56 00       		.byte	0
 6888 1a57 00       		.byte	0
 6889 1a58 26       		.uleb128 0x26
 6890 1a59 45030000 		.4byte	.LASF132
 6891 1a5d 02       		.byte	0x2
 6892 1a5e 3A03     		.2byte	0x33a
 6893 1a60 00000000 		.4byte	.LFB94
 6894 1a64 06010000 		.4byte	.LFE94-.LFB94
 6895 1a68 01       		.uleb128 0x1
 6896 1a69 9C       		.byte	0x9c
 6897 1a6a 431C0000 		.4byte	0x1c43
 6898 1a6e 27       		.uleb128 0x27
 6899 1a6f 7800     		.ascii	"x\000"
 6900 1a71 02       		.byte	0x2
 6901 1a72 3A03     		.2byte	0x33a
 6902 1a74 2C000000 		.4byte	0x2c
 6903 1a78 87150000 		.4byte	.LLST131
 6904 1a7c 27       		.uleb128 0x27
 6905 1a7d 7900     		.ascii	"y\000"
 6906 1a7f 02       		.byte	0x2
 6907 1a80 3A03     		.2byte	0x33a
 6908 1a82 2C000000 		.4byte	0x2c
 6909 1a86 A8150000 		.4byte	.LLST132
 6910 1a8a 2C       		.uleb128 0x2c
 6911 1a8b 3B060000 		.4byte	.LASF129
 6912 1a8f 02       		.byte	0x2
 6913 1a90 3A03     		.2byte	0x33a
 6914 1a92 2C000000 		.4byte	0x2c
 6915 1a96 C9150000 		.4byte	.LLST133
 6916 1a9a 2A       		.uleb128 0x2a
 6917 1a9b 6600     		.ascii	"f\000"
 6918 1a9d 02       		.byte	0x2
 6919 1a9e 3C03     		.2byte	0x33c
 6920 1aa0 2C000000 		.4byte	0x2c
 6921 1aa4 F6150000 		.4byte	.LLST134
 6922 1aa8 29       		.uleb128 0x29
 6923 1aa9 E6040000 		.4byte	.LASF130
 6924 1aad 02       		.byte	0x2
 6925 1aae 3D03     		.2byte	0x33d
 6926 1ab0 2C000000 		.4byte	0x2c
 6927 1ab4 2C160000 		.4byte	.LLST135
 6928 1ab8 29       		.uleb128 0x29
 6929 1ab9 EC040000 		.4byte	.LASF131
 6930 1abd 02       		.byte	0x2
 6931 1abe 3E03     		.2byte	0x33e
 6932 1ac0 2C000000 		.4byte	0x2c
 6933 1ac4 A3160000 		.4byte	.LLST136
 6934 1ac8 2A       		.uleb128 0x2a
 6935 1ac9 783100   		.ascii	"x1\000"
 6936 1acc 02       		.byte	0x2
 6937 1acd 3F03     		.2byte	0x33f
 6938 1acf 2C000000 		.4byte	0x2c
 6939 1ad3 E4160000 		.4byte	.LLST137
ARM GAS  C:\Users\Petro\AppData\Local\Temp\cc6W0syg.s 			page 142


 6940 1ad7 2A       		.uleb128 0x2a
 6941 1ad8 793100   		.ascii	"y1\000"
 6942 1adb 02       		.byte	0x2
 6943 1adc 4003     		.2byte	0x340
 6944 1ade 2C000000 		.4byte	0x2c
 6945 1ae2 26170000 		.4byte	.LLST138
 6946 1ae6 15       		.uleb128 0x15
 6947 1ae7 636800   		.ascii	"ch\000"
 6948 1aea 02       		.byte	0x2
 6949 1aeb 4103     		.2byte	0x341
 6950 1aed B1000000 		.4byte	0xb1
 6951 1af1 15       		.uleb128 0x15
 6952 1af2 636C00   		.ascii	"cl\000"
 6953 1af5 02       		.byte	0x2
 6954 1af6 4103     		.2byte	0x341
 6955 1af8 B1000000 		.4byte	0xb1
 6956 1afc 1A       		.uleb128 0x1a
 6957 1afd 26000000 		.4byte	.LVL413
 6958 1b01 1D030000 		.4byte	0x31d
 6959 1b05 1B1B0000 		.4byte	0x1b1b
 6960 1b09 1B       		.uleb128 0x1b
 6961 1b0a 01       		.uleb128 0x1
 6962 1b0b 51       		.byte	0x51
 6963 1b0c 05       		.uleb128 0x5
 6964 1b0d 75       		.byte	0x75
 6965 1b0e 00       		.sleb128 0
 6966 1b0f 74       		.byte	0x74
 6967 1b10 00       		.sleb128 0
 6968 1b11 22       		.byte	0x22
 6969 1b12 1B       		.uleb128 0x1b
 6970 1b13 01       		.uleb128 0x1
 6971 1b14 50       		.byte	0x50
 6972 1b15 04       		.uleb128 0x4
 6973 1b16 91       		.byte	0x91
 6974 1b17 4C       		.sleb128 -52
 6975 1b18 94       		.byte	0x94
 6976 1b19 02       		.byte	0x2
 6977 1b1a 00       		.byte	0
 6978 1b1b 1A       		.uleb128 0x1a
 6979 1b1c 30000000 		.4byte	.LVL414
 6980 1b20 1D030000 		.4byte	0x31d
 6981 1b24 3A1B0000 		.4byte	0x1b3a
 6982 1b28 1B       		.uleb128 0x1b
 6983 1b29 01       		.uleb128 0x1
 6984 1b2a 51       		.byte	0x51
 6985 1b2b 05       		.uleb128 0x5
 6986 1b2c 74       		.byte	0x74
 6987 1b2d 00       		.sleb128 0
 6988 1b2e 75       		.byte	0x75
 6989 1b2f 00       		.sleb128 0
 6990 1b30 1C       		.byte	0x1c
 6991 1b31 1B       		.uleb128 0x1b
 6992 1b32 01       		.uleb128 0x1
 6993 1b33 50       		.byte	0x50
 6994 1b34 04       		.uleb128 0x4
 6995 1b35 91       		.byte	0x91
 6996 1b36 4C       		.sleb128 -52
ARM GAS  C:\Users\Petro\AppData\Local\Temp\cc6W0syg.s 			page 143


 6997 1b37 94       		.byte	0x94
 6998 1b38 02       		.byte	0x2
 6999 1b39 00       		.byte	0
 7000 1b3a 1A       		.uleb128 0x1a
 7001 1b3b 3C000000 		.4byte	.LVL415
 7002 1b3f 1D030000 		.4byte	0x31d
 7003 1b43 581B0000 		.4byte	0x1b58
 7004 1b47 1B       		.uleb128 0x1b
 7005 1b48 01       		.uleb128 0x1
 7006 1b49 51       		.byte	0x51
 7007 1b4a 02       		.uleb128 0x2
 7008 1b4b 74       		.byte	0x74
 7009 1b4c 00       		.sleb128 0
 7010 1b4d 1B       		.uleb128 0x1b
 7011 1b4e 01       		.uleb128 0x1
 7012 1b4f 50       		.byte	0x50
 7013 1b50 06       		.uleb128 0x6
 7014 1b51 75       		.byte	0x75
 7015 1b52 00       		.sleb128 0
 7016 1b53 91       		.byte	0x91
 7017 1b54 4C       		.sleb128 -52
 7018 1b55 06       		.byte	0x6
 7019 1b56 22       		.byte	0x22
 7020 1b57 00       		.byte	0
 7021 1b58 1A       		.uleb128 0x1a
 7022 1b59 48000000 		.4byte	.LVL416
 7023 1b5d 1D030000 		.4byte	0x31d
 7024 1b61 761B0000 		.4byte	0x1b76
 7025 1b65 1B       		.uleb128 0x1b
 7026 1b66 01       		.uleb128 0x1
 7027 1b67 51       		.byte	0x51
 7028 1b68 02       		.uleb128 0x2
 7029 1b69 74       		.byte	0x74
 7030 1b6a 00       		.sleb128 0
 7031 1b6b 1B       		.uleb128 0x1b
 7032 1b6c 01       		.uleb128 0x1
 7033 1b6d 50       		.byte	0x50
 7034 1b6e 06       		.uleb128 0x6
 7035 1b6f 91       		.byte	0x91
 7036 1b70 4C       		.sleb128 -52
 7037 1b71 06       		.byte	0x6
 7038 1b72 75       		.byte	0x75
 7039 1b73 00       		.sleb128 0
 7040 1b74 1C       		.byte	0x1c
 7041 1b75 00       		.byte	0
 7042 1b76 1A       		.uleb128 0x1a
 7043 1b77 9E000000 		.4byte	.LVL429
 7044 1b7b 1D030000 		.4byte	0x31d
 7045 1b7f 901B0000 		.4byte	0x1b90
 7046 1b83 1B       		.uleb128 0x1b
 7047 1b84 01       		.uleb128 0x1
 7048 1b85 51       		.byte	0x51
 7049 1b86 02       		.uleb128 0x2
 7050 1b87 75       		.byte	0x75
 7051 1b88 00       		.sleb128 0
 7052 1b89 1B       		.uleb128 0x1b
 7053 1b8a 01       		.uleb128 0x1
ARM GAS  C:\Users\Petro\AppData\Local\Temp\cc6W0syg.s 			page 144


 7054 1b8b 50       		.byte	0x50
 7055 1b8c 02       		.uleb128 0x2
 7056 1b8d 77       		.byte	0x77
 7057 1b8e 00       		.sleb128 0
 7058 1b8f 00       		.byte	0
 7059 1b90 1A       		.uleb128 0x1a
 7060 1b91 AE000000 		.4byte	.LVL430
 7061 1b95 1D030000 		.4byte	0x31d
 7062 1b99 AA1B0000 		.4byte	0x1baa
 7063 1b9d 1B       		.uleb128 0x1b
 7064 1b9e 01       		.uleb128 0x1
 7065 1b9f 51       		.byte	0x51
 7066 1ba0 02       		.uleb128 0x2
 7067 1ba1 75       		.byte	0x75
 7068 1ba2 00       		.sleb128 0
 7069 1ba3 1B       		.uleb128 0x1b
 7070 1ba4 01       		.uleb128 0x1
 7071 1ba5 50       		.byte	0x50
 7072 1ba6 02       		.uleb128 0x2
 7073 1ba7 76       		.byte	0x76
 7074 1ba8 00       		.sleb128 0
 7075 1ba9 00       		.byte	0
 7076 1baa 1A       		.uleb128 0x1a
 7077 1bab BC000000 		.4byte	.LVL431
 7078 1baf 1D030000 		.4byte	0x31d
 7079 1bb3 C41B0000 		.4byte	0x1bc4
 7080 1bb7 1B       		.uleb128 0x1b
 7081 1bb8 01       		.uleb128 0x1
 7082 1bb9 51       		.byte	0x51
 7083 1bba 02       		.uleb128 0x2
 7084 1bbb 75       		.byte	0x75
 7085 1bbc 00       		.sleb128 0
 7086 1bbd 1B       		.uleb128 0x1b
 7087 1bbe 01       		.uleb128 0x1
 7088 1bbf 50       		.byte	0x50
 7089 1bc0 02       		.uleb128 0x2
 7090 1bc1 77       		.byte	0x77
 7091 1bc2 00       		.sleb128 0
 7092 1bc3 00       		.byte	0
 7093 1bc4 1A       		.uleb128 0x1a
 7094 1bc5 C4000000 		.4byte	.LVL432
 7095 1bc9 1D030000 		.4byte	0x31d
 7096 1bcd DE1B0000 		.4byte	0x1bde
 7097 1bd1 1B       		.uleb128 0x1b
 7098 1bd2 01       		.uleb128 0x1
 7099 1bd3 51       		.byte	0x51
 7100 1bd4 02       		.uleb128 0x2
 7101 1bd5 75       		.byte	0x75
 7102 1bd6 00       		.sleb128 0
 7103 1bd7 1B       		.uleb128 0x1b
 7104 1bd8 01       		.uleb128 0x1
 7105 1bd9 50       		.byte	0x50
 7106 1bda 02       		.uleb128 0x2
 7107 1bdb 76       		.byte	0x76
 7108 1bdc 00       		.sleb128 0
 7109 1bdd 00       		.byte	0
 7110 1bde 1A       		.uleb128 0x1a
ARM GAS  C:\Users\Petro\AppData\Local\Temp\cc6W0syg.s 			page 145


 7111 1bdf DA000000 		.4byte	.LVL433
 7112 1be3 1D030000 		.4byte	0x31d
 7113 1be7 F81B0000 		.4byte	0x1bf8
 7114 1beb 1B       		.uleb128 0x1b
 7115 1bec 01       		.uleb128 0x1
 7116 1bed 51       		.byte	0x51
 7117 1bee 02       		.uleb128 0x2
 7118 1bef 75       		.byte	0x75
 7119 1bf0 00       		.sleb128 0
 7120 1bf1 1B       		.uleb128 0x1b
 7121 1bf2 01       		.uleb128 0x1
 7122 1bf3 50       		.byte	0x50
 7123 1bf4 02       		.uleb128 0x2
 7124 1bf5 77       		.byte	0x77
 7125 1bf6 00       		.sleb128 0
 7126 1bf7 00       		.byte	0
 7127 1bf8 1A       		.uleb128 0x1a
 7128 1bf9 EA000000 		.4byte	.LVL434
 7129 1bfd 1D030000 		.4byte	0x31d
 7130 1c01 121C0000 		.4byte	0x1c12
 7131 1c05 1B       		.uleb128 0x1b
 7132 1c06 01       		.uleb128 0x1
 7133 1c07 51       		.byte	0x51
 7134 1c08 02       		.uleb128 0x2
 7135 1c09 75       		.byte	0x75
 7136 1c0a 00       		.sleb128 0
 7137 1c0b 1B       		.uleb128 0x1b
 7138 1c0c 01       		.uleb128 0x1
 7139 1c0d 50       		.byte	0x50
 7140 1c0e 02       		.uleb128 0x2
 7141 1c0f 76       		.byte	0x76
 7142 1c10 00       		.sleb128 0
 7143 1c11 00       		.byte	0
 7144 1c12 1A       		.uleb128 0x1a
 7145 1c13 F8000000 		.4byte	.LVL435
 7146 1c17 1D030000 		.4byte	0x31d
 7147 1c1b 2C1C0000 		.4byte	0x1c2c
 7148 1c1f 1B       		.uleb128 0x1b
 7149 1c20 01       		.uleb128 0x1
 7150 1c21 51       		.byte	0x51
 7151 1c22 02       		.uleb128 0x2
 7152 1c23 75       		.byte	0x75
 7153 1c24 00       		.sleb128 0
 7154 1c25 1B       		.uleb128 0x1b
 7155 1c26 01       		.uleb128 0x1
 7156 1c27 50       		.byte	0x50
 7157 1c28 02       		.uleb128 0x2
 7158 1c29 77       		.byte	0x77
 7159 1c2a 00       		.sleb128 0
 7160 1c2b 00       		.byte	0
 7161 1c2c 1C       		.uleb128 0x1c
 7162 1c2d 00010000 		.4byte	.LVL436
 7163 1c31 1D030000 		.4byte	0x31d
 7164 1c35 1B       		.uleb128 0x1b
 7165 1c36 01       		.uleb128 0x1
 7166 1c37 51       		.byte	0x51
 7167 1c38 02       		.uleb128 0x2
ARM GAS  C:\Users\Petro\AppData\Local\Temp\cc6W0syg.s 			page 146


 7168 1c39 75       		.byte	0x75
 7169 1c3a 00       		.sleb128 0
 7170 1c3b 1B       		.uleb128 0x1b
 7171 1c3c 01       		.uleb128 0x1
 7172 1c3d 50       		.byte	0x50
 7173 1c3e 02       		.uleb128 0x2
 7174 1c3f 76       		.byte	0x76
 7175 1c40 00       		.sleb128 0
 7176 1c41 00       		.byte	0
 7177 1c42 00       		.byte	0
 7178 1c43 26       		.uleb128 0x26
 7179 1c44 A9080000 		.4byte	.LASF133
 7180 1c48 02       		.byte	0x2
 7181 1c49 5E03     		.2byte	0x35e
 7182 1c4b 00000000 		.4byte	.LFB95
 7183 1c4f 70000000 		.4byte	.LFE95-.LFB95
 7184 1c53 01       		.uleb128 0x1
 7185 1c54 9C       		.byte	0x9c
 7186 1c55 151D0000 		.4byte	0x1d15
 7187 1c59 27       		.uleb128 0x27
 7188 1c5a 7800     		.ascii	"x\000"
 7189 1c5c 02       		.byte	0x2
 7190 1c5d 5E03     		.2byte	0x35e
 7191 1c5f 2C000000 		.4byte	0x2c
 7192 1c63 68170000 		.4byte	.LLST139
 7193 1c67 27       		.uleb128 0x27
 7194 1c68 7900     		.ascii	"y\000"
 7195 1c6a 02       		.byte	0x2
 7196 1c6b 5E03     		.2byte	0x35e
 7197 1c6d 2C000000 		.4byte	0x2c
 7198 1c71 87170000 		.4byte	.LLST140
 7199 1c75 2C       		.uleb128 0x2c
 7200 1c76 120A0000 		.4byte	.LASF134
 7201 1c7a 02       		.byte	0x2
 7202 1c7b 5E03     		.2byte	0x35e
 7203 1c7d C1020000 		.4byte	0x2c1
 7204 1c81 B3170000 		.4byte	.LLST141
 7205 1c85 27       		.uleb128 0x27
 7206 1c86 737800   		.ascii	"sx\000"
 7207 1c89 02       		.byte	0x2
 7208 1c8a 5E03     		.2byte	0x35e
 7209 1c8c 2C000000 		.4byte	0x2c
 7210 1c90 D2170000 		.4byte	.LLST142
 7211 1c94 32       		.uleb128 0x32
 7212 1c95 737900   		.ascii	"sy\000"
 7213 1c98 02       		.byte	0x2
 7214 1c99 5E03     		.2byte	0x35e
 7215 1c9b 2C000000 		.4byte	0x2c
 7216 1c9f 02       		.uleb128 0x2
 7217 1ca0 91       		.byte	0x91
 7218 1ca1 00       		.sleb128 0
 7219 1ca2 2A       		.uleb128 0x2a
 7220 1ca3 62697400 		.ascii	"bit\000"
 7221 1ca7 02       		.byte	0x2
 7222 1ca8 6003     		.2byte	0x360
 7223 1caa 2C000000 		.4byte	0x2c
 7224 1cae FE170000 		.4byte	.LLST143
ARM GAS  C:\Users\Petro\AppData\Local\Temp\cc6W0syg.s 			page 147


 7225 1cb2 29       		.uleb128 0x29
 7226 1cb3 02050000 		.4byte	.LASF93
 7227 1cb7 02       		.byte	0x2
 7228 1cb8 6103     		.2byte	0x361
 7229 1cba 8F000000 		.4byte	0x8f
 7230 1cbe 2C180000 		.4byte	.LLST144
 7231 1cc2 2A       		.uleb128 0x2a
 7232 1cc3 637900   		.ascii	"cy\000"
 7233 1cc6 02       		.byte	0x2
 7234 1cc7 6303     		.2byte	0x363
 7235 1cc9 2C000000 		.4byte	0x2c
 7236 1ccd 5C180000 		.4byte	.LLST145
 7237 1cd1 21       		.uleb128 0x21
 7238 1cd2 14000000 		.4byte	.LBB70
 7239 1cd6 4E000000 		.4byte	.LBE70-.LBB70
 7240 1cda 2A       		.uleb128 0x2a
 7241 1cdb 637800   		.ascii	"cx\000"
 7242 1cde 02       		.byte	0x2
 7243 1cdf 6703     		.2byte	0x367
 7244 1ce1 2C000000 		.4byte	0x2c
 7245 1ce5 7B180000 		.4byte	.LLST146
 7246 1ce9 1A       		.uleb128 0x1a
 7247 1cea 58000000 		.4byte	.LVL443
 7248 1cee EA020000 		.4byte	0x2ea
 7249 1cf2 0A1D0000 		.4byte	0x1d0a
 7250 1cf6 1B       		.uleb128 0x1b
 7251 1cf7 01       		.uleb128 0x1
 7252 1cf8 51       		.byte	0x51
 7253 1cf9 05       		.uleb128 0x5
 7254 1cfa 74       		.byte	0x74
 7255 1cfb 00       		.sleb128 0
 7256 1cfc 77       		.byte	0x77
 7257 1cfd 00       		.sleb128 0
 7258 1cfe 22       		.byte	0x22
 7259 1cff 1B       		.uleb128 0x1b
 7260 1d00 01       		.uleb128 0x1
 7261 1d01 50       		.byte	0x50
 7262 1d02 06       		.uleb128 0x6
 7263 1d03 75       		.byte	0x75
 7264 1d04 00       		.sleb128 0
 7265 1d05 91       		.byte	0x91
 7266 1d06 60       		.sleb128 -32
 7267 1d07 06       		.byte	0x6
 7268 1d08 22       		.byte	0x22
 7269 1d09 00       		.byte	0
 7270 1d0a 1D       		.uleb128 0x1d
 7271 1d0b 5E000000 		.4byte	.LVL445
 7272 1d0f 1D030000 		.4byte	0x31d
 7273 1d13 00       		.byte	0
 7274 1d14 00       		.byte	0
 7275 1d15 33       		.uleb128 0x33
 7276 1d16 B7010000 		.4byte	.LASF135
 7277 1d1a 07       		.byte	0x7
 7278 1d1b 66       		.byte	0x66
 7279 1d1c C7020000 		.4byte	0x2c7
 7280 1d20 05       		.uleb128 0x5
 7281 1d21 03       		.byte	0x3
ARM GAS  C:\Users\Petro\AppData\Local\Temp\cc6W0syg.s 			page 148


 7282 1d22 00000000 		.4byte	cfont
 7283 1d26 08       		.uleb128 0x8
 7284 1d27 8F000000 		.4byte	0x8f
 7285 1d2b 371D0000 		.4byte	0x1d37
 7286 1d2f 34       		.uleb128 0x34
 7287 1d30 C3000000 		.4byte	0xc3
 7288 1d34 F701     		.2byte	0x1f7
 7289 1d36 00       		.byte	0
 7290 1d37 33       		.uleb128 0x33
 7291 1d38 52070000 		.4byte	.LASF136
 7292 1d3c 07       		.byte	0x7
 7293 1d3d 67       		.byte	0x67
 7294 1d3e 261D0000 		.4byte	0x1d26
 7295 1d42 05       		.uleb128 0x5
 7296 1d43 03       		.byte	0x3
 7297 1d44 00000000 		.4byte	scrbuf
 7298 1d48 33       		.uleb128 0x33
 7299 1d49 07050000 		.4byte	.LASF137
 7300 1d4d 07       		.byte	0x7
 7301 1d4e 68       		.byte	0x68
 7302 1d4f 5B090000 		.4byte	0x95b
 7303 1d53 05       		.uleb128 0x5
 7304 1d54 03       		.byte	0x3
 7305 1d55 00000000 		.4byte	_sleep
 7306 1d59 33       		.uleb128 0x33
 7307 1d5a 1D030000 		.4byte	.LASF138
 7308 1d5e 07       		.byte	0x7
 7309 1d5f 69       		.byte	0x69
 7310 1d60 2C000000 		.4byte	0x2c
 7311 1d64 05       		.uleb128 0x5
 7312 1d65 03       		.byte	0x3
 7313 1d66 00000000 		.4byte	_contrast
 7314 1d6a 35       		.uleb128 0x35
 7315 1d6b BA030000 		.4byte	.LASF148
 7316 1d6f 0E       		.byte	0xe
 7317 1d70 DE       		.byte	0xde
 7318 1d71 2C000000 		.4byte	0x2c
 7319 1d75 851D0000 		.4byte	0x1d85
 7320 1d79 36       		.uleb128 0x36
 7321 1d7a CA000000 		.4byte	0xca
 7322 1d7e 36       		.uleb128 0x36
 7323 1d7f D0000000 		.4byte	0xd0
 7324 1d83 37       		.uleb128 0x37
 7325 1d84 00       		.byte	0
 7326 1d85 38       		.uleb128 0x38
 7327 1d86 93010000 		.4byte	.LASF139
 7328 1d8a 08       		.byte	0x8
 7329 1d8b 33       		.byte	0x33
 7330 1d8c 961D0000 		.4byte	0x1d96
 7331 1d90 36       		.uleb128 0x36
 7332 1d91 A5000000 		.4byte	0xa5
 7333 1d95 00       		.byte	0
 7334 1d96 38       		.uleb128 0x38
 7335 1d97 7A070000 		.4byte	.LASF140
 7336 1d9b 09       		.byte	0x9
 7337 1d9c 33       		.byte	0x33
 7338 1d9d A71D0000 		.4byte	0x1da7
ARM GAS  C:\Users\Petro\AppData\Local\Temp\cc6W0syg.s 			page 149


 7339 1da1 36       		.uleb128 0x36
 7340 1da2 A5000000 		.4byte	0xa5
 7341 1da6 00       		.byte	0
 7342 1da7 38       		.uleb128 0x38
 7343 1da8 43050000 		.4byte	.LASF141
 7344 1dac 0A       		.byte	0xa
 7345 1dad 29       		.byte	0x29
 7346 1dae B81D0000 		.4byte	0x1db8
 7347 1db2 36       		.uleb128 0x36
 7348 1db3 A5000000 		.4byte	0xa5
 7349 1db7 00       		.byte	0
 7350 1db8 38       		.uleb128 0x38
 7351 1db9 89010000 		.4byte	.LASF142
 7352 1dbd 0B       		.byte	0xb
 7353 1dbe 33       		.byte	0x33
 7354 1dbf C91D0000 		.4byte	0x1dc9
 7355 1dc3 36       		.uleb128 0x36
 7356 1dc4 A5000000 		.4byte	0xa5
 7357 1dc8 00       		.byte	0
 7358 1dc9 39       		.uleb128 0x39
 7359 1dca 7B040000 		.4byte	.LASF143
 7360 1dce 0C       		.byte	0xc
 7361 1dcf 21       		.byte	0x21
 7362 1dd0 B8000000 		.4byte	0xb8
 7363 1dd4 36       		.uleb128 0x36
 7364 1dd5 D0000000 		.4byte	0xd0
 7365 1dd9 00       		.byte	0
 7366 1dda 00       		.byte	0
 7367              		.section	.debug_abbrev,"",%progbits
 7368              	.Ldebug_abbrev0:
 7369 0000 01       		.uleb128 0x1
 7370 0001 11       		.uleb128 0x11
 7371 0002 01       		.byte	0x1
 7372 0003 25       		.uleb128 0x25
 7373 0004 0E       		.uleb128 0xe
 7374 0005 13       		.uleb128 0x13
 7375 0006 0B       		.uleb128 0xb
 7376 0007 03       		.uleb128 0x3
 7377 0008 0E       		.uleb128 0xe
 7378 0009 1B       		.uleb128 0x1b
 7379 000a 0E       		.uleb128 0xe
 7380 000b 55       		.uleb128 0x55
 7381 000c 17       		.uleb128 0x17
 7382 000d 11       		.uleb128 0x11
 7383 000e 01       		.uleb128 0x1
 7384 000f 10       		.uleb128 0x10
 7385 0010 17       		.uleb128 0x17
 7386 0011 00       		.byte	0
 7387 0012 00       		.byte	0
 7388 0013 02       		.uleb128 0x2
 7389 0014 24       		.uleb128 0x24
 7390 0015 00       		.byte	0
 7391 0016 0B       		.uleb128 0xb
 7392 0017 0B       		.uleb128 0xb
 7393 0018 3E       		.uleb128 0x3e
 7394 0019 0B       		.uleb128 0xb
 7395 001a 03       		.uleb128 0x3
ARM GAS  C:\Users\Petro\AppData\Local\Temp\cc6W0syg.s 			page 150


 7396 001b 0E       		.uleb128 0xe
 7397 001c 00       		.byte	0
 7398 001d 00       		.byte	0
 7399 001e 03       		.uleb128 0x3
 7400 001f 24       		.uleb128 0x24
 7401 0020 00       		.byte	0
 7402 0021 0B       		.uleb128 0xb
 7403 0022 0B       		.uleb128 0xb
 7404 0023 3E       		.uleb128 0x3e
 7405 0024 0B       		.uleb128 0xb
 7406 0025 03       		.uleb128 0x3
 7407 0026 08       		.uleb128 0x8
 7408 0027 00       		.byte	0
 7409 0028 00       		.byte	0
 7410 0029 04       		.uleb128 0x4
 7411 002a 16       		.uleb128 0x16
 7412 002b 00       		.byte	0
 7413 002c 03       		.uleb128 0x3
 7414 002d 0E       		.uleb128 0xe
 7415 002e 3A       		.uleb128 0x3a
 7416 002f 0B       		.uleb128 0xb
 7417 0030 3B       		.uleb128 0x3b
 7418 0031 0B       		.uleb128 0xb
 7419 0032 49       		.uleb128 0x49
 7420 0033 13       		.uleb128 0x13
 7421 0034 00       		.byte	0
 7422 0035 00       		.byte	0
 7423 0036 05       		.uleb128 0x5
 7424 0037 16       		.uleb128 0x16
 7425 0038 00       		.byte	0
 7426 0039 03       		.uleb128 0x3
 7427 003a 0E       		.uleb128 0xe
 7428 003b 3A       		.uleb128 0x3a
 7429 003c 0B       		.uleb128 0xb
 7430 003d 3B       		.uleb128 0x3b
 7431 003e 05       		.uleb128 0x5
 7432 003f 49       		.uleb128 0x49
 7433 0040 13       		.uleb128 0x13
 7434 0041 00       		.byte	0
 7435 0042 00       		.byte	0
 7436 0043 06       		.uleb128 0x6
 7437 0044 0F       		.uleb128 0xf
 7438 0045 00       		.byte	0
 7439 0046 0B       		.uleb128 0xb
 7440 0047 0B       		.uleb128 0xb
 7441 0048 49       		.uleb128 0x49
 7442 0049 13       		.uleb128 0x13
 7443 004a 00       		.byte	0
 7444 004b 00       		.byte	0
 7445 004c 07       		.uleb128 0x7
 7446 004d 26       		.uleb128 0x26
 7447 004e 00       		.byte	0
 7448 004f 49       		.uleb128 0x49
 7449 0050 13       		.uleb128 0x13
 7450 0051 00       		.byte	0
 7451 0052 00       		.byte	0
 7452 0053 08       		.uleb128 0x8
ARM GAS  C:\Users\Petro\AppData\Local\Temp\cc6W0syg.s 			page 151


 7453 0054 01       		.uleb128 0x1
 7454 0055 01       		.byte	0x1
 7455 0056 49       		.uleb128 0x49
 7456 0057 13       		.uleb128 0x13
 7457 0058 01       		.uleb128 0x1
 7458 0059 13       		.uleb128 0x13
 7459 005a 00       		.byte	0
 7460 005b 00       		.byte	0
 7461 005c 09       		.uleb128 0x9
 7462 005d 21       		.uleb128 0x21
 7463 005e 00       		.byte	0
 7464 005f 49       		.uleb128 0x49
 7465 0060 13       		.uleb128 0x13
 7466 0061 2F       		.uleb128 0x2f
 7467 0062 0B       		.uleb128 0xb
 7468 0063 00       		.byte	0
 7469 0064 00       		.byte	0
 7470 0065 0A       		.uleb128 0xa
 7471 0066 04       		.uleb128 0x4
 7472 0067 01       		.byte	0x1
 7473 0068 0B       		.uleb128 0xb
 7474 0069 0B       		.uleb128 0xb
 7475 006a 3A       		.uleb128 0x3a
 7476 006b 0B       		.uleb128 0xb
 7477 006c 3B       		.uleb128 0x3b
 7478 006d 0B       		.uleb128 0xb
 7479 006e 01       		.uleb128 0x1
 7480 006f 13       		.uleb128 0x13
 7481 0070 00       		.byte	0
 7482 0071 00       		.byte	0
 7483 0072 0B       		.uleb128 0xb
 7484 0073 28       		.uleb128 0x28
 7485 0074 00       		.byte	0
 7486 0075 03       		.uleb128 0x3
 7487 0076 0E       		.uleb128 0xe
 7488 0077 1C       		.uleb128 0x1c
 7489 0078 0D       		.uleb128 0xd
 7490 0079 00       		.byte	0
 7491 007a 00       		.byte	0
 7492 007b 0C       		.uleb128 0xc
 7493 007c 13       		.uleb128 0x13
 7494 007d 01       		.byte	0x1
 7495 007e 0B       		.uleb128 0xb
 7496 007f 0B       		.uleb128 0xb
 7497 0080 3A       		.uleb128 0x3a
 7498 0081 0B       		.uleb128 0xb
 7499 0082 3B       		.uleb128 0x3b
 7500 0083 0B       		.uleb128 0xb
 7501 0084 01       		.uleb128 0x1
 7502 0085 13       		.uleb128 0x13
 7503 0086 00       		.byte	0
 7504 0087 00       		.byte	0
 7505 0088 0D       		.uleb128 0xd
 7506 0089 0D       		.uleb128 0xd
 7507 008a 00       		.byte	0
 7508 008b 03       		.uleb128 0x3
 7509 008c 0E       		.uleb128 0xe
ARM GAS  C:\Users\Petro\AppData\Local\Temp\cc6W0syg.s 			page 152


 7510 008d 3A       		.uleb128 0x3a
 7511 008e 0B       		.uleb128 0xb
 7512 008f 3B       		.uleb128 0x3b
 7513 0090 0B       		.uleb128 0xb
 7514 0091 49       		.uleb128 0x49
 7515 0092 13       		.uleb128 0x13
 7516 0093 38       		.uleb128 0x38
 7517 0094 0B       		.uleb128 0xb
 7518 0095 00       		.byte	0
 7519 0096 00       		.byte	0
 7520 0097 0E       		.uleb128 0xe
 7521 0098 2E       		.uleb128 0x2e
 7522 0099 01       		.byte	0x1
 7523 009a 3F       		.uleb128 0x3f
 7524 009b 19       		.uleb128 0x19
 7525 009c 03       		.uleb128 0x3
 7526 009d 0E       		.uleb128 0xe
 7527 009e 3A       		.uleb128 0x3a
 7528 009f 0B       		.uleb128 0xb
 7529 00a0 3B       		.uleb128 0x3b
 7530 00a1 0B       		.uleb128 0xb
 7531 00a2 20       		.uleb128 0x20
 7532 00a3 0B       		.uleb128 0xb
 7533 00a4 01       		.uleb128 0x1
 7534 00a5 13       		.uleb128 0x13
 7535 00a6 00       		.byte	0
 7536 00a7 00       		.byte	0
 7537 00a8 0F       		.uleb128 0xf
 7538 00a9 0B       		.uleb128 0xb
 7539 00aa 01       		.byte	0x1
 7540 00ab 00       		.byte	0
 7541 00ac 00       		.byte	0
 7542 00ad 10       		.uleb128 0x10
 7543 00ae 34       		.uleb128 0x34
 7544 00af 00       		.byte	0
 7545 00b0 03       		.uleb128 0x3
 7546 00b1 08       		.uleb128 0x8
 7547 00b2 3A       		.uleb128 0x3a
 7548 00b3 0B       		.uleb128 0xb
 7549 00b4 3B       		.uleb128 0x3b
 7550 00b5 0B       		.uleb128 0xb
 7551 00b6 49       		.uleb128 0x49
 7552 00b7 13       		.uleb128 0x13
 7553 00b8 00       		.byte	0
 7554 00b9 00       		.byte	0
 7555 00ba 11       		.uleb128 0x11
 7556 00bb 2E       		.uleb128 0x2e
 7557 00bc 01       		.byte	0x1
 7558 00bd 3F       		.uleb128 0x3f
 7559 00be 19       		.uleb128 0x19
 7560 00bf 03       		.uleb128 0x3
 7561 00c0 0E       		.uleb128 0xe
 7562 00c1 3A       		.uleb128 0x3a
 7563 00c2 0B       		.uleb128 0xb
 7564 00c3 3B       		.uleb128 0x3b
 7565 00c4 0B       		.uleb128 0xb
 7566 00c5 27       		.uleb128 0x27
ARM GAS  C:\Users\Petro\AppData\Local\Temp\cc6W0syg.s 			page 153


 7567 00c6 19       		.uleb128 0x19
 7568 00c7 20       		.uleb128 0x20
 7569 00c8 0B       		.uleb128 0xb
 7570 00c9 01       		.uleb128 0x1
 7571 00ca 13       		.uleb128 0x13
 7572 00cb 00       		.byte	0
 7573 00cc 00       		.byte	0
 7574 00cd 12       		.uleb128 0x12
 7575 00ce 05       		.uleb128 0x5
 7576 00cf 00       		.byte	0
 7577 00d0 03       		.uleb128 0x3
 7578 00d1 08       		.uleb128 0x8
 7579 00d2 3A       		.uleb128 0x3a
 7580 00d3 0B       		.uleb128 0xb
 7581 00d4 3B       		.uleb128 0x3b
 7582 00d5 0B       		.uleb128 0xb
 7583 00d6 49       		.uleb128 0x49
 7584 00d7 13       		.uleb128 0x13
 7585 00d8 00       		.byte	0
 7586 00d9 00       		.byte	0
 7587 00da 13       		.uleb128 0x13
 7588 00db 2E       		.uleb128 0x2e
 7589 00dc 01       		.byte	0x1
 7590 00dd 3F       		.uleb128 0x3f
 7591 00de 19       		.uleb128 0x19
 7592 00df 03       		.uleb128 0x3
 7593 00e0 0E       		.uleb128 0xe
 7594 00e1 3A       		.uleb128 0x3a
 7595 00e2 0B       		.uleb128 0xb
 7596 00e3 3B       		.uleb128 0x3b
 7597 00e4 05       		.uleb128 0x5
 7598 00e5 27       		.uleb128 0x27
 7599 00e6 19       		.uleb128 0x19
 7600 00e7 20       		.uleb128 0x20
 7601 00e8 0B       		.uleb128 0xb
 7602 00e9 01       		.uleb128 0x1
 7603 00ea 13       		.uleb128 0x13
 7604 00eb 00       		.byte	0
 7605 00ec 00       		.byte	0
 7606 00ed 14       		.uleb128 0x14
 7607 00ee 05       		.uleb128 0x5
 7608 00ef 00       		.byte	0
 7609 00f0 03       		.uleb128 0x3
 7610 00f1 08       		.uleb128 0x8
 7611 00f2 3A       		.uleb128 0x3a
 7612 00f3 0B       		.uleb128 0xb
 7613 00f4 3B       		.uleb128 0x3b
 7614 00f5 05       		.uleb128 0x5
 7615 00f6 49       		.uleb128 0x49
 7616 00f7 13       		.uleb128 0x13
 7617 00f8 00       		.byte	0
 7618 00f9 00       		.byte	0
 7619 00fa 15       		.uleb128 0x15
 7620 00fb 34       		.uleb128 0x34
 7621 00fc 00       		.byte	0
 7622 00fd 03       		.uleb128 0x3
 7623 00fe 08       		.uleb128 0x8
ARM GAS  C:\Users\Petro\AppData\Local\Temp\cc6W0syg.s 			page 154


 7624 00ff 3A       		.uleb128 0x3a
 7625 0100 0B       		.uleb128 0xb
 7626 0101 3B       		.uleb128 0x3b
 7627 0102 05       		.uleb128 0x5
 7628 0103 49       		.uleb128 0x49
 7629 0104 13       		.uleb128 0x13
 7630 0105 00       		.byte	0
 7631 0106 00       		.byte	0
 7632 0107 16       		.uleb128 0x16
 7633 0108 2E       		.uleb128 0x2e
 7634 0109 01       		.byte	0x1
 7635 010a 3F       		.uleb128 0x3f
 7636 010b 19       		.uleb128 0x19
 7637 010c 03       		.uleb128 0x3
 7638 010d 0E       		.uleb128 0xe
 7639 010e 3A       		.uleb128 0x3a
 7640 010f 0B       		.uleb128 0xb
 7641 0110 3B       		.uleb128 0x3b
 7642 0111 0B       		.uleb128 0xb
 7643 0112 27       		.uleb128 0x27
 7644 0113 19       		.uleb128 0x19
 7645 0114 11       		.uleb128 0x11
 7646 0115 01       		.uleb128 0x1
 7647 0116 12       		.uleb128 0x12
 7648 0117 06       		.uleb128 0x6
 7649 0118 40       		.uleb128 0x40
 7650 0119 18       		.uleb128 0x18
 7651 011a 9742     		.uleb128 0x2117
 7652 011c 19       		.uleb128 0x19
 7653 011d 01       		.uleb128 0x1
 7654 011e 13       		.uleb128 0x13
 7655 011f 00       		.byte	0
 7656 0120 00       		.byte	0
 7657 0121 17       		.uleb128 0x17
 7658 0122 05       		.uleb128 0x5
 7659 0123 00       		.byte	0
 7660 0124 03       		.uleb128 0x3
 7661 0125 08       		.uleb128 0x8
 7662 0126 3A       		.uleb128 0x3a
 7663 0127 0B       		.uleb128 0xb
 7664 0128 3B       		.uleb128 0x3b
 7665 0129 0B       		.uleb128 0xb
 7666 012a 49       		.uleb128 0x49
 7667 012b 13       		.uleb128 0x13
 7668 012c 02       		.uleb128 0x2
 7669 012d 17       		.uleb128 0x17
 7670 012e 00       		.byte	0
 7671 012f 00       		.byte	0
 7672 0130 18       		.uleb128 0x18
 7673 0131 05       		.uleb128 0x5
 7674 0132 00       		.byte	0
 7675 0133 03       		.uleb128 0x3
 7676 0134 0E       		.uleb128 0xe
 7677 0135 3A       		.uleb128 0x3a
 7678 0136 0B       		.uleb128 0xb
 7679 0137 3B       		.uleb128 0x3b
 7680 0138 0B       		.uleb128 0xb
ARM GAS  C:\Users\Petro\AppData\Local\Temp\cc6W0syg.s 			page 155


 7681 0139 49       		.uleb128 0x49
 7682 013a 13       		.uleb128 0x13
 7683 013b 02       		.uleb128 0x2
 7684 013c 17       		.uleb128 0x17
 7685 013d 00       		.byte	0
 7686 013e 00       		.byte	0
 7687 013f 19       		.uleb128 0x19
 7688 0140 34       		.uleb128 0x34
 7689 0141 00       		.byte	0
 7690 0142 03       		.uleb128 0x3
 7691 0143 0E       		.uleb128 0xe
 7692 0144 3A       		.uleb128 0x3a
 7693 0145 0B       		.uleb128 0xb
 7694 0146 3B       		.uleb128 0x3b
 7695 0147 0B       		.uleb128 0xb
 7696 0148 49       		.uleb128 0x49
 7697 0149 13       		.uleb128 0x13
 7698 014a 02       		.uleb128 0x2
 7699 014b 18       		.uleb128 0x18
 7700 014c 00       		.byte	0
 7701 014d 00       		.byte	0
 7702 014e 1A       		.uleb128 0x1a
 7703 014f 898201   		.uleb128 0x4109
 7704 0152 01       		.byte	0x1
 7705 0153 11       		.uleb128 0x11
 7706 0154 01       		.uleb128 0x1
 7707 0155 31       		.uleb128 0x31
 7708 0156 13       		.uleb128 0x13
 7709 0157 01       		.uleb128 0x1
 7710 0158 13       		.uleb128 0x13
 7711 0159 00       		.byte	0
 7712 015a 00       		.byte	0
 7713 015b 1B       		.uleb128 0x1b
 7714 015c 8A8201   		.uleb128 0x410a
 7715 015f 00       		.byte	0
 7716 0160 02       		.uleb128 0x2
 7717 0161 18       		.uleb128 0x18
 7718 0162 9142     		.uleb128 0x2111
 7719 0164 18       		.uleb128 0x18
 7720 0165 00       		.byte	0
 7721 0166 00       		.byte	0
 7722 0167 1C       		.uleb128 0x1c
 7723 0168 898201   		.uleb128 0x4109
 7724 016b 01       		.byte	0x1
 7725 016c 11       		.uleb128 0x11
 7726 016d 01       		.uleb128 0x1
 7727 016e 31       		.uleb128 0x31
 7728 016f 13       		.uleb128 0x13
 7729 0170 00       		.byte	0
 7730 0171 00       		.byte	0
 7731 0172 1D       		.uleb128 0x1d
 7732 0173 898201   		.uleb128 0x4109
 7733 0176 00       		.byte	0
 7734 0177 11       		.uleb128 0x11
 7735 0178 01       		.uleb128 0x1
 7736 0179 31       		.uleb128 0x31
 7737 017a 13       		.uleb128 0x13
ARM GAS  C:\Users\Petro\AppData\Local\Temp\cc6W0syg.s 			page 156


 7738 017b 00       		.byte	0
 7739 017c 00       		.byte	0
 7740 017d 1E       		.uleb128 0x1e
 7741 017e 2E       		.uleb128 0x2e
 7742 017f 01       		.byte	0x1
 7743 0180 3F       		.uleb128 0x3f
 7744 0181 19       		.uleb128 0x19
 7745 0182 03       		.uleb128 0x3
 7746 0183 0E       		.uleb128 0xe
 7747 0184 3A       		.uleb128 0x3a
 7748 0185 0B       		.uleb128 0xb
 7749 0186 3B       		.uleb128 0x3b
 7750 0187 0B       		.uleb128 0xb
 7751 0188 11       		.uleb128 0x11
 7752 0189 01       		.uleb128 0x1
 7753 018a 12       		.uleb128 0x12
 7754 018b 06       		.uleb128 0x6
 7755 018c 40       		.uleb128 0x40
 7756 018d 18       		.uleb128 0x18
 7757 018e 9742     		.uleb128 0x2117
 7758 0190 19       		.uleb128 0x19
 7759 0191 01       		.uleb128 0x1
 7760 0192 13       		.uleb128 0x13
 7761 0193 00       		.byte	0
 7762 0194 00       		.byte	0
 7763 0195 1F       		.uleb128 0x1f
 7764 0196 34       		.uleb128 0x34
 7765 0197 00       		.byte	0
 7766 0198 03       		.uleb128 0x3
 7767 0199 08       		.uleb128 0x8
 7768 019a 3A       		.uleb128 0x3a
 7769 019b 0B       		.uleb128 0xb
 7770 019c 3B       		.uleb128 0x3b
 7771 019d 0B       		.uleb128 0xb
 7772 019e 49       		.uleb128 0x49
 7773 019f 13       		.uleb128 0x13
 7774 01a0 02       		.uleb128 0x2
 7775 01a1 17       		.uleb128 0x17
 7776 01a2 00       		.byte	0
 7777 01a3 00       		.byte	0
 7778 01a4 20       		.uleb128 0x20
 7779 01a5 2E       		.uleb128 0x2e
 7780 01a6 01       		.byte	0x1
 7781 01a7 31       		.uleb128 0x31
 7782 01a8 13       		.uleb128 0x13
 7783 01a9 11       		.uleb128 0x11
 7784 01aa 01       		.uleb128 0x1
 7785 01ab 12       		.uleb128 0x12
 7786 01ac 06       		.uleb128 0x6
 7787 01ad 40       		.uleb128 0x40
 7788 01ae 18       		.uleb128 0x18
 7789 01af 9742     		.uleb128 0x2117
 7790 01b1 19       		.uleb128 0x19
 7791 01b2 01       		.uleb128 0x1
 7792 01b3 13       		.uleb128 0x13
 7793 01b4 00       		.byte	0
 7794 01b5 00       		.byte	0
ARM GAS  C:\Users\Petro\AppData\Local\Temp\cc6W0syg.s 			page 157


 7795 01b6 21       		.uleb128 0x21
 7796 01b7 0B       		.uleb128 0xb
 7797 01b8 01       		.byte	0x1
 7798 01b9 11       		.uleb128 0x11
 7799 01ba 01       		.uleb128 0x1
 7800 01bb 12       		.uleb128 0x12
 7801 01bc 06       		.uleb128 0x6
 7802 01bd 00       		.byte	0
 7803 01be 00       		.byte	0
 7804 01bf 22       		.uleb128 0x22
 7805 01c0 34       		.uleb128 0x34
 7806 01c1 00       		.byte	0
 7807 01c2 31       		.uleb128 0x31
 7808 01c3 13       		.uleb128 0x13
 7809 01c4 02       		.uleb128 0x2
 7810 01c5 17       		.uleb128 0x17
 7811 01c6 00       		.byte	0
 7812 01c7 00       		.byte	0
 7813 01c8 23       		.uleb128 0x23
 7814 01c9 05       		.uleb128 0x5
 7815 01ca 00       		.byte	0
 7816 01cb 31       		.uleb128 0x31
 7817 01cc 13       		.uleb128 0x13
 7818 01cd 02       		.uleb128 0x2
 7819 01ce 17       		.uleb128 0x17
 7820 01cf 00       		.byte	0
 7821 01d0 00       		.byte	0
 7822 01d1 24       		.uleb128 0x24
 7823 01d2 34       		.uleb128 0x34
 7824 01d3 00       		.byte	0
 7825 01d4 31       		.uleb128 0x31
 7826 01d5 13       		.uleb128 0x13
 7827 01d6 00       		.byte	0
 7828 01d7 00       		.byte	0
 7829 01d8 25       		.uleb128 0x25
 7830 01d9 05       		.uleb128 0x5
 7831 01da 00       		.byte	0
 7832 01db 03       		.uleb128 0x3
 7833 01dc 0E       		.uleb128 0xe
 7834 01dd 3A       		.uleb128 0x3a
 7835 01de 0B       		.uleb128 0xb
 7836 01df 3B       		.uleb128 0x3b
 7837 01e0 0B       		.uleb128 0xb
 7838 01e1 49       		.uleb128 0x49
 7839 01e2 13       		.uleb128 0x13
 7840 01e3 02       		.uleb128 0x2
 7841 01e4 18       		.uleb128 0x18
 7842 01e5 00       		.byte	0
 7843 01e6 00       		.byte	0
 7844 01e7 26       		.uleb128 0x26
 7845 01e8 2E       		.uleb128 0x2e
 7846 01e9 01       		.byte	0x1
 7847 01ea 3F       		.uleb128 0x3f
 7848 01eb 19       		.uleb128 0x19
 7849 01ec 03       		.uleb128 0x3
 7850 01ed 0E       		.uleb128 0xe
 7851 01ee 3A       		.uleb128 0x3a
ARM GAS  C:\Users\Petro\AppData\Local\Temp\cc6W0syg.s 			page 158


 7852 01ef 0B       		.uleb128 0xb
 7853 01f0 3B       		.uleb128 0x3b
 7854 01f1 05       		.uleb128 0x5
 7855 01f2 27       		.uleb128 0x27
 7856 01f3 19       		.uleb128 0x19
 7857 01f4 11       		.uleb128 0x11
 7858 01f5 01       		.uleb128 0x1
 7859 01f6 12       		.uleb128 0x12
 7860 01f7 06       		.uleb128 0x6
 7861 01f8 40       		.uleb128 0x40
 7862 01f9 18       		.uleb128 0x18
 7863 01fa 9742     		.uleb128 0x2117
 7864 01fc 19       		.uleb128 0x19
 7865 01fd 01       		.uleb128 0x1
 7866 01fe 13       		.uleb128 0x13
 7867 01ff 00       		.byte	0
 7868 0200 00       		.byte	0
 7869 0201 27       		.uleb128 0x27
 7870 0202 05       		.uleb128 0x5
 7871 0203 00       		.byte	0
 7872 0204 03       		.uleb128 0x3
 7873 0205 08       		.uleb128 0x8
 7874 0206 3A       		.uleb128 0x3a
 7875 0207 0B       		.uleb128 0xb
 7876 0208 3B       		.uleb128 0x3b
 7877 0209 05       		.uleb128 0x5
 7878 020a 49       		.uleb128 0x49
 7879 020b 13       		.uleb128 0x13
 7880 020c 02       		.uleb128 0x2
 7881 020d 17       		.uleb128 0x17
 7882 020e 00       		.byte	0
 7883 020f 00       		.byte	0
 7884 0210 28       		.uleb128 0x28
 7885 0211 0B       		.uleb128 0xb
 7886 0212 01       		.byte	0x1
 7887 0213 11       		.uleb128 0x11
 7888 0214 01       		.uleb128 0x1
 7889 0215 12       		.uleb128 0x12
 7890 0216 06       		.uleb128 0x6
 7891 0217 01       		.uleb128 0x1
 7892 0218 13       		.uleb128 0x13
 7893 0219 00       		.byte	0
 7894 021a 00       		.byte	0
 7895 021b 29       		.uleb128 0x29
 7896 021c 34       		.uleb128 0x34
 7897 021d 00       		.byte	0
 7898 021e 03       		.uleb128 0x3
 7899 021f 0E       		.uleb128 0xe
 7900 0220 3A       		.uleb128 0x3a
 7901 0221 0B       		.uleb128 0xb
 7902 0222 3B       		.uleb128 0x3b
 7903 0223 05       		.uleb128 0x5
 7904 0224 49       		.uleb128 0x49
 7905 0225 13       		.uleb128 0x13
 7906 0226 02       		.uleb128 0x2
 7907 0227 17       		.uleb128 0x17
 7908 0228 00       		.byte	0
ARM GAS  C:\Users\Petro\AppData\Local\Temp\cc6W0syg.s 			page 159


 7909 0229 00       		.byte	0
 7910 022a 2A       		.uleb128 0x2a
 7911 022b 34       		.uleb128 0x34
 7912 022c 00       		.byte	0
 7913 022d 03       		.uleb128 0x3
 7914 022e 08       		.uleb128 0x8
 7915 022f 3A       		.uleb128 0x3a
 7916 0230 0B       		.uleb128 0xb
 7917 0231 3B       		.uleb128 0x3b
 7918 0232 05       		.uleb128 0x5
 7919 0233 49       		.uleb128 0x49
 7920 0234 13       		.uleb128 0x13
 7921 0235 02       		.uleb128 0x2
 7922 0236 17       		.uleb128 0x17
 7923 0237 00       		.byte	0
 7924 0238 00       		.byte	0
 7925 0239 2B       		.uleb128 0x2b
 7926 023a 2E       		.uleb128 0x2e
 7927 023b 01       		.byte	0x1
 7928 023c 3F       		.uleb128 0x3f
 7929 023d 19       		.uleb128 0x19
 7930 023e 03       		.uleb128 0x3
 7931 023f 0E       		.uleb128 0xe
 7932 0240 3A       		.uleb128 0x3a
 7933 0241 0B       		.uleb128 0xb
 7934 0242 3B       		.uleb128 0x3b
 7935 0243 05       		.uleb128 0x5
 7936 0244 27       		.uleb128 0x27
 7937 0245 19       		.uleb128 0x19
 7938 0246 11       		.uleb128 0x11
 7939 0247 01       		.uleb128 0x1
 7940 0248 12       		.uleb128 0x12
 7941 0249 06       		.uleb128 0x6
 7942 024a 40       		.uleb128 0x40
 7943 024b 18       		.uleb128 0x18
 7944 024c 9642     		.uleb128 0x2116
 7945 024e 19       		.uleb128 0x19
 7946 024f 01       		.uleb128 0x1
 7947 0250 13       		.uleb128 0x13
 7948 0251 00       		.byte	0
 7949 0252 00       		.byte	0
 7950 0253 2C       		.uleb128 0x2c
 7951 0254 05       		.uleb128 0x5
 7952 0255 00       		.byte	0
 7953 0256 03       		.uleb128 0x3
 7954 0257 0E       		.uleb128 0xe
 7955 0258 3A       		.uleb128 0x3a
 7956 0259 0B       		.uleb128 0xb
 7957 025a 3B       		.uleb128 0x3b
 7958 025b 05       		.uleb128 0x5
 7959 025c 49       		.uleb128 0x49
 7960 025d 13       		.uleb128 0x13
 7961 025e 02       		.uleb128 0x2
 7962 025f 17       		.uleb128 0x17
 7963 0260 00       		.byte	0
 7964 0261 00       		.byte	0
 7965 0262 2D       		.uleb128 0x2d
ARM GAS  C:\Users\Petro\AppData\Local\Temp\cc6W0syg.s 			page 160


 7966 0263 34       		.uleb128 0x34
 7967 0264 00       		.byte	0
 7968 0265 03       		.uleb128 0x3
 7969 0266 08       		.uleb128 0x8
 7970 0267 3A       		.uleb128 0x3a
 7971 0268 0B       		.uleb128 0xb
 7972 0269 3B       		.uleb128 0x3b
 7973 026a 05       		.uleb128 0x5
 7974 026b 49       		.uleb128 0x49
 7975 026c 13       		.uleb128 0x13
 7976 026d 02       		.uleb128 0x2
 7977 026e 18       		.uleb128 0x18
 7978 026f 00       		.byte	0
 7979 0270 00       		.byte	0
 7980 0271 2E       		.uleb128 0x2e
 7981 0272 0B       		.uleb128 0xb
 7982 0273 01       		.byte	0x1
 7983 0274 55       		.uleb128 0x55
 7984 0275 17       		.uleb128 0x17
 7985 0276 01       		.uleb128 0x1
 7986 0277 13       		.uleb128 0x13
 7987 0278 00       		.byte	0
 7988 0279 00       		.byte	0
 7989 027a 2F       		.uleb128 0x2f
 7990 027b 05       		.uleb128 0x5
 7991 027c 00       		.byte	0
 7992 027d 03       		.uleb128 0x3
 7993 027e 0E       		.uleb128 0xe
 7994 027f 3A       		.uleb128 0x3a
 7995 0280 0B       		.uleb128 0xb
 7996 0281 3B       		.uleb128 0x3b
 7997 0282 05       		.uleb128 0x5
 7998 0283 49       		.uleb128 0x49
 7999 0284 13       		.uleb128 0x13
 8000 0285 02       		.uleb128 0x2
 8001 0286 18       		.uleb128 0x18
 8002 0287 00       		.byte	0
 8003 0288 00       		.byte	0
 8004 0289 30       		.uleb128 0x30
 8005 028a 05       		.uleb128 0x5
 8006 028b 00       		.byte	0
 8007 028c 31       		.uleb128 0x31
 8008 028d 13       		.uleb128 0x13
 8009 028e 02       		.uleb128 0x2
 8010 028f 18       		.uleb128 0x18
 8011 0290 00       		.byte	0
 8012 0291 00       		.byte	0
 8013 0292 31       		.uleb128 0x31
 8014 0293 05       		.uleb128 0x5
 8015 0294 00       		.byte	0
 8016 0295 31       		.uleb128 0x31
 8017 0296 13       		.uleb128 0x13
 8018 0297 00       		.byte	0
 8019 0298 00       		.byte	0
 8020 0299 32       		.uleb128 0x32
 8021 029a 05       		.uleb128 0x5
 8022 029b 00       		.byte	0
ARM GAS  C:\Users\Petro\AppData\Local\Temp\cc6W0syg.s 			page 161


 8023 029c 03       		.uleb128 0x3
 8024 029d 08       		.uleb128 0x8
 8025 029e 3A       		.uleb128 0x3a
 8026 029f 0B       		.uleb128 0xb
 8027 02a0 3B       		.uleb128 0x3b
 8028 02a1 05       		.uleb128 0x5
 8029 02a2 49       		.uleb128 0x49
 8030 02a3 13       		.uleb128 0x13
 8031 02a4 02       		.uleb128 0x2
 8032 02a5 18       		.uleb128 0x18
 8033 02a6 00       		.byte	0
 8034 02a7 00       		.byte	0
 8035 02a8 33       		.uleb128 0x33
 8036 02a9 34       		.uleb128 0x34
 8037 02aa 00       		.byte	0
 8038 02ab 03       		.uleb128 0x3
 8039 02ac 0E       		.uleb128 0xe
 8040 02ad 3A       		.uleb128 0x3a
 8041 02ae 0B       		.uleb128 0xb
 8042 02af 3B       		.uleb128 0x3b
 8043 02b0 0B       		.uleb128 0xb
 8044 02b1 49       		.uleb128 0x49
 8045 02b2 13       		.uleb128 0x13
 8046 02b3 3F       		.uleb128 0x3f
 8047 02b4 19       		.uleb128 0x19
 8048 02b5 02       		.uleb128 0x2
 8049 02b6 18       		.uleb128 0x18
 8050 02b7 00       		.byte	0
 8051 02b8 00       		.byte	0
 8052 02b9 34       		.uleb128 0x34
 8053 02ba 21       		.uleb128 0x21
 8054 02bb 00       		.byte	0
 8055 02bc 49       		.uleb128 0x49
 8056 02bd 13       		.uleb128 0x13
 8057 02be 2F       		.uleb128 0x2f
 8058 02bf 05       		.uleb128 0x5
 8059 02c0 00       		.byte	0
 8060 02c1 00       		.byte	0
 8061 02c2 35       		.uleb128 0x35
 8062 02c3 2E       		.uleb128 0x2e
 8063 02c4 01       		.byte	0x1
 8064 02c5 3F       		.uleb128 0x3f
 8065 02c6 19       		.uleb128 0x19
 8066 02c7 03       		.uleb128 0x3
 8067 02c8 0E       		.uleb128 0xe
 8068 02c9 3A       		.uleb128 0x3a
 8069 02ca 0B       		.uleb128 0xb
 8070 02cb 3B       		.uleb128 0x3b
 8071 02cc 0B       		.uleb128 0xb
 8072 02cd 27       		.uleb128 0x27
 8073 02ce 19       		.uleb128 0x19
 8074 02cf 49       		.uleb128 0x49
 8075 02d0 13       		.uleb128 0x13
 8076 02d1 3C       		.uleb128 0x3c
 8077 02d2 19       		.uleb128 0x19
 8078 02d3 01       		.uleb128 0x1
 8079 02d4 13       		.uleb128 0x13
ARM GAS  C:\Users\Petro\AppData\Local\Temp\cc6W0syg.s 			page 162


 8080 02d5 00       		.byte	0
 8081 02d6 00       		.byte	0
 8082 02d7 36       		.uleb128 0x36
 8083 02d8 05       		.uleb128 0x5
 8084 02d9 00       		.byte	0
 8085 02da 49       		.uleb128 0x49
 8086 02db 13       		.uleb128 0x13
 8087 02dc 00       		.byte	0
 8088 02dd 00       		.byte	0
 8089 02de 37       		.uleb128 0x37
 8090 02df 18       		.uleb128 0x18
 8091 02e0 00       		.byte	0
 8092 02e1 00       		.byte	0
 8093 02e2 00       		.byte	0
 8094 02e3 38       		.uleb128 0x38
 8095 02e4 2E       		.uleb128 0x2e
 8096 02e5 01       		.byte	0x1
 8097 02e6 3F       		.uleb128 0x3f
 8098 02e7 19       		.uleb128 0x19
 8099 02e8 03       		.uleb128 0x3
 8100 02e9 0E       		.uleb128 0xe
 8101 02ea 3A       		.uleb128 0x3a
 8102 02eb 0B       		.uleb128 0xb
 8103 02ec 3B       		.uleb128 0x3b
 8104 02ed 0B       		.uleb128 0xb
 8105 02ee 27       		.uleb128 0x27
 8106 02ef 19       		.uleb128 0x19
 8107 02f0 3C       		.uleb128 0x3c
 8108 02f1 19       		.uleb128 0x19
 8109 02f2 01       		.uleb128 0x1
 8110 02f3 13       		.uleb128 0x13
 8111 02f4 00       		.byte	0
 8112 02f5 00       		.byte	0
 8113 02f6 39       		.uleb128 0x39
 8114 02f7 2E       		.uleb128 0x2e
 8115 02f8 01       		.byte	0x1
 8116 02f9 3F       		.uleb128 0x3f
 8117 02fa 19       		.uleb128 0x19
 8118 02fb 03       		.uleb128 0x3
 8119 02fc 0E       		.uleb128 0xe
 8120 02fd 3A       		.uleb128 0x3a
 8121 02fe 0B       		.uleb128 0xb
 8122 02ff 3B       		.uleb128 0x3b
 8123 0300 0B       		.uleb128 0xb
 8124 0301 27       		.uleb128 0x27
 8125 0302 19       		.uleb128 0x19
 8126 0303 49       		.uleb128 0x49
 8127 0304 13       		.uleb128 0x13
 8128 0305 3C       		.uleb128 0x3c
 8129 0306 19       		.uleb128 0x19
 8130 0307 00       		.byte	0
 8131 0308 00       		.byte	0
 8132 0309 00       		.byte	0
 8133              		.section	.debug_loc,"",%progbits
 8134              	.Ldebug_loc0:
 8135              	.LLST0:
 8136 0000 00000000 		.4byte	.LVL0
ARM GAS  C:\Users\Petro\AppData\Local\Temp\cc6W0syg.s 			page 163


 8137 0004 0E000000 		.4byte	.LVL3
 8138 0008 0100     		.2byte	0x1
 8139 000a 50       		.byte	0x50
 8140 000b 0E000000 		.4byte	.LVL3
 8141 000f 22000000 		.4byte	.LVL7
 8142 0013 0100     		.2byte	0x1
 8143 0015 56       		.byte	0x56
 8144 0016 22000000 		.4byte	.LVL7
 8145 001a 28000000 		.4byte	.LFE63
 8146 001e 0400     		.2byte	0x4
 8147 0020 F3       		.byte	0xf3
 8148 0021 01       		.uleb128 0x1
 8149 0022 50       		.byte	0x50
 8150 0023 9F       		.byte	0x9f
 8151 0024 00000000 		.4byte	0
 8152 0028 00000000 		.4byte	0
 8153              	.LLST1:
 8154 002c 00000000 		.4byte	.LVL0
 8155 0030 0C000000 		.4byte	.LVL2
 8156 0034 0600     		.2byte	0x6
 8157 0036 52       		.byte	0x52
 8158 0037 93       		.byte	0x93
 8159 0038 04       		.uleb128 0x4
 8160 0039 53       		.byte	0x53
 8161 003a 93       		.byte	0x93
 8162 003b 04       		.uleb128 0x4
 8163 003c 0C000000 		.4byte	.LVL2
 8164 0040 28000000 		.4byte	.LFE63
 8165 0044 0600     		.2byte	0x6
 8166 0046 F3       		.byte	0xf3
 8167 0047 03       		.uleb128 0x3
 8168 0048 F5       		.byte	0xf5
 8169 0049 02       		.uleb128 0x2
 8170 004a 25       		.uleb128 0x25
 8171 004b 9F       		.byte	0x9f
 8172 004c 00000000 		.4byte	0
 8173 0050 00000000 		.4byte	0
 8174              	.LLST2:
 8175 0054 00000000 		.4byte	.LVL0
 8176 0058 0A000000 		.4byte	.LVL1
 8177 005c 0200     		.2byte	0x2
 8178 005e 91       		.byte	0x91
 8179 005f 00       		.sleb128 0
 8180 0060 0A000000 		.4byte	.LVL1
 8181 0064 0C000000 		.4byte	.LVL2
 8182 0068 0200     		.2byte	0x2
 8183 006a 73       		.byte	0x73
 8184 006b 00       		.sleb128 0
 8185 006c 0C000000 		.4byte	.LVL2
 8186 0070 10000000 		.4byte	.LVL4
 8187 0074 0200     		.2byte	0x2
 8188 0076 73       		.byte	0x73
 8189 0077 7C       		.sleb128 -4
 8190 0078 10000000 		.4byte	.LVL4
 8191 007c 28000000 		.4byte	.LFE63
 8192 0080 0200     		.2byte	0x2
 8193 0082 91       		.byte	0x91
ARM GAS  C:\Users\Petro\AppData\Local\Temp\cc6W0syg.s 			page 164


 8194 0083 00       		.sleb128 0
 8195 0084 00000000 		.4byte	0
 8196 0088 00000000 		.4byte	0
 8197              	.LLST3:
 8198 008c 00000000 		.4byte	.LVL0
 8199 0090 0A000000 		.4byte	.LVL1
 8200 0094 0200     		.2byte	0x2
 8201 0096 91       		.byte	0x91
 8202 0097 04       		.sleb128 4
 8203 0098 0A000000 		.4byte	.LVL1
 8204 009c 0C000000 		.4byte	.LVL2
 8205 00a0 0200     		.2byte	0x2
 8206 00a2 73       		.byte	0x73
 8207 00a3 04       		.sleb128 4
 8208 00a4 0C000000 		.4byte	.LVL2
 8209 00a8 10000000 		.4byte	.LVL4
 8210 00ac 0200     		.2byte	0x2
 8211 00ae 73       		.byte	0x73
 8212 00af 00       		.sleb128 0
 8213 00b0 10000000 		.4byte	.LVL4
 8214 00b4 28000000 		.4byte	.LFE63
 8215 00b8 0200     		.2byte	0x2
 8216 00ba 91       		.byte	0x91
 8217 00bb 04       		.sleb128 4
 8218 00bc 00000000 		.4byte	0
 8219 00c0 00000000 		.4byte	0
 8220              	.LLST4:
 8221 00c4 00000000 		.4byte	.LVL8
 8222 00c8 06000000 		.4byte	.LVL9
 8223 00cc 0100     		.2byte	0x1
 8224 00ce 50       		.byte	0x50
 8225 00cf 06000000 		.4byte	.LVL9
 8226 00d3 22000000 		.4byte	.LFE64
 8227 00d7 0400     		.2byte	0x4
 8228 00d9 F3       		.byte	0xf3
 8229 00da 01       		.uleb128 0x1
 8230 00db 50       		.byte	0x50
 8231 00dc 9F       		.byte	0x9f
 8232 00dd 00000000 		.4byte	0
 8233 00e1 00000000 		.4byte	0
 8234              	.LLST5:
 8235 00e5 00000000 		.4byte	.LVL8
 8236 00e9 0D000000 		.4byte	.LVL10-1
 8237 00ed 0100     		.2byte	0x1
 8238 00ef 51       		.byte	0x51
 8239 00f0 0D000000 		.4byte	.LVL10-1
 8240 00f4 22000000 		.4byte	.LFE64
 8241 00f8 0400     		.2byte	0x4
 8242 00fa F3       		.byte	0xf3
 8243 00fb 01       		.uleb128 0x1
 8244 00fc 51       		.byte	0x51
 8245 00fd 9F       		.byte	0x9f
 8246 00fe 00000000 		.4byte	0
 8247 0102 00000000 		.4byte	0
 8248              	.LLST6:
 8249 0106 00000000 		.4byte	.LVL14
 8250 010a 12000000 		.4byte	.LVL15
ARM GAS  C:\Users\Petro\AppData\Local\Temp\cc6W0syg.s 			page 165


 8251 010e 0100     		.2byte	0x1
 8252 0110 50       		.byte	0x50
 8253 0111 12000000 		.4byte	.LVL15
 8254 0115 34000000 		.4byte	.LVL19
 8255 0119 0100     		.2byte	0x1
 8256 011b 54       		.byte	0x54
 8257 011c 34000000 		.4byte	.LVL19
 8258 0120 3C000000 		.4byte	.LFE66
 8259 0124 0500     		.2byte	0x5
 8260 0126 03       		.byte	0x3
 8261 0127 00000000 		.4byte	_contrast
 8262 012b 00000000 		.4byte	0
 8263 012f 00000000 		.4byte	0
 8264              	.LLST7:
 8265 0133 1A000000 		.4byte	.LVL21
 8266 0137 1C000000 		.4byte	.LVL22
 8267 013b 0200     		.2byte	0x2
 8268 013d 30       		.byte	0x30
 8269 013e 9F       		.byte	0x9f
 8270 013f 1C000000 		.4byte	.LVL22
 8271 0143 22000000 		.4byte	.LVL23
 8272 0147 0700     		.2byte	0x7
 8273 0149 0A       		.byte	0xa
 8274 014a F801     		.2byte	0x1f8
 8275 014c 74       		.byte	0x74
 8276 014d 00       		.sleb128 0
 8277 014e 1C       		.byte	0x1c
 8278 014f 9F       		.byte	0x9f
 8279 0150 22000000 		.4byte	.LVL23
 8280 0154 26000000 		.4byte	.LVL24
 8281 0158 0700     		.2byte	0x7
 8282 015a 0A       		.byte	0xa
 8283 015b F701     		.2byte	0x1f7
 8284 015d 74       		.byte	0x74
 8285 015e 00       		.sleb128 0
 8286 015f 1C       		.byte	0x1c
 8287 0160 9F       		.byte	0x9f
 8288 0161 00000000 		.4byte	0
 8289 0165 00000000 		.4byte	0
 8290              	.LLST8:
 8291 0169 1A000000 		.4byte	.LVL27
 8292 016d 2E000000 		.4byte	.LVL30
 8293 0171 0100     		.2byte	0x1
 8294 0173 54       		.byte	0x54
 8295 0174 00000000 		.4byte	0
 8296 0178 00000000 		.4byte	0
 8297              	.LLST9:
 8298 017c 00000000 		.4byte	.LVL38
 8299 0180 02000000 		.4byte	.LVL39
 8300 0184 0200     		.2byte	0x2
 8301 0186 30       		.byte	0x30
 8302 0187 9F       		.byte	0x9f
 8303 0188 02000000 		.4byte	.LVL39
 8304 018c 1C000000 		.4byte	.LFE70
 8305 0190 0100     		.2byte	0x1
 8306 0192 53       		.byte	0x53
 8307 0193 00000000 		.4byte	0
ARM GAS  C:\Users\Petro\AppData\Local\Temp\cc6W0syg.s 			page 166


 8308 0197 00000000 		.4byte	0
 8309              	.LLST10:
 8310 019b 00000000 		.4byte	.LVL41
 8311 019f 12000000 		.4byte	.LVL42
 8312 01a3 0100     		.2byte	0x1
 8313 01a5 50       		.byte	0x50
 8314 01a6 12000000 		.4byte	.LVL42
 8315 01aa 7A000000 		.4byte	.LVL55
 8316 01ae 0100     		.2byte	0x1
 8317 01b0 54       		.byte	0x54
 8318 01b1 7A000000 		.4byte	.LVL55
 8319 01b5 88000000 		.4byte	.LFE65
 8320 01b9 0500     		.2byte	0x5
 8321 01bb 03       		.byte	0x3
 8322 01bc 00000000 		.4byte	_contrast
 8323 01c0 00000000 		.4byte	0
 8324 01c4 00000000 		.4byte	0
 8325              	.LLST11:
 8326 01c8 00000000 		.4byte	.LVL56
 8327 01cc 02000000 		.4byte	.LVL57
 8328 01d0 0200     		.2byte	0x2
 8329 01d2 30       		.byte	0x30
 8330 01d3 9F       		.byte	0x9f
 8331 01d4 02000000 		.4byte	.LVL57
 8332 01d8 18000000 		.4byte	.LFE71
 8333 01dc 0100     		.2byte	0x1
 8334 01de 53       		.byte	0x53
 8335 01df 00000000 		.4byte	0
 8336 01e3 00000000 		.4byte	0
 8337              	.LLST12:
 8338 01e7 00000000 		.4byte	.LVL59
 8339 01eb 06000000 		.4byte	.LVL60
 8340 01ef 0100     		.2byte	0x1
 8341 01f1 50       		.byte	0x50
 8342 01f2 06000000 		.4byte	.LVL60
 8343 01f6 14000000 		.4byte	.LFE72
 8344 01fa 0400     		.2byte	0x4
 8345 01fc F3       		.byte	0xf3
 8346 01fd 01       		.uleb128 0x1
 8347 01fe 50       		.byte	0x50
 8348 01ff 9F       		.byte	0x9f
 8349 0200 00000000 		.4byte	0
 8350 0204 00000000 		.4byte	0
 8351              	.LLST13:
 8352 0208 00000000 		.4byte	.LVL62
 8353 020c 10000000 		.4byte	.LVL64
 8354 0210 0100     		.2byte	0x1
 8355 0212 50       		.byte	0x50
 8356 0213 10000000 		.4byte	.LVL64
 8357 0217 28000000 		.4byte	.LFE73
 8358 021b 0400     		.2byte	0x4
 8359 021d F3       		.byte	0xf3
 8360 021e 01       		.uleb128 0x1
 8361 021f 50       		.byte	0x50
 8362 0220 9F       		.byte	0x9f
 8363 0221 00000000 		.4byte	0
 8364 0225 00000000 		.4byte	0
ARM GAS  C:\Users\Petro\AppData\Local\Temp\cc6W0syg.s 			page 167


 8365              	.LLST14:
 8366 0229 00000000 		.4byte	.LVL62
 8367 022d 14000000 		.4byte	.LVL65
 8368 0231 0100     		.2byte	0x1
 8369 0233 51       		.byte	0x51
 8370 0234 14000000 		.4byte	.LVL65
 8371 0238 28000000 		.4byte	.LFE73
 8372 023c 0400     		.2byte	0x4
 8373 023e F3       		.byte	0xf3
 8374 023f 01       		.uleb128 0x1
 8375 0240 51       		.byte	0x51
 8376 0241 9F       		.byte	0x9f
 8377 0242 00000000 		.4byte	0
 8378 0246 00000000 		.4byte	0
 8379              	.LLST15:
 8380 024a 08000000 		.4byte	.LVL63
 8381 024e 14000000 		.4byte	.LVL65
 8382 0252 0100     		.2byte	0x1
 8383 0254 51       		.byte	0x51
 8384 0255 14000000 		.4byte	.LVL65
 8385 0259 22000000 		.4byte	.LVL66
 8386 025d 0400     		.2byte	0x4
 8387 025f F3       		.byte	0xf3
 8388 0260 01       		.uleb128 0x1
 8389 0261 51       		.byte	0x51
 8390 0262 9F       		.byte	0x9f
 8391 0263 00000000 		.4byte	0
 8392 0267 00000000 		.4byte	0
 8393              	.LLST16:
 8394 026b 08000000 		.4byte	.LVL63
 8395 026f 10000000 		.4byte	.LVL64
 8396 0273 0100     		.2byte	0x1
 8397 0275 50       		.byte	0x50
 8398 0276 10000000 		.4byte	.LVL64
 8399 027a 22000000 		.4byte	.LVL66
 8400 027e 0400     		.2byte	0x4
 8401 0280 F3       		.byte	0xf3
 8402 0281 01       		.uleb128 0x1
 8403 0282 50       		.byte	0x50
 8404 0283 9F       		.byte	0x9f
 8405 0284 00000000 		.4byte	0
 8406 0288 00000000 		.4byte	0
 8407              	.LLST17:
 8408 028c 10000000 		.4byte	.LVL64
 8409 0290 22000000 		.4byte	.LVL66
 8410 0294 0100     		.2byte	0x1
 8411 0296 50       		.byte	0x50
 8412 0297 00000000 		.4byte	0
 8413 029b 00000000 		.4byte	0
 8414              	.LLST18:
 8415 029f 10000000 		.4byte	.LVL64
 8416 02a3 14000000 		.4byte	.LVL65
 8417 02a7 0900     		.2byte	0x9
 8418 02a9 71       		.byte	0x71
 8419 02aa 00       		.sleb128 0
 8420 02ab 37       		.byte	0x37
 8421 02ac 1A       		.byte	0x1a
ARM GAS  C:\Users\Petro\AppData\Local\Temp\cc6W0syg.s 			page 168


 8422 02ad 0A       		.byte	0xa
 8423 02ae FFFF     		.2byte	0xffff
 8424 02b0 1A       		.byte	0x1a
 8425 02b1 9F       		.byte	0x9f
 8426 02b2 14000000 		.4byte	.LVL65
 8427 02b6 22000000 		.4byte	.LVL66
 8428 02ba 0A00     		.2byte	0xa
 8429 02bc F3       		.byte	0xf3
 8430 02bd 01       		.uleb128 0x1
 8431 02be 51       		.byte	0x51
 8432 02bf 37       		.byte	0x37
 8433 02c0 1A       		.byte	0x1a
 8434 02c1 0A       		.byte	0xa
 8435 02c2 FFFF     		.2byte	0xffff
 8436 02c4 1A       		.byte	0x1a
 8437 02c5 9F       		.byte	0x9f
 8438 02c6 00000000 		.4byte	0
 8439 02ca 00000000 		.4byte	0
 8440              	.LLST19:
 8441 02ce 00000000 		.4byte	.LVL67
 8442 02d2 10000000 		.4byte	.LVL69
 8443 02d6 0100     		.2byte	0x1
 8444 02d8 50       		.byte	0x50
 8445 02d9 10000000 		.4byte	.LVL69
 8446 02dd 28000000 		.4byte	.LFE74
 8447 02e1 0400     		.2byte	0x4
 8448 02e3 F3       		.byte	0xf3
 8449 02e4 01       		.uleb128 0x1
 8450 02e5 50       		.byte	0x50
 8451 02e6 9F       		.byte	0x9f
 8452 02e7 00000000 		.4byte	0
 8453 02eb 00000000 		.4byte	0
 8454              	.LLST20:
 8455 02ef 00000000 		.4byte	.LVL67
 8456 02f3 14000000 		.4byte	.LVL70
 8457 02f7 0100     		.2byte	0x1
 8458 02f9 51       		.byte	0x51
 8459 02fa 14000000 		.4byte	.LVL70
 8460 02fe 28000000 		.4byte	.LFE74
 8461 0302 0400     		.2byte	0x4
 8462 0304 F3       		.byte	0xf3
 8463 0305 01       		.uleb128 0x1
 8464 0306 51       		.byte	0x51
 8465 0307 9F       		.byte	0x9f
 8466 0308 00000000 		.4byte	0
 8467 030c 00000000 		.4byte	0
 8468              	.LLST21:
 8469 0310 08000000 		.4byte	.LVL68
 8470 0314 14000000 		.4byte	.LVL70
 8471 0318 0100     		.2byte	0x1
 8472 031a 51       		.byte	0x51
 8473 031b 14000000 		.4byte	.LVL70
 8474 031f 22000000 		.4byte	.LVL71
 8475 0323 0400     		.2byte	0x4
 8476 0325 F3       		.byte	0xf3
 8477 0326 01       		.uleb128 0x1
 8478 0327 51       		.byte	0x51
ARM GAS  C:\Users\Petro\AppData\Local\Temp\cc6W0syg.s 			page 169


 8479 0328 9F       		.byte	0x9f
 8480 0329 00000000 		.4byte	0
 8481 032d 00000000 		.4byte	0
 8482              	.LLST22:
 8483 0331 08000000 		.4byte	.LVL68
 8484 0335 10000000 		.4byte	.LVL69
 8485 0339 0100     		.2byte	0x1
 8486 033b 50       		.byte	0x50
 8487 033c 10000000 		.4byte	.LVL69
 8488 0340 22000000 		.4byte	.LVL71
 8489 0344 0400     		.2byte	0x4
 8490 0346 F3       		.byte	0xf3
 8491 0347 01       		.uleb128 0x1
 8492 0348 50       		.byte	0x50
 8493 0349 9F       		.byte	0x9f
 8494 034a 00000000 		.4byte	0
 8495 034e 00000000 		.4byte	0
 8496              	.LLST23:
 8497 0352 10000000 		.4byte	.LVL69
 8498 0356 22000000 		.4byte	.LVL71
 8499 035a 0100     		.2byte	0x1
 8500 035c 50       		.byte	0x50
 8501 035d 00000000 		.4byte	0
 8502 0361 00000000 		.4byte	0
 8503              	.LLST24:
 8504 0365 10000000 		.4byte	.LVL69
 8505 0369 14000000 		.4byte	.LVL70
 8506 036d 0900     		.2byte	0x9
 8507 036f 71       		.byte	0x71
 8508 0370 00       		.sleb128 0
 8509 0371 37       		.byte	0x37
 8510 0372 1A       		.byte	0x1a
 8511 0373 0A       		.byte	0xa
 8512 0374 FFFF     		.2byte	0xffff
 8513 0376 1A       		.byte	0x1a
 8514 0377 9F       		.byte	0x9f
 8515 0378 14000000 		.4byte	.LVL70
 8516 037c 22000000 		.4byte	.LVL71
 8517 0380 0A00     		.2byte	0xa
 8518 0382 F3       		.byte	0xf3
 8519 0383 01       		.uleb128 0x1
 8520 0384 51       		.byte	0x51
 8521 0385 37       		.byte	0x37
 8522 0386 1A       		.byte	0x1a
 8523 0387 0A       		.byte	0xa
 8524 0388 FFFF     		.2byte	0xffff
 8525 038a 1A       		.byte	0x1a
 8526 038b 9F       		.byte	0x9f
 8527 038c 00000000 		.4byte	0
 8528 0390 00000000 		.4byte	0
 8529              	.LLST25:
 8530 0394 00000000 		.4byte	.LVL72
 8531 0398 12000000 		.4byte	.LVL73
 8532 039c 0100     		.2byte	0x1
 8533 039e 50       		.byte	0x50
 8534 039f 12000000 		.4byte	.LVL73
 8535 03a3 3C000000 		.4byte	.LFE75
ARM GAS  C:\Users\Petro\AppData\Local\Temp\cc6W0syg.s 			page 170


 8536 03a7 0400     		.2byte	0x4
 8537 03a9 F3       		.byte	0xf3
 8538 03aa 01       		.uleb128 0x1
 8539 03ab 50       		.byte	0x50
 8540 03ac 9F       		.byte	0x9f
 8541 03ad 00000000 		.4byte	0
 8542 03b1 00000000 		.4byte	0
 8543              	.LLST26:
 8544 03b5 00000000 		.4byte	.LVL72
 8545 03b9 1A000000 		.4byte	.LVL74
 8546 03bd 0100     		.2byte	0x1
 8547 03bf 51       		.byte	0x51
 8548 03c0 1A000000 		.4byte	.LVL74
 8549 03c4 3C000000 		.4byte	.LFE75
 8550 03c8 0400     		.2byte	0x4
 8551 03ca F3       		.byte	0xf3
 8552 03cb 01       		.uleb128 0x1
 8553 03cc 51       		.byte	0x51
 8554 03cd 9F       		.byte	0x9f
 8555 03ce 00000000 		.4byte	0
 8556 03d2 00000000 		.4byte	0
 8557              	.LLST27:
 8558 03d6 12000000 		.4byte	.LVL73
 8559 03da 34000000 		.4byte	.LVL76
 8560 03de 0100     		.2byte	0x1
 8561 03e0 50       		.byte	0x50
 8562 03e1 00000000 		.4byte	0
 8563 03e5 00000000 		.4byte	0
 8564              	.LLST28:
 8565 03e9 1A000000 		.4byte	.LVL74
 8566 03ed 26000000 		.4byte	.LVL75
 8567 03f1 0100     		.2byte	0x1
 8568 03f3 51       		.byte	0x51
 8569 03f4 00000000 		.4byte	0
 8570 03f8 00000000 		.4byte	0
 8571              	.LLST29:
 8572 03fc 00000000 		.4byte	.LVL78
 8573 0400 20000000 		.4byte	.LVL81
 8574 0404 0100     		.2byte	0x1
 8575 0406 50       		.byte	0x50
 8576 0407 20000000 		.4byte	.LVL81
 8577 040b 8C000000 		.4byte	.LVL93
 8578 040f 0400     		.2byte	0x4
 8579 0411 F3       		.byte	0xf3
 8580 0412 01       		.uleb128 0x1
 8581 0413 50       		.byte	0x50
 8582 0414 9F       		.byte	0x9f
 8583 0415 8C000000 		.4byte	.LVL93
 8584 0419 9E000000 		.4byte	.LVL95
 8585 041d 0100     		.2byte	0x1
 8586 041f 50       		.byte	0x50
 8587 0420 9E000000 		.4byte	.LVL95
 8588 0424 04010000 		.4byte	.LFE81
 8589 0428 0400     		.2byte	0x4
 8590 042a F3       		.byte	0xf3
 8591 042b 01       		.uleb128 0x1
 8592 042c 50       		.byte	0x50
ARM GAS  C:\Users\Petro\AppData\Local\Temp\cc6W0syg.s 			page 171


 8593 042d 9F       		.byte	0x9f
 8594 042e 00000000 		.4byte	0
 8595 0432 00000000 		.4byte	0
 8596              	.LLST30:
 8597 0436 00000000 		.4byte	.LVL78
 8598 043a 10000000 		.4byte	.LVL80
 8599 043e 0100     		.2byte	0x1
 8600 0440 51       		.byte	0x51
 8601 0441 10000000 		.4byte	.LVL80
 8602 0445 04010000 		.4byte	.LFE81
 8603 0449 0200     		.2byte	0x2
 8604 044b 91       		.byte	0x91
 8605 044c 64       		.sleb128 -28
 8606 044d 00000000 		.4byte	0
 8607 0451 00000000 		.4byte	0
 8608              	.LLST31:
 8609 0455 00000000 		.4byte	.LVL78
 8610 0459 08000000 		.4byte	.LVL79
 8611 045d 0100     		.2byte	0x1
 8612 045f 52       		.byte	0x52
 8613 0460 08000000 		.4byte	.LVL79
 8614 0464 04010000 		.4byte	.LFE81
 8615 0468 0200     		.2byte	0x2
 8616 046a 91       		.byte	0x91
 8617 046b 5C       		.sleb128 -36
 8618 046c 00000000 		.4byte	0
 8619 0470 00000000 		.4byte	0
 8620              	.LLST32:
 8621 0474 24000000 		.4byte	.LVL82
 8622 0478 26000000 		.4byte	.LVL83
 8623 047c 0300     		.2byte	0x3
 8624 047e 73       		.byte	0x73
 8625 047f 04       		.sleb128 4
 8626 0480 9F       		.byte	0x9f
 8627 0481 26000000 		.4byte	.LVL83
 8628 0485 8C000000 		.4byte	.LVL93
 8629 0489 0600     		.2byte	0x6
 8630 048b 91       		.byte	0x91
 8631 048c 60       		.sleb128 -32
 8632 048d 06       		.byte	0x6
 8633 048e 23       		.byte	0x23
 8634 048f 04       		.uleb128 0x4
 8635 0490 9F       		.byte	0x9f
 8636 0491 00000000 		.4byte	0
 8637 0495 00000000 		.4byte	0
 8638              	.LLST33:
 8639 0499 24000000 		.4byte	.LVL82
 8640 049d 2A000000 		.4byte	.LVL84
 8641 04a1 0200     		.2byte	0x2
 8642 04a3 30       		.byte	0x30
 8643 04a4 9F       		.byte	0x9f
 8644 04a5 2A000000 		.4byte	.LVL84
 8645 04a9 8C000000 		.4byte	.LVL93
 8646 04ad 0100     		.2byte	0x1
 8647 04af 54       		.byte	0x54
 8648 04b0 00000000 		.4byte	0
 8649 04b4 00000000 		.4byte	0
ARM GAS  C:\Users\Petro\AppData\Local\Temp\cc6W0syg.s 			page 172


 8650              	.LLST34:
 8651 04b8 36000000 		.4byte	.LVL85
 8652 04bc 8C000000 		.4byte	.LVL93
 8653 04c0 0100     		.2byte	0x1
 8654 04c2 56       		.byte	0x56
 8655 04c3 00000000 		.4byte	0
 8656 04c7 00000000 		.4byte	0
 8657              	.LLST35:
 8658 04cb 40000000 		.4byte	.LVL86
 8659 04cf 84000000 		.4byte	.LVL91
 8660 04d3 0100     		.2byte	0x1
 8661 04d5 57       		.byte	0x57
 8662 04d6 00000000 		.4byte	0
 8663 04da 00000000 		.4byte	0
 8664              	.LLST36:
 8665 04de 9A000000 		.4byte	.LVL94
 8666 04e2 FA000000 		.4byte	.LVL104
 8667 04e6 0100     		.2byte	0x1
 8668 04e8 54       		.byte	0x54
 8669 04e9 00000000 		.4byte	0
 8670 04ed 00000000 		.4byte	0
 8671              	.LLST37:
 8672 04f1 9E000000 		.4byte	.LVL95
 8673 04f5 FA000000 		.4byte	.LVL104
 8674 04f9 0200     		.2byte	0x2
 8675 04fb 91       		.byte	0x91
 8676 04fc 60       		.sleb128 -32
 8677 04fd 00000000 		.4byte	0
 8678 0501 00000000 		.4byte	0
 8679              	.LLST38:
 8680 0505 9E000000 		.4byte	.LVL95
 8681 0509 E2000000 		.4byte	.LVL98
 8682 050d 0100     		.2byte	0x1
 8683 050f 55       		.byte	0x55
 8684 0510 E2000000 		.4byte	.LVL98
 8685 0514 E6000000 		.4byte	.LVL99
 8686 0518 0300     		.2byte	0x3
 8687 051a 75       		.byte	0x75
 8688 051b 7F       		.sleb128 -1
 8689 051c 9F       		.byte	0x9f
 8690 051d E6000000 		.4byte	.LVL99
 8691 0521 F2000000 		.4byte	.LVL101
 8692 0525 0200     		.2byte	0x2
 8693 0527 37       		.byte	0x37
 8694 0528 9F       		.byte	0x9f
 8695 0529 F2000000 		.4byte	.LVL101
 8696 052d FA000000 		.4byte	.LVL104
 8697 0531 0100     		.2byte	0x1
 8698 0533 55       		.byte	0x55
 8699 0534 00000000 		.4byte	0
 8700 0538 00000000 		.4byte	0
 8701              	.LLST39:
 8702 053c 9E000000 		.4byte	.LVL95
 8703 0540 FA000000 		.4byte	.LVL104
 8704 0544 0100     		.2byte	0x1
 8705 0546 57       		.byte	0x57
 8706 0547 00000000 		.4byte	0
ARM GAS  C:\Users\Petro\AppData\Local\Temp\cc6W0syg.s 			page 173


 8707 054b 00000000 		.4byte	0
 8708              	.LLST40:
 8709 054f A8000000 		.4byte	.LVL96
 8710 0553 FA000000 		.4byte	.LVL104
 8711 0557 0100     		.2byte	0x1
 8712 0559 56       		.byte	0x56
 8713 055a 00000000 		.4byte	0
 8714 055e 00000000 		.4byte	0
 8715              	.LLST41:
 8716 0562 00000000 		.4byte	.LVL105
 8717 0566 0B000000 		.4byte	.LVL106-1
 8718 056a 0100     		.2byte	0x1
 8719 056c 50       		.byte	0x50
 8720 056d 0B000000 		.4byte	.LVL106-1
 8721 0571 36000000 		.4byte	.LVL112
 8722 0575 0100     		.2byte	0x1
 8723 0577 57       		.byte	0x57
 8724 0578 36000000 		.4byte	.LVL112
 8725 057c 3A000000 		.4byte	.LVL113
 8726 0580 0600     		.2byte	0x6
 8727 0582 77       		.byte	0x77
 8728 0583 00       		.sleb128 0
 8729 0584 75       		.byte	0x75
 8730 0585 00       		.sleb128 0
 8731 0586 22       		.byte	0x22
 8732 0587 9F       		.byte	0x9f
 8733 0588 3A000000 		.4byte	.LVL113
 8734 058c 4C000000 		.4byte	.LVL115
 8735 0590 0800     		.2byte	0x8
 8736 0592 77       		.byte	0x77
 8737 0593 00       		.sleb128 0
 8738 0594 75       		.byte	0x75
 8739 0595 00       		.sleb128 0
 8740 0596 22       		.byte	0x22
 8741 0597 23       		.byte	0x23
 8742 0598 01       		.uleb128 0x1
 8743 0599 9F       		.byte	0x9f
 8744 059a 4C000000 		.4byte	.LVL115
 8745 059e 4E000000 		.4byte	.LVL117
 8746 05a2 0600     		.2byte	0x6
 8747 05a4 77       		.byte	0x77
 8748 05a5 00       		.sleb128 0
 8749 05a6 75       		.byte	0x75
 8750 05a7 00       		.sleb128 0
 8751 05a8 22       		.byte	0x22
 8752 05a9 9F       		.byte	0x9f
 8753 05aa 00000000 		.4byte	0
 8754 05ae 00000000 		.4byte	0
 8755              	.LLST42:
 8756 05b2 00000000 		.4byte	.LVL105
 8757 05b6 0B000000 		.4byte	.LVL106-1
 8758 05ba 0100     		.2byte	0x1
 8759 05bc 51       		.byte	0x51
 8760 05bd 0B000000 		.4byte	.LVL106-1
 8761 05c1 18000000 		.4byte	.LVL108
 8762 05c5 0100     		.2byte	0x1
 8763 05c7 54       		.byte	0x54
ARM GAS  C:\Users\Petro\AppData\Local\Temp\cc6W0syg.s 			page 174


 8764 05c8 18000000 		.4byte	.LVL108
 8765 05cc 1E000000 		.4byte	.LVL109
 8766 05d0 0400     		.2byte	0x4
 8767 05d2 F3       		.byte	0xf3
 8768 05d3 01       		.uleb128 0x1
 8769 05d4 51       		.byte	0x51
 8770 05d5 9F       		.byte	0x9f
 8771 05d6 1E000000 		.4byte	.LVL109
 8772 05da 30000000 		.4byte	.LVL110
 8773 05de 0100     		.2byte	0x1
 8774 05e0 54       		.byte	0x54
 8775 05e1 34000000 		.4byte	.LVL111
 8776 05e5 4E000000 		.4byte	.LVL116
 8777 05e9 0100     		.2byte	0x1
 8778 05eb 54       		.byte	0x54
 8779 05ec 00000000 		.4byte	0
 8780 05f0 00000000 		.4byte	0
 8781              	.LLST43:
 8782 05f4 00000000 		.4byte	.LVL105
 8783 05f8 0B000000 		.4byte	.LVL106-1
 8784 05fc 0100     		.2byte	0x1
 8785 05fe 52       		.byte	0x52
 8786 05ff 0B000000 		.4byte	.LVL106-1
 8787 0603 5C000000 		.4byte	.LFE77
 8788 0607 0200     		.2byte	0x2
 8789 0609 91       		.byte	0x91
 8790 060a 64       		.sleb128 -28
 8791 060b 00000000 		.4byte	0
 8792 060f 00000000 		.4byte	0
 8793              	.LLST44:
 8794 0613 10000000 		.4byte	.LVL107
 8795 0617 36000000 		.4byte	.LVL112
 8796 061b 0100     		.2byte	0x1
 8797 061d 50       		.byte	0x50
 8798 061e 36000000 		.4byte	.LVL112
 8799 0622 4E000000 		.4byte	.LVL118
 8800 0626 0100     		.2byte	0x1
 8801 0628 56       		.byte	0x56
 8802 0629 00000000 		.4byte	0
 8803 062d 00000000 		.4byte	0
 8804              	.LLST45:
 8805 0631 34000000 		.4byte	.LVL111
 8806 0635 36000000 		.4byte	.LVL112
 8807 0639 0200     		.2byte	0x2
 8808 063b 30       		.byte	0x30
 8809 063c 9F       		.byte	0x9f
 8810 063d 36000000 		.4byte	.LVL112
 8811 0641 4E000000 		.4byte	.LVL117
 8812 0645 0100     		.2byte	0x1
 8813 0647 55       		.byte	0x55
 8814 0648 00000000 		.4byte	0
 8815 064c 00000000 		.4byte	0
 8816              	.LLST46:
 8817 0650 00000000 		.4byte	.LVL119
 8818 0654 05000000 		.4byte	.LVL120-1
 8819 0658 0100     		.2byte	0x1
 8820 065a 50       		.byte	0x50
ARM GAS  C:\Users\Petro\AppData\Local\Temp\cc6W0syg.s 			page 175


 8821 065b 05000000 		.4byte	.LVL120-1
 8822 065f 08000000 		.4byte	.LFE78
 8823 0663 0400     		.2byte	0x4
 8824 0665 F3       		.byte	0xf3
 8825 0666 01       		.uleb128 0x1
 8826 0667 50       		.byte	0x50
 8827 0668 9F       		.byte	0x9f
 8828 0669 00000000 		.4byte	0
 8829 066d 00000000 		.4byte	0
 8830              	.LLST47:
 8831 0671 00000000 		.4byte	.LVL119
 8832 0675 05000000 		.4byte	.LVL120-1
 8833 0679 0100     		.2byte	0x1
 8834 067b 51       		.byte	0x51
 8835 067c 05000000 		.4byte	.LVL120-1
 8836 0680 08000000 		.4byte	.LFE78
 8837 0684 0400     		.2byte	0x4
 8838 0686 F3       		.byte	0xf3
 8839 0687 01       		.uleb128 0x1
 8840 0688 51       		.byte	0x51
 8841 0689 9F       		.byte	0x9f
 8842 068a 00000000 		.4byte	0
 8843 068e 00000000 		.4byte	0
 8844              	.LLST48:
 8845 0692 00000000 		.4byte	.LVL119
 8846 0696 05000000 		.4byte	.LVL120-1
 8847 069a 0100     		.2byte	0x1
 8848 069c 52       		.byte	0x52
 8849 069d 05000000 		.4byte	.LVL120-1
 8850 06a1 08000000 		.4byte	.LFE78
 8851 06a5 0400     		.2byte	0x4
 8852 06a7 F3       		.byte	0xf3
 8853 06a8 01       		.uleb128 0x1
 8854 06a9 52       		.byte	0x52
 8855 06aa 9F       		.byte	0x9f
 8856 06ab 00000000 		.4byte	0
 8857 06af 00000000 		.4byte	0
 8858              	.LLST49:
 8859 06b3 00000000 		.4byte	.LVL121
 8860 06b7 16000000 		.4byte	.LVL124
 8861 06bb 0100     		.2byte	0x1
 8862 06bd 50       		.byte	0x50
 8863 06be 16000000 		.4byte	.LVL124
 8864 06c2 1A000000 		.4byte	.LVL125
 8865 06c6 0100     		.2byte	0x1
 8866 06c8 54       		.byte	0x54
 8867 06c9 1A000000 		.4byte	.LVL125
 8868 06cd 36000000 		.4byte	.LVL128
 8869 06d1 0400     		.2byte	0x4
 8870 06d3 F3       		.byte	0xf3
 8871 06d4 01       		.uleb128 0x1
 8872 06d5 50       		.byte	0x50
 8873 06d6 9F       		.byte	0x9f
 8874 06d7 36000000 		.4byte	.LVL128
 8875 06db 3E000000 		.4byte	.LVL129
 8876 06df 0100     		.2byte	0x1
 8877 06e1 54       		.byte	0x54
ARM GAS  C:\Users\Petro\AppData\Local\Temp\cc6W0syg.s 			page 176


 8878 06e2 3E000000 		.4byte	.LVL129
 8879 06e6 46000000 		.4byte	.LVL131
 8880 06ea 0100     		.2byte	0x1
 8881 06ec 50       		.byte	0x50
 8882 06ed 46000000 		.4byte	.LVL131
 8883 06f1 66000000 		.4byte	.LVL137
 8884 06f5 0100     		.2byte	0x1
 8885 06f7 54       		.byte	0x54
 8886 06f8 66000000 		.4byte	.LVL137
 8887 06fc 78000000 		.4byte	.LVL138
 8888 0700 0100     		.2byte	0x1
 8889 0702 50       		.byte	0x50
 8890 0703 78000000 		.4byte	.LVL138
 8891 0707 9E000000 		.4byte	.LVL142
 8892 070b 0100     		.2byte	0x1
 8893 070d 54       		.byte	0x54
 8894 070e 00000000 		.4byte	0
 8895 0712 00000000 		.4byte	0
 8896              	.LLST50:
 8897 0716 00000000 		.4byte	.LVL121
 8898 071a 4A000000 		.4byte	.LVL133
 8899 071e 0100     		.2byte	0x1
 8900 0720 51       		.byte	0x51
 8901 0721 4A000000 		.4byte	.LVL133
 8902 0725 CC000000 		.4byte	.LFE79
 8903 0729 0300     		.2byte	0x3
 8904 072b 91       		.byte	0x91
 8905 072c A87F     		.sleb128 -88
 8906 072e 00000000 		.4byte	0
 8907 0732 00000000 		.4byte	0
 8908              	.LLST51:
 8909 0736 00000000 		.4byte	.LVL121
 8910 073a 4A000000 		.4byte	.LVL133
 8911 073e 0100     		.2byte	0x1
 8912 0740 52       		.byte	0x52
 8913 0741 4A000000 		.4byte	.LVL133
 8914 0745 CC000000 		.4byte	.LFE79
 8915 0749 0300     		.2byte	0x3
 8916 074b 91       		.byte	0x91
 8917 074c AC7F     		.sleb128 -84
 8918 074e 00000000 		.4byte	0
 8919 0752 00000000 		.4byte	0
 8920              	.LLST52:
 8921 0756 00000000 		.4byte	.LVL121
 8922 075a 08000000 		.4byte	.LVL122
 8923 075e 0100     		.2byte	0x1
 8924 0760 53       		.byte	0x53
 8925 0761 08000000 		.4byte	.LVL122
 8926 0765 9E000000 		.4byte	.LVL142
 8927 0769 0100     		.2byte	0x1
 8928 076b 57       		.byte	0x57
 8929 076c 9E000000 		.4byte	.LVL142
 8930 0770 CC000000 		.4byte	.LFE79
 8931 0774 0400     		.2byte	0x4
 8932 0776 F3       		.byte	0xf3
 8933 0777 01       		.uleb128 0x1
 8934 0778 53       		.byte	0x53
ARM GAS  C:\Users\Petro\AppData\Local\Temp\cc6W0syg.s 			page 177


 8935 0779 9F       		.byte	0x9f
 8936 077a 00000000 		.4byte	0
 8937 077e 00000000 		.4byte	0
 8938              	.LLST53:
 8939 0782 00000000 		.4byte	.LVL121
 8940 0786 08000000 		.4byte	.LVL122
 8941 078a 0200     		.2byte	0x2
 8942 078c 91       		.byte	0x91
 8943 078d 00       		.sleb128 0
 8944 078e 08000000 		.4byte	.LVL122
 8945 0792 0A000000 		.4byte	.LVL123
 8946 0796 0200     		.2byte	0x2
 8947 0798 73       		.byte	0x73
 8948 0799 00       		.sleb128 0
 8949 079a 0A000000 		.4byte	.LVL123
 8950 079e CC000000 		.4byte	.LFE79
 8951 07a2 0200     		.2byte	0x2
 8952 07a4 91       		.byte	0x91
 8953 07a5 00       		.sleb128 0
 8954 07a6 00000000 		.4byte	0
 8955 07aa 00000000 		.4byte	0
 8956              	.LLST54:
 8957 07ae 00000000 		.4byte	.LVL121
 8958 07b2 44000000 		.4byte	.LVL130
 8959 07b6 0200     		.2byte	0x2
 8960 07b8 30       		.byte	0x30
 8961 07b9 9F       		.byte	0x9f
 8962 07ba 44000000 		.4byte	.LVL130
 8963 07be 48000000 		.4byte	.LVL132
 8964 07c2 0200     		.2byte	0x2
 8965 07c4 31       		.byte	0x31
 8966 07c5 9F       		.byte	0x9f
 8967 07c6 48000000 		.4byte	.LVL132
 8968 07ca BE000000 		.4byte	.LVL146
 8969 07ce 0100     		.2byte	0x1
 8970 07d0 56       		.byte	0x56
 8971 07d1 00000000 		.4byte	0
 8972 07d5 00000000 		.4byte	0
 8973              	.LLST55:
 8974 07d9 00000000 		.4byte	.LVL121
 8975 07dd 1A000000 		.4byte	.LVL125
 8976 07e1 0200     		.2byte	0x2
 8977 07e3 30       		.byte	0x30
 8978 07e4 9F       		.byte	0x9f
 8979 07e5 1A000000 		.4byte	.LVL125
 8980 07e9 32000000 		.4byte	.LVL127
 8981 07ed 0100     		.2byte	0x1
 8982 07ef 54       		.byte	0x54
 8983 07f0 36000000 		.4byte	.LVL128
 8984 07f4 4A000000 		.4byte	.LVL133
 8985 07f8 0200     		.2byte	0x2
 8986 07fa 30       		.byte	0x30
 8987 07fb 9F       		.byte	0x9f
 8988 07fc 4A000000 		.4byte	.LVL133
 8989 0800 BE000000 		.4byte	.LVL146
 8990 0804 0100     		.2byte	0x1
 8991 0806 55       		.byte	0x55
ARM GAS  C:\Users\Petro\AppData\Local\Temp\cc6W0syg.s 			page 178


 8992 0807 00000000 		.4byte	0
 8993 080b 00000000 		.4byte	0
 8994              	.LLST56:
 8995 080f 00000000 		.4byte	.LVL121
 8996 0813 80000000 		.4byte	.LVL139
 8997 0817 0200     		.2byte	0x2
 8998 0819 30       		.byte	0x30
 8999 081a 9F       		.byte	0x9f
 9000 081b 80000000 		.4byte	.LVL139
 9001 081f 9C000000 		.4byte	.LVL141
 9002 0823 0100     		.2byte	0x1
 9003 0825 51       		.byte	0x51
 9004 0826 9C000000 		.4byte	.LVL141
 9005 082a BA000000 		.4byte	.LVL145
 9006 082e 0100     		.2byte	0x1
 9007 0830 53       		.byte	0x53
 9008 0831 00000000 		.4byte	0
 9009 0835 00000000 		.4byte	0
 9010              	.LLST57:
 9011 0839 9C000000 		.4byte	.LVL141
 9012 083d 9E000000 		.4byte	.LVL142
 9013 0841 0200     		.2byte	0x2
 9014 0843 30       		.byte	0x30
 9015 0844 9F       		.byte	0x9f
 9016 0845 9E000000 		.4byte	.LVL142
 9017 0849 B8000000 		.4byte	.LVL144
 9018 084d 0100     		.2byte	0x1
 9019 084f 52       		.byte	0x52
 9020 0850 00000000 		.4byte	0
 9021 0854 00000000 		.4byte	0
 9022              	.LLST58:
 9023 0858 80000000 		.4byte	.LVL139
 9024 085c 9C000000 		.4byte	.LVL141
 9025 0860 0100     		.2byte	0x1
 9026 0862 51       		.byte	0x51
 9027 0863 00000000 		.4byte	0
 9028 0867 00000000 		.4byte	0
 9029              	.LLST59:
 9030 086b 00000000 		.4byte	.LVL148
 9031 086f 14000000 		.4byte	.LVL153
 9032 0873 0600     		.2byte	0x6
 9033 0875 50       		.byte	0x50
 9034 0876 93       		.byte	0x93
 9035 0877 04       		.uleb128 0x4
 9036 0878 51       		.byte	0x51
 9037 0879 93       		.byte	0x93
 9038 087a 04       		.uleb128 0x4
 9039 087b 14000000 		.4byte	.LVL153
 9040 087f 92000000 		.4byte	.LFE80
 9041 0883 0600     		.2byte	0x6
 9042 0885 F3       		.byte	0xf3
 9043 0886 03       		.uleb128 0x3
 9044 0887 F5       		.byte	0xf5
 9045 0888 00       		.uleb128 0
 9046 0889 25       		.uleb128 0x25
 9047 088a 9F       		.byte	0x9f
 9048 088b 00000000 		.4byte	0
ARM GAS  C:\Users\Petro\AppData\Local\Temp\cc6W0syg.s 			page 179


 9049 088f 00000000 		.4byte	0
 9050              	.LLST60:
 9051 0893 00000000 		.4byte	.LVL148
 9052 0897 22000000 		.4byte	.LVL156
 9053 089b 0100     		.2byte	0x1
 9054 089d 52       		.byte	0x52
 9055 089e 22000000 		.4byte	.LVL156
 9056 08a2 92000000 		.4byte	.LFE80
 9057 08a6 0400     		.2byte	0x4
 9058 08a8 F3       		.byte	0xf3
 9059 08a9 01       		.uleb128 0x1
 9060 08aa 52       		.byte	0x52
 9061 08ab 9F       		.byte	0x9f
 9062 08ac 00000000 		.4byte	0
 9063 08b0 00000000 		.4byte	0
 9064              	.LLST61:
 9065 08b4 00000000 		.4byte	.LVL148
 9066 08b8 0C000000 		.4byte	.LVL150
 9067 08bc 0100     		.2byte	0x1
 9068 08be 53       		.byte	0x53
 9069 08bf 0C000000 		.4byte	.LVL150
 9070 08c3 0E000000 		.4byte	.LVL151
 9071 08c7 0200     		.2byte	0x2
 9072 08c9 73       		.byte	0x73
 9073 08ca 44       		.sleb128 -60
 9074 08cb 0E000000 		.4byte	.LVL151
 9075 08cf 12000000 		.4byte	.LVL152
 9076 08d3 0200     		.2byte	0x2
 9077 08d5 73       		.byte	0x73
 9078 08d6 40       		.sleb128 -64
 9079 08d7 12000000 		.4byte	.LVL152
 9080 08db 92000000 		.4byte	.LFE80
 9081 08df 0200     		.2byte	0x2
 9082 08e1 91       		.byte	0x91
 9083 08e2 44       		.sleb128 -60
 9084 08e3 00000000 		.4byte	0
 9085 08e7 00000000 		.4byte	0
 9086              	.LLST62:
 9087 08eb 00000000 		.4byte	.LVL148
 9088 08ef 0C000000 		.4byte	.LVL150
 9089 08f3 0200     		.2byte	0x2
 9090 08f5 91       		.byte	0x91
 9091 08f6 00       		.sleb128 0
 9092 08f7 0C000000 		.4byte	.LVL150
 9093 08fb 0E000000 		.4byte	.LVL151
 9094 08ff 0200     		.2byte	0x2
 9095 0901 73       		.byte	0x73
 9096 0902 00       		.sleb128 0
 9097 0903 0E000000 		.4byte	.LVL151
 9098 0907 12000000 		.4byte	.LVL152
 9099 090b 0200     		.2byte	0x2
 9100 090d 73       		.byte	0x73
 9101 090e 7C       		.sleb128 -4
 9102 090f 12000000 		.4byte	.LVL152
 9103 0913 92000000 		.4byte	.LFE80
 9104 0917 0200     		.2byte	0x2
 9105 0919 91       		.byte	0x91
ARM GAS  C:\Users\Petro\AppData\Local\Temp\cc6W0syg.s 			page 180


 9106 091a 00       		.sleb128 0
 9107 091b 00000000 		.4byte	0
 9108 091f 00000000 		.4byte	0
 9109              	.LLST63:
 9110 0923 00000000 		.4byte	.LVL148
 9111 0927 0C000000 		.4byte	.LVL150
 9112 092b 0200     		.2byte	0x2
 9113 092d 91       		.byte	0x91
 9114 092e 04       		.sleb128 4
 9115 092f 0C000000 		.4byte	.LVL150
 9116 0933 0E000000 		.4byte	.LVL151
 9117 0937 0200     		.2byte	0x2
 9118 0939 73       		.byte	0x73
 9119 093a 04       		.sleb128 4
 9120 093b 0E000000 		.4byte	.LVL151
 9121 093f 12000000 		.4byte	.LVL152
 9122 0943 0200     		.2byte	0x2
 9123 0945 73       		.byte	0x73
 9124 0946 00       		.sleb128 0
 9125 0947 12000000 		.4byte	.LVL152
 9126 094b 92000000 		.4byte	.LFE80
 9127 094f 0200     		.2byte	0x2
 9128 0951 91       		.byte	0x91
 9129 0952 04       		.sleb128 4
 9130 0953 00000000 		.4byte	0
 9131 0957 00000000 		.4byte	0
 9132              	.LLST64:
 9133 095b 00000000 		.4byte	.LVL148
 9134 095f 0C000000 		.4byte	.LVL150
 9135 0963 0200     		.2byte	0x2
 9136 0965 91       		.byte	0x91
 9137 0966 08       		.sleb128 8
 9138 0967 0C000000 		.4byte	.LVL150
 9139 096b 0E000000 		.4byte	.LVL151
 9140 096f 0200     		.2byte	0x2
 9141 0971 73       		.byte	0x73
 9142 0972 08       		.sleb128 8
 9143 0973 0E000000 		.4byte	.LVL151
 9144 0977 12000000 		.4byte	.LVL152
 9145 097b 0200     		.2byte	0x2
 9146 097d 73       		.byte	0x73
 9147 097e 04       		.sleb128 4
 9148 097f 12000000 		.4byte	.LVL152
 9149 0983 92000000 		.4byte	.LFE80
 9150 0987 0200     		.2byte	0x2
 9151 0989 91       		.byte	0x91
 9152 098a 08       		.sleb128 8
 9153 098b 00000000 		.4byte	0
 9154 098f 00000000 		.4byte	0
 9155              	.LLST65:
 9156 0993 00000000 		.4byte	.LVL148
 9157 0997 0C000000 		.4byte	.LVL150
 9158 099b 0200     		.2byte	0x2
 9159 099d 91       		.byte	0x91
 9160 099e 0C       		.sleb128 12
 9161 099f 0C000000 		.4byte	.LVL150
 9162 09a3 0E000000 		.4byte	.LVL151
ARM GAS  C:\Users\Petro\AppData\Local\Temp\cc6W0syg.s 			page 181


 9163 09a7 0200     		.2byte	0x2
 9164 09a9 73       		.byte	0x73
 9165 09aa 0C       		.sleb128 12
 9166 09ab 0E000000 		.4byte	.LVL151
 9167 09af 12000000 		.4byte	.LVL152
 9168 09b3 0200     		.2byte	0x2
 9169 09b5 73       		.byte	0x73
 9170 09b6 08       		.sleb128 8
 9171 09b7 12000000 		.4byte	.LVL152
 9172 09bb 18000000 		.4byte	.LVL154
 9173 09bf 0200     		.2byte	0x2
 9174 09c1 91       		.byte	0x91
 9175 09c2 0C       		.sleb128 12
 9176 09c3 18000000 		.4byte	.LVL154
 9177 09c7 1C000000 		.4byte	.LVL155
 9178 09cb 0200     		.2byte	0x2
 9179 09cd 73       		.byte	0x73
 9180 09ce 00       		.sleb128 0
 9181 09cf 1C000000 		.4byte	.LVL155
 9182 09d3 92000000 		.4byte	.LFE80
 9183 09d7 0200     		.2byte	0x2
 9184 09d9 91       		.byte	0x91
 9185 09da 0C       		.sleb128 12
 9186 09db 00000000 		.4byte	0
 9187 09df 00000000 		.4byte	0
 9188              	.LLST66:
 9189 09e3 5E000000 		.4byte	.LVL163
 9190 09e7 70000000 		.4byte	.LVL166
 9191 09eb 0200     		.2byte	0x2
 9192 09ed 4B       		.byte	0x4b
 9193 09ee 9F       		.byte	0x9f
 9194 09ef 7E000000 		.4byte	.LVL169
 9195 09f3 82000000 		.4byte	.LVL170
 9196 09f7 0200     		.2byte	0x2
 9197 09f9 4B       		.byte	0x4b
 9198 09fa 9F       		.byte	0x9f
 9199 09fb 00000000 		.4byte	0
 9200 09ff 00000000 		.4byte	0
 9201              	.LLST67:
 9202 0a03 36000000 		.4byte	.LVL158
 9203 0a07 4A000000 		.4byte	.LVL161
 9204 0a0b 0100     		.2byte	0x1
 9205 0a0d 53       		.byte	0x53
 9206 0a0e 00000000 		.4byte	0
 9207 0a12 00000000 		.4byte	0
 9208              	.LLST68:
 9209 0a16 5E000000 		.4byte	.LVL163
 9210 0a1a 60000000 		.4byte	.LVL164
 9211 0a1e 0200     		.2byte	0x2
 9212 0a20 31       		.byte	0x31
 9213 0a21 9F       		.byte	0x9f
 9214 0a22 60000000 		.4byte	.LVL164
 9215 0a26 70000000 		.4byte	.LVL166
 9216 0a2a 0100     		.2byte	0x1
 9217 0a2c 53       		.byte	0x53
 9218 0a2d 7E000000 		.4byte	.LVL169
 9219 0a31 82000000 		.4byte	.LVL170
ARM GAS  C:\Users\Petro\AppData\Local\Temp\cc6W0syg.s 			page 182


 9220 0a35 0100     		.2byte	0x1
 9221 0a37 53       		.byte	0x53
 9222 0a38 00000000 		.4byte	0
 9223 0a3c 00000000 		.4byte	0
 9224              	.LLST69:
 9225 0a40 00000000 		.4byte	.LVL174
 9226 0a44 12000000 		.4byte	.LVL175
 9227 0a48 0100     		.2byte	0x1
 9228 0a4a 50       		.byte	0x50
 9229 0a4b 12000000 		.4byte	.LVL175
 9230 0a4f 38000000 		.4byte	.LFE83
 9231 0a53 0400     		.2byte	0x4
 9232 0a55 F3       		.byte	0xf3
 9233 0a56 01       		.uleb128 0x1
 9234 0a57 50       		.byte	0x50
 9235 0a58 9F       		.byte	0x9f
 9236 0a59 00000000 		.4byte	0
 9237 0a5d 00000000 		.4byte	0
 9238              	.LLST70:
 9239 0a61 00000000 		.4byte	.LVL174
 9240 0a65 16000000 		.4byte	.LVL176
 9241 0a69 0100     		.2byte	0x1
 9242 0a6b 51       		.byte	0x51
 9243 0a6c 16000000 		.4byte	.LVL176
 9244 0a70 38000000 		.4byte	.LFE83
 9245 0a74 0400     		.2byte	0x4
 9246 0a76 F3       		.byte	0xf3
 9247 0a77 01       		.uleb128 0x1
 9248 0a78 51       		.byte	0x51
 9249 0a79 9F       		.byte	0x9f
 9250 0a7a 00000000 		.4byte	0
 9251 0a7e 00000000 		.4byte	0
 9252              	.LLST71:
 9253 0a82 22000000 		.4byte	.LVL178
 9254 0a86 30000000 		.4byte	.LVL180
 9255 0a8a 0D00     		.2byte	0xd
 9256 0a8c F3       		.byte	0xf3
 9257 0a8d 01       		.uleb128 0x1
 9258 0a8e 51       		.byte	0x51
 9259 0a8f 33       		.byte	0x33
 9260 0a90 26       		.byte	0x26
 9261 0a91 08       		.byte	0x8
 9262 0a92 54       		.byte	0x54
 9263 0a93 1E       		.byte	0x1e
 9264 0a94 F3       		.byte	0xf3
 9265 0a95 01       		.uleb128 0x1
 9266 0a96 50       		.byte	0x50
 9267 0a97 22       		.byte	0x22
 9268 0a98 9F       		.byte	0x9f
 9269 0a99 00000000 		.4byte	0
 9270 0a9d 00000000 		.4byte	0
 9271              	.LLST72:
 9272 0aa1 22000000 		.4byte	.LVL178
 9273 0aa5 30000000 		.4byte	.LVL180
 9274 0aa9 0600     		.2byte	0x6
 9275 0aab F3       		.byte	0xf3
 9276 0aac 01       		.uleb128 0x1
ARM GAS  C:\Users\Petro\AppData\Local\Temp\cc6W0syg.s 			page 183


 9277 0aad 51       		.byte	0x51
 9278 0aae 37       		.byte	0x37
 9279 0aaf 1A       		.byte	0x1a
 9280 0ab0 9F       		.byte	0x9f
 9281 0ab1 00000000 		.4byte	0
 9282 0ab5 00000000 		.4byte	0
 9283              	.LLST73:
 9284 0ab9 1E000000 		.4byte	.LVL177
 9285 0abd 30000000 		.4byte	.LVL180
 9286 0ac1 0100     		.2byte	0x1
 9287 0ac3 53       		.byte	0x53
 9288 0ac4 00000000 		.4byte	0
 9289 0ac8 00000000 		.4byte	0
 9290              	.LLST74:
 9291 0acc 00000000 		.4byte	.LVL181
 9292 0ad0 12000000 		.4byte	.LVL182
 9293 0ad4 0100     		.2byte	0x1
 9294 0ad6 50       		.byte	0x50
 9295 0ad7 12000000 		.4byte	.LVL182
 9296 0adb 38000000 		.4byte	.LFE84
 9297 0adf 0400     		.2byte	0x4
 9298 0ae1 F3       		.byte	0xf3
 9299 0ae2 01       		.uleb128 0x1
 9300 0ae3 50       		.byte	0x50
 9301 0ae4 9F       		.byte	0x9f
 9302 0ae5 00000000 		.4byte	0
 9303 0ae9 00000000 		.4byte	0
 9304              	.LLST75:
 9305 0aed 00000000 		.4byte	.LVL181
 9306 0af1 16000000 		.4byte	.LVL183
 9307 0af5 0100     		.2byte	0x1
 9308 0af7 51       		.byte	0x51
 9309 0af8 16000000 		.4byte	.LVL183
 9310 0afc 38000000 		.4byte	.LFE84
 9311 0b00 0400     		.2byte	0x4
 9312 0b02 F3       		.byte	0xf3
 9313 0b03 01       		.uleb128 0x1
 9314 0b04 51       		.byte	0x51
 9315 0b05 9F       		.byte	0x9f
 9316 0b06 00000000 		.4byte	0
 9317 0b0a 00000000 		.4byte	0
 9318              	.LLST76:
 9319 0b0e 24000000 		.4byte	.LVL185
 9320 0b12 32000000 		.4byte	.LVL187
 9321 0b16 0D00     		.2byte	0xd
 9322 0b18 F3       		.byte	0xf3
 9323 0b19 01       		.uleb128 0x1
 9324 0b1a 51       		.byte	0x51
 9325 0b1b 33       		.byte	0x33
 9326 0b1c 26       		.byte	0x26
 9327 0b1d 08       		.byte	0x8
 9328 0b1e 54       		.byte	0x54
 9329 0b1f 1E       		.byte	0x1e
 9330 0b20 F3       		.byte	0xf3
 9331 0b21 01       		.uleb128 0x1
 9332 0b22 50       		.byte	0x50
 9333 0b23 22       		.byte	0x22
ARM GAS  C:\Users\Petro\AppData\Local\Temp\cc6W0syg.s 			page 184


 9334 0b24 9F       		.byte	0x9f
 9335 0b25 00000000 		.4byte	0
 9336 0b29 00000000 		.4byte	0
 9337              	.LLST77:
 9338 0b2d 24000000 		.4byte	.LVL185
 9339 0b31 32000000 		.4byte	.LVL187
 9340 0b35 0600     		.2byte	0x6
 9341 0b37 F3       		.byte	0xf3
 9342 0b38 01       		.uleb128 0x1
 9343 0b39 51       		.byte	0x51
 9344 0b3a 37       		.byte	0x37
 9345 0b3b 1A       		.byte	0x1a
 9346 0b3c 9F       		.byte	0x9f
 9347 0b3d 00000000 		.4byte	0
 9348 0b41 00000000 		.4byte	0
 9349              	.LLST78:
 9350 0b45 20000000 		.4byte	.LVL184
 9351 0b49 32000000 		.4byte	.LVL187
 9352 0b4d 0100     		.2byte	0x1
 9353 0b4f 53       		.byte	0x53
 9354 0b50 00000000 		.4byte	0
 9355 0b54 00000000 		.4byte	0
 9356              	.LLST79:
 9357 0b58 00000000 		.4byte	.LVL188
 9358 0b5c 12000000 		.4byte	.LVL189
 9359 0b60 0100     		.2byte	0x1
 9360 0b62 50       		.byte	0x50
 9361 0b63 12000000 		.4byte	.LVL189
 9362 0b67 24000000 		.4byte	.LVL193
 9363 0b6b 0100     		.2byte	0x1
 9364 0b6d 55       		.byte	0x55
 9365 0b6e 24000000 		.4byte	.LVL193
 9366 0b72 26000000 		.4byte	.LFE85
 9367 0b76 0400     		.2byte	0x4
 9368 0b78 F3       		.byte	0xf3
 9369 0b79 01       		.uleb128 0x1
 9370 0b7a 50       		.byte	0x50
 9371 0b7b 9F       		.byte	0x9f
 9372 0b7c 00000000 		.4byte	0
 9373 0b80 00000000 		.4byte	0
 9374              	.LLST80:
 9375 0b84 00000000 		.4byte	.LVL188
 9376 0b88 12000000 		.4byte	.LVL189
 9377 0b8c 0100     		.2byte	0x1
 9378 0b8e 51       		.byte	0x51
 9379 0b8f 12000000 		.4byte	.LVL189
 9380 0b93 24000000 		.4byte	.LVL194
 9381 0b97 0100     		.2byte	0x1
 9382 0b99 56       		.byte	0x56
 9383 0b9a 24000000 		.4byte	.LVL194
 9384 0b9e 26000000 		.4byte	.LFE85
 9385 0ba2 0400     		.2byte	0x4
 9386 0ba4 F3       		.byte	0xf3
 9387 0ba5 01       		.uleb128 0x1
 9388 0ba6 51       		.byte	0x51
 9389 0ba7 9F       		.byte	0x9f
 9390 0ba8 00000000 		.4byte	0
ARM GAS  C:\Users\Petro\AppData\Local\Temp\cc6W0syg.s 			page 185


 9391 0bac 00000000 		.4byte	0
 9392              	.LLST81:
 9393 0bb0 00000000 		.4byte	.LVL188
 9394 0bb4 12000000 		.4byte	.LVL189
 9395 0bb8 0100     		.2byte	0x1
 9396 0bba 52       		.byte	0x52
 9397 0bbb 12000000 		.4byte	.LVL189
 9398 0bbf 24000000 		.4byte	.LVL195
 9399 0bc3 0100     		.2byte	0x1
 9400 0bc5 57       		.byte	0x57
 9401 0bc6 24000000 		.4byte	.LVL195
 9402 0bca 26000000 		.4byte	.LFE85
 9403 0bce 0400     		.2byte	0x4
 9404 0bd0 F3       		.byte	0xf3
 9405 0bd1 01       		.uleb128 0x1
 9406 0bd2 52       		.byte	0x52
 9407 0bd3 9F       		.byte	0x9f
 9408 0bd4 00000000 		.4byte	0
 9409 0bd8 00000000 		.4byte	0
 9410              	.LLST82:
 9411 0bdc 12000000 		.4byte	.LVL189
 9412 0be0 24000000 		.4byte	.LVL192
 9413 0be4 0100     		.2byte	0x1
 9414 0be6 54       		.byte	0x54
 9415 0be7 00000000 		.4byte	0
 9416 0beb 00000000 		.4byte	0
 9417              	.LLST83:
 9418 0bef 00000000 		.4byte	.LVL196
 9419 0bf3 12000000 		.4byte	.LVL197
 9420 0bf7 0100     		.2byte	0x1
 9421 0bf9 50       		.byte	0x50
 9422 0bfa 12000000 		.4byte	.LVL197
 9423 0bfe 24000000 		.4byte	.LVL201
 9424 0c02 0100     		.2byte	0x1
 9425 0c04 55       		.byte	0x55
 9426 0c05 24000000 		.4byte	.LVL201
 9427 0c09 26000000 		.4byte	.LFE86
 9428 0c0d 0400     		.2byte	0x4
 9429 0c0f F3       		.byte	0xf3
 9430 0c10 01       		.uleb128 0x1
 9431 0c11 50       		.byte	0x50
 9432 0c12 9F       		.byte	0x9f
 9433 0c13 00000000 		.4byte	0
 9434 0c17 00000000 		.4byte	0
 9435              	.LLST84:
 9436 0c1b 00000000 		.4byte	.LVL196
 9437 0c1f 12000000 		.4byte	.LVL197
 9438 0c23 0100     		.2byte	0x1
 9439 0c25 51       		.byte	0x51
 9440 0c26 12000000 		.4byte	.LVL197
 9441 0c2a 24000000 		.4byte	.LVL202
 9442 0c2e 0100     		.2byte	0x1
 9443 0c30 56       		.byte	0x56
 9444 0c31 24000000 		.4byte	.LVL202
 9445 0c35 26000000 		.4byte	.LFE86
 9446 0c39 0400     		.2byte	0x4
 9447 0c3b F3       		.byte	0xf3
ARM GAS  C:\Users\Petro\AppData\Local\Temp\cc6W0syg.s 			page 186


 9448 0c3c 01       		.uleb128 0x1
 9449 0c3d 51       		.byte	0x51
 9450 0c3e 9F       		.byte	0x9f
 9451 0c3f 00000000 		.4byte	0
 9452 0c43 00000000 		.4byte	0
 9453              	.LLST85:
 9454 0c47 00000000 		.4byte	.LVL196
 9455 0c4b 12000000 		.4byte	.LVL197
 9456 0c4f 0100     		.2byte	0x1
 9457 0c51 52       		.byte	0x52
 9458 0c52 12000000 		.4byte	.LVL197
 9459 0c56 24000000 		.4byte	.LVL203
 9460 0c5a 0100     		.2byte	0x1
 9461 0c5c 57       		.byte	0x57
 9462 0c5d 24000000 		.4byte	.LVL203
 9463 0c61 26000000 		.4byte	.LFE86
 9464 0c65 0400     		.2byte	0x4
 9465 0c67 F3       		.byte	0xf3
 9466 0c68 01       		.uleb128 0x1
 9467 0c69 52       		.byte	0x52
 9468 0c6a 9F       		.byte	0x9f
 9469 0c6b 00000000 		.4byte	0
 9470 0c6f 00000000 		.4byte	0
 9471              	.LLST86:
 9472 0c73 12000000 		.4byte	.LVL197
 9473 0c77 24000000 		.4byte	.LVL200
 9474 0c7b 0100     		.2byte	0x1
 9475 0c7d 54       		.byte	0x54
 9476 0c7e 00000000 		.4byte	0
 9477 0c82 00000000 		.4byte	0
 9478              	.LLST87:
 9479 0c86 00000000 		.4byte	.LVL204
 9480 0c8a 18000000 		.4byte	.LVL207
 9481 0c8e 0100     		.2byte	0x1
 9482 0c90 50       		.byte	0x50
 9483 0c91 18000000 		.4byte	.LVL207
 9484 0c95 26000000 		.4byte	.LVL211
 9485 0c99 0100     		.2byte	0x1
 9486 0c9b 54       		.byte	0x54
 9487 0c9c 26000000 		.4byte	.LVL211
 9488 0ca0 28000000 		.4byte	.LVL212
 9489 0ca4 0100     		.2byte	0x1
 9490 0ca6 53       		.byte	0x53
 9491 0ca7 28000000 		.4byte	.LVL212
 9492 0cab 36000000 		.4byte	.LVL213
 9493 0caf 0100     		.2byte	0x1
 9494 0cb1 54       		.byte	0x54
 9495 0cb2 36000000 		.4byte	.LVL213
 9496 0cb6 38000000 		.4byte	.LVL214
 9497 0cba 0100     		.2byte	0x1
 9498 0cbc 53       		.byte	0x53
 9499 0cbd 38000000 		.4byte	.LVL214
 9500 0cc1 A8000000 		.4byte	.LVL231
 9501 0cc5 0100     		.2byte	0x1
 9502 0cc7 54       		.byte	0x54
 9503 0cc8 10010000 		.4byte	.LVL247
 9504 0ccc 22010000 		.4byte	.LVL250
ARM GAS  C:\Users\Petro\AppData\Local\Temp\cc6W0syg.s 			page 187


 9505 0cd0 0100     		.2byte	0x1
 9506 0cd2 54       		.byte	0x54
 9507 0cd3 00000000 		.4byte	0
 9508 0cd7 00000000 		.4byte	0
 9509              	.LLST88:
 9510 0cdb 00000000 		.4byte	.LVL204
 9511 0cdf 18000000 		.4byte	.LVL207
 9512 0ce3 0100     		.2byte	0x1
 9513 0ce5 51       		.byte	0x51
 9514 0ce6 18000000 		.4byte	.LVL207
 9515 0cea 20000000 		.4byte	.LVL208
 9516 0cee 0100     		.2byte	0x1
 9517 0cf0 55       		.byte	0x55
 9518 0cf1 20000000 		.4byte	.LVL208
 9519 0cf5 24000000 		.4byte	.LVL210
 9520 0cf9 0100     		.2byte	0x1
 9521 0cfb 53       		.byte	0x53
 9522 0cfc 24000000 		.4byte	.LVL210
 9523 0d00 28000000 		.4byte	.LVL212
 9524 0d04 0100     		.2byte	0x1
 9525 0d06 56       		.byte	0x56
 9526 0d07 28000000 		.4byte	.LVL212
 9527 0d0b 52000000 		.4byte	.LVL218
 9528 0d0f 0100     		.2byte	0x1
 9529 0d11 55       		.byte	0x55
 9530 0d12 52000000 		.4byte	.LVL218
 9531 0d16 54000000 		.4byte	.LVL219
 9532 0d1a 0100     		.2byte	0x1
 9533 0d1c 53       		.byte	0x53
 9534 0d1d 54000000 		.4byte	.LVL219
 9535 0d21 A8000000 		.4byte	.LVL231
 9536 0d25 0100     		.2byte	0x1
 9537 0d27 55       		.byte	0x55
 9538 0d28 10010000 		.4byte	.LVL247
 9539 0d2c 22010000 		.4byte	.LVL250
 9540 0d30 0100     		.2byte	0x1
 9541 0d32 55       		.byte	0x55
 9542 0d33 00000000 		.4byte	0
 9543 0d37 00000000 		.4byte	0
 9544              	.LLST89:
 9545 0d3b 00000000 		.4byte	.LVL204
 9546 0d3f 18000000 		.4byte	.LVL207
 9547 0d43 0100     		.2byte	0x1
 9548 0d45 52       		.byte	0x52
 9549 0d46 18000000 		.4byte	.LVL207
 9550 0d4a 46000000 		.4byte	.LVL216
 9551 0d4e 0200     		.2byte	0x2
 9552 0d50 7D       		.byte	0x7d
 9553 0d51 00       		.sleb128 0
 9554 0d52 46000000 		.4byte	.LVL216
 9555 0d56 50000000 		.4byte	.LVL217
 9556 0d5a 0100     		.2byte	0x1
 9557 0d5c 53       		.byte	0x53
 9558 0d5d 50000000 		.4byte	.LVL217
 9559 0d61 60000000 		.4byte	.LVL221
 9560 0d65 0200     		.2byte	0x2
 9561 0d67 7D       		.byte	0x7d
ARM GAS  C:\Users\Petro\AppData\Local\Temp\cc6W0syg.s 			page 188


 9562 0d68 00       		.sleb128 0
 9563 0d69 60000000 		.4byte	.LVL221
 9564 0d6d 62000000 		.4byte	.LVL222
 9565 0d71 0100     		.2byte	0x1
 9566 0d73 53       		.byte	0x53
 9567 0d74 62000000 		.4byte	.LVL222
 9568 0d78 22010000 		.4byte	.LVL250
 9569 0d7c 0200     		.2byte	0x2
 9570 0d7e 7D       		.byte	0x7d
 9571 0d7f 00       		.sleb128 0
 9572 0d80 00000000 		.4byte	0
 9573 0d84 00000000 		.4byte	0
 9574              	.LLST90:
 9575 0d88 00000000 		.4byte	.LVL204
 9576 0d8c 0E000000 		.4byte	.LVL205
 9577 0d90 0100     		.2byte	0x1
 9578 0d92 53       		.byte	0x53
 9579 0d93 0E000000 		.4byte	.LVL205
 9580 0d97 16000000 		.4byte	.LVL206
 9581 0d9b 0100     		.2byte	0x1
 9582 0d9d 56       		.byte	0x56
 9583 0d9e 16000000 		.4byte	.LVL206
 9584 0da2 18000000 		.4byte	.LVL207
 9585 0da6 0100     		.2byte	0x1
 9586 0da8 55       		.byte	0x55
 9587 0da9 18000000 		.4byte	.LVL207
 9588 0dad 22000000 		.4byte	.LVL209
 9589 0db1 0100     		.2byte	0x1
 9590 0db3 56       		.byte	0x56
 9591 0db4 22000000 		.4byte	.LVL209
 9592 0db8 28000000 		.4byte	.LVL212
 9593 0dbc 0100     		.2byte	0x1
 9594 0dbe 55       		.byte	0x55
 9595 0dbf 28000000 		.4byte	.LVL212
 9596 0dc3 80000000 		.4byte	.LVL224
 9597 0dc7 0100     		.2byte	0x1
 9598 0dc9 56       		.byte	0x56
 9599 0dca 10010000 		.4byte	.LVL247
 9600 0dce 6C010000 		.4byte	.LVL261
 9601 0dd2 0100     		.2byte	0x1
 9602 0dd4 56       		.byte	0x56
 9603 0dd5 00000000 		.4byte	0
 9604 0dd9 00000000 		.4byte	0
 9605              	.LLST91:
 9606 0ddd 98000000 		.4byte	.LVL227
 9607 0de1 9A000000 		.4byte	.LVL228
 9608 0de5 0600     		.2byte	0x6
 9609 0de7 50       		.byte	0x50
 9610 0de8 93       		.byte	0x93
 9611 0de9 04       		.uleb128 0x4
 9612 0dea 51       		.byte	0x51
 9613 0deb 93       		.byte	0x93
 9614 0dec 04       		.uleb128 0x4
 9615 0ded 9A000000 		.4byte	.LVL228
 9616 0df1 10010000 		.4byte	.LVL247
 9617 0df5 0200     		.2byte	0x2
 9618 0df7 91       		.byte	0x91
ARM GAS  C:\Users\Petro\AppData\Local\Temp\cc6W0syg.s 			page 189


 9619 0df8 60       		.sleb128 -32
 9620 0df9 10010000 		.4byte	.LVL247
 9621 0dfd 6C010000 		.4byte	.LVL261
 9622 0e01 1100     		.2byte	0x11
 9623 0e03 91       		.byte	0x91
 9624 0e04 60       		.sleb128 -32
 9625 0e05 06       		.byte	0x6
 9626 0e06 F7       		.byte	0xf7
 9627 0e07 2C       		.uleb128 0x2c
 9628 0e08 F7       		.byte	0xf7
 9629 0e09 33       		.uleb128 0x33
 9630 0e0a 77       		.byte	0x77
 9631 0e0b 00       		.sleb128 0
 9632 0e0c F7       		.byte	0xf7
 9633 0e0d 2C       		.uleb128 0x2c
 9634 0e0e F7       		.byte	0xf7
 9635 0e0f 33       		.uleb128 0x33
 9636 0e10 1B       		.byte	0x1b
 9637 0e11 F7       		.byte	0xf7
 9638 0e12 25       		.uleb128 0x25
 9639 0e13 9F       		.byte	0x9f
 9640 0e14 00000000 		.4byte	0
 9641 0e18 00000000 		.4byte	0
 9642              	.LLST92:
 9643 0e1c 10010000 		.4byte	.LVL247
 9644 0e20 22010000 		.4byte	.LVL250
 9645 0e24 0900     		.2byte	0x9
 9646 0e26 74       		.byte	0x74
 9647 0e27 00       		.sleb128 0
 9648 0e28 F7       		.byte	0xf7
 9649 0e29 2C       		.uleb128 0x2c
 9650 0e2a F7       		.byte	0xf7
 9651 0e2b 33       		.uleb128 0x33
 9652 0e2c F7       		.byte	0xf7
 9653 0e2d 25       		.uleb128 0x25
 9654 0e2e 9F       		.byte	0x9f
 9655 0e2f 22010000 		.4byte	.LVL250
 9656 0e33 6A010000 		.4byte	.LVL260
 9657 0e37 0200     		.2byte	0x2
 9658 0e39 7D       		.byte	0x7d
 9659 0e3a 00       		.sleb128 0
 9660 0e3b 6A010000 		.4byte	.LVL260
 9661 0e3f 6C010000 		.4byte	.LVL261
 9662 0e43 0600     		.2byte	0x6
 9663 0e45 50       		.byte	0x50
 9664 0e46 93       		.byte	0x93
 9665 0e47 04       		.uleb128 0x4
 9666 0e48 51       		.byte	0x51
 9667 0e49 93       		.byte	0x93
 9668 0e4a 04       		.uleb128 0x4
 9669 0e4b 00000000 		.4byte	0
 9670 0e4f 00000000 		.4byte	0
 9671              	.LLST93:
 9672 0e53 A4000000 		.4byte	.LVL230
 9673 0e57 D4000000 		.4byte	.LVL237
 9674 0e5b 0600     		.2byte	0x6
 9675 0e5d 56       		.byte	0x56
ARM GAS  C:\Users\Petro\AppData\Local\Temp\cc6W0syg.s 			page 190


 9676 0e5e 93       		.byte	0x93
 9677 0e5f 04       		.uleb128 0x4
 9678 0e60 57       		.byte	0x57
 9679 0e61 93       		.byte	0x93
 9680 0e62 04       		.uleb128 0x4
 9681 0e63 D6000000 		.4byte	.LVL238
 9682 0e67 08010000 		.4byte	.LVL245
 9683 0e6b 0600     		.2byte	0x6
 9684 0e6d 56       		.byte	0x56
 9685 0e6e 93       		.byte	0x93
 9686 0e6f 04       		.uleb128 0x4
 9687 0e70 57       		.byte	0x57
 9688 0e71 93       		.byte	0x93
 9689 0e72 04       		.uleb128 0x4
 9690 0e73 0A010000 		.4byte	.LVL246
 9691 0e77 10010000 		.4byte	.LVL247
 9692 0e7b 0600     		.2byte	0x6
 9693 0e7d 56       		.byte	0x56
 9694 0e7e 93       		.byte	0x93
 9695 0e7f 04       		.uleb128 0x4
 9696 0e80 57       		.byte	0x57
 9697 0e81 93       		.byte	0x93
 9698 0e82 04       		.uleb128 0x4
 9699 0e83 00000000 		.4byte	0
 9700 0e87 00000000 		.4byte	0
 9701              	.LLST94:
 9702 0e8b A8000000 		.4byte	.LVL231
 9703 0e8f D2000000 		.4byte	.LVL236
 9704 0e93 0100     		.2byte	0x1
 9705 0e95 54       		.byte	0x54
 9706 0e96 D2000000 		.4byte	.LVL236
 9707 0e9a D6000000 		.4byte	.LVL238
 9708 0e9e 0300     		.2byte	0x3
 9709 0ea0 74       		.byte	0x74
 9710 0ea1 01       		.sleb128 1
 9711 0ea2 9F       		.byte	0x9f
 9712 0ea3 D6000000 		.4byte	.LVL238
 9713 0ea7 DC000000 		.4byte	.LVL239
 9714 0eab 0100     		.2byte	0x1
 9715 0ead 54       		.byte	0x54
 9716 0eae 00000000 		.4byte	0
 9717 0eb2 00000000 		.4byte	0
 9718              	.LLST95:
 9719 0eb6 DC000000 		.4byte	.LVL239
 9720 0eba 06010000 		.4byte	.LVL244
 9721 0ebe 0100     		.2byte	0x1
 9722 0ec0 54       		.byte	0x54
 9723 0ec1 06010000 		.4byte	.LVL244
 9724 0ec5 0A010000 		.4byte	.LVL246
 9725 0ec9 0300     		.2byte	0x3
 9726 0ecb 74       		.byte	0x74
 9727 0ecc 7F       		.sleb128 -1
 9728 0ecd 9F       		.byte	0x9f
 9729 0ece 0A010000 		.4byte	.LVL246
 9730 0ed2 10010000 		.4byte	.LVL247
 9731 0ed6 0100     		.2byte	0x1
 9732 0ed8 54       		.byte	0x54
ARM GAS  C:\Users\Petro\AppData\Local\Temp\cc6W0syg.s 			page 191


 9733 0ed9 00000000 		.4byte	0
 9734 0edd 00000000 		.4byte	0
 9735              	.LLST96:
 9736 0ee1 22010000 		.4byte	.LVL250
 9737 0ee5 66010000 		.4byte	.LVL259
 9738 0ee9 0100     		.2byte	0x1
 9739 0eeb 55       		.byte	0x55
 9740 0eec 66010000 		.4byte	.LVL259
 9741 0ef0 6A010000 		.4byte	.LVL260
 9742 0ef4 0300     		.2byte	0x3
 9743 0ef6 75       		.byte	0x75
 9744 0ef7 7F       		.sleb128 -1
 9745 0ef8 9F       		.byte	0x9f
 9746 0ef9 6A010000 		.4byte	.LVL260
 9747 0efd 6C010000 		.4byte	.LVL261
 9748 0f01 0100     		.2byte	0x1
 9749 0f03 55       		.byte	0x55
 9750 0f04 00000000 		.4byte	0
 9751 0f08 00000000 		.4byte	0
 9752              	.LLST97:
 9753 0f0c 00000000 		.4byte	.LVL262
 9754 0f10 18000000 		.4byte	.LVL265
 9755 0f14 0100     		.2byte	0x1
 9756 0f16 50       		.byte	0x50
 9757 0f17 18000000 		.4byte	.LVL265
 9758 0f1b 26000000 		.4byte	.LVL269
 9759 0f1f 0100     		.2byte	0x1
 9760 0f21 54       		.byte	0x54
 9761 0f22 26000000 		.4byte	.LVL269
 9762 0f26 28000000 		.4byte	.LVL270
 9763 0f2a 0100     		.2byte	0x1
 9764 0f2c 53       		.byte	0x53
 9765 0f2d 28000000 		.4byte	.LVL270
 9766 0f31 36000000 		.4byte	.LVL271
 9767 0f35 0100     		.2byte	0x1
 9768 0f37 54       		.byte	0x54
 9769 0f38 36000000 		.4byte	.LVL271
 9770 0f3c 38000000 		.4byte	.LVL272
 9771 0f40 0100     		.2byte	0x1
 9772 0f42 53       		.byte	0x53
 9773 0f43 38000000 		.4byte	.LVL272
 9774 0f47 A8000000 		.4byte	.LVL289
 9775 0f4b 0100     		.2byte	0x1
 9776 0f4d 54       		.byte	0x54
 9777 0f4e 10010000 		.4byte	.LVL305
 9778 0f52 22010000 		.4byte	.LVL308
 9779 0f56 0100     		.2byte	0x1
 9780 0f58 54       		.byte	0x54
 9781 0f59 00000000 		.4byte	0
 9782 0f5d 00000000 		.4byte	0
 9783              	.LLST98:
 9784 0f61 00000000 		.4byte	.LVL262
 9785 0f65 18000000 		.4byte	.LVL265
 9786 0f69 0100     		.2byte	0x1
 9787 0f6b 51       		.byte	0x51
 9788 0f6c 18000000 		.4byte	.LVL265
 9789 0f70 20000000 		.4byte	.LVL266
ARM GAS  C:\Users\Petro\AppData\Local\Temp\cc6W0syg.s 			page 192


 9790 0f74 0100     		.2byte	0x1
 9791 0f76 55       		.byte	0x55
 9792 0f77 20000000 		.4byte	.LVL266
 9793 0f7b 24000000 		.4byte	.LVL268
 9794 0f7f 0100     		.2byte	0x1
 9795 0f81 53       		.byte	0x53
 9796 0f82 24000000 		.4byte	.LVL268
 9797 0f86 28000000 		.4byte	.LVL270
 9798 0f8a 0100     		.2byte	0x1
 9799 0f8c 56       		.byte	0x56
 9800 0f8d 28000000 		.4byte	.LVL270
 9801 0f91 52000000 		.4byte	.LVL276
 9802 0f95 0100     		.2byte	0x1
 9803 0f97 55       		.byte	0x55
 9804 0f98 52000000 		.4byte	.LVL276
 9805 0f9c 54000000 		.4byte	.LVL277
 9806 0fa0 0100     		.2byte	0x1
 9807 0fa2 53       		.byte	0x53
 9808 0fa3 54000000 		.4byte	.LVL277
 9809 0fa7 A8000000 		.4byte	.LVL289
 9810 0fab 0100     		.2byte	0x1
 9811 0fad 55       		.byte	0x55
 9812 0fae 10010000 		.4byte	.LVL305
 9813 0fb2 22010000 		.4byte	.LVL308
 9814 0fb6 0100     		.2byte	0x1
 9815 0fb8 55       		.byte	0x55
 9816 0fb9 00000000 		.4byte	0
 9817 0fbd 00000000 		.4byte	0
 9818              	.LLST99:
 9819 0fc1 00000000 		.4byte	.LVL262
 9820 0fc5 18000000 		.4byte	.LVL265
 9821 0fc9 0100     		.2byte	0x1
 9822 0fcb 52       		.byte	0x52
 9823 0fcc 18000000 		.4byte	.LVL265
 9824 0fd0 46000000 		.4byte	.LVL274
 9825 0fd4 0200     		.2byte	0x2
 9826 0fd6 7D       		.byte	0x7d
 9827 0fd7 00       		.sleb128 0
 9828 0fd8 46000000 		.4byte	.LVL274
 9829 0fdc 50000000 		.4byte	.LVL275
 9830 0fe0 0100     		.2byte	0x1
 9831 0fe2 53       		.byte	0x53
 9832 0fe3 50000000 		.4byte	.LVL275
 9833 0fe7 60000000 		.4byte	.LVL279
 9834 0feb 0200     		.2byte	0x2
 9835 0fed 7D       		.byte	0x7d
 9836 0fee 00       		.sleb128 0
 9837 0fef 60000000 		.4byte	.LVL279
 9838 0ff3 62000000 		.4byte	.LVL280
 9839 0ff7 0100     		.2byte	0x1
 9840 0ff9 53       		.byte	0x53
 9841 0ffa 62000000 		.4byte	.LVL280
 9842 0ffe 22010000 		.4byte	.LVL308
 9843 1002 0200     		.2byte	0x2
 9844 1004 7D       		.byte	0x7d
 9845 1005 00       		.sleb128 0
 9846 1006 00000000 		.4byte	0
ARM GAS  C:\Users\Petro\AppData\Local\Temp\cc6W0syg.s 			page 193


 9847 100a 00000000 		.4byte	0
 9848              	.LLST100:
 9849 100e 00000000 		.4byte	.LVL262
 9850 1012 0E000000 		.4byte	.LVL263
 9851 1016 0100     		.2byte	0x1
 9852 1018 53       		.byte	0x53
 9853 1019 0E000000 		.4byte	.LVL263
 9854 101d 16000000 		.4byte	.LVL264
 9855 1021 0100     		.2byte	0x1
 9856 1023 56       		.byte	0x56
 9857 1024 16000000 		.4byte	.LVL264
 9858 1028 18000000 		.4byte	.LVL265
 9859 102c 0100     		.2byte	0x1
 9860 102e 55       		.byte	0x55
 9861 102f 18000000 		.4byte	.LVL265
 9862 1033 22000000 		.4byte	.LVL267
 9863 1037 0100     		.2byte	0x1
 9864 1039 56       		.byte	0x56
 9865 103a 22000000 		.4byte	.LVL267
 9866 103e 28000000 		.4byte	.LVL270
 9867 1042 0100     		.2byte	0x1
 9868 1044 55       		.byte	0x55
 9869 1045 28000000 		.4byte	.LVL270
 9870 1049 80000000 		.4byte	.LVL282
 9871 104d 0100     		.2byte	0x1
 9872 104f 56       		.byte	0x56
 9873 1050 10010000 		.4byte	.LVL305
 9874 1054 6C010000 		.4byte	.LVL319
 9875 1058 0100     		.2byte	0x1
 9876 105a 56       		.byte	0x56
 9877 105b 00000000 		.4byte	0
 9878 105f 00000000 		.4byte	0
 9879              	.LLST101:
 9880 1063 98000000 		.4byte	.LVL285
 9881 1067 9A000000 		.4byte	.LVL286
 9882 106b 0600     		.2byte	0x6
 9883 106d 50       		.byte	0x50
 9884 106e 93       		.byte	0x93
 9885 106f 04       		.uleb128 0x4
 9886 1070 51       		.byte	0x51
 9887 1071 93       		.byte	0x93
 9888 1072 04       		.uleb128 0x4
 9889 1073 9A000000 		.4byte	.LVL286
 9890 1077 10010000 		.4byte	.LVL305
 9891 107b 0200     		.2byte	0x2
 9892 107d 91       		.byte	0x91
 9893 107e 60       		.sleb128 -32
 9894 107f 10010000 		.4byte	.LVL305
 9895 1083 6C010000 		.4byte	.LVL319
 9896 1087 1100     		.2byte	0x11
 9897 1089 91       		.byte	0x91
 9898 108a 60       		.sleb128 -32
 9899 108b 06       		.byte	0x6
 9900 108c F7       		.byte	0xf7
 9901 108d 2C       		.uleb128 0x2c
 9902 108e F7       		.byte	0xf7
 9903 108f 33       		.uleb128 0x33
ARM GAS  C:\Users\Petro\AppData\Local\Temp\cc6W0syg.s 			page 194


 9904 1090 77       		.byte	0x77
 9905 1091 00       		.sleb128 0
 9906 1092 F7       		.byte	0xf7
 9907 1093 2C       		.uleb128 0x2c
 9908 1094 F7       		.byte	0xf7
 9909 1095 33       		.uleb128 0x33
 9910 1096 1B       		.byte	0x1b
 9911 1097 F7       		.byte	0xf7
 9912 1098 25       		.uleb128 0x25
 9913 1099 9F       		.byte	0x9f
 9914 109a 00000000 		.4byte	0
 9915 109e 00000000 		.4byte	0
 9916              	.LLST102:
 9917 10a2 10010000 		.4byte	.LVL305
 9918 10a6 22010000 		.4byte	.LVL308
 9919 10aa 0900     		.2byte	0x9
 9920 10ac 74       		.byte	0x74
 9921 10ad 00       		.sleb128 0
 9922 10ae F7       		.byte	0xf7
 9923 10af 2C       		.uleb128 0x2c
 9924 10b0 F7       		.byte	0xf7
 9925 10b1 33       		.uleb128 0x33
 9926 10b2 F7       		.byte	0xf7
 9927 10b3 25       		.uleb128 0x25
 9928 10b4 9F       		.byte	0x9f
 9929 10b5 22010000 		.4byte	.LVL308
 9930 10b9 6A010000 		.4byte	.LVL318
 9931 10bd 0200     		.2byte	0x2
 9932 10bf 7D       		.byte	0x7d
 9933 10c0 00       		.sleb128 0
 9934 10c1 6A010000 		.4byte	.LVL318
 9935 10c5 6C010000 		.4byte	.LVL319
 9936 10c9 0600     		.2byte	0x6
 9937 10cb 50       		.byte	0x50
 9938 10cc 93       		.byte	0x93
 9939 10cd 04       		.uleb128 0x4
 9940 10ce 51       		.byte	0x51
 9941 10cf 93       		.byte	0x93
 9942 10d0 04       		.uleb128 0x4
 9943 10d1 00000000 		.4byte	0
 9944 10d5 00000000 		.4byte	0
 9945              	.LLST103:
 9946 10d9 A4000000 		.4byte	.LVL288
 9947 10dd D4000000 		.4byte	.LVL295
 9948 10e1 0600     		.2byte	0x6
 9949 10e3 56       		.byte	0x56
 9950 10e4 93       		.byte	0x93
 9951 10e5 04       		.uleb128 0x4
 9952 10e6 57       		.byte	0x57
 9953 10e7 93       		.byte	0x93
 9954 10e8 04       		.uleb128 0x4
 9955 10e9 D6000000 		.4byte	.LVL296
 9956 10ed 08010000 		.4byte	.LVL303
 9957 10f1 0600     		.2byte	0x6
 9958 10f3 56       		.byte	0x56
 9959 10f4 93       		.byte	0x93
 9960 10f5 04       		.uleb128 0x4
ARM GAS  C:\Users\Petro\AppData\Local\Temp\cc6W0syg.s 			page 195


 9961 10f6 57       		.byte	0x57
 9962 10f7 93       		.byte	0x93
 9963 10f8 04       		.uleb128 0x4
 9964 10f9 0A010000 		.4byte	.LVL304
 9965 10fd 10010000 		.4byte	.LVL305
 9966 1101 0600     		.2byte	0x6
 9967 1103 56       		.byte	0x56
 9968 1104 93       		.byte	0x93
 9969 1105 04       		.uleb128 0x4
 9970 1106 57       		.byte	0x57
 9971 1107 93       		.byte	0x93
 9972 1108 04       		.uleb128 0x4
 9973 1109 00000000 		.4byte	0
 9974 110d 00000000 		.4byte	0
 9975              	.LLST104:
 9976 1111 A8000000 		.4byte	.LVL289
 9977 1115 D2000000 		.4byte	.LVL294
 9978 1119 0100     		.2byte	0x1
 9979 111b 54       		.byte	0x54
 9980 111c D2000000 		.4byte	.LVL294
 9981 1120 D6000000 		.4byte	.LVL296
 9982 1124 0300     		.2byte	0x3
 9983 1126 74       		.byte	0x74
 9984 1127 01       		.sleb128 1
 9985 1128 9F       		.byte	0x9f
 9986 1129 D6000000 		.4byte	.LVL296
 9987 112d DC000000 		.4byte	.LVL297
 9988 1131 0100     		.2byte	0x1
 9989 1133 54       		.byte	0x54
 9990 1134 00000000 		.4byte	0
 9991 1138 00000000 		.4byte	0
 9992              	.LLST105:
 9993 113c DC000000 		.4byte	.LVL297
 9994 1140 06010000 		.4byte	.LVL302
 9995 1144 0100     		.2byte	0x1
 9996 1146 54       		.byte	0x54
 9997 1147 06010000 		.4byte	.LVL302
 9998 114b 0A010000 		.4byte	.LVL304
 9999 114f 0300     		.2byte	0x3
 10000 1151 74       		.byte	0x74
 10001 1152 7F       		.sleb128 -1
 10002 1153 9F       		.byte	0x9f
 10003 1154 0A010000 		.4byte	.LVL304
 10004 1158 10010000 		.4byte	.LVL305
 10005 115c 0100     		.2byte	0x1
 10006 115e 54       		.byte	0x54
 10007 115f 00000000 		.4byte	0
 10008 1163 00000000 		.4byte	0
 10009              	.LLST106:
 10010 1167 22010000 		.4byte	.LVL308
 10011 116b 66010000 		.4byte	.LVL317
 10012 116f 0100     		.2byte	0x1
 10013 1171 55       		.byte	0x55
 10014 1172 66010000 		.4byte	.LVL317
 10015 1176 6A010000 		.4byte	.LVL318
 10016 117a 0300     		.2byte	0x3
 10017 117c 75       		.byte	0x75
ARM GAS  C:\Users\Petro\AppData\Local\Temp\cc6W0syg.s 			page 196


 10018 117d 7F       		.sleb128 -1
 10019 117e 9F       		.byte	0x9f
 10020 117f 6A010000 		.4byte	.LVL318
 10021 1183 6C010000 		.4byte	.LVL319
 10022 1187 0100     		.2byte	0x1
 10023 1189 55       		.byte	0x55
 10024 118a 00000000 		.4byte	0
 10025 118e 00000000 		.4byte	0
 10026              	.LLST107:
 10027 1192 00000000 		.4byte	.LVL320
 10028 1196 12000000 		.4byte	.LVL321
 10029 119a 0100     		.2byte	0x1
 10030 119c 50       		.byte	0x50
 10031 119d 12000000 		.4byte	.LVL321
 10032 11a1 4A000000 		.4byte	.LVL330
 10033 11a5 0100     		.2byte	0x1
 10034 11a7 55       		.byte	0x55
 10035 11a8 00000000 		.4byte	0
 10036 11ac 00000000 		.4byte	0
 10037              	.LLST108:
 10038 11b0 00000000 		.4byte	.LVL320
 10039 11b4 1C000000 		.4byte	.LVL323
 10040 11b8 0100     		.2byte	0x1
 10041 11ba 51       		.byte	0x51
 10042 11bb 1C000000 		.4byte	.LVL323
 10043 11bf 4A000000 		.4byte	.LVL329
 10044 11c3 0100     		.2byte	0x1
 10045 11c5 54       		.byte	0x54
 10046 11c6 00000000 		.4byte	0
 10047 11ca 00000000 		.4byte	0
 10048              	.LLST109:
 10049 11ce 00000000 		.4byte	.LVL320
 10050 11d2 12000000 		.4byte	.LVL321
 10051 11d6 0100     		.2byte	0x1
 10052 11d8 52       		.byte	0x52
 10053 11d9 12000000 		.4byte	.LVL321
 10054 11dd 4A000000 		.4byte	.LVL331
 10055 11e1 0100     		.2byte	0x1
 10056 11e3 56       		.byte	0x56
 10057 11e4 00000000 		.4byte	0
 10058 11e8 00000000 		.4byte	0
 10059              	.LLST110:
 10060 11ec 00000000 		.4byte	.LVL320
 10061 11f0 18000000 		.4byte	.LVL322
 10062 11f4 0100     		.2byte	0x1
 10063 11f6 53       		.byte	0x53
 10064 11f7 18000000 		.4byte	.LVL322
 10065 11fb 32000000 		.4byte	.LVL325
 10066 11ff 0100     		.2byte	0x1
 10067 1201 57       		.byte	0x57
 10068 1202 32000000 		.4byte	.LVL325
 10069 1206 35000000 		.4byte	.LVL326-1
 10070 120a 0100     		.2byte	0x1
 10071 120c 51       		.byte	0x51
 10072 120d 00000000 		.4byte	0
 10073 1211 00000000 		.4byte	0
 10074              	.LLST111:
ARM GAS  C:\Users\Petro\AppData\Local\Temp\cc6W0syg.s 			page 197


 10075 1215 00000000 		.4byte	.LVL332
 10076 1219 12000000 		.4byte	.LVL333
 10077 121d 0100     		.2byte	0x1
 10078 121f 50       		.byte	0x50
 10079 1220 12000000 		.4byte	.LVL333
 10080 1224 4A000000 		.4byte	.LVL342
 10081 1228 0100     		.2byte	0x1
 10082 122a 55       		.byte	0x55
 10083 122b 00000000 		.4byte	0
 10084 122f 00000000 		.4byte	0
 10085              	.LLST112:
 10086 1233 00000000 		.4byte	.LVL332
 10087 1237 1C000000 		.4byte	.LVL335
 10088 123b 0100     		.2byte	0x1
 10089 123d 51       		.byte	0x51
 10090 123e 1C000000 		.4byte	.LVL335
 10091 1242 4A000000 		.4byte	.LVL341
 10092 1246 0100     		.2byte	0x1
 10093 1248 54       		.byte	0x54
 10094 1249 00000000 		.4byte	0
 10095 124d 00000000 		.4byte	0
 10096              	.LLST113:
 10097 1251 00000000 		.4byte	.LVL332
 10098 1255 12000000 		.4byte	.LVL333
 10099 1259 0100     		.2byte	0x1
 10100 125b 52       		.byte	0x52
 10101 125c 12000000 		.4byte	.LVL333
 10102 1260 4A000000 		.4byte	.LVL343
 10103 1264 0100     		.2byte	0x1
 10104 1266 56       		.byte	0x56
 10105 1267 00000000 		.4byte	0
 10106 126b 00000000 		.4byte	0
 10107              	.LLST114:
 10108 126f 00000000 		.4byte	.LVL332
 10109 1273 18000000 		.4byte	.LVL334
 10110 1277 0100     		.2byte	0x1
 10111 1279 53       		.byte	0x53
 10112 127a 18000000 		.4byte	.LVL334
 10113 127e 32000000 		.4byte	.LVL337
 10114 1282 0100     		.2byte	0x1
 10115 1284 57       		.byte	0x57
 10116 1285 32000000 		.4byte	.LVL337
 10117 1289 35000000 		.4byte	.LVL338-1
 10118 128d 0100     		.2byte	0x1
 10119 128f 51       		.byte	0x51
 10120 1290 00000000 		.4byte	0
 10121 1294 00000000 		.4byte	0
 10122              	.LLST115:
 10123 1298 00000000 		.4byte	.LVL344
 10124 129c 14000000 		.4byte	.LVL345
 10125 12a0 0100     		.2byte	0x1
 10126 12a2 50       		.byte	0x50
 10127 12a3 14000000 		.4byte	.LVL345
 10128 12a7 A0000000 		.4byte	.LVL357
 10129 12ab 0100     		.2byte	0x1
 10130 12ad 55       		.byte	0x55
 10131 12ae 00000000 		.4byte	0
ARM GAS  C:\Users\Petro\AppData\Local\Temp\cc6W0syg.s 			page 198


 10132 12b2 00000000 		.4byte	0
 10133              	.LLST116:
 10134 12b6 00000000 		.4byte	.LVL344
 10135 12ba 20000000 		.4byte	.LVL347
 10136 12be 0100     		.2byte	0x1
 10137 12c0 51       		.byte	0x51
 10138 12c1 20000000 		.4byte	.LVL347
 10139 12c5 88000000 		.4byte	.LVL354
 10140 12c9 0100     		.2byte	0x1
 10141 12cb 54       		.byte	0x54
 10142 12cc 88000000 		.4byte	.LVL354
 10143 12d0 9E000000 		.4byte	.LVL356
 10144 12d4 0300     		.2byte	0x3
 10145 12d6 74       		.byte	0x74
 10146 12d7 7E       		.sleb128 -2
 10147 12d8 9F       		.byte	0x9f
 10148 12d9 00000000 		.4byte	0
 10149 12dd 00000000 		.4byte	0
 10150              	.LLST117:
 10151 12e1 00000000 		.4byte	.LVL344
 10152 12e5 14000000 		.4byte	.LVL345
 10153 12e9 0100     		.2byte	0x1
 10154 12eb 52       		.byte	0x52
 10155 12ec 14000000 		.4byte	.LVL345
 10156 12f0 A2000000 		.4byte	.LFE91
 10157 12f4 0200     		.2byte	0x2
 10158 12f6 91       		.byte	0x91
 10159 12f7 54       		.sleb128 -44
 10160 12f8 00000000 		.4byte	0
 10161 12fc 00000000 		.4byte	0
 10162              	.LLST118:
 10163 1300 00000000 		.4byte	.LVL344
 10164 1304 16000000 		.4byte	.LVL346
 10165 1308 0100     		.2byte	0x1
 10166 130a 53       		.byte	0x53
 10167 130b 16000000 		.4byte	.LVL346
 10168 130f A2000000 		.4byte	.LFE91
 10169 1313 0200     		.2byte	0x2
 10170 1315 91       		.byte	0x91
 10171 1316 58       		.sleb128 -40
 10172 1317 00000000 		.4byte	0
 10173 131b 00000000 		.4byte	0
 10174              	.LLST119:
 10175 131f 00000000 		.4byte	.LVL358
 10176 1323 14000000 		.4byte	.LVL359
 10177 1327 0100     		.2byte	0x1
 10178 1329 50       		.byte	0x50
 10179 132a 14000000 		.4byte	.LVL359
 10180 132e A0000000 		.4byte	.LVL371
 10181 1332 0100     		.2byte	0x1
 10182 1334 55       		.byte	0x55
 10183 1335 00000000 		.4byte	0
 10184 1339 00000000 		.4byte	0
 10185              	.LLST120:
 10186 133d 00000000 		.4byte	.LVL358
 10187 1341 20000000 		.4byte	.LVL361
 10188 1345 0100     		.2byte	0x1
ARM GAS  C:\Users\Petro\AppData\Local\Temp\cc6W0syg.s 			page 199


 10189 1347 51       		.byte	0x51
 10190 1348 20000000 		.4byte	.LVL361
 10191 134c 88000000 		.4byte	.LVL368
 10192 1350 0100     		.2byte	0x1
 10193 1352 54       		.byte	0x54
 10194 1353 88000000 		.4byte	.LVL368
 10195 1357 9E000000 		.4byte	.LVL370
 10196 135b 0300     		.2byte	0x3
 10197 135d 74       		.byte	0x74
 10198 135e 7E       		.sleb128 -2
 10199 135f 9F       		.byte	0x9f
 10200 1360 00000000 		.4byte	0
 10201 1364 00000000 		.4byte	0
 10202              	.LLST121:
 10203 1368 00000000 		.4byte	.LVL358
 10204 136c 14000000 		.4byte	.LVL359
 10205 1370 0100     		.2byte	0x1
 10206 1372 52       		.byte	0x52
 10207 1373 14000000 		.4byte	.LVL359
 10208 1377 A2000000 		.4byte	.LFE92
 10209 137b 0200     		.2byte	0x2
 10210 137d 91       		.byte	0x91
 10211 137e 54       		.sleb128 -44
 10212 137f 00000000 		.4byte	0
 10213 1383 00000000 		.4byte	0
 10214              	.LLST122:
 10215 1387 00000000 		.4byte	.LVL358
 10216 138b 16000000 		.4byte	.LVL360
 10217 138f 0100     		.2byte	0x1
 10218 1391 53       		.byte	0x53
 10219 1392 16000000 		.4byte	.LVL360
 10220 1396 A2000000 		.4byte	.LFE92
 10221 139a 0200     		.2byte	0x2
 10222 139c 91       		.byte	0x91
 10223 139d 58       		.sleb128 -40
 10224 139e 00000000 		.4byte	0
 10225 13a2 00000000 		.4byte	0
 10226              	.LLST123:
 10227 13a6 00000000 		.4byte	.LVL372
 10228 13aa 22000000 		.4byte	.LVL379
 10229 13ae 0100     		.2byte	0x1
 10230 13b0 50       		.byte	0x50
 10231 13b1 22000000 		.4byte	.LVL379
 10232 13b5 06010000 		.4byte	.LFE93
 10233 13b9 0400     		.2byte	0x4
 10234 13bb F3       		.byte	0xf3
 10235 13bc 01       		.uleb128 0x1
 10236 13bd 50       		.byte	0x50
 10237 13be 9F       		.byte	0x9f
 10238 13bf 00000000 		.4byte	0
 10239 13c3 00000000 		.4byte	0
 10240              	.LLST124:
 10241 13c7 00000000 		.4byte	.LVL372
 10242 13cb 1E000000 		.4byte	.LVL378
 10243 13cf 0100     		.2byte	0x1
 10244 13d1 51       		.byte	0x51
 10245 13d2 1E000000 		.4byte	.LVL378
ARM GAS  C:\Users\Petro\AppData\Local\Temp\cc6W0syg.s 			page 200


 10246 13d6 06010000 		.4byte	.LFE93
 10247 13da 0400     		.2byte	0x4
 10248 13dc F3       		.byte	0xf3
 10249 13dd 01       		.uleb128 0x1
 10250 13de 51       		.byte	0x51
 10251 13df 9F       		.byte	0x9f
 10252 13e0 00000000 		.4byte	0
 10253 13e4 00000000 		.4byte	0
 10254              	.LLST125:
 10255 13e8 00000000 		.4byte	.LVL372
 10256 13ec 25000000 		.4byte	.LVL380-1
 10257 13f0 0100     		.2byte	0x1
 10258 13f2 52       		.byte	0x52
 10259 13f3 25000000 		.4byte	.LVL380-1
 10260 13f7 4C000000 		.4byte	.LVL384
 10261 13fb 0200     		.2byte	0x2
 10262 13fd 91       		.byte	0x91
 10263 13fe 50       		.sleb128 -48
 10264 13ff 4C000000 		.4byte	.LVL384
 10265 1403 06010000 		.4byte	.LFE93
 10266 1407 0400     		.2byte	0x4
 10267 1409 F3       		.byte	0xf3
 10268 140a 01       		.uleb128 0x1
 10269 140b 52       		.byte	0x52
 10270 140c 9F       		.byte	0x9f
 10271 140d 00000000 		.4byte	0
 10272 1411 00000000 		.4byte	0
 10273              	.LLST126:
 10274 1415 0A000000 		.4byte	.LVL373
 10275 1419 0C000000 		.4byte	.LVL374
 10276 141d 0100     		.2byte	0x1
 10277 141f 53       		.byte	0x53
 10278 1420 0C000000 		.4byte	.LVL374
 10279 1424 80000000 		.4byte	.LVL394
 10280 1428 0200     		.2byte	0x2
 10281 142a 91       		.byte	0x91
 10282 142b 54       		.sleb128 -44
 10283 142c 80000000 		.4byte	.LVL394
 10284 1430 82000000 		.4byte	.LVL395
 10285 1434 0100     		.2byte	0x1
 10286 1436 53       		.byte	0x53
 10287 1437 82000000 		.4byte	.LVL395
 10288 143b 06010000 		.4byte	.LFE93
 10289 143f 0200     		.2byte	0x2
 10290 1441 91       		.byte	0x91
 10291 1442 54       		.sleb128 -44
 10292 1443 00000000 		.4byte	0
 10293 1447 00000000 		.4byte	0
 10294              	.LLST127:
 10295 144b 0A000000 		.4byte	.LVL373
 10296 144f 4C000000 		.4byte	.LVL384
 10297 1453 0200     		.2byte	0x2
 10298 1455 31       		.byte	0x31
 10299 1456 9F       		.byte	0x9f
 10300 1457 4C000000 		.4byte	.LVL384
 10301 145b 78000000 		.4byte	.LVL390
 10302 145f 0800     		.2byte	0x8
ARM GAS  C:\Users\Petro\AppData\Local\Temp\cc6W0syg.s 			page 201


 10303 1461 91       		.byte	0x91
 10304 1462 58       		.sleb128 -40
 10305 1463 06       		.byte	0x6
 10306 1464 31       		.byte	0x31
 10307 1465 24       		.byte	0x24
 10308 1466 23       		.byte	0x23
 10309 1467 01       		.uleb128 0x1
 10310 1468 9F       		.byte	0x9f
 10311 1469 78000000 		.4byte	.LVL390
 10312 146d 7A000000 		.4byte	.LVL391
 10313 1471 0700     		.2byte	0x7
 10314 1473 73       		.byte	0x73
 10315 1474 00       		.sleb128 0
 10316 1475 31       		.byte	0x31
 10317 1476 24       		.byte	0x24
 10318 1477 23       		.byte	0x23
 10319 1478 01       		.uleb128 0x1
 10320 1479 9F       		.byte	0x9f
 10321 147a 7A000000 		.4byte	.LVL391
 10322 147e 7C000000 		.4byte	.LVL392
 10323 1482 0800     		.2byte	0x8
 10324 1484 91       		.byte	0x91
 10325 1485 58       		.sleb128 -40
 10326 1486 06       		.byte	0x6
 10327 1487 31       		.byte	0x31
 10328 1488 24       		.byte	0x24
 10329 1489 23       		.byte	0x23
 10330 148a 01       		.uleb128 0x1
 10331 148b 9F       		.byte	0x9f
 10332 148c 7C000000 		.4byte	.LVL392
 10333 1490 7E000000 		.4byte	.LVL393
 10334 1494 0100     		.2byte	0x1
 10335 1496 53       		.byte	0x53
 10336 1497 7E000000 		.4byte	.LVL393
 10337 149b 02010000 		.4byte	.LVL404
 10338 149f 0800     		.2byte	0x8
 10339 14a1 91       		.byte	0x91
 10340 14a2 58       		.sleb128 -40
 10341 14a3 06       		.byte	0x6
 10342 14a4 31       		.byte	0x31
 10343 14a5 24       		.byte	0x24
 10344 14a6 23       		.byte	0x23
 10345 14a7 01       		.uleb128 0x1
 10346 14a8 9F       		.byte	0x9f
 10347 14a9 02010000 		.4byte	.LVL404
 10348 14ad 06010000 		.4byte	.LFE93
 10349 14b1 0700     		.2byte	0x7
 10350 14b3 73       		.byte	0x73
 10351 14b4 00       		.sleb128 0
 10352 14b5 31       		.byte	0x31
 10353 14b6 24       		.byte	0x24
 10354 14b7 23       		.byte	0x23
 10355 14b8 01       		.uleb128 0x1
 10356 14b9 9F       		.byte	0x9f
 10357 14ba 00000000 		.4byte	0
 10358 14be 00000000 		.4byte	0
 10359              	.LLST128:
ARM GAS  C:\Users\Petro\AppData\Local\Temp\cc6W0syg.s 			page 202


 10360 14c2 10000000 		.4byte	.LVL375
 10361 14c6 12000000 		.4byte	.LVL376
 10362 14ca 0100     		.2byte	0x1
 10363 14cc 53       		.byte	0x53
 10364 14cd 12000000 		.4byte	.LVL376
 10365 14d1 66000000 		.4byte	.LVL387
 10366 14d5 0200     		.2byte	0x2
 10367 14d7 91       		.byte	0x91
 10368 14d8 64       		.sleb128 -28
 10369 14d9 66000000 		.4byte	.LVL387
 10370 14dd 6A000000 		.4byte	.LVL388
 10371 14e1 0100     		.2byte	0x1
 10372 14e3 53       		.byte	0x53
 10373 14e4 6A000000 		.4byte	.LVL388
 10374 14e8 70000000 		.4byte	.LVL389
 10375 14ec 0100     		.2byte	0x1
 10376 14ee 52       		.byte	0x52
 10377 14ef 70000000 		.4byte	.LVL389
 10378 14f3 06010000 		.4byte	.LFE93
 10379 14f7 0200     		.2byte	0x2
 10380 14f9 91       		.byte	0x91
 10381 14fa 64       		.sleb128 -28
 10382 14fb 00000000 		.4byte	0
 10383 14ff 00000000 		.4byte	0
 10384              	.LLST129:
 10385 1503 10000000 		.4byte	.LVL375
 10386 1507 4C000000 		.4byte	.LVL384
 10387 150b 0200     		.2byte	0x2
 10388 150d 30       		.byte	0x30
 10389 150e 9F       		.byte	0x9f
 10390 150f 4C000000 		.4byte	.LVL384
 10391 1513 78000000 		.4byte	.LVL390
 10392 1517 0200     		.2byte	0x2
 10393 1519 91       		.byte	0x91
 10394 151a 58       		.sleb128 -40
 10395 151b 78000000 		.4byte	.LVL390
 10396 151f 7A000000 		.4byte	.LVL391
 10397 1523 0100     		.2byte	0x1
 10398 1525 53       		.byte	0x53
 10399 1526 7A000000 		.4byte	.LVL391
 10400 152a 02010000 		.4byte	.LVL404
 10401 152e 0200     		.2byte	0x2
 10402 1530 91       		.byte	0x91
 10403 1531 58       		.sleb128 -40
 10404 1532 02010000 		.4byte	.LVL404
 10405 1536 06010000 		.4byte	.LFE93
 10406 153a 0100     		.2byte	0x1
 10407 153c 53       		.byte	0x53
 10408 153d 00000000 		.4byte	0
 10409 1541 00000000 		.4byte	0
 10410              	.LLST130:
 10411 1545 10000000 		.4byte	.LVL375
 10412 1549 18000000 		.4byte	.LVL377
 10413 154d 0200     		.2byte	0x2
 10414 154f 91       		.byte	0x91
 10415 1550 50       		.sleb128 -48
 10416 1551 4C000000 		.4byte	.LVL384
ARM GAS  C:\Users\Petro\AppData\Local\Temp\cc6W0syg.s 			page 203


 10417 1555 60000000 		.4byte	.LVL385
 10418 1559 0200     		.2byte	0x2
 10419 155b 91       		.byte	0x91
 10420 155c 50       		.sleb128 -48
 10421 155d 60000000 		.4byte	.LVL385
 10422 1561 62000000 		.4byte	.LVL386
 10423 1565 0100     		.2byte	0x1
 10424 1567 53       		.byte	0x53
 10425 1568 62000000 		.4byte	.LVL386
 10426 156c 02010000 		.4byte	.LVL404
 10427 1570 0200     		.2byte	0x2
 10428 1572 91       		.byte	0x91
 10429 1573 50       		.sleb128 -48
 10430 1574 02010000 		.4byte	.LVL404
 10431 1578 06010000 		.4byte	.LFE93
 10432 157c 0100     		.2byte	0x1
 10433 157e 52       		.byte	0x52
 10434 157f 00000000 		.4byte	0
 10435 1583 00000000 		.4byte	0
 10436              	.LLST131:
 10437 1587 00000000 		.4byte	.LVL405
 10438 158b 22000000 		.4byte	.LVL412
 10439 158f 0100     		.2byte	0x1
 10440 1591 50       		.byte	0x50
 10441 1592 22000000 		.4byte	.LVL412
 10442 1596 06010000 		.4byte	.LFE94
 10443 159a 0400     		.2byte	0x4
 10444 159c F3       		.byte	0xf3
 10445 159d 01       		.uleb128 0x1
 10446 159e 50       		.byte	0x50
 10447 159f 9F       		.byte	0x9f
 10448 15a0 00000000 		.4byte	0
 10449 15a4 00000000 		.4byte	0
 10450              	.LLST132:
 10451 15a8 00000000 		.4byte	.LVL405
 10452 15ac 1E000000 		.4byte	.LVL411
 10453 15b0 0100     		.2byte	0x1
 10454 15b2 51       		.byte	0x51
 10455 15b3 1E000000 		.4byte	.LVL411
 10456 15b7 06010000 		.4byte	.LFE94
 10457 15bb 0400     		.2byte	0x4
 10458 15bd F3       		.byte	0xf3
 10459 15be 01       		.uleb128 0x1
 10460 15bf 51       		.byte	0x51
 10461 15c0 9F       		.byte	0x9f
 10462 15c1 00000000 		.4byte	0
 10463 15c5 00000000 		.4byte	0
 10464              	.LLST133:
 10465 15c9 00000000 		.4byte	.LVL405
 10466 15cd 25000000 		.4byte	.LVL413-1
 10467 15d1 0100     		.2byte	0x1
 10468 15d3 52       		.byte	0x52
 10469 15d4 25000000 		.4byte	.LVL413-1
 10470 15d8 4C000000 		.4byte	.LVL417
 10471 15dc 0200     		.2byte	0x2
 10472 15de 91       		.byte	0x91
 10473 15df 50       		.sleb128 -48
ARM GAS  C:\Users\Petro\AppData\Local\Temp\cc6W0syg.s 			page 204


 10474 15e0 4C000000 		.4byte	.LVL417
 10475 15e4 06010000 		.4byte	.LFE94
 10476 15e8 0400     		.2byte	0x4
 10477 15ea F3       		.byte	0xf3
 10478 15eb 01       		.uleb128 0x1
 10479 15ec 52       		.byte	0x52
 10480 15ed 9F       		.byte	0x9f
 10481 15ee 00000000 		.4byte	0
 10482 15f2 00000000 		.4byte	0
 10483              	.LLST134:
 10484 15f6 0A000000 		.4byte	.LVL406
 10485 15fa 0C000000 		.4byte	.LVL407
 10486 15fe 0100     		.2byte	0x1
 10487 1600 53       		.byte	0x53
 10488 1601 0C000000 		.4byte	.LVL407
 10489 1605 80000000 		.4byte	.LVL427
 10490 1609 0200     		.2byte	0x2
 10491 160b 91       		.byte	0x91
 10492 160c 54       		.sleb128 -44
 10493 160d 80000000 		.4byte	.LVL427
 10494 1611 82000000 		.4byte	.LVL428
 10495 1615 0100     		.2byte	0x1
 10496 1617 53       		.byte	0x53
 10497 1618 82000000 		.4byte	.LVL428
 10498 161c 06010000 		.4byte	.LFE94
 10499 1620 0200     		.2byte	0x2
 10500 1622 91       		.byte	0x91
 10501 1623 54       		.sleb128 -44
 10502 1624 00000000 		.4byte	0
 10503 1628 00000000 		.4byte	0
 10504              	.LLST135:
 10505 162c 0A000000 		.4byte	.LVL406
 10506 1630 4C000000 		.4byte	.LVL417
 10507 1634 0200     		.2byte	0x2
 10508 1636 31       		.byte	0x31
 10509 1637 9F       		.byte	0x9f
 10510 1638 4C000000 		.4byte	.LVL417
 10511 163c 78000000 		.4byte	.LVL423
 10512 1640 0800     		.2byte	0x8
 10513 1642 91       		.byte	0x91
 10514 1643 58       		.sleb128 -40
 10515 1644 06       		.byte	0x6
 10516 1645 31       		.byte	0x31
 10517 1646 24       		.byte	0x24
 10518 1647 23       		.byte	0x23
 10519 1648 01       		.uleb128 0x1
 10520 1649 9F       		.byte	0x9f
 10521 164a 78000000 		.4byte	.LVL423
 10522 164e 7A000000 		.4byte	.LVL424
 10523 1652 0700     		.2byte	0x7
 10524 1654 73       		.byte	0x73
 10525 1655 00       		.sleb128 0
 10526 1656 31       		.byte	0x31
 10527 1657 24       		.byte	0x24
 10528 1658 23       		.byte	0x23
 10529 1659 01       		.uleb128 0x1
 10530 165a 9F       		.byte	0x9f
ARM GAS  C:\Users\Petro\AppData\Local\Temp\cc6W0syg.s 			page 205


 10531 165b 7A000000 		.4byte	.LVL424
 10532 165f 7C000000 		.4byte	.LVL425
 10533 1663 0800     		.2byte	0x8
 10534 1665 91       		.byte	0x91
 10535 1666 58       		.sleb128 -40
 10536 1667 06       		.byte	0x6
 10537 1668 31       		.byte	0x31
 10538 1669 24       		.byte	0x24
 10539 166a 23       		.byte	0x23
 10540 166b 01       		.uleb128 0x1
 10541 166c 9F       		.byte	0x9f
 10542 166d 7C000000 		.4byte	.LVL425
 10543 1671 7E000000 		.4byte	.LVL426
 10544 1675 0100     		.2byte	0x1
 10545 1677 53       		.byte	0x53
 10546 1678 7E000000 		.4byte	.LVL426
 10547 167c 02010000 		.4byte	.LVL437
 10548 1680 0800     		.2byte	0x8
 10549 1682 91       		.byte	0x91
 10550 1683 58       		.sleb128 -40
 10551 1684 06       		.byte	0x6
 10552 1685 31       		.byte	0x31
 10553 1686 24       		.byte	0x24
 10554 1687 23       		.byte	0x23
 10555 1688 01       		.uleb128 0x1
 10556 1689 9F       		.byte	0x9f
 10557 168a 02010000 		.4byte	.LVL437
 10558 168e 06010000 		.4byte	.LFE94
 10559 1692 0700     		.2byte	0x7
 10560 1694 73       		.byte	0x73
 10561 1695 00       		.sleb128 0
 10562 1696 31       		.byte	0x31
 10563 1697 24       		.byte	0x24
 10564 1698 23       		.byte	0x23
 10565 1699 01       		.uleb128 0x1
 10566 169a 9F       		.byte	0x9f
 10567 169b 00000000 		.4byte	0
 10568 169f 00000000 		.4byte	0
 10569              	.LLST136:
 10570 16a3 10000000 		.4byte	.LVL408
 10571 16a7 12000000 		.4byte	.LVL409
 10572 16ab 0100     		.2byte	0x1
 10573 16ad 53       		.byte	0x53
 10574 16ae 12000000 		.4byte	.LVL409
 10575 16b2 66000000 		.4byte	.LVL420
 10576 16b6 0200     		.2byte	0x2
 10577 16b8 91       		.byte	0x91
 10578 16b9 64       		.sleb128 -28
 10579 16ba 66000000 		.4byte	.LVL420
 10580 16be 6A000000 		.4byte	.LVL421
 10581 16c2 0100     		.2byte	0x1
 10582 16c4 53       		.byte	0x53
 10583 16c5 6A000000 		.4byte	.LVL421
 10584 16c9 70000000 		.4byte	.LVL422
 10585 16cd 0100     		.2byte	0x1
 10586 16cf 52       		.byte	0x52
 10587 16d0 70000000 		.4byte	.LVL422
ARM GAS  C:\Users\Petro\AppData\Local\Temp\cc6W0syg.s 			page 206


 10588 16d4 06010000 		.4byte	.LFE94
 10589 16d8 0200     		.2byte	0x2
 10590 16da 91       		.byte	0x91
 10591 16db 64       		.sleb128 -28
 10592 16dc 00000000 		.4byte	0
 10593 16e0 00000000 		.4byte	0
 10594              	.LLST137:
 10595 16e4 10000000 		.4byte	.LVL408
 10596 16e8 4C000000 		.4byte	.LVL417
 10597 16ec 0200     		.2byte	0x2
 10598 16ee 30       		.byte	0x30
 10599 16ef 9F       		.byte	0x9f
 10600 16f0 4C000000 		.4byte	.LVL417
 10601 16f4 78000000 		.4byte	.LVL423
 10602 16f8 0200     		.2byte	0x2
 10603 16fa 91       		.byte	0x91
 10604 16fb 58       		.sleb128 -40
 10605 16fc 78000000 		.4byte	.LVL423
 10606 1700 7A000000 		.4byte	.LVL424
 10607 1704 0100     		.2byte	0x1
 10608 1706 53       		.byte	0x53
 10609 1707 7A000000 		.4byte	.LVL424
 10610 170b 02010000 		.4byte	.LVL437
 10611 170f 0200     		.2byte	0x2
 10612 1711 91       		.byte	0x91
 10613 1712 58       		.sleb128 -40
 10614 1713 02010000 		.4byte	.LVL437
 10615 1717 06010000 		.4byte	.LFE94
 10616 171b 0100     		.2byte	0x1
 10617 171d 53       		.byte	0x53
 10618 171e 00000000 		.4byte	0
 10619 1722 00000000 		.4byte	0
 10620              	.LLST138:
 10621 1726 10000000 		.4byte	.LVL408
 10622 172a 18000000 		.4byte	.LVL410
 10623 172e 0200     		.2byte	0x2
 10624 1730 91       		.byte	0x91
 10625 1731 50       		.sleb128 -48
 10626 1732 4C000000 		.4byte	.LVL417
 10627 1736 60000000 		.4byte	.LVL418
 10628 173a 0200     		.2byte	0x2
 10629 173c 91       		.byte	0x91
 10630 173d 50       		.sleb128 -48
 10631 173e 60000000 		.4byte	.LVL418
 10632 1742 62000000 		.4byte	.LVL419
 10633 1746 0100     		.2byte	0x1
 10634 1748 53       		.byte	0x53
 10635 1749 62000000 		.4byte	.LVL419
 10636 174d 02010000 		.4byte	.LVL437
 10637 1751 0200     		.2byte	0x2
 10638 1753 91       		.byte	0x91
 10639 1754 50       		.sleb128 -48
 10640 1755 02010000 		.4byte	.LVL437
 10641 1759 06010000 		.4byte	.LFE94
 10642 175d 0100     		.2byte	0x1
 10643 175f 52       		.byte	0x52
 10644 1760 00000000 		.4byte	0
ARM GAS  C:\Users\Petro\AppData\Local\Temp\cc6W0syg.s 			page 207


 10645 1764 00000000 		.4byte	0
 10646              	.LLST139:
 10647 1768 00000000 		.4byte	.LVL438
 10648 176c 0E000000 		.4byte	.LVL439
 10649 1770 0100     		.2byte	0x1
 10650 1772 50       		.byte	0x50
 10651 1773 0E000000 		.4byte	.LVL439
 10652 1777 70000000 		.4byte	.LFE95
 10653 177b 0200     		.2byte	0x2
 10654 177d 91       		.byte	0x91
 10655 177e 60       		.sleb128 -32
 10656 177f 00000000 		.4byte	0
 10657 1783 00000000 		.4byte	0
 10658              	.LLST140:
 10659 1787 00000000 		.4byte	.LVL438
 10660 178b 0E000000 		.4byte	.LVL439
 10661 178f 0100     		.2byte	0x1
 10662 1791 51       		.byte	0x51
 10663 1792 0E000000 		.4byte	.LVL439
 10664 1796 68000000 		.4byte	.LVL451
 10665 179a 0100     		.2byte	0x1
 10666 179c 57       		.byte	0x57
 10667 179d 68000000 		.4byte	.LVL451
 10668 17a1 70000000 		.4byte	.LFE95
 10669 17a5 0400     		.2byte	0x4
 10670 17a7 F3       		.byte	0xf3
 10671 17a8 01       		.uleb128 0x1
 10672 17a9 51       		.byte	0x51
 10673 17aa 9F       		.byte	0x9f
 10674 17ab 00000000 		.4byte	0
 10675 17af 00000000 		.4byte	0
 10676              	.LLST141:
 10677 17b3 00000000 		.4byte	.LVL438
 10678 17b7 0E000000 		.4byte	.LVL439
 10679 17bb 0100     		.2byte	0x1
 10680 17bd 52       		.byte	0x52
 10681 17be 0E000000 		.4byte	.LVL439
 10682 17c2 70000000 		.4byte	.LFE95
 10683 17c6 0200     		.2byte	0x2
 10684 17c8 91       		.byte	0x91
 10685 17c9 64       		.sleb128 -28
 10686 17ca 00000000 		.4byte	0
 10687 17ce 00000000 		.4byte	0
 10688              	.LLST142:
 10689 17d2 00000000 		.4byte	.LVL438
 10690 17d6 0E000000 		.4byte	.LVL439
 10691 17da 0100     		.2byte	0x1
 10692 17dc 53       		.byte	0x53
 10693 17dd 0E000000 		.4byte	.LVL439
 10694 17e1 68000000 		.4byte	.LVL450
 10695 17e5 0100     		.2byte	0x1
 10696 17e7 56       		.byte	0x56
 10697 17e8 68000000 		.4byte	.LVL450
 10698 17ec 70000000 		.4byte	.LFE95
 10699 17f0 0400     		.2byte	0x4
 10700 17f2 F3       		.byte	0xf3
 10701 17f3 01       		.uleb128 0x1
ARM GAS  C:\Users\Petro\AppData\Local\Temp\cc6W0syg.s 			page 208


 10702 17f4 53       		.byte	0x53
 10703 17f5 9F       		.byte	0x9f
 10704 17f6 00000000 		.4byte	0
 10705 17fa 00000000 		.4byte	0
 10706              	.LLST143:
 10707 17fe 14000000 		.4byte	.LVL440
 10708 1802 64000000 		.4byte	.LVL447
 10709 1806 0900     		.2byte	0x9
 10710 1808 74       		.byte	0x74
 10711 1809 00       		.sleb128 0
 10712 180a 38       		.byte	0x38
 10713 180b 14       		.byte	0x14
 10714 180c 14       		.byte	0x14
 10715 180d 1B       		.byte	0x1b
 10716 180e 1E       		.byte	0x1e
 10717 180f 1C       		.byte	0x1c
 10718 1810 9F       		.byte	0x9f
 10719 1811 64000000 		.4byte	.LVL447
 10720 1815 66000000 		.4byte	.LVL448
 10721 1819 0900     		.2byte	0x9
 10722 181b 74       		.byte	0x74
 10723 181c 7F       		.sleb128 -1
 10724 181d 38       		.byte	0x38
 10725 181e 14       		.byte	0x14
 10726 181f 14       		.byte	0x14
 10727 1820 1B       		.byte	0x1b
 10728 1821 1E       		.byte	0x1e
 10729 1822 1C       		.byte	0x1c
 10730 1823 9F       		.byte	0x9f
 10731 1824 00000000 		.4byte	0
 10732 1828 00000000 		.4byte	0
 10733              	.LLST144:
 10734 182c 3C000000 		.4byte	.LVL442
 10735 1830 57000000 		.4byte	.LVL443-1
 10736 1834 0A00     		.2byte	0xa
 10737 1836 91       		.byte	0x91
 10738 1837 64       		.sleb128 -28
 10739 1838 06       		.byte	0x6
 10740 1839 91       		.byte	0x91
 10741 183a 5C       		.sleb128 -36
 10742 183b 06       		.byte	0x6
 10743 183c 22       		.byte	0x22
 10744 183d 75       		.byte	0x75
 10745 183e 00       		.sleb128 0
 10746 183f 22       		.byte	0x22
 10747 1840 5A000000 		.4byte	.LVL444
 10748 1844 5D000000 		.4byte	.LVL445-1
 10749 1848 0A00     		.2byte	0xa
 10750 184a 91       		.byte	0x91
 10751 184b 64       		.sleb128 -28
 10752 184c 06       		.byte	0x6
 10753 184d 91       		.byte	0x91
 10754 184e 5C       		.sleb128 -36
 10755 184f 06       		.byte	0x6
 10756 1850 22       		.byte	0x22
 10757 1851 75       		.byte	0x75
 10758 1852 00       		.sleb128 0
ARM GAS  C:\Users\Petro\AppData\Local\Temp\cc6W0syg.s 			page 209


 10759 1853 22       		.byte	0x22
 10760 1854 00000000 		.4byte	0
 10761 1858 00000000 		.4byte	0
 10762              	.LLST145:
 10763 185c 00000000 		.4byte	.LVL438
 10764 1860 0E000000 		.4byte	.LVL439
 10765 1864 0200     		.2byte	0x2
 10766 1866 30       		.byte	0x30
 10767 1867 9F       		.byte	0x9f
 10768 1868 0E000000 		.4byte	.LVL439
 10769 186c 68000000 		.4byte	.LVL449
 10770 1870 0100     		.2byte	0x1
 10771 1872 54       		.byte	0x54
 10772 1873 00000000 		.4byte	0
 10773 1877 00000000 		.4byte	0
 10774              	.LLST146:
 10775 187b 14000000 		.4byte	.LVL440
 10776 187f 38000000 		.4byte	.LVL441
 10777 1883 0200     		.2byte	0x2
 10778 1885 30       		.byte	0x30
 10779 1886 9F       		.byte	0x9f
 10780 1887 38000000 		.4byte	.LVL441
 10781 188b 66000000 		.4byte	.LVL448
 10782 188f 0100     		.2byte	0x1
 10783 1891 55       		.byte	0x55
 10784 1892 00000000 		.4byte	0
 10785 1896 00000000 		.4byte	0
 10786              		.section	.debug_aranges,"",%progbits
 10787 0000 1C010000 		.4byte	0x11c
 10788 0004 0200     		.2byte	0x2
 10789 0006 00000000 		.4byte	.Ldebug_info0
 10790 000a 04       		.byte	0x4
 10791 000b 00       		.byte	0
 10792 000c 0000     		.2byte	0
 10793 000e 0000     		.2byte	0
 10794 0010 00000000 		.4byte	.LFB63
 10795 0014 28000000 		.4byte	.LFE63-.LFB63
 10796 0018 00000000 		.4byte	.LFB64
 10797 001c 22000000 		.4byte	.LFE64-.LFB64
 10798 0020 00000000 		.4byte	.LFB66
 10799 0024 3C000000 		.4byte	.LFE66-.LFB66
 10800 0028 00000000 		.4byte	.LFB67
 10801 002c 38000000 		.4byte	.LFE67-.LFB67
 10802 0030 00000000 		.4byte	.LFB69
 10803 0034 38000000 		.4byte	.LFE69-.LFB69
 10804 0038 00000000 		.4byte	.LFB68
 10805 003c 50000000 		.4byte	.LFE68-.LFB68
 10806 0040 00000000 		.4byte	.LFB70
 10807 0044 1C000000 		.4byte	.LFE70-.LFB70
 10808 0048 00000000 		.4byte	.LFB65
 10809 004c 88000000 		.4byte	.LFE65-.LFB65
 10810 0050 00000000 		.4byte	.LFB71
 10811 0054 18000000 		.4byte	.LFE71-.LFB71
 10812 0058 00000000 		.4byte	.LFB72
 10813 005c 14000000 		.4byte	.LFE72-.LFB72
 10814 0060 00000000 		.4byte	.LFB73
 10815 0064 28000000 		.4byte	.LFE73-.LFB73
ARM GAS  C:\Users\Petro\AppData\Local\Temp\cc6W0syg.s 			page 210


 10816 0068 00000000 		.4byte	.LFB74
 10817 006c 28000000 		.4byte	.LFE74-.LFB74
 10818 0070 00000000 		.4byte	.LFB75
 10819 0074 3C000000 		.4byte	.LFE75-.LFB75
 10820 0078 00000000 		.4byte	.LFB76
 10821 007c 14000000 		.4byte	.LFE76-.LFB76
 10822 0080 00000000 		.4byte	.LFB81
 10823 0084 04010000 		.4byte	.LFE81-.LFB81
 10824 0088 00000000 		.4byte	.LFB77
 10825 008c 5C000000 		.4byte	.LFE77-.LFB77
 10826 0090 00000000 		.4byte	.LFB78
 10827 0094 08000000 		.4byte	.LFE78-.LFB78
 10828 0098 00000000 		.4byte	.LFB79
 10829 009c CC000000 		.4byte	.LFE79-.LFB79
 10830 00a0 00000000 		.4byte	.LFB80
 10831 00a4 92000000 		.4byte	.LFE80-.LFB80
 10832 00a8 00000000 		.4byte	.LFB82
 10833 00ac 20000000 		.4byte	.LFE82-.LFB82
 10834 00b0 00000000 		.4byte	.LFB83
 10835 00b4 38000000 		.4byte	.LFE83-.LFB83
 10836 00b8 00000000 		.4byte	.LFB84
 10837 00bc 38000000 		.4byte	.LFE84-.LFB84
 10838 00c0 00000000 		.4byte	.LFB85
 10839 00c4 26000000 		.4byte	.LFE85-.LFB85
 10840 00c8 00000000 		.4byte	.LFB86
 10841 00cc 26000000 		.4byte	.LFE86-.LFB86
 10842 00d0 00000000 		.4byte	.LFB87
 10843 00d4 74010000 		.4byte	.LFE87-.LFB87
 10844 00d8 00000000 		.4byte	.LFB88
 10845 00dc 74010000 		.4byte	.LFE88-.LFB88
 10846 00e0 00000000 		.4byte	.LFB89
 10847 00e4 4C000000 		.4byte	.LFE89-.LFB89
 10848 00e8 00000000 		.4byte	.LFB90
 10849 00ec 4C000000 		.4byte	.LFE90-.LFB90
 10850 00f0 00000000 		.4byte	.LFB91
 10851 00f4 A2000000 		.4byte	.LFE91-.LFB91
 10852 00f8 00000000 		.4byte	.LFB92
 10853 00fc A2000000 		.4byte	.LFE92-.LFB92
 10854 0100 00000000 		.4byte	.LFB93
 10855 0104 06010000 		.4byte	.LFE93-.LFB93
 10856 0108 00000000 		.4byte	.LFB94
 10857 010c 06010000 		.4byte	.LFE94-.LFB94
 10858 0110 00000000 		.4byte	.LFB95
 10859 0114 70000000 		.4byte	.LFE95-.LFB95
 10860 0118 00000000 		.4byte	0
 10861 011c 00000000 		.4byte	0
 10862              		.section	.debug_ranges,"",%progbits
 10863              	.Ldebug_ranges0:
 10864 0000 40000000 		.4byte	.LBB26
 10865 0004 48000000 		.4byte	.LBE26
 10866 0008 4A000000 		.4byte	.LBB28
 10867 000c 78000000 		.4byte	.LBE28
 10868 0010 7A000000 		.4byte	.LBB29
 10869 0014 BE000000 		.4byte	.LBE29
 10870 0018 00000000 		.4byte	0
 10871 001c 00000000 		.4byte	0
 10872 0020 5A000000 		.4byte	.LBB31
ARM GAS  C:\Users\Petro\AppData\Local\Temp\cc6W0syg.s 			page 211


 10873 0024 70000000 		.4byte	.LBE31
 10874 0028 7E000000 		.4byte	.LBB32
 10875 002c 82000000 		.4byte	.LBE32
 10876 0030 00000000 		.4byte	0
 10877 0034 00000000 		.4byte	0
 10878 0038 22010000 		.4byte	.LBB64
 10879 003c 3E010000 		.4byte	.LBE64
 10880 0040 5C010000 		.4byte	.LBB65
 10881 0044 6C010000 		.4byte	.LBE65
 10882 0048 00000000 		.4byte	0
 10883 004c 00000000 		.4byte	0
 10884 0050 22010000 		.4byte	.LBB68
 10885 0054 3E010000 		.4byte	.LBE68
 10886 0058 5C010000 		.4byte	.LBB69
 10887 005c 6C010000 		.4byte	.LBE69
 10888 0060 00000000 		.4byte	0
 10889 0064 00000000 		.4byte	0
 10890 0068 00000000 		.4byte	.LFB63
 10891 006c 28000000 		.4byte	.LFE63
 10892 0070 00000000 		.4byte	.LFB64
 10893 0074 22000000 		.4byte	.LFE64
 10894 0078 00000000 		.4byte	.LFB66
 10895 007c 3C000000 		.4byte	.LFE66
 10896 0080 00000000 		.4byte	.LFB67
 10897 0084 38000000 		.4byte	.LFE67
 10898 0088 00000000 		.4byte	.LFB69
 10899 008c 38000000 		.4byte	.LFE69
 10900 0090 00000000 		.4byte	.LFB68
 10901 0094 50000000 		.4byte	.LFE68
 10902 0098 00000000 		.4byte	.LFB70
 10903 009c 1C000000 		.4byte	.LFE70
 10904 00a0 00000000 		.4byte	.LFB65
 10905 00a4 88000000 		.4byte	.LFE65
 10906 00a8 00000000 		.4byte	.LFB71
 10907 00ac 18000000 		.4byte	.LFE71
 10908 00b0 00000000 		.4byte	.LFB72
 10909 00b4 14000000 		.4byte	.LFE72
 10910 00b8 00000000 		.4byte	.LFB73
 10911 00bc 28000000 		.4byte	.LFE73
 10912 00c0 00000000 		.4byte	.LFB74
 10913 00c4 28000000 		.4byte	.LFE74
 10914 00c8 00000000 		.4byte	.LFB75
 10915 00cc 3C000000 		.4byte	.LFE75
 10916 00d0 00000000 		.4byte	.LFB76
 10917 00d4 14000000 		.4byte	.LFE76
 10918 00d8 00000000 		.4byte	.LFB81
 10919 00dc 04010000 		.4byte	.LFE81
 10920 00e0 00000000 		.4byte	.LFB77
 10921 00e4 5C000000 		.4byte	.LFE77
 10922 00e8 00000000 		.4byte	.LFB78
 10923 00ec 08000000 		.4byte	.LFE78
 10924 00f0 00000000 		.4byte	.LFB79
 10925 00f4 CC000000 		.4byte	.LFE79
 10926 00f8 00000000 		.4byte	.LFB80
 10927 00fc 92000000 		.4byte	.LFE80
 10928 0100 00000000 		.4byte	.LFB82
 10929 0104 20000000 		.4byte	.LFE82
ARM GAS  C:\Users\Petro\AppData\Local\Temp\cc6W0syg.s 			page 212


 10930 0108 00000000 		.4byte	.LFB83
 10931 010c 38000000 		.4byte	.LFE83
 10932 0110 00000000 		.4byte	.LFB84
 10933 0114 38000000 		.4byte	.LFE84
 10934 0118 00000000 		.4byte	.LFB85
 10935 011c 26000000 		.4byte	.LFE85
 10936 0120 00000000 		.4byte	.LFB86
 10937 0124 26000000 		.4byte	.LFE86
 10938 0128 00000000 		.4byte	.LFB87
 10939 012c 74010000 		.4byte	.LFE87
 10940 0130 00000000 		.4byte	.LFB88
 10941 0134 74010000 		.4byte	.LFE88
 10942 0138 00000000 		.4byte	.LFB89
 10943 013c 4C000000 		.4byte	.LFE89
 10944 0140 00000000 		.4byte	.LFB90
 10945 0144 4C000000 		.4byte	.LFE90
 10946 0148 00000000 		.4byte	.LFB91
 10947 014c A2000000 		.4byte	.LFE91
 10948 0150 00000000 		.4byte	.LFB92
 10949 0154 A2000000 		.4byte	.LFE92
 10950 0158 00000000 		.4byte	.LFB93
 10951 015c 06010000 		.4byte	.LFE93
 10952 0160 00000000 		.4byte	.LFB94
 10953 0164 06010000 		.4byte	.LFE94
 10954 0168 00000000 		.4byte	.LFB95
 10955 016c 70000000 		.4byte	.LFE95
 10956 0170 00000000 		.4byte	0
 10957 0174 00000000 		.4byte	0
 10958              		.section	.debug_line,"",%progbits
 10959              	.Ldebug_line0:
 10960 0000 35080000 		.section	.debug_str,"MS",%progbits,1
 10960      02006C02 
 10960      00000201 
 10960      FB0E0D00 
 10960      01010101 
 10961              	.LASF70:
 10962 0000 4359424C 		.ascii	"CYBLE_EVT_L2CAP_CBFC_RX_CREDIT_IND\000"
 10962      455F4556 
 10962      545F4C32 
 10962      4341505F 
 10962      43424643 
 10963              	.LASF123:
 10964 0023 636C724C 		.ascii	"clrLine\000"
 10964      696E6500 
 10965              	.LASF144:
 10966 002b 474E5520 		.ascii	"GNU C 4.9.3 20150303 (release) [ARM/embedded-4_9-br"
 10966      4320342E 
 10966      392E3320 
 10966      32303135 
 10966      30333033 
 10967 005e 616E6368 		.ascii	"anch revision 221220] -mcpu=cortex-m0 -mthumb -g -O"
 10967      20726576 
 10967      6973696F 
 10967      6E203232 
 10967      31323230 
 10968 0091 73202D66 		.ascii	"s -ffunction-sections -ffat-lto-objects\000"
 10968      66756E63 
ARM GAS  C:\Users\Petro\AppData\Local\Temp\cc6W0syg.s 			page 213


 10968      74696F6E 
 10968      2D736563 
 10968      74696F6E 
 10969              	.LASF101:
 10970 00b9 496E6974 		.ascii	"InitLCD\000"
 10970      4C434400 
 10971              	.LASF113:
 10972 00c1 7072696E 		.ascii	"prints\000"
 10972      747300
 10973              	.LASF17:
 10974 00c8 73697A65 		.ascii	"size_t\000"
 10974      5F7400
 10975              	.LASF35:
 10976 00cf 4359424C 		.ascii	"CYBLE_EVT_GAP_CONNECTION_UPDATE_COMPLETE\000"
 10976      455F4556 
 10976      545F4741 
 10976      505F434F 
 10976      4E4E4543 
 10977              	.LASF68:
 10978 00f8 4359424C 		.ascii	"CYBLE_EVT_L2CAP_CBFC_DISCONN_CNF\000"
 10978      455F4556 
 10978      545F4C32 
 10978      4341505F 
 10978      43424643 
 10979              	.LASF145:
 10980 0119 2E2E5C2E 		.ascii	"..\\..\\common\\lib\\nokia5110\\LCD5110_Graph.c\000"
 10980      2E5C636F 
 10980      6D6D6F6E 
 10980      5C6C6962 
 10980      5C6E6F6B 
 10981              	.LASF24:
 10982 0144 4359424C 		.ascii	"CYBLE_EVT_STACK_BUSY_STATUS\000"
 10982      455F4556 
 10982      545F5354 
 10982      41434B5F 
 10982      42555359 
 10983              	.LASF49:
 10984 0160 4359424C 		.ascii	"CYBLE_EVT_GATTC_READ_MULTI_RSP\000"
 10984      455F4556 
 10984      545F4741 
 10984      5454435F 
 10984      52454144 
 10985              	.LASF5:
 10986 017f 5F5F7569 		.ascii	"__uint8_t\000"
 10986      6E74385F 
 10986      7400
 10987              	.LASF142:
 10988 0189 5253545F 		.ascii	"RST_Write\000"
 10988      57726974 
 10988      6500
 10989              	.LASF139:
 10990 0193 44435F57 		.ascii	"DC_Write\000"
 10990      72697465 
 10990      00
 10991              	.LASF21:
 10992 019c 4359424C 		.ascii	"CYBLE_EVT_TIMEOUT\000"
 10992      455F4556 
ARM GAS  C:\Users\Petro\AppData\Local\Temp\cc6W0syg.s 			page 214


 10992      545F5449 
 10992      4D454F55 
 10992      5400
 10993              	.LASF8:
 10994 01ae 6C6F6E67 		.ascii	"long int\000"
 10994      20696E74 
 10994      00
 10995              	.LASF135:
 10996 01b7 63666F6E 		.ascii	"cfont\000"
 10996      7400
 10997              	.LASF80:
 10998 01bd 6E756D63 		.ascii	"numchars\000"
 10998      68617273 
 10998      00
 10999              	.LASF23:
 11000 01c6 4359424C 		.ascii	"CYBLE_EVT_HCI_STATUS\000"
 11000      455F4556 
 11000      545F4843 
 11000      495F5354 
 11000      41545553 
 11001              	.LASF112:
 11002 01db 7072696E 		.ascii	"print\000"
 11002      7400
 11003              	.LASF73:
 11004 01e1 4359424C 		.ascii	"CYBLE_EVT_PENDING_FLASH_WRITE\000"
 11004      455F4556 
 11004      545F5045 
 11004      4E44494E 
 11004      475F464C 
 11005              	.LASF100:
 11006 01ff 636C7253 		.ascii	"clrScr\000"
 11006      637200
 11007              	.LASF122:
 11008 0206 64656C74 		.ascii	"delta\000"
 11008      6100
 11009              	.LASF62:
 11010 020c 4359424C 		.ascii	"CYBLE_EVT_L2CAP_CONN_PARAM_UPDATE_REQ\000"
 11010      455F4556 
 11010      545F4C32 
 11010      4341505F 
 11010      434F4E4E 
 11011              	.LASF106:
 11012 0232 696E7665 		.ascii	"invertText\000"
 11012      72745465 
 11012      787400
 11013              	.LASF34:
 11014 023d 4359424C 		.ascii	"CYBLE_EVT_GAP_ENCRYPT_CHANGE\000"
 11014      455F4556 
 11014      545F4741 
 11014      505F454E 
 11014      43525950 
 11015              	.LASF71:
 11016 025a 4359424C 		.ascii	"CYBLE_EVT_L2CAP_CBFC_TX_CREDIT_IND\000"
 11016      455F4556 
 11016      545F4C32 
 11016      4341505F 
 11016      43424643 
ARM GAS  C:\Users\Petro\AppData\Local\Temp\cc6W0syg.s 			page 215


 11017              	.LASF102:
 11018 027d 66696C6C 		.ascii	"fillScr\000"
 11018      53637200 
 11019              	.LASF10:
 11020 0285 6C6F6E67 		.ascii	"long long int\000"
 11020      206C6F6E 
 11020      6720696E 
 11020      7400
 11021              	.LASF2:
 11022 0293 7369676E 		.ascii	"signed char\000"
 11022      65642063 
 11022      68617200 
 11023              	.LASF20:
 11024 029f 4359424C 		.ascii	"CYBLE_EVT_STACK_ON\000"
 11024      455F4556 
 11024      545F5354 
 11024      41434B5F 
 11024      4F4E00
 11025              	.LASF119:
 11026 02b2 73697A65 		.ascii	"size\000"
 11026      00
 11027              	.LASF11:
 11028 02b7 6C6F6E67 		.ascii	"long long unsigned int\000"
 11028      206C6F6E 
 11028      6720756E 
 11028      7369676E 
 11028      65642069 
 11029              	.LASF36:
 11030 02ce 4359424C 		.ascii	"CYBLE_EVT_GAPC_SCAN_START_STOP\000"
 11030      455F4556 
 11030      545F4741 
 11030      50435F53 
 11030      43414E5F 
 11031              	.LASF26:
 11032 02ed 4359424C 		.ascii	"CYBLE_EVT_GAP_AUTH_REQ\000"
 11032      455F4556 
 11032      545F4741 
 11032      505F4155 
 11032      54485F52 
 11033              	.LASF47:
 11034 0304 4359424C 		.ascii	"CYBLE_EVT_GATTC_READ_RSP\000"
 11034      455F4556 
 11034      545F4741 
 11034      5454435F 
 11034      52454144 
 11035              	.LASF138:
 11036 031d 5F636F6E 		.ascii	"_contrast\000"
 11036      74726173 
 11036      7400
 11037              	.LASF52:
 11038 0327 4359424C 		.ascii	"CYBLE_EVT_GATTS_WRITE_CMD_REQ\000"
 11038      455F4556 
 11038      545F4741 
 11038      5454535F 
 11038      57524954 
 11039              	.LASF132:
 11040 0345 636C7243 		.ascii	"clrCircle\000"
ARM GAS  C:\Users\Petro\AppData\Local\Temp\cc6W0syg.s 			page 216


 11040      6972636C 
 11040      6500
 11041              	.LASF31:
 11042 034f 4359424C 		.ascii	"CYBLE_EVT_GAPP_ADVERTISEMENT_START_STOP\000"
 11042      455F4556 
 11042      545F4741 
 11042      50505F41 
 11042      44564552 
 11043              	.LASF41:
 11044 0377 4359424C 		.ascii	"CYBLE_EVT_GATTS_XCNHG_MTU_REQ\000"
 11044      455F4556 
 11044      545F4741 
 11044      5454535F 
 11044      58434E48 
 11045              	.LASF15:
 11046 0395 75696E74 		.ascii	"uint8\000"
 11046      3800
 11047              	.LASF55:
 11048 039b 4359424C 		.ascii	"CYBLE_EVT_GATTC_EXEC_WRITE_RSP\000"
 11048      455F4556 
 11048      545F4741 
 11048      5454435F 
 11048      45584543 
 11049              	.LASF148:
 11050 03ba 73707269 		.ascii	"sprintf\000"
 11050      6E746600 
 11051              	.LASF95:
 11052 03c2 73657443 		.ascii	"setContrast\000"
 11052      6F6E7472 
 11052      61737400 
 11053              	.LASF99:
 11054 03ce 64697361 		.ascii	"disableSleep\000"
 11054      626C6553 
 11054      6C656570 
 11054      00
 11055              	.LASF121:
 11056 03db 64726177 		.ascii	"drawLine\000"
 11056      4C696E65 
 11056      00
 11057              	.LASF107:
 11058 03e4 5F707269 		.ascii	"_print_char\000"
 11058      6E745F63 
 11058      68617200 
 11059              	.LASF72:
 11060 03f0 4359424C 		.ascii	"CYBLE_EVT_L2CAP_CBFC_DATA_WRITE_IND\000"
 11060      455F4556 
 11060      545F4C32 
 11060      4341505F 
 11060      43424643 
 11061              	.LASF116:
 11062 0414 66696C6C 		.ascii	"filler\000"
 11062      657200
 11063              	.LASF88:
 11064 041b 636C7256 		.ascii	"clrVLine\000"
 11064      4C696E65 
 11064      00
 11065              	.LASF60:
ARM GAS  C:\Users\Petro\AppData\Local\Temp\cc6W0syg.s 			page 217


 11066 0424 4359424C 		.ascii	"CYBLE_EVT_GATTC_STOP_CMD_COMPLETE\000"
 11066      455F4556 
 11066      545F4741 
 11066      5454435F 
 11066      53544F50 
 11067              	.LASF12:
 11068 0446 756E7369 		.ascii	"unsigned int\000"
 11068      676E6564 
 11068      20696E74 
 11068      00
 11069              	.LASF74:
 11070 0453 4359424C 		.ascii	"CYBLE_EVT_LE_PING_AUTH_TIMEOUT\000"
 11070      455F4556 
 11070      545F4C45 
 11070      5F50494E 
 11070      475F4155 
 11071              	.LASF14:
 11072 0472 75696E74 		.ascii	"uint16_t\000"
 11072      31365F74 
 11072      00
 11073              	.LASF143:
 11074 047b 7374726C 		.ascii	"strlen\000"
 11074      656E00
 11075              	.LASF109:
 11076 0482 726F7763 		.ascii	"rowcnt\000"
 11076      6E7400
 11077              	.LASF9:
 11078 0489 6C6F6E67 		.ascii	"long unsigned int\000"
 11078      20756E73 
 11078      69676E65 
 11078      6420696E 
 11078      7400
 11079              	.LASF83:
 11080 049b 73657450 		.ascii	"setPixel\000"
 11080      6978656C 
 11080      00
 11081              	.LASF42:
 11082 04a4 4359424C 		.ascii	"CYBLE_EVT_GATTC_XCHNG_MTU_RSP\000"
 11082      455F4556 
 11082      545F4741 
 11082      5454435F 
 11082      5843484E 
 11083              	.LASF59:
 11084 04c2 4359424C 		.ascii	"CYBLE_EVT_GATTS_DATA_SIGNED_CMD_REQ\000"
 11084      455F4556 
 11084      545F4741 
 11084      5454535F 
 11084      44415441 
 11085              	.LASF130:
 11086 04e6 6464465F 		.ascii	"ddF_x\000"
 11086      7800
 11087              	.LASF131:
 11088 04ec 6464465F 		.ascii	"ddF_y\000"
 11088      7900
 11089              	.LASF87:
 11090 04f2 64726177 		.ascii	"drawVLine\000"
 11090      564C696E 
ARM GAS  C:\Users\Petro\AppData\Local\Temp\cc6W0syg.s 			page 218


 11090      6500
 11091              	.LASF89:
 11092 04fc 77696474 		.ascii	"width\000"
 11092      6800
 11093              	.LASF93:
 11094 0502 64617461 		.ascii	"data\000"
 11094      00
 11095              	.LASF137:
 11096 0507 5F736C65 		.ascii	"_sleep\000"
 11096      657000
 11097              	.LASF7:
 11098 050e 73686F72 		.ascii	"short unsigned int\000"
 11098      7420756E 
 11098      7369676E 
 11098      65642069 
 11098      6E7400
 11099              	.LASF19:
 11100 0521 4359424C 		.ascii	"CYBLE_EVT_HOST_INVALID\000"
 11100      455F4556 
 11100      545F484F 
 11100      53545F49 
 11100      4E56414C 
 11101              	.LASF92:
 11102 0538 5F4C4344 		.ascii	"_LCD_Write\000"
 11102      5F577269 
 11102      746500
 11103              	.LASF141:
 11104 0543 53775350 		.ascii	"SwSPI_Master_SendByte\000"
 11104      495F4D61 
 11104      73746572 
 11104      5F53656E 
 11104      64427974 
 11105              	.LASF54:
 11106 0559 4359424C 		.ascii	"CYBLE_EVT_GATTS_EXEC_WRITE_REQ\000"
 11106      455F4556 
 11106      545F4741 
 11106      5454535F 
 11106      45584543 
 11107              	.LASF27:
 11108 0578 4359424C 		.ascii	"CYBLE_EVT_GAP_PASSKEY_ENTRY_REQUEST\000"
 11108      455F4556 
 11108      545F4741 
 11108      505F5041 
 11108      53534B45 
 11109              	.LASF32:
 11110 059c 4359424C 		.ascii	"CYBLE_EVT_GAP_DEVICE_CONNECTED\000"
 11110      455F4556 
 11110      545F4741 
 11110      505F4445 
 11110      56494345 
 11111              	.LASF50:
 11112 05bb 4359424C 		.ascii	"CYBLE_EVT_GATTS_WRITE_REQ\000"
 11112      455F4556 
 11112      545F4741 
 11112      5454535F 
 11112      57524954 
 11113              	.LASF28:
ARM GAS  C:\Users\Petro\AppData\Local\Temp\cc6W0syg.s 			page 219


 11114 05d5 4359424C 		.ascii	"CYBLE_EVT_GAP_PASSKEY_DISPLAY_REQUEST\000"
 11114      455F4556 
 11114      545F4741 
 11114      505F5041 
 11114      53534B45 
 11115              	.LASF39:
 11116 05fb 4359424C 		.ascii	"CYBLE_EVT_GATT_CONNECT_IND\000"
 11116      455F4556 
 11116      545F4741 
 11116      54545F43 
 11116      4F4E4E45 
 11117              	.LASF84:
 11118 0616 636C7250 		.ascii	"clrPixel\000"
 11118      6978656C 
 11118      00
 11119              	.LASF64:
 11120 061f 4359424C 		.ascii	"CYBLE_EVT_L2CAP_COMMAND_REJ\000"
 11120      455F4556 
 11120      545F4C32 
 11120      4341505F 
 11120      434F4D4D 
 11121              	.LASF129:
 11122 063b 72616469 		.ascii	"radius\000"
 11122      757300
 11123              	.LASF110:
 11124 0642 63627974 		.ascii	"cbyte\000"
 11124      6500
 11125              	.LASF25:
 11126 0648 4359424C 		.ascii	"CYBLE_EVT_GAPC_SCAN_PROGRESS_RESULT\000"
 11126      455F4556 
 11126      545F4741 
 11126      50435F53 
 11126      43414E5F 
 11127              	.LASF82:
 11128 066c 5F637572 		.ascii	"_current_font\000"
 11128      72656E74 
 11128      5F666F6E 
 11128      7400
 11129              	.LASF33:
 11130 067a 4359424C 		.ascii	"CYBLE_EVT_GAP_DEVICE_DISCONNECTED\000"
 11130      455F4556 
 11130      545F4741 
 11130      505F4445 
 11130      56494345 
 11131              	.LASF65:
 11132 069c 4359424C 		.ascii	"CYBLE_EVT_L2CAP_CBFC_CONN_IND\000"
 11132      455F4556 
 11132      545F4C32 
 11132      4341505F 
 11132      43424643 
 11133              	.LASF44:
 11134 06ba 4359424C 		.ascii	"CYBLE_EVT_GATTC_READ_BY_TYPE_RSP\000"
 11134      455F4556 
 11134      545F4741 
 11134      5454435F 
 11134      52454144 
 11135              	.LASF86:
ARM GAS  C:\Users\Petro\AppData\Local\Temp\cc6W0syg.s 			page 220


 11136 06db 636C7248 		.ascii	"clrHLine\000"
 11136      4C696E65 
 11136      00
 11137              	.LASF18:
 11138 06e4 73697A65 		.ascii	"sizetype\000"
 11138      74797065 
 11138      00
 11139              	.LASF75:
 11140 06ed 4359424C 		.ascii	"CYBLE_EVT_MAX\000"
 11140      455F4556 
 11140      545F4D41 
 11140      5800
 11141              	.LASF30:
 11142 06fb 4359424C 		.ascii	"CYBLE_EVT_GAP_AUTH_FAILED\000"
 11142      455F4556 
 11142      545F4741 
 11142      505F4155 
 11142      54485F46 
 11143              	.LASF51:
 11144 0715 4359424C 		.ascii	"CYBLE_EVT_GATTC_WRITE_RSP\000"
 11144      455F4556 
 11144      545F4741 
 11144      5454435F 
 11144      57524954 
 11145              	.LASF77:
 11146 072f 785F7369 		.ascii	"x_size\000"
 11146      7A6500
 11147              	.LASF29:
 11148 0736 4359424C 		.ascii	"CYBLE_EVT_GAP_AUTH_COMPLETE\000"
 11148      455F4556 
 11148      545F4741 
 11148      505F4155 
 11148      54485F43 
 11149              	.LASF136:
 11150 0752 73637262 		.ascii	"scrbuf\000"
 11150      756600
 11151              	.LASF56:
 11152 0759 4359424C 		.ascii	"CYBLE_EVT_GATTC_HANDLE_VALUE_NTF\000"
 11152      455F4556 
 11152      545F4741 
 11152      5454435F 
 11152      48414E44 
 11153              	.LASF140:
 11154 077a 43455F57 		.ascii	"CE_Write\000"
 11154      72697465 
 11154      00
 11155              	.LASF85:
 11156 0783 64726177 		.ascii	"drawHLine\000"
 11156      484C696E 
 11156      6500
 11157              	.LASF66:
 11158 078d 4359424C 		.ascii	"CYBLE_EVT_L2CAP_CBFC_CONN_CNF\000"
 11158      455F4556 
 11158      545F4C32 
 11158      4341505F 
 11158      43424643 
 11159              	.LASF43:
ARM GAS  C:\Users\Petro\AppData\Local\Temp\cc6W0syg.s 			page 221


 11160 07ab 4359424C 		.ascii	"CYBLE_EVT_GATTC_READ_BY_GROUP_TYPE_RSP\000"
 11160      455F4556 
 11160      545F4741 
 11160      5454435F 
 11160      52454144 
 11161              	.LASF1:
 11162 07d2 666C6F61 		.ascii	"float\000"
 11162      7400
 11163              	.LASF128:
 11164 07d8 64726177 		.ascii	"drawCircle\000"
 11164      43697263 
 11164      6C6500
 11165              	.LASF126:
 11166 07e3 64726177 		.ascii	"drawRoundRect\000"
 11166      526F756E 
 11166      64526563 
 11166      7400
 11167              	.LASF146:
 11168 07f1 443A5C43 		.ascii	"D:\\Cypress\\system-start-finish\\dev\\FW\\finish\\"
 11168      79707265 
 11168      73735C73 
 11168      79737465 
 11168      6D2D7374 
 11169 081e 66696E5F 		.ascii	"fin_v11.cydsn\000"
 11169      7631312E 
 11169      63796473 
 11169      6E00
 11170              	.LASF104:
 11171 082c 5F426F6F 		.ascii	"_Bool\000"
 11171      6C00
 11172              	.LASF3:
 11173 0832 756E7369 		.ascii	"unsigned char\000"
 11173      676E6564 
 11173      20636861 
 11173      7200
 11174              	.LASF125:
 11175 0840 636C7252 		.ascii	"clrRect\000"
 11175      65637400 
 11176              	.LASF78:
 11177 0848 795F7369 		.ascii	"y_size\000"
 11177      7A6500
 11178              	.LASF4:
 11179 084f 73686F72 		.ascii	"short int\000"
 11179      7420696E 
 11179      7400
 11180              	.LASF57:
 11181 0859 4359424C 		.ascii	"CYBLE_EVT_GATTC_HANDLE_VALUE_IND\000"
 11181      455F4556 
 11181      545F4741 
 11181      5454435F 
 11181      48414E44 
 11182              	.LASF81:
 11183 087a 696E7665 		.ascii	"inverted\000"
 11183      72746564 
 11183      00
 11184              	.LASF53:
 11185 0883 4359424C 		.ascii	"CYBLE_EVT_GATTS_PREP_WRITE_REQ\000"
ARM GAS  C:\Users\Petro\AppData\Local\Temp\cc6W0syg.s 			page 222


 11185      455F4556 
 11185      545F4741 
 11185      5454535F 
 11185      50524550 
 11186              	.LASF97:
 11187 08a2 666F726D 		.ascii	"format\000"
 11187      617400
 11188              	.LASF133:
 11189 08a9 64726177 		.ascii	"drawBitmap\000"
 11189      4269746D 
 11189      617000
 11190              	.LASF105:
 11191 08b4 696E7650 		.ascii	"invPixel\000"
 11191      6978656C 
 11191      00
 11192              	.LASF58:
 11193 08bd 4359424C 		.ascii	"CYBLE_EVT_GATTS_HANDLE_VALUE_CNF\000"
 11193      455F4556 
 11193      545F4741 
 11193      5454535F 
 11193      48414E44 
 11194              	.LASF38:
 11195 08de 4359424C 		.ascii	"CYBLE_EVT_GATTC_ERROR_RSP\000"
 11195      455F4556 
 11195      545F4741 
 11195      5454435F 
 11195      4552524F 
 11196              	.LASF45:
 11197 08f8 4359424C 		.ascii	"CYBLE_EVT_GATTC_FIND_INFO_RSP\000"
 11197      455F4556 
 11197      545F4741 
 11197      5454435F 
 11197      46494E44 
 11198              	.LASF108:
 11199 0916 666F6E74 		.ascii	"font_idx\000"
 11199      5F696478 
 11199      00
 11200              	.LASF115:
 11201 091f 6C656E67 		.ascii	"length\000"
 11201      746800
 11202              	.LASF16:
 11203 0926 63686172 		.ascii	"char\000"
 11203      00
 11204              	.LASF94:
 11205 092b 6D6F6465 		.ascii	"mode\000"
 11205      00
 11206              	.LASF6:
 11207 0930 5F5F7569 		.ascii	"__uint16_t\000"
 11207      6E743136 
 11207      5F7400
 11208              	.LASF61:
 11209 093b 4359424C 		.ascii	"CYBLE_EVT_GATTS_READ_CHAR_VAL_ACCESS_REQ\000"
 11209      455F4556 
 11209      545F4741 
 11209      5454535F 
 11209      52454144 
 11210              	.LASF48:
ARM GAS  C:\Users\Petro\AppData\Local\Temp\cc6W0syg.s 			page 223


 11211 0964 4359424C 		.ascii	"CYBLE_EVT_GATTC_READ_BLOB_RSP\000"
 11211      455F4556 
 11211      545F4741 
 11211      5454435F 
 11211      52454144 
 11212              	.LASF69:
 11213 0982 4359424C 		.ascii	"CYBLE_EVT_L2CAP_CBFC_DATA_READ\000"
 11213      455F4556 
 11213      545F4C32 
 11213      4341505F 
 11213      43424643 
 11214              	.LASF79:
 11215 09a1 6F666673 		.ascii	"offset\000"
 11215      657400
 11216              	.LASF22:
 11217 09a8 4359424C 		.ascii	"CYBLE_EVT_HARDWARE_ERROR\000"
 11217      455F4556 
 11217      545F4841 
 11217      52445741 
 11217      52455F45 
 11218              	.LASF90:
 11219 09c1 70726563 		.ascii	"prec\000"
 11219      00
 11220              	.LASF147:
 11221 09c6 75706461 		.ascii	"update\000"
 11221      746500
 11222              	.LASF117:
 11223 09cd 7072696E 		.ascii	"printNumF\000"
 11223      744E756D 
 11223      4600
 11224              	.LASF114:
 11225 09d7 7072696E 		.ascii	"printNumI\000"
 11225      744E756D 
 11225      4900
 11226              	.LASF96:
 11227 09e1 636F6E74 		.ascii	"contrast\000"
 11227      72617374 
 11227      00
 11228              	.LASF76:
 11229 09ea 666F6E74 		.ascii	"font\000"
 11229      00
 11230              	.LASF127:
 11231 09ef 636C7252 		.ascii	"clrRoundRect\000"
 11231      6F756E64 
 11231      52656374 
 11231      00
 11232              	.LASF124:
 11233 09fc 64726177 		.ascii	"drawRect\000"
 11233      52656374 
 11233      00
 11234              	.LASF13:
 11235 0a05 75696E74 		.ascii	"uint8_t\000"
 11235      385F7400 
 11236              	.LASF111:
 11237 0a0d 63626974 		.ascii	"cbit\000"
 11237      00
 11238              	.LASF134:
ARM GAS  C:\Users\Petro\AppData\Local\Temp\cc6W0syg.s 			page 224


 11239 0a12 6269746D 		.ascii	"bitmap\000"
 11239      617000
 11240              	.LASF118:
 11241 0a19 64697669 		.ascii	"divider\000"
 11241      64657200 
 11242              	.LASF46:
 11243 0a21 4359424C 		.ascii	"CYBLE_EVT_GATTC_FIND_BY_TYPE_VALUE_RSP\000"
 11243      455F4556 
 11243      545F4741 
 11243      5454435F 
 11243      46494E44 
 11244              	.LASF37:
 11245 0a48 4359424C 		.ascii	"CYBLE_EVT_GAP_KEYINFO_EXCHNGE_CMPLT\000"
 11245      455F4556 
 11245      545F4741 
 11245      505F4B45 
 11245      59494E46 
 11246              	.LASF120:
 11247 0a6c 73657446 		.ascii	"setFont\000"
 11247      6F6E7400 
 11248              	.LASF67:
 11249 0a74 4359424C 		.ascii	"CYBLE_EVT_L2CAP_CBFC_DISCONN_IND\000"
 11249      455F4556 
 11249      545F4C32 
 11249      4341505F 
 11249      43424643 
 11250              	.LASF63:
 11251 0a95 4359424C 		.ascii	"CYBLE_EVT_L2CAP_CONN_PARAM_UPDATE_RSP\000"
 11251      455F4556 
 11251      545F4C32 
 11251      4341505F 
 11251      434F4E4E 
 11252              	.LASF91:
 11253 0abb 5F636F6E 		.ascii	"_convert_float\000"
 11253      76657274 
 11253      5F666C6F 
 11253      617400
 11254              	.LASF98:
 11255 0aca 656E6162 		.ascii	"enableSleep\000"
 11255      6C65536C 
 11255      65657000 
 11256              	.LASF0:
 11257 0ad6 646F7562 		.ascii	"double\000"
 11257      6C6500
 11258              	.LASF40:
 11259 0add 4359424C 		.ascii	"CYBLE_EVT_GATT_DISCONNECT_IND\000"
 11259      455F4556 
 11259      545F4741 
 11259      54545F44 
 11259      4953434F 
 11260              	.LASF103:
 11261 0afb 696E7665 		.ascii	"invert\000"
 11261      727400
 11262              		.ident	"GCC: (GNU Tools for ARM Embedded Processors) 4.9.3 20150303 (release) [ARM/embedded-4_9-br
