ARM GAS  C:\Users\Petro\AppData\Local\Temp\ccTXtr83.s 			page 1


   1              		.cpu cortex-m0
   2              		.fpu softvfp
   3              		.eabi_attribute 20, 1
   4              		.eabi_attribute 21, 1
   5              		.eabi_attribute 23, 3
   6              		.eabi_attribute 24, 1
   7              		.eabi_attribute 25, 1
   8              		.eabi_attribute 26, 1
   9              		.eabi_attribute 30, 4
  10              		.eabi_attribute 34, 0
  11              		.eabi_attribute 18, 4
  12              		.code	16
  13              		.file	"network.c"
  14              		.text
  15              	.Ltext0:
  16              		.cfi_sections	.debug_frame
  17              		.section	.text.CustomInterruptHandler,"ax",%progbits
  18              		.align	1
  19              		.global	CustomInterruptHandler
  20              		.code	16
  21              		.thumb_func
  22              		.type	CustomInterruptHandler, %function
  23              	CustomInterruptHandler:
  24              	.LFB65:
  25              		.file 1 "lib_Network\\network.c"
   1:lib_Network/network.c **** 
   2:lib_Network/network.c **** #include "lib_Network/network.h"
   3:lib_Network/network.c **** #include "..\..\common\lib\lib_BLE\bluetooth.h"
   4:lib_Network/network.c **** #include <UART_XB.h>
   5:lib_Network/network.c **** #include <UART_XB_SPI_UART.h>
   6:lib_Network/network.c **** 
   7:lib_Network/network.c **** #ifdef DEBUG_INFO
   8:lib_Network/network.c ****     #include <DEBUG_UART.h>
   9:lib_Network/network.c **** #endif
  10:lib_Network/network.c **** #ifdef DEBUG_TIME
  11:lib_Network/network.c ****     #include <debug.h>
  12:lib_Network/network.c **** #endif
  13:lib_Network/network.c **** #ifdef DEBUG_NTP
  14:lib_Network/network.c ****     #include <debugntp.h>
  15:lib_Network/network.c **** #endif
  16:lib_Network/network.c **** #ifdef DEBUGNTP
  17:lib_Network/network.c ****     #include <pinDebugNtp.h>
  18:lib_Network/network.c **** #endif
  19:lib_Network/network.c **** 
  20:lib_Network/network.c **** #include "lib_Network\svt.h"
  21:lib_Network/network.c **** #include "..\..\common\lib\lib_DB\database.h"
  22:lib_Network/network.c **** #include "..\..\common\lib\lib_RTC/RTC_WDT.h"
  23:lib_Network/network.c **** #include "lib_Network\ntp.h"
  24:lib_Network/network.c **** #include "..\..\common\lib\lib_Display\display.h"
  25:lib_Network/network.c **** 
  26:lib_Network/network.c **** 
  27:lib_Network/network.c **** /*size buffer*/
  28:lib_Network/network.c **** #define DATA_BUFFER   50
  29:lib_Network/network.c ****  
  30:lib_Network/network.c **** #define ADRESS_READY        8
  31:lib_Network/network.c **** #define ADRESS_REBOOT       9
  32:lib_Network/network.c **** #define ADRESS_COUNT_SK     10
ARM GAS  C:\Users\Petro\AppData\Local\Temp\ccTXtr83.s 			page 2


  33:lib_Network/network.c **** 
  34:lib_Network/network.c **** #define NETWORK_TIMEOUT     50
  35:lib_Network/network.c **** #define NETWORK_TIMEOUT_WDT 3
  36:lib_Network/network.c **** 
  37:lib_Network/network.c **** /*for NTP protocol*/
  38:lib_Network/network.c **** #define NTP_TRY_SYNC        14
  39:lib_Network/network.c **** #define NTP_CONNECT_ATTEMPS 6       //кількість спроб надсилання пакет
  40:lib_Network/network.c **** #define NTP_SUCCESSFUL_PACKET 5       //кількість пакетів для синхроніз
  41:lib_Network/network.c **** #define NTP_DELAY_RECEIVED_PACKET 1000
  42:lib_Network/network.c **** #define NTP_DIFFERENC_LONG_PACKET 49    //uart 2400
  43:lib_Network/network.c **** //#define NTP_DIFFERENC_LONG_PACKET 13  //uart 9600
  44:lib_Network/network.c **** 
  45:lib_Network/network.c **** /*define for result ntp sync*/
  46:lib_Network/network.c **** #define OK      1
  47:lib_Network/network.c **** #define ERROR   0
  48:lib_Network/network.c ****     
  49:lib_Network/network.c **** /*segment time for NTP*/
  50:lib_Network/network.c **** #define T1                  0
  51:lib_Network/network.c **** #define T2                  1
  52:lib_Network/network.c **** #define T3                  2
  53:lib_Network/network.c **** #define T4                  3
  54:lib_Network/network.c **** 
  55:lib_Network/network.c **** typedef struct
  56:lib_Network/network.c **** {
  57:lib_Network/network.c ****     /*data to transmit*/
  58:lib_Network/network.c ****     uint8_t IDpacket;    
  59:lib_Network/network.c ****     uint8_t ready;          /*flag readu finish*/
  60:lib_Network/network.c ****     uint8_t reboot;         /*flag finish reboot*/
  61:lib_Network/network.c ****     uint8_t countSkiers;
  62:lib_Network/network.c ****     uint8_t testMode;
  63:lib_Network/network.c ****     uint64_t tmpTime;
  64:lib_Network/network.c ****     uint16_t tmpMsTime;
  65:lib_Network/network.c ****     uint8_t writeStatus;    /*flag transmitt data*/
  66:lib_Network/network.c **** }FinishData;
  67:lib_Network/network.c **** 
  68:lib_Network/network.c **** typedef struct
  69:lib_Network/network.c **** {
  70:lib_Network/network.c ****     /*data to receive*/
  71:lib_Network/network.c ****     uint8_t IDpacket;
  72:lib_Network/network.c ****     uint64_t unixStartTime;
  73:lib_Network/network.c ****     uint16_t startMsTime;
  74:lib_Network/network.c ****     uint8_t newSkier;
  75:lib_Network/network.c ****     uint8_t testMode;
  76:lib_Network/network.c ****     uint8_t reboot;     /*reboot=1, no reboot=0*/
  77:lib_Network/network.c ****     
  78:lib_Network/network.c ****     uint8_t readStatus;     /*flag successful read data in start*/
  79:lib_Network/network.c **** }StartData;
  80:lib_Network/network.c **** 
  81:lib_Network/network.c **** FinishData outData ;
  82:lib_Network/network.c **** StartData inData;
  83:lib_Network/network.c **** uint8_t rebootFlag ;
  84:lib_Network/network.c **** 
  85:lib_Network/network.c **** uint8_t networkFlagEndReceivePacket;        //indicator end receive packet
  86:lib_Network/network.c **** uint8_t networkFlagReadyForReceive;         //indicator ready for receive next packet
  87:lib_Network/network.c **** struct Resp recvData;
  88:lib_Network/network.c **** static uint8_t networkNumTruCounter;
  89:lib_Network/network.c **** 
ARM GAS  C:\Users\Petro\AppData\Local\Temp\ccTXtr83.s 			page 3


  90:lib_Network/network.c **** uint16_t numAttemps,noConnect, networkStatus;
  91:lib_Network/network.c **** uint32_t unixTime[4];
  92:lib_Network/network.c **** uint16_t millisTime[4];
  93:lib_Network/network.c **** uint8_t ntpFlagEndReceivePacket;        //indicator end receive packet
  94:lib_Network/network.c **** uint8_t ntpFlagReadyForReceive;         //indicator ready for receive next packet
  95:lib_Network/network.c **** NtpResp recvDataNTP;
  96:lib_Network/network.c **** uint8_t onNtpSync = 0;
  97:lib_Network/network.c **** 
  98:lib_Network/network.c **** /*timer time sync*/
  99:lib_Network/network.c **** uint32_t oldUnixTime;
 100:lib_Network/network.c **** 
 101:lib_Network/network.c **** /*network qualyty*/
 102:lib_Network/network.c **** uint8_t buffNetworkQualyty;      
 103:lib_Network/network.c **** 
 104:lib_Network/network.c **** uint32_t SendRealTimeToStart(void);
 105:lib_Network/network.c **** void NTPsendTime(uint32_t unixTime1,uint16_t millis1, uint16_t ID);
 106:lib_Network/network.c **** uint32_t NTPreceiveTime(uint32_t *unixTime2,uint16_t *millis2, uint32_t *unixTime3, uint16_t *milli
 107:lib_Network/network.c **** uint32_t NTPsetTimeToStart(uint32_t unixTime4,uint16_t millis4,  uint16_t ID);
 108:lib_Network/network.c **** void NTPcalculateTime(uint32_t unixTime[], uint16_t msTime[], int32_t *sumTime, int32_t *sumMs);
 109:lib_Network/network.c **** void CustomInterruptHandler(void);
 110:lib_Network/network.c **** void FuncTake(uint32_t sec1, uint16_t ms1, uint32_t sec2, uint16_t ms2, int32_t *resultSec, int16_t
 111:lib_Network/network.c **** 
 112:lib_Network/network.c **** void CallBackNetworkCounter(void)
 113:lib_Network/network.c **** {
 114:lib_Network/network.c ****     if(++networkNumTruCounter == NETWORK_TIMEOUT_WDT)
 115:lib_Network/network.c ****     {
 116:lib_Network/network.c ****         networkStatus = NETWORK_DISCONNECT;
 117:lib_Network/network.c ****         outData.writeStatus = NO_WRITE;
 118:lib_Network/network.c ****         networkNumTruCounter = 0;
 119:lib_Network/network.c ****     } 
 120:lib_Network/network.c **** }
 121:lib_Network/network.c **** 
 122:lib_Network/network.c **** /*******************************************************************************
 123:lib_Network/network.c **** * Function Name: InitNetwork
 124:lib_Network/network.c **** ********************************************************************************
 125:lib_Network/network.c **** *
 126:lib_Network/network.c **** * Summary:
 127:lib_Network/network.c **** *   initialization UART for XBee module
 128:lib_Network/network.c **** *
 129:lib_Network/network.c **** *******************************************************************************/
 130:lib_Network/network.c **** void InitNetwork(void)
 131:lib_Network/network.c **** {
 132:lib_Network/network.c ****     UART_XB_Start();
 133:lib_Network/network.c ****     UART_XB_SetCustomInterruptHandler(&CustomInterruptHandler);
 134:lib_Network/network.c ****     
 135:lib_Network/network.c ****     void (*CallBackWDT1)(void);   
 136:lib_Network/network.c ****     CallBackWDT1 = CallBackNetworkCounter; 
 137:lib_Network/network.c ****     CySysWdtSetInterruptCallback(1, CallBackWDT1);
 138:lib_Network/network.c ****     
 139:lib_Network/network.c ****     #ifdef DEBUG_INFO
 140:lib_Network/network.c ****     DEBUG_UART_Start();     
 141:lib_Network/network.c ****     DEBUG_UART_UartPutString("HElLO, IM READY(fin)\n\r");
 142:lib_Network/network.c ****     #endif
 143:lib_Network/network.c ****     
 144:lib_Network/network.c ****     inData.readStatus = READ_OK;
 145:lib_Network/network.c ****     outData.writeStatus = NO_WRITE;
 146:lib_Network/network.c ****     UART_XB_SpiUartClearRxBuffer();
ARM GAS  C:\Users\Petro\AppData\Local\Temp\ccTXtr83.s 			page 4


 147:lib_Network/network.c ****     
 148:lib_Network/network.c ****     rebootFlag = REBOOT;
 149:lib_Network/network.c **** }
 150:lib_Network/network.c **** 
 151:lib_Network/network.c **** 
 152:lib_Network/network.c **** void CustomInterruptHandler(void)
 153:lib_Network/network.c **** {
  26              		.loc 1 153 0
  27              		.cfi_startproc
  28              	.LVL0:
  29 0000 F0B5     		push	{r4, r5, r6, r7, lr}
  30              		.cfi_def_cfa_offset 20
  31              		.cfi_offset 4, -20
  32              		.cfi_offset 5, -16
  33              		.cfi_offset 6, -12
  34              		.cfi_offset 7, -8
  35              		.cfi_offset 14, -4
 154:lib_Network/network.c ****     uint8_t byte = 0;
 155:lib_Network/network.c ****     
 156:lib_Network/network.c ****     if(onNtpSync)
  36              		.loc 1 156 0
  37 0002 4C4B     		ldr	r3, .L26
 153:lib_Network/network.c ****     uint8_t byte = 0;
  38              		.loc 1 153 0
  39 0004 85B0     		sub	sp, sp, #20
  40              		.cfi_def_cfa_offset 40
  41              		.loc 1 156 0
  42 0006 1B78     		ldrb	r3, [r3]
  43 0008 002B     		cmp	r3, #0
  44 000a 2CD0     		beq	.L2
 157:lib_Network/network.c ****     {
 158:lib_Network/network.c ****         if(UART_XB_SpiUartGetRxBufferSize() > 0)
  45              		.loc 1 158 0
  46 000c FFF7FEFF 		bl	UART_XB_SpiUartGetRxBufferSize
  47              	.LVL1:
 154:lib_Network/network.c ****     
  48              		.loc 1 154 0
  49 0010 0021     		mov	r1, #0
  50              		.loc 1 158 0
  51 0012 8842     		cmp	r0, r1
  52 0014 02D0     		beq	.L3
 159:lib_Network/network.c ****             byte=UART_XB_UartGetChar();
  53              		.loc 1 159 0
  54 0016 FFF7FEFF 		bl	UART_XB_UartGetChar
  55              	.LVL2:
  56 001a C1B2     		uxtb	r1, r0
  57              	.LVL3:
  58              	.L3:
 160:lib_Network/network.c ****         
 161:lib_Network/network.c ****         if(ntpFlagReadyForReceive && byte != 0)
  59              		.loc 1 161 0
  60 001c 464D     		ldr	r5, .L26+4
  61 001e 2B78     		ldrb	r3, [r5]
  62 0020 002B     		cmp	r3, #0
  63 0022 00D1     		bne	.LCB35
  64 0024 84E0     		b	.L1	@long jump
  65              	.LCB35:
ARM GAS  C:\Users\Petro\AppData\Local\Temp\ccTXtr83.s 			page 5


  66              		.loc 1 161 0 is_stmt 0 discriminator 1
  67 0026 0029     		cmp	r1, #0
  68 0028 00D1     		bne	.LCB37
  69 002a 81E0     		b	.L1	@long jump
  70              	.LCB37:
 162:lib_Network/network.c ****         {
 163:lib_Network/network.c ****             NtpUnpackData(&recvDataNTP, (uint8_t)(byte & 0xFF));
  71              		.loc 1 163 0 is_stmt 1
  72 002c 434C     		ldr	r4, .L26+8
  73 002e 201C     		mov	r0, r4
  74 0030 FFF7FEFF 		bl	NtpUnpackData
  75              	.LVL4:
 164:lib_Network/network.c ****             
 165:lib_Network/network.c ****             if(recvDataNTP.EndPacket)
  76              		.loc 1 165 0
  77 0034 237D     		ldrb	r3, [r4, #20]
  78 0036 002B     		cmp	r3, #0
  79 0038 00D1     		bne	.LCB45
  80 003a 79E0     		b	.L1	@long jump
  81              	.LCB45:
 166:lib_Network/network.c ****             {
 167:lib_Network/network.c ****                 unixTime[T4] = RTC_GetUnixTime();
  82              		.loc 1 167 0
  83 003c FFF7FEFF 		bl	RTC_GetUnixTime
  84              	.LVL5:
  85 0040 3F4E     		ldr	r6, .L26+12
  86 0042 F060     		str	r0, [r6, #12]
 168:lib_Network/network.c ****                 millisTime[T4] = RTCgetRecentMs();
  87              		.loc 1 168 0
  88 0044 FFF7FEFF 		bl	RTCgetRecentMs
  89              	.LVL6:
  90 0048 3E4B     		ldr	r3, .L26+16
 169:lib_Network/network.c ****                 unixTime[T2] = recvDataNTP.Data1;
  91              		.loc 1 169 0
  92 004a 6268     		ldr	r2, [r4, #4]
 168:lib_Network/network.c ****                 millisTime[T4] = RTCgetRecentMs();
  93              		.loc 1 168 0
  94 004c D880     		strh	r0, [r3, #6]
  95              		.loc 1 169 0
  96 004e 7260     		str	r2, [r6, #4]
 170:lib_Network/network.c ****                 millisTime[T2] = recvDataNTP.DataMs1;
  97              		.loc 1 170 0
  98 0050 2289     		ldrh	r2, [r4, #8]
  99 0052 5A80     		strh	r2, [r3, #2]
 171:lib_Network/network.c ****                 unixTime[T3] = recvDataNTP.Data2;
 100              		.loc 1 171 0
 101 0054 E268     		ldr	r2, [r4, #12]
 102 0056 B260     		str	r2, [r6, #8]
 172:lib_Network/network.c ****                 millisTime[T3] = recvDataNTP.DataMs2;
 103              		.loc 1 172 0
 104 0058 6289     		ldrh	r2, [r4, #10]
 105 005a 9A80     		strh	r2, [r3, #4]
 173:lib_Network/network.c ****                 
 174:lib_Network/network.c ****                 #ifdef DEBUGNTP
 175:lib_Network/network.c ****                     pinDebugNtp_Write(1);
 176:lib_Network/network.c ****                     pinDebugNtp_Write(0);
 177:lib_Network/network.c ****                 #endif
ARM GAS  C:\Users\Petro\AppData\Local\Temp\ccTXtr83.s 			page 6


 178:lib_Network/network.c ****                 
 179:lib_Network/network.c ****                 ntpFlagEndReceivePacket = 1;
 106              		.loc 1 179 0
 107 005c 0122     		mov	r2, #1
 108 005e 3A4B     		ldr	r3, .L26+20
 109 0060 1A70     		strb	r2, [r3]
 180:lib_Network/network.c ****                 ntpFlagReadyForReceive = 0;
 110              		.loc 1 180 0
 111 0062 0023     		mov	r3, #0
 112 0064 4EE0     		b	.L24
 113              	.LVL7:
 114              	.L2:
 181:lib_Network/network.c ****             }
 182:lib_Network/network.c ****         }
 183:lib_Network/network.c ****     }
 184:lib_Network/network.c ****     else    //network receive byte
 185:lib_Network/network.c ****     {      
 186:lib_Network/network.c ****         if(inData.readStatus == NO_READ && outData.writeStatus == WRITE_OK)
 115              		.loc 1 186 0
 116 0066 394C     		ldr	r4, .L26+24
 117 0068 677D     		ldrb	r7, [r4, #21]
 118 006a 002F     		cmp	r7, #0
 119 006c 60D1     		bne	.L1
 120              		.loc 1 186 0 is_stmt 0 discriminator 1
 121 006e 384D     		ldr	r5, .L26+28
 122 0070 AB7C     		ldrb	r3, [r5, #18]
 123 0072 012B     		cmp	r3, #1
 124 0074 5CD1     		bne	.L1
 187:lib_Network/network.c ****         {
 188:lib_Network/network.c ****             if(UART_XB_SpiUartGetRxBufferSize() > 0)
 125              		.loc 1 188 0 is_stmt 1
 126 0076 FFF7FEFF 		bl	UART_XB_SpiUartGetRxBufferSize
 127              	.LVL8:
 128 007a 0028     		cmp	r0, #0
 129 007c 58D0     		beq	.L1
 189:lib_Network/network.c ****                 byte=UART_XB_UartGetChar();
 130              		.loc 1 189 0
 131 007e FFF7FEFF 		bl	UART_XB_UartGetChar
 132              	.LVL9:
 133 0082 C1B2     		uxtb	r1, r0
 134              	.LVL10:
 190:lib_Network/network.c ****                 
 191:lib_Network/network.c ****             if( byte != 0)
 135              		.loc 1 191 0
 136 0084 0029     		cmp	r1, #0
 137 0086 53D0     		beq	.L1
 192:lib_Network/network.c ****             {
 193:lib_Network/network.c ****                 UnpackData(&recvData, (uint8_t)(byte & 0xFF));
 138              		.loc 1 193 0
 139 0088 324E     		ldr	r6, .L26+32
 140 008a 301C     		mov	r0, r6
 141 008c FFF7FEFF 		bl	UnpackData
 142              	.LVL11:
 194:lib_Network/network.c ****                 
 195:lib_Network/network.c ****                 if(recvData.EndPacket == 1)
 143              		.loc 1 195 0
 144 0090 337E     		ldrb	r3, [r6, #24]
ARM GAS  C:\Users\Petro\AppData\Local\Temp\ccTXtr83.s 			page 7


 145 0092 012B     		cmp	r3, #1
 146 0094 4CD1     		bne	.L1
 196:lib_Network/network.c ****                 {
 197:lib_Network/network.c ****                     inData.IDpacket = recvData.Seq;
 147              		.loc 1 197 0
 148 0096 3278     		ldrb	r2, [r6]
 198:lib_Network/network.c ****                     
 199:lib_Network/network.c ****                     /*id packet ok*/
 200:lib_Network/network.c ****                     if(outData.IDpacket == inData.IDpacket)
 149              		.loc 1 200 0
 150 0098 2978     		ldrb	r1, [r5]
 197:lib_Network/network.c ****                     
 151              		.loc 1 197 0
 152 009a 2270     		strb	r2, [r4]
 153              		.loc 1 200 0
 154 009c 9142     		cmp	r1, r2
 155 009e 33D1     		bne	.L7
 201:lib_Network/network.c ****                     {
 202:lib_Network/network.c ****                         inData.readStatus = READ_OK;
 203:lib_Network/network.c ****                         outData.writeStatus = NO_WRITE;
 204:lib_Network/network.c ****                         
 205:lib_Network/network.c ****                         /*connect network*/
 206:lib_Network/network.c ****                         networkStatus = NETWORK_CONNECT;
 156              		.loc 1 206 0
 157 00a0 2D4A     		ldr	r2, .L26+36
 207:lib_Network/network.c ****                         networkNumTruCounter = 0;
 208:lib_Network/network.c ****                         
 209:lib_Network/network.c ****                         /*network quality*/
 210:lib_Network/network.c ****                         buffNetworkQualyty = (buffNetworkQualyty << 1)|1;
 158              		.loc 1 210 0
 159 00a2 2E49     		ldr	r1, .L26+40
 206:lib_Network/network.c ****                         networkNumTruCounter = 0;
 160              		.loc 1 206 0
 161 00a4 1380     		strh	r3, [r2]
 207:lib_Network/network.c ****                         networkNumTruCounter = 0;
 162              		.loc 1 207 0
 163 00a6 234A     		ldr	r2, .L26
 202:lib_Network/network.c ****                         outData.writeStatus = NO_WRITE;
 164              		.loc 1 202 0
 165 00a8 6375     		strb	r3, [r4, #21]
 207:lib_Network/network.c ****                         networkNumTruCounter = 0;
 166              		.loc 1 207 0
 167 00aa 5770     		strb	r7, [r2, #1]
 168              		.loc 1 210 0
 169 00ac 0A78     		ldrb	r2, [r1]
 203:lib_Network/network.c ****                         
 170              		.loc 1 203 0
 171 00ae AF74     		strb	r7, [r5, #18]
 172              		.loc 1 210 0
 173 00b0 5200     		lsl	r2, r2, #1
 174 00b2 1343     		orr	r3, r2
 175 00b4 0B70     		strb	r3, [r1]
 211:lib_Network/network.c ****                         
 212:lib_Network/network.c ****                         /*write data*/
 213:lib_Network/network.c ****                         inData.newSkier = (recvData.Data3 & 0xFF00) >> 8;
 176              		.loc 1 213 0
 177 00b6 778A     		ldrh	r7, [r6, #18]
ARM GAS  C:\Users\Petro\AppData\Local\Temp\ccTXtr83.s 			page 8


 214:lib_Network/network.c ****                         inData.unixStartTime = recvData.Data1;
 178              		.loc 1 214 0
 179 00b8 B068     		ldr	r0, [r6, #8]
 180 00ba F168     		ldr	r1, [r6, #12]
 181 00bc A060     		str	r0, [r4, #8]
 182 00be E160     		str	r1, [r4, #12]
 213:lib_Network/network.c ****                         inData.unixStartTime = recvData.Data1;
 183              		.loc 1 213 0
 184 00c0 3B0A     		lsr	r3, r7, #8
 185 00c2 A374     		strb	r3, [r4, #18]
 215:lib_Network/network.c ****                         inData.startMsTime = recvData.Data2;
 186              		.loc 1 215 0
 187 00c4 328A     		ldrh	r2, [r6, #16]
 216:lib_Network/network.c ****                         inData.reboot = (recvData.Data3 & 0x00FF);
 217:lib_Network/network.c ****                         inData.testMode = recvData.Command;
 188              		.loc 1 217 0
 189 00c6 7668     		ldr	r6, [r6, #4]
 215:lib_Network/network.c ****                         inData.startMsTime = recvData.Data2;
 190              		.loc 1 215 0
 191 00c8 2282     		strh	r2, [r4, #16]
 216:lib_Network/network.c ****                         inData.reboot = (recvData.Data3 & 0x00FF);
 192              		.loc 1 216 0
 193 00ca 2775     		strb	r7, [r4, #20]
 194              		.loc 1 217 0
 195 00cc E674     		strb	r6, [r4, #19]
 218:lib_Network/network.c ****                         
 219:lib_Network/network.c ****                         /*if new skier on track*/
 220:lib_Network/network.c ****                         if(inData.newSkier == NEW_SKIER_IN_TARCK )
 196              		.loc 1 220 0
 197 00ce 012B     		cmp	r3, #1
 198 00d0 16D1     		bne	.L8
 221:lib_Network/network.c ****                         {
 222:lib_Network/network.c ****                             WriteStartTime(inData.unixStartTime, inData.startMsTime);
 199              		.loc 1 222 0
 200 00d2 FFF7FEFF 		bl	WriteStartTime
 201              	.LVL12:
 223:lib_Network/network.c ****                             BLE_sendOneSkierTimeStart(inData.unixStartTime, 
 202              		.loc 1 223 0
 203 00d6 A668     		ldr	r6, [r4, #8]
 204 00d8 E768     		ldr	r7, [r4, #12]
 205 00da 238A     		ldrh	r3, [r4, #16]
 206 00dc 0393     		str	r3, [sp, #12]
 224:lib_Network/network.c ****                                                         inData.startMsTime,
 225:lib_Network/network.c ****                                                         GetIDskierStarted(),
 207              		.loc 1 225 0
 208 00de FFF7FEFF 		bl	GetIDskierStarted
 209              	.LVL13:
 210 00e2 041C     		mov	r4, r0
 226:lib_Network/network.c ****                                                         SkierOnWay(),
 211              		.loc 1 226 0
 212 00e4 FFF7FEFF 		bl	SkierOnWay
 213              	.LVL14:
 223:lib_Network/network.c ****                             BLE_sendOneSkierTimeStart(inData.unixStartTime, 
 214              		.loc 1 223 0
 215 00e8 0422     		mov	r2, #4
 216 00ea C0B2     		uxtb	r0, r0
 217 00ec E3B2     		uxtb	r3, r4
ARM GAS  C:\Users\Petro\AppData\Local\Temp\ccTXtr83.s 			page 9


 218 00ee 0090     		str	r0, [sp]
 219 00f0 0192     		str	r2, [sp, #4]
 220 00f2 301C     		mov	r0, r6
 221 00f4 391C     		mov	r1, r7
 222 00f6 039A     		ldr	r2, [sp, #12]
 223 00f8 FFF7FEFF 		bl	BLE_sendOneSkierTimeStart
 224              	.LVL15:
 227:lib_Network/network.c ****                                                         MAX_SKIERS_ON_WAY);
 228:lib_Network/network.c ****                             IncrementID();
 225              		.loc 1 228 0
 226 00fc FFF7FEFF 		bl	IncrementID
 227              	.LVL16:
 228              	.L8:
 229:lib_Network/network.c ****                         }
 230:lib_Network/network.c ****                         
 231:lib_Network/network.c ****                         /*next packet*/
 232:lib_Network/network.c ****                         outData.IDpacket++;
 229              		.loc 1 232 0
 230 0100 2B78     		ldrb	r3, [r5]
 231 0102 0133     		add	r3, r3, #1
 232              	.L24:
 233 0104 2B70     		strb	r3, [r5]
 234 0106 13E0     		b	.L1
 235              	.L7:
 233:lib_Network/network.c ****                         //CyDelay(50);
 234:lib_Network/network.c ****                     }  
 235:lib_Network/network.c ****                     /* if prev packet late*/
 236:lib_Network/network.c ****                     else if(outData.IDpacket == (inData.IDpacket + 1))
 236              		.loc 1 236 0
 237 0108 0132     		add	r2, r2, #1
 238 010a 9142     		cmp	r1, r2
 239 010c 0CD1     		bne	.L9
 237:lib_Network/network.c ****                     {
 238:lib_Network/network.c ****                         inData.newSkier = recvData.Data3;
 240              		.loc 1 238 0
 241 010e 728A     		ldrh	r2, [r6, #18]
 242 0110 A274     		strb	r2, [r4, #18]
 239:lib_Network/network.c ****                         inData.unixStartTime = recvData.Data1;
 243              		.loc 1 239 0
 244 0112 B168     		ldr	r1, [r6, #8]
 245 0114 F268     		ldr	r2, [r6, #12]
 246 0116 A160     		str	r1, [r4, #8]
 247 0118 E260     		str	r2, [r4, #12]
 240:lib_Network/network.c ****                         inData.startMsTime = recvData.Data2;
 248              		.loc 1 240 0
 249 011a 328A     		ldrh	r2, [r6, #16]
 250 011c 2282     		strh	r2, [r4, #16]
 241:lib_Network/network.c ****                         
 242:lib_Network/network.c ****                         networkStatus = NETWORK_CONNECT;
 251              		.loc 1 242 0
 252 011e 0E4A     		ldr	r2, .L26+36
 253 0120 1380     		strh	r3, [r2]
 243:lib_Network/network.c ****                         noConnect = 0;
 254              		.loc 1 243 0
 255 0122 0F4B     		ldr	r3, .L26+44
 256 0124 1F80     		strh	r7, [r3]
 257 0126 03E0     		b	.L1
ARM GAS  C:\Users\Petro\AppData\Local\Temp\ccTXtr83.s 			page 10


 258              	.L9:
 244:lib_Network/network.c ****                         //CyDelay(50);
 245:lib_Network/network.c ****                     }
 246:lib_Network/network.c ****                     else
 247:lib_Network/network.c ****                     {
 248:lib_Network/network.c ****                         /*network quality*/
 249:lib_Network/network.c ****                         buffNetworkQualyty = (buffNetworkQualyty << 1);
 259              		.loc 1 249 0
 260 0128 0C4A     		ldr	r2, .L26+40
 261 012a 1378     		ldrb	r3, [r2]
 262 012c 5B00     		lsl	r3, r3, #1
 263 012e 1370     		strb	r3, [r2]
 264              	.L1:
 250:lib_Network/network.c ****                     }
 251:lib_Network/network.c ****                 }
 252:lib_Network/network.c ****             }
 253:lib_Network/network.c ****         }
 254:lib_Network/network.c ****     }  
 255:lib_Network/network.c **** }
 265              		.loc 1 255 0
 266 0130 05B0     		add	sp, sp, #20
 267              		@ sp needed
 268 0132 F0BD     		pop	{r4, r5, r6, r7, pc}
 269              	.L27:
 270              		.align	2
 271              	.L26:
 272 0134 00000000 		.word	.LANCHOR0
 273 0138 00000000 		.word	ntpFlagReadyForReceive
 274 013c 00000000 		.word	recvDataNTP
 275 0140 00000000 		.word	unixTime
 276 0144 00000000 		.word	millisTime
 277 0148 00000000 		.word	ntpFlagEndReceivePacket
 278 014c 00000000 		.word	inData
 279 0150 00000000 		.word	outData
 280 0154 00000000 		.word	recvData
 281 0158 00000000 		.word	networkStatus
 282 015c 00000000 		.word	buffNetworkQualyty
 283 0160 00000000 		.word	noConnect
 284              		.cfi_endproc
 285              	.LFE65:
 286              		.size	CustomInterruptHandler, .-CustomInterruptHandler
 287              		.section	.text.CallBackNetworkCounter,"ax",%progbits
 288              		.align	1
 289              		.global	CallBackNetworkCounter
 290              		.code	16
 291              		.thumb_func
 292              		.type	CallBackNetworkCounter, %function
 293              	CallBackNetworkCounter:
 294              	.LFB63:
 113:lib_Network/network.c ****     if(++networkNumTruCounter == NETWORK_TIMEOUT_WDT)
 295              		.loc 1 113 0
 296              		.cfi_startproc
 114:lib_Network/network.c ****     {
 297              		.loc 1 114 0
 298 0000 064A     		ldr	r2, .L30
 299 0002 5378     		ldrb	r3, [r2, #1]
 300 0004 0133     		add	r3, r3, #1
ARM GAS  C:\Users\Petro\AppData\Local\Temp\ccTXtr83.s 			page 11


 301 0006 DBB2     		uxtb	r3, r3
 302 0008 5370     		strb	r3, [r2, #1]
 303 000a 032B     		cmp	r3, #3
 304 000c 05D1     		bne	.L28
 305              	.LBB4:
 306              	.LBB5:
 116:lib_Network/network.c ****         outData.writeStatus = NO_WRITE;
 307              		.loc 1 116 0
 308 000e 0023     		mov	r3, #0
 309 0010 0349     		ldr	r1, .L30+4
 118:lib_Network/network.c ****     } 
 310              		.loc 1 118 0
 311 0012 5370     		strb	r3, [r2, #1]
 116:lib_Network/network.c ****         outData.writeStatus = NO_WRITE;
 312              		.loc 1 116 0
 313 0014 0B80     		strh	r3, [r1]
 117:lib_Network/network.c ****         networkNumTruCounter = 0;
 314              		.loc 1 117 0
 315 0016 0349     		ldr	r1, .L30+8
 316 0018 8B74     		strb	r3, [r1, #18]
 317              	.L28:
 318              	.LBE5:
 319              	.LBE4:
 120:lib_Network/network.c **** 
 320              		.loc 1 120 0
 321              		@ sp needed
 322 001a 7047     		bx	lr
 323              	.L31:
 324              		.align	2
 325              	.L30:
 326 001c 00000000 		.word	.LANCHOR0
 327 0020 00000000 		.word	networkStatus
 328 0024 00000000 		.word	outData
 329              		.cfi_endproc
 330              	.LFE63:
 331              		.size	CallBackNetworkCounter, .-CallBackNetworkCounter
 332              		.section	.text.InitNetwork,"ax",%progbits
 333              		.align	1
 334              		.global	InitNetwork
 335              		.code	16
 336              		.thumb_func
 337              		.type	InitNetwork, %function
 338              	InitNetwork:
 339              	.LFB64:
 131:lib_Network/network.c ****     UART_XB_Start();
 340              		.loc 1 131 0
 341              		.cfi_startproc
 342 0000 08B5     		push	{r3, lr}
 343              		.cfi_def_cfa_offset 8
 344              		.cfi_offset 3, -8
 345              		.cfi_offset 14, -4
 132:lib_Network/network.c ****     UART_XB_SetCustomInterruptHandler(&CustomInterruptHandler);
 346              		.loc 1 132 0
 347 0002 FFF7FEFF 		bl	UART_XB_Start
 348              	.LVL17:
 133:lib_Network/network.c ****     
 349              		.loc 1 133 0
ARM GAS  C:\Users\Petro\AppData\Local\Temp\ccTXtr83.s 			page 12


 350 0006 0948     		ldr	r0, .L33
 351 0008 FFF7FEFF 		bl	UART_XB_SetCustomInterruptHandler
 352              	.LVL18:
 137:lib_Network/network.c ****     
 353              		.loc 1 137 0
 354 000c 0849     		ldr	r1, .L33+4
 355 000e 0120     		mov	r0, #1
 356 0010 FFF7FEFF 		bl	CySysWdtSetInterruptCallback
 357              	.LVL19:
 144:lib_Network/network.c ****     outData.writeStatus = NO_WRITE;
 358              		.loc 1 144 0
 359 0014 0122     		mov	r2, #1
 360 0016 074B     		ldr	r3, .L33+8
 149:lib_Network/network.c **** 
 361              		.loc 1 149 0
 362              		@ sp needed
 144:lib_Network/network.c ****     outData.writeStatus = NO_WRITE;
 363              		.loc 1 144 0
 364 0018 5A75     		strb	r2, [r3, #21]
 145:lib_Network/network.c ****     UART_XB_SpiUartClearRxBuffer();
 365              		.loc 1 145 0
 366 001a 0022     		mov	r2, #0
 367 001c 064B     		ldr	r3, .L33+12
 368 001e 9A74     		strb	r2, [r3, #18]
 146:lib_Network/network.c ****     
 369              		.loc 1 146 0
 370 0020 FFF7FEFF 		bl	UART_XB_SpiUartClearRxBuffer
 371              	.LVL20:
 148:lib_Network/network.c **** }
 372              		.loc 1 148 0
 373 0024 FF22     		mov	r2, #255
 374 0026 054B     		ldr	r3, .L33+16
 375 0028 1A70     		strb	r2, [r3]
 149:lib_Network/network.c **** 
 376              		.loc 1 149 0
 377 002a 08BD     		pop	{r3, pc}
 378              	.L34:
 379              		.align	2
 380              	.L33:
 381 002c 00000000 		.word	CustomInterruptHandler
 382 0030 00000000 		.word	CallBackNetworkCounter
 383 0034 00000000 		.word	inData
 384 0038 00000000 		.word	outData
 385 003c 00000000 		.word	rebootFlag
 386              		.cfi_endproc
 387              	.LFE64:
 388              		.size	InitNetwork, .-InitNetwork
 389              		.section	.text.SendData,"ax",%progbits
 390              		.align	1
 391              		.global	SendData
 392              		.code	16
 393              		.thumb_func
 394              		.type	SendData, %function
 395              	SendData:
 396              	.LFB66:
 256:lib_Network/network.c **** 
 257:lib_Network/network.c **** 
ARM GAS  C:\Users\Petro\AppData\Local\Temp\ccTXtr83.s 			page 13


 258:lib_Network/network.c **** /*******************************************************************************
 259:lib_Network/network.c **** * Function Name: SendData
 260:lib_Network/network.c **** ********************************************************************************
 261:lib_Network/network.c **** *
 262:lib_Network/network.c **** * Summary:
 263:lib_Network/network.c **** *   send data to start from struct "outData"
 264:lib_Network/network.c **** *
 265:lib_Network/network.c **** *******************************************************************************/
 266:lib_Network/network.c **** void SendData(void)
 267:lib_Network/network.c **** {   
 397              		.loc 1 267 0
 398              		.cfi_startproc
 399 0000 70B5     		push	{r4, r5, r6, lr}
 400              		.cfi_def_cfa_offset 16
 401              		.cfi_offset 4, -16
 402              		.cfi_offset 5, -12
 403              		.cfi_offset 6, -8
 404              		.cfi_offset 14, -4
 268:lib_Network/network.c ****     if( outData.writeStatus == NO_WRITE || inData.readStatus == READ_OK)
 405              		.loc 1 268 0
 406 0002 164C     		ldr	r4, .L41
 267:lib_Network/network.c ****     if( outData.writeStatus == NO_WRITE || inData.readStatus == READ_OK)
 407              		.loc 1 267 0
 408 0004 9EB0     		sub	sp, sp, #120
 409              		.cfi_def_cfa_offset 136
 410              		.loc 1 268 0
 411 0006 A37C     		ldrb	r3, [r4, #18]
 412 0008 154D     		ldr	r5, .L41+4
 413 000a 002B     		cmp	r3, #0
 414 000c 02D0     		beq	.L36
 415              		.loc 1 268 0 is_stmt 0 discriminator 1
 416 000e 6B7D     		ldrb	r3, [r5, #21]
 417 0010 012B     		cmp	r3, #1
 418 0012 21D1     		bne	.L35
 419              	.L36:
 420              	.LBB6:
 269:lib_Network/network.c ****     {
 270:lib_Network/network.c ****         char sendBuffer[DATA_BUFFER];
 271:lib_Network/network.c ****         char sendData[DATA_BUFFER];
 272:lib_Network/network.c ****         
 273:lib_Network/network.c ****         outData.countSkiers = SkierOnWay();
 421              		.loc 1 273 0 is_stmt 1
 422 0014 FFF7FEFF 		bl	SkierOnWay
 423              	.LVL21:
 274:lib_Network/network.c ****         
 275:lib_Network/network.c ****         /*pack data*/
 276:lib_Network/network.c ****         sprintf(sendData,"%02X:%016X%02X%02X%02X%02X", outData.testMode, 0u, outData.ready, outData
 424              		.loc 1 276 0
 425 0018 0026     		mov	r6, #0
 426 001a 6378     		ldrb	r3, [r4, #1]
 273:lib_Network/network.c ****         
 427              		.loc 1 273 0
 428 001c E070     		strb	r0, [r4, #3]
 429              		.loc 1 276 0
 430 001e 2279     		ldrb	r2, [r4, #4]
 431 0020 0093     		str	r3, [sp]
 432 0022 A378     		ldrb	r3, [r4, #2]
ARM GAS  C:\Users\Petro\AppData\Local\Temp\ccTXtr83.s 			page 14


 433 0024 C0B2     		uxtb	r0, r0
 434 0026 0193     		str	r3, [sp, #4]
 435 0028 0290     		str	r0, [sp, #8]
 436 002a 331C     		mov	r3, r6
 437 002c 0D49     		ldr	r1, .L41+8
 438 002e 0396     		str	r6, [sp, #12]
 439 0030 11A8     		add	r0, sp, #68
 440 0032 FFF7FEFF 		bl	sprintf
 441              	.LVL22:
 277:lib_Network/network.c ****                                                         outData.countSkiers, 0u);    
 278:lib_Network/network.c ****         PackData(sendBuffer, (uint8_t *)sendData, outData.IDpacket);
 442              		.loc 1 278 0
 443 0036 2278     		ldrb	r2, [r4]
 444 0038 11A9     		add	r1, sp, #68
 445 003a 04A8     		add	r0, sp, #16
 446 003c FFF7FEFF 		bl	PackData
 447              	.LVL23:
 279:lib_Network/network.c ****         UART_XB_UartPutString(sendBuffer);
 448              		.loc 1 279 0
 449 0040 04A8     		add	r0, sp, #16
 450 0042 FFF7FEFF 		bl	UART_XB_UartPutString
 451              	.LVL24:
 280:lib_Network/network.c ****         UART_XB_UartPutChar('0');
 452              		.loc 1 280 0
 453 0046 3020     		mov	r0, #48
 454 0048 FFF7FEFF 		bl	UART_XB_SpiUartWriteTxData
 455              	.LVL25:
 281:lib_Network/network.c ****         
 282:lib_Network/network.c ****         
 283:lib_Network/network.c ****         /*flag transmit data*/
 284:lib_Network/network.c ****         outData.writeStatus = WRITE_OK;
 456              		.loc 1 284 0
 457 004c 0123     		mov	r3, #1
 285:lib_Network/network.c ****         inData.readStatus = NO_READ;
 286:lib_Network/network.c ****         
 287:lib_Network/network.c ****          CyDelay(50);
 458              		.loc 1 287 0
 459 004e 3220     		mov	r0, #50
 284:lib_Network/network.c ****         inData.readStatus = NO_READ;
 460              		.loc 1 284 0
 461 0050 A374     		strb	r3, [r4, #18]
 285:lib_Network/network.c ****         inData.readStatus = NO_READ;
 462              		.loc 1 285 0
 463 0052 6E75     		strb	r6, [r5, #21]
 464              		.loc 1 287 0
 465 0054 FFF7FEFF 		bl	CyDelay
 466              	.LVL26:
 467              	.L35:
 468              	.LBE6:
 288:lib_Network/network.c ****     }
 289:lib_Network/network.c **** }
 469              		.loc 1 289 0
 470 0058 1EB0     		add	sp, sp, #120
 471              		@ sp needed
 472 005a 70BD     		pop	{r4, r5, r6, pc}
 473              	.L42:
 474              		.align	2
ARM GAS  C:\Users\Petro\AppData\Local\Temp\ccTXtr83.s 			page 15


 475              	.L41:
 476 005c 00000000 		.word	outData
 477 0060 00000000 		.word	inData
 478 0064 00000000 		.word	.LC22
 479              		.cfi_endproc
 480              	.LFE66:
 481              		.size	SendData, .-SendData
 482              		.section	.text.SendFinStatus,"ax",%progbits
 483              		.align	1
 484              		.global	SendFinStatus
 485              		.code	16
 486              		.thumb_func
 487              		.type	SendFinStatus, %function
 488              	SendFinStatus:
 489              	.LFB67:
 290:lib_Network/network.c **** 
 291:lib_Network/network.c **** 
 292:lib_Network/network.c **** /*******************************************************************************
 293:lib_Network/network.c **** * Function Name: SendFinStatus
 294:lib_Network/network.c **** ********************************************************************************
 295:lib_Network/network.c **** *
 296:lib_Network/network.c **** * Summary:
 297:lib_Network/network.c **** *   set fin status
 298:lib_Network/network.c **** * Parametrs:
 299:lib_Network/network.c **** *   FIN_READY or FIN_NO_READY
 300:lib_Network/network.c **** *
 301:lib_Network/network.c **** *******************************************************************************/
 302:lib_Network/network.c **** void SendFinStatus(uint32_t status)
 303:lib_Network/network.c **** {
 490              		.loc 1 303 0
 491              		.cfi_startproc
 492              	.LVL27:
 304:lib_Network/network.c ****     outData.ready = status;
 493              		.loc 1 304 0
 494 0000 014B     		ldr	r3, .L44
 305:lib_Network/network.c **** }
 495              		.loc 1 305 0
 496              		@ sp needed
 304:lib_Network/network.c ****     outData.ready = status;
 497              		.loc 1 304 0
 498 0002 5870     		strb	r0, [r3, #1]
 499              		.loc 1 305 0
 500 0004 7047     		bx	lr
 501              	.L45:
 502 0006 C046     		.align	2
 503              	.L44:
 504 0008 00000000 		.word	outData
 505              		.cfi_endproc
 506              	.LFE67:
 507              		.size	SendFinStatus, .-SendFinStatus
 508              		.section	.text.NetworkStatus,"ax",%progbits
 509              		.align	1
 510              		.global	NetworkStatus
 511              		.code	16
 512              		.thumb_func
 513              		.type	NetworkStatus, %function
 514              	NetworkStatus:
ARM GAS  C:\Users\Petro\AppData\Local\Temp\ccTXtr83.s 			page 16


 515              	.LFB68:
 306:lib_Network/network.c **** 
 307:lib_Network/network.c **** /*******************************************************************************
 308:lib_Network/network.c **** * Function Name: NetworkStatus
 309:lib_Network/network.c **** ********************************************************************************
 310:lib_Network/network.c **** *
 311:lib_Network/network.c **** * Summary:
 312:lib_Network/network.c **** *   read network status
 313:lib_Network/network.c **** * Return:
 314:lib_Network/network.c **** *   NETWORK_CONNECT or NETWORK_DISCONNECT
 315:lib_Network/network.c **** *
 316:lib_Network/network.c **** *******************************************************************************/
 317:lib_Network/network.c **** uint32_t NetworkStatus(void)
 318:lib_Network/network.c **** {
 516              		.loc 1 318 0
 517              		.cfi_startproc
 319:lib_Network/network.c ****     return networkStatus;
 518              		.loc 1 319 0
 519 0000 014B     		ldr	r3, .L47
 320:lib_Network/network.c **** }
 520              		.loc 1 320 0
 521              		@ sp needed
 319:lib_Network/network.c ****     return networkStatus;
 522              		.loc 1 319 0
 523 0002 1888     		ldrh	r0, [r3]
 524              		.loc 1 320 0
 525 0004 7047     		bx	lr
 526              	.L48:
 527 0006 C046     		.align	2
 528              	.L47:
 529 0008 00000000 		.word	networkStatus
 530              		.cfi_endproc
 531              	.LFE68:
 532              		.size	NetworkStatus, .-NetworkStatus
 533              		.section	.text.IsRebootStartFlag,"ax",%progbits
 534              		.align	1
 535              		.global	IsRebootStartFlag
 536              		.code	16
 537              		.thumb_func
 538              		.type	IsRebootStartFlag, %function
 539              	IsRebootStartFlag:
 540              	.LFB69:
 321:lib_Network/network.c **** 
 322:lib_Network/network.c **** /*******************************************************************************
 323:lib_Network/network.c **** * Function Name: ReadRebootStartFlag
 324:lib_Network/network.c **** ********************************************************************************
 325:lib_Network/network.c **** *
 326:lib_Network/network.c **** * Summary:
 327:lib_Network/network.c **** *   read reboot flag from start
 328:lib_Network/network.c **** * Return:
 329:lib_Network/network.c **** *   REBOOT or NO_REBOOT
 330:lib_Network/network.c **** *
 331:lib_Network/network.c **** *******************************************************************************/
 332:lib_Network/network.c **** uint32_t IsRebootStartFlag(void)
 333:lib_Network/network.c **** {
 541              		.loc 1 333 0
 542              		.cfi_startproc
ARM GAS  C:\Users\Petro\AppData\Local\Temp\ccTXtr83.s 			page 17


 334:lib_Network/network.c ****     uint32_t result;
 335:lib_Network/network.c ****     
 336:lib_Network/network.c ****     if((inData.reboot == 1 && outData.reboot == 0) || (rebootFlag == REBOOT))
 543              		.loc 1 336 0
 544 0000 0A4B     		ldr	r3, .L57
 545 0002 1A7D     		ldrb	r2, [r3, #20]
 546 0004 012A     		cmp	r2, #1
 547 0006 03D1     		bne	.L50
 548              		.loc 1 336 0 is_stmt 0 discriminator 1
 549 0008 094A     		ldr	r2, .L57+4
 550 000a 9278     		ldrb	r2, [r2, #2]
 551 000c 002A     		cmp	r2, #0
 552 000e 03D0     		beq	.L51
 553              	.L50:
 554              		.loc 1 336 0 discriminator 3
 555 0010 084A     		ldr	r2, .L57+8
 556 0012 1278     		ldrb	r2, [r2]
 557 0014 FF2A     		cmp	r2, #255
 558 0016 03D1     		bne	.L52
 559              	.L51:
 560              	.LVL28:
 337:lib_Network/network.c ****     {
 338:lib_Network/network.c ****         result = REBOOT;
 339:lib_Network/network.c ****         inData.reboot = 0;
 561              		.loc 1 339 0 is_stmt 1
 562 0018 0022     		mov	r2, #0
 338:lib_Network/network.c ****         inData.reboot = 0;
 563              		.loc 1 338 0
 564 001a FF20     		mov	r0, #255
 565              		.loc 1 339 0
 566 001c 1A75     		strb	r2, [r3, #20]
 567 001e 04E0     		b	.L53
 568              	.LVL29:
 569              	.L52:
 340:lib_Network/network.c ****     }
 341:lib_Network/network.c ****     else 
 342:lib_Network/network.c ****     {
 343:lib_Network/network.c ****         outData.reboot = 0;
 570              		.loc 1 343 0
 571 0020 0022     		mov	r2, #0
 344:lib_Network/network.c ****         inData.reboot = 0;
 345:lib_Network/network.c ****         result = NO_REBOOT;
 572              		.loc 1 345 0
 573 0022 FE20     		mov	r0, #254
 343:lib_Network/network.c ****         inData.reboot = 0;
 574              		.loc 1 343 0
 575 0024 0249     		ldr	r1, .L57+4
 344:lib_Network/network.c ****         inData.reboot = 0;
 576              		.loc 1 344 0
 577 0026 1A75     		strb	r2, [r3, #20]
 578              	.LVL30:
 343:lib_Network/network.c ****         inData.reboot = 0;
 579              		.loc 1 343 0
 580 0028 8A70     		strb	r2, [r1, #2]
 581              	.LVL31:
 582              	.L53:
 346:lib_Network/network.c ****     }
ARM GAS  C:\Users\Petro\AppData\Local\Temp\ccTXtr83.s 			page 18


 347:lib_Network/network.c ****     return result;
 348:lib_Network/network.c **** }
 583              		.loc 1 348 0
 584              		@ sp needed
 585 002a 7047     		bx	lr
 586              	.L58:
 587              		.align	2
 588              	.L57:
 589 002c 00000000 		.word	inData
 590 0030 00000000 		.word	outData
 591 0034 00000000 		.word	rebootFlag
 592              		.cfi_endproc
 593              	.LFE69:
 594              		.size	IsRebootStartFlag, .-IsRebootStartFlag
 595              		.section	.text.ClearRebootFlag,"ax",%progbits
 596              		.align	1
 597              		.global	ClearRebootFlag
 598              		.code	16
 599              		.thumb_func
 600              		.type	ClearRebootFlag, %function
 601              	ClearRebootFlag:
 602              	.LFB70:
 349:lib_Network/network.c **** 
 350:lib_Network/network.c **** void ClearRebootFlag(void)
 351:lib_Network/network.c **** {
 603              		.loc 1 351 0
 604              		.cfi_startproc
 352:lib_Network/network.c ****     outData.reboot = 0;
 605              		.loc 1 352 0
 606 0000 0023     		mov	r3, #0
 607 0002 044A     		ldr	r2, .L60
 353:lib_Network/network.c ****     inData.reboot = 0;
 354:lib_Network/network.c ****     rebootFlag = NO_REBOOT;
 355:lib_Network/network.c **** }
 608              		.loc 1 355 0
 609              		@ sp needed
 352:lib_Network/network.c ****     outData.reboot = 0;
 610              		.loc 1 352 0
 611 0004 9370     		strb	r3, [r2, #2]
 353:lib_Network/network.c ****     inData.reboot = 0;
 612              		.loc 1 353 0
 613 0006 044A     		ldr	r2, .L60+4
 614 0008 1375     		strb	r3, [r2, #20]
 354:lib_Network/network.c **** }
 615              		.loc 1 354 0
 616 000a FE22     		mov	r2, #254
 617 000c 034B     		ldr	r3, .L60+8
 618 000e 1A70     		strb	r2, [r3]
 619              		.loc 1 355 0
 620 0010 7047     		bx	lr
 621              	.L61:
 622 0012 C046     		.align	2
 623              	.L60:
 624 0014 00000000 		.word	outData
 625 0018 00000000 		.word	inData
 626 001c 00000000 		.word	rebootFlag
 627              		.cfi_endproc
ARM GAS  C:\Users\Petro\AppData\Local\Temp\ccTXtr83.s 			page 19


 628              	.LFE70:
 629              		.size	ClearRebootFlag, .-ClearRebootFlag
 630              		.section	.text.SetRebootFlag,"ax",%progbits
 631              		.align	1
 632              		.global	SetRebootFlag
 633              		.code	16
 634              		.thumb_func
 635              		.type	SetRebootFlag, %function
 636              	SetRebootFlag:
 637              	.LFB71:
 356:lib_Network/network.c **** 
 357:lib_Network/network.c **** /*******************************************************************************
 358:lib_Network/network.c **** * Function Name: WriteRebootFlag
 359:lib_Network/network.c **** ********************************************************************************
 360:lib_Network/network.c **** *
 361:lib_Network/network.c **** * Summary:
 362:lib_Network/network.c **** *   write reboot flag to start
 363:lib_Network/network.c **** *
 364:lib_Network/network.c **** *******************************************************************************/
 365:lib_Network/network.c **** void SetRebootFlag(void)
 366:lib_Network/network.c **** {
 638              		.loc 1 366 0
 639              		.cfi_startproc
 367:lib_Network/network.c ****     outData.reboot = 1;
 640              		.loc 1 367 0
 641 0000 0122     		mov	r2, #1
 642 0002 044B     		ldr	r3, .L63
 368:lib_Network/network.c ****     inData.reboot = 0;
 369:lib_Network/network.c ****     rebootFlag = REBOOT;
 370:lib_Network/network.c **** }
 643              		.loc 1 370 0
 644              		@ sp needed
 367:lib_Network/network.c ****     outData.reboot = 1;
 645              		.loc 1 367 0
 646 0004 9A70     		strb	r2, [r3, #2]
 368:lib_Network/network.c ****     inData.reboot = 0;
 647              		.loc 1 368 0
 648 0006 0022     		mov	r2, #0
 649 0008 034B     		ldr	r3, .L63+4
 650 000a 1A75     		strb	r2, [r3, #20]
 369:lib_Network/network.c **** }
 651              		.loc 1 369 0
 652 000c 034B     		ldr	r3, .L63+8
 653 000e FF32     		add	r2, r2, #255
 654 0010 1A70     		strb	r2, [r3]
 655              		.loc 1 370 0
 656 0012 7047     		bx	lr
 657              	.L64:
 658              		.align	2
 659              	.L63:
 660 0014 00000000 		.word	outData
 661 0018 00000000 		.word	inData
 662 001c 00000000 		.word	rebootFlag
 663              		.cfi_endproc
 664              	.LFE71:
 665              		.size	SetRebootFlag, .-SetRebootFlag
 666              		.section	.text.NetworkReadTestModeStatus,"ax",%progbits
ARM GAS  C:\Users\Petro\AppData\Local\Temp\ccTXtr83.s 			page 20


 667              		.align	1
 668              		.global	NetworkReadTestModeStatus
 669              		.code	16
 670              		.thumb_func
 671              		.type	NetworkReadTestModeStatus, %function
 672              	NetworkReadTestModeStatus:
 673              	.LFB72:
 371:lib_Network/network.c **** 
 372:lib_Network/network.c **** /*******************************************************************************
 373:lib_Network/network.c **** * Function Name: NetworkReadTestModeStatus
 374:lib_Network/network.c **** ********************************************************************************
 375:lib_Network/network.c **** *
 376:lib_Network/network.c **** * Summary:
 377:lib_Network/network.c **** *   reading adopted flag test mode
 378:lib_Network/network.c **** *
 379:lib_Network/network.c **** * Returns:
 380:lib_Network/network.c **** *   testMode status
 381:lib_Network/network.c **** *******************************************************************************/
 382:lib_Network/network.c **** uint8_t NetworkReadTestModeStatus()
 383:lib_Network/network.c **** {
 674              		.loc 1 383 0
 675              		.cfi_startproc
 384:lib_Network/network.c ****     return inData.testMode;
 676              		.loc 1 384 0
 677 0000 014B     		ldr	r3, .L66
 385:lib_Network/network.c **** }
 678              		.loc 1 385 0
 679              		@ sp needed
 384:lib_Network/network.c ****     return inData.testMode;
 680              		.loc 1 384 0
 681 0002 D87C     		ldrb	r0, [r3, #19]
 682              		.loc 1 385 0
 683 0004 7047     		bx	lr
 684              	.L67:
 685 0006 C046     		.align	2
 686              	.L66:
 687 0008 00000000 		.word	inData
 688              		.cfi_endproc
 689              	.LFE72:
 690              		.size	NetworkReadTestModeStatus, .-NetworkReadTestModeStatus
 691              		.section	.text.NetworkSendTestModeStatus,"ax",%progbits
 692              		.align	1
 693              		.global	NetworkSendTestModeStatus
 694              		.code	16
 695              		.thumb_func
 696              		.type	NetworkSendTestModeStatus, %function
 697              	NetworkSendTestModeStatus:
 698              	.LFB73:
 386:lib_Network/network.c **** 
 387:lib_Network/network.c **** /*******************************************************************************
 388:lib_Network/network.c **** * Function Name: NetworkSendTestModeStatus
 389:lib_Network/network.c **** ********************************************************************************
 390:lib_Network/network.c **** *
 391:lib_Network/network.c **** * Summary:
 392:lib_Network/network.c **** *   exhibiting a test mode for future shipping
 393:lib_Network/network.c **** *
 394:lib_Network/network.c **** * Parametrs:
ARM GAS  C:\Users\Petro\AppData\Local\Temp\ccTXtr83.s 			page 21


 395:lib_Network/network.c **** *   0 - test mode stopped
 396:lib_Network/network.c **** *   1 - test mode started
 397:lib_Network/network.c **** *******************************************************************************/
 398:lib_Network/network.c **** void NetworkSendTestModeStatus(uint8_t testMode)
 399:lib_Network/network.c **** {
 699              		.loc 1 399 0
 700              		.cfi_startproc
 701              	.LVL32:
 702 0000 034B     		ldr	r3, .L71
 400:lib_Network/network.c ****     if(testMode > 0)
 703              		.loc 1 400 0
 704 0002 0028     		cmp	r0, #0
 705 0004 02D0     		beq	.L69
 401:lib_Network/network.c ****     {
 402:lib_Network/network.c ****         outData.testMode = 1;
 706              		.loc 1 402 0
 707 0006 0122     		mov	r2, #1
 708 0008 1A71     		strb	r2, [r3, #4]
 709 000a 00E0     		b	.L68
 710              	.L69:
 403:lib_Network/network.c ****     }
 404:lib_Network/network.c ****     else
 405:lib_Network/network.c ****     {
 406:lib_Network/network.c ****         outData.testMode = 0;
 711              		.loc 1 406 0
 712 000c 1871     		strb	r0, [r3, #4]
 713              	.L68:
 407:lib_Network/network.c ****     }
 408:lib_Network/network.c **** }
 714              		.loc 1 408 0
 715              		@ sp needed
 716 000e 7047     		bx	lr
 717              	.L72:
 718              		.align	2
 719              	.L71:
 720 0010 00000000 		.word	outData
 721              		.cfi_endproc
 722              	.LFE73:
 723              		.size	NetworkSendTestModeStatus, .-NetworkSendTestModeStatus
 724              		.section	.text.NetworkQuality,"ax",%progbits
 725              		.align	1
 726              		.global	NetworkQuality
 727              		.code	16
 728              		.thumb_func
 729              		.type	NetworkQuality, %function
 730              	NetworkQuality:
 731              	.LFB74:
 409:lib_Network/network.c **** 
 410:lib_Network/network.c **** /*******************************************************************************
 411:lib_Network/network.c **** * Function Name: NetworkQuality
 412:lib_Network/network.c **** ********************************************************************************
 413:lib_Network/network.c **** *
 414:lib_Network/network.c **** * Summary:
 415:lib_Network/network.c **** *   return network quality 
 416:lib_Network/network.c **** *   return value 0..5
 417:lib_Network/network.c **** *******************************************************************************/
 418:lib_Network/network.c **** #ifdef	START_MODULE
ARM GAS  C:\Users\Petro\AppData\Local\Temp\ccTXtr83.s 			page 22


 419:lib_Network/network.c **** #endif
 420:lib_Network/network.c **** #ifdef	FINISH_MODULE
 421:lib_Network/network.c **** uint8_t NetworkQuality(void)
 422:lib_Network/network.c **** {
 732              		.loc 1 422 0
 733              		.cfi_startproc
 734              	.LVL33:
 423:lib_Network/network.c ****     uint8_t i;
 424:lib_Network/network.c ****     uint8_t quality = 0;
 425:lib_Network/network.c ****         
 426:lib_Network/network.c ****     for(i=0; i<5; i++)
 427:lib_Network/network.c ****     {
 428:lib_Network/network.c ****         quality += (buffNetworkQualyty & (1<<i))>>i;
 735              		.loc 1 428 0
 736 0000 0022     		mov	r2, #0
 424:lib_Network/network.c ****         
 737              		.loc 1 424 0
 738 0002 101C     		mov	r0, r2
 739              		.loc 1 428 0
 740 0004 054B     		ldr	r3, .L75
 741 0006 1978     		ldrb	r1, [r3]
 742              	.LVL34:
 743              	.L74:
 744              		.loc 1 428 0 is_stmt 0 discriminator 3
 745 0008 0123     		mov	r3, #1
 746 000a 9340     		lsl	r3, r3, r2
 747 000c 0B40     		and	r3, r1
 748 000e 1341     		asr	r3, r3, r2
 749 0010 0132     		add	r2, r2, #1
 750              	.LVL35:
 751 0012 C018     		add	r0, r0, r3
 752              	.LVL36:
 753 0014 C0B2     		uxtb	r0, r0
 754              	.LVL37:
 426:lib_Network/network.c ****     {
 755              		.loc 1 426 0 is_stmt 1 discriminator 3
 756 0016 052A     		cmp	r2, #5
 757 0018 F6D1     		bne	.L74
 429:lib_Network/network.c ****     }
 430:lib_Network/network.c ****     
 431:lib_Network/network.c ****     return quality;
 432:lib_Network/network.c **** }
 758              		.loc 1 432 0
 759              		@ sp needed
 760 001a 7047     		bx	lr
 761              	.L76:
 762              		.align	2
 763              	.L75:
 764 001c 00000000 		.word	buffNetworkQualyty
 765              		.cfi_endproc
 766              	.LFE74:
 767              		.size	NetworkQuality, .-NetworkQuality
 768              		.section	.text.NTPsendTime,"ax",%progbits
 769              		.align	1
 770              		.global	NTPsendTime
 771              		.code	16
 772              		.thumb_func
ARM GAS  C:\Users\Petro\AppData\Local\Temp\ccTXtr83.s 			page 23


 773              		.type	NTPsendTime, %function
 774              	NTPsendTime:
 775              	.LFB76:
 433:lib_Network/network.c **** #endif
 434:lib_Network/network.c **** 
 435:lib_Network/network.c **** /*******************************************************************************
 436:lib_Network/network.c **** * Function Name: NTPsync
 437:lib_Network/network.c **** ********************************************************************************
 438:lib_Network/network.c **** *
 439:lib_Network/network.c **** * Summary:
 440:lib_Network/network.c **** *   NTP time synchronization protocol on
 441:lib_Network/network.c **** * Return:
 442:lib_Network/network.c **** *   TIME_SYNC_OK or TIME_SYNC_ERR
 443:lib_Network/network.c **** *
 444:lib_Network/network.c **** *******************************************************************************/
 445:lib_Network/network.c **** uint32_t NTPsync(void)
 446:lib_Network/network.c **** {
 447:lib_Network/network.c ****     uint16_t result;
 448:lib_Network/network.c ****     uint16_t IDpacket;
 449:lib_Network/network.c ****     UART_XB_SpiUartClearRxBuffer();
 450:lib_Network/network.c ****     
 451:lib_Network/network.c ****     /*----------------------------------------------------------
 452:lib_Network/network.c ****     send real unix time
 453:lib_Network/network.c ****     ----------------------------------------------------------*/
 454:lib_Network/network.c ****     uint16_t delayReceivePacket ;
 455:lib_Network/network.c ****     uint16_t numAttemptSendPacket = NTP_CONNECT_ATTEMPS;
 456:lib_Network/network.c ****     result = ERROR;
 457:lib_Network/network.c ****     ntpFlagReadyForReceive = 1;
 458:lib_Network/network.c ****     onNtpSync = 1;
 459:lib_Network/network.c ****     
 460:lib_Network/network.c ****     while(numAttemptSendPacket && result != OK)
 461:lib_Network/network.c ****     {
 462:lib_Network/network.c ****         IDpacket = 1;
 463:lib_Network/network.c ****         unixTime[T1] = RTCGetUnixTime();
 464:lib_Network/network.c ****         millisTime[T1] = RTCgetRecentMs();
 465:lib_Network/network.c ****         #ifdef DEBUGNTP
 466:lib_Network/network.c ****             pinDebugNtp_Write(1);
 467:lib_Network/network.c ****             pinDebugNtp_Write(0);
 468:lib_Network/network.c ****             pinDebugNtp_Write(1);
 469:lib_Network/network.c ****             pinDebugNtp_Write(0);
 470:lib_Network/network.c ****         #endif 
 471:lib_Network/network.c ****         
 472:lib_Network/network.c ****         NTPsendTime(unixTime[T1], millisTime[T1], IDpacket);
 473:lib_Network/network.c ****         
 474:lib_Network/network.c ****         delayReceivePacket = NTP_DELAY_RECEIVED_PACKET;
 475:lib_Network/network.c ****         uint32_t oldUnixTime = RTCGetUnixTime();
 476:lib_Network/network.c ****         delayReceivePacket += RTCgetRecentMs();
 477:lib_Network/network.c ****         
 478:lib_Network/network.c ****         #ifdef DEBUG_INFO
 479:lib_Network/network.c **** //                DEBUG_UART_UartPutString("send new packet\n\r");
 480:lib_Network/network.c ****         #endif
 481:lib_Network/network.c ****         
 482:lib_Network/network.c ****         while((RTCgetRecentMs() < delayReceivePacket) && (result != OK))
 483:lib_Network/network.c ****         {
 484:lib_Network/network.c ****             if(ntpFlagEndReceivePacket)
 485:lib_Network/network.c ****             {
 486:lib_Network/network.c ****                 ntpFlagEndReceivePacket = 0;
ARM GAS  C:\Users\Petro\AppData\Local\Temp\ccTXtr83.s 			page 24


 487:lib_Network/network.c ****                 
 488:lib_Network/network.c ****                 if(recvDataNTP.Id == IDpacket)
 489:lib_Network/network.c ****                 {
 490:lib_Network/network.c ****                     result = OK;
 491:lib_Network/network.c ****                 }
 492:lib_Network/network.c ****                 
 493:lib_Network/network.c ****                 #ifdef DEBUG_INFO
 494:lib_Network/network.c **** //                        sprintf(uartBuff,"idreceive=%d\n\r",recvDataNTP.Id);
 495:lib_Network/network.c **** //                        DEBUG_UART_UartPutString(uartBuff);
 496:lib_Network/network.c ****                 #endif
 497:lib_Network/network.c ****                 
 498:lib_Network/network.c ****                 ntpFlagReadyForReceive = 1;
 499:lib_Network/network.c ****             }
 500:lib_Network/network.c ****             
 501:lib_Network/network.c ****             if((oldUnixTime<RTCGetUnixTime()) && (delayReceivePacket >= 1000))
 502:lib_Network/network.c ****             {
 503:lib_Network/network.c ****                 delayReceivePacket -= 1000;
 504:lib_Network/network.c ****                 oldUnixTime++;
 505:lib_Network/network.c ****                 
 506:lib_Network/network.c ****                 #ifdef DEBUG_INFO
 507:lib_Network/network.c **** //                        sprintf(uartBuff,"delayReceive=%d, realTimeMs=%d\n\r",delayReceivePacket,
 508:lib_Network/network.c **** //                        DEBUG_UART_UartPutString(uartBuff);
 509:lib_Network/network.c **** //                        sprintf(uartBuff,"unix[T1]=%d, realTimeunix=%d\n\r",unixTime[T1],(uint32_
 510:lib_Network/network.c **** //                        DEBUG_UART_UartPutString(uartBuff);
 511:lib_Network/network.c ****                 #endif
 512:lib_Network/network.c ****             }
 513:lib_Network/network.c ****         }
 514:lib_Network/network.c ****         numAttemptSendPacket--;
 515:lib_Network/network.c ****     }
 516:lib_Network/network.c ****     
 517:lib_Network/network.c ****     
 518:lib_Network/network.c ****     
 519:lib_Network/network.c ****     /*----------------------------------------------------------
 520:lib_Network/network.c ****     calculate difference time
 521:lib_Network/network.c ****     ----------------------------------------------------------*/
 522:lib_Network/network.c ****     uint8_t numSuccessuflPacket = 0;
 523:lib_Network/network.c ****     int32_t unixTimeDifference = 0;
 524:lib_Network/network.c ****     int32_t msTimeDifference = 0;
 525:lib_Network/network.c ****     numAttemptSendPacket = 0;
 526:lib_Network/network.c ****     IDpacket = 2;
 527:lib_Network/network.c **** 
 528:lib_Network/network.c ****     if(result == OK)
 529:lib_Network/network.c ****     {
 530:lib_Network/network.c ****         numSuccessuflPacket = NTP_SUCCESSFUL_PACKET;
 531:lib_Network/network.c ****         numAttemptSendPacket = NTP_CONNECT_ATTEMPS;
 532:lib_Network/network.c ****     }
 533:lib_Network/network.c ****     
 534:lib_Network/network.c ****     while(numAttemptSendPacket && numSuccessuflPacket )
 535:lib_Network/network.c ****     {
 536:lib_Network/network.c ****         result = ERROR;
 537:lib_Network/network.c ****         unixTime[T1] = RTCGetUnixTime();
 538:lib_Network/network.c ****         millisTime[T1] = RTCgetRecentMs();
 539:lib_Network/network.c ****         #ifdef DEBUGNTP
 540:lib_Network/network.c ****             pinDebugNtp_Write(1);
 541:lib_Network/network.c ****             pinDebugNtp_Write(0);
 542:lib_Network/network.c ****             pinDebugNtp_Write(1);
 543:lib_Network/network.c ****             pinDebugNtp_Write(0);
ARM GAS  C:\Users\Petro\AppData\Local\Temp\ccTXtr83.s 			page 25


 544:lib_Network/network.c ****         #endif 
 545:lib_Network/network.c ****         NTPsendTime(unixTime[T1], millisTime[T1], IDpacket);
 546:lib_Network/network.c ****         
 547:lib_Network/network.c ****         delayReceivePacket =  2*NTP_DELAY_RECEIVED_PACKET ;
 548:lib_Network/network.c ****         delayReceivePacket += RTCgetRecentMs();
 549:lib_Network/network.c ****         uint32_t oldUnixTime = RTCGetUnixTime();
 550:lib_Network/network.c ****         #ifdef DEBUG_INFO
 551:lib_Network/network.c **** //                DEBUG_UART_UartPutString("send new packet\n\r");
 552:lib_Network/network.c **** //                sprintf(uartBuff,"numSuccesful=%d\n\n\r",numSuccessuflPacket);
 553:lib_Network/network.c **** //                DEBUG_UART_UartPutString(uartBuff);
 554:lib_Network/network.c ****         #endif
 555:lib_Network/network.c ****         
 556:lib_Network/network.c ****         while((RTCgetRecentMs() < delayReceivePacket) && (result != OK) )
 557:lib_Network/network.c ****         {
 558:lib_Network/network.c ****             if(ntpFlagEndReceivePacket)
 559:lib_Network/network.c ****             {
 560:lib_Network/network.c ****                 ntpFlagEndReceivePacket = 0;
 561:lib_Network/network.c ****                 
 562:lib_Network/network.c ****                 if(recvDataNTP.Id == IDpacket)
 563:lib_Network/network.c ****                 {
 564:lib_Network/network.c ****                     numSuccessuflPacket--;  
 565:lib_Network/network.c ****                     numAttemptSendPacket = NTP_CONNECT_ATTEMPS;
 566:lib_Network/network.c ****                     result = OK;
 567:lib_Network/network.c ****                     
 568:lib_Network/network.c ****                     /*calculate difference time*/
 569:lib_Network/network.c ****                     int32_t tmpUnix, tmpMs;
 570:lib_Network/network.c ****                     NTPcalculateTime(unixTime,millisTime,&tmpUnix,&tmpMs);
 571:lib_Network/network.c ****                     unixTimeDifference += tmpUnix;
 572:lib_Network/network.c ****                     msTimeDifference += tmpMs;
 573:lib_Network/network.c ****                     
 574:lib_Network/network.c ****                     #ifdef DEBUG_INFO
 575:lib_Network/network.c **** //                        sprintf(uartBuff,"diff unix=%d, diff ms-%d\n\r",tmpUnix, tmpMs);
 576:lib_Network/network.c **** //                        DEBUG_UART_UartPutString(uartBuff);
 577:lib_Network/network.c **** //                        int32_t tmpU;
 578:lib_Network/network.c **** //                        int16_t tmpms;
 579:lib_Network/network.c **** //
 580:lib_Network/network.c **** //                        FuncTake(unixTime[T3],millisTime[T3],unixTime[T2],millisTime[T2],&tmpU,&t
 581:lib_Network/network.c **** //                        sprintf(uartBuff,"T3-T2=%d.%d\n\r",tmpU, tmpms);
 582:lib_Network/network.c **** //                        DEBUG_UART_UartPutString(uartBuff);
 583:lib_Network/network.c **** //                        
 584:lib_Network/network.c **** //                        FuncTake(unixTime[T4],millisTime[T4],unixTime[T1],millisTime[T1],&tmpU,&t
 585:lib_Network/network.c **** //                        sprintf(uartBuff,"T4-T1=%d.%d\n\r",tmpU, tmpms);
 586:lib_Network/network.c **** //                        DEBUG_UART_UartPutString(uartBuff);
 587:lib_Network/network.c **** //                        
 588:lib_Network/network.c **** //                        FuncTake(unixTime[T2],millisTime[T2],unixTime[T1],millisTime[T1],&tmpU,&t
 589:lib_Network/network.c **** //                        sprintf(uartBuff,"T2-T1=%d.%d\n\r",tmpU, tmpms);
 590:lib_Network/network.c **** //                        DEBUG_UART_UartPutString(uartBuff);
 591:lib_Network/network.c ****                     #endif
 592:lib_Network/network.c ****                 }
 593:lib_Network/network.c ****                 
 594:lib_Network/network.c ****                 #ifdef DEBUG_INFO
 595:lib_Network/network.c **** //                        sprintf(uartBuff,"succesful=%d\n\r",numSuccessuflPacket);
 596:lib_Network/network.c **** //                        DEBUG_UART_UartPutString(uartBuff);
 597:lib_Network/network.c ****                 #endif
 598:lib_Network/network.c ****                 
 599:lib_Network/network.c ****                 ntpFlagReadyForReceive = 1;
 600:lib_Network/network.c ****             }
ARM GAS  C:\Users\Petro\AppData\Local\Temp\ccTXtr83.s 			page 26


 601:lib_Network/network.c ****             if((oldUnixTime<RTCGetUnixTime()) && (delayReceivePacket >= 1000))
 602:lib_Network/network.c ****             {
 603:lib_Network/network.c ****                 delayReceivePacket -= 1000;
 604:lib_Network/network.c ****                 oldUnixTime++;
 605:lib_Network/network.c ****             }
 606:lib_Network/network.c ****         }
 607:lib_Network/network.c ****         numAttemptSendPacket--;
 608:lib_Network/network.c ****         IDpacket++;
 609:lib_Network/network.c ****     }
 610:lib_Network/network.c ****     
 611:lib_Network/network.c ****     
 612:lib_Network/network.c ****     if(result == OK)
 613:lib_Network/network.c ****     {
 614:lib_Network/network.c ****         unixTimeDifference /= NTP_SUCCESSFUL_PACKET;
 615:lib_Network/network.c ****         msTimeDifference /= NTP_SUCCESSFUL_PACKET;
 616:lib_Network/network.c ****         msTimeDifference += NTP_DIFFERENC_LONG_PACKET; //add static diff time to send packet 
 617:lib_Network/network.c ****     }
 618:lib_Network/network.c ****     
 619:lib_Network/network.c ****     
 620:lib_Network/network.c ****     
 621:lib_Network/network.c ****     /*----------------------------------------------------------
 622:lib_Network/network.c ****     send to start difference time
 623:lib_Network/network.c ****     ----------------------------------------------------------*/
 624:lib_Network/network.c ****     numAttemptSendPacket = 0;
 625:lib_Network/network.c ****     if(result == OK)
 626:lib_Network/network.c ****     {
 627:lib_Network/network.c ****         numAttemptSendPacket = NTP_CONNECT_ATTEMPS;
 628:lib_Network/network.c ****     }
 629:lib_Network/network.c ****     ntpFlagReadyForReceive = 1;
 630:lib_Network/network.c ****     IDpacket = 0;
 631:lib_Network/network.c ****     
 632:lib_Network/network.c ****     while(numAttemptSendPacket)
 633:lib_Network/network.c ****     {
 634:lib_Network/network.c ****         result = ERROR;
 635:lib_Network/network.c ****         
 636:lib_Network/network.c ****         #ifdef DEBUGNTP
 637:lib_Network/network.c ****             pinDebugNtp_Write(1);
 638:lib_Network/network.c ****             pinDebugNtp_Write(0);
 639:lib_Network/network.c ****             pinDebugNtp_Write(1);
 640:lib_Network/network.c ****             pinDebugNtp_Write(0);
 641:lib_Network/network.c ****         #endif 
 642:lib_Network/network.c ****         /*send difference time*/
 643:lib_Network/network.c ****         NTPsendTime(0, (uint16)-msTimeDifference, IDpacket);
 644:lib_Network/network.c ****         
 645:lib_Network/network.c ****         delayReceivePacket = NTP_DELAY_RECEIVED_PACKET;
 646:lib_Network/network.c ****         uint32_t oldUnixTime = RTCGetUnixTime();       
 647:lib_Network/network.c ****         delayReceivePacket += RTCgetRecentMs();
 648:lib_Network/network.c ****         
 649:lib_Network/network.c ****         #ifdef DEBUG_INFO
 650:lib_Network/network.c **** //            DEBUG_UART_UartPutString("send new packet\n\r");
 651:lib_Network/network.c **** //            sprintf(uartBuff, "numAttemptSendPacket=%d\n\r",numAttemptSendPacket);
 652:lib_Network/network.c **** //            DEBUG_UART_UartPutString(uartBuff);
 653:lib_Network/network.c ****         #endif
 654:lib_Network/network.c ****         
 655:lib_Network/network.c ****         while((RTCgetRecentMs() < delayReceivePacket) && (result != OK))
 656:lib_Network/network.c ****         {
 657:lib_Network/network.c ****             if(ntpFlagEndReceivePacket)
ARM GAS  C:\Users\Petro\AppData\Local\Temp\ccTXtr83.s 			page 27


 658:lib_Network/network.c ****             {
 659:lib_Network/network.c ****                 ntpFlagEndReceivePacket = 0;
 660:lib_Network/network.c ****                 
 661:lib_Network/network.c ****                 if(recvDataNTP.Id == IDpacket)
 662:lib_Network/network.c ****                 {
 663:lib_Network/network.c ****                     result = OK;
 664:lib_Network/network.c ****                 }
 665:lib_Network/network.c ****                 
 666:lib_Network/network.c ****                 #ifdef DEBUG_INFO
 667:lib_Network/network.c **** //                        sprintf(uartBuff,"idreceive=%d\n\r",recvDataNTP.Id);
 668:lib_Network/network.c **** //                        DEBUG_UART_UartPutString(uartBuff);
 669:lib_Network/network.c ****                 #endif
 670:lib_Network/network.c ****                 
 671:lib_Network/network.c ****                 ntpFlagReadyForReceive = 1;
 672:lib_Network/network.c ****             }
 673:lib_Network/network.c ****             
 674:lib_Network/network.c ****             if((oldUnixTime<RTCGetUnixTime()) && (delayReceivePacket >= 1000))
 675:lib_Network/network.c ****             {
 676:lib_Network/network.c ****                 delayReceivePacket -= 1000;
 677:lib_Network/network.c ****                 oldUnixTime++;
 678:lib_Network/network.c ****                 
 679:lib_Network/network.c ****                 #ifdef DEBUG_INFO
 680:lib_Network/network.c **** //                        sprintf(uartBuff,"delayReceive=%d, realTimeMs=%d\n\r",delayReceivePacket,
 681:lib_Network/network.c **** //                        DEBUG_UART_UartPutString(uartBuff);
 682:lib_Network/network.c **** //                        sprintf(uartBuff,"unix[T1]=%d, realTimeunix=%d\n\r",unixTime[T1],(uint32_
 683:lib_Network/network.c **** //                        DEBUG_UART_UartPutString(uartBuff);
 684:lib_Network/network.c ****                 #endif
 685:lib_Network/network.c ****             }
 686:lib_Network/network.c ****         }
 687:lib_Network/network.c ****         numAttemptSendPacket--;
 688:lib_Network/network.c ****         if(result == OK)
 689:lib_Network/network.c ****             numAttemptSendPacket = 0;
 690:lib_Network/network.c ****     }
 691:lib_Network/network.c ****     
 692:lib_Network/network.c ****     #ifdef DEBUG_INFO
 693:lib_Network/network.c ****         if(result == OK)
 694:lib_Network/network.c ****         DEBUG_UART_UartPutString("okey\n\r");
 695:lib_Network/network.c ****         else
 696:lib_Network/network.c ****         DEBUG_UART_UartPutString("error\n\r");
 697:lib_Network/network.c ****     #endif
 698:lib_Network/network.c ****     
 699:lib_Network/network.c ****     if(result == OK)
 700:lib_Network/network.c ****         result = TIME_SYNC_OK;
 701:lib_Network/network.c ****     else
 702:lib_Network/network.c ****         result = TIME_SYNC_ERR;
 703:lib_Network/network.c ****     
 704:lib_Network/network.c ****     onNtpSync = 0;
 705:lib_Network/network.c **** 
 706:lib_Network/network.c ****     return result;
 707:lib_Network/network.c **** }
 708:lib_Network/network.c **** 
 709:lib_Network/network.c **** 
 710:lib_Network/network.c **** /*******************************************************************************
 711:lib_Network/network.c **** * Function Name: NTPsendTime
 712:lib_Network/network.c **** ********************************************************************************
 713:lib_Network/network.c **** *
 714:lib_Network/network.c **** * Summary:
ARM GAS  C:\Users\Petro\AppData\Local\Temp\ccTXtr83.s 			page 28


 715:lib_Network/network.c **** *   send time to NTP protocol
 716:lib_Network/network.c **** * Parametrs:
 717:lib_Network/network.c **** *   unixTime - time in unix format
 718:lib_Network/network.c **** *   millis - millis time
 719:lib_Network/network.c **** *   ID - ID packet
 720:lib_Network/network.c **** *
 721:lib_Network/network.c **** *******************************************************************************/
 722:lib_Network/network.c **** void NTPsendTime(uint32_t unixTime,uint16_t millis, uint16_t ID)
 723:lib_Network/network.c **** {
 776              		.loc 1 723 0
 777              		.cfi_startproc
 778              	.LVL38:
 779 0000 30B5     		push	{r4, r5, lr}
 780              		.cfi_def_cfa_offset 12
 781              		.cfi_offset 4, -12
 782              		.cfi_offset 5, -8
 783              		.cfi_offset 14, -4
 784 0002 051C     		mov	r5, r0
 785 0004 141C     		mov	r4, r2
 786 0006 9BB0     		sub	sp, sp, #108
 787              		.cfi_def_cfa_offset 120
 788              		.loc 1 723 0
 789 0008 0B1C     		mov	r3, r1
 724:lib_Network/network.c ****     char sendBuffer[DATA_BUFFER];
 725:lib_Network/network.c ****     char sendData[DATA_BUFFER];
 726:lib_Network/network.c ****     
 727:lib_Network/network.c ****     /*pack data*/
 728:lib_Network/network.c ****     sprintf(sendData,"%08X%03X", unixTime,millis); 
 790              		.loc 1 728 0
 791 000a 2A1C     		mov	r2, r5
 792              	.LVL39:
 793 000c 0DA8     		add	r0, sp, #52
 794              	.LVL40:
 795 000e 0849     		ldr	r1, .L78
 796              	.LVL41:
 797 0010 FFF7FEFF 		bl	sprintf
 798              	.LVL42:
 729:lib_Network/network.c ****     PackData(sendBuffer, (uint8_t *)sendData, ID);
 799              		.loc 1 729 0
 800 0014 0DA9     		add	r1, sp, #52
 801 0016 221C     		mov	r2, r4
 802 0018 6846     		mov	r0, sp
 803 001a FFF7FEFF 		bl	PackData
 804              	.LVL43:
 730:lib_Network/network.c ****     UART_XB_UartPutString(sendBuffer);
 805              		.loc 1 730 0
 806 001e 6846     		mov	r0, sp
 807 0020 FFF7FEFF 		bl	UART_XB_UartPutString
 808              	.LVL44:
 731:lib_Network/network.c ****     UART_XB_UartPutChar('0');
 809              		.loc 1 731 0
 810 0024 3020     		mov	r0, #48
 811 0026 FFF7FEFF 		bl	UART_XB_SpiUartWriteTxData
 812              	.LVL45:
 732:lib_Network/network.c ****     
 733:lib_Network/network.c **** }
 813              		.loc 1 733 0
ARM GAS  C:\Users\Petro\AppData\Local\Temp\ccTXtr83.s 			page 29


 814 002a 1BB0     		add	sp, sp, #108
 815              		@ sp needed
 816              	.LVL46:
 817 002c 30BD     		pop	{r4, r5, pc}
 818              	.L79:
 819 002e C046     		.align	2
 820              	.L78:
 821 0030 1B000000 		.word	.LC46
 822              		.cfi_endproc
 823              	.LFE76:
 824              		.size	NTPsendTime, .-NTPsendTime
 825              		.section	.text.FuncTake,"ax",%progbits
 826              		.align	1
 827              		.global	FuncTake
 828              		.code	16
 829              		.thumb_func
 830              		.type	FuncTake, %function
 831              	FuncTake:
 832              	.LFB78:
 734:lib_Network/network.c **** 
 735:lib_Network/network.c **** 
 736:lib_Network/network.c **** 
 737:lib_Network/network.c **** 
 738:lib_Network/network.c **** void NTPcalculateTime(uint32_t unixTime[], uint16_t msTime[], int32_t *sumTime, int32_t *sumMs)
 739:lib_Network/network.c **** {
 740:lib_Network/network.c ****     /*calculate ms time*/
 741:lib_Network/network.c ****     int16_t tmpMs21;
 742:lib_Network/network.c ****     int32_t tmpTime21;    
 743:lib_Network/network.c ****     int16_t tmpMs34;
 744:lib_Network/network.c ****     int32_t tmpTime34;
 745:lib_Network/network.c ****     int32_t tmpDiffTime;
 746:lib_Network/network.c ****     int16_t tmpDiffMs;
 747:lib_Network/network.c **** 
 748:lib_Network/network.c ****     FuncTake(unixTime[T2],msTime[T2],unixTime[T1],msTime[T1],&tmpTime21,&tmpMs21);
 749:lib_Network/network.c ****     FuncTake(unixTime[T3],msTime[T3],unixTime[T4],msTime[T4],&tmpTime34,&tmpMs34);
 750:lib_Network/network.c **** 
 751:lib_Network/network.c ****     tmpDiffTime = tmpTime21 + tmpTime34;
 752:lib_Network/network.c ****     tmpDiffMs = tmpMs21 + tmpMs34;
 753:lib_Network/network.c ****     if(tmpDiffMs >= 1000)
 754:lib_Network/network.c ****     {
 755:lib_Network/network.c ****         tmpDiffTime += 1;
 756:lib_Network/network.c ****         tmpDiffMs -= 1000;
 757:lib_Network/network.c ****     }
 758:lib_Network/network.c ****     else if(tmpDiffMs <= -1000)
 759:lib_Network/network.c ****     {
 760:lib_Network/network.c ****         tmpDiffTime -= 1;
 761:lib_Network/network.c ****         tmpDiffMs += 1000;
 762:lib_Network/network.c ****     }
 763:lib_Network/network.c ****     
 764:lib_Network/network.c ****     tmpDiffMs /= 2;
 765:lib_Network/network.c ****     if(tmpDiffTime%2 == 1)
 766:lib_Network/network.c ****     {
 767:lib_Network/network.c ****         tmpDiffMs += 500;
 768:lib_Network/network.c ****     }
 769:lib_Network/network.c ****     tmpDiffTime /= 2;
 770:lib_Network/network.c ****     
 771:lib_Network/network.c ****     *sumTime = tmpDiffTime;
ARM GAS  C:\Users\Petro\AppData\Local\Temp\ccTXtr83.s 			page 30


 772:lib_Network/network.c ****     *sumMs = tmpDiffMs; 
 773:lib_Network/network.c **** 
 774:lib_Network/network.c **** }
 775:lib_Network/network.c **** 
 776:lib_Network/network.c **** void FuncTake(uint32_t sec1, uint16_t ms1, uint32_t sec2, uint16_t ms2, int32_t *resultSec, int16_t
 777:lib_Network/network.c **** {
 833              		.loc 1 777 0
 834              		.cfi_startproc
 835              	.LVL47:
 836 0000 30B5     		push	{r4, r5, lr}
 837              		.cfi_def_cfa_offset 12
 838              		.cfi_offset 4, -12
 839              		.cfi_offset 5, -8
 840              		.cfi_offset 14, -4
 778:lib_Network/network.c **** 	*resultSec = sec1 - sec2;
 779:lib_Network/network.c **** 	*resultMs = ms1 - ms2;
 841              		.loc 1 779 0
 842 0002 CB1A     		sub	r3, r1, r3
 843              	.LVL48:
 777:lib_Network/network.c **** 	*resultSec = sec1 - sec2;
 844              		.loc 1 777 0
 845 0004 039C     		ldr	r4, [sp, #12]
 778:lib_Network/network.c **** 	*resultSec = sec1 - sec2;
 846              		.loc 1 778 0
 847 0006 821A     		sub	r2, r0, r2
 848              	.LVL49:
 849              		.loc 1 779 0
 850 0008 9BB2     		uxth	r3, r3
 777:lib_Network/network.c **** 	*resultSec = sec1 - sec2;
 851              		.loc 1 777 0
 852 000a 049D     		ldr	r5, [sp, #16]
 778:lib_Network/network.c **** 	*resultSec = sec1 - sec2;
 853              		.loc 1 778 0
 854 000c 2260     		str	r2, [r4]
 855              		.loc 1 779 0
 856 000e 99B2     		uxth	r1, r3
 857              	.LVL50:
 780:lib_Network/network.c **** 	if (*resultSec < 0)
 858              		.loc 1 780 0
 859 0010 002A     		cmp	r2, #0
 860 0012 09DA     		bge	.L81
 781:lib_Network/network.c **** 	{	
 782:lib_Network/network.c **** 		if (*resultMs > 0)
 861              		.loc 1 782 0
 862 0014 08B2     		sxth	r0, r1
 863              	.LVL51:
 864 0016 0028     		cmp	r0, #0
 865 0018 01DC     		bgt	.L82
 866              	.L84:
 779:lib_Network/network.c **** 	if (*resultSec < 0)
 867              		.loc 1 779 0
 868 001a 2980     		strh	r1, [r5]
 869 001c 0FE0     		b	.L80
 870              	.L82:
 783:lib_Network/network.c **** 		{
 784:lib_Network/network.c **** 			*resultMs -= 1000;
 871              		.loc 1 784 0
ARM GAS  C:\Users\Petro\AppData\Local\Temp\ccTXtr83.s 			page 31


 872 001e 0849     		ldr	r1, .L89
 785:lib_Network/network.c **** 			*resultSec += 1;
 873              		.loc 1 785 0
 874 0020 0132     		add	r2, r2, #1
 784:lib_Network/network.c **** 			*resultSec += 1;
 875              		.loc 1 784 0
 876 0022 5B18     		add	r3, r3, r1
 877 0024 2B80     		strh	r3, [r5]
 878 0026 09E0     		b	.L88
 879              	.LVL52:
 880              	.L81:
 786:lib_Network/network.c **** 		}
 787:lib_Network/network.c **** 	}
 788:lib_Network/network.c **** 	else if(*resultSec > 0)
 881              		.loc 1 788 0
 882 0028 002A     		cmp	r2, #0
 883 002a F6D0     		beq	.L84
 789:lib_Network/network.c **** 	{
 790:lib_Network/network.c **** 		if (*resultMs < 0)
 884              		.loc 1 790 0
 885 002c 08B2     		sxth	r0, r1
 886              	.LVL53:
 887 002e 0028     		cmp	r0, #0
 888 0030 F3DA     		bge	.L84
 791:lib_Network/network.c **** 		{
 792:lib_Network/network.c **** 			*resultMs += 1000;
 889              		.loc 1 792 0
 890 0032 FA21     		mov	r1, #250
 891 0034 8900     		lsl	r1, r1, #2
 892 0036 5B18     		add	r3, r3, r1
 893 0038 2B80     		strh	r3, [r5]
 793:lib_Network/network.c **** 			*resultSec -= 1;
 894              		.loc 1 793 0
 895 003a 013A     		sub	r2, r2, #1
 896              	.L88:
 897 003c 2260     		str	r2, [r4]
 898              	.L80:
 794:lib_Network/network.c **** 		}
 795:lib_Network/network.c **** 	}
 796:lib_Network/network.c **** }
 899              		.loc 1 796 0
 900              		@ sp needed
 901 003e 30BD     		pop	{r4, r5, pc}
 902              	.L90:
 903              		.align	2
 904              	.L89:
 905 0040 18FCFFFF 		.word	-1000
 906              		.cfi_endproc
 907              	.LFE78:
 908              		.size	FuncTake, .-FuncTake
 909              		.section	.text.NTPcalculateTime,"ax",%progbits
 910              		.align	1
 911              		.global	NTPcalculateTime
 912              		.code	16
 913              		.thumb_func
 914              		.type	NTPcalculateTime, %function
 915              	NTPcalculateTime:
ARM GAS  C:\Users\Petro\AppData\Local\Temp\ccTXtr83.s 			page 32


 916              	.LFB77:
 739:lib_Network/network.c ****     /*calculate ms time*/
 917              		.loc 1 739 0
 918              		.cfi_startproc
 919              	.LVL54:
 920 0000 F0B5     		push	{r4, r5, r6, r7, lr}
 921              		.cfi_def_cfa_offset 20
 922              		.cfi_offset 4, -20
 923              		.cfi_offset 5, -16
 924              		.cfi_offset 6, -12
 925              		.cfi_offset 7, -8
 926              		.cfi_offset 14, -4
 927 0002 0D1C     		mov	r5, r1
 928 0004 041C     		mov	r4, r0
 929 0006 87B0     		sub	sp, sp, #28
 930              		.cfi_def_cfa_offset 48
 739:lib_Network/network.c ****     /*calculate ms time*/
 931              		.loc 1 739 0
 932 0008 171C     		mov	r7, r2
 748:lib_Network/network.c ****     FuncTake(unixTime[T3],msTime[T3],unixTime[T4],msTime[T4],&tmpTime34,&tmpMs34);
 933              		.loc 1 748 0
 934 000a 04AA     		add	r2, sp, #16
 935              	.LVL55:
 936 000c 4988     		ldrh	r1, [r1, #2]
 937              	.LVL56:
 739:lib_Network/network.c ****     /*calculate ms time*/
 938              		.loc 1 739 0
 939 000e 1E1C     		mov	r6, r3
 748:lib_Network/network.c ****     FuncTake(unixTime[T3],msTime[T3],unixTime[T4],msTime[T4],&tmpTime34,&tmpMs34);
 940              		.loc 1 748 0
 941 0010 2B88     		ldrh	r3, [r5]
 942              	.LVL57:
 943 0012 0092     		str	r2, [sp]
 944 0014 03AA     		add	r2, sp, #12
 945 0016 0192     		str	r2, [sp, #4]
 946 0018 2268     		ldr	r2, [r4]
 947 001a 4068     		ldr	r0, [r0, #4]
 948              	.LVL58:
 949 001c FFF7FEFF 		bl	FuncTake
 950              	.LVL59:
 749:lib_Network/network.c **** 
 951              		.loc 1 749 0
 952 0020 A988     		ldrh	r1, [r5, #4]
 953 0022 EB88     		ldrh	r3, [r5, #6]
 954 0024 0E25     		mov	r5, #14
 955              	.LVL60:
 956 0026 05AA     		add	r2, sp, #20
 957 0028 6D44     		add	r5, r5, sp
 958 002a 0092     		str	r2, [sp]
 959 002c 0195     		str	r5, [sp, #4]
 960 002e A068     		ldr	r0, [r4, #8]
 961 0030 E268     		ldr	r2, [r4, #12]
 962 0032 FFF7FEFF 		bl	FuncTake
 963              	.LVL61:
 751:lib_Network/network.c ****     tmpDiffMs = tmpMs21 + tmpMs34;
 964              		.loc 1 751 0
 965 0036 059A     		ldr	r2, [sp, #20]
ARM GAS  C:\Users\Petro\AppData\Local\Temp\ccTXtr83.s 			page 33


 966 0038 049B     		ldr	r3, [sp, #16]
 752:lib_Network/network.c ****     if(tmpDiffMs >= 1000)
 967              		.loc 1 752 0
 968 003a 2988     		ldrh	r1, [r5]
 751:lib_Network/network.c ****     tmpDiffMs = tmpMs21 + tmpMs34;
 969              		.loc 1 751 0
 970 003c 9B18     		add	r3, r3, r2
 971              	.LVL62:
 752:lib_Network/network.c ****     if(tmpDiffMs >= 1000)
 972              		.loc 1 752 0
 973 003e 6A46     		mov	r2, sp
 974 0040 9289     		ldrh	r2, [r2, #12]
 753:lib_Network/network.c ****     {
 975              		.loc 1 753 0
 976 0042 164C     		ldr	r4, .L97
 977              	.LVL63:
 752:lib_Network/network.c ****     if(tmpDiffMs >= 1000)
 978              		.loc 1 752 0
 979 0044 8918     		add	r1, r1, r2
 980 0046 89B2     		uxth	r1, r1
 981 0048 8AB2     		uxth	r2, r1
 982              	.LVL64:
 753:lib_Network/network.c ****     {
 983              		.loc 1 753 0
 984 004a 10B2     		sxth	r0, r2
 985 004c A042     		cmp	r0, r4
 986 004e 02DD     		ble	.L92
 755:lib_Network/network.c ****         tmpDiffMs -= 1000;
 987              		.loc 1 755 0
 988 0050 0133     		add	r3, r3, #1
 989              	.LVL65:
 756:lib_Network/network.c ****     }
 990              		.loc 1 756 0
 991 0052 134A     		ldr	r2, .L97+4
 992              	.LVL66:
 993 0054 05E0     		b	.L96
 994              	.LVL67:
 995              	.L92:
 758:lib_Network/network.c ****     {
 996              		.loc 1 758 0
 997 0056 134C     		ldr	r4, .L97+8
 998 0058 A042     		cmp	r0, r4
 999 005a 04DA     		bge	.L93
 761:lib_Network/network.c ****     }
 1000              		.loc 1 761 0
 1001 005c FA22     		mov	r2, #250
 1002              	.LVL68:
 760:lib_Network/network.c ****         tmpDiffMs += 1000;
 1003              		.loc 1 760 0
 1004 005e 013B     		sub	r3, r3, #1
 1005              	.LVL69:
 761:lib_Network/network.c ****     }
 1006              		.loc 1 761 0
 1007 0060 9200     		lsl	r2, r2, #2
 1008              	.L96:
 1009 0062 8A18     		add	r2, r1, r2
 1010 0064 92B2     		uxth	r2, r2
ARM GAS  C:\Users\Petro\AppData\Local\Temp\ccTXtr83.s 			page 34


 1011              	.LVL70:
 1012              	.L93:
 764:lib_Network/network.c ****     if(tmpDiffTime%2 == 1)
 1013              		.loc 1 764 0
 1014 0066 12B2     		sxth	r2, r2
 1015 0068 D10F     		lsr	r1, r2, #31
 1016 006a 8A18     		add	r2, r1, r2
 1017              	.LVL71:
 765:lib_Network/network.c ****     {
 1018              		.loc 1 765 0
 1019 006c 0E49     		ldr	r1, .L97+12
 764:lib_Network/network.c ****     if(tmpDiffTime%2 == 1)
 1020              		.loc 1 764 0
 1021 006e 5210     		asr	r2, r2, #1
 1022 0070 92B2     		uxth	r2, r2
 1023              	.LVL72:
 765:lib_Network/network.c ****     {
 1024              		.loc 1 765 0
 1025 0072 1940     		and	r1, r3
 1026 0074 04D5     		bpl	.L95
 1027 0076 0220     		mov	r0, #2
 1028 0078 0139     		sub	r1, r1, #1
 1029 007a 4042     		neg	r0, r0
 1030 007c 0143     		orr	r1, r0
 1031 007e 0131     		add	r1, r1, #1
 1032              	.L95:
 1033 0080 0129     		cmp	r1, #1
 1034 0082 02D1     		bne	.L94
 767:lib_Network/network.c ****     }
 1035              		.loc 1 767 0
 1036 0084 F532     		add	r2, r2, #245
 1037              	.LVL73:
 1038 0086 FF32     		add	r2, r2, #255
 1039              	.LVL74:
 1040 0088 92B2     		uxth	r2, r2
 1041              	.LVL75:
 1042              	.L94:
 769:lib_Network/network.c ****     
 1043              		.loc 1 769 0
 1044 008a D90F     		lsr	r1, r3, #31
 1045 008c CB18     		add	r3, r1, r3
 1046              	.LVL76:
 1047 008e 5B10     		asr	r3, r3, #1
 772:lib_Network/network.c **** 
 1048              		.loc 1 772 0
 1049 0090 12B2     		sxth	r2, r2
 771:lib_Network/network.c ****     *sumMs = tmpDiffMs; 
 1050              		.loc 1 771 0
 1051 0092 3B60     		str	r3, [r7]
 772:lib_Network/network.c **** 
 1052              		.loc 1 772 0
 1053 0094 3260     		str	r2, [r6]
 774:lib_Network/network.c **** 
 1054              		.loc 1 774 0
 1055 0096 07B0     		add	sp, sp, #28
 1056              		@ sp needed
 1057              	.LVL77:
ARM GAS  C:\Users\Petro\AppData\Local\Temp\ccTXtr83.s 			page 35


 1058              	.LVL78:
 1059 0098 F0BD     		pop	{r4, r5, r6, r7, pc}
 1060              	.L98:
 1061 009a C046     		.align	2
 1062              	.L97:
 1063 009c E7030000 		.word	999
 1064 00a0 18FCFFFF 		.word	-1000
 1065 00a4 19FCFFFF 		.word	-999
 1066 00a8 01000080 		.word	-2147483647
 1067              		.cfi_endproc
 1068              	.LFE77:
 1069              		.size	NTPcalculateTime, .-NTPcalculateTime
 1070              		.global	__aeabi_idiv
 1071              		.section	.text.NTPsync,"ax",%progbits
 1072              		.align	1
 1073              		.global	NTPsync
 1074              		.code	16
 1075              		.thumb_func
 1076              		.type	NTPsync, %function
 1077              	NTPsync:
 1078              	.LFB75:
 446:lib_Network/network.c ****     uint16_t result;
 1079              		.loc 1 446 0
 1080              		.cfi_startproc
 1081 0000 F0B5     		push	{r4, r5, r6, r7, lr}
 1082              		.cfi_def_cfa_offset 20
 1083              		.cfi_offset 4, -20
 1084              		.cfi_offset 5, -16
 1085              		.cfi_offset 6, -12
 1086              		.cfi_offset 7, -8
 1087              		.cfi_offset 14, -4
 1088 0002 87B0     		sub	sp, sp, #28
 1089              		.cfi_def_cfa_offset 48
 449:lib_Network/network.c ****     
 1090              		.loc 1 449 0
 1091 0004 FFF7FEFF 		bl	UART_XB_SpiUartClearRxBuffer
 1092              	.LVL79:
 457:lib_Network/network.c ****     onNtpSync = 1;
 1093              		.loc 1 457 0
 1094 0008 0122     		mov	r2, #1
 458:lib_Network/network.c ****     
 1095              		.loc 1 458 0
 1096 000a 0625     		mov	r5, #6
 456:lib_Network/network.c ****     ntpFlagReadyForReceive = 1;
 1097              		.loc 1 456 0
 1098 000c 0024     		mov	r4, #0
 457:lib_Network/network.c ****     onNtpSync = 1;
 1099              		.loc 1 457 0
 1100 000e 7C4B     		ldr	r3, .L148
 458:lib_Network/network.c ****     
 1101              		.loc 1 458 0
 1102 0010 7C49     		ldr	r1, .L148+4
 457:lib_Network/network.c ****     onNtpSync = 1;
 1103              		.loc 1 457 0
 1104 0012 1A70     		strb	r2, [r3]
 458:lib_Network/network.c ****     
 1105              		.loc 1 458 0
ARM GAS  C:\Users\Petro\AppData\Local\Temp\ccTXtr83.s 			page 36


 1106 0014 0A70     		strb	r2, [r1]
 1107 0016 0193     		str	r3, [sp, #4]
 1108              	.LVL80:
 1109              	.L108:
 1110              	.LBB7:
 463:lib_Network/network.c ****         millisTime[T1] = RTCgetRecentMs();
 1111              		.loc 1 463 0
 1112 0018 FFF7FEFF 		bl	RTCGetUnixTime
 1113              	.LVL81:
 1114 001c 7A4E     		ldr	r6, .L148+8
 1115 001e 3060     		str	r0, [r6]
 464:lib_Network/network.c ****         #ifdef DEBUGNTP
 1116              		.loc 1 464 0
 1117 0020 FFF7FEFF 		bl	RTCgetRecentMs
 1118              	.LVL82:
 1119 0024 794B     		ldr	r3, .L148+12
 1120 0026 81B2     		uxth	r1, r0
 472:lib_Network/network.c ****         
 1121              		.loc 1 472 0
 1122 0028 0122     		mov	r2, #1
 1123 002a 3068     		ldr	r0, [r6]
 464:lib_Network/network.c ****         #ifdef DEBUGNTP
 1124              		.loc 1 464 0
 1125 002c 1980     		strh	r1, [r3]
 472:lib_Network/network.c ****         
 1126              		.loc 1 472 0
 1127 002e FFF7FEFF 		bl	NTPsendTime
 1128              	.LVL83:
 475:lib_Network/network.c ****         delayReceivePacket += RTCgetRecentMs();
 1129              		.loc 1 475 0
 1130 0032 FFF7FEFF 		bl	RTCGetUnixTime
 1131              	.LVL84:
 1132 0036 071C     		mov	r7, r0
 1133              	.LVL85:
 476:lib_Network/network.c ****         
 1134              		.loc 1 476 0
 1135 0038 FFF7FEFF 		bl	RTCgetRecentMs
 1136              	.LVL86:
 1137 003c FA23     		mov	r3, #250
 1138 003e 9B00     		lsl	r3, r3, #2
 1139 0040 C618     		add	r6, r0, r3
 1140 0042 B6B2     		uxth	r6, r6
 1141              	.LVL87:
 1142              	.L100:
 482:lib_Network/network.c ****         {
 1143              		.loc 1 482 0
 1144 0044 FFF7FEFF 		bl	RTCgetRecentMs
 1145              	.LVL88:
 1146 0048 B042     		cmp	r0, r6
 1147 004a 1DD2     		bcs	.L105
 482:lib_Network/network.c ****         {
 1148              		.loc 1 482 0 is_stmt 0 discriminator 1
 1149 004c 012C     		cmp	r4, #1
 1150 004e 1BD0     		beq	.L105
 484:lib_Network/network.c ****             {
 1151              		.loc 1 484 0 is_stmt 1
 1152 0050 6F4B     		ldr	r3, .L148+16
ARM GAS  C:\Users\Petro\AppData\Local\Temp\ccTXtr83.s 			page 37


 1153 0052 1A78     		ldrb	r2, [r3]
 1154 0054 002A     		cmp	r2, #0
 1155 0056 09D0     		beq	.L101
 486:lib_Network/network.c ****                 
 1156              		.loc 1 486 0
 1157 0058 0022     		mov	r2, #0
 1158 005a 1A70     		strb	r2, [r3]
 488:lib_Network/network.c ****                 {
 1159              		.loc 1 488 0
 1160 005c 6D4B     		ldr	r3, .L148+20
 1161 005e 1A88     		ldrh	r2, [r3]
 1162 0060 0123     		mov	r3, #1
 1163 0062 9A42     		cmp	r2, r3
 1164 0064 00D1     		bne	.L102
 490:lib_Network/network.c ****                 }
 1165              		.loc 1 490 0
 1166 0066 1C1C     		mov	r4, r3
 1167              	.LVL89:
 1168              	.L102:
 498:lib_Network/network.c ****             }
 1169              		.loc 1 498 0
 1170 0068 019A     		ldr	r2, [sp, #4]
 1171 006a 1370     		strb	r3, [r2]
 1172              	.L101:
 501:lib_Network/network.c ****             {
 1173              		.loc 1 501 0
 1174 006c FFF7FEFF 		bl	RTCGetUnixTime
 1175              	.LVL90:
 1176 0070 0029     		cmp	r1, #0
 1177 0072 01D1     		bne	.L137
 1178 0074 B842     		cmp	r0, r7
 1179 0076 E5D9     		bls	.L100
 1180              	.L137:
 501:lib_Network/network.c ****             {
 1181              		.loc 1 501 0 is_stmt 0 discriminator 1
 1182 0078 674B     		ldr	r3, .L148+24
 1183 007a 9E42     		cmp	r6, r3
 1184 007c E2D9     		bls	.L100
 503:lib_Network/network.c ****                 oldUnixTime++;
 1185              		.loc 1 503 0 is_stmt 1
 1186 007e 674B     		ldr	r3, .L148+28
 504:lib_Network/network.c ****                 
 1187              		.loc 1 504 0
 1188 0080 0137     		add	r7, r7, #1
 1189              	.LVL91:
 503:lib_Network/network.c ****                 oldUnixTime++;
 1190              		.loc 1 503 0
 1191 0082 F618     		add	r6, r6, r3
 1192              	.LVL92:
 1193 0084 B6B2     		uxth	r6, r6
 1194              	.LVL93:
 1195 0086 DDE7     		b	.L100
 1196              	.L105:
 1197              	.LVL94:
 1198 0088 013D     		sub	r5, r5, #1
 1199              	.LVL95:
 1200 008a ADB2     		uxth	r5, r5
ARM GAS  C:\Users\Petro\AppData\Local\Temp\ccTXtr83.s 			page 38


 1201              	.LBE7:
 460:lib_Network/network.c ****     {
 1202              		.loc 1 460 0
 1203 008c 002D     		cmp	r5, #0
 1204 008e 02D0     		beq	.L107
 460:lib_Network/network.c ****     {
 1205              		.loc 1 460 0 is_stmt 0 discriminator 1
 1206 0090 012C     		cmp	r4, #1
 1207 0092 C1D1     		bne	.L108
 1208 0094 02E0     		b	.L132
 1209              	.L107:
 1210              	.LVL96:
 525:lib_Network/network.c ****     IDpacket = 2;
 1211              		.loc 1 525 0 is_stmt 1
 1212 0096 2E1C     		mov	r6, r5
 1213              	.LVL97:
 528:lib_Network/network.c ****     {
 1214              		.loc 1 528 0
 1215 0098 012C     		cmp	r4, #1
 1216 009a 01D1     		bne	.L109
 1217              	.LVL98:
 1218              	.L132:
 530:lib_Network/network.c ****         numAttemptSendPacket = NTP_CONNECT_ATTEMPS;
 1219              		.loc 1 530 0
 1220 009c 0525     		mov	r5, #5
 531:lib_Network/network.c ****     }
 1221              		.loc 1 531 0
 1222 009e 0626     		mov	r6, #6
 1223              	.L109:
 1224              	.LBB8:
 536:lib_Network/network.c ****         unixTime[T1] = RTCGetUnixTime();
 1225              		.loc 1 536 0
 1226 00a0 0027     		mov	r7, #0
 1227              	.LVL99:
 1228 00a2 0223     		mov	r3, #2
 1229              	.L145:
 608:lib_Network/network.c ****     }
 1230              		.loc 1 608 0
 1231 00a4 0193     		str	r3, [sp, #4]
 1232              	.LVL100:
 1233              	.LBE8:
 534:lib_Network/network.c ****     {
 1234              		.loc 1 534 0
 1235 00a6 002E     		cmp	r6, #0
 1236 00a8 0BD1     		bne	.L118
 1237              	.L146:
 1238 00aa 0197     		str	r7, [sp, #4]
 1239              	.LVL101:
 624:lib_Network/network.c ****     if(result == OK)
 1240              		.loc 1 624 0
 1241 00ac 0026     		mov	r6, #0
 1242              	.LVL102:
 612:lib_Network/network.c ****     {
 1243              		.loc 1 612 0
 1244 00ae 012C     		cmp	r4, #1
 1245 00b0 5DD1     		bne	.L120
 615:lib_Network/network.c ****         msTimeDifference += NTP_DIFFERENC_LONG_PACKET; //add static diff time to send packet 
ARM GAS  C:\Users\Petro\AppData\Local\Temp\ccTXtr83.s 			page 39


 1246              		.loc 1 615 0
 1247 00b2 381C     		mov	r0, r7
 1248 00b4 0521     		mov	r1, #5
 1249 00b6 FFF7FEFF 		bl	__aeabi_idiv
 1250              	.LVL103:
 616:lib_Network/network.c ****     }
 1251              		.loc 1 616 0
 1252 00ba 3130     		add	r0, r0, #49
 1253              	.LVL104:
 1254 00bc 0190     		str	r0, [sp, #4]
 1255              	.LVL105:
 627:lib_Network/network.c ****     }
 1256              		.loc 1 627 0
 1257 00be 0626     		mov	r6, #6
 1258 00c0 55E0     		b	.L120
 1259              	.LVL106:
 1260              	.L118:
 534:lib_Network/network.c ****     {
 1261              		.loc 1 534 0 discriminator 1
 1262 00c2 002D     		cmp	r5, #0
 1263 00c4 F1D0     		beq	.L146
 1264              	.LVL107:
 1265              	.LBB10:
 537:lib_Network/network.c ****         millisTime[T1] = RTCgetRecentMs();
 1266              		.loc 1 537 0
 1267 00c6 FFF7FEFF 		bl	RTCGetUnixTime
 1268              	.LVL108:
 1269 00ca 4F4C     		ldr	r4, .L148+8
 1270 00cc 2060     		str	r0, [r4]
 538:lib_Network/network.c ****         #ifdef DEBUGNTP
 1271              		.loc 1 538 0
 1272 00ce FFF7FEFF 		bl	RTCgetRecentMs
 1273              	.LVL109:
 1274 00d2 4E4B     		ldr	r3, .L148+12
 1275 00d4 81B2     		uxth	r1, r0
 545:lib_Network/network.c ****         
 1276              		.loc 1 545 0
 1277 00d6 019A     		ldr	r2, [sp, #4]
 1278 00d8 2068     		ldr	r0, [r4]
 538:lib_Network/network.c ****         #ifdef DEBUGNTP
 1279              		.loc 1 538 0
 1280 00da 1980     		strh	r1, [r3]
 545:lib_Network/network.c ****         
 1281              		.loc 1 545 0
 1282 00dc FFF7FEFF 		bl	NTPsendTime
 1283              	.LVL110:
 548:lib_Network/network.c ****         uint32_t oldUnixTime = RTCGetUnixTime();
 1284              		.loc 1 548 0
 1285 00e0 FFF7FEFF 		bl	RTCgetRecentMs
 1286              	.LVL111:
 1287 00e4 FA23     		mov	r3, #250
 1288 00e6 DB00     		lsl	r3, r3, #3
 1289 00e8 C018     		add	r0, r0, r3
 1290 00ea 83B2     		uxth	r3, r0
 1291 00ec 0293     		str	r3, [sp, #8]
 1292              	.LVL112:
 549:lib_Network/network.c ****         #ifdef DEBUG_INFO
ARM GAS  C:\Users\Petro\AppData\Local\Temp\ccTXtr83.s 			page 40


 1293              		.loc 1 549 0
 1294 00ee FFF7FEFF 		bl	RTCGetUnixTime
 1295              	.LVL113:
 536:lib_Network/network.c ****         unixTime[T1] = RTCGetUnixTime();
 1296              		.loc 1 536 0
 1297 00f2 0024     		mov	r4, #0
 549:lib_Network/network.c ****         #ifdef DEBUG_INFO
 1298              		.loc 1 549 0
 1299 00f4 0390     		str	r0, [sp, #12]
 1300              	.LVL114:
 1301              	.L111:
 556:lib_Network/network.c ****         {
 1302              		.loc 1 556 0
 1303 00f6 FFF7FEFF 		bl	RTCgetRecentMs
 1304              	.LVL115:
 1305 00fa 029B     		ldr	r3, [sp, #8]
 1306 00fc 9842     		cmp	r0, r3
 1307 00fe 30D2     		bcs	.L116
 556:lib_Network/network.c ****         {
 1308              		.loc 1 556 0 is_stmt 0 discriminator 1
 1309 0100 012C     		cmp	r4, #1
 1310 0102 2ED0     		beq	.L116
 1311 0104 0024     		mov	r4, #0
 1312              	.LVL116:
 558:lib_Network/network.c ****             {
 1313              		.loc 1 558 0 is_stmt 1
 1314 0106 424B     		ldr	r3, .L148+16
 1315 0108 1A78     		ldrb	r2, [r3]
 1316 010a A242     		cmp	r2, r4
 1317 010c 14D0     		beq	.L112
 560:lib_Network/network.c ****                 
 1318              		.loc 1 560 0
 1319 010e 1C70     		strb	r4, [r3]
 562:lib_Network/network.c ****                 {
 1320              		.loc 1 562 0
 1321 0110 404B     		ldr	r3, .L148+20
 1322 0112 019A     		ldr	r2, [sp, #4]
 1323 0114 1B88     		ldrh	r3, [r3]
 1324 0116 9342     		cmp	r3, r2
 1325 0118 0BD1     		bne	.L113
 1326              	.LBB9:
 565:lib_Network/network.c ****                     result = OK;
 1327              		.loc 1 565 0
 1328 011a 0626     		mov	r6, #6
 1329              	.LVL117:
 570:lib_Network/network.c ****                     unixTimeDifference += tmpUnix;
 1330              		.loc 1 570 0
 1331 011c 05AB     		add	r3, sp, #20
 1332 011e 3A48     		ldr	r0, .L148+8
 1333 0120 3A49     		ldr	r1, .L148+12
 1334 0122 04AA     		add	r2, sp, #16
 1335 0124 FFF7FEFF 		bl	NTPcalculateTime
 1336              	.LVL118:
 572:lib_Network/network.c ****                     
 1337              		.loc 1 572 0
 1338 0128 059B     		ldr	r3, [sp, #20]
 564:lib_Network/network.c ****                     numAttemptSendPacket = NTP_CONNECT_ATTEMPS;
ARM GAS  C:\Users\Petro\AppData\Local\Temp\ccTXtr83.s 			page 41


 1339              		.loc 1 564 0
 1340 012a 013D     		sub	r5, r5, #1
 1341              	.LVL119:
 1342 012c EDB2     		uxtb	r5, r5
 1343              	.LVL120:
 572:lib_Network/network.c ****                     
 1344              		.loc 1 572 0
 1345 012e FF18     		add	r7, r7, r3
 1346              	.LVL121:
 566:lib_Network/network.c ****                     
 1347              		.loc 1 566 0
 1348 0130 0134     		add	r4, r4, #1
 1349              	.LVL122:
 1350              	.L113:
 1351              	.LBE9:
 599:lib_Network/network.c ****             }
 1352              		.loc 1 599 0
 1353 0132 0122     		mov	r2, #1
 1354 0134 324B     		ldr	r3, .L148
 1355 0136 1A70     		strb	r2, [r3]
 1356              	.LVL123:
 1357              	.L112:
 601:lib_Network/network.c ****             {
 1358              		.loc 1 601 0
 1359 0138 FFF7FEFF 		bl	RTCGetUnixTime
 1360              	.LVL124:
 1361 013c 0029     		cmp	r1, #0
 1362 013e 02D1     		bne	.L138
 1363 0140 039B     		ldr	r3, [sp, #12]
 1364 0142 9842     		cmp	r0, r3
 1365 0144 D7D9     		bls	.L111
 1366              	.L138:
 601:lib_Network/network.c ****             {
 1367              		.loc 1 601 0 is_stmt 0 discriminator 1
 1368 0146 344B     		ldr	r3, .L148+24
 1369 0148 029A     		ldr	r2, [sp, #8]
 1370 014a 9A42     		cmp	r2, r3
 1371 014c D3D9     		bls	.L111
 603:lib_Network/network.c ****                 oldUnixTime++;
 1372              		.loc 1 603 0 is_stmt 1
 1373 014e 131C     		mov	r3, r2
 1374 0150 324A     		ldr	r2, .L148+28
 1375 0152 9446     		mov	ip, r2
 1376 0154 6344     		add	r3, r3, ip
 1377 0156 9BB2     		uxth	r3, r3
 1378 0158 0293     		str	r3, [sp, #8]
 1379              	.LVL125:
 604:lib_Network/network.c ****             }
 1380              		.loc 1 604 0
 1381 015a 039B     		ldr	r3, [sp, #12]
 1382 015c 0133     		add	r3, r3, #1
 1383 015e 0393     		str	r3, [sp, #12]
 1384              	.LVL126:
 1385 0160 C9E7     		b	.L111
 1386              	.LVL127:
 1387              	.L116:
 608:lib_Network/network.c ****     }
ARM GAS  C:\Users\Petro\AppData\Local\Temp\ccTXtr83.s 			page 42


 1388              		.loc 1 608 0
 1389 0162 019B     		ldr	r3, [sp, #4]
 607:lib_Network/network.c ****         IDpacket++;
 1390              		.loc 1 607 0
 1391 0164 013E     		sub	r6, r6, #1
 1392              	.LVL128:
 608:lib_Network/network.c ****     }
 1393              		.loc 1 608 0
 1394 0166 0133     		add	r3, r3, #1
 607:lib_Network/network.c ****         IDpacket++;
 1395              		.loc 1 607 0
 1396 0168 B6B2     		uxth	r6, r6
 1397              	.LVL129:
 608:lib_Network/network.c ****     }
 1398              		.loc 1 608 0
 1399 016a 9BB2     		uxth	r3, r3
 1400 016c 9AE7     		b	.L145
 1401              	.LVL130:
 1402              	.L120:
 1403              	.LBE10:
 629:lib_Network/network.c ****     IDpacket = 0;
 1404              		.loc 1 629 0
 1405 016e 0122     		mov	r2, #1
 1406 0170 234B     		ldr	r3, .L148
 1407 0172 1A70     		strb	r2, [r3]
 1408              	.LVL131:
 1409 0174 0293     		str	r3, [sp, #8]
 1410              	.LVL132:
 1411              	.L123:
 632:lib_Network/network.c ****     {
 1412              		.loc 1 632 0
 1413 0176 002E     		cmp	r6, #0
 1414 0178 3AD0     		beq	.L147
 1415              	.LVL133:
 1416              	.LBB11:
 643:lib_Network/network.c ****         
 1417              		.loc 1 643 0
 1418 017a 0020     		mov	r0, #0
 1419 017c 019B     		ldr	r3, [sp, #4]
 1420 017e 021C     		mov	r2, r0
 1421 0180 5942     		neg	r1, r3
 1422 0182 89B2     		uxth	r1, r1
 1423 0184 FFF7FEFF 		bl	NTPsendTime
 1424              	.LVL134:
 646:lib_Network/network.c ****         delayReceivePacket += RTCgetRecentMs();
 1425              		.loc 1 646 0
 1426 0188 FFF7FEFF 		bl	RTCGetUnixTime
 1427              	.LVL135:
 1428 018c 071C     		mov	r7, r0
 1429              	.LVL136:
 647:lib_Network/network.c ****         
 1430              		.loc 1 647 0
 1431 018e FFF7FEFF 		bl	RTCgetRecentMs
 1432              	.LVL137:
 1433 0192 FA23     		mov	r3, #250
 634:lib_Network/network.c ****         
 1434              		.loc 1 634 0
ARM GAS  C:\Users\Petro\AppData\Local\Temp\ccTXtr83.s 			page 43


 1435 0194 0024     		mov	r4, #0
 647:lib_Network/network.c ****         
 1436              		.loc 1 647 0
 1437 0196 9B00     		lsl	r3, r3, #2
 1438 0198 C518     		add	r5, r0, r3
 1439 019a ADB2     		uxth	r5, r5
 1440              	.LVL138:
 1441              	.L124:
 655:lib_Network/network.c ****         {
 1442              		.loc 1 655 0
 1443 019c FFF7FEFF 		bl	RTCgetRecentMs
 1444              	.LVL139:
 1445 01a0 A842     		cmp	r0, r5
 1446 01a2 1DD2     		bcs	.L128
 655:lib_Network/network.c ****         {
 1447              		.loc 1 655 0 is_stmt 0 discriminator 1
 1448 01a4 012C     		cmp	r4, #1
 1449 01a6 21D0     		beq	.L136
 1450 01a8 0024     		mov	r4, #0
 1451              	.LVL140:
 657:lib_Network/network.c ****             {
 1452              		.loc 1 657 0 is_stmt 1
 1453 01aa 194B     		ldr	r3, .L148+16
 1454 01ac 1A78     		ldrb	r2, [r3]
 1455 01ae A242     		cmp	r2, r4
 1456 01b0 08D0     		beq	.L125
 659:lib_Network/network.c ****                 
 1457              		.loc 1 659 0
 1458 01b2 1C70     		strb	r4, [r3]
 661:lib_Network/network.c ****                 {
 1459              		.loc 1 661 0
 1460 01b4 174B     		ldr	r3, .L148+20
 671:lib_Network/network.c ****             }
 1461              		.loc 1 671 0
 1462 01b6 029A     		ldr	r2, [sp, #8]
 661:lib_Network/network.c ****                 {
 1463              		.loc 1 661 0
 1464 01b8 1C88     		ldrh	r4, [r3]
 671:lib_Network/network.c ****             }
 1465              		.loc 1 671 0
 1466 01ba 0123     		mov	r3, #1
 661:lib_Network/network.c ****                 {
 1467              		.loc 1 661 0
 1468 01bc 6042     		neg	r0, r4
 1469 01be 4441     		adc	r4, r4, r0
 671:lib_Network/network.c ****             }
 1470              		.loc 1 671 0
 1471 01c0 1370     		strb	r3, [r2]
 663:lib_Network/network.c ****                 }
 1472              		.loc 1 663 0
 1473 01c2 A4B2     		uxth	r4, r4
 1474              	.LVL141:
 1475              	.L125:
 674:lib_Network/network.c ****             {
 1476              		.loc 1 674 0
 1477 01c4 FFF7FEFF 		bl	RTCGetUnixTime
 1478              	.LVL142:
ARM GAS  C:\Users\Petro\AppData\Local\Temp\ccTXtr83.s 			page 44


 1479 01c8 0029     		cmp	r1, #0
 1480 01ca 01D1     		bne	.L139
 1481 01cc B842     		cmp	r0, r7
 1482 01ce E5D9     		bls	.L124
 1483              	.L139:
 674:lib_Network/network.c ****             {
 1484              		.loc 1 674 0 is_stmt 0 discriminator 1
 1485 01d0 114B     		ldr	r3, .L148+24
 1486 01d2 9D42     		cmp	r5, r3
 1487 01d4 E2D9     		bls	.L124
 676:lib_Network/network.c ****                 oldUnixTime++;
 1488              		.loc 1 676 0 is_stmt 1
 1489 01d6 114B     		ldr	r3, .L148+28
 677:lib_Network/network.c ****                 
 1490              		.loc 1 677 0
 1491 01d8 0137     		add	r7, r7, #1
 1492              	.LVL143:
 676:lib_Network/network.c ****                 oldUnixTime++;
 1493              		.loc 1 676 0
 1494 01da ED18     		add	r5, r5, r3
 1495              	.LVL144:
 1496 01dc ADB2     		uxth	r5, r5
 1497              	.LVL145:
 1498 01de DDE7     		b	.L124
 1499              	.L128:
 1500              	.LVL146:
 688:lib_Network/network.c ****             numAttemptSendPacket = 0;
 1501              		.loc 1 688 0
 1502 01e0 012C     		cmp	r4, #1
 1503 01e2 03D0     		beq	.L136
 687:lib_Network/network.c ****         if(result == OK)
 1504              		.loc 1 687 0
 1505 01e4 013E     		sub	r6, r6, #1
 1506              	.LVL147:
 1507 01e6 B6B2     		uxth	r6, r6
 1508 01e8 0024     		mov	r4, #0
 1509              	.LVL148:
 1510 01ea C4E7     		b	.L123
 1511              	.LVL149:
 1512              	.L136:
 689:lib_Network/network.c ****     }
 1513              		.loc 1 689 0
 1514 01ec 0026     		mov	r6, #0
 1515 01ee C2E7     		b	.L123
 1516              	.LVL150:
 1517              	.L147:
 1518              	.LBE11:
 699:lib_Network/network.c ****         result = TIME_SYNC_OK;
 1519              		.loc 1 699 0
 1520 01f0 601E     		sub	r0, r4, #1
 1521 01f2 441E     		sub	r4, r0, #1
 1522 01f4 A041     		sbc	r0, r0, r4
 1523              	.LVL151:
 704:lib_Network/network.c **** 
 1524              		.loc 1 704 0
 1525 01f6 034B     		ldr	r3, .L148+4
 1526 01f8 1E70     		strb	r6, [r3]
ARM GAS  C:\Users\Petro\AppData\Local\Temp\ccTXtr83.s 			page 45


 707:lib_Network/network.c **** 
 1527              		.loc 1 707 0
 1528 01fa 07B0     		add	sp, sp, #28
 1529              		@ sp needed
 1530              	.LVL152:
 1531 01fc F0BD     		pop	{r4, r5, r6, r7, pc}
 1532              	.L149:
 1533 01fe C046     		.align	2
 1534              	.L148:
 1535 0200 00000000 		.word	ntpFlagReadyForReceive
 1536 0204 00000000 		.word	.LANCHOR0
 1537 0208 00000000 		.word	unixTime
 1538 020c 00000000 		.word	millisTime
 1539 0210 00000000 		.word	ntpFlagEndReceivePacket
 1540 0214 00000000 		.word	recvDataNTP
 1541 0218 E7030000 		.word	999
 1542 021c 18FCFFFF 		.word	-1000
 1543              		.cfi_endproc
 1544              	.LFE75:
 1545              		.size	NTPsync, .-NTPsync
 1546              		.section	.text.ChekTimerForTimeSync,"ax",%progbits
 1547              		.align	1
 1548              		.global	ChekTimerForTimeSync
 1549              		.code	16
 1550              		.thumb_func
 1551              		.type	ChekTimerForTimeSync, %function
 1552              	ChekTimerForTimeSync:
 1553              	.LFB79:
 797:lib_Network/network.c **** 
 798:lib_Network/network.c **** uint8_t ChekTimerForTimeSync(void)
 799:lib_Network/network.c **** {
 1554              		.loc 1 799 0
 1555              		.cfi_startproc
 1556              	.LVL153:
 800:lib_Network/network.c ****     uint8_t result;
 801:lib_Network/network.c ****     
 802:lib_Network/network.c ****     result = SYNC_NO_REQUIRES;
 803:lib_Network/network.c ****     
 804:lib_Network/network.c ****     if((oldUnixTime + TIME_BY_SYNC) < RTC_GetUnixTime())
 1557              		.loc 1 804 0
 1558 0000 074B     		ldr	r3, .L153
 799:lib_Network/network.c ****     uint8_t result;
 1559              		.loc 1 799 0
 1560 0002 10B5     		push	{r4, lr}
 1561              		.cfi_def_cfa_offset 8
 1562              		.cfi_offset 4, -8
 1563              		.cfi_offset 14, -4
 1564              		.loc 1 804 0
 1565 0004 1C68     		ldr	r4, [r3]
 1566 0006 E123     		mov	r3, #225
 1567 0008 DB00     		lsl	r3, r3, #3
 1568 000a E418     		add	r4, r4, r3
 1569 000c FFF7FEFF 		bl	RTC_GetUnixTime
 1570              	.LVL154:
 1571 0010 0123     		mov	r3, #1
 1572 0012 0029     		cmp	r1, #0
 1573 0014 02D1     		bne	.L151
ARM GAS  C:\Users\Petro\AppData\Local\Temp\ccTXtr83.s 			page 46


 1574 0016 8442     		cmp	r4, r0
 1575 0018 A441     		sbc	r4, r4, r4
 1576              	.LVL155:
 1577 001a 2340     		and	r3, r4
 1578              	.L151:
 805:lib_Network/network.c ****     {
 806:lib_Network/network.c ****         result = SYNC_REQUIRES;
 807:lib_Network/network.c ****     }   
 808:lib_Network/network.c ****     
 809:lib_Network/network.c ****     return result;
 1579              		.loc 1 809 0
 1580 001c D8B2     		uxtb	r0, r3
 810:lib_Network/network.c **** }
 1581              		.loc 1 810 0
 1582              		@ sp needed
 1583 001e 10BD     		pop	{r4, pc}
 1584              	.L154:
 1585              		.align	2
 1586              	.L153:
 1587 0020 00000000 		.word	oldUnixTime
 1588              		.cfi_endproc
 1589              	.LFE79:
 1590              		.size	ChekTimerForTimeSync, .-ChekTimerForTimeSync
 1591              		.section	.text.ResetTimerForTimeSync,"ax",%progbits
 1592              		.align	1
 1593              		.global	ResetTimerForTimeSync
 1594              		.code	16
 1595              		.thumb_func
 1596              		.type	ResetTimerForTimeSync, %function
 1597              	ResetTimerForTimeSync:
 1598              	.LFB80:
 811:lib_Network/network.c **** 
 812:lib_Network/network.c **** void ResetTimerForTimeSync(void)
 813:lib_Network/network.c **** {
 1599              		.loc 1 813 0
 1600              		.cfi_startproc
 1601 0000 08B5     		push	{r3, lr}
 1602              		.cfi_def_cfa_offset 8
 1603              		.cfi_offset 3, -8
 1604              		.cfi_offset 14, -4
 814:lib_Network/network.c ****     oldUnixTime = RTC_GetUnixTime();
 1605              		.loc 1 814 0
 1606 0002 FFF7FEFF 		bl	RTC_GetUnixTime
 1607              	.LVL156:
 1608 0006 014B     		ldr	r3, .L156
 815:lib_Network/network.c **** }
 1609              		.loc 1 815 0
 1610              		@ sp needed
 814:lib_Network/network.c ****     oldUnixTime = RTC_GetUnixTime();
 1611              		.loc 1 814 0
 1612 0008 1860     		str	r0, [r3]
 1613              		.loc 1 815 0
 1614 000a 08BD     		pop	{r3, pc}
 1615              	.L157:
 1616              		.align	2
 1617              	.L156:
 1618 000c 00000000 		.word	oldUnixTime
ARM GAS  C:\Users\Petro\AppData\Local\Temp\ccTXtr83.s 			page 47


 1619              		.cfi_endproc
 1620              	.LFE80:
 1621              		.size	ResetTimerForTimeSync, .-ResetTimerForTimeSync
 1622              		.comm	buffNetworkQualyty,1,1
 1623              		.comm	oldUnixTime,4,4
 1624              		.global	onNtpSync
 1625              		.comm	recvDataNTP,24,4
 1626              		.comm	ntpFlagReadyForReceive,1,1
 1627              		.comm	ntpFlagEndReceivePacket,1,1
 1628              		.comm	millisTime,8,2
 1629              		.comm	unixTime,16,4
 1630              		.comm	networkStatus,2,2
 1631              		.comm	noConnect,2,2
 1632              		.comm	numAttemps,2,2
 1633              		.comm	recvData,32,8
 1634              		.comm	networkFlagReadyForReceive,1,1
 1635              		.comm	networkFlagEndReceivePacket,1,1
 1636              		.comm	rebootFlag,1,1
 1637              		.comm	inData,24,8
 1638              		.comm	outData,24,8
 1639              		.comm	currentState,1,1
 1640              		.section	.rodata.str1.1,"aMS",%progbits,1
 1641              	.LC22:
 1642 0000 25303258 		.ascii	"%02X:%016X%02X%02X%02X%02X\000"
 1642      3A253031 
 1642      36582530 
 1642      32582530 
 1642      32582530 
 1643              	.LC46:
 1644 001b 25303858 		.ascii	"%08X%03X\000"
 1644      25303358 
 1644      00
 1645              		.bss
 1646              		.set	.LANCHOR0,. + 0
 1647              		.type	onNtpSync, %object
 1648              		.size	onNtpSync, 1
 1649              	onNtpSync:
 1650 0000 00       		.space	1
 1651              		.type	networkNumTruCounter, %object
 1652              		.size	networkNumTruCounter, 1
 1653              	networkNumTruCounter:
 1654 0001 00       		.space	1
 1655              		.text
 1656              	.Letext0:
 1657              		.file 2 "c:\\program files (x86)\\cypress\\psoc creator\\4.0\\psoc creator\\import\\gnu\\arm\\4.9.
 1658              		.file 3 "c:\\program files (x86)\\cypress\\psoc creator\\4.0\\psoc creator\\import\\gnu\\arm\\4.9.
 1659              		.file 4 "Generated_Source\\PSoC4/cytypes.h"
 1660              		.file 5 "Generated_Source\\PSoC4/CyLFClk.h"
 1661              		.file 6 "./lib_Network\\svt.h"
 1662              		.file 7 "Generated_Source\\PSoC4/ble_Stack.h"
 1663              		.file 8 "./appGlobal.h"
 1664              		.file 9 "./lib_Network\\ntp.h"
 1665              		.file 10 "Generated_Source\\PSoC4/UART_XB_SPI_UART.h"
 1666              		.file 11 "Generated_Source\\PSoC4/RTC.h"
 1667              		.file 12 "./..\\..\\common\\lib\\lib_RTC/RTC_WDT.h"
 1668              		.file 13 "./..\\..\\common\\lib\\lib_DB\\logResult.h"
 1669              		.file 14 "./..\\..\\common\\lib\\lib_DB\\database.h"
ARM GAS  C:\Users\Petro\AppData\Local\Temp\ccTXtr83.s 			page 48


 1670              		.file 15 "./..\\..\\common\\lib\\lib_BLE\\bluetooth.h"
 1671              		.file 16 "Generated_Source\\PSoC4/UART_XB.h"
 1672              		.file 17 "c:\\program files (x86)\\cypress\\psoc creator\\4.0\\psoc creator\\import\\gnu\\arm\\4.9
 1673              		.file 18 "Generated_Source\\PSoC4/CyLib.h"