ARM GAS  C:\Users\Petro\AppData\Local\Temp\ccWJcj1d.s 			page 1


   1              		.cpu cortex-m0
   2              		.fpu softvfp
   3              		.eabi_attribute 20, 1
   4              		.eabi_attribute 21, 1
   5              		.eabi_attribute 23, 3
   6              		.eabi_attribute 24, 1
   7              		.eabi_attribute 25, 1
   8              		.eabi_attribute 26, 1
   9              		.eabi_attribute 30, 4
  10              		.eabi_attribute 34, 0
  11              		.eabi_attribute 18, 4
  12              		.code	16
  13              		.file	"RTC_WDT.c"
  14              		.text
  15              	.Ltext0:
  16              		.cfi_sections	.debug_frame
  17              		.section	.text.CallBackCounter,"ax",%progbits
  18              		.align	1
  19              		.global	CallBackCounter
  20              		.code	16
  21              		.thumb_func
  22              		.type	CallBackCounter, %function
  23              	CallBackCounter:
  24              	.LFB63:
  25              		.file 1 "lib_RTC\\RTC_WDT.c"
   1:lib_RTC/RTC_WDT.c **** #include <RTC.h>
   2:lib_RTC/RTC_WDT.c **** #include "lib_RTC\RTC_WDT.h"
   3:lib_RTC/RTC_WDT.c **** #include "lib_network\network.h"
   4:lib_RTC/RTC_WDT.c **** #include <CyLFClk.h>
   5:lib_RTC/RTC_WDT.c **** 
   6:lib_RTC/RTC_WDT.c **** #define RTC_TIME_FORMAT_SHIFT       (39u)
   7:lib_RTC/RTC_WDT.c **** #define RTC_PERIOD_OF_DAY_SHIFT     (38u)
   8:lib_RTC/RTC_WDT.c **** #define RTC_10_HOURS_SHIFT          (36u)
   9:lib_RTC/RTC_WDT.c **** #define RTC_HOURS_SHIFT             (32u)
  10:lib_RTC/RTC_WDT.c **** #define RTC_10_MINUTES_SHIFT        (28u)
  11:lib_RTC/RTC_WDT.c **** #define RTC_MINUTES_SHIFT           (24u)
  12:lib_RTC/RTC_WDT.c **** #define RTC_10_SECONDS_SHIFT        (20u)
  13:lib_RTC/RTC_WDT.c **** #define RTC_SECONDS_SHIFT           (16u)
  14:lib_RTC/RTC_WDT.c **** #define RTC_100_MILISECONDS_SHIFT   (12u)
  15:lib_RTC/RTC_WDT.c **** #define RTC_10_MILISECONDS_SHIFT    (8u)
  16:lib_RTC/RTC_WDT.c **** #define RTC_MILISECONDS_SHIFT       (0u)
  17:lib_RTC/RTC_WDT.c **** 
  18:lib_RTC/RTC_WDT.c **** #define RTC_MASK_TIME_FORMAT       (0x00000001ull << RTC_TIME_FORMAT_SHIFT )
  19:lib_RTC/RTC_WDT.c **** #define RTC_MASK_PERIOD_OF_DAY     (0x00000001ull << RTC_PERIOD_OF_DAY_SHIFT)
  20:lib_RTC/RTC_WDT.c **** #define RTC_MASK_10_HOURS          (0x00000003ull << RTC_10_HOURS_SHIFT )
  21:lib_RTC/RTC_WDT.c **** #define RTC_MASK_HOURS             (0x0000000Full << RTC_HOURS_SHIFT )
  22:lib_RTC/RTC_WDT.c **** #define RTC_MASK_10_MINUTES        (0x00000007uL << RTC_10_MINUTES_SHIFT )
  23:lib_RTC/RTC_WDT.c **** #define RTC_MASK_MINUTES           (0x0000000FuL << RTC_MINUTES_SHIFT )
  24:lib_RTC/RTC_WDT.c **** #define RTC_MASK_10_SECONDS        (0x00000007uL << RTC_10_SECONDS_SHIFT )
  25:lib_RTC/RTC_WDT.c **** #define RTC_MASK_SECONDS           (0x0000000FuL << RTC_SECONDS_SHIFT )
  26:lib_RTC/RTC_WDT.c **** #define RTC_MASK_100_MILISECONDS    (0x0000000FuL << RTC_100_MILISECONDS_SHIFT )
  27:lib_RTC/RTC_WDT.c **** #define RTC_MASK_10_MILISECONDS     (0x0000000FuL << RTC_10_MILISECONDS_SHIFT )
  28:lib_RTC/RTC_WDT.c **** #define RTC_MASK_MILISECONDS        (0x0000000FuL << RTC_MILISECONDS_SHIFT )
  29:lib_RTC/RTC_WDT.c **** 
  30:lib_RTC/RTC_WDT.c **** 
  31:lib_RTC/RTC_WDT.c **** static uint64_t time;
  32:lib_RTC/RTC_WDT.c **** static uint16_t msRTC = 0;
ARM GAS  C:\Users\Petro\AppData\Local\Temp\ccWJcj1d.s 			page 2


  33:lib_RTC/RTC_WDT.c **** 
  34:lib_RTC/RTC_WDT.c **** 
  35:lib_RTC/RTC_WDT.c **** void CallBackCounter();
  36:lib_RTC/RTC_WDT.c **** 
  37:lib_RTC/RTC_WDT.c **** 
  38:lib_RTC/RTC_WDT.c **** /*******************************************************************************
  39:lib_RTC/RTC_WDT.c **** * Function Name: CallBackCounter
  40:lib_RTC/RTC_WDT.c **** ********************************************************************************
  41:lib_RTC/RTC_WDT.c **** *
  42:lib_RTC/RTC_WDT.c **** * Summary
  43:lib_RTC/RTC_WDT.c **** *  miliseconds counter
  44:lib_RTC/RTC_WDT.c **** *  RTC update each seconds
  45:lib_RTC/RTC_WDT.c **** *
  46:lib_RTC/RTC_WDT.c **** *******************************************************************************/
  47:lib_RTC/RTC_WDT.c **** void CallBackCounter(void)
  48:lib_RTC/RTC_WDT.c **** {
  26              		.loc 1 48 0
  27              		.cfi_startproc
  49:lib_RTC/RTC_WDT.c ****     msRTC++;
  50:lib_RTC/RTC_WDT.c ****     if (msRTC == 1000u) 
  28              		.loc 1 50 0
  29 0000 FA21     		mov	r1, #250
  49:lib_RTC/RTC_WDT.c ****     msRTC++;
  30              		.loc 1 49 0
  31 0002 0A4A     		ldr	r2, .L5
  48:lib_RTC/RTC_WDT.c ****     msRTC++;
  32              		.loc 1 48 0
  33 0004 10B5     		push	{r4, lr}
  34              		.cfi_def_cfa_offset 8
  35              		.cfi_offset 4, -8
  36              		.cfi_offset 14, -4
  49:lib_RTC/RTC_WDT.c ****     msRTC++;
  37              		.loc 1 49 0
  38 0006 1388     		ldrh	r3, [r2]
  39              		.loc 1 50 0
  40 0008 8900     		lsl	r1, r1, #2
  49:lib_RTC/RTC_WDT.c ****     msRTC++;
  41              		.loc 1 49 0
  42 000a 0133     		add	r3, r3, #1
  43 000c 9BB2     		uxth	r3, r3
  44              		.loc 1 50 0
  45 000e 8B42     		cmp	r3, r1
  46 0010 01D0     		beq	.L2
  49:lib_RTC/RTC_WDT.c ****     msRTC++;
  47              		.loc 1 49 0
  48 0012 1380     		strh	r3, [r2]
  49 0014 09E0     		b	.L1
  50              	.L2:
  51              	.LBB12:
  52              	.LBB13:
  51:lib_RTC/RTC_WDT.c ****     {
  52:lib_RTC/RTC_WDT.c ****         msRTC = 0u; 
  53              		.loc 1 52 0
  54 0016 0024     		mov	r4, #0
  55 0018 1480     		strh	r4, [r2]
  53:lib_RTC/RTC_WDT.c ****         RTC_Update();
  56              		.loc 1 53 0
ARM GAS  C:\Users\Petro\AppData\Local\Temp\ccWJcj1d.s 			page 3


  57 001a FFF7FEFF 		bl	RTC_Update
  58              	.LVL0:
  54:lib_RTC/RTC_WDT.c ****         
  55:lib_RTC/RTC_WDT.c ****         #ifdef DEBUG_RTC
  56:lib_RTC/RTC_WDT.c ****             debug_Write(1);
  59              		.loc 1 56 0
  60 001e 0120     		mov	r0, #1
  61 0020 FFF7FEFF 		bl	debug_Write
  62              	.LVL1:
  57:lib_RTC/RTC_WDT.c ****             debug_Write(0);
  63              		.loc 1 57 0
  64 0024 201C     		mov	r0, r4
  65 0026 FFF7FEFF 		bl	debug_Write
  66              	.LVL2:
  67              	.L1:
  68              	.LBE13:
  69              	.LBE12:
  58:lib_RTC/RTC_WDT.c ****         #endif
  59:lib_RTC/RTC_WDT.c ****     }
  60:lib_RTC/RTC_WDT.c **** }
  70              		.loc 1 60 0
  71              		@ sp needed
  72 002a 10BD     		pop	{r4, pc}
  73              	.L6:
  74              		.align	2
  75              	.L5:
  76 002c 00000000 		.word	.LANCHOR0
  77              		.cfi_endproc
  78              	.LFE63:
  79              		.size	CallBackCounter, .-CallBackCounter
  80              		.section	.text.RTC_WDT_Init,"ax",%progbits
  81              		.align	1
  82              		.global	RTC_WDT_Init
  83              		.code	16
  84              		.thumb_func
  85              		.type	RTC_WDT_Init, %function
  86              	RTC_WDT_Init:
  87              	.LFB64:
  61:lib_RTC/RTC_WDT.c **** 
  62:lib_RTC/RTC_WDT.c **** /*******************************************************************************
  63:lib_RTC/RTC_WDT.c **** * Function Name: RTC_WDT_Init
  64:lib_RTC/RTC_WDT.c **** ********************************************************************************
  65:lib_RTC/RTC_WDT.c **** *
  66:lib_RTC/RTC_WDT.c **** * Summary
  67:lib_RTC/RTC_WDT.c **** *  Init watchdog counter
  68:lib_RTC/RTC_WDT.c **** *
  69:lib_RTC/RTC_WDT.c **** *******************************************************************************/
  70:lib_RTC/RTC_WDT.c **** void RTC_WDT_Init(void)
  71:lib_RTC/RTC_WDT.c **** {
  88              		.loc 1 71 0
  89              		.cfi_startproc
  90              	.LVL3:
  91 0000 08B5     		push	{r3, lr}
  92              		.cfi_def_cfa_offset 8
  93              		.cfi_offset 3, -8
  94              		.cfi_offset 14, -4
  72:lib_RTC/RTC_WDT.c ****     void (*CallBackWDT0)(void);   
ARM GAS  C:\Users\Petro\AppData\Local\Temp\ccWJcj1d.s 			page 4


  73:lib_RTC/RTC_WDT.c ****     CallBackWDT0 = CallBackCounter;  
  74:lib_RTC/RTC_WDT.c ****     RTC_Start();
  95              		.loc 1 74 0
  96 0002 FFF7FEFF 		bl	RTC_Start
  97              	.LVL4:
  75:lib_RTC/RTC_WDT.c ****     CySysWdtSetInterruptCallback(0, CallBackWDT0);
  98              		.loc 1 75 0
  99 0006 0020     		mov	r0, #0
 100 0008 0149     		ldr	r1, .L8
 101 000a FFF7FEFF 		bl	CySysWdtSetInterruptCallback
 102              	.LVL5:
  76:lib_RTC/RTC_WDT.c ****     //WDT0_ISR_StartEx(Wdt0_Handler);
  77:lib_RTC/RTC_WDT.c **** }
 103              		.loc 1 77 0
 104              		@ sp needed
 105 000e 08BD     		pop	{r3, pc}
 106              	.L9:
 107              		.align	2
 108              	.L8:
 109 0010 00000000 		.word	CallBackCounter
 110              		.cfi_endproc
 111              	.LFE64:
 112              		.size	RTC_WDT_Init, .-RTC_WDT_Init
 113              		.global	__aeabi_uldivmod
 114              		.global	__aeabi_lmul
 115              		.section	.text.RTCgetTime,"ax",%progbits
 116              		.align	1
 117              		.global	RTCgetTime
 118              		.code	16
 119              		.thumb_func
 120              		.type	RTCgetTime, %function
 121              	RTCgetTime:
 122              	.LFB65:
  78:lib_RTC/RTC_WDT.c **** 
  79:lib_RTC/RTC_WDT.c **** 
  80:lib_RTC/RTC_WDT.c **** /*******************************************************************************
  81:lib_RTC/RTC_WDT.c **** * Function Name: RTCgetTime
  82:lib_RTC/RTC_WDT.c **** ********************************************************************************
  83:lib_RTC/RTC_WDT.c **** *
  84:lib_RTC/RTC_WDT.c **** * Summary
  85:lib_RTC/RTC_WDT.c **** *  Reads the current time.
  86:lib_RTC/RTC_WDT.c **** *
  87:lib_RTC/RTC_WDT.c **** * Return:
  88:lib_RTC/RTC_WDT.c **** *  date: The value of date in the user selected format. The date value is available
  89:lib_RTC/RTC_WDT.c **** *        in the BCD format.
  90:lib_RTC/RTC_WDT.c **** *
  91:lib_RTC/RTC_WDT.c **** *******************************************************************************/
  92:lib_RTC/RTC_WDT.c **** uint64_t RTCgetTime(uint64_t timeFormat)
  93:lib_RTC/RTC_WDT.c **** {
 123              		.loc 1 93 0
 124              		.cfi_startproc
 125              	.LVL6:
 126 0000 F0B5     		push	{r4, r5, r6, r7, lr}
 127              		.cfi_def_cfa_offset 20
 128              		.cfi_offset 4, -20
 129              		.cfi_offset 5, -16
 130              		.cfi_offset 6, -12
ARM GAS  C:\Users\Petro\AppData\Local\Temp\ccWJcj1d.s 			page 5


 131              		.cfi_offset 7, -8
 132              		.cfi_offset 14, -4
 133 0002 89B0     		sub	sp, sp, #36
 134              		.cfi_def_cfa_offset 56
 135              		.loc 1 93 0
 136 0004 071C     		mov	r7, r0
  94:lib_RTC/RTC_WDT.c ****     uint32_t readTime;
  95:lib_RTC/RTC_WDT.c ****     uint64_t hour, min, sec, ms, stateAmPm;
  96:lib_RTC/RTC_WDT.c **** 
  97:lib_RTC/RTC_WDT.c ****     
  98:lib_RTC/RTC_WDT.c ****     readTime = RTC_GetTime();
 137              		.loc 1 98 0
 138 0006 FFF7FEFF 		bl	RTC_GetTime
 139              	.LVL7:
 140              	.LBB25:
 141              	.LBB26:
 142              		.file 2 "Generated_Source\\PSoC4/RTC.h"
   1:Generated_Source\PSoC4/RTC.h **** /***************************************************************************//**
   2:Generated_Source\PSoC4/RTC.h **** * \file Name: RTC.h
   3:Generated_Source\PSoC4/RTC.h **** * \version 1.10
   4:Generated_Source\PSoC4/RTC.h **** *
   5:Generated_Source\PSoC4/RTC.h **** * \brief
   6:Generated_Source\PSoC4/RTC.h **** *  This file provides constants and parameter values for the RTC_P4 Component.
   7:Generated_Source\PSoC4/RTC.h **** *
   8:Generated_Source\PSoC4/RTC.h **** ********************************************************************************
   9:Generated_Source\PSoC4/RTC.h **** * Copyright 2015-2016, Cypress Semiconductor Corporation.  All rights reserved.
  10:Generated_Source\PSoC4/RTC.h **** * You may use this file only in accordance with the license, terms, conditions,
  11:Generated_Source\PSoC4/RTC.h **** * disclaimers, and limitations in the end user license agreement accompanying
  12:Generated_Source\PSoC4/RTC.h **** * the software package with which this file was provided.
  13:Generated_Source\PSoC4/RTC.h **** *******************************************************************************/
  14:Generated_Source\PSoC4/RTC.h **** 
  15:Generated_Source\PSoC4/RTC.h **** #if !defined(CY_RTC_P4_RTC_H)
  16:Generated_Source\PSoC4/RTC.h **** #define CY_RTC_P4_RTC_H
  17:Generated_Source\PSoC4/RTC.h **** 
  18:Generated_Source\PSoC4/RTC.h **** #include <cytypes.h>
  19:Generated_Source\PSoC4/RTC.h **** #include <CyLib.h>
  20:Generated_Source\PSoC4/RTC.h **** 
  21:Generated_Source\PSoC4/RTC.h **** 
  22:Generated_Source\PSoC4/RTC.h **** /*******************************************************************************
  23:Generated_Source\PSoC4/RTC.h **** *    Data types definition
  24:Generated_Source\PSoC4/RTC.h **** *******************************************************************************/
  25:Generated_Source\PSoC4/RTC.h **** 
  26:Generated_Source\PSoC4/RTC.h **** typedef enum
  27:Generated_Source\PSoC4/RTC.h **** {
  28:Generated_Source\PSoC4/RTC.h ****     RTC_DST_DATE_RELATIVE = 0u,
  29:Generated_Source\PSoC4/RTC.h ****     RTC_DST_DATE_FIXED = 1u
  30:Generated_Source\PSoC4/RTC.h **** }RTC_DST_DATETYPE_ENUM;
  31:Generated_Source\PSoC4/RTC.h **** 
  32:Generated_Source\PSoC4/RTC.h **** /**
  33:Generated_Source\PSoC4/RTC.h **** * \addtogroup group_structures
  34:Generated_Source\PSoC4/RTC.h **** * @{
  35:Generated_Source\PSoC4/RTC.h **** */
  36:Generated_Source\PSoC4/RTC.h **** 
  37:Generated_Source\PSoC4/RTC.h **** /**
  38:Generated_Source\PSoC4/RTC.h **** * This is the data structure that is used to save the current time and date 
  39:Generated_Source\PSoC4/RTC.h **** * (RTC_currentTimeDate), and Alarm time and date (RTC_alarmCfgTimeDate).
  40:Generated_Source\PSoC4/RTC.h **** */
ARM GAS  C:\Users\Petro\AppData\Local\Temp\ccWJcj1d.s 			page 6


  41:Generated_Source\PSoC4/RTC.h **** typedef struct
  42:Generated_Source\PSoC4/RTC.h **** {
  43:Generated_Source\PSoC4/RTC.h ****     uint32 time;
  44:Generated_Source\PSoC4/RTC.h ****     uint32 date;
  45:Generated_Source\PSoC4/RTC.h ****     uint32 dayOfWeek;
  46:Generated_Source\PSoC4/RTC.h ****     uint32 status;
  47:Generated_Source\PSoC4/RTC.h **** }RTC_DATE_TIME;
  48:Generated_Source\PSoC4/RTC.h **** 
  49:Generated_Source\PSoC4/RTC.h **** /**
  50:Generated_Source\PSoC4/RTC.h **** * This is the data structure that is used to save time and date values for 
  51:Generated_Source\PSoC4/RTC.h **** * Daylight Savings Time Start and Stop (RTC_dstTimeDateStart and 
  52:Generated_Source\PSoC4/RTC.h **** * RTC_dstTimeDateStop).
  53:Generated_Source\PSoC4/RTC.h **** */
  54:Generated_Source\PSoC4/RTC.h **** typedef struct
  55:Generated_Source\PSoC4/RTC.h **** {
  56:Generated_Source\PSoC4/RTC.h ****     uint32 hour;
  57:Generated_Source\PSoC4/RTC.h ****     uint32 dayOfWeek;
  58:Generated_Source\PSoC4/RTC.h ****     uint32 dayOfMonth;
  59:Generated_Source\PSoC4/RTC.h ****     uint32 weekOfMonth;
  60:Generated_Source\PSoC4/RTC.h ****     uint32 month;
  61:Generated_Source\PSoC4/RTC.h ****     uint8  timeFormat;
  62:Generated_Source\PSoC4/RTC.h **** }RTC_DST_TIME;
  63:Generated_Source\PSoC4/RTC.h **** 
  64:Generated_Source\PSoC4/RTC.h **** /** @} structures */
  65:Generated_Source\PSoC4/RTC.h **** 
  66:Generated_Source\PSoC4/RTC.h **** /*******************************************************************************
  67:Generated_Source\PSoC4/RTC.h **** *    Enumerated Types and Parameters
  68:Generated_Source\PSoC4/RTC.h **** *******************************************************************************/
  69:Generated_Source\PSoC4/RTC.h **** /* Time Format setting constants */
  70:Generated_Source\PSoC4/RTC.h **** #define RTC__HOUR_12 1
  71:Generated_Source\PSoC4/RTC.h **** #define RTC__HOUR_24 0
  72:Generated_Source\PSoC4/RTC.h **** 
  73:Generated_Source\PSoC4/RTC.h **** /*  Date Format setting constants */
  74:Generated_Source\PSoC4/RTC.h **** #define RTC__MM_DD_YYYY 0
  75:Generated_Source\PSoC4/RTC.h **** #define RTC__DD_MM_YYYY 1
  76:Generated_Source\PSoC4/RTC.h **** #define RTC__YYYY_MM_DD 2
  77:Generated_Source\PSoC4/RTC.h **** 
  78:Generated_Source\PSoC4/RTC.h **** /* Date Type setting constants */
  79:Generated_Source\PSoC4/RTC.h **** #define RTC__RELATIVE 0
  80:Generated_Source\PSoC4/RTC.h **** #define RTC__FIXED 1
  81:Generated_Source\PSoC4/RTC.h **** 
  82:Generated_Source\PSoC4/RTC.h **** /* DST Hour setting constants */
  83:Generated_Source\PSoC4/RTC.h **** #define RTC__H0000 0
  84:Generated_Source\PSoC4/RTC.h **** #define RTC__H0100 1
  85:Generated_Source\PSoC4/RTC.h **** #define RTC__H0200 2
  86:Generated_Source\PSoC4/RTC.h **** #define RTC__H0300 3
  87:Generated_Source\PSoC4/RTC.h **** #define RTC__H0400 4
  88:Generated_Source\PSoC4/RTC.h **** #define RTC__H0500 5
  89:Generated_Source\PSoC4/RTC.h **** #define RTC__H0600 6
  90:Generated_Source\PSoC4/RTC.h **** #define RTC__H0700 7
  91:Generated_Source\PSoC4/RTC.h **** #define RTC__H0800 8
  92:Generated_Source\PSoC4/RTC.h **** #define RTC__H0900 9
  93:Generated_Source\PSoC4/RTC.h **** #define RTC__H1000 10
  94:Generated_Source\PSoC4/RTC.h **** #define RTC__H1100 11
  95:Generated_Source\PSoC4/RTC.h **** #define RTC__H1200 12
  96:Generated_Source\PSoC4/RTC.h **** #define RTC__H1300 13
  97:Generated_Source\PSoC4/RTC.h **** #define RTC__H1400 14
ARM GAS  C:\Users\Petro\AppData\Local\Temp\ccWJcj1d.s 			page 7


  98:Generated_Source\PSoC4/RTC.h **** #define RTC__H1500 15
  99:Generated_Source\PSoC4/RTC.h **** #define RTC__H1600 16
 100:Generated_Source\PSoC4/RTC.h **** #define RTC__H1700 17
 101:Generated_Source\PSoC4/RTC.h **** #define RTC__H1800 18
 102:Generated_Source\PSoC4/RTC.h **** #define RTC__H1900 19
 103:Generated_Source\PSoC4/RTC.h **** #define RTC__H2000 20
 104:Generated_Source\PSoC4/RTC.h **** #define RTC__H2100 21
 105:Generated_Source\PSoC4/RTC.h **** #define RTC__H2200 22
 106:Generated_Source\PSoC4/RTC.h **** #define RTC__H2300 23
 107:Generated_Source\PSoC4/RTC.h **** 
 108:Generated_Source\PSoC4/RTC.h **** /* DST DayOfWeek setting constants */
 109:Generated_Source\PSoC4/RTC.h **** #define RTC__SUNDAY 1
 110:Generated_Source\PSoC4/RTC.h **** #define RTC__MONDAY 2
 111:Generated_Source\PSoC4/RTC.h **** #define RTC__TUESDAY 3
 112:Generated_Source\PSoC4/RTC.h **** #define RTC__WEDNESDAY 4
 113:Generated_Source\PSoC4/RTC.h **** #define RTC__THURSDAY 5
 114:Generated_Source\PSoC4/RTC.h **** #define RTC__FRIDAY 6
 115:Generated_Source\PSoC4/RTC.h **** #define RTC__SATURDAY 7
 116:Generated_Source\PSoC4/RTC.h **** 
 117:Generated_Source\PSoC4/RTC.h **** /* DST Month setting constants */
 118:Generated_Source\PSoC4/RTC.h **** #define RTC__JAN 1
 119:Generated_Source\PSoC4/RTC.h **** #define RTC__FEB 2
 120:Generated_Source\PSoC4/RTC.h **** #define RTC__MAR 3
 121:Generated_Source\PSoC4/RTC.h **** #define RTC__APR 4
 122:Generated_Source\PSoC4/RTC.h **** #define RTC__MAY 5
 123:Generated_Source\PSoC4/RTC.h **** #define RTC__JUN 6
 124:Generated_Source\PSoC4/RTC.h **** #define RTC__JUL 7
 125:Generated_Source\PSoC4/RTC.h **** #define RTC__AUG 8
 126:Generated_Source\PSoC4/RTC.h **** #define RTC__SEP 9
 127:Generated_Source\PSoC4/RTC.h **** #define RTC__OCT 10
 128:Generated_Source\PSoC4/RTC.h **** #define RTC__NOV 11
 129:Generated_Source\PSoC4/RTC.h **** #define RTC__DEC 12
 130:Generated_Source\PSoC4/RTC.h **** 
 131:Generated_Source\PSoC4/RTC.h **** /* DST WeekOfMonth setting constants */
 132:Generated_Source\PSoC4/RTC.h **** #define RTC__FIRST 1
 133:Generated_Source\PSoC4/RTC.h **** #define RTC__SECOND 2
 134:Generated_Source\PSoC4/RTC.h **** #define RTC__THIRD 3
 135:Generated_Source\PSoC4/RTC.h **** #define RTC__FOURTH 4
 136:Generated_Source\PSoC4/RTC.h **** #define RTC__FIFTH 5
 137:Generated_Source\PSoC4/RTC.h **** #define RTC__LAST 6
 138:Generated_Source\PSoC4/RTC.h **** 
 139:Generated_Source\PSoC4/RTC.h **** 
 140:Generated_Source\PSoC4/RTC.h **** #define RTC_INITIAL_DATA_FORMAT     (0u)
 141:Generated_Source\PSoC4/RTC.h **** #define RTC_INITIAL_TIME_FORMAT     (0u)
 142:Generated_Source\PSoC4/RTC.h **** #define RTC_INITIAL_UPDATE_MODE     (0u)
 143:Generated_Source\PSoC4/RTC.h **** #define RTC_INITIAL_SECOND          (0u)
 144:Generated_Source\PSoC4/RTC.h **** #define RTC_INITIAL_MINUTE          (16u)
 145:Generated_Source\PSoC4/RTC.h **** #define RTC_INITIAL_HOUR            (10u)
 146:Generated_Source\PSoC4/RTC.h **** #define RTC_INITIAL_DAY             (9u)
 147:Generated_Source\PSoC4/RTC.h **** #define RTC_INITIAL_MONTH           (8u)
 148:Generated_Source\PSoC4/RTC.h **** #define RTC_INITIAL_YEAR            (2016u)
 149:Generated_Source\PSoC4/RTC.h **** 
 150:Generated_Source\PSoC4/RTC.h **** #define RTC_INITIAL_ALARM_STATUS    (0u)
 151:Generated_Source\PSoC4/RTC.h **** 
 152:Generated_Source\PSoC4/RTC.h **** #define RTC_INITIAL_DST_STATUS      (0u)
 153:Generated_Source\PSoC4/RTC.h **** #define RTC_INITIAL_DST_DATE_TYPE   (0u)
 154:Generated_Source\PSoC4/RTC.h **** #define RTC_INITIAL_DST_START_MONTH (3uL)
ARM GAS  C:\Users\Petro\AppData\Local\Temp\ccWJcj1d.s 			page 8


 155:Generated_Source\PSoC4/RTC.h **** #define RTC_INITIAL_DST_START_WOM   (6uL)
 156:Generated_Source\PSoC4/RTC.h **** #define RTC_INITIAL_DST_START_DOM   (22uL)
 157:Generated_Source\PSoC4/RTC.h **** #define RTC_INITIAL_DST_START_DOW   (1uL)
 158:Generated_Source\PSoC4/RTC.h **** #define RTC_INITIAL_DST_START_HRS   (0uL)
 159:Generated_Source\PSoC4/RTC.h **** #define RTC_INITIAL_DST_STOP_MONTH  (10uL)
 160:Generated_Source\PSoC4/RTC.h **** #define RTC_INITIAL_DST_STOP_DOM    (22uL)
 161:Generated_Source\PSoC4/RTC.h **** #define RTC_INITIAL_DST_STOP_DOW    (1uL)
 162:Generated_Source\PSoC4/RTC.h **** #define RTC_INITIAL_DST_STOP_WOM    (6uL)
 163:Generated_Source\PSoC4/RTC.h **** #define RTC_INITIAL_DST_STOP_HRS    (0uL)
 164:Generated_Source\PSoC4/RTC.h **** 
 165:Generated_Source\PSoC4/RTC.h **** /* Day of week definitions */
 166:Generated_Source\PSoC4/RTC.h **** #define RTC_SUNDAY     (RTC__SUNDAY)
 167:Generated_Source\PSoC4/RTC.h **** #define RTC_MONDAY     (RTC__MONDAY)
 168:Generated_Source\PSoC4/RTC.h **** #define RTC_TUESDAY    (RTC__TUESDAY)
 169:Generated_Source\PSoC4/RTC.h **** #define RTC_WEDNESDAY  (RTC__WEDNESDAY)
 170:Generated_Source\PSoC4/RTC.h **** #define RTC_THURSDAY   (RTC__THURSDAY)
 171:Generated_Source\PSoC4/RTC.h **** #define RTC_FRIDAY     (RTC__FRIDAY)
 172:Generated_Source\PSoC4/RTC.h **** #define RTC_SATURDAY   (RTC__SATURDAY)
 173:Generated_Source\PSoC4/RTC.h **** 
 174:Generated_Source\PSoC4/RTC.h **** /* DST WeekOfMonth setting constants definitions */
 175:Generated_Source\PSoC4/RTC.h **** #define RTC_FIRST      (RTC__FIRST)
 176:Generated_Source\PSoC4/RTC.h **** #define RTC_SECOND     (RTC__SECOND)
 177:Generated_Source\PSoC4/RTC.h **** #define RTC_THIRD      (RTC__THIRD)
 178:Generated_Source\PSoC4/RTC.h **** #define RTC_FOURTH     (RTC__FOURTH)
 179:Generated_Source\PSoC4/RTC.h **** #define RTC_FIFTH      (RTC__FIFTH)
 180:Generated_Source\PSoC4/RTC.h **** #define RTC_LAST       (RTC__LAST)
 181:Generated_Source\PSoC4/RTC.h **** 
 182:Generated_Source\PSoC4/RTC.h **** /* Month definitions */
 183:Generated_Source\PSoC4/RTC.h **** #define RTC_JANUARY    (RTC__JAN)
 184:Generated_Source\PSoC4/RTC.h **** #define RTC_FEBRUARY   (RTC__FEB)
 185:Generated_Source\PSoC4/RTC.h **** #define RTC_MARCH      (RTC__MAR)
 186:Generated_Source\PSoC4/RTC.h **** #define RTC_APRIL      (RTC__APR)
 187:Generated_Source\PSoC4/RTC.h **** #define RTC_MAY        (RTC__MAY)
 188:Generated_Source\PSoC4/RTC.h **** #define RTC_JUNE       (RTC__JUN)
 189:Generated_Source\PSoC4/RTC.h **** #define RTC_JULY       (RTC__JUL)
 190:Generated_Source\PSoC4/RTC.h **** #define RTC_AUGUST     (RTC__AUG)
 191:Generated_Source\PSoC4/RTC.h **** #define RTC_SEPTEMBER  (RTC__SEP)
 192:Generated_Source\PSoC4/RTC.h **** #define RTC_OCTOBER    (RTC__OCT)
 193:Generated_Source\PSoC4/RTC.h **** #define RTC_NOVEMBER   (RTC__NOV)
 194:Generated_Source\PSoC4/RTC.h **** #define RTC_DECEMBER   (RTC__DEC)
 195:Generated_Source\PSoC4/RTC.h **** 
 196:Generated_Source\PSoC4/RTC.h **** #define RTC_DAYS_PER_WEEK       (7u)
 197:Generated_Source\PSoC4/RTC.h **** 
 198:Generated_Source\PSoC4/RTC.h **** /* Number of days in month definitions */
 199:Generated_Source\PSoC4/RTC.h **** #define RTC_DAYS_IN_JANUARY     (31u)
 200:Generated_Source\PSoC4/RTC.h **** #define RTC_DAYS_IN_FEBRUARY    (28u)
 201:Generated_Source\PSoC4/RTC.h **** #define RTC_DAYS_IN_MARCH       (31u)
 202:Generated_Source\PSoC4/RTC.h **** #define RTC_DAYS_IN_APRIL       (30u)
 203:Generated_Source\PSoC4/RTC.h **** #define RTC_DAYS_IN_MAY         (31u)
 204:Generated_Source\PSoC4/RTC.h **** #define RTC_DAYS_IN_JUNE        (30u)
 205:Generated_Source\PSoC4/RTC.h **** #define RTC_DAYS_IN_JULY        (31u)
 206:Generated_Source\PSoC4/RTC.h **** #define RTC_DAYS_IN_AUGUST      (31u)
 207:Generated_Source\PSoC4/RTC.h **** #define RTC_DAYS_IN_SEPTEMBER   (30u)
 208:Generated_Source\PSoC4/RTC.h **** #define RTC_DAYS_IN_OCTOBER     (31u)
 209:Generated_Source\PSoC4/RTC.h **** #define RTC_DAYS_IN_NOVEMBER    (30u)
 210:Generated_Source\PSoC4/RTC.h **** #define RTC_DAYS_IN_DECEMBER    (31u)
 211:Generated_Source\PSoC4/RTC.h **** 
ARM GAS  C:\Users\Petro\AppData\Local\Temp\ccWJcj1d.s 			page 9


 212:Generated_Source\PSoC4/RTC.h **** #define RTC_MONTHS_PER_YEAR     (12uL)
 213:Generated_Source\PSoC4/RTC.h **** 
 214:Generated_Source\PSoC4/RTC.h **** #define RTC_HOURS_PER_DAY       (24uL)
 215:Generated_Source\PSoC4/RTC.h **** #define RTC_HOURS_PER_HALF_DAY  (12uL)
 216:Generated_Source\PSoC4/RTC.h **** 
 217:Generated_Source\PSoC4/RTC.h **** #define RTC_SECONDS_PER_MINUTE  (60uL)
 218:Generated_Source\PSoC4/RTC.h **** #define RTC_SECONDS_PER_HOUR    (3600uL)
 219:Generated_Source\PSoC4/RTC.h **** #define RTC_SECONDS_PER_DAY     (24uL * 3600uL)
 220:Generated_Source\PSoC4/RTC.h **** 
 221:Generated_Source\PSoC4/RTC.h **** #define RTC_SECONDS_PER_LEAP_YEAR    (366uL * 24uL * 3600uL)
 222:Generated_Source\PSoC4/RTC.h **** #define RTC_SECONDS_PER_NONLEAP_YEAR (365uL * 24uL * 3600uL)
 223:Generated_Source\PSoC4/RTC.h **** 
 224:Generated_Source\PSoC4/RTC.h **** #define RTC_UNIX_TIME_PM   ((12uL * 3600uL) + 1uL)
 225:Generated_Source\PSoC4/RTC.h **** 
 226:Generated_Source\PSoC4/RTC.h **** /* AM/PM status definitions */
 227:Generated_Source\PSoC4/RTC.h **** #define RTC_AM                 (0u)
 228:Generated_Source\PSoC4/RTC.h **** #define RTC_PM                 (1u)
 229:Generated_Source\PSoC4/RTC.h **** 
 230:Generated_Source\PSoC4/RTC.h **** /* Time format definitions */
 231:Generated_Source\PSoC4/RTC.h **** #define RTC_12_HOURS_FORMAT    (RTC__HOUR_12)
 232:Generated_Source\PSoC4/RTC.h **** #define RTC_24_HOURS_FORMAT    (RTC__HOUR_24)
 233:Generated_Source\PSoC4/RTC.h **** 
 234:Generated_Source\PSoC4/RTC.h **** /* UNIX time begins in 1970 year.  */
 235:Generated_Source\PSoC4/RTC.h **** #define RTC_YEAR_0             (1970u)
 236:Generated_Source\PSoC4/RTC.h **** 
 237:Generated_Source\PSoC4/RTC.h **** /* Definition of date register fields */
 238:Generated_Source\PSoC4/RTC.h **** #if(RTC_INITIAL_DATA_FORMAT == RTC__MM_DD_YYYY)
 239:Generated_Source\PSoC4/RTC.h ****     #define RTC_10_MONTH_OFFSET   (28u)
 240:Generated_Source\PSoC4/RTC.h ****     #define RTC_MONTH_OFFSET      (24u)
 241:Generated_Source\PSoC4/RTC.h ****     #define RTC_10_DAY_OFFSET     (20u)
 242:Generated_Source\PSoC4/RTC.h ****     #define RTC_DAY_OFFSET        (16u)
 243:Generated_Source\PSoC4/RTC.h ****     #define RTC_1000_YEAR_OFFSET  (12u)
 244:Generated_Source\PSoC4/RTC.h ****     #define RTC_100_YEAR_OFFSET   (8u)
 245:Generated_Source\PSoC4/RTC.h ****     #define RTC_10_YEAR_OFFSET    (4u)
 246:Generated_Source\PSoC4/RTC.h ****     #define RTC_YEAR_OFFSET       (0u)
 247:Generated_Source\PSoC4/RTC.h **** #elif(RTC_INITIAL_DATA_FORMAT == RTC__DD_MM_YYYY)
 248:Generated_Source\PSoC4/RTC.h ****     #define RTC_10_MONTH_OFFSET   (20u)
 249:Generated_Source\PSoC4/RTC.h ****     #define RTC_MONTH_OFFSET      (16u)
 250:Generated_Source\PSoC4/RTC.h ****     #define RTC_10_DAY_OFFSET     (28u)
 251:Generated_Source\PSoC4/RTC.h ****     #define RTC_DAY_OFFSET        (24u)
 252:Generated_Source\PSoC4/RTC.h ****     #define RTC_1000_YEAR_OFFSET  (12u)
 253:Generated_Source\PSoC4/RTC.h ****     #define RTC_100_YEAR_OFFSET   (8u)
 254:Generated_Source\PSoC4/RTC.h ****     #define RTC_10_YEAR_OFFSET    (4u)
 255:Generated_Source\PSoC4/RTC.h ****     #define RTC_YEAR_OFFSET       (0u)
 256:Generated_Source\PSoC4/RTC.h **** #else
 257:Generated_Source\PSoC4/RTC.h ****     #define RTC_10_MONTH_OFFSET   (12u)
 258:Generated_Source\PSoC4/RTC.h ****     #define RTC_MONTH_OFFSET      (8u)
 259:Generated_Source\PSoC4/RTC.h ****     #define RTC_10_DAY_OFFSET     (4u)
 260:Generated_Source\PSoC4/RTC.h ****     #define RTC_DAY_OFFSET        (0u)
 261:Generated_Source\PSoC4/RTC.h ****     #define RTC_1000_YEAR_OFFSET  (28u)
 262:Generated_Source\PSoC4/RTC.h ****     #define RTC_100_YEAR_OFFSET   (24u)
 263:Generated_Source\PSoC4/RTC.h ****     #define RTC_10_YEAR_OFFSET    (20u)
 264:Generated_Source\PSoC4/RTC.h ****     #define RTC_YEAR_OFFSET       (16u)
 265:Generated_Source\PSoC4/RTC.h **** #endif /* (RTC_INITIAL_DATA_FORMAT == RTC__MM_DD_YYYY) */
 266:Generated_Source\PSoC4/RTC.h **** 
 267:Generated_Source\PSoC4/RTC.h **** #define RTC_10_MONTH_MASK          (0x00000001uL << RTC_10_MONTH_OFFSET)
 268:Generated_Source\PSoC4/RTC.h **** #define RTC_MONTH_MASK             (0x0000000FuL << RTC_MONTH_OFFSET)
ARM GAS  C:\Users\Petro\AppData\Local\Temp\ccWJcj1d.s 			page 10


 269:Generated_Source\PSoC4/RTC.h **** #define RTC_10_DAY_MASK            (0x00000003uL << RTC_10_DAY_OFFSET)
 270:Generated_Source\PSoC4/RTC.h **** #define RTC_DAY_MASK               (0x0000000FuL << RTC_DAY_OFFSET)
 271:Generated_Source\PSoC4/RTC.h **** #define RTC_1000_YEAR_MASK         (0x00000003uL << RTC_1000_YEAR_OFFSET)
 272:Generated_Source\PSoC4/RTC.h **** #define RTC_100_YEAR_MASK          (0x0000000FuL << RTC_100_YEAR_OFFSET)
 273:Generated_Source\PSoC4/RTC.h **** #define RTC_10_YEAR_MASK           (0x0000000FuL << RTC_10_YEAR_OFFSET)
 274:Generated_Source\PSoC4/RTC.h **** #define RTC_YEAR_MASK              (0x0000000FuL << RTC_YEAR_OFFSET)
 275:Generated_Source\PSoC4/RTC.h **** 
 276:Generated_Source\PSoC4/RTC.h **** #define  RTC_MONTH_FULL_MASK       (RTC_10_MONTH_MASK  | RTC_MONTH_MASK)
 277:Generated_Source\PSoC4/RTC.h **** #define  RTC_DAY_FULL_MASK         (RTC_10_DAY_MASK    | RTC_DAY_MASK)
 278:Generated_Source\PSoC4/RTC.h **** #define  RTC_YEAR_FULL_MASK        (RTC_1000_YEAR_MASK | RTC_100_YEAR_MASK |\
 279:Generated_Source\PSoC4/RTC.h ****                                                  RTC_10_YEAR_MASK   | RTC_YEAR_MASK)
 280:Generated_Source\PSoC4/RTC.h **** 
 281:Generated_Source\PSoC4/RTC.h **** 
 282:Generated_Source\PSoC4/RTC.h **** /* Definition of time register fields */
 283:Generated_Source\PSoC4/RTC.h **** #define RTC_TIME_FORMAT_OFFSET     (23u)
 284:Generated_Source\PSoC4/RTC.h **** #define RTC_PERIOD_OF_DAY_OFFSET   (22u)
 285:Generated_Source\PSoC4/RTC.h **** #define RTC_10_HOURS_OFFSET        (20u)
 286:Generated_Source\PSoC4/RTC.h **** #define RTC_HOURS_OFFSET           (16u)
 287:Generated_Source\PSoC4/RTC.h **** #define RTC_10_MINUTES_OFFSET      (12u)
 288:Generated_Source\PSoC4/RTC.h **** #define RTC_MINUTES_OFFSET         (8u)
 289:Generated_Source\PSoC4/RTC.h **** #define RTC_10_SECONDS_OFFSET      (4u)
 290:Generated_Source\PSoC4/RTC.h **** #define RTC_SECONDS_OFFSET         (0u)
 291:Generated_Source\PSoC4/RTC.h **** 
 292:Generated_Source\PSoC4/RTC.h **** #define RTC_TIME_FORMAT_MASK       (0x00000001uL << RTC_TIME_FORMAT_OFFSET)
 293:Generated_Source\PSoC4/RTC.h **** #define RTC_PERIOD_OF_DAY_MASK     (0x00000001uL << RTC_PERIOD_OF_DAY_OFFSET)
 294:Generated_Source\PSoC4/RTC.h **** #define RTC_10_HOURS_MASK          (0x00000003uL << RTC_10_HOURS_OFFSET)
 295:Generated_Source\PSoC4/RTC.h **** #define RTC_HOURS_MASK             (0x0000000FuL << RTC_HOURS_OFFSET)
 296:Generated_Source\PSoC4/RTC.h **** #define RTC_10_MINUTES_MASK        (0x00000007uL << RTC_10_MINUTES_OFFSET)
 297:Generated_Source\PSoC4/RTC.h **** #define RTC_MINUTES_MASK           (0x0000000FuL << RTC_MINUTES_OFFSET)
 298:Generated_Source\PSoC4/RTC.h **** #define RTC_10_SECONDS_MASK        (0x00000007uL << RTC_10_SECONDS_OFFSET)
 299:Generated_Source\PSoC4/RTC.h **** #define RTC_SECONDS_MASK           (0x0000000FuL << RTC_SECONDS_OFFSET)
 300:Generated_Source\PSoC4/RTC.h **** 
 301:Generated_Source\PSoC4/RTC.h **** #define RTC_HOURS_FULL_MASK        (RTC_10_HOURS_MASK   | RTC_HOURS_MASK)
 302:Generated_Source\PSoC4/RTC.h **** #define RTC_MINUTES_FULL_MASK      (RTC_10_MINUTES_MASK | RTC_MINUTES_MASK)
 303:Generated_Source\PSoC4/RTC.h **** #define RTC_SECONDS_FULL_MASK      (RTC_10_SECONDS_MASK | RTC_SECONDS_MASK)
 304:Generated_Source\PSoC4/RTC.h **** 
 305:Generated_Source\PSoC4/RTC.h **** #define RTC_ALARM_SEC_MASK         (0x00000001uL)
 306:Generated_Source\PSoC4/RTC.h **** #define RTC_ALARM_MIN_MASK         (0x00000002uL)
 307:Generated_Source\PSoC4/RTC.h **** #define RTC_ALARM_HOUR_MASK        (0x00000004uL)
 308:Generated_Source\PSoC4/RTC.h **** #define RTC_ALARM_DAYOFWEEK_MASK   (0x00000008uL)
 309:Generated_Source\PSoC4/RTC.h **** #define RTC_ALARM_DAYOFMONTH_MASK  (0x00000010uL)
 310:Generated_Source\PSoC4/RTC.h **** #define RTC_ALARM_MONTH_MASK       (0x00000020uL)
 311:Generated_Source\PSoC4/RTC.h **** #define RTC_ALARM_YEAR_MASK        (0x00000040uL)
 312:Generated_Source\PSoC4/RTC.h **** 
 313:Generated_Source\PSoC4/RTC.h **** #define RTC_STATUS_DST_OFFSET      (1u)
 314:Generated_Source\PSoC4/RTC.h **** #define RTC_STATUS_ALARM_OFFSET    (2u)
 315:Generated_Source\PSoC4/RTC.h **** #define RTC_STATUS_LY_OFFSET       (3u)
 316:Generated_Source\PSoC4/RTC.h **** #define RTC_STATUS_AM_PM_OFFSET    (4u)
 317:Generated_Source\PSoC4/RTC.h **** 
 318:Generated_Source\PSoC4/RTC.h **** /* Definition of the RTC status values. */
 319:Generated_Source\PSoC4/RTC.h **** #define RTC_STATUS_DST             (1uL << RTC_STATUS_DST_OFFSET)
 320:Generated_Source\PSoC4/RTC.h **** #define RTC_STATUS_LY              (1uL << RTC_STATUS_LY_OFFSET)
 321:Generated_Source\PSoC4/RTC.h **** #define RTC_STATUS_AM_PM           (1uL << RTC_STATUS_AM_PM_OFFSET)
 322:Generated_Source\PSoC4/RTC.h **** 
 323:Generated_Source\PSoC4/RTC.h **** /* Number of bits per one BCD digit. */
 324:Generated_Source\PSoC4/RTC.h **** #define RTC_BCD_NUMBER_SIZE        (4u)
 325:Generated_Source\PSoC4/RTC.h **** #define RTC_BCD_ONE_DIGIT_MASK     (0x0000000FuL)
ARM GAS  C:\Users\Petro\AppData\Local\Temp\ccWJcj1d.s 			page 11


 326:Generated_Source\PSoC4/RTC.h **** 
 327:Generated_Source\PSoC4/RTC.h **** /*******************************************************************************
 328:Generated_Source\PSoC4/RTC.h **** *    Function Prototypes
 329:Generated_Source\PSoC4/RTC.h **** *******************************************************************************/
 330:Generated_Source\PSoC4/RTC.h **** /**
 331:Generated_Source\PSoC4/RTC.h **** * \addtogroup group_api
 332:Generated_Source\PSoC4/RTC.h **** * @{
 333:Generated_Source\PSoC4/RTC.h **** */
 334:Generated_Source\PSoC4/RTC.h **** void   RTC_Start(void);
 335:Generated_Source\PSoC4/RTC.h **** void   RTC_Stop(void);
 336:Generated_Source\PSoC4/RTC.h **** void   RTC_Init(void);
 337:Generated_Source\PSoC4/RTC.h **** void   RTC_SetUnixTime(uint64 unixTime);
 338:Generated_Source\PSoC4/RTC.h **** uint64 RTC_GetUnixTime(void);
 339:Generated_Source\PSoC4/RTC.h **** void   RTC_SetPeriod(uint32 ticks, uint32 refOneSecTicks);
 340:Generated_Source\PSoC4/RTC.h **** uint32 RTC_GetPeriod(void);
 341:Generated_Source\PSoC4/RTC.h **** uint32 RTC_GetRefOneSec(void);
 342:Generated_Source\PSoC4/RTC.h **** void   RTC_SetDateAndTime(uint32 inputTime, uint32 inputDate);
 343:Generated_Source\PSoC4/RTC.h **** void   RTC_GetDateAndTime(RTC_DATE_TIME* dateTime);
 344:Generated_Source\PSoC4/RTC.h **** uint32 RTC_GetTime(void);
 345:Generated_Source\PSoC4/RTC.h **** uint32 RTC_GetDate(void);
 346:Generated_Source\PSoC4/RTC.h **** void   RTC_SetAlarmDateAndTime(const RTC_DATE_TIME* alarmTime);
 347:Generated_Source\PSoC4/RTC.h **** void   RTC_GetAlarmDateAndTime(RTC_DATE_TIME* alarmTimeDate);
 348:Generated_Source\PSoC4/RTC.h **** void   RTC_SetAlarmMask(uint32 mask);
 349:Generated_Source\PSoC4/RTC.h **** uint32 RTC_GetAlarmMask(void);
 350:Generated_Source\PSoC4/RTC.h **** uint32 RTC_ReadStatus(void);
 351:Generated_Source\PSoC4/RTC.h **** uint32 RTC_GetAlarmStatus(void);
 352:Generated_Source\PSoC4/RTC.h **** void   RTC_ClearAlarmStatus(void);
 353:Generated_Source\PSoC4/RTC.h **** void   RTC_SetDSTStartTime(const RTC_DST_TIME* dstStartTime,
 354:Generated_Source\PSoC4/RTC.h ****                                               RTC_DST_DATETYPE_ENUM type);
 355:Generated_Source\PSoC4/RTC.h **** void   RTC_SetDSTStopTime(const RTC_DST_TIME* dstStopTime,
 356:Generated_Source\PSoC4/RTC.h ****                                              RTC_DST_DATETYPE_ENUM type);
 357:Generated_Source\PSoC4/RTC.h **** uint32 RTC_ConvertBCDToDec(uint32 bcdNum);
 358:Generated_Source\PSoC4/RTC.h **** uint32 RTC_ConvertDecToBCD(uint32 decNum);
 359:Generated_Source\PSoC4/RTC.h **** void   RTC_Update(void);
 360:Generated_Source\PSoC4/RTC.h **** void*  RTC_SetAlarmHandler(void (*CallbackFunction)(void));
 361:Generated_Source\PSoC4/RTC.h **** 
 362:Generated_Source\PSoC4/RTC.h **** static uint32 RTC_ConstructDate(uint32 month, uint32 day, uint32 year);
 363:Generated_Source\PSoC4/RTC.h **** static uint32 RTC_ConstructTime(uint32 timeFormat, uint32 stateAmPm, uint32 hour, uint32 min, uint3
 364:Generated_Source\PSoC4/RTC.h **** /** @} api */
 365:Generated_Source\PSoC4/RTC.h **** 
 366:Generated_Source\PSoC4/RTC.h **** static uint32 RTC_GetTimeFormat(uint32 inputTime);
 367:Generated_Source\PSoC4/RTC.h **** static uint32 RTC_SetTimeFormat(uint32 inputTime, uint32 timeFormat);
 368:Generated_Source\PSoC4/RTC.h **** 
 369:Generated_Source\PSoC4/RTC.h **** /**
 370:Generated_Source\PSoC4/RTC.h **** * \addtogroup group_api
 371:Generated_Source\PSoC4/RTC.h **** * @{
 372:Generated_Source\PSoC4/RTC.h **** */
 373:Generated_Source\PSoC4/RTC.h **** static uint32 RTC_LeapYear(uint32 year);
 374:Generated_Source\PSoC4/RTC.h **** static uint32 RTC_IsBitSet(uint32 var, uint32 mask);
 375:Generated_Source\PSoC4/RTC.h **** static uint32 RTC_GetSecond(uint32 inputTime);
 376:Generated_Source\PSoC4/RTC.h **** static uint32 RTC_GetMinutes(uint32 inputTime);
 377:Generated_Source\PSoC4/RTC.h **** static uint32 RTC_GetHours(uint32 inputTime);
 378:Generated_Source\PSoC4/RTC.h **** static uint32 RTC_GetAmPm(uint32 inputTime);
 379:Generated_Source\PSoC4/RTC.h **** static uint32 RTC_GetDay(uint32 date);
 380:Generated_Source\PSoC4/RTC.h **** static uint32 RTC_GetMonth(uint32 date);
 381:Generated_Source\PSoC4/RTC.h **** static uint32 RTC_GetYear(uint32 date);
 382:Generated_Source\PSoC4/RTC.h **** /** @} api */
ARM GAS  C:\Users\Petro\AppData\Local\Temp\ccWJcj1d.s 			page 12


 383:Generated_Source\PSoC4/RTC.h **** 
 384:Generated_Source\PSoC4/RTC.h **** static uint32 RTC_SetSecond(uint32 inputTime, uint32 inputSecond);
 385:Generated_Source\PSoC4/RTC.h **** static uint32 RTC_SetMinutes(uint32 inputTime, uint32 inputMinute);
 386:Generated_Source\PSoC4/RTC.h **** static uint32 RTC_SetHours(uint32 inputTime, uint32 inputHours);
 387:Generated_Source\PSoC4/RTC.h **** static uint32 RTC_SetAmPm(uint32 inputTime, uint32 periodOfDay);
 388:Generated_Source\PSoC4/RTC.h **** static uint32 RTC_SetDay(uint32 inputDate, uint32 inputDay);
 389:Generated_Source\PSoC4/RTC.h **** static uint32 RTC_SetMonth(uint32 inputDate, uint32 inputMonth);
 390:Generated_Source\PSoC4/RTC.h **** static uint32 RTC_SetYear(uint32 inputDate, uint32 inputYear);
 391:Generated_Source\PSoC4/RTC.h **** 
 392:Generated_Source\PSoC4/RTC.h **** uint64 RTC_ConstructUnixAlarmTime(const RTC_DATE_TIME* alarmTime, uint8 alarmCfgMask);
 393:Generated_Source\PSoC4/RTC.h **** uint64 RTC_GetDstUnixTime(const RTC_DST_TIME* dstTime);
 394:Generated_Source\PSoC4/RTC.h **** uint64 RTC_GetNexAlarmTime(uint64 curUnixTime, uint8 alarmCfgMask);
 395:Generated_Source\PSoC4/RTC.h **** 
 396:Generated_Source\PSoC4/RTC.h **** static uint32 RTC_GetNextMinSec(uint32 curVal);
 397:Generated_Source\PSoC4/RTC.h **** static uint32 RTC_GetNextHour(uint32 curVal);
 398:Generated_Source\PSoC4/RTC.h **** static uint32 RTC_GetNextDay(uint32 curYear, uint32 curMonth, uint32 curDay, uint32 alarmCfgMask);
 399:Generated_Source\PSoC4/RTC.h **** static uint32 RTC_GetNextMonth(uint32 curMonth);
 400:Generated_Source\PSoC4/RTC.h **** static uint32 RTC_GetNextYear(uint32 curYear);
 401:Generated_Source\PSoC4/RTC.h **** static uint32 RTC_GetDayOfWeek(uint32 day, uint32 month, uint32 year);
 402:Generated_Source\PSoC4/RTC.h **** 
 403:Generated_Source\PSoC4/RTC.h **** uint32 RTC_DaysInMonth(uint32 month, uint32 year);
 404:Generated_Source\PSoC4/RTC.h **** uint32 RTC_DaysBeforeMonth(uint32 month, uint32 year);
 405:Generated_Source\PSoC4/RTC.h **** 
 406:Generated_Source\PSoC4/RTC.h **** /**
 407:Generated_Source\PSoC4/RTC.h **** * \addtogroup group_api
 408:Generated_Source\PSoC4/RTC.h **** * @{
 409:Generated_Source\PSoC4/RTC.h **** */
 410:Generated_Source\PSoC4/RTC.h **** void   RTC_UnixToDateTime(RTC_DATE_TIME* dateTime, uint64 unixTime, uint32 timeFormat);
 411:Generated_Source\PSoC4/RTC.h **** uint64 RTC_DateTimeToUnix(uint32 inputDate, uint32 inputTime);
 412:Generated_Source\PSoC4/RTC.h **** /** @} api */
 413:Generated_Source\PSoC4/RTC.h **** 
 414:Generated_Source\PSoC4/RTC.h **** uint32 RTC_RelativeToFixed(uint32 dayOfWeek, uint32 weekOfMonth, uint32 month, uint32 year);
 415:Generated_Source\PSoC4/RTC.h **** 
 416:Generated_Source\PSoC4/RTC.h **** 
 417:Generated_Source\PSoC4/RTC.h **** #if defined(CYDEV_RTC_SOURCE_WDT)
 418:Generated_Source\PSoC4/RTC.h ****     #if((0u != CYDEV_WDT_GENERATE_ISR) && (0u == RTC_INITIAL_UPDATE_MODE))
 419:Generated_Source\PSoC4/RTC.h ****         static void RTC_CySysRtcSetCallback(uint32 wdtNumber);
 420:Generated_Source\PSoC4/RTC.h ****         static void RTC_CySysRtcResetCallback(uint32 wdtNumber);
 421:Generated_Source\PSoC4/RTC.h ****     #endif /* ((0u != CYDEV_WDT_GENERATE_ISR) && (0u == RTC_INITIAL_UPDATE_MODE)) */
 422:Generated_Source\PSoC4/RTC.h **** #endif /* (CYDEV_RTC_SOURCE_WDT) */
 423:Generated_Source\PSoC4/RTC.h **** 
 424:Generated_Source\PSoC4/RTC.h **** /*******************************************************************************
 425:Generated_Source\PSoC4/RTC.h **** * Function Name: RTC_IsBitSet
 426:Generated_Source\PSoC4/RTC.h **** ****************************************************************************//**
 427:Generated_Source\PSoC4/RTC.h **** *
 428:Generated_Source\PSoC4/RTC.h **** * \brief
 429:Generated_Source\PSoC4/RTC.h **** *  Checks the state of a bit passed through parameter.
 430:Generated_Source\PSoC4/RTC.h **** *
 431:Generated_Source\PSoC4/RTC.h **** * \param
 432:Generated_Source\PSoC4/RTC.h **** *  var The variable to be checked.
 433:Generated_Source\PSoC4/RTC.h **** * \param
 434:Generated_Source\PSoC4/RTC.h **** *  mask The mask for a bit to be checked.
 435:Generated_Source\PSoC4/RTC.h **** *
 436:Generated_Source\PSoC4/RTC.h **** * \return
 437:Generated_Source\PSoC4/RTC.h **** *  0u - Bit is not set.
 438:Generated_Source\PSoC4/RTC.h **** * \return
 439:Generated_Source\PSoC4/RTC.h **** *  1u - Bit is set.
ARM GAS  C:\Users\Petro\AppData\Local\Temp\ccWJcj1d.s 			page 13


 440:Generated_Source\PSoC4/RTC.h **** *
 441:Generated_Source\PSoC4/RTC.h **** *******************************************************************************/
 442:Generated_Source\PSoC4/RTC.h **** static CY_INLINE uint32 RTC_IsBitSet(uint32 var, uint32 mask)
 443:Generated_Source\PSoC4/RTC.h **** {
 444:Generated_Source\PSoC4/RTC.h ****     return ((mask == (var & mask)) ? 1Lu : 0Lu);
 445:Generated_Source\PSoC4/RTC.h **** }
 446:Generated_Source\PSoC4/RTC.h **** 
 447:Generated_Source\PSoC4/RTC.h **** 
 448:Generated_Source\PSoC4/RTC.h **** /*******************************************************************************
 449:Generated_Source\PSoC4/RTC.h **** * Function Name: RTC_LeapYear
 450:Generated_Source\PSoC4/RTC.h **** ****************************************************************************//**
 451:Generated_Source\PSoC4/RTC.h **** *
 452:Generated_Source\PSoC4/RTC.h **** * \brief
 453:Generated_Source\PSoC4/RTC.h **** * Checks whether the year passed through the parameter is
 454:Generated_Source\PSoC4/RTC.h **** * leap or no.
 455:Generated_Source\PSoC4/RTC.h **** *
 456:Generated_Source\PSoC4/RTC.h **** * \param
 457:Generated_Source\PSoC4/RTC.h **** *  year The year to be checked.
 458:Generated_Source\PSoC4/RTC.h **** *
 459:Generated_Source\PSoC4/RTC.h **** *
 460:Generated_Source\PSoC4/RTC.h **** * \return
 461:Generated_Source\PSoC4/RTC.h **** *  0u - The year is not leap.
 462:Generated_Source\PSoC4/RTC.h **** * \return
 463:Generated_Source\PSoC4/RTC.h **** *  1u - The year is leap.
 464:Generated_Source\PSoC4/RTC.h **** *
 465:Generated_Source\PSoC4/RTC.h **** *******************************************************************************/
 466:Generated_Source\PSoC4/RTC.h **** static CY_INLINE uint32 RTC_LeapYear(uint32 year)
 467:Generated_Source\PSoC4/RTC.h **** {
 468:Generated_Source\PSoC4/RTC.h ****     uint32 retVal;
 469:Generated_Source\PSoC4/RTC.h **** 
 470:Generated_Source\PSoC4/RTC.h ****     if(((0u == (year % 4Lu)) && (0u != (year % 100Lu))) || (0u == (year % 400Lu)))
 471:Generated_Source\PSoC4/RTC.h ****     {
 472:Generated_Source\PSoC4/RTC.h ****         retVal = 1uL;
 473:Generated_Source\PSoC4/RTC.h ****     }
 474:Generated_Source\PSoC4/RTC.h ****     else
 475:Generated_Source\PSoC4/RTC.h ****     {
 476:Generated_Source\PSoC4/RTC.h ****         retVal = 0uL;
 477:Generated_Source\PSoC4/RTC.h ****     }
 478:Generated_Source\PSoC4/RTC.h **** 
 479:Generated_Source\PSoC4/RTC.h ****     return(retVal);
 480:Generated_Source\PSoC4/RTC.h **** }
 481:Generated_Source\PSoC4/RTC.h **** 
 482:Generated_Source\PSoC4/RTC.h **** 
 483:Generated_Source\PSoC4/RTC.h **** /*******************************************************************************
 484:Generated_Source\PSoC4/RTC.h **** * Function Name: RTC_GetSecond
 485:Generated_Source\PSoC4/RTC.h **** ****************************************************************************//**
 486:Generated_Source\PSoC4/RTC.h **** *
 487:Generated_Source\PSoC4/RTC.h **** * \brief
 488:Generated_Source\PSoC4/RTC.h **** *  Returns the seconds value from the time value that is passed as a/the parameter.
 489:Generated_Source\PSoC4/RTC.h **** *
 490:Generated_Source\PSoC4/RTC.h **** * \param
 491:Generated_Source\PSoC4/RTC.h **** *  time The time value.
 492:Generated_Source\PSoC4/RTC.h **** *
 493:Generated_Source\PSoC4/RTC.h **** * \return
 494:Generated_Source\PSoC4/RTC.h **** *  The seconds value.
 495:Generated_Source\PSoC4/RTC.h **** *
 496:Generated_Source\PSoC4/RTC.h **** *******************************************************************************/
ARM GAS  C:\Users\Petro\AppData\Local\Temp\ccWJcj1d.s 			page 14


 497:Generated_Source\PSoC4/RTC.h **** static CY_INLINE uint32 RTC_GetSecond(uint32 inputTime)
 498:Generated_Source\PSoC4/RTC.h **** {
 499:Generated_Source\PSoC4/RTC.h ****     uint32 retVal;
 500:Generated_Source\PSoC4/RTC.h **** 
 501:Generated_Source\PSoC4/RTC.h ****     retVal  = ((inputTime & RTC_10_SECONDS_MASK) >> RTC_10_SECONDS_OFFSET) * 10u;
 502:Generated_Source\PSoC4/RTC.h ****     retVal += (inputTime & RTC_SECONDS_MASK) >> RTC_SECONDS_OFFSET;
 503:Generated_Source\PSoC4/RTC.h **** 
 504:Generated_Source\PSoC4/RTC.h ****     return (retVal);
 505:Generated_Source\PSoC4/RTC.h **** }
 506:Generated_Source\PSoC4/RTC.h **** 
 507:Generated_Source\PSoC4/RTC.h **** 
 508:Generated_Source\PSoC4/RTC.h **** /*******************************************************************************
 509:Generated_Source\PSoC4/RTC.h **** * Function Name: RTC_GetMinutes
 510:Generated_Source\PSoC4/RTC.h **** ****************************************************************************//**
 511:Generated_Source\PSoC4/RTC.h **** *
 512:Generated_Source\PSoC4/RTC.h **** * \brief
 513:Generated_Source\PSoC4/RTC.h **** *  Returns the minutes value from the time value that is passed as a/the 
 514:Generated_Source\PSoC4/RTC.h **** * parameter.
 515:Generated_Source\PSoC4/RTC.h **** *
 516:Generated_Source\PSoC4/RTC.h **** * \param
 517:Generated_Source\PSoC4/RTC.h **** *  time The time value.
 518:Generated_Source\PSoC4/RTC.h **** *
 519:Generated_Source\PSoC4/RTC.h **** * \return
 520:Generated_Source\PSoC4/RTC.h **** *  The minutes value.
 521:Generated_Source\PSoC4/RTC.h **** *
 522:Generated_Source\PSoC4/RTC.h **** *******************************************************************************/
 523:Generated_Source\PSoC4/RTC.h **** static CY_INLINE uint32 RTC_GetMinutes(uint32 inputTime)
 524:Generated_Source\PSoC4/RTC.h **** {
 525:Generated_Source\PSoC4/RTC.h ****     uint32 retVal;
 526:Generated_Source\PSoC4/RTC.h **** 
 527:Generated_Source\PSoC4/RTC.h ****     retVal  = ((inputTime & RTC_10_MINUTES_MASK) >> RTC_10_MINUTES_OFFSET) * 10u;
 528:Generated_Source\PSoC4/RTC.h ****     retVal += (inputTime & RTC_MINUTES_MASK) >> RTC_MINUTES_OFFSET;
 529:Generated_Source\PSoC4/RTC.h **** 
 530:Generated_Source\PSoC4/RTC.h ****     return (retVal);
 531:Generated_Source\PSoC4/RTC.h **** }
 532:Generated_Source\PSoC4/RTC.h **** 
 533:Generated_Source\PSoC4/RTC.h **** 
 534:Generated_Source\PSoC4/RTC.h **** /*******************************************************************************
 535:Generated_Source\PSoC4/RTC.h **** * Function Name: RTC_GetHours
 536:Generated_Source\PSoC4/RTC.h **** ****************************************************************************//**
 537:Generated_Source\PSoC4/RTC.h **** *
 538:Generated_Source\PSoC4/RTC.h **** * \brief
 539:Generated_Source\PSoC4/RTC.h **** *  Returns the hours value from the time value that is passed as a/the parameter.
 540:Generated_Source\PSoC4/RTC.h **** *
 541:Generated_Source\PSoC4/RTC.h **** * \param
 542:Generated_Source\PSoC4/RTC.h **** *  time The time value.
 543:Generated_Source\PSoC4/RTC.h **** *
 544:Generated_Source\PSoC4/RTC.h **** * \return
 545:Generated_Source\PSoC4/RTC.h **** *  The hours value.
 546:Generated_Source\PSoC4/RTC.h **** *
 547:Generated_Source\PSoC4/RTC.h **** *******************************************************************************/
 548:Generated_Source\PSoC4/RTC.h **** static CY_INLINE uint32 RTC_GetHours(uint32 inputTime)
 549:Generated_Source\PSoC4/RTC.h **** {
 550:Generated_Source\PSoC4/RTC.h ****     uint32 retVal;
 551:Generated_Source\PSoC4/RTC.h **** 
 552:Generated_Source\PSoC4/RTC.h ****     retVal  = ((inputTime & RTC_10_HOURS_MASK) >> RTC_10_HOURS_OFFSET) * 10u;
 143              		.loc 2 552 0
ARM GAS  C:\Users\Petro\AppData\Local\Temp\ccWJcj1d.s 			page 15


 144 000a 0A23     		mov	r3, #10
 145 000c 8202     		lsl	r2, r0, #10
 146 000e 920F     		lsr	r2, r2, #30
 147 0010 5A43     		mul	r2, r3
 553:Generated_Source\PSoC4/RTC.h ****     retVal += (inputTime & RTC_HOURS_MASK) >> RTC_HOURS_OFFSET;
 148              		.loc 2 553 0
 149 0012 0103     		lsl	r1, r0, #12
 150 0014 090F     		lsr	r1, r1, #28
 151 0016 5218     		add	r2, r2, r1
 152 0018 0292     		str	r2, [sp, #8]
 153              	.LBE26:
 154              	.LBE25:
 155              	.LBB27:
 156              	.LBB28:
 527:Generated_Source\PSoC4/RTC.h ****     retVal += (inputTime & RTC_MINUTES_MASK) >> RTC_MINUTES_OFFSET;
 157              		.loc 2 527 0
 158 001a 4204     		lsl	r2, r0, #17
 159 001c 520F     		lsr	r2, r2, #29
 160 001e 5A43     		mul	r2, r3
 528:Generated_Source\PSoC4/RTC.h **** 
 161              		.loc 2 528 0
 162 0020 0105     		lsl	r1, r0, #20
 163 0022 090F     		lsr	r1, r1, #28
 164 0024 5218     		add	r2, r2, r1
 165 0026 0392     		str	r2, [sp, #12]
 166              	.LBE28:
 167              	.LBE27:
 168              	.LBB29:
 169              	.LBB30:
 501:Generated_Source\PSoC4/RTC.h ****     retVal += (inputTime & RTC_SECONDS_MASK) >> RTC_SECONDS_OFFSET;
 170              		.loc 2 501 0
 171 0028 4206     		lsl	r2, r0, #25
 172 002a 520F     		lsr	r2, r2, #29
 173 002c 5343     		mul	r3, r2
 502:Generated_Source\PSoC4/RTC.h **** 
 174              		.loc 2 502 0
 175 002e 0F22     		mov	r2, #15
 176              	.LBE30:
 177              	.LBE29:
  99:lib_RTC/RTC_WDT.c ****     hour = RTC_GetHours(readTime);
 178              		.loc 1 99 0
 179 0030 0024     		mov	r4, #0
 180              	.LBB32:
 181              	.LBB31:
 502:Generated_Source\PSoC4/RTC.h **** 
 182              		.loc 2 502 0
 183 0032 0240     		and	r2, r0
 184 0034 9B18     		add	r3, r3, r2
 185 0036 0493     		str	r3, [sp, #16]
 186              	.LBE31:
 187              	.LBE32:
 100:lib_RTC/RTC_WDT.c ****     min = RTC_GetMinutes(readTime);
 101:lib_RTC/RTC_WDT.c ****     sec = RTC_GetSecond(readTime);
 102:lib_RTC/RTC_WDT.c ****     ms = RTCgetRecentMs();
 188              		.loc 1 102 0
 189 0038 3F4B     		ldr	r3, .L11
  98:lib_RTC/RTC_WDT.c ****     hour = RTC_GetHours(readTime);
ARM GAS  C:\Users\Petro\AppData\Local\Temp\ccWJcj1d.s 			page 16


 190              		.loc 1 98 0
 191 003a 051C     		mov	r5, r0
 192              	.LVL8:
 193              		.loc 1 102 0
 194 003c 1E88     		ldrh	r6, [r3]
 195              	.LVL9:
 103:lib_RTC/RTC_WDT.c ****     stateAmPm = RTC_GetAmPm(readTime);
 104:lib_RTC/RTC_WDT.c ****     
 105:lib_RTC/RTC_WDT.c ****     time  = timeFormat << RTC_TIME_FORMAT_SHIFT;
 106:lib_RTC/RTC_WDT.c ****     time |= stateAmPm << RTC_PERIOD_OF_DAY_SHIFT;
 107:lib_RTC/RTC_WDT.c **** 
 108:lib_RTC/RTC_WDT.c ****     time |= (hour / 10u) << RTC_10_HOURS_SHIFT;
 109:lib_RTC/RTC_WDT.c ****     time |= (hour % 10u) << RTC_HOURS_SHIFT;
 110:lib_RTC/RTC_WDT.c **** 
 111:lib_RTC/RTC_WDT.c ****     time |= (min / 10u) << RTC_10_MINUTES_SHIFT;
 112:lib_RTC/RTC_WDT.c ****     time |= (min % 10u) << RTC_MINUTES_SHIFT;
 113:lib_RTC/RTC_WDT.c **** 
 114:lib_RTC/RTC_WDT.c ****     time |= (sec / 10u) << RTC_10_SECONDS_SHIFT;
 115:lib_RTC/RTC_WDT.c ****     time |= (sec % 10u) << RTC_SECONDS_SHIFT;
 116:lib_RTC/RTC_WDT.c ****     
 117:lib_RTC/RTC_WDT.c ****     
 118:lib_RTC/RTC_WDT.c ****     time |= (ms / 100u) << RTC_100_MILISECONDS_SHIFT;
 196              		.loc 1 118 0
 197 003e 211C     		mov	r1, r4
 198 0040 301C     		mov	r0, r6
 199              	.LVL10:
 200 0042 6422     		mov	r2, #100
 201 0044 0023     		mov	r3, #0
 202 0046 FFF7FEFF 		bl	__aeabi_uldivmod
 203              	.LVL11:
 204 004a 0591     		str	r1, [sp, #20]
 205 004c 059A     		ldr	r2, [sp, #20]
 206 004e 010D     		lsr	r1, r0, #20
 207 0050 1203     		lsl	r2, r2, #12
 208 0052 0A43     		orr	r2, r1
 105:lib_RTC/RTC_WDT.c ****     time |= stateAmPm << RTC_PERIOD_OF_DAY_SHIFT;
 209              		.loc 1 105 0
 210 0054 FB01     		lsl	r3, r7, #7
 211 0056 1343     		orr	r3, r2
 212              		.loc 1 118 0
 213 0058 0190     		str	r0, [sp, #4]
 214 005a 0693     		str	r3, [sp, #24]
 215 005c 0703     		lsl	r7, r0, #12
 119:lib_RTC/RTC_WDT.c ****     time |= ((ms / 10u)-(ms/100u)*10u) << RTC_10_MILISECONDS_SHIFT;
 120:lib_RTC/RTC_WDT.c ****     time |= (ms % 10u) << RTC_MILISECONDS_SHIFT;
 216              		.loc 1 120 0
 217 005e 211C     		mov	r1, r4
 218 0060 301C     		mov	r0, r6
 219 0062 0A22     		mov	r2, #10
 220 0064 0023     		mov	r3, #0
 221 0066 FFF7FEFF 		bl	__aeabi_uldivmod
 222              	.LVL12:
 223 006a 1743     		orr	r7, r2
 224 006c 069A     		ldr	r2, [sp, #24]
 119:lib_RTC/RTC_WDT.c ****     time |= ((ms / 10u)-(ms/100u)*10u) << RTC_10_MILISECONDS_SHIFT;
 225              		.loc 1 119 0
 226 006e 301C     		mov	r0, r6
ARM GAS  C:\Users\Petro\AppData\Local\Temp\ccWJcj1d.s 			page 17


 227 0070 1A43     		orr	r2, r3
 228 0072 0692     		str	r2, [sp, #24]
 229 0074 211C     		mov	r1, r4
 230 0076 0A22     		mov	r2, #10
 231 0078 0023     		mov	r3, #0
 232 007a 0797     		str	r7, [sp, #28]
 233 007c FFF7FEFF 		bl	__aeabi_uldivmod
 234              	.LVL13:
 235 0080 0A22     		mov	r2, #10
 236 0082 061C     		mov	r6, r0
 237              	.LVL14:
 238 0084 0F1C     		mov	r7, r1
 239 0086 0198     		ldr	r0, [sp, #4]
 240 0088 0599     		ldr	r1, [sp, #20]
 241 008a 0023     		mov	r3, #0
 242 008c FFF7FEFF 		bl	__aeabi_lmul
 243              	.LVL15:
 244 0090 361A     		sub	r6, r6, r0
 245 0092 8F41     		sbc	r7, r7, r1
 246 0094 330E     		lsr	r3, r6, #24
 247 0096 3F02     		lsl	r7, r7, #8
 248 0098 1F43     		orr	r7, r3
 249 009a 079B     		ldr	r3, [sp, #28]
 250 009c 3602     		lsl	r6, r6, #8
 251 009e 1E43     		orr	r6, r3
 252              	.LBB33:
 253              	.LBB34:
 254              	.LBB35:
 444:Generated_Source\PSoC4/RTC.h **** }
 255              		.loc 2 444 0
 256 00a0 6902     		lsl	r1, r5, #9
 257 00a2 069B     		ldr	r3, [sp, #24]
 258 00a4 C90F     		lsr	r1, r1, #31
 259 00a6 1F43     		orr	r7, r3
 260              	.LBE35:
 261              	.LBE34:
 262              	.LBE33:
 106:lib_RTC/RTC_WDT.c **** 
 263              		.loc 1 106 0
 264 00a8 8901     		lsl	r1, r1, #6
 265 00aa 0F43     		orr	r7, r1
 108:lib_RTC/RTC_WDT.c ****     time |= (hour % 10u) << RTC_HOURS_SHIFT;
 266              		.loc 1 108 0
 267 00ac 0298     		ldr	r0, [sp, #8]
 268 00ae 211C     		mov	r1, r4
 269 00b0 0A22     		mov	r2, #10
 270 00b2 0023     		mov	r3, #0
 271 00b4 FFF7FEFF 		bl	__aeabi_uldivmod
 272              	.LVL16:
 273 00b8 0001     		lsl	r0, r0, #4
 274 00ba 0743     		orr	r7, r0
 109:lib_RTC/RTC_WDT.c **** 
 275              		.loc 1 109 0
 276 00bc 211C     		mov	r1, r4
 277 00be 0298     		ldr	r0, [sp, #8]
 278 00c0 0A22     		mov	r2, #10
 279 00c2 0023     		mov	r3, #0
ARM GAS  C:\Users\Petro\AppData\Local\Temp\ccWJcj1d.s 			page 18


 280 00c4 FFF7FEFF 		bl	__aeabi_uldivmod
 281              	.LVL17:
 111:lib_RTC/RTC_WDT.c ****     time |= (min % 10u) << RTC_MINUTES_SHIFT;
 282              		.loc 1 111 0
 283 00c8 0398     		ldr	r0, [sp, #12]
 284 00ca 1743     		orr	r7, r2
 285 00cc 211C     		mov	r1, r4
 286 00ce 0A22     		mov	r2, #10
 287 00d0 0023     		mov	r3, #0
 288 00d2 FFF7FEFF 		bl	__aeabi_uldivmod
 289              	.LVL18:
 290 00d6 0309     		lsr	r3, r0, #4
 291 00d8 0907     		lsl	r1, r1, #28
 292 00da 1943     		orr	r1, r3
 293 00dc 0007     		lsl	r0, r0, #28
 294 00de 0643     		orr	r6, r0
 295 00e0 0F43     		orr	r7, r1
 112:lib_RTC/RTC_WDT.c **** 
 296              		.loc 1 112 0
 297 00e2 0398     		ldr	r0, [sp, #12]
 298 00e4 211C     		mov	r1, r4
 299 00e6 0A22     		mov	r2, #10
 300 00e8 0023     		mov	r3, #0
 301 00ea FFF7FEFF 		bl	__aeabi_uldivmod
 302              	.LVL19:
 303 00ee 110A     		lsr	r1, r2, #8
 304 00f0 1B06     		lsl	r3, r3, #24
 305 00f2 0B43     		orr	r3, r1
 306 00f4 1206     		lsl	r2, r2, #24
 307 00f6 1643     		orr	r6, r2
 308 00f8 1F43     		orr	r7, r3
 114:lib_RTC/RTC_WDT.c ****     time |= (sec % 10u) << RTC_SECONDS_SHIFT;
 309              		.loc 1 114 0
 310 00fa 0498     		ldr	r0, [sp, #16]
 311 00fc 211C     		mov	r1, r4
 312 00fe 0A22     		mov	r2, #10
 313 0100 0023     		mov	r3, #0
 314 0102 FFF7FEFF 		bl	__aeabi_uldivmod
 315              	.LVL20:
 316 0106 030B     		lsr	r3, r0, #12
 317 0108 0905     		lsl	r1, r1, #20
 318 010a 1943     		orr	r1, r3
 319 010c 0005     		lsl	r0, r0, #20
 320 010e 0643     		orr	r6, r0
 321 0110 0F43     		orr	r7, r1
 115:lib_RTC/RTC_WDT.c ****     
 322              		.loc 1 115 0
 323 0112 0498     		ldr	r0, [sp, #16]
 324 0114 211C     		mov	r1, r4
 325 0116 0A22     		mov	r2, #10
 326 0118 0023     		mov	r3, #0
 327 011a FFF7FEFF 		bl	__aeabi_uldivmod
 328              	.LVL21:
 329 011e 110C     		lsr	r1, r2, #16
 330 0120 1B04     		lsl	r3, r3, #16
 331 0122 0B43     		orr	r3, r1
 332              		.loc 1 120 0
ARM GAS  C:\Users\Petro\AppData\Local\Temp\ccWJcj1d.s 			page 19


 333 0124 391C     		mov	r1, r7
 334 0126 301C     		mov	r0, r6
 335 0128 1943     		orr	r1, r3
 115:lib_RTC/RTC_WDT.c ****     
 336              		.loc 1 115 0
 337 012a 1204     		lsl	r2, r2, #16
 338              		.loc 1 120 0
 339 012c 024B     		ldr	r3, .L11
 340 012e 1043     		orr	r0, r2
 341 0130 9860     		str	r0, [r3, #8]
 342 0132 D960     		str	r1, [r3, #12]
 121:lib_RTC/RTC_WDT.c ****        
 122:lib_RTC/RTC_WDT.c ****     return time;
 123:lib_RTC/RTC_WDT.c **** }
 343              		.loc 1 123 0
 344 0134 09B0     		add	sp, sp, #36
 345              		@ sp needed
 346              	.LVL22:
 347              	.LVL23:
 348 0136 F0BD     		pop	{r4, r5, r6, r7, pc}
 349              	.L12:
 350              		.align	2
 351              	.L11:
 352 0138 00000000 		.word	.LANCHOR0
 353              		.cfi_endproc
 354              	.LFE65:
 355              		.size	RTCgetTime, .-RTCgetTime
 356              		.section	.text.RTCGetUnixTime,"ax",%progbits
 357              		.align	1
 358              		.global	RTCGetUnixTime
 359              		.code	16
 360              		.thumb_func
 361              		.type	RTCGetUnixTime, %function
 362              	RTCGetUnixTime:
 363              	.LFB66:
 124:lib_RTC/RTC_WDT.c **** 
 125:lib_RTC/RTC_WDT.c **** /*******************************************************************************
 126:lib_RTC/RTC_WDT.c **** * Function Name: RTCgetHours
 127:lib_RTC/RTC_WDT.c **** ****************************************************************************//**
 128:lib_RTC/RTC_WDT.c **** *
 129:lib_RTC/RTC_WDT.c **** * \brief
 130:lib_RTC/RTC_WDT.c **** *  Returns the hours value 
 131:lib_RTC/RTC_WDT.c **** *
 132:lib_RTC/RTC_WDT.c **** * \return
 133:lib_RTC/RTC_WDT.c **** *  The hours value.
 134:lib_RTC/RTC_WDT.c **** *
 135:lib_RTC/RTC_WDT.c **** *******************************************************************************/
 136:lib_RTC/RTC_WDT.c **** 
 137:lib_RTC/RTC_WDT.c **** uint64_t RTCGetUnixTime(void)
 138:lib_RTC/RTC_WDT.c **** {
 364              		.loc 1 138 0
 365              		.cfi_startproc
 366 0000 08B5     		push	{r3, lr}
 367              		.cfi_def_cfa_offset 8
 368              		.cfi_offset 3, -8
 369              		.cfi_offset 14, -4
 139:lib_RTC/RTC_WDT.c ****     return RTC_GetUnixTime();
ARM GAS  C:\Users\Petro\AppData\Local\Temp\ccWJcj1d.s 			page 20


 370              		.loc 1 139 0
 371 0002 FFF7FEFF 		bl	RTC_GetUnixTime
 372              	.LVL24:
 140:lib_RTC/RTC_WDT.c **** }
 373              		.loc 1 140 0
 374              		@ sp needed
 375 0006 08BD     		pop	{r3, pc}
 376              		.cfi_endproc
 377              	.LFE66:
 378              		.size	RTCGetUnixTime, .-RTCGetUnixTime
 379              		.section	.text.RTCgetHours,"ax",%progbits
 380              		.align	1
 381              		.global	RTCgetHours
 382              		.code	16
 383              		.thumb_func
 384              		.type	RTCgetHours, %function
 385              	RTCgetHours:
 386              	.LFB67:
 141:lib_RTC/RTC_WDT.c **** 
 142:lib_RTC/RTC_WDT.c **** 
 143:lib_RTC/RTC_WDT.c **** uint32_t RTCgetHours(uint64_t readTime)
 144:lib_RTC/RTC_WDT.c **** {
 387              		.loc 1 144 0
 388              		.cfi_startproc
 389              	.LVL25:
 390 0000 70B5     		push	{r4, r5, r6, lr}
 391              		.cfi_def_cfa_offset 16
 392              		.cfi_offset 4, -16
 393              		.cfi_offset 5, -12
 394              		.cfi_offset 6, -8
 395              		.cfi_offset 14, -4
 145:lib_RTC/RTC_WDT.c ****     uint64_t retVal;
 146:lib_RTC/RTC_WDT.c ****     
 147:lib_RTC/RTC_WDT.c ****     retVal  = ((readTime & RTC_MASK_10_HOURS) >> RTC_10_HOURS_SHIFT) * 10u;
 396              		.loc 1 147 0
 397 0002 0025     		mov	r5, #0
 148:lib_RTC/RTC_WDT.c ****     retVal += (readTime & RTC_MASK_HOURS) >> RTC_HOURS_SHIFT;
 398              		.loc 1 148 0
 399 0004 0F26     		mov	r6, #15
 144:lib_RTC/RTC_WDT.c ****     uint64_t retVal;
 400              		.loc 1 144 0
 401 0006 0C1C     		mov	r4, r1
 147:lib_RTC/RTC_WDT.c ****     retVal += (readTime & RTC_MASK_HOURS) >> RTC_HOURS_SHIFT;
 402              		.loc 1 147 0
 403 0008 8806     		lsl	r0, r1, #26
 404              	.LVL26:
 405              		.loc 1 148 0
 406 000a 3440     		and	r4, r6
 147:lib_RTC/RTC_WDT.c ****     retVal += (readTime & RTC_MASK_HOURS) >> RTC_HOURS_SHIFT;
 407              		.loc 1 147 0
 408 000c 291C     		mov	r1, r5
 409 000e 0A22     		mov	r2, #10
 410 0010 0023     		mov	r3, #0
 411 0012 800F     		lsr	r0, r0, #30
 412 0014 FFF7FEFF 		bl	__aeabi_lmul
 413              	.LVL27:
 414              		.loc 1 148 0
ARM GAS  C:\Users\Petro\AppData\Local\Temp\ccWJcj1d.s 			page 21


 415 0018 2B1C     		mov	r3, r5
 416 001a 221C     		mov	r2, r4
 149:lib_RTC/RTC_WDT.c ****     
 150:lib_RTC/RTC_WDT.c ****     return (int)(retVal);
 151:lib_RTC/RTC_WDT.c **** }
 417              		.loc 1 151 0
 418              		@ sp needed
 148:lib_RTC/RTC_WDT.c ****     
 419              		.loc 1 148 0
 420 001c 8018     		add	r0, r0, r2
 421 001e 5941     		adc	r1, r1, r3
 422              		.loc 1 151 0
 423 0020 70BD     		pop	{r4, r5, r6, pc}
 424              		.cfi_endproc
 425              	.LFE67:
 426              		.size	RTCgetHours, .-RTCgetHours
 427              		.section	.text.RTCgetMinutes,"ax",%progbits
 428              		.align	1
 429              		.global	RTCgetMinutes
 430              		.code	16
 431              		.thumb_func
 432              		.type	RTCgetMinutes, %function
 433              	RTCgetMinutes:
 434              	.LFB68:
 152:lib_RTC/RTC_WDT.c **** 
 153:lib_RTC/RTC_WDT.c **** /*******************************************************************************
 154:lib_RTC/RTC_WDT.c **** * Function Name: RTCgetMinutes
 155:lib_RTC/RTC_WDT.c **** ****************************************************************************//**
 156:lib_RTC/RTC_WDT.c **** *
 157:lib_RTC/RTC_WDT.c **** * \brief
 158:lib_RTC/RTC_WDT.c **** *  Returns the minutes value 
 159:lib_RTC/RTC_WDT.c **** *
 160:lib_RTC/RTC_WDT.c **** * \return
 161:lib_RTC/RTC_WDT.c **** *  The minutes value.
 162:lib_RTC/RTC_WDT.c **** *
 163:lib_RTC/RTC_WDT.c **** *******************************************************************************/
 164:lib_RTC/RTC_WDT.c **** uint32_t RTCgetMinutes(uint64_t readTime)
 165:lib_RTC/RTC_WDT.c **** {
 435              		.loc 1 165 0
 436              		.cfi_startproc
 437              	.LVL28:
 438 0000 38B5     		push	{r3, r4, r5, lr}
 439              		.cfi_def_cfa_offset 16
 440              		.cfi_offset 3, -16
 441              		.cfi_offset 4, -12
 442              		.cfi_offset 5, -8
 443              		.cfi_offset 14, -4
 166:lib_RTC/RTC_WDT.c ****     uint64 retVal;
 167:lib_RTC/RTC_WDT.c **** 
 168:lib_RTC/RTC_WDT.c ****     retVal  = ((readTime & RTC_MASK_10_MINUTES) >> RTC_10_MINUTES_SHIFT) * 10u;
 444              		.loc 1 168 0
 445 0002 0024     		mov	r4, #0
 165:lib_RTC/RTC_WDT.c ****     uint64 retVal;
 446              		.loc 1 165 0
 447 0004 051C     		mov	r5, r0
 448              		.loc 1 168 0
 449 0006 4000     		lsl	r0, r0, #1
ARM GAS  C:\Users\Petro\AppData\Local\Temp\ccWJcj1d.s 			page 22


 450              	.LVL29:
 451 0008 211C     		mov	r1, r4
 452 000a 0A22     		mov	r2, #10
 453 000c 0023     		mov	r3, #0
 454 000e 400F     		lsr	r0, r0, #29
 455 0010 FFF7FEFF 		bl	__aeabi_lmul
 456              	.LVL30:
 169:lib_RTC/RTC_WDT.c ****     retVal += (readTime & RTC_MASK_MINUTES) >> RTC_MINUTES_SHIFT;
 457              		.loc 1 169 0
 458 0014 231C     		mov	r3, r4
 459 0016 2D01     		lsl	r5, r5, #4
 460 0018 2A0F     		lsr	r2, r5, #28
 461 001a 8018     		add	r0, r0, r2
 462 001c 5941     		adc	r1, r1, r3
 170:lib_RTC/RTC_WDT.c **** 
 171:lib_RTC/RTC_WDT.c ****     return (int)(retVal);
 172:lib_RTC/RTC_WDT.c **** }
 463              		.loc 1 172 0
 464              		@ sp needed
 465 001e 38BD     		pop	{r3, r4, r5, pc}
 466              		.cfi_endproc
 467              	.LFE68:
 468              		.size	RTCgetMinutes, .-RTCgetMinutes
 469              		.section	.text.RTCgetSecond,"ax",%progbits
 470              		.align	1
 471              		.global	RTCgetSecond
 472              		.code	16
 473              		.thumb_func
 474              		.type	RTCgetSecond, %function
 475              	RTCgetSecond:
 476              	.LFB69:
 173:lib_RTC/RTC_WDT.c **** 
 174:lib_RTC/RTC_WDT.c **** /*******************************************************************************
 175:lib_RTC/RTC_WDT.c **** * Function Name: RTCgetSecond
 176:lib_RTC/RTC_WDT.c **** ****************************************************************************//**
 177:lib_RTC/RTC_WDT.c **** *
 178:lib_RTC/RTC_WDT.c **** * \brief
 179:lib_RTC/RTC_WDT.c **** *  Returns the seconds value 
 180:lib_RTC/RTC_WDT.c **** *
 181:lib_RTC/RTC_WDT.c **** * \return
 182:lib_RTC/RTC_WDT.c **** *  The seconds value.
 183:lib_RTC/RTC_WDT.c **** *
 184:lib_RTC/RTC_WDT.c **** *******************************************************************************/
 185:lib_RTC/RTC_WDT.c **** uint32_t RTCgetSecond(uint64_t readTime)
 186:lib_RTC/RTC_WDT.c **** {
 477              		.loc 1 186 0
 478              		.cfi_startproc
 479              	.LVL31:
 187:lib_RTC/RTC_WDT.c ****     uint32 retVal;
 188:lib_RTC/RTC_WDT.c **** 
 189:lib_RTC/RTC_WDT.c ****     retVal  = ((readTime & RTC_MASK_10_SECONDS) >> RTC_10_SECONDS_SHIFT) * 10u;
 480              		.loc 1 189 0
 481 0000 0A22     		mov	r2, #10
 482 0002 4302     		lsl	r3, r0, #9
 483 0004 5B0F     		lsr	r3, r3, #29
 484 0006 5343     		mul	r3, r2
 485              	.LVL32:
ARM GAS  C:\Users\Petro\AppData\Local\Temp\ccWJcj1d.s 			page 23


 190:lib_RTC/RTC_WDT.c ****     retVal += (readTime & RTC_MASK_SECONDS) >> RTC_SECONDS_SHIFT;
 486              		.loc 1 190 0
 487 0008 0003     		lsl	r0, r0, #12
 488              	.LVL33:
 489 000a 000F     		lsr	r0, r0, #28
 490 000c 1818     		add	r0, r3, r0
 191:lib_RTC/RTC_WDT.c **** 
 192:lib_RTC/RTC_WDT.c ****     return (int)(retVal);
 193:lib_RTC/RTC_WDT.c **** }
 491              		.loc 1 193 0
 492              		@ sp needed
 493 000e 7047     		bx	lr
 494              		.cfi_endproc
 495              	.LFE69:
 496              		.size	RTCgetSecond, .-RTCgetSecond
 497              		.section	.text.RTCgetMiliecond,"ax",%progbits
 498              		.align	1
 499              		.global	RTCgetMiliecond
 500              		.code	16
 501              		.thumb_func
 502              		.type	RTCgetMiliecond, %function
 503              	RTCgetMiliecond:
 504              	.LFB70:
 194:lib_RTC/RTC_WDT.c **** 
 195:lib_RTC/RTC_WDT.c **** /*******************************************************************************
 196:lib_RTC/RTC_WDT.c **** * Function Name: RTCgetMilisecond
 197:lib_RTC/RTC_WDT.c **** ****************************************************************************//**
 198:lib_RTC/RTC_WDT.c **** *
 199:lib_RTC/RTC_WDT.c **** * \brief
 200:lib_RTC/RTC_WDT.c **** *  Returns the miliseconds value 
 201:lib_RTC/RTC_WDT.c **** *
 202:lib_RTC/RTC_WDT.c **** * \return
 203:lib_RTC/RTC_WDT.c **** *  The miliseconds value.
 204:lib_RTC/RTC_WDT.c **** *
 205:lib_RTC/RTC_WDT.c **** *******************************************************************************/
 206:lib_RTC/RTC_WDT.c **** uint32_t RTCgetMiliecond(uint64_t readTime)
 207:lib_RTC/RTC_WDT.c **** {
 505              		.loc 1 207 0
 506              		.cfi_startproc
 507              	.LVL34:
 208:lib_RTC/RTC_WDT.c ****     uint32 retVal;
 209:lib_RTC/RTC_WDT.c **** 
 210:lib_RTC/RTC_WDT.c ****     retVal  = ((readTime & RTC_MASK_100_MILISECONDS) >> RTC_100_MILISECONDS_SHIFT) * 100u;
 508              		.loc 1 210 0
 509 0000 6423     		mov	r3, #100
 510 0002 0104     		lsl	r1, r0, #16
 211:lib_RTC/RTC_WDT.c ****     retVal  += ((readTime & RTC_MASK_10_MILISECONDS) >> RTC_10_MILISECONDS_SHIFT) * 10u;
 511              		.loc 1 211 0
 512 0004 0205     		lsl	r2, r0, #20
 210:lib_RTC/RTC_WDT.c ****     retVal  += ((readTime & RTC_MASK_10_MILISECONDS) >> RTC_10_MILISECONDS_SHIFT) * 10u;
 513              		.loc 1 210 0
 514 0006 090F     		lsr	r1, r1, #28
 515 0008 5943     		mul	r1, r3
 516              	.LVL35:
 517              		.loc 1 211 0
 518 000a 120F     		lsr	r2, r2, #28
 519 000c 5A3B     		sub	r3, r3, #90
ARM GAS  C:\Users\Petro\AppData\Local\Temp\ccWJcj1d.s 			page 24


 520 000e 5A43     		mul	r2, r3
 521 0010 8B18     		add	r3, r1, r2
 522              	.LVL36:
 212:lib_RTC/RTC_WDT.c ****     retVal += (readTime & RTC_MASK_MILISECONDS) >> RTC_MILISECONDS_SHIFT;
 523              		.loc 1 212 0
 524 0012 0F22     		mov	r2, #15
 525 0014 1040     		and	r0, r2
 526              	.LVL37:
 527 0016 1818     		add	r0, r3, r0
 528              	.LVL38:
 213:lib_RTC/RTC_WDT.c **** 
 214:lib_RTC/RTC_WDT.c ****     return (int)(retVal);
 215:lib_RTC/RTC_WDT.c **** }
 529              		.loc 1 215 0
 530              		@ sp needed
 531 0018 7047     		bx	lr
 532              		.cfi_endproc
 533              	.LFE70:
 534              		.size	RTCgetMiliecond, .-RTCgetMiliecond
 535              		.section	.text.RTCgetRecentMs,"ax",%progbits
 536              		.align	1
 537              		.global	RTCgetRecentMs
 538              		.code	16
 539              		.thumb_func
 540              		.type	RTCgetRecentMs, %function
 541              	RTCgetRecentMs:
 542              	.LFB71:
 216:lib_RTC/RTC_WDT.c **** 
 217:lib_RTC/RTC_WDT.c **** /*******************************************************************************
 218:lib_RTC/RTC_WDT.c **** * Function Name: RTCgetRecentMs
 219:lib_RTC/RTC_WDT.c **** ****************************************************************************//**
 220:lib_RTC/RTC_WDT.c **** *
 221:lib_RTC/RTC_WDT.c **** * \brief
 222:lib_RTC/RTC_WDT.c **** *  reads the actual value of the millisecond timer
 223:lib_RTC/RTC_WDT.c **** *
 224:lib_RTC/RTC_WDT.c **** * \return
 225:lib_RTC/RTC_WDT.c **** *  The miliseconds value.
 226:lib_RTC/RTC_WDT.c **** *
 227:lib_RTC/RTC_WDT.c **** *******************************************************************************/
 228:lib_RTC/RTC_WDT.c **** uint32_t RTCgetRecentMs()
 229:lib_RTC/RTC_WDT.c **** {    
 543              		.loc 1 229 0
 544              		.cfi_startproc
 230:lib_RTC/RTC_WDT.c ****     return msRTC;
 545              		.loc 1 230 0
 546 0000 014B     		ldr	r3, .L19
 231:lib_RTC/RTC_WDT.c **** }
 547              		.loc 1 231 0
 548              		@ sp needed
 230:lib_RTC/RTC_WDT.c ****     return msRTC;
 549              		.loc 1 230 0
 550 0002 1888     		ldrh	r0, [r3]
 551              		.loc 1 231 0
 552 0004 7047     		bx	lr
 553              	.L20:
 554 0006 C046     		.align	2
 555              	.L19:
ARM GAS  C:\Users\Petro\AppData\Local\Temp\ccWJcj1d.s 			page 25


 556 0008 00000000 		.word	.LANCHOR0
 557              		.cfi_endproc
 558              	.LFE71:
 559              		.size	RTCgetRecentMs, .-RTCgetRecentMs
 560              		.bss
 561              		.align	3
 562              		.set	.LANCHOR0,. + 0
 563              		.type	msRTC, %object
 564              		.size	msRTC, 2
 565              	msRTC:
 566 0000 0000     		.space	2
 567 0002 00000000 		.space	6
 567      0000
 568              		.type	time, %object
 569              		.size	time, 8
 570              	time:
 571 0008 00000000 		.space	8
 571      00000000 
 572              		.text
 573              	.Letext0:
 574              		.file 3 "c:\\program files (x86)\\cypress\\psoc creator\\4.0\\psoc creator\\import\\gnu\\arm\\4.9.
 575              		.file 4 "c:\\program files (x86)\\cypress\\psoc creator\\4.0\\psoc creator\\import\\gnu\\arm\\4.9.
 576              		.file 5 "Generated_Source\\PSoC4/cytypes.h"
 577              		.file 6 "Generated_Source\\PSoC4/CyLFClk.h"
 578              		.file 7 "Generated_Source\\PSoC4/ble_Stack.h"
 579              		.file 8 "Generated_Source\\PSoC4/debug.h"