ARM GAS  C:\Users\Petro\AppData\Local\Temp\ccJ7RcnT.s 			page 1


   1              		.cpu cortex-m0
   2              		.fpu softvfp
   3              		.eabi_attribute 20, 1
   4              		.eabi_attribute 21, 1
   5              		.eabi_attribute 23, 3
   6              		.eabi_attribute 24, 1
   7              		.eabi_attribute 25, 1
   8              		.eabi_attribute 26, 1
   9              		.eabi_attribute 30, 4
  10              		.eabi_attribute 34, 0
  11              		.eabi_attribute 18, 4
  12              		.code	16
  13              		.file	"taskAutomat.c"
  14              		.text
  15              	.Ltext0:
  16              		.cfi_sections	.debug_frame
  17              		.section	.text.TIMER_HANDLER,"ax",%progbits
  18              		.align	1
  19              		.global	TIMER_HANDLER
  20              		.code	16
  21              		.thumb_func
  22              		.type	TIMER_HANDLER, %function
  23              	TIMER_HANDLER:
  24              	.LFB63:
  25              		.file 1 "..\\..\\common\\lib\\lib_TaskTimer\\taskAutomat.c"
   1:..\..\common\lib\lib_TaskTimer/taskAutomat.c **** #include <..\..\common\lib\lib_TaskTimer\taskAutomat.h>
   2:..\..\common\lib\lib_TaskTimer/taskAutomat.c **** #include "lib_Network\network.h"
   3:..\..\common\lib\lib_TaskTimer/taskAutomat.c **** #include "..\..\common\lib\lib_Display\display.h"
   4:..\..\common\lib\lib_TaskTimer/taskAutomat.c **** #include "..\..\common\lib\lib_Batt\batt.h"
   5:..\..\common\lib\lib_TaskTimer/taskAutomat.c **** #include "appGlobal.h"
   6:..\..\common\lib\lib_TaskTimer/taskAutomat.c **** #ifdef FINISH_MODULE
   7:..\..\common\lib\lib_TaskTimer/taskAutomat.c **** #include <SDinsert.h>
   8:..\..\common\lib\lib_TaskTimer/taskAutomat.c **** #include "..\..\common\lib\lib_DB\logResult.h"
   9:..\..\common\lib\lib_TaskTimer/taskAutomat.c **** #include "..\..\common\lib\lib_BLE\bluetooth.h"
  10:..\..\common\lib\lib_TaskTimer/taskAutomat.c **** #include "..\..\common\lib\lib_DS1307\DS1307.h"
  11:..\..\common\lib\lib_TaskTimer/taskAutomat.c **** #endif
  12:..\..\common\lib\lib_TaskTimer/taskAutomat.c **** 
  13:..\..\common\lib\lib_TaskTimer/taskAutomat.c **** #define MAX_NUM_OF_TIMERS   5
  14:..\..\common\lib\lib_TaskTimer/taskAutomat.c **** 
  15:..\..\common\lib\lib_TaskTimer/taskAutomat.c **** #define WRITE_ERROR     1
  16:..\..\common\lib\lib_TaskTimer/taskAutomat.c **** #define WRITE_NO_ERROR  0
  17:..\..\common\lib\lib_TaskTimer/taskAutomat.c **** static uint16_t writeFlag;
  18:..\..\common\lib\lib_TaskTimer/taskAutomat.c **** 
  19:..\..\common\lib\lib_TaskTimer/taskAutomat.c **** uint8_t flag[MAX_NUM_OF_TIMERS];
  20:..\..\common\lib\lib_TaskTimer/taskAutomat.c **** 
  21:..\..\common\lib\lib_TaskTimer/taskAutomat.c **** volatile static struct
  22:..\..\common\lib\lib_TaskTimer/taskAutomat.c **** {
  23:..\..\common\lib\lib_TaskTimer/taskAutomat.c ****     uint8_t Number;
  24:..\..\common\lib\lib_TaskTimer/taskAutomat.c ****     uint16_t Time;
  25:..\..\common\lib\lib_TaskTimer/taskAutomat.c **** }SoftTimer[MAX_NUM_OF_TIMERS];
  26:..\..\common\lib\lib_TaskTimer/taskAutomat.c **** 
  27:..\..\common\lib\lib_TaskTimer/taskAutomat.c **** void Action1(void);
  28:..\..\common\lib\lib_TaskTimer/taskAutomat.c **** void Action2(void);
  29:..\..\common\lib\lib_TaskTimer/taskAutomat.c **** void Action3(void);
  30:..\..\common\lib\lib_TaskTimer/taskAutomat.c **** void Action4(void);
  31:..\..\common\lib\lib_TaskTimer/taskAutomat.c **** void Action5(void);
  32:..\..\common\lib\lib_TaskTimer/taskAutomat.c **** 
ARM GAS  C:\Users\Petro\AppData\Local\Temp\ccJ7RcnT.s 			page 2


  33:..\..\common\lib\lib_TaskTimer/taskAutomat.c **** CY_ISR(TIMER_HANDLER)
  34:..\..\common\lib\lib_TaskTimer/taskAutomat.c **** {
  26              		.loc 1 34 0
  27              		.cfi_startproc
  28              	.LVL0:
  35:..\..\common\lib\lib_TaskTimer/taskAutomat.c ****     int i;
  36:..\..\common\lib\lib_TaskTimer/taskAutomat.c ****     for(i=0; i<MAX_NUM_OF_TIMERS; i++)
  29              		.loc 1 36 0
  30 0000 0022     		mov	r2, #0
  34:..\..\common\lib\lib_TaskTimer/taskAutomat.c ****     int i;
  31              		.loc 1 34 0
  32 0002 38B5     		push	{r3, r4, r5, lr}
  33              		.cfi_def_cfa_offset 16
  34              		.cfi_offset 3, -16
  35              		.cfi_offset 4, -12
  36              		.cfi_offset 5, -8
  37              		.cfi_offset 14, -4
  38              	.LVL1:
  39              	.L4:
  37:..\..\common\lib\lib_TaskTimer/taskAutomat.c ****     {
  38:..\..\common\lib\lib_TaskTimer/taskAutomat.c ****         if(SoftTimer[i].Number == 255)continue;     /*if timer empty, next timer*/
  40              		.loc 1 38 0
  41 0004 0E4B     		ldr	r3, .L9
  42 0006 9100     		lsl	r1, r2, #2
  43 0008 C85C     		ldrb	r0, [r1, r3]
  44 000a FF28     		cmp	r0, #255
  45 000c 0ED0     		beq	.L2
  39:..\..\common\lib\lib_TaskTimer/taskAutomat.c ****         
  40:..\..\common\lib\lib_TaskTimer/taskAutomat.c ****         if(SoftTimer[i].Time > 0)
  46              		.loc 1 40 0
  47 000e 5818     		add	r0, r3, r1
  48 0010 4488     		ldrh	r4, [r0, #2]
  49 0012 002C     		cmp	r4, #0
  50 0014 04D0     		beq	.L3
  41:..\..\common\lib\lib_TaskTimer/taskAutomat.c ****         {
  42:..\..\common\lib\lib_TaskTimer/taskAutomat.c ****             SoftTimer[i].Time --;
  51              		.loc 1 42 0
  52 0016 4388     		ldrh	r3, [r0, #2]
  53 0018 013B     		sub	r3, r3, #1
  54 001a 9BB2     		uxth	r3, r3
  55 001c 4380     		strh	r3, [r0, #2]
  56 001e 05E0     		b	.L2
  57              	.L3:
  43:..\..\common\lib\lib_TaskTimer/taskAutomat.c ****         }
  44:..\..\common\lib\lib_TaskTimer/taskAutomat.c ****         else
  45:..\..\common\lib\lib_TaskTimer/taskAutomat.c ****         {
  46:..\..\common\lib\lib_TaskTimer/taskAutomat.c ****             /*set flag*/
  47:..\..\common\lib\lib_TaskTimer/taskAutomat.c ****             flag[SoftTimer[i].Number] = 1;
  58              		.loc 1 47 0
  59 0020 0125     		mov	r5, #1
  60 0022 C85C     		ldrb	r0, [r1, r3]
  61 0024 074C     		ldr	r4, .L9+4
  62 0026 2554     		strb	r5, [r4, r0]
  48:..\..\common\lib\lib_TaskTimer/taskAutomat.c ****             
  49:..\..\common\lib\lib_TaskTimer/taskAutomat.c ****             /*reset timer*/
  50:..\..\common\lib\lib_TaskTimer/taskAutomat.c ****             SoftTimer[i].Number = 255;
  63              		.loc 1 50 0
ARM GAS  C:\Users\Petro\AppData\Local\Temp\ccJ7RcnT.s 			page 3


  64 0028 FF20     		mov	r0, #255
  65 002a C854     		strb	r0, [r1, r3]
  66              	.L2:
  36:..\..\common\lib\lib_TaskTimer/taskAutomat.c ****     {
  67              		.loc 1 36 0 discriminator 2
  68 002c 0132     		add	r2, r2, #1
  69              	.LVL2:
  70 002e 052A     		cmp	r2, #5
  71 0030 E8D1     		bne	.L4
  51:..\..\common\lib\lib_TaskTimer/taskAutomat.c ****         }
  52:..\..\common\lib\lib_TaskTimer/taskAutomat.c ****     }
  53:..\..\common\lib\lib_TaskTimer/taskAutomat.c ****     isr_timer_ClearPending();
  72              		.loc 1 53 0
  73 0032 FFF7FEFF 		bl	isr_timer_ClearPending
  74              	.LVL3:
  54:..\..\common\lib\lib_TaskTimer/taskAutomat.c ****     Timer_ClearInterrupt(Timer_INTR_MASK_CC_MATCH);
  75              		.loc 1 54 0
  76 0036 0220     		mov	r0, #2
  77 0038 FFF7FEFF 		bl	Timer_ClearInterrupt
  78              	.LVL4:
  55:..\..\common\lib\lib_TaskTimer/taskAutomat.c **** }
  79              		.loc 1 55 0
  80              		@ sp needed
  81 003c 38BD     		pop	{r3, r4, r5, pc}
  82              	.L10:
  83 003e C046     		.align	2
  84              	.L9:
  85 0040 00000000 		.word	.LANCHOR0
  86 0044 00000000 		.word	flag
  87              		.cfi_endproc
  88              	.LFE63:
  89              		.size	TIMER_HANDLER, .-TIMER_HANDLER
  90              		.section	.text.TaskTimerInit,"ax",%progbits
  91              		.align	1
  92              		.global	TaskTimerInit
  93              		.code	16
  94              		.thumb_func
  95              		.type	TaskTimerInit, %function
  96              	TaskTimerInit:
  97              	.LFB65:
  56:..\..\common\lib\lib_TaskTimer/taskAutomat.c **** 
  57:..\..\common\lib\lib_TaskTimer/taskAutomat.c **** /*******************************************************************************
  58:..\..\common\lib\lib_TaskTimer/taskAutomat.c **** * Function Name: TaskCheck
  59:..\..\common\lib\lib_TaskTimer/taskAutomat.c **** ********************************************************************************
  60:..\..\common\lib\lib_TaskTimer/taskAutomat.c **** *
  61:..\..\common\lib\lib_TaskTimer/taskAutomat.c **** * Summary:
  62:..\..\common\lib\lib_TaskTimer/taskAutomat.c **** *   check flag machine
  63:..\..\common\lib\lib_TaskTimer/taskAutomat.c **** *
  64:..\..\common\lib\lib_TaskTimer/taskAutomat.c **** *******************************************************************************/
  65:..\..\common\lib\lib_TaskTimer/taskAutomat.c **** void TaskCheck(void)
  66:..\..\common\lib\lib_TaskTimer/taskAutomat.c **** {
  67:..\..\common\lib\lib_TaskTimer/taskAutomat.c ****     if(flag[ACTION1] == 1)Action1();
  68:..\..\common\lib\lib_TaskTimer/taskAutomat.c ****     if(flag[ACTION2] == 1)Action2();
  69:..\..\common\lib\lib_TaskTimer/taskAutomat.c ****     if(flag[ACTION3] == 1)Action3();
  70:..\..\common\lib\lib_TaskTimer/taskAutomat.c ****     if(flag[ACTION4] == 1)Action4();
  71:..\..\common\lib\lib_TaskTimer/taskAutomat.c ****     if(flag[ACTION5] == 1)Action5();
  72:..\..\common\lib\lib_TaskTimer/taskAutomat.c **** }
ARM GAS  C:\Users\Petro\AppData\Local\Temp\ccJ7RcnT.s 			page 4


  73:..\..\common\lib\lib_TaskTimer/taskAutomat.c **** 
  74:..\..\common\lib\lib_TaskTimer/taskAutomat.c **** /*******************************************************************************
  75:..\..\common\lib\lib_TaskTimer/taskAutomat.c **** * Function Name: TaskTimerInit
  76:..\..\common\lib\lib_TaskTimer/taskAutomat.c **** ********************************************************************************
  77:..\..\common\lib\lib_TaskTimer/taskAutomat.c **** *
  78:..\..\common\lib\lib_TaskTimer/taskAutomat.c **** * Summary:
  79:..\..\common\lib\lib_TaskTimer/taskAutomat.c **** *   init flag machine
  80:..\..\common\lib\lib_TaskTimer/taskAutomat.c **** *
  81:..\..\common\lib\lib_TaskTimer/taskAutomat.c **** *******************************************************************************/
  82:..\..\common\lib\lib_TaskTimer/taskAutomat.c **** void TaskTimerInit(void)
  83:..\..\common\lib\lib_TaskTimer/taskAutomat.c **** {
  98              		.loc 1 83 0
  99              		.cfi_startproc
 100              	.LVL5:
  84:..\..\common\lib\lib_TaskTimer/taskAutomat.c ****     int i;
  85:..\..\common\lib\lib_TaskTimer/taskAutomat.c ****     for(i=0; i<MAX_NUM_OF_TIMERS; i++)
  86:..\..\common\lib\lib_TaskTimer/taskAutomat.c ****         SoftTimer[i].Number = 255;
 101              		.loc 1 86 0
 102 0000 FF22     		mov	r2, #255
  83:..\..\common\lib\lib_TaskTimer/taskAutomat.c ****     int i;
 103              		.loc 1 83 0
 104 0002 08B5     		push	{r3, lr}
 105              		.cfi_def_cfa_offset 8
 106              		.cfi_offset 3, -8
 107              		.cfi_offset 14, -4
 108              		.loc 1 86 0
 109 0004 054B     		ldr	r3, .L12
  87:..\..\common\lib\lib_TaskTimer/taskAutomat.c ****     
  88:..\..\common\lib\lib_TaskTimer/taskAutomat.c ****     isr_timer_StartEx(TIMER_HANDLER);
 110              		.loc 1 88 0
 111 0006 0648     		ldr	r0, .L12+4
  86:..\..\common\lib\lib_TaskTimer/taskAutomat.c ****     
 112              		.loc 1 86 0
 113 0008 1A70     		strb	r2, [r3]
 114              	.LVL6:
 115 000a 1A71     		strb	r2, [r3, #4]
 116              	.LVL7:
 117 000c 1A72     		strb	r2, [r3, #8]
 118              	.LVL8:
 119 000e 1A73     		strb	r2, [r3, #12]
 120              	.LVL9:
 121 0010 1A74     		strb	r2, [r3, #16]
 122              	.LVL10:
 123              		.loc 1 88 0
 124 0012 FFF7FEFF 		bl	isr_timer_StartEx
 125              	.LVL11:
  89:..\..\common\lib\lib_TaskTimer/taskAutomat.c ****     Timer_Start();  
  90:..\..\common\lib\lib_TaskTimer/taskAutomat.c **** }
 126              		.loc 1 90 0
 127              		@ sp needed
  89:..\..\common\lib\lib_TaskTimer/taskAutomat.c ****     Timer_Start();  
 128              		.loc 1 89 0
 129 0016 FFF7FEFF 		bl	Timer_Start
 130              	.LVL12:
 131              		.loc 1 90 0
 132 001a 08BD     		pop	{r3, pc}
 133              	.L13:
ARM GAS  C:\Users\Petro\AppData\Local\Temp\ccJ7RcnT.s 			page 5


 134              		.align	2
 135              	.L12:
 136 001c 00000000 		.word	.LANCHOR0
 137 0020 00000000 		.word	TIMER_HANDLER
 138              		.cfi_endproc
 139              	.LFE65:
 140              		.size	TaskTimerInit, .-TaskTimerInit
 141              		.section	.text.SetTaskTimer,"ax",%progbits
 142              		.align	1
 143              		.global	SetTaskTimer
 144              		.code	16
 145              		.thumb_func
 146              		.type	SetTaskTimer, %function
 147              	SetTaskTimer:
 148              	.LFB66:
  91:..\..\common\lib\lib_TaskTimer/taskAutomat.c **** 
  92:..\..\common\lib\lib_TaskTimer/taskAutomat.c **** /*******************************************************************************
  93:..\..\common\lib\lib_TaskTimer/taskAutomat.c **** * Function Name: SetTaskTimer
  94:..\..\common\lib\lib_TaskTimer/taskAutomat.c **** ********************************************************************************
  95:..\..\common\lib\lib_TaskTimer/taskAutomat.c **** *
  96:..\..\common\lib\lib_TaskTimer/taskAutomat.c **** * Summary:
  97:..\..\common\lib\lib_TaskTimer/taskAutomat.c **** *   set the time for the program timer
  98:..\..\common\lib\lib_TaskTimer/taskAutomat.c **** *
  99:..\..\common\lib\lib_TaskTimer/taskAutomat.c **** * Parameters:
 100:..\..\common\lib\lib_TaskTimer/taskAutomat.c **** *  newNumber - new number task
 101:..\..\common\lib\lib_TaskTimer/taskAutomat.c **** *  newTime - new time from task
 102:..\..\common\lib\lib_TaskTimer/taskAutomat.c **** *
 103:..\..\common\lib\lib_TaskTimer/taskAutomat.c **** *******************************************************************************/
 104:..\..\common\lib\lib_TaskTimer/taskAutomat.c **** void SetTaskTimer(uint8_t newNumber, uint16_t newTime)
 105:..\..\common\lib\lib_TaskTimer/taskAutomat.c **** {
 149              		.loc 1 105 0
 150              		.cfi_startproc
 151              	.LVL13:
 106:..\..\common\lib\lib_TaskTimer/taskAutomat.c ****     //CyGlobalIntDisable;
 107:..\..\common\lib\lib_TaskTimer/taskAutomat.c ****     int i;
 108:..\..\common\lib\lib_TaskTimer/taskAutomat.c ****     
 109:..\..\common\lib\lib_TaskTimer/taskAutomat.c ****     /*search existing timer*/
 110:..\..\common\lib\lib_TaskTimer/taskAutomat.c ****     for(i=0; i< MAX_NUM_OF_TIMERS; i++)
 152              		.loc 1 110 0
 153 0000 0022     		mov	r2, #0
 105:..\..\common\lib\lib_TaskTimer/taskAutomat.c ****     //CyGlobalIntDisable;
 154              		.loc 1 105 0
 155 0002 70B5     		push	{r4, r5, r6, lr}
 156              		.cfi_def_cfa_offset 16
 157              		.cfi_offset 4, -16
 158              		.cfi_offset 5, -12
 159              		.cfi_offset 6, -8
 160              		.cfi_offset 14, -4
 161              	.LVL14:
 162              	.L17:
 111:..\..\common\lib\lib_TaskTimer/taskAutomat.c ****     {
 112:..\..\common\lib\lib_TaskTimer/taskAutomat.c ****         if(SoftTimer[i].Number == newNumber)
 163              		.loc 1 112 0
 164 0004 0C4B     		ldr	r3, .L20
 165 0006 9400     		lsl	r4, r2, #2
 166 0008 E65C     		ldrb	r6, [r4, r3]
 167 000a 1D1C     		mov	r5, r3
ARM GAS  C:\Users\Petro\AppData\Local\Temp\ccJ7RcnT.s 			page 6


 168 000c 8642     		cmp	r6, r0
 169 000e 02D1     		bne	.L15
 113:..\..\common\lib\lib_TaskTimer/taskAutomat.c ****         {
 114:..\..\common\lib\lib_TaskTimer/taskAutomat.c ****             /*set new time*/
 115:..\..\common\lib\lib_TaskTimer/taskAutomat.c ****             SoftTimer[i].Time = newTime;
 170              		.loc 1 115 0
 171 0010 1C19     		add	r4, r3, r4
 172 0012 6180     		strh	r1, [r4, #2]
 116:..\..\common\lib\lib_TaskTimer/taskAutomat.c ****             
 117:..\..\common\lib\lib_TaskTimer/taskAutomat.c ****             //CyGlobalIntEnable;
 118:..\..\common\lib\lib_TaskTimer/taskAutomat.c ****             return;
 173              		.loc 1 118 0
 174 0014 0EE0     		b	.L14
 175              	.L15:
 110:..\..\common\lib\lib_TaskTimer/taskAutomat.c ****     {
 176              		.loc 1 110 0 discriminator 2
 177 0016 0132     		add	r2, r2, #1
 178              	.LVL15:
 179 0018 052A     		cmp	r2, #5
 180 001a F3D1     		bne	.L17
 181 001c 0022     		mov	r2, #0
 182              	.LVL16:
 183              	.L19:
 119:..\..\common\lib\lib_TaskTimer/taskAutomat.c ****         }
 120:..\..\common\lib\lib_TaskTimer/taskAutomat.c ****     }
 121:..\..\common\lib\lib_TaskTimer/taskAutomat.c ****     
 122:..\..\common\lib\lib_TaskTimer/taskAutomat.c ****     /*search new empty timer*/
 123:..\..\common\lib\lib_TaskTimer/taskAutomat.c ****     for(i=0; i< MAX_NUM_OF_TIMERS; i++)
 124:..\..\common\lib\lib_TaskTimer/taskAutomat.c ****     {
 125:..\..\common\lib\lib_TaskTimer/taskAutomat.c ****         if(SoftTimer[i].Number == 255)
 184              		.loc 1 125 0
 185 001e 9300     		lsl	r3, r2, #2
 186 0020 EC5C     		ldrb	r4, [r5, r3]
 187 0022 FF2C     		cmp	r4, #255
 188 0024 03D1     		bne	.L18
 126:..\..\common\lib\lib_TaskTimer/taskAutomat.c ****         {
 127:..\..\common\lib\lib_TaskTimer/taskAutomat.c ****             SoftTimer[i].Number = newNumber;
 189              		.loc 1 127 0
 190 0026 E854     		strb	r0, [r5, r3]
 128:..\..\common\lib\lib_TaskTimer/taskAutomat.c ****             SoftTimer[i].Time = newTime;
 191              		.loc 1 128 0
 192 0028 EB18     		add	r3, r5, r3
 193 002a 5980     		strh	r1, [r3, #2]
 129:..\..\common\lib\lib_TaskTimer/taskAutomat.c ****             
 130:..\..\common\lib\lib_TaskTimer/taskAutomat.c ****             //CyGlobalIntEnable;
 131:..\..\common\lib\lib_TaskTimer/taskAutomat.c ****             return;
 194              		.loc 1 131 0
 195 002c 02E0     		b	.L14
 196              	.L18:
 123:..\..\common\lib\lib_TaskTimer/taskAutomat.c ****     {
 197              		.loc 1 123 0 discriminator 2
 198 002e 0132     		add	r2, r2, #1
 199              	.LVL17:
 200 0030 052A     		cmp	r2, #5
 201 0032 F4D1     		bne	.L19
 202              	.L14:
 132:..\..\common\lib\lib_TaskTimer/taskAutomat.c ****         }
ARM GAS  C:\Users\Petro\AppData\Local\Temp\ccJ7RcnT.s 			page 7


 133:..\..\common\lib\lib_TaskTimer/taskAutomat.c ****     }
 134:..\..\common\lib\lib_TaskTimer/taskAutomat.c **** }
 203              		.loc 1 134 0
 204              		@ sp needed
 205 0034 70BD     		pop	{r4, r5, r6, pc}
 206              	.L21:
 207 0036 C046     		.align	2
 208              	.L20:
 209 0038 00000000 		.word	.LANCHOR0
 210              		.cfi_endproc
 211              	.LFE66:
 212              		.size	SetTaskTimer, .-SetTaskTimer
 213              		.section	.text.Action1,"ax",%progbits
 214              		.align	1
 215              		.global	Action1
 216              		.code	16
 217              		.thumb_func
 218              		.type	Action1, %function
 219              	Action1:
 220              	.LFB67:
 135:..\..\common\lib\lib_TaskTimer/taskAutomat.c **** 
 136:..\..\common\lib\lib_TaskTimer/taskAutomat.c **** 
 137:..\..\common\lib\lib_TaskTimer/taskAutomat.c **** #ifdef START_MODULE
 138:..\..\common\lib\lib_TaskTimer/taskAutomat.c **** void Action1(void)
 139:..\..\common\lib\lib_TaskTimer/taskAutomat.c **** {
 140:..\..\common\lib\lib_TaskTimer/taskAutomat.c ****     flag[ACTION1] = 0;
 141:..\..\common\lib\lib_TaskTimer/taskAutomat.c ****     SendData();  
 142:..\..\common\lib\lib_TaskTimer/taskAutomat.c ****     SetTaskTimer(ACTION1,ACTION1_TIMEOUT);
 143:..\..\common\lib\lib_TaskTimer/taskAutomat.c **** }
 144:..\..\common\lib\lib_TaskTimer/taskAutomat.c **** 
 145:..\..\common\lib\lib_TaskTimer/taskAutomat.c **** void Action2(void)
 146:..\..\common\lib\lib_TaskTimer/taskAutomat.c **** {
 147:..\..\common\lib\lib_TaskTimer/taskAutomat.c ****     flag[ACTION2] = 0;
 148:..\..\common\lib\lib_TaskTimer/taskAutomat.c ****     DisplayRealTime();
 149:..\..\common\lib\lib_TaskTimer/taskAutomat.c ****     DisplayBattVoltage(ReadBattVoltage());
 150:..\..\common\lib\lib_TaskTimer/taskAutomat.c ****     SetTaskTimer(ACTION2, ACTION2_TIMEOUT);
 151:..\..\common\lib\lib_TaskTimer/taskAutomat.c **** }
 152:..\..\common\lib\lib_TaskTimer/taskAutomat.c **** 
 153:..\..\common\lib\lib_TaskTimer/taskAutomat.c **** void Action3(void)
 154:..\..\common\lib\lib_TaskTimer/taskAutomat.c **** {
 155:..\..\common\lib\lib_TaskTimer/taskAutomat.c ****     flag[ACTION3] = 0;
 156:..\..\common\lib\lib_TaskTimer/taskAutomat.c ****     
 157:..\..\common\lib\lib_TaskTimer/taskAutomat.c ****     /*indicator network*/
 158:..\..\common\lib\lib_TaskTimer/taskAutomat.c ****     if(NetworkStatus() == NETWORK_CONN)
 159:..\..\common\lib\lib_TaskTimer/taskAutomat.c ****     {
 160:..\..\common\lib\lib_TaskTimer/taskAutomat.c ****         DisplayIndicatorNetwork(CONNECT);
 161:..\..\common\lib\lib_TaskTimer/taskAutomat.c ****     }
 162:..\..\common\lib\lib_TaskTimer/taskAutomat.c ****     else
 163:..\..\common\lib\lib_TaskTimer/taskAutomat.c ****     {
 164:..\..\common\lib\lib_TaskTimer/taskAutomat.c ****         DisplayIndicatorNetwork(DISCONNECT);
 165:..\..\common\lib\lib_TaskTimer/taskAutomat.c ****     }
 166:..\..\common\lib\lib_TaskTimer/taskAutomat.c ****     SetTaskTimer(ACTION3, ACTION3_TIMEOUT);
 167:..\..\common\lib\lib_TaskTimer/taskAutomat.c **** }
 168:..\..\common\lib\lib_TaskTimer/taskAutomat.c **** 
 169:..\..\common\lib\lib_TaskTimer/taskAutomat.c **** void Action4(void)
 170:..\..\common\lib\lib_TaskTimer/taskAutomat.c **** {
 171:..\..\common\lib\lib_TaskTimer/taskAutomat.c ****     flag[ACTION3] = 0; 
ARM GAS  C:\Users\Petro\AppData\Local\Temp\ccJ7RcnT.s 			page 8


 172:..\..\common\lib\lib_TaskTimer/taskAutomat.c ****     //SetTaskTimer(ACTION4, ACTION4_TIMEOUT);
 173:..\..\common\lib\lib_TaskTimer/taskAutomat.c **** }
 174:..\..\common\lib\lib_TaskTimer/taskAutomat.c **** 
 175:..\..\common\lib\lib_TaskTimer/taskAutomat.c **** void Action5(void)
 176:..\..\common\lib\lib_TaskTimer/taskAutomat.c **** {    
 177:..\..\common\lib\lib_TaskTimer/taskAutomat.c ****     flag[ACTION3] = 0;
 178:..\..\common\lib\lib_TaskTimer/taskAutomat.c ****     //SetTaskTimer(ACTION4, ACTION5_TIMEOUT);
 179:..\..\common\lib\lib_TaskTimer/taskAutomat.c **** }
 180:..\..\common\lib\lib_TaskTimer/taskAutomat.c **** #endif
 181:..\..\common\lib\lib_TaskTimer/taskAutomat.c **** #ifdef FINISH_MODULE
 182:..\..\common\lib\lib_TaskTimer/taskAutomat.c **** void Action1(void)
 183:..\..\common\lib\lib_TaskTimer/taskAutomat.c **** {
 221              		.loc 1 183 0
 222              		.cfi_startproc
 184:..\..\common\lib\lib_TaskTimer/taskAutomat.c ****     flag[ACTION1] = 0;
 223              		.loc 1 184 0
 224 0000 0022     		mov	r2, #0
 183:..\..\common\lib\lib_TaskTimer/taskAutomat.c ****     flag[ACTION1] = 0;
 225              		.loc 1 183 0
 226 0002 30B5     		push	{r4, r5, lr}
 227              		.cfi_def_cfa_offset 12
 228              		.cfi_offset 4, -12
 229              		.cfi_offset 5, -8
 230              		.cfi_offset 14, -4
 231              		.loc 1 184 0
 232 0004 2D4B     		ldr	r3, .L31
 183:..\..\common\lib\lib_TaskTimer/taskAutomat.c ****     flag[ACTION1] = 0;
 233              		.loc 1 183 0
 234 0006 A1B0     		sub	sp, sp, #132
 235              		.cfi_def_cfa_offset 144
 236              		.loc 1 184 0
 237 0008 1A70     		strb	r2, [r3]
 185:..\..\common\lib\lib_TaskTimer/taskAutomat.c ****     
 186:..\..\common\lib\lib_TaskTimer/taskAutomat.c ****     /*write result skier on log 
 187:..\..\common\lib\lib_TaskTimer/taskAutomat.c ****     (if there is no memory card that is a record in fifo)*/    
 188:..\..\common\lib\lib_TaskTimer/taskAutomat.c ****     if((FifoGetSize() > 0) || (writeFlag == WRITE_ERROR))
 238              		.loc 1 188 0
 239 000a FFF7FEFF 		bl	FifoGetSize
 240              	.LVL18:
 241 000e 2C4C     		ldr	r4, .L31+4
 242 0010 0028     		cmp	r0, #0
 243 0012 02D1     		bne	.L23
 244              		.loc 1 188 0 is_stmt 0 discriminator 1
 245 0014 A38A     		ldrh	r3, [r4, #20]
 246 0016 012B     		cmp	r3, #1
 247 0018 49D1     		bne	.L24
 248              	.L23:
 249              	.LBB2:
 189:..\..\common\lib\lib_TaskTimer/taskAutomat.c ****     {
 190:..\..\common\lib\lib_TaskTimer/taskAutomat.c ****         uint32_t result;
 191:..\..\common\lib\lib_TaskTimer/taskAutomat.c ****         skierDB_El tmpStruct;
 192:..\..\common\lib\lib_TaskTimer/taskAutomat.c ****         static uint32_t lastFifoSize;
 193:..\..\common\lib\lib_TaskTimer/taskAutomat.c ****         static uint32_t tmpIDSkier;
 194:..\..\common\lib\lib_TaskTimer/taskAutomat.c ****         
 195:..\..\common\lib\lib_TaskTimer/taskAutomat.c ****         if (writeFlag == WRITE_NO_ERROR)
 250              		.loc 1 195 0 is_stmt 1
 251 001a A38A     		ldrh	r3, [r4, #20]
ARM GAS  C:\Users\Petro\AppData\Local\Temp\ccJ7RcnT.s 			page 9


 252 001c 002B     		cmp	r3, #0
 253 001e 0ED1     		bne	.L25
 196:..\..\common\lib\lib_TaskTimer/taskAutomat.c ****         {
 197:..\..\common\lib\lib_TaskTimer/taskAutomat.c ****             FifoGet(&tmpStruct);
 254              		.loc 1 197 0
 255 0020 14A8     		add	r0, sp, #80
 256 0022 FFF7FEFF 		bl	FifoGet
 257              	.LVL19:
 198:..\..\common\lib\lib_TaskTimer/taskAutomat.c ****             FifoPushLast(tmpStruct);
 258              		.loc 1 198 0
 259 0026 18A9     		add	r1, sp, #96
 260 0028 6846     		mov	r0, sp
 261 002a 2022     		mov	r2, #32
 262 002c FFF7FEFF 		bl	memcpy
 263              	.LVL20:
 264 0030 1498     		ldr	r0, [sp, #80]
 265 0032 1599     		ldr	r1, [sp, #84]
 266 0034 169A     		ldr	r2, [sp, #88]
 267 0036 179B     		ldr	r3, [sp, #92]
 268 0038 FFF7FEFF 		bl	FifoPushLast
 269              	.LVL21:
 270 003c 07E0     		b	.L26
 271              	.L25:
 199:..\..\common\lib\lib_TaskTimer/taskAutomat.c ****         }
 200:..\..\common\lib\lib_TaskTimer/taskAutomat.c ****         else
 201:..\..\common\lib\lib_TaskTimer/taskAutomat.c ****         {
 202:..\..\common\lib\lib_TaskTimer/taskAutomat.c ****             tmpStruct = FifoGetLast();
 272              		.loc 1 202 0
 273 003e 08A8     		add	r0, sp, #32
 274 0040 FFF7FEFF 		bl	FifoGetLast
 275              	.LVL22:
 276 0044 14A8     		add	r0, sp, #80
 277 0046 08A9     		add	r1, sp, #32
 278 0048 3022     		mov	r2, #48
 279 004a FFF7FEFF 		bl	memcpy
 280              	.LVL23:
 281              	.L26:
 203:..\..\common\lib\lib_TaskTimer/taskAutomat.c ****         }
 204:..\..\common\lib\lib_TaskTimer/taskAutomat.c **** 
 205:..\..\common\lib\lib_TaskTimer/taskAutomat.c ****         
 206:..\..\common\lib\lib_TaskTimer/taskAutomat.c ****         /*send finish skier result by buetooth*/
 207:..\..\common\lib\lib_TaskTimer/taskAutomat.c ****         if(writeFlag == WRITE_NO_ERROR )
 282              		.loc 1 207 0
 283 004e A38A     		ldrh	r3, [r4, #20]
 284 0050 002B     		cmp	r3, #0
 285 0052 0DD1     		bne	.L27
 208:..\..\common\lib\lib_TaskTimer/taskAutomat.c ****         {
 209:..\..\common\lib\lib_TaskTimer/taskAutomat.c ****             /*SD only*/
 210:..\..\common\lib\lib_TaskTimer/taskAutomat.c ****             tmpIDSkier = GetIDskierFinished();
 286              		.loc 1 210 0
 287 0054 FFF7FEFF 		bl	GetIDskierFinished
 288              	.LVL24:
 289 0058 051C     		mov	r5, r0
 290 005a A061     		str	r0, [r4, #24]
 211:..\..\common\lib\lib_TaskTimer/taskAutomat.c ****             BLE_sendOneSkierTimeResult(&tmpStruct,tmpIDSkier+1,SkierOnWay(),MAX_SKIERS_ON_WAY);
 291              		.loc 1 211 0
 292 005c FFF7FEFF 		bl	SkierOnWay
ARM GAS  C:\Users\Petro\AppData\Local\Temp\ccJ7RcnT.s 			page 10


 293              	.LVL25:
 294 0060 0135     		add	r5, r5, #1
 295 0062 C2B2     		uxtb	r2, r0
 296 0064 E9B2     		uxtb	r1, r5
 297 0066 14A8     		add	r0, sp, #80
 298 0068 0423     		mov	r3, #4
 299 006a FFF7FEFF 		bl	BLE_sendOneSkierTimeResult
 300              	.LVL26:
 301 006e 13E0     		b	.L28
 302              	.L27:
 212:..\..\common\lib\lib_TaskTimer/taskAutomat.c ****         }
 213:..\..\common\lib\lib_TaskTimer/taskAutomat.c ****         else
 214:..\..\common\lib\lib_TaskTimer/taskAutomat.c ****         {
 215:..\..\common\lib\lib_TaskTimer/taskAutomat.c ****             if(FifoGetSize() != lastFifoSize)
 303              		.loc 1 215 0
 304 0070 FFF7FEFF 		bl	FifoGetSize
 305              	.LVL27:
 306 0074 E369     		ldr	r3, [r4, #28]
 307 0076 9842     		cmp	r0, r3
 308 0078 0ED0     		beq	.L28
 216:..\..\common\lib\lib_TaskTimer/taskAutomat.c ****             {
 217:..\..\common\lib\lib_TaskTimer/taskAutomat.c ****                 tmpIDSkier++;
 309              		.loc 1 217 0
 310 007a A369     		ldr	r3, [r4, #24]
 311 007c 5D1C     		add	r5, r3, #1
 312 007e A561     		str	r5, [r4, #24]
 218:..\..\common\lib\lib_TaskTimer/taskAutomat.c ****                 BLE_sendOneSkierTimeResult(&tmpStruct,tmpIDSkier+1,SkierOnWay(),MAX_SKIERS_ON_WAY);
 313              		.loc 1 218 0
 314 0080 FFF7FEFF 		bl	SkierOnWay
 315              	.LVL28:
 316 0084 0135     		add	r5, r5, #1
 317 0086 C2B2     		uxtb	r2, r0
 318 0088 E9B2     		uxtb	r1, r5
 319 008a 14A8     		add	r0, sp, #80
 320 008c 0423     		mov	r3, #4
 321 008e FFF7FEFF 		bl	BLE_sendOneSkierTimeResult
 322              	.LVL29:
 219:..\..\common\lib\lib_TaskTimer/taskAutomat.c ****                 lastFifoSize = FifoGetSize();
 323              		.loc 1 219 0
 324 0092 FFF7FEFF 		bl	FifoGetSize
 325              	.LVL30:
 326 0096 E061     		str	r0, [r4, #28]
 327              	.L28:
 220:..\..\common\lib\lib_TaskTimer/taskAutomat.c ****             }
 221:..\..\common\lib\lib_TaskTimer/taskAutomat.c ****         }
 222:..\..\common\lib\lib_TaskTimer/taskAutomat.c ****         
 223:..\..\common\lib\lib_TaskTimer/taskAutomat.c ****         /*write data to SD card*/
 224:..\..\common\lib\lib_TaskTimer/taskAutomat.c ****         result = WriteSkierResult(&tmpStruct);
 328              		.loc 1 224 0
 329 0098 14A8     		add	r0, sp, #80
 330 009a FFF7FEFF 		bl	WriteSkierResult
 331              	.LVL31:
 225:..\..\common\lib\lib_TaskTimer/taskAutomat.c ****         if(result != FR_OK)
 332              		.loc 1 225 0
 333 009e 0028     		cmp	r0, #0
 334 00a0 04D0     		beq	.L29
 226:..\..\common\lib\lib_TaskTimer/taskAutomat.c ****         {
ARM GAS  C:\Users\Petro\AppData\Local\Temp\ccJ7RcnT.s 			page 11


 227:..\..\common\lib\lib_TaskTimer/taskAutomat.c ****             LogStart();
 335              		.loc 1 227 0
 336 00a2 FFF7FEFF 		bl	LogStart
 337              	.LVL32:
 228:..\..\common\lib\lib_TaskTimer/taskAutomat.c ****             writeFlag = WRITE_ERROR;          
 338              		.loc 1 228 0
 339 00a6 0123     		mov	r3, #1
 340 00a8 A382     		strh	r3, [r4, #20]
 341 00aa 00E0     		b	.L24
 342              	.LVL33:
 343              	.L29:
 229:..\..\common\lib\lib_TaskTimer/taskAutomat.c ****         }
 230:..\..\common\lib\lib_TaskTimer/taskAutomat.c ****         else
 231:..\..\common\lib\lib_TaskTimer/taskAutomat.c ****         {
 232:..\..\common\lib\lib_TaskTimer/taskAutomat.c ****             writeFlag = WRITE_NO_ERROR; 
 344              		.loc 1 232 0
 345 00ac A082     		strh	r0, [r4, #20]
 346              	.LVL34:
 347              	.L24:
 348              	.LBE2:
 233:..\..\common\lib\lib_TaskTimer/taskAutomat.c ****         }      
 234:..\..\common\lib\lib_TaskTimer/taskAutomat.c ****     }
 235:..\..\common\lib\lib_TaskTimer/taskAutomat.c ****     SetTaskTimer(ACTION1, ACTION1_TIMEOUT);
 349              		.loc 1 235 0
 350 00ae 0020     		mov	r0, #0
 351 00b0 0521     		mov	r1, #5
 352 00b2 FFF7FEFF 		bl	SetTaskTimer
 353              	.LVL35:
 236:..\..\common\lib\lib_TaskTimer/taskAutomat.c ****     
 237:..\..\common\lib\lib_TaskTimer/taskAutomat.c **** }
 354              		.loc 1 237 0
 355 00b6 21B0     		add	sp, sp, #132
 356              		@ sp needed
 357 00b8 30BD     		pop	{r4, r5, pc}
 358              	.L32:
 359 00ba C046     		.align	2
 360              	.L31:
 361 00bc 00000000 		.word	flag
 362 00c0 00000000 		.word	.LANCHOR0
 363              		.cfi_endproc
 364              	.LFE67:
 365              		.size	Action1, .-Action1
 366              		.section	.text.Action2,"ax",%progbits
 367              		.align	1
 368              		.global	Action2
 369              		.code	16
 370              		.thumb_func
 371              		.type	Action2, %function
 372              	Action2:
 373              	.LFB68:
 238:..\..\common\lib\lib_TaskTimer/taskAutomat.c **** 
 239:..\..\common\lib\lib_TaskTimer/taskAutomat.c **** void Action2(void)
 240:..\..\common\lib\lib_TaskTimer/taskAutomat.c **** {   
 374              		.loc 1 240 0
 375              		.cfi_startproc
 241:..\..\common\lib\lib_TaskTimer/taskAutomat.c ****     flag[ACTION2] = 0;
 376              		.loc 1 241 0
ARM GAS  C:\Users\Petro\AppData\Local\Temp\ccJ7RcnT.s 			page 12


 377 0000 0022     		mov	r2, #0
 240:..\..\common\lib\lib_TaskTimer/taskAutomat.c ****     flag[ACTION2] = 0;
 378              		.loc 1 240 0
 379 0002 08B5     		push	{r3, lr}
 380              		.cfi_def_cfa_offset 8
 381              		.cfi_offset 3, -8
 382              		.cfi_offset 14, -4
 383              		.loc 1 241 0
 384 0004 044B     		ldr	r3, .L34
 242:..\..\common\lib\lib_TaskTimer/taskAutomat.c ****     SendData();  
 243:..\..\common\lib\lib_TaskTimer/taskAutomat.c ****     SetTaskTimer(ACTION2,ACTION2_TIMEOUT);
 244:..\..\common\lib\lib_TaskTimer/taskAutomat.c **** }
 385              		.loc 1 244 0
 386              		@ sp needed
 241:..\..\common\lib\lib_TaskTimer/taskAutomat.c ****     SendData();  
 387              		.loc 1 241 0
 388 0006 5A70     		strb	r2, [r3, #1]
 242:..\..\common\lib\lib_TaskTimer/taskAutomat.c ****     SendData();  
 389              		.loc 1 242 0
 390 0008 FFF7FEFF 		bl	SendData
 391              	.LVL36:
 243:..\..\common\lib\lib_TaskTimer/taskAutomat.c **** }
 392              		.loc 1 243 0
 393 000c 0120     		mov	r0, #1
 394 000e 0521     		mov	r1, #5
 395 0010 FFF7FEFF 		bl	SetTaskTimer
 396              	.LVL37:
 397              		.loc 1 244 0
 398 0014 08BD     		pop	{r3, pc}
 399              	.L35:
 400 0016 C046     		.align	2
 401              	.L34:
 402 0018 00000000 		.word	flag
 403              		.cfi_endproc
 404              	.LFE68:
 405              		.size	Action2, .-Action2
 406              		.section	.text.Action3,"ax",%progbits
 407              		.align	1
 408              		.global	Action3
 409              		.code	16
 410              		.thumb_func
 411              		.type	Action3, %function
 412              	Action3:
 413              	.LFB69:
 245:..\..\common\lib\lib_TaskTimer/taskAutomat.c **** 
 246:..\..\common\lib\lib_TaskTimer/taskAutomat.c **** void Action3(void)
 247:..\..\common\lib\lib_TaskTimer/taskAutomat.c **** {
 414              		.loc 1 247 0
 415              		.cfi_startproc
 248:..\..\common\lib\lib_TaskTimer/taskAutomat.c ****     flag[ACTION3] = 0;
 416              		.loc 1 248 0
 417 0000 0022     		mov	r2, #0
 418 0002 124B     		ldr	r3, .L43
 247:..\..\common\lib\lib_TaskTimer/taskAutomat.c ****     flag[ACTION3] = 0;
 419              		.loc 1 247 0
 420 0004 10B5     		push	{r4, lr}
 421              		.cfi_def_cfa_offset 8
ARM GAS  C:\Users\Petro\AppData\Local\Temp\ccJ7RcnT.s 			page 13


 422              		.cfi_offset 4, -8
 423              		.cfi_offset 14, -4
 424              		.loc 1 248 0
 425 0006 9A70     		strb	r2, [r3, #2]
 249:..\..\common\lib\lib_TaskTimer/taskAutomat.c ****     
 250:..\..\common\lib\lib_TaskTimer/taskAutomat.c ****     /*print indicator SD card*/
 251:..\..\common\lib\lib_TaskTimer/taskAutomat.c ****     if(SDinsert_Read() == 0)
 426              		.loc 1 251 0
 427 0008 FFF7FEFF 		bl	SDinsert_Read
 428              	.LVL38:
 429 000c 041E     		sub	r4, r0, #0
 430 000e 03D1     		bne	.L37
 252:..\..\common\lib\lib_TaskTimer/taskAutomat.c ****     {
 253:..\..\common\lib\lib_TaskTimer/taskAutomat.c ****         DisplayIndicatorSD(SD_INSERT);
 431              		.loc 1 253 0
 432 0010 FFF7FEFF 		bl	DisplayIndicatorSD
 433              	.LVL39:
 254:..\..\common\lib\lib_TaskTimer/taskAutomat.c ****         BLE_sendSDcardStatus(STATUS_OK);
 434              		.loc 1 254 0
 435 0014 201C     		mov	r0, r4
 436 0016 03E0     		b	.L41
 437              	.L37:
 255:..\..\common\lib\lib_TaskTimer/taskAutomat.c ****     }
 256:..\..\common\lib\lib_TaskTimer/taskAutomat.c ****     else
 257:..\..\common\lib\lib_TaskTimer/taskAutomat.c ****     {
 258:..\..\common\lib\lib_TaskTimer/taskAutomat.c ****         DisplayIndicatorSD(SD_NO_INSERT);
 438              		.loc 1 258 0
 439 0018 0120     		mov	r0, #1
 440 001a FFF7FEFF 		bl	DisplayIndicatorSD
 441              	.LVL40:
 259:..\..\common\lib\lib_TaskTimer/taskAutomat.c ****         BLE_sendSDcardStatus(STATUS_ERROR);
 442              		.loc 1 259 0
 443 001e 0120     		mov	r0, #1
 444              	.L41:
 445 0020 FFF7FEFF 		bl	BLE_sendSDcardStatus
 446              	.LVL41:
 260:..\..\common\lib\lib_TaskTimer/taskAutomat.c ****     }
 261:..\..\common\lib\lib_TaskTimer/taskAutomat.c ****     
 262:..\..\common\lib\lib_TaskTimer/taskAutomat.c ****     /*printindicator network*/
 263:..\..\common\lib\lib_TaskTimer/taskAutomat.c ****     if(NetworkStatus() == NETWORK_CONNECT)
 447              		.loc 1 263 0
 448 0024 FFF7FEFF 		bl	NetworkStatus
 449              	.LVL42:
 450 0028 0128     		cmp	r0, #1
 451 002a 04D1     		bne	.L39
 264:..\..\common\lib\lib_TaskTimer/taskAutomat.c ****     {
 265:..\..\common\lib\lib_TaskTimer/taskAutomat.c ****         DisplayIndicatorNetwork(CONNECT);
 452              		.loc 1 265 0
 453 002c 0020     		mov	r0, #0
 454 002e FFF7FEFF 		bl	DisplayIndicatorNetwork
 455              	.LVL43:
 266:..\..\common\lib\lib_TaskTimer/taskAutomat.c ****         BLE_sendNetworkStatus(STATUS_OK);
 456              		.loc 1 266 0
 457 0032 0020     		mov	r0, #0
 458 0034 03E0     		b	.L42
 459              	.L39:
 267:..\..\common\lib\lib_TaskTimer/taskAutomat.c ****     }
ARM GAS  C:\Users\Petro\AppData\Local\Temp\ccJ7RcnT.s 			page 14


 268:..\..\common\lib\lib_TaskTimer/taskAutomat.c ****     else
 269:..\..\common\lib\lib_TaskTimer/taskAutomat.c ****     {
 270:..\..\common\lib\lib_TaskTimer/taskAutomat.c ****         DisplayIndicatorNetwork(DISCONNECT);
 460              		.loc 1 270 0
 461 0036 0120     		mov	r0, #1
 462 0038 FFF7FEFF 		bl	DisplayIndicatorNetwork
 463              	.LVL44:
 271:..\..\common\lib\lib_TaskTimer/taskAutomat.c ****         BLE_sendNetworkStatus(STATUS_ERROR);
 464              		.loc 1 271 0
 465 003c 0120     		mov	r0, #1
 466              	.L42:
 467 003e FFF7FEFF 		bl	BLE_sendNetworkStatus
 468              	.LVL45:
 272:..\..\common\lib\lib_TaskTimer/taskAutomat.c ****     }
 273:..\..\common\lib\lib_TaskTimer/taskAutomat.c ****     
 274:..\..\common\lib\lib_TaskTimer/taskAutomat.c ****     SetTaskTimer(ACTION3, ACTION3_TIMEOUT);
 469              		.loc 1 274 0
 470 0042 0220     		mov	r0, #2
 471 0044 0521     		mov	r1, #5
 472 0046 FFF7FEFF 		bl	SetTaskTimer
 473              	.LVL46:
 275:..\..\common\lib\lib_TaskTimer/taskAutomat.c **** }
 474              		.loc 1 275 0
 475              		@ sp needed
 476 004a 10BD     		pop	{r4, pc}
 477              	.L44:
 478              		.align	2
 479              	.L43:
 480 004c 00000000 		.word	flag
 481              		.cfi_endproc
 482              	.LFE69:
 483              		.size	Action3, .-Action3
 484              		.section	.text.Action4,"ax",%progbits
 485              		.align	1
 486              		.global	Action4
 487              		.code	16
 488              		.thumb_func
 489              		.type	Action4, %function
 490              	Action4:
 491              	.LFB70:
 276:..\..\common\lib\lib_TaskTimer/taskAutomat.c **** 
 277:..\..\common\lib\lib_TaskTimer/taskAutomat.c **** void Action4(void)
 278:..\..\common\lib\lib_TaskTimer/taskAutomat.c **** {
 492              		.loc 1 278 0
 493              		.cfi_startproc
 279:..\..\common\lib\lib_TaskTimer/taskAutomat.c ****     flag[ACTION4] = 0;
 494              		.loc 1 279 0
 495 0000 0022     		mov	r2, #0
 278:..\..\common\lib\lib_TaskTimer/taskAutomat.c ****     flag[ACTION4] = 0;
 496              		.loc 1 278 0
 497 0002 08B5     		push	{r3, lr}
 498              		.cfi_def_cfa_offset 8
 499              		.cfi_offset 3, -8
 500              		.cfi_offset 14, -4
 501              		.loc 1 279 0
 502 0004 084B     		ldr	r3, .L46
 280:..\..\common\lib\lib_TaskTimer/taskAutomat.c ****     
ARM GAS  C:\Users\Petro\AppData\Local\Temp\ccJ7RcnT.s 			page 15


 281:..\..\common\lib\lib_TaskTimer/taskAutomat.c ****     /*printf real time and num skier on way*/ 
 282:..\..\common\lib\lib_TaskTimer/taskAutomat.c ****     DisplayRealTime();
 283:..\..\common\lib\lib_TaskTimer/taskAutomat.c ****     DisplayNumSkierOnWay(SkierOnWay());   
 284:..\..\common\lib\lib_TaskTimer/taskAutomat.c ****     DisplayBattVoltage(ReadBattVoltage());
 285:..\..\common\lib\lib_TaskTimer/taskAutomat.c ****     
 286:..\..\common\lib\lib_TaskTimer/taskAutomat.c ****     SetTaskTimer(ACTION4, ACTION4_TIMEOUT);
 287:..\..\common\lib\lib_TaskTimer/taskAutomat.c **** }
 503              		.loc 1 287 0
 504              		@ sp needed
 279:..\..\common\lib\lib_TaskTimer/taskAutomat.c ****     
 505              		.loc 1 279 0
 506 0006 DA70     		strb	r2, [r3, #3]
 282:..\..\common\lib\lib_TaskTimer/taskAutomat.c ****     DisplayNumSkierOnWay(SkierOnWay());   
 507              		.loc 1 282 0
 508 0008 FFF7FEFF 		bl	DisplayRealTime
 509              	.LVL47:
 283:..\..\common\lib\lib_TaskTimer/taskAutomat.c ****     DisplayBattVoltage(ReadBattVoltage());
 510              		.loc 1 283 0
 511 000c FFF7FEFF 		bl	SkierOnWay
 512              	.LVL48:
 513 0010 FFF7FEFF 		bl	DisplayNumSkierOnWay
 514              	.LVL49:
 284:..\..\common\lib\lib_TaskTimer/taskAutomat.c ****     
 515              		.loc 1 284 0
 516 0014 FFF7FEFF 		bl	ReadBattVoltage
 517              	.LVL50:
 518 0018 FFF7FEFF 		bl	DisplayBattVoltage
 519              	.LVL51:
 286:..\..\common\lib\lib_TaskTimer/taskAutomat.c **** }
 520              		.loc 1 286 0
 521 001c 0320     		mov	r0, #3
 522 001e 0121     		mov	r1, #1
 523 0020 FFF7FEFF 		bl	SetTaskTimer
 524              	.LVL52:
 525              		.loc 1 287 0
 526 0024 08BD     		pop	{r3, pc}
 527              	.L47:
 528 0026 C046     		.align	2
 529              	.L46:
 530 0028 00000000 		.word	flag
 531              		.cfi_endproc
 532              	.LFE70:
 533              		.size	Action4, .-Action4
 534              		.section	.text.Action5,"ax",%progbits
 535              		.align	1
 536              		.global	Action5
 537              		.code	16
 538              		.thumb_func
 539              		.type	Action5, %function
 540              	Action5:
 541              	.LFB71:
 288:..\..\common\lib\lib_TaskTimer/taskAutomat.c **** 
 289:..\..\common\lib\lib_TaskTimer/taskAutomat.c **** void Action5(void)
 290:..\..\common\lib\lib_TaskTimer/taskAutomat.c **** {
 542              		.loc 1 290 0
 543              		.cfi_startproc
 544 0000 F8B5     		push	{r3, r4, r5, r6, r7, lr}
ARM GAS  C:\Users\Petro\AppData\Local\Temp\ccJ7RcnT.s 			page 16


 545              		.cfi_def_cfa_offset 24
 546              		.cfi_offset 3, -24
 547              		.cfi_offset 4, -20
 548              		.cfi_offset 5, -16
 549              		.cfi_offset 6, -12
 550              		.cfi_offset 7, -8
 551              		.cfi_offset 14, -4
 291:..\..\common\lib\lib_TaskTimer/taskAutomat.c ****     /*update time*/    
 292:..\..\common\lib\lib_TaskTimer/taskAutomat.c ****     
 293:..\..\common\lib\lib_TaskTimer/taskAutomat.c ****     static uint32_t oldUnixTime;
 294:..\..\common\lib\lib_TaskTimer/taskAutomat.c ****     uint32_t unixTime;
 295:..\..\common\lib\lib_TaskTimer/taskAutomat.c ****     
 296:..\..\common\lib\lib_TaskTimer/taskAutomat.c ****     flag[ACTION5] = 0;
 552              		.loc 1 296 0
 553 0002 0025     		mov	r5, #0
 554 0004 104B     		ldr	r3, .L50
 555 0006 1D71     		strb	r5, [r3, #4]
 297:..\..\common\lib\lib_TaskTimer/taskAutomat.c **** 
 298:..\..\common\lib\lib_TaskTimer/taskAutomat.c ****     BLE_processEvents();
 556              		.loc 1 298 0
 557 0008 FFF7FEFF 		bl	BLE_processEvents
 558              	.LVL53:
 299:..\..\common\lib\lib_TaskTimer/taskAutomat.c ****     
 300:..\..\common\lib\lib_TaskTimer/taskAutomat.c ****     unixTime = BLE_getUnixTime();
 559              		.loc 1 300 0
 560 000c FFF7FEFF 		bl	BLE_getUnixTime
 561              	.LVL54:
 301:..\..\common\lib\lib_TaskTimer/taskAutomat.c ****     if(oldUnixTime != unixTime)
 562              		.loc 1 301 0
 563 0010 0E4E     		ldr	r6, .L50+4
 300:..\..\common\lib\lib_TaskTimer/taskAutomat.c ****     if(oldUnixTime != unixTime)
 564              		.loc 1 300 0
 565 0012 041C     		mov	r4, r0
 566              	.LVL55:
 567              		.loc 1 301 0
 568 0014 336A     		ldr	r3, [r6, #32]
 569 0016 8342     		cmp	r3, r0
 570 0018 10D0     		beq	.L49
 571              	.LBB3:
 302:..\..\common\lib\lib_TaskTimer/taskAutomat.c ****     {
 303:..\..\common\lib\lib_TaskTimer/taskAutomat.c ****         /*atomic block*/
 304:..\..\common\lib\lib_TaskTimer/taskAutomat.c ****         uint32 interruptState;
 305:..\..\common\lib\lib_TaskTimer/taskAutomat.c ****         interruptState = CyEnterCriticalSection(); 
 572              		.loc 1 305 0
 573 001a FFF7FEFF 		bl	CyEnterCriticalSection
 574              	.LVL56:
 575 001e 071C     		mov	r7, r0
 576              	.LVL57:
 306:..\..\common\lib\lib_TaskTimer/taskAutomat.c ****         
 307:..\..\common\lib\lib_TaskTimer/taskAutomat.c ****         /*set unix time in RTC DS1307*/
 308:..\..\common\lib\lib_TaskTimer/taskAutomat.c ****         DS1307_SetUnixTime(unixTime);
 577              		.loc 1 308 0
 578 0020 291C     		mov	r1, r5
 579 0022 201C     		mov	r0, r4
 580 0024 FFF7FEFF 		bl	DS1307_SetUnixTime
 581              	.LVL58:
 309:..\..\common\lib\lib_TaskTimer/taskAutomat.c ****         RTC_SetUnixTime(unixTime);
ARM GAS  C:\Users\Petro\AppData\Local\Temp\ccJ7RcnT.s 			page 17


 582              		.loc 1 309 0
 583 0028 201C     		mov	r0, r4
 584 002a 291C     		mov	r1, r5
 585 002c FFF7FEFF 		bl	RTC_SetUnixTime
 586              	.LVL59:
 310:..\..\common\lib\lib_TaskTimer/taskAutomat.c ****         
 311:..\..\common\lib\lib_TaskTimer/taskAutomat.c ****         CyExitCriticalSection(interruptState);
 587              		.loc 1 311 0
 588 0030 381C     		mov	r0, r7
 589 0032 FFF7FEFF 		bl	CyExitCriticalSection
 590              	.LVL60:
 312:..\..\common\lib\lib_TaskTimer/taskAutomat.c ****         /*atomic block*/
 313:..\..\common\lib\lib_TaskTimer/taskAutomat.c ****         
 314:..\..\common\lib\lib_TaskTimer/taskAutomat.c ****         oldUnixTime = unixTime;
 591              		.loc 1 314 0
 592 0036 3462     		str	r4, [r6, #32]
 315:..\..\common\lib\lib_TaskTimer/taskAutomat.c ****         
 316:..\..\common\lib\lib_TaskTimer/taskAutomat.c ****         SetRebootFlag();      
 593              		.loc 1 316 0
 594 0038 FFF7FEFF 		bl	SetRebootFlag
 595              	.LVL61:
 596              	.L49:
 597              	.LBE3:
 317:..\..\common\lib\lib_TaskTimer/taskAutomat.c ****     }
 318:..\..\common\lib\lib_TaskTimer/taskAutomat.c ****     SetTaskTimer(ACTION5, ACTION5_TIMEOUT);
 598              		.loc 1 318 0
 599 003c 0420     		mov	r0, #4
 600 003e 0121     		mov	r1, #1
 601 0040 FFF7FEFF 		bl	SetTaskTimer
 602              	.LVL62:
 319:..\..\common\lib\lib_TaskTimer/taskAutomat.c **** }
 603              		.loc 1 319 0
 604              		@ sp needed
 605              	.LVL63:
 606 0044 F8BD     		pop	{r3, r4, r5, r6, r7, pc}
 607              	.L51:
 608 0046 C046     		.align	2
 609              	.L50:
 610 0048 00000000 		.word	flag
 611 004c 00000000 		.word	.LANCHOR0
 612              		.cfi_endproc
 613              	.LFE71:
 614              		.size	Action5, .-Action5
 615              		.section	.text.TaskCheck,"ax",%progbits
 616              		.align	1
 617              		.global	TaskCheck
 618              		.code	16
 619              		.thumb_func
 620              		.type	TaskCheck, %function
 621              	TaskCheck:
 622              	.LFB64:
  66:..\..\common\lib\lib_TaskTimer/taskAutomat.c ****     if(flag[ACTION1] == 1)Action1();
 623              		.loc 1 66 0
 624              		.cfi_startproc
 625 0000 10B5     		push	{r4, lr}
 626              		.cfi_def_cfa_offset 8
 627              		.cfi_offset 4, -8
ARM GAS  C:\Users\Petro\AppData\Local\Temp\ccJ7RcnT.s 			page 18


 628              		.cfi_offset 14, -4
  67:..\..\common\lib\lib_TaskTimer/taskAutomat.c ****     if(flag[ACTION2] == 1)Action2();
 629              		.loc 1 67 0
 630 0002 0D4C     		ldr	r4, .L58
 631 0004 2378     		ldrb	r3, [r4]
 632 0006 012B     		cmp	r3, #1
 633 0008 01D1     		bne	.L53
  67:..\..\common\lib\lib_TaskTimer/taskAutomat.c ****     if(flag[ACTION2] == 1)Action2();
 634              		.loc 1 67 0 is_stmt 0 discriminator 1
 635 000a FFF7FEFF 		bl	Action1
 636              	.LVL64:
 637              	.L53:
  68:..\..\common\lib\lib_TaskTimer/taskAutomat.c ****     if(flag[ACTION3] == 1)Action3();
 638              		.loc 1 68 0 is_stmt 1
 639 000e 6378     		ldrb	r3, [r4, #1]
 640 0010 012B     		cmp	r3, #1
 641 0012 01D1     		bne	.L54
  68:..\..\common\lib\lib_TaskTimer/taskAutomat.c ****     if(flag[ACTION3] == 1)Action3();
 642              		.loc 1 68 0 is_stmt 0 discriminator 1
 643 0014 FFF7FEFF 		bl	Action2
 644              	.LVL65:
 645              	.L54:
  69:..\..\common\lib\lib_TaskTimer/taskAutomat.c ****     if(flag[ACTION4] == 1)Action4();
 646              		.loc 1 69 0 is_stmt 1
 647 0018 A378     		ldrb	r3, [r4, #2]
 648 001a 012B     		cmp	r3, #1
 649 001c 01D1     		bne	.L55
  69:..\..\common\lib\lib_TaskTimer/taskAutomat.c ****     if(flag[ACTION4] == 1)Action4();
 650              		.loc 1 69 0 is_stmt 0 discriminator 1
 651 001e FFF7FEFF 		bl	Action3
 652              	.LVL66:
 653              	.L55:
  70:..\..\common\lib\lib_TaskTimer/taskAutomat.c ****     if(flag[ACTION5] == 1)Action5();
 654              		.loc 1 70 0 is_stmt 1
 655 0022 E378     		ldrb	r3, [r4, #3]
 656 0024 012B     		cmp	r3, #1
 657 0026 01D1     		bne	.L56
  70:..\..\common\lib\lib_TaskTimer/taskAutomat.c ****     if(flag[ACTION5] == 1)Action5();
 658              		.loc 1 70 0 is_stmt 0 discriminator 1
 659 0028 FFF7FEFF 		bl	Action4
 660              	.LVL67:
 661              	.L56:
  71:..\..\common\lib\lib_TaskTimer/taskAutomat.c **** }
 662              		.loc 1 71 0 is_stmt 1
 663 002c 2379     		ldrb	r3, [r4, #4]
 664 002e 012B     		cmp	r3, #1
 665 0030 01D1     		bne	.L52
  71:..\..\common\lib\lib_TaskTimer/taskAutomat.c **** }
 666              		.loc 1 71 0 is_stmt 0 discriminator 1
 667 0032 FFF7FEFF 		bl	Action5
 668              	.LVL68:
 669              	.L52:
  72:..\..\common\lib\lib_TaskTimer/taskAutomat.c **** 
 670              		.loc 1 72 0 is_stmt 1
 671              		@ sp needed
 672 0036 10BD     		pop	{r4, pc}
 673              	.L59:
ARM GAS  C:\Users\Petro\AppData\Local\Temp\ccJ7RcnT.s 			page 19


 674              		.align	2
 675              	.L58:
 676 0038 00000000 		.word	flag
 677              		.cfi_endproc
 678              	.LFE64:
 679              		.size	TaskCheck, .-TaskCheck
 680              		.comm	flag,5,1
 681              		.comm	currentState,1,1
 682              		.bss
 683              		.align	2
 684              		.set	.LANCHOR0,. + 0
 685              		.type	SoftTimer, %object
 686              		.size	SoftTimer, 20
 687              	SoftTimer:
 688 0000 00000000 		.space	20
 688      00000000 
 688      00000000 
 688      00000000 
 688      00000000 
 689              		.type	writeFlag, %object
 690              		.size	writeFlag, 2
 691              	writeFlag:
 692 0014 0000     		.space	2
 693 0016 0000     		.space	2
 694              		.type	tmpIDSkier.8500, %object
 695              		.size	tmpIDSkier.8500, 4
 696              	tmpIDSkier.8500:
 697 0018 00000000 		.space	4
 698              		.type	lastFifoSize.8499, %object
 699              		.size	lastFifoSize.8499, 4
 700              	lastFifoSize.8499:
 701 001c 00000000 		.space	4
 702              		.type	oldUnixTime.8513, %object
 703              		.size	oldUnixTime.8513, 4
 704              	oldUnixTime.8513:
 705 0020 00000000 		.space	4
 706              		.text
 707              	.Letext0:
 708              		.file 2 "c:\\program files (x86)\\cypress\\psoc creator\\4.0\\psoc creator\\import\\gnu\\arm\\4.9.
 709              		.file 3 "c:\\program files (x86)\\cypress\\psoc creator\\4.0\\psoc creator\\import\\gnu\\arm\\4.9.
 710              		.file 4 "Generated_Source\\PSoC4/cytypes.h"
 711              		.file 5 "Generated_Source\\PSoC4/ble_Stack.h"
 712              		.file 6 "./..\\..\\common\\lib\\lib_Display\\display.h"
 713              		.file 7 "./..\\..\\common\\lib\\lib_Fat\\ff.h"
 714              		.file 8 "./..\\..\\common\\lib\\lib_DB\\database.h"
 715              		.file 9 "./..\\..\\common\\lib\\lib_BLE\\bluetooth.h"
 716              		.file 10 "./appGlobal.h"
 717              		.file 11 "./..\\..\\common\\lib\\lib_TaskTimer\\taskAutomat.h"
 718              		.file 12 "Generated_Source\\PSoC4/Timer.h"
 719              		.file 13 "Generated_Source\\PSoC4/isr_timer.h"
 720              		.file 14 "./..\\..\\common\\lib\\lib_DB\\logResult.h"
 721              		.file 15 "./lib_Network\\network.h"
 722              		.file 16 "Generated_Source\\PSoC4/SDinsert.h"
 723              		.file 17 "./..\\..\\common\\lib\\lib_Batt\\batt.h"
 724              		.file 18 "Generated_Source\\PSoC4/CyLib.h"
 725              		.file 19 "./..\\..\\common\\lib\\lib_DS1307\\DS1307.h"
 726              		.file 20 "Generated_Source\\PSoC4/RTC.h"
ARM GAS  C:\Users\Petro\AppData\Local\Temp\ccJ7RcnT.s 			page 20

