ARM GAS  C:\Users\Petro\AppData\Local\Temp\cclt8UsU.s 			page 1


   1              		.cpu cortex-m0
   2              		.fpu softvfp
   3              		.eabi_attribute 20, 1
   4              		.eabi_attribute 21, 1
   5              		.eabi_attribute 23, 3
   6              		.eabi_attribute 24, 1
   7              		.eabi_attribute 25, 1
   8              		.eabi_attribute 26, 1
   9              		.eabi_attribute 30, 4
  10              		.eabi_attribute 34, 0
  11              		.eabi_attribute 18, 4
  12              		.code	16
  13              		.file	"testMode.c"
  14              		.text
  15              	.Ltext0:
  16              		.cfi_sections	.debug_frame
  17              		.section	.text.testModeHandler,"ax",%progbits
  18              		.align	1
  19              		.global	testModeHandler
  20              		.code	16
  21              		.thumb_func
  22              		.type	testModeHandler, %function
  23              	testModeHandler:
  24              	.LFB63:
  25              		.file 1 "lib_testMode\\testMode.c"
   1:lib_testMode/testMode.c **** #include "project.h"
   2:lib_testMode/testMode.c **** #include <stdlib.h>
   3:lib_testMode/testMode.c **** 
   4:lib_testMode/testMode.c **** #include <stdio.h>
   5:lib_testMode/testMode.c **** #include <lib_Display\Display.h>
   6:lib_testMode/testMode.c **** #include <lib_Network\network.h>
   7:lib_testMode/testMode.c **** #include <lib_Testmode\testMode.h>
   8:lib_testMode/testMode.c **** #include <lib_DB\database.h>
   9:lib_testMode/testMode.c **** 
  10:lib_testMode/testMode.c **** #define COUNTER_TEST_MODE_ON   20
  11:lib_testMode/testMode.c **** 
  12:lib_testMode/testMode.c **** enum status {STOPPED=0, RUN};
  13:lib_testMode/testMode.c **** typedef enum {HIGH_LEVEL, RISING_EDGE, FALLING_EDGE, LOW_LEVEL}funcReturnValue;
  14:lib_testMode/testMode.c **** 
  15:lib_testMode/testMode.c **** uint8_t statusTestMode = STOPPED;
  16:lib_testMode/testMode.c **** 
  17:lib_testMode/testMode.c **** funcReturnValue switchState = LOW_LEVEL;
  18:lib_testMode/testMode.c **** funcReturnValue networkState = LOW_LEVEL;
  19:lib_testMode/testMode.c **** 
  20:lib_testMode/testMode.c **** funcReturnValue ReadSwitchState();
  21:lib_testMode/testMode.c **** funcReturnValue ReadNetworkState();
  22:lib_testMode/testMode.c **** 
  23:lib_testMode/testMode.c **** static uint8_t enableTestMode;
  24:lib_testMode/testMode.c **** static uint8_t allowNextTestSkier;
  25:lib_testMode/testMode.c **** 
  26:lib_testMode/testMode.c **** CY_ISR(testModeHandler)
  27:lib_testMode/testMode.c **** {
  26              		.loc 1 27 0
  27              		.cfi_startproc
  28 0000 08B5     		push	{r3, lr}
  29              		.cfi_def_cfa_offset 8
  30              		.cfi_offset 3, -8
ARM GAS  C:\Users\Petro\AppData\Local\Temp\cclt8UsU.s 			page 2


  31              		.cfi_offset 14, -4
  28:lib_testMode/testMode.c ****     Pin_testMode_Write(0);
  32              		.loc 1 28 0
  33 0002 0020     		mov	r0, #0
  34 0004 FFF7FEFF 		bl	Pin_testMode_Write
  35              	.LVL0:
  29:lib_testMode/testMode.c ****     Pin_testMode_Write(1);
  36              		.loc 1 29 0
  37 0008 0120     		mov	r0, #1
  38 000a FFF7FEFF 		bl	Pin_testMode_Write
  39              	.LVL1:
  30:lib_testMode/testMode.c ****     
  31:lib_testMode/testMode.c ****     TimerTestMode_ClearInterrupt(TimerTestMode_INTR_MASK_CC_MATCH);
  40              		.loc 1 31 0
  41 000e 0220     		mov	r0, #2
  42 0010 FFF7FEFF 		bl	TimerTestMode_ClearInterrupt
  43              	.LVL2:
  32:lib_testMode/testMode.c ****     statusTestMode = STOPPED;
  44              		.loc 1 32 0
  45 0014 0022     		mov	r2, #0
  46 0016 024B     		ldr	r3, .L2
  33:lib_testMode/testMode.c ****     allowNextTestSkier = 0;
  34:lib_testMode/testMode.c **** }
  47              		.loc 1 34 0
  48              		@ sp needed
  32:lib_testMode/testMode.c ****     statusTestMode = STOPPED;
  49              		.loc 1 32 0
  50 0018 1A70     		strb	r2, [r3]
  33:lib_testMode/testMode.c ****     allowNextTestSkier = 0;
  51              		.loc 1 33 0
  52 001a 5A70     		strb	r2, [r3, #1]
  53              		.loc 1 34 0
  54 001c 08BD     		pop	{r3, pc}
  55              	.L3:
  56 001e C046     		.align	2
  57              	.L2:
  58 0020 00000000 		.word	.LANCHOR0
  59              		.cfi_endproc
  60              	.LFE63:
  61              		.size	testModeHandler, .-testModeHandler
  62              		.global	__aeabi_idivmod
  63              		.section	.text.TestMode_UpdateNewRandomTime,"ax",%progbits
  64              		.align	1
  65              		.global	TestMode_UpdateNewRandomTime
  66              		.code	16
  67              		.thumb_func
  68              		.type	TestMode_UpdateNewRandomTime, %function
  69              	TestMode_UpdateNewRandomTime:
  70              	.LFB65:
  35:lib_testMode/testMode.c **** 
  36:lib_testMode/testMode.c **** 
  37:lib_testMode/testMode.c **** void TestMode()
  38:lib_testMode/testMode.c **** {   
  39:lib_testMode/testMode.c ****     ReadSwitchState();
  40:lib_testMode/testMode.c ****     ReadNetworkState();
  41:lib_testMode/testMode.c ****     
  42:lib_testMode/testMode.c ****     if(switchState == RISING_EDGE || networkState == RISING_EDGE)   //enable test mode
ARM GAS  C:\Users\Petro\AppData\Local\Temp\cclt8UsU.s 			page 3


  43:lib_testMode/testMode.c ****     {
  44:lib_testMode/testMode.c ****         DisplayTestMode(1);
  45:lib_testMode/testMode.c ****         NetworkSendTestModeStatus(1);
  46:lib_testMode/testMode.c ****         statusTestMode = STOPPED;
  47:lib_testMode/testMode.c ****         allowNextTestSkier = 1;
  48:lib_testMode/testMode.c ****         enableTestMode = 1;
  49:lib_testMode/testMode.c ****         if(networkState == RISING_EDGE && switchState == LOW_LEVEL)
  50:lib_testMode/testMode.c ****             switchState = RISING_EDGE;
  51:lib_testMode/testMode.c ****         if(networkState == LOW_LEVEL && switchState == RISING_EDGE)
  52:lib_testMode/testMode.c ****             networkState = RISING_EDGE;
  53:lib_testMode/testMode.c ****     }
  54:lib_testMode/testMode.c ****     if(/*switchState == FALLING_EDGE ||*/ networkState == FALLING_EDGE)        //disable test mode
  55:lib_testMode/testMode.c ****     {
  56:lib_testMode/testMode.c ****         TimerTestMode_Stop();
  57:lib_testMode/testMode.c ****         DisplayTestMode(0);
  58:lib_testMode/testMode.c ****         NetworkSendTestModeStatus(0);
  59:lib_testMode/testMode.c ****         statusTestMode = STOPPED;
  60:lib_testMode/testMode.c ****         allowNextTestSkier = 0;
  61:lib_testMode/testMode.c ****         enableTestMode = 0;
  62:lib_testMode/testMode.c ****         if(networkState == FALLING_EDGE && switchState != FALLING_EDGE)
  63:lib_testMode/testMode.c ****             switchState = LOW_LEVEL;
  64:lib_testMode/testMode.c ****         if(networkState != FALLING_EDGE && switchState == FALLING_EDGE)
  65:lib_testMode/testMode.c ****             networkState = LOW_LEVEL;
  66:lib_testMode/testMode.c ****     }
  67:lib_testMode/testMode.c ****     /*update test mode*/
  68:lib_testMode/testMode.c ****     if(networkState == HIGH_LEVEL && switchState == HIGH_LEVEL )
  69:lib_testMode/testMode.c ****     {
  70:lib_testMode/testMode.c ****         if(statusTestMode == STOPPED && SkierOnWay()>0 && allowNextTestSkier)
  71:lib_testMode/testMode.c ****         {
  72:lib_testMode/testMode.c ****             /*start timer*/
  73:lib_testMode/testMode.c ****             TestMode_UpdateNewRandomTime();
  74:lib_testMode/testMode.c ****             Int_timerTestMode_StartEx(testModeHandler);
  75:lib_testMode/testMode.c ****             statusTestMode = RUN;
  76:lib_testMode/testMode.c ****             allowNextTestSkier = 0;
  77:lib_testMode/testMode.c ****         }
  78:lib_testMode/testMode.c ****     }
  79:lib_testMode/testMode.c **** }
  80:lib_testMode/testMode.c **** 
  81:lib_testMode/testMode.c **** 
  82:lib_testMode/testMode.c **** void TestMode_UpdateNewRandomTime()
  83:lib_testMode/testMode.c **** {
  71              		.loc 1 83 0
  72              		.cfi_startproc
  73 0000 10B5     		push	{r4, lr}
  74              		.cfi_def_cfa_offset 8
  75              		.cfi_offset 4, -8
  76              		.cfi_offset 14, -4
  84:lib_testMode/testMode.c ****     uint8_t num;
  85:lib_testMode/testMode.c ****     
  86:lib_testMode/testMode.c ****     num = 30+rand()%60;
  77              		.loc 1 86 0
  78 0002 FFF7FEFF 		bl	rand
  79              	.LVL3:
  80 0006 041C     		mov	r4, r0
  81              	.LVL4:
  87:lib_testMode/testMode.c ****     
  88:lib_testMode/testMode.c **** //    char buff[11];
ARM GAS  C:\Users\Petro\AppData\Local\Temp\cclt8UsU.s 			page 4


  89:lib_testMode/testMode.c **** //    sprintf(buff,"%d",num);
  90:lib_testMode/testMode.c **** //    Display(buff);
  91:lib_testMode/testMode.c ****     
  92:lib_testMode/testMode.c ****     TimerTestMode_WriteCounter(0);
  82              		.loc 1 92 0
  83 0008 0020     		mov	r0, #0
  84              	.LVL5:
  85 000a FFF7FEFF 		bl	TimerTestMode_WriteCounter
  86              	.LVL6:
  86:lib_testMode/testMode.c ****     
  87              		.loc 1 86 0
  88 000e 201C     		mov	r0, r4
  89 0010 3C21     		mov	r1, #60
  90 0012 FFF7FEFF 		bl	__aeabi_idivmod
  91              	.LVL7:
  93:lib_testMode/testMode.c ****     TimerTestMode_WriteCompare(num*100);
  92              		.loc 1 93 0
  93 0016 6420     		mov	r0, #100
  86:lib_testMode/testMode.c ****     
  94              		.loc 1 86 0
  95 0018 1E31     		add	r1, r1, #30
  96              		.loc 1 93 0
  97 001a C9B2     		uxtb	r1, r1
  98 001c 4843     		mul	r0, r1
  99 001e FFF7FEFF 		bl	TimerTestMode_WriteCompare
 100              	.LVL8:
  94:lib_testMode/testMode.c ****     TimerTestMode_Start();   
  95:lib_testMode/testMode.c **** }
 101              		.loc 1 95 0
 102              		@ sp needed
  94:lib_testMode/testMode.c ****     TimerTestMode_Start();   
 103              		.loc 1 94 0
 104 0022 FFF7FEFF 		bl	TimerTestMode_Start
 105              	.LVL9:
 106              	.LVL10:
 107              		.loc 1 95 0
 108 0026 10BD     		pop	{r4, pc}
 109              		.cfi_endproc
 110              	.LFE65:
 111              		.size	TestMode_UpdateNewRandomTime, .-TestMode_UpdateNewRandomTime
 112              		.section	.text.ReadSwitchState,"ax",%progbits
 113              		.align	1
 114              		.global	ReadSwitchState
 115              		.code	16
 116              		.thumb_func
 117              		.type	ReadSwitchState, %function
 118              	ReadSwitchState:
 119              	.LFB66:
  96:lib_testMode/testMode.c **** 
  97:lib_testMode/testMode.c **** funcReturnValue ReadSwitchState()
  98:lib_testMode/testMode.c **** {  
 120              		.loc 1 98 0
 121              		.cfi_startproc
 122 0000 38B5     		push	{r3, r4, r5, lr}
 123              		.cfi_def_cfa_offset 16
 124              		.cfi_offset 3, -16
 125              		.cfi_offset 4, -12
ARM GAS  C:\Users\Petro\AppData\Local\Temp\cclt8UsU.s 			page 5


 126              		.cfi_offset 5, -8
 127              		.cfi_offset 14, -4
  99:lib_testMode/testMode.c ****     static uint8_t tmpCounter;
 100:lib_testMode/testMode.c ****     
 101:lib_testMode/testMode.c ****     if(SW_RunTestMode_Read() == 0)
 128              		.loc 1 101 0
 129 0002 FFF7FEFF 		bl	SW_RunTestMode_Read
 130              	.LVL11:
 131 0006 144D     		ldr	r5, .L20
 102:lib_testMode/testMode.c ****     {
 103:lib_testMode/testMode.c ****         tmpCounter++;
 104:lib_testMode/testMode.c ****     }
 105:lib_testMode/testMode.c ****     else
 106:lib_testMode/testMode.c ****     {
 107:lib_testMode/testMode.c ****         tmpCounter = 0;
 132              		.loc 1 107 0
 133 0008 0023     		mov	r3, #0
 101:lib_testMode/testMode.c ****     {
 134              		.loc 1 101 0
 135 000a 0028     		cmp	r0, #0
 136 000c 01D1     		bne	.L17
 103:lib_testMode/testMode.c ****     }
 137              		.loc 1 103 0
 138 000e AB78     		ldrb	r3, [r5, #2]
 139 0010 0133     		add	r3, r3, #1
 140              	.L17:
 141              		.loc 1 107 0
 142 0012 AB70     		strb	r3, [r5, #2]
 108:lib_testMode/testMode.c ****     }
 109:lib_testMode/testMode.c ****     
 110:lib_testMode/testMode.c ****     if(tmpCounter > COUNTER_TEST_MODE_ON)
 143              		.loc 1 110 0
 144 0014 AB78     		ldrb	r3, [r5, #2]
 145 0016 114C     		ldr	r4, .L20+4
 146 0018 142B     		cmp	r3, #20
 147 001a 11D9     		bls	.L8
 111:lib_testMode/testMode.c ****     {
 112:lib_testMode/testMode.c ****         if(SkierOnWay() != 0 && enableTestMode == 0)
 148              		.loc 1 112 0
 149 001c FFF7FEFF 		bl	SkierOnWay
 150              	.LVL12:
 151 0020 0028     		cmp	r0, #0
 152 0022 02D0     		beq	.L9
 153              		.loc 1 112 0 is_stmt 0 discriminator 1
 154 0024 EB78     		ldrb	r3, [r5, #3]
 155 0026 002B     		cmp	r3, #0
 156 0028 13D0     		beq	.L10
 157              	.L9:
 113:lib_testMode/testMode.c ****         {
 114:lib_testMode/testMode.c ****             //Display("testModeERR");
 115:lib_testMode/testMode.c ****         }
 116:lib_testMode/testMode.c ****         else
 117:lib_testMode/testMode.c ****         {
 118:lib_testMode/testMode.c ****             if(switchState == LOW_LEVEL)switchState = RISING_EDGE;
 158              		.loc 1 118 0 is_stmt 1
 159 002a 2078     		ldrb	r0, [r4]
 160 002c 0123     		mov	r3, #1
ARM GAS  C:\Users\Petro\AppData\Local\Temp\cclt8UsU.s 			page 6


 161 002e 0328     		cmp	r0, #3
 162 0030 0ED0     		beq	.L18
 119:lib_testMode/testMode.c ****             else if(switchState == HIGH_LEVEL)
 163              		.loc 1 119 0
 164 0032 0028     		cmp	r0, #0
 165 0034 0DD1     		bne	.L10
 120:lib_testMode/testMode.c ****             {
 121:lib_testMode/testMode.c ****                 switchState = FALLING_EDGE;
 166              		.loc 1 121 0
 167 0036 0223     		mov	r3, #2
 168 0038 2370     		strb	r3, [r4]
 122:lib_testMode/testMode.c ****                 NetworkSendTestModeStatus(0);
 169              		.loc 1 122 0
 170 003a FFF7FEFF 		bl	NetworkSendTestModeStatus
 171              	.LVL13:
 172 003e 08E0     		b	.L10
 173              	.L8:
 123:lib_testMode/testMode.c ****             }
 124:lib_testMode/testMode.c ****         }
 125:lib_testMode/testMode.c ****     }
 126:lib_testMode/testMode.c ****     else
 127:lib_testMode/testMode.c ****     {
 128:lib_testMode/testMode.c ****         if(switchState == RISING_EDGE)switchState = HIGH_LEVEL;
 174              		.loc 1 128 0
 175 0040 2378     		ldrb	r3, [r4]
 176 0042 012B     		cmp	r3, #1
 177 0044 01D1     		bne	.L13
 178              		.loc 1 128 0 is_stmt 0 discriminator 1
 179 0046 0023     		mov	r3, #0
 180 0048 02E0     		b	.L18
 181              	.L13:
 129:lib_testMode/testMode.c ****         else if(switchState == FALLING_EDGE)switchState = LOW_LEVEL;
 182              		.loc 1 129 0 is_stmt 1
 183 004a 022B     		cmp	r3, #2
 184 004c 01D1     		bne	.L10
 185              		.loc 1 129 0 is_stmt 0 discriminator 1
 186 004e 0133     		add	r3, r3, #1
 187              	.L18:
 188 0050 2370     		strb	r3, [r4]
 189              	.L10:
 130:lib_testMode/testMode.c ****     }
 131:lib_testMode/testMode.c **** 
 132:lib_testMode/testMode.c ****       
 133:lib_testMode/testMode.c ****     return switchState;
 190              		.loc 1 133 0 is_stmt 1
 191 0052 2078     		ldrb	r0, [r4]
 134:lib_testMode/testMode.c **** }
 192              		.loc 1 134 0
 193              		@ sp needed
 194 0054 38BD     		pop	{r3, r4, r5, pc}
 195              	.L21:
 196 0056 C046     		.align	2
 197              	.L20:
 198 0058 00000000 		.word	.LANCHOR0
 199 005c 00000000 		.word	.LANCHOR1
 200              		.cfi_endproc
 201              	.LFE66:
ARM GAS  C:\Users\Petro\AppData\Local\Temp\cclt8UsU.s 			page 7


 202              		.size	ReadSwitchState, .-ReadSwitchState
 203              		.section	.text.ReadNetworkState,"ax",%progbits
 204              		.align	1
 205              		.global	ReadNetworkState
 206              		.code	16
 207              		.thumb_func
 208              		.type	ReadNetworkState, %function
 209              	ReadNetworkState:
 210              	.LFB67:
 135:lib_testMode/testMode.c **** 
 136:lib_testMode/testMode.c **** 
 137:lib_testMode/testMode.c **** funcReturnValue ReadNetworkState()
 138:lib_testMode/testMode.c **** {
 211              		.loc 1 138 0
 212              		.cfi_startproc
 213 0000 10B5     		push	{r4, lr}
 214              		.cfi_def_cfa_offset 8
 215              		.cfi_offset 4, -8
 216              		.cfi_offset 14, -4
 139:lib_testMode/testMode.c ****     if(networkState == LOW_LEVEL && NetworkReadTestModeStatus()==1)  networkState = RISING_EDGE;
 217              		.loc 1 139 0
 218 0002 124C     		ldr	r4, .L30
 219 0004 6378     		ldrb	r3, [r4, #1]
 220 0006 032B     		cmp	r3, #3
 221 0008 05D1     		bne	.L23
 222              		.loc 1 139 0 is_stmt 0 discriminator 1
 223 000a FFF7FEFF 		bl	NetworkReadTestModeStatus
 224              	.LVL14:
 225 000e 0128     		cmp	r0, #1
 226 0010 01D1     		bne	.L23
 227              		.loc 1 139 0 discriminator 2
 228 0012 6070     		strb	r0, [r4, #1]
 229 0014 18E0     		b	.L24
 230              	.L23:
 140:lib_testMode/testMode.c ****     else if(networkState == HIGH_LEVEL && NetworkReadTestModeStatus() == 0)  networkState = FALLING
 231              		.loc 1 140 0 is_stmt 1
 232 0016 6378     		ldrb	r3, [r4, #1]
 233 0018 002B     		cmp	r3, #0
 234 001a 04D1     		bne	.L25
 235              		.loc 1 140 0 is_stmt 0 discriminator 1
 236 001c FFF7FEFF 		bl	NetworkReadTestModeStatus
 237              	.LVL15:
 238 0020 0223     		mov	r3, #2
 239 0022 0028     		cmp	r0, #0
 240 0024 0FD0     		beq	.L29
 241              	.L25:
 141:lib_testMode/testMode.c ****     else if(networkState == RISING_EDGE && NetworkReadTestModeStatus() ==1)  networkState = HIGH_LE
 242              		.loc 1 141 0 is_stmt 1
 243 0026 6378     		ldrb	r3, [r4, #1]
 244 0028 012B     		cmp	r3, #1
 245 002a 04D1     		bne	.L26
 246              		.loc 1 141 0 is_stmt 0 discriminator 1
 247 002c FFF7FEFF 		bl	NetworkReadTestModeStatus
 248              	.LVL16:
 249 0030 0023     		mov	r3, #0
 250 0032 0128     		cmp	r0, #1
 251 0034 07D0     		beq	.L29
ARM GAS  C:\Users\Petro\AppData\Local\Temp\cclt8UsU.s 			page 8


 252              	.L26:
 142:lib_testMode/testMode.c ****     else if(networkState == FALLING_EDGE && NetworkReadTestModeStatus() == 0)  networkState = LOW_L
 253              		.loc 1 142 0 is_stmt 1
 254 0036 6378     		ldrb	r3, [r4, #1]
 255 0038 022B     		cmp	r3, #2
 256 003a 05D1     		bne	.L24
 257              		.loc 1 142 0 is_stmt 0 discriminator 1
 258 003c FFF7FEFF 		bl	NetworkReadTestModeStatus
 259              	.LVL17:
 260 0040 0028     		cmp	r0, #0
 261 0042 01D1     		bne	.L24
 262              		.loc 1 142 0 discriminator 2
 263 0044 0323     		mov	r3, #3
 264              	.L29:
 265 0046 6370     		strb	r3, [r4, #1]
 266              	.L24:
 143:lib_testMode/testMode.c ****     
 144:lib_testMode/testMode.c ****     /*no answer*/
 145:lib_testMode/testMode.c **** 
 146:lib_testMode/testMode.c ****     return networkState;   
 267              		.loc 1 146 0 is_stmt 1
 268 0048 6078     		ldrb	r0, [r4, #1]
 147:lib_testMode/testMode.c **** }
 269              		.loc 1 147 0
 270              		@ sp needed
 271 004a 10BD     		pop	{r4, pc}
 272              	.L31:
 273              		.align	2
 274              	.L30:
 275 004c 00000000 		.word	.LANCHOR1
 276              		.cfi_endproc
 277              	.LFE67:
 278              		.size	ReadNetworkState, .-ReadNetworkState
 279              		.section	.text.TestMode,"ax",%progbits
 280              		.align	1
 281              		.global	TestMode
 282              		.code	16
 283              		.thumb_func
 284              		.type	TestMode, %function
 285              	TestMode:
 286              	.LFB64:
  38:lib_testMode/testMode.c ****     ReadSwitchState();
 287              		.loc 1 38 0
 288              		.cfi_startproc
 289 0000 38B5     		push	{r3, r4, r5, lr}
 290              		.cfi_def_cfa_offset 16
 291              		.cfi_offset 3, -16
 292              		.cfi_offset 4, -12
 293              		.cfi_offset 5, -8
 294              		.cfi_offset 14, -4
  39:lib_testMode/testMode.c ****     ReadNetworkState();
 295              		.loc 1 39 0
 296 0002 FFF7FEFF 		bl	ReadSwitchState
 297              	.LVL18:
  40:lib_testMode/testMode.c ****     
 298              		.loc 1 40 0
 299 0006 FFF7FEFF 		bl	ReadNetworkState
ARM GAS  C:\Users\Petro\AppData\Local\Temp\cclt8UsU.s 			page 9


 300              	.LVL19:
  42:lib_testMode/testMode.c ****     {
 301              		.loc 1 42 0
 302 000a 2C4C     		ldr	r4, .L62
 303 000c 2378     		ldrb	r3, [r4]
 304 000e 012B     		cmp	r3, #1
 305 0010 02D0     		beq	.L33
  42:lib_testMode/testMode.c ****     {
 306              		.loc 1 42 0 is_stmt 0 discriminator 1
 307 0012 6378     		ldrb	r3, [r4, #1]
 308 0014 012B     		cmp	r3, #1
 309 0016 19D1     		bne	.L34
 310              	.L33:
  44:lib_testMode/testMode.c ****         NetworkSendTestModeStatus(1);
 311              		.loc 1 44 0 is_stmt 1
 312 0018 0120     		mov	r0, #1
 313 001a FFF7FEFF 		bl	DisplayTestMode
 314              	.LVL20:
  45:lib_testMode/testMode.c ****         statusTestMode = STOPPED;
 315              		.loc 1 45 0
 316 001e 0120     		mov	r0, #1
 317 0020 FFF7FEFF 		bl	NetworkSendTestModeStatus
 318              	.LVL21:
  46:lib_testMode/testMode.c ****         allowNextTestSkier = 1;
 319              		.loc 1 46 0
 320 0024 0022     		mov	r2, #0
 321 0026 264B     		ldr	r3, .L62+4
 322 0028 1A70     		strb	r2, [r3]
  47:lib_testMode/testMode.c ****         enableTestMode = 1;
 323              		.loc 1 47 0
 324 002a 0132     		add	r2, r2, #1
 325 002c 5A70     		strb	r2, [r3, #1]
  48:lib_testMode/testMode.c ****         if(networkState == RISING_EDGE && switchState == LOW_LEVEL)
 326              		.loc 1 48 0
 327 002e DA70     		strb	r2, [r3, #3]
  49:lib_testMode/testMode.c ****             switchState = RISING_EDGE;
 328              		.loc 1 49 0
 329 0030 6378     		ldrb	r3, [r4, #1]
 330 0032 9342     		cmp	r3, r2
 331 0034 04D1     		bne	.L35
  49:lib_testMode/testMode.c ****             switchState = RISING_EDGE;
 332              		.loc 1 49 0 is_stmt 0 discriminator 1
 333 0036 2278     		ldrb	r2, [r4]
 334 0038 032A     		cmp	r2, #3
 335 003a 07D1     		bne	.L34
  50:lib_testMode/testMode.c ****         if(networkState == LOW_LEVEL && switchState == RISING_EDGE)
 336              		.loc 1 50 0 is_stmt 1
 337 003c 2370     		strb	r3, [r4]
 338 003e 05E0     		b	.L34
 339              	.L35:
  51:lib_testMode/testMode.c ****             networkState = RISING_EDGE;
 340              		.loc 1 51 0
 341 0040 032B     		cmp	r3, #3
 342 0042 03D1     		bne	.L34
  51:lib_testMode/testMode.c ****             networkState = RISING_EDGE;
 343              		.loc 1 51 0 is_stmt 0 discriminator 1
 344 0044 2378     		ldrb	r3, [r4]
ARM GAS  C:\Users\Petro\AppData\Local\Temp\cclt8UsU.s 			page 10


 345 0046 012B     		cmp	r3, #1
 346 0048 00D1     		bne	.L34
  52:lib_testMode/testMode.c ****     }
 347              		.loc 1 52 0 is_stmt 1
 348 004a 6370     		strb	r3, [r4, #1]
 349              	.L34:
  54:lib_testMode/testMode.c ****     {
 350              		.loc 1 54 0
 351 004c 6378     		ldrb	r3, [r4, #1]
 352 004e 022B     		cmp	r3, #2
 353 0050 19D1     		bne	.L39
  56:lib_testMode/testMode.c ****         DisplayTestMode(0);
 354              		.loc 1 56 0
 355 0052 FFF7FEFF 		bl	TimerTestMode_Stop
 356              	.LVL22:
  57:lib_testMode/testMode.c ****         NetworkSendTestModeStatus(0);
 357              		.loc 1 57 0
 358 0056 0020     		mov	r0, #0
 359 0058 FFF7FEFF 		bl	DisplayTestMode
 360              	.LVL23:
  58:lib_testMode/testMode.c ****         statusTestMode = STOPPED;
 361              		.loc 1 58 0
 362 005c 0020     		mov	r0, #0
 363 005e FFF7FEFF 		bl	NetworkSendTestModeStatus
 364              	.LVL24:
  59:lib_testMode/testMode.c ****         allowNextTestSkier = 0;
 365              		.loc 1 59 0
 366 0062 0022     		mov	r2, #0
 367 0064 164B     		ldr	r3, .L62+4
 368 0066 1A70     		strb	r2, [r3]
  60:lib_testMode/testMode.c ****         enableTestMode = 0;
 369              		.loc 1 60 0
 370 0068 5A70     		strb	r2, [r3, #1]
  61:lib_testMode/testMode.c ****         if(networkState == FALLING_EDGE && switchState != FALLING_EDGE)
 371              		.loc 1 61 0
 372 006a DA70     		strb	r2, [r3, #3]
  62:lib_testMode/testMode.c ****             switchState = LOW_LEVEL;
 373              		.loc 1 62 0
 374 006c 6278     		ldrb	r2, [r4, #1]
 375 006e 2378     		ldrb	r3, [r4]
 376 0070 022A     		cmp	r2, #2
 377 0072 04D1     		bne	.L40
  62:lib_testMode/testMode.c ****             switchState = LOW_LEVEL;
 378              		.loc 1 62 0 is_stmt 0 discriminator 1
 379 0074 022B     		cmp	r3, #2
 380 0076 06D0     		beq	.L39
  63:lib_testMode/testMode.c ****         if(networkState != FALLING_EDGE && switchState == FALLING_EDGE)
 381              		.loc 1 63 0 is_stmt 1
 382 0078 0323     		mov	r3, #3
 383 007a 2370     		strb	r3, [r4]
 384 007c 03E0     		b	.L39
 385              	.L40:
  64:lib_testMode/testMode.c ****             networkState = LOW_LEVEL;
 386              		.loc 1 64 0
 387 007e 022B     		cmp	r3, #2
 388 0080 01D1     		bne	.L39
  65:lib_testMode/testMode.c ****     }
ARM GAS  C:\Users\Petro\AppData\Local\Temp\cclt8UsU.s 			page 11


 389              		.loc 1 65 0
 390 0082 0323     		mov	r3, #3
 391 0084 6370     		strb	r3, [r4, #1]
 392              	.L39:
  68:lib_testMode/testMode.c ****     {
 393              		.loc 1 68 0
 394 0086 6378     		ldrb	r3, [r4, #1]
 395 0088 002B     		cmp	r3, #0
 396 008a 15D1     		bne	.L32
  68:lib_testMode/testMode.c ****     {
 397              		.loc 1 68 0 is_stmt 0 discriminator 1
 398 008c 2378     		ldrb	r3, [r4]
 399 008e 002B     		cmp	r3, #0
 400 0090 12D1     		bne	.L32
  70:lib_testMode/testMode.c ****         {
 401              		.loc 1 70 0 is_stmt 1
 402 0092 0B4C     		ldr	r4, .L62+4
 403 0094 2578     		ldrb	r5, [r4]
 404 0096 002D     		cmp	r5, #0
 405 0098 0ED1     		bne	.L32
  70:lib_testMode/testMode.c ****         {
 406              		.loc 1 70 0 is_stmt 0 discriminator 1
 407 009a FFF7FEFF 		bl	SkierOnWay
 408              	.LVL25:
 409 009e 0028     		cmp	r0, #0
 410 00a0 0AD0     		beq	.L32
  70:lib_testMode/testMode.c ****         {
 411              		.loc 1 70 0 discriminator 2
 412 00a2 6378     		ldrb	r3, [r4, #1]
 413 00a4 002B     		cmp	r3, #0
 414 00a6 07D0     		beq	.L32
  73:lib_testMode/testMode.c ****             Int_timerTestMode_StartEx(testModeHandler);
 415              		.loc 1 73 0 is_stmt 1
 416 00a8 FFF7FEFF 		bl	TestMode_UpdateNewRandomTime
 417              	.LVL26:
  74:lib_testMode/testMode.c ****             statusTestMode = RUN;
 418              		.loc 1 74 0
 419 00ac 0548     		ldr	r0, .L62+8
 420 00ae FFF7FEFF 		bl	Int_timerTestMode_StartEx
 421              	.LVL27:
  75:lib_testMode/testMode.c ****             allowNextTestSkier = 0;
 422              		.loc 1 75 0
 423 00b2 0123     		mov	r3, #1
  76:lib_testMode/testMode.c ****         }
 424              		.loc 1 76 0
 425 00b4 6570     		strb	r5, [r4, #1]
  75:lib_testMode/testMode.c ****             allowNextTestSkier = 0;
 426              		.loc 1 75 0
 427 00b6 2370     		strb	r3, [r4]
 428              	.L32:
  79:lib_testMode/testMode.c **** 
 429              		.loc 1 79 0
 430              		@ sp needed
 431 00b8 38BD     		pop	{r3, r4, r5, pc}
 432              	.L63:
 433 00ba C046     		.align	2
 434              	.L62:
ARM GAS  C:\Users\Petro\AppData\Local\Temp\cclt8UsU.s 			page 12


 435 00bc 00000000 		.word	.LANCHOR1
 436 00c0 00000000 		.word	.LANCHOR0
 437 00c4 00000000 		.word	testModeHandler
 438              		.cfi_endproc
 439              	.LFE64:
 440              		.size	TestMode, .-TestMode
 441              		.section	.text.AllowNextTestSkier,"ax",%progbits
 442              		.align	1
 443              		.global	AllowNextTestSkier
 444              		.code	16
 445              		.thumb_func
 446              		.type	AllowNextTestSkier, %function
 447              	AllowNextTestSkier:
 448              	.LFB68:
 148:lib_testMode/testMode.c **** 
 149:lib_testMode/testMode.c **** void AllowNextTestSkier()
 150:lib_testMode/testMode.c **** {
 449              		.loc 1 150 0
 450              		.cfi_startproc
 151:lib_testMode/testMode.c ****     allowNextTestSkier = 1;
 451              		.loc 1 151 0
 452 0000 0122     		mov	r2, #1
 453 0002 014B     		ldr	r3, .L65
 152:lib_testMode/testMode.c **** }...
 454              		.loc 1 152 0
 455              		@ sp needed
 151:lib_testMode/testMode.c ****     allowNextTestSkier = 1;
 456              		.loc 1 151 0
 457 0004 5A70     		strb	r2, [r3, #1]
 458              		.loc 1 152 0
 459 0006 7047     		bx	lr
 460              	.L66:
 461              		.align	2
 462              	.L65:
 463 0008 00000000 		.word	.LANCHOR0
 464              		.cfi_endproc
 465              	.LFE68:
 466              		.size	AllowNextTestSkier, .-AllowNextTestSkier
 467              		.global	networkState
 468              		.global	switchState
 469              		.global	statusTestMode
 470              		.data
 471              		.set	.LANCHOR1,. + 0
 472              		.type	switchState, %object
 473              		.size	switchState, 1
 474              	switchState:
 475 0000 03       		.byte	3
 476              		.type	networkState, %object
 477              		.size	networkState, 1
 478              	networkState:
 479 0001 03       		.byte	3
 480              		.bss
 481              		.set	.LANCHOR0,. + 0
 482              		.type	statusTestMode, %object
 483              		.size	statusTestMode, 1
 484              	statusTestMode:
 485 0000 00       		.space	1
ARM GAS  C:\Users\Petro\AppData\Local\Temp\cclt8UsU.s 			page 13


 486              		.type	allowNextTestSkier, %object
 487              		.size	allowNextTestSkier, 1
 488              	allowNextTestSkier:
 489 0001 00       		.space	1
 490              		.type	tmpCounter.9557, %object
 491              		.size	tmpCounter.9557, 1
 492              	tmpCounter.9557:
 493 0002 00       		.space	1
 494              		.type	enableTestMode, %object
 495              		.size	enableTestMode, 1
 496              	enableTestMode:
 497 0003 00       		.space	1
 498              		.text
 499              	.Letext0:
 500              		.file 2 "c:\\program files (x86)\\cypress\\psoc creator\\4.0\\psoc creator\\import\\gnu\\arm\\4.9.
 501              		.file 3 "c:\\program files (x86)\\cypress\\psoc creator\\4.0\\psoc creator\\import\\gnu\\arm\\4.9.
 502              		.file 4 "Generated_Source\\PSoC4/cytypes.h"
 503              		.file 5 "Generated_Source\\PSoC4/ble_Stack.h"
 504              		.file 6 "Generated_Source\\PSoC4/Pin_testMode.h"
 505              		.file 7 "Generated_Source\\PSoC4/TimerTestMode.h"
 506              		.file 8 "c:\\program files (x86)\\cypress\\psoc creator\\4.0\\psoc creator\\import\\gnu\\arm\\4.9.
 507              		.file 9 "Generated_Source\\PSoC4/SW_RunTestMode.h"
 508              		.file 10 "./lib_DB\\database.h"
 509              		.file 11 "./lib_Network\\network.h"
 510              		.file 12 "./lib_Display\\Display.h"
 511              		.file 13 "Generated_Source\\PSoC4/Int_timerTestMode.h"