ARM GAS  C:\Users\Petro\AppData\Local\Temp\ccPI8XHN.s 			page 1


   1              		.cpu cortex-m0
   2              		.fpu softvfp
   3              		.eabi_attribute 20, 1
   4              		.eabi_attribute 21, 1
   5              		.eabi_attribute 23, 3
   6              		.eabi_attribute 24, 1
   7              		.eabi_attribute 25, 1
   8              		.eabi_attribute 26, 1
   9              		.eabi_attribute 30, 1
  10              		.eabi_attribute 34, 0
  11              		.eabi_attribute 18, 4
  12              		.code	16
  13              		.file	"diskio.c"
  14              		.text
  15              	.Ltext0:
  16              		.cfi_sections	.debug_frame
  17              		.section	.text.disk_status,"ax",%progbits
  18              		.align	2
  19              		.global	disk_status
  20              		.code	16
  21              		.thumb_func
  22              		.type	disk_status, %function
  23              	disk_status:
  24              	.LFB0:
  25              		.file 1 ".\\diskio.c"
   1:.\diskio.c    **** /*-----------------------------------------------------------------------*/
   2:.\diskio.c    **** /* Low level disk I/O module glue functions         (C)ChaN, 2016        */
   3:.\diskio.c    **** /*-----------------------------------------------------------------------*/
   4:.\diskio.c    **** /* If a working storage control module is available, it should be        */
   5:.\diskio.c    **** /* attached to the FatFs via a glue function rather than modifying it.   */
   6:.\diskio.c    **** /* This is an example of glue functions to attach various exsisting      */
   7:.\diskio.c    **** /* storage control modules to the FatFs module with a defined API.       */
   8:.\diskio.c    **** /*-----------------------------------------------------------------------*/
   9:.\diskio.c    **** 
  10:.\diskio.c    **** #include "diskio.h"			/* FatFs lower layer API */
  11:.\diskio.c    **** #ifdef DRV_CFC
  12:.\diskio.c    **** #include "cfc_avr.h"		/* Header file of existing CF control module */
  13:.\diskio.c    **** #endif
  14:.\diskio.c    **** #ifdef DRV_MMC
  15:.\diskio.c    **** #include "mmc_avr_usart.h"	/* Header file of existing SD control module */
  16:.\diskio.c    **** #endif
  17:.\diskio.c    **** 
  18:.\diskio.c    **** 
  19:.\diskio.c    **** /*-----------------------------------------------------------------------*/
  20:.\diskio.c    **** /* Get Drive Status                                                      */
  21:.\diskio.c    **** /*-----------------------------------------------------------------------*/
  22:.\diskio.c    **** 
  23:.\diskio.c    **** DSTATUS disk_status (
  24:.\diskio.c    **** 	BYTE pdrv		/* Physical drive nmuber to identify the drive */
  25:.\diskio.c    **** )
  26:.\diskio.c    **** {
  26              		.loc 1 26 0
  27              		.cfi_startproc
  28              	.LVL0:
  29 0000 08B5     		push	{r3, lr}
  30              		.cfi_def_cfa_offset 8
  31              		.cfi_offset 3, -8
ARM GAS  C:\Users\Petro\AppData\Local\Temp\ccPI8XHN.s 			page 2


  32              		.cfi_offset 14, -4
  27:.\diskio.c    **** 	switch (pdrv) {
  33              		.loc 1 27 0
  34 0002 0128     		cmp	r0, #1
  35 0004 02D1     		bne	.L5
  28:.\diskio.c    **** #ifdef DRV_CFC
  29:.\diskio.c    **** 	case DRV_CFC :
  30:.\diskio.c    **** 		return cf_disk_status();
  31:.\diskio.c    **** #endif
  32:.\diskio.c    **** #ifdef DRV_MMC
  33:.\diskio.c    **** 	case DRV_MMC :
  34:.\diskio.c    **** 		return mmc_disk_status();
  36              		.loc 1 34 0
  37 0006 FFF7FEFF 		bl	mmc_disk_status
  38              	.LVL1:
  39 000a 00E0     		b	.L2
  40              	.LVL2:
  41              	.L5:
  35:.\diskio.c    **** #endif
  36:.\diskio.c    **** 	}
  37:.\diskio.c    **** 	return STA_NOINIT;
  42              		.loc 1 37 0
  43 000c 0120     		mov	r0, #1
  44              	.LVL3:
  45              	.L2:
  38:.\diskio.c    **** }
  46              		.loc 1 38 0
  47              		@ sp needed
  48 000e 08BD     		pop	{r3, pc}
  49              		.cfi_endproc
  50              	.LFE0:
  51              		.size	disk_status, .-disk_status
  52              		.section	.text.disk_initialize,"ax",%progbits
  53              		.align	2
  54              		.global	disk_initialize
  55              		.code	16
  56              		.thumb_func
  57              		.type	disk_initialize, %function
  58              	disk_initialize:
  59              	.LFB1:
  39:.\diskio.c    **** 
  40:.\diskio.c    **** 
  41:.\diskio.c    **** 
  42:.\diskio.c    **** /*-----------------------------------------------------------------------*/
  43:.\diskio.c    **** /* Inidialize a Drive                                                    */
  44:.\diskio.c    **** /*-----------------------------------------------------------------------*/
  45:.\diskio.c    **** 
  46:.\diskio.c    **** DSTATUS disk_initialize (
  47:.\diskio.c    **** 	BYTE pdrv				/* Physical drive nmuber to identify the drive */
  48:.\diskio.c    **** )
  49:.\diskio.c    **** {
  60              		.loc 1 49 0
  61              		.cfi_startproc
  62              	.LVL4:
  63 0000 08B5     		push	{r3, lr}
  64              		.cfi_def_cfa_offset 8
  65              		.cfi_offset 3, -8
ARM GAS  C:\Users\Petro\AppData\Local\Temp\ccPI8XHN.s 			page 3


  66              		.cfi_offset 14, -4
  50:.\diskio.c    **** #ifdef DRV_CFC
  51:.\diskio.c    **** 		return cf_disk_initialize();
  52:.\diskio.c    **** #endif
  53:.\diskio.c    **** #ifdef DRV_MMC
  54:.\diskio.c    **** 		return mmc_disk_initialize();
  67              		.loc 1 54 0
  68 0002 FFF7FEFF 		bl	mmc_disk_initialize
  69              	.LVL5:
  55:.\diskio.c    **** #endif
  56:.\diskio.c    **** 	return STA_NOINIT;
  57:.\diskio.c    **** }
  70              		.loc 1 57 0
  71              		@ sp needed
  72 0006 08BD     		pop	{r3, pc}
  73              		.cfi_endproc
  74              	.LFE1:
  75              		.size	disk_initialize, .-disk_initialize
  76              		.section	.text.disk_read,"ax",%progbits
  77              		.align	2
  78              		.global	disk_read
  79              		.code	16
  80              		.thumb_func
  81              		.type	disk_read, %function
  82              	disk_read:
  83              	.LFB2:
  58:.\diskio.c    **** 
  59:.\diskio.c    **** 
  60:.\diskio.c    **** 
  61:.\diskio.c    **** /*-----------------------------------------------------------------------*/
  62:.\diskio.c    **** /* Read Sector(s)                                                        */
  63:.\diskio.c    **** /*-----------------------------------------------------------------------*/
  64:.\diskio.c    **** 
  65:.\diskio.c    **** DRESULT disk_read (
  66:.\diskio.c    **** 	BYTE pdrv,		/* Physical drive nmuber to identify the drive */
  67:.\diskio.c    **** 	BYTE *buff,		/* Data buffer to store read data */
  68:.\diskio.c    **** 	DWORD sector,	/* Sector address in LBA */
  69:.\diskio.c    **** 	UINT count		/* Number of sectors to read */
  70:.\diskio.c    **** )
  71:.\diskio.c    **** {
  84              		.loc 1 71 0
  85              		.cfi_startproc
  86              	.LVL6:
  87 0000 08B5     		push	{r3, lr}
  88              		.cfi_def_cfa_offset 8
  89              		.cfi_offset 3, -8
  90              		.cfi_offset 14, -4
  72:.\diskio.c    **** #ifdef DRV_CFC
  73:.\diskio.c    **** 		return cf_disk_read(buff, sector, count);
  74:.\diskio.c    **** #endif
  75:.\diskio.c    **** #ifdef DRV_MMC
  76:.\diskio.c    **** 		return mmc_disk_read(buff, sector, count);
  91              		.loc 1 76 0
  92 0002 081C     		mov	r0, r1
  93              	.LVL7:
  94 0004 111C     		mov	r1, r2
  95              	.LVL8:
ARM GAS  C:\Users\Petro\AppData\Local\Temp\ccPI8XHN.s 			page 4


  96 0006 1A1C     		mov	r2, r3
  97              	.LVL9:
  98 0008 FFF7FEFF 		bl	mmc_disk_read
  99              	.LVL10:
  77:.\diskio.c    **** #endif
  78:.\diskio.c    **** 	return RES_PARERR;
  79:.\diskio.c    **** }
 100              		.loc 1 79 0
 101              		@ sp needed
 102 000c 08BD     		pop	{r3, pc}
 103              		.cfi_endproc
 104              	.LFE2:
 105              		.size	disk_read, .-disk_read
 106 000e C046     		.section	.text.disk_write,"ax",%progbits
 107              		.align	2
 108              		.global	disk_write
 109              		.code	16
 110              		.thumb_func
 111              		.type	disk_write, %function
 112              	disk_write:
 113              	.LFB3:
  80:.\diskio.c    **** 
  81:.\diskio.c    **** 
  82:.\diskio.c    **** 
  83:.\diskio.c    **** /*-----------------------------------------------------------------------*/
  84:.\diskio.c    **** /* Write Sector(s)                                                       */
  85:.\diskio.c    **** /*-----------------------------------------------------------------------*/
  86:.\diskio.c    **** 
  87:.\diskio.c    **** #if _USE_WRITE
  88:.\diskio.c    **** DRESULT disk_write (
  89:.\diskio.c    **** 	BYTE pdrv,			/* Physical drive nmuber to identify the drive */
  90:.\diskio.c    **** 	const BYTE *buff,	/* Data to be written */
  91:.\diskio.c    **** 	DWORD sector,		/* Sector address in LBA */
  92:.\diskio.c    **** 	UINT count			/* Number of sectors to write */
  93:.\diskio.c    **** )
  94:.\diskio.c    **** {
 114              		.loc 1 94 0
 115              		.cfi_startproc
 116              	.LVL11:
 117 0000 08B5     		push	{r3, lr}
 118              		.cfi_def_cfa_offset 8
 119              		.cfi_offset 3, -8
 120              		.cfi_offset 14, -4
  95:.\diskio.c    **** #ifdef DRV_CFC
  96:.\diskio.c    **** 		return cf_disk_write(buff, sector, count);
  97:.\diskio.c    **** #endif
  98:.\diskio.c    **** #ifdef DRV_MMC
  99:.\diskio.c    **** 		return mmc_disk_write(buff, sector, count);
 121              		.loc 1 99 0
 122 0002 081C     		mov	r0, r1
 123              	.LVL12:
 124 0004 111C     		mov	r1, r2
 125              	.LVL13:
 126 0006 1A1C     		mov	r2, r3
 127              	.LVL14:
 128 0008 FFF7FEFF 		bl	mmc_disk_write
 129              	.LVL15:
ARM GAS  C:\Users\Petro\AppData\Local\Temp\ccPI8XHN.s 			page 5


 100:.\diskio.c    **** #endif
 101:.\diskio.c    **** 	return RES_PARERR;
 102:.\diskio.c    **** }
 130              		.loc 1 102 0
 131              		@ sp needed
 132 000c 08BD     		pop	{r3, pc}
 133              		.cfi_endproc
 134              	.LFE3:
 135              		.size	disk_write, .-disk_write
 136 000e C046     		.section	.text.disk_ioctl,"ax",%progbits
 137              		.align	2
 138              		.global	disk_ioctl
 139              		.code	16
 140              		.thumb_func
 141              		.type	disk_ioctl, %function
 142              	disk_ioctl:
 143              	.LFB4:
 103:.\diskio.c    **** #endif
 104:.\diskio.c    **** 
 105:.\diskio.c    **** 
 106:.\diskio.c    **** /*-----------------------------------------------------------------------*/
 107:.\diskio.c    **** /* Miscellaneous Functions                                               */
 108:.\diskio.c    **** /*-----------------------------------------------------------------------*/
 109:.\diskio.c    **** 
 110:.\diskio.c    **** #if _USE_IOCTL
 111:.\diskio.c    **** DRESULT disk_ioctl (
 112:.\diskio.c    **** 	BYTE pdrv,		/* Physical drive nmuber (0..) */
 113:.\diskio.c    **** 	BYTE cmd,		/* Control code */
 114:.\diskio.c    **** 	void *buff		/* Buffer to send/receive control data */
 115:.\diskio.c    **** )
 116:.\diskio.c    **** {
 144              		.loc 1 116 0
 145              		.cfi_startproc
 146              	.LVL16:
 147 0000 08B5     		push	{r3, lr}
 148              		.cfi_def_cfa_offset 8
 149              		.cfi_offset 3, -8
 150              		.cfi_offset 14, -4
 117:.\diskio.c    **** #ifdef DRV_CFC
 118:.\diskio.c    **** 		return cf_disk_ioctl(cmd, buff);
 119:.\diskio.c    **** #endif
 120:.\diskio.c    **** #ifdef DRV_MMC
 121:.\diskio.c    **** 		return mmc_disk_ioctl(cmd, buff);
 151              		.loc 1 121 0
 152 0002 081C     		mov	r0, r1
 153              	.LVL17:
 154 0004 111C     		mov	r1, r2
 155              	.LVL18:
 156 0006 FFF7FEFF 		bl	mmc_disk_ioctl
 157              	.LVL19:
 122:.\diskio.c    **** #endif
 123:.\diskio.c    **** 	return RES_PARERR;
 124:.\diskio.c    **** }
 158              		.loc 1 124 0
 159              		@ sp needed
 160 000a 08BD     		pop	{r3, pc}
 161              		.cfi_endproc
ARM GAS  C:\Users\Petro\AppData\Local\Temp\ccPI8XHN.s 			page 6


 162              	.LFE4:
 163              		.size	disk_ioctl, .-disk_ioctl
 164              		.section	.text.disk_timerproc,"ax",%progbits
 165              		.align	2
 166              		.global	disk_timerproc
 167              		.code	16
 168              		.thumb_func
 169              		.type	disk_timerproc, %function
 170              	disk_timerproc:
 171              	.LFB5:
 125:.\diskio.c    **** #endif
 126:.\diskio.c    **** 
 127:.\diskio.c    **** 
 128:.\diskio.c    **** /*-----------------------------------------------------------------------*/
 129:.\diskio.c    **** /* Timer driven procedure                                                */
 130:.\diskio.c    **** /*-----------------------------------------------------------------------*/
 131:.\diskio.c    **** 
 132:.\diskio.c    **** 
 133:.\diskio.c    **** void disk_timerproc (void)
 134:.\diskio.c    **** {
 172              		.loc 1 134 0
 173              		.cfi_startproc
 174 0000 08B5     		push	{r3, lr}
 175              		.cfi_def_cfa_offset 8
 176              		.cfi_offset 3, -8
 177              		.cfi_offset 14, -4
 135:.\diskio.c    **** #ifdef DRV_CFC
 136:.\diskio.c    **** 	cf_disk_timerproc();
 137:.\diskio.c    **** #endif
 138:.\diskio.c    **** #ifdef DRV_MMC
 139:.\diskio.c    **** 	mmc_disk_timerproc();
 178              		.loc 1 139 0
 179 0002 FFF7FEFF 		bl	mmc_disk_timerproc
 180              	.LVL20:
 140:.\diskio.c    **** #endif
 141:.\diskio.c    **** }
 181              		.loc 1 141 0
 182              		@ sp needed
 183 0006 08BD     		pop	{r3, pc}
 184              		.cfi_endproc
 185              	.LFE5:
 186              		.size	disk_timerproc, .-disk_timerproc
 187              		.text
 188              	.Letext0:
 189              		.file 2 ".\\integer.h"
 190              		.file 3 ".\\diskio.h"
 191              		.file 4 ".\\mmc_avr_usart.h"