ARM GAS  C:\Users\Petro\AppData\Local\Temp\cc2LUvQB.s 			page 1


   1              		.cpu cortex-m0
   2              		.fpu softvfp
   3              		.eabi_attribute 20, 1
   4              		.eabi_attribute 21, 1
   5              		.eabi_attribute 23, 3
   6              		.eabi_attribute 24, 1
   7              		.eabi_attribute 25, 1
   8              		.eabi_attribute 26, 1
   9              		.eabi_attribute 30, 1
  10              		.eabi_attribute 34, 0
  11              		.eabi_attribute 18, 4
  12              		.code	16
  13              		.file	"mmc_avr_usart.c"
  14              		.text
  15              	.Ltext0:
  16              		.cfi_sections	.debug_frame
  17              		.section	.text.xchg_spi,"ax",%progbits
  18              		.align	2
  19              		.code	16
  20              		.thumb_func
  21              		.type	xchg_spi, %function
  22              	xchg_spi:
  23              	.LFB4:
  24              		.file 1 ".\\mmc_avr_usart.c"
   1:.\mmc_avr_usart.c **** /*-----------------------------------------------------------------------*/
   2:.\mmc_avr_usart.c **** /* MMCv3/SDv1/SDv2 Controls via AVR USART-SPI                            */
   3:.\mmc_avr_usart.c **** /*-----------------------------------------------------------------------*/
   4:.\mmc_avr_usart.c **** /*
   5:.\mmc_avr_usart.c **** /  Copyright (C) 2016, ChaN, all right reserved.
   6:.\mmc_avr_usart.c **** /
   7:.\mmc_avr_usart.c **** / * This software is a free software and there is NO WARRANTY.
   8:.\mmc_avr_usart.c **** / * No restriction on use. You can use, modify and redistribute it for
   9:.\mmc_avr_usart.c **** /   any purpose as you like UNDER YOUR RESPONSIBILITY.
  10:.\mmc_avr_usart.c **** / * Redistributions of source code must retain the above copyright notice.
  11:.\mmc_avr_usart.c **** /
  12:.\mmc_avr_usart.c **** /-------------------------------------------------------------------------*/
  13:.\mmc_avr_usart.c **** 
  14:.\mmc_avr_usart.c **** #include <CyLib.h>
  15:.\mmc_avr_usart.c **** #include "diskio.h"
  16:.\mmc_avr_usart.c **** #include "mmc_avr_usart.h"
  17:.\mmc_avr_usart.c **** #include "HW_SPI.h"
  18:.\mmc_avr_usart.c **** 
  19:.\mmc_avr_usart.c **** /* Port controls  (Platform dependent) */
  20:.\mmc_avr_usart.c **** #define CS_LOW()	PORTD &= ~_BV(5)	/* MMC_CS = low */
  21:.\mmc_avr_usart.c **** #define	CS_HIGH()	PORTD |= _BV(5)		/* MMC_CS = high */
  22:.\mmc_avr_usart.c **** #define MMC_CD		(!(PINB & _BV(3)))	/* Card detected.   yes:true, no:false, default:true */
  23:.\mmc_avr_usart.c **** #define MMC_WP		(PINB & _BV(2))		/* Write protected. yes:true, no:false, default:false */
  24:.\mmc_avr_usart.c **** #define	FCLK_SLOW()	UBRR1L = F_CPU/400000/2-1	/* Set slow clock (400kHz) */
  25:.\mmc_avr_usart.c **** #define	FCLK_FAST()	UBRR1L = 0					/* Set fast clock (F_CPU/2) */
  26:.\mmc_avr_usart.c **** 
  27:.\mmc_avr_usart.c **** 
  28:.\mmc_avr_usart.c **** /*--------------------------------------------------------------------------
  29:.\mmc_avr_usart.c **** 
  30:.\mmc_avr_usart.c ****    Module Private Functions
  31:.\mmc_avr_usart.c **** 
  32:.\mmc_avr_usart.c **** ---------------------------------------------------------------------------*/
  33:.\mmc_avr_usart.c **** 
ARM GAS  C:\Users\Petro\AppData\Local\Temp\cc2LUvQB.s 			page 2


  34:.\mmc_avr_usart.c **** /* Definitions for MMC/SDC command */
  35:.\mmc_avr_usart.c **** #define CMD0	(0)			/* GO_IDLE_STATE */
  36:.\mmc_avr_usart.c **** #define CMD1	(1)			/* SEND_OP_COND (MMC) */
  37:.\mmc_avr_usart.c **** #define	ACMD41	(0x80+41)	/* SEND_OP_COND (SDC) */
  38:.\mmc_avr_usart.c **** #define CMD8	(8)			/* SEND_IF_COND */
  39:.\mmc_avr_usart.c **** #define CMD9	(9)			/* SEND_CSD */
  40:.\mmc_avr_usart.c **** #define CMD10	(10)		/* SEND_CID */
  41:.\mmc_avr_usart.c **** #define CMD12	(12)		/* STOP_TRANSMISSION */
  42:.\mmc_avr_usart.c **** #define ACMD13	(0x80+13)	/* SD_STATUS (SDC) */
  43:.\mmc_avr_usart.c **** #define CMD16	(16)		/* SET_BLOCKLEN */
  44:.\mmc_avr_usart.c **** #define CMD17	(17)		/* READ_SINGLE_BLOCK */
  45:.\mmc_avr_usart.c **** #define CMD18	(18)		/* READ_MULTIPLE_BLOCK */
  46:.\mmc_avr_usart.c **** #define CMD23	(23)		/* SET_BLOCK_COUNT (MMC) */
  47:.\mmc_avr_usart.c **** #define	ACMD23	(0x80+23)	/* SET_WR_BLK_ERASE_COUNT (SDC) */
  48:.\mmc_avr_usart.c **** #define CMD24	(24)		/* WRITE_BLOCK */
  49:.\mmc_avr_usart.c **** #define CMD25	(25)		/* WRITE_MULTIPLE_BLOCK */
  50:.\mmc_avr_usart.c **** #define CMD32	(32)		/* ERASE_ER_BLK_START */
  51:.\mmc_avr_usart.c **** #define CMD33	(33)		/* ERASE_ER_BLK_END */
  52:.\mmc_avr_usart.c **** #define CMD38	(38)		/* ERASE */
  53:.\mmc_avr_usart.c **** #define	CMD48	(48)		/* READ_EXTR_SINGLE */
  54:.\mmc_avr_usart.c **** #define	CMD49	(49)		/* WRITE_EXTR_SINGLE */
  55:.\mmc_avr_usart.c **** #define CMD55	(55)		/* APP_CMD */
  56:.\mmc_avr_usart.c **** #define CMD58	(58)		/* READ_OCR */
  57:.\mmc_avr_usart.c **** 
  58:.\mmc_avr_usart.c **** 
  59:.\mmc_avr_usart.c **** static volatile
  60:.\mmc_avr_usart.c **** DSTATUS Stat = STA_NOINIT;	/* Disk status */
  61:.\mmc_avr_usart.c **** 
  62:.\mmc_avr_usart.c **** static volatile
  63:.\mmc_avr_usart.c **** BYTE Timer1, Timer2;	/* 100Hz decrement timer */
  64:.\mmc_avr_usart.c **** 
  65:.\mmc_avr_usart.c **** static
  66:.\mmc_avr_usart.c **** BYTE CardType;			/* Card type flags (b0:MMC, b1:SDv1, b2:SDv2, b3:Block addressing) */
  67:.\mmc_avr_usart.c **** 
  68:.\mmc_avr_usart.c **** 
  69:.\mmc_avr_usart.c **** 
  70:.\mmc_avr_usart.c **** /*-----------------------------------------------------------------------*/
  71:.\mmc_avr_usart.c **** /* Power Control  (Platform dependent)                                   */
  72:.\mmc_avr_usart.c **** /*-----------------------------------------------------------------------*/
  73:.\mmc_avr_usart.c **** /* When the target system does not support socket power control, there   */
  74:.\mmc_avr_usart.c **** /* is nothing to do in these functions and chk_power always returns 1.   */
  75:.\mmc_avr_usart.c **** 
  76:.\mmc_avr_usart.c **** static
  77:.\mmc_avr_usart.c **** void power_on (void)
  78:.\mmc_avr_usart.c **** {
  79:.\mmc_avr_usart.c **** 	/* Remove this block if no socket power control */
  80:.\mmc_avr_usart.c **** }
  81:.\mmc_avr_usart.c **** 
  82:.\mmc_avr_usart.c **** 
  83:.\mmc_avr_usart.c **** static
  84:.\mmc_avr_usart.c **** void power_off (void)
  85:.\mmc_avr_usart.c **** {
  86:.\mmc_avr_usart.c **** 	
  87:.\mmc_avr_usart.c **** }
  88:.\mmc_avr_usart.c **** 
  89:.\mmc_avr_usart.c **** 
  90:.\mmc_avr_usart.c **** 
ARM GAS  C:\Users\Petro\AppData\Local\Temp\cc2LUvQB.s 			page 3


  91:.\mmc_avr_usart.c **** /*-----------------------------------------------------------------------*/
  92:.\mmc_avr_usart.c **** /* Transmit/Receive data from/to MMC via SPI  (Platform dependent)       */
  93:.\mmc_avr_usart.c **** /*-----------------------------------------------------------------------*/
  94:.\mmc_avr_usart.c **** 
  95:.\mmc_avr_usart.c **** /* Exchange a byte */
  96:.\mmc_avr_usart.c **** static
  97:.\mmc_avr_usart.c **** BYTE xchg_spi (		/* Returns received data */
  98:.\mmc_avr_usart.c **** 	BYTE dat		/* Data to be sent */
  99:.\mmc_avr_usart.c **** )
 100:.\mmc_avr_usart.c **** {
  25              		.loc 1 100 0
  26              		.cfi_startproc
  27              	.LVL0:
  28 0000 08B5     		push	{r3, lr}
  29              		.cfi_def_cfa_offset 8
  30              		.cfi_offset 3, -8
  31              		.cfi_offset 14, -4
 101:.\mmc_avr_usart.c **** 	//UDR1 = dat;
 102:.\mmc_avr_usart.c **** 	//loop_until_bit_is_set(UCSR1A, RXC1);
 103:.\mmc_avr_usart.c ****     SPI_SendByte(dat);
  32              		.loc 1 103 0
  33 0002 FFF7FEFF 		bl	SPI_SendByte
  34              	.LVL1:
 104:.\mmc_avr_usart.c **** 	return SPI_RecvByte();
  35              		.loc 1 104 0
  36 0006 FFF7FEFF 		bl	SPI_RecvByte
  37              	.LVL2:
 105:.\mmc_avr_usart.c **** }
  38              		.loc 1 105 0
  39              		@ sp needed
  40 000a 08BD     		pop	{r3, pc}
  41              		.cfi_endproc
  42              	.LFE4:
  43              		.size	xchg_spi, .-xchg_spi
  44              		.global	__aeabi_uidiv
  45              		.section	.text.wait_ready,"ax",%progbits
  46              		.align	2
  47              		.code	16
  48              		.thumb_func
  49              		.type	wait_ready, %function
  50              	wait_ready:
  51              	.LFB7:
 106:.\mmc_avr_usart.c **** 
 107:.\mmc_avr_usart.c **** 
 108:.\mmc_avr_usart.c **** /* Receive a data block fast */
 109:.\mmc_avr_usart.c **** static
 110:.\mmc_avr_usart.c **** void rcvr_spi_multi (
 111:.\mmc_avr_usart.c **** 	BYTE *p,	/* Data read buffer */
 112:.\mmc_avr_usart.c **** 	UINT cnt	/* Size of data block */
 113:.\mmc_avr_usart.c **** )
 114:.\mmc_avr_usart.c **** {
 115:.\mmc_avr_usart.c **** 	SPI_RecvBuff(p, cnt);
 116:.\mmc_avr_usart.c **** }
 117:.\mmc_avr_usart.c **** 
 118:.\mmc_avr_usart.c **** 
 119:.\mmc_avr_usart.c **** /* Send a data block fast */
 120:.\mmc_avr_usart.c **** static
ARM GAS  C:\Users\Petro\AppData\Local\Temp\cc2LUvQB.s 			page 4


 121:.\mmc_avr_usart.c **** void xmit_spi_multi (
 122:.\mmc_avr_usart.c **** 	const BYTE *p,	/* Data block to be sent */
 123:.\mmc_avr_usart.c **** 	UINT cnt		/* Size of data block */
 124:.\mmc_avr_usart.c **** )
 125:.\mmc_avr_usart.c **** {
 126:.\mmc_avr_usart.c **** 	SPI_SendBuff((uint8_t *) p, cnt);
 127:.\mmc_avr_usart.c **** }
 128:.\mmc_avr_usart.c **** 
 129:.\mmc_avr_usart.c **** 
 130:.\mmc_avr_usart.c **** 
 131:.\mmc_avr_usart.c **** /*-----------------------------------------------------------------------*/
 132:.\mmc_avr_usart.c **** /* Wait for card ready                                                   */
 133:.\mmc_avr_usart.c **** /*-----------------------------------------------------------------------*/
 134:.\mmc_avr_usart.c **** 
 135:.\mmc_avr_usart.c **** static
 136:.\mmc_avr_usart.c **** int wait_ready (	/* 1:Ready, 0:Timeout */
 137:.\mmc_avr_usart.c **** 	UINT wt			/* Timeout [ms] */
 138:.\mmc_avr_usart.c **** )
 139:.\mmc_avr_usart.c **** {
  52              		.loc 1 139 0
  53              		.cfi_startproc
  54              	.LVL3:
  55 0000 08B5     		push	{r3, lr}
  56              		.cfi_def_cfa_offset 8
  57              		.cfi_offset 3, -8
  58              		.cfi_offset 14, -4
 140:.\mmc_avr_usart.c **** 	BYTE d;
 141:.\mmc_avr_usart.c **** 
 142:.\mmc_avr_usart.c **** 
 143:.\mmc_avr_usart.c **** 	CyDelay( wt / 10);
  59              		.loc 1 143 0
  60 0002 0A21     		mov	r1, #10
  61 0004 FFF7FEFF 		bl	__aeabi_uidiv
  62              	.LVL4:
  63 0008 FFF7FEFF 		bl	CyDelay
  64              	.LVL5:
 144:.\mmc_avr_usart.c ****     
 145:.\mmc_avr_usart.c **** 	d = xchg_spi(0xFF);
  65              		.loc 1 145 0
  66 000c FF20     		mov	r0, #255
  67 000e FFF7FEFF 		bl	xchg_spi
  68              	.LVL6:
 146:.\mmc_avr_usart.c **** 
 147:.\mmc_avr_usart.c **** 	return (d == 0xFF) ? 1 : 0;
  69              		.loc 1 147 0
  70 0012 FF38     		sub	r0, r0, #255
  71              	.LVL7:
  72 0014 4342     		neg	r3, r0
  73 0016 5841     		adc	r0, r0, r3
  74 0018 C0B2     		uxtb	r0, r0
 148:.\mmc_avr_usart.c **** }
  75              		.loc 1 148 0
  76              		@ sp needed
  77 001a 08BD     		pop	{r3, pc}
  78              		.cfi_endproc
  79              	.LFE7:
  80              		.size	wait_ready, .-wait_ready
ARM GAS  C:\Users\Petro\AppData\Local\Temp\cc2LUvQB.s 			page 5


  81              		.section	.text.deselect,"ax",%progbits
  82              		.align	2
  83              		.code	16
  84              		.thumb_func
  85              		.type	deselect, %function
  86              	deselect:
  87              	.LFB8:
 149:.\mmc_avr_usart.c **** 
 150:.\mmc_avr_usart.c **** 
 151:.\mmc_avr_usart.c **** 
 152:.\mmc_avr_usart.c **** /*-----------------------------------------------------------------------*/
 153:.\mmc_avr_usart.c **** /* Deselect the card and release SPI bus                                 */
 154:.\mmc_avr_usart.c **** /*-----------------------------------------------------------------------*/
 155:.\mmc_avr_usart.c **** 
 156:.\mmc_avr_usart.c **** static
 157:.\mmc_avr_usart.c **** void deselect (void)
 158:.\mmc_avr_usart.c **** {
  88              		.loc 1 158 0
  89              		.cfi_startproc
  90 0000 08B5     		push	{r3, lr}
  91              		.cfi_def_cfa_offset 8
  92              		.cfi_offset 3, -8
  93              		.cfi_offset 14, -4
 159:.\mmc_avr_usart.c **** 	ChipDeselect();		/* Set CS# high */
  94              		.loc 1 159 0
  95 0002 FFF7FEFF 		bl	ChipDeselect
  96              	.LVL8:
 160:.\mmc_avr_usart.c **** 	xchg_spi(0xFF);	/* Dummy clock (force DO hi-z for multiple slave SPI) */
  97              		.loc 1 160 0
  98 0006 FF20     		mov	r0, #255
  99 0008 FFF7FEFF 		bl	xchg_spi
 100              	.LVL9:
 161:.\mmc_avr_usart.c **** }
 101              		.loc 1 161 0
 102              		@ sp needed
 103 000c 08BD     		pop	{r3, pc}
 104              		.cfi_endproc
 105              	.LFE8:
 106              		.size	deselect, .-deselect
 107 000e C046     		.section	.text.select,"ax",%progbits
 108              		.align	2
 109              		.code	16
 110              		.thumb_func
 111              		.type	select, %function
 112              	select:
 113              	.LFB9:
 162:.\mmc_avr_usart.c **** 
 163:.\mmc_avr_usart.c **** 
 164:.\mmc_avr_usart.c **** 
 165:.\mmc_avr_usart.c **** /*-----------------------------------------------------------------------*/
 166:.\mmc_avr_usart.c **** /* Select the card and wait for ready                                    */
 167:.\mmc_avr_usart.c **** /*-----------------------------------------------------------------------*/
 168:.\mmc_avr_usart.c **** 
 169:.\mmc_avr_usart.c **** static
 170:.\mmc_avr_usart.c **** int select (void)	/* 1:Successful, 0:Timeout */
 171:.\mmc_avr_usart.c **** {
 114              		.loc 1 171 0
ARM GAS  C:\Users\Petro\AppData\Local\Temp\cc2LUvQB.s 			page 6


 115              		.cfi_startproc
 116 0000 10B5     		push	{r4, lr}
 117              		.cfi_def_cfa_offset 8
 118              		.cfi_offset 4, -8
 119              		.cfi_offset 14, -4
 172:.\mmc_avr_usart.c **** 	ChipSelect();		/* Set CS# low */
 120              		.loc 1 172 0
 121 0002 FFF7FEFF 		bl	ChipSelect
 122              	.LVL10:
 173:.\mmc_avr_usart.c **** 	xchg_spi(0xFF);	/* Dummy clock (force DO enabled) */
 123              		.loc 1 173 0
 124 0006 FF20     		mov	r0, #255
 125 0008 FFF7FEFF 		bl	xchg_spi
 126              	.LVL11:
 174:.\mmc_avr_usart.c **** 	if (wait_ready(500)) return 1;	/* Wait for card ready */
 127              		.loc 1 174 0
 128 000c FA20     		mov	r0, #250
 129 000e 4000     		lsl	r0, r0, #1
 130 0010 FFF7FEFF 		bl	wait_ready
 131              	.LVL12:
 132 0014 041E     		sub	r4, r0, #0
 133 0016 02D1     		bne	.L6
 175:.\mmc_avr_usart.c **** 
 176:.\mmc_avr_usart.c **** 	deselect();
 134              		.loc 1 176 0
 135 0018 FFF7FEFF 		bl	deselect
 136              	.LVL13:
 177:.\mmc_avr_usart.c **** 	return 0;	/* Timeout */
 137              		.loc 1 177 0
 138 001c 00E0     		b	.L5
 139              	.L6:
 174:.\mmc_avr_usart.c **** 	if (wait_ready(500)) return 1;	/* Wait for card ready */
 140              		.loc 1 174 0
 141 001e 0124     		mov	r4, #1
 142              	.L5:
 178:.\mmc_avr_usart.c **** }
 143              		.loc 1 178 0
 144 0020 201C     		mov	r0, r4
 145              		@ sp needed
 146 0022 10BD     		pop	{r4, pc}
 147              		.cfi_endproc
 148              	.LFE9:
 149              		.size	select, .-select
 150              		.section	.text.send_cmd,"ax",%progbits
 151              		.align	2
 152              		.code	16
 153              		.thumb_func
 154              		.type	send_cmd, %function
 155              	send_cmd:
 156              	.LFB12:
 179:.\mmc_avr_usart.c **** 
 180:.\mmc_avr_usart.c **** 
 181:.\mmc_avr_usart.c **** 
 182:.\mmc_avr_usart.c **** /*-----------------------------------------------------------------------*/
 183:.\mmc_avr_usart.c **** /* Receive a data packet from MMC                                        */
 184:.\mmc_avr_usart.c **** /*-----------------------------------------------------------------------*/
 185:.\mmc_avr_usart.c **** 
ARM GAS  C:\Users\Petro\AppData\Local\Temp\cc2LUvQB.s 			page 7


 186:.\mmc_avr_usart.c **** static
 187:.\mmc_avr_usart.c **** int rcvr_datablock (
 188:.\mmc_avr_usart.c **** 	BYTE *buff,			/* Data buffer to store received data */
 189:.\mmc_avr_usart.c **** 	UINT btr			/* Byte count (must be multiple of 4) */
 190:.\mmc_avr_usart.c **** )
 191:.\mmc_avr_usart.c **** {
 192:.\mmc_avr_usart.c **** 	BYTE token;
 193:.\mmc_avr_usart.c **** 
 194:.\mmc_avr_usart.c **** 
 195:.\mmc_avr_usart.c **** 	Timer1 = 20;
 196:.\mmc_avr_usart.c **** 	do {							/* Wait for data packet in timeout of 200ms */
 197:.\mmc_avr_usart.c **** 		token = xchg_spi(0xFF);
 198:.\mmc_avr_usart.c **** 	} while ((token == 0xFF) && Timer1);
 199:.\mmc_avr_usart.c **** 	if (token != 0xFE) return 0;	/* If not valid data token, retutn with error */
 200:.\mmc_avr_usart.c **** 
 201:.\mmc_avr_usart.c **** 	rcvr_spi_multi(buff, btr);		/* Receive the data block into buffer */
 202:.\mmc_avr_usart.c **** 	xchg_spi(0xFF);					/* Discard CRC */
 203:.\mmc_avr_usart.c **** 	xchg_spi(0xFF);
 204:.\mmc_avr_usart.c **** 
 205:.\mmc_avr_usart.c **** 	return 1;						/* Return with success */
 206:.\mmc_avr_usart.c **** }
 207:.\mmc_avr_usart.c **** 
 208:.\mmc_avr_usart.c **** 
 209:.\mmc_avr_usart.c **** 
 210:.\mmc_avr_usart.c **** /*-----------------------------------------------------------------------*/
 211:.\mmc_avr_usart.c **** /* Send a data packet to MMC                                             */
 212:.\mmc_avr_usart.c **** /*-----------------------------------------------------------------------*/
 213:.\mmc_avr_usart.c **** 
 214:.\mmc_avr_usart.c **** #if	_USE_WRITE
 215:.\mmc_avr_usart.c **** static
 216:.\mmc_avr_usart.c **** int xmit_datablock (
 217:.\mmc_avr_usart.c **** 	const BYTE *buff,	/* 512 byte data block to be transmitted */
 218:.\mmc_avr_usart.c **** 	BYTE token			/* Data/Stop token */
 219:.\mmc_avr_usart.c **** )
 220:.\mmc_avr_usart.c **** {
 221:.\mmc_avr_usart.c **** 	BYTE resp;
 222:.\mmc_avr_usart.c **** 
 223:.\mmc_avr_usart.c **** 
 224:.\mmc_avr_usart.c **** 	if (!wait_ready(500)) return 0;
 225:.\mmc_avr_usart.c **** 
 226:.\mmc_avr_usart.c **** 	xchg_spi(token);					/* Xmit data token */
 227:.\mmc_avr_usart.c **** 	if (token != 0xFD) {	/* Is data token */
 228:.\mmc_avr_usart.c **** 		xmit_spi_multi(buff, 512);		/* Xmit the data block to the MMC */
 229:.\mmc_avr_usart.c **** 		xchg_spi(0xFF);					/* CRC (Dummy) */
 230:.\mmc_avr_usart.c **** 		xchg_spi(0xFF);
 231:.\mmc_avr_usart.c **** 		resp = xchg_spi(0xFF);			/* Reveive data response */
 232:.\mmc_avr_usart.c **** 		if ((resp & 0x1F) != 0x05)		/* If not accepted, return with error */
 233:.\mmc_avr_usart.c **** 			return 0;
 234:.\mmc_avr_usart.c **** 	}
 235:.\mmc_avr_usart.c **** 
 236:.\mmc_avr_usart.c **** 	return 1;
 237:.\mmc_avr_usart.c **** }
 238:.\mmc_avr_usart.c **** #endif
 239:.\mmc_avr_usart.c **** 
 240:.\mmc_avr_usart.c **** 
 241:.\mmc_avr_usart.c **** 
 242:.\mmc_avr_usart.c **** /*-----------------------------------------------------------------------*/
ARM GAS  C:\Users\Petro\AppData\Local\Temp\cc2LUvQB.s 			page 8


 243:.\mmc_avr_usart.c **** /* Send a command packet to MMC                                          */
 244:.\mmc_avr_usart.c **** /*-----------------------------------------------------------------------*/
 245:.\mmc_avr_usart.c **** 
 246:.\mmc_avr_usart.c **** static
 247:.\mmc_avr_usart.c **** BYTE send_cmd (		/* Returns R1 resp (bit7==1:Send failed) */
 248:.\mmc_avr_usart.c **** 	BYTE cmd,		/* Command index */
 249:.\mmc_avr_usart.c **** 	DWORD arg		/* Argument */
 250:.\mmc_avr_usart.c **** )
 251:.\mmc_avr_usart.c **** {
 157              		.loc 1 251 0
 158              		.cfi_startproc
 159              	.LVL14:
 160 0000 38B5     		push	{r3, r4, r5, lr}
 161              		.cfi_def_cfa_offset 16
 162              		.cfi_offset 3, -16
 163              		.cfi_offset 4, -12
 164              		.cfi_offset 5, -8
 165              		.cfi_offset 14, -4
 166 0002 041C     		mov	r4, r0
 167 0004 0D1C     		mov	r5, r1
 252:.\mmc_avr_usart.c **** 	BYTE n, res;
 253:.\mmc_avr_usart.c **** 
 254:.\mmc_avr_usart.c **** 
 255:.\mmc_avr_usart.c **** 	if (cmd & 0x80) {	/* ACMD<n> is the command sequense of CMD55-CMD<n> */
 168              		.loc 1 255 0
 169 0006 43B2     		sxtb	r3, r0
 170 0008 002B     		cmp	r3, #0
 171 000a 07DA     		bge	.L8
 256:.\mmc_avr_usart.c **** 		cmd &= 0x7F;
 172              		.loc 1 256 0
 173 000c 7F23     		mov	r3, #127
 174 000e 1C40     		and	r4, r3
 175              	.LVL15:
 257:.\mmc_avr_usart.c **** 		res = send_cmd(CMD55, 0);
 176              		.loc 1 257 0
 177 0010 3720     		mov	r0, #55
 178 0012 0021     		mov	r1, #0
 179              	.LVL16:
 180 0014 FFF7F4FF 		bl	send_cmd
 181              	.LVL17:
 258:.\mmc_avr_usart.c **** 		if (res > 1) return res;
 182              		.loc 1 258 0
 183 0018 0128     		cmp	r0, #1
 184 001a 36D8     		bhi	.L9
 185              	.LVL18:
 186              	.L8:
 259:.\mmc_avr_usart.c **** 	}
 260:.\mmc_avr_usart.c **** 
 261:.\mmc_avr_usart.c **** 	/* Select the card and wait for ready except to stop multiple block read */
 262:.\mmc_avr_usart.c **** 	if (cmd != CMD12) {
 187              		.loc 1 262 0
 188 001c 0C2C     		cmp	r4, #12
 189 001e 05D0     		beq	.L10
 263:.\mmc_avr_usart.c **** 		deselect();
 190              		.loc 1 263 0
 191 0020 FFF7FEFF 		bl	deselect
 192              	.LVL19:
ARM GAS  C:\Users\Petro\AppData\Local\Temp\cc2LUvQB.s 			page 9


 264:.\mmc_avr_usart.c **** 		if (!select()) return 0xFF;
 193              		.loc 1 264 0
 194 0024 FFF7FEFF 		bl	select
 195              	.LVL20:
 196 0028 0028     		cmp	r0, #0
 197 002a 2DD0     		beq	.L17
 198              	.L10:
 265:.\mmc_avr_usart.c **** 	}
 266:.\mmc_avr_usart.c **** 
 267:.\mmc_avr_usart.c **** 	/* Send command packet */
 268:.\mmc_avr_usart.c **** 	xchg_spi(0x40 | cmd);				/* Start + Command index */
 199              		.loc 1 268 0
 200 002c 4020     		mov	r0, #64
 201 002e 2043     		orr	r0, r4
 202 0030 FFF7FEFF 		bl	xchg_spi
 203              	.LVL21:
 269:.\mmc_avr_usart.c **** 	xchg_spi((BYTE)(arg >> 24));		/* Argument[31..24] */
 204              		.loc 1 269 0
 205 0034 280E     		lsr	r0, r5, #24
 206 0036 FFF7FEFF 		bl	xchg_spi
 207              	.LVL22:
 270:.\mmc_avr_usart.c **** 	xchg_spi((BYTE)(arg >> 16));		/* Argument[23..16] */
 208              		.loc 1 270 0
 209 003a 280C     		lsr	r0, r5, #16
 210 003c C0B2     		uxtb	r0, r0
 211 003e FFF7FEFF 		bl	xchg_spi
 212              	.LVL23:
 271:.\mmc_avr_usart.c **** 	xchg_spi((BYTE)(arg >> 8));			/* Argument[15..8] */
 213              		.loc 1 271 0
 214 0042 280A     		lsr	r0, r5, #8
 215 0044 C0B2     		uxtb	r0, r0
 216 0046 FFF7FEFF 		bl	xchg_spi
 217              	.LVL24:
 272:.\mmc_avr_usart.c **** 	xchg_spi((BYTE)arg);				/* Argument[7..0] */
 218              		.loc 1 272 0
 219 004a E8B2     		uxtb	r0, r5
 220 004c FFF7FEFF 		bl	xchg_spi
 221              	.LVL25:
 273:.\mmc_avr_usart.c **** 	n = 0x01;							/* Dummy CRC + Stop */
 274:.\mmc_avr_usart.c **** 	if (cmd == CMD0) n = 0x95;			/* Valid CRC for CMD0(0) + Stop */
 222              		.loc 1 274 0
 223 0050 002C     		cmp	r4, #0
 224 0052 01D0     		beq	.L18
 273:.\mmc_avr_usart.c **** 	n = 0x01;							/* Dummy CRC + Stop */
 225              		.loc 1 273 0
 226 0054 0120     		mov	r0, #1
 227 0056 00E0     		b	.L11
 228              	.L18:
 229              		.loc 1 274 0
 230 0058 9520     		mov	r0, #149
 231              	.L11:
 232              	.LVL26:
 275:.\mmc_avr_usart.c **** 	if (cmd == CMD8) n = 0x87;			/* Valid CRC for CMD8(0x1AA) Stop */
 233              		.loc 1 275 0
 234 005a 082C     		cmp	r4, #8
 235 005c 00D1     		bne	.L12
 236 005e 8720     		mov	r0, #135
ARM GAS  C:\Users\Petro\AppData\Local\Temp\cc2LUvQB.s 			page 10


 237              	.LVL27:
 238              	.L12:
 276:.\mmc_avr_usart.c **** 	xchg_spi(n);
 239              		.loc 1 276 0
 240 0060 FFF7FEFF 		bl	xchg_spi
 241              	.LVL28:
 277:.\mmc_avr_usart.c **** 
 278:.\mmc_avr_usart.c **** 	/* Receive command response */
 279:.\mmc_avr_usart.c **** 	if (cmd == CMD12) xchg_spi(0xFF);		/* Skip a stuff byte when stop reading */
 242              		.loc 1 279 0
 243 0064 0C2C     		cmp	r4, #12
 244 0066 02D1     		bne	.L13
 245              		.loc 1 279 0 is_stmt 0 discriminator 1
 246 0068 FF20     		mov	r0, #255
 247 006a FFF7FEFF 		bl	xchg_spi
 248              	.LVL29:
 249              	.L13:
 275:.\mmc_avr_usart.c **** 	xchg_spi(n);
 250              		.loc 1 275 0 is_stmt 1 discriminator 2
 251 006e 0A24     		mov	r4, #10
 252              	.LVL30:
 253              	.L15:
 280:.\mmc_avr_usart.c **** 	n = 10;								/* Wait for a valid response in timeout of 10 attempts */
 281:.\mmc_avr_usart.c **** 	do
 282:.\mmc_avr_usart.c **** 		res = xchg_spi(0xFF);
 254              		.loc 1 282 0 discriminator 2
 255 0070 FF20     		mov	r0, #255
 256 0072 FFF7FEFF 		bl	xchg_spi
 257              	.LVL31:
 258 0076 031C     		mov	r3, r0
 259              	.LVL32:
 283:.\mmc_avr_usart.c **** 	while ((res & 0x80) && --n);
 260              		.loc 1 283 0 discriminator 2
 261 0078 0206     		lsl	r2, r0, #24
 262 007a 03D5     		bpl	.L14
 263              		.loc 1 283 0 is_stmt 0 discriminator 1
 264 007c 013C     		sub	r4, r4, #1
 265              	.LVL33:
 266 007e E4B2     		uxtb	r4, r4
 267              	.LVL34:
 268 0080 002C     		cmp	r4, #0
 269 0082 F5D1     		bne	.L15
 270              	.L14:
 284:.\mmc_avr_usart.c **** 
 285:.\mmc_avr_usart.c **** 	return res;			/* Return with the response value */
 271              		.loc 1 285 0 is_stmt 1
 272 0084 181C     		mov	r0, r3
 273              	.LVL35:
 274 0086 00E0     		b	.L9
 275              	.LVL36:
 276              	.L17:
 264:.\mmc_avr_usart.c **** 	}
 277              		.loc 1 264 0
 278 0088 FF20     		mov	r0, #255
 279              	.LVL37:
 280              	.L9:
 286:.\mmc_avr_usart.c **** }
ARM GAS  C:\Users\Petro\AppData\Local\Temp\cc2LUvQB.s 			page 11


 281              		.loc 1 286 0
 282              		@ sp needed
 283              	.LVL38:
 284 008a 38BD     		pop	{r3, r4, r5, pc}
 285              		.cfi_endproc
 286              	.LFE12:
 287              		.size	send_cmd, .-send_cmd
 288              		.section	.text.rcvr_spi_multi,"ax",%progbits
 289              		.align	2
 290              		.code	16
 291              		.thumb_func
 292              		.type	rcvr_spi_multi, %function
 293              	rcvr_spi_multi:
 294              	.LFB5:
 114:.\mmc_avr_usart.c **** 	SPI_RecvBuff(p, cnt);
 295              		.loc 1 114 0
 296              		.cfi_startproc
 297              	.LVL39:
 298 0000 08B5     		push	{r3, lr}
 299              		.cfi_def_cfa_offset 8
 300              		.cfi_offset 3, -8
 301              		.cfi_offset 14, -4
 115:.\mmc_avr_usart.c **** }
 302              		.loc 1 115 0
 303 0002 C9B2     		uxtb	r1, r1
 304              	.LVL40:
 305 0004 FFF7FEFF 		bl	SPI_RecvBuff
 306              	.LVL41:
 116:.\mmc_avr_usart.c **** 
 307              		.loc 1 116 0
 308              		@ sp needed
 309 0008 08BD     		pop	{r3, pc}
 310              		.cfi_endproc
 311              	.LFE5:
 312              		.size	rcvr_spi_multi, .-rcvr_spi_multi
 313              		.section	.text.rcvr_datablock,"ax",%progbits
 314              		.align	2
 315              		.code	16
 316              		.thumb_func
 317              		.type	rcvr_datablock, %function
 318              	rcvr_datablock:
 319              	.LFB10:
 191:.\mmc_avr_usart.c **** 	BYTE token;
 320              		.loc 1 191 0
 321              		.cfi_startproc
 322              	.LVL42:
 323 0000 38B5     		push	{r3, r4, r5, lr}
 324              		.cfi_def_cfa_offset 16
 325              		.cfi_offset 3, -16
 326              		.cfi_offset 4, -12
 327              		.cfi_offset 5, -8
 328              		.cfi_offset 14, -4
 329 0002 051C     		mov	r5, r0
 330 0004 0C1C     		mov	r4, r1
 195:.\mmc_avr_usart.c **** 	do {							/* Wait for data packet in timeout of 200ms */
 331              		.loc 1 195 0
 332 0006 1422     		mov	r2, #20
ARM GAS  C:\Users\Petro\AppData\Local\Temp\cc2LUvQB.s 			page 12


 333 0008 0D4B     		ldr	r3, .L26
 334 000a 1A70     		strb	r2, [r3]
 335              	.LVL43:
 336              	.L23:
 197:.\mmc_avr_usart.c **** 	} while ((token == 0xFF) && Timer1);
 337              		.loc 1 197 0 discriminator 2
 338 000c FF20     		mov	r0, #255
 339 000e FFF7FEFF 		bl	xchg_spi
 340              	.LVL44:
 198:.\mmc_avr_usart.c **** 	if (token != 0xFE) return 0;	/* If not valid data token, retutn with error */
 341              		.loc 1 198 0 discriminator 2
 342 0012 FF28     		cmp	r0, #255
 343 0014 03D1     		bne	.L22
 198:.\mmc_avr_usart.c **** 	if (token != 0xFE) return 0;	/* If not valid data token, retutn with error */
 344              		.loc 1 198 0 is_stmt 0 discriminator 1
 345 0016 0A4B     		ldr	r3, .L26
 346 0018 1B78     		ldrb	r3, [r3]
 347 001a 002B     		cmp	r3, #0
 348 001c F6D1     		bne	.L23
 349              	.L22:
 199:.\mmc_avr_usart.c **** 
 350              		.loc 1 199 0 is_stmt 1
 351 001e FE28     		cmp	r0, #254
 352 0020 0BD1     		bne	.L25
 201:.\mmc_avr_usart.c **** 	xchg_spi(0xFF);					/* Discard CRC */
 353              		.loc 1 201 0
 354 0022 281C     		mov	r0, r5
 355              	.LVL45:
 356 0024 211C     		mov	r1, r4
 357 0026 FFF7FEFF 		bl	rcvr_spi_multi
 358              	.LVL46:
 202:.\mmc_avr_usart.c **** 	xchg_spi(0xFF);
 359              		.loc 1 202 0
 360 002a FF20     		mov	r0, #255
 361 002c FFF7FEFF 		bl	xchg_spi
 362              	.LVL47:
 203:.\mmc_avr_usart.c **** 
 363              		.loc 1 203 0
 364 0030 FF20     		mov	r0, #255
 365 0032 FFF7FEFF 		bl	xchg_spi
 366              	.LVL48:
 205:.\mmc_avr_usart.c **** }
 367              		.loc 1 205 0
 368 0036 0120     		mov	r0, #1
 369 0038 00E0     		b	.L24
 370              	.LVL49:
 371              	.L25:
 199:.\mmc_avr_usart.c **** 
 372              		.loc 1 199 0
 373 003a 0020     		mov	r0, #0
 374              	.LVL50:
 375              	.L24:
 206:.\mmc_avr_usart.c **** 
 376              		.loc 1 206 0
 377              		@ sp needed
 378              	.LVL51:
 379              	.LVL52:
ARM GAS  C:\Users\Petro\AppData\Local\Temp\cc2LUvQB.s 			page 13


 380 003c 38BD     		pop	{r3, r4, r5, pc}
 381              	.L27:
 382 003e C046     		.align	2
 383              	.L26:
 384 0040 00000000 		.word	.LANCHOR0
 385              		.cfi_endproc
 386              	.LFE10:
 387              		.size	rcvr_datablock, .-rcvr_datablock
 388              		.section	.text.xmit_spi_multi,"ax",%progbits
 389              		.align	2
 390              		.code	16
 391              		.thumb_func
 392              		.type	xmit_spi_multi, %function
 393              	xmit_spi_multi:
 394              	.LFB6:
 125:.\mmc_avr_usart.c **** 	SPI_SendBuff((uint8_t *) p, cnt);
 395              		.loc 1 125 0
 396              		.cfi_startproc
 397              	.LVL53:
 398 0000 08B5     		push	{r3, lr}
 399              		.cfi_def_cfa_offset 8
 400              		.cfi_offset 3, -8
 401              		.cfi_offset 14, -4
 126:.\mmc_avr_usart.c **** }
 402              		.loc 1 126 0
 403 0002 C9B2     		uxtb	r1, r1
 404              	.LVL54:
 405 0004 FFF7FEFF 		bl	SPI_SendBuff
 406              	.LVL55:
 127:.\mmc_avr_usart.c **** 
 407              		.loc 1 127 0
 408              		@ sp needed
 409 0008 08BD     		pop	{r3, pc}
 410              		.cfi_endproc
 411              	.LFE6:
 412              		.size	xmit_spi_multi, .-xmit_spi_multi
 413              		.section	.text.xmit_datablock,"ax",%progbits
 414              		.align	2
 415              		.code	16
 416              		.thumb_func
 417              		.type	xmit_datablock, %function
 418              	xmit_datablock:
 419              	.LFB11:
 220:.\mmc_avr_usart.c **** 	BYTE resp;
 420              		.loc 1 220 0
 421              		.cfi_startproc
 422              	.LVL56:
 423 0000 38B5     		push	{r3, r4, r5, lr}
 424              		.cfi_def_cfa_offset 16
 425              		.cfi_offset 3, -16
 426              		.cfi_offset 4, -12
 427              		.cfi_offset 5, -8
 428              		.cfi_offset 14, -4
 429 0002 051C     		mov	r5, r0
 430 0004 0C1C     		mov	r4, r1
 224:.\mmc_avr_usart.c **** 
 431              		.loc 1 224 0
ARM GAS  C:\Users\Petro\AppData\Local\Temp\cc2LUvQB.s 			page 14


 432 0006 FA20     		mov	r0, #250
 433              	.LVL57:
 434 0008 4000     		lsl	r0, r0, #1
 435 000a FFF7FEFF 		bl	wait_ready
 436              	.LVL58:
 437 000e 0028     		cmp	r0, #0
 438 0010 1BD0     		beq	.L30
 226:.\mmc_avr_usart.c **** 	if (token != 0xFD) {	/* Is data token */
 439              		.loc 1 226 0
 440 0012 201C     		mov	r0, r4
 441 0014 FFF7FEFF 		bl	xchg_spi
 442              	.LVL59:
 227:.\mmc_avr_usart.c **** 		xmit_spi_multi(buff, 512);		/* Xmit the data block to the MMC */
 443              		.loc 1 227 0
 444 0018 FD2C     		cmp	r4, #253
 445 001a 13D0     		beq	.L31
 228:.\mmc_avr_usart.c **** 		xchg_spi(0xFF);					/* CRC (Dummy) */
 446              		.loc 1 228 0
 447 001c 281C     		mov	r0, r5
 448 001e 8021     		mov	r1, #128
 449 0020 8900     		lsl	r1, r1, #2
 450 0022 FFF7FEFF 		bl	xmit_spi_multi
 451              	.LVL60:
 229:.\mmc_avr_usart.c **** 		xchg_spi(0xFF);
 452              		.loc 1 229 0
 453 0026 FF20     		mov	r0, #255
 454 0028 FFF7FEFF 		bl	xchg_spi
 455              	.LVL61:
 230:.\mmc_avr_usart.c **** 		resp = xchg_spi(0xFF);			/* Reveive data response */
 456              		.loc 1 230 0
 457 002c FF20     		mov	r0, #255
 458 002e FFF7FEFF 		bl	xchg_spi
 459              	.LVL62:
 231:.\mmc_avr_usart.c **** 		if ((resp & 0x1F) != 0x05)		/* If not accepted, return with error */
 460              		.loc 1 231 0
 461 0032 FF20     		mov	r0, #255
 462 0034 FFF7FEFF 		bl	xchg_spi
 463              	.LVL63:
 232:.\mmc_avr_usart.c **** 			return 0;
 464              		.loc 1 232 0
 465 0038 1F23     		mov	r3, #31
 466 003a 1840     		and	r0, r3
 467              	.LVL64:
 468 003c 0528     		cmp	r0, #5
 469 003e 03D0     		beq	.L32
 233:.\mmc_avr_usart.c **** 	}
 470              		.loc 1 233 0
 471 0040 0020     		mov	r0, #0
 472 0042 02E0     		b	.L30
 473              	.L31:
 236:.\mmc_avr_usart.c **** }
 474              		.loc 1 236 0
 475 0044 0120     		mov	r0, #1
 476 0046 00E0     		b	.L30
 477              	.L32:
 478 0048 0120     		mov	r0, #1
 479              	.L30:
ARM GAS  C:\Users\Petro\AppData\Local\Temp\cc2LUvQB.s 			page 15


 237:.\mmc_avr_usart.c **** #endif
 480              		.loc 1 237 0
 481              		@ sp needed
 482              	.LVL65:
 483 004a 38BD     		pop	{r3, r4, r5, pc}
 484              		.cfi_endproc
 485              	.LFE11:
 486              		.size	xmit_datablock, .-xmit_datablock
 487              		.section	.text.mmc_disk_initialize,"ax",%progbits
 488              		.align	2
 489              		.global	mmc_disk_initialize
 490              		.code	16
 491              		.thumb_func
 492              		.type	mmc_disk_initialize, %function
 493              	mmc_disk_initialize:
 494              	.LFB13:
 287:.\mmc_avr_usart.c **** 
 288:.\mmc_avr_usart.c **** 
 289:.\mmc_avr_usart.c **** 
 290:.\mmc_avr_usart.c **** /*--------------------------------------------------------------------------
 291:.\mmc_avr_usart.c **** 
 292:.\mmc_avr_usart.c ****    Public Functions
 293:.\mmc_avr_usart.c **** 
 294:.\mmc_avr_usart.c **** ---------------------------------------------------------------------------*/
 295:.\mmc_avr_usart.c **** 
 296:.\mmc_avr_usart.c **** 
 297:.\mmc_avr_usart.c **** /*-----------------------------------------------------------------------*/
 298:.\mmc_avr_usart.c **** /* Initialize Disk Drive                                                 */
 299:.\mmc_avr_usart.c **** /*-----------------------------------------------------------------------*/
 300:.\mmc_avr_usart.c **** 
 301:.\mmc_avr_usart.c **** DSTATUS mmc_disk_initialize (void)
 302:.\mmc_avr_usart.c **** {
 495              		.loc 1 302 0
 496              		.cfi_startproc
 497 0000 30B5     		push	{r4, r5, lr}
 498              		.cfi_def_cfa_offset 12
 499              		.cfi_offset 4, -12
 500              		.cfi_offset 5, -8
 501              		.cfi_offset 14, -4
 502 0002 83B0     		sub	sp, sp, #12
 503              		.cfi_def_cfa_offset 24
 303:.\mmc_avr_usart.c **** 	BYTE n, cmd, ty, ocr[4];
 304:.\mmc_avr_usart.c **** 
 305:.\mmc_avr_usart.c **** 
 306:.\mmc_avr_usart.c **** 	power_off();						/* Turn off the socket power to reset the card */
 307:.\mmc_avr_usart.c **** 	CyDelay(100);               		/* Wait for 100ms */
 504              		.loc 1 307 0
 505 0004 6420     		mov	r0, #100
 506 0006 FFF7FEFF 		bl	CyDelay
 507              	.LVL66:
 308:.\mmc_avr_usart.c **** 	if (Stat & STA_NODISK) return Stat;	/* No card in the socket? */
 508              		.loc 1 308 0
 509 000a 4C4B     		ldr	r3, .L61
 510 000c 1B78     		ldrb	r3, [r3]
 511 000e 9B07     		lsl	r3, r3, #30
 512 0010 09D5     		bpl	.L50
 513              		.loc 1 308 0 is_stmt 0 discriminator 1
ARM GAS  C:\Users\Petro\AppData\Local\Temp\cc2LUvQB.s 			page 16


 514 0012 4A4B     		ldr	r3, .L61
 515 0014 1878     		ldrb	r0, [r3]
 516 0016 C0B2     		uxtb	r0, r0
 517 0018 8EE0     		b	.L35
 518              	.LVL67:
 519              	.L36:
 309:.\mmc_avr_usart.c **** 
 310:.\mmc_avr_usart.c **** 	power_on();							/* Turn on the socket power */
 311:.\mmc_avr_usart.c **** 	//FCLK_SLOW();
 312:.\mmc_avr_usart.c **** 	for (n = 10; n; n--) xchg_spi(0xFF);	/* 80 dummy clocks */
 520              		.loc 1 312 0 is_stmt 1 discriminator 3
 521 001a FF20     		mov	r0, #255
 522 001c FFF7FEFF 		bl	xchg_spi
 523              	.LVL68:
 524 0020 013C     		sub	r4, r4, #1
 525              	.LVL69:
 526 0022 E4B2     		uxtb	r4, r4
 527              	.LVL70:
 528 0024 00E0     		b	.L34
 529              	.LVL71:
 530              	.L50:
 531 0026 0A24     		mov	r4, #10
 532              	.L34:
 533              	.LVL72:
 534              		.loc 1 312 0 is_stmt 0 discriminator 1
 535 0028 002C     		cmp	r4, #0
 536 002a F6D1     		bne	.L36
 537              	.LVL73:
 313:.\mmc_avr_usart.c **** 
 314:.\mmc_avr_usart.c **** 	ty = 0;
 315:.\mmc_avr_usart.c **** 	if (send_cmd(CMD0, 0) == 1) {			/* Put the card SPI mode */
 538              		.loc 1 315 0 is_stmt 1
 539 002c 0020     		mov	r0, #0
 540 002e 0021     		mov	r1, #0
 541 0030 FFF7FEFF 		bl	send_cmd
 542              	.LVL74:
 543 0034 0128     		cmp	r0, #1
 544 0036 66D1     		bne	.L51
 316:.\mmc_avr_usart.c **** 		Timer1 = 100;						/* Initialization timeout of 1000 msec */
 545              		.loc 1 316 0
 546 0038 6422     		mov	r2, #100
 547 003a 414B     		ldr	r3, .L61+4
 548 003c 1A70     		strb	r2, [r3]
 317:.\mmc_avr_usart.c **** 		if (send_cmd(CMD8, 0x1AA) == 1) {	/* Is the card SDv2? */
 549              		.loc 1 317 0
 550 003e 0730     		add	r0, r0, #7
 551 0040 D521     		mov	r1, #213
 552 0042 4900     		lsl	r1, r1, #1
 553 0044 FFF7FEFF 		bl	send_cmd
 554              	.LVL75:
 555 0048 0128     		cmp	r0, #1
 556 004a 3BD1     		bne	.L60
 557 004c 07E0     		b	.L52
 558              	.LVL76:
 559              	.L40:
 318:.\mmc_avr_usart.c **** 			for (n = 0; n < 4; n++) ocr[n] = xchg_spi(0xFF);	/* Get trailing return value of R7 resp */
 560              		.loc 1 318 0 discriminator 3
ARM GAS  C:\Users\Petro\AppData\Local\Temp\cc2LUvQB.s 			page 17


 561 004e FF20     		mov	r0, #255
 562 0050 FFF7FEFF 		bl	xchg_spi
 563              	.LVL77:
 564 0054 01AB     		add	r3, sp, #4
 565 0056 5855     		strb	r0, [r3, r5]
 566 0058 0135     		add	r5, r5, #1
 567              	.LVL78:
 568 005a EDB2     		uxtb	r5, r5
 569              	.LVL79:
 570 005c 00E0     		b	.L38
 571              	.LVL80:
 572              	.L52:
 573 005e 251C     		mov	r5, r4
 574              	.LVL81:
 575              	.L38:
 576              		.loc 1 318 0 is_stmt 0 discriminator 1
 577 0060 032D     		cmp	r5, #3
 578 0062 F4D9     		bls	.L40
 319:.\mmc_avr_usart.c **** 			if (ocr[2] == 0x01 && ocr[3] == 0xAA) {				/* The card can work at vdd range of 2.7-3.6V */
 579              		.loc 1 319 0 is_stmt 1
 580 0064 01AB     		add	r3, sp, #4
 581 0066 9B78     		ldrb	r3, [r3, #2]
 582 0068 012B     		cmp	r3, #1
 583 006a 4ED1     		bne	.L53
 584              		.loc 1 319 0 is_stmt 0 discriminator 1
 585 006c 01AB     		add	r3, sp, #4
 586 006e DB78     		ldrb	r3, [r3, #3]
 587 0070 AA2B     		cmp	r3, #170
 588 0072 4CD1     		bne	.L54
 589              	.L42:
 320:.\mmc_avr_usart.c **** 				while (Timer1 && send_cmd(ACMD41, 1UL << 30));	/* Wait for leaving idle state (ACMD41 with HCS 
 590              		.loc 1 320 0 is_stmt 1 discriminator 2
 591 0074 324B     		ldr	r3, .L61+4
 592 0076 1B78     		ldrb	r3, [r3]
 593 0078 002B     		cmp	r3, #0
 594 007a 06D0     		beq	.L41
 595              		.loc 1 320 0 is_stmt 0 discriminator 1
 596 007c A920     		mov	r0, #169
 597 007e 8021     		mov	r1, #128
 598 0080 C905     		lsl	r1, r1, #23
 599 0082 FFF7FEFF 		bl	send_cmd
 600              	.LVL82:
 601 0086 0028     		cmp	r0, #0
 602 0088 F4D1     		bne	.L42
 603              	.L41:
 321:.\mmc_avr_usart.c **** 				if (Timer1 && send_cmd(CMD58, 0) == 0) {		/* Check CCS bit in the OCR */
 604              		.loc 1 321 0 is_stmt 1
 605 008a 2D4B     		ldr	r3, .L61+4
 606 008c 1B78     		ldrb	r3, [r3]
 607 008e 002B     		cmp	r3, #0
 608 0090 3FD0     		beq	.L55
 609              		.loc 1 321 0 is_stmt 0 discriminator 1
 610 0092 3A20     		mov	r0, #58
 611 0094 0021     		mov	r1, #0
 612 0096 FFF7FEFF 		bl	send_cmd
 613              	.LVL83:
 614 009a 0028     		cmp	r0, #0
ARM GAS  C:\Users\Petro\AppData\Local\Temp\cc2LUvQB.s 			page 18


 615 009c 08D0     		beq	.L43
 314:.\mmc_avr_usart.c **** 	if (send_cmd(CMD0, 0) == 1) {			/* Put the card SPI mode */
 616              		.loc 1 314 0 is_stmt 1
 617 009e 0024     		mov	r4, #0
 618 00a0 3CE0     		b	.L37
 619              	.LVL84:
 620              	.L44:
 322:.\mmc_avr_usart.c **** 					for (n = 0; n < 4; n++) ocr[n] = xchg_spi(0xFF);
 621              		.loc 1 322 0 discriminator 3
 622 00a2 FF20     		mov	r0, #255
 623 00a4 FFF7FEFF 		bl	xchg_spi
 624              	.LVL85:
 625 00a8 01AB     		add	r3, sp, #4
 626 00aa 1855     		strb	r0, [r3, r4]
 627 00ac 0134     		add	r4, r4, #1
 628              	.LVL86:
 629 00ae E4B2     		uxtb	r4, r4
 630              	.LVL87:
 631              	.L43:
 632              		.loc 1 322 0 is_stmt 0 discriminator 1
 633 00b0 032C     		cmp	r4, #3
 634 00b2 F6D9     		bls	.L44
 323:.\mmc_avr_usart.c **** 					ty = (ocr[0] & 0x40) ? CT_SD2 | CT_BLOCK : CT_SD2;	/* Check if the card is SDv2 */
 635              		.loc 1 323 0 is_stmt 1
 636 00b4 01AB     		add	r3, sp, #4
 637 00b6 1B78     		ldrb	r3, [r3]
 638 00b8 5B06     		lsl	r3, r3, #25
 639 00ba 01D5     		bpl	.L56
 640 00bc 0C24     		mov	r4, #12
 641              	.LVL88:
 642 00be 2DE0     		b	.L37
 643              	.LVL89:
 644              	.L56:
 645 00c0 0424     		mov	r4, #4
 646              	.LVL90:
 647 00c2 2BE0     		b	.L37
 648              	.LVL91:
 649              	.L60:
 324:.\mmc_avr_usart.c **** 				}
 325:.\mmc_avr_usart.c **** 			}
 326:.\mmc_avr_usart.c **** 		} else {							/* SDv1 or MMCv3 */
 327:.\mmc_avr_usart.c **** 			if (send_cmd(ACMD41, 0) <= 1) 	{
 650              		.loc 1 327 0
 651 00c4 A920     		mov	r0, #169
 652 00c6 0021     		mov	r1, #0
 653 00c8 FFF7FEFF 		bl	send_cmd
 654              	.LVL92:
 655 00cc 0128     		cmp	r0, #1
 656 00ce 02D8     		bhi	.L57
 328:.\mmc_avr_usart.c **** 				ty = CT_SD1; cmd = ACMD41;	/* SDv1 */
 657              		.loc 1 328 0
 658 00d0 0224     		mov	r4, #2
 659              	.LVL93:
 660 00d2 A925     		mov	r5, #169
 661 00d4 01E0     		b	.L48
 662              	.LVL94:
 663              	.L57:
ARM GAS  C:\Users\Petro\AppData\Local\Temp\cc2LUvQB.s 			page 19


 329:.\mmc_avr_usart.c **** 			} else {
 330:.\mmc_avr_usart.c **** 				ty = CT_MMC; cmd = CMD1;	/* MMCv3 */
 664              		.loc 1 330 0
 665 00d6 0124     		mov	r4, #1
 666              	.LVL95:
 667 00d8 0125     		mov	r5, #1
 668              	.LVL96:
 669              	.L48:
 331:.\mmc_avr_usart.c **** 			}
 332:.\mmc_avr_usart.c **** 			while (Timer1 && send_cmd(cmd, 0));			/* Wait for leaving idle state */
 670              		.loc 1 332 0 discriminator 2
 671 00da 194B     		ldr	r3, .L61+4
 672 00dc 1B78     		ldrb	r3, [r3]
 673 00de 002B     		cmp	r3, #0
 674 00e0 05D0     		beq	.L47
 675              		.loc 1 332 0 is_stmt 0 discriminator 1
 676 00e2 281C     		mov	r0, r5
 677 00e4 0021     		mov	r1, #0
 678 00e6 FFF7FEFF 		bl	send_cmd
 679              	.LVL97:
 680 00ea 0028     		cmp	r0, #0
 681 00ec F5D1     		bne	.L48
 682              	.L47:
 333:.\mmc_avr_usart.c **** 			if (!Timer1 || send_cmd(CMD16, 512) != 0)	/* Set R/W block length to 512 */
 683              		.loc 1 333 0 is_stmt 1
 684 00ee 144B     		ldr	r3, .L61+4
 685 00f0 1B78     		ldrb	r3, [r3]
 686 00f2 002B     		cmp	r3, #0
 687 00f4 0FD0     		beq	.L58
 688              		.loc 1 333 0 is_stmt 0 discriminator 1
 689 00f6 1020     		mov	r0, #16
 690 00f8 8021     		mov	r1, #128
 691 00fa 8900     		lsl	r1, r1, #2
 692 00fc FFF7FEFF 		bl	send_cmd
 693              	.LVL98:
 694 0100 0028     		cmp	r0, #0
 695 0102 0AD1     		bne	.L59
 696 0104 0AE0     		b	.L37
 697              	.LVL99:
 698              	.L51:
 314:.\mmc_avr_usart.c **** 	if (send_cmd(CMD0, 0) == 1) {			/* Put the card SPI mode */
 699              		.loc 1 314 0 is_stmt 1
 700 0106 0024     		mov	r4, #0
 701              	.LVL100:
 702 0108 08E0     		b	.L37
 703              	.LVL101:
 704              	.L53:
 705 010a 0024     		mov	r4, #0
 706 010c 06E0     		b	.L37
 707              	.L54:
 708 010e 0024     		mov	r4, #0
 709 0110 04E0     		b	.L37
 710              	.L55:
 711 0112 0024     		mov	r4, #0
 712 0114 02E0     		b	.L37
 713              	.LVL102:
 714              	.L58:
ARM GAS  C:\Users\Petro\AppData\Local\Temp\cc2LUvQB.s 			page 20


 334:.\mmc_avr_usart.c **** 				ty = 0;
 715              		.loc 1 334 0
 716 0116 0024     		mov	r4, #0
 717              	.LVL103:
 718 0118 00E0     		b	.L37
 719              	.LVL104:
 720              	.L59:
 721 011a 0024     		mov	r4, #0
 722              	.LVL105:
 723              	.L37:
 335:.\mmc_avr_usart.c **** 		}
 336:.\mmc_avr_usart.c **** 	}
 337:.\mmc_avr_usart.c **** 	CardType = ty;
 724              		.loc 1 337 0
 725 011c 084B     		ldr	r3, .L61+4
 726 011e 5C70     		strb	r4, [r3, #1]
 338:.\mmc_avr_usart.c **** 	deselect();
 727              		.loc 1 338 0
 728 0120 FFF7FEFF 		bl	deselect
 729              	.LVL106:
 339:.\mmc_avr_usart.c **** 
 340:.\mmc_avr_usart.c **** 	if (ty) {			/* Initialization succeded */
 730              		.loc 1 340 0
 731 0124 002C     		cmp	r4, #0
 732 0126 04D0     		beq	.L49
 341:.\mmc_avr_usart.c **** 		Stat &= ~STA_NOINIT;		/* Clear STA_NOINIT */
 733              		.loc 1 341 0
 734 0128 044A     		ldr	r2, .L61
 735 012a 1378     		ldrb	r3, [r2]
 736 012c 0121     		mov	r1, #1
 737 012e 8B43     		bic	r3, r1
 738 0130 1370     		strb	r3, [r2]
 739              	.L49:
 342:.\mmc_avr_usart.c **** 		//FCLK_FAST();
 343:.\mmc_avr_usart.c **** 	} else {			/* Initialization failed */
 344:.\mmc_avr_usart.c **** 		power_off();
 345:.\mmc_avr_usart.c **** 	}
 346:.\mmc_avr_usart.c **** 
 347:.\mmc_avr_usart.c **** 	return Stat;
 740              		.loc 1 347 0
 741 0132 024B     		ldr	r3, .L61
 742 0134 1878     		ldrb	r0, [r3]
 743 0136 C0B2     		uxtb	r0, r0
 744              	.LVL107:
 745              	.L35:
 348:.\mmc_avr_usart.c **** }
 746              		.loc 1 348 0
 747 0138 03B0     		add	sp, sp, #12
 748              		@ sp needed
 749 013a 30BD     		pop	{r4, r5, pc}
 750              	.L62:
 751              		.align	2
 752              	.L61:
 753 013c 00000000 		.word	.LANCHOR1
 754 0140 00000000 		.word	.LANCHOR0
 755              		.cfi_endproc
 756              	.LFE13:
ARM GAS  C:\Users\Petro\AppData\Local\Temp\cc2LUvQB.s 			page 21


 757              		.size	mmc_disk_initialize, .-mmc_disk_initialize
 758              		.section	.text.mmc_disk_status,"ax",%progbits
 759              		.align	2
 760              		.global	mmc_disk_status
 761              		.code	16
 762              		.thumb_func
 763              		.type	mmc_disk_status, %function
 764              	mmc_disk_status:
 765              	.LFB14:
 349:.\mmc_avr_usart.c **** 
 350:.\mmc_avr_usart.c **** 
 351:.\mmc_avr_usart.c **** 
 352:.\mmc_avr_usart.c **** /*-----------------------------------------------------------------------*/
 353:.\mmc_avr_usart.c **** /* Get Disk Status                                                       */
 354:.\mmc_avr_usart.c **** /*-----------------------------------------------------------------------*/
 355:.\mmc_avr_usart.c **** 
 356:.\mmc_avr_usart.c **** DSTATUS mmc_disk_status (void)
 357:.\mmc_avr_usart.c **** {
 766              		.loc 1 357 0
 767              		.cfi_startproc
 358:.\mmc_avr_usart.c **** 	return Stat;
 768              		.loc 1 358 0
 769 0000 014B     		ldr	r3, .L64
 770 0002 1878     		ldrb	r0, [r3]
 771 0004 C0B2     		uxtb	r0, r0
 359:.\mmc_avr_usart.c **** }
 772              		.loc 1 359 0
 773              		@ sp needed
 774 0006 7047     		bx	lr
 775              	.L65:
 776              		.align	2
 777              	.L64:
 778 0008 00000000 		.word	.LANCHOR1
 779              		.cfi_endproc
 780              	.LFE14:
 781              		.size	mmc_disk_status, .-mmc_disk_status
 782              		.section	.text.mmc_disk_read,"ax",%progbits
 783              		.align	2
 784              		.global	mmc_disk_read
 785              		.code	16
 786              		.thumb_func
 787              		.type	mmc_disk_read, %function
 788              	mmc_disk_read:
 789              	.LFB15:
 360:.\mmc_avr_usart.c **** 
 361:.\mmc_avr_usart.c **** 
 362:.\mmc_avr_usart.c **** 
 363:.\mmc_avr_usart.c **** /*-----------------------------------------------------------------------*/
 364:.\mmc_avr_usart.c **** /* Read Sector(s)                                                        */
 365:.\mmc_avr_usart.c **** /*-----------------------------------------------------------------------*/
 366:.\mmc_avr_usart.c **** 
 367:.\mmc_avr_usart.c **** DRESULT mmc_disk_read (
 368:.\mmc_avr_usart.c **** 	BYTE *buff,			/* Pointer to the data buffer to store read data */
 369:.\mmc_avr_usart.c **** 	DWORD sector,		/* Start sector number (LBA) */
 370:.\mmc_avr_usart.c **** 	UINT count			/* Sector count (1..128) */
 371:.\mmc_avr_usart.c **** )
 372:.\mmc_avr_usart.c **** {
ARM GAS  C:\Users\Petro\AppData\Local\Temp\cc2LUvQB.s 			page 22


 790              		.loc 1 372 0
 791              		.cfi_startproc
 792              	.LVL108:
 793 0000 70B5     		push	{r4, r5, r6, lr}
 794              		.cfi_def_cfa_offset 16
 795              		.cfi_offset 4, -16
 796              		.cfi_offset 5, -12
 797              		.cfi_offset 6, -8
 798              		.cfi_offset 14, -4
 799 0002 051C     		mov	r5, r0
 800 0004 141E     		sub	r4, r2, #0
 373:.\mmc_avr_usart.c **** 	BYTE cmd;
 374:.\mmc_avr_usart.c **** 
 375:.\mmc_avr_usart.c **** 
 376:.\mmc_avr_usart.c **** 	if (!count) return RES_PARERR;
 801              		.loc 1 376 0
 802 0006 2CD0     		beq	.L73
 377:.\mmc_avr_usart.c **** 	if (Stat & STA_NOINIT) return RES_NOTRDY;
 803              		.loc 1 377 0
 804 0008 184B     		ldr	r3, .L76
 805 000a 1B78     		ldrb	r3, [r3]
 806 000c DB07     		lsl	r3, r3, #31
 807 000e 2AD4     		bmi	.L74
 378:.\mmc_avr_usart.c **** 
 379:.\mmc_avr_usart.c **** 	if (!(CardType & CT_BLOCK)) sector *= 512;	/* Convert to byte address if needed */
 808              		.loc 1 379 0
 809 0010 174B     		ldr	r3, .L76+4
 810 0012 5B78     		ldrb	r3, [r3, #1]
 811 0014 1B07     		lsl	r3, r3, #28
 812 0016 00D4     		bmi	.L68
 813              		.loc 1 379 0 is_stmt 0 discriminator 1
 814 0018 4902     		lsl	r1, r1, #9
 815              	.LVL109:
 816              	.L68:
 380:.\mmc_avr_usart.c **** 
 381:.\mmc_avr_usart.c **** 	cmd = count > 1 ? CMD18 : CMD17;			/*  READ_MULTIPLE_BLOCK : READ_SINGLE_BLOCK */
 817              		.loc 1 381 0 is_stmt 1
 818 001a 012C     		cmp	r4, #1
 819 001c 01D9     		bls	.L75
 820 001e 1226     		mov	r6, #18
 821 0020 00E0     		b	.L69
 822              	.L75:
 823 0022 1126     		mov	r6, #17
 824              	.L69:
 825              	.LVL110:
 382:.\mmc_avr_usart.c **** 	if (send_cmd(cmd, sector) == 0) {
 826              		.loc 1 382 0 discriminator 4
 827 0024 301C     		mov	r0, r6
 828              	.LVL111:
 829 0026 FFF7FEFF 		bl	send_cmd
 830              	.LVL112:
 831 002a 0028     		cmp	r0, #0
 832 002c 13D1     		bne	.L70
 833              	.L72:
 383:.\mmc_avr_usart.c **** 		do {
 384:.\mmc_avr_usart.c **** 			if (!rcvr_datablock(buff, 512)) break;
 834              		.loc 1 384 0
ARM GAS  C:\Users\Petro\AppData\Local\Temp\cc2LUvQB.s 			page 23


 835 002e 281C     		mov	r0, r5
 836 0030 8021     		mov	r1, #128
 837 0032 8900     		lsl	r1, r1, #2
 838 0034 FFF7FEFF 		bl	rcvr_datablock
 839              	.LVL113:
 840 0038 0028     		cmp	r0, #0
 841 003a 06D0     		beq	.L71
 385:.\mmc_avr_usart.c **** 			buff += 512;
 842              		.loc 1 385 0
 843 003c 8023     		mov	r3, #128
 844 003e 9B00     		lsl	r3, r3, #2
 845 0040 9C46     		mov	ip, r3
 846 0042 6544     		add	r5, r5, ip
 847              	.LVL114:
 386:.\mmc_avr_usart.c **** 		} while (--count);
 848              		.loc 1 386 0
 849 0044 013C     		sub	r4, r4, #1
 850              	.LVL115:
 851 0046 002C     		cmp	r4, #0
 852 0048 F1D1     		bne	.L72
 853              	.L71:
 387:.\mmc_avr_usart.c **** 		if (cmd == CMD18) send_cmd(CMD12, 0);	/* STOP_TRANSMISSION */
 854              		.loc 1 387 0
 855 004a 122E     		cmp	r6, #18
 856 004c 03D1     		bne	.L70
 857              		.loc 1 387 0 is_stmt 0 discriminator 1
 858 004e 0C20     		mov	r0, #12
 859 0050 0021     		mov	r1, #0
 860 0052 FFF7FEFF 		bl	send_cmd
 861              	.LVL116:
 862              	.L70:
 388:.\mmc_avr_usart.c **** 	}
 389:.\mmc_avr_usart.c **** 	deselect();
 863              		.loc 1 389 0 is_stmt 1
 864 0056 FFF7FEFF 		bl	deselect
 865              	.LVL117:
 390:.\mmc_avr_usart.c **** 
 391:.\mmc_avr_usart.c **** 	return count ? RES_ERROR : RES_OK;
 866              		.loc 1 391 0
 867 005a 601E     		sub	r0, r4, #1
 868 005c 8441     		sbc	r4, r4, r0
 869              	.LVL118:
 870 005e E0B2     		uxtb	r0, r4
 871 0060 02E0     		b	.L67
 872              	.LVL119:
 873              	.L73:
 376:.\mmc_avr_usart.c **** 	if (Stat & STA_NOINIT) return RES_NOTRDY;
 874              		.loc 1 376 0
 875 0062 0420     		mov	r0, #4
 876              	.LVL120:
 877 0064 00E0     		b	.L67
 878              	.LVL121:
 879              	.L74:
 377:.\mmc_avr_usart.c **** 
 880              		.loc 1 377 0
 881 0066 0320     		mov	r0, #3
 882              	.LVL122:
ARM GAS  C:\Users\Petro\AppData\Local\Temp\cc2LUvQB.s 			page 24


 883              	.L67:
 392:.\mmc_avr_usart.c **** }
 884              		.loc 1 392 0
 885              		@ sp needed
 886              	.LVL123:
 887 0068 70BD     		pop	{r4, r5, r6, pc}
 888              	.L77:
 889 006a C046     		.align	2
 890              	.L76:
 891 006c 00000000 		.word	.LANCHOR1
 892 0070 00000000 		.word	.LANCHOR0
 893              		.cfi_endproc
 894              	.LFE15:
 895              		.size	mmc_disk_read, .-mmc_disk_read
 896              		.section	.text.mmc_disk_write,"ax",%progbits
 897              		.align	2
 898              		.global	mmc_disk_write
 899              		.code	16
 900              		.thumb_func
 901              		.type	mmc_disk_write, %function
 902              	mmc_disk_write:
 903              	.LFB16:
 393:.\mmc_avr_usart.c **** 
 394:.\mmc_avr_usart.c **** 
 395:.\mmc_avr_usart.c **** 
 396:.\mmc_avr_usart.c **** /*-----------------------------------------------------------------------*/
 397:.\mmc_avr_usart.c **** /* Write Sector(s)                                                       */
 398:.\mmc_avr_usart.c **** /*-----------------------------------------------------------------------*/
 399:.\mmc_avr_usart.c **** 
 400:.\mmc_avr_usart.c **** #if _USE_WRITE
 401:.\mmc_avr_usart.c **** DRESULT mmc_disk_write (
 402:.\mmc_avr_usart.c **** 	const BYTE *buff,	/* Pointer to the data to be written */
 403:.\mmc_avr_usart.c **** 	DWORD sector,		/* Start sector number (LBA) */
 404:.\mmc_avr_usart.c **** 	UINT count			/* Sector count (1..128) */
 405:.\mmc_avr_usart.c **** )
 406:.\mmc_avr_usart.c **** {
 904              		.loc 1 406 0
 905              		.cfi_startproc
 906              	.LVL124:
 907 0000 70B5     		push	{r4, r5, r6, lr}
 908              		.cfi_def_cfa_offset 16
 909              		.cfi_offset 4, -16
 910              		.cfi_offset 5, -12
 911              		.cfi_offset 6, -8
 912              		.cfi_offset 14, -4
 913 0002 051C     		mov	r5, r0
 914 0004 0E1C     		mov	r6, r1
 915 0006 141E     		sub	r4, r2, #0
 407:.\mmc_avr_usart.c **** 	if (!count) return RES_PARERR;
 916              		.loc 1 407 0
 917 0008 45D0     		beq	.L86
 408:.\mmc_avr_usart.c **** 	if (Stat & STA_NOINIT) return RES_NOTRDY;
 918              		.loc 1 408 0
 919 000a 264B     		ldr	r3, .L91
 920 000c 1B78     		ldrb	r3, [r3]
 921 000e DB07     		lsl	r3, r3, #31
 922 0010 43D4     		bmi	.L87
ARM GAS  C:\Users\Petro\AppData\Local\Temp\cc2LUvQB.s 			page 25


 409:.\mmc_avr_usart.c **** 	if (Stat & STA_PROTECT) return RES_WRPRT;
 923              		.loc 1 409 0
 924 0012 244B     		ldr	r3, .L91
 925 0014 1B78     		ldrb	r3, [r3]
 926 0016 5B07     		lsl	r3, r3, #29
 927 0018 41D4     		bmi	.L88
 410:.\mmc_avr_usart.c **** 
 411:.\mmc_avr_usart.c **** 	if (!(CardType & CT_BLOCK)) sector *= 512;	/* Convert to byte address if needed */
 928              		.loc 1 411 0
 929 001a 234B     		ldr	r3, .L91+4
 930 001c 5B78     		ldrb	r3, [r3, #1]
 931 001e 1A07     		lsl	r2, r3, #28
 932 0020 00D4     		bmi	.L80
 933              	.LVL125:
 934              		.loc 1 411 0 is_stmt 0 discriminator 1
 935 0022 4E02     		lsl	r6, r1, #9
 936              	.LVL126:
 937              	.L80:
 412:.\mmc_avr_usart.c **** 
 413:.\mmc_avr_usart.c **** 	if (count == 1) {	/* Single block write */
 938              		.loc 1 413 0 is_stmt 1
 939 0024 012C     		cmp	r4, #1
 940 0026 0CD1     		bne	.L81
 414:.\mmc_avr_usart.c **** 		if ((send_cmd(CMD24, sector) == 0)	/* WRITE_BLOCK */
 941              		.loc 1 414 0
 942 0028 1820     		mov	r0, #24
 943              	.LVL127:
 944 002a 311C     		mov	r1, r6
 945 002c FFF7FEFF 		bl	send_cmd
 946              	.LVL128:
 947 0030 0028     		cmp	r0, #0
 948 0032 2AD1     		bne	.L82
 415:.\mmc_avr_usart.c **** 			&& xmit_datablock(buff, 0xFE))
 949              		.loc 1 415 0
 950 0034 281C     		mov	r0, r5
 951 0036 FE21     		mov	r1, #254
 952 0038 FFF7FEFF 		bl	xmit_datablock
 953              	.LVL129:
 954 003c 0028     		cmp	r0, #0
 955 003e 21D1     		bne	.L89
 956 0040 23E0     		b	.L82
 957              	.LVL130:
 958              	.L81:
 416:.\mmc_avr_usart.c **** 			count = 0;
 417:.\mmc_avr_usart.c **** 	}
 418:.\mmc_avr_usart.c **** 	else {				/* Multiple block write */
 419:.\mmc_avr_usart.c **** 		if (CardType & CT_SDC) send_cmd(ACMD23, count);
 959              		.loc 1 419 0
 960 0042 0622     		mov	r2, #6
 961 0044 1A42     		tst	r2, r3
 962 0046 03D0     		beq	.L83
 963              		.loc 1 419 0 is_stmt 0 discriminator 1
 964 0048 9720     		mov	r0, #151
 965              	.LVL131:
 966 004a 211C     		mov	r1, r4
 967 004c FFF7FEFF 		bl	send_cmd
 968              	.LVL132:
ARM GAS  C:\Users\Petro\AppData\Local\Temp\cc2LUvQB.s 			page 26


 969              	.L83:
 420:.\mmc_avr_usart.c **** 		if (send_cmd(CMD25, sector) == 0) {	/* WRITE_MULTIPLE_BLOCK */
 970              		.loc 1 420 0 is_stmt 1
 971 0050 1920     		mov	r0, #25
 972 0052 311C     		mov	r1, r6
 973 0054 FFF7FEFF 		bl	send_cmd
 974              	.LVL133:
 975 0058 0028     		cmp	r0, #0
 976 005a 16D1     		bne	.L82
 977              	.L85:
 421:.\mmc_avr_usart.c **** 			do {
 422:.\mmc_avr_usart.c **** 				if (!xmit_datablock(buff, 0xFC)) break;
 978              		.loc 1 422 0
 979 005c 281C     		mov	r0, r5
 980 005e FC21     		mov	r1, #252
 981 0060 FFF7FEFF 		bl	xmit_datablock
 982              	.LVL134:
 983 0064 0028     		cmp	r0, #0
 984 0066 06D0     		beq	.L84
 423:.\mmc_avr_usart.c **** 				buff += 512;
 985              		.loc 1 423 0
 986 0068 8023     		mov	r3, #128
 987 006a 9B00     		lsl	r3, r3, #2
 988 006c 9C46     		mov	ip, r3
 989 006e 6544     		add	r5, r5, ip
 990              	.LVL135:
 424:.\mmc_avr_usart.c **** 			} while (--count);
 991              		.loc 1 424 0
 992 0070 013C     		sub	r4, r4, #1
 993              	.LVL136:
 994 0072 002C     		cmp	r4, #0
 995 0074 F2D1     		bne	.L85
 996              	.L84:
 425:.\mmc_avr_usart.c **** 			if (!xmit_datablock(0, 0xFD))	/* STOP_TRAN token */
 997              		.loc 1 425 0
 998 0076 0020     		mov	r0, #0
 999 0078 FD21     		mov	r1, #253
 1000 007a FFF7FEFF 		bl	xmit_datablock
 1001              	.LVL137:
 1002 007e 0028     		cmp	r0, #0
 1003 0080 02D0     		beq	.L90
 1004 0082 02E0     		b	.L82
 1005              	.L89:
 416:.\mmc_avr_usart.c **** 	}
 1006              		.loc 1 416 0
 1007 0084 0024     		mov	r4, #0
 1008              	.LVL138:
 1009 0086 00E0     		b	.L82
 1010              	.LVL139:
 1011              	.L90:
 426:.\mmc_avr_usart.c **** 				count = 1;
 1012              		.loc 1 426 0
 1013 0088 0124     		mov	r4, #1
 1014              	.LVL140:
 1015              	.L82:
 427:.\mmc_avr_usart.c **** 		}
 428:.\mmc_avr_usart.c **** 	}
ARM GAS  C:\Users\Petro\AppData\Local\Temp\cc2LUvQB.s 			page 27


 429:.\mmc_avr_usart.c **** 	deselect();
 1016              		.loc 1 429 0
 1017 008a FFF7FEFF 		bl	deselect
 1018              	.LVL141:
 430:.\mmc_avr_usart.c **** 
 431:.\mmc_avr_usart.c **** 	return count ? RES_ERROR : RES_OK;
 1019              		.loc 1 431 0
 1020 008e 601E     		sub	r0, r4, #1
 1021 0090 8441     		sbc	r4, r4, r0
 1022              	.LVL142:
 1023 0092 E0B2     		uxtb	r0, r4
 1024 0094 04E0     		b	.L79
 1025              	.LVL143:
 1026              	.L86:
 407:.\mmc_avr_usart.c **** 	if (Stat & STA_NOINIT) return RES_NOTRDY;
 1027              		.loc 1 407 0
 1028 0096 0420     		mov	r0, #4
 1029              	.LVL144:
 1030 0098 02E0     		b	.L79
 1031              	.LVL145:
 1032              	.L87:
 408:.\mmc_avr_usart.c **** 	if (Stat & STA_PROTECT) return RES_WRPRT;
 1033              		.loc 1 408 0
 1034 009a 0320     		mov	r0, #3
 1035              	.LVL146:
 1036 009c 00E0     		b	.L79
 1037              	.LVL147:
 1038              	.L88:
 409:.\mmc_avr_usart.c **** 
 1039              		.loc 1 409 0
 1040 009e 0220     		mov	r0, #2
 1041              	.LVL148:
 1042              	.L79:
 432:.\mmc_avr_usart.c **** }
 1043              		.loc 1 432 0
 1044              		@ sp needed
 1045              	.LVL149:
 1046              	.LVL150:
 1047 00a0 70BD     		pop	{r4, r5, r6, pc}
 1048              	.L92:
 1049 00a2 C046     		.align	2
 1050              	.L91:
 1051 00a4 00000000 		.word	.LANCHOR1
 1052 00a8 00000000 		.word	.LANCHOR0
 1053              		.cfi_endproc
 1054              	.LFE16:
 1055              		.size	mmc_disk_write, .-mmc_disk_write
 1056              		.section	.text.mmc_disk_ioctl,"ax",%progbits
 1057              		.align	2
 1058              		.global	mmc_disk_ioctl
 1059              		.code	16
 1060              		.thumb_func
 1061              		.type	mmc_disk_ioctl, %function
 1062              	mmc_disk_ioctl:
 1063              	.LFB17:
 433:.\mmc_avr_usart.c **** #endif
 434:.\mmc_avr_usart.c **** 
ARM GAS  C:\Users\Petro\AppData\Local\Temp\cc2LUvQB.s 			page 28


 435:.\mmc_avr_usart.c **** 
 436:.\mmc_avr_usart.c **** /*-----------------------------------------------------------------------*/
 437:.\mmc_avr_usart.c **** /* Miscellaneous Functions                                               */
 438:.\mmc_avr_usart.c **** /*-----------------------------------------------------------------------*/
 439:.\mmc_avr_usart.c **** 
 440:.\mmc_avr_usart.c **** #if _USE_IOCTL
 441:.\mmc_avr_usart.c **** DRESULT mmc_disk_ioctl (
 442:.\mmc_avr_usart.c **** 	BYTE cmd,		/* Control code */
 443:.\mmc_avr_usart.c **** 	void *buff		/* Buffer to send/receive control data */
 444:.\mmc_avr_usart.c **** )
 445:.\mmc_avr_usart.c **** {
 1064              		.loc 1 445 0
 1065              		.cfi_startproc
 1066              	.LVL151:
 1067 0000 F0B5     		push	{r4, r5, r6, r7, lr}
 1068              		.cfi_def_cfa_offset 20
 1069              		.cfi_offset 4, -20
 1070              		.cfi_offset 5, -16
 1071              		.cfi_offset 6, -12
 1072              		.cfi_offset 7, -8
 1073              		.cfi_offset 14, -4
 1074 0002 85B0     		sub	sp, sp, #20
 1075              		.cfi_def_cfa_offset 40
 1076 0004 0C1C     		mov	r4, r1
 1077              	.LVL152:
 446:.\mmc_avr_usart.c **** 	DRESULT res;
 447:.\mmc_avr_usart.c **** 	BYTE n, csd[16], *ptr = buff;
 448:.\mmc_avr_usart.c **** 	DWORD csize;
 449:.\mmc_avr_usart.c **** #if _USE_ISDIO
 450:.\mmc_avr_usart.c **** 	SDIO_CTRL *sdi;
 451:.\mmc_avr_usart.c **** 	BYTE rc, *bp;
 452:.\mmc_avr_usart.c **** 	UINT dc;
 453:.\mmc_avr_usart.c **** #endif
 454:.\mmc_avr_usart.c **** 
 455:.\mmc_avr_usart.c **** 	if (Stat & STA_NOINIT) return RES_NOTRDY;
 1078              		.loc 1 455 0
 1079 0006 CA4B     		ldr	r3, .L160
 1080 0008 1B78     		ldrb	r3, [r3]
 1081 000a DB07     		lsl	r3, r3, #31
 1082 000c 00D5     		bpl	.LCB1115
 1083 000e CEE1     		b	.L138	@long jump
 1084              	.LCB1115:
 1085              	.LVL153:
 456:.\mmc_avr_usart.c **** 
 457:.\mmc_avr_usart.c **** 	res = RES_ERROR;
 458:.\mmc_avr_usart.c **** 	switch (cmd) {
 1086              		.loc 1 458 0
 1087 0010 3928     		cmp	r0, #57
 1088 0012 00D9     		bls	.LCB1118
 1089 0014 C8E1     		b	.L139	@long jump
 1090              	.LCB1118:
 1091 0016 8000     		lsl	r0, r0, #2
 1092              	.LVL154:
 1093 0018 C64B     		ldr	r3, .L160+4
 1094 001a 1B58     		ldr	r3, [r3, r0]
 1095 001c 9F46     		mov	pc, r3
 1096              		.section	.rodata
ARM GAS  C:\Users\Petro\AppData\Local\Temp\cc2LUvQB.s 			page 29


 1097              		.align	2
 1098              	.L97:
 1099 0000 1E000000 		.word	.L96
 1100 0004 32000000 		.word	.L98
 1101 0008 A8030000 		.word	.L139
 1102 000c BE000000 		.word	.L99
 1103 0010 A8030000 		.word	.L139
 1104 0014 A8030000 		.word	.L139
 1105 0018 A8030000 		.word	.L139
 1106 001c 38020000 		.word	.L100
 1107 0020 A8030000 		.word	.L139
 1108 0024 A8030000 		.word	.L139
 1109 0028 A8030000 		.word	.L139
 1110 002c A8030000 		.word	.L139
 1111 0030 A8030000 		.word	.L139
 1112 0034 A8030000 		.word	.L139
 1113 0038 A8030000 		.word	.L139
 1114 003c A8030000 		.word	.L139
 1115 0040 A8030000 		.word	.L139
 1116 0044 A8030000 		.word	.L139
 1117 0048 A8030000 		.word	.L139
 1118 004c A8030000 		.word	.L139
 1119 0050 A8030000 		.word	.L139
 1120 0054 A8030000 		.word	.L139
 1121 0058 A8030000 		.word	.L139
 1122 005c A8030000 		.word	.L139
 1123 0060 A8030000 		.word	.L139
 1124 0064 A8030000 		.word	.L139
 1125 0068 A8030000 		.word	.L139
 1126 006c A8030000 		.word	.L139
 1127 0070 A8030000 		.word	.L139
 1128 0074 A8030000 		.word	.L139
 1129 0078 A8030000 		.word	.L139
 1130 007c A8030000 		.word	.L139
 1131 0080 A8030000 		.word	.L139
 1132 0084 A8030000 		.word	.L139
 1133 0088 A8030000 		.word	.L139
 1134 008c A8030000 		.word	.L139
 1135 0090 A8030000 		.word	.L139
 1136 0094 A8030000 		.word	.L139
 1137 0098 A8030000 		.word	.L139
 1138 009c A8030000 		.word	.L139
 1139 00a0 A8030000 		.word	.L139
 1140 00a4 A8030000 		.word	.L139
 1141 00a8 A8030000 		.word	.L139
 1142 00ac A8030000 		.word	.L139
 1143 00b0 A8030000 		.word	.L139
 1144 00b4 A8030000 		.word	.L139
 1145 00b8 A8030000 		.word	.L139
 1146 00bc A8030000 		.word	.L139
 1147 00c0 A8030000 		.word	.L139
 1148 00c4 A8030000 		.word	.L139
 1149 00c8 80010000 		.word	.L101
 1150 00cc 8A010000 		.word	.L102
 1151 00d0 B2010000 		.word	.L103
 1152 00d4 DA010000 		.word	.L104
 1153 00d8 0A020000 		.word	.L105
ARM GAS  C:\Users\Petro\AppData\Local\Temp\cc2LUvQB.s 			page 30


 1154 00dc 46020000 		.word	.L106
 1155 00e0 C0020000 		.word	.L107
 1156 00e4 48030000 		.word	.L108
 1157              		.section	.text.mmc_disk_ioctl
 1158              	.L96:
 459:.\mmc_avr_usart.c **** 	case CTRL_SYNC :		/* Make sure that no pending write process. Do not remove this or written sector
 460:.\mmc_avr_usart.c **** 		if (select()) res = RES_OK;
 1159              		.loc 1 460 0
 1160 001e FFF7FEFF 		bl	select
 1161              	.LVL155:
 1162 0022 0028     		cmp	r0, #0
 1163 0024 01D1     		bne	.L140
 457:.\mmc_avr_usart.c **** 	switch (cmd) {
 1164              		.loc 1 457 0
 1165 0026 0124     		mov	r4, #1
 1166              	.LVL156:
 1167 0028 00E0     		b	.L109
 1168              	.LVL157:
 1169              	.L140:
 1170              		.loc 1 460 0
 1171 002a 0024     		mov	r4, #0
 1172              	.LVL158:
 1173              	.L109:
 461:.\mmc_avr_usart.c **** 		deselect();
 1174              		.loc 1 461 0
 1175 002c FFF7FEFF 		bl	deselect
 1176              	.LVL159:
 462:.\mmc_avr_usart.c **** 		break;
 1177              		.loc 1 462 0
 1178 0030 BBE1     		b	.L95
 1179              	.LVL160:
 1180              	.L98:
 463:.\mmc_avr_usart.c **** 
 464:.\mmc_avr_usart.c **** 	case GET_SECTOR_COUNT :	/* Get number of sectors on the disk (DWORD) */
 465:.\mmc_avr_usart.c **** 		if ((send_cmd(CMD9, 0) == 0) && rcvr_datablock(csd, 16)) {
 1181              		.loc 1 465 0
 1182 0032 0920     		mov	r0, #9
 1183 0034 0021     		mov	r1, #0
 1184              	.LVL161:
 1185 0036 FFF7FEFF 		bl	send_cmd
 1186              	.LVL162:
 1187 003a 0028     		cmp	r0, #0
 1188 003c 39D1     		bne	.L141
 1189              		.loc 1 465 0 is_stmt 0 discriminator 1
 1190 003e 6846     		mov	r0, sp
 1191 0040 1021     		mov	r1, #16
 1192 0042 FFF7FEFF 		bl	rcvr_datablock
 1193              	.LVL163:
 1194 0046 0028     		cmp	r0, #0
 1195 0048 35D0     		beq	.L142
 466:.\mmc_avr_usart.c **** 			if ((csd[0] >> 6) == 1) {	/* SDC ver 2.00 */
 1196              		.loc 1 466 0 is_stmt 1
 1197 004a 6B46     		mov	r3, sp
 1198 004c 1B78     		ldrb	r3, [r3]
 1199 004e 9B09     		lsr	r3, r3, #6
 1200 0050 012B     		cmp	r3, #1
 1201 0052 0FD1     		bne	.L111
ARM GAS  C:\Users\Petro\AppData\Local\Temp\cc2LUvQB.s 			page 31


 467:.\mmc_avr_usart.c **** 				csize = csd[9] + ((WORD)csd[8] << 8) + ((DWORD)(csd[7] & 63) << 16) + 1;
 1202              		.loc 1 467 0
 1203 0054 6B46     		mov	r3, sp
 1204 0056 5A7A     		ldrb	r2, [r3, #9]
 1205 0058 197A     		ldrb	r1, [r3, #8]
 1206 005a 0B02     		lsl	r3, r1, #8
 1207 005c D118     		add	r1, r2, r3
 1208 005e 6B46     		mov	r3, sp
 1209 0060 DA79     		ldrb	r2, [r3, #7]
 1210 0062 3F23     		mov	r3, #63
 1211 0064 1340     		and	r3, r2
 1212 0066 1B04     		lsl	r3, r3, #16
 1213 0068 CB18     		add	r3, r1, r3
 1214 006a 0133     		add	r3, r3, #1
 1215              	.LVL164:
 468:.\mmc_avr_usart.c **** 				*(DWORD*)buff = csize << 10;
 1216              		.loc 1 468 0
 1217 006c 9B02     		lsl	r3, r3, #10
 1218              	.LVL165:
 1219 006e 2360     		str	r3, [r4]
 469:.\mmc_avr_usart.c **** 			} else {					/* SDC ver 1.XX or MMC*/
 470:.\mmc_avr_usart.c **** 				n = (csd[5] & 15) + ((csd[10] & 128) >> 7) + ((csd[9] & 3) << 1) + 2;
 471:.\mmc_avr_usart.c **** 				csize = (csd[8] >> 6) + ((WORD)csd[7] << 2) + ((WORD)(csd[6] & 3) << 10) + 1;
 472:.\mmc_avr_usart.c **** 				*(DWORD*)buff = csize << (n - 9);
 473:.\mmc_avr_usart.c **** 			}
 474:.\mmc_avr_usart.c **** 			res = RES_OK;
 1220              		.loc 1 474 0
 1221 0070 0024     		mov	r4, #0
 1222              	.LVL166:
 1223 0072 21E0     		b	.L110
 1224              	.LVL167:
 1225              	.L111:
 470:.\mmc_avr_usart.c **** 				csize = (csd[8] >> 6) + ((WORD)csd[7] << 2) + ((WORD)(csd[6] & 3) << 10) + 1;
 1226              		.loc 1 470 0
 1227 0074 6B46     		mov	r3, sp
 1228 0076 5A79     		ldrb	r2, [r3, #5]
 1229 0078 997A     		ldrb	r1, [r3, #10]
 1230 007a C809     		lsr	r0, r1, #7
 1231 007c 5B7A     		ldrb	r3, [r3, #9]
 1232 007e 0F21     		mov	r1, #15
 1233 0080 0A40     		and	r2, r1
 1234 0082 8118     		add	r1, r0, r2
 1235 0084 0322     		mov	r2, #3
 1236 0086 1340     		and	r3, r2
 1237 0088 5B00     		lsl	r3, r3, #1
 1238 008a CB18     		add	r3, r1, r3
 1239 008c 0233     		add	r3, r3, #2
 1240 008e DBB2     		uxtb	r3, r3
 1241              	.LVL168:
 471:.\mmc_avr_usart.c **** 				*(DWORD*)buff = csize << (n - 9);
 1242              		.loc 1 471 0
 1243 0090 6946     		mov	r1, sp
 1244 0092 087A     		ldrb	r0, [r1, #8]
 1245 0094 8009     		lsr	r0, r0, #6
 1246 0096 C979     		ldrb	r1, [r1, #7]
 1247 0098 8900     		lsl	r1, r1, #2
 1248 009a 4018     		add	r0, r0, r1
ARM GAS  C:\Users\Petro\AppData\Local\Temp\cc2LUvQB.s 			page 32


 1249 009c 6946     		mov	r1, sp
 1250 009e 8979     		ldrb	r1, [r1, #6]
 1251 00a0 0A40     		and	r2, r1
 1252 00a2 9202     		lsl	r2, r2, #10
 1253 00a4 8218     		add	r2, r0, r2
 1254 00a6 0132     		add	r2, r2, #1
 1255              	.LVL169:
 472:.\mmc_avr_usart.c **** 			}
 1256              		.loc 1 472 0
 1257 00a8 093B     		sub	r3, r3, #9
 1258              	.LVL170:
 1259 00aa 9A40     		lsl	r2, r2, r3
 1260              	.LVL171:
 1261 00ac 2260     		str	r2, [r4]
 1262              		.loc 1 474 0
 1263 00ae 0024     		mov	r4, #0
 1264              	.LVL172:
 1265 00b0 02E0     		b	.L110
 1266              	.LVL173:
 1267              	.L141:
 457:.\mmc_avr_usart.c **** 	switch (cmd) {
 1268              		.loc 1 457 0
 1269 00b2 0124     		mov	r4, #1
 1270              	.LVL174:
 1271 00b4 00E0     		b	.L110
 1272              	.LVL175:
 1273              	.L142:
 1274 00b6 0124     		mov	r4, #1
 1275              	.LVL176:
 1276              	.L110:
 475:.\mmc_avr_usart.c **** 		}
 476:.\mmc_avr_usart.c **** 		deselect();
 1277              		.loc 1 476 0
 1278 00b8 FFF7FEFF 		bl	deselect
 1279              	.LVL177:
 477:.\mmc_avr_usart.c **** 		break;
 1280              		.loc 1 477 0
 1281 00bc 75E1     		b	.L95
 1282              	.LVL178:
 1283              	.L99:
 478:.\mmc_avr_usart.c **** 
 479:.\mmc_avr_usart.c **** 	case GET_BLOCK_SIZE :	/* Get erase block size in unit of sector (DWORD) */
 480:.\mmc_avr_usart.c **** 		if (CardType & CT_SD2) {	/* SDv2? */
 1284              		.loc 1 480 0
 1285 00be 9E4B     		ldr	r3, .L160+8
 1286 00c0 5B78     		ldrb	r3, [r3, #1]
 1287 00c2 5B07     		lsl	r3, r3, #29
 1288 00c4 21D5     		bpl	.L112
 481:.\mmc_avr_usart.c **** 			if (send_cmd(ACMD13, 0) == 0) {	/* Read SD status */
 1289              		.loc 1 481 0
 1290 00c6 8D20     		mov	r0, #141
 1291 00c8 0021     		mov	r1, #0
 1292              	.LVL179:
 1293 00ca FFF7FEFF 		bl	send_cmd
 1294              	.LVL180:
 1295 00ce 0028     		cmp	r0, #0
 1296 00d0 4ED1     		bne	.L143
ARM GAS  C:\Users\Petro\AppData\Local\Temp\cc2LUvQB.s 			page 33


 482:.\mmc_avr_usart.c **** 				xchg_spi(0xFF);
 1297              		.loc 1 482 0
 1298 00d2 FF30     		add	r0, r0, #255
 1299 00d4 FFF7FEFF 		bl	xchg_spi
 1300              	.LVL181:
 483:.\mmc_avr_usart.c **** 				if (rcvr_datablock(csd, 16)) {				/* Read partial block */
 1301              		.loc 1 483 0
 1302 00d8 6846     		mov	r0, sp
 1303 00da 1021     		mov	r1, #16
 1304 00dc FFF7FEFF 		bl	rcvr_datablock
 1305              	.LVL182:
 1306 00e0 0028     		cmp	r0, #0
 1307 00e2 07D1     		bne	.L144
 457:.\mmc_avr_usart.c **** 	switch (cmd) {
 1308              		.loc 1 457 0
 1309 00e4 0124     		mov	r4, #1
 1310              	.LVL183:
 1311 00e6 48E0     		b	.L113
 1312              	.LVL184:
 1313              	.L115:
 484:.\mmc_avr_usart.c **** 					for (n = 64 - 16; n; n--) xchg_spi(0xFF);	/* Purge trailing data */
 1314              		.loc 1 484 0 discriminator 3
 1315 00e8 FF20     		mov	r0, #255
 1316 00ea FFF7FEFF 		bl	xchg_spi
 1317              	.LVL185:
 1318 00ee 013D     		sub	r5, r5, #1
 1319              	.LVL186:
 1320 00f0 EDB2     		uxtb	r5, r5
 1321              	.LVL187:
 1322 00f2 00E0     		b	.L114
 1323              	.LVL188:
 1324              	.L144:
 1325 00f4 3025     		mov	r5, #48
 1326              	.L114:
 1327              	.LVL189:
 1328              		.loc 1 484 0 is_stmt 0 discriminator 1
 1329 00f6 002D     		cmp	r5, #0
 1330 00f8 F6D1     		bne	.L115
 485:.\mmc_avr_usart.c **** 					*(DWORD*)buff = 16UL << (csd[10] >> 4);
 1331              		.loc 1 485 0 is_stmt 1
 1332 00fa 6B46     		mov	r3, sp
 1333 00fc 9B7A     		ldrb	r3, [r3, #10]
 1334 00fe 1A09     		lsr	r2, r3, #4
 1335 0100 1023     		mov	r3, #16
 1336 0102 9340     		lsl	r3, r3, r2
 1337 0104 2360     		str	r3, [r4]
 1338              	.LVL190:
 486:.\mmc_avr_usart.c **** 					res = RES_OK;
 1339              		.loc 1 486 0
 1340 0106 0024     		mov	r4, #0
 1341              	.LVL191:
 1342 0108 37E0     		b	.L113
 1343              	.LVL192:
 1344              	.L112:
 487:.\mmc_avr_usart.c **** 				}
 488:.\mmc_avr_usart.c **** 			}
 489:.\mmc_avr_usart.c **** 		} else {					/* SDv1 or MMCv3 */
ARM GAS  C:\Users\Petro\AppData\Local\Temp\cc2LUvQB.s 			page 34


 490:.\mmc_avr_usart.c **** 			if ((send_cmd(CMD9, 0) == 0) && rcvr_datablock(csd, 16)) {	/* Read CSD */
 1345              		.loc 1 490 0
 1346 010a 0920     		mov	r0, #9
 1347 010c 0021     		mov	r1, #0
 1348              	.LVL193:
 1349 010e FFF7FEFF 		bl	send_cmd
 1350              	.LVL194:
 1351 0112 0028     		cmp	r0, #0
 1352 0114 2ED1     		bne	.L145
 1353              		.loc 1 490 0 is_stmt 0 discriminator 1
 1354 0116 6846     		mov	r0, sp
 1355 0118 1021     		mov	r1, #16
 1356 011a FFF7FEFF 		bl	rcvr_datablock
 1357              	.LVL195:
 1358 011e 0028     		cmp	r0, #0
 1359 0120 2AD0     		beq	.L146
 491:.\mmc_avr_usart.c **** 				if (CardType & CT_SD1) {	/* SDv1 */
 1360              		.loc 1 491 0 is_stmt 1
 1361 0122 854B     		ldr	r3, .L160+8
 1362 0124 5B78     		ldrb	r3, [r3, #1]
 1363 0126 9B07     		lsl	r3, r3, #30
 1364 0128 11D5     		bpl	.L116
 492:.\mmc_avr_usart.c **** 					*(DWORD*)buff = (((csd[10] & 63) << 1) + ((WORD)(csd[11] & 128) >> 7) + 1) << ((csd[13] >> 6) 
 1365              		.loc 1 492 0
 1366 012a 6B46     		mov	r3, sp
 1367 012c 9A7A     		ldrb	r2, [r3, #10]
 1368 012e 3F23     		mov	r3, #63
 1369 0130 1A40     		and	r2, r3
 1370 0132 5200     		lsl	r2, r2, #1
 1371 0134 6B46     		mov	r3, sp
 1372 0136 DB7A     		ldrb	r3, [r3, #11]
 1373 0138 DB09     		lsr	r3, r3, #7
 1374 013a D318     		add	r3, r2, r3
 1375 013c 5A1C     		add	r2, r3, #1
 1376 013e 6B46     		mov	r3, sp
 1377 0140 5B7B     		ldrb	r3, [r3, #13]
 1378 0142 9B09     		lsr	r3, r3, #6
 1379 0144 013B     		sub	r3, r3, #1
 1380 0146 9A40     		lsl	r2, r2, r3
 1381 0148 2260     		str	r2, [r4]
 493:.\mmc_avr_usart.c **** 				} else {					/* MMCv3 */
 494:.\mmc_avr_usart.c **** 					*(DWORD*)buff = ((WORD)((csd[10] & 124) >> 2) + 1) * (((csd[11] & 3) << 3) + ((csd[11] & 224) 
 495:.\mmc_avr_usart.c **** 				}
 496:.\mmc_avr_usart.c **** 				res = RES_OK;
 1382              		.loc 1 496 0
 1383 014a 0024     		mov	r4, #0
 1384              	.LVL196:
 1385 014c 15E0     		b	.L113
 1386              	.LVL197:
 1387              	.L116:
 494:.\mmc_avr_usart.c **** 				}
 1388              		.loc 1 494 0
 1389 014e 6B46     		mov	r3, sp
 1390 0150 9B7A     		ldrb	r3, [r3, #10]
 1391 0152 5B06     		lsl	r3, r3, #25
 1392 0154 DB0E     		lsr	r3, r3, #27
 1393 0156 5A1C     		add	r2, r3, #1
ARM GAS  C:\Users\Petro\AppData\Local\Temp\cc2LUvQB.s 			page 35


 1394 0158 6B46     		mov	r3, sp
 1395 015a DB7A     		ldrb	r3, [r3, #11]
 1396 015c 0321     		mov	r1, #3
 1397 015e 1940     		and	r1, r3
 1398 0160 C900     		lsl	r1, r1, #3
 1399 0162 5B09     		lsr	r3, r3, #5
 1400 0164 CB18     		add	r3, r1, r3
 1401 0166 0133     		add	r3, r3, #1
 1402 0168 5343     		mul	r3, r2
 1403 016a 2360     		str	r3, [r4]
 1404              		.loc 1 496 0
 1405 016c 0024     		mov	r4, #0
 1406              	.LVL198:
 1407 016e 04E0     		b	.L113
 1408              	.LVL199:
 1409              	.L143:
 457:.\mmc_avr_usart.c **** 	switch (cmd) {
 1410              		.loc 1 457 0
 1411 0170 0124     		mov	r4, #1
 1412              	.LVL200:
 1413 0172 02E0     		b	.L113
 1414              	.LVL201:
 1415              	.L145:
 1416 0174 0124     		mov	r4, #1
 1417              	.LVL202:
 1418 0176 00E0     		b	.L113
 1419              	.LVL203:
 1420              	.L146:
 1421 0178 0124     		mov	r4, #1
 1422              	.LVL204:
 1423              	.L113:
 497:.\mmc_avr_usart.c **** 			}
 498:.\mmc_avr_usart.c **** 		}
 499:.\mmc_avr_usart.c **** 		deselect();
 1424              		.loc 1 499 0
 1425 017a FFF7FEFF 		bl	deselect
 1426              	.LVL205:
 500:.\mmc_avr_usart.c **** 		break;
 1427              		.loc 1 500 0
 1428 017e 14E1     		b	.L95
 1429              	.LVL206:
 1430              	.L101:
 501:.\mmc_avr_usart.c **** 
 502:.\mmc_avr_usart.c **** 	/* Following commands are never used by FatFs module */
 503:.\mmc_avr_usart.c **** 
 504:.\mmc_avr_usart.c **** 	case MMC_GET_TYPE :		/* Get card type flags (1 byte) */
 505:.\mmc_avr_usart.c **** 		*ptr = CardType;
 1431              		.loc 1 505 0
 1432 0180 6D4B     		ldr	r3, .L160+8
 1433 0182 5B78     		ldrb	r3, [r3, #1]
 1434 0184 0B70     		strb	r3, [r1]
 1435              	.LVL207:
 506:.\mmc_avr_usart.c **** 		res = RES_OK;
 1436              		.loc 1 506 0
 1437 0186 0024     		mov	r4, #0
 507:.\mmc_avr_usart.c **** 		break;
 1438              		.loc 1 507 0
ARM GAS  C:\Users\Petro\AppData\Local\Temp\cc2LUvQB.s 			page 36


 1439 0188 0FE1     		b	.L95
 1440              	.LVL208:
 1441              	.L102:
 508:.\mmc_avr_usart.c **** 
 509:.\mmc_avr_usart.c **** 	case MMC_GET_CSD :		/* Receive CSD as a data block (16 bytes) */
 510:.\mmc_avr_usart.c **** 		if (send_cmd(CMD9, 0) == 0 && rcvr_datablock(ptr, 16))		/* READ_CSD */
 1442              		.loc 1 510 0
 1443 018a 0920     		mov	r0, #9
 1444 018c 0021     		mov	r1, #0
 1445              	.LVL209:
 1446 018e FFF7FEFF 		bl	send_cmd
 1447              	.LVL210:
 1448 0192 0028     		cmp	r0, #0
 1449 0194 07D1     		bne	.L147
 1450              		.loc 1 510 0 is_stmt 0 discriminator 1
 1451 0196 201C     		mov	r0, r4
 1452 0198 1021     		mov	r1, #16
 1453 019a FFF7FEFF 		bl	rcvr_datablock
 1454              	.LVL211:
 1455 019e 0028     		cmp	r0, #0
 1456 01a0 03D1     		bne	.L148
 457:.\mmc_avr_usart.c **** 	switch (cmd) {
 1457              		.loc 1 457 0 is_stmt 1
 1458 01a2 0124     		mov	r4, #1
 1459              	.LVL212:
 1460 01a4 02E0     		b	.L117
 1461              	.LVL213:
 1462              	.L147:
 1463 01a6 0124     		mov	r4, #1
 1464              	.LVL214:
 1465 01a8 00E0     		b	.L117
 1466              	.LVL215:
 1467              	.L148:
 511:.\mmc_avr_usart.c **** 			res = RES_OK;
 1468              		.loc 1 511 0
 1469 01aa 0024     		mov	r4, #0
 1470              	.LVL216:
 1471              	.L117:
 512:.\mmc_avr_usart.c **** 		deselect();
 1472              		.loc 1 512 0
 1473 01ac FFF7FEFF 		bl	deselect
 1474              	.LVL217:
 513:.\mmc_avr_usart.c **** 		break;
 1475              		.loc 1 513 0
 1476 01b0 FBE0     		b	.L95
 1477              	.LVL218:
 1478              	.L103:
 514:.\mmc_avr_usart.c **** 
 515:.\mmc_avr_usart.c **** 	case MMC_GET_CID :		/* Receive CID as a data block (16 bytes) */
 516:.\mmc_avr_usart.c **** 		if (send_cmd(CMD10, 0) == 0 && rcvr_datablock(ptr, 16))		/* READ_CID */
 1479              		.loc 1 516 0
 1480 01b2 0A20     		mov	r0, #10
 1481 01b4 0021     		mov	r1, #0
 1482              	.LVL219:
 1483 01b6 FFF7FEFF 		bl	send_cmd
 1484              	.LVL220:
 1485 01ba 0028     		cmp	r0, #0
ARM GAS  C:\Users\Petro\AppData\Local\Temp\cc2LUvQB.s 			page 37


 1486 01bc 07D1     		bne	.L149
 1487              		.loc 1 516 0 is_stmt 0 discriminator 1
 1488 01be 201C     		mov	r0, r4
 1489 01c0 1021     		mov	r1, #16
 1490 01c2 FFF7FEFF 		bl	rcvr_datablock
 1491              	.LVL221:
 1492 01c6 0028     		cmp	r0, #0
 1493 01c8 03D1     		bne	.L150
 457:.\mmc_avr_usart.c **** 	switch (cmd) {
 1494              		.loc 1 457 0 is_stmt 1
 1495 01ca 0124     		mov	r4, #1
 1496              	.LVL222:
 1497 01cc 02E0     		b	.L118
 1498              	.LVL223:
 1499              	.L149:
 1500 01ce 0124     		mov	r4, #1
 1501              	.LVL224:
 1502 01d0 00E0     		b	.L118
 1503              	.LVL225:
 1504              	.L150:
 517:.\mmc_avr_usart.c **** 			
 518:.\mmc_avr_usart.c **** 			res = RES_OK;
 1505              		.loc 1 518 0
 1506 01d2 0024     		mov	r4, #0
 1507              	.LVL226:
 1508              	.L118:
 519:.\mmc_avr_usart.c **** 		deselect();
 1509              		.loc 1 519 0
 1510 01d4 FFF7FEFF 		bl	deselect
 1511              	.LVL227:
 520:.\mmc_avr_usart.c **** 		break;
 1512              		.loc 1 520 0
 1513 01d8 E7E0     		b	.L95
 1514              	.LVL228:
 1515              	.L104:
 521:.\mmc_avr_usart.c **** 
 522:.\mmc_avr_usart.c **** 	case MMC_GET_OCR :		/* Receive OCR as an R3 resp (4 bytes) */
 523:.\mmc_avr_usart.c **** 		if (send_cmd(CMD58, 0) == 0) {	/* READ_OCR */
 1516              		.loc 1 523 0
 1517 01da 3A20     		mov	r0, #58
 1518 01dc 0021     		mov	r1, #0
 1519              	.LVL229:
 1520 01de FFF7FEFF 		bl	send_cmd
 1521              	.LVL230:
 1522 01e2 0028     		cmp	r0, #0
 1523 01e4 0AD0     		beq	.L151
 457:.\mmc_avr_usart.c **** 	switch (cmd) {
 1524              		.loc 1 457 0
 1525 01e6 0124     		mov	r4, #1
 1526              	.LVL231:
 1527 01e8 0CE0     		b	.L120
 1528              	.LVL232:
 1529              	.L121:
 524:.\mmc_avr_usart.c **** 			for (n = 4; n; n--) *ptr++ = xchg_spi(0xFF);
 1530              		.loc 1 524 0 discriminator 3
 1531 01ea 661C     		add	r6, r4, #1
 1532              	.LVL233:
ARM GAS  C:\Users\Petro\AppData\Local\Temp\cc2LUvQB.s 			page 38


 1533 01ec FF20     		mov	r0, #255
 1534 01ee FFF7FEFF 		bl	xchg_spi
 1535              	.LVL234:
 1536 01f2 2070     		strb	r0, [r4]
 1537 01f4 013D     		sub	r5, r5, #1
 1538              	.LVL235:
 1539 01f6 EDB2     		uxtb	r5, r5
 1540              	.LVL236:
 1541 01f8 341C     		mov	r4, r6
 1542 01fa 00E0     		b	.L119
 1543              	.LVL237:
 1544              	.L151:
 1545 01fc 0425     		mov	r5, #4
 1546              	.LVL238:
 1547              	.L119:
 1548              		.loc 1 524 0 is_stmt 0 discriminator 1
 1549 01fe 002D     		cmp	r5, #0
 1550 0200 F3D1     		bne	.L121
 525:.\mmc_avr_usart.c **** 			res = RES_OK;
 1551              		.loc 1 525 0 is_stmt 1
 1552 0202 0024     		mov	r4, #0
 1553              	.LVL239:
 1554              	.L120:
 526:.\mmc_avr_usart.c **** 		}
 527:.\mmc_avr_usart.c **** 		deselect();
 1555              		.loc 1 527 0
 1556 0204 FFF7FEFF 		bl	deselect
 1557              	.LVL240:
 528:.\mmc_avr_usart.c **** 		break;
 1558              		.loc 1 528 0
 1559 0208 CFE0     		b	.L95
 1560              	.LVL241:
 1561              	.L105:
 529:.\mmc_avr_usart.c **** 
 530:.\mmc_avr_usart.c **** 	case MMC_GET_SDSTAT :	/* Receive SD statsu as a data block (64 bytes) */
 531:.\mmc_avr_usart.c **** 		if (send_cmd(ACMD13, 0) == 0) {	/* SD_STATUS */
 1562              		.loc 1 531 0
 1563 020a 8D20     		mov	r0, #141
 1564 020c 0021     		mov	r1, #0
 1565              	.LVL242:
 1566 020e FFF7FEFF 		bl	send_cmd
 1567              	.LVL243:
 1568 0212 0028     		cmp	r0, #0
 1569 0214 0AD1     		bne	.L152
 532:.\mmc_avr_usart.c **** 			xchg_spi(0xFF);
 1570              		.loc 1 532 0
 1571 0216 FF30     		add	r0, r0, #255
 1572 0218 FFF7FEFF 		bl	xchg_spi
 1573              	.LVL244:
 533:.\mmc_avr_usart.c **** 			if (rcvr_datablock(ptr, 64)) res = RES_OK;
 1574              		.loc 1 533 0
 1575 021c 201C     		mov	r0, r4
 1576 021e 4021     		mov	r1, #64
 1577 0220 FFF7FEFF 		bl	rcvr_datablock
 1578              	.LVL245:
 1579 0224 0028     		cmp	r0, #0
 1580 0226 03D1     		bne	.L153
ARM GAS  C:\Users\Petro\AppData\Local\Temp\cc2LUvQB.s 			page 39


 457:.\mmc_avr_usart.c **** 	switch (cmd) {
 1581              		.loc 1 457 0
 1582 0228 0124     		mov	r4, #1
 1583              	.LVL246:
 1584 022a 02E0     		b	.L122
 1585              	.LVL247:
 1586              	.L152:
 1587 022c 0124     		mov	r4, #1
 1588              	.LVL248:
 1589 022e 00E0     		b	.L122
 1590              	.LVL249:
 1591              	.L153:
 1592              		.loc 1 533 0
 1593 0230 0024     		mov	r4, #0
 1594              	.LVL250:
 1595              	.L122:
 534:.\mmc_avr_usart.c **** 		}
 535:.\mmc_avr_usart.c **** 		deselect();
 1596              		.loc 1 535 0
 1597 0232 FFF7FEFF 		bl	deselect
 1598              	.LVL251:
 536:.\mmc_avr_usart.c **** 		break;
 1599              		.loc 1 536 0
 1600 0236 B8E0     		b	.L95
 1601              	.LVL252:
 1602              	.L100:
 537:.\mmc_avr_usart.c **** 
 538:.\mmc_avr_usart.c **** 	case CTRL_POWER_OFF :	/* Power off */
 539:.\mmc_avr_usart.c **** 		power_off();
 540:.\mmc_avr_usart.c **** 		Stat |= STA_NOINIT;
 1603              		.loc 1 540 0
 1604 0238 3D4A     		ldr	r2, .L160
 1605 023a 1178     		ldrb	r1, [r2]
 1606              	.LVL253:
 1607 023c 0123     		mov	r3, #1
 1608 023e 0B43     		orr	r3, r1
 1609 0240 1370     		strb	r3, [r2]
 1610              	.LVL254:
 541:.\mmc_avr_usart.c **** 		res = RES_OK;
 1611              		.loc 1 541 0
 1612 0242 0024     		mov	r4, #0
 1613              	.LVL255:
 542:.\mmc_avr_usart.c **** 		break;
 1614              		.loc 1 542 0
 1615 0244 B1E0     		b	.L95
 1616              	.LVL256:
 1617              	.L106:
 543:.\mmc_avr_usart.c **** #if _USE_ISDIO
 544:.\mmc_avr_usart.c **** 	case ISDIO_READ:
 545:.\mmc_avr_usart.c **** 		sdi = buff;
 546:.\mmc_avr_usart.c **** 		if (send_cmd(CMD48, 0x80000000 | (DWORD)sdi->func << 28 | (DWORD)sdi->addr << 9 | ((sdi->ndata - 
 1618              		.loc 1 546 0
 1619 0246 0978     		ldrb	r1, [r1]
 1620              	.LVL257:
 1621 0248 0907     		lsl	r1, r1, #28
 1622 024a 6368     		ldr	r3, [r4, #4]
 1623 024c 5B02     		lsl	r3, r3, #9
ARM GAS  C:\Users\Petro\AppData\Local\Temp\cc2LUvQB.s 			page 40


 1624 024e 1943     		orr	r1, r3
 1625 0250 6388     		ldrh	r3, [r4, #2]
 1626 0252 013B     		sub	r3, r3, #1
 1627 0254 DB05     		lsl	r3, r3, #23
 1628 0256 DB0D     		lsr	r3, r3, #23
 1629 0258 1943     		orr	r1, r3
 1630 025a 8023     		mov	r3, #128
 1631 025c 1B06     		lsl	r3, r3, #24
 1632 025e 1943     		orr	r1, r3
 1633 0260 3020     		mov	r0, #48
 1634 0262 FFF7FEFF 		bl	send_cmd
 1635              	.LVL258:
 1636 0266 0028     		cmp	r0, #0
 1637 0268 24D1     		bne	.L154
 547:.\mmc_avr_usart.c **** 			for (Timer1 = 100; (rc = xchg_spi(0xFF)) == 0xFF && Timer1; ) ;
 1638              		.loc 1 547 0
 1639 026a 6422     		mov	r2, #100
 1640 026c 324B     		ldr	r3, .L160+8
 1641 026e 1A70     		strb	r2, [r3]
 1642              	.L125:
 1643              		.loc 1 547 0 is_stmt 0 discriminator 3
 1644 0270 FF20     		mov	r0, #255
 1645 0272 FFF7FEFF 		bl	xchg_spi
 1646              	.LVL259:
 1647 0276 FF28     		cmp	r0, #255
 1648 0278 03D1     		bne	.L124
 1649              		.loc 1 547 0 discriminator 2
 1650 027a 2F4B     		ldr	r3, .L160+8
 1651 027c 1B78     		ldrb	r3, [r3]
 1652 027e 002B     		cmp	r3, #0
 1653 0280 F6D1     		bne	.L125
 1654              	.L124:
 548:.\mmc_avr_usart.c **** 			if (rc == 0xFE) {
 1655              		.loc 1 548 0 is_stmt 1
 1656 0282 FE28     		cmp	r0, #254
 1657 0284 18D1     		bne	.L155
 549:.\mmc_avr_usart.c **** 				for (bp = sdi->data, dc = sdi->ndata; dc; dc--) *bp++ = xchg_spi(0xFF);
 1658              		.loc 1 549 0
 1659 0286 A668     		ldr	r6, [r4, #8]
 1660              	.LVL260:
 1661 0288 6588     		ldrh	r5, [r4, #2]
 1662              	.LVL261:
 1663 028a 06E0     		b	.L126
 1664              	.LVL262:
 1665              	.L127:
 1666              		.loc 1 549 0 is_stmt 0 discriminator 3
 1667 028c 771C     		add	r7, r6, #1
 1668              	.LVL263:
 1669 028e FF20     		mov	r0, #255
 1670 0290 FFF7FEFF 		bl	xchg_spi
 1671              	.LVL264:
 1672 0294 3070     		strb	r0, [r6]
 1673 0296 013D     		sub	r5, r5, #1
 1674              	.LVL265:
 1675 0298 3E1C     		mov	r6, r7
 1676              	.LVL266:
 1677              	.L126:
ARM GAS  C:\Users\Petro\AppData\Local\Temp\cc2LUvQB.s 			page 41


 1678              		.loc 1 549 0 discriminator 1
 1679 029a 002D     		cmp	r5, #0
 1680 029c F6D1     		bne	.L127
 550:.\mmc_avr_usart.c **** 				for (dc = 514 - sdi->ndata; dc; dc--) xchg_spi(0xFF);
 1681              		.loc 1 550 0 is_stmt 1
 1682 029e 6488     		ldrh	r4, [r4, #2]
 1683              	.LVL267:
 1684 02a0 264B     		ldr	r3, .L160+12
 1685 02a2 1C1B     		sub	r4, r3, r4
 1686              	.LVL268:
 1687 02a4 03E0     		b	.L128
 1688              	.L129:
 1689              		.loc 1 550 0 is_stmt 0 discriminator 3
 1690 02a6 FF20     		mov	r0, #255
 1691 02a8 FFF7FEFF 		bl	xchg_spi
 1692              	.LVL269:
 1693 02ac 013C     		sub	r4, r4, #1
 1694              	.LVL270:
 1695              	.L128:
 1696              		.loc 1 550 0 discriminator 1
 1697 02ae 002C     		cmp	r4, #0
 1698 02b0 F9D1     		bne	.L129
 1699 02b2 02E0     		b	.L123
 1700              	.LVL271:
 1701              	.L154:
 457:.\mmc_avr_usart.c **** 	switch (cmd) {
 1702              		.loc 1 457 0 is_stmt 1
 1703 02b4 0124     		mov	r4, #1
 1704              	.LVL272:
 1705 02b6 00E0     		b	.L123
 1706              	.LVL273:
 1707              	.L155:
 1708 02b8 0124     		mov	r4, #1
 1709              	.LVL274:
 1710              	.L123:
 551:.\mmc_avr_usart.c **** 				res = RES_OK;
 552:.\mmc_avr_usart.c **** 			}
 553:.\mmc_avr_usart.c **** 		}
 554:.\mmc_avr_usart.c **** 		deselect();
 1711              		.loc 1 554 0
 1712 02ba FFF7FEFF 		bl	deselect
 1713              	.LVL275:
 555:.\mmc_avr_usart.c **** 		break;
 1714              		.loc 1 555 0
 1715 02be 74E0     		b	.L95
 1716              	.LVL276:
 1717              	.L107:
 556:.\mmc_avr_usart.c **** 
 557:.\mmc_avr_usart.c **** 	case ISDIO_WRITE:
 558:.\mmc_avr_usart.c **** 		sdi = buff;
 559:.\mmc_avr_usart.c **** 		if (send_cmd(CMD49, 0x80000000 | (DWORD)sdi->func << 28 | (DWORD)sdi->addr << 9 | ((sdi->ndata - 
 1718              		.loc 1 559 0
 1719 02c0 0978     		ldrb	r1, [r1]
 1720              	.LVL277:
 1721 02c2 0907     		lsl	r1, r1, #28
 1722 02c4 6368     		ldr	r3, [r4, #4]
 1723 02c6 5B02     		lsl	r3, r3, #9
ARM GAS  C:\Users\Petro\AppData\Local\Temp\cc2LUvQB.s 			page 42


 1724 02c8 1943     		orr	r1, r3
 1725 02ca 6388     		ldrh	r3, [r4, #2]
 1726 02cc 013B     		sub	r3, r3, #1
 1727 02ce DB05     		lsl	r3, r3, #23
 1728 02d0 DB0D     		lsr	r3, r3, #23
 1729 02d2 1943     		orr	r1, r3
 1730 02d4 8023     		mov	r3, #128
 1731 02d6 1B06     		lsl	r3, r3, #24
 1732 02d8 1943     		orr	r1, r3
 1733 02da 3120     		mov	r0, #49
 1734 02dc FFF7FEFF 		bl	send_cmd
 1735              	.LVL278:
 1736 02e0 0028     		cmp	r0, #0
 1737 02e2 23D1     		bne	.L156
 560:.\mmc_avr_usart.c **** 			xchg_spi(0xFF); xchg_spi(0xFE);
 1738              		.loc 1 560 0
 1739 02e4 FF30     		add	r0, r0, #255
 1740 02e6 FFF7FEFF 		bl	xchg_spi
 1741              	.LVL279:
 1742 02ea FE20     		mov	r0, #254
 1743 02ec FFF7FEFF 		bl	xchg_spi
 1744              	.LVL280:
 561:.\mmc_avr_usart.c **** 			for (bp = sdi->data, dc = sdi->ndata; dc; dc--) xchg_spi(*bp++);
 1745              		.loc 1 561 0
 1746 02f0 A368     		ldr	r3, [r4, #8]
 1747              	.LVL281:
 1748 02f2 6588     		ldrh	r5, [r4, #2]
 1749              	.LVL282:
 1750 02f4 05E0     		b	.L131
 1751              	.L132:
 1752              		.loc 1 561 0 is_stmt 0 discriminator 3
 1753 02f6 5E1C     		add	r6, r3, #1
 1754              	.LVL283:
 1755 02f8 1878     		ldrb	r0, [r3]
 1756 02fa FFF7FEFF 		bl	xchg_spi
 1757              	.LVL284:
 1758 02fe 013D     		sub	r5, r5, #1
 1759              	.LVL285:
 1760 0300 331C     		mov	r3, r6
 1761              	.LVL286:
 1762              	.L131:
 1763              		.loc 1 561 0 discriminator 1
 1764 0302 002D     		cmp	r5, #0
 1765 0304 F7D1     		bne	.L132
 562:.\mmc_avr_usart.c **** 			for (dc = 514 - sdi->ndata; dc; dc--) xchg_spi(0xFF);
 1766              		.loc 1 562 0 is_stmt 1
 1767 0306 6488     		ldrh	r4, [r4, #2]
 1768              	.LVL287:
 1769 0308 0C4B     		ldr	r3, .L160+12
 1770              	.LVL288:
 1771 030a 1C1B     		sub	r4, r3, r4
 1772              	.LVL289:
 1773 030c 03E0     		b	.L133
 1774              	.L134:
 1775              		.loc 1 562 0 is_stmt 0 discriminator 3
 1776 030e FF20     		mov	r0, #255
 1777 0310 FFF7FEFF 		bl	xchg_spi
ARM GAS  C:\Users\Petro\AppData\Local\Temp\cc2LUvQB.s 			page 43


 1778              	.LVL290:
 1779 0314 013C     		sub	r4, r4, #1
 1780              	.LVL291:
 1781              	.L133:
 1782              		.loc 1 562 0 discriminator 1
 1783 0316 002C     		cmp	r4, #0
 1784 0318 F9D1     		bne	.L134
 563:.\mmc_avr_usart.c **** 			if ((xchg_spi(0xFF) & 0x1F) == 0x05) res = RES_OK;
 1785              		.loc 1 563 0 is_stmt 1
 1786 031a FF20     		mov	r0, #255
 1787 031c FFF7FEFF 		bl	xchg_spi
 1788              	.LVL292:
 1789 0320 1F23     		mov	r3, #31
 1790 0322 1840     		and	r0, r3
 1791 0324 0528     		cmp	r0, #5
 1792 0326 0BD0     		beq	.L157
 457:.\mmc_avr_usart.c **** 	switch (cmd) {
 1793              		.loc 1 457 0
 1794 0328 0134     		add	r4, r4, #1
 1795              	.LVL293:
 1796 032a 0AE0     		b	.L130
 1797              	.LVL294:
 1798              	.L156:
 1799 032c 0124     		mov	r4, #1
 1800              	.LVL295:
 1801 032e 08E0     		b	.L130
 1802              	.L161:
 1803              		.align	2
 1804              	.L160:
 1805 0330 00000000 		.word	.LANCHOR1
 1806 0334 00000000 		.word	.L97
 1807 0338 00000000 		.word	.LANCHOR0
 1808 033c 02020000 		.word	514
 1809              	.LVL296:
 1810              	.L157:
 1811              		.loc 1 563 0
 1812 0340 0024     		mov	r4, #0
 1813              	.LVL297:
 1814              	.L130:
 564:.\mmc_avr_usart.c **** 		}
 565:.\mmc_avr_usart.c **** 		deselect();
 1815              		.loc 1 565 0
 1816 0342 FFF7FEFF 		bl	deselect
 1817              	.LVL298:
 566:.\mmc_avr_usart.c **** 		break;
 1818              		.loc 1 566 0
 1819 0346 30E0     		b	.L95
 1820              	.LVL299:
 1821              	.L108:
 567:.\mmc_avr_usart.c **** 
 568:.\mmc_avr_usart.c **** 	case ISDIO_MRITE:
 569:.\mmc_avr_usart.c **** 		sdi = buff;
 570:.\mmc_avr_usart.c **** 		if (send_cmd(CMD49, 0x84000000 | (DWORD)sdi->func << 28 | (DWORD)sdi->addr << 9 | sdi->ndata >> 8
 1822              		.loc 1 570 0
 1823 0348 0978     		ldrb	r1, [r1]
 1824              	.LVL300:
 1825 034a 0907     		lsl	r1, r1, #28
ARM GAS  C:\Users\Petro\AppData\Local\Temp\cc2LUvQB.s 			page 44


 1826 034c 6368     		ldr	r3, [r4, #4]
 1827 034e 5B02     		lsl	r3, r3, #9
 1828 0350 1943     		orr	r1, r3
 1829 0352 6388     		ldrh	r3, [r4, #2]
 1830 0354 1B0A     		lsr	r3, r3, #8
 1831 0356 1943     		orr	r1, r3
 1832 0358 8423     		mov	r3, #132
 1833 035a 1B06     		lsl	r3, r3, #24
 1834 035c 1943     		orr	r1, r3
 1835 035e 3120     		mov	r0, #49
 1836 0360 FFF7FEFF 		bl	send_cmd
 1837              	.LVL301:
 1838 0364 0028     		cmp	r0, #0
 1839 0366 19D1     		bne	.L158
 571:.\mmc_avr_usart.c **** 			xchg_spi(0xFF); xchg_spi(0xFE);
 1840              		.loc 1 571 0
 1841 0368 FF30     		add	r0, r0, #255
 1842 036a FFF7FEFF 		bl	xchg_spi
 1843              	.LVL302:
 1844 036e FE20     		mov	r0, #254
 1845 0370 FFF7FEFF 		bl	xchg_spi
 1846              	.LVL303:
 572:.\mmc_avr_usart.c **** 			xchg_spi(sdi->ndata);
 1847              		.loc 1 572 0
 1848 0374 A078     		ldrb	r0, [r4, #2]
 1849 0376 FFF7FEFF 		bl	xchg_spi
 1850              	.LVL304:
 573:.\mmc_avr_usart.c **** 			for (dc = 513; dc; dc--) xchg_spi(0xFF);
 1851              		.loc 1 573 0
 1852 037a 0E4C     		ldr	r4, .L162
 1853              	.LVL305:
 1854 037c 03E0     		b	.L136
 1855              	.LVL306:
 1856              	.L137:
 1857              		.loc 1 573 0 is_stmt 0 discriminator 3
 1858 037e FF20     		mov	r0, #255
 1859 0380 FFF7FEFF 		bl	xchg_spi
 1860              	.LVL307:
 1861 0384 013C     		sub	r4, r4, #1
 1862              	.LVL308:
 1863              	.L136:
 1864              		.loc 1 573 0 discriminator 1
 1865 0386 002C     		cmp	r4, #0
 1866 0388 F9D1     		bne	.L137
 574:.\mmc_avr_usart.c **** 			if ((xchg_spi(0xFF) & 0x1F) == 0x05) res = RES_OK;
 1867              		.loc 1 574 0 is_stmt 1
 1868 038a FF20     		mov	r0, #255
 1869 038c FFF7FEFF 		bl	xchg_spi
 1870              	.LVL309:
 1871 0390 1F23     		mov	r3, #31
 1872 0392 1840     		and	r0, r3
 1873 0394 0528     		cmp	r0, #5
 1874 0396 03D0     		beq	.L159
 457:.\mmc_avr_usart.c **** 	switch (cmd) {
 1875              		.loc 1 457 0
 1876 0398 0134     		add	r4, r4, #1
 1877              	.LVL310:
ARM GAS  C:\Users\Petro\AppData\Local\Temp\cc2LUvQB.s 			page 45


 1878 039a 02E0     		b	.L135
 1879              	.LVL311:
 1880              	.L158:
 1881 039c 0124     		mov	r4, #1
 1882              	.LVL312:
 1883 039e 00E0     		b	.L135
 1884              	.LVL313:
 1885              	.L159:
 1886              		.loc 1 574 0
 1887 03a0 0024     		mov	r4, #0
 1888              	.LVL314:
 1889              	.L135:
 575:.\mmc_avr_usart.c **** 		}
 576:.\mmc_avr_usart.c **** 		deselect();
 1890              		.loc 1 576 0
 1891 03a2 FFF7FEFF 		bl	deselect
 1892              	.LVL315:
 577:.\mmc_avr_usart.c **** 		break;
 1893              		.loc 1 577 0
 1894 03a6 00E0     		b	.L95
 1895              	.LVL316:
 1896              	.L139:
 578:.\mmc_avr_usart.c **** #endif
 579:.\mmc_avr_usart.c **** 	default:
 580:.\mmc_avr_usart.c **** 		res = RES_PARERR;
 1897              		.loc 1 580 0
 1898 03a8 0424     		mov	r4, #4
 1899              	.LVL317:
 1900              	.L95:
 581:.\mmc_avr_usart.c **** 	}
 582:.\mmc_avr_usart.c **** 
 583:.\mmc_avr_usart.c **** 	return res;
 1901              		.loc 1 583 0
 1902 03aa 201C     		mov	r0, r4
 1903 03ac 00E0     		b	.L94
 1904              	.LVL318:
 1905              	.L138:
 455:.\mmc_avr_usart.c **** 
 1906              		.loc 1 455 0
 1907 03ae 0320     		mov	r0, #3
 1908              	.LVL319:
 1909              	.L94:
 584:.\mmc_avr_usart.c **** }
 1910              		.loc 1 584 0
 1911 03b0 05B0     		add	sp, sp, #20
 1912              		@ sp needed
 1913 03b2 F0BD     		pop	{r4, r5, r6, r7, pc}
 1914              	.L163:
 1915              		.align	2
 1916              	.L162:
 1917 03b4 01020000 		.word	513
 1918              		.cfi_endproc
 1919              	.LFE17:
 1920              		.size	mmc_disk_ioctl, .-mmc_disk_ioctl
 1921              		.section	.text.mmc_disk_timerproc,"ax",%progbits
 1922              		.align	2
 1923              		.global	mmc_disk_timerproc
ARM GAS  C:\Users\Petro\AppData\Local\Temp\cc2LUvQB.s 			page 46


 1924              		.code	16
 1925              		.thumb_func
 1926              		.type	mmc_disk_timerproc, %function
 1927              	mmc_disk_timerproc:
 1928              	.LFB18:
 585:.\mmc_avr_usart.c **** #endif
 586:.\mmc_avr_usart.c **** 
 587:.\mmc_avr_usart.c **** 
 588:.\mmc_avr_usart.c **** /*-----------------------------------------------------------------------*/
 589:.\mmc_avr_usart.c **** /* Device Timer Interrupt Procedure                                      */
 590:.\mmc_avr_usart.c **** /*-----------------------------------------------------------------------*/
 591:.\mmc_avr_usart.c **** /* This function must be called in period of 10ms                        */
 592:.\mmc_avr_usart.c **** 
 593:.\mmc_avr_usart.c **** void mmc_disk_timerproc (void)
 594:.\mmc_avr_usart.c **** {
 1929              		.loc 1 594 0
 1930              		.cfi_startproc
 595:.\mmc_avr_usart.c ****     
 596:.\mmc_avr_usart.c **** }
 1931              		.loc 1 596 0
 1932              		@ sp needed
 1933 0000 7047     		bx	lr
 1934              		.cfi_endproc
 1935              	.LFE18:
 1936              		.size	mmc_disk_timerproc, .-mmc_disk_timerproc
 1937 0002 C046     		.data
 1938              		.set	.LANCHOR1,. + 0
 1939              		.type	Stat, %object
 1940              		.size	Stat, 1
 1941              	Stat:
 1942 0000 01       		.byte	1
 1943              		.bss
 1944              		.set	.LANCHOR0,. + 0
 1945              		.type	Timer1, %object
 1946              		.size	Timer1, 1
 1947              	Timer1:
 1948 0000 00       		.space	1
 1949              		.type	CardType, %object
 1950              		.size	CardType, 1
 1951              	CardType:
 1952 0001 00       		.space	1
 1953              		.type	Timer2, %object
 1954              		.size	Timer2, 1
 1955              	Timer2:
 1956 0002 00       		.space	1
 1957              		.text
 1958              	.Letext0:
 1959              		.file 2 "c:\\program files (x86)\\cypress\\psoc creator\\3.3\\psoc creator\\import\\gnu\\arm\\4.9.
 1960              		.file 3 "c:\\program files (x86)\\cypress\\psoc creator\\3.3\\psoc creator\\import\\gnu\\arm\\4.9.
 1961              		.file 4 "Generated_Source\\PSoC4/cytypes.h"
 1962              		.file 5 ".\\integer.h"
 1963              		.file 6 ".\\diskio.h"
 1964              		.file 7 ".\\HW_SPI.h"
 1965              		.file 8 "Generated_Source\\PSoC4/CyLib.h"