ARM GAS  C:\Users\Petro\AppData\Local\Temp\ccLLMBs2.s 			page 1


   1              		.cpu cortex-m0
   2              		.fpu softvfp
   3              		.eabi_attribute 20, 1
   4              		.eabi_attribute 21, 1
   5              		.eabi_attribute 23, 3
   6              		.eabi_attribute 24, 1
   7              		.eabi_attribute 25, 1
   8              		.eabi_attribute 26, 1
   9              		.eabi_attribute 30, 1
  10              		.eabi_attribute 34, 0
  11              		.eabi_attribute 18, 4
  12              		.code	16
  13              		.file	"pff.c"
  14              		.text
  15              	.Ltext0:
  16              		.cfi_sections	.debug_frame
  17              		.section	.text.mem_set,"ax",%progbits
  18              		.align	2
  19              		.code	16
  20              		.thumb_func
  21              		.type	mem_set, %function
  22              	mem_set:
  23              	.LFB0:
  24              		.file 1 ".\\pff.c"
   1:.\pff.c       **** /*----------------------------------------------------------------------------/
   2:.\pff.c       **** /  Petit FatFs - FAT file system module  R0.03                (C)ChaN, 2014
   3:.\pff.c       **** /-----------------------------------------------------------------------------/
   4:.\pff.c       **** / Petit FatFs module is a generic FAT file system module for small embedded
   5:.\pff.c       **** / systems. This is a free software that opened for education, research and
   6:.\pff.c       **** / commercial developments under license policy of following trems.
   7:.\pff.c       **** /
   8:.\pff.c       **** /  Copyright (C) 2014, ChaN, all right reserved.
   9:.\pff.c       **** /
  10:.\pff.c       **** / * The Petit FatFs module is a free software and there is NO WARRANTY.
  11:.\pff.c       **** / * No restriction on use. You can use, modify and redistribute it for
  12:.\pff.c       **** /   personal, non-profit or commercial products UNDER YOUR RESPONSIBILITY.
  13:.\pff.c       **** / * Redistributions of source code must retain the above copyright notice.
  14:.\pff.c       **** /
  15:.\pff.c       **** /-----------------------------------------------------------------------------/
  16:.\pff.c       **** / Jun 15,'09  R0.01a  First release.
  17:.\pff.c       **** /
  18:.\pff.c       **** / Dec 14,'09  R0.02   Added multiple code page support.
  19:.\pff.c       **** /                     Added write funciton.
  20:.\pff.c       **** /                     Changed stream read mode interface.
  21:.\pff.c       **** / Dec 07,'10  R0.02a  Added some configuration options.
  22:.\pff.c       **** /                     Fixed fails to open objects with DBCS character.
  23:.\pff.c       **** 
  24:.\pff.c       **** / Jun 10,'14  R0.03   Separated out configuration options to pffconf.h.
  25:.\pff.c       **** /                     Added _USE_LCC option.
  26:.\pff.c       **** /                     Added _FS_FAT16 option.
  27:.\pff.c       **** /----------------------------------------------------------------------------*/
  28:.\pff.c       **** 
  29:.\pff.c       **** #include "pff.h"		/* Petit FatFs configurations and declarations */
  30:.\pff.c       **** #include "diskio.h"		/* Declarations of low level disk I/O functions */
  31:.\pff.c       **** 
  32:.\pff.c       **** 
  33:.\pff.c       **** 
ARM GAS  C:\Users\Petro\AppData\Local\Temp\ccLLMBs2.s 			page 2


  34:.\pff.c       **** /*--------------------------------------------------------------------------
  35:.\pff.c       **** 
  36:.\pff.c       ****    Module Private Definitions
  37:.\pff.c       **** 
  38:.\pff.c       **** ---------------------------------------------------------------------------*/
  39:.\pff.c       **** 
  40:.\pff.c       **** 
  41:.\pff.c       **** #if _PFATFS != 4004	/* Revision ID */
  42:.\pff.c       **** #error Wrong include file (pff.h).
  43:.\pff.c       **** #endif
  44:.\pff.c       **** 
  45:.\pff.c       **** #if _FS_FAT32
  46:.\pff.c       **** #if !_FS_FAT16 && !_FS_FAT12
  47:.\pff.c       **** #define _FS_32ONLY 1
  48:.\pff.c       **** #else
  49:.\pff.c       **** #define _FS_32ONLY 0
  50:.\pff.c       **** #endif
  51:.\pff.c       **** #else
  52:.\pff.c       **** #if !_FS_FAT16 && !_FS_FAT12
  53:.\pff.c       **** #error Wrong _FS_FATxx setting.
  54:.\pff.c       **** #endif
  55:.\pff.c       **** #define _FS_32ONLY 0
  56:.\pff.c       **** #endif
  57:.\pff.c       **** 
  58:.\pff.c       **** #define ABORT(err)	{fs->flag = 0; return err;}
  59:.\pff.c       **** 
  60:.\pff.c       **** 
  61:.\pff.c       **** 
  62:.\pff.c       **** /*--------------------------------------------------------*/
  63:.\pff.c       **** /* DBCS code ranges and SBCS extend char conversion table */
  64:.\pff.c       **** /*--------------------------------------------------------*/
  65:.\pff.c       **** 
  66:.\pff.c       **** #if _CODE_PAGE == 932	/* Japanese Shift-JIS */
  67:.\pff.c       **** #define _DF1S	0x81	/* DBC 1st byte range 1 start */
  68:.\pff.c       **** #define _DF1E	0x9F	/* DBC 1st byte range 1 end */
  69:.\pff.c       **** #define _DF2S	0xE0	/* DBC 1st byte range 2 start */
  70:.\pff.c       **** #define _DF2E	0xFC	/* DBC 1st byte range 2 end */
  71:.\pff.c       **** #define _DS1S	0x40	/* DBC 2nd byte range 1 start */
  72:.\pff.c       **** #define _DS1E	0x7E	/* DBC 2nd byte range 1 end */
  73:.\pff.c       **** #define _DS2S	0x80	/* DBC 2nd byte range 2 start */
  74:.\pff.c       **** #define _DS2E	0xFC	/* DBC 2nd byte range 2 end */
  75:.\pff.c       **** 
  76:.\pff.c       **** #elif _CODE_PAGE == 936	/* Simplified Chinese GBK */
  77:.\pff.c       **** #define _DF1S	0x81
  78:.\pff.c       **** #define _DF1E	0xFE
  79:.\pff.c       **** #define _DS1S	0x40
  80:.\pff.c       **** #define _DS1E	0x7E
  81:.\pff.c       **** #define _DS2S	0x80
  82:.\pff.c       **** #define _DS2E	0xFE
  83:.\pff.c       **** 
  84:.\pff.c       **** #elif _CODE_PAGE == 949	/* Korean */
  85:.\pff.c       **** #define _DF1S	0x81
  86:.\pff.c       **** #define _DF1E	0xFE
  87:.\pff.c       **** #define _DS1S	0x41
  88:.\pff.c       **** #define _DS1E	0x5A
  89:.\pff.c       **** #define _DS2S	0x61
  90:.\pff.c       **** #define _DS2E	0x7A
ARM GAS  C:\Users\Petro\AppData\Local\Temp\ccLLMBs2.s 			page 3


  91:.\pff.c       **** #define _DS3S	0x81
  92:.\pff.c       **** #define _DS3E	0xFE
  93:.\pff.c       **** 
  94:.\pff.c       **** #elif _CODE_PAGE == 950	/* Traditional Chinese Big5 */
  95:.\pff.c       **** #define _DF1S	0x81
  96:.\pff.c       **** #define _DF1E	0xFE
  97:.\pff.c       **** #define _DS1S	0x40
  98:.\pff.c       **** #define _DS1E	0x7E
  99:.\pff.c       **** #define _DS2S	0xA1
 100:.\pff.c       **** #define _DS2E	0xFE
 101:.\pff.c       **** 
 102:.\pff.c       **** #elif _CODE_PAGE == 437	/* U.S. (OEM) */
 103:.\pff.c       **** #define _EXCVT {0x80,0x9A,0x90,0x41,0x8E,0x41,0x8F,0x80,0x45,0x45,0x45,0x49,0x49,0x49,0x8E,0x8F,0x9
 104:.\pff.c       **** 				0x41,0x49,0x4F,0x55,0xA5,0xA5,0xA6,0xA7,0xA8,0xA9,0xAA,0xAB,0xAC,0x21,0xAE,0xAF,0xB0,0xB1,0xB2,
 105:.\pff.c       **** 				0xC0,0xC1,0xC2,0xC3,0xC4,0xC5,0xC6,0xC7,0xC8,0xC9,0xCA,0xCB,0xCC,0xCD,0xCE,0xCF,0xD0,0xD1,0xD2,
 106:.\pff.c       **** 				0xE0,0xE1,0xE2,0xE3,0xE4,0xE5,0xE6,0xE7,0xE8,0xE9,0xEA,0xEB,0xEC,0xED,0xEE,0xEF,0xF0,0xF1,0xF2,
 107:.\pff.c       **** 
 108:.\pff.c       **** #elif _CODE_PAGE == 720	/* Arabic (OEM) */
 109:.\pff.c       **** #define _EXCVT {0x80,0x81,0x45,0x41,0x84,0x41,0x86,0x43,0x45,0x45,0x45,0x49,0x49,0x8D,0x8E,0x8F,0x9
 110:.\pff.c       **** 				0xA0,0xA1,0xA2,0xA3,0xA4,0xA5,0xA6,0xA7,0xA8,0xA9,0xAA,0xAB,0xAC,0xAD,0xAE,0xAF,0xB0,0xB1,0xB2,
 111:.\pff.c       **** 				0xC0,0xC1,0xC2,0xC3,0xC4,0xC5,0xC6,0xC7,0xC8,0xC9,0xCA,0xCB,0xCC,0xCD,0xCE,0xCF,0xD0,0xD1,0xD2,
 112:.\pff.c       **** 				0xE0,0xE1,0xE2,0xE3,0xE4,0xE5,0xE6,0xE7,0xE8,0xE9,0xEA,0xEB,0xEC,0xED,0xEE,0xEF,0xF0,0xF1,0xF2,
 113:.\pff.c       **** 
 114:.\pff.c       **** #elif _CODE_PAGE == 737	/* Greek (OEM) */
 115:.\pff.c       **** #define _EXCVT {0x80,0x81,0x82,0x83,0x84,0x85,0x86,0x87,0x88,0x89,0x8A,0x8B,0x8C,0x8D,0x8E,0x8F,0x9
 116:.\pff.c       **** 				0x88,0x89,0x8A,0x8B,0x8C,0x8D,0x8E,0x8F,0x90,0x91,0xAA,0x92,0x93,0x94,0x95,0x96,0xB0,0xB1,0xB2,
 117:.\pff.c       **** 				0xC0,0xC1,0xC2,0xC3,0xC4,0xC5,0xC6,0xC7,0xC8,0xC9,0xCA,0xCB,0xCC,0xCD,0xCE,0xCF,0xD0,0xD1,0xD2,
 118:.\pff.c       **** 				0x97,0xEA,0xEB,0xEC,0xE4,0xED,0xEE,0xE7,0xE8,0xF1,0xEA,0xEB,0xEC,0xED,0xEE,0xEF,0xF0,0xF1,0xF2,
 119:.\pff.c       **** 
 120:.\pff.c       **** #elif _CODE_PAGE == 775	/* Baltic (OEM) */
 121:.\pff.c       **** #define _EXCVT {0x80,0x9A,0x91,0xA0,0x8E,0x95,0x8F,0x80,0xAD,0xED,0x8A,0x8A,0xA1,0x8D,0x8E,0x8F,0x9
 122:.\pff.c       **** 				0xA0,0xA1,0xE0,0xA3,0xA3,0xA5,0xA6,0xA7,0xA8,0xA9,0xAA,0xAB,0xAC,0xAD,0xAE,0xAF,0xB0,0xB1,0xB2,
 123:.\pff.c       **** 				0xC0,0xC1,0xC2,0xC3,0xC4,0xC5,0xC6,0xC7,0xC8,0xC9,0xCA,0xCB,0xCC,0xCD,0xCE,0xCF,0xB5,0xB6,0xB7,
 124:.\pff.c       **** 				0xE0,0xE1,0xE2,0xE3,0xE5,0xE5,0xE6,0xE3,0xE8,0xE8,0xEA,0xEA,0xEE,0xED,0xEE,0xEF,0xF0,0xF1,0xF2,
 125:.\pff.c       **** 
 126:.\pff.c       **** #elif _CODE_PAGE == 850	/* Multilingual Latin 1 (OEM) */
 127:.\pff.c       **** #define _EXCVT {0x80,0x9A,0x90,0xB6,0x8E,0xB7,0x8F,0x80,0xD2,0xD3,0xD4,0xD8,0xD7,0xDE,0x8E,0x8F,0x9
 128:.\pff.c       **** 				0xB5,0xD6,0xE0,0xE9,0xA5,0xA5,0xA6,0xA7,0xA8,0xA9,0xAA,0xAB,0xAC,0x21,0xAE,0xAF,0xB0,0xB1,0xB2,
 129:.\pff.c       **** 				0xC0,0xC1,0xC2,0xC3,0xC4,0xC5,0xC7,0xC7,0xC8,0xC9,0xCA,0xCB,0xCC,0xCD,0xCE,0xCF,0xD0,0xD1,0xD2,
 130:.\pff.c       **** 				0xE0,0xE1,0xE2,0xE3,0xE5,0xE5,0xE6,0xE7,0xE7,0xE9,0xEA,0xEB,0xED,0xED,0xEE,0xEF,0xF0,0xF1,0xF2,
 131:.\pff.c       **** 
 132:.\pff.c       **** #elif _CODE_PAGE == 852	/* Latin 2 (OEM) */
 133:.\pff.c       **** #define _EXCVT {0x80,0x9A,0x90,0xB6,0x8E,0xDE,0x8F,0x80,0x9D,0xD3,0x8A,0x8A,0xD7,0x8D,0x8E,0x8F,0x9
 134:.\pff.c       **** 				0xB5,0xD6,0xE0,0xE9,0xA4,0xA4,0xA6,0xA6,0xA8,0xA8,0xAA,0x8D,0xAC,0xB8,0xAE,0xAF,0xB0,0xB1,0xB2,
 135:.\pff.c       **** 				0xC0,0xC1,0xC2,0xC3,0xC4,0xC5,0xC6,0xC6,0xC8,0xC9,0xCA,0xCB,0xCC,0xCD,0xCE,0xCF,0xD1,0xD1,0xD2,
 136:.\pff.c       **** 				0xE0,0xE1,0xE2,0xE3,0xE3,0xD5,0xE6,0xE6,0xE8,0xE9,0xE8,0xEB,0xED,0xED,0xDD,0xEF,0xF0,0xF1,0xF2,
 137:.\pff.c       **** 
 138:.\pff.c       **** #elif _CODE_PAGE == 855	/* Cyrillic (OEM) */
 139:.\pff.c       **** #define _EXCVT {0x81,0x81,0x83,0x83,0x85,0x85,0x87,0x87,0x89,0x89,0x8B,0x8B,0x8D,0x8D,0x8F,0x8F,0x9
 140:.\pff.c       **** 				0xA1,0xA1,0xA3,0xA3,0xA5,0xA5,0xA7,0xA7,0xA9,0xA9,0xAB,0xAB,0xAD,0xAD,0xAE,0xAF,0xB0,0xB1,0xB2,
 141:.\pff.c       **** 				0xC0,0xC1,0xC2,0xC3,0xC4,0xC5,0xC7,0xC7,0xC8,0xC9,0xCA,0xCB,0xCC,0xCD,0xCE,0xCF,0xD1,0xD1,0xD3,
 142:.\pff.c       **** 				0xE0,0xE2,0xE2,0xE4,0xE4,0xE6,0xE6,0xE8,0xE8,0xEA,0xEA,0xEC,0xEC,0xEE,0xEE,0xEF,0xF0,0xF2,0xF2,
 143:.\pff.c       **** 
 144:.\pff.c       **** #elif _CODE_PAGE == 857	/* Turkish (OEM) */
 145:.\pff.c       **** #define _EXCVT {0x80,0x9A,0x90,0xB6,0x8E,0xB7,0x8F,0x80,0xD2,0xD3,0xD4,0xD8,0xD7,0x98,0x8E,0x8F,0x9
 146:.\pff.c       **** 				0xB5,0xD6,0xE0,0xE9,0xA5,0xA5,0xA6,0xA6,0xA8,0xA9,0xAA,0xAB,0xAC,0x21,0xAE,0xAF,0xB0,0xB1,0xB2,
 147:.\pff.c       **** 				0xC0,0xC1,0xC2,0xC3,0xC4,0xC5,0xC7,0xC7,0xC8,0xC9,0xCA,0xCB,0xCC,0xCD,0xCE,0xCF,0xD0,0xD1,0xD2,
ARM GAS  C:\Users\Petro\AppData\Local\Temp\ccLLMBs2.s 			page 4


 148:.\pff.c       **** 				0xE0,0xE1,0xE2,0xE3,0xE5,0xE5,0xE6,0xE7,0xE8,0xE9,0xEA,0xEB,0xDE,0x59,0xEE,0xEF,0xF0,0xF1,0xF2,
 149:.\pff.c       **** 
 150:.\pff.c       **** #elif _CODE_PAGE == 858	/* Multilingual Latin 1 + Euro (OEM) */
 151:.\pff.c       **** #define _EXCVT {0x80,0x9A,0x90,0xB6,0x8E,0xB7,0x8F,0x80,0xD2,0xD3,0xD4,0xD8,0xD7,0xDE,0x8E,0x8F,0x9
 152:.\pff.c       **** 				0xB5,0xD6,0xE0,0xE9,0xA5,0xA5,0xA6,0xA7,0xA8,0xA9,0xAA,0xAB,0xAC,0x21,0xAE,0xAF,0xB0,0xB1,0xB2,
 153:.\pff.c       **** 				0xC0,0xC1,0xC2,0xC3,0xC4,0xC5,0xC7,0xC7,0xC8,0xC9,0xCA,0xCB,0xCC,0xCD,0xCE,0xCF,0xD1,0xD1,0xD2,
 154:.\pff.c       **** 				0xE0,0xE1,0xE2,0xE3,0xE5,0xE5,0xE6,0xE7,0xE7,0xE9,0xEA,0xEB,0xED,0xED,0xEE,0xEF,0xF0,0xF1,0xF2,
 155:.\pff.c       **** 
 156:.\pff.c       **** #elif _CODE_PAGE == 862	/* Hebrew (OEM) */
 157:.\pff.c       **** #define _EXCVT {0x80,0x81,0x82,0x83,0x84,0x85,0x86,0x87,0x88,0x89,0x8A,0x8B,0x8C,0x8D,0x8E,0x8F,0x9
 158:.\pff.c       **** 				0x41,0x49,0x4F,0x55,0xA5,0xA5,0xA6,0xA7,0xA8,0xA9,0xAA,0xAB,0xAC,0x21,0xAE,0xAF,0xB0,0xB1,0xB2,
 159:.\pff.c       **** 				0xC0,0xC1,0xC2,0xC3,0xC4,0xC5,0xC6,0xC7,0xC8,0xC9,0xCA,0xCB,0xCC,0xCD,0xCE,0xCF,0xD0,0xD1,0xD2,
 160:.\pff.c       **** 				0xE0,0xE1,0xE2,0xE3,0xE4,0xE5,0xE6,0xE7,0xE8,0xE9,0xEA,0xEB,0xEC,0xED,0xEE,0xEF,0xF0,0xF1,0xF2,
 161:.\pff.c       **** 
 162:.\pff.c       **** #elif _CODE_PAGE == 866	/* Russian (OEM) */
 163:.\pff.c       **** #define _EXCVT {0x80,0x81,0x82,0x83,0x84,0x85,0x86,0x87,0x88,0x89,0x8A,0x8B,0x8C,0x8D,0x8E,0x8F,0x9
 164:.\pff.c       **** 				0x80,0x81,0x82,0x83,0x84,0x85,0x86,0x87,0x88,0x89,0x8A,0x8B,0x8C,0x8D,0x8E,0x8F,0xB0,0xB1,0xB2,
 165:.\pff.c       **** 				0xC0,0xC1,0xC2,0xC3,0xC4,0xC5,0xC6,0xC7,0xC8,0xC9,0xCA,0xCB,0xCC,0xCD,0xCE,0xCF,0xD0,0xD1,0xD2,
 166:.\pff.c       **** 				0x90,0x91,0x92,0x93,0x9d,0x95,0x96,0x97,0x98,0x99,0x9A,0x9B,0x9C,0x9D,0x9E,0x9F,0xF0,0xF0,0xF2,
 167:.\pff.c       **** 
 168:.\pff.c       **** #elif _CODE_PAGE == 874	/* Thai (OEM, Windows) */
 169:.\pff.c       **** #define _EXCVT {0x80,0x81,0x82,0x83,0x84,0x85,0x86,0x87,0x88,0x89,0x8A,0x8B,0x8C,0x8D,0x8E,0x8F,0x9
 170:.\pff.c       **** 				0xA0,0xA1,0xA2,0xA3,0xA4,0xA5,0xA6,0xA7,0xA8,0xA9,0xAA,0xAB,0xAC,0xAD,0xAE,0xAF,0xB0,0xB1,0xB2,
 171:.\pff.c       **** 				0xC0,0xC1,0xC2,0xC3,0xC4,0xC5,0xC6,0xC7,0xC8,0xC9,0xCA,0xCB,0xCC,0xCD,0xCE,0xCF,0xD0,0xD1,0xD2,
 172:.\pff.c       **** 				0xE0,0xE1,0xE2,0xE3,0xE4,0xE5,0xE6,0xE7,0xE8,0xE9,0xEA,0xEB,0xEC,0xED,0xEE,0xEF,0xF0,0xF1,0xF2,
 173:.\pff.c       **** 
 174:.\pff.c       **** #elif _CODE_PAGE == 1250 /* Central Europe (Windows) */
 175:.\pff.c       **** #define _EXCVT {0x80,0x81,0x82,0x83,0x84,0x85,0x86,0x87,0x88,0x89,0x8A,0x8B,0x8C,0x8D,0x8E,0x8F,0x9
 176:.\pff.c       **** 				0xA0,0xA1,0xA2,0xA3,0xA4,0xA5,0xA6,0xA7,0xA8,0xA9,0xAA,0xAB,0xAC,0xAD,0xAE,0xAF,0xB0,0xB1,0xB2,
 177:.\pff.c       **** 				0xC0,0xC1,0xC2,0xC3,0xC4,0xC5,0xC6,0xC7,0xC8,0xC9,0xCA,0xCB,0xCC,0xCD,0xCE,0xCF,0xD0,0xD1,0xD2,
 178:.\pff.c       **** 				0xC0,0xC1,0xC2,0xC3,0xC4,0xC5,0xC6,0xC7,0xC8,0xC9,0xCA,0xCB,0xCC,0xCD,0xCE,0xCF,0xD0,0xD1,0xD2,
 179:.\pff.c       **** 
 180:.\pff.c       **** #elif _CODE_PAGE == 1251 /* Cyrillic (Windows) */
 181:.\pff.c       **** #define _EXCVT {0x80,0x81,0x82,0x82,0x84,0x85,0x86,0x87,0x88,0x89,0x8A,0x8B,0x8C,0x8D,0x8E,0x8F,0x8
 182:.\pff.c       **** 				0xA0,0xA2,0xA2,0xA3,0xA4,0xA5,0xA6,0xA7,0xA8,0xA9,0xAA,0xAB,0xAC,0xAD,0xAE,0xAF,0xB0,0xB1,0xB2,
 183:.\pff.c       **** 				0xC0,0xC1,0xC2,0xC3,0xC4,0xC5,0xC6,0xC7,0xC8,0xC9,0xCA,0xCB,0xCC,0xCD,0xCE,0xCF,0xD0,0xD1,0xD2,
 184:.\pff.c       **** 				0xC0,0xC1,0xC2,0xC3,0xC4,0xC5,0xC6,0xC7,0xC8,0xC9,0xCA,0xCB,0xCC,0xCD,0xCE,0xCF,0xD0,0xD1,0xD2,
 185:.\pff.c       **** 
 186:.\pff.c       **** #elif _CODE_PAGE == 1252 /* Latin 1 (Windows) */
 187:.\pff.c       **** #define _EXCVT {0x80,0x81,0x82,0x83,0x84,0x85,0x86,0x87,0x88,0x89,0x8A,0x8B,0x8C,0x8D,0x8E,0x8F,0x9
 188:.\pff.c       **** 				0xA0,0x21,0xA2,0xA3,0xA4,0xA5,0xA6,0xA7,0xA8,0xA9,0xAA,0xAB,0xAC,0xAD,0xAE,0xAF,0xB0,0xB1,0xB2,
 189:.\pff.c       **** 				0xC0,0xC1,0xC2,0xC3,0xC4,0xC5,0xC6,0xC7,0xC8,0xC9,0xCA,0xCB,0xCC,0xCD,0xCE,0xCF,0xD0,0xD1,0xD2,
 190:.\pff.c       **** 				0xC0,0xC1,0xC2,0xC3,0xC4,0xC5,0xC6,0xC7,0xC8,0xC9,0xCA,0xCB,0xCC,0xCD,0xCE,0xCF,0xD0,0xD1,0xD2,
 191:.\pff.c       **** 
 192:.\pff.c       **** #elif _CODE_PAGE == 1253 /* Greek (Windows) */
 193:.\pff.c       **** #define _EXCVT {0x80,0x81,0x82,0x83,0x84,0x85,0x86,0x87,0x88,0x89,0x8A,0x8B,0x8C,0x8D,0x8E,0x8F,0x9
 194:.\pff.c       **** 				0xA0,0xA1,0xA2,0xA3,0xA4,0xA5,0xA6,0xA7,0xA8,0xA9,0xAA,0xAB,0xAC,0xAD,0xAE,0xAF,0xB0,0xB1,0xB2,
 195:.\pff.c       **** 				0xC0,0xC1,0xC2,0xC3,0xC4,0xC5,0xC6,0xC7,0xC8,0xC9,0xCA,0xCB,0xCC,0xCD,0xCE,0xCF,0xD0,0xD1,0xD2,
 196:.\pff.c       **** 				0xE0,0xC1,0xC2,0xC3,0xC4,0xC5,0xC6,0xC7,0xC8,0xC9,0xCA,0xCB,0xCC,0xCD,0xCE,0xCF,0xD0,0xD1,0xF2,
 197:.\pff.c       **** 
 198:.\pff.c       **** #elif _CODE_PAGE == 1254 /* Turkish (Windows) */
 199:.\pff.c       **** #define _EXCVT {0x80,0x81,0x82,0x83,0x84,0x85,0x86,0x87,0x88,0x89,0x8A,0x8B,0x8C,0x8D,0x8E,0x8F,0x9
 200:.\pff.c       **** 				0xA0,0x21,0xA2,0xA3,0xA4,0xA5,0xA6,0xA7,0xA8,0xA9,0xAA,0xAB,0xAC,0xAD,0xAE,0xAF,0xB0,0xB1,0xB2,
 201:.\pff.c       **** 				0xC0,0xC1,0xC2,0xC3,0xC4,0xC5,0xC6,0xC7,0xC8,0xC9,0xCA,0xCB,0xCC,0xCD,0xCE,0xCF,0xD0,0xD1,0xD2,
 202:.\pff.c       **** 				0xC0,0xC1,0xC2,0xC3,0xC4,0xC5,0xC6,0xC7,0xC8,0xC9,0xCA,0xCB,0xCC,0xCD,0xCE,0xCF,0xD0,0xD1,0xD2,
 203:.\pff.c       **** 
 204:.\pff.c       **** #elif _CODE_PAGE == 1255 /* Hebrew (Windows) */
ARM GAS  C:\Users\Petro\AppData\Local\Temp\ccLLMBs2.s 			page 5


 205:.\pff.c       **** #define _EXCVT {0x80,0x81,0x82,0x83,0x84,0x85,0x86,0x87,0x88,0x89,0x8A,0x8B,0x8C,0x8D,0x8E,0x8F,0x9
 206:.\pff.c       **** 				0xA0,0x21,0xA2,0xA3,0xA4,0xA5,0xA6,0xA7,0xA8,0xA9,0xAA,0xAB,0xAC,0xAD,0xAE,0xAF,0xB0,0xB1,0xB2,
 207:.\pff.c       **** 				0xC0,0xC1,0xC2,0xC3,0xC4,0xC5,0xC6,0xC7,0xC8,0xC9,0xCA,0xCB,0xCC,0xCD,0xCE,0xCF,0xD0,0xD1,0xD2,
 208:.\pff.c       **** 				0xE0,0xE1,0xE2,0xE3,0xE4,0xE5,0xE6,0xE7,0xE8,0xE9,0xEA,0xEB,0xEC,0xED,0xEE,0xEF,0xF0,0xF1,0xF2,
 209:.\pff.c       **** 
 210:.\pff.c       **** #elif _CODE_PAGE == 1256 /* Arabic (Windows) */
 211:.\pff.c       **** #define _EXCVT {0x80,0x81,0x82,0x83,0x84,0x85,0x86,0x87,0x88,0x89,0x8A,0x8B,0x8C,0x8D,0x8E,0x8F,0x9
 212:.\pff.c       **** 				0xA0,0xA1,0xA2,0xA3,0xA4,0xA5,0xA6,0xA7,0xA8,0xA9,0xAA,0xAB,0xAC,0xAD,0xAE,0xAF,0xB0,0xB1,0xB2,
 213:.\pff.c       **** 				0xC0,0xC1,0xC2,0xC3,0xC4,0xC5,0xC6,0xC7,0xC8,0xC9,0xCA,0xCB,0xCC,0xCD,0xCE,0xCF,0xD0,0xD1,0xD2,
 214:.\pff.c       **** 				0x41,0xE1,0x41,0xE3,0xE4,0xE5,0xE6,0x43,0x45,0x45,0x45,0x45,0xEC,0xED,0x49,0x49,0xF0,0xF1,0xF2,
 215:.\pff.c       **** 
 216:.\pff.c       **** #elif _CODE_PAGE == 1257 /* Baltic (Windows) */
 217:.\pff.c       **** #define _EXCVT {0x80,0x81,0x82,0x83,0x84,0x85,0x86,0x87,0x88,0x89,0x8A,0x8B,0x8C,0x8D,0x8E,0x8F,0x9
 218:.\pff.c       **** 				0xA0,0xA1,0xA2,0xA3,0xA4,0xA5,0xA6,0xA7,0xA8,0xA9,0xAA,0xAB,0xAC,0xAD,0xAE,0xAF,0xB0,0xB1,0xB2,
 219:.\pff.c       **** 				0xC0,0xC1,0xC2,0xC3,0xC4,0xC5,0xC6,0xC7,0xC8,0xC9,0xCA,0xCB,0xCC,0xCD,0xCE,0xCF,0xD0,0xD1,0xD2,
 220:.\pff.c       **** 				0xC0,0xC1,0xC2,0xC3,0xC4,0xC5,0xC6,0xC7,0xC8,0xC9,0xCA,0xCB,0xCC,0xCD,0xCE,0xCF,0xD0,0xD1,0xD2,
 221:.\pff.c       **** 
 222:.\pff.c       **** #elif _CODE_PAGE == 1258 /* Vietnam (OEM, Windows) */
 223:.\pff.c       **** #define _EXCVT {0x80,0x81,0x82,0x83,0x84,0x85,0x86,0x87,0x88,0x89,0x8A,0x8B,0x8C,0x8D,0x8E,0x8F,0x9
 224:.\pff.c       **** 				0xA0,0x21,0xA2,0xA3,0xA4,0xA5,0xA6,0xA7,0xA8,0xA9,0xAA,0xAB,0xAC,0xAD,0xAE,0xAF,0xB0,0xB1,0xB2,
 225:.\pff.c       **** 				0xC0,0xC1,0xC2,0xC3,0xC4,0xC5,0xC6,0xC7,0xC8,0xC9,0xCA,0xCB,0xCC,0xCD,0xCE,0xCF,0xD0,0xD1,0xD2,
 226:.\pff.c       **** 				0xC0,0xC1,0xC2,0xC3,0xC4,0xC5,0xC6,0xC7,0xC8,0xC9,0xCA,0xCB,0xEC,0xCD,0xCE,0xCF,0xD0,0xD1,0xF2,
 227:.\pff.c       **** 
 228:.\pff.c       **** #else
 229:.\pff.c       **** #error Unknown code page.
 230:.\pff.c       **** 
 231:.\pff.c       **** #endif
 232:.\pff.c       **** 
 233:.\pff.c       **** 
 234:.\pff.c       **** 
 235:.\pff.c       **** /* Character code support macros */
 236:.\pff.c       **** 
 237:.\pff.c       **** #define IsUpper(c)	(((c)>='A')&&((c)<='Z'))
 238:.\pff.c       **** #define IsLower(c)	(((c)>='a')&&((c)<='z'))
 239:.\pff.c       **** 
 240:.\pff.c       **** #ifndef _EXCVT	/* DBCS configuration */
 241:.\pff.c       **** 
 242:.\pff.c       **** #ifdef _DF2S	/* Two 1st byte areas */
 243:.\pff.c       **** #define IsDBCS1(c)	(((BYTE)(c) >= _DF1S && (BYTE)(c) <= _DF1E) || ((BYTE)(c) >= _DF2S && (BYTE)(c) 
 244:.\pff.c       **** #else			/* One 1st byte area */
 245:.\pff.c       **** #define IsDBCS1(c)	((BYTE)(c) >= _DF1S && (BYTE)(c) <= _DF1E)
 246:.\pff.c       **** #endif
 247:.\pff.c       **** 
 248:.\pff.c       **** #ifdef _DS3S	/* Three 2nd byte areas */
 249:.\pff.c       **** #define IsDBCS2(c)	(((BYTE)(c) >= _DS1S && (BYTE)(c) <= _DS1E) || ((BYTE)(c) >= _DS2S && (BYTE)(c) 
 250:.\pff.c       **** #else			/* Two 2nd byte areas */
 251:.\pff.c       **** #define IsDBCS2(c)	(((BYTE)(c) >= _DS1S && (BYTE)(c) <= _DS1E) || ((BYTE)(c) >= _DS2S && (BYTE)(c) 
 252:.\pff.c       **** #endif
 253:.\pff.c       **** 
 254:.\pff.c       **** #else			/* SBCS configuration */
 255:.\pff.c       **** 
 256:.\pff.c       **** #define IsDBCS1(c)	0
 257:.\pff.c       **** #define IsDBCS2(c)	0
 258:.\pff.c       **** 
 259:.\pff.c       **** #endif /* _EXCVT */
 260:.\pff.c       **** 
 261:.\pff.c       **** 
ARM GAS  C:\Users\Petro\AppData\Local\Temp\ccLLMBs2.s 			page 6


 262:.\pff.c       **** /* FatFs refers the members in the FAT structures with byte offset instead
 263:.\pff.c       **** / of structure member because there are incompatibility of the packing option
 264:.\pff.c       **** / between various compilers. */
 265:.\pff.c       **** 
 266:.\pff.c       **** #define BS_jmpBoot			0
 267:.\pff.c       **** #define BS_OEMName			3
 268:.\pff.c       **** #define BPB_BytsPerSec		11
 269:.\pff.c       **** #define BPB_SecPerClus		13
 270:.\pff.c       **** #define BPB_RsvdSecCnt		14
 271:.\pff.c       **** #define BPB_NumFATs			16
 272:.\pff.c       **** #define BPB_RootEntCnt		17
 273:.\pff.c       **** #define BPB_TotSec16		19
 274:.\pff.c       **** #define BPB_Media			21
 275:.\pff.c       **** #define BPB_FATSz16			22
 276:.\pff.c       **** #define BPB_SecPerTrk		24
 277:.\pff.c       **** #define BPB_NumHeads		26
 278:.\pff.c       **** #define BPB_HiddSec			28
 279:.\pff.c       **** #define BPB_TotSec32		32
 280:.\pff.c       **** #define BS_55AA				510
 281:.\pff.c       **** 
 282:.\pff.c       **** #define BS_DrvNum			36
 283:.\pff.c       **** #define BS_BootSig			38
 284:.\pff.c       **** #define BS_VolID			39
 285:.\pff.c       **** #define BS_VolLab			43
 286:.\pff.c       **** #define BS_FilSysType		54
 287:.\pff.c       **** 
 288:.\pff.c       **** #define BPB_FATSz32			36
 289:.\pff.c       **** #define BPB_ExtFlags		40
 290:.\pff.c       **** #define BPB_FSVer			42
 291:.\pff.c       **** #define BPB_RootClus		44
 292:.\pff.c       **** #define BPB_FSInfo			48
 293:.\pff.c       **** #define BPB_BkBootSec		50
 294:.\pff.c       **** #define BS_DrvNum32			64
 295:.\pff.c       **** #define BS_BootSig32		66
 296:.\pff.c       **** #define BS_VolID32			67
 297:.\pff.c       **** #define BS_VolLab32			71
 298:.\pff.c       **** #define BS_FilSysType32		82
 299:.\pff.c       **** 
 300:.\pff.c       **** #define MBR_Table			446
 301:.\pff.c       **** 
 302:.\pff.c       **** #define	DIR_Name			0
 303:.\pff.c       **** #define	DIR_Attr			11
 304:.\pff.c       **** #define	DIR_NTres			12
 305:.\pff.c       **** #define	DIR_CrtTime			14
 306:.\pff.c       **** #define	DIR_CrtDate			16
 307:.\pff.c       **** #define	DIR_FstClusHI		20
 308:.\pff.c       **** #define	DIR_WrtTime			22
 309:.\pff.c       **** #define	DIR_WrtDate			24
 310:.\pff.c       **** #define	DIR_FstClusLO		26
 311:.\pff.c       **** #define	DIR_FileSize		28
 312:.\pff.c       **** 
 313:.\pff.c       **** 
 314:.\pff.c       **** 
 315:.\pff.c       **** /*--------------------------------------------------------------------------
 316:.\pff.c       **** 
 317:.\pff.c       ****    Private Functions
 318:.\pff.c       **** 
ARM GAS  C:\Users\Petro\AppData\Local\Temp\ccLLMBs2.s 			page 7


 319:.\pff.c       **** ---------------------------------------------------------------------------*/
 320:.\pff.c       **** 
 321:.\pff.c       **** 
 322:.\pff.c       **** static
 323:.\pff.c       **** FATFS *FatFs;	/* Pointer to the file system object (logical drive) */
 324:.\pff.c       **** 
 325:.\pff.c       **** 
 326:.\pff.c       **** /* Fill memory */
 327:.\pff.c       **** static
 328:.\pff.c       **** void mem_set (void* dst, int val, int cnt) {
  25              		.loc 1 328 0
  26              		.cfi_startproc
  27              	.LVL0:
 329:.\pff.c       **** 	char *d = (char*)dst;
 330:.\pff.c       **** 	while (cnt--) *d++ = (char)val;
  28              		.loc 1 330 0
  29 0000 02E0     		b	.L2
  30              	.LVL1:
  31              	.L3:
  32              		.loc 1 330 0 is_stmt 0 discriminator 2
  33 0002 0170     		strb	r1, [r0]
  34 0004 1A1C     		mov	r2, r3
  35 0006 0130     		add	r0, r0, #1
  36              	.LVL2:
  37              	.L2:
  38              		.loc 1 330 0 discriminator 1
  39 0008 531E     		sub	r3, r2, #1
  40              	.LVL3:
  41 000a 002A     		cmp	r2, #0
  42 000c F9D1     		bne	.L3
 331:.\pff.c       **** }
  43              		.loc 1 331 0 is_stmt 1
  44              		@ sp needed
  45 000e 7047     		bx	lr
  46              		.cfi_endproc
  47              	.LFE0:
  48              		.size	mem_set, .-mem_set
  49              		.section	.text.mem_cmp,"ax",%progbits
  50              		.align	2
  51              		.code	16
  52              		.thumb_func
  53              		.type	mem_cmp, %function
  54              	mem_cmp:
  55              	.LFB1:
 332:.\pff.c       **** 
 333:.\pff.c       **** /* Compare memory to memory */
 334:.\pff.c       **** static
 335:.\pff.c       **** int mem_cmp (const void* dst, const void* src, int cnt) {
  56              		.loc 1 335 0
  57              		.cfi_startproc
  58              	.LVL4:
  59 0000 70B5     		push	{r4, r5, r6, lr}
  60              		.cfi_def_cfa_offset 16
  61              		.cfi_offset 4, -16
  62              		.cfi_offset 5, -12
  63              		.cfi_offset 6, -8
  64              		.cfi_offset 14, -4
ARM GAS  C:\Users\Petro\AppData\Local\Temp\ccLLMBs2.s 			page 8


  65 0002 031C     		mov	r3, r0
  66              	.LVL5:
 336:.\pff.c       **** 	const char *d = (const char *)dst, *s = (const char *)src;
 337:.\pff.c       **** 	int r = 0;
  67              		.loc 1 337 0
  68 0004 0020     		mov	r0, #0
  69              	.LVL6:
 338:.\pff.c       **** 	while (cnt-- && (r = *d++ - *s++) == 0) ;
  70              		.loc 1 338 0
  71 0006 01E0     		b	.L6
  72              	.LVL7:
  73              	.L7:
  74 0008 291C     		mov	r1, r5
  75 000a 331C     		mov	r3, r6
  76              	.LVL8:
  77              	.L6:
  78              		.loc 1 338 0 is_stmt 0 discriminator 2
  79 000c 541E     		sub	r4, r2, #1
  80              	.LVL9:
  81 000e 002A     		cmp	r2, #0
  82 0010 07D0     		beq	.L5
  83              		.loc 1 338 0 discriminator 1
  84 0012 5E1C     		add	r6, r3, #1
  85              	.LVL10:
  86 0014 1B78     		ldrb	r3, [r3]
  87 0016 4D1C     		add	r5, r1, #1
  88              	.LVL11:
  89 0018 0878     		ldrb	r0, [r1]
  90              	.LVL12:
  91 001a 181A     		sub	r0, r3, r0
  92              	.LVL13:
  93 001c 221C     		mov	r2, r4
  94 001e 0028     		cmp	r0, #0
  95 0020 F2D0     		beq	.L7
  96              	.LVL14:
  97              	.L5:
 339:.\pff.c       **** 	return r;
 340:.\pff.c       **** }
  98              		.loc 1 340 0 is_stmt 1
  99              		@ sp needed
 100              	.LVL15:
 101 0022 70BD     		pop	{r4, r5, r6, pc}
 102              		.cfi_endproc
 103              	.LFE1:
 104              		.size	mem_cmp, .-mem_cmp
 105              		.section	.text.clust2sect,"ax",%progbits
 106              		.align	2
 107              		.code	16
 108              		.thumb_func
 109              		.type	clust2sect, %function
 110              	clust2sect:
 111              	.LFB3:
 341:.\pff.c       **** 
 342:.\pff.c       **** 
 343:.\pff.c       **** 
 344:.\pff.c       **** /*-----------------------------------------------------------------------*/
 345:.\pff.c       **** /* FAT access - Read value of a FAT entry                                */
ARM GAS  C:\Users\Petro\AppData\Local\Temp\ccLLMBs2.s 			page 9


 346:.\pff.c       **** /*-----------------------------------------------------------------------*/
 347:.\pff.c       **** 
 348:.\pff.c       **** static
 349:.\pff.c       **** CLUST get_fat (	/* 1:IO error, Else:Cluster status */
 350:.\pff.c       **** 	CLUST clst	/* Cluster# to get the link information */
 351:.\pff.c       **** )
 352:.\pff.c       **** {
 353:.\pff.c       **** 	BYTE buf[4];
 354:.\pff.c       **** 	FATFS *fs = FatFs;
 355:.\pff.c       **** 
 356:.\pff.c       **** 	if (clst < 2 || clst >= fs->n_fatent)	/* Range check */
 357:.\pff.c       **** 		return 1;
 358:.\pff.c       **** 
 359:.\pff.c       **** 	switch (fs->fs_type) {
 360:.\pff.c       **** #if _FS_FAT12
 361:.\pff.c       **** 	case FS_FAT12 : {
 362:.\pff.c       **** 		UINT wc, bc, ofs;
 363:.\pff.c       **** 
 364:.\pff.c       **** 		bc = (UINT)clst; bc += bc / 2;
 365:.\pff.c       **** 		ofs = bc % 512; bc /= 512;
 366:.\pff.c       **** 		if (ofs != 511) {
 367:.\pff.c       **** 			if (disk_readp(buf, fs->fatbase + bc, ofs, 2)) break;
 368:.\pff.c       **** 		} else {
 369:.\pff.c       **** 			if (disk_readp(buf, fs->fatbase + bc, 511, 1)) break;
 370:.\pff.c       **** 			if (disk_readp(buf+1, fs->fatbase + bc + 1, 0, 1)) break;
 371:.\pff.c       **** 		}
 372:.\pff.c       **** 		wc = LD_WORD(buf);
 373:.\pff.c       **** 		return (clst & 1) ? (wc >> 4) : (wc & 0xFFF);
 374:.\pff.c       **** 	}
 375:.\pff.c       **** #endif
 376:.\pff.c       **** #if _FS_FAT16
 377:.\pff.c       **** 	case FS_FAT16 :
 378:.\pff.c       **** 		if (disk_readp(buf, fs->fatbase + clst / 256, ((UINT)clst % 256) * 2, 2)) break;
 379:.\pff.c       **** 		return LD_WORD(buf);
 380:.\pff.c       **** #endif
 381:.\pff.c       **** #if _FS_FAT32
 382:.\pff.c       **** 	case FS_FAT32 :
 383:.\pff.c       **** 		if (disk_readp(buf, fs->fatbase + clst / 128, ((UINT)clst % 128) * 4, 4)) break;
 384:.\pff.c       **** 		return LD_DWORD(buf) & 0x0FFFFFFF;
 385:.\pff.c       **** #endif
 386:.\pff.c       **** 	}
 387:.\pff.c       **** 
 388:.\pff.c       **** 	return 1;	/* An error occured at the disk I/O layer */
 389:.\pff.c       **** }
 390:.\pff.c       **** 
 391:.\pff.c       **** 
 392:.\pff.c       **** 
 393:.\pff.c       **** 
 394:.\pff.c       **** /*-----------------------------------------------------------------------*/
 395:.\pff.c       **** /* Get sector# from cluster# / Get cluster field from directory entry    */
 396:.\pff.c       **** /*-----------------------------------------------------------------------*/
 397:.\pff.c       **** 
 398:.\pff.c       **** static
 399:.\pff.c       **** DWORD clust2sect (	/* !=0: Sector number, 0: Failed - invalid cluster# */
 400:.\pff.c       **** 	CLUST clst		/* Cluster# to be converted */
 401:.\pff.c       **** )
 402:.\pff.c       **** {
ARM GAS  C:\Users\Petro\AppData\Local\Temp\ccLLMBs2.s 			page 10


 112              		.loc 1 402 0
 113              		.cfi_startproc
 114              	.LVL16:
 403:.\pff.c       **** 	FATFS *fs = FatFs;
 115              		.loc 1 403 0
 116 0000 074B     		ldr	r3, .L11
 117 0002 1A68     		ldr	r2, [r3]
 118              	.LVL17:
 404:.\pff.c       **** 
 405:.\pff.c       **** 
 406:.\pff.c       **** 	clst -= 2;
 119              		.loc 1 406 0
 120 0004 0238     		sub	r0, r0, #2
 121              	.LVL18:
 122 0006 80B2     		uxth	r0, r0
 123              	.LVL19:
 407:.\pff.c       **** 	if (clst >= (fs->n_fatent - 2)) return 0;		/* Invalid cluster# */
 124              		.loc 1 407 0
 125 0008 D388     		ldrh	r3, [r2, #6]
 126 000a 023B     		sub	r3, r3, #2
 127 000c 9842     		cmp	r0, r3
 128 000e 04DA     		bge	.L10
 408:.\pff.c       **** 	return (DWORD)clst * fs->csize + fs->database;
 129              		.loc 1 408 0
 130 0010 9378     		ldrb	r3, [r2, #2]
 131 0012 5843     		mul	r0, r3
 132              	.LVL20:
 133 0014 1369     		ldr	r3, [r2, #16]
 134 0016 C018     		add	r0, r0, r3
 135 0018 00E0     		b	.L9
 136              	.LVL21:
 137              	.L10:
 407:.\pff.c       **** 	if (clst >= (fs->n_fatent - 2)) return 0;		/* Invalid cluster# */
 138              		.loc 1 407 0
 139 001a 0020     		mov	r0, #0
 140              	.LVL22:
 141              	.L9:
 409:.\pff.c       **** }
 142              		.loc 1 409 0
 143              		@ sp needed
 144 001c 7047     		bx	lr
 145              	.L12:
 146 001e C046     		.align	2
 147              	.L11:
 148 0020 00000000 		.word	.LANCHOR0
 149              		.cfi_endproc
 150              	.LFE3:
 151              		.size	clust2sect, .-clust2sect
 152              		.section	.text.get_clust,"ax",%progbits
 153              		.align	2
 154              		.code	16
 155              		.thumb_func
 156              		.type	get_clust, %function
 157              	get_clust:
 158              	.LFB4:
 410:.\pff.c       **** 
 411:.\pff.c       **** 
ARM GAS  C:\Users\Petro\AppData\Local\Temp\ccLLMBs2.s 			page 11


 412:.\pff.c       **** static
 413:.\pff.c       **** CLUST get_clust (
 414:.\pff.c       **** 	BYTE* dir		/* Pointer to directory entry */
 415:.\pff.c       **** )
 416:.\pff.c       **** {
 159              		.loc 1 416 0
 160              		.cfi_startproc
 161              	.LVL23:
 417:.\pff.c       **** 	FATFS *fs = FatFs;
 418:.\pff.c       **** 	CLUST clst = 0;
 419:.\pff.c       **** 
 420:.\pff.c       **** 
 421:.\pff.c       **** 	if (_FS_32ONLY || (_FS_FAT32 && fs->fs_type == FS_FAT32)) {
 422:.\pff.c       **** 		clst = LD_WORD(dir+DIR_FstClusHI);
 423:.\pff.c       **** 		clst <<= 16;
 424:.\pff.c       **** 	}
 425:.\pff.c       **** 	clst |= LD_WORD(dir+DIR_FstClusLO);
 162              		.loc 1 425 0
 163 0000 C27E     		ldrb	r2, [r0, #27]
 164 0002 1202     		lsl	r2, r2, #8
 165 0004 837E     		ldrb	r3, [r0, #26]
 166 0006 1A43     		orr	r2, r3
 167 0008 101C     		mov	r0, r2
 168              	.LVL24:
 426:.\pff.c       **** 
 427:.\pff.c       **** 	return clst;
 428:.\pff.c       **** }
 169              		.loc 1 428 0
 170              		@ sp needed
 171 000a 7047     		bx	lr
 172              		.cfi_endproc
 173              	.LFE4:
 174              		.size	get_clust, .-get_clust
 175              		.section	.text.dir_rewind,"ax",%progbits
 176              		.align	2
 177              		.code	16
 178              		.thumb_func
 179              		.type	dir_rewind, %function
 180              	dir_rewind:
 181              	.LFB5:
 429:.\pff.c       **** 
 430:.\pff.c       **** 
 431:.\pff.c       **** /*-----------------------------------------------------------------------*/
 432:.\pff.c       **** /* Directory handling - Rewind directory index                           */
 433:.\pff.c       **** /*-----------------------------------------------------------------------*/
 434:.\pff.c       **** 
 435:.\pff.c       **** static
 436:.\pff.c       **** FRESULT dir_rewind (
 437:.\pff.c       **** 	DIR *dj			/* Pointer to directory object */
 438:.\pff.c       **** )
 439:.\pff.c       **** {
 182              		.loc 1 439 0
 183              		.cfi_startproc
 184              	.LVL25:
 185 0000 10B5     		push	{r4, lr}
 186              		.cfi_def_cfa_offset 8
 187              		.cfi_offset 4, -8
ARM GAS  C:\Users\Petro\AppData\Local\Temp\ccLLMBs2.s 			page 12


 188              		.cfi_offset 14, -4
 440:.\pff.c       **** 	CLUST clst;
 441:.\pff.c       **** 	FATFS *fs = FatFs;
 189              		.loc 1 441 0
 190 0002 0D4B     		ldr	r3, .L20
 191 0004 1A68     		ldr	r2, [r3]
 192              	.LVL26:
 442:.\pff.c       **** 
 443:.\pff.c       **** 
 444:.\pff.c       **** 	dj->index = 0;
 193              		.loc 1 444 0
 194 0006 0023     		mov	r3, #0
 195 0008 0380     		strh	r3, [r0]
 445:.\pff.c       **** 	clst = dj->sclust;
 196              		.loc 1 445 0
 197 000a 0389     		ldrh	r3, [r0, #8]
 198              	.LVL27:
 446:.\pff.c       **** 	if (clst == 1 || clst >= fs->n_fatent)	/* Check start cluster range */
 199              		.loc 1 446 0
 200 000c 012B     		cmp	r3, #1
 201 000e 0ED0     		beq	.L18
 202              		.loc 1 446 0 is_stmt 0 discriminator 1
 203 0010 D188     		ldrh	r1, [r2, #6]
 204 0012 9942     		cmp	r1, r3
 205 0014 0DD9     		bls	.L19
 206 0016 041C     		mov	r4, r0
 447:.\pff.c       **** 		return FR_DISK_ERR;
 448:.\pff.c       **** 	if (_FS_FAT32 && !clst && (_FS_32ONLY || fs->fs_type == FS_FAT32))	/* Replace cluster# 0 with root
 449:.\pff.c       **** 		clst = (CLUST)fs->dirbase;
 450:.\pff.c       **** 	dj->clust = clst;						/* Current cluster */
 207              		.loc 1 450 0 is_stmt 1
 208 0018 4381     		strh	r3, [r0, #10]
 451:.\pff.c       **** 	dj->sect = (_FS_32ONLY || clst) ? clust2sect(clst) : fs->dirbase;	/* Current sector */
 209              		.loc 1 451 0
 210 001a 002B     		cmp	r3, #0
 211 001c 03D0     		beq	.L16
 212              		.loc 1 451 0 is_stmt 0 discriminator 1
 213 001e 181C     		mov	r0, r3
 214              	.LVL28:
 215 0020 FFF7FEFF 		bl	clust2sect
 216              	.LVL29:
 217 0024 00E0     		b	.L17
 218              	.LVL30:
 219              	.L16:
 220              		.loc 1 451 0 discriminator 2
 221 0026 D068     		ldr	r0, [r2, #12]
 222              	.LVL31:
 223              	.L17:
 224              		.loc 1 451 0 discriminator 4
 225 0028 E060     		str	r0, [r4, #12]
 452:.\pff.c       **** 
 453:.\pff.c       **** 	return FR_OK;	/* Seek succeeded */
 226              		.loc 1 453 0 is_stmt 1 discriminator 4
 227 002a 0020     		mov	r0, #0
 228 002c 02E0     		b	.L15
 229              	.LVL32:
 230              	.L18:
ARM GAS  C:\Users\Petro\AppData\Local\Temp\ccLLMBs2.s 			page 13


 447:.\pff.c       **** 	if (_FS_FAT32 && !clst && (_FS_32ONLY || fs->fs_type == FS_FAT32))	/* Replace cluster# 0 with root
 231              		.loc 1 447 0
 232 002e 0120     		mov	r0, #1
 233              	.LVL33:
 234 0030 00E0     		b	.L15
 235              	.LVL34:
 236              	.L19:
 237 0032 0120     		mov	r0, #1
 238              	.LVL35:
 239              	.L15:
 454:.\pff.c       **** }
 240              		.loc 1 454 0
 241              		@ sp needed
 242 0034 10BD     		pop	{r4, pc}
 243              	.L21:
 244 0036 C046     		.align	2
 245              	.L20:
 246 0038 00000000 		.word	.LANCHOR0
 247              		.cfi_endproc
 248              	.LFE5:
 249              		.size	dir_rewind, .-dir_rewind
 250              		.section	.text.create_name,"ax",%progbits
 251              		.align	2
 252              		.code	16
 253              		.thumb_func
 254              		.type	create_name, %function
 255              	create_name:
 256              	.LFB8:
 455:.\pff.c       **** 
 456:.\pff.c       **** 
 457:.\pff.c       **** 
 458:.\pff.c       **** 
 459:.\pff.c       **** /*-----------------------------------------------------------------------*/
 460:.\pff.c       **** /* Directory handling - Move directory index next                        */
 461:.\pff.c       **** /*-----------------------------------------------------------------------*/
 462:.\pff.c       **** 
 463:.\pff.c       **** static
 464:.\pff.c       **** FRESULT dir_next (	/* FR_OK:Succeeded, FR_NO_FILE:End of table */
 465:.\pff.c       **** 	DIR *dj			/* Pointer to directory object */
 466:.\pff.c       **** )
 467:.\pff.c       **** {
 468:.\pff.c       **** 	CLUST clst;
 469:.\pff.c       **** 	WORD i;
 470:.\pff.c       **** 	FATFS *fs = FatFs;
 471:.\pff.c       **** 
 472:.\pff.c       **** 
 473:.\pff.c       **** 	i = dj->index + 1;
 474:.\pff.c       **** 	if (!i || !dj->sect)	/* Report EOT when index has reached 65535 */
 475:.\pff.c       **** 		return FR_NO_FILE;
 476:.\pff.c       **** 
 477:.\pff.c       **** 	if (!(i % 16)) {		/* Sector changed? */
 478:.\pff.c       **** 		dj->sect++;			/* Next sector */
 479:.\pff.c       **** 
 480:.\pff.c       **** 		if (dj->clust == 0) {	/* Static table */
 481:.\pff.c       **** 			if (i >= fs->n_rootdir)	/* Report EOT when end of table */
 482:.\pff.c       **** 				return FR_NO_FILE;
 483:.\pff.c       **** 		}
ARM GAS  C:\Users\Petro\AppData\Local\Temp\ccLLMBs2.s 			page 14


 484:.\pff.c       **** 		else {					/* Dynamic table */
 485:.\pff.c       **** 			if (((i / 16) & (fs->csize - 1)) == 0) {	/* Cluster changed? */
 486:.\pff.c       **** 				clst = get_fat(dj->clust);		/* Get next cluster */
 487:.\pff.c       **** 				if (clst <= 1) return FR_DISK_ERR;
 488:.\pff.c       **** 				if (clst >= fs->n_fatent)		/* When it reached end of dynamic table */
 489:.\pff.c       **** 					return FR_NO_FILE;			/* Report EOT */
 490:.\pff.c       **** 				dj->clust = clst;				/* Initialize data for new cluster */
 491:.\pff.c       **** 				dj->sect = clust2sect(clst);
 492:.\pff.c       **** 			}
 493:.\pff.c       **** 		}
 494:.\pff.c       **** 	}
 495:.\pff.c       **** 
 496:.\pff.c       **** 	dj->index = i;
 497:.\pff.c       **** 
 498:.\pff.c       **** 	return FR_OK;
 499:.\pff.c       **** }
 500:.\pff.c       **** 
 501:.\pff.c       **** 
 502:.\pff.c       **** 
 503:.\pff.c       **** 
 504:.\pff.c       **** /*-----------------------------------------------------------------------*/
 505:.\pff.c       **** /* Directory handling - Find an object in the directory                  */
 506:.\pff.c       **** /*-----------------------------------------------------------------------*/
 507:.\pff.c       **** 
 508:.\pff.c       **** static
 509:.\pff.c       **** FRESULT dir_find (
 510:.\pff.c       **** 	DIR *dj,		/* Pointer to the directory object linked to the file name */
 511:.\pff.c       **** 	BYTE *dir		/* 32-byte working buffer */
 512:.\pff.c       **** )
 513:.\pff.c       **** {
 514:.\pff.c       **** 	FRESULT res;
 515:.\pff.c       **** 	BYTE c;
 516:.\pff.c       **** 
 517:.\pff.c       **** 
 518:.\pff.c       **** 	res = dir_rewind(dj);			/* Rewind directory object */
 519:.\pff.c       **** 	if (res != FR_OK) return res;
 520:.\pff.c       **** 
 521:.\pff.c       **** 	do {
 522:.\pff.c       **** 		res = disk_readp(dir, dj->sect, (dj->index % 16) * 32, 32)	/* Read an entry */
 523:.\pff.c       **** 			? FR_DISK_ERR : FR_OK;
 524:.\pff.c       **** 		if (res != FR_OK) break;
 525:.\pff.c       **** 		c = dir[DIR_Name];	/* First character */
 526:.\pff.c       **** 		if (c == 0) { res = FR_NO_FILE; break; }	/* Reached to end of table */
 527:.\pff.c       **** 		if (!(dir[DIR_Attr] & AM_VOL) && !mem_cmp(dir, dj->fn, 11)) /* Is it a valid entry? */
 528:.\pff.c       **** 			break;
 529:.\pff.c       **** 		res = dir_next(dj);					/* Next entry */
 530:.\pff.c       **** 	} while (res == FR_OK);
 531:.\pff.c       **** 
 532:.\pff.c       **** 	return res;
 533:.\pff.c       **** }
 534:.\pff.c       **** 
 535:.\pff.c       **** 
 536:.\pff.c       **** 
 537:.\pff.c       **** 
 538:.\pff.c       **** /*-----------------------------------------------------------------------*/
 539:.\pff.c       **** /* Read an object from the directory                                     */
 540:.\pff.c       **** /*-----------------------------------------------------------------------*/
ARM GAS  C:\Users\Petro\AppData\Local\Temp\ccLLMBs2.s 			page 15


 541:.\pff.c       **** #if _USE_DIR
 542:.\pff.c       **** static
 543:.\pff.c       **** FRESULT dir_read (
 544:.\pff.c       **** 	DIR *dj,		/* Pointer to the directory object to store read object name */
 545:.\pff.c       **** 	BYTE *dir		/* 32-byte working buffer */
 546:.\pff.c       **** )
 547:.\pff.c       **** {
 548:.\pff.c       **** 	FRESULT res;
 549:.\pff.c       **** 	BYTE a, c;
 550:.\pff.c       **** 
 551:.\pff.c       **** 
 552:.\pff.c       **** 	res = FR_NO_FILE;
 553:.\pff.c       **** 	while (dj->sect) {
 554:.\pff.c       **** 		res = disk_readp(dir, dj->sect, (dj->index % 16) * 32, 32)	/* Read an entry */
 555:.\pff.c       **** 			? FR_DISK_ERR : FR_OK;
 556:.\pff.c       **** 		if (res != FR_OK) break;
 557:.\pff.c       **** 		c = dir[DIR_Name];
 558:.\pff.c       **** 		if (c == 0) { res = FR_NO_FILE; break; }	/* Reached to end of table */
 559:.\pff.c       **** 		a = dir[DIR_Attr] & AM_MASK;
 560:.\pff.c       **** 		if (c != 0xE5 && c != '.' && !(a & AM_VOL))	/* Is it a valid entry? */
 561:.\pff.c       **** 			break;
 562:.\pff.c       **** 		res = dir_next(dj);			/* Next entry */
 563:.\pff.c       **** 		if (res != FR_OK) break;
 564:.\pff.c       **** 	}
 565:.\pff.c       **** 
 566:.\pff.c       **** 	if (res != FR_OK) dj->sect = 0;
 567:.\pff.c       **** 
 568:.\pff.c       **** 	return res;
 569:.\pff.c       **** }
 570:.\pff.c       **** #endif
 571:.\pff.c       **** 
 572:.\pff.c       **** 
 573:.\pff.c       **** 
 574:.\pff.c       **** /*-----------------------------------------------------------------------*/
 575:.\pff.c       **** /* Pick a segment and create the object name in directory form           */
 576:.\pff.c       **** /*-----------------------------------------------------------------------*/
 577:.\pff.c       **** 
 578:.\pff.c       **** 
 579:.\pff.c       **** static
 580:.\pff.c       **** FRESULT create_name (
 581:.\pff.c       **** 	DIR *dj,			/* Pointer to the directory object */
 582:.\pff.c       **** 	const char **path	/* Pointer to pointer to the segment in the path string */
 583:.\pff.c       **** )
 584:.\pff.c       **** {
 257              		.loc 1 584 0
 258              		.cfi_startproc
 259              	.LVL36:
 260 0000 F8B5     		push	{r3, r4, r5, r6, r7, lr}
 261              		.cfi_def_cfa_offset 24
 262              		.cfi_offset 3, -24
 263              		.cfi_offset 4, -20
 264              		.cfi_offset 5, -16
 265              		.cfi_offset 6, -12
 266              		.cfi_offset 7, -8
 267              		.cfi_offset 14, -4
 268 0002 0D1C     		mov	r5, r1
 585:.\pff.c       **** 	BYTE c, ni, si, i, *sfn;
ARM GAS  C:\Users\Petro\AppData\Local\Temp\ccLLMBs2.s 			page 16


 586:.\pff.c       **** 	const char *p;
 587:.\pff.c       **** #if _USE_LCC
 588:.\pff.c       **** #ifdef _EXCVT
 589:.\pff.c       **** 	static const BYTE cvt[] = _EXCVT;
 590:.\pff.c       **** #endif
 591:.\pff.c       **** #endif
 592:.\pff.c       **** 
 593:.\pff.c       **** 	/* Create file name in directory form */
 594:.\pff.c       **** 	sfn = dj->fn;
 269              		.loc 1 594 0
 270 0004 4468     		ldr	r4, [r0, #4]
 271              	.LVL37:
 595:.\pff.c       **** 	mem_set(sfn, ' ', 11);
 272              		.loc 1 595 0
 273 0006 201C     		mov	r0, r4
 274              	.LVL38:
 275 0008 2021     		mov	r1, #32
 276              	.LVL39:
 277 000a 0B22     		mov	r2, #11
 278 000c FFF7FEFF 		bl	mem_set
 279              	.LVL40:
 596:.\pff.c       **** 	si = i = 0; ni = 8;
 597:.\pff.c       **** 	p = *path;
 280              		.loc 1 597 0
 281 0010 2F68     		ldr	r7, [r5]
 282              	.LVL41:
 596:.\pff.c       **** 	si = i = 0; ni = 8;
 283              		.loc 1 596 0
 284 0012 0020     		mov	r0, #0
 285 0014 0021     		mov	r1, #0
 286 0016 0826     		mov	r6, #8
 287 0018 00E0     		b	.L23
 288              	.LVL42:
 289              	.L27:
 290 001a 111C     		mov	r1, r2
 291              	.LVL43:
 292              	.L23:
 598:.\pff.c       **** 	for (;;) {
 599:.\pff.c       **** 		c = p[si++];
 293              		.loc 1 599 0
 294 001c 4B1C     		add	r3, r1, #1
 295 001e DAB2     		uxtb	r2, r3
 296              	.LVL44:
 297 0020 7B5C     		ldrb	r3, [r7, r1]
 298              	.LVL45:
 600:.\pff.c       **** 		if (c <= ' ' || c == '/') break;	/* Break on end of segment */
 299              		.loc 1 600 0
 300 0022 202B     		cmp	r3, #32
 301 0024 10D9     		bls	.L24
 302              		.loc 1 600 0 is_stmt 0 discriminator 1
 303 0026 2F2B     		cmp	r3, #47
 304 0028 0ED0     		beq	.L24
 601:.\pff.c       **** 		if (c == '.' || i >= ni) {
 305              		.loc 1 601 0 is_stmt 1
 306 002a 2E2B     		cmp	r3, #46
 307 002c 01D0     		beq	.L25
 308              		.loc 1 601 0 is_stmt 0 discriminator 1
ARM GAS  C:\Users\Petro\AppData\Local\Temp\ccLLMBs2.s 			page 17


 309 002e B042     		cmp	r0, r6
 310 0030 06D3     		bcc	.L26
 311              	.L25:
 602:.\pff.c       **** 			if (ni != 8 || c != '.') break;
 312              		.loc 1 602 0 is_stmt 1
 313 0032 082E     		cmp	r6, #8
 314 0034 08D1     		bne	.L24
 315              		.loc 1 602 0 is_stmt 0 discriminator 1
 316 0036 2E2B     		cmp	r3, #46
 317 0038 06D1     		bne	.L24
 603:.\pff.c       **** 			i = 8; ni = 11;
 318              		.loc 1 603 0 is_stmt 1
 319 003a 0820     		mov	r0, #8
 320              	.LVL46:
 321 003c 0336     		add	r6, r6, #3
 322              	.LVL47:
 323 003e ECE7     		b	.L27
 324              	.LVL48:
 325              	.L26:
 604:.\pff.c       **** 			continue;
 605:.\pff.c       **** 		}
 606:.\pff.c       **** #if _USE_LCC
 607:.\pff.c       **** #ifdef _EXCVT
 608:.\pff.c       **** 		if (c >= 0x80)					/* To upper extended char (SBCS) */
 609:.\pff.c       **** 			c = cvt[c - 0x80];
 610:.\pff.c       **** #endif
 611:.\pff.c       **** 		if (IsDBCS1(c) && i < ni - 1) {	/* DBC 1st byte? */
 612:.\pff.c       **** 			BYTE d = p[si++];			/* Get 2nd byte */
 613:.\pff.c       **** 			sfn[i++] = c;
 614:.\pff.c       **** 			sfn[i++] = d;
 615:.\pff.c       **** 		} else
 616:.\pff.c       **** #endif
 617:.\pff.c       **** 		{						/* Single byte code */
 618:.\pff.c       **** 			if (_USE_LCC && IsLower(c)) c -= 0x20;	/* toupper */
 619:.\pff.c       **** 			sfn[i++] = c;
 326              		.loc 1 619 0
 327 0040 411C     		add	r1, r0, #1
 328              	.LVL49:
 329 0042 2354     		strb	r3, [r4, r0]
 330 0044 C8B2     		uxtb	r0, r1
 331 0046 E8E7     		b	.L27
 332              	.LVL50:
 333              	.L24:
 620:.\pff.c       **** 		}
 621:.\pff.c       **** 	}
 622:.\pff.c       **** 	*path = &p[si];						/* Rerurn pointer to the next segment */
 334              		.loc 1 622 0
 335 0048 BA18     		add	r2, r7, r2
 336              	.LVL51:
 337 004a 2A60     		str	r2, [r5]
 623:.\pff.c       **** 
 624:.\pff.c       **** 	sfn[11] = (c <= ' ') ? 1 : 0;		/* Set last segment flag if end of path */
 338              		.loc 1 624 0
 339 004c 0022     		mov	r2, #0
 340 004e 2021     		mov	r1, #32
 341              	.LVL52:
 342 0050 9942     		cmp	r1, r3
ARM GAS  C:\Users\Petro\AppData\Local\Temp\ccLLMBs2.s 			page 18


 343 0052 5241     		adc	r2, r2, r2
 344 0054 E272     		strb	r2, [r4, #11]
 625:.\pff.c       **** 
 626:.\pff.c       **** 	return FR_OK;
 627:.\pff.c       **** }
 345              		.loc 1 627 0
 346 0056 0020     		mov	r0, #0
 347              	.LVL53:
 348              		@ sp needed
 349              	.LVL54:
 350              	.LVL55:
 351              	.LVL56:
 352              	.LVL57:
 353 0058 F8BD     		pop	{r3, r4, r5, r6, r7, pc}
 354              		.cfi_endproc
 355              	.LFE8:
 356              		.size	create_name, .-create_name
 357 005a C046     		.section	.text.check_fs,"ax",%progbits
 358              		.align	2
 359              		.code	16
 360              		.thumb_func
 361              		.type	check_fs, %function
 362              	check_fs:
 363              	.LFB10:
 628:.\pff.c       **** 
 629:.\pff.c       **** 
 630:.\pff.c       **** 
 631:.\pff.c       **** 
 632:.\pff.c       **** /*-----------------------------------------------------------------------*/
 633:.\pff.c       **** /* Get file information from directory entry                             */
 634:.\pff.c       **** /*-----------------------------------------------------------------------*/
 635:.\pff.c       **** #if _USE_DIR
 636:.\pff.c       **** static
 637:.\pff.c       **** void get_fileinfo (		/* No return code */
 638:.\pff.c       **** 	DIR *dj,			/* Pointer to the directory object */
 639:.\pff.c       **** 	BYTE *dir,			/* 32-byte working buffer */
 640:.\pff.c       **** 	FILINFO *fno	 	/* Pointer to store the file information */
 641:.\pff.c       **** )
 642:.\pff.c       **** {
 643:.\pff.c       **** 	BYTE i, c;
 644:.\pff.c       **** 	char *p;
 645:.\pff.c       **** 
 646:.\pff.c       **** 
 647:.\pff.c       **** 	p = fno->fname;
 648:.\pff.c       **** 	if (dj->sect) {
 649:.\pff.c       **** 		for (i = 0; i < 8; i++) {	/* Copy file name body */
 650:.\pff.c       **** 			c = dir[i];
 651:.\pff.c       **** 			if (c == ' ') break;
 652:.\pff.c       **** 			if (c == 0x05) c = 0xE5;
 653:.\pff.c       **** 			*p++ = c;
 654:.\pff.c       **** 		}
 655:.\pff.c       **** 		if (dir[8] != ' ') {		/* Copy file name extension */
 656:.\pff.c       **** 			*p++ = '.';
 657:.\pff.c       **** 			for (i = 8; i < 11; i++) {
 658:.\pff.c       **** 				c = dir[i];
 659:.\pff.c       **** 				if (c == ' ') break;
 660:.\pff.c       **** 				*p++ = c;
ARM GAS  C:\Users\Petro\AppData\Local\Temp\ccLLMBs2.s 			page 19


 661:.\pff.c       **** 			}
 662:.\pff.c       **** 		}
 663:.\pff.c       **** 		fno->fattrib = dir[DIR_Attr];				/* Attribute */
 664:.\pff.c       **** 		fno->fsize = LD_DWORD(dir+DIR_FileSize);	/* Size */
 665:.\pff.c       **** 		fno->fdate = LD_WORD(dir+DIR_WrtDate);		/* Date */
 666:.\pff.c       **** 		fno->ftime = LD_WORD(dir+DIR_WrtTime);		/* Time */
 667:.\pff.c       **** 	}
 668:.\pff.c       **** 	*p = 0;
 669:.\pff.c       **** }
 670:.\pff.c       **** #endif /* _USE_DIR */
 671:.\pff.c       **** 
 672:.\pff.c       **** 
 673:.\pff.c       **** 
 674:.\pff.c       **** /*-----------------------------------------------------------------------*/
 675:.\pff.c       **** /* Follow a file path                                                    */
 676:.\pff.c       **** /*-----------------------------------------------------------------------*/
 677:.\pff.c       **** 
 678:.\pff.c       **** static
 679:.\pff.c       **** FRESULT follow_path (	/* FR_OK(0): successful, !=0: error code */
 680:.\pff.c       **** 	DIR *dj,			/* Directory object to return last directory and found object */
 681:.\pff.c       **** 	BYTE *dir,			/* 32-byte working buffer */
 682:.\pff.c       **** 	const char *path	/* Full-path string to find a file or directory */
 683:.\pff.c       **** )
 684:.\pff.c       **** {
 685:.\pff.c       **** 	FRESULT res;
 686:.\pff.c       **** 
 687:.\pff.c       **** 
 688:.\pff.c       **** 	while (*path == ' ') path++;		/* Strip leading spaces */
 689:.\pff.c       **** 	if (*path == '/') path++;			/* Strip heading separator if exist */
 690:.\pff.c       **** 	dj->sclust = 0;						/* Set start directory (always root dir) */
 691:.\pff.c       **** 
 692:.\pff.c       **** 	if ((BYTE)*path < ' ') {			/* Null path means the root directory */
 693:.\pff.c       **** 		res = dir_rewind(dj);
 694:.\pff.c       **** 		dir[0] = 0;
 695:.\pff.c       **** 
 696:.\pff.c       **** 	} else {							/* Follow path */
 697:.\pff.c       **** 		for (;;) {
 698:.\pff.c       **** 			res = create_name(dj, &path);	/* Get a segment */
 699:.\pff.c       **** 			if (res != FR_OK) break;
 700:.\pff.c       **** 			res = dir_find(dj, dir);		/* Find it */
 701:.\pff.c       **** 			if (res != FR_OK) break;		/* Could not find the object */
 702:.\pff.c       **** 			if (dj->fn[11]) break;			/* Last segment match. Function completed. */
 703:.\pff.c       **** 			if (!(dir[DIR_Attr] & AM_DIR)) { /* Cannot follow path because it is a file */
 704:.\pff.c       **** 				res = FR_NO_FILE; break;
 705:.\pff.c       **** 			}
 706:.\pff.c       **** 			dj->sclust = get_clust(dir);	/* Follow next */
 707:.\pff.c       **** 		}
 708:.\pff.c       **** 	}
 709:.\pff.c       **** 
 710:.\pff.c       **** 	return res;
 711:.\pff.c       **** }
 712:.\pff.c       **** 
 713:.\pff.c       **** 
 714:.\pff.c       **** 
 715:.\pff.c       **** 
 716:.\pff.c       **** /*-----------------------------------------------------------------------*/
 717:.\pff.c       **** /* Check a sector if it is an FAT boot record                            */
ARM GAS  C:\Users\Petro\AppData\Local\Temp\ccLLMBs2.s 			page 20


 718:.\pff.c       **** /*-----------------------------------------------------------------------*/
 719:.\pff.c       **** 
 720:.\pff.c       **** static
 721:.\pff.c       **** BYTE check_fs (	/* 0:The FAT boot record, 1:Valid boot record but not an FAT, 2:Not a boot record, 
 722:.\pff.c       **** 	BYTE *buf,	/* Working buffer */
 723:.\pff.c       **** 	DWORD sect	/* Sector# (lba) to check if it is an FAT boot record or not */
 724:.\pff.c       **** )
 725:.\pff.c       **** {
 364              		.loc 1 725 0
 365              		.cfi_startproc
 366              	.LVL58:
 367 0000 38B5     		push	{r3, r4, r5, lr}
 368              		.cfi_def_cfa_offset 16
 369              		.cfi_offset 3, -16
 370              		.cfi_offset 4, -12
 371              		.cfi_offset 5, -8
 372              		.cfi_offset 14, -4
 373 0002 041C     		mov	r4, r0
 374 0004 0D1C     		mov	r5, r1
 726:.\pff.c       **** 	if (disk_readp(buf, sect, 510, 2))		/* Read the boot record */
 375              		.loc 1 726 0
 376 0006 FF22     		mov	r2, #255
 377 0008 5200     		lsl	r2, r2, #1
 378 000a 0223     		mov	r3, #2
 379 000c FFF7FEFF 		bl	disk_readp
 380              	.LVL59:
 381 0010 0028     		cmp	r0, #0
 382 0012 19D1     		bne	.L30
 727:.\pff.c       **** 		return 3;
 728:.\pff.c       **** 	if (LD_WORD(buf) != 0xAA55)				/* Check record signature */
 383              		.loc 1 728 0
 384 0014 6378     		ldrb	r3, [r4, #1]
 385 0016 1B02     		lsl	r3, r3, #8
 386 0018 2278     		ldrb	r2, [r4]
 387 001a 1343     		orr	r3, r2
 388 001c 1BB2     		sxth	r3, r3
 389 001e 0E4A     		ldr	r2, .L34
 390 0020 9342     		cmp	r3, r2
 391 0022 13D1     		bne	.L31
 729:.\pff.c       **** 		return 2;
 730:.\pff.c       **** 
 731:.\pff.c       **** 	if (!_FS_32ONLY && !disk_readp(buf, sect, BS_FilSysType, 2) && LD_WORD(buf) == 0x4146)	/* Check FA
 392              		.loc 1 731 0
 393 0024 201C     		mov	r0, r4
 394 0026 291C     		mov	r1, r5
 395 0028 3622     		mov	r2, #54
 396 002a 0223     		mov	r3, #2
 397 002c FFF7FEFF 		bl	disk_readp
 398              	.LVL60:
 399 0030 0028     		cmp	r0, #0
 400 0032 0DD1     		bne	.L32
 401              		.loc 1 731 0 is_stmt 0 discriminator 1
 402 0034 6378     		ldrb	r3, [r4, #1]
 403 0036 1B02     		lsl	r3, r3, #8
 404 0038 2278     		ldrb	r2, [r4]
 405 003a 1343     		orr	r3, r2
 406 003c 1BB2     		sxth	r3, r3
ARM GAS  C:\Users\Petro\AppData\Local\Temp\ccLLMBs2.s 			page 21


 407 003e 074A     		ldr	r2, .L34+4
 408 0040 9342     		cmp	r3, r2
 409 0042 07D0     		beq	.L33
 732:.\pff.c       **** 		return 0;
 733:.\pff.c       **** 	if (_FS_FAT32 && !disk_readp(buf, sect, BS_FilSysType32, 2) && LD_WORD(buf) == 0x4146)	/* Check FA
 734:.\pff.c       **** 		return 0;
 735:.\pff.c       **** 	return 1;
 410              		.loc 1 735 0 is_stmt 1
 411 0044 0130     		add	r0, r0, #1
 412 0046 06E0     		b	.L29
 413              	.L30:
 727:.\pff.c       **** 	if (LD_WORD(buf) != 0xAA55)				/* Check record signature */
 414              		.loc 1 727 0
 415 0048 0320     		mov	r0, #3
 416 004a 04E0     		b	.L29
 417              	.L31:
 729:.\pff.c       **** 		return 2;
 418              		.loc 1 729 0
 419 004c 0220     		mov	r0, #2
 420 004e 02E0     		b	.L29
 421              	.L32:
 422              		.loc 1 735 0
 423 0050 0120     		mov	r0, #1
 424 0052 00E0     		b	.L29
 425              	.L33:
 732:.\pff.c       **** 		return 0;
 426              		.loc 1 732 0
 427 0054 0020     		mov	r0, #0
 428              	.L29:
 736:.\pff.c       **** }
 429              		.loc 1 736 0
 430              		@ sp needed
 431              	.LVL61:
 432              	.LVL62:
 433 0056 38BD     		pop	{r3, r4, r5, pc}
 434              	.L35:
 435              		.align	2
 436              	.L34:
 437 0058 55AAFFFF 		.word	-21931
 438 005c 46410000 		.word	16710
 439              		.cfi_endproc
 440              	.LFE10:
 441              		.size	check_fs, .-check_fs
 442              		.section	.text.get_fat,"ax",%progbits
 443              		.align	2
 444              		.code	16
 445              		.thumb_func
 446              		.type	get_fat, %function
 447              	get_fat:
 448              	.LFB2:
 352:.\pff.c       **** 	BYTE buf[4];
 449              		.loc 1 352 0
 450              		.cfi_startproc
 451              	.LVL63:
 452 0000 00B5     		push	{lr}
 453              		.cfi_def_cfa_offset 4
 454              		.cfi_offset 14, -4
ARM GAS  C:\Users\Petro\AppData\Local\Temp\ccLLMBs2.s 			page 22


 455 0002 83B0     		sub	sp, sp, #12
 456              		.cfi_def_cfa_offset 16
 354:.\pff.c       **** 
 457              		.loc 1 354 0
 458 0004 124B     		ldr	r3, .L44
 459 0006 1B68     		ldr	r3, [r3]
 460              	.LVL64:
 356:.\pff.c       **** 		return 1;
 461              		.loc 1 356 0
 462 0008 0128     		cmp	r0, #1
 463 000a 17D9     		bls	.L39
 356:.\pff.c       **** 		return 1;
 464              		.loc 1 356 0 is_stmt 0 discriminator 1
 465 000c DA88     		ldrh	r2, [r3, #6]
 466 000e 8242     		cmp	r2, r0
 467 0010 16D9     		bls	.L40
 359:.\pff.c       **** #if _FS_FAT12
 468              		.loc 1 359 0 is_stmt 1
 469 0012 1A78     		ldrb	r2, [r3]
 470 0014 022A     		cmp	r2, #2
 471 0016 15D1     		bne	.L43
 378:.\pff.c       **** 		return LD_WORD(buf);
 472              		.loc 1 378 0
 473 0018 9968     		ldr	r1, [r3, #8]
 474 001a FD32     		add	r2, r2, #253
 475 001c 0240     		and	r2, r0
 476 001e 000A     		lsr	r0, r0, #8
 477              	.LVL65:
 478 0020 0918     		add	r1, r1, r0
 479 0022 5200     		lsl	r2, r2, #1
 480 0024 01A8     		add	r0, sp, #4
 481 0026 0223     		mov	r3, #2
 482              	.LVL66:
 483 0028 FFF7FEFF 		bl	disk_readp
 484              	.LVL67:
 485 002c 0028     		cmp	r0, #0
 486 002e 0BD1     		bne	.L42
 379:.\pff.c       **** #endif
 487              		.loc 1 379 0
 488 0030 01AB     		add	r3, sp, #4
 489 0032 5878     		ldrb	r0, [r3, #1]
 490 0034 0002     		lsl	r0, r0, #8
 491 0036 1B78     		ldrb	r3, [r3]
 492 0038 1843     		orr	r0, r3
 493 003a 06E0     		b	.L37
 494              	.LVL68:
 495              	.L39:
 357:.\pff.c       **** 
 496              		.loc 1 357 0
 497 003c 0120     		mov	r0, #1
 498              	.LVL69:
 499 003e 04E0     		b	.L37
 500              	.LVL70:
 501              	.L40:
 502 0040 0120     		mov	r0, #1
 503              	.LVL71:
 504 0042 02E0     		b	.L37
ARM GAS  C:\Users\Petro\AppData\Local\Temp\ccLLMBs2.s 			page 23


 505              	.LVL72:
 506              	.L43:
 388:.\pff.c       **** }
 507              		.loc 1 388 0
 508 0044 0120     		mov	r0, #1
 509              	.LVL73:
 510 0046 00E0     		b	.L37
 511              	.LVL74:
 512              	.L42:
 513 0048 0120     		mov	r0, #1
 514              	.L37:
 389:.\pff.c       **** 
 515              		.loc 1 389 0
 516 004a 03B0     		add	sp, sp, #12
 517              		@ sp needed
 518 004c 00BD     		pop	{pc}
 519              	.L45:
 520 004e C046     		.align	2
 521              	.L44:
 522 0050 00000000 		.word	.LANCHOR0
 523              		.cfi_endproc
 524              	.LFE2:
 525              		.size	get_fat, .-get_fat
 526              		.section	.text.dir_next,"ax",%progbits
 527              		.align	2
 528              		.code	16
 529              		.thumb_func
 530              		.type	dir_next, %function
 531              	dir_next:
 532              	.LFB6:
 467:.\pff.c       **** 	CLUST clst;
 533              		.loc 1 467 0
 534              		.cfi_startproc
 535              	.LVL75:
 536 0000 70B5     		push	{r4, r5, r6, lr}
 537              		.cfi_def_cfa_offset 16
 538              		.cfi_offset 4, -16
 539              		.cfi_offset 5, -12
 540              		.cfi_offset 6, -8
 541              		.cfi_offset 14, -4
 470:.\pff.c       **** 
 542              		.loc 1 470 0
 543 0002 194B     		ldr	r3, .L55
 544 0004 1E68     		ldr	r6, [r3]
 545              	.LVL76:
 473:.\pff.c       **** 	if (!i || !dj->sect)	/* Report EOT when index has reached 65535 */
 546              		.loc 1 473 0
 547 0006 0488     		ldrh	r4, [r0]
 548 0008 0134     		add	r4, r4, #1
 549 000a A4B2     		uxth	r4, r4
 550              	.LVL77:
 474:.\pff.c       **** 		return FR_NO_FILE;
 551              		.loc 1 474 0
 552 000c 002C     		cmp	r4, #0
 553 000e 21D0     		beq	.L50
 474:.\pff.c       **** 		return FR_NO_FILE;
 554              		.loc 1 474 0 is_stmt 0 discriminator 1
ARM GAS  C:\Users\Petro\AppData\Local\Temp\ccLLMBs2.s 			page 24


 555 0010 C368     		ldr	r3, [r0, #12]
 556 0012 002B     		cmp	r3, #0
 557 0014 20D0     		beq	.L51
 558 0016 051C     		mov	r5, r0
 477:.\pff.c       **** 		dj->sect++;			/* Next sector */
 559              		.loc 1 477 0 is_stmt 1
 560 0018 2207     		lsl	r2, r4, #28
 561 001a 18D1     		bne	.L48
 478:.\pff.c       **** 
 562              		.loc 1 478 0
 563 001c 0133     		add	r3, r3, #1
 564 001e C360     		str	r3, [r0, #12]
 480:.\pff.c       **** 			if (i >= fs->n_rootdir)	/* Report EOT when end of table */
 565              		.loc 1 480 0
 566 0020 4089     		ldrh	r0, [r0, #10]
 567              	.LVL78:
 568 0022 0028     		cmp	r0, #0
 569 0024 03D1     		bne	.L49
 481:.\pff.c       **** 				return FR_NO_FILE;
 570              		.loc 1 481 0
 571 0026 B388     		ldrh	r3, [r6, #4]
 572 0028 A342     		cmp	r3, r4
 573 002a 17D9     		bls	.L52
 574 002c 0FE0     		b	.L48
 575              	.L49:
 485:.\pff.c       **** 				clst = get_fat(dj->clust);		/* Get next cluster */
 576              		.loc 1 485 0
 577 002e 2309     		lsr	r3, r4, #4
 578 0030 B278     		ldrb	r2, [r6, #2]
 579 0032 013A     		sub	r2, r2, #1
 580 0034 1A42     		tst	r2, r3
 581 0036 0AD1     		bne	.L48
 486:.\pff.c       **** 				if (clst <= 1) return FR_DISK_ERR;
 582              		.loc 1 486 0
 583 0038 FFF7FEFF 		bl	get_fat
 584              	.LVL79:
 487:.\pff.c       **** 				if (clst >= fs->n_fatent)		/* When it reached end of dynamic table */
 585              		.loc 1 487 0
 586 003c 0128     		cmp	r0, #1
 587 003e 0FD9     		bls	.L53
 488:.\pff.c       **** 					return FR_NO_FILE;			/* Report EOT */
 588              		.loc 1 488 0
 589 0040 F288     		ldrh	r2, [r6, #6]
 590 0042 8242     		cmp	r2, r0
 591 0044 0ED9     		bls	.L54
 490:.\pff.c       **** 				dj->sect = clust2sect(clst);
 592              		.loc 1 490 0
 593 0046 6881     		strh	r0, [r5, #10]
 491:.\pff.c       **** 			}
 594              		.loc 1 491 0
 595 0048 FFF7FEFF 		bl	clust2sect
 596              	.LVL80:
 597 004c E860     		str	r0, [r5, #12]
 598              	.L48:
 496:.\pff.c       **** 
 599              		.loc 1 496 0
 600 004e 2C80     		strh	r4, [r5]
ARM GAS  C:\Users\Petro\AppData\Local\Temp\ccLLMBs2.s 			page 25


 498:.\pff.c       **** }
 601              		.loc 1 498 0
 602 0050 0020     		mov	r0, #0
 603 0052 08E0     		b	.L47
 604              	.LVL81:
 605              	.L50:
 475:.\pff.c       **** 
 606              		.loc 1 475 0
 607 0054 0320     		mov	r0, #3
 608              	.LVL82:
 609 0056 06E0     		b	.L47
 610              	.LVL83:
 611              	.L51:
 612 0058 0320     		mov	r0, #3
 613              	.LVL84:
 614 005a 04E0     		b	.L47
 615              	.LVL85:
 616              	.L52:
 482:.\pff.c       **** 		}
 617              		.loc 1 482 0
 618 005c 0320     		mov	r0, #3
 619 005e 02E0     		b	.L47
 620              	.LVL86:
 621              	.L53:
 487:.\pff.c       **** 				if (clst >= fs->n_fatent)		/* When it reached end of dynamic table */
 622              		.loc 1 487 0
 623 0060 0120     		mov	r0, #1
 624              	.LVL87:
 625 0062 00E0     		b	.L47
 626              	.LVL88:
 627              	.L54:
 489:.\pff.c       **** 				dj->clust = clst;				/* Initialize data for new cluster */
 628              		.loc 1 489 0
 629 0064 0320     		mov	r0, #3
 630              	.LVL89:
 631              	.L47:
 499:.\pff.c       **** 
 632              		.loc 1 499 0
 633              		@ sp needed
 634              	.LVL90:
 635              	.LVL91:
 636 0066 70BD     		pop	{r4, r5, r6, pc}
 637              	.L56:
 638              		.align	2
 639              	.L55:
 640 0068 00000000 		.word	.LANCHOR0
 641              		.cfi_endproc
 642              	.LFE6:
 643              		.size	dir_next, .-dir_next
 644              		.section	.text.dir_find,"ax",%progbits
 645              		.align	2
 646              		.code	16
 647              		.thumb_func
 648              		.type	dir_find, %function
 649              	dir_find:
 650              	.LFB7:
 513:.\pff.c       **** 	FRESULT res;
ARM GAS  C:\Users\Petro\AppData\Local\Temp\ccLLMBs2.s 			page 26


 651              		.loc 1 513 0
 652              		.cfi_startproc
 653              	.LVL92:
 654 0000 70B5     		push	{r4, r5, r6, lr}
 655              		.cfi_def_cfa_offset 16
 656              		.cfi_offset 4, -16
 657              		.cfi_offset 5, -12
 658              		.cfi_offset 6, -8
 659              		.cfi_offset 14, -4
 660 0002 051C     		mov	r5, r0
 661 0004 0E1C     		mov	r6, r1
 518:.\pff.c       **** 	if (res != FR_OK) return res;
 662              		.loc 1 518 0
 663 0006 FFF7FEFF 		bl	dir_rewind
 664              	.LVL93:
 519:.\pff.c       **** 
 665              		.loc 1 519 0
 666 000a 0028     		cmp	r0, #0
 667 000c 22D1     		bne	.L58
 668              	.LVL94:
 669              	.L61:
 522:.\pff.c       **** 			? FR_DISK_ERR : FR_OK;
 670              		.loc 1 522 0
 671 000e 2B88     		ldrh	r3, [r5]
 672 0010 0F22     		mov	r2, #15
 673 0012 1A40     		and	r2, r3
 674 0014 5201     		lsl	r2, r2, #5
 675 0016 301C     		mov	r0, r6
 676 0018 E968     		ldr	r1, [r5, #12]
 677 001a 2023     		mov	r3, #32
 678 001c FFF7FEFF 		bl	disk_readp
 679              	.LVL95:
 523:.\pff.c       **** 		if (res != FR_OK) break;
 680              		.loc 1 523 0
 681 0020 441E     		sub	r4, r0, #1
 682 0022 A041     		sbc	r0, r0, r4
 683 0024 C4B2     		uxtb	r4, r0
 684              	.LVL96:
 524:.\pff.c       **** 		c = dir[DIR_Name];	/* First character */
 685              		.loc 1 524 0
 686 0026 002C     		cmp	r4, #0
 687 0028 13D1     		bne	.L59
 525:.\pff.c       **** 		if (c == 0) { res = FR_NO_FILE; break; }	/* Reached to end of table */
 688              		.loc 1 525 0
 689 002a 3378     		ldrb	r3, [r6]
 690              	.LVL97:
 526:.\pff.c       **** 		if (!(dir[DIR_Attr] & AM_VOL) && !mem_cmp(dir, dj->fn, 11)) /* Is it a valid entry? */
 691              		.loc 1 526 0
 692 002c 002B     		cmp	r3, #0
 693 002e 0FD0     		beq	.L63
 527:.\pff.c       **** 			break;
 694              		.loc 1 527 0
 695 0030 F37A     		ldrb	r3, [r6, #11]
 696              	.LVL98:
 697 0032 1B07     		lsl	r3, r3, #28
 698 0034 06D4     		bmi	.L60
 527:.\pff.c       **** 			break;
ARM GAS  C:\Users\Petro\AppData\Local\Temp\ccLLMBs2.s 			page 27


 699              		.loc 1 527 0 is_stmt 0 discriminator 1
 700 0036 301C     		mov	r0, r6
 701 0038 6968     		ldr	r1, [r5, #4]
 702 003a 0B22     		mov	r2, #11
 703 003c FFF7FEFF 		bl	mem_cmp
 704              	.LVL99:
 705 0040 0028     		cmp	r0, #0
 706 0042 06D0     		beq	.L59
 707              	.L60:
 529:.\pff.c       **** 	} while (res == FR_OK);
 708              		.loc 1 529 0 is_stmt 1
 709 0044 281C     		mov	r0, r5
 710 0046 FFF7FEFF 		bl	dir_next
 711              	.LVL100:
 712 004a 041E     		sub	r4, r0, #0
 713              	.LVL101:
 530:.\pff.c       **** 
 714              		.loc 1 530 0
 715 004c DFD0     		beq	.L61
 716 004e 00E0     		b	.L59
 717              	.LVL102:
 718              	.L63:
 526:.\pff.c       **** 		if (!(dir[DIR_Attr] & AM_VOL) && !mem_cmp(dir, dj->fn, 11)) /* Is it a valid entry? */
 719              		.loc 1 526 0
 720 0050 0324     		mov	r4, #3
 721              	.LVL103:
 722              	.L59:
 532:.\pff.c       **** }
 723              		.loc 1 532 0
 724 0052 201C     		mov	r0, r4
 725              	.LVL104:
 726              	.L58:
 533:.\pff.c       **** 
 727              		.loc 1 533 0
 728              		@ sp needed
 729              	.LVL105:
 730              	.LVL106:
 731 0054 70BD     		pop	{r4, r5, r6, pc}
 732              		.cfi_endproc
 733              	.LFE7:
 734              		.size	dir_find, .-dir_find
 735 0056 C046     		.section	.text.follow_path,"ax",%progbits
 736              		.align	2
 737              		.code	16
 738              		.thumb_func
 739              		.type	follow_path, %function
 740              	follow_path:
 741              	.LFB9:
 684:.\pff.c       **** 	FRESULT res;
 742              		.loc 1 684 0
 743              		.cfi_startproc
 744              	.LVL107:
 745 0000 30B5     		push	{r4, r5, lr}
 746              		.cfi_def_cfa_offset 12
 747              		.cfi_offset 4, -12
 748              		.cfi_offset 5, -8
 749              		.cfi_offset 14, -4
ARM GAS  C:\Users\Petro\AppData\Local\Temp\ccLLMBs2.s 			page 28


 750 0002 83B0     		sub	sp, sp, #12
 751              		.cfi_def_cfa_offset 24
 752 0004 051C     		mov	r5, r0
 753 0006 0C1C     		mov	r4, r1
 754 0008 0192     		str	r2, [sp, #4]
 688:.\pff.c       **** 	if (*path == '/') path++;			/* Strip heading separator if exist */
 755              		.loc 1 688 0
 756 000a 01E0     		b	.L65
 757              	.LVL108:
 758              	.L66:
 688:.\pff.c       **** 	if (*path == '/') path++;			/* Strip heading separator if exist */
 759              		.loc 1 688 0 is_stmt 0 discriminator 2
 760 000c 0133     		add	r3, r3, #1
 761 000e 0193     		str	r3, [sp, #4]
 762              	.L65:
 688:.\pff.c       **** 	if (*path == '/') path++;			/* Strip heading separator if exist */
 763              		.loc 1 688 0 discriminator 1
 764 0010 019B     		ldr	r3, [sp, #4]
 765 0012 1A78     		ldrb	r2, [r3]
 766 0014 202A     		cmp	r2, #32
 767 0016 F9D0     		beq	.L66
 689:.\pff.c       **** 	dj->sclust = 0;						/* Set start directory (always root dir) */
 768              		.loc 1 689 0 is_stmt 1
 769 0018 2F2A     		cmp	r2, #47
 770 001a 01D1     		bne	.L67
 689:.\pff.c       **** 	dj->sclust = 0;						/* Set start directory (always root dir) */
 771              		.loc 1 689 0 is_stmt 0 discriminator 1
 772 001c 0133     		add	r3, r3, #1
 773 001e 0193     		str	r3, [sp, #4]
 774              	.L67:
 690:.\pff.c       **** 
 775              		.loc 1 690 0 is_stmt 1
 776 0020 0023     		mov	r3, #0
 777 0022 2B81     		strh	r3, [r5, #8]
 692:.\pff.c       **** 		res = dir_rewind(dj);
 778              		.loc 1 692 0
 779 0024 019B     		ldr	r3, [sp, #4]
 780 0026 1B78     		ldrb	r3, [r3]
 781 0028 1F2B     		cmp	r3, #31
 782 002a 05D8     		bhi	.L68
 693:.\pff.c       **** 		dir[0] = 0;
 783              		.loc 1 693 0
 784 002c 281C     		mov	r0, r5
 785              	.LVL109:
 786 002e FFF7FEFF 		bl	dir_rewind
 787              	.LVL110:
 694:.\pff.c       **** 
 788              		.loc 1 694 0
 789 0032 0023     		mov	r3, #0
 790 0034 2370     		strb	r3, [r4]
 791 0036 18E0     		b	.L69
 792              	.LVL111:
 793              	.L68:
 698:.\pff.c       **** 			if (res != FR_OK) break;
 794              		.loc 1 698 0
 795 0038 281C     		mov	r0, r5
 796 003a 01A9     		add	r1, sp, #4
ARM GAS  C:\Users\Petro\AppData\Local\Temp\ccLLMBs2.s 			page 29


 797 003c FFF7FEFF 		bl	create_name
 798              	.LVL112:
 699:.\pff.c       **** 			res = dir_find(dj, dir);		/* Find it */
 799              		.loc 1 699 0
 800 0040 0028     		cmp	r0, #0
 801 0042 12D1     		bne	.L69
 700:.\pff.c       **** 			if (res != FR_OK) break;		/* Could not find the object */
 802              		.loc 1 700 0
 803 0044 281C     		mov	r0, r5
 804              	.LVL113:
 805 0046 211C     		mov	r1, r4
 806 0048 FFF7FEFF 		bl	dir_find
 807              	.LVL114:
 701:.\pff.c       **** 			if (dj->fn[11]) break;			/* Last segment match. Function completed. */
 808              		.loc 1 701 0
 809 004c 0028     		cmp	r0, #0
 810 004e 0CD1     		bne	.L69
 702:.\pff.c       **** 			if (!(dir[DIR_Attr] & AM_DIR)) { /* Cannot follow path because it is a file */
 811              		.loc 1 702 0
 812 0050 6B68     		ldr	r3, [r5, #4]
 813 0052 DB7A     		ldrb	r3, [r3, #11]
 814 0054 002B     		cmp	r3, #0
 815 0056 08D1     		bne	.L69
 703:.\pff.c       **** 				res = FR_NO_FILE; break;
 816              		.loc 1 703 0
 817 0058 E37A     		ldrb	r3, [r4, #11]
 818 005a DB06     		lsl	r3, r3, #27
 819 005c 04D5     		bpl	.L70
 706:.\pff.c       **** 		}
 820              		.loc 1 706 0
 821 005e 201C     		mov	r0, r4
 822              	.LVL115:
 823 0060 FFF7FEFF 		bl	get_clust
 824              	.LVL116:
 825 0064 2881     		strh	r0, [r5, #8]
 707:.\pff.c       **** 	}
 826              		.loc 1 707 0
 827 0066 E7E7     		b	.L68
 828              	.LVL117:
 829              	.L70:
 704:.\pff.c       **** 			}
 830              		.loc 1 704 0
 831 0068 0320     		mov	r0, #3
 832              	.LVL118:
 833              	.L69:
 711:.\pff.c       **** 
 834              		.loc 1 711 0
 835 006a 03B0     		add	sp, sp, #12
 836              		@ sp needed
 837              	.LVL119:
 838              	.LVL120:
 839 006c 30BD     		pop	{r4, r5, pc}
 840              		.cfi_endproc
 841              	.LFE9:
 842              		.size	follow_path, .-follow_path
 843              		.global	__aeabi_uidiv
 844 006e C046     		.section	.text.pf_mount,"ax",%progbits
ARM GAS  C:\Users\Petro\AppData\Local\Temp\ccLLMBs2.s 			page 30


 845              		.align	2
 846              		.global	pf_mount
 847              		.code	16
 848              		.thumb_func
 849              		.type	pf_mount, %function
 850              	pf_mount:
 851              	.LFB11:
 737:.\pff.c       **** 
 738:.\pff.c       **** 
 739:.\pff.c       **** 
 740:.\pff.c       **** 
 741:.\pff.c       **** /*--------------------------------------------------------------------------
 742:.\pff.c       **** 
 743:.\pff.c       ****    Public Functions
 744:.\pff.c       **** 
 745:.\pff.c       **** --------------------------------------------------------------------------*/
 746:.\pff.c       **** 
 747:.\pff.c       **** 
 748:.\pff.c       **** 
 749:.\pff.c       **** /*-----------------------------------------------------------------------*/
 750:.\pff.c       **** /* Mount/Unmount a Locical Drive                                         */
 751:.\pff.c       **** /*-----------------------------------------------------------------------*/
 752:.\pff.c       **** 
 753:.\pff.c       **** FRESULT pf_mount (
 754:.\pff.c       **** 	FATFS *fs		/* Pointer to new file system object */
 755:.\pff.c       **** )
 756:.\pff.c       **** {
 852              		.loc 1 756 0
 853              		.cfi_startproc
 854              	.LVL121:
 855 0000 F0B5     		push	{r4, r5, r6, r7, lr}
 856              		.cfi_def_cfa_offset 20
 857              		.cfi_offset 4, -20
 858              		.cfi_offset 5, -16
 859              		.cfi_offset 6, -12
 860              		.cfi_offset 7, -8
 861              		.cfi_offset 14, -4
 862 0002 4746     		mov	r7, r8
 863 0004 80B4     		push	{r7}
 864              		.cfi_def_cfa_offset 24
 865              		.cfi_offset 8, -24
 866 0006 8AB0     		sub	sp, sp, #40
 867              		.cfi_def_cfa_offset 64
 868 0008 041C     		mov	r4, r0
 757:.\pff.c       **** 	BYTE fmt, buf[36];
 758:.\pff.c       **** 	DWORD bsect, fsize, tsect, mclst;
 759:.\pff.c       **** 
 760:.\pff.c       **** 
 761:.\pff.c       **** 	FatFs = 0;
 869              		.loc 1 761 0
 870 000a 0022     		mov	r2, #0
 871 000c 4F4B     		ldr	r3, .L86
 872 000e 1A60     		str	r2, [r3]
 762:.\pff.c       **** 
 763:.\pff.c       **** 	if (disk_initialize() & STA_NOINIT)	/* Check if the drive is ready or not */
 873              		.loc 1 763 0
 874 0010 FFF7FEFF 		bl	disk_initialize
ARM GAS  C:\Users\Petro\AppData\Local\Temp\ccLLMBs2.s 			page 31


 875              	.LVL122:
 876 0014 C307     		lsl	r3, r0, #31
 877 0016 00D5     		bpl	.LCB926
 878 0018 8BE0     		b	.L77	@long jump
 879              	.LCB926:
 880              	.LVL123:
 764:.\pff.c       **** 		return FR_NOT_READY;
 765:.\pff.c       **** 
 766:.\pff.c       **** 	/* Search FAT partition on the drive */
 767:.\pff.c       **** 	bsect = 0;
 768:.\pff.c       **** 	fmt = check_fs(buf, bsect);			/* Check sector 0 as an SFD format */
 881              		.loc 1 768 0
 882 001a 01A8     		add	r0, sp, #4
 883 001c 0021     		mov	r1, #0
 884 001e FFF7FEFF 		bl	check_fs
 885              	.LVL124:
 886 0022 051E     		sub	r5, r0, #0
 887              	.LVL125:
 769:.\pff.c       **** 	if (fmt == 1) {						/* Not an FAT boot record, it may be FDISK format */
 888              		.loc 1 769 0
 889 0024 012D     		cmp	r5, #1
 890 0026 1CD1     		bne	.L78
 770:.\pff.c       **** 		/* Check a partition listed in top of the partition table */
 771:.\pff.c       **** 		if (disk_readp(buf, bsect, MBR_Table, 16)) {	/* 1st partition entry */
 891              		.loc 1 771 0
 892 0028 01A8     		add	r0, sp, #4
 893              	.LVL126:
 894 002a 0021     		mov	r1, #0
 895 002c DF22     		mov	r2, #223
 896 002e 5200     		lsl	r2, r2, #1
 897 0030 1023     		mov	r3, #16
 898 0032 FFF7FEFF 		bl	disk_readp
 899              	.LVL127:
 900 0036 0028     		cmp	r0, #0
 901 0038 15D1     		bne	.L79
 772:.\pff.c       **** 			fmt = 3;
 773:.\pff.c       **** 		} else {
 774:.\pff.c       **** 			if (buf[4]) {					/* Is the partition existing? */
 902              		.loc 1 774 0
 903 003a 01AB     		add	r3, sp, #4
 904 003c 1B79     		ldrb	r3, [r3, #4]
 905 003e 002B     		cmp	r3, #0
 906 0040 14D0     		beq	.L80
 775:.\pff.c       **** 				bsect = LD_DWORD(&buf[8]);	/* Partition offset in LBA */
 907              		.loc 1 775 0
 908 0042 01A8     		add	r0, sp, #4
 909 0044 C67A     		ldrb	r6, [r0, #11]
 910 0046 3606     		lsl	r6, r6, #24
 911 0048 837A     		ldrb	r3, [r0, #10]
 912 004a 1B04     		lsl	r3, r3, #16
 913 004c 1E43     		orr	r6, r3
 914 004e 437A     		ldrb	r3, [r0, #9]
 915 0050 1B02     		lsl	r3, r3, #8
 916 0052 3343     		orr	r3, r6
 917 0054 067A     		ldrb	r6, [r0, #8]
 918 0056 1E43     		orr	r6, r3
 919              	.LVL128:
ARM GAS  C:\Users\Petro\AppData\Local\Temp\ccLLMBs2.s 			page 32


 776:.\pff.c       **** 				fmt = check_fs(buf, bsect);	/* Check the partition */
 920              		.loc 1 776 0
 921 0058 311C     		mov	r1, r6
 922 005a FFF7FEFF 		bl	check_fs
 923              	.LVL129:
 924 005e 051C     		mov	r5, r0
 925              	.LVL130:
 926 0060 05E0     		b	.L73
 927              	.LVL131:
 928              	.L78:
 767:.\pff.c       **** 	fmt = check_fs(buf, bsect);			/* Check sector 0 as an SFD format */
 929              		.loc 1 767 0
 930 0062 0026     		mov	r6, #0
 931 0064 03E0     		b	.L73
 932              	.LVL132:
 933              	.L79:
 934 0066 0026     		mov	r6, #0
 772:.\pff.c       **** 		} else {
 935              		.loc 1 772 0
 936 0068 0325     		mov	r5, #3
 937              	.LVL133:
 938 006a 00E0     		b	.L73
 939              	.LVL134:
 940              	.L80:
 767:.\pff.c       **** 	fmt = check_fs(buf, bsect);			/* Check sector 0 as an SFD format */
 941              		.loc 1 767 0
 942 006c 0026     		mov	r6, #0
 943              	.LVL135:
 944              	.L73:
 777:.\pff.c       **** 			}
 778:.\pff.c       **** 		}
 779:.\pff.c       **** 	}
 780:.\pff.c       **** 	if (fmt == 3) return FR_DISK_ERR;
 945              		.loc 1 780 0
 946 006e 032D     		cmp	r5, #3
 947 0070 61D0     		beq	.L81
 781:.\pff.c       **** 	if (fmt) return FR_NO_FILESYSTEM;	/* No valid FAT patition is found */
 948              		.loc 1 781 0
 949 0072 002D     		cmp	r5, #0
 950 0074 61D1     		bne	.L82
 782:.\pff.c       **** 
 783:.\pff.c       **** 	/* Initialize the file system object */
 784:.\pff.c       **** 	if (disk_readp(buf, bsect, 13, sizeof (buf))) return FR_DISK_ERR;
 951              		.loc 1 784 0
 952 0076 01A8     		add	r0, sp, #4
 953 0078 311C     		mov	r1, r6
 954 007a 0D22     		mov	r2, #13
 955 007c 2423     		mov	r3, #36
 956 007e FFF7FEFF 		bl	disk_readp
 957              	.LVL136:
 958 0082 0028     		cmp	r0, #0
 959 0084 5BD1     		bne	.L83
 785:.\pff.c       **** 
 786:.\pff.c       **** 	fsize = LD_WORD(buf+BPB_FATSz16-13);				/* Number of sectors per FAT */
 960              		.loc 1 786 0
 961 0086 01AB     		add	r3, sp, #4
 962 0088 9F7A     		ldrb	r7, [r3, #10]
ARM GAS  C:\Users\Petro\AppData\Local\Temp\ccLLMBs2.s 			page 33


 963 008a 3F02     		lsl	r7, r7, #8
 964 008c 5B7A     		ldrb	r3, [r3, #9]
 965 008e 1F43     		orr	r7, r3
 966              	.LVL137:
 787:.\pff.c       **** 	if (!fsize) fsize = LD_DWORD(buf+BPB_FATSz32-13);
 967              		.loc 1 787 0
 968 0090 0AD1     		bne	.L74
 969              		.loc 1 787 0 is_stmt 0 discriminator 1
 970 0092 01AA     		add	r2, sp, #4
 971 0094 977E     		ldrb	r7, [r2, #26]
 972              	.LVL138:
 973 0096 3F06     		lsl	r7, r7, #24
 974 0098 537E     		ldrb	r3, [r2, #25]
 975              	.LVL139:
 976 009a 1B04     		lsl	r3, r3, #16
 977 009c 1F43     		orr	r7, r3
 978 009e 137E     		ldrb	r3, [r2, #24]
 979 00a0 1B02     		lsl	r3, r3, #8
 980 00a2 1F43     		orr	r7, r3
 981 00a4 D37D     		ldrb	r3, [r2, #23]
 982 00a6 1F43     		orr	r7, r3
 983              	.LVL140:
 984              	.L74:
 788:.\pff.c       **** 
 789:.\pff.c       **** 	fsize *= buf[BPB_NumFATs-13];						/* Number of sectors in FAT area */
 985              		.loc 1 789 0 is_stmt 1
 986 00a8 01AA     		add	r2, sp, #4
 987 00aa D378     		ldrb	r3, [r2, #3]
 988 00ac 5F43     		mul	r7, r3
 989              	.LVL141:
 790:.\pff.c       **** 	fs->fatbase = bsect + LD_WORD(buf+BPB_RsvdSecCnt-13); /* FAT start sector (lba) */
 990              		.loc 1 790 0
 991 00ae 9378     		ldrb	r3, [r2, #2]
 992 00b0 1B02     		lsl	r3, r3, #8
 993 00b2 5178     		ldrb	r1, [r2, #1]
 994 00b4 8846     		mov	r8, r1
 995 00b6 0B43     		orr	r3, r1
 996 00b8 9E19     		add	r6, r3, r6
 997              	.LVL142:
 998 00ba A660     		str	r6, [r4, #8]
 791:.\pff.c       **** 	fs->csize = buf[BPB_SecPerClus-13];					/* Number of sectors per cluster */
 999              		.loc 1 791 0
 1000 00bc 1178     		ldrb	r1, [r2]
 1001 00be A170     		strb	r1, [r4, #2]
 792:.\pff.c       **** 	fs->n_rootdir = LD_WORD(buf+BPB_RootEntCnt-13);		/* Nmuber of root directory entries */
 1002              		.loc 1 792 0
 1003 00c0 5379     		ldrb	r3, [r2, #5]
 1004 00c2 1B02     		lsl	r3, r3, #8
 1005 00c4 1079     		ldrb	r0, [r2, #4]
 1006 00c6 0343     		orr	r3, r0
 1007 00c8 9C46     		mov	ip, r3
 1008 00ca A380     		strh	r3, [r4, #4]
 793:.\pff.c       **** 	tsect = LD_WORD(buf+BPB_TotSec16-13);				/* Number of sectors on the file system */
 1009              		.loc 1 793 0
 1010 00cc D379     		ldrb	r3, [r2, #7]
 1011 00ce 1B02     		lsl	r3, r3, #8
 1012 00d0 9279     		ldrb	r2, [r2, #6]
ARM GAS  C:\Users\Petro\AppData\Local\Temp\ccLLMBs2.s 			page 34


 1013 00d2 1343     		orr	r3, r2
 1014              	.LVL143:
 794:.\pff.c       **** 	if (!tsect) tsect = LD_DWORD(buf+BPB_TotSec32-13);
 1015              		.loc 1 794 0
 1016 00d4 0AD1     		bne	.L75
 1017              		.loc 1 794 0 is_stmt 0 discriminator 1
 1018 00d6 01AA     		add	r2, sp, #4
 1019 00d8 937D     		ldrb	r3, [r2, #22]
 1020              	.LVL144:
 1021 00da 1806     		lsl	r0, r3, #24
 1022 00dc 537D     		ldrb	r3, [r2, #21]
 1023 00de 1B04     		lsl	r3, r3, #16
 1024 00e0 0343     		orr	r3, r0
 1025 00e2 107D     		ldrb	r0, [r2, #20]
 1026 00e4 0002     		lsl	r0, r0, #8
 1027 00e6 0343     		orr	r3, r0
 1028 00e8 D27C     		ldrb	r2, [r2, #19]
 1029              	.LVL145:
 1030 00ea 1343     		orr	r3, r2
 1031              	.LVL146:
 1032              	.L75:
 795:.\pff.c       **** 	mclst = (tsect						/* Last cluster# + 1 */
 796:.\pff.c       **** 		- LD_WORD(buf+BPB_RsvdSecCnt-13) - fsize - fs->n_rootdir / 16
 1033              		.loc 1 796 0 is_stmt 1
 1034 00ec 01AA     		add	r2, sp, #4
 1035 00ee 9078     		ldrb	r0, [r2, #2]
 1036 00f0 0002     		lsl	r0, r0, #8
 1037 00f2 4246     		mov	r2, r8
 1038 00f4 0243     		orr	r2, r0
 1039 00f6 981A     		sub	r0, r3, r2
 1040 00f8 C01B     		sub	r0, r0, r7
 1041 00fa 6346     		mov	r3, ip
 1042              	.LVL147:
 1043 00fc 1B09     		lsr	r3, r3, #4
 1044 00fe 9846     		mov	r8, r3
 1045 0100 C01A     		sub	r0, r0, r3
 797:.\pff.c       **** 		) / fs->csize + 2;
 1046              		.loc 1 797 0
 1047 0102 FFF7FEFF 		bl	__aeabi_uidiv
 1048              	.LVL148:
 795:.\pff.c       **** 	mclst = (tsect						/* Last cluster# + 1 */
 1049              		.loc 1 795 0
 1050 0106 831C     		add	r3, r0, #2
 1051              	.LVL149:
 798:.\pff.c       **** 	fs->n_fatent = (CLUST)mclst;
 1052              		.loc 1 798 0
 1053 0108 E380     		strh	r3, [r4, #6]
 1054              	.LVL150:
 799:.\pff.c       **** 
 800:.\pff.c       **** 	fmt = 0;							/* Determine the FAT sub type */
 801:.\pff.c       **** 	if (_FS_FAT12 && mclst < 0xFF7)
 802:.\pff.c       **** 		fmt = FS_FAT12;
 803:.\pff.c       **** 	if (_FS_FAT16 && mclst >= 0xFF8 && mclst < 0xFFF7)
 1055              		.loc 1 803 0
 1056 010a 114B     		ldr	r3, .L86+4
 1057              	.LVL151:
 1058 010c 9C46     		mov	ip, r3
ARM GAS  C:\Users\Petro\AppData\Local\Temp\ccLLMBs2.s 			page 35


 1059 010e 6044     		add	r0, r0, ip
 1060              	.LVL152:
 1061 0110 104B     		ldr	r3, .L86+8
 1062 0112 9842     		cmp	r0, r3
 1063 0114 00D8     		bhi	.L76
 804:.\pff.c       **** 		fmt = FS_FAT16;
 1064              		.loc 1 804 0
 1065 0116 0225     		mov	r5, #2
 1066              	.L76:
 1067              	.LVL153:
 805:.\pff.c       **** 	if (_FS_FAT32 && mclst >= 0xFFF7)
 806:.\pff.c       **** 		fmt = FS_FAT32;
 807:.\pff.c       **** 	if (!fmt) return FR_NO_FILESYSTEM;
 1068              		.loc 1 807 0
 1069 0118 002D     		cmp	r5, #0
 1070 011a 12D0     		beq	.L85
 808:.\pff.c       **** 	fs->fs_type = fmt;
 1071              		.loc 1 808 0
 1072 011c 2570     		strb	r5, [r4]
 809:.\pff.c       **** 
 810:.\pff.c       **** 	if (_FS_32ONLY || (_FS_FAT32 && fmt == FS_FAT32))
 811:.\pff.c       **** 		fs->dirbase = LD_DWORD(buf+(BPB_RootClus-13));	/* Root directory start cluster */
 812:.\pff.c       **** 	else
 813:.\pff.c       **** 		fs->dirbase = fs->fatbase + fsize;				/* Root directory start sector (lba) */
 1073              		.loc 1 813 0
 1074 011e BE19     		add	r6, r7, r6
 1075 0120 E660     		str	r6, [r4, #12]
 814:.\pff.c       **** 	fs->database = fs->fatbase + fsize + fs->n_rootdir / 16;	/* Data start sector (lba) */
 1076              		.loc 1 814 0
 1077 0122 4644     		add	r6, r6, r8
 1078 0124 2661     		str	r6, [r4, #16]
 815:.\pff.c       **** 
 816:.\pff.c       **** 	fs->flag = 0;
 1079              		.loc 1 816 0
 1080 0126 0023     		mov	r3, #0
 1081 0128 6370     		strb	r3, [r4, #1]
 817:.\pff.c       **** 	FatFs = fs;
 1082              		.loc 1 817 0
 1083 012a 084B     		ldr	r3, .L86
 1084 012c 1C60     		str	r4, [r3]
 818:.\pff.c       **** 
 819:.\pff.c       **** 	return FR_OK;
 1085              		.loc 1 819 0
 1086 012e 0020     		mov	r0, #0
 1087              	.LVL154:
 1088 0130 08E0     		b	.L72
 1089              	.LVL155:
 1090              	.L77:
 764:.\pff.c       **** 
 1091              		.loc 1 764 0
 1092 0132 0220     		mov	r0, #2
 1093 0134 06E0     		b	.L72
 1094              	.LVL156:
 1095              	.L81:
 780:.\pff.c       **** 	if (fmt) return FR_NO_FILESYSTEM;	/* No valid FAT patition is found */
 1096              		.loc 1 780 0
 1097 0136 0120     		mov	r0, #1
ARM GAS  C:\Users\Petro\AppData\Local\Temp\ccLLMBs2.s 			page 36


 1098 0138 04E0     		b	.L72
 1099              	.L82:
 781:.\pff.c       **** 
 1100              		.loc 1 781 0
 1101 013a 0620     		mov	r0, #6
 1102 013c 02E0     		b	.L72
 1103              	.L83:
 784:.\pff.c       **** 
 1104              		.loc 1 784 0
 1105 013e 0120     		mov	r0, #1
 1106 0140 00E0     		b	.L72
 1107              	.LVL157:
 1108              	.L85:
 807:.\pff.c       **** 	fs->fs_type = fmt;
 1109              		.loc 1 807 0
 1110 0142 0620     		mov	r0, #6
 1111              	.LVL158:
 1112              	.L72:
 820:.\pff.c       **** }
 1113              		.loc 1 820 0
 1114 0144 0AB0     		add	sp, sp, #40
 1115              		@ sp needed
 1116              	.LVL159:
 1117 0146 04BC     		pop	{r2}
 1118 0148 9046     		mov	r8, r2
 1119 014a F0BD     		pop	{r4, r5, r6, r7, pc}
 1120              	.L87:
 1121              		.align	2
 1122              	.L86:
 1123 014c 00000000 		.word	.LANCHOR0
 1124 0150 0AF0FFFF 		.word	-4086
 1125 0154 FEEF0000 		.word	61438
 1126              		.cfi_endproc
 1127              	.LFE11:
 1128              		.size	pf_mount, .-pf_mount
 1129              		.section	.text.pf_open,"ax",%progbits
 1130              		.align	2
 1131              		.global	pf_open
 1132              		.code	16
 1133              		.thumb_func
 1134              		.type	pf_open, %function
 1135              	pf_open:
 1136              	.LFB12:
 821:.\pff.c       **** 
 822:.\pff.c       **** 
 823:.\pff.c       **** 
 824:.\pff.c       **** 
 825:.\pff.c       **** /*-----------------------------------------------------------------------*/
 826:.\pff.c       **** /* Open or Create a File                                                 */
 827:.\pff.c       **** /*-----------------------------------------------------------------------*/
 828:.\pff.c       **** 
 829:.\pff.c       **** FRESULT pf_open (
 830:.\pff.c       **** 	const char *path	/* Pointer to the file name */
 831:.\pff.c       **** )
 832:.\pff.c       **** {
 1137              		.loc 1 832 0
 1138              		.cfi_startproc
ARM GAS  C:\Users\Petro\AppData\Local\Temp\ccLLMBs2.s 			page 37


 1139              	.LVL160:
 1140 0000 30B5     		push	{r4, r5, lr}
 1141              		.cfi_def_cfa_offset 12
 1142              		.cfi_offset 4, -12
 1143              		.cfi_offset 5, -8
 1144              		.cfi_offset 14, -4
 1145 0002 91B0     		sub	sp, sp, #68
 1146              		.cfi_def_cfa_offset 80
 833:.\pff.c       **** 	FRESULT res;
 834:.\pff.c       **** 	DIR dj;
 835:.\pff.c       **** 	BYTE sp[12], dir[32];
 836:.\pff.c       **** 	FATFS *fs = FatFs;
 1147              		.loc 1 836 0
 1148 0004 194B     		ldr	r3, .L94
 1149 0006 1C68     		ldr	r4, [r3]
 1150              	.LVL161:
 837:.\pff.c       **** 
 838:.\pff.c       **** 
 839:.\pff.c       **** 	if (!fs) return FR_NOT_ENABLED;		/* Check file system */
 1151              		.loc 1 839 0
 1152 0008 002C     		cmp	r4, #0
 1153 000a 28D0     		beq	.L90
 1154 000c 021C     		mov	r2, r0
 840:.\pff.c       **** 
 841:.\pff.c       **** 	fs->flag = 0;
 1155              		.loc 1 841 0
 1156 000e 0023     		mov	r3, #0
 1157 0010 6370     		strb	r3, [r4, #1]
 842:.\pff.c       **** 	dj.fn = sp;
 1158              		.loc 1 842 0
 1159 0012 09AB     		add	r3, sp, #36
 1160 0014 0D93     		str	r3, [sp, #52]
 843:.\pff.c       **** 	res = follow_path(&dj, dir, path);	/* Follow the file path */
 1161              		.loc 1 843 0
 1162 0016 0CA8     		add	r0, sp, #48
 1163              	.LVL162:
 1164 0018 01A9     		add	r1, sp, #4
 1165 001a FFF7FEFF 		bl	follow_path
 1166              	.LVL163:
 844:.\pff.c       **** 	if (res != FR_OK) return res;		/* Follow failed */
 1167              		.loc 1 844 0
 1168 001e 0028     		cmp	r0, #0
 1169 0020 22D1     		bne	.L89
 845:.\pff.c       **** 	if (!dir[0] || (dir[DIR_Attr] & AM_DIR))	/* It is a directory */
 1170              		.loc 1 845 0
 1171 0022 01AB     		add	r3, sp, #4
 1172 0024 1B78     		ldrb	r3, [r3]
 1173 0026 002B     		cmp	r3, #0
 1174 0028 1BD0     		beq	.L92
 1175              		.loc 1 845 0 is_stmt 0 discriminator 1
 1176 002a 01AB     		add	r3, sp, #4
 1177 002c DB7A     		ldrb	r3, [r3, #11]
 1178 002e DB06     		lsl	r3, r3, #27
 1179 0030 19D4     		bmi	.L93
 846:.\pff.c       **** 		return FR_NO_FILE;
 847:.\pff.c       **** 
 848:.\pff.c       **** 	fs->org_clust = get_clust(dir);		/* File start cluster */
ARM GAS  C:\Users\Petro\AppData\Local\Temp\ccLLMBs2.s 			page 38


 1180              		.loc 1 848 0 is_stmt 1
 1181 0032 01AD     		add	r5, sp, #4
 1182 0034 281C     		mov	r0, r5
 1183              	.LVL164:
 1184 0036 FFF7FEFF 		bl	get_clust
 1185              	.LVL165:
 1186 003a A083     		strh	r0, [r4, #28]
 849:.\pff.c       **** 	fs->fsize = LD_DWORD(dir+DIR_FileSize);	/* File size */
 1187              		.loc 1 849 0
 1188 003c EB7F     		ldrb	r3, [r5, #31]
 1189 003e 1A06     		lsl	r2, r3, #24
 1190 0040 AB7F     		ldrb	r3, [r5, #30]
 1191 0042 1B04     		lsl	r3, r3, #16
 1192 0044 1343     		orr	r3, r2
 1193 0046 6A7F     		ldrb	r2, [r5, #29]
 1194 0048 1202     		lsl	r2, r2, #8
 1195 004a 1343     		orr	r3, r2
 1196 004c 2A7F     		ldrb	r2, [r5, #28]
 1197 004e 1343     		orr	r3, r2
 1198 0050 A361     		str	r3, [r4, #24]
 850:.\pff.c       **** 	fs->fptr = 0;						/* File pointer */
 1199              		.loc 1 850 0
 1200 0052 0023     		mov	r3, #0
 1201 0054 6361     		str	r3, [r4, #20]
 851:.\pff.c       **** 	fs->flag = FA_OPENED;
 1202              		.loc 1 851 0
 1203 0056 0133     		add	r3, r3, #1
 1204 0058 6370     		strb	r3, [r4, #1]
 852:.\pff.c       **** 
 853:.\pff.c       **** 	return FR_OK;
 1205              		.loc 1 853 0
 1206 005a 0020     		mov	r0, #0
 1207 005c 04E0     		b	.L89
 1208              	.LVL166:
 1209              	.L90:
 839:.\pff.c       **** 
 1210              		.loc 1 839 0
 1211 005e 0520     		mov	r0, #5
 1212              	.LVL167:
 1213 0060 02E0     		b	.L89
 1214              	.LVL168:
 1215              	.L92:
 846:.\pff.c       **** 
 1216              		.loc 1 846 0
 1217 0062 0320     		mov	r0, #3
 1218              	.LVL169:
 1219 0064 00E0     		b	.L89
 1220              	.LVL170:
 1221              	.L93:
 1222 0066 0320     		mov	r0, #3
 1223              	.LVL171:
 1224              	.L89:
 854:.\pff.c       **** }
 1225              		.loc 1 854 0
 1226 0068 11B0     		add	sp, sp, #68
 1227              		@ sp needed
 1228              	.LVL172:
ARM GAS  C:\Users\Petro\AppData\Local\Temp\ccLLMBs2.s 			page 39


 1229 006a 30BD     		pop	{r4, r5, pc}
 1230              	.L95:
 1231              		.align	2
 1232              	.L94:
 1233 006c 00000000 		.word	.LANCHOR0
 1234              		.cfi_endproc
 1235              	.LFE12:
 1236              		.size	pf_open, .-pf_open
 1237              		.section	.text.pf_read,"ax",%progbits
 1238              		.align	2
 1239              		.global	pf_read
 1240              		.code	16
 1241              		.thumb_func
 1242              		.type	pf_read, %function
 1243              	pf_read:
 1244              	.LFB13:
 855:.\pff.c       **** 
 856:.\pff.c       **** 
 857:.\pff.c       **** 
 858:.\pff.c       **** 
 859:.\pff.c       **** /*-----------------------------------------------------------------------*/
 860:.\pff.c       **** /* Read File                                                             */
 861:.\pff.c       **** /*-----------------------------------------------------------------------*/
 862:.\pff.c       **** #if _USE_READ
 863:.\pff.c       **** 
 864:.\pff.c       **** FRESULT pf_read (
 865:.\pff.c       **** 	void* buff,		/* Pointer to the read buffer (NULL:Forward data to the stream)*/
 866:.\pff.c       **** 	UINT btr,		/* Number of bytes to read */
 867:.\pff.c       **** 	UINT* br		/* Pointer to number of bytes read */
 868:.\pff.c       **** )
 869:.\pff.c       **** {
 1245              		.loc 1 869 0
 1246              		.cfi_startproc
 1247              	.LVL173:
 1248 0000 F8B5     		push	{r3, r4, r5, r6, r7, lr}
 1249              		.cfi_def_cfa_offset 24
 1250              		.cfi_offset 3, -24
 1251              		.cfi_offset 4, -20
 1252              		.cfi_offset 5, -16
 1253              		.cfi_offset 6, -12
 1254              		.cfi_offset 7, -8
 1255              		.cfi_offset 14, -4
 1256 0002 4F46     		mov	r7, r9
 1257 0004 4646     		mov	r6, r8
 1258 0006 C0B4     		push	{r6, r7}
 1259              		.cfi_def_cfa_offset 32
 1260              		.cfi_offset 8, -32
 1261              		.cfi_offset 9, -28
 1262              	.LVL174:
 870:.\pff.c       **** 	DRESULT dr;
 871:.\pff.c       **** 	CLUST clst;
 872:.\pff.c       **** 	DWORD sect, remain;
 873:.\pff.c       **** 	UINT rcnt;
 874:.\pff.c       **** 	BYTE cs, *rbuff = buff;
 875:.\pff.c       **** 	FATFS *fs = FatFs;
 1263              		.loc 1 875 0
 1264 0008 314B     		ldr	r3, .L114
ARM GAS  C:\Users\Petro\AppData\Local\Temp\ccLLMBs2.s 			page 40


 1265 000a 1D68     		ldr	r5, [r3]
 1266              	.LVL175:
 876:.\pff.c       **** 
 877:.\pff.c       **** 
 878:.\pff.c       **** 	*br = 0;
 1267              		.loc 1 878 0
 1268 000c 0023     		mov	r3, #0
 1269 000e 1360     		str	r3, [r2]
 879:.\pff.c       **** 	if (!fs) return FR_NOT_ENABLED;		/* Check file system */
 1270              		.loc 1 879 0
 1271 0010 002D     		cmp	r5, #0
 1272 0012 56D0     		beq	.L110
 880:.\pff.c       **** 	if (!(fs->flag & FA_OPENED))		/* Check if opened */
 1273              		.loc 1 880 0
 1274 0014 6B78     		ldrb	r3, [r5, #1]
 1275 0016 DB07     		lsl	r3, r3, #31
 1276 0018 55D5     		bpl	.L111
 881:.\pff.c       **** 		return FR_NOT_OPENED;
 882:.\pff.c       **** 
 883:.\pff.c       **** 	remain = fs->fsize - fs->fptr;
 1277              		.loc 1 883 0
 1278 001a AB69     		ldr	r3, [r5, #24]
 1279 001c 6C69     		ldr	r4, [r5, #20]
 1280 001e 1E1B     		sub	r6, r3, r4
 1281              	.LVL176:
 884:.\pff.c       **** 	if (btr > remain) btr = (UINT)remain;			/* Truncate btr by remaining bytes */
 1282              		.loc 1 884 0
 1283 0020 B142     		cmp	r1, r6
 1284 0022 00D8     		bhi	.L98
 1285 0024 0E1C     		mov	r6, r1
 1286              	.LVL177:
 1287              	.L98:
 1288 0026 9046     		mov	r8, r2
 1289 0028 8146     		mov	r9, r0
 885:.\pff.c       **** 
 886:.\pff.c       **** 	while (btr)	{									/* Repeat until all data transferred */
 887:.\pff.c       **** 		if ((fs->fptr % 512) == 0) {				/* On the sector boundary? */
 888:.\pff.c       **** 			cs = (BYTE)(fs->fptr / 512 & (fs->csize - 1));	/* Sector offset in the cluster */
 889:.\pff.c       **** 			if (!cs) {								/* On the cluster boundary? */
 890:.\pff.c       **** 				if (fs->fptr == 0)					/* On the top of the file? */
 891:.\pff.c       **** 					clst = fs->org_clust;
 892:.\pff.c       **** 				else
 893:.\pff.c       **** 					clst = get_fat(fs->curr_clust);
 894:.\pff.c       **** 				if (clst <= 1) ABORT(FR_DISK_ERR);
 895:.\pff.c       **** 				fs->curr_clust = clst;				/* Update current cluster */
 896:.\pff.c       **** 			}
 897:.\pff.c       **** 			sect = clust2sect(fs->curr_clust);		/* Get current sector */
 898:.\pff.c       **** 			if (!sect) ABORT(FR_DISK_ERR);
 899:.\pff.c       **** 			fs->dsect = sect + cs;
 900:.\pff.c       **** 		}
 901:.\pff.c       **** 		rcnt = 512 - (UINT)fs->fptr % 512;			/* Get partial sector data from sector buffer */
 902:.\pff.c       **** 		if (rcnt > btr) rcnt = btr;
 903:.\pff.c       **** 		dr = disk_readp(!buff ? 0 : rbuff, fs->dsect, (UINT)fs->fptr % 512, rcnt);
 1290              		.loc 1 903 0
 1291 002a 071C     		mov	r7, r0
 1292 002c 45E0     		b	.L99
 1293              	.LVL178:
ARM GAS  C:\Users\Petro\AppData\Local\Temp\ccLLMBs2.s 			page 41


 1294              	.L109:
 887:.\pff.c       **** 			cs = (BYTE)(fs->fptr / 512 & (fs->csize - 1));	/* Sector offset in the cluster */
 1295              		.loc 1 887 0
 1296 002e 6A69     		ldr	r2, [r5, #20]
 1297 0030 D305     		lsl	r3, r2, #23
 1298 0032 1ED1     		bne	.L100
 888:.\pff.c       **** 			if (!cs) {								/* On the cluster boundary? */
 1299              		.loc 1 888 0
 1300 0034 540A     		lsr	r4, r2, #9
 1301 0036 AB78     		ldrb	r3, [r5, #2]
 1302 0038 013B     		sub	r3, r3, #1
 1303 003a DBB2     		uxtb	r3, r3
 1304 003c 1C40     		and	r4, r3
 1305              	.LVL179:
 889:.\pff.c       **** 				if (fs->fptr == 0)					/* On the top of the file? */
 1306              		.loc 1 889 0
 1307 003e 0DD1     		bne	.L101
 890:.\pff.c       **** 					clst = fs->org_clust;
 1308              		.loc 1 890 0
 1309 0040 002A     		cmp	r2, #0
 1310 0042 01D1     		bne	.L102
 891:.\pff.c       **** 				else
 1311              		.loc 1 891 0
 1312 0044 A88B     		ldrh	r0, [r5, #28]
 1313              	.LVL180:
 1314 0046 02E0     		b	.L103
 1315              	.LVL181:
 1316              	.L102:
 893:.\pff.c       **** 				if (clst <= 1) ABORT(FR_DISK_ERR);
 1317              		.loc 1 893 0
 1318 0048 E88B     		ldrh	r0, [r5, #30]
 1319 004a FFF7FEFF 		bl	get_fat
 1320              	.LVL182:
 1321              	.L103:
 894:.\pff.c       **** 				fs->curr_clust = clst;				/* Update current cluster */
 1322              		.loc 1 894 0
 1323 004e 0128     		cmp	r0, #1
 1324 0050 03D8     		bhi	.L104
 894:.\pff.c       **** 				fs->curr_clust = clst;				/* Update current cluster */
 1325              		.loc 1 894 0 is_stmt 0 discriminator 1
 1326 0052 0023     		mov	r3, #0
 1327 0054 6B70     		strb	r3, [r5, #1]
 1328 0056 0120     		mov	r0, #1
 1329              	.LVL183:
 1330 0058 36E0     		b	.L97
 1331              	.LVL184:
 1332              	.L104:
 895:.\pff.c       **** 			}
 1333              		.loc 1 895 0 is_stmt 1
 1334 005a E883     		strh	r0, [r5, #30]
 1335              	.LVL185:
 1336              	.L101:
 897:.\pff.c       **** 			if (!sect) ABORT(FR_DISK_ERR);
 1337              		.loc 1 897 0
 1338 005c E88B     		ldrh	r0, [r5, #30]
 1339 005e FFF7FEFF 		bl	clust2sect
 1340              	.LVL186:
ARM GAS  C:\Users\Petro\AppData\Local\Temp\ccLLMBs2.s 			page 42


 898:.\pff.c       **** 			fs->dsect = sect + cs;
 1341              		.loc 1 898 0
 1342 0062 0028     		cmp	r0, #0
 1343 0064 03D1     		bne	.L105
 898:.\pff.c       **** 			fs->dsect = sect + cs;
 1344              		.loc 1 898 0 is_stmt 0 discriminator 1
 1345 0066 0023     		mov	r3, #0
 1346 0068 6B70     		strb	r3, [r5, #1]
 1347 006a 0130     		add	r0, r0, #1
 1348              	.LVL187:
 1349 006c 2CE0     		b	.L97
 1350              	.LVL188:
 1351              	.L105:
 899:.\pff.c       **** 		}
 1352              		.loc 1 899 0 is_stmt 1
 1353 006e 2018     		add	r0, r4, r0
 1354              	.LVL189:
 1355 0070 2862     		str	r0, [r5, #32]
 1356              	.LVL190:
 1357              	.L100:
 901:.\pff.c       **** 		if (rcnt > btr) rcnt = btr;
 1358              		.loc 1 901 0
 1359 0072 6B69     		ldr	r3, [r5, #20]
 1360 0074 DA05     		lsl	r2, r3, #23
 1361 0076 D20D     		lsr	r2, r2, #23
 1362 0078 8024     		mov	r4, #128
 1363 007a A400     		lsl	r4, r4, #2
 1364 007c A41A     		sub	r4, r4, r2
 1365              	.LVL191:
 902:.\pff.c       **** 		dr = disk_readp(!buff ? 0 : rbuff, fs->dsect, (UINT)fs->fptr % 512, rcnt);
 1366              		.loc 1 902 0
 1367 007e B442     		cmp	r4, r6
 1368 0080 00D9     		bls	.L106
 1369 0082 341C     		mov	r4, r6
 1370              	.LVL192:
 1371              	.L106:
 1372              		.loc 1 903 0
 1373 0084 4B46     		mov	r3, r9
 1374 0086 002B     		cmp	r3, #0
 1375 0088 01D1     		bne	.L113
 1376              	.LVL193:
 1377 008a 0020     		mov	r0, #0
 1378 008c 00E0     		b	.L107
 1379              	.L113:
 1380 008e 381C     		mov	r0, r7
 1381              	.L107:
 1382              		.loc 1 903 0 is_stmt 0 discriminator 4
 1383 0090 296A     		ldr	r1, [r5, #32]
 1384 0092 231C     		mov	r3, r4
 1385              	.LVL194:
 1386 0094 FFF7FEFF 		bl	disk_readp
 1387              	.LVL195:
 904:.\pff.c       **** 		if (dr) ABORT(FR_DISK_ERR);
 1388              		.loc 1 904 0 is_stmt 1 discriminator 4
 1389 0098 0028     		cmp	r0, #0
 1390 009a 03D0     		beq	.L108
 1391              		.loc 1 904 0 is_stmt 0 discriminator 1
ARM GAS  C:\Users\Petro\AppData\Local\Temp\ccLLMBs2.s 			page 43


 1392 009c 0023     		mov	r3, #0
 1393 009e 6B70     		strb	r3, [r5, #1]
 1394 00a0 0120     		mov	r0, #1
 1395              	.LVL196:
 1396 00a2 11E0     		b	.L97
 1397              	.LVL197:
 1398              	.L108:
 905:.\pff.c       **** 		fs->fptr += rcnt; rbuff += rcnt;			/* Update pointers and counters */
 1399              		.loc 1 905 0 is_stmt 1
 1400 00a4 6B69     		ldr	r3, [r5, #20]
 1401 00a6 1B19     		add	r3, r3, r4
 1402 00a8 6B61     		str	r3, [r5, #20]
 1403 00aa 3F19     		add	r7, r7, r4
 1404              	.LVL198:
 906:.\pff.c       **** 		btr -= rcnt; *br += rcnt;
 1405              		.loc 1 906 0
 1406 00ac 361B     		sub	r6, r6, r4
 1407              	.LVL199:
 1408 00ae 4346     		mov	r3, r8
 1409 00b0 1B68     		ldr	r3, [r3]
 1410 00b2 9C46     		mov	ip, r3
 1411 00b4 6444     		add	r4, r4, ip
 1412              	.LVL200:
 1413 00b6 4346     		mov	r3, r8
 1414 00b8 1C60     		str	r4, [r3]
 1415              	.LVL201:
 1416              	.L99:
 886:.\pff.c       **** 		if ((fs->fptr % 512) == 0) {				/* On the sector boundary? */
 1417              		.loc 1 886 0
 1418 00ba 002E     		cmp	r6, #0
 1419 00bc B7D1     		bne	.L109
 907:.\pff.c       **** 	}
 908:.\pff.c       **** 
 909:.\pff.c       **** 	return FR_OK;
 1420              		.loc 1 909 0
 1421 00be 0020     		mov	r0, #0
 1422 00c0 02E0     		b	.L97
 1423              	.LVL202:
 1424              	.L110:
 879:.\pff.c       **** 	if (!(fs->flag & FA_OPENED))		/* Check if opened */
 1425              		.loc 1 879 0
 1426 00c2 0520     		mov	r0, #5
 1427              	.LVL203:
 1428 00c4 00E0     		b	.L97
 1429              	.LVL204:
 1430              	.L111:
 881:.\pff.c       **** 
 1431              		.loc 1 881 0
 1432 00c6 0420     		mov	r0, #4
 1433              	.LVL205:
 1434              	.L97:
 910:.\pff.c       **** }
 1435              		.loc 1 910 0
 1436              		@ sp needed
 1437              	.LVL206:
 1438 00c8 0CBC     		pop	{r2, r3}
 1439 00ca 9046     		mov	r8, r2
ARM GAS  C:\Users\Petro\AppData\Local\Temp\ccLLMBs2.s 			page 44


 1440 00cc 9946     		mov	r9, r3
 1441 00ce F8BD     		pop	{r3, r4, r5, r6, r7, pc}
 1442              	.L115:
 1443              		.align	2
 1444              	.L114:
 1445 00d0 00000000 		.word	.LANCHOR0
 1446              		.cfi_endproc
 1447              	.LFE13:
 1448              		.size	pf_read, .-pf_read
 1449              		.bss
 1450              		.align	2
 1451              		.set	.LANCHOR0,. + 0
 1452              		.type	FatFs, %object
 1453              		.size	FatFs, 4
 1454              	FatFs:
 1455 0000 00000000 		.space	4
 1456              		.text
 1457              	.Letext0:
 1458              		.file 2 ".\\integer.h"
 1459              		.file 3 ".\\pff.h"
 1460              		.file 4 ".\\diskio.h"