ARM GAS  C:\Users\Petro\AppData\Local\Temp\ccpY343h.s 			page 1


   1              		.cpu cortex-m0
   2              		.fpu softvfp
   3              		.eabi_attribute 20, 1
   4              		.eabi_attribute 21, 1
   5              		.eabi_attribute 23, 3
   6              		.eabi_attribute 24, 1
   7              		.eabi_attribute 25, 1
   8              		.eabi_attribute 26, 1
   9              		.eabi_attribute 30, 6
  10              		.eabi_attribute 34, 0
  11              		.eabi_attribute 18, 4
  12              		.code	16
  13              		.file	"main.c"
  14              		.text
  15              	.Ltext0:
  16              		.cfi_sections	.debug_frame
  17              		.bss
  18              		.align	2
  19              	buff:
  20 0000 00000000 		.space	100
  20      00000000 
  20      00000000 
  20      00000000 
  20      00000000 
  21              		.comm	PROTO_STATE,1,1
  22              		.comm	LenD1,1,1
  23              		.comm	LenD2,1,1
  24              		.comm	LenD3,1,1
  25              		.comm	LenSeq,1,1
  26              		.comm	LenChS,1,1
  27              		.comm	LenC,1,1
  28              		.comm	inData,24,8
  29              		.comm	outData,24,8
  30              		.comm	previousData,100,4
  31              		.align	2
  32              	networkStatus:
  33 0064 00000000 		.space	4
  34              		.align	2
  35              	noConnect:
  36 0068 00000000 		.space	4
  37              		.align	2
  38              	finNoReady:
  39 006c 00000000 		.space	4
  40              		.align	3
  41              	savedUnixTime:
  42 0070 00000000 		.space	8
  42      00000000 
  43              		.align	2
  44              	savedRecentMs:
  45 0078 00000000 		.space	4
  46              		.align	2
  47              	gateOpen:
  48 007c 00000000 		.space	4
  49              		.align	1
  50              	writeFlag:
  51 0080 0000     		.space	2
  52              		.comm	currentState,1,1
ARM GAS  C:\Users\Petro\AppData\Local\Temp\ccpY343h.s 			page 2


  53 0082 0000     		.align	2
  54              	result:
  55 0084 00000000 		.space	4
  56              		.section	.text.main,"ax",%progbits
  57              		.align	2
  58              		.global	main
  59              		.code	16
  60              		.thumb_func
  61              		.type	main, %function
  62              	main:
  63              	.LFB63:
  64              		.file 1 ".\\main.c"
   1:.\main.c      **** #include "appGlobal.h"
   2:.\main.c      **** 
   3:.\main.c      **** int main()
   4:.\main.c      **** {
  65              		.loc 1 4 0
  66              		.cfi_startproc
  67 0000 80B5     		push	{r7, lr}
  68              		.cfi_def_cfa_offset 8
  69              		.cfi_offset 7, -8
  70              		.cfi_offset 14, -4
  71 0002 00AF     		add	r7, sp, #0
  72              		.cfi_def_cfa_register 7
   5:.\main.c      ****     CyGlobalIntEnable; /* Enable global interrupts. */
  73              		.loc 1 5 0
  74              	@ 5 ".\main.c" 1
  75 0004 62B6     		CPSIE   i
  76              	@ 0 "" 2
   6:.\main.c      ****     
   7:.\main.c      ****     currentState = SYSTEM_INIT;
  77              		.loc 1 7 0
  78              		.code	16
  79 0006 264B     		ldr	r3, .L13
  80 0008 0022     		mov	r2, #0
  81 000a 1A70     		strb	r2, [r3]
  82              	.L12:
   8:.\main.c      **** 
   9:.\main.c      ****     for(;;)
  10:.\main.c      ****     {
  11:.\main.c      ****         switch (currentState)
  83              		.loc 1 11 0
  84 000c 244B     		ldr	r3, .L13
  85 000e 1B78     		ldrb	r3, [r3]
  86 0010 012B     		cmp	r3, #1
  87 0012 16D0     		beq	.L3
  88 0014 02DC     		bgt	.L4
  89 0016 002B     		cmp	r3, #0
  90 0018 05D0     		beq	.L5
  91 001a 3AE0     		b	.L2
  92              	.L4:
  93 001c 022B     		cmp	r3, #2
  94 001e 1ED0     		beq	.L6
  95 0020 032B     		cmp	r3, #3
  96 0022 2DD0     		beq	.L7
  97 0024 35E0     		b	.L2
  98              	.L5:
ARM GAS  C:\Users\Petro\AppData\Local\Temp\ccpY343h.s 			page 3


  12:.\main.c      ****         {
  13:.\main.c      ****             case SYSTEM_INIT:
  14:.\main.c      ****             {
  15:.\main.c      ****                 result = SystemInit();
  99              		.loc 1 15 0
 100 0026 FFF7FEFF 		bl	SystemInit
 101 002a 021C     		mov	r2, r0
 102 002c 1D4B     		ldr	r3, .L13+4
 103 002e 1A60     		str	r2, [r3]
  16:.\main.c      ****                 if(result == NO_ERROR)
 104              		.loc 1 16 0
 105 0030 1C4B     		ldr	r3, .L13+4
 106 0032 1B68     		ldr	r3, [r3]
 107 0034 012B     		cmp	r3, #1
 108 0036 03D1     		bne	.L8
  17:.\main.c      ****                 {
  18:.\main.c      ****                     currentState = GET_FIN_STATUS;
 109              		.loc 1 18 0
 110 0038 194B     		ldr	r3, .L13
 111 003a 0122     		mov	r2, #1
 112 003c 1A70     		strb	r2, [r3]
  19:.\main.c      ****                 }
  20:.\main.c      ****                 break;
 113              		.loc 1 20 0
 114 003e 28E0     		b	.L2
 115              	.L8:
 116 0040 27E0     		b	.L2
 117              	.L3:
  21:.\main.c      ****             }
  22:.\main.c      ****             case GET_FIN_STATUS:
  23:.\main.c      ****             {
  24:.\main.c      ****                 result = GetFinishStatus();
 118              		.loc 1 24 0
 119 0042 FFF7FEFF 		bl	GetFinishStatus
 120 0046 021C     		mov	r2, r0
 121 0048 164B     		ldr	r3, .L13+4
 122 004a 1A60     		str	r2, [r3]
  25:.\main.c      **** 
  26:.\main.c      ****                 if(result == NO_ERROR)
 123              		.loc 1 26 0
 124 004c 154B     		ldr	r3, .L13+4
 125 004e 1B68     		ldr	r3, [r3]
 126 0050 012B     		cmp	r3, #1
 127 0052 03D1     		bne	.L9
  27:.\main.c      ****                 {
  28:.\main.c      ****                     currentState = CHECK_GATE;                   
 128              		.loc 1 28 0
 129 0054 124B     		ldr	r3, .L13
 130 0056 0222     		mov	r2, #2
 131 0058 1A70     		strb	r2, [r3]
  29:.\main.c      ****                 }
  30:.\main.c      ****                 break;
 132              		.loc 1 30 0
 133 005a 1AE0     		b	.L2
 134              	.L9:
 135 005c 19E0     		b	.L2
 136              	.L6:
ARM GAS  C:\Users\Petro\AppData\Local\Temp\ccpY343h.s 			page 4


  31:.\main.c      ****             }
  32:.\main.c      ****             case CHECK_GATE:
  33:.\main.c      ****             {
  34:.\main.c      ****                 result = CheckGate();
 137              		.loc 1 34 0
 138 005e FFF7FEFF 		bl	CheckGate
 139 0062 021C     		mov	r2, r0
 140 0064 0F4B     		ldr	r3, .L13+4
 141 0066 1A60     		str	r2, [r3]
  35:.\main.c      ****                 if(result == GATE_OPEN)
 142              		.loc 1 35 0
 143 0068 0E4B     		ldr	r3, .L13+4
 144 006a 1B68     		ldr	r3, [r3]
 145 006c 012B     		cmp	r3, #1
 146 006e 03D1     		bne	.L10
  36:.\main.c      ****                 {
  37:.\main.c      ****                     currentState = SAVE_RESULT;
 147              		.loc 1 37 0
 148 0070 0B4B     		ldr	r3, .L13
 149 0072 0322     		mov	r2, #3
 150 0074 1A70     		strb	r2, [r3]
  38:.\main.c      ****                 }else
  39:.\main.c      ****                 {
  40:.\main.c      ****                     currentState = GET_FIN_STATUS;
  41:.\main.c      ****                 }
  42:.\main.c      ****                 break;
 151              		.loc 1 42 0
 152 0076 0CE0     		b	.L2
 153              	.L10:
  40:.\main.c      ****                 }
 154              		.loc 1 40 0
 155 0078 094B     		ldr	r3, .L13
 156 007a 0122     		mov	r2, #1
 157 007c 1A70     		strb	r2, [r3]
 158              		.loc 1 42 0
 159 007e 08E0     		b	.L2
 160              	.L7:
  43:.\main.c      ****             }
  44:.\main.c      ****             case SAVE_RESULT:
  45:.\main.c      ****             {
  46:.\main.c      ****                 result = SaveResult();
 161              		.loc 1 46 0
 162 0080 FFF7FEFF 		bl	SaveResult
 163 0084 021C     		mov	r2, r0
 164 0086 074B     		ldr	r3, .L13+4
 165 0088 1A60     		str	r2, [r3]
  47:.\main.c      ****                 currentState = GET_FIN_STATUS;
 166              		.loc 1 47 0
 167 008a 054B     		ldr	r3, .L13
 168 008c 0122     		mov	r2, #1
 169 008e 1A70     		strb	r2, [r3]
  48:.\main.c      ****     
  49:.\main.c      ****                 break;
 170              		.loc 1 49 0
 171 0090 C046     		mov	r8, r8
 172              	.L2:
  50:.\main.c      ****             }           
ARM GAS  C:\Users\Petro\AppData\Local\Temp\ccpY343h.s 			page 5


  51:.\main.c      ****         }
  52:.\main.c      ****         MyDelay(TIMEOUT_STATE);
 173              		.loc 1 52 0
 174 0092 FA23     		mov	r3, #250
 175 0094 5B00     		lsl	r3, r3, #1
 176 0096 181C     		mov	r0, r3
 177 0098 FFF7FEFF 		bl	MyDelay
  53:.\main.c      ****     }
 178              		.loc 1 53 0
 179 009c B6E7     		b	.L12
 180              	.L14:
 181 009e C046     		.align	2
 182              	.L13:
 183 00a0 00000000 		.word	currentState
 184 00a4 84000000 		.word	result
 185              		.cfi_endproc
 186              	.LFE63:
 187              		.size	main, .-main
 188              		.section	.rodata
 189              		.align	2
 190              	.LC2:
 191 0000 53797374 		.ascii	"System init...\000"
 191      656D2069 
 191      6E69742E 
 191      2E2E00
 192              		.section	.text.SystemInit,"ax",%progbits
 193              		.align	2
 194              		.global	SystemInit
 195              		.code	16
 196              		.thumb_func
 197              		.type	SystemInit, %function
 198              	SystemInit:
 199              	.LFB64:
  54:.\main.c      **** }
  55:.\main.c      **** 
  56:.\main.c      **** uint32_t SystemInit(void)
  57:.\main.c      **** {   
 200              		.loc 1 57 0
 201              		.cfi_startproc
 202 0000 80B5     		push	{r7, lr}
 203              		.cfi_def_cfa_offset 8
 204              		.cfi_offset 7, -8
 205              		.cfi_offset 14, -4
 206 0002 00AF     		add	r7, sp, #0
 207              		.cfi_def_cfa_register 7
  58:.\main.c      ****     LedInit();
 208              		.loc 1 58 0
 209 0004 FFF7FEFF 		bl	LedInit
  59:.\main.c      ****     LedBlink(FREQ_INIT_BLINK);
 210              		.loc 1 59 0
 211 0008 0320     		mov	r0, #3
 212 000a FFF7FEFF 		bl	LedBlink
  60:.\main.c      ****     
  61:.\main.c      ****     DisplayConfig();
 213              		.loc 1 61 0
 214 000e FFF7FEFF 		bl	DisplayConfig
  62:.\main.c      ****     DisplayPrintf("System init...");
ARM GAS  C:\Users\Petro\AppData\Local\Temp\ccpY343h.s 			page 6


 215              		.loc 1 62 0
 216 0012 074B     		ldr	r3, .L17
 217 0014 181C     		mov	r0, r3
 218 0016 FFF7FEFF 		bl	DisplayPrintf
  63:.\main.c      ****     
  64:.\main.c      ****     RTC_WDT_Init(); 
 219              		.loc 1 64 0
 220 001a FFF7FEFF 		bl	RTC_WDT_Init
  65:.\main.c      ****     InitNetwork();
 221              		.loc 1 65 0
 222 001e FFF7FEFF 		bl	InitNetwork
  66:.\main.c      ****     GateInit();
 223              		.loc 1 66 0
 224 0022 FFF7FEFF 		bl	GateInit
  67:.\main.c      **** 
  68:.\main.c      ****     return NO_ERROR;  
 225              		.loc 1 68 0
 226 0026 0123     		mov	r3, #1
  69:.\main.c      **** }
 227              		.loc 1 69 0
 228 0028 181C     		mov	r0, r3
 229 002a BD46     		mov	sp, r7
 230              		@ sp needed
 231 002c 80BD     		pop	{r7, pc}
 232              	.L18:
 233 002e C046     		.align	2
 234              	.L17:
 235 0030 00000000 		.word	.LC2
 236              		.cfi_endproc
 237              	.LFE64:
 238              		.size	SystemInit, .-SystemInit
 239              		.section	.rodata
 240 000f 00       		.align	2
 241              	.LC4:
 242 0010 46696E20 		.ascii	"Fin no ready\000"
 242      6E6F2072 
 242      65616479 
 242      00
 243              		.section	.text.GetFinishStatus,"ax",%progbits
 244              		.align	2
 245              		.global	GetFinishStatus
 246              		.code	16
 247              		.thumb_func
 248              		.type	GetFinishStatus, %function
 249              	GetFinishStatus:
 250              	.LFB65:
  70:.\main.c      **** 
  71:.\main.c      **** uint32_t GetFinishStatus(void)
  72:.\main.c      **** {
 251              		.loc 1 72 0
 252              		.cfi_startproc
 253 0000 80B5     		push	{r7, lr}
 254              		.cfi_def_cfa_offset 8
 255              		.cfi_offset 7, -8
 256              		.cfi_offset 14, -4
 257 0002 82B0     		sub	sp, sp, #8
 258              		.cfi_def_cfa_offset 16
ARM GAS  C:\Users\Petro\AppData\Local\Temp\ccpY343h.s 			page 7


 259 0004 00AF     		add	r7, sp, #0
 260              		.cfi_def_cfa_register 7
  73:.\main.c      ****     uint32_t result;
  74:.\main.c      ****     
  75:.\main.c      ****     if (NetworkStatus() == NETWORK_DISCONN || FinWriteInDB() == NO_WRITE || FinReady() == NO_READY)
 261              		.loc 1 75 0
 262 0006 FFF7FEFF 		bl	NetworkStatus
 263 000a 031E     		sub	r3, r0, #0
 264 000c 07D0     		beq	.L20
 265              		.loc 1 75 0 is_stmt 0 discriminator 1
 266 000e FFF7FEFF 		bl	FinWriteInDB
 267 0012 031E     		sub	r3, r0, #0
 268 0014 03D0     		beq	.L20
 269              		.loc 1 75 0 discriminator 2
 270 0016 FFF7FEFF 		bl	FinReady
 271 001a 031E     		sub	r3, r0, #0
 272 001c 10D1     		bne	.L21
 273              	.L20:
  76:.\main.c      ****     {
  77:.\main.c      ****         LedBlink(FREQ_ERR_BLINK);
 274              		.loc 1 77 0 is_stmt 1
 275 001e 0A20     		mov	r0, #10
 276 0020 FFF7FEFF 		bl	LedBlink
  78:.\main.c      ****         result = ERROR;
 277              		.loc 1 78 0
 278 0024 0023     		mov	r3, #0
 279 0026 7B60     		str	r3, [r7, #4]
  79:.\main.c      ****         DisplayPrintf("Fin no ready");
 280              		.loc 1 79 0
 281 0028 094B     		ldr	r3, .L24
 282 002a 181C     		mov	r0, r3
 283 002c FFF7FEFF 		bl	DisplayPrintf
  80:.\main.c      ****         DisAllowNextSkier();
 284              		.loc 1 80 0
 285 0030 FFF7FEFF 		bl	DisAllowNextSkier
  81:.\main.c      ****         MyDelay(TIMEOUT_USER_READ_INFO);
 286              		.loc 1 81 0
 287 0034 FA23     		mov	r3, #250
 288 0036 5B00     		lsl	r3, r3, #1
 289 0038 181C     		mov	r0, r3
 290 003a FFF7FEFF 		bl	MyDelay
 291 003e 01E0     		b	.L22
 292              	.L21:
  82:.\main.c      ****     }
  83:.\main.c      ****     else
  84:.\main.c      ****     {
  85:.\main.c      ****         result = NO_ERROR;
 293              		.loc 1 85 0
 294 0040 0123     		mov	r3, #1
 295 0042 7B60     		str	r3, [r7, #4]
 296              	.L22:
  86:.\main.c      ****     }
  87:.\main.c      ****           
  88:.\main.c      ****     return result;
 297              		.loc 1 88 0
 298 0044 7B68     		ldr	r3, [r7, #4]
  89:.\main.c      ****     
ARM GAS  C:\Users\Petro\AppData\Local\Temp\ccpY343h.s 			page 8


  90:.\main.c      **** }
 299              		.loc 1 90 0
 300 0046 181C     		mov	r0, r3
 301 0048 BD46     		mov	sp, r7
 302 004a 02B0     		add	sp, sp, #8
 303              		@ sp needed
 304 004c 80BD     		pop	{r7, pc}
 305              	.L25:
 306 004e C046     		.align	2
 307              	.L24:
 308 0050 10000000 		.word	.LC4
 309              		.cfi_endproc
 310              	.LFE65:
 311              		.size	GetFinishStatus, .-GetFinishStatus
 312              		.section	.rodata
 313 001d 000000   		.align	2
 314              	.LC6:
 315 0020 536B6965 		.ascii	"Skier Started\000"
 315      72205374 
 315      61727465 
 315      6400
 316 002e 0000     		.align	2
 317              	.LC8:
 318 0030 53746172 		.ascii	"Start ready\000"
 318      74207265 
 318      61647900 
 319              		.section	.text.CheckGate,"ax",%progbits
 320              		.align	2
 321              		.global	CheckGate
 322              		.code	16
 323              		.thumb_func
 324              		.type	CheckGate, %function
 325              	CheckGate:
 326              	.LFB66:
  91:.\main.c      **** 
  92:.\main.c      **** uint32_t CheckGate(void)
  93:.\main.c      **** {
 327              		.loc 1 93 0
 328              		.cfi_startproc
 329 0000 80B5     		push	{r7, lr}
 330              		.cfi_def_cfa_offset 8
 331              		.cfi_offset 7, -8
 332              		.cfi_offset 14, -4
 333 0002 82B0     		sub	sp, sp, #8
 334              		.cfi_def_cfa_offset 16
 335 0004 00AF     		add	r7, sp, #0
 336              		.cfi_def_cfa_register 7
  94:.\main.c      ****     uint32_t result;
  95:.\main.c      ****     
  96:.\main.c      ****     result = GateIsOpen();
 337              		.loc 1 96 0
 338 0006 FFF7FEFF 		bl	GateIsOpen
 339 000a 031C     		mov	r3, r0
 340 000c 7B60     		str	r3, [r7, #4]
  97:.\main.c      ****     
  98:.\main.c      ****     if(result == GATE_OPEN)
 341              		.loc 1 98 0
ARM GAS  C:\Users\Petro\AppData\Local\Temp\ccpY343h.s 			page 9


 342 000e 7B68     		ldr	r3, [r7, #4]
 343 0010 012B     		cmp	r3, #1
 344 0012 0CD1     		bne	.L27
  99:.\main.c      ****     {
 100:.\main.c      ****         DisplayPrintf("Skier Started");
 345              		.loc 1 100 0
 346 0014 0D4B     		ldr	r3, .L30
 347 0016 181C     		mov	r0, r3
 348 0018 FFF7FEFF 		bl	DisplayPrintf
 101:.\main.c      ****         LedBlink(FREQ_INIT_BLINK);
 349              		.loc 1 101 0
 350 001c 0320     		mov	r0, #3
 351 001e FFF7FEFF 		bl	LedBlink
 102:.\main.c      ****         MyDelay(TIMEOUT_USER_READ_INFO);
 352              		.loc 1 102 0
 353 0022 FA23     		mov	r3, #250
 354 0024 5B00     		lsl	r3, r3, #1
 355 0026 181C     		mov	r0, r3
 356 0028 FFF7FEFF 		bl	MyDelay
 357 002c 08E0     		b	.L28
 358              	.L27:
 103:.\main.c      **** 
 104:.\main.c      ****     }else
 105:.\main.c      ****     {
 106:.\main.c      ****         DisplayPrintf("Start ready");
 359              		.loc 1 106 0
 360 002e 084B     		ldr	r3, .L30+4
 361 0030 181C     		mov	r0, r3
 362 0032 FFF7FEFF 		bl	DisplayPrintf
 107:.\main.c      ****         SetLedState(LED_ENABLE);
 363              		.loc 1 107 0
 364 0036 0120     		mov	r0, #1
 365 0038 FFF7FEFF 		bl	SetLedState
 108:.\main.c      ****         AllowNextSkier();
 366              		.loc 1 108 0
 367 003c FFF7FEFF 		bl	AllowNextSkier
 368              	.L28:
 109:.\main.c      **** 
 110:.\main.c      ****     }
 111:.\main.c      ****     return result;
 369              		.loc 1 111 0
 370 0040 7B68     		ldr	r3, [r7, #4]
 112:.\main.c      ****     
 113:.\main.c      **** }
 371              		.loc 1 113 0
 372 0042 181C     		mov	r0, r3
 373 0044 BD46     		mov	sp, r7
 374 0046 02B0     		add	sp, sp, #8
 375              		@ sp needed
 376 0048 80BD     		pop	{r7, pc}
 377              	.L31:
 378 004a C046     		.align	2
 379              	.L30:
 380 004c 20000000 		.word	.LC6
 381 0050 30000000 		.word	.LC8
 382              		.cfi_endproc
 383              	.LFE66:
ARM GAS  C:\Users\Petro\AppData\Local\Temp\ccpY343h.s 			page 10


 384              		.size	CheckGate, .-CheckGate
 385              		.section	.rodata
 386              		.align	2
 387              	.LC10:
 388 003c 53617665 		.ascii	"Save result\000"
 388      20726573 
 388      756C7400 
 389              		.align	2
 390              	.LC12:
 391 0048 57616974 		.ascii	"Wait next skier\000"
 391      206E6578 
 391      7420736B 
 391      69657200 
 392              		.section	.text.SaveResult,"ax",%progbits
 393              		.align	2
 394              		.global	SaveResult
 395              		.code	16
 396              		.thumb_func
 397              		.type	SaveResult, %function
 398              	SaveResult:
 399              	.LFB67:
 114:.\main.c      **** 
 115:.\main.c      **** uint32_t SaveResult(void)
 116:.\main.c      **** {
 400              		.loc 1 116 0
 401              		.cfi_startproc
 402 0000 90B5     		push	{r4, r7, lr}
 403              		.cfi_def_cfa_offset 12
 404              		.cfi_offset 4, -12
 405              		.cfi_offset 7, -8
 406              		.cfi_offset 14, -4
 407 0002 87B0     		sub	sp, sp, #28
 408              		.cfi_def_cfa_offset 40
 409 0004 00AF     		add	r7, sp, #0
 410              		.cfi_def_cfa_register 7
 117:.\main.c      ****     uint32_t result;
 118:.\main.c      ****     uint64_t startUnixTime;
 119:.\main.c      ****     uint32_t startRecentMs;
 120:.\main.c      ****     
 121:.\main.c      ****     LedBlink(FREQ_INIT_BLINK);
 411              		.loc 1 121 0
 412 0006 0320     		mov	r0, #3
 413 0008 FFF7FEFF 		bl	LedBlink
 122:.\main.c      ****     DisplayPrintf("Save result");
 414              		.loc 1 122 0
 415 000c 134B     		ldr	r3, .L34
 416 000e 181C     		mov	r0, r3
 417 0010 FFF7FEFF 		bl	DisplayPrintf
 123:.\main.c      ****     MyDelay(TIMEOUT_USER_READ_INFO);
 418              		.loc 1 123 0
 419 0014 FA23     		mov	r3, #250
 420 0016 5B00     		lsl	r3, r3, #1
 421 0018 181C     		mov	r0, r3
 422 001a FFF7FEFF 		bl	MyDelay
 124:.\main.c      ****     
 125:.\main.c      ****     GetStartTime(&startUnixTime, &startRecentMs);
 423              		.loc 1 125 0
ARM GAS  C:\Users\Petro\AppData\Local\Temp\ccpY343h.s 			page 11


 424 001e 0823     		mov	r3, #8
 425 0020 FA18     		add	r2, r7, r3
 426 0022 3B1D     		add	r3, r7, #4
 427 0024 101C     		mov	r0, r2
 428 0026 191C     		mov	r1, r3
 429 0028 FFF7FEFF 		bl	GetStartTime
 126:.\main.c      ****     SendSkierStart(startUnixTime, startRecentMs);
 430              		.loc 1 126 0
 431 002c BB68     		ldr	r3, [r7, #8]
 432 002e FC68     		ldr	r4, [r7, #12]
 433 0030 7A68     		ldr	r2, [r7, #4]
 434 0032 181C     		mov	r0, r3
 435 0034 211C     		mov	r1, r4
 436 0036 FFF7FEFF 		bl	SendSkierStart
 127:.\main.c      ****     
 128:.\main.c      ****     DisplayPrintf("Wait next skier");
 437              		.loc 1 128 0
 438 003a 094B     		ldr	r3, .L34+4
 439 003c 181C     		mov	r0, r3
 440 003e FFF7FEFF 		bl	DisplayPrintf
 129:.\main.c      ****     MyDelay(TIMEOUT_NEXT_SKIER);
 441              		.loc 1 129 0
 442 0042 FA23     		mov	r3, #250
 443 0044 DB00     		lsl	r3, r3, #3
 444 0046 181C     		mov	r0, r3
 445 0048 FFF7FEFF 		bl	MyDelay
 130:.\main.c      ****     
 131:.\main.c      ****     result = NO_ERROR;
 446              		.loc 1 131 0
 447 004c 0123     		mov	r3, #1
 448 004e 7B61     		str	r3, [r7, #20]
 132:.\main.c      ****     
 133:.\main.c      ****     return result;
 449              		.loc 1 133 0
 450 0050 7B69     		ldr	r3, [r7, #20]
 134:.\main.c      ****     
 135:.\main.c      **** }
 451              		.loc 1 135 0
 452 0052 181C     		mov	r0, r3
 453 0054 BD46     		mov	sp, r7
 454 0056 07B0     		add	sp, sp, #28
 455              		@ sp needed
 456 0058 90BD     		pop	{r4, r7, pc}
 457              	.L35:
 458 005a C046     		.align	2
 459              	.L34:
 460 005c 3C000000 		.word	.LC10
 461 0060 48000000 		.word	.LC12
 462              		.cfi_endproc
 463              	.LFE67:
 464              		.size	SaveResult, .-SaveResult
 465              		.text
 466              	.Letext0:
 467              		.file 2 "c:\\program files (x86)\\cypress\\psoc creator\\3.3\\psoc creator\\import\\gnu\\arm\\4.9.
 468              		.file 3 "c:\\program files (x86)\\cypress\\psoc creator\\3.3\\psoc creator\\import\\gnu\\arm\\4.9.
 469              		.file 4 ".\\lib_Network\\network.h"
 470              		.file 5 ".\\appGlobal.h"
ARM GAS  C:\Users\Petro\AppData\Local\Temp\ccpY343h.s 			page 12


 471              		.file 6 ".\\lib_Display\\display.h"
 472              		.file 7 ".\\lib_Gate\\gate.h"
 473              		.file 8 ".\\lib_MyDelay\\myDelay.h"
 474              		.file 9 "./lib_Network\\svt.h"