ARM GAS  C:\Users\Petro\AppData\Local\Temp\cc9Scm3O.s 			page 1


   1              		.cpu cortex-m0
   2              		.fpu softvfp
   3              		.eabi_attribute 20, 1
   4              		.eabi_attribute 21, 1
   5              		.eabi_attribute 23, 3
   6              		.eabi_attribute 24, 1
   7              		.eabi_attribute 25, 1
   8              		.eabi_attribute 26, 1
   9              		.eabi_attribute 30, 6
  10              		.eabi_attribute 34, 0
  11              		.eabi_attribute 18, 4
  12              		.code	16
  13              		.file	"network.c"
  14              		.text
  15              	.Ltext0:
  16              		.cfi_sections	.debug_frame
  17              		.section	.text.RTC_GetSecond,"ax",%progbits
  18              		.align	2
  19              		.code	16
  20              		.thumb_func
  21              		.type	RTC_GetSecond, %function
  22              	RTC_GetSecond:
  23              	.LFB4:
  24              		.file 1 "Generated_Source\\PSoC4/RTC.h"
   1:Generated_Source\PSoC4/RTC.h **** /***************************************************************************//**
   2:Generated_Source\PSoC4/RTC.h **** * \file Name: RTC.h
   3:Generated_Source\PSoC4/RTC.h **** * \version 1.10
   4:Generated_Source\PSoC4/RTC.h **** *
   5:Generated_Source\PSoC4/RTC.h **** * \brief
   6:Generated_Source\PSoC4/RTC.h **** *  This file provides constants and parameter values for the RTC_P4 Component.
   7:Generated_Source\PSoC4/RTC.h **** *
   8:Generated_Source\PSoC4/RTC.h **** ********************************************************************************
   9:Generated_Source\PSoC4/RTC.h **** * Copyright 2015-2016, Cypress Semiconductor Corporation.  All rights reserved.
  10:Generated_Source\PSoC4/RTC.h **** * You may use this file only in accordance with the license, terms, conditions,
  11:Generated_Source\PSoC4/RTC.h **** * disclaimers, and limitations in the end user license agreement accompanying
  12:Generated_Source\PSoC4/RTC.h **** * the software package with which this file was provided.
  13:Generated_Source\PSoC4/RTC.h **** *******************************************************************************/
  14:Generated_Source\PSoC4/RTC.h **** 
  15:Generated_Source\PSoC4/RTC.h **** #if !defined(CY_RTC_P4_RTC_H)
  16:Generated_Source\PSoC4/RTC.h **** #define CY_RTC_P4_RTC_H
  17:Generated_Source\PSoC4/RTC.h **** 
  18:Generated_Source\PSoC4/RTC.h **** #include <cytypes.h>
  19:Generated_Source\PSoC4/RTC.h **** #include <CyLib.h>
  20:Generated_Source\PSoC4/RTC.h **** 
  21:Generated_Source\PSoC4/RTC.h **** 
  22:Generated_Source\PSoC4/RTC.h **** /*******************************************************************************
  23:Generated_Source\PSoC4/RTC.h **** *    Data types definition
  24:Generated_Source\PSoC4/RTC.h **** *******************************************************************************/
  25:Generated_Source\PSoC4/RTC.h **** 
  26:Generated_Source\PSoC4/RTC.h **** typedef enum
  27:Generated_Source\PSoC4/RTC.h **** {
  28:Generated_Source\PSoC4/RTC.h ****     RTC_DST_DATE_RELATIVE = 0u,
  29:Generated_Source\PSoC4/RTC.h ****     RTC_DST_DATE_FIXED = 1u
  30:Generated_Source\PSoC4/RTC.h **** }RTC_DST_DATETYPE_ENUM;
  31:Generated_Source\PSoC4/RTC.h **** 
  32:Generated_Source\PSoC4/RTC.h **** /**
  33:Generated_Source\PSoC4/RTC.h **** * \addtogroup group_structures
ARM GAS  C:\Users\Petro\AppData\Local\Temp\cc9Scm3O.s 			page 2


  34:Generated_Source\PSoC4/RTC.h **** * @{
  35:Generated_Source\PSoC4/RTC.h **** */
  36:Generated_Source\PSoC4/RTC.h **** 
  37:Generated_Source\PSoC4/RTC.h **** /**
  38:Generated_Source\PSoC4/RTC.h **** * This is the data structure that is used to save the current time and date 
  39:Generated_Source\PSoC4/RTC.h **** * (RTC_currentTimeDate), and Alarm time and date (RTC_alarmCfgTimeDate).
  40:Generated_Source\PSoC4/RTC.h **** */
  41:Generated_Source\PSoC4/RTC.h **** typedef struct
  42:Generated_Source\PSoC4/RTC.h **** {
  43:Generated_Source\PSoC4/RTC.h ****     uint32 time;
  44:Generated_Source\PSoC4/RTC.h ****     uint32 date;
  45:Generated_Source\PSoC4/RTC.h ****     uint32 dayOfWeek;
  46:Generated_Source\PSoC4/RTC.h ****     uint32 status;
  47:Generated_Source\PSoC4/RTC.h **** }RTC_DATE_TIME;
  48:Generated_Source\PSoC4/RTC.h **** 
  49:Generated_Source\PSoC4/RTC.h **** /**
  50:Generated_Source\PSoC4/RTC.h **** * This is the data structure that is used to save time and date values for 
  51:Generated_Source\PSoC4/RTC.h **** * Daylight Savings Time Start and Stop (RTC_dstTimeDateStart and 
  52:Generated_Source\PSoC4/RTC.h **** * RTC_dstTimeDateStop).
  53:Generated_Source\PSoC4/RTC.h **** */
  54:Generated_Source\PSoC4/RTC.h **** typedef struct
  55:Generated_Source\PSoC4/RTC.h **** {
  56:Generated_Source\PSoC4/RTC.h ****     uint32 hour;
  57:Generated_Source\PSoC4/RTC.h ****     uint32 dayOfWeek;
  58:Generated_Source\PSoC4/RTC.h ****     uint32 dayOfMonth;
  59:Generated_Source\PSoC4/RTC.h ****     uint32 weekOfMonth;
  60:Generated_Source\PSoC4/RTC.h ****     uint32 month;
  61:Generated_Source\PSoC4/RTC.h ****     uint8  timeFormat;
  62:Generated_Source\PSoC4/RTC.h **** }RTC_DST_TIME;
  63:Generated_Source\PSoC4/RTC.h **** 
  64:Generated_Source\PSoC4/RTC.h **** /** @} structures */
  65:Generated_Source\PSoC4/RTC.h **** 
  66:Generated_Source\PSoC4/RTC.h **** /*******************************************************************************
  67:Generated_Source\PSoC4/RTC.h **** *    Enumerated Types and Parameters
  68:Generated_Source\PSoC4/RTC.h **** *******************************************************************************/
  69:Generated_Source\PSoC4/RTC.h **** /* Time Format setting constants */
  70:Generated_Source\PSoC4/RTC.h **** #define RTC__HOUR_12 1
  71:Generated_Source\PSoC4/RTC.h **** #define RTC__HOUR_24 0
  72:Generated_Source\PSoC4/RTC.h **** 
  73:Generated_Source\PSoC4/RTC.h **** /*  Date Format setting constants */
  74:Generated_Source\PSoC4/RTC.h **** #define RTC__MM_DD_YYYY 0
  75:Generated_Source\PSoC4/RTC.h **** #define RTC__DD_MM_YYYY 1
  76:Generated_Source\PSoC4/RTC.h **** #define RTC__YYYY_MM_DD 2
  77:Generated_Source\PSoC4/RTC.h **** 
  78:Generated_Source\PSoC4/RTC.h **** /* Date Type setting constants */
  79:Generated_Source\PSoC4/RTC.h **** #define RTC__RELATIVE 0
  80:Generated_Source\PSoC4/RTC.h **** #define RTC__FIXED 1
  81:Generated_Source\PSoC4/RTC.h **** 
  82:Generated_Source\PSoC4/RTC.h **** /* DST Hour setting constants */
  83:Generated_Source\PSoC4/RTC.h **** #define RTC__H0000 0
  84:Generated_Source\PSoC4/RTC.h **** #define RTC__H0100 1
  85:Generated_Source\PSoC4/RTC.h **** #define RTC__H0200 2
  86:Generated_Source\PSoC4/RTC.h **** #define RTC__H0300 3
  87:Generated_Source\PSoC4/RTC.h **** #define RTC__H0400 4
  88:Generated_Source\PSoC4/RTC.h **** #define RTC__H0500 5
  89:Generated_Source\PSoC4/RTC.h **** #define RTC__H0600 6
  90:Generated_Source\PSoC4/RTC.h **** #define RTC__H0700 7
ARM GAS  C:\Users\Petro\AppData\Local\Temp\cc9Scm3O.s 			page 3


  91:Generated_Source\PSoC4/RTC.h **** #define RTC__H0800 8
  92:Generated_Source\PSoC4/RTC.h **** #define RTC__H0900 9
  93:Generated_Source\PSoC4/RTC.h **** #define RTC__H1000 10
  94:Generated_Source\PSoC4/RTC.h **** #define RTC__H1100 11
  95:Generated_Source\PSoC4/RTC.h **** #define RTC__H1200 12
  96:Generated_Source\PSoC4/RTC.h **** #define RTC__H1300 13
  97:Generated_Source\PSoC4/RTC.h **** #define RTC__H1400 14
  98:Generated_Source\PSoC4/RTC.h **** #define RTC__H1500 15
  99:Generated_Source\PSoC4/RTC.h **** #define RTC__H1600 16
 100:Generated_Source\PSoC4/RTC.h **** #define RTC__H1700 17
 101:Generated_Source\PSoC4/RTC.h **** #define RTC__H1800 18
 102:Generated_Source\PSoC4/RTC.h **** #define RTC__H1900 19
 103:Generated_Source\PSoC4/RTC.h **** #define RTC__H2000 20
 104:Generated_Source\PSoC4/RTC.h **** #define RTC__H2100 21
 105:Generated_Source\PSoC4/RTC.h **** #define RTC__H2200 22
 106:Generated_Source\PSoC4/RTC.h **** #define RTC__H2300 23
 107:Generated_Source\PSoC4/RTC.h **** 
 108:Generated_Source\PSoC4/RTC.h **** /* DST DayOfWeek setting constants */
 109:Generated_Source\PSoC4/RTC.h **** #define RTC__SUNDAY 1
 110:Generated_Source\PSoC4/RTC.h **** #define RTC__MONDAY 2
 111:Generated_Source\PSoC4/RTC.h **** #define RTC__TUESDAY 3
 112:Generated_Source\PSoC4/RTC.h **** #define RTC__WEDNESDAY 4
 113:Generated_Source\PSoC4/RTC.h **** #define RTC__THURSDAY 5
 114:Generated_Source\PSoC4/RTC.h **** #define RTC__FRIDAY 6
 115:Generated_Source\PSoC4/RTC.h **** #define RTC__SATURDAY 7
 116:Generated_Source\PSoC4/RTC.h **** 
 117:Generated_Source\PSoC4/RTC.h **** /* DST Month setting constants */
 118:Generated_Source\PSoC4/RTC.h **** #define RTC__JAN 1
 119:Generated_Source\PSoC4/RTC.h **** #define RTC__FEB 2
 120:Generated_Source\PSoC4/RTC.h **** #define RTC__MAR 3
 121:Generated_Source\PSoC4/RTC.h **** #define RTC__APR 4
 122:Generated_Source\PSoC4/RTC.h **** #define RTC__MAY 5
 123:Generated_Source\PSoC4/RTC.h **** #define RTC__JUN 6
 124:Generated_Source\PSoC4/RTC.h **** #define RTC__JUL 7
 125:Generated_Source\PSoC4/RTC.h **** #define RTC__AUG 8
 126:Generated_Source\PSoC4/RTC.h **** #define RTC__SEP 9
 127:Generated_Source\PSoC4/RTC.h **** #define RTC__OCT 10
 128:Generated_Source\PSoC4/RTC.h **** #define RTC__NOV 11
 129:Generated_Source\PSoC4/RTC.h **** #define RTC__DEC 12
 130:Generated_Source\PSoC4/RTC.h **** 
 131:Generated_Source\PSoC4/RTC.h **** /* DST WeekOfMonth setting constants */
 132:Generated_Source\PSoC4/RTC.h **** #define RTC__FIRST 1
 133:Generated_Source\PSoC4/RTC.h **** #define RTC__SECOND 2
 134:Generated_Source\PSoC4/RTC.h **** #define RTC__THIRD 3
 135:Generated_Source\PSoC4/RTC.h **** #define RTC__FOURTH 4
 136:Generated_Source\PSoC4/RTC.h **** #define RTC__FIFTH 5
 137:Generated_Source\PSoC4/RTC.h **** #define RTC__LAST 6
 138:Generated_Source\PSoC4/RTC.h **** 
 139:Generated_Source\PSoC4/RTC.h **** 
 140:Generated_Source\PSoC4/RTC.h **** #define RTC_INITIAL_DATA_FORMAT     (0u)
 141:Generated_Source\PSoC4/RTC.h **** #define RTC_INITIAL_TIME_FORMAT     (0u)
 142:Generated_Source\PSoC4/RTC.h **** #define RTC_INITIAL_UPDATE_MODE     (0u)
 143:Generated_Source\PSoC4/RTC.h **** #define RTC_INITIAL_SECOND          (28u)
 144:Generated_Source\PSoC4/RTC.h **** #define RTC_INITIAL_MINUTE          (46u)
 145:Generated_Source\PSoC4/RTC.h **** #define RTC_INITIAL_HOUR            (16u)
 146:Generated_Source\PSoC4/RTC.h **** #define RTC_INITIAL_DAY             (5u)
 147:Generated_Source\PSoC4/RTC.h **** #define RTC_INITIAL_MONTH           (8u)
ARM GAS  C:\Users\Petro\AppData\Local\Temp\cc9Scm3O.s 			page 4


 148:Generated_Source\PSoC4/RTC.h **** #define RTC_INITIAL_YEAR            (2016u)
 149:Generated_Source\PSoC4/RTC.h **** 
 150:Generated_Source\PSoC4/RTC.h **** #define RTC_INITIAL_ALARM_STATUS    (0u)
 151:Generated_Source\PSoC4/RTC.h **** 
 152:Generated_Source\PSoC4/RTC.h **** #define RTC_INITIAL_DST_STATUS      (0u)
 153:Generated_Source\PSoC4/RTC.h **** #define RTC_INITIAL_DST_DATE_TYPE   (0u)
 154:Generated_Source\PSoC4/RTC.h **** #define RTC_INITIAL_DST_START_MONTH (3uL)
 155:Generated_Source\PSoC4/RTC.h **** #define RTC_INITIAL_DST_START_WOM   (6uL)
 156:Generated_Source\PSoC4/RTC.h **** #define RTC_INITIAL_DST_START_DOM   (22uL)
 157:Generated_Source\PSoC4/RTC.h **** #define RTC_INITIAL_DST_START_DOW   (1uL)
 158:Generated_Source\PSoC4/RTC.h **** #define RTC_INITIAL_DST_START_HRS   (0uL)
 159:Generated_Source\PSoC4/RTC.h **** #define RTC_INITIAL_DST_STOP_MONTH  (10uL)
 160:Generated_Source\PSoC4/RTC.h **** #define RTC_INITIAL_DST_STOP_DOM    (22uL)
 161:Generated_Source\PSoC4/RTC.h **** #define RTC_INITIAL_DST_STOP_DOW    (1uL)
 162:Generated_Source\PSoC4/RTC.h **** #define RTC_INITIAL_DST_STOP_WOM    (6uL)
 163:Generated_Source\PSoC4/RTC.h **** #define RTC_INITIAL_DST_STOP_HRS    (0uL)
 164:Generated_Source\PSoC4/RTC.h **** 
 165:Generated_Source\PSoC4/RTC.h **** /* Day of week definitions */
 166:Generated_Source\PSoC4/RTC.h **** #define RTC_SUNDAY     (RTC__SUNDAY)
 167:Generated_Source\PSoC4/RTC.h **** #define RTC_MONDAY     (RTC__MONDAY)
 168:Generated_Source\PSoC4/RTC.h **** #define RTC_TUESDAY    (RTC__TUESDAY)
 169:Generated_Source\PSoC4/RTC.h **** #define RTC_WEDNESDAY  (RTC__WEDNESDAY)
 170:Generated_Source\PSoC4/RTC.h **** #define RTC_THURSDAY   (RTC__THURSDAY)
 171:Generated_Source\PSoC4/RTC.h **** #define RTC_FRIDAY     (RTC__FRIDAY)
 172:Generated_Source\PSoC4/RTC.h **** #define RTC_SATURDAY   (RTC__SATURDAY)
 173:Generated_Source\PSoC4/RTC.h **** 
 174:Generated_Source\PSoC4/RTC.h **** /* DST WeekOfMonth setting constants definitions */
 175:Generated_Source\PSoC4/RTC.h **** #define RTC_FIRST      (RTC__FIRST)
 176:Generated_Source\PSoC4/RTC.h **** #define RTC_SECOND     (RTC__SECOND)
 177:Generated_Source\PSoC4/RTC.h **** #define RTC_THIRD      (RTC__THIRD)
 178:Generated_Source\PSoC4/RTC.h **** #define RTC_FOURTH     (RTC__FOURTH)
 179:Generated_Source\PSoC4/RTC.h **** #define RTC_FIFTH      (RTC__FIFTH)
 180:Generated_Source\PSoC4/RTC.h **** #define RTC_LAST       (RTC__LAST)
 181:Generated_Source\PSoC4/RTC.h **** 
 182:Generated_Source\PSoC4/RTC.h **** /* Month definitions */
 183:Generated_Source\PSoC4/RTC.h **** #define RTC_JANUARY    (RTC__JAN)
 184:Generated_Source\PSoC4/RTC.h **** #define RTC_FEBRUARY   (RTC__FEB)
 185:Generated_Source\PSoC4/RTC.h **** #define RTC_MARCH      (RTC__MAR)
 186:Generated_Source\PSoC4/RTC.h **** #define RTC_APRIL      (RTC__APR)
 187:Generated_Source\PSoC4/RTC.h **** #define RTC_MAY        (RTC__MAY)
 188:Generated_Source\PSoC4/RTC.h **** #define RTC_JUNE       (RTC__JUN)
 189:Generated_Source\PSoC4/RTC.h **** #define RTC_JULY       (RTC__JUL)
 190:Generated_Source\PSoC4/RTC.h **** #define RTC_AUGUST     (RTC__AUG)
 191:Generated_Source\PSoC4/RTC.h **** #define RTC_SEPTEMBER  (RTC__SEP)
 192:Generated_Source\PSoC4/RTC.h **** #define RTC_OCTOBER    (RTC__OCT)
 193:Generated_Source\PSoC4/RTC.h **** #define RTC_NOVEMBER   (RTC__NOV)
 194:Generated_Source\PSoC4/RTC.h **** #define RTC_DECEMBER   (RTC__DEC)
 195:Generated_Source\PSoC4/RTC.h **** 
 196:Generated_Source\PSoC4/RTC.h **** #define RTC_DAYS_PER_WEEK       (7u)
 197:Generated_Source\PSoC4/RTC.h **** 
 198:Generated_Source\PSoC4/RTC.h **** /* Number of days in month definitions */
 199:Generated_Source\PSoC4/RTC.h **** #define RTC_DAYS_IN_JANUARY     (31u)
 200:Generated_Source\PSoC4/RTC.h **** #define RTC_DAYS_IN_FEBRUARY    (28u)
 201:Generated_Source\PSoC4/RTC.h **** #define RTC_DAYS_IN_MARCH       (31u)
 202:Generated_Source\PSoC4/RTC.h **** #define RTC_DAYS_IN_APRIL       (30u)
 203:Generated_Source\PSoC4/RTC.h **** #define RTC_DAYS_IN_MAY         (31u)
 204:Generated_Source\PSoC4/RTC.h **** #define RTC_DAYS_IN_JUNE        (30u)
ARM GAS  C:\Users\Petro\AppData\Local\Temp\cc9Scm3O.s 			page 5


 205:Generated_Source\PSoC4/RTC.h **** #define RTC_DAYS_IN_JULY        (31u)
 206:Generated_Source\PSoC4/RTC.h **** #define RTC_DAYS_IN_AUGUST      (31u)
 207:Generated_Source\PSoC4/RTC.h **** #define RTC_DAYS_IN_SEPTEMBER   (30u)
 208:Generated_Source\PSoC4/RTC.h **** #define RTC_DAYS_IN_OCTOBER     (31u)
 209:Generated_Source\PSoC4/RTC.h **** #define RTC_DAYS_IN_NOVEMBER    (30u)
 210:Generated_Source\PSoC4/RTC.h **** #define RTC_DAYS_IN_DECEMBER    (31u)
 211:Generated_Source\PSoC4/RTC.h **** 
 212:Generated_Source\PSoC4/RTC.h **** #define RTC_MONTHS_PER_YEAR     (12uL)
 213:Generated_Source\PSoC4/RTC.h **** 
 214:Generated_Source\PSoC4/RTC.h **** #define RTC_HOURS_PER_DAY       (24uL)
 215:Generated_Source\PSoC4/RTC.h **** #define RTC_HOURS_PER_HALF_DAY  (12uL)
 216:Generated_Source\PSoC4/RTC.h **** 
 217:Generated_Source\PSoC4/RTC.h **** #define RTC_SECONDS_PER_MINUTE  (60uL)
 218:Generated_Source\PSoC4/RTC.h **** #define RTC_SECONDS_PER_HOUR    (3600uL)
 219:Generated_Source\PSoC4/RTC.h **** #define RTC_SECONDS_PER_DAY     (24uL * 3600uL)
 220:Generated_Source\PSoC4/RTC.h **** 
 221:Generated_Source\PSoC4/RTC.h **** #define RTC_SECONDS_PER_LEAP_YEAR    (366uL * 24uL * 3600uL)
 222:Generated_Source\PSoC4/RTC.h **** #define RTC_SECONDS_PER_NONLEAP_YEAR (365uL * 24uL * 3600uL)
 223:Generated_Source\PSoC4/RTC.h **** 
 224:Generated_Source\PSoC4/RTC.h **** #define RTC_UNIX_TIME_PM   ((12uL * 3600uL) + 1uL)
 225:Generated_Source\PSoC4/RTC.h **** 
 226:Generated_Source\PSoC4/RTC.h **** /* AM/PM status definitions */
 227:Generated_Source\PSoC4/RTC.h **** #define RTC_AM                 (0u)
 228:Generated_Source\PSoC4/RTC.h **** #define RTC_PM                 (1u)
 229:Generated_Source\PSoC4/RTC.h **** 
 230:Generated_Source\PSoC4/RTC.h **** /* Time format definitions */
 231:Generated_Source\PSoC4/RTC.h **** #define RTC_12_HOURS_FORMAT    (RTC__HOUR_12)
 232:Generated_Source\PSoC4/RTC.h **** #define RTC_24_HOURS_FORMAT    (RTC__HOUR_24)
 233:Generated_Source\PSoC4/RTC.h **** 
 234:Generated_Source\PSoC4/RTC.h **** /* UNIX time begins in 1970 year.  */
 235:Generated_Source\PSoC4/RTC.h **** #define RTC_YEAR_0             (1970u)
 236:Generated_Source\PSoC4/RTC.h **** 
 237:Generated_Source\PSoC4/RTC.h **** /* Definition of date register fields */
 238:Generated_Source\PSoC4/RTC.h **** #if(RTC_INITIAL_DATA_FORMAT == RTC__MM_DD_YYYY)
 239:Generated_Source\PSoC4/RTC.h ****     #define RTC_10_MONTH_OFFSET   (28u)
 240:Generated_Source\PSoC4/RTC.h ****     #define RTC_MONTH_OFFSET      (24u)
 241:Generated_Source\PSoC4/RTC.h ****     #define RTC_10_DAY_OFFSET     (20u)
 242:Generated_Source\PSoC4/RTC.h ****     #define RTC_DAY_OFFSET        (16u)
 243:Generated_Source\PSoC4/RTC.h ****     #define RTC_1000_YEAR_OFFSET  (12u)
 244:Generated_Source\PSoC4/RTC.h ****     #define RTC_100_YEAR_OFFSET   (8u)
 245:Generated_Source\PSoC4/RTC.h ****     #define RTC_10_YEAR_OFFSET    (4u)
 246:Generated_Source\PSoC4/RTC.h ****     #define RTC_YEAR_OFFSET       (0u)
 247:Generated_Source\PSoC4/RTC.h **** #elif(RTC_INITIAL_DATA_FORMAT == RTC__DD_MM_YYYY)
 248:Generated_Source\PSoC4/RTC.h ****     #define RTC_10_MONTH_OFFSET   (20u)
 249:Generated_Source\PSoC4/RTC.h ****     #define RTC_MONTH_OFFSET      (16u)
 250:Generated_Source\PSoC4/RTC.h ****     #define RTC_10_DAY_OFFSET     (28u)
 251:Generated_Source\PSoC4/RTC.h ****     #define RTC_DAY_OFFSET        (24u)
 252:Generated_Source\PSoC4/RTC.h ****     #define RTC_1000_YEAR_OFFSET  (12u)
 253:Generated_Source\PSoC4/RTC.h ****     #define RTC_100_YEAR_OFFSET   (8u)
 254:Generated_Source\PSoC4/RTC.h ****     #define RTC_10_YEAR_OFFSET    (4u)
 255:Generated_Source\PSoC4/RTC.h ****     #define RTC_YEAR_OFFSET       (0u)
 256:Generated_Source\PSoC4/RTC.h **** #else
 257:Generated_Source\PSoC4/RTC.h ****     #define RTC_10_MONTH_OFFSET   (12u)
 258:Generated_Source\PSoC4/RTC.h ****     #define RTC_MONTH_OFFSET      (8u)
 259:Generated_Source\PSoC4/RTC.h ****     #define RTC_10_DAY_OFFSET     (4u)
 260:Generated_Source\PSoC4/RTC.h ****     #define RTC_DAY_OFFSET        (0u)
 261:Generated_Source\PSoC4/RTC.h ****     #define RTC_1000_YEAR_OFFSET  (28u)
ARM GAS  C:\Users\Petro\AppData\Local\Temp\cc9Scm3O.s 			page 6


 262:Generated_Source\PSoC4/RTC.h ****     #define RTC_100_YEAR_OFFSET   (24u)
 263:Generated_Source\PSoC4/RTC.h ****     #define RTC_10_YEAR_OFFSET    (20u)
 264:Generated_Source\PSoC4/RTC.h ****     #define RTC_YEAR_OFFSET       (16u)
 265:Generated_Source\PSoC4/RTC.h **** #endif /* (RTC_INITIAL_DATA_FORMAT == RTC__MM_DD_YYYY) */
 266:Generated_Source\PSoC4/RTC.h **** 
 267:Generated_Source\PSoC4/RTC.h **** #define RTC_10_MONTH_MASK          (0x00000001uL << RTC_10_MONTH_OFFSET)
 268:Generated_Source\PSoC4/RTC.h **** #define RTC_MONTH_MASK             (0x0000000FuL << RTC_MONTH_OFFSET)
 269:Generated_Source\PSoC4/RTC.h **** #define RTC_10_DAY_MASK            (0x00000003uL << RTC_10_DAY_OFFSET)
 270:Generated_Source\PSoC4/RTC.h **** #define RTC_DAY_MASK               (0x0000000FuL << RTC_DAY_OFFSET)
 271:Generated_Source\PSoC4/RTC.h **** #define RTC_1000_YEAR_MASK         (0x00000003uL << RTC_1000_YEAR_OFFSET)
 272:Generated_Source\PSoC4/RTC.h **** #define RTC_100_YEAR_MASK          (0x0000000FuL << RTC_100_YEAR_OFFSET)
 273:Generated_Source\PSoC4/RTC.h **** #define RTC_10_YEAR_MASK           (0x0000000FuL << RTC_10_YEAR_OFFSET)
 274:Generated_Source\PSoC4/RTC.h **** #define RTC_YEAR_MASK              (0x0000000FuL << RTC_YEAR_OFFSET)
 275:Generated_Source\PSoC4/RTC.h **** 
 276:Generated_Source\PSoC4/RTC.h **** #define  RTC_MONTH_FULL_MASK       (RTC_10_MONTH_MASK  | RTC_MONTH_MASK)
 277:Generated_Source\PSoC4/RTC.h **** #define  RTC_DAY_FULL_MASK         (RTC_10_DAY_MASK    | RTC_DAY_MASK)
 278:Generated_Source\PSoC4/RTC.h **** #define  RTC_YEAR_FULL_MASK        (RTC_1000_YEAR_MASK | RTC_100_YEAR_MASK |\
 279:Generated_Source\PSoC4/RTC.h ****                                                  RTC_10_YEAR_MASK   | RTC_YEAR_MASK)
 280:Generated_Source\PSoC4/RTC.h **** 
 281:Generated_Source\PSoC4/RTC.h **** 
 282:Generated_Source\PSoC4/RTC.h **** /* Definition of time register fields */
 283:Generated_Source\PSoC4/RTC.h **** #define RTC_TIME_FORMAT_OFFSET     (23u)
 284:Generated_Source\PSoC4/RTC.h **** #define RTC_PERIOD_OF_DAY_OFFSET   (22u)
 285:Generated_Source\PSoC4/RTC.h **** #define RTC_10_HOURS_OFFSET        (20u)
 286:Generated_Source\PSoC4/RTC.h **** #define RTC_HOURS_OFFSET           (16u)
 287:Generated_Source\PSoC4/RTC.h **** #define RTC_10_MINUTES_OFFSET      (12u)
 288:Generated_Source\PSoC4/RTC.h **** #define RTC_MINUTES_OFFSET         (8u)
 289:Generated_Source\PSoC4/RTC.h **** #define RTC_10_SECONDS_OFFSET      (4u)
 290:Generated_Source\PSoC4/RTC.h **** #define RTC_SECONDS_OFFSET         (0u)
 291:Generated_Source\PSoC4/RTC.h **** 
 292:Generated_Source\PSoC4/RTC.h **** #define RTC_TIME_FORMAT_MASK       (0x00000001uL << RTC_TIME_FORMAT_OFFSET)
 293:Generated_Source\PSoC4/RTC.h **** #define RTC_PERIOD_OF_DAY_MASK     (0x00000001uL << RTC_PERIOD_OF_DAY_OFFSET)
 294:Generated_Source\PSoC4/RTC.h **** #define RTC_10_HOURS_MASK          (0x00000003uL << RTC_10_HOURS_OFFSET)
 295:Generated_Source\PSoC4/RTC.h **** #define RTC_HOURS_MASK             (0x0000000FuL << RTC_HOURS_OFFSET)
 296:Generated_Source\PSoC4/RTC.h **** #define RTC_10_MINUTES_MASK        (0x00000007uL << RTC_10_MINUTES_OFFSET)
 297:Generated_Source\PSoC4/RTC.h **** #define RTC_MINUTES_MASK           (0x0000000FuL << RTC_MINUTES_OFFSET)
 298:Generated_Source\PSoC4/RTC.h **** #define RTC_10_SECONDS_MASK        (0x00000007uL << RTC_10_SECONDS_OFFSET)
 299:Generated_Source\PSoC4/RTC.h **** #define RTC_SECONDS_MASK           (0x0000000FuL << RTC_SECONDS_OFFSET)
 300:Generated_Source\PSoC4/RTC.h **** 
 301:Generated_Source\PSoC4/RTC.h **** #define RTC_HOURS_FULL_MASK        (RTC_10_HOURS_MASK   | RTC_HOURS_MASK)
 302:Generated_Source\PSoC4/RTC.h **** #define RTC_MINUTES_FULL_MASK      (RTC_10_MINUTES_MASK | RTC_MINUTES_MASK)
 303:Generated_Source\PSoC4/RTC.h **** #define RTC_SECONDS_FULL_MASK      (RTC_10_SECONDS_MASK | RTC_SECONDS_MASK)
 304:Generated_Source\PSoC4/RTC.h **** 
 305:Generated_Source\PSoC4/RTC.h **** #define RTC_ALARM_SEC_MASK         (0x00000001uL)
 306:Generated_Source\PSoC4/RTC.h **** #define RTC_ALARM_MIN_MASK         (0x00000002uL)
 307:Generated_Source\PSoC4/RTC.h **** #define RTC_ALARM_HOUR_MASK        (0x00000004uL)
 308:Generated_Source\PSoC4/RTC.h **** #define RTC_ALARM_DAYOFWEEK_MASK   (0x00000008uL)
 309:Generated_Source\PSoC4/RTC.h **** #define RTC_ALARM_DAYOFMONTH_MASK  (0x00000010uL)
 310:Generated_Source\PSoC4/RTC.h **** #define RTC_ALARM_MONTH_MASK       (0x00000020uL)
 311:Generated_Source\PSoC4/RTC.h **** #define RTC_ALARM_YEAR_MASK        (0x00000040uL)
 312:Generated_Source\PSoC4/RTC.h **** 
 313:Generated_Source\PSoC4/RTC.h **** #define RTC_STATUS_DST_OFFSET      (1u)
 314:Generated_Source\PSoC4/RTC.h **** #define RTC_STATUS_ALARM_OFFSET    (2u)
 315:Generated_Source\PSoC4/RTC.h **** #define RTC_STATUS_LY_OFFSET       (3u)
 316:Generated_Source\PSoC4/RTC.h **** #define RTC_STATUS_AM_PM_OFFSET    (4u)
 317:Generated_Source\PSoC4/RTC.h **** 
 318:Generated_Source\PSoC4/RTC.h **** /* Definition of the RTC status values. */
ARM GAS  C:\Users\Petro\AppData\Local\Temp\cc9Scm3O.s 			page 7


 319:Generated_Source\PSoC4/RTC.h **** #define RTC_STATUS_DST             (1uL << RTC_STATUS_DST_OFFSET)
 320:Generated_Source\PSoC4/RTC.h **** #define RTC_STATUS_LY              (1uL << RTC_STATUS_LY_OFFSET)
 321:Generated_Source\PSoC4/RTC.h **** #define RTC_STATUS_AM_PM           (1uL << RTC_STATUS_AM_PM_OFFSET)
 322:Generated_Source\PSoC4/RTC.h **** 
 323:Generated_Source\PSoC4/RTC.h **** /* Number of bits per one BCD digit. */
 324:Generated_Source\PSoC4/RTC.h **** #define RTC_BCD_NUMBER_SIZE        (4u)
 325:Generated_Source\PSoC4/RTC.h **** #define RTC_BCD_ONE_DIGIT_MASK     (0x0000000FuL)
 326:Generated_Source\PSoC4/RTC.h **** 
 327:Generated_Source\PSoC4/RTC.h **** /*******************************************************************************
 328:Generated_Source\PSoC4/RTC.h **** *    Function Prototypes
 329:Generated_Source\PSoC4/RTC.h **** *******************************************************************************/
 330:Generated_Source\PSoC4/RTC.h **** /**
 331:Generated_Source\PSoC4/RTC.h **** * \addtogroup group_api
 332:Generated_Source\PSoC4/RTC.h **** * @{
 333:Generated_Source\PSoC4/RTC.h **** */
 334:Generated_Source\PSoC4/RTC.h **** void   RTC_Start(void);
 335:Generated_Source\PSoC4/RTC.h **** void   RTC_Stop(void);
 336:Generated_Source\PSoC4/RTC.h **** void   RTC_Init(void);
 337:Generated_Source\PSoC4/RTC.h **** void   RTC_SetUnixTime(uint64 unixTime);
 338:Generated_Source\PSoC4/RTC.h **** uint64 RTC_GetUnixTime(void);
 339:Generated_Source\PSoC4/RTC.h **** void   RTC_SetPeriod(uint32 ticks, uint32 refOneSecTicks);
 340:Generated_Source\PSoC4/RTC.h **** uint32 RTC_GetPeriod(void);
 341:Generated_Source\PSoC4/RTC.h **** uint32 RTC_GetRefOneSec(void);
 342:Generated_Source\PSoC4/RTC.h **** void   RTC_SetDateAndTime(uint32 inputTime, uint32 inputDate);
 343:Generated_Source\PSoC4/RTC.h **** void   RTC_GetDateAndTime(RTC_DATE_TIME* dateTime);
 344:Generated_Source\PSoC4/RTC.h **** uint32 RTC_GetTime(void);
 345:Generated_Source\PSoC4/RTC.h **** uint32 RTC_GetDate(void);
 346:Generated_Source\PSoC4/RTC.h **** void   RTC_SetAlarmDateAndTime(const RTC_DATE_TIME* alarmTime);
 347:Generated_Source\PSoC4/RTC.h **** void   RTC_GetAlarmDateAndTime(RTC_DATE_TIME* alarmTimeDate);
 348:Generated_Source\PSoC4/RTC.h **** void   RTC_SetAlarmMask(uint32 mask);
 349:Generated_Source\PSoC4/RTC.h **** uint32 RTC_GetAlarmMask(void);
 350:Generated_Source\PSoC4/RTC.h **** uint32 RTC_ReadStatus(void);
 351:Generated_Source\PSoC4/RTC.h **** uint32 RTC_GetAlarmStatus(void);
 352:Generated_Source\PSoC4/RTC.h **** void   RTC_ClearAlarmStatus(void);
 353:Generated_Source\PSoC4/RTC.h **** void   RTC_SetDSTStartTime(const RTC_DST_TIME* dstStartTime,
 354:Generated_Source\PSoC4/RTC.h ****                                               RTC_DST_DATETYPE_ENUM type);
 355:Generated_Source\PSoC4/RTC.h **** void   RTC_SetDSTStopTime(const RTC_DST_TIME* dstStopTime,
 356:Generated_Source\PSoC4/RTC.h ****                                              RTC_DST_DATETYPE_ENUM type);
 357:Generated_Source\PSoC4/RTC.h **** uint32 RTC_ConvertBCDToDec(uint32 bcdNum);
 358:Generated_Source\PSoC4/RTC.h **** uint32 RTC_ConvertDecToBCD(uint32 decNum);
 359:Generated_Source\PSoC4/RTC.h **** void   RTC_Update(void);
 360:Generated_Source\PSoC4/RTC.h **** void*  RTC_SetAlarmHandler(void (*CallbackFunction)(void));
 361:Generated_Source\PSoC4/RTC.h **** 
 362:Generated_Source\PSoC4/RTC.h **** static uint32 RTC_ConstructDate(uint32 month, uint32 day, uint32 year);
 363:Generated_Source\PSoC4/RTC.h **** static uint32 RTC_ConstructTime(uint32 timeFormat, uint32 stateAmPm, uint32 hour, uint32 min, uint3
 364:Generated_Source\PSoC4/RTC.h **** /** @} api */
 365:Generated_Source\PSoC4/RTC.h **** 
 366:Generated_Source\PSoC4/RTC.h **** static uint32 RTC_GetTimeFormat(uint32 inputTime);
 367:Generated_Source\PSoC4/RTC.h **** static uint32 RTC_SetTimeFormat(uint32 inputTime, uint32 timeFormat);
 368:Generated_Source\PSoC4/RTC.h **** 
 369:Generated_Source\PSoC4/RTC.h **** /**
 370:Generated_Source\PSoC4/RTC.h **** * \addtogroup group_api
 371:Generated_Source\PSoC4/RTC.h **** * @{
 372:Generated_Source\PSoC4/RTC.h **** */
 373:Generated_Source\PSoC4/RTC.h **** static uint32 RTC_LeapYear(uint32 year);
 374:Generated_Source\PSoC4/RTC.h **** static uint32 RTC_IsBitSet(uint32 var, uint32 mask);
 375:Generated_Source\PSoC4/RTC.h **** static uint32 RTC_GetSecond(uint32 inputTime);
ARM GAS  C:\Users\Petro\AppData\Local\Temp\cc9Scm3O.s 			page 8


 376:Generated_Source\PSoC4/RTC.h **** static uint32 RTC_GetMinutes(uint32 inputTime);
 377:Generated_Source\PSoC4/RTC.h **** static uint32 RTC_GetHours(uint32 inputTime);
 378:Generated_Source\PSoC4/RTC.h **** static uint32 RTC_GetAmPm(uint32 inputTime);
 379:Generated_Source\PSoC4/RTC.h **** static uint32 RTC_GetDay(uint32 date);
 380:Generated_Source\PSoC4/RTC.h **** static uint32 RTC_GetMonth(uint32 date);
 381:Generated_Source\PSoC4/RTC.h **** static uint32 RTC_GetYear(uint32 date);
 382:Generated_Source\PSoC4/RTC.h **** /** @} api */
 383:Generated_Source\PSoC4/RTC.h **** 
 384:Generated_Source\PSoC4/RTC.h **** static uint32 RTC_SetSecond(uint32 inputTime, uint32 inputSecond);
 385:Generated_Source\PSoC4/RTC.h **** static uint32 RTC_SetMinutes(uint32 inputTime, uint32 inputMinute);
 386:Generated_Source\PSoC4/RTC.h **** static uint32 RTC_SetHours(uint32 inputTime, uint32 inputHours);
 387:Generated_Source\PSoC4/RTC.h **** static uint32 RTC_SetAmPm(uint32 inputTime, uint32 periodOfDay);
 388:Generated_Source\PSoC4/RTC.h **** static uint32 RTC_SetDay(uint32 inputDate, uint32 inputDay);
 389:Generated_Source\PSoC4/RTC.h **** static uint32 RTC_SetMonth(uint32 inputDate, uint32 inputMonth);
 390:Generated_Source\PSoC4/RTC.h **** static uint32 RTC_SetYear(uint32 inputDate, uint32 inputYear);
 391:Generated_Source\PSoC4/RTC.h **** 
 392:Generated_Source\PSoC4/RTC.h **** uint64 RTC_ConstructUnixAlarmTime(const RTC_DATE_TIME* alarmTime, uint8 alarmCfgMask);
 393:Generated_Source\PSoC4/RTC.h **** uint64 RTC_GetDstUnixTime(const RTC_DST_TIME* dstTime);
 394:Generated_Source\PSoC4/RTC.h **** uint64 RTC_GetNexAlarmTime(uint64 curUnixTime, uint8 alarmCfgMask);
 395:Generated_Source\PSoC4/RTC.h **** 
 396:Generated_Source\PSoC4/RTC.h **** static uint32 RTC_GetNextMinSec(uint32 curVal);
 397:Generated_Source\PSoC4/RTC.h **** static uint32 RTC_GetNextHour(uint32 curVal);
 398:Generated_Source\PSoC4/RTC.h **** static uint32 RTC_GetNextDay(uint32 curYear, uint32 curMonth, uint32 curDay, uint32 alarmCfgMask);
 399:Generated_Source\PSoC4/RTC.h **** static uint32 RTC_GetNextMonth(uint32 curMonth);
 400:Generated_Source\PSoC4/RTC.h **** static uint32 RTC_GetNextYear(uint32 curYear);
 401:Generated_Source\PSoC4/RTC.h **** static uint32 RTC_GetDayOfWeek(uint32 day, uint32 month, uint32 year);
 402:Generated_Source\PSoC4/RTC.h **** 
 403:Generated_Source\PSoC4/RTC.h **** uint32 RTC_DaysInMonth(uint32 month, uint32 year);
 404:Generated_Source\PSoC4/RTC.h **** uint32 RTC_DaysBeforeMonth(uint32 month, uint32 year);
 405:Generated_Source\PSoC4/RTC.h **** 
 406:Generated_Source\PSoC4/RTC.h **** /**
 407:Generated_Source\PSoC4/RTC.h **** * \addtogroup group_api
 408:Generated_Source\PSoC4/RTC.h **** * @{
 409:Generated_Source\PSoC4/RTC.h **** */
 410:Generated_Source\PSoC4/RTC.h **** void   RTC_UnixToDateTime(RTC_DATE_TIME* dateTime, uint64 unixTime, uint32 timeFormat);
 411:Generated_Source\PSoC4/RTC.h **** uint64 RTC_DateTimeToUnix(uint32 inputDate, uint32 inputTime);
 412:Generated_Source\PSoC4/RTC.h **** /** @} api */
 413:Generated_Source\PSoC4/RTC.h **** 
 414:Generated_Source\PSoC4/RTC.h **** uint32 RTC_RelativeToFixed(uint32 dayOfWeek, uint32 weekOfMonth, uint32 month, uint32 year);
 415:Generated_Source\PSoC4/RTC.h **** 
 416:Generated_Source\PSoC4/RTC.h **** 
 417:Generated_Source\PSoC4/RTC.h **** #if defined(CYDEV_RTC_SOURCE_WDT)
 418:Generated_Source\PSoC4/RTC.h ****     #if((0u != CYDEV_WDT_GENERATE_ISR) && (0u == RTC_INITIAL_UPDATE_MODE))
 419:Generated_Source\PSoC4/RTC.h ****         static void RTC_CySysRtcSetCallback(uint32 wdtNumber);
 420:Generated_Source\PSoC4/RTC.h ****         static void RTC_CySysRtcResetCallback(uint32 wdtNumber);
 421:Generated_Source\PSoC4/RTC.h ****     #endif /* ((0u != CYDEV_WDT_GENERATE_ISR) && (0u == RTC_INITIAL_UPDATE_MODE)) */
 422:Generated_Source\PSoC4/RTC.h **** #endif /* (CYDEV_RTC_SOURCE_WDT) */
 423:Generated_Source\PSoC4/RTC.h **** 
 424:Generated_Source\PSoC4/RTC.h **** /*******************************************************************************
 425:Generated_Source\PSoC4/RTC.h **** * Function Name: RTC_IsBitSet
 426:Generated_Source\PSoC4/RTC.h **** ****************************************************************************//**
 427:Generated_Source\PSoC4/RTC.h **** *
 428:Generated_Source\PSoC4/RTC.h **** * \brief
 429:Generated_Source\PSoC4/RTC.h **** *  Checks the state of a bit passed through parameter.
 430:Generated_Source\PSoC4/RTC.h **** *
 431:Generated_Source\PSoC4/RTC.h **** * \param
 432:Generated_Source\PSoC4/RTC.h **** *  var The variable to be checked.
ARM GAS  C:\Users\Petro\AppData\Local\Temp\cc9Scm3O.s 			page 9


 433:Generated_Source\PSoC4/RTC.h **** * \param
 434:Generated_Source\PSoC4/RTC.h **** *  mask The mask for a bit to be checked.
 435:Generated_Source\PSoC4/RTC.h **** *
 436:Generated_Source\PSoC4/RTC.h **** * \return
 437:Generated_Source\PSoC4/RTC.h **** *  0u - Bit is not set.
 438:Generated_Source\PSoC4/RTC.h **** * \return
 439:Generated_Source\PSoC4/RTC.h **** *  1u - Bit is set.
 440:Generated_Source\PSoC4/RTC.h **** *
 441:Generated_Source\PSoC4/RTC.h **** *******************************************************************************/
 442:Generated_Source\PSoC4/RTC.h **** static CY_INLINE uint32 RTC_IsBitSet(uint32 var, uint32 mask)
 443:Generated_Source\PSoC4/RTC.h **** {
 444:Generated_Source\PSoC4/RTC.h ****     return ((mask == (var & mask)) ? 1Lu : 0Lu);
 445:Generated_Source\PSoC4/RTC.h **** }
 446:Generated_Source\PSoC4/RTC.h **** 
 447:Generated_Source\PSoC4/RTC.h **** 
 448:Generated_Source\PSoC4/RTC.h **** /*******************************************************************************
 449:Generated_Source\PSoC4/RTC.h **** * Function Name: RTC_LeapYear
 450:Generated_Source\PSoC4/RTC.h **** ****************************************************************************//**
 451:Generated_Source\PSoC4/RTC.h **** *
 452:Generated_Source\PSoC4/RTC.h **** * \brief
 453:Generated_Source\PSoC4/RTC.h **** * Checks whether the year passed through the parameter is
 454:Generated_Source\PSoC4/RTC.h **** * leap or no.
 455:Generated_Source\PSoC4/RTC.h **** *
 456:Generated_Source\PSoC4/RTC.h **** * \param
 457:Generated_Source\PSoC4/RTC.h **** *  year The year to be checked.
 458:Generated_Source\PSoC4/RTC.h **** *
 459:Generated_Source\PSoC4/RTC.h **** *
 460:Generated_Source\PSoC4/RTC.h **** * \return
 461:Generated_Source\PSoC4/RTC.h **** *  0u - The year is not leap.
 462:Generated_Source\PSoC4/RTC.h **** * \return
 463:Generated_Source\PSoC4/RTC.h **** *  1u - The year is leap.
 464:Generated_Source\PSoC4/RTC.h **** *
 465:Generated_Source\PSoC4/RTC.h **** *******************************************************************************/
 466:Generated_Source\PSoC4/RTC.h **** static CY_INLINE uint32 RTC_LeapYear(uint32 year)
 467:Generated_Source\PSoC4/RTC.h **** {
 468:Generated_Source\PSoC4/RTC.h ****     uint32 retVal;
 469:Generated_Source\PSoC4/RTC.h **** 
 470:Generated_Source\PSoC4/RTC.h ****     if(((0u == (year % 4Lu)) && (0u != (year % 100Lu))) || (0u == (year % 400Lu)))
 471:Generated_Source\PSoC4/RTC.h ****     {
 472:Generated_Source\PSoC4/RTC.h ****         retVal = 1uL;
 473:Generated_Source\PSoC4/RTC.h ****     }
 474:Generated_Source\PSoC4/RTC.h ****     else
 475:Generated_Source\PSoC4/RTC.h ****     {
 476:Generated_Source\PSoC4/RTC.h ****         retVal = 0uL;
 477:Generated_Source\PSoC4/RTC.h ****     }
 478:Generated_Source\PSoC4/RTC.h **** 
 479:Generated_Source\PSoC4/RTC.h ****     return(retVal);
 480:Generated_Source\PSoC4/RTC.h **** }
 481:Generated_Source\PSoC4/RTC.h **** 
 482:Generated_Source\PSoC4/RTC.h **** 
 483:Generated_Source\PSoC4/RTC.h **** /*******************************************************************************
 484:Generated_Source\PSoC4/RTC.h **** * Function Name: RTC_GetSecond
 485:Generated_Source\PSoC4/RTC.h **** ****************************************************************************//**
 486:Generated_Source\PSoC4/RTC.h **** *
 487:Generated_Source\PSoC4/RTC.h **** * \brief
 488:Generated_Source\PSoC4/RTC.h **** *  Returns the seconds value from the time value that is passed as a/the parameter.
 489:Generated_Source\PSoC4/RTC.h **** *
ARM GAS  C:\Users\Petro\AppData\Local\Temp\cc9Scm3O.s 			page 10


 490:Generated_Source\PSoC4/RTC.h **** * \param
 491:Generated_Source\PSoC4/RTC.h **** *  time The time value.
 492:Generated_Source\PSoC4/RTC.h **** *
 493:Generated_Source\PSoC4/RTC.h **** * \return
 494:Generated_Source\PSoC4/RTC.h **** *  The seconds value.
 495:Generated_Source\PSoC4/RTC.h **** *
 496:Generated_Source\PSoC4/RTC.h **** *******************************************************************************/
 497:Generated_Source\PSoC4/RTC.h **** static CY_INLINE uint32 RTC_GetSecond(uint32 inputTime)
 498:Generated_Source\PSoC4/RTC.h **** {
  25              		.loc 1 498 0
  26              		.cfi_startproc
  27 0000 80B5     		push	{r7, lr}
  28              		.cfi_def_cfa_offset 8
  29              		.cfi_offset 7, -8
  30              		.cfi_offset 14, -4
  31 0002 84B0     		sub	sp, sp, #16
  32              		.cfi_def_cfa_offset 24
  33 0004 00AF     		add	r7, sp, #0
  34              		.cfi_def_cfa_register 7
  35 0006 7860     		str	r0, [r7, #4]
 499:Generated_Source\PSoC4/RTC.h ****     uint32 retVal;
 500:Generated_Source\PSoC4/RTC.h **** 
 501:Generated_Source\PSoC4/RTC.h ****     retVal  = ((inputTime & RTC_10_SECONDS_MASK) >> RTC_10_SECONDS_OFFSET) * 10u;
  36              		.loc 1 501 0
  37 0008 7B68     		ldr	r3, [r7, #4]
  38 000a 7022     		mov	r2, #112
  39 000c 1340     		and	r3, r2
  40 000e 1A09     		lsr	r2, r3, #4
  41 0010 131C     		mov	r3, r2
  42 0012 9B00     		lsl	r3, r3, #2
  43 0014 9B18     		add	r3, r3, r2
  44 0016 5B00     		lsl	r3, r3, #1
  45 0018 FB60     		str	r3, [r7, #12]
 502:Generated_Source\PSoC4/RTC.h ****     retVal += (inputTime & RTC_SECONDS_MASK) >> RTC_SECONDS_OFFSET;
  46              		.loc 1 502 0
  47 001a 7B68     		ldr	r3, [r7, #4]
  48 001c 0F22     		mov	r2, #15
  49 001e 1340     		and	r3, r2
  50 0020 FA68     		ldr	r2, [r7, #12]
  51 0022 D318     		add	r3, r2, r3
  52 0024 FB60     		str	r3, [r7, #12]
 503:Generated_Source\PSoC4/RTC.h **** 
 504:Generated_Source\PSoC4/RTC.h ****     return (retVal);
  53              		.loc 1 504 0
  54 0026 FB68     		ldr	r3, [r7, #12]
 505:Generated_Source\PSoC4/RTC.h **** }
  55              		.loc 1 505 0
  56 0028 181C     		mov	r0, r3
  57 002a BD46     		mov	sp, r7
  58 002c 04B0     		add	sp, sp, #16
  59              		@ sp needed
  60 002e 80BD     		pop	{r7, pc}
  61              		.cfi_endproc
  62              	.LFE4:
  63              		.size	RTC_GetSecond, .-RTC_GetSecond
  64              		.section	.text.RTC_GetMinutes,"ax",%progbits
  65              		.align	2
ARM GAS  C:\Users\Petro\AppData\Local\Temp\cc9Scm3O.s 			page 11


  66              		.code	16
  67              		.thumb_func
  68              		.type	RTC_GetMinutes, %function
  69              	RTC_GetMinutes:
  70              	.LFB5:
 506:Generated_Source\PSoC4/RTC.h **** 
 507:Generated_Source\PSoC4/RTC.h **** 
 508:Generated_Source\PSoC4/RTC.h **** /*******************************************************************************
 509:Generated_Source\PSoC4/RTC.h **** * Function Name: RTC_GetMinutes
 510:Generated_Source\PSoC4/RTC.h **** ****************************************************************************//**
 511:Generated_Source\PSoC4/RTC.h **** *
 512:Generated_Source\PSoC4/RTC.h **** * \brief
 513:Generated_Source\PSoC4/RTC.h **** *  Returns the minutes value from the time value that is passed as a/the 
 514:Generated_Source\PSoC4/RTC.h **** * parameter.
 515:Generated_Source\PSoC4/RTC.h **** *
 516:Generated_Source\PSoC4/RTC.h **** * \param
 517:Generated_Source\PSoC4/RTC.h **** *  time The time value.
 518:Generated_Source\PSoC4/RTC.h **** *
 519:Generated_Source\PSoC4/RTC.h **** * \return
 520:Generated_Source\PSoC4/RTC.h **** *  The minutes value.
 521:Generated_Source\PSoC4/RTC.h **** *
 522:Generated_Source\PSoC4/RTC.h **** *******************************************************************************/
 523:Generated_Source\PSoC4/RTC.h **** static CY_INLINE uint32 RTC_GetMinutes(uint32 inputTime)
 524:Generated_Source\PSoC4/RTC.h **** {
  71              		.loc 1 524 0
  72              		.cfi_startproc
  73 0000 80B5     		push	{r7, lr}
  74              		.cfi_def_cfa_offset 8
  75              		.cfi_offset 7, -8
  76              		.cfi_offset 14, -4
  77 0002 84B0     		sub	sp, sp, #16
  78              		.cfi_def_cfa_offset 24
  79 0004 00AF     		add	r7, sp, #0
  80              		.cfi_def_cfa_register 7
  81 0006 7860     		str	r0, [r7, #4]
 525:Generated_Source\PSoC4/RTC.h ****     uint32 retVal;
 526:Generated_Source\PSoC4/RTC.h **** 
 527:Generated_Source\PSoC4/RTC.h ****     retVal  = ((inputTime & RTC_10_MINUTES_MASK) >> RTC_10_MINUTES_OFFSET) * 10u;
  82              		.loc 1 527 0
  83 0008 7A68     		ldr	r2, [r7, #4]
  84 000a E023     		mov	r3, #224
  85 000c DB01     		lsl	r3, r3, #7
  86 000e 1340     		and	r3, r2
  87 0010 1A0B     		lsr	r2, r3, #12
  88 0012 131C     		mov	r3, r2
  89 0014 9B00     		lsl	r3, r3, #2
  90 0016 9B18     		add	r3, r3, r2
  91 0018 5B00     		lsl	r3, r3, #1
  92 001a FB60     		str	r3, [r7, #12]
 528:Generated_Source\PSoC4/RTC.h ****     retVal += (inputTime & RTC_MINUTES_MASK) >> RTC_MINUTES_OFFSET;
  93              		.loc 1 528 0
  94 001c 7A68     		ldr	r2, [r7, #4]
  95 001e F023     		mov	r3, #240
  96 0020 1B01     		lsl	r3, r3, #4
  97 0022 1340     		and	r3, r2
  98 0024 1B0A     		lsr	r3, r3, #8
  99 0026 FA68     		ldr	r2, [r7, #12]
ARM GAS  C:\Users\Petro\AppData\Local\Temp\cc9Scm3O.s 			page 12


 100 0028 D318     		add	r3, r2, r3
 101 002a FB60     		str	r3, [r7, #12]
 529:Generated_Source\PSoC4/RTC.h **** 
 530:Generated_Source\PSoC4/RTC.h ****     return (retVal);
 102              		.loc 1 530 0
 103 002c FB68     		ldr	r3, [r7, #12]
 531:Generated_Source\PSoC4/RTC.h **** }
 104              		.loc 1 531 0
 105 002e 181C     		mov	r0, r3
 106 0030 BD46     		mov	sp, r7
 107 0032 04B0     		add	sp, sp, #16
 108              		@ sp needed
 109 0034 80BD     		pop	{r7, pc}
 110              		.cfi_endproc
 111              	.LFE5:
 112              		.size	RTC_GetMinutes, .-RTC_GetMinutes
 113 0036 C046     		.section	.text.RTC_GetHours,"ax",%progbits
 114              		.align	2
 115              		.code	16
 116              		.thumb_func
 117              		.type	RTC_GetHours, %function
 118              	RTC_GetHours:
 119              	.LFB6:
 532:Generated_Source\PSoC4/RTC.h **** 
 533:Generated_Source\PSoC4/RTC.h **** 
 534:Generated_Source\PSoC4/RTC.h **** /*******************************************************************************
 535:Generated_Source\PSoC4/RTC.h **** * Function Name: RTC_GetHours
 536:Generated_Source\PSoC4/RTC.h **** ****************************************************************************//**
 537:Generated_Source\PSoC4/RTC.h **** *
 538:Generated_Source\PSoC4/RTC.h **** * \brief
 539:Generated_Source\PSoC4/RTC.h **** *  Returns the hours value from the time value that is passed as a/the parameter.
 540:Generated_Source\PSoC4/RTC.h **** *
 541:Generated_Source\PSoC4/RTC.h **** * \param
 542:Generated_Source\PSoC4/RTC.h **** *  time The time value.
 543:Generated_Source\PSoC4/RTC.h **** *
 544:Generated_Source\PSoC4/RTC.h **** * \return
 545:Generated_Source\PSoC4/RTC.h **** *  The hours value.
 546:Generated_Source\PSoC4/RTC.h **** *
 547:Generated_Source\PSoC4/RTC.h **** *******************************************************************************/
 548:Generated_Source\PSoC4/RTC.h **** static CY_INLINE uint32 RTC_GetHours(uint32 inputTime)
 549:Generated_Source\PSoC4/RTC.h **** {
 120              		.loc 1 549 0
 121              		.cfi_startproc
 122 0000 80B5     		push	{r7, lr}
 123              		.cfi_def_cfa_offset 8
 124              		.cfi_offset 7, -8
 125              		.cfi_offset 14, -4
 126 0002 84B0     		sub	sp, sp, #16
 127              		.cfi_def_cfa_offset 24
 128 0004 00AF     		add	r7, sp, #0
 129              		.cfi_def_cfa_register 7
 130 0006 7860     		str	r0, [r7, #4]
 550:Generated_Source\PSoC4/RTC.h ****     uint32 retVal;
 551:Generated_Source\PSoC4/RTC.h **** 
 552:Generated_Source\PSoC4/RTC.h ****     retVal  = ((inputTime & RTC_10_HOURS_MASK) >> RTC_10_HOURS_OFFSET) * 10u;
 131              		.loc 1 552 0
 132 0008 7A68     		ldr	r2, [r7, #4]
ARM GAS  C:\Users\Petro\AppData\Local\Temp\cc9Scm3O.s 			page 13


 133 000a C023     		mov	r3, #192
 134 000c 9B03     		lsl	r3, r3, #14
 135 000e 1340     		and	r3, r2
 136 0010 1A0D     		lsr	r2, r3, #20
 137 0012 131C     		mov	r3, r2
 138 0014 9B00     		lsl	r3, r3, #2
 139 0016 9B18     		add	r3, r3, r2
 140 0018 5B00     		lsl	r3, r3, #1
 141 001a FB60     		str	r3, [r7, #12]
 553:Generated_Source\PSoC4/RTC.h ****     retVal += (inputTime & RTC_HOURS_MASK) >> RTC_HOURS_OFFSET;
 142              		.loc 1 553 0
 143 001c 7A68     		ldr	r2, [r7, #4]
 144 001e F023     		mov	r3, #240
 145 0020 1B03     		lsl	r3, r3, #12
 146 0022 1340     		and	r3, r2
 147 0024 1B0C     		lsr	r3, r3, #16
 148 0026 FA68     		ldr	r2, [r7, #12]
 149 0028 D318     		add	r3, r2, r3
 150 002a FB60     		str	r3, [r7, #12]
 554:Generated_Source\PSoC4/RTC.h **** 
 555:Generated_Source\PSoC4/RTC.h ****     return (retVal);
 151              		.loc 1 555 0
 152 002c FB68     		ldr	r3, [r7, #12]
 556:Generated_Source\PSoC4/RTC.h **** }
 153              		.loc 1 556 0
 154 002e 181C     		mov	r0, r3
 155 0030 BD46     		mov	sp, r7
 156 0032 04B0     		add	sp, sp, #16
 157              		@ sp needed
 158 0034 80BD     		pop	{r7, pc}
 159              		.cfi_endproc
 160              	.LFE6:
 161              		.size	RTC_GetHours, .-RTC_GetHours
 162              		.comm	PROTO_STATE,1,1
 163              		.comm	LenD1,1,1
 164              		.comm	LenD2,1,1
 165              		.comm	LenD3,1,1
 166              		.comm	LenSeq,1,1
 167              		.comm	LenChS,1,1
 168              		.comm	LenC,1,1
 169              		.comm	inData,24,8
 170              		.comm	outData,24,8
 171              		.comm	previousData,100,4
 172 0036 C046     		.bss
 173              		.align	2
 174              	networkStatus:
 175 0000 00000000 		.space	4
 176              		.align	2
 177              	numAttemps:
 178 0004 00000000 		.space	4
 179              		.align	2
 180              	noConnect:
 181 0008 00000000 		.space	4
 182              		.section	.rodata
 183              		.align	2
 184              	.LC0:
 185 0000 0A0A496E 		.ascii	"\012\012Init network start\012\012\000"
ARM GAS  C:\Users\Petro\AppData\Local\Temp\cc9Scm3O.s 			page 14


 185      6974206E 
 185      6574776F 
 185      726B2073 
 185      74617274 
 186              		.section	.text.InitNetwork,"ax",%progbits
 187              		.align	2
 188              		.global	InitNetwork
 189              		.code	16
 190              		.thumb_func
 191              		.type	InitNetwork, %function
 192              	InitNetwork:
 193              	.LFB63:
 194              		.file 2 ".\\lib_Network\\network.c"
   1:.\lib_Network/network.c **** /* ========================================
   2:.\lib_Network/network.c ****  *
   3:.\lib_Network/network.c ****  * Copyright YOUR COMPANY, THE YEAR
   4:.\lib_Network/network.c ****  * All Rights Reserved
   5:.\lib_Network/network.c ****  * UNPUBLISHED, LICENSED SOFTWARE.
   6:.\lib_Network/network.c ****  *
   7:.\lib_Network/network.c ****  * CONFIDENTIAL AND PROPRIETARY INFORMATION
   8:.\lib_Network/network.c ****  * WHICH IS THE PROPERTY OF your company.
   9:.\lib_Network/network.c ****  *
  10:.\lib_Network/network.c ****  * ========================================
  11:.\lib_Network/network.c **** */
  12:.\lib_Network/network.c **** 
  13:.\lib_Network/network.c **** #include "lib_Network\network.h"
  14:.\lib_Network/network.c **** 
  15:.\lib_Network/network.c **** 
  16:.\lib_Network/network.c **** 
  17:.\lib_Network/network.c **** void InitNetwork(void)
  18:.\lib_Network/network.c **** {
 195              		.loc 2 18 0
 196              		.cfi_startproc
 197 0000 80B5     		push	{r7, lr}
 198              		.cfi_def_cfa_offset 8
 199              		.cfi_offset 7, -8
 200              		.cfi_offset 14, -4
 201 0002 00AF     		add	r7, sp, #0
 202              		.cfi_def_cfa_register 7
  19:.\lib_Network/network.c ****     UART_XB_Start();
 203              		.loc 2 19 0
 204 0004 FFF7FEFF 		bl	UART_XB_Start
  20:.\lib_Network/network.c ****     
  21:.\lib_Network/network.c ****     #ifdef DEBUG_PC
  22:.\lib_Network/network.c ****     SW_UART_DEBUG_Start();
 205              		.loc 2 22 0
 206 0008 FFF7FEFF 		bl	SW_UART_DEBUG_Start
  23:.\lib_Network/network.c ****     SW_UART_DEBUG_PutString("\n\nInit network start\n\n");
 207              		.loc 2 23 0
 208 000c 094B     		ldr	r3, .L8
 209 000e 181C     		mov	r0, r3
 210 0010 FFF7FEFF 		bl	SW_UART_DEBUG_PutString
  24:.\lib_Network/network.c ****     #endif
  25:.\lib_Network/network.c ****     
  26:.\lib_Network/network.c ****     inData.readStatus = NO_READ;
 211              		.loc 2 26 0
 212 0014 084B     		ldr	r3, .L8+4
ARM GAS  C:\Users\Petro\AppData\Local\Temp\cc9Scm3O.s 			page 15


 213 0016 0022     		mov	r2, #0
 214 0018 9A74     		strb	r2, [r3, #18]
  27:.\lib_Network/network.c ****     outData.writeStatus = WRITE_OK;
 215              		.loc 2 27 0
 216 001a 084B     		ldr	r3, .L8+8
 217 001c 0122     		mov	r2, #1
 218 001e DA74     		strb	r2, [r3, #19]
  28:.\lib_Network/network.c ****     outData.IDpacket = 0xFF;
 219              		.loc 2 28 0
 220 0020 064B     		ldr	r3, .L8+8
 221 0022 FF22     		mov	r2, #255
 222 0024 1A70     		strb	r2, [r3]
  29:.\lib_Network/network.c ****     networkStatus = NETWORK_DISCONN;   
 223              		.loc 2 29 0
 224 0026 064B     		ldr	r3, .L8+12
 225 0028 0022     		mov	r2, #0
 226 002a 1A60     		str	r2, [r3]
  30:.\lib_Network/network.c ****     UART_XB_SpiUartClearRxBuffer();
 227              		.loc 2 30 0
 228 002c FFF7FEFF 		bl	UART_XB_SpiUartClearRxBuffer
  31:.\lib_Network/network.c **** }
 229              		.loc 2 31 0
 230 0030 BD46     		mov	sp, r7
 231              		@ sp needed
 232 0032 80BD     		pop	{r7, pc}
 233              	.L9:
 234              		.align	2
 235              	.L8:
 236 0034 00000000 		.word	.LC0
 237 0038 00000000 		.word	inData
 238 003c 00000000 		.word	outData
 239 0040 00000000 		.word	networkStatus
 240              		.cfi_endproc
 241              	.LFE63:
 242              		.size	InitNetwork, .-InitNetwork
 243              		.global	__aeabi_ui2d
 244              		.global	__aeabi_ddiv
 245              		.global	__aeabi_d2uiz
 246              		.section	.rodata
 247 0017 00       		.align	2
 248              	.LC8:
 249 0018 2D2D2D2D 		.ascii	"----------------%i !! %i-------------------\000"
 249      2D2D2D2D 
 249      2D2D2D2D 
 249      2D2D2D2D 
 249      25692021 
 250              		.align	2
 251              	.LC10:
 252 0044 74696D65 		.ascii	"time send data %u\012\015\000"
 252      2073656E 
 252      64206461 
 252      74612025 
 252      750A0D00 
 253              		.align	2
 254              	.LC12:
 255 0058 2530326C 		.ascii	"%02lu:%02lu:%02lu        \000"
 255      753A2530 
ARM GAS  C:\Users\Petro\AppData\Local\Temp\cc9Scm3O.s 			page 16


 255      326C753A 
 255      2530326C 
 255      75202020 
 256              		.section	.text.AppDelay,"ax",%progbits
 257              		.align	2
 258              		.global	AppDelay
 259              		.code	16
 260              		.thumb_func
 261              		.type	AppDelay, %function
 262              	AppDelay:
 263              	.LFB64:
  32:.\lib_Network/network.c **** 
  33:.\lib_Network/network.c **** void AppDelay(uint32_t delayMs)
  34:.\lib_Network/network.c **** {
 264              		.loc 2 34 0
 265              		.cfi_startproc
 266 0000 B0B5     		push	{r4, r5, r7, lr}
 267              		.cfi_def_cfa_offset 16
 268              		.cfi_offset 4, -16
 269              		.cfi_offset 5, -12
 270              		.cfi_offset 7, -8
 271              		.cfi_offset 14, -4
 272 0002 BCB0     		sub	sp, sp, #240
 273              		.cfi_def_cfa_offset 256
 274 0004 02AF     		add	r7, sp, #8
 275              		.cfi_def_cfa 7, 248
 276 0006 7860     		str	r0, [r7, #4]
  35:.\lib_Network/network.c ****     uint32_t runTime;
  36:.\lib_Network/network.c ****     
  37:.\lib_Network/network.c ****     runTime = 0;
 277              		.loc 2 37 0
 278 0008 0023     		mov	r3, #0
 279 000a E422     		mov	r2, #228
 280 000c BA18     		add	r2, r7, r2
 281 000e 1360     		str	r3, [r2]
  38:.\lib_Network/network.c ****     numAttemps = 0;
 282              		.loc 2 38 0
 283 0010 744B     		ldr	r3, .L21
 284 0012 0022     		mov	r2, #0
 285 0014 1A60     		str	r2, [r3]
  39:.\lib_Network/network.c ****     
  40:.\lib_Network/network.c ****     if(delayMs < MIN_DELAYMS)
 286              		.loc 2 40 0
 287 0016 7B68     		ldr	r3, [r7, #4]
 288 0018 952B     		cmp	r3, #149
 289 001a 04D8     		bhi	.L11
  41:.\lib_Network/network.c ****     {
  42:.\lib_Network/network.c ****         CyDelay(delayMs);
 290              		.loc 2 42 0
 291 001c 7B68     		ldr	r3, [r7, #4]
 292 001e 181C     		mov	r0, r3
 293 0020 FFF7FEFF 		bl	CyDelay
 294 0024 DAE0     		b	.L10
 295              	.L11:
 296              	.LBB2:
  43:.\lib_Network/network.c ****     }else
  44:.\lib_Network/network.c ****     {
ARM GAS  C:\Users\Petro\AppData\Local\Temp\cc9Scm3O.s 			page 17


  45:.\lib_Network/network.c ****         AppDelay_WriteCounter(131071);
 297              		.loc 2 45 0
 298 0026 704B     		ldr	r3, .L21+4
 299 0028 181C     		mov	r0, r3
 300 002a FFF7FEFF 		bl	AppDelay_WriteCounter
  46:.\lib_Network/network.c ****         uint32_t counter = AppDelay_ReadCounter();
 301              		.loc 2 46 0
 302 002e FFF7FEFF 		bl	AppDelay_ReadCounter
 303 0032 031C     		mov	r3, r0
 304 0034 DC22     		mov	r2, #220
 305 0036 BA18     		add	r2, r7, r2
 306 0038 1360     		str	r3, [r2]
  47:.\lib_Network/network.c ****         
  48:.\lib_Network/network.c ****         AppDelay_Start();
 307              		.loc 2 48 0
 308 003a FFF7FEFF 		bl	AppDelay_Start
  49:.\lib_Network/network.c ****         
  50:.\lib_Network/network.c ****         #ifdef DEBUG_PC
  51:.\lib_Network/network.c ****             int count = 0;
 309              		.loc 2 51 0
 310 003e 0023     		mov	r3, #0
 311 0040 E022     		mov	r2, #224
 312 0042 BA18     		add	r2, r7, r2
 313 0044 1360     		str	r3, [r2]
  52:.\lib_Network/network.c ****         #endif
  53:.\lib_Network/network.c ****         
  54:.\lib_Network/network.c ****         while(((delayMs - runTime) > MIN_DELAYMS) && (runTime <= delayMs))
 314              		.loc 2 54 0
 315 0046 64E0     		b	.L13
 316              	.L18:
 317              	.LBB3:
  55:.\lib_Network/network.c ****         {
  56:.\lib_Network/network.c ****             /*user function*/      
  57:.\lib_Network/network.c ****             if(outData.writeStatus == NO_WRITE && inData.readStatus == READ_OK)
 318              		.loc 2 57 0
 319 0048 684B     		ldr	r3, .L21+8
 320 004a DB7C     		ldrb	r3, [r3, #19]
 321 004c 002B     		cmp	r3, #0
 322 004e 0ED1     		bne	.L14
 323              		.loc 2 57 0 is_stmt 0 discriminator 1
 324 0050 674B     		ldr	r3, .L21+12
 325 0052 9B7C     		ldrb	r3, [r3, #18]
 326 0054 012B     		cmp	r3, #1
 327 0056 0AD1     		bne	.L14
  58:.\lib_Network/network.c ****             {
  59:.\lib_Network/network.c ****                 if (inData.IDpacket == outData.IDpacket)
 328              		.loc 2 59 0 is_stmt 1
 329 0058 654B     		ldr	r3, .L21+12
 330 005a 1A78     		ldrb	r2, [r3]
 331 005c 634B     		ldr	r3, .L21+8
 332 005e 1B78     		ldrb	r3, [r3]
 333 0060 9A42     		cmp	r2, r3
 334 0062 02D1     		bne	.L15
  60:.\lib_Network/network.c ****                 {
  61:.\lib_Network/network.c ****                     SendPreviousPacket();
 335              		.loc 2 61 0
 336 0064 FFF7FEFF 		bl	SendPreviousPacket
ARM GAS  C:\Users\Petro\AppData\Local\Temp\cc9Scm3O.s 			page 18


 337 0068 01E0     		b	.L14
 338              	.L15:
  62:.\lib_Network/network.c ****                 }
  63:.\lib_Network/network.c ****                 else
  64:.\lib_Network/network.c ****                 {
  65:.\lib_Network/network.c ****                     SendData();
 339              		.loc 2 65 0
 340 006a FFF7FEFF 		bl	SendData
 341              	.L14:
  66:.\lib_Network/network.c ****                 }
  67:.\lib_Network/network.c ****             }
  68:.\lib_Network/network.c ****             if(outData.writeStatus == WRITE_OK && inData.readStatus == NO_READ)
 342              		.loc 2 68 0
 343 006e 5F4B     		ldr	r3, .L21+8
 344 0070 DB7C     		ldrb	r3, [r3, #19]
 345 0072 012B     		cmp	r3, #1
 346 0074 05D1     		bne	.L16
 347              		.loc 2 68 0 is_stmt 0 discriminator 1
 348 0076 5E4B     		ldr	r3, .L21+12
 349 0078 9B7C     		ldrb	r3, [r3, #18]
 350 007a 002B     		cmp	r3, #0
 351 007c 01D1     		bne	.L16
  69:.\lib_Network/network.c ****             {
  70:.\lib_Network/network.c ****                 ReceiveData();
 352              		.loc 2 70 0 is_stmt 1
 353 007e FFF7FEFF 		bl	ReceiveData
 354              	.L16:
  71:.\lib_Network/network.c ****                 
  72:.\lib_Network/network.c ****             }
  73:.\lib_Network/network.c ****         
  74:.\lib_Network/network.c ****             CyDelay((uint32)MIN_DELAYMS);
 355              		.loc 2 74 0
 356 0082 9620     		mov	r0, #150
 357 0084 FFF7FEFF 		bl	CyDelay
  75:.\lib_Network/network.c ****             uint32_t period = AppDelay_ReadPeriod();;
 358              		.loc 2 75 0
 359 0088 FFF7FEFF 		bl	AppDelay_ReadPeriod
 360 008c 031C     		mov	r3, r0
 361 008e D822     		mov	r2, #216
 362 0090 BA18     		add	r2, r7, r2
 363 0092 1360     		str	r3, [r2]
  76:.\lib_Network/network.c ****             counter = AppDelay_ReadCounter();
 364              		.loc 2 76 0
 365 0094 FFF7FEFF 		bl	AppDelay_ReadCounter
 366 0098 031C     		mov	r3, r0
 367 009a DC22     		mov	r2, #220
 368 009c BA18     		add	r2, r7, r2
 369 009e 1360     		str	r3, [r2]
  77:.\lib_Network/network.c ****             runTime = (period -  counter)/32.768;
 370              		.loc 2 77 0
 371 00a0 D823     		mov	r3, #216
 372 00a2 FB18     		add	r3, r7, r3
 373 00a4 1A68     		ldr	r2, [r3]
 374 00a6 DC23     		mov	r3, #220
 375 00a8 FB18     		add	r3, r7, r3
 376 00aa 1B68     		ldr	r3, [r3]
 377 00ac D31A     		sub	r3, r2, r3
ARM GAS  C:\Users\Petro\AppData\Local\Temp\cc9Scm3O.s 			page 19


 378 00ae 181C     		mov	r0, r3
 379 00b0 FFF7FEFF 		bl	__aeabi_ui2d
 380 00b4 031C     		mov	r3, r0
 381 00b6 0C1C     		mov	r4, r1
 382 00b8 181C     		mov	r0, r3
 383 00ba 211C     		mov	r1, r4
 384 00bc 4D4A     		ldr	r2, .L21+16
 385 00be 4E4B     		ldr	r3, .L21+20
 386 00c0 FFF7FEFF 		bl	__aeabi_ddiv
 387 00c4 031C     		mov	r3, r0
 388 00c6 0C1C     		mov	r4, r1
 389 00c8 181C     		mov	r0, r3
 390 00ca 211C     		mov	r1, r4
 391 00cc FFF7FEFF 		bl	__aeabi_d2uiz
 392 00d0 031C     		mov	r3, r0
 393 00d2 E422     		mov	r2, #228
 394 00d4 BA18     		add	r2, r7, r2
 395 00d6 1360     		str	r3, [r2]
  78:.\lib_Network/network.c ****             
  79:.\lib_Network/network.c ****             #ifdef DEBUG_PC
  80:.\lib_Network/network.c ****             //outData.writeStatus = READ_OK;
  81:.\lib_Network/network.c ****             if(delayMs == 2000)
 396              		.loc 2 81 0
 397 00d8 7A68     		ldr	r2, [r7, #4]
 398 00da FA23     		mov	r3, #250
 399 00dc DB00     		lsl	r3, r3, #3
 400 00de 9A42     		cmp	r2, r3
 401 00e0 17D1     		bne	.L13
 402              	.LBB4:
  82:.\lib_Network/network.c ****             {
  83:.\lib_Network/network.c ****                 char buf[100];
  84:.\lib_Network/network.c ****                 sprintf(buf,"----------------%i !! %i-------------------",count++, runTime);
 403              		.loc 2 84 0
 404 00e2 E023     		mov	r3, #224
 405 00e4 FB18     		add	r3, r7, r3
 406 00e6 1B68     		ldr	r3, [r3]
 407 00e8 5A1C     		add	r2, r3, #1
 408 00ea E021     		mov	r1, #224
 409 00ec 7918     		add	r1, r7, r1
 410 00ee 0A60     		str	r2, [r1]
 411 00f0 7022     		mov	r2, #112
 412 00f2 B918     		add	r1, r7, r2
 413 00f4 414A     		ldr	r2, .L21+24
 414 00f6 E420     		mov	r0, #228
 415 00f8 3818     		add	r0, r7, r0
 416 00fa 0468     		ldr	r4, [r0]
 417 00fc 081C     		mov	r0, r1
 418 00fe 111C     		mov	r1, r2
 419 0100 1A1C     		mov	r2, r3
 420 0102 231C     		mov	r3, r4
 421 0104 FFF7FEFF 		bl	sprintf
  85:.\lib_Network/network.c ****                 SW_UART_DEBUG_PutString(buf);
 422              		.loc 2 85 0
 423 0108 7023     		mov	r3, #112
 424 010a FB18     		add	r3, r7, r3
 425 010c 181C     		mov	r0, r3
 426 010e FFF7FEFF 		bl	SW_UART_DEBUG_PutString
ARM GAS  C:\Users\Petro\AppData\Local\Temp\cc9Scm3O.s 			page 20


 427              	.L13:
 428              	.LBE4:
 429              	.LBE3:
  54:.\lib_Network/network.c ****         {
 430              		.loc 2 54 0
 431 0112 7A68     		ldr	r2, [r7, #4]
 432 0114 E423     		mov	r3, #228
 433 0116 FB18     		add	r3, r7, r3
 434 0118 1B68     		ldr	r3, [r3]
 435 011a D31A     		sub	r3, r2, r3
 436 011c 962B     		cmp	r3, #150
 437 011e 05D9     		bls	.L17
  54:.\lib_Network/network.c ****         {
 438              		.loc 2 54 0 is_stmt 0 discriminator 1
 439 0120 E423     		mov	r3, #228
 440 0122 FB18     		add	r3, r7, r3
 441 0124 1A68     		ldr	r2, [r3]
 442 0126 7B68     		ldr	r3, [r7, #4]
 443 0128 9A42     		cmp	r2, r3
 444 012a 8DD9     		bls	.L18
 445              	.L17:
  86:.\lib_Network/network.c ****             }
  87:.\lib_Network/network.c ****             #endif
  88:.\lib_Network/network.c ****         }
  89:.\lib_Network/network.c ****         AppDelay_Stop();
 446              		.loc 2 89 0 is_stmt 1
 447 012c FFF7FEFF 		bl	AppDelay_Stop
  90:.\lib_Network/network.c ****         
  91:.\lib_Network/network.c ****         #ifdef DEBUG_PC
  92:.\lib_Network/network.c ****         char buffer[100];
  93:.\lib_Network/network.c ****         sprintf(buffer,"time send data %u\n\r", (runTime));
 448              		.loc 2 93 0
 449 0130 0C23     		mov	r3, #12
 450 0132 F918     		add	r1, r7, r3
 451 0134 324A     		ldr	r2, .L21+28
 452 0136 E423     		mov	r3, #228
 453 0138 FB18     		add	r3, r7, r3
 454 013a 1B68     		ldr	r3, [r3]
 455 013c 081C     		mov	r0, r1
 456 013e 111C     		mov	r1, r2
 457 0140 1A1C     		mov	r2, r3
 458 0142 FFF7FEFF 		bl	sprintf
  94:.\lib_Network/network.c ****         SW_UART_DEBUG_PutString(buffer);
 459              		.loc 2 94 0
 460 0146 0C23     		mov	r3, #12
 461 0148 FB18     		add	r3, r7, r3
 462 014a 181C     		mov	r0, r3
 463 014c FFF7FEFF 		bl	SW_UART_DEBUG_PutString
  95:.\lib_Network/network.c ****         #endif
  96:.\lib_Network/network.c ****         #ifdef DEBUG_PC
  97:.\lib_Network/network.c ****             char buff[100];
  98:.\lib_Network/network.c ****             uint32_t time;
  99:.\lib_Network/network.c ****             time = RTC_GetTime();
 464              		.loc 2 99 0
 465 0150 FFF7FEFF 		bl	RTC_GetTime
 466 0154 031C     		mov	r3, r0
 467 0156 D422     		mov	r2, #212
ARM GAS  C:\Users\Petro\AppData\Local\Temp\cc9Scm3O.s 			page 21


 468 0158 BA18     		add	r2, r7, r2
 469 015a 1360     		str	r3, [r2]
 100:.\lib_Network/network.c ****             sprintf(buff, "%02lu:%02lu:%02lu        ", RTC_GetHours(time),RTC_GetMinutes(time), RTC
 470              		.loc 2 100 0
 471 015c D423     		mov	r3, #212
 472 015e FB18     		add	r3, r7, r3
 473 0160 1B68     		ldr	r3, [r3]
 474 0162 181C     		mov	r0, r3
 475 0164 FFF7FEFF 		bl	RTC_GetHours
 476 0168 051C     		mov	r5, r0
 477 016a D423     		mov	r3, #212
 478 016c FB18     		add	r3, r7, r3
 479 016e 1B68     		ldr	r3, [r3]
 480 0170 181C     		mov	r0, r3
 481 0172 FFF7FEFF 		bl	RTC_GetMinutes
 482 0176 041C     		mov	r4, r0
 483 0178 D423     		mov	r3, #212
 484 017a FB18     		add	r3, r7, r3
 485 017c 1B68     		ldr	r3, [r3]
 486 017e 181C     		mov	r0, r3
 487 0180 FFF7FEFF 		bl	RTC_GetSecond
 488 0184 011C     		mov	r1, r0
 489 0186 7023     		mov	r3, #112
 490 0188 FA18     		add	r2, r7, r3
 491 018a 1E4B     		ldr	r3, .L21+32
 492 018c 0091     		str	r1, [sp]
 493 018e 101C     		mov	r0, r2
 494 0190 191C     		mov	r1, r3
 495 0192 2A1C     		mov	r2, r5
 496 0194 231C     		mov	r3, r4
 497 0196 FFF7FEFF 		bl	sprintf
 101:.\lib_Network/network.c ****             LCD_Position(1,0);
 498              		.loc 2 101 0
 499 019a 0120     		mov	r0, #1
 500 019c 0021     		mov	r1, #0
 501 019e FFF7FEFF 		bl	LCD_Position
 102:.\lib_Network/network.c ****             LCD_PrintString(buff);
 502              		.loc 2 102 0
 503 01a2 7023     		mov	r3, #112
 504 01a4 FB18     		add	r3, r7, r3
 505 01a6 181C     		mov	r0, r3
 506 01a8 FFF7FEFF 		bl	LCD_PrintString
 103:.\lib_Network/network.c ****         #endif
 104:.\lib_Network/network.c ****         
 105:.\lib_Network/network.c ****         /*tyme to respond*/
 106:.\lib_Network/network.c ****         if(noConnect++ >= 5)
 507              		.loc 2 106 0
 508 01ac 164B     		ldr	r3, .L21+36
 509 01ae 1B68     		ldr	r3, [r3]
 510 01b0 591C     		add	r1, r3, #1
 511 01b2 154A     		ldr	r2, .L21+36
 512 01b4 1160     		str	r1, [r2]
 513 01b6 042B     		cmp	r3, #4
 514 01b8 02DD     		ble	.L19
 107:.\lib_Network/network.c ****         {
 108:.\lib_Network/network.c ****             networkStatus = NETWORK_DISCONN;
 515              		.loc 2 108 0
ARM GAS  C:\Users\Petro\AppData\Local\Temp\cc9Scm3O.s 			page 22


 516 01ba 144B     		ldr	r3, .L21+40
 517 01bc 0022     		mov	r2, #0
 518 01be 1A60     		str	r2, [r3]
 519              	.L19:
 109:.\lib_Network/network.c ****         }
 110:.\lib_Network/network.c ****         if (delayMs > runTime)
 520              		.loc 2 110 0
 521 01c0 7A68     		ldr	r2, [r7, #4]
 522 01c2 E423     		mov	r3, #228
 523 01c4 FB18     		add	r3, r7, r3
 524 01c6 1B68     		ldr	r3, [r3]
 525 01c8 9A42     		cmp	r2, r3
 526 01ca 07D9     		bls	.L10
 111:.\lib_Network/network.c ****         {
 112:.\lib_Network/network.c ****             CyDelay(delayMs - runTime);
 527              		.loc 2 112 0
 528 01cc 7A68     		ldr	r2, [r7, #4]
 529 01ce E423     		mov	r3, #228
 530 01d0 FB18     		add	r3, r7, r3
 531 01d2 1B68     		ldr	r3, [r3]
 532 01d4 D31A     		sub	r3, r2, r3
 533 01d6 181C     		mov	r0, r3
 534 01d8 FFF7FEFF 		bl	CyDelay
 535              	.L10:
 536              	.LBE2:
 113:.\lib_Network/network.c ****         }
 114:.\lib_Network/network.c ****     }
 115:.\lib_Network/network.c ****     
 116:.\lib_Network/network.c **** 
 117:.\lib_Network/network.c **** }
 537              		.loc 2 117 0
 538 01dc BD46     		mov	sp, r7
 539 01de 3AB0     		add	sp, sp, #232
 540              		@ sp needed
 541 01e0 B0BD     		pop	{r4, r5, r7, pc}
 542              	.L22:
 543 01e2 C046     		.align	2
 544              	.L21:
 545 01e4 04000000 		.word	numAttemps
 546 01e8 FFFF0100 		.word	131071
 547 01ec 00000000 		.word	outData
 548 01f0 00000000 		.word	inData
 549 01f4 FCA9F1D2 		.word	-755914244
 550 01f8 4D624040 		.word	1077961293
 551 01fc 18000000 		.word	.LC8
 552 0200 44000000 		.word	.LC10
 553 0204 58000000 		.word	.LC12
 554 0208 08000000 		.word	noConnect
 555 020c 00000000 		.word	networkStatus
 556              		.cfi_endproc
 557              	.LFE64:
 558              		.size	AppDelay, .-AppDelay
 559              		.section	.rodata
 560 0072 0000     		.align	2
 561              	.LC17:
 562 0074 25303258 		.ascii	"%02X:%08X%08X%04X%02X\000"
 562      3A253038 
ARM GAS  C:\Users\Petro\AppData\Local\Temp\cc9Scm3O.s 			page 23


 562      58253038 
 562      58253034 
 562      58253032 
 563 008a 0000     		.align	2
 564              	.LC20:
 565 008c 6F757420 		.ascii	"out data - \000"
 565      64617461 
 565      202D2000 
 566              		.align	2
 567              	.LC22:
 568 0098 0A0D00   		.ascii	"\012\015\000"
 569              		.section	.text.SendData,"ax",%progbits
 570              		.align	2
 571              		.global	SendData
 572              		.code	16
 573              		.thumb_func
 574              		.type	SendData, %function
 575              	SendData:
 576              	.LFB65:
 118:.\lib_Network/network.c **** 
 119:.\lib_Network/network.c **** void SendData(void)
 120:.\lib_Network/network.c **** {
 577              		.loc 2 120 0
 578              		.cfi_startproc
 579 0000 B0B5     		push	{r4, r5, r7, lr}
 580              		.cfi_def_cfa_offset 16
 581              		.cfi_offset 4, -16
 582              		.cfi_offset 5, -12
 583              		.cfi_offset 7, -8
 584              		.cfi_offset 14, -4
 585 0002 9EB0     		sub	sp, sp, #120
 586              		.cfi_def_cfa_offset 136
 587 0004 04AF     		add	r7, sp, #16
 588              		.cfi_def_cfa 7, 120
 121:.\lib_Network/network.c ****     char sendBuffer[DATA_BUFFER];
 122:.\lib_Network/network.c ****     char sendData[DATA_BUFFER];
 123:.\lib_Network/network.c ****     int i;
 124:.\lib_Network/network.c ****     
 125:.\lib_Network/network.c ****     /*pack data*/
 126:.\lib_Network/network.c ****     sprintf(sendData,"%02X:%08X%08X%04X%02X",
 127:.\lib_Network/network.c ****             0u,
 128:.\lib_Network/network.c ****             (uint32_t)((outData.unixStartTime & 0xFFFFFFFF00000000) >> 32), 
 589              		.loc 2 128 0
 590 0006 284B     		ldr	r3, .L24
 591 0008 DC68     		ldr	r4, [r3, #12]
 592 000a 9B68     		ldr	r3, [r3, #8]
 593 000c 2100     		lsr	r1, r4, #0
 594 000e 0023     		mov	r3, #0
 595 0010 1A1C     		mov	r2, r3
 126:.\lib_Network/network.c ****             0u,
 596              		.loc 2 126 0
 597 0012 0D1C     		mov	r5, r1
 129:.\lib_Network/network.c ****             (uint32_t)(outData.unixStartTime & 0x00000000FFFFFFFF), 
 598              		.loc 2 129 0
 599 0014 244B     		ldr	r3, .L24
 600 0016 DC68     		ldr	r4, [r3, #12]
 601 0018 9B68     		ldr	r3, [r3, #8]
ARM GAS  C:\Users\Petro\AppData\Local\Temp\cc9Scm3O.s 			page 24


 126:.\lib_Network/network.c ****             0u,
 602              		.loc 2 126 0
 603 001a 1C1C     		mov	r4, r3
 130:.\lib_Network/network.c ****             outData.startMsTime, 
 604              		.loc 2 130 0
 605 001c 224B     		ldr	r3, .L24
 606 001e 1B8A     		ldrh	r3, [r3, #16]
 126:.\lib_Network/network.c ****             0u,
 607              		.loc 2 126 0
 608 0020 181C     		mov	r0, r3
 131:.\lib_Network/network.c ****             outData.newSkier);
 609              		.loc 2 131 0
 610 0022 214B     		ldr	r3, .L24
 611 0024 9B7C     		ldrb	r3, [r3, #18]
 126:.\lib_Network/network.c ****             0u,
 612              		.loc 2 126 0
 613 0026 191C     		mov	r1, r3
 614 0028 3A1C     		mov	r2, r7
 615 002a 204B     		ldr	r3, .L24+4
 616 002c 0094     		str	r4, [sp]
 617 002e 0190     		str	r0, [sp, #4]
 618 0030 0291     		str	r1, [sp, #8]
 619 0032 101C     		mov	r0, r2
 620 0034 191C     		mov	r1, r3
 621 0036 0022     		mov	r2, #0
 622 0038 2B1C     		mov	r3, r5
 623 003a FFF7FEFF 		bl	sprintf
 132:.\lib_Network/network.c ****     
 133:.\lib_Network/network.c ****     
 134:.\lib_Network/network.c ****     PackData(sendBuffer, (uint8_t *)sendData, inData.IDpacket);
 624              		.loc 2 134 0
 625 003e 1C4B     		ldr	r3, .L24+8
 626 0040 1B78     		ldrb	r3, [r3]
 627 0042 1C1C     		mov	r4, r3
 628 0044 3423     		mov	r3, #52
 629 0046 FA18     		add	r2, r7, r3
 630 0048 3B1C     		mov	r3, r7
 631 004a 101C     		mov	r0, r2
 632 004c 191C     		mov	r1, r3
 633 004e 221C     		mov	r2, r4
 634 0050 FFF7FEFF 		bl	PackData
 135:.\lib_Network/network.c ****     UART_XB_UartPutString(sendBuffer);
 635              		.loc 2 135 0
 636 0054 3423     		mov	r3, #52
 637 0056 FB18     		add	r3, r7, r3
 638 0058 181C     		mov	r0, r3
 639 005a FFF7FEFF 		bl	UART_XB_UartPutString
 136:.\lib_Network/network.c ****     
 137:.\lib_Network/network.c **** 
 138:.\lib_Network/network.c ****     outData.newSkier = !NEW_SKIER_IN_TARCK;
 640              		.loc 2 138 0
 641 005e 124B     		ldr	r3, .L24
 642 0060 0022     		mov	r2, #0
 643 0062 9A74     		strb	r2, [r3, #18]
 139:.\lib_Network/network.c ****         
 140:.\lib_Network/network.c ****     outData.writeStatus = WRITE_OK;
 644              		.loc 2 140 0
ARM GAS  C:\Users\Petro\AppData\Local\Temp\cc9Scm3O.s 			page 25


 645 0064 104B     		ldr	r3, .L24
 646 0066 0122     		mov	r2, #1
 647 0068 DA74     		strb	r2, [r3, #19]
 141:.\lib_Network/network.c ****     outData.IDpacket = inData.IDpacket;
 648              		.loc 2 141 0
 649 006a 114B     		ldr	r3, .L24+8
 650 006c 1A78     		ldrb	r2, [r3]
 651 006e 0E4B     		ldr	r3, .L24
 652 0070 1A70     		strb	r2, [r3]
 142:.\lib_Network/network.c ****     inData.readStatus = NO_READ;
 653              		.loc 2 142 0
 654 0072 0F4B     		ldr	r3, .L24+8
 655 0074 0022     		mov	r2, #0
 656 0076 9A74     		strb	r2, [r3, #18]
 143:.\lib_Network/network.c ****     #ifdef DEBUG_PC
 144:.\lib_Network/network.c ****     SW_UART_DEBUG_PutString("out data - "); 
 657              		.loc 2 144 0
 658 0078 0E4B     		ldr	r3, .L24+12
 659 007a 181C     		mov	r0, r3
 660 007c FFF7FEFF 		bl	SW_UART_DEBUG_PutString
 145:.\lib_Network/network.c ****     SW_UART_DEBUG_PutString(sendBuffer);   
 661              		.loc 2 145 0
 662 0080 3423     		mov	r3, #52
 663 0082 FB18     		add	r3, r7, r3
 664 0084 181C     		mov	r0, r3
 665 0086 FFF7FEFF 		bl	SW_UART_DEBUG_PutString
 146:.\lib_Network/network.c ****     SW_UART_DEBUG_PutString("\n\r");
 666              		.loc 2 146 0
 667 008a 0B4B     		ldr	r3, .L24+16
 668 008c 181C     		mov	r0, r3
 669 008e FFF7FEFF 		bl	SW_UART_DEBUG_PutString
 147:.\lib_Network/network.c ****     #endif   
 148:.\lib_Network/network.c ****     strcpy(previousData, sendBuffer);
 670              		.loc 2 148 0
 671 0092 0A4A     		ldr	r2, .L24+20
 672 0094 3423     		mov	r3, #52
 673 0096 FB18     		add	r3, r7, r3
 674 0098 101C     		mov	r0, r2
 675 009a 191C     		mov	r1, r3
 676 009c FFF7FEFF 		bl	strcpy
 149:.\lib_Network/network.c **** }
 677              		.loc 2 149 0
 678 00a0 BD46     		mov	sp, r7
 679 00a2 1AB0     		add	sp, sp, #104
 680              		@ sp needed
 681 00a4 B0BD     		pop	{r4, r5, r7, pc}
 682              	.L25:
 683 00a6 C046     		.align	2
 684              	.L24:
 685 00a8 00000000 		.word	outData
 686 00ac 74000000 		.word	.LC17
 687 00b0 00000000 		.word	inData
 688 00b4 8C000000 		.word	.LC20
 689 00b8 98000000 		.word	.LC22
 690 00bc 00000000 		.word	previousData
 691              		.cfi_endproc
 692              	.LFE65:
ARM GAS  C:\Users\Petro\AppData\Local\Temp\cc9Scm3O.s 			page 26


 693              		.size	SendData, .-SendData
 694              		.section	.text.SendPreviousPacket,"ax",%progbits
 695              		.align	2
 696              		.global	SendPreviousPacket
 697              		.code	16
 698              		.thumb_func
 699              		.type	SendPreviousPacket, %function
 700              	SendPreviousPacket:
 701              	.LFB66:
 150:.\lib_Network/network.c **** 
 151:.\lib_Network/network.c **** void SendPreviousPacket(void)
 152:.\lib_Network/network.c **** {
 702              		.loc 2 152 0
 703              		.cfi_startproc
 704 0000 80B5     		push	{r7, lr}
 705              		.cfi_def_cfa_offset 8
 706              		.cfi_offset 7, -8
 707              		.cfi_offset 14, -4
 708 0002 00AF     		add	r7, sp, #0
 709              		.cfi_def_cfa_register 7
 153:.\lib_Network/network.c ****     UART_XB_UartPutString(previousData);
 710              		.loc 2 153 0
 711 0004 054B     		ldr	r3, .L27
 712 0006 181C     		mov	r0, r3
 713 0008 FFF7FEFF 		bl	UART_XB_UartPutString
 154:.\lib_Network/network.c ****     outData.writeStatus = WRITE_OK;
 714              		.loc 2 154 0
 715 000c 044B     		ldr	r3, .L27+4
 716 000e 0122     		mov	r2, #1
 717 0010 DA74     		strb	r2, [r3, #19]
 155:.\lib_Network/network.c ****     inData.readStatus = NO_READ;
 718              		.loc 2 155 0
 719 0012 044B     		ldr	r3, .L27+8
 720 0014 0022     		mov	r2, #0
 721 0016 9A74     		strb	r2, [r3, #18]
 156:.\lib_Network/network.c **** }
 722              		.loc 2 156 0
 723 0018 BD46     		mov	sp, r7
 724              		@ sp needed
 725 001a 80BD     		pop	{r7, pc}
 726              	.L28:
 727              		.align	2
 728              	.L27:
 729 001c 00000000 		.word	previousData
 730 0020 00000000 		.word	outData
 731 0024 00000000 		.word	inData
 732              		.cfi_endproc
 733              	.LFE66:
 734              		.size	SendPreviousPacket, .-SendPreviousPacket
 735              		.section	.rodata
 736 009b 00       		.align	2
 737              	.LC32:
 738 009c 20202020 		.ascii	"       READ DATA OKEY\000"
 738      20202052 
 738      45414420 
 738      44415441 
 738      204F4B45 
ARM GAS  C:\Users\Petro\AppData\Local\Temp\cc9Scm3O.s 			page 27


 739 00b2 0000     		.section	.text.ReceiveData,"ax",%progbits
 740              		.align	2
 741              		.global	ReceiveData
 742              		.code	16
 743              		.thumb_func
 744              		.type	ReceiveData, %function
 745              	ReceiveData:
 746              	.LFB67:
 157:.\lib_Network/network.c **** 
 158:.\lib_Network/network.c **** uint32_t ReceiveData(void)
 159:.\lib_Network/network.c **** {
 747              		.loc 2 159 0
 748              		.cfi_startproc
 749 0000 80B5     		push	{r7, lr}
 750              		.cfi_def_cfa_offset 8
 751              		.cfi_offset 7, -8
 752              		.cfi_offset 14, -4
 753 0002 8AB0     		sub	sp, sp, #40
 754              		.cfi_def_cfa_offset 48
 755 0004 00AF     		add	r7, sp, #0
 756              		.cfi_def_cfa_register 7
 160:.\lib_Network/network.c ****     uint32_t result = 0;
 757              		.loc 2 160 0
 758 0006 0023     		mov	r3, #0
 759 0008 7B62     		str	r3, [r7, #36]
 161:.\lib_Network/network.c ****     int i;
 162:.\lib_Network/network.c ****     uint32_t byte;
 163:.\lib_Network/network.c ****     struct Resp recvData;
 164:.\lib_Network/network.c ****       
 165:.\lib_Network/network.c ****     while((UART_XB_SpiUartGetRxBufferSize() > 0) && ((byte=UART_XB_UartGetChar()) != 0))
 760              		.loc 2 165 0
 761 000a 3CE0     		b	.L30
 762              	.L33:
 166:.\lib_Network/network.c ****     { 
 167:.\lib_Network/network.c ****         result = UnpackData(&recvData, (uint8_t)(byte & 0xFF));
 763              		.loc 2 167 0
 764 000c 3B6A     		ldr	r3, [r7, #32]
 765 000e DBB2     		uxtb	r3, r3
 766 0010 3A1C     		mov	r2, r7
 767 0012 101C     		mov	r0, r2
 768 0014 191C     		mov	r1, r3
 769 0016 FFF7FEFF 		bl	UnpackData
 770 001a 031C     		mov	r3, r0
 771 001c 7B62     		str	r3, [r7, #36]
 168:.\lib_Network/network.c ****         
 169:.\lib_Network/network.c ****         #ifdef DEBUG_PC
 170:.\lib_Network/network.c ****         //SW_UART_DEBUG_PutString("\nbyte - ");
 171:.\lib_Network/network.c ****         SW_UART_DEBUG_PutChar(byte);
 772              		.loc 2 171 0
 773 001e 3B6A     		ldr	r3, [r7, #32]
 774 0020 DBB2     		uxtb	r3, r3
 775 0022 181C     		mov	r0, r3
 776 0024 FFF7FEFF 		bl	SW_UART_DEBUG_PutChar
 172:.\lib_Network/network.c ****         #endif
 173:.\lib_Network/network.c ****         
 174:.\lib_Network/network.c ****         if(recvData.EndPacket == 1)
 777              		.loc 2 174 0
ARM GAS  C:\Users\Petro\AppData\Local\Temp\cc9Scm3O.s 			page 28


 778 0028 3B1C     		mov	r3, r7
 779 002a 1B7E     		ldrb	r3, [r3, #24]
 780 002c 012B     		cmp	r3, #1
 781 002e 2AD1     		bne	.L30
 175:.\lib_Network/network.c ****         {                      
 176:.\lib_Network/network.c ****             inData.IDpacket = recvData.Seq;
 782              		.loc 2 176 0
 783 0030 3B1C     		mov	r3, r7
 784 0032 1B88     		ldrh	r3, [r3]
 785 0034 DAB2     		uxtb	r2, r3
 786 0036 1C4B     		ldr	r3, .L35
 787 0038 1A70     		strb	r2, [r3]
 177:.\lib_Network/network.c ****             
 178:.\lib_Network/network.c ****             inData.readStatus = READ_OK;
 788              		.loc 2 178 0
 789 003a 1B4B     		ldr	r3, .L35
 790 003c 0122     		mov	r2, #1
 791 003e 9A74     		strb	r2, [r3, #18]
 179:.\lib_Network/network.c ****             outData.writeStatus = NO_WRITE;
 792              		.loc 2 179 0
 793 0040 1A4B     		ldr	r3, .L35+4
 794 0042 0022     		mov	r2, #0
 795 0044 DA74     		strb	r2, [r3, #19]
 180:.\lib_Network/network.c ****             
 181:.\lib_Network/network.c ****             /*connect network*/
 182:.\lib_Network/network.c ****             networkStatus = NETWORK_CONN;
 796              		.loc 2 182 0
 797 0046 1A4B     		ldr	r3, .L35+8
 798 0048 0122     		mov	r2, #1
 799 004a 1A60     		str	r2, [r3]
 183:.\lib_Network/network.c ****             noConnect = 0;
 800              		.loc 2 183 0
 801 004c 194B     		ldr	r3, .L35+12
 802 004e 0022     		mov	r2, #0
 803 0050 1A60     		str	r2, [r3]
 184:.\lib_Network/network.c ****             /*write data*/
 185:.\lib_Network/network.c ****             inData.countSkiers = recvData.Data3;
 804              		.loc 2 185 0
 805 0052 3B1C     		mov	r3, r7
 806 0054 9A7C     		ldrb	r2, [r3, #18]
 807 0056 144B     		ldr	r3, .L35
 808 0058 DA70     		strb	r2, [r3, #3]
 186:.\lib_Network/network.c ****             //inData.unixStartTime = recvData.Data1;
 187:.\lib_Network/network.c ****             inData.ready = (recvData.Data2 & 0xFF00) >> 8;
 809              		.loc 2 187 0
 810 005a 3B1C     		mov	r3, r7
 811 005c 1B8A     		ldrh	r3, [r3, #16]
 812 005e 1B0A     		lsr	r3, r3, #8
 813 0060 9BB2     		uxth	r3, r3
 814 0062 DAB2     		uxtb	r2, r3
 815 0064 104B     		ldr	r3, .L35
 816 0066 5A70     		strb	r2, [r3, #1]
 188:.\lib_Network/network.c ****             inData.reboot = recvData.Data2 & 0x00FF;
 817              		.loc 2 188 0
 818 0068 3B1C     		mov	r3, r7
 819 006a 1B8A     		ldrh	r3, [r3, #16]
 820 006c DAB2     		uxtb	r2, r3
ARM GAS  C:\Users\Petro\AppData\Local\Temp\cc9Scm3O.s 			page 29


 821 006e 0E4B     		ldr	r3, .L35
 822 0070 9A70     		strb	r2, [r3, #2]
 189:.\lib_Network/network.c ****             /*next packet*/
 190:.\lib_Network/network.c ****             //outData.IDpacket++;
 191:.\lib_Network/network.c ****             #ifdef DEBUG_PC
 192:.\lib_Network/network.c ****             SW_UART_DEBUG_PutString("       READ DATA OKEY");   
 823              		.loc 2 192 0
 824 0072 114B     		ldr	r3, .L35+16
 825 0074 181C     		mov	r0, r3
 826 0076 FFF7FEFF 		bl	SW_UART_DEBUG_PutString
 193:.\lib_Network/network.c ****             SW_UART_DEBUG_PutString("\n\r");
 827              		.loc 2 193 0
 828 007a 104B     		ldr	r3, .L35+20
 829 007c 181C     		mov	r0, r3
 830 007e FFF7FEFF 		bl	SW_UART_DEBUG_PutString
 194:.\lib_Network/network.c ****             #endif 
 195:.\lib_Network/network.c **** 
 196:.\lib_Network/network.c ****             return  NO_ERROR;  
 831              		.loc 2 196 0
 832 0082 0123     		mov	r3, #1
 833 0084 0BE0     		b	.L34
 834              	.L30:
 165:.\lib_Network/network.c ****     { 
 835              		.loc 2 165 0
 836 0086 FFF7FEFF 		bl	UART_XB_SpiUartGetRxBufferSize
 837 008a 031E     		sub	r3, r0, #0
 838 008c 06D0     		beq	.L32
 165:.\lib_Network/network.c ****     { 
 839              		.loc 2 165 0 is_stmt 0 discriminator 1
 840 008e FFF7FEFF 		bl	UART_XB_UartGetChar
 841 0092 031C     		mov	r3, r0
 842 0094 3B62     		str	r3, [r7, #32]
 843 0096 3B6A     		ldr	r3, [r7, #32]
 844 0098 002B     		cmp	r3, #0
 845 009a B7D1     		bne	.L33
 846              	.L32:
 197:.\lib_Network/network.c ****         }
 198:.\lib_Network/network.c ****     }
 199:.\lib_Network/network.c ****     
 200:.\lib_Network/network.c ****     #ifdef DEBUG_PC
 201:.\lib_Network/network.c ****     //SW_UART_DEBUG_PutString("\nERROR READ!!!!");   
 202:.\lib_Network/network.c ****     //SW_UART_DEBUG_PutString("\n\r");
 203:.\lib_Network/network.c ****     #endif 
 204:.\lib_Network/network.c ****     return  ERROR;
 847              		.loc 2 204 0 is_stmt 1
 848 009c 0023     		mov	r3, #0
 849              	.L34:
 205:.\lib_Network/network.c **** }
 850              		.loc 2 205 0 discriminator 1
 851 009e 181C     		mov	r0, r3
 852 00a0 BD46     		mov	sp, r7
 853 00a2 0AB0     		add	sp, sp, #40
 854              		@ sp needed
 855 00a4 80BD     		pop	{r7, pc}
 856              	.L36:
 857 00a6 C046     		.align	2
 858              	.L35:
ARM GAS  C:\Users\Petro\AppData\Local\Temp\cc9Scm3O.s 			page 30


 859 00a8 00000000 		.word	inData
 860 00ac 00000000 		.word	outData
 861 00b0 00000000 		.word	networkStatus
 862 00b4 08000000 		.word	noConnect
 863 00b8 9C000000 		.word	.LC32
 864 00bc 98000000 		.word	.LC22
 865              		.cfi_endproc
 866              	.LFE67:
 867              		.size	ReceiveData, .-ReceiveData
 868              		.section	.text.NetworkStatus,"ax",%progbits
 869              		.align	2
 870              		.global	NetworkStatus
 871              		.code	16
 872              		.thumb_func
 873              		.type	NetworkStatus, %function
 874              	NetworkStatus:
 875              	.LFB68:
 206:.\lib_Network/network.c **** 
 207:.\lib_Network/network.c **** 
 208:.\lib_Network/network.c **** uint32_t NetworkStatus(void)
 209:.\lib_Network/network.c **** {
 876              		.loc 2 209 0
 877              		.cfi_startproc
 878 0000 80B5     		push	{r7, lr}
 879              		.cfi_def_cfa_offset 8
 880              		.cfi_offset 7, -8
 881              		.cfi_offset 14, -4
 882 0002 00AF     		add	r7, sp, #0
 883              		.cfi_def_cfa_register 7
 210:.\lib_Network/network.c ****     return networkStatus;
 884              		.loc 2 210 0
 885 0004 024B     		ldr	r3, .L39
 886 0006 1B68     		ldr	r3, [r3]
 211:.\lib_Network/network.c **** }
 887              		.loc 2 211 0
 888 0008 181C     		mov	r0, r3
 889 000a BD46     		mov	sp, r7
 890              		@ sp needed
 891 000c 80BD     		pop	{r7, pc}
 892              	.L40:
 893 000e C046     		.align	2
 894              	.L39:
 895 0010 00000000 		.word	networkStatus
 896              		.cfi_endproc
 897              	.LFE68:
 898              		.size	NetworkStatus, .-NetworkStatus
 899              		.section	.text.SendSkierStart,"ax",%progbits
 900              		.align	2
 901              		.global	SendSkierStart
 902              		.code	16
 903              		.thumb_func
 904              		.type	SendSkierStart, %function
 905              	SendSkierStart:
 906              	.LFB69:
 212:.\lib_Network/network.c **** 
 213:.\lib_Network/network.c **** void SendSkierStart(uint64_t unixTimeStart, uint32_t recentMs)
 214:.\lib_Network/network.c **** {
ARM GAS  C:\Users\Petro\AppData\Local\Temp\cc9Scm3O.s 			page 31


 907              		.loc 2 214 0
 908              		.cfi_startproc
 909 0000 90B5     		push	{r4, r7, lr}
 910              		.cfi_def_cfa_offset 12
 911              		.cfi_offset 4, -12
 912              		.cfi_offset 7, -8
 913              		.cfi_offset 14, -4
 914 0002 85B0     		sub	sp, sp, #20
 915              		.cfi_def_cfa_offset 32
 916 0004 00AF     		add	r7, sp, #0
 917              		.cfi_def_cfa_register 7
 918 0006 B860     		str	r0, [r7, #8]
 919 0008 F960     		str	r1, [r7, #12]
 920 000a 7A60     		str	r2, [r7, #4]
 215:.\lib_Network/network.c ****     outData.unixStartTime = unixTimeStart;
 921              		.loc 2 215 0
 922 000c 074A     		ldr	r2, .L42
 923 000e BB68     		ldr	r3, [r7, #8]
 924 0010 FC68     		ldr	r4, [r7, #12]
 925 0012 9360     		str	r3, [r2, #8]
 926 0014 D460     		str	r4, [r2, #12]
 216:.\lib_Network/network.c ****     outData.startMsTime = recentMs;
 927              		.loc 2 216 0
 928 0016 7B68     		ldr	r3, [r7, #4]
 929 0018 9AB2     		uxth	r2, r3
 930 001a 044B     		ldr	r3, .L42
 931 001c 1A82     		strh	r2, [r3, #16]
 217:.\lib_Network/network.c ****     outData.newSkier = NEW_SKIER_IN_TARCK;
 932              		.loc 2 217 0
 933 001e 034B     		ldr	r3, .L42
 934 0020 0122     		mov	r2, #1
 935 0022 9A74     		strb	r2, [r3, #18]
 218:.\lib_Network/network.c **** }
 936              		.loc 2 218 0
 937 0024 BD46     		mov	sp, r7
 938 0026 05B0     		add	sp, sp, #20
 939              		@ sp needed
 940 0028 90BD     		pop	{r4, r7, pc}
 941              	.L43:
 942 002a C046     		.align	2
 943              	.L42:
 944 002c 00000000 		.word	outData
 945              		.cfi_endproc
 946              	.LFE69:
 947              		.size	SendSkierStart, .-SendSkierStart
 948              		.section	.text.FinReady,"ax",%progbits
 949              		.align	2
 950              		.global	FinReady
 951              		.code	16
 952              		.thumb_func
 953              		.type	FinReady, %function
 954              	FinReady:
 955              	.LFB70:
 219:.\lib_Network/network.c **** 
 220:.\lib_Network/network.c **** uint32_t FinReady(void)
 221:.\lib_Network/network.c **** {
 956              		.loc 2 221 0
ARM GAS  C:\Users\Petro\AppData\Local\Temp\cc9Scm3O.s 			page 32


 957              		.cfi_startproc
 958 0000 80B5     		push	{r7, lr}
 959              		.cfi_def_cfa_offset 8
 960              		.cfi_offset 7, -8
 961              		.cfi_offset 14, -4
 962 0002 00AF     		add	r7, sp, #0
 963              		.cfi_def_cfa_register 7
 222:.\lib_Network/network.c ****     return inData.ready;
 964              		.loc 2 222 0
 965 0004 024B     		ldr	r3, .L46
 966 0006 5B78     		ldrb	r3, [r3, #1]
 223:.\lib_Network/network.c **** }
 967              		.loc 2 223 0
 968 0008 181C     		mov	r0, r3
 969 000a BD46     		mov	sp, r7
 970              		@ sp needed
 971 000c 80BD     		pop	{r7, pc}
 972              	.L47:
 973 000e C046     		.align	2
 974              	.L46:
 975 0010 00000000 		.word	inData
 976              		.cfi_endproc
 977              	.LFE70:
 978              		.size	FinReady, .-FinReady
 979              		.section	.text.FinWriteInDB,"ax",%progbits
 980              		.align	2
 981              		.global	FinWriteInDB
 982              		.code	16
 983              		.thumb_func
 984              		.type	FinWriteInDB, %function
 985              	FinWriteInDB:
 986              	.LFB71:
 224:.\lib_Network/network.c **** 
 225:.\lib_Network/network.c **** 
 226:.\lib_Network/network.c **** uint32_t FinWriteInDB(void)
 227:.\lib_Network/network.c **** {
 987              		.loc 2 227 0
 988              		.cfi_startproc
 989 0000 80B5     		push	{r7, lr}
 990              		.cfi_def_cfa_offset 8
 991              		.cfi_offset 7, -8
 992              		.cfi_offset 14, -4
 993 0002 82B0     		sub	sp, sp, #8
 994              		.cfi_def_cfa_offset 16
 995 0004 00AF     		add	r7, sp, #0
 996              		.cfi_def_cfa_register 7
 228:.\lib_Network/network.c ****     uint32_t result;
 229:.\lib_Network/network.c ****     
 230:.\lib_Network/network.c ****     if(outData.newSkier == NEW_SKIER_IN_TARCK)
 997              		.loc 2 230 0
 998 0006 074B     		ldr	r3, .L52
 999 0008 9B7C     		ldrb	r3, [r3, #18]
 1000 000a 012B     		cmp	r3, #1
 1001 000c 02D1     		bne	.L49
 231:.\lib_Network/network.c ****     {
 232:.\lib_Network/network.c ****         result = ERROR;
 1002              		.loc 2 232 0
ARM GAS  C:\Users\Petro\AppData\Local\Temp\cc9Scm3O.s 			page 33


 1003 000e 0023     		mov	r3, #0
 1004 0010 7B60     		str	r3, [r7, #4]
 1005 0012 01E0     		b	.L50
 1006              	.L49:
 233:.\lib_Network/network.c ****     }else
 234:.\lib_Network/network.c ****     {
 235:.\lib_Network/network.c ****         result = NO_ERROR;
 1007              		.loc 2 235 0
 1008 0014 0123     		mov	r3, #1
 1009 0016 7B60     		str	r3, [r7, #4]
 1010              	.L50:
 236:.\lib_Network/network.c ****     }
 237:.\lib_Network/network.c ****     return result;
 1011              		.loc 2 237 0
 1012 0018 7B68     		ldr	r3, [r7, #4]
 238:.\lib_Network/network.c **** }
 1013              		.loc 2 238 0
 1014 001a 181C     		mov	r0, r3
 1015 001c BD46     		mov	sp, r7
 1016 001e 02B0     		add	sp, sp, #8
 1017              		@ sp needed
 1018 0020 80BD     		pop	{r7, pc}
 1019              	.L53:
 1020 0022 C046     		.align	2
 1021              	.L52:
 1022 0024 00000000 		.word	outData
 1023              		.cfi_endproc
 1024              	.LFE71:
 1025              		.size	FinWriteInDB, .-FinWriteInDB
 1026              		.text
 1027              	.Letext0:
 1028              		.file 3 "c:\\program files (x86)\\cypress\\psoc creator\\3.3\\psoc creator\\import\\gnu\\arm\\4.9.
 1029              		.file 4 "c:\\program files (x86)\\cypress\\psoc creator\\3.3\\psoc creator\\import\\gnu\\arm\\4.9.
 1030              		.file 5 "Generated_Source\\PSoC4/cytypes.h"
 1031              		.file 6 "./lib_Network\\svt.h"
 1032              		.file 7 "./lib_Network\\network.h"
 1033              		.section	.debug_info,"",%progbits
 1034              	.Ldebug_info0:
 1035 0000 8F050000 		.4byte	0x58f
 1036 0004 0400     		.2byte	0x4
 1037 0006 00000000 		.4byte	.Ldebug_abbrev0
 1038 000a 04       		.byte	0x4
 1039 000b 01       		.uleb128 0x1
 1040 000c 99020000 		.4byte	.LASF83
 1041 0010 01       		.byte	0x1
 1042 0011 74010000 		.4byte	.LASF84
 1043 0015 5F030000 		.4byte	.LASF85
 1044 0019 00000000 		.4byte	.Ldebug_ranges0+0
 1045 001d 00000000 		.4byte	0
 1046 0021 00000000 		.4byte	.Ldebug_line0
 1047 0025 02       		.uleb128 0x2
 1048 0026 01       		.byte	0x1
 1049 0027 06       		.byte	0x6
 1050 0028 E5010000 		.4byte	.LASF0
 1051 002c 03       		.uleb128 0x3
 1052 002d 8C010000 		.4byte	.LASF3
 1053 0031 03       		.byte	0x3
ARM GAS  C:\Users\Petro\AppData\Local\Temp\cc9Scm3O.s 			page 34


 1054 0032 1D       		.byte	0x1d
 1055 0033 37000000 		.4byte	0x37
 1056 0037 02       		.uleb128 0x2
 1057 0038 01       		.byte	0x1
 1058 0039 08       		.byte	0x8
 1059 003a C3010000 		.4byte	.LASF1
 1060 003e 02       		.uleb128 0x2
 1061 003f 02       		.byte	0x2
 1062 0040 05       		.byte	0x5
 1063 0041 B9000000 		.4byte	.LASF2
 1064 0045 03       		.uleb128 0x3
 1065 0046 AE000000 		.4byte	.LASF4
 1066 004a 03       		.byte	0x3
 1067 004b 2B       		.byte	0x2b
 1068 004c 50000000 		.4byte	0x50
 1069 0050 02       		.uleb128 0x2
 1070 0051 02       		.byte	0x2
 1071 0052 07       		.byte	0x7
 1072 0053 35030000 		.4byte	.LASF5
 1073 0057 02       		.uleb128 0x2
 1074 0058 04       		.byte	0x4
 1075 0059 05       		.byte	0x5
 1076 005a 52010000 		.4byte	.LASF6
 1077 005e 03       		.uleb128 0x3
 1078 005f 7C000000 		.4byte	.LASF7
 1079 0063 03       		.byte	0x3
 1080 0064 41       		.byte	0x41
 1081 0065 69000000 		.4byte	0x69
 1082 0069 02       		.uleb128 0x2
 1083 006a 04       		.byte	0x4
 1084 006b 07       		.byte	0x7
 1085 006c 33020000 		.4byte	.LASF8
 1086 0070 02       		.uleb128 0x2
 1087 0071 08       		.byte	0x8
 1088 0072 05       		.byte	0x5
 1089 0073 2A010000 		.4byte	.LASF9
 1090 0077 03       		.uleb128 0x3
 1091 0078 54030000 		.4byte	.LASF10
 1092 007c 03       		.byte	0x3
 1093 007d 5B       		.byte	0x5b
 1094 007e 82000000 		.4byte	0x82
 1095 0082 02       		.uleb128 0x2
 1096 0083 08       		.byte	0x8
 1097 0084 07       		.byte	0x7
 1098 0085 F1010000 		.4byte	.LASF11
 1099 0089 04       		.uleb128 0x4
 1100 008a 04       		.byte	0x4
 1101 008b 05       		.byte	0x5
 1102 008c 696E7400 		.ascii	"int\000"
 1103 0090 02       		.uleb128 0x2
 1104 0091 04       		.byte	0x4
 1105 0092 07       		.byte	0x7
 1106 0093 1F020000 		.4byte	.LASF12
 1107 0097 03       		.uleb128 0x3
 1108 0098 DC000000 		.4byte	.LASF13
 1109 009c 04       		.byte	0x4
 1110 009d 15       		.byte	0x15
ARM GAS  C:\Users\Petro\AppData\Local\Temp\cc9Scm3O.s 			page 35


 1111 009e 2C000000 		.4byte	0x2c
 1112 00a2 03       		.uleb128 0x3
 1113 00a3 7F020000 		.4byte	.LASF14
 1114 00a7 04       		.byte	0x4
 1115 00a8 21       		.byte	0x21
 1116 00a9 45000000 		.4byte	0x45
 1117 00ad 03       		.uleb128 0x3
 1118 00ae 08020000 		.4byte	.LASF15
 1119 00b2 04       		.byte	0x4
 1120 00b3 2D       		.byte	0x2d
 1121 00b4 5E000000 		.4byte	0x5e
 1122 00b8 03       		.uleb128 0x3
 1123 00b9 36000000 		.4byte	.LASF16
 1124 00bd 04       		.byte	0x4
 1125 00be 39       		.byte	0x39
 1126 00bf 77000000 		.4byte	0x77
 1127 00c3 05       		.uleb128 0x5
 1128 00c4 C6030000 		.4byte	.LASF17
 1129 00c8 05       		.byte	0x5
 1130 00c9 9A01     		.2byte	0x19a
 1131 00cb 69000000 		.4byte	0x69
 1132 00cf 02       		.uleb128 0x2
 1133 00d0 04       		.byte	0x4
 1134 00d1 04       		.byte	0x4
 1135 00d2 0B010000 		.4byte	.LASF18
 1136 00d6 02       		.uleb128 0x2
 1137 00d7 08       		.byte	0x8
 1138 00d8 04       		.byte	0x4
 1139 00d9 DA030000 		.4byte	.LASF19
 1140 00dd 02       		.uleb128 0x2
 1141 00de 01       		.byte	0x1
 1142 00df 08       		.byte	0x8
 1143 00e0 7A020000 		.4byte	.LASF20
 1144 00e4 02       		.uleb128 0x2
 1145 00e5 04       		.byte	0x4
 1146 00e6 07       		.byte	0x7
 1147 00e7 58000000 		.4byte	.LASF21
 1148 00eb 06       		.uleb128 0x6
 1149 00ec 63010000 		.4byte	.LASF86
 1150 00f0 20       		.byte	0x20
 1151 00f1 06       		.byte	0x6
 1152 00f2 0E       		.byte	0xe
 1153 00f3 4C010000 		.4byte	0x14c
 1154 00f7 07       		.uleb128 0x7
 1155 00f8 53657100 		.ascii	"Seq\000"
 1156 00fc 06       		.byte	0x6
 1157 00fd 10       		.byte	0x10
 1158 00fe A2000000 		.4byte	0xa2
 1159 0102 00       		.byte	0
 1160 0103 08       		.uleb128 0x8
 1161 0104 67020000 		.4byte	.LASF22
 1162 0108 06       		.byte	0x6
 1163 0109 11       		.byte	0x11
 1164 010a 89000000 		.4byte	0x89
 1165 010e 04       		.byte	0x4
 1166 010f 08       		.uleb128 0x8
 1167 0110 48030000 		.4byte	.LASF23
ARM GAS  C:\Users\Petro\AppData\Local\Temp\cc9Scm3O.s 			page 36


 1168 0114 06       		.byte	0x6
 1169 0115 12       		.byte	0x12
 1170 0116 B8000000 		.4byte	0xb8
 1171 011a 08       		.byte	0x8
 1172 011b 08       		.uleb128 0x8
 1173 011c 4E030000 		.4byte	.LASF24
 1174 0120 06       		.byte	0x6
 1175 0121 13       		.byte	0x13
 1176 0122 A2000000 		.4byte	0xa2
 1177 0126 10       		.byte	0x10
 1178 0127 08       		.uleb128 0x8
 1179 0128 FA030000 		.4byte	.LASF25
 1180 012c 06       		.byte	0x6
 1181 012d 14       		.byte	0x14
 1182 012e 97000000 		.4byte	0x97
 1183 0132 12       		.byte	0x12
 1184 0133 08       		.uleb128 0x8
 1185 0134 B0010000 		.4byte	.LASF26
 1186 0138 06       		.byte	0x6
 1187 0139 15       		.byte	0x15
 1188 013a AD000000 		.4byte	0xad
 1189 013e 14       		.byte	0x14
 1190 013f 08       		.uleb128 0x8
 1191 0140 13040000 		.4byte	.LASF27
 1192 0144 06       		.byte	0x6
 1193 0145 16       		.byte	0x16
 1194 0146 97000000 		.4byte	0x97
 1195 014a 18       		.byte	0x18
 1196 014b 00       		.byte	0
 1197 014c 09       		.uleb128 0x9
 1198 014d 18       		.byte	0x18
 1199 014e 07       		.byte	0x7
 1200 014f 36       		.byte	0x36
 1201 0150 A9010000 		.4byte	0x1a9
 1202 0154 08       		.uleb128 0x8
 1203 0155 5E020000 		.4byte	.LASF28
 1204 0159 07       		.byte	0x7
 1205 015a 38       		.byte	0x38
 1206 015b 97000000 		.4byte	0x97
 1207 015f 00       		.byte	0
 1208 0160 08       		.uleb128 0x8
 1209 0161 93020000 		.4byte	.LASF29
 1210 0165 07       		.byte	0x7
 1211 0166 39       		.byte	0x39
 1212 0167 97000000 		.4byte	0x97
 1213 016b 01       		.byte	0x1
 1214 016c 08       		.uleb128 0x8
 1215 016d 51000000 		.4byte	.LASF30
 1216 0171 07       		.byte	0x7
 1217 0172 3A       		.byte	0x3a
 1218 0173 97000000 		.4byte	0x97
 1219 0177 02       		.byte	0x2
 1220 0178 08       		.uleb128 0x8
 1221 0179 2B040000 		.4byte	.LASF31
 1222 017d 07       		.byte	0x7
 1223 017e 3B       		.byte	0x3b
 1224 017f 97000000 		.4byte	0x97
ARM GAS  C:\Users\Petro\AppData\Local\Temp\cc9Scm3O.s 			page 37


 1225 0183 03       		.byte	0x3
 1226 0184 08       		.uleb128 0x8
 1227 0185 56020000 		.4byte	.LASF32
 1228 0189 07       		.byte	0x7
 1229 018a 3C       		.byte	0x3c
 1230 018b B8000000 		.4byte	0xb8
 1231 018f 08       		.byte	0x8
 1232 0190 08       		.uleb128 0x8
 1233 0191 A6010000 		.4byte	.LASF33
 1234 0195 07       		.byte	0x7
 1235 0196 3D       		.byte	0x3d
 1236 0197 A2000000 		.4byte	0xa2
 1237 019b 10       		.byte	0x10
 1238 019c 08       		.uleb128 0x8
 1239 019d 6F020000 		.4byte	.LASF34
 1240 01a1 07       		.byte	0x7
 1241 01a2 3E       		.byte	0x3e
 1242 01a3 97000000 		.4byte	0x97
 1243 01a7 12       		.byte	0x12
 1244 01a8 00       		.byte	0
 1245 01a9 03       		.uleb128 0x3
 1246 01aa 38010000 		.4byte	.LASF35
 1247 01ae 07       		.byte	0x7
 1248 01af 3F       		.byte	0x3f
 1249 01b0 4C010000 		.4byte	0x14c
 1250 01b4 09       		.uleb128 0x9
 1251 01b5 18       		.byte	0x18
 1252 01b6 07       		.byte	0x7
 1253 01b7 41       		.byte	0x41
 1254 01b8 F9010000 		.4byte	0x1f9
 1255 01bc 08       		.uleb128 0x8
 1256 01bd 5E020000 		.4byte	.LASF28
 1257 01c1 07       		.byte	0x7
 1258 01c2 43       		.byte	0x43
 1259 01c3 97000000 		.4byte	0x97
 1260 01c7 00       		.byte	0
 1261 01c8 08       		.uleb128 0x8
 1262 01c9 27030000 		.4byte	.LASF36
 1263 01cd 07       		.byte	0x7
 1264 01ce 44       		.byte	0x44
 1265 01cf B8000000 		.4byte	0xb8
 1266 01d3 08       		.byte	0x8
 1267 01d4 08       		.uleb128 0x8
 1268 01d5 70000000 		.4byte	.LASF37
 1269 01d9 07       		.byte	0x7
 1270 01da 45       		.byte	0x45
 1271 01db A2000000 		.4byte	0xa2
 1272 01df 10       		.byte	0x10
 1273 01e0 08       		.uleb128 0x8
 1274 01e1 0E000000 		.4byte	.LASF38
 1275 01e5 07       		.byte	0x7
 1276 01e6 46       		.byte	0x46
 1277 01e7 97000000 		.4byte	0x97
 1278 01eb 12       		.byte	0x12
 1279 01ec 08       		.uleb128 0x8
 1280 01ed 68010000 		.4byte	.LASF39
 1281 01f1 07       		.byte	0x7
ARM GAS  C:\Users\Petro\AppData\Local\Temp\cc9Scm3O.s 			page 38


 1282 01f2 47       		.byte	0x47
 1283 01f3 97000000 		.4byte	0x97
 1284 01f7 13       		.byte	0x13
 1285 01f8 00       		.byte	0
 1286 01f9 03       		.uleb128 0x3
 1287 01fa F2000000 		.4byte	.LASF40
 1288 01fe 07       		.byte	0x7
 1289 01ff 48       		.byte	0x48
 1290 0200 B4010000 		.4byte	0x1b4
 1291 0204 0A       		.uleb128 0xa
 1292 0205 C3000000 		.4byte	.LASF41
 1293 0209 01       		.byte	0x1
 1294 020a F101     		.2byte	0x1f1
 1295 020c C3000000 		.4byte	0xc3
 1296 0210 00000000 		.4byte	.LFB4
 1297 0214 30000000 		.4byte	.LFE4-.LFB4
 1298 0218 01       		.uleb128 0x1
 1299 0219 9C       		.byte	0x9c
 1300 021a 3D020000 		.4byte	0x23d
 1301 021e 0B       		.uleb128 0xb
 1302 021f B9010000 		.4byte	.LASF43
 1303 0223 01       		.byte	0x1
 1304 0224 F101     		.2byte	0x1f1
 1305 0226 C3000000 		.4byte	0xc3
 1306 022a 02       		.uleb128 0x2
 1307 022b 91       		.byte	0x91
 1308 022c 6C       		.sleb128 -20
 1309 022d 0C       		.uleb128 0xc
 1310 022e 04010000 		.4byte	.LASF44
 1311 0232 01       		.byte	0x1
 1312 0233 F301     		.2byte	0x1f3
 1313 0235 C3000000 		.4byte	0xc3
 1314 0239 02       		.uleb128 0x2
 1315 023a 91       		.byte	0x91
 1316 023b 74       		.sleb128 -12
 1317 023c 00       		.byte	0
 1318 023d 0A       		.uleb128 0xa
 1319 023e 43010000 		.4byte	.LASF42
 1320 0242 01       		.byte	0x1
 1321 0243 0B02     		.2byte	0x20b
 1322 0245 C3000000 		.4byte	0xc3
 1323 0249 00000000 		.4byte	.LFB5
 1324 024d 36000000 		.4byte	.LFE5-.LFB5
 1325 0251 01       		.uleb128 0x1
 1326 0252 9C       		.byte	0x9c
 1327 0253 76020000 		.4byte	0x276
 1328 0257 0B       		.uleb128 0xb
 1329 0258 B9010000 		.4byte	.LASF43
 1330 025c 01       		.byte	0x1
 1331 025d 0B02     		.2byte	0x20b
 1332 025f C3000000 		.4byte	0xc3
 1333 0263 02       		.uleb128 0x2
 1334 0264 91       		.byte	0x91
 1335 0265 6C       		.sleb128 -20
 1336 0266 0C       		.uleb128 0xc
 1337 0267 04010000 		.4byte	.LASF44
 1338 026b 01       		.byte	0x1
ARM GAS  C:\Users\Petro\AppData\Local\Temp\cc9Scm3O.s 			page 39


 1339 026c 0D02     		.2byte	0x20d
 1340 026e C3000000 		.4byte	0xc3
 1341 0272 02       		.uleb128 0x2
 1342 0273 91       		.byte	0x91
 1343 0274 74       		.sleb128 -12
 1344 0275 00       		.byte	0
 1345 0276 0A       		.uleb128 0xa
 1346 0277 29000000 		.4byte	.LASF45
 1347 027b 01       		.byte	0x1
 1348 027c 2402     		.2byte	0x224
 1349 027e C3000000 		.4byte	0xc3
 1350 0282 00000000 		.4byte	.LFB6
 1351 0286 36000000 		.4byte	.LFE6-.LFB6
 1352 028a 01       		.uleb128 0x1
 1353 028b 9C       		.byte	0x9c
 1354 028c AF020000 		.4byte	0x2af
 1355 0290 0B       		.uleb128 0xb
 1356 0291 B9010000 		.4byte	.LASF43
 1357 0295 01       		.byte	0x1
 1358 0296 2402     		.2byte	0x224
 1359 0298 C3000000 		.4byte	0xc3
 1360 029c 02       		.uleb128 0x2
 1361 029d 91       		.byte	0x91
 1362 029e 6C       		.sleb128 -20
 1363 029f 0C       		.uleb128 0xc
 1364 02a0 04010000 		.4byte	.LASF44
 1365 02a4 01       		.byte	0x1
 1366 02a5 2602     		.2byte	0x226
 1367 02a7 C3000000 		.4byte	0xc3
 1368 02ab 02       		.uleb128 0x2
 1369 02ac 91       		.byte	0x91
 1370 02ad 74       		.sleb128 -12
 1371 02ae 00       		.byte	0
 1372 02af 0D       		.uleb128 0xd
 1373 02b0 45020000 		.4byte	.LASF58
 1374 02b4 02       		.byte	0x2
 1375 02b5 11       		.byte	0x11
 1376 02b6 00000000 		.4byte	.LFB63
 1377 02ba 44000000 		.4byte	.LFE63-.LFB63
 1378 02be 01       		.uleb128 0x1
 1379 02bf 9C       		.byte	0x9c
 1380 02c0 0E       		.uleb128 0xe
 1381 02c1 96010000 		.4byte	.LASF54
 1382 02c5 02       		.byte	0x2
 1383 02c6 21       		.byte	0x21
 1384 02c7 00000000 		.4byte	.LFB64
 1385 02cb 10020000 		.4byte	.LFE64-.LFB64
 1386 02cf 01       		.uleb128 0x1
 1387 02d0 9C       		.byte	0x9c
 1388 02d1 76030000 		.4byte	0x376
 1389 02d5 0F       		.uleb128 0xf
 1390 02d6 49000000 		.4byte	.LASF46
 1391 02da 02       		.byte	0x2
 1392 02db 21       		.byte	0x21
 1393 02dc AD000000 		.4byte	0xad
 1394 02e0 03       		.uleb128 0x3
 1395 02e1 91       		.byte	0x91
ARM GAS  C:\Users\Petro\AppData\Local\Temp\cc9Scm3O.s 			page 40


 1396 02e2 8C7E     		.sleb128 -244
 1397 02e4 10       		.uleb128 0x10
 1398 02e5 FC000000 		.4byte	.LASF47
 1399 02e9 02       		.byte	0x2
 1400 02ea 23       		.byte	0x23
 1401 02eb AD000000 		.4byte	0xad
 1402 02ef 02       		.uleb128 0x2
 1403 02f0 91       		.byte	0x91
 1404 02f1 6C       		.sleb128 -20
 1405 02f2 11       		.uleb128 0x11
 1406 02f3 26000000 		.4byte	.LBB2
 1407 02f7 B6010000 		.4byte	.LBE2-.LBB2
 1408 02fb 10       		.uleb128 0x10
 1409 02fc D7010000 		.4byte	.LASF48
 1410 0300 02       		.byte	0x2
 1411 0301 2E       		.byte	0x2e
 1412 0302 AD000000 		.4byte	0xad
 1413 0306 02       		.uleb128 0x2
 1414 0307 91       		.byte	0x91
 1415 0308 64       		.sleb128 -28
 1416 0309 10       		.uleb128 0x10
 1417 030a F4030000 		.4byte	.LASF49
 1418 030e 02       		.byte	0x2
 1419 030f 33       		.byte	0x33
 1420 0310 89000000 		.4byte	0x89
 1421 0314 02       		.uleb128 0x2
 1422 0315 91       		.byte	0x91
 1423 0316 68       		.sleb128 -24
 1424 0317 10       		.uleb128 0x10
 1425 0318 BF030000 		.4byte	.LASF50
 1426 031c 02       		.byte	0x2
 1427 031d 5C       		.byte	0x5c
 1428 031e 76030000 		.4byte	0x376
 1429 0322 03       		.uleb128 0x3
 1430 0323 91       		.byte	0x91
 1431 0324 947E     		.sleb128 -236
 1432 0326 10       		.uleb128 0x10
 1433 0327 87000000 		.4byte	.LASF51
 1434 032b 02       		.byte	0x2
 1435 032c 61       		.byte	0x61
 1436 032d 76030000 		.4byte	0x376
 1437 0331 03       		.uleb128 0x3
 1438 0332 91       		.byte	0x91
 1439 0333 F87E     		.sleb128 -136
 1440 0335 10       		.uleb128 0x10
 1441 0336 51020000 		.4byte	.LASF52
 1442 033a 02       		.byte	0x2
 1443 033b 62       		.byte	0x62
 1444 033c AD000000 		.4byte	0xad
 1445 0340 02       		.uleb128 0x2
 1446 0341 91       		.byte	0x91
 1447 0342 5C       		.sleb128 -36
 1448 0343 11       		.uleb128 0x11
 1449 0344 48000000 		.4byte	.LBB3
 1450 0348 CA000000 		.4byte	.LBE3-.LBB3
 1451 034c 10       		.uleb128 0x10
 1452 034d 00040000 		.4byte	.LASF53
ARM GAS  C:\Users\Petro\AppData\Local\Temp\cc9Scm3O.s 			page 41


 1453 0351 02       		.byte	0x2
 1454 0352 4B       		.byte	0x4b
 1455 0353 AD000000 		.4byte	0xad
 1456 0357 02       		.uleb128 0x2
 1457 0358 91       		.byte	0x91
 1458 0359 60       		.sleb128 -32
 1459 035a 11       		.uleb128 0x11
 1460 035b E2000000 		.4byte	.LBB4
 1461 035f 30000000 		.4byte	.LBE4-.LBB4
 1462 0363 12       		.uleb128 0x12
 1463 0364 62756600 		.ascii	"buf\000"
 1464 0368 02       		.byte	0x2
 1465 0369 53       		.byte	0x53
 1466 036a 76030000 		.4byte	0x376
 1467 036e 03       		.uleb128 0x3
 1468 036f 91       		.byte	0x91
 1469 0370 F87E     		.sleb128 -136
 1470 0372 00       		.byte	0
 1471 0373 00       		.byte	0
 1472 0374 00       		.byte	0
 1473 0375 00       		.byte	0
 1474 0376 13       		.uleb128 0x13
 1475 0377 DD000000 		.4byte	0xdd
 1476 037b 86030000 		.4byte	0x386
 1477 037f 14       		.uleb128 0x14
 1478 0380 E4000000 		.4byte	0xe4
 1479 0384 63       		.byte	0x63
 1480 0385 00       		.byte	0
 1481 0386 0E       		.uleb128 0xe
 1482 0387 17000000 		.4byte	.LASF55
 1483 038b 02       		.byte	0x2
 1484 038c 77       		.byte	0x77
 1485 038d 00000000 		.4byte	.LFB65
 1486 0391 C0000000 		.4byte	.LFE65-.LFB65
 1487 0395 01       		.uleb128 0x1
 1488 0396 9C       		.byte	0x9c
 1489 0397 C3030000 		.4byte	0x3c3
 1490 039b 10       		.uleb128 0x10
 1491 039c D1000000 		.4byte	.LASF56
 1492 03a0 02       		.byte	0x2
 1493 03a1 79       		.byte	0x79
 1494 03a2 C3030000 		.4byte	0x3c3
 1495 03a6 03       		.uleb128 0x3
 1496 03a7 91       		.byte	0x91
 1497 03a8 BC7F     		.sleb128 -68
 1498 03aa 10       		.uleb128 0x10
 1499 03ab 20000000 		.4byte	.LASF57
 1500 03af 02       		.byte	0x2
 1501 03b0 7A       		.byte	0x7a
 1502 03b1 C3030000 		.4byte	0x3c3
 1503 03b5 03       		.uleb128 0x3
 1504 03b6 91       		.byte	0x91
 1505 03b7 887F     		.sleb128 -120
 1506 03b9 15       		.uleb128 0x15
 1507 03ba 6900     		.ascii	"i\000"
 1508 03bc 02       		.byte	0x2
 1509 03bd 7B       		.byte	0x7b
ARM GAS  C:\Users\Petro\AppData\Local\Temp\cc9Scm3O.s 			page 42


 1510 03be 89000000 		.4byte	0x89
 1511 03c2 00       		.byte	0
 1512 03c3 13       		.uleb128 0x13
 1513 03c4 DD000000 		.4byte	0xdd
 1514 03c8 D3030000 		.4byte	0x3d3
 1515 03cc 14       		.uleb128 0x14
 1516 03cd E4000000 		.4byte	0xe4
 1517 03d1 31       		.byte	0x31
 1518 03d2 00       		.byte	0
 1519 03d3 0D       		.uleb128 0xd
 1520 03d4 8C000000 		.4byte	.LASF59
 1521 03d8 02       		.byte	0x2
 1522 03d9 97       		.byte	0x97
 1523 03da 00000000 		.4byte	.LFB66
 1524 03de 28000000 		.4byte	.LFE66-.LFB66
 1525 03e2 01       		.uleb128 0x1
 1526 03e3 9C       		.byte	0x9c
 1527 03e4 16       		.uleb128 0x16
 1528 03e5 07040000 		.4byte	.LASF68
 1529 03e9 02       		.byte	0x2
 1530 03ea 9E       		.byte	0x9e
 1531 03eb AD000000 		.4byte	0xad
 1532 03ef 00000000 		.4byte	.LFB67
 1533 03f3 C0000000 		.4byte	.LFE67-.LFB67
 1534 03f7 01       		.uleb128 0x1
 1535 03f8 9C       		.byte	0x9c
 1536 03f9 31040000 		.4byte	0x431
 1537 03fd 10       		.uleb128 0x10
 1538 03fe 00000000 		.4byte	.LASF60
 1539 0402 02       		.byte	0x2
 1540 0403 A0       		.byte	0xa0
 1541 0404 AD000000 		.4byte	0xad
 1542 0408 02       		.uleb128 0x2
 1543 0409 91       		.byte	0x91
 1544 040a 74       		.sleb128 -12
 1545 040b 15       		.uleb128 0x15
 1546 040c 6900     		.ascii	"i\000"
 1547 040e 02       		.byte	0x2
 1548 040f A1       		.byte	0xa1
 1549 0410 89000000 		.4byte	0x89
 1550 0414 10       		.uleb128 0x10
 1551 0415 EF030000 		.4byte	.LASF61
 1552 0419 02       		.byte	0x2
 1553 041a A2       		.byte	0xa2
 1554 041b AD000000 		.4byte	0xad
 1555 041f 02       		.uleb128 0x2
 1556 0420 91       		.byte	0x91
 1557 0421 70       		.sleb128 -16
 1558 0422 10       		.uleb128 0x10
 1559 0423 61000000 		.4byte	.LASF62
 1560 0427 02       		.byte	0x2
 1561 0428 A3       		.byte	0xa3
 1562 0429 EB000000 		.4byte	0xeb
 1563 042d 02       		.uleb128 0x2
 1564 042e 91       		.byte	0x91
 1565 042f 50       		.sleb128 -48
 1566 0430 00       		.byte	0
ARM GAS  C:\Users\Petro\AppData\Local\Temp\cc9Scm3O.s 			page 43


 1567 0431 17       		.uleb128 0x17
 1568 0432 E4000000 		.4byte	.LASF66
 1569 0436 02       		.byte	0x2
 1570 0437 D0       		.byte	0xd0
 1571 0438 AD000000 		.4byte	0xad
 1572 043c 00000000 		.4byte	.LFB68
 1573 0440 14000000 		.4byte	.LFE68-.LFB68
 1574 0444 01       		.uleb128 0x1
 1575 0445 9C       		.byte	0x9c
 1576 0446 18       		.uleb128 0x18
 1577 0447 9F000000 		.4byte	.LASF63
 1578 044b 02       		.byte	0x2
 1579 044c D5       		.byte	0xd5
 1580 044d 00000000 		.4byte	.LFB69
 1581 0451 30000000 		.4byte	.LFE69-.LFB69
 1582 0455 01       		.uleb128 0x1
 1583 0456 9C       		.byte	0x9c
 1584 0457 78040000 		.4byte	0x478
 1585 045b 0F       		.uleb128 0xf
 1586 045c 11020000 		.4byte	.LASF64
 1587 0460 02       		.byte	0x2
 1588 0461 D5       		.byte	0xd5
 1589 0462 B8000000 		.4byte	0xb8
 1590 0466 02       		.uleb128 0x2
 1591 0467 91       		.byte	0x91
 1592 0468 68       		.sleb128 -24
 1593 0469 0F       		.uleb128 0xf
 1594 046a 37040000 		.4byte	.LASF65
 1595 046e 02       		.byte	0x2
 1596 046f D5       		.byte	0xd5
 1597 0470 AD000000 		.4byte	0xad
 1598 0474 02       		.uleb128 0x2
 1599 0475 91       		.byte	0x91
 1600 0476 64       		.sleb128 -28
 1601 0477 00       		.byte	0
 1602 0478 17       		.uleb128 0x17
 1603 0479 22040000 		.4byte	.LASF67
 1604 047d 02       		.byte	0x2
 1605 047e DC       		.byte	0xdc
 1606 047f AD000000 		.4byte	0xad
 1607 0483 00000000 		.4byte	.LFB70
 1608 0487 14000000 		.4byte	.LFE70-.LFB70
 1609 048b 01       		.uleb128 0x1
 1610 048c 9C       		.byte	0x9c
 1611 048d 19       		.uleb128 0x19
 1612 048e CD030000 		.4byte	.LASF69
 1613 0492 02       		.byte	0x2
 1614 0493 E2       		.byte	0xe2
 1615 0494 AD000000 		.4byte	0xad
 1616 0498 00000000 		.4byte	.LFB71
 1617 049c 28000000 		.4byte	.LFE71-.LFB71
 1618 04a0 01       		.uleb128 0x1
 1619 04a1 9C       		.byte	0x9c
 1620 04a2 B5040000 		.4byte	0x4b5
 1621 04a6 10       		.uleb128 0x10
 1622 04a7 00000000 		.4byte	.LASF60
 1623 04ab 02       		.byte	0x2
ARM GAS  C:\Users\Petro\AppData\Local\Temp\cc9Scm3O.s 			page 44


 1624 04ac E4       		.byte	0xe4
 1625 04ad AD000000 		.4byte	0xad
 1626 04b1 02       		.uleb128 0x2
 1627 04b2 91       		.byte	0x91
 1628 04b3 74       		.sleb128 -12
 1629 04b4 00       		.byte	0
 1630 04b5 10       		.uleb128 0x10
 1631 04b6 E1030000 		.4byte	.LASF70
 1632 04ba 07       		.byte	0x7
 1633 04bb 4F       		.byte	0x4f
 1634 04bc AD000000 		.4byte	0xad
 1635 04c0 05       		.uleb128 0x5
 1636 04c1 03       		.byte	0x3
 1637 04c2 00000000 		.4byte	networkStatus
 1638 04c6 10       		.uleb128 0x10
 1639 04c7 88020000 		.4byte	.LASF71
 1640 04cb 07       		.byte	0x7
 1641 04cc 51       		.byte	0x51
 1642 04cd 89000000 		.4byte	0x89
 1643 04d1 05       		.uleb128 0x5
 1644 04d2 03       		.byte	0x3
 1645 04d3 04000000 		.4byte	numAttemps
 1646 04d7 10       		.uleb128 0x10
 1647 04d8 3F000000 		.4byte	.LASF72
 1648 04dc 07       		.byte	0x7
 1649 04dd 52       		.byte	0x52
 1650 04de 89000000 		.4byte	0x89
 1651 04e2 05       		.uleb128 0x5
 1652 04e3 03       		.byte	0x3
 1653 04e4 08000000 		.4byte	noConnect
 1654 04e8 1A       		.uleb128 0x1a
 1655 04e9 1E010000 		.4byte	.LASF73
 1656 04ed 06       		.byte	0x6
 1657 04ee 4C       		.byte	0x4c
 1658 04ef 97000000 		.4byte	0x97
 1659 04f3 05       		.uleb128 0x5
 1660 04f4 03       		.byte	0x3
 1661 04f5 00000000 		.4byte	PROTO_STATE
 1662 04f9 1A       		.uleb128 0x1a
 1663 04fa D1010000 		.4byte	.LASF74
 1664 04fe 06       		.byte	0x6
 1665 04ff 4C       		.byte	0x4c
 1666 0500 97000000 		.4byte	0x97
 1667 0504 05       		.uleb128 0x5
 1668 0505 03       		.byte	0x3
 1669 0506 00000000 		.4byte	LenD1
 1670 050a 1A       		.uleb128 0x1a
 1671 050b 6A000000 		.4byte	.LASF75
 1672 050f 06       		.byte	0x6
 1673 0510 4C       		.byte	0x4c
 1674 0511 97000000 		.4byte	0x97
 1675 0515 05       		.uleb128 0x5
 1676 0516 03       		.byte	0x3
 1677 0517 00000000 		.4byte	LenD2
 1678 051b 1A       		.uleb128 0x1a
 1679 051c DF010000 		.4byte	.LASF76
 1680 0520 06       		.byte	0x6
ARM GAS  C:\Users\Petro\AppData\Local\Temp\cc9Scm3O.s 			page 45


 1681 0521 4C       		.byte	0x4c
 1682 0522 97000000 		.4byte	0x97
 1683 0526 05       		.uleb128 0x5
 1684 0527 03       		.byte	0x3
 1685 0528 00000000 		.4byte	LenD3
 1686 052c 1A       		.uleb128 0x1a
 1687 052d 07000000 		.4byte	.LASF77
 1688 0531 06       		.byte	0x6
 1689 0532 4C       		.byte	0x4c
 1690 0533 97000000 		.4byte	0x97
 1691 0537 05       		.uleb128 0x5
 1692 0538 03       		.byte	0x3
 1693 0539 00000000 		.4byte	LenSeq
 1694 053d 1A       		.uleb128 0x1a
 1695 053e 2C020000 		.4byte	.LASF78
 1696 0542 06       		.byte	0x6
 1697 0543 4C       		.byte	0x4c
 1698 0544 97000000 		.4byte	0x97
 1699 0548 05       		.uleb128 0x5
 1700 0549 03       		.byte	0x3
 1701 054a 00000000 		.4byte	LenChS
 1702 054e 1A       		.uleb128 0x1a
 1703 054f 1D040000 		.4byte	.LASF79
 1704 0553 06       		.byte	0x6
 1705 0554 4C       		.byte	0x4c
 1706 0555 97000000 		.4byte	0x97
 1707 0559 05       		.uleb128 0x5
 1708 055a 03       		.byte	0x3
 1709 055b 00000000 		.4byte	LenC
 1710 055f 1A       		.uleb128 0x1a
 1711 0560 9F010000 		.4byte	.LASF80
 1712 0564 07       		.byte	0x7
 1713 0565 4A       		.byte	0x4a
 1714 0566 A9010000 		.4byte	0x1a9
 1715 056a 05       		.uleb128 0x5
 1716 056b 03       		.byte	0x3
 1717 056c 00000000 		.4byte	inData
 1718 0570 1A       		.uleb128 0x1a
 1719 0571 5B010000 		.4byte	.LASF81
 1720 0575 07       		.byte	0x7
 1721 0576 4B       		.byte	0x4b
 1722 0577 F9010000 		.4byte	0x1f9
 1723 057b 05       		.uleb128 0x5
 1724 057c 03       		.byte	0x3
 1725 057d 00000000 		.4byte	outData
 1726 0581 1A       		.uleb128 0x1a
 1727 0582 11010000 		.4byte	.LASF82
 1728 0586 07       		.byte	0x7
 1729 0587 4D       		.byte	0x4d
 1730 0588 76030000 		.4byte	0x376
 1731 058c 05       		.uleb128 0x5
 1732 058d 03       		.byte	0x3
 1733 058e 00000000 		.4byte	previousData
 1734 0592 00       		.byte	0
 1735              		.section	.debug_abbrev,"",%progbits
 1736              	.Ldebug_abbrev0:
 1737 0000 01       		.uleb128 0x1
ARM GAS  C:\Users\Petro\AppData\Local\Temp\cc9Scm3O.s 			page 46


 1738 0001 11       		.uleb128 0x11
 1739 0002 01       		.byte	0x1
 1740 0003 25       		.uleb128 0x25
 1741 0004 0E       		.uleb128 0xe
 1742 0005 13       		.uleb128 0x13
 1743 0006 0B       		.uleb128 0xb
 1744 0007 03       		.uleb128 0x3
 1745 0008 0E       		.uleb128 0xe
 1746 0009 1B       		.uleb128 0x1b
 1747 000a 0E       		.uleb128 0xe
 1748 000b 55       		.uleb128 0x55
 1749 000c 17       		.uleb128 0x17
 1750 000d 11       		.uleb128 0x11
 1751 000e 01       		.uleb128 0x1
 1752 000f 10       		.uleb128 0x10
 1753 0010 17       		.uleb128 0x17
 1754 0011 00       		.byte	0
 1755 0012 00       		.byte	0
 1756 0013 02       		.uleb128 0x2
 1757 0014 24       		.uleb128 0x24
 1758 0015 00       		.byte	0
 1759 0016 0B       		.uleb128 0xb
 1760 0017 0B       		.uleb128 0xb
 1761 0018 3E       		.uleb128 0x3e
 1762 0019 0B       		.uleb128 0xb
 1763 001a 03       		.uleb128 0x3
 1764 001b 0E       		.uleb128 0xe
 1765 001c 00       		.byte	0
 1766 001d 00       		.byte	0
 1767 001e 03       		.uleb128 0x3
 1768 001f 16       		.uleb128 0x16
 1769 0020 00       		.byte	0
 1770 0021 03       		.uleb128 0x3
 1771 0022 0E       		.uleb128 0xe
 1772 0023 3A       		.uleb128 0x3a
 1773 0024 0B       		.uleb128 0xb
 1774 0025 3B       		.uleb128 0x3b
 1775 0026 0B       		.uleb128 0xb
 1776 0027 49       		.uleb128 0x49
 1777 0028 13       		.uleb128 0x13
 1778 0029 00       		.byte	0
 1779 002a 00       		.byte	0
 1780 002b 04       		.uleb128 0x4
 1781 002c 24       		.uleb128 0x24
 1782 002d 00       		.byte	0
 1783 002e 0B       		.uleb128 0xb
 1784 002f 0B       		.uleb128 0xb
 1785 0030 3E       		.uleb128 0x3e
 1786 0031 0B       		.uleb128 0xb
 1787 0032 03       		.uleb128 0x3
 1788 0033 08       		.uleb128 0x8
 1789 0034 00       		.byte	0
 1790 0035 00       		.byte	0
 1791 0036 05       		.uleb128 0x5
 1792 0037 16       		.uleb128 0x16
 1793 0038 00       		.byte	0
 1794 0039 03       		.uleb128 0x3
ARM GAS  C:\Users\Petro\AppData\Local\Temp\cc9Scm3O.s 			page 47


 1795 003a 0E       		.uleb128 0xe
 1796 003b 3A       		.uleb128 0x3a
 1797 003c 0B       		.uleb128 0xb
 1798 003d 3B       		.uleb128 0x3b
 1799 003e 05       		.uleb128 0x5
 1800 003f 49       		.uleb128 0x49
 1801 0040 13       		.uleb128 0x13
 1802 0041 00       		.byte	0
 1803 0042 00       		.byte	0
 1804 0043 06       		.uleb128 0x6
 1805 0044 13       		.uleb128 0x13
 1806 0045 01       		.byte	0x1
 1807 0046 03       		.uleb128 0x3
 1808 0047 0E       		.uleb128 0xe
 1809 0048 0B       		.uleb128 0xb
 1810 0049 0B       		.uleb128 0xb
 1811 004a 3A       		.uleb128 0x3a
 1812 004b 0B       		.uleb128 0xb
 1813 004c 3B       		.uleb128 0x3b
 1814 004d 0B       		.uleb128 0xb
 1815 004e 01       		.uleb128 0x1
 1816 004f 13       		.uleb128 0x13
 1817 0050 00       		.byte	0
 1818 0051 00       		.byte	0
 1819 0052 07       		.uleb128 0x7
 1820 0053 0D       		.uleb128 0xd
 1821 0054 00       		.byte	0
 1822 0055 03       		.uleb128 0x3
 1823 0056 08       		.uleb128 0x8
 1824 0057 3A       		.uleb128 0x3a
 1825 0058 0B       		.uleb128 0xb
 1826 0059 3B       		.uleb128 0x3b
 1827 005a 0B       		.uleb128 0xb
 1828 005b 49       		.uleb128 0x49
 1829 005c 13       		.uleb128 0x13
 1830 005d 38       		.uleb128 0x38
 1831 005e 0B       		.uleb128 0xb
 1832 005f 00       		.byte	0
 1833 0060 00       		.byte	0
 1834 0061 08       		.uleb128 0x8
 1835 0062 0D       		.uleb128 0xd
 1836 0063 00       		.byte	0
 1837 0064 03       		.uleb128 0x3
 1838 0065 0E       		.uleb128 0xe
 1839 0066 3A       		.uleb128 0x3a
 1840 0067 0B       		.uleb128 0xb
 1841 0068 3B       		.uleb128 0x3b
 1842 0069 0B       		.uleb128 0xb
 1843 006a 49       		.uleb128 0x49
 1844 006b 13       		.uleb128 0x13
 1845 006c 38       		.uleb128 0x38
 1846 006d 0B       		.uleb128 0xb
 1847 006e 00       		.byte	0
 1848 006f 00       		.byte	0
 1849 0070 09       		.uleb128 0x9
 1850 0071 13       		.uleb128 0x13
 1851 0072 01       		.byte	0x1
ARM GAS  C:\Users\Petro\AppData\Local\Temp\cc9Scm3O.s 			page 48


 1852 0073 0B       		.uleb128 0xb
 1853 0074 0B       		.uleb128 0xb
 1854 0075 3A       		.uleb128 0x3a
 1855 0076 0B       		.uleb128 0xb
 1856 0077 3B       		.uleb128 0x3b
 1857 0078 0B       		.uleb128 0xb
 1858 0079 01       		.uleb128 0x1
 1859 007a 13       		.uleb128 0x13
 1860 007b 00       		.byte	0
 1861 007c 00       		.byte	0
 1862 007d 0A       		.uleb128 0xa
 1863 007e 2E       		.uleb128 0x2e
 1864 007f 01       		.byte	0x1
 1865 0080 03       		.uleb128 0x3
 1866 0081 0E       		.uleb128 0xe
 1867 0082 3A       		.uleb128 0x3a
 1868 0083 0B       		.uleb128 0xb
 1869 0084 3B       		.uleb128 0x3b
 1870 0085 05       		.uleb128 0x5
 1871 0086 27       		.uleb128 0x27
 1872 0087 19       		.uleb128 0x19
 1873 0088 49       		.uleb128 0x49
 1874 0089 13       		.uleb128 0x13
 1875 008a 11       		.uleb128 0x11
 1876 008b 01       		.uleb128 0x1
 1877 008c 12       		.uleb128 0x12
 1878 008d 06       		.uleb128 0x6
 1879 008e 40       		.uleb128 0x40
 1880 008f 18       		.uleb128 0x18
 1881 0090 9742     		.uleb128 0x2117
 1882 0092 19       		.uleb128 0x19
 1883 0093 01       		.uleb128 0x1
 1884 0094 13       		.uleb128 0x13
 1885 0095 00       		.byte	0
 1886 0096 00       		.byte	0
 1887 0097 0B       		.uleb128 0xb
 1888 0098 05       		.uleb128 0x5
 1889 0099 00       		.byte	0
 1890 009a 03       		.uleb128 0x3
 1891 009b 0E       		.uleb128 0xe
 1892 009c 3A       		.uleb128 0x3a
 1893 009d 0B       		.uleb128 0xb
 1894 009e 3B       		.uleb128 0x3b
 1895 009f 05       		.uleb128 0x5
 1896 00a0 49       		.uleb128 0x49
 1897 00a1 13       		.uleb128 0x13
 1898 00a2 02       		.uleb128 0x2
 1899 00a3 18       		.uleb128 0x18
 1900 00a4 00       		.byte	0
 1901 00a5 00       		.byte	0
 1902 00a6 0C       		.uleb128 0xc
 1903 00a7 34       		.uleb128 0x34
 1904 00a8 00       		.byte	0
 1905 00a9 03       		.uleb128 0x3
 1906 00aa 0E       		.uleb128 0xe
 1907 00ab 3A       		.uleb128 0x3a
 1908 00ac 0B       		.uleb128 0xb
ARM GAS  C:\Users\Petro\AppData\Local\Temp\cc9Scm3O.s 			page 49


 1909 00ad 3B       		.uleb128 0x3b
 1910 00ae 05       		.uleb128 0x5
 1911 00af 49       		.uleb128 0x49
 1912 00b0 13       		.uleb128 0x13
 1913 00b1 02       		.uleb128 0x2
 1914 00b2 18       		.uleb128 0x18
 1915 00b3 00       		.byte	0
 1916 00b4 00       		.byte	0
 1917 00b5 0D       		.uleb128 0xd
 1918 00b6 2E       		.uleb128 0x2e
 1919 00b7 00       		.byte	0
 1920 00b8 3F       		.uleb128 0x3f
 1921 00b9 19       		.uleb128 0x19
 1922 00ba 03       		.uleb128 0x3
 1923 00bb 0E       		.uleb128 0xe
 1924 00bc 3A       		.uleb128 0x3a
 1925 00bd 0B       		.uleb128 0xb
 1926 00be 3B       		.uleb128 0x3b
 1927 00bf 0B       		.uleb128 0xb
 1928 00c0 27       		.uleb128 0x27
 1929 00c1 19       		.uleb128 0x19
 1930 00c2 11       		.uleb128 0x11
 1931 00c3 01       		.uleb128 0x1
 1932 00c4 12       		.uleb128 0x12
 1933 00c5 06       		.uleb128 0x6
 1934 00c6 40       		.uleb128 0x40
 1935 00c7 18       		.uleb128 0x18
 1936 00c8 9642     		.uleb128 0x2116
 1937 00ca 19       		.uleb128 0x19
 1938 00cb 00       		.byte	0
 1939 00cc 00       		.byte	0
 1940 00cd 0E       		.uleb128 0xe
 1941 00ce 2E       		.uleb128 0x2e
 1942 00cf 01       		.byte	0x1
 1943 00d0 3F       		.uleb128 0x3f
 1944 00d1 19       		.uleb128 0x19
 1945 00d2 03       		.uleb128 0x3
 1946 00d3 0E       		.uleb128 0xe
 1947 00d4 3A       		.uleb128 0x3a
 1948 00d5 0B       		.uleb128 0xb
 1949 00d6 3B       		.uleb128 0x3b
 1950 00d7 0B       		.uleb128 0xb
 1951 00d8 27       		.uleb128 0x27
 1952 00d9 19       		.uleb128 0x19
 1953 00da 11       		.uleb128 0x11
 1954 00db 01       		.uleb128 0x1
 1955 00dc 12       		.uleb128 0x12
 1956 00dd 06       		.uleb128 0x6
 1957 00de 40       		.uleb128 0x40
 1958 00df 18       		.uleb128 0x18
 1959 00e0 9642     		.uleb128 0x2116
 1960 00e2 19       		.uleb128 0x19
 1961 00e3 01       		.uleb128 0x1
 1962 00e4 13       		.uleb128 0x13
 1963 00e5 00       		.byte	0
 1964 00e6 00       		.byte	0
 1965 00e7 0F       		.uleb128 0xf
ARM GAS  C:\Users\Petro\AppData\Local\Temp\cc9Scm3O.s 			page 50


 1966 00e8 05       		.uleb128 0x5
 1967 00e9 00       		.byte	0
 1968 00ea 03       		.uleb128 0x3
 1969 00eb 0E       		.uleb128 0xe
 1970 00ec 3A       		.uleb128 0x3a
 1971 00ed 0B       		.uleb128 0xb
 1972 00ee 3B       		.uleb128 0x3b
 1973 00ef 0B       		.uleb128 0xb
 1974 00f0 49       		.uleb128 0x49
 1975 00f1 13       		.uleb128 0x13
 1976 00f2 02       		.uleb128 0x2
 1977 00f3 18       		.uleb128 0x18
 1978 00f4 00       		.byte	0
 1979 00f5 00       		.byte	0
 1980 00f6 10       		.uleb128 0x10
 1981 00f7 34       		.uleb128 0x34
 1982 00f8 00       		.byte	0
 1983 00f9 03       		.uleb128 0x3
 1984 00fa 0E       		.uleb128 0xe
 1985 00fb 3A       		.uleb128 0x3a
 1986 00fc 0B       		.uleb128 0xb
 1987 00fd 3B       		.uleb128 0x3b
 1988 00fe 0B       		.uleb128 0xb
 1989 00ff 49       		.uleb128 0x49
 1990 0100 13       		.uleb128 0x13
 1991 0101 02       		.uleb128 0x2
 1992 0102 18       		.uleb128 0x18
 1993 0103 00       		.byte	0
 1994 0104 00       		.byte	0
 1995 0105 11       		.uleb128 0x11
 1996 0106 0B       		.uleb128 0xb
 1997 0107 01       		.byte	0x1
 1998 0108 11       		.uleb128 0x11
 1999 0109 01       		.uleb128 0x1
 2000 010a 12       		.uleb128 0x12
 2001 010b 06       		.uleb128 0x6
 2002 010c 00       		.byte	0
 2003 010d 00       		.byte	0
 2004 010e 12       		.uleb128 0x12
 2005 010f 34       		.uleb128 0x34
 2006 0110 00       		.byte	0
 2007 0111 03       		.uleb128 0x3
 2008 0112 08       		.uleb128 0x8
 2009 0113 3A       		.uleb128 0x3a
 2010 0114 0B       		.uleb128 0xb
 2011 0115 3B       		.uleb128 0x3b
 2012 0116 0B       		.uleb128 0xb
 2013 0117 49       		.uleb128 0x49
 2014 0118 13       		.uleb128 0x13
 2015 0119 02       		.uleb128 0x2
 2016 011a 18       		.uleb128 0x18
 2017 011b 00       		.byte	0
 2018 011c 00       		.byte	0
 2019 011d 13       		.uleb128 0x13
 2020 011e 01       		.uleb128 0x1
 2021 011f 01       		.byte	0x1
 2022 0120 49       		.uleb128 0x49
ARM GAS  C:\Users\Petro\AppData\Local\Temp\cc9Scm3O.s 			page 51


 2023 0121 13       		.uleb128 0x13
 2024 0122 01       		.uleb128 0x1
 2025 0123 13       		.uleb128 0x13
 2026 0124 00       		.byte	0
 2027 0125 00       		.byte	0
 2028 0126 14       		.uleb128 0x14
 2029 0127 21       		.uleb128 0x21
 2030 0128 00       		.byte	0
 2031 0129 49       		.uleb128 0x49
 2032 012a 13       		.uleb128 0x13
 2033 012b 2F       		.uleb128 0x2f
 2034 012c 0B       		.uleb128 0xb
 2035 012d 00       		.byte	0
 2036 012e 00       		.byte	0
 2037 012f 15       		.uleb128 0x15
 2038 0130 34       		.uleb128 0x34
 2039 0131 00       		.byte	0
 2040 0132 03       		.uleb128 0x3
 2041 0133 08       		.uleb128 0x8
 2042 0134 3A       		.uleb128 0x3a
 2043 0135 0B       		.uleb128 0xb
 2044 0136 3B       		.uleb128 0x3b
 2045 0137 0B       		.uleb128 0xb
 2046 0138 49       		.uleb128 0x49
 2047 0139 13       		.uleb128 0x13
 2048 013a 00       		.byte	0
 2049 013b 00       		.byte	0
 2050 013c 16       		.uleb128 0x16
 2051 013d 2E       		.uleb128 0x2e
 2052 013e 01       		.byte	0x1
 2053 013f 3F       		.uleb128 0x3f
 2054 0140 19       		.uleb128 0x19
 2055 0141 03       		.uleb128 0x3
 2056 0142 0E       		.uleb128 0xe
 2057 0143 3A       		.uleb128 0x3a
 2058 0144 0B       		.uleb128 0xb
 2059 0145 3B       		.uleb128 0x3b
 2060 0146 0B       		.uleb128 0xb
 2061 0147 27       		.uleb128 0x27
 2062 0148 19       		.uleb128 0x19
 2063 0149 49       		.uleb128 0x49
 2064 014a 13       		.uleb128 0x13
 2065 014b 11       		.uleb128 0x11
 2066 014c 01       		.uleb128 0x1
 2067 014d 12       		.uleb128 0x12
 2068 014e 06       		.uleb128 0x6
 2069 014f 40       		.uleb128 0x40
 2070 0150 18       		.uleb128 0x18
 2071 0151 9642     		.uleb128 0x2116
 2072 0153 19       		.uleb128 0x19
 2073 0154 01       		.uleb128 0x1
 2074 0155 13       		.uleb128 0x13
 2075 0156 00       		.byte	0
 2076 0157 00       		.byte	0
 2077 0158 17       		.uleb128 0x17
 2078 0159 2E       		.uleb128 0x2e
 2079 015a 00       		.byte	0
ARM GAS  C:\Users\Petro\AppData\Local\Temp\cc9Scm3O.s 			page 52


 2080 015b 3F       		.uleb128 0x3f
 2081 015c 19       		.uleb128 0x19
 2082 015d 03       		.uleb128 0x3
 2083 015e 0E       		.uleb128 0xe
 2084 015f 3A       		.uleb128 0x3a
 2085 0160 0B       		.uleb128 0xb
 2086 0161 3B       		.uleb128 0x3b
 2087 0162 0B       		.uleb128 0xb
 2088 0163 27       		.uleb128 0x27
 2089 0164 19       		.uleb128 0x19
 2090 0165 49       		.uleb128 0x49
 2091 0166 13       		.uleb128 0x13
 2092 0167 11       		.uleb128 0x11
 2093 0168 01       		.uleb128 0x1
 2094 0169 12       		.uleb128 0x12
 2095 016a 06       		.uleb128 0x6
 2096 016b 40       		.uleb128 0x40
 2097 016c 18       		.uleb128 0x18
 2098 016d 9742     		.uleb128 0x2117
 2099 016f 19       		.uleb128 0x19
 2100 0170 00       		.byte	0
 2101 0171 00       		.byte	0
 2102 0172 18       		.uleb128 0x18
 2103 0173 2E       		.uleb128 0x2e
 2104 0174 01       		.byte	0x1
 2105 0175 3F       		.uleb128 0x3f
 2106 0176 19       		.uleb128 0x19
 2107 0177 03       		.uleb128 0x3
 2108 0178 0E       		.uleb128 0xe
 2109 0179 3A       		.uleb128 0x3a
 2110 017a 0B       		.uleb128 0xb
 2111 017b 3B       		.uleb128 0x3b
 2112 017c 0B       		.uleb128 0xb
 2113 017d 27       		.uleb128 0x27
 2114 017e 19       		.uleb128 0x19
 2115 017f 11       		.uleb128 0x11
 2116 0180 01       		.uleb128 0x1
 2117 0181 12       		.uleb128 0x12
 2118 0182 06       		.uleb128 0x6
 2119 0183 40       		.uleb128 0x40
 2120 0184 18       		.uleb128 0x18
 2121 0185 9742     		.uleb128 0x2117
 2122 0187 19       		.uleb128 0x19
 2123 0188 01       		.uleb128 0x1
 2124 0189 13       		.uleb128 0x13
 2125 018a 00       		.byte	0
 2126 018b 00       		.byte	0
 2127 018c 19       		.uleb128 0x19
 2128 018d 2E       		.uleb128 0x2e
 2129 018e 01       		.byte	0x1
 2130 018f 3F       		.uleb128 0x3f
 2131 0190 19       		.uleb128 0x19
 2132 0191 03       		.uleb128 0x3
 2133 0192 0E       		.uleb128 0xe
 2134 0193 3A       		.uleb128 0x3a
 2135 0194 0B       		.uleb128 0xb
 2136 0195 3B       		.uleb128 0x3b
ARM GAS  C:\Users\Petro\AppData\Local\Temp\cc9Scm3O.s 			page 53


 2137 0196 0B       		.uleb128 0xb
 2138 0197 27       		.uleb128 0x27
 2139 0198 19       		.uleb128 0x19
 2140 0199 49       		.uleb128 0x49
 2141 019a 13       		.uleb128 0x13
 2142 019b 11       		.uleb128 0x11
 2143 019c 01       		.uleb128 0x1
 2144 019d 12       		.uleb128 0x12
 2145 019e 06       		.uleb128 0x6
 2146 019f 40       		.uleb128 0x40
 2147 01a0 18       		.uleb128 0x18
 2148 01a1 9742     		.uleb128 0x2117
 2149 01a3 19       		.uleb128 0x19
 2150 01a4 01       		.uleb128 0x1
 2151 01a5 13       		.uleb128 0x13
 2152 01a6 00       		.byte	0
 2153 01a7 00       		.byte	0
 2154 01a8 1A       		.uleb128 0x1a
 2155 01a9 34       		.uleb128 0x34
 2156 01aa 00       		.byte	0
 2157 01ab 03       		.uleb128 0x3
 2158 01ac 0E       		.uleb128 0xe
 2159 01ad 3A       		.uleb128 0x3a
 2160 01ae 0B       		.uleb128 0xb
 2161 01af 3B       		.uleb128 0x3b
 2162 01b0 0B       		.uleb128 0xb
 2163 01b1 49       		.uleb128 0x49
 2164 01b2 13       		.uleb128 0x13
 2165 01b3 3F       		.uleb128 0x3f
 2166 01b4 19       		.uleb128 0x19
 2167 01b5 02       		.uleb128 0x2
 2168 01b6 18       		.uleb128 0x18
 2169 01b7 00       		.byte	0
 2170 01b8 00       		.byte	0
 2171 01b9 00       		.byte	0
 2172              		.section	.debug_aranges,"",%progbits
 2173 0000 74000000 		.4byte	0x74
 2174 0004 0200     		.2byte	0x2
 2175 0006 00000000 		.4byte	.Ldebug_info0
 2176 000a 04       		.byte	0x4
 2177 000b 00       		.byte	0
 2178 000c 0000     		.2byte	0
 2179 000e 0000     		.2byte	0
 2180 0010 00000000 		.4byte	.LFB4
 2181 0014 30000000 		.4byte	.LFE4-.LFB4
 2182 0018 00000000 		.4byte	.LFB5
 2183 001c 36000000 		.4byte	.LFE5-.LFB5
 2184 0020 00000000 		.4byte	.LFB6
 2185 0024 36000000 		.4byte	.LFE6-.LFB6
 2186 0028 00000000 		.4byte	.LFB63
 2187 002c 44000000 		.4byte	.LFE63-.LFB63
 2188 0030 00000000 		.4byte	.LFB64
 2189 0034 10020000 		.4byte	.LFE64-.LFB64
 2190 0038 00000000 		.4byte	.LFB65
 2191 003c C0000000 		.4byte	.LFE65-.LFB65
 2192 0040 00000000 		.4byte	.LFB66
 2193 0044 28000000 		.4byte	.LFE66-.LFB66
ARM GAS  C:\Users\Petro\AppData\Local\Temp\cc9Scm3O.s 			page 54


 2194 0048 00000000 		.4byte	.LFB67
 2195 004c C0000000 		.4byte	.LFE67-.LFB67
 2196 0050 00000000 		.4byte	.LFB68
 2197 0054 14000000 		.4byte	.LFE68-.LFB68
 2198 0058 00000000 		.4byte	.LFB69
 2199 005c 30000000 		.4byte	.LFE69-.LFB69
 2200 0060 00000000 		.4byte	.LFB70
 2201 0064 14000000 		.4byte	.LFE70-.LFB70
 2202 0068 00000000 		.4byte	.LFB71
 2203 006c 28000000 		.4byte	.LFE71-.LFB71
 2204 0070 00000000 		.4byte	0
 2205 0074 00000000 		.4byte	0
 2206              		.section	.debug_ranges,"",%progbits
 2207              	.Ldebug_ranges0:
 2208 0000 00000000 		.4byte	.LFB4
 2209 0004 30000000 		.4byte	.LFE4
 2210 0008 00000000 		.4byte	.LFB5
 2211 000c 36000000 		.4byte	.LFE5
 2212 0010 00000000 		.4byte	.LFB6
 2213 0014 36000000 		.4byte	.LFE6
 2214 0018 00000000 		.4byte	.LFB63
 2215 001c 44000000 		.4byte	.LFE63
 2216 0020 00000000 		.4byte	.LFB64
 2217 0024 10020000 		.4byte	.LFE64
 2218 0028 00000000 		.4byte	.LFB65
 2219 002c C0000000 		.4byte	.LFE65
 2220 0030 00000000 		.4byte	.LFB66
 2221 0034 28000000 		.4byte	.LFE66
 2222 0038 00000000 		.4byte	.LFB67
 2223 003c C0000000 		.4byte	.LFE67
 2224 0040 00000000 		.4byte	.LFB68
 2225 0044 14000000 		.4byte	.LFE68
 2226 0048 00000000 		.4byte	.LFB69
 2227 004c 30000000 		.4byte	.LFE69
 2228 0050 00000000 		.4byte	.LFB70
 2229 0054 14000000 		.4byte	.LFE70
 2230 0058 00000000 		.4byte	.LFB71
 2231 005c 28000000 		.4byte	.LFE71
 2232 0060 00000000 		.4byte	0
 2233 0064 00000000 		.4byte	0
 2234              		.section	.debug_line,"",%progbits
 2235              	.Ldebug_line0:
 2236 0000 D8020000 		.section	.debug_str,"MS",%progbits,1
 2236      02006901 
 2236      00000201 
 2236      FB0E0D00 
 2236      01010101 
 2237              	.LASF60:
 2238 0000 72657375 		.ascii	"result\000"
 2238      6C7400
 2239              	.LASF77:
 2240 0007 4C656E53 		.ascii	"LenSeq\000"
 2240      657100
 2241              	.LASF38:
 2242 000e 6E657753 		.ascii	"newSkier\000"
 2242      6B696572 
 2242      00
ARM GAS  C:\Users\Petro\AppData\Local\Temp\cc9Scm3O.s 			page 55


 2243              	.LASF55:
 2244 0017 53656E64 		.ascii	"SendData\000"
 2244      44617461 
 2244      00
 2245              	.LASF57:
 2246 0020 73656E64 		.ascii	"sendData\000"
 2246      44617461 
 2246      00
 2247              	.LASF45:
 2248 0029 5254435F 		.ascii	"RTC_GetHours\000"
 2248      47657448 
 2248      6F757273 
 2248      00
 2249              	.LASF16:
 2250 0036 75696E74 		.ascii	"uint64_t\000"
 2250      36345F74 
 2250      00
 2251              	.LASF72:
 2252 003f 6E6F436F 		.ascii	"noConnect\000"
 2252      6E6E6563 
 2252      7400
 2253              	.LASF46:
 2254 0049 64656C61 		.ascii	"delayMs\000"
 2254      794D7300 
 2255              	.LASF30:
 2256 0051 7265626F 		.ascii	"reboot\000"
 2256      6F7400
 2257              	.LASF21:
 2258 0058 73697A65 		.ascii	"sizetype\000"
 2258      74797065 
 2258      00
 2259              	.LASF62:
 2260 0061 72656376 		.ascii	"recvData\000"
 2260      44617461 
 2260      00
 2261              	.LASF75:
 2262 006a 4C656E44 		.ascii	"LenD2\000"
 2262      3200
 2263              	.LASF37:
 2264 0070 73746172 		.ascii	"startMsTime\000"
 2264      744D7354 
 2264      696D6500 
 2265              	.LASF7:
 2266 007c 5F5F7569 		.ascii	"__uint32_t\000"
 2266      6E743332 
 2266      5F7400
 2267              	.LASF51:
 2268 0087 62756666 		.ascii	"buff\000"
 2268      00
 2269              	.LASF59:
 2270 008c 53656E64 		.ascii	"SendPreviousPacket\000"
 2270      50726576 
 2270      696F7573 
 2270      5061636B 
 2270      657400
 2271              	.LASF63:
 2272 009f 53656E64 		.ascii	"SendSkierStart\000"
ARM GAS  C:\Users\Petro\AppData\Local\Temp\cc9Scm3O.s 			page 56


 2272      536B6965 
 2272      72537461 
 2272      727400
 2273              	.LASF4:
 2274 00ae 5F5F7569 		.ascii	"__uint16_t\000"
 2274      6E743136 
 2274      5F7400
 2275              	.LASF2:
 2276 00b9 73686F72 		.ascii	"short int\000"
 2276      7420696E 
 2276      7400
 2277              	.LASF41:
 2278 00c3 5254435F 		.ascii	"RTC_GetSecond\000"
 2278      47657453 
 2278      65636F6E 
 2278      6400
 2279              	.LASF56:
 2280 00d1 73656E64 		.ascii	"sendBuffer\000"
 2280      42756666 
 2280      657200
 2281              	.LASF13:
 2282 00dc 75696E74 		.ascii	"uint8_t\000"
 2282      385F7400 
 2283              	.LASF66:
 2284 00e4 4E657477 		.ascii	"NetworkStatus\000"
 2284      6F726B53 
 2284      74617475 
 2284      7300
 2285              	.LASF40:
 2286 00f2 53746172 		.ascii	"StartData\000"
 2286      74446174 
 2286      6100
 2287              	.LASF47:
 2288 00fc 72756E54 		.ascii	"runTime\000"
 2288      696D6500 
 2289              	.LASF44:
 2290 0104 72657456 		.ascii	"retVal\000"
 2290      616C00
 2291              	.LASF18:
 2292 010b 666C6F61 		.ascii	"float\000"
 2292      7400
 2293              	.LASF82:
 2294 0111 70726576 		.ascii	"previousData\000"
 2294      696F7573 
 2294      44617461 
 2294      00
 2295              	.LASF73:
 2296 011e 50524F54 		.ascii	"PROTO_STATE\000"
 2296      4F5F5354 
 2296      41544500 
 2297              	.LASF9:
 2298 012a 6C6F6E67 		.ascii	"long long int\000"
 2298      206C6F6E 
 2298      6720696E 
 2298      7400
 2299              	.LASF35:
 2300 0138 46696E69 		.ascii	"FinishData\000"
ARM GAS  C:\Users\Petro\AppData\Local\Temp\cc9Scm3O.s 			page 57


 2300      73684461 
 2300      746100
 2301              	.LASF42:
 2302 0143 5254435F 		.ascii	"RTC_GetMinutes\000"
 2302      4765744D 
 2302      696E7574 
 2302      657300
 2303              	.LASF6:
 2304 0152 6C6F6E67 		.ascii	"long int\000"
 2304      20696E74 
 2304      00
 2305              	.LASF81:
 2306 015b 6F757444 		.ascii	"outData\000"
 2306      61746100 
 2307              	.LASF86:
 2308 0163 52657370 		.ascii	"Resp\000"
 2308      00
 2309              	.LASF39:
 2310 0168 77726974 		.ascii	"writeStatus\000"
 2310      65537461 
 2310      74757300 
 2311              	.LASF84:
 2312 0174 2E5C6C69 		.ascii	".\\lib_Network\\network.c\000"
 2312      625F4E65 
 2312      74776F72 
 2312      6B5C6E65 
 2312      74776F72 
 2313              	.LASF3:
 2314 018c 5F5F7569 		.ascii	"__uint8_t\000"
 2314      6E74385F 
 2314      7400
 2315              	.LASF54:
 2316 0196 41707044 		.ascii	"AppDelay\000"
 2316      656C6179 
 2316      00
 2317              	.LASF80:
 2318 019f 696E4461 		.ascii	"inData\000"
 2318      746100
 2319              	.LASF33:
 2320 01a6 746D704D 		.ascii	"tmpMsTime\000"
 2320      7354696D 
 2320      6500
 2321              	.LASF26:
 2322 01b0 43686563 		.ascii	"CheckSum\000"
 2322      6B53756D 
 2322      00
 2323              	.LASF43:
 2324 01b9 696E7075 		.ascii	"inputTime\000"
 2324      7454696D 
 2324      6500
 2325              	.LASF1:
 2326 01c3 756E7369 		.ascii	"unsigned char\000"
 2326      676E6564 
 2326      20636861 
 2326      7200
 2327              	.LASF74:
 2328 01d1 4C656E44 		.ascii	"LenD1\000"
ARM GAS  C:\Users\Petro\AppData\Local\Temp\cc9Scm3O.s 			page 58


 2328      3100
 2329              	.LASF48:
 2330 01d7 636F756E 		.ascii	"counter\000"
 2330      74657200 
 2331              	.LASF76:
 2332 01df 4C656E44 		.ascii	"LenD3\000"
 2332      3300
 2333              	.LASF0:
 2334 01e5 7369676E 		.ascii	"signed char\000"
 2334      65642063 
 2334      68617200 
 2335              	.LASF11:
 2336 01f1 6C6F6E67 		.ascii	"long long unsigned int\000"
 2336      206C6F6E 
 2336      6720756E 
 2336      7369676E 
 2336      65642069 
 2337              	.LASF15:
 2338 0208 75696E74 		.ascii	"uint32_t\000"
 2338      33325F74 
 2338      00
 2339              	.LASF64:
 2340 0211 756E6978 		.ascii	"unixTimeStart\000"
 2340      54696D65 
 2340      53746172 
 2340      7400
 2341              	.LASF12:
 2342 021f 756E7369 		.ascii	"unsigned int\000"
 2342      676E6564 
 2342      20696E74 
 2342      00
 2343              	.LASF78:
 2344 022c 4C656E43 		.ascii	"LenChS\000"
 2344      685300
 2345              	.LASF8:
 2346 0233 6C6F6E67 		.ascii	"long unsigned int\000"
 2346      20756E73 
 2346      69676E65 
 2346      6420696E 
 2346      7400
 2347              	.LASF58:
 2348 0245 496E6974 		.ascii	"InitNetwork\000"
 2348      4E657477 
 2348      6F726B00 
 2349              	.LASF52:
 2350 0251 74696D65 		.ascii	"time\000"
 2350      00
 2351              	.LASF32:
 2352 0256 746D7054 		.ascii	"tmpTime\000"
 2352      696D6500 
 2353              	.LASF28:
 2354 025e 49447061 		.ascii	"IDpacket\000"
 2354      636B6574 
 2354      00
 2355              	.LASF22:
 2356 0267 436F6D6D 		.ascii	"Command\000"
 2356      616E6400 
ARM GAS  C:\Users\Petro\AppData\Local\Temp\cc9Scm3O.s 			page 59


 2357              	.LASF34:
 2358 026f 72656164 		.ascii	"readStatus\000"
 2358      53746174 
 2358      757300
 2359              	.LASF20:
 2360 027a 63686172 		.ascii	"char\000"
 2360      00
 2361              	.LASF14:
 2362 027f 75696E74 		.ascii	"uint16_t\000"
 2362      31365F74 
 2362      00
 2363              	.LASF71:
 2364 0288 6E756D41 		.ascii	"numAttemps\000"
 2364      7474656D 
 2364      707300
 2365              	.LASF29:
 2366 0293 72656164 		.ascii	"ready\000"
 2366      7900
 2367              	.LASF83:
 2368 0299 474E5520 		.ascii	"GNU C 4.9.3 20150303 (release) [ARM/embedded-4_9-br"
 2368      4320342E 
 2368      392E3320 
 2368      32303135 
 2368      30333033 
 2369 02cc 616E6368 		.ascii	"anch revision 221220] -mcpu=cortex-m0 -mthumb -g -O"
 2369      20726576 
 2369      6973696F 
 2369      6E203232 
 2369      31323230 
 2370 02ff 30202D66 		.ascii	"0 -ffunction-sections -ffat-lto-objects\000"
 2370      66756E63 
 2370      74696F6E 
 2370      2D736563 
 2370      74696F6E 
 2371              	.LASF36:
 2372 0327 756E6978 		.ascii	"unixStartTime\000"
 2372      53746172 
 2372      7454696D 
 2372      6500
 2373              	.LASF5:
 2374 0335 73686F72 		.ascii	"short unsigned int\000"
 2374      7420756E 
 2374      7369676E 
 2374      65642069 
 2374      6E7400
 2375              	.LASF23:
 2376 0348 44617461 		.ascii	"Data1\000"
 2376      3100
 2377              	.LASF24:
 2378 034e 44617461 		.ascii	"Data2\000"
 2378      3200
 2379              	.LASF10:
 2380 0354 5F5F7569 		.ascii	"__uint64_t\000"
 2380      6E743634 
 2380      5F7400
 2381              	.LASF85:
 2382 035f 443A5C43 		.ascii	"D:\\Cypress\\system-start-finish\\vesion 2\\fw\\sta"
ARM GAS  C:\Users\Petro\AppData\Local\Temp\cc9Scm3O.s 			page 60


 2382      79707265 
 2382      73735C73 
 2382      79737465 
 2382      6D2D7374 
 2383 038d 72745C73 		.ascii	"rt\\sandbox\\v3\\Start(state machine)\\start_v0.cyd"
 2383      616E6462 
 2383      6F785C76 
 2383      335C5374 
 2383      61727428 
 2384 03bc 736E00   		.ascii	"sn\000"
 2385              	.LASF50:
 2386 03bf 62756666 		.ascii	"buffer\000"
 2386      657200
 2387              	.LASF17:
 2388 03c6 75696E74 		.ascii	"uint32\000"
 2388      333200
 2389              	.LASF69:
 2390 03cd 46696E57 		.ascii	"FinWriteInDB\000"
 2390      72697465 
 2390      496E4442 
 2390      00
 2391              	.LASF19:
 2392 03da 646F7562 		.ascii	"double\000"
 2392      6C6500
 2393              	.LASF70:
 2394 03e1 6E657477 		.ascii	"networkStatus\000"
 2394      6F726B53 
 2394      74617475 
 2394      7300
 2395              	.LASF61:
 2396 03ef 62797465 		.ascii	"byte\000"
 2396      00
 2397              	.LASF49:
 2398 03f4 636F756E 		.ascii	"count\000"
 2398      7400
 2399              	.LASF25:
 2400 03fa 44617461 		.ascii	"Data3\000"
 2400      3300
 2401              	.LASF53:
 2402 0400 70657269 		.ascii	"period\000"
 2402      6F6400
 2403              	.LASF68:
 2404 0407 52656365 		.ascii	"ReceiveData\000"
 2404      69766544 
 2404      61746100 
 2405              	.LASF27:
 2406 0413 456E6450 		.ascii	"EndPacket\000"
 2406      61636B65 
 2406      7400
 2407              	.LASF79:
 2408 041d 4C656E43 		.ascii	"LenC\000"
 2408      00
 2409              	.LASF67:
 2410 0422 46696E52 		.ascii	"FinReady\000"
 2410      65616479 
 2410      00
 2411              	.LASF31:
ARM GAS  C:\Users\Petro\AppData\Local\Temp\cc9Scm3O.s 			page 61


 2412 042b 636F756E 		.ascii	"countSkiers\000"
 2412      74536B69 
 2412      65727300 
 2413              	.LASF65:
 2414 0437 72656365 		.ascii	"recentMs\000"
 2414      6E744D73 
 2414      00
 2415              		.ident	"GCC: (GNU Tools for ARM Embedded Processors) 4.9.3 20150303 (release) [ARM/embedded-4_9-br
