ARM GAS  C:\Users\Petro\AppData\Local\Temp\cchgZgX0.s 			page 1


   1              		.cpu cortex-m0
   2              		.fpu softvfp
   3              		.eabi_attribute 20, 1
   4              		.eabi_attribute 21, 1
   5              		.eabi_attribute 23, 3
   6              		.eabi_attribute 24, 1
   7              		.eabi_attribute 25, 1
   8              		.eabi_attribute 26, 1
   9              		.eabi_attribute 30, 6
  10              		.eabi_attribute 34, 0
  11              		.eabi_attribute 18, 4
  12              		.code	16
  13              		.file	"network.c"
  14              		.text
  15              	.Ltext0:
  16              		.cfi_sections	.debug_frame
  17              		.comm	inData,24,8
  18              		.comm	outData,24,8
  19              		.comm	previousData,100,4
  20              		.bss
  21              		.align	2
  22              	networkStatus:
  23 0000 00000000 		.space	4
  24              		.align	2
  25              	noConnect:
  26 0004 00000000 		.space	4
  27              		.align	2
  28              	finNoReady:
  29 0008 00000000 		.space	4
  30              		.comm	unixTime,16,4
  31              		.comm	millisTime,8,4
  32              		.section	.text.InitNetwork,"ax",%progbits
  33              		.align	2
  34              		.global	InitNetwork
  35              		.code	16
  36              		.thumb_func
  37              		.type	InitNetwork, %function
  38              	InitNetwork:
  39              	.LFB28:
  40              		.file 1 ".\\lib_Network\\network.c"
   1:.\lib_Network/network.c **** 
   2:.\lib_Network/network.c **** #include "lib_Network\network.h"
   3:.\lib_Network/network.c **** #include <UART_XB.h>
   4:.\lib_Network/network.c **** #include <UART_XB_SPI_UART.h>
   5:.\lib_Network/network.c **** 
   6:.\lib_Network/network.c **** #ifdef DEBUG_INFO
   7:.\lib_Network/network.c ****     #include "SW_UART_DEBUG.h"
   8:.\lib_Network/network.c **** #endif
   9:.\lib_Network/network.c **** #ifdef DEBUG_TIME
  10:.\lib_Network/network.c ****     #include <debug.h>
  11:.\lib_Network/network.c **** #endif
  12:.\lib_Network/network.c **** 
  13:.\lib_Network/network.c **** #include <stdio.h>
  14:.\lib_Network/network.c **** #include "lib_Network\svt.h"
  15:.\lib_Network/network.c **** #include "lib_RTC\RTC_WDT.h"
  16:.\lib_Network/network.c **** #include "lib_Network\ntp.h"
  17:.\lib_Network/network.c **** #include "lib_Display\display.h"
ARM GAS  C:\Users\Petro\AppData\Local\Temp\cchgZgX0.s 			page 2


  18:.\lib_Network/network.c **** 
  19:.\lib_Network/network.c **** #define MIN_DELAYMS 150
  20:.\lib_Network/network.c **** 
  21:.\lib_Network/network.c **** /*size buffer*/
  22:.\lib_Network/network.c **** #define DATA_BUFFER   50
  23:.\lib_Network/network.c **** #define RX_BUFFER   
  24:.\lib_Network/network.c **** 
  25:.\lib_Network/network.c **** #define ADRESS_READY        8
  26:.\lib_Network/network.c **** #define ADRESS_REBOOT       9
  27:.\lib_Network/network.c **** #define ADRESS_COUNT_SK     10
  28:.\lib_Network/network.c **** 
  29:.\lib_Network/network.c **** #define MASK_HIGH   0xFFFFFFFF00000000
  30:.\lib_Network/network.c **** #define MASK_LOW    0x00000000FFFFFFFF
  31:.\lib_Network/network.c **** #define DATA_SHIFT  32
  32:.\lib_Network/network.c **** 
  33:.\lib_Network/network.c **** #define TIMEOUT_FIN_READY   3
  34:.\lib_Network/network.c **** 
  35:.\lib_Network/network.c **** /*for NTP protocol*/
  36:.\lib_Network/network.c **** #define NUM_TRY_SYNC        14
  37:.\lib_Network/network.c **** #define NUM_CONNECT_ATTEMPS 1000
  38:.\lib_Network/network.c **** 
  39:.\lib_Network/network.c **** #define SAVE_TIME           1
  40:.\lib_Network/network.c **** #define NETWORK_TIMEOUT     50
  41:.\lib_Network/network.c **** #define NEW_SKIER_IN_TARCK   1
  42:.\lib_Network/network.c **** 
  43:.\lib_Network/network.c **** 
  44:.\lib_Network/network.c **** /*segment time*/
  45:.\lib_Network/network.c **** #define T1                  0
  46:.\lib_Network/network.c **** #define T2                  1
  47:.\lib_Network/network.c **** #define T3                  0
  48:.\lib_Network/network.c **** #define T4                  1
  49:.\lib_Network/network.c **** 
  50:.\lib_Network/network.c **** #define CORRECTION_TIME     0
  51:.\lib_Network/network.c **** 
  52:.\lib_Network/network.c **** typedef struct
  53:.\lib_Network/network.c **** {
  54:.\lib_Network/network.c ****     uint8_t IDpacket;
  55:.\lib_Network/network.c ****     uint8_t ready;
  56:.\lib_Network/network.c ****     uint8_t reboot;
  57:.\lib_Network/network.c ****     uint8_t countSkiers;
  58:.\lib_Network/network.c ****     uint64_t tmpTime;
  59:.\lib_Network/network.c ****     uint16_t tmpMsTime;
  60:.\lib_Network/network.c ****     uint8_t readStatus;
  61:.\lib_Network/network.c **** }FinishData;
  62:.\lib_Network/network.c **** 
  63:.\lib_Network/network.c **** typedef struct
  64:.\lib_Network/network.c **** {
  65:.\lib_Network/network.c ****     uint8_t IDpacket;
  66:.\lib_Network/network.c ****     uint64_t unixStartTime;
  67:.\lib_Network/network.c ****     uint16_t startMsTime;
  68:.\lib_Network/network.c ****     uint8_t newSkier;
  69:.\lib_Network/network.c ****     uint8_t writeStatus;
  70:.\lib_Network/network.c ****     uint8_t reboot;     /*reboot=1, not reboot=0*/
  71:.\lib_Network/network.c **** }StartData;
  72:.\lib_Network/network.c **** 
  73:.\lib_Network/network.c **** FinishData inData;
  74:.\lib_Network/network.c **** StartData outData;
ARM GAS  C:\Users\Petro\AppData\Local\Temp\cchgZgX0.s 			page 3


  75:.\lib_Network/network.c **** 
  76:.\lib_Network/network.c **** char previousData[100];
  77:.\lib_Network/network.c **** 
  78:.\lib_Network/network.c **** static uint32_t networkStatus;
  79:.\lib_Network/network.c **** static int noConnect;
  80:.\lib_Network/network.c **** static int finNoReady;
  81:.\lib_Network/network.c **** uint32_t unixTime[4];
  82:.\lib_Network/network.c **** uint16_t millisTime[4];
  83:.\lib_Network/network.c **** 
  84:.\lib_Network/network.c **** #ifdef DEBUG_INFO
  85:.\lib_Network/network.c ****     char uartBuff[50];
  86:.\lib_Network/network.c **** #endif
  87:.\lib_Network/network.c **** 
  88:.\lib_Network/network.c **** uint32_t ReceiveRealTime(void);
  89:.\lib_Network/network.c **** void NTPsendTime(uint32_t unixTime2,uint32_t unixTime3,uint16_t millis2,uint16_t millis3, uint16_t 
  90:.\lib_Network/network.c **** uint32_t NTPreceiveTime(uint32_t *unixTime2,uint16_t *millis2, uint16_t *IDreceive, uint32_t saveTi
  91:.\lib_Network/network.c **** 
  92:.\lib_Network/network.c **** /*******************************************************************************
  93:.\lib_Network/network.c **** * Function Name: InitNetwork
  94:.\lib_Network/network.c **** ********************************************************************************
  95:.\lib_Network/network.c **** *
  96:.\lib_Network/network.c **** * Summary:
  97:.\lib_Network/network.c **** *   initialization UART for XBee module
  98:.\lib_Network/network.c **** *
  99:.\lib_Network/network.c **** *******************************************************************************/
 100:.\lib_Network/network.c **** void InitNetwork(void)
 101:.\lib_Network/network.c **** {
  41              		.loc 1 101 0
  42              		.cfi_startproc
  43 0000 80B5     		push	{r7, lr}
  44              		.cfi_def_cfa_offset 8
  45              		.cfi_offset 7, -8
  46              		.cfi_offset 14, -4
  47 0002 00AF     		add	r7, sp, #0
  48              		.cfi_def_cfa_register 7
 102:.\lib_Network/network.c ****     UART_XB_Start();
  49              		.loc 1 102 0
  50 0004 FFF7FEFF 		bl	UART_XB_Start
 103:.\lib_Network/network.c ****     
 104:.\lib_Network/network.c ****     #ifdef DEBUG_INFO
 105:.\lib_Network/network.c ****         SW_UART_DEBUG_Start();
 106:.\lib_Network/network.c ****         SW_UART_DEBUG_PutString("HElLO, IM READY(start)\n\r");
 107:.\lib_Network/network.c ****     #endif
 108:.\lib_Network/network.c ****     
 109:.\lib_Network/network.c ****     inData.readStatus = NO_READ;
  51              		.loc 1 109 0
  52 0008 074B     		ldr	r3, .L2
  53 000a 0022     		mov	r2, #0
  54 000c 9A74     		strb	r2, [r3, #18]
 110:.\lib_Network/network.c ****     outData.writeStatus = WRITE_OK;
  55              		.loc 1 110 0
  56 000e 074B     		ldr	r3, .L2+4
  57 0010 0122     		mov	r2, #1
  58 0012 DA74     		strb	r2, [r3, #19]
 111:.\lib_Network/network.c ****     outData.IDpacket = 0xFF;
  59              		.loc 1 111 0
  60 0014 054B     		ldr	r3, .L2+4
ARM GAS  C:\Users\Petro\AppData\Local\Temp\cchgZgX0.s 			page 4


  61 0016 FF22     		mov	r2, #255
  62 0018 1A70     		strb	r2, [r3]
 112:.\lib_Network/network.c ****     networkStatus = NETWORK_DISCONN;   
  63              		.loc 1 112 0
  64 001a 054B     		ldr	r3, .L2+8
  65 001c 0022     		mov	r2, #0
  66 001e 1A60     		str	r2, [r3]
 113:.\lib_Network/network.c ****     UART_XB_SpiUartClearRxBuffer();
  67              		.loc 1 113 0
  68 0020 FFF7FEFF 		bl	UART_XB_SpiUartClearRxBuffer
 114:.\lib_Network/network.c **** }
  69              		.loc 1 114 0
  70 0024 BD46     		mov	sp, r7
  71              		@ sp needed
  72 0026 80BD     		pop	{r7, pc}
  73              	.L3:
  74              		.align	2
  75              	.L2:
  76 0028 00000000 		.word	inData
  77 002c 00000000 		.word	outData
  78 0030 00000000 		.word	networkStatus
  79              		.cfi_endproc
  80              	.LFE28:
  81              		.size	InitNetwork, .-InitNetwork
  82              		.section	.rodata
  83              		.align	2
  84              	.LC6:
  85 0000 25303258 		.ascii	"%02X:%08X%08X%04X%02X%02X\000"
  85      3A253038 
  85      58253038 
  85      58253034 
  85      58253032 
  86              		.section	.text.SendData,"ax",%progbits
  87              		.align	2
  88              		.global	SendData
  89              		.code	16
  90              		.thumb_func
  91              		.type	SendData, %function
  92              	SendData:
  93              	.LFB29:
 115:.\lib_Network/network.c **** 
 116:.\lib_Network/network.c **** /*******************************************************************************
 117:.\lib_Network/network.c **** * Function Name: SendData
 118:.\lib_Network/network.c **** ********************************************************************************
 119:.\lib_Network/network.c **** *
 120:.\lib_Network/network.c **** * Summary:
 121:.\lib_Network/network.c **** *   send data to start from struct "outData"
 122:.\lib_Network/network.c **** *
 123:.\lib_Network/network.c **** *******************************************************************************/
 124:.\lib_Network/network.c **** void SendData(void)
 125:.\lib_Network/network.c **** {
  94              		.loc 1 125 0
  95              		.cfi_startproc
  96 0000 F0B5     		push	{r4, r5, r6, r7, lr}
  97              		.cfi_def_cfa_offset 20
  98              		.cfi_offset 4, -20
  99              		.cfi_offset 5, -16
ARM GAS  C:\Users\Petro\AppData\Local\Temp\cchgZgX0.s 			page 5


 100              		.cfi_offset 6, -12
 101              		.cfi_offset 7, -8
 102              		.cfi_offset 14, -4
 103 0002 9FB0     		sub	sp, sp, #124
 104              		.cfi_def_cfa_offset 144
 105 0004 04AF     		add	r7, sp, #16
 106              		.cfi_def_cfa 7, 128
 126:.\lib_Network/network.c ****     if(outData.writeStatus == NO_WRITE && inData.readStatus == READ_OK)
 107              		.loc 1 126 0
 108 0006 314B     		ldr	r3, .L7
 109 0008 DB7C     		ldrb	r3, [r3, #19]
 110 000a 002B     		cmp	r3, #0
 111 000c 5AD1     		bne	.L4
 112              		.loc 1 126 0 is_stmt 0 discriminator 1
 113 000e 304B     		ldr	r3, .L7+4
 114 0010 9B7C     		ldrb	r3, [r3, #18]
 115 0012 012B     		cmp	r3, #1
 116 0014 56D1     		bne	.L4
 127:.\lib_Network/network.c ****     { 
 128:.\lib_Network/network.c ****         if (inData.IDpacket == outData.IDpacket)
 117              		.loc 1 128 0 is_stmt 1
 118 0016 2E4B     		ldr	r3, .L7+4
 119 0018 1878     		ldrb	r0, [r3]
 120 001a 2C4B     		ldr	r3, .L7
 121 001c 1B78     		ldrb	r3, [r3]
 122 001e 9842     		cmp	r0, r3
 123 0020 0AD1     		bne	.L6
 129:.\lib_Network/network.c ****         {
 130:.\lib_Network/network.c ****             /*send previous packet*/
 131:.\lib_Network/network.c ****             
 132:.\lib_Network/network.c ****             UART_XB_UartPutString(previousData);
 124              		.loc 1 132 0
 125 0022 2C4B     		ldr	r3, .L7+8
 126 0024 181C     		mov	r0, r3
 127 0026 FFF7FEFF 		bl	UART_XB_UartPutString
 133:.\lib_Network/network.c ****             outData.writeStatus = WRITE_OK;
 128              		.loc 1 133 0
 129 002a 284B     		ldr	r3, .L7
 130 002c 0122     		mov	r2, #1
 131 002e DA74     		strb	r2, [r3, #19]
 134:.\lib_Network/network.c ****             inData.readStatus = NO_READ;
 132              		.loc 1 134 0
 133 0030 274B     		ldr	r3, .L7+4
 134 0032 0022     		mov	r2, #0
 135 0034 9A74     		strb	r2, [r3, #18]
 136 0036 45E0     		b	.L4
 137              	.L6:
 138              	.LBB2:
 135:.\lib_Network/network.c ****         }
 136:.\lib_Network/network.c ****         else
 137:.\lib_Network/network.c ****         {
 138:.\lib_Network/network.c ****             /*send nex packet*/
 139:.\lib_Network/network.c ****             
 140:.\lib_Network/network.c ****             char sendBuffer[DATA_BUFFER];
 141:.\lib_Network/network.c ****             char sendData[DATA_BUFFER];
 142:.\lib_Network/network.c ****             
 143:.\lib_Network/network.c ****             /*pack data*/
ARM GAS  C:\Users\Petro\AppData\Local\Temp\cchgZgX0.s 			page 6


 144:.\lib_Network/network.c ****             sprintf(sendData,"%02X:%08X%08X%04X%02X%02X",
 145:.\lib_Network/network.c ****                     0u,
 146:.\lib_Network/network.c ****                     (uint32_t)((outData.unixStartTime & MASK_HIGH) >> DATA_SHIFT), 
 139              		.loc 1 146 0
 140 0038 244B     		ldr	r3, .L7
 141 003a DC68     		ldr	r4, [r3, #12]
 142 003c 9B68     		ldr	r3, [r3, #8]
 143 003e 2100     		lsr	r1, r4, #0
 144 0040 0023     		mov	r3, #0
 145 0042 1A1C     		mov	r2, r3
 144:.\lib_Network/network.c ****                     0u,
 146              		.loc 1 144 0
 147 0044 0E1C     		mov	r6, r1
 147:.\lib_Network/network.c ****                     (uint32_t)(outData.unixStartTime & MASK_LOW), 
 148              		.loc 1 147 0
 149 0046 214B     		ldr	r3, .L7
 150 0048 DC68     		ldr	r4, [r3, #12]
 151 004a 9B68     		ldr	r3, [r3, #8]
 144:.\lib_Network/network.c ****                     0u,
 152              		.loc 1 144 0
 153 004c 1D1C     		mov	r5, r3
 148:.\lib_Network/network.c ****                     outData.startMsTime, 
 154              		.loc 1 148 0
 155 004e 1F4B     		ldr	r3, .L7
 156 0050 1B8A     		ldrh	r3, [r3, #16]
 144:.\lib_Network/network.c ****                     0u,
 157              		.loc 1 144 0
 158 0052 1C1C     		mov	r4, r3
 149:.\lib_Network/network.c ****                     outData.newSkier, 
 159              		.loc 1 149 0
 160 0054 1D4B     		ldr	r3, .L7
 161 0056 9B7C     		ldrb	r3, [r3, #18]
 144:.\lib_Network/network.c ****                     0u,
 162              		.loc 1 144 0
 163 0058 181C     		mov	r0, r3
 150:.\lib_Network/network.c ****                     outData.reboot);
 164              		.loc 1 150 0
 165 005a 1C4B     		ldr	r3, .L7
 166 005c 1B7D     		ldrb	r3, [r3, #20]
 144:.\lib_Network/network.c ****                     0u,
 167              		.loc 1 144 0
 168 005e 191C     		mov	r1, r3
 169 0060 3423     		mov	r3, #52
 170 0062 FA18     		add	r2, r7, r3
 171 0064 1C4B     		ldr	r3, .L7+12
 172 0066 0095     		str	r5, [sp]
 173 0068 0194     		str	r4, [sp, #4]
 174 006a 0290     		str	r0, [sp, #8]
 175 006c 0391     		str	r1, [sp, #12]
 176 006e 101C     		mov	r0, r2
 177 0070 191C     		mov	r1, r3
 178 0072 0022     		mov	r2, #0
 179 0074 331C     		mov	r3, r6
 180 0076 FFF7FEFF 		bl	sprintf
 151:.\lib_Network/network.c ****             
 152:.\lib_Network/network.c ****             
 153:.\lib_Network/network.c ****             PackData(sendBuffer, (uint8_t *)sendData, inData.IDpacket);
ARM GAS  C:\Users\Petro\AppData\Local\Temp\cchgZgX0.s 			page 7


 181              		.loc 1 153 0
 182 007a 154B     		ldr	r3, .L7+4
 183 007c 1B78     		ldrb	r3, [r3]
 184 007e 9BB2     		uxth	r3, r3
 185 0080 391C     		mov	r1, r7
 186 0082 3422     		mov	r2, #52
 187 0084 BA18     		add	r2, r7, r2
 188 0086 081C     		mov	r0, r1
 189 0088 111C     		mov	r1, r2
 190 008a 1A1C     		mov	r2, r3
 191 008c FFF7FEFF 		bl	PackData
 154:.\lib_Network/network.c ****             UART_XB_UartPutString(sendBuffer);            
 192              		.loc 1 154 0
 193 0090 3B1C     		mov	r3, r7
 194 0092 181C     		mov	r0, r3
 195 0094 FFF7FEFF 		bl	UART_XB_UartPutString
 155:.\lib_Network/network.c **** 
 156:.\lib_Network/network.c ****             outData.newSkier = !NEW_SKIER_IN_TARCK;
 196              		.loc 1 156 0
 197 0098 0C4B     		ldr	r3, .L7
 198 009a 0022     		mov	r2, #0
 199 009c 9A74     		strb	r2, [r3, #18]
 157:.\lib_Network/network.c ****                 
 158:.\lib_Network/network.c ****             outData.writeStatus = WRITE_OK;
 200              		.loc 1 158 0
 201 009e 0B4B     		ldr	r3, .L7
 202 00a0 0122     		mov	r2, #1
 203 00a2 DA74     		strb	r2, [r3, #19]
 159:.\lib_Network/network.c ****             outData.IDpacket = inData.IDpacket;
 204              		.loc 1 159 0
 205 00a4 0A4B     		ldr	r3, .L7+4
 206 00a6 1A78     		ldrb	r2, [r3]
 207 00a8 084B     		ldr	r3, .L7
 208 00aa 1A70     		strb	r2, [r3]
 160:.\lib_Network/network.c ****             inData.readStatus = NO_READ;
 209              		.loc 1 160 0
 210 00ac 084B     		ldr	r3, .L7+4
 211 00ae 0022     		mov	r2, #0
 212 00b0 9A74     		strb	r2, [r3, #18]
 161:.\lib_Network/network.c ****             strcpy(previousData, sendBuffer);
 213              		.loc 1 161 0
 214 00b2 084A     		ldr	r2, .L7+8
 215 00b4 3B1C     		mov	r3, r7
 216 00b6 101C     		mov	r0, r2
 217 00b8 191C     		mov	r1, r3
 218 00ba FFF7FEFF 		bl	strcpy
 162:.\lib_Network/network.c ****             
 163:.\lib_Network/network.c ****             CyDelay(50);
 219              		.loc 1 163 0
 220 00be 3220     		mov	r0, #50
 221 00c0 FFF7FEFF 		bl	CyDelay
 222              	.L4:
 223              	.LBE2:
 164:.\lib_Network/network.c ****         }
 165:.\lib_Network/network.c ****     }
 166:.\lib_Network/network.c **** }
 224              		.loc 1 166 0
ARM GAS  C:\Users\Petro\AppData\Local\Temp\cchgZgX0.s 			page 8


 225 00c4 BD46     		mov	sp, r7
 226 00c6 1BB0     		add	sp, sp, #108
 227              		@ sp needed
 228 00c8 F0BD     		pop	{r4, r5, r6, r7, pc}
 229              	.L8:
 230 00ca C046     		.align	2
 231              	.L7:
 232 00cc 00000000 		.word	outData
 233 00d0 00000000 		.word	inData
 234 00d4 00000000 		.word	previousData
 235 00d8 00000000 		.word	.LC6
 236              		.cfi_endproc
 237              	.LFE29:
 238              		.size	SendData, .-SendData
 239              		.section	.text.ReceiveData,"ax",%progbits
 240              		.align	2
 241              		.global	ReceiveData
 242              		.code	16
 243              		.thumb_func
 244              		.type	ReceiveData, %function
 245              	ReceiveData:
 246              	.LFB30:
 167:.\lib_Network/network.c **** 
 168:.\lib_Network/network.c **** 
 169:.\lib_Network/network.c **** /*******************************************************************************
 170:.\lib_Network/network.c **** * Function Name: ReceiveData
 171:.\lib_Network/network.c **** ********************************************************************************
 172:.\lib_Network/network.c **** *
 173:.\lib_Network/network.c **** * Summary:
 174:.\lib_Network/network.c **** *   receive data from start in struct "inData"
 175:.\lib_Network/network.c **** * Return:
 176:.\lib_Network/network.c **** *   NETWORK_CONNECT or NETWORK_DISCONNECT
 177:.\lib_Network/network.c **** *
 178:.\lib_Network/network.c **** *******************************************************************************/
 179:.\lib_Network/network.c **** uint32_t ReceiveData(void)
 180:.\lib_Network/network.c **** {
 247              		.loc 1 180 0
 248              		.cfi_startproc
 249 0000 80B5     		push	{r7, lr}
 250              		.cfi_def_cfa_offset 8
 251              		.cfi_offset 7, -8
 252              		.cfi_offset 14, -4
 253 0002 8AB0     		sub	sp, sp, #40
 254              		.cfi_def_cfa_offset 48
 255 0004 00AF     		add	r7, sp, #0
 256              		.cfi_def_cfa_register 7
 181:.\lib_Network/network.c ****     if(outData.writeStatus == WRITE_OK && inData.readStatus == NO_READ)
 257              		.loc 1 181 0
 258 0006 2D4B     		ldr	r3, .L17
 259 0008 DB7C     		ldrb	r3, [r3, #19]
 260 000a 012B     		cmp	r3, #1
 261 000c 51D1     		bne	.L10
 262              		.loc 1 181 0 is_stmt 0 discriminator 1
 263 000e 2C4B     		ldr	r3, .L17+4
 264 0010 9B7C     		ldrb	r3, [r3, #18]
 265 0012 002B     		cmp	r3, #0
 266 0014 4DD1     		bne	.L10
ARM GAS  C:\Users\Petro\AppData\Local\Temp\cchgZgX0.s 			page 9


 267              	.LBB3:
 182:.\lib_Network/network.c ****     {
 183:.\lib_Network/network.c ****         uint32_t byte;
 184:.\lib_Network/network.c ****         struct Resp recvData;
 185:.\lib_Network/network.c ****           
 186:.\lib_Network/network.c ****         while((UART_XB_SpiUartGetRxBufferSize() > 0) && ((byte=UART_XB_UartGetChar()) != 0))
 268              		.loc 1 186 0 is_stmt 1
 269 0016 35E0     		b	.L11
 270              	.L14:
 187:.\lib_Network/network.c ****         { 
 188:.\lib_Network/network.c ****             UnpackData(&recvData, (uint8_t)(byte & 0xFF));
 271              		.loc 1 188 0
 272 0018 7B6A     		ldr	r3, [r7, #36]
 273 001a DBB2     		uxtb	r3, r3
 274 001c 3A1C     		mov	r2, r7
 275 001e 101C     		mov	r0, r2
 276 0020 191C     		mov	r1, r3
 277 0022 FFF7FEFF 		bl	UnpackData
 189:.\lib_Network/network.c ****             
 190:.\lib_Network/network.c ****             CyDelay(2);
 278              		.loc 1 190 0
 279 0026 0220     		mov	r0, #2
 280 0028 FFF7FEFF 		bl	CyDelay
 191:.\lib_Network/network.c ****             
 192:.\lib_Network/network.c ****             if(recvData.EndPacket == 1)
 281              		.loc 1 192 0
 282 002c 3B1C     		mov	r3, r7
 283 002e 1B7E     		ldrb	r3, [r3, #24]
 284 0030 012B     		cmp	r3, #1
 285 0032 27D1     		bne	.L11
 193:.\lib_Network/network.c ****             {                      
 194:.\lib_Network/network.c ****                 inData.IDpacket = recvData.Seq;
 286              		.loc 1 194 0
 287 0034 3B1C     		mov	r3, r7
 288 0036 1B88     		ldrh	r3, [r3]
 289 0038 DAB2     		uxtb	r2, r3
 290 003a 214B     		ldr	r3, .L17+4
 291 003c 1A70     		strb	r2, [r3]
 195:.\lib_Network/network.c ****                 
 196:.\lib_Network/network.c ****                 inData.readStatus = READ_OK;
 292              		.loc 1 196 0
 293 003e 204B     		ldr	r3, .L17+4
 294 0040 0122     		mov	r2, #1
 295 0042 9A74     		strb	r2, [r3, #18]
 197:.\lib_Network/network.c ****                 outData.writeStatus = NO_WRITE;
 296              		.loc 1 197 0
 297 0044 1D4B     		ldr	r3, .L17
 298 0046 0022     		mov	r2, #0
 299 0048 DA74     		strb	r2, [r3, #19]
 198:.\lib_Network/network.c ****                 
 199:.\lib_Network/network.c ****                 /*connect network*/
 200:.\lib_Network/network.c ****                 networkStatus = NETWORK_CONN;
 300              		.loc 1 200 0
 301 004a 1E4B     		ldr	r3, .L17+8
 302 004c 0122     		mov	r2, #1
 303 004e 1A60     		str	r2, [r3]
 201:.\lib_Network/network.c ****                 noConnect = 0;
ARM GAS  C:\Users\Petro\AppData\Local\Temp\cchgZgX0.s 			page 10


 304              		.loc 1 201 0
 305 0050 1D4B     		ldr	r3, .L17+12
 306 0052 0022     		mov	r2, #0
 307 0054 1A60     		str	r2, [r3]
 202:.\lib_Network/network.c ****                 /*write data*/
 203:.\lib_Network/network.c ****                 inData.countSkiers = (recvData.Data3 & 0x00FF) << 8;
 308              		.loc 1 203 0
 309 0056 3B1C     		mov	r3, r7
 310 0058 5B8A     		ldrh	r3, [r3, #18]
 311 005a 1B02     		lsl	r3, r3, #8
 312 005c DAB2     		uxtb	r2, r3
 313 005e 184B     		ldr	r3, .L17+4
 314 0060 DA70     		strb	r2, [r3, #3]
 204:.\lib_Network/network.c ****                 //inData.unixStartTime = recvData.Data1;
 205:.\lib_Network/network.c ****                 inData.ready = (recvData.Data2 & 0xFF00) >> 8;
 315              		.loc 1 205 0
 316 0062 3B1C     		mov	r3, r7
 317 0064 1B8A     		ldrh	r3, [r3, #16]
 318 0066 1B0A     		lsr	r3, r3, #8
 319 0068 9BB2     		uxth	r3, r3
 320 006a DAB2     		uxtb	r2, r3
 321 006c 144B     		ldr	r3, .L17+4
 322 006e 5A70     		strb	r2, [r3, #1]
 206:.\lib_Network/network.c ****                 inData.reboot = recvData.Data2 & 0x00FF;
 323              		.loc 1 206 0
 324 0070 3B1C     		mov	r3, r7
 325 0072 1B8A     		ldrh	r3, [r3, #16]
 326 0074 DAB2     		uxtb	r2, r3
 327 0076 124B     		ldr	r3, .L17+4
 328 0078 9A70     		strb	r2, [r3, #2]
 207:.\lib_Network/network.c ****                 
 208:.\lib_Network/network.c ****                 CyDelay(50);
 329              		.loc 1 208 0
 330 007a 3220     		mov	r0, #50
 331 007c FFF7FEFF 		bl	CyDelay
 209:.\lib_Network/network.c **** 
 210:.\lib_Network/network.c ****                 return  NETWORK_CONN;  
 332              		.loc 1 210 0
 333 0080 0123     		mov	r3, #1
 334 0082 17E0     		b	.L16
 335              	.L11:
 186:.\lib_Network/network.c ****         { 
 336              		.loc 1 186 0
 337 0084 FFF7FEFF 		bl	UART_XB_SpiUartGetRxBufferSize
 338 0088 031E     		sub	r3, r0, #0
 339 008a 06D0     		beq	.L13
 186:.\lib_Network/network.c ****         { 
 340              		.loc 1 186 0 is_stmt 0 discriminator 1
 341 008c FFF7FEFF 		bl	UART_XB_UartGetChar
 342 0090 031C     		mov	r3, r0
 343 0092 7B62     		str	r3, [r7, #36]
 344 0094 7B6A     		ldr	r3, [r7, #36]
 345 0096 002B     		cmp	r3, #0
 346 0098 BED1     		bne	.L14
 347              	.L13:
 211:.\lib_Network/network.c ****             }
 212:.\lib_Network/network.c ****         }
ARM GAS  C:\Users\Petro\AppData\Local\Temp\cchgZgX0.s 			page 11


 213:.\lib_Network/network.c ****         
 214:.\lib_Network/network.c ****         /*tyme to respond*/
 215:.\lib_Network/network.c ****         if(noConnect++ >= NETWORK_TIMEOUT)
 348              		.loc 1 215 0 is_stmt 1
 349 009a 0B4B     		ldr	r3, .L17+12
 350 009c 1B68     		ldr	r3, [r3]
 351 009e 591C     		add	r1, r3, #1
 352 00a0 094A     		ldr	r2, .L17+12
 353 00a2 1160     		str	r1, [r2]
 354 00a4 312B     		cmp	r3, #49
 355 00a6 02DD     		ble	.L15
 216:.\lib_Network/network.c ****         {
 217:.\lib_Network/network.c ****             networkStatus = NETWORK_DISCONN;
 356              		.loc 1 217 0
 357 00a8 064B     		ldr	r3, .L17+8
 358 00aa 0022     		mov	r2, #0
 359 00ac 1A60     		str	r2, [r3]
 360              	.L15:
 218:.\lib_Network/network.c ****         }
 219:.\lib_Network/network.c ****         return  NETWORK_DISCONN;
 361              		.loc 1 219 0
 362 00ae 0023     		mov	r3, #0
 363 00b0 00E0     		b	.L16
 364              	.L10:
 365              	.LBE3:
 220:.\lib_Network/network.c ****     }
 221:.\lib_Network/network.c ****     return 0;
 366              		.loc 1 221 0
 367 00b2 0023     		mov	r3, #0
 368              	.L16:
 222:.\lib_Network/network.c **** }
 369              		.loc 1 222 0 discriminator 1
 370 00b4 181C     		mov	r0, r3
 371 00b6 BD46     		mov	sp, r7
 372 00b8 0AB0     		add	sp, sp, #40
 373              		@ sp needed
 374 00ba 80BD     		pop	{r7, pc}
 375              	.L18:
 376              		.align	2
 377              	.L17:
 378 00bc 00000000 		.word	outData
 379 00c0 00000000 		.word	inData
 380 00c4 00000000 		.word	networkStatus
 381 00c8 04000000 		.word	noConnect
 382              		.cfi_endproc
 383              	.LFE30:
 384              		.size	ReceiveData, .-ReceiveData
 385              		.section	.text.NetworkStatus,"ax",%progbits
 386              		.align	2
 387              		.global	NetworkStatus
 388              		.code	16
 389              		.thumb_func
 390              		.type	NetworkStatus, %function
 391              	NetworkStatus:
 392              	.LFB31:
 223:.\lib_Network/network.c **** 
 224:.\lib_Network/network.c **** /*******************************************************************************
ARM GAS  C:\Users\Petro\AppData\Local\Temp\cchgZgX0.s 			page 12


 225:.\lib_Network/network.c **** * Function Name: NetworkStatus
 226:.\lib_Network/network.c **** ********************************************************************************
 227:.\lib_Network/network.c **** *
 228:.\lib_Network/network.c **** * Summary:
 229:.\lib_Network/network.c **** *   read network status
 230:.\lib_Network/network.c **** * Return:
 231:.\lib_Network/network.c **** *   NETWORK_CONNECT or NETWORK_DISCONNECT
 232:.\lib_Network/network.c **** *
 233:.\lib_Network/network.c **** *******************************************************************************/
 234:.\lib_Network/network.c **** uint32_t NetworkStatus(void)
 235:.\lib_Network/network.c **** {
 393              		.loc 1 235 0
 394              		.cfi_startproc
 395 0000 80B5     		push	{r7, lr}
 396              		.cfi_def_cfa_offset 8
 397              		.cfi_offset 7, -8
 398              		.cfi_offset 14, -4
 399 0002 00AF     		add	r7, sp, #0
 400              		.cfi_def_cfa_register 7
 236:.\lib_Network/network.c ****     return networkStatus;
 401              		.loc 1 236 0
 402 0004 024B     		ldr	r3, .L21
 403 0006 1B68     		ldr	r3, [r3]
 237:.\lib_Network/network.c **** }
 404              		.loc 1 237 0
 405 0008 181C     		mov	r0, r3
 406 000a BD46     		mov	sp, r7
 407              		@ sp needed
 408 000c 80BD     		pop	{r7, pc}
 409              	.L22:
 410 000e C046     		.align	2
 411              	.L21:
 412 0010 00000000 		.word	networkStatus
 413              		.cfi_endproc
 414              	.LFE31:
 415              		.size	NetworkStatus, .-NetworkStatus
 416              		.section	.text.SendSkierStart,"ax",%progbits
 417              		.align	2
 418              		.global	SendSkierStart
 419              		.code	16
 420              		.thumb_func
 421              		.type	SendSkierStart, %function
 422              	SendSkierStart:
 423              	.LFB32:
 238:.\lib_Network/network.c **** 
 239:.\lib_Network/network.c **** 
 240:.\lib_Network/network.c **** 
 241:.\lib_Network/network.c **** void SendSkierStart(uint64_t unixTimeStart, uint32_t recentMs)
 242:.\lib_Network/network.c **** {
 424              		.loc 1 242 0
 425              		.cfi_startproc
 426 0000 90B5     		push	{r4, r7, lr}
 427              		.cfi_def_cfa_offset 12
 428              		.cfi_offset 4, -12
 429              		.cfi_offset 7, -8
 430              		.cfi_offset 14, -4
 431 0002 85B0     		sub	sp, sp, #20
ARM GAS  C:\Users\Petro\AppData\Local\Temp\cchgZgX0.s 			page 13


 432              		.cfi_def_cfa_offset 32
 433 0004 00AF     		add	r7, sp, #0
 434              		.cfi_def_cfa_register 7
 435 0006 B860     		str	r0, [r7, #8]
 436 0008 F960     		str	r1, [r7, #12]
 437 000a 7A60     		str	r2, [r7, #4]
 243:.\lib_Network/network.c ****     outData.unixStartTime = unixTimeStart;
 438              		.loc 1 243 0
 439 000c 074A     		ldr	r2, .L24
 440 000e BB68     		ldr	r3, [r7, #8]
 441 0010 FC68     		ldr	r4, [r7, #12]
 442 0012 9360     		str	r3, [r2, #8]
 443 0014 D460     		str	r4, [r2, #12]
 244:.\lib_Network/network.c ****     outData.startMsTime = recentMs;
 444              		.loc 1 244 0
 445 0016 7B68     		ldr	r3, [r7, #4]
 446 0018 9AB2     		uxth	r2, r3
 447 001a 044B     		ldr	r3, .L24
 448 001c 1A82     		strh	r2, [r3, #16]
 245:.\lib_Network/network.c ****     outData.newSkier = NEW_SKIER_IN_TARCK;
 449              		.loc 1 245 0
 450 001e 034B     		ldr	r3, .L24
 451 0020 0122     		mov	r2, #1
 452 0022 9A74     		strb	r2, [r3, #18]
 246:.\lib_Network/network.c **** }
 453              		.loc 1 246 0
 454 0024 BD46     		mov	sp, r7
 455 0026 05B0     		add	sp, sp, #20
 456              		@ sp needed
 457 0028 90BD     		pop	{r4, r7, pc}
 458              	.L25:
 459 002a C046     		.align	2
 460              	.L24:
 461 002c 00000000 		.word	outData
 462              		.cfi_endproc
 463              	.LFE32:
 464              		.size	SendSkierStart, .-SendSkierStart
 465              		.section	.text.FinReady,"ax",%progbits
 466              		.align	2
 467              		.global	FinReady
 468              		.code	16
 469              		.thumb_func
 470              		.type	FinReady, %function
 471              	FinReady:
 472              	.LFB33:
 247:.\lib_Network/network.c **** 
 248:.\lib_Network/network.c **** 
 249:.\lib_Network/network.c **** uint32_t FinReady(void)
 250:.\lib_Network/network.c **** {
 473              		.loc 1 250 0
 474              		.cfi_startproc
 475 0000 80B5     		push	{r7, lr}
 476              		.cfi_def_cfa_offset 8
 477              		.cfi_offset 7, -8
 478              		.cfi_offset 14, -4
 479 0002 00AF     		add	r7, sp, #0
 480              		.cfi_def_cfa_register 7
ARM GAS  C:\Users\Petro\AppData\Local\Temp\cchgZgX0.s 			page 14


 251:.\lib_Network/network.c ****     return inData.ready;
 481              		.loc 1 251 0
 482 0004 024B     		ldr	r3, .L28
 483 0006 5B78     		ldrb	r3, [r3, #1]
 252:.\lib_Network/network.c **** }
 484              		.loc 1 252 0
 485 0008 181C     		mov	r0, r3
 486 000a BD46     		mov	sp, r7
 487              		@ sp needed
 488 000c 80BD     		pop	{r7, pc}
 489              	.L29:
 490 000e C046     		.align	2
 491              	.L28:
 492 0010 00000000 		.word	inData
 493              		.cfi_endproc
 494              	.LFE33:
 495              		.size	FinReady, .-FinReady
 496              		.section	.text.FinWriteInDB,"ax",%progbits
 497              		.align	2
 498              		.global	FinWriteInDB
 499              		.code	16
 500              		.thumb_func
 501              		.type	FinWriteInDB, %function
 502              	FinWriteInDB:
 503              	.LFB34:
 253:.\lib_Network/network.c **** 
 254:.\lib_Network/network.c **** 
 255:.\lib_Network/network.c **** uint32_t FinWriteInDB(void)
 256:.\lib_Network/network.c **** {
 504              		.loc 1 256 0
 505              		.cfi_startproc
 506 0000 80B5     		push	{r7, lr}
 507              		.cfi_def_cfa_offset 8
 508              		.cfi_offset 7, -8
 509              		.cfi_offset 14, -4
 510 0002 82B0     		sub	sp, sp, #8
 511              		.cfi_def_cfa_offset 16
 512 0004 00AF     		add	r7, sp, #0
 513              		.cfi_def_cfa_register 7
 257:.\lib_Network/network.c ****     uint32_t result;
 258:.\lib_Network/network.c ****     
 259:.\lib_Network/network.c ****     if(outData.newSkier == NEW_SKIER_IN_TARCK)
 514              		.loc 1 259 0
 515 0006 074B     		ldr	r3, .L34
 516 0008 9B7C     		ldrb	r3, [r3, #18]
 517 000a 012B     		cmp	r3, #1
 518 000c 02D1     		bne	.L31
 260:.\lib_Network/network.c ****     {
 261:.\lib_Network/network.c ****         result = NO_WRITE;
 519              		.loc 1 261 0
 520 000e 0023     		mov	r3, #0
 521 0010 7B60     		str	r3, [r7, #4]
 522 0012 01E0     		b	.L32
 523              	.L31:
 262:.\lib_Network/network.c ****     }
 263:.\lib_Network/network.c ****     else
 264:.\lib_Network/network.c ****     {
ARM GAS  C:\Users\Petro\AppData\Local\Temp\cchgZgX0.s 			page 15


 265:.\lib_Network/network.c ****         result = WRITE_OK;
 524              		.loc 1 265 0
 525 0014 0123     		mov	r3, #1
 526 0016 7B60     		str	r3, [r7, #4]
 527              	.L32:
 266:.\lib_Network/network.c ****     }
 267:.\lib_Network/network.c ****     
 268:.\lib_Network/network.c ****     return result;
 528              		.loc 1 268 0
 529 0018 7B68     		ldr	r3, [r7, #4]
 269:.\lib_Network/network.c **** }
 530              		.loc 1 269 0
 531 001a 181C     		mov	r0, r3
 532 001c BD46     		mov	sp, r7
 533 001e 02B0     		add	sp, sp, #8
 534              		@ sp needed
 535 0020 80BD     		pop	{r7, pc}
 536              	.L35:
 537 0022 C046     		.align	2
 538              	.L34:
 539 0024 00000000 		.word	outData
 540              		.cfi_endproc
 541              	.LFE34:
 542              		.size	FinWriteInDB, .-FinWriteInDB
 543              		.section	.text.IsRebootFinishFlag,"ax",%progbits
 544              		.align	2
 545              		.global	IsRebootFinishFlag
 546              		.code	16
 547              		.thumb_func
 548              		.type	IsRebootFinishFlag, %function
 549              	IsRebootFinishFlag:
 550              	.LFB35:
 270:.\lib_Network/network.c **** 
 271:.\lib_Network/network.c **** uint32_t IsRebootFinishFlag(void)
 272:.\lib_Network/network.c **** {
 551              		.loc 1 272 0
 552              		.cfi_startproc
 553 0000 80B5     		push	{r7, lr}
 554              		.cfi_def_cfa_offset 8
 555              		.cfi_offset 7, -8
 556              		.cfi_offset 14, -4
 557 0002 82B0     		sub	sp, sp, #8
 558              		.cfi_def_cfa_offset 16
 559 0004 00AF     		add	r7, sp, #0
 560              		.cfi_def_cfa_register 7
 273:.\lib_Network/network.c ****     uint32_t result;
 274:.\lib_Network/network.c ****     
 275:.\lib_Network/network.c ****     if(inData.reboot == 1 && outData.reboot == 0)
 561              		.loc 1 275 0
 562 0006 0D4B     		ldr	r3, .L40
 563 0008 9B78     		ldrb	r3, [r3, #2]
 564 000a 012B     		cmp	r3, #1
 565 000c 09D1     		bne	.L37
 566              		.loc 1 275 0 is_stmt 0 discriminator 1
 567 000e 0C4B     		ldr	r3, .L40+4
 568 0010 1B7D     		ldrb	r3, [r3, #20]
 569 0012 002B     		cmp	r3, #0
ARM GAS  C:\Users\Petro\AppData\Local\Temp\cchgZgX0.s 			page 16


 570 0014 05D1     		bne	.L37
 276:.\lib_Network/network.c ****     {
 277:.\lib_Network/network.c ****         result = REBOOT;
 571              		.loc 1 277 0 is_stmt 1
 572 0016 FF23     		mov	r3, #255
 573 0018 7B60     		str	r3, [r7, #4]
 278:.\lib_Network/network.c ****         inData.reboot = 0;
 574              		.loc 1 278 0
 575 001a 084B     		ldr	r3, .L40
 576 001c 0022     		mov	r2, #0
 577 001e 9A70     		strb	r2, [r3, #2]
 578 0020 07E0     		b	.L38
 579              	.L37:
 279:.\lib_Network/network.c ****     }
 280:.\lib_Network/network.c ****     else
 281:.\lib_Network/network.c ****     {
 282:.\lib_Network/network.c ****         outData.reboot = 0;
 580              		.loc 1 282 0
 581 0022 074B     		ldr	r3, .L40+4
 582 0024 0022     		mov	r2, #0
 583 0026 1A75     		strb	r2, [r3, #20]
 283:.\lib_Network/network.c ****         inData.reboot = 0;
 584              		.loc 1 283 0
 585 0028 044B     		ldr	r3, .L40
 586 002a 0022     		mov	r2, #0
 587 002c 9A70     		strb	r2, [r3, #2]
 284:.\lib_Network/network.c ****         result = NO_REBOOT;
 588              		.loc 1 284 0
 589 002e FE23     		mov	r3, #254
 590 0030 7B60     		str	r3, [r7, #4]
 591              	.L38:
 285:.\lib_Network/network.c ****     }
 286:.\lib_Network/network.c ****     return result;
 592              		.loc 1 286 0
 593 0032 7B68     		ldr	r3, [r7, #4]
 287:.\lib_Network/network.c **** }
 594              		.loc 1 287 0
 595 0034 181C     		mov	r0, r3
 596 0036 BD46     		mov	sp, r7
 597 0038 02B0     		add	sp, sp, #8
 598              		@ sp needed
 599 003a 80BD     		pop	{r7, pc}
 600              	.L41:
 601              		.align	2
 602              	.L40:
 603 003c 00000000 		.word	inData
 604 0040 00000000 		.word	outData
 605              		.cfi_endproc
 606              	.LFE35:
 607              		.size	IsRebootFinishFlag, .-IsRebootFinishFlag
 608              		.section	.text.SetRebootFlag,"ax",%progbits
 609              		.align	2
 610              		.global	SetRebootFlag
 611              		.code	16
 612              		.thumb_func
 613              		.type	SetRebootFlag, %function
 614              	SetRebootFlag:
ARM GAS  C:\Users\Petro\AppData\Local\Temp\cchgZgX0.s 			page 17


 615              	.LFB36:
 288:.\lib_Network/network.c **** 
 289:.\lib_Network/network.c **** void SetRebootFlag(void)
 290:.\lib_Network/network.c **** {
 616              		.loc 1 290 0
 617              		.cfi_startproc
 618 0000 80B5     		push	{r7, lr}
 619              		.cfi_def_cfa_offset 8
 620              		.cfi_offset 7, -8
 621              		.cfi_offset 14, -4
 622 0002 00AF     		add	r7, sp, #0
 623              		.cfi_def_cfa_register 7
 291:.\lib_Network/network.c ****     outData.reboot = 1;
 624              		.loc 1 291 0
 625 0004 024B     		ldr	r3, .L43
 626 0006 0122     		mov	r2, #1
 627 0008 1A75     		strb	r2, [r3, #20]
 292:.\lib_Network/network.c **** }
 628              		.loc 1 292 0
 629 000a BD46     		mov	sp, r7
 630              		@ sp needed
 631 000c 80BD     		pop	{r7, pc}
 632              	.L44:
 633 000e C046     		.align	2
 634              	.L43:
 635 0010 00000000 		.word	outData
 636              		.cfi_endproc
 637              	.LFE36:
 638              		.size	SetRebootFlag, .-SetRebootFlag
 639              		.section	.text.ClearRebootFlag,"ax",%progbits
 640              		.align	2
 641              		.global	ClearRebootFlag
 642              		.code	16
 643              		.thumb_func
 644              		.type	ClearRebootFlag, %function
 645              	ClearRebootFlag:
 646              	.LFB37:
 293:.\lib_Network/network.c **** 
 294:.\lib_Network/network.c **** void ClearRebootFlag(void)
 295:.\lib_Network/network.c **** {
 647              		.loc 1 295 0
 648              		.cfi_startproc
 649 0000 80B5     		push	{r7, lr}
 650              		.cfi_def_cfa_offset 8
 651              		.cfi_offset 7, -8
 652              		.cfi_offset 14, -4
 653 0002 00AF     		add	r7, sp, #0
 654              		.cfi_def_cfa_register 7
 296:.\lib_Network/network.c ****     inData.reboot = 0;
 655              		.loc 1 296 0
 656 0004 034B     		ldr	r3, .L46
 657 0006 0022     		mov	r2, #0
 658 0008 9A70     		strb	r2, [r3, #2]
 297:.\lib_Network/network.c ****     outData.reboot = 0;
 659              		.loc 1 297 0
 660 000a 034B     		ldr	r3, .L46+4
 661 000c 0022     		mov	r2, #0
ARM GAS  C:\Users\Petro\AppData\Local\Temp\cchgZgX0.s 			page 18


 662 000e 1A75     		strb	r2, [r3, #20]
 298:.\lib_Network/network.c **** }
 663              		.loc 1 298 0
 664 0010 BD46     		mov	sp, r7
 665              		@ sp needed
 666 0012 80BD     		pop	{r7, pc}
 667              	.L47:
 668              		.align	2
 669              	.L46:
 670 0014 00000000 		.word	inData
 671 0018 00000000 		.word	outData
 672              		.cfi_endproc
 673              	.LFE37:
 674              		.size	ClearRebootFlag, .-ClearRebootFlag
 675              		.section	.text.NTPsync,"ax",%progbits
 676              		.align	2
 677              		.global	NTPsync
 678              		.code	16
 679              		.thumb_func
 680              		.type	NTPsync, %function
 681              	NTPsync:
 682              	.LFB38:
 299:.\lib_Network/network.c **** 
 300:.\lib_Network/network.c **** 
 301:.\lib_Network/network.c **** /*******************************************************************************
 302:.\lib_Network/network.c **** * Function Name: NTPsync
 303:.\lib_Network/network.c **** ********************************************************************************
 304:.\lib_Network/network.c **** *
 305:.\lib_Network/network.c **** * Summary:
 306:.\lib_Network/network.c **** *   NTP time synchronization protocol on
 307:.\lib_Network/network.c **** * Return:
 308:.\lib_Network/network.c **** *   TIME_SYNC_OK or TIME_SYNC_ERR
 309:.\lib_Network/network.c **** *
 310:.\lib_Network/network.c **** *******************************************************************************/
 311:.\lib_Network/network.c **** uint32_t NTPsync(void)
 312:.\lib_Network/network.c **** {
 683              		.loc 1 312 0
 684              		.cfi_startproc
 685 0000 90B5     		push	{r4, r7, lr}
 686              		.cfi_def_cfa_offset 12
 687              		.cfi_offset 4, -12
 688              		.cfi_offset 7, -8
 689              		.cfi_offset 14, -4
 690 0002 8BB0     		sub	sp, sp, #44
 691              		.cfi_def_cfa_offset 56
 692 0004 02AF     		add	r7, sp, #8
 693              		.cfi_def_cfa 7, 48
 313:.\lib_Network/network.c ****     int i;
 314:.\lib_Network/network.c ****     uint16_t result;
 315:.\lib_Network/network.c ****     uint16_t IDreceivePacket;
 316:.\lib_Network/network.c ****     uint16_t lastIDpacket;
 317:.\lib_Network/network.c ****     uint32_t resultReceive;
 318:.\lib_Network/network.c ****     uint32_t noConnect;
 319:.\lib_Network/network.c ****     
 320:.\lib_Network/network.c ****     /*reseive real time to finish and set*/
 321:.\lib_Network/network.c ****     if(ReceiveRealTime() == NO_READ)
 694              		.loc 1 321 0
ARM GAS  C:\Users\Petro\AppData\Local\Temp\cchgZgX0.s 			page 19


 695 0006 FFF7FEFF 		bl	ReceiveRealTime
 696 000a 031E     		sub	r3, r0, #0
 697 000c 01D1     		bne	.L49
 322:.\lib_Network/network.c ****     {
 323:.\lib_Network/network.c ****         return TIME_SYNC_ERR;
 698              		.loc 1 323 0
 699 000e 0123     		mov	r3, #1
 700 0010 F7E0     		b	.L68
 701              	.L49:
 324:.\lib_Network/network.c ****     }
 325:.\lib_Network/network.c ****     
 326:.\lib_Network/network.c ****     #ifdef DEBUG_INFO
 327:.\lib_Network/network.c ****         SW_UART_DEBUG_PutString("\n\rset real time ok\n\r");
 328:.\lib_Network/network.c ****     #endif
 329:.\lib_Network/network.c ****     
 330:.\lib_Network/network.c ****     
 331:.\lib_Network/network.c ****     /*calculaiton delivery time*/
 332:.\lib_Network/network.c ****     noConnect = 0;
 702              		.loc 1 332 0
 703 0012 0023     		mov	r3, #0
 704 0014 3B61     		str	r3, [r7, #16]
 333:.\lib_Network/network.c ****     lastIDpacket = 0;
 705              		.loc 1 333 0
 706 0016 1823     		mov	r3, #24
 707 0018 FB18     		add	r3, r7, r3
 708 001a 0022     		mov	r2, #0
 709 001c 1A80     		strh	r2, [r3]
 334:.\lib_Network/network.c ****     
 335:.\lib_Network/network.c ****     for(i=0; (i < NUM_TRY_SYNC) && (noConnect <= NUM_CONNECT_ATTEMPS*1000); )
 710              		.loc 1 335 0
 711 001e 0023     		mov	r3, #0
 712 0020 FB61     		str	r3, [r7, #28]
 713 0022 6EE0     		b	.L51
 714              	.L59:
 336:.\lib_Network/network.c ****     {      
 337:.\lib_Network/network.c ****         /*receive time */
 338:.\lib_Network/network.c ****         resultReceive = NTPreceiveTime(&unixTime[T2],&millisTime[T2], &IDreceivePacket, !SAVE_TIME)
 715              		.loc 1 338 0
 716 0024 7949     		ldr	r1, .L69
 717 0026 7A4A     		ldr	r2, .L69+4
 718 0028 0823     		mov	r3, #8
 719 002a FB18     		add	r3, r7, r3
 720 002c 081C     		mov	r0, r1
 721 002e 111C     		mov	r1, r2
 722 0030 1A1C     		mov	r2, r3
 723 0032 0023     		mov	r3, #0
 724 0034 FFF7FEFF 		bl	NTPreceiveTime
 725 0038 031C     		mov	r3, r0
 726 003a 7B61     		str	r3, [r7, #20]
 339:.\lib_Network/network.c **** 
 340:.\lib_Network/network.c ****         CyDelay(12);
 727              		.loc 1 340 0
 728 003c 0C20     		mov	r0, #12
 729 003e FFF7FEFF 		bl	CyDelay
 341:.\lib_Network/network.c ****         if(resultReceive == READ_OK)
 730              		.loc 1 341 0
 731 0042 7B69     		ldr	r3, [r7, #20]
ARM GAS  C:\Users\Petro\AppData\Local\Temp\cchgZgX0.s 			page 20


 732 0044 012B     		cmp	r3, #1
 733 0046 53D1     		bne	.L52
 342:.\lib_Network/network.c ****         {   
 343:.\lib_Network/network.c ****             if(((i == 0) && (IDreceivePacket != 0)) || ((i != 0) && (IDreceivePacket == 0)))
 734              		.loc 1 343 0
 735 0048 FB69     		ldr	r3, [r7, #28]
 736 004a 002B     		cmp	r3, #0
 737 004c 04D1     		bne	.L53
 738              		.loc 1 343 0 is_stmt 0 discriminator 1
 739 004e 0823     		mov	r3, #8
 740 0050 FB18     		add	r3, r7, r3
 741 0052 1B88     		ldrh	r3, [r3]
 742 0054 002B     		cmp	r3, #0
 743 0056 07D1     		bne	.L54
 744              	.L53:
 745              		.loc 1 343 0 discriminator 3
 746 0058 FB69     		ldr	r3, [r7, #28]
 747 005a 002B     		cmp	r3, #0
 748 005c 08D0     		beq	.L55
 749              		.loc 1 343 0 discriminator 4
 750 005e 0823     		mov	r3, #8
 751 0060 FB18     		add	r3, r7, r3
 752 0062 1B88     		ldrh	r3, [r3]
 753 0064 002B     		cmp	r3, #0
 754 0066 03D1     		bne	.L55
 755              	.L54:
 344:.\lib_Network/network.c ****             {
 345:.\lib_Network/network.c ****                 /*error sync, does not start with zero packet*/
 346:.\lib_Network/network.c ****                 noConnect = NUM_CONNECT_ATTEMPS;
 756              		.loc 1 346 0 is_stmt 1
 757 0068 FA23     		mov	r3, #250
 758 006a 9B00     		lsl	r3, r3, #2
 759 006c 3B61     		str	r3, [r7, #16]
 760 006e 3EE0     		b	.L56
 761              	.L55:
 347:.\lib_Network/network.c ****             }
 348:.\lib_Network/network.c ****             else
 349:.\lib_Network/network.c ****             {
 350:.\lib_Network/network.c ****                 /*no error, send time*/
 351:.\lib_Network/network.c ****                 
 352:.\lib_Network/network.c ****                 CyDelay(480);
 762              		.loc 1 352 0
 763 0070 F023     		mov	r3, #240
 764 0072 5B00     		lsl	r3, r3, #1
 765 0074 181C     		mov	r0, r3
 766 0076 FFF7FEFF 		bl	CyDelay
 353:.\lib_Network/network.c ****                 unixTime[T3] = RTCGetUnixTime();
 767              		.loc 1 353 0
 768 007a FFF7FEFF 		bl	RTCGetUnixTime
 769 007e 031C     		mov	r3, r0
 770 0080 0C1C     		mov	r4, r1
 771 0082 1A1C     		mov	r2, r3
 772 0084 634B     		ldr	r3, .L69+8
 773 0086 1A60     		str	r2, [r3]
 354:.\lib_Network/network.c ****                 millisTime[T3] = RTCgetRecentMs();
 774              		.loc 1 354 0
 775 0088 FFF7FEFF 		bl	RTCgetRecentMs
ARM GAS  C:\Users\Petro\AppData\Local\Temp\cchgZgX0.s 			page 21


 776 008c 031C     		mov	r3, r0
 777 008e 9AB2     		uxth	r2, r3
 778 0090 614B     		ldr	r3, .L69+12
 779 0092 1A80     		strh	r2, [r3]
 355:.\lib_Network/network.c ****                 NTPsendTime(unixTime[T2], unixTime[T3], millisTime[T2], millisTime[T3], IDreceivePa
 780              		.loc 1 355 0
 781 0094 5F4B     		ldr	r3, .L69+8
 782 0096 5868     		ldr	r0, [r3, #4]
 783 0098 5E4B     		ldr	r3, .L69+8
 784 009a 1968     		ldr	r1, [r3]
 785 009c 5E4B     		ldr	r3, .L69+12
 786 009e 5A88     		ldrh	r2, [r3, #2]
 787 00a0 5D4B     		ldr	r3, .L69+12
 788 00a2 1C88     		ldrh	r4, [r3]
 789 00a4 0823     		mov	r3, #8
 790 00a6 FB18     		add	r3, r7, r3
 791 00a8 1B88     		ldrh	r3, [r3]
 792 00aa 0093     		str	r3, [sp]
 793 00ac 231C     		mov	r3, r4
 794 00ae FFF7FEFF 		bl	NTPsendTime
 356:.\lib_Network/network.c ****                 #ifdef DEBUG_INFO
 357:.\lib_Network/network.c **** //                    sprintf(uartBuff,"T2= %u:%u, T3= %u:%u, ID-%u\n\r",
 358:.\lib_Network/network.c **** //                        unixTime[T2], millisTime[T2], unixTime[T3], millisTime[T3],IDreceivePacke
 359:.\lib_Network/network.c **** //                    SW_UART_DEBUG_PutString(uartBuff);
 360:.\lib_Network/network.c ****                 #endif
 361:.\lib_Network/network.c ****                 noConnect=0;
 795              		.loc 1 361 0
 796 00b2 0023     		mov	r3, #0
 797 00b4 3B61     		str	r3, [r7, #16]
 362:.\lib_Network/network.c ****                 
 363:.\lib_Network/network.c ****                 if((lastIDpacket < IDreceivePacket) || (lastIDpacket == 0))
 798              		.loc 1 363 0
 799 00b6 0823     		mov	r3, #8
 800 00b8 FB18     		add	r3, r7, r3
 801 00ba 1B88     		ldrh	r3, [r3]
 802 00bc 1822     		mov	r2, #24
 803 00be BA18     		add	r2, r7, r2
 804 00c0 1288     		ldrh	r2, [r2]
 805 00c2 9A42     		cmp	r2, r3
 806 00c4 04D3     		bcc	.L57
 807              		.loc 1 363 0 is_stmt 0 discriminator 1
 808 00c6 1823     		mov	r3, #24
 809 00c8 FB18     		add	r3, r7, r3
 810 00ca 1B88     		ldrh	r3, [r3]
 811 00cc 002B     		cmp	r3, #0
 812 00ce 18D1     		bne	.L51
 813              	.L57:
 364:.\lib_Network/network.c ****                 {
 365:.\lib_Network/network.c ****                     /*finish read data, next step sync*/
 366:.\lib_Network/network.c ****                     lastIDpacket = IDreceivePacket;
 814              		.loc 1 366 0 is_stmt 1
 815 00d0 1823     		mov	r3, #24
 816 00d2 FB18     		add	r3, r7, r3
 817 00d4 0822     		mov	r2, #8
 818 00d6 BA18     		add	r2, r7, r2
 819 00d8 1288     		ldrh	r2, [r2]
 820 00da 1A80     		strh	r2, [r3]
ARM GAS  C:\Users\Petro\AppData\Local\Temp\cchgZgX0.s 			page 22


 367:.\lib_Network/network.c ****                     DisplayLoading(i);
 821              		.loc 1 367 0
 822 00dc FB69     		ldr	r3, [r7, #28]
 823 00de 181C     		mov	r0, r3
 824 00e0 FFF7FEFF 		bl	DisplayLoading
 368:.\lib_Network/network.c ****                     i = IDreceivePacket+1;
 825              		.loc 1 368 0
 826 00e4 0823     		mov	r3, #8
 827 00e6 FB18     		add	r3, r7, r3
 828 00e8 1B88     		ldrh	r3, [r3]
 829 00ea 0133     		add	r3, r3, #1
 830 00ec FB61     		str	r3, [r7, #28]
 831              	.L56:
 832 00ee 08E0     		b	.L51
 833              	.L52:
 369:.\lib_Network/network.c ****                 }
 370:.\lib_Network/network.c ****             }           
 371:.\lib_Network/network.c ****         }
 372:.\lib_Network/network.c ****         else 
 373:.\lib_Network/network.c ****         {
 374:.\lib_Network/network.c ****             noConnect++;
 834              		.loc 1 374 0
 835 00f0 3B69     		ldr	r3, [r7, #16]
 836 00f2 0133     		add	r3, r3, #1
 837 00f4 3B61     		str	r3, [r7, #16]
 838 00f6 1823     		mov	r3, #24
 839 00f8 FB18     		add	r3, r7, r3
 840 00fa 1822     		mov	r2, #24
 841 00fc BA18     		add	r2, r7, r2
 842 00fe 1288     		ldrh	r2, [r2]
 843 0100 1A80     		strh	r2, [r3]
 844              	.L51:
 335:.\lib_Network/network.c ****     {      
 845              		.loc 1 335 0 discriminator 1
 846 0102 FB69     		ldr	r3, [r7, #28]
 847 0104 0D2B     		cmp	r3, #13
 848 0106 04DC     		bgt	.L58
 335:.\lib_Network/network.c ****     {      
 849              		.loc 1 335 0 is_stmt 0 discriminator 2
 850 0108 3B69     		ldr	r3, [r7, #16]
 851 010a 444A     		ldr	r2, .L69+16
 852 010c 9342     		cmp	r3, r2
 853 010e 00D8     		bhi	.LCB717
 854 0110 88E7     		b	.L59	@long jump
 855              	.LCB717:
 856              	.L58:
 375:.\lib_Network/network.c ****             
 376:.\lib_Network/network.c ****             #ifdef DEBUG_INFO
 377:.\lib_Network/network.c ****                 //sprintf(uartBuff,"noConnect=%u\n\r",noConnect);
 378:.\lib_Network/network.c ****                 //SW_UART_DEBUG_PutString(uartBuff);
 379:.\lib_Network/network.c ****             #endif
 380:.\lib_Network/network.c ****         }
 381:.\lib_Network/network.c ****     }
 382:.\lib_Network/network.c ****     
 383:.\lib_Network/network.c ****     
 384:.\lib_Network/network.c ****     if(noConnect >= NUM_CONNECT_ATTEMPS)
 857              		.loc 1 384 0 is_stmt 1
ARM GAS  C:\Users\Petro\AppData\Local\Temp\cchgZgX0.s 			page 23


 858 0112 3B69     		ldr	r3, [r7, #16]
 859 0114 424A     		ldr	r2, .L69+20
 860 0116 9342     		cmp	r3, r2
 861 0118 04D9     		bls	.L60
 385:.\lib_Network/network.c ****     {
 386:.\lib_Network/network.c ****         result = TIME_SYNC_ERR;
 862              		.loc 1 386 0
 863 011a 1A23     		mov	r3, #26
 864 011c FB18     		add	r3, r7, r3
 865 011e 0122     		mov	r2, #1
 866 0120 1A80     		strh	r2, [r3]
 867 0122 6BE0     		b	.L61
 868              	.L60:
 387:.\lib_Network/network.c ****     }
 388:.\lib_Network/network.c ****     else
 389:.\lib_Network/network.c ****     {
 390:.\lib_Network/network.c ****         resultReceive = NO_READ;
 869              		.loc 1 390 0
 870 0124 0023     		mov	r3, #0
 871 0126 7B61     		str	r3, [r7, #20]
 391:.\lib_Network/network.c ****         noConnect = 0;
 872              		.loc 1 391 0
 873 0128 0023     		mov	r3, #0
 874 012a 3B61     		str	r3, [r7, #16]
 392:.\lib_Network/network.c **** 
 393:.\lib_Network/network.c ****         while((resultReceive == NO_READ) && noConnect < NUM_CONNECT_ATTEMPS)
 875              		.loc 1 393 0
 876 012c 55E0     		b	.L62
 877              	.L67:
 878              	.LBB4:
 394:.\lib_Network/network.c ****         {
 395:.\lib_Network/network.c ****             /*write time and ms in rtc*/
 396:.\lib_Network/network.c ****             uint32_t deliveryTime;
 397:.\lib_Network/network.c ****             uint16_t deliveryMs; 
 398:.\lib_Network/network.c ****             resultReceive = NTPreceiveTime(&deliveryTime, &deliveryMs, &IDreceivePacket, SAVE_TIME)
 879              		.loc 1 398 0
 880 012e 391D     		add	r1, r7, #4
 881 0130 BA1C     		add	r2, r7, #2
 882 0132 0823     		mov	r3, #8
 883 0134 FB18     		add	r3, r7, r3
 884 0136 081C     		mov	r0, r1
 885 0138 111C     		mov	r1, r2
 886 013a 1A1C     		mov	r2, r3
 887 013c 0123     		mov	r3, #1
 888 013e FFF7FEFF 		bl	NTPreceiveTime
 889 0142 031C     		mov	r3, r0
 890 0144 7B61     		str	r3, [r7, #20]
 399:.\lib_Network/network.c ****             if(resultReceive == READ_OK)
 891              		.loc 1 399 0
 892 0146 7B69     		ldr	r3, [r7, #20]
 893 0148 012B     		cmp	r3, #1
 894 014a 40D1     		bne	.L63
 400:.\lib_Network/network.c ****             {
 401:.\lib_Network/network.c ****                 if(IDreceivePacket == NUM_TRY_SYNC)
 895              		.loc 1 401 0
 896 014c 0823     		mov	r3, #8
 897 014e FB18     		add	r3, r7, r3
ARM GAS  C:\Users\Petro\AppData\Local\Temp\cchgZgX0.s 			page 24


 898 0150 1B88     		ldrh	r3, [r3]
 899 0152 0E2B     		cmp	r3, #14
 900 0154 39D1     		bne	.L64
 901              	.LBB5:
 402:.\lib_Network/network.c ****                 {
 403:.\lib_Network/network.c ****                     uint32_t unixTime;
 404:.\lib_Network/network.c ****                     uint16_t millisTime;
 405:.\lib_Network/network.c ****                     
 406:.\lib_Network/network.c ****                     unixTime = RTC_GetUnixTime();
 902              		.loc 1 406 0
 903 0156 FFF7FEFF 		bl	RTC_GetUnixTime
 904 015a 031C     		mov	r3, r0
 905 015c 0C1C     		mov	r4, r1
 906 015e FB60     		str	r3, [r7, #12]
 407:.\lib_Network/network.c ****                     millisTime = RTCgetRecentMs();
 907              		.loc 1 407 0
 908 0160 FFF7FEFF 		bl	RTCgetRecentMs
 909 0164 021C     		mov	r2, r0
 910 0166 0A23     		mov	r3, #10
 911 0168 FB18     		add	r3, r7, r3
 912 016a 1A80     		strh	r2, [r3]
 408:.\lib_Network/network.c ****                     
 409:.\lib_Network/network.c ****                     unixTime += (deliveryTime);
 913              		.loc 1 409 0
 914 016c 7B68     		ldr	r3, [r7, #4]
 915 016e FA68     		ldr	r2, [r7, #12]
 916 0170 D318     		add	r3, r2, r3
 917 0172 FB60     		str	r3, [r7, #12]
 410:.\lib_Network/network.c ****                     if((millisTime += (deliveryMs)) >= 1000)
 918              		.loc 1 410 0
 919 0174 BB1C     		add	r3, r7, #2
 920 0176 1988     		ldrh	r1, [r3]
 921 0178 0A23     		mov	r3, #10
 922 017a FB18     		add	r3, r7, r3
 923 017c 0A22     		mov	r2, #10
 924 017e BA18     		add	r2, r7, r2
 925 0180 1288     		ldrh	r2, [r2]
 926 0182 8A18     		add	r2, r1, r2
 927 0184 1A80     		strh	r2, [r3]
 928 0186 0A23     		mov	r3, #10
 929 0188 FB18     		add	r3, r7, r3
 930 018a 1B88     		ldrh	r3, [r3]
 931 018c 244A     		ldr	r2, .L69+20
 932 018e 9342     		cmp	r3, r2
 933 0190 0BD9     		bls	.L65
 411:.\lib_Network/network.c ****                     {
 412:.\lib_Network/network.c ****                         unixTime++;
 934              		.loc 1 412 0
 935 0192 FB68     		ldr	r3, [r7, #12]
 936 0194 0133     		add	r3, r3, #1
 937 0196 FB60     		str	r3, [r7, #12]
 413:.\lib_Network/network.c ****                         millisTime -= 1000;
 938              		.loc 1 413 0
 939 0198 0A23     		mov	r3, #10
 940 019a FB18     		add	r3, r7, r3
 941 019c 0A22     		mov	r2, #10
 942 019e BA18     		add	r2, r7, r2
ARM GAS  C:\Users\Petro\AppData\Local\Temp\cchgZgX0.s 			page 25


 943 01a0 1288     		ldrh	r2, [r2]
 944 01a2 2049     		ldr	r1, .L69+24
 945 01a4 8C46     		mov	ip, r1
 946 01a6 6244     		add	r2, r2, ip
 947 01a8 1A80     		strh	r2, [r3]
 948              	.L65:
 414:.\lib_Network/network.c ****                     }
 415:.\lib_Network/network.c ****                     
 416:.\lib_Network/network.c ****                     RTCSync(unixTime, millisTime);
 949              		.loc 1 416 0
 950 01aa FA68     		ldr	r2, [r7, #12]
 951 01ac 0A23     		mov	r3, #10
 952 01ae FB18     		add	r3, r7, r3
 953 01b0 1B88     		ldrh	r3, [r3]
 954 01b2 101C     		mov	r0, r2
 955 01b4 191C     		mov	r1, r3
 956 01b6 FFF7FEFF 		bl	RTCSync
 417:.\lib_Network/network.c ****                     noConnect = NUM_CONNECT_ATTEMPS;
 957              		.loc 1 417 0
 958 01ba FA23     		mov	r3, #250
 959 01bc 9B00     		lsl	r3, r3, #2
 960 01be 3B61     		str	r3, [r7, #16]
 418:.\lib_Network/network.c ****                     result = TIME_SYNC_OK;
 961              		.loc 1 418 0
 962 01c0 1A23     		mov	r3, #26
 963 01c2 FB18     		add	r3, r7, r3
 964 01c4 0022     		mov	r2, #0
 965 01c6 1A80     		strh	r2, [r3]
 966              	.LBE5:
 967 01c8 01E0     		b	.L63
 968              	.L64:
 419:.\lib_Network/network.c ****                     
 420:.\lib_Network/network.c ****                     #ifdef DEBUG_INFO
 421:.\lib_Network/network.c ****                         sprintf(uartBuff, "DELIBERY = %u:%u",deliveryTime, deliveryMs);
 422:.\lib_Network/network.c ****                         SW_UART_DEBUG_PutString(uartBuff);
 423:.\lib_Network/network.c ****                     #endif
 424:.\lib_Network/network.c ****                 }
 425:.\lib_Network/network.c ****                 else
 426:.\lib_Network/network.c ****                 {
 427:.\lib_Network/network.c ****                     resultReceive = NO_READ;
 969              		.loc 1 427 0
 970 01ca 0023     		mov	r3, #0
 971 01cc 7B61     		str	r3, [r7, #20]
 972              	.L63:
 428:.\lib_Network/network.c ****                 }
 429:.\lib_Network/network.c ****             }
 430:.\lib_Network/network.c ****             CyDelay(10);
 973              		.loc 1 430 0
 974 01ce 0A20     		mov	r0, #10
 975 01d0 FFF7FEFF 		bl	CyDelay
 431:.\lib_Network/network.c ****             noConnect++;
 976              		.loc 1 431 0
 977 01d4 3B69     		ldr	r3, [r7, #16]
 978 01d6 0133     		add	r3, r3, #1
 979 01d8 3B61     		str	r3, [r7, #16]
 980              	.L62:
 981              	.LBE4:
ARM GAS  C:\Users\Petro\AppData\Local\Temp\cchgZgX0.s 			page 26


 393:.\lib_Network/network.c ****         {
 982              		.loc 1 393 0
 983 01da 7B69     		ldr	r3, [r7, #20]
 984 01dc 002B     		cmp	r3, #0
 985 01de 03D1     		bne	.L66
 393:.\lib_Network/network.c ****         {
 986              		.loc 1 393 0 is_stmt 0 discriminator 1
 987 01e0 3B69     		ldr	r3, [r7, #16]
 988 01e2 0F4A     		ldr	r2, .L69+20
 989 01e4 9342     		cmp	r3, r2
 990 01e6 A2D9     		bls	.L67
 991              	.L66:
 432:.\lib_Network/network.c ****         }
 433:.\lib_Network/network.c **** 
 434:.\lib_Network/network.c ****         NTPsendTime(0,0,0,0,IDreceivePacket);
 992              		.loc 1 434 0 is_stmt 1
 993 01e8 0823     		mov	r3, #8
 994 01ea FB18     		add	r3, r7, r3
 995 01ec 1B88     		ldrh	r3, [r3]
 996 01ee 0093     		str	r3, [sp]
 997 01f0 0020     		mov	r0, #0
 998 01f2 0021     		mov	r1, #0
 999 01f4 0022     		mov	r2, #0
 1000 01f6 0023     		mov	r3, #0
 1001 01f8 FFF7FEFF 		bl	NTPsendTime
 1002              	.L61:
 435:.\lib_Network/network.c ****     }
 436:.\lib_Network/network.c ****     return result;
 1003              		.loc 1 436 0
 1004 01fc 1A23     		mov	r3, #26
 1005 01fe FB18     		add	r3, r7, r3
 1006 0200 1B88     		ldrh	r3, [r3]
 1007              	.L68:
 437:.\lib_Network/network.c **** }
 1008              		.loc 1 437 0 discriminator 1
 1009 0202 181C     		mov	r0, r3
 1010 0204 BD46     		mov	sp, r7
 1011 0206 09B0     		add	sp, sp, #36
 1012              		@ sp needed
 1013 0208 90BD     		pop	{r4, r7, pc}
 1014              	.L70:
 1015 020a C046     		.align	2
 1016              	.L69:
 1017 020c 04000000 		.word	unixTime+4
 1018 0210 02000000 		.word	millisTime+2
 1019 0214 00000000 		.word	unixTime
 1020 0218 00000000 		.word	millisTime
 1021 021c 40420F00 		.word	1000000
 1022 0220 E7030000 		.word	999
 1023 0224 18FCFFFF 		.word	-1000
 1024              		.cfi_endproc
 1025              	.LFE38:
 1026              		.size	NTPsync, .-NTPsync
 1027              		.section	.text.ReceiveRealTime,"ax",%progbits
 1028              		.align	2
 1029              		.global	ReceiveRealTime
 1030              		.code	16
ARM GAS  C:\Users\Petro\AppData\Local\Temp\cchgZgX0.s 			page 27


 1031              		.thumb_func
 1032              		.type	ReceiveRealTime, %function
 1033              	ReceiveRealTime:
 1034              	.LFB39:
 438:.\lib_Network/network.c **** 
 439:.\lib_Network/network.c **** /*******************************************************************************
 440:.\lib_Network/network.c **** * Function Name: ReceiveRealTime
 441:.\lib_Network/network.c **** ********************************************************************************
 442:.\lib_Network/network.c **** *
 443:.\lib_Network/network.c **** * Summary:
 444:.\lib_Network/network.c **** *   receive and set real time
 445:.\lib_Network/network.c **** * Return:
 446:.\lib_Network/network.c **** *   READ_OK or NO_READ
 447:.\lib_Network/network.c **** *
 448:.\lib_Network/network.c **** *******************************************************************************/
 449:.\lib_Network/network.c **** uint32_t ReceiveRealTime(void)
 450:.\lib_Network/network.c **** {
 1035              		.loc 1 450 0
 1036              		.cfi_startproc
 1037 0000 80B5     		push	{r7, lr}
 1038              		.cfi_def_cfa_offset 8
 1039              		.cfi_offset 7, -8
 1040              		.cfi_offset 14, -4
 1041 0002 84B0     		sub	sp, sp, #16
 1042              		.cfi_def_cfa_offset 24
 1043 0004 02AF     		add	r7, sp, #8
 1044              		.cfi_def_cfa 7, 16
 451:.\lib_Network/network.c ****     uint32_t result;
 452:.\lib_Network/network.c ****     uint16_t IDpacket;
 453:.\lib_Network/network.c ****     
 454:.\lib_Network/network.c ****     result = NO_READ;
 1045              		.loc 1 454 0
 1046 0006 0023     		mov	r3, #0
 1047 0008 7B60     		str	r3, [r7, #4]
 455:.\lib_Network/network.c ****     noConnect = 0;
 1048              		.loc 1 455 0
 1049 000a 294B     		ldr	r3, .L78
 1050 000c 0022     		mov	r2, #0
 1051 000e 1A60     		str	r2, [r3]
 456:.\lib_Network/network.c ****     
 457:.\lib_Network/network.c ****     #ifdef DEBUG_INFO
 458:.\lib_Network/network.c ****         SW_UART_DEBUG_PutString("start receive real time\n\r");
 459:.\lib_Network/network.c ****     #endif
 460:.\lib_Network/network.c ****     
 461:.\lib_Network/network.c ****     while(result == NO_READ && noConnect < NUM_CONNECT_ATTEMPS)
 1052              		.loc 1 461 0
 1053 0010 40E0     		b	.L72
 1054              	.L76:
 462:.\lib_Network/network.c ****     {
 463:.\lib_Network/network.c ****             #ifdef DEBUG_TIME
 464:.\lib_Network/network.c ****                 debug_Write(1);
 465:.\lib_Network/network.c ****                 debug_Write(0);
 466:.\lib_Network/network.c ****                 debug_Write(1);
 467:.\lib_Network/network.c ****                 debug_Write(0);
 468:.\lib_Network/network.c ****             #endif
 469:.\lib_Network/network.c ****         result = NTPreceiveTime(&unixTime[T1], &millisTime[T1], &IDpacket,SAVE_TIME);
 1055              		.loc 1 469 0
ARM GAS  C:\Users\Petro\AppData\Local\Temp\cchgZgX0.s 			page 28


 1056 0012 2849     		ldr	r1, .L78+4
 1057 0014 284A     		ldr	r2, .L78+8
 1058 0016 BB1C     		add	r3, r7, #2
 1059 0018 081C     		mov	r0, r1
 1060 001a 111C     		mov	r1, r2
 1061 001c 1A1C     		mov	r2, r3
 1062 001e 0123     		mov	r3, #1
 1063 0020 FFF7FEFF 		bl	NTPreceiveTime
 1064 0024 031C     		mov	r3, r0
 1065 0026 7B60     		str	r3, [r7, #4]
 470:.\lib_Network/network.c **** 
 471:.\lib_Network/network.c ****         if((result == READ_OK) && (IDpacket == 1))
 1066              		.loc 1 471 0
 1067 0028 7B68     		ldr	r3, [r7, #4]
 1068 002a 012B     		cmp	r3, #1
 1069 002c 28D1     		bne	.L73
 1070              		.loc 1 471 0 is_stmt 0 discriminator 1
 1071 002e BB1C     		add	r3, r7, #2
 1072 0030 1B88     		ldrh	r3, [r3]
 1073 0032 012B     		cmp	r3, #1
 1074 0034 24D1     		bne	.L73
 472:.\lib_Network/network.c ****         {
 473:.\lib_Network/network.c ****             if((millisTime[T1]) > 1000)
 1075              		.loc 1 473 0 is_stmt 1
 1076 0036 204B     		ldr	r3, .L78+8
 1077 0038 1A88     		ldrh	r2, [r3]
 1078 003a FA23     		mov	r3, #250
 1079 003c 9B00     		lsl	r3, r3, #2
 1080 003e 9A42     		cmp	r2, r3
 1081 0040 0CD9     		bls	.L74
 474:.\lib_Network/network.c ****             {
 475:.\lib_Network/network.c ****                 unixTime[T1]++;
 1082              		.loc 1 475 0
 1083 0042 1C4B     		ldr	r3, .L78+4
 1084 0044 1B68     		ldr	r3, [r3]
 1085 0046 5A1C     		add	r2, r3, #1
 1086 0048 1A4B     		ldr	r3, .L78+4
 1087 004a 1A60     		str	r2, [r3]
 476:.\lib_Network/network.c ****                 millisTime[T1] -= 1000;
 1088              		.loc 1 476 0
 1089 004c 1A4B     		ldr	r3, .L78+8
 1090 004e 1B88     		ldrh	r3, [r3]
 1091 0050 1A4A     		ldr	r2, .L78+12
 1092 0052 9446     		mov	ip, r2
 1093 0054 6344     		add	r3, r3, ip
 1094 0056 9AB2     		uxth	r2, r3
 1095 0058 174B     		ldr	r3, .L78+8
 1096 005a 1A80     		strh	r2, [r3]
 1097              	.L74:
 477:.\lib_Network/network.c ****             }
 478:.\lib_Network/network.c ****             
 479:.\lib_Network/network.c ****             RTCSync(unixTime[T1], millisTime[T1]);
 1098              		.loc 1 479 0
 1099 005c 154B     		ldr	r3, .L78+4
 1100 005e 1A68     		ldr	r2, [r3]
 1101 0060 154B     		ldr	r3, .L78+8
 1102 0062 1B88     		ldrh	r3, [r3]
ARM GAS  C:\Users\Petro\AppData\Local\Temp\cchgZgX0.s 			page 29


 1103 0064 101C     		mov	r0, r2
 1104 0066 191C     		mov	r1, r3
 1105 0068 FFF7FEFF 		bl	RTCSync
 480:.\lib_Network/network.c **** 
 481:.\lib_Network/network.c ****             NTPsendTime(0,0,0,0,IDpacket);
 1106              		.loc 1 481 0
 1107 006c BB1C     		add	r3, r7, #2
 1108 006e 1B88     		ldrh	r3, [r3]
 1109 0070 0093     		str	r3, [sp]
 1110 0072 0020     		mov	r0, #0
 1111 0074 0021     		mov	r1, #0
 1112 0076 0022     		mov	r2, #0
 1113 0078 0023     		mov	r3, #0
 1114 007a FFF7FEFF 		bl	NTPsendTime
 1115 007e 09E0     		b	.L72
 1116              	.L73:
 482:.\lib_Network/network.c ****             
 483:.\lib_Network/network.c ****             #ifdef DEBUG_INFO
 484:.\lib_Network/network.c ****                 sprintf(uartBuff,"set time %u:%u\n\r",unixTime[T1],millisTime[T1]);
 485:.\lib_Network/network.c ****                 SW_UART_DEBUG_PutString(uartBuff);
 486:.\lib_Network/network.c ****             #endif
 487:.\lib_Network/network.c ****         }
 488:.\lib_Network/network.c ****         else
 489:.\lib_Network/network.c ****         {
 490:.\lib_Network/network.c ****             result = NO_READ;
 1117              		.loc 1 490 0
 1118 0080 0023     		mov	r3, #0
 1119 0082 7B60     		str	r3, [r7, #4]
 491:.\lib_Network/network.c ****             noConnect++;
 1120              		.loc 1 491 0
 1121 0084 0A4B     		ldr	r3, .L78
 1122 0086 1B68     		ldr	r3, [r3]
 1123 0088 5A1C     		add	r2, r3, #1
 1124 008a 094B     		ldr	r3, .L78
 1125 008c 1A60     		str	r2, [r3]
 492:.\lib_Network/network.c ****             CyDelay(100);
 1126              		.loc 1 492 0
 1127 008e 6420     		mov	r0, #100
 1128 0090 FFF7FEFF 		bl	CyDelay
 1129              	.L72:
 461:.\lib_Network/network.c ****     {
 1130              		.loc 1 461 0
 1131 0094 7B68     		ldr	r3, [r7, #4]
 1132 0096 002B     		cmp	r3, #0
 1133 0098 04D1     		bne	.L75
 461:.\lib_Network/network.c ****     {
 1134              		.loc 1 461 0 is_stmt 0 discriminator 1
 1135 009a 054B     		ldr	r3, .L78
 1136 009c 1B68     		ldr	r3, [r3]
 1137 009e 084A     		ldr	r2, .L78+16
 1138 00a0 9342     		cmp	r3, r2
 1139 00a2 B6DD     		ble	.L76
 1140              	.L75:
 493:.\lib_Network/network.c ****         }
 494:.\lib_Network/network.c ****     }
 495:.\lib_Network/network.c ****     
 496:.\lib_Network/network.c ****     return result;
ARM GAS  C:\Users\Petro\AppData\Local\Temp\cchgZgX0.s 			page 30


 1141              		.loc 1 496 0 is_stmt 1
 1142 00a4 7B68     		ldr	r3, [r7, #4]
 497:.\lib_Network/network.c **** }
 1143              		.loc 1 497 0
 1144 00a6 181C     		mov	r0, r3
 1145 00a8 BD46     		mov	sp, r7
 1146 00aa 02B0     		add	sp, sp, #8
 1147              		@ sp needed
 1148 00ac 80BD     		pop	{r7, pc}
 1149              	.L79:
 1150 00ae C046     		.align	2
 1151              	.L78:
 1152 00b0 04000000 		.word	noConnect
 1153 00b4 00000000 		.word	unixTime
 1154 00b8 00000000 		.word	millisTime
 1155 00bc 18FCFFFF 		.word	-1000
 1156 00c0 E7030000 		.word	999
 1157              		.cfi_endproc
 1158              	.LFE39:
 1159              		.size	ReceiveRealTime, .-ReceiveRealTime
 1160              		.section	.text.NTPreceiveTime,"ax",%progbits
 1161              		.align	2
 1162              		.global	NTPreceiveTime
 1163              		.code	16
 1164              		.thumb_func
 1165              		.type	NTPreceiveTime, %function
 1166              	NTPreceiveTime:
 1167              	.LFB40:
 498:.\lib_Network/network.c **** /*******************************************************************************
 499:.\lib_Network/network.c **** * Function Name: NTPreceiveTime
 500:.\lib_Network/network.c **** ********************************************************************************
 501:.\lib_Network/network.c **** *
 502:.\lib_Network/network.c **** * Summary:
 503:.\lib_Network/network.c **** *   receive time to NTP protocol
 504:.\lib_Network/network.c **** * Parametrs:
 505:.\lib_Network/network.c **** *   *unixTime2 - time in unix format
 506:.\lib_Network/network.c **** *   *millisTime2 - millis time
 507:.\lib_Network/network.c **** *   *IDreceive - ID packet
 508:.\lib_Network/network.c **** *   saveTime - command save time from finish
 509:.\lib_Network/network.c **** * Return:
 510:.\lib_Network/network.c **** *   READ_OK or NO_READ
 511:.\lib_Network/network.c **** *
 512:.\lib_Network/network.c **** *******************************************************************************/
 513:.\lib_Network/network.c **** uint32_t NTPreceiveTime(uint32_t *unixTime2,uint16_t *millisTime2, uint16_t *IDreceive,uint32_t sav
 514:.\lib_Network/network.c **** {
 1168              		.loc 1 514 0
 1169              		.cfi_startproc
 1170 0000 90B5     		push	{r4, r7, lr}
 1171              		.cfi_def_cfa_offset 12
 1172              		.cfi_offset 4, -12
 1173              		.cfi_offset 7, -8
 1174              		.cfi_offset 14, -4
 1175 0002 8DB0     		sub	sp, sp, #52
 1176              		.cfi_def_cfa_offset 64
 1177 0004 00AF     		add	r7, sp, #0
 1178              		.cfi_def_cfa_register 7
 1179 0006 F860     		str	r0, [r7, #12]
ARM GAS  C:\Users\Petro\AppData\Local\Temp\cchgZgX0.s 			page 31


 1180 0008 B960     		str	r1, [r7, #8]
 1181 000a 7A60     		str	r2, [r7, #4]
 1182 000c 3B60     		str	r3, [r7]
 515:.\lib_Network/network.c ****     uint8_t byte;
 516:.\lib_Network/network.c ****     uint32_t result;
 517:.\lib_Network/network.c ****     
 518:.\lib_Network/network.c ****     result = READ_OK;
 1183              		.loc 1 518 0
 1184 000e 0123     		mov	r3, #1
 1185 0010 FB62     		str	r3, [r7, #44]
 519:.\lib_Network/network.c ****     
 520:.\lib_Network/network.c ****     NTPResp recvDataNTP;
 521:.\lib_Network/network.c ****     while((UART_XB_SpiUartGetRxBufferSize() > 0) && ((byte=UART_XB_UartGetChar()) != 0))
 1186              		.loc 1 521 0
 1187 0012 40E0     		b	.L81
 1188              	.L87:
 522:.\lib_Network/network.c ****     {                    
 523:.\lib_Network/network.c ****         result = NtpUnpackData(&recvDataNTP, (uint8_t)(byte & 0xFF));
 1189              		.loc 1 523 0
 1190 0014 1423     		mov	r3, #20
 1191 0016 FA18     		add	r2, r7, r3
 1192 0018 2B23     		mov	r3, #43
 1193 001a FB18     		add	r3, r7, r3
 1194 001c 1B78     		ldrb	r3, [r3]
 1195 001e 101C     		mov	r0, r2
 1196 0020 191C     		mov	r1, r3
 1197 0022 FFF7FEFF 		bl	NtpUnpackData
 1198 0026 031C     		mov	r3, r0
 1199 0028 FB62     		str	r3, [r7, #44]
 524:.\lib_Network/network.c ****         
 525:.\lib_Network/network.c ****         #ifdef DEBUG_INFO
 526:.\lib_Network/network.c ****             //SW_UART_DEBUG_PutChar(byte);
 527:.\lib_Network/network.c ****         #endif
 528:.\lib_Network/network.c ****         
 529:.\lib_Network/network.c ****         CyDelay(1);
 1200              		.loc 1 529 0
 1201 002a 0120     		mov	r0, #1
 1202 002c FFF7FEFF 		bl	CyDelay
 530:.\lib_Network/network.c ****                     
 531:.\lib_Network/network.c ****         if(recvDataNTP.EndPacket == 1)
 1203              		.loc 1 531 0
 1204 0030 1423     		mov	r3, #20
 1205 0032 FB18     		add	r3, r7, r3
 1206 0034 1B7C     		ldrb	r3, [r3, #16]
 1207 0036 012B     		cmp	r3, #1
 1208 0038 2BD1     		bne	.L82
 532:.\lib_Network/network.c ****         {
 533:.\lib_Network/network.c ****             /*save unix time*/
 534:.\lib_Network/network.c ****             
 535:.\lib_Network/network.c ****             *IDreceive = recvDataNTP.Id;
 1209              		.loc 1 535 0
 1210 003a 1423     		mov	r3, #20
 1211 003c FB18     		add	r3, r7, r3
 1212 003e 1A88     		ldrh	r2, [r3]
 1213 0040 7B68     		ldr	r3, [r7, #4]
 1214 0042 1A80     		strh	r2, [r3]
 536:.\lib_Network/network.c ****             if(saveTime == SAVE_TIME)
ARM GAS  C:\Users\Petro\AppData\Local\Temp\cchgZgX0.s 			page 32


 1215              		.loc 1 536 0
 1216 0044 3B68     		ldr	r3, [r7]
 1217 0046 012B     		cmp	r3, #1
 1218 0048 0AD1     		bne	.L83
 537:.\lib_Network/network.c ****             {
 538:.\lib_Network/network.c ****                 *unixTime2 = recvDataNTP.Data1;
 1219              		.loc 1 538 0
 1220 004a 1423     		mov	r3, #20
 1221 004c FB18     		add	r3, r7, r3
 1222 004e 5A68     		ldr	r2, [r3, #4]
 1223 0050 FB68     		ldr	r3, [r7, #12]
 1224 0052 1A60     		str	r2, [r3]
 539:.\lib_Network/network.c ****                 *millisTime2 = recvDataNTP.DataMs1;
 1225              		.loc 1 539 0
 1226 0054 1423     		mov	r3, #20
 1227 0056 FB18     		add	r3, r7, r3
 1228 0058 1A89     		ldrh	r2, [r3, #8]
 1229 005a BB68     		ldr	r3, [r7, #8]
 1230 005c 1A80     		strh	r2, [r3]
 1231 005e 16E0     		b	.L84
 1232              	.L83:
 540:.\lib_Network/network.c ****             }
 541:.\lib_Network/network.c ****             else
 542:.\lib_Network/network.c ****             {
 543:.\lib_Network/network.c ****                 *unixTime2 = RTCGetUnixTime();
 1233              		.loc 1 543 0
 1234 0060 FFF7FEFF 		bl	RTCGetUnixTime
 1235 0064 031C     		mov	r3, r0
 1236 0066 0C1C     		mov	r4, r1
 1237 0068 1A1C     		mov	r2, r3
 1238 006a FB68     		ldr	r3, [r7, #12]
 1239 006c 1A60     		str	r2, [r3]
 544:.\lib_Network/network.c ****                 *millisTime2 = RTCgetRecentMs();
 1240              		.loc 1 544 0
 1241 006e FFF7FEFF 		bl	RTCgetRecentMs
 1242 0072 031C     		mov	r3, r0
 1243 0074 9AB2     		uxth	r2, r3
 1244 0076 BB68     		ldr	r3, [r7, #8]
 1245 0078 1A80     		strh	r2, [r3]
 545:.\lib_Network/network.c ****                 /*test mode*/
 546:.\lib_Network/network.c ****                 RTCSync(recvDataNTP.Data1, recvDataNTP.DataMs1);
 1246              		.loc 1 546 0
 1247 007a 1423     		mov	r3, #20
 1248 007c FB18     		add	r3, r7, r3
 1249 007e 5A68     		ldr	r2, [r3, #4]
 1250 0080 1423     		mov	r3, #20
 1251 0082 FB18     		add	r3, r7, r3
 1252 0084 1B89     		ldrh	r3, [r3, #8]
 1253 0086 101C     		mov	r0, r2
 1254 0088 191C     		mov	r1, r3
 1255 008a FFF7FEFF 		bl	RTCSync
 1256              	.L84:
 547:.\lib_Network/network.c ****             }
 548:.\lib_Network/network.c ****            
 549:.\lib_Network/network.c ****             #ifdef DEBUG_INFO
 550:.\lib_Network/network.c ****                sprintf(uartBuff,"\n\r");
 551:.\lib_Network/network.c ****                SW_UART_DEBUG_PutString(uartBuff);
ARM GAS  C:\Users\Petro\AppData\Local\Temp\cchgZgX0.s 			page 33


 552:.\lib_Network/network.c ****             #endif
 553:.\lib_Network/network.c ****             return READ_OK;
 1257              		.loc 1 553 0
 1258 008e 0123     		mov	r3, #1
 1259 0090 13E0     		b	.L88
 1260              	.L82:
 554:.\lib_Network/network.c ****         }
 555:.\lib_Network/network.c ****         result = NO_READ;
 1261              		.loc 1 555 0
 1262 0092 0023     		mov	r3, #0
 1263 0094 FB62     		str	r3, [r7, #44]
 1264              	.L81:
 521:.\lib_Network/network.c ****     {                    
 1265              		.loc 1 521 0
 1266 0096 FFF7FEFF 		bl	UART_XB_SpiUartGetRxBufferSize
 1267 009a 031E     		sub	r3, r0, #0
 1268 009c 0AD0     		beq	.L86
 521:.\lib_Network/network.c ****     {                    
 1269              		.loc 1 521 0 is_stmt 0 discriminator 1
 1270 009e FFF7FEFF 		bl	UART_XB_UartGetChar
 1271 00a2 021C     		mov	r2, r0
 1272 00a4 2B23     		mov	r3, #43
 1273 00a6 FB18     		add	r3, r7, r3
 1274 00a8 1A70     		strb	r2, [r3]
 1275 00aa 2B23     		mov	r3, #43
 1276 00ac FB18     		add	r3, r7, r3
 1277 00ae 1B78     		ldrb	r3, [r3]
 1278 00b0 002B     		cmp	r3, #0
 1279 00b2 AFD1     		bne	.L87
 1280              	.L86:
 556:.\lib_Network/network.c ****     }
 557:.\lib_Network/network.c ****     result = NO_READ;
 1281              		.loc 1 557 0 is_stmt 1
 1282 00b4 0023     		mov	r3, #0
 1283 00b6 FB62     		str	r3, [r7, #44]
 558:.\lib_Network/network.c ****     
 559:.\lib_Network/network.c ****     return result;
 1284              		.loc 1 559 0
 1285 00b8 FB6A     		ldr	r3, [r7, #44]
 1286              	.L88:
 560:.\lib_Network/network.c **** }
 1287              		.loc 1 560 0 discriminator 1
 1288 00ba 181C     		mov	r0, r3
 1289 00bc BD46     		mov	sp, r7
 1290 00be 0DB0     		add	sp, sp, #52
 1291              		@ sp needed
 1292 00c0 90BD     		pop	{r4, r7, pc}
 1293              		.cfi_endproc
 1294              	.LFE40:
 1295              		.size	NTPreceiveTime, .-NTPreceiveTime
 1296 00c2 C046     		.section	.rodata
 1297 001a 0000     		.align	2
 1298              	.LC28:
 1299 001c 25303858 		.ascii	"%08X%03X%08X%03X\000"
 1299      25303358 
 1299      25303858 
 1299      25303358 
ARM GAS  C:\Users\Petro\AppData\Local\Temp\cchgZgX0.s 			page 34


 1299      00
 1300 002d 000000   		.section	.text.NTPsendTime,"ax",%progbits
 1301              		.align	2
 1302              		.global	NTPsendTime
 1303              		.code	16
 1304              		.thumb_func
 1305              		.type	NTPsendTime, %function
 1306              	NTPsendTime:
 1307              	.LFB41:
 561:.\lib_Network/network.c **** 
 562:.\lib_Network/network.c **** /*******************************************************************************
 563:.\lib_Network/network.c **** * Function Name: NTPsendTime
 564:.\lib_Network/network.c **** ********************************************************************************
 565:.\lib_Network/network.c **** *
 566:.\lib_Network/network.c **** * Summary:
 567:.\lib_Network/network.c **** *   send time t2 and t3 to NTP protocol
 568:.\lib_Network/network.c **** * Parametrs:
 569:.\lib_Network/network.c **** *   unixTime2,unixTime3 - time in unix format
 570:.\lib_Network/network.c **** *   millis2, millis3 - millis time
 571:.\lib_Network/network.c **** *   ID - ID packet
 572:.\lib_Network/network.c **** *
 573:.\lib_Network/network.c **** *******************************************************************************/
 574:.\lib_Network/network.c **** void NTPsendTime(uint32_t unixTime2,uint32_t unixTime3,uint16_t millis2,uint16_t millis3, uint16_t 
 575:.\lib_Network/network.c **** {
 1308              		.loc 1 575 0
 1309              		.cfi_startproc
 1310 0000 B0B5     		push	{r4, r5, r7, lr}
 1311              		.cfi_def_cfa_offset 16
 1312              		.cfi_offset 4, -16
 1313              		.cfi_offset 5, -12
 1314              		.cfi_offset 7, -8
 1315              		.cfi_offset 14, -4
 1316 0002 A0B0     		sub	sp, sp, #128
 1317              		.cfi_def_cfa_offset 144
 1318 0004 02AF     		add	r7, sp, #8
 1319              		.cfi_def_cfa 7, 136
 1320 0006 F860     		str	r0, [r7, #12]
 1321 0008 B960     		str	r1, [r7, #8]
 1322 000a 191C     		mov	r1, r3
 1323 000c BB1D     		add	r3, r7, #6
 1324 000e 1A80     		strh	r2, [r3]
 1325 0010 3B1D     		add	r3, r7, #4
 1326 0012 0A1C     		add	r2, r1, #0
 1327 0014 1A80     		strh	r2, [r3]
 576:.\lib_Network/network.c ****     char sendBuffer[DATA_BUFFER];
 577:.\lib_Network/network.c ****     char sendData[DATA_BUFFER];
 578:.\lib_Network/network.c ****     
 579:.\lib_Network/network.c ****     /*pack data*/
 580:.\lib_Network/network.c ****     sprintf(sendData,"%08X%03X%08X%03X", unixTime2, millis2, unixTime3, millis3); 
 1328              		.loc 1 580 0
 1329 0016 BB1D     		add	r3, r7, #6
 1330 0018 1C88     		ldrh	r4, [r3]
 1331 001a 3B1D     		add	r3, r7, #4
 1332 001c 1B88     		ldrh	r3, [r3]
 1333 001e 1022     		mov	r2, #16
 1334 0020 B818     		add	r0, r7, r2
 1335 0022 0E49     		ldr	r1, .L90
ARM GAS  C:\Users\Petro\AppData\Local\Temp\cchgZgX0.s 			page 35


 1336 0024 FD68     		ldr	r5, [r7, #12]
 1337 0026 BA68     		ldr	r2, [r7, #8]
 1338 0028 0092     		str	r2, [sp]
 1339 002a 0193     		str	r3, [sp, #4]
 1340 002c 2A1C     		mov	r2, r5
 1341 002e 231C     		mov	r3, r4
 1342 0030 FFF7FEFF 		bl	sprintf
 581:.\lib_Network/network.c ****     PackData(sendBuffer, (uint8_t *)sendData, ID);
 1343              		.loc 1 581 0
 1344 0034 4423     		mov	r3, #68
 1345 0036 F918     		add	r1, r7, r3
 1346 0038 1023     		mov	r3, #16
 1347 003a FA18     		add	r2, r7, r3
 1348 003c 8823     		mov	r3, #136
 1349 003e FB18     		add	r3, r7, r3
 1350 0040 1B88     		ldrh	r3, [r3]
 1351 0042 081C     		mov	r0, r1
 1352 0044 111C     		mov	r1, r2
 1353 0046 1A1C     		mov	r2, r3
 1354 0048 FFF7FEFF 		bl	PackData
 582:.\lib_Network/network.c ****     UART_XB_UartPutString(sendBuffer);
 1355              		.loc 1 582 0
 1356 004c 4423     		mov	r3, #68
 1357 004e FB18     		add	r3, r7, r3
 1358 0050 181C     		mov	r0, r3
 1359 0052 FFF7FEFF 		bl	UART_XB_UartPutString
 583:.\lib_Network/network.c ****     
 584:.\lib_Network/network.c ****     #ifdef DEBUG_INFO
 585:.\lib_Network/network.c ****        SW_UART_DEBUG_PutString(sendBuffer);
 586:.\lib_Network/network.c ****        SW_UART_DEBUG_PutString("\n\r"); 
 587:.\lib_Network/network.c ****     #endif
 588:.\lib_Network/network.c **** }
 1360              		.loc 1 588 0
 1361 0056 BD46     		mov	sp, r7
 1362 0058 1EB0     		add	sp, sp, #120
 1363              		@ sp needed
 1364 005a B0BD     		pop	{r4, r5, r7, pc}
 1365              	.L91:
 1366              		.align	2
 1367              	.L90:
 1368 005c 1C000000 		.word	.LC28
 1369              		.cfi_endproc
 1370              	.LFE41:
 1371              		.size	NTPsendTime, .-NTPsendTime
 1372              		.text
 1373              	.Letext0:
 1374              		.file 2 "c:\\program files (x86)\\cypress\\psoc creator\\3.3\\psoc creator\\import\\gnu\\arm\\4.9.
 1375              		.file 3 "c:\\program files (x86)\\cypress\\psoc creator\\3.3\\psoc creator\\import\\gnu\\arm\\4.9.
 1376              		.file 4 "./lib_Network\\svt.h"
 1377              		.file 5 "./lib_Network\\ntp.h"
 1378              		.section	.debug_info,"",%progbits
 1379              	.Ldebug_info0:
 1380 0000 8B060000 		.4byte	0x68b
 1381 0004 0400     		.2byte	0x4
 1382 0006 00000000 		.4byte	.Ldebug_abbrev0
 1383 000a 04       		.byte	0x4
 1384 000b 01       		.uleb128 0x1
ARM GAS  C:\Users\Petro\AppData\Local\Temp\cchgZgX0.s 			page 36


 1385 000c 93020000 		.4byte	.LASF84
 1386 0010 01       		.byte	0x1
 1387 0011 84010000 		.4byte	.LASF85
 1388 0015 6E030000 		.4byte	.LASF86
 1389 0019 00000000 		.4byte	.Ldebug_ranges0+0
 1390 001d 00000000 		.4byte	0
 1391 0021 00000000 		.4byte	.Ldebug_line0
 1392 0025 02       		.uleb128 0x2
 1393 0026 01       		.byte	0x1
 1394 0027 06       		.byte	0x6
 1395 0028 E5010000 		.4byte	.LASF0
 1396 002c 03       		.uleb128 0x3
 1397 002d 9C010000 		.4byte	.LASF3
 1398 0031 02       		.byte	0x2
 1399 0032 1D       		.byte	0x1d
 1400 0033 37000000 		.4byte	0x37
 1401 0037 02       		.uleb128 0x2
 1402 0038 01       		.byte	0x1
 1403 0039 08       		.byte	0x8
 1404 003a C0010000 		.4byte	.LASF1
 1405 003e 02       		.uleb128 0x2
 1406 003f 02       		.byte	0x2
 1407 0040 05       		.byte	0x5
 1408 0041 BE000000 		.4byte	.LASF2
 1409 0045 03       		.uleb128 0x3
 1410 0046 B3000000 		.4byte	.LASF4
 1411 004a 02       		.byte	0x2
 1412 004b 2B       		.byte	0x2b
 1413 004c 50000000 		.4byte	0x50
 1414 0050 02       		.uleb128 0x2
 1415 0051 02       		.byte	0x2
 1416 0052 07       		.byte	0x7
 1417 0053 2F030000 		.4byte	.LASF5
 1418 0057 02       		.uleb128 0x2
 1419 0058 04       		.byte	0x4
 1420 0059 05       		.byte	0x5
 1421 005a 4C010000 		.4byte	.LASF6
 1422 005e 03       		.uleb128 0x3
 1423 005f 9E000000 		.4byte	.LASF7
 1424 0063 02       		.byte	0x2
 1425 0064 41       		.byte	0x41
 1426 0065 69000000 		.4byte	0x69
 1427 0069 02       		.uleb128 0x2
 1428 006a 04       		.byte	0x4
 1429 006b 07       		.byte	0x7
 1430 006c 3D020000 		.4byte	.LASF8
 1431 0070 02       		.uleb128 0x2
 1432 0071 08       		.byte	0x8
 1433 0072 05       		.byte	0x5
 1434 0073 23010000 		.4byte	.LASF9
 1435 0077 03       		.uleb128 0x3
 1436 0078 63030000 		.4byte	.LASF10
 1437 007c 02       		.byte	0x2
 1438 007d 5B       		.byte	0x5b
 1439 007e 82000000 		.4byte	0x82
 1440 0082 02       		.uleb128 0x2
 1441 0083 08       		.byte	0x8
ARM GAS  C:\Users\Petro\AppData\Local\Temp\cchgZgX0.s 			page 37


 1442 0084 07       		.byte	0x7
 1443 0085 F1010000 		.4byte	.LASF11
 1444 0089 04       		.uleb128 0x4
 1445 008a 04       		.byte	0x4
 1446 008b 05       		.byte	0x5
 1447 008c 696E7400 		.ascii	"int\000"
 1448 0090 02       		.uleb128 0x2
 1449 0091 04       		.byte	0x4
 1450 0092 07       		.byte	0x7
 1451 0093 27020000 		.4byte	.LASF12
 1452 0097 03       		.uleb128 0x3
 1453 0098 DE000000 		.4byte	.LASF13
 1454 009c 03       		.byte	0x3
 1455 009d 15       		.byte	0x15
 1456 009e 2C000000 		.4byte	0x2c
 1457 00a2 03       		.uleb128 0x3
 1458 00a3 34020000 		.4byte	.LASF14
 1459 00a7 03       		.byte	0x3
 1460 00a8 21       		.byte	0x21
 1461 00a9 45000000 		.4byte	0x45
 1462 00ad 03       		.uleb128 0x3
 1463 00ae 08020000 		.4byte	.LASF15
 1464 00b2 03       		.byte	0x3
 1465 00b3 2D       		.byte	0x2d
 1466 00b4 5E000000 		.4byte	0x5e
 1467 00b8 03       		.uleb128 0x3
 1468 00b9 4E000000 		.4byte	.LASF16
 1469 00bd 03       		.byte	0x3
 1470 00be 39       		.byte	0x39
 1471 00bf 77000000 		.4byte	0x77
 1472 00c3 02       		.uleb128 0x2
 1473 00c4 04       		.byte	0x4
 1474 00c5 04       		.byte	0x4
 1475 00c6 13010000 		.4byte	.LASF17
 1476 00ca 02       		.uleb128 0x2
 1477 00cb 08       		.byte	0x8
 1478 00cc 04       		.byte	0x4
 1479 00cd 03040000 		.4byte	.LASF18
 1480 00d1 02       		.uleb128 0x2
 1481 00d2 01       		.byte	0x1
 1482 00d3 08       		.byte	0x8
 1483 00d4 7F020000 		.4byte	.LASF19
 1484 00d8 02       		.uleb128 0x2
 1485 00d9 04       		.byte	0x4
 1486 00da 07       		.byte	0x7
 1487 00db 68000000 		.4byte	.LASF20
 1488 00df 05       		.uleb128 0x5
 1489 00e0 36040000 		.4byte	.LASF87
 1490 00e4 20       		.byte	0x20
 1491 00e5 04       		.byte	0x4
 1492 00e6 0D       		.byte	0xd
 1493 00e7 40010000 		.4byte	0x140
 1494 00eb 06       		.uleb128 0x6
 1495 00ec 53657100 		.ascii	"Seq\000"
 1496 00f0 04       		.byte	0x4
 1497 00f1 0F       		.byte	0xf
 1498 00f2 A2000000 		.4byte	0xa2
ARM GAS  C:\Users\Petro\AppData\Local\Temp\cchgZgX0.s 			page 38


 1499 00f6 00       		.byte	0
 1500 00f7 07       		.uleb128 0x7
 1501 00f8 6C020000 		.4byte	.LASF21
 1502 00fc 04       		.byte	0x4
 1503 00fd 10       		.byte	0x10
 1504 00fe 89000000 		.4byte	0x89
 1505 0102 04       		.byte	0x4
 1506 0103 07       		.uleb128 0x7
 1507 0104 57030000 		.4byte	.LASF22
 1508 0108 04       		.byte	0x4
 1509 0109 11       		.byte	0x11
 1510 010a B8000000 		.4byte	0xb8
 1511 010e 08       		.byte	0x8
 1512 010f 07       		.uleb128 0x7
 1513 0110 5D030000 		.4byte	.LASF23
 1514 0114 04       		.byte	0x4
 1515 0115 12       		.byte	0x12
 1516 0116 A2000000 		.4byte	0xa2
 1517 011a 10       		.byte	0x10
 1518 011b 07       		.uleb128 0x7
 1519 011c 43040000 		.4byte	.LASF24
 1520 0120 04       		.byte	0x4
 1521 0121 13       		.byte	0x13
 1522 0122 A2000000 		.4byte	0xa2
 1523 0126 12       		.byte	0x12
 1524 0127 07       		.uleb128 0x7
 1525 0128 B7010000 		.4byte	.LASF25
 1526 012c 04       		.byte	0x4
 1527 012d 14       		.byte	0x14
 1528 012e AD000000 		.4byte	0xad
 1529 0132 14       		.byte	0x14
 1530 0133 07       		.uleb128 0x7
 1531 0134 19010000 		.4byte	.LASF26
 1532 0138 04       		.byte	0x4
 1533 0139 15       		.byte	0x15
 1534 013a 97000000 		.4byte	0x97
 1535 013e 18       		.byte	0x18
 1536 013f 00       		.byte	0
 1537 0140 08       		.uleb128 0x8
 1538 0141 14       		.byte	0x14
 1539 0142 05       		.byte	0x5
 1540 0143 07       		.byte	0x7
 1541 0144 84010000 		.4byte	0x184
 1542 0148 06       		.uleb128 0x6
 1543 0149 496400   		.ascii	"Id\000"
 1544 014c 05       		.byte	0x5
 1545 014d 09       		.byte	0x9
 1546 014e A2000000 		.4byte	0xa2
 1547 0152 00       		.byte	0
 1548 0153 07       		.uleb128 0x7
 1549 0154 57030000 		.4byte	.LASF22
 1550 0158 05       		.byte	0x5
 1551 0159 0A       		.byte	0xa
 1552 015a AD000000 		.4byte	0xad
 1553 015e 04       		.byte	0x4
 1554 015f 07       		.uleb128 0x7
 1555 0160 18000000 		.4byte	.LASF27
ARM GAS  C:\Users\Petro\AppData\Local\Temp\cchgZgX0.s 			page 39


 1556 0164 05       		.byte	0x5
 1557 0165 0B       		.byte	0xb
 1558 0166 A2000000 		.4byte	0xa2
 1559 016a 08       		.byte	0x8
 1560 016b 07       		.uleb128 0x7
 1561 016c B7010000 		.4byte	.LASF25
 1562 0170 05       		.byte	0x5
 1563 0171 0C       		.byte	0xc
 1564 0172 AD000000 		.4byte	0xad
 1565 0176 0C       		.byte	0xc
 1566 0177 07       		.uleb128 0x7
 1567 0178 19010000 		.4byte	.LASF26
 1568 017c 05       		.byte	0x5
 1569 017d 0D       		.byte	0xd
 1570 017e 97000000 		.4byte	0x97
 1571 0182 10       		.byte	0x10
 1572 0183 00       		.byte	0
 1573 0184 03       		.uleb128 0x3
 1574 0185 07000000 		.4byte	.LASF28
 1575 0189 05       		.byte	0x5
 1576 018a 0E       		.byte	0xe
 1577 018b 40010000 		.4byte	0x140
 1578 018f 08       		.uleb128 0x8
 1579 0190 18       		.byte	0x18
 1580 0191 01       		.byte	0x1
 1581 0192 34       		.byte	0x34
 1582 0193 EC010000 		.4byte	0x1ec
 1583 0197 07       		.uleb128 0x7
 1584 0198 63020000 		.4byte	.LASF29
 1585 019c 01       		.byte	0x1
 1586 019d 36       		.byte	0x36
 1587 019e 97000000 		.4byte	0x97
 1588 01a2 00       		.byte	0
 1589 01a3 07       		.uleb128 0x7
 1590 01a4 8D020000 		.4byte	.LASF30
 1591 01a8 01       		.byte	0x1
 1592 01a9 37       		.byte	0x37
 1593 01aa 97000000 		.4byte	0x97
 1594 01ae 01       		.byte	0x1
 1595 01af 07       		.uleb128 0x7
 1596 01b0 61000000 		.4byte	.LASF31
 1597 01b4 01       		.byte	0x1
 1598 01b5 38       		.byte	0x38
 1599 01b6 97000000 		.4byte	0x97
 1600 01ba 02       		.byte	0x2
 1601 01bb 07       		.uleb128 0x7
 1602 01bc 7D040000 		.4byte	.LASF32
 1603 01c0 01       		.byte	0x1
 1604 01c1 39       		.byte	0x39
 1605 01c2 97000000 		.4byte	0x97
 1606 01c6 03       		.byte	0x3
 1607 01c7 07       		.uleb128 0x7
 1608 01c8 5B020000 		.4byte	.LASF33
 1609 01cc 01       		.byte	0x1
 1610 01cd 3A       		.byte	0x3a
 1611 01ce B8000000 		.4byte	0xb8
 1612 01d2 08       		.byte	0x8
ARM GAS  C:\Users\Petro\AppData\Local\Temp\cchgZgX0.s 			page 40


 1613 01d3 07       		.uleb128 0x7
 1614 01d4 AD010000 		.4byte	.LASF34
 1615 01d8 01       		.byte	0x1
 1616 01d9 3B       		.byte	0x3b
 1617 01da A2000000 		.4byte	0xa2
 1618 01de 10       		.byte	0x10
 1619 01df 07       		.uleb128 0x7
 1620 01e0 74020000 		.4byte	.LASF35
 1621 01e4 01       		.byte	0x1
 1622 01e5 3C       		.byte	0x3c
 1623 01e6 97000000 		.4byte	0x97
 1624 01ea 12       		.byte	0x12
 1625 01eb 00       		.byte	0
 1626 01ec 03       		.uleb128 0x3
 1627 01ed 31010000 		.4byte	.LASF36
 1628 01f1 01       		.byte	0x1
 1629 01f2 3D       		.byte	0x3d
 1630 01f3 8F010000 		.4byte	0x18f
 1631 01f7 08       		.uleb128 0x8
 1632 01f8 18       		.byte	0x18
 1633 01f9 01       		.byte	0x1
 1634 01fa 3F       		.byte	0x3f
 1635 01fb 48020000 		.4byte	0x248
 1636 01ff 07       		.uleb128 0x7
 1637 0200 63020000 		.4byte	.LASF29
 1638 0204 01       		.byte	0x1
 1639 0205 41       		.byte	0x41
 1640 0206 97000000 		.4byte	0x97
 1641 020a 00       		.byte	0
 1642 020b 07       		.uleb128 0x7
 1643 020c 21030000 		.4byte	.LASF37
 1644 0210 01       		.byte	0x1
 1645 0211 42       		.byte	0x42
 1646 0212 B8000000 		.4byte	0xb8
 1647 0216 08       		.byte	0x8
 1648 0217 07       		.uleb128 0x7
 1649 0218 92000000 		.4byte	.LASF38
 1650 021c 01       		.byte	0x1
 1651 021d 43       		.byte	0x43
 1652 021e A2000000 		.4byte	0xa2
 1653 0222 10       		.byte	0x10
 1654 0223 07       		.uleb128 0x7
 1655 0224 0F000000 		.4byte	.LASF39
 1656 0228 01       		.byte	0x1
 1657 0229 44       		.byte	0x44
 1658 022a 97000000 		.4byte	0x97
 1659 022e 12       		.byte	0x12
 1660 022f 07       		.uleb128 0x7
 1661 0230 78010000 		.4byte	.LASF40
 1662 0234 01       		.byte	0x1
 1663 0235 45       		.byte	0x45
 1664 0236 97000000 		.4byte	0x97
 1665 023a 13       		.byte	0x13
 1666 023b 07       		.uleb128 0x7
 1667 023c 61000000 		.4byte	.LASF31
 1668 0240 01       		.byte	0x1
 1669 0241 46       		.byte	0x46
ARM GAS  C:\Users\Petro\AppData\Local\Temp\cchgZgX0.s 			page 41


 1670 0242 97000000 		.4byte	0x97
 1671 0246 14       		.byte	0x14
 1672 0247 00       		.byte	0
 1673 0248 03       		.uleb128 0x3
 1674 0249 F4000000 		.4byte	.LASF41
 1675 024d 01       		.byte	0x1
 1676 024e 47       		.byte	0x47
 1677 024f F7010000 		.4byte	0x1f7
 1678 0253 09       		.uleb128 0x9
 1679 0254 4F020000 		.4byte	.LASF56
 1680 0258 01       		.byte	0x1
 1681 0259 64       		.byte	0x64
 1682 025a 00000000 		.4byte	.LFB28
 1683 025e 34000000 		.4byte	.LFE28-.LFB28
 1684 0262 01       		.uleb128 0x1
 1685 0263 9C       		.byte	0x9c
 1686 0264 0A       		.uleb128 0xa
 1687 0265 29000000 		.4byte	.LASF46
 1688 0269 01       		.byte	0x1
 1689 026a 7C       		.byte	0x7c
 1690 026b 00000000 		.4byte	.LFB29
 1691 026f DC000000 		.4byte	.LFE29-.LFB29
 1692 0273 01       		.uleb128 0x1
 1693 0274 9C       		.byte	0x9c
 1694 0275 A2020000 		.4byte	0x2a2
 1695 0279 0B       		.uleb128 0xb
 1696 027a 38000000 		.4byte	.LBB2
 1697 027e 8C000000 		.4byte	.LBE2-.LBB2
 1698 0282 0C       		.uleb128 0xc
 1699 0283 D3000000 		.4byte	.LASF42
 1700 0287 01       		.byte	0x1
 1701 0288 8C       		.byte	0x8c
 1702 0289 A2020000 		.4byte	0x2a2
 1703 028d 03       		.uleb128 0x3
 1704 028e 91       		.byte	0x91
 1705 028f 807F     		.sleb128 -128
 1706 0291 0C       		.uleb128 0xc
 1707 0292 32000000 		.4byte	.LASF43
 1708 0296 01       		.byte	0x1
 1709 0297 8D       		.byte	0x8d
 1710 0298 A2020000 		.4byte	0x2a2
 1711 029c 03       		.uleb128 0x3
 1712 029d 91       		.byte	0x91
 1713 029e B47F     		.sleb128 -76
 1714 02a0 00       		.byte	0
 1715 02a1 00       		.byte	0
 1716 02a2 0D       		.uleb128 0xd
 1717 02a3 D1000000 		.4byte	0xd1
 1718 02a7 B2020000 		.4byte	0x2b2
 1719 02ab 0E       		.uleb128 0xe
 1720 02ac D8000000 		.4byte	0xd8
 1721 02b0 31       		.byte	0x31
 1722 02b1 00       		.byte	0
 1723 02b2 0F       		.uleb128 0xf
 1724 02b3 49040000 		.4byte	.LASF52
 1725 02b7 01       		.byte	0x1
 1726 02b8 B3       		.byte	0xb3
ARM GAS  C:\Users\Petro\AppData\Local\Temp\cchgZgX0.s 			page 42


 1727 02b9 AD000000 		.4byte	0xad
 1728 02bd 00000000 		.4byte	.LFB30
 1729 02c1 CC000000 		.4byte	.LFE30-.LFB30
 1730 02c5 01       		.uleb128 0x1
 1731 02c6 9C       		.byte	0x9c
 1732 02c7 F2020000 		.4byte	0x2f2
 1733 02cb 0B       		.uleb128 0xb
 1734 02cc 16000000 		.4byte	.LBB3
 1735 02d0 9C000000 		.4byte	.LBE3-.LBB3
 1736 02d4 0C       		.uleb128 0xc
 1737 02d5 31040000 		.4byte	.LASF44
 1738 02d9 01       		.byte	0x1
 1739 02da B7       		.byte	0xb7
 1740 02db AD000000 		.4byte	0xad
 1741 02df 02       		.uleb128 0x2
 1742 02e0 91       		.byte	0x91
 1743 02e1 74       		.sleb128 -12
 1744 02e2 0C       		.uleb128 0xc
 1745 02e3 71000000 		.4byte	.LASF45
 1746 02e7 01       		.byte	0x1
 1747 02e8 B8       		.byte	0xb8
 1748 02e9 DF000000 		.4byte	0xdf
 1749 02ed 02       		.uleb128 0x2
 1750 02ee 91       		.byte	0x91
 1751 02ef 50       		.sleb128 -48
 1752 02f0 00       		.byte	0
 1753 02f1 00       		.byte	0
 1754 02f2 10       		.uleb128 0x10
 1755 02f3 E6000000 		.4byte	.LASF50
 1756 02f7 01       		.byte	0x1
 1757 02f8 EA       		.byte	0xea
 1758 02f9 AD000000 		.4byte	0xad
 1759 02fd 00000000 		.4byte	.LFB31
 1760 0301 14000000 		.4byte	.LFE31-.LFB31
 1761 0305 01       		.uleb128 0x1
 1762 0306 9C       		.byte	0x9c
 1763 0307 11       		.uleb128 0x11
 1764 0308 6E040000 		.4byte	.LASF47
 1765 030c 01       		.byte	0x1
 1766 030d F1       		.byte	0xf1
 1767 030e 00000000 		.4byte	.LFB32
 1768 0312 30000000 		.4byte	.LFE32-.LFB32
 1769 0316 01       		.uleb128 0x1
 1770 0317 9C       		.byte	0x9c
 1771 0318 39030000 		.4byte	0x339
 1772 031c 12       		.uleb128 0x12
 1773 031d 19020000 		.4byte	.LASF48
 1774 0321 01       		.byte	0x1
 1775 0322 F1       		.byte	0xf1
 1776 0323 B8000000 		.4byte	0xb8
 1777 0327 02       		.uleb128 0x2
 1778 0328 91       		.byte	0x91
 1779 0329 68       		.sleb128 -24
 1780 032a 12       		.uleb128 0x12
 1781 032b 42030000 		.4byte	.LASF49
 1782 032f 01       		.byte	0x1
 1783 0330 F1       		.byte	0xf1
ARM GAS  C:\Users\Petro\AppData\Local\Temp\cchgZgX0.s 			page 43


 1784 0331 AD000000 		.4byte	0xad
 1785 0335 02       		.uleb128 0x2
 1786 0336 91       		.byte	0x91
 1787 0337 64       		.sleb128 -28
 1788 0338 00       		.byte	0
 1789 0339 10       		.uleb128 0x10
 1790 033a 84020000 		.4byte	.LASF51
 1791 033e 01       		.byte	0x1
 1792 033f F9       		.byte	0xf9
 1793 0340 AD000000 		.4byte	0xad
 1794 0344 00000000 		.4byte	.LFB33
 1795 0348 14000000 		.4byte	.LFE33-.LFB33
 1796 034c 01       		.uleb128 0x1
 1797 034d 9C       		.byte	0x9c
 1798 034e 13       		.uleb128 0x13
 1799 034f F6030000 		.4byte	.LASF53
 1800 0353 01       		.byte	0x1
 1801 0354 FF       		.byte	0xff
 1802 0355 AD000000 		.4byte	0xad
 1803 0359 00000000 		.4byte	.LFB34
 1804 035d 28000000 		.4byte	.LFE34-.LFB34
 1805 0361 01       		.uleb128 0x1
 1806 0362 9C       		.byte	0x9c
 1807 0363 77030000 		.4byte	0x377
 1808 0367 14       		.uleb128 0x14
 1809 0368 00000000 		.4byte	.LASF54
 1810 036c 01       		.byte	0x1
 1811 036d 0101     		.2byte	0x101
 1812 036f AD000000 		.4byte	0xad
 1813 0373 02       		.uleb128 0x2
 1814 0374 91       		.byte	0x91
 1815 0375 74       		.sleb128 -12
 1816 0376 00       		.byte	0
 1817 0377 15       		.uleb128 0x15
 1818 0378 3B000000 		.4byte	.LASF55
 1819 037c 01       		.byte	0x1
 1820 037d 0F01     		.2byte	0x10f
 1821 037f AD000000 		.4byte	0xad
 1822 0383 00000000 		.4byte	.LFB35
 1823 0387 44000000 		.4byte	.LFE35-.LFB35
 1824 038b 01       		.uleb128 0x1
 1825 038c 9C       		.byte	0x9c
 1826 038d A1030000 		.4byte	0x3a1
 1827 0391 14       		.uleb128 0x14
 1828 0392 00000000 		.4byte	.LASF54
 1829 0396 01       		.byte	0x1
 1830 0397 1101     		.2byte	0x111
 1831 0399 AD000000 		.4byte	0xad
 1832 039d 02       		.uleb128 0x2
 1833 039e 91       		.byte	0x91
 1834 039f 74       		.sleb128 -12
 1835 03a0 00       		.byte	0
 1836 03a1 16       		.uleb128 0x16
 1837 03a2 5D010000 		.4byte	.LASF57
 1838 03a6 01       		.byte	0x1
 1839 03a7 2101     		.2byte	0x121
 1840 03a9 00000000 		.4byte	.LFB36
ARM GAS  C:\Users\Petro\AppData\Local\Temp\cchgZgX0.s 			page 44


 1841 03ad 14000000 		.4byte	.LFE36-.LFB36
 1842 03b1 01       		.uleb128 0x1
 1843 03b2 9C       		.byte	0x9c
 1844 03b3 16       		.uleb128 0x16
 1845 03b4 E6030000 		.4byte	.LASF58
 1846 03b8 01       		.byte	0x1
 1847 03b9 2601     		.2byte	0x126
 1848 03bb 00000000 		.4byte	.LFB37
 1849 03bf 1C000000 		.4byte	.LFE37-.LFB37
 1850 03c3 01       		.uleb128 0x1
 1851 03c4 9C       		.byte	0x9c
 1852 03c5 17       		.uleb128 0x17
 1853 03c6 3B040000 		.4byte	.LASF59
 1854 03ca 01       		.byte	0x1
 1855 03cb 3701     		.2byte	0x137
 1856 03cd AD000000 		.4byte	0xad
 1857 03d1 00000000 		.4byte	.LFB38
 1858 03d5 28020000 		.4byte	.LFE38-.LFB38
 1859 03d9 01       		.uleb128 0x1
 1860 03da 9C       		.byte	0x9c
 1861 03db 88040000 		.4byte	0x488
 1862 03df 18       		.uleb128 0x18
 1863 03e0 6900     		.ascii	"i\000"
 1864 03e2 01       		.byte	0x1
 1865 03e3 3901     		.2byte	0x139
 1866 03e5 89000000 		.4byte	0x89
 1867 03e9 02       		.uleb128 0x2
 1868 03ea 91       		.byte	0x91
 1869 03eb 6C       		.sleb128 -20
 1870 03ec 14       		.uleb128 0x14
 1871 03ed 00000000 		.4byte	.LASF54
 1872 03f1 01       		.byte	0x1
 1873 03f2 3A01     		.2byte	0x13a
 1874 03f4 A2000000 		.4byte	0xa2
 1875 03f8 02       		.uleb128 0x2
 1876 03f9 91       		.byte	0x91
 1877 03fa 6A       		.sleb128 -22
 1878 03fb 14       		.uleb128 0x14
 1879 03fc 82000000 		.4byte	.LASF60
 1880 0400 01       		.byte	0x1
 1881 0401 3B01     		.2byte	0x13b
 1882 0403 A2000000 		.4byte	0xa2
 1883 0407 02       		.uleb128 0x2
 1884 0408 91       		.byte	0x91
 1885 0409 58       		.sleb128 -40
 1886 040a 14       		.uleb128 0x14
 1887 040b 6B010000 		.4byte	.LASF61
 1888 040f 01       		.byte	0x1
 1889 0410 3C01     		.2byte	0x13c
 1890 0412 A2000000 		.4byte	0xa2
 1891 0416 02       		.uleb128 0x2
 1892 0417 91       		.byte	0x91
 1893 0418 68       		.sleb128 -24
 1894 0419 14       		.uleb128 0x14
 1895 041a 23040000 		.4byte	.LASF62
 1896 041e 01       		.byte	0x1
 1897 041f 3D01     		.2byte	0x13d
ARM GAS  C:\Users\Petro\AppData\Local\Temp\cchgZgX0.s 			page 45


 1898 0421 AD000000 		.4byte	0xad
 1899 0425 02       		.uleb128 0x2
 1900 0426 91       		.byte	0x91
 1901 0427 64       		.sleb128 -28
 1902 0428 14       		.uleb128 0x14
 1903 0429 57000000 		.4byte	.LASF63
 1904 042d 01       		.byte	0x1
 1905 042e 3E01     		.2byte	0x13e
 1906 0430 AD000000 		.4byte	0xad
 1907 0434 02       		.uleb128 0x2
 1908 0435 91       		.byte	0x91
 1909 0436 60       		.sleb128 -32
 1910 0437 0B       		.uleb128 0xb
 1911 0438 2E010000 		.4byte	.LBB4
 1912 043c AC000000 		.4byte	.LBE4-.LBB4
 1913 0440 14       		.uleb128 0x14
 1914 0441 D9030000 		.4byte	.LASF64
 1915 0445 01       		.byte	0x1
 1916 0446 8C01     		.2byte	0x18c
 1917 0448 AD000000 		.4byte	0xad
 1918 044c 02       		.uleb128 0x2
 1919 044d 91       		.byte	0x91
 1920 044e 54       		.sleb128 -44
 1921 044f 14       		.uleb128 0x14
 1922 0450 18040000 		.4byte	.LASF65
 1923 0454 01       		.byte	0x1
 1924 0455 8D01     		.2byte	0x18d
 1925 0457 A2000000 		.4byte	0xa2
 1926 045b 02       		.uleb128 0x2
 1927 045c 91       		.byte	0x91
 1928 045d 52       		.sleb128 -46
 1929 045e 0B       		.uleb128 0xb
 1930 045f 56010000 		.4byte	.LBB5
 1931 0463 72000000 		.4byte	.LBE5-.LBB5
 1932 0467 14       		.uleb128 0x14
 1933 0468 20000000 		.4byte	.LASF66
 1934 046c 01       		.byte	0x1
 1935 046d 9301     		.2byte	0x193
 1936 046f AD000000 		.4byte	0xad
 1937 0473 02       		.uleb128 0x2
 1938 0474 91       		.byte	0x91
 1939 0475 5C       		.sleb128 -36
 1940 0476 14       		.uleb128 0x14
 1941 0477 CE030000 		.4byte	.LASF67
 1942 047b 01       		.byte	0x1
 1943 047c 9401     		.2byte	0x194
 1944 047e A2000000 		.4byte	0xa2
 1945 0482 02       		.uleb128 0x2
 1946 0483 91       		.byte	0x91
 1947 0484 5A       		.sleb128 -38
 1948 0485 00       		.byte	0
 1949 0486 00       		.byte	0
 1950 0487 00       		.byte	0
 1951 0488 17       		.uleb128 0x17
 1952 0489 3C010000 		.4byte	.LASF68
 1953 048d 01       		.byte	0x1
 1954 048e C101     		.2byte	0x1c1
ARM GAS  C:\Users\Petro\AppData\Local\Temp\cchgZgX0.s 			page 46


 1955 0490 AD000000 		.4byte	0xad
 1956 0494 00000000 		.4byte	.LFB39
 1957 0498 C4000000 		.4byte	.LFE39-.LFB39
 1958 049c 01       		.uleb128 0x1
 1959 049d 9C       		.byte	0x9c
 1960 049e C1040000 		.4byte	0x4c1
 1961 04a2 14       		.uleb128 0x14
 1962 04a3 00000000 		.4byte	.LASF54
 1963 04a7 01       		.byte	0x1
 1964 04a8 C301     		.2byte	0x1c3
 1965 04aa AD000000 		.4byte	0xad
 1966 04ae 02       		.uleb128 0x2
 1967 04af 91       		.byte	0x91
 1968 04b0 74       		.sleb128 -12
 1969 04b1 14       		.uleb128 0x14
 1970 04b2 63020000 		.4byte	.LASF29
 1971 04b6 01       		.byte	0x1
 1972 04b7 C401     		.2byte	0x1c4
 1973 04b9 A2000000 		.4byte	0xa2
 1974 04bd 02       		.uleb128 0x2
 1975 04be 91       		.byte	0x91
 1976 04bf 72       		.sleb128 -14
 1977 04c0 00       		.byte	0
 1978 04c1 17       		.uleb128 0x17
 1979 04c2 5F040000 		.4byte	.LASF69
 1980 04c6 01       		.byte	0x1
 1981 04c7 0102     		.2byte	0x201
 1982 04c9 AD000000 		.4byte	0xad
 1983 04cd 00000000 		.4byte	.LFB40
 1984 04d1 C2000000 		.4byte	.LFE40-.LFB40
 1985 04d5 01       		.uleb128 0x1
 1986 04d6 9C       		.byte	0x9c
 1987 04d7 45050000 		.4byte	0x545
 1988 04db 19       		.uleb128 0x19
 1989 04dc CE010000 		.4byte	.LASF70
 1990 04e0 01       		.byte	0x1
 1991 04e1 0102     		.2byte	0x201
 1992 04e3 45050000 		.4byte	0x545
 1993 04e7 02       		.uleb128 0x2
 1994 04e8 91       		.byte	0x91
 1995 04e9 4C       		.sleb128 -52
 1996 04ea 19       		.uleb128 0x19
 1997 04eb 4B030000 		.4byte	.LASF71
 1998 04ef 01       		.byte	0x1
 1999 04f0 0102     		.2byte	0x201
 2000 04f2 4B050000 		.4byte	0x54b
 2001 04f6 02       		.uleb128 0x2
 2002 04f7 91       		.byte	0x91
 2003 04f8 48       		.sleb128 -56
 2004 04f9 19       		.uleb128 0x19
 2005 04fa 55040000 		.4byte	.LASF72
 2006 04fe 01       		.byte	0x1
 2007 04ff 0102     		.2byte	0x201
 2008 0501 4B050000 		.4byte	0x54b
 2009 0505 02       		.uleb128 0x2
 2010 0506 91       		.byte	0x91
 2011 0507 44       		.sleb128 -60
ARM GAS  C:\Users\Petro\AppData\Local\Temp\cchgZgX0.s 			page 47


 2012 0508 19       		.uleb128 0x19
 2013 0509 FE000000 		.4byte	.LASF73
 2014 050d 01       		.byte	0x1
 2015 050e 0102     		.2byte	0x201
 2016 0510 AD000000 		.4byte	0xad
 2017 0514 02       		.uleb128 0x2
 2018 0515 91       		.byte	0x91
 2019 0516 40       		.sleb128 -64
 2020 0517 14       		.uleb128 0x14
 2021 0518 31040000 		.4byte	.LASF44
 2022 051c 01       		.byte	0x1
 2023 051d 0302     		.2byte	0x203
 2024 051f 97000000 		.4byte	0x97
 2025 0523 02       		.uleb128 0x2
 2026 0524 91       		.byte	0x91
 2027 0525 6B       		.sleb128 -21
 2028 0526 14       		.uleb128 0x14
 2029 0527 00000000 		.4byte	.LASF54
 2030 052b 01       		.byte	0x1
 2031 052c 0402     		.2byte	0x204
 2032 052e AD000000 		.4byte	0xad
 2033 0532 02       		.uleb128 0x2
 2034 0533 91       		.byte	0x91
 2035 0534 6C       		.sleb128 -20
 2036 0535 14       		.uleb128 0x14
 2037 0536 07010000 		.4byte	.LASF74
 2038 053a 01       		.byte	0x1
 2039 053b 0802     		.2byte	0x208
 2040 053d 84010000 		.4byte	0x184
 2041 0541 02       		.uleb128 0x2
 2042 0542 91       		.byte	0x91
 2043 0543 54       		.sleb128 -44
 2044 0544 00       		.byte	0
 2045 0545 1A       		.uleb128 0x1a
 2046 0546 04       		.byte	0x4
 2047 0547 AD000000 		.4byte	0xad
 2048 054b 1A       		.uleb128 0x1a
 2049 054c 04       		.byte	0x4
 2050 054d A2000000 		.4byte	0xa2
 2051 0551 1B       		.uleb128 0x1b
 2052 0552 89040000 		.4byte	.LASF75
 2053 0556 01       		.byte	0x1
 2054 0557 3E02     		.2byte	0x23e
 2055 0559 00000000 		.4byte	.LFB41
 2056 055d 60000000 		.4byte	.LFE41-.LFB41
 2057 0561 01       		.uleb128 0x1
 2058 0562 9C       		.byte	0x9c
 2059 0563 D6050000 		.4byte	0x5d6
 2060 0567 19       		.uleb128 0x19
 2061 0568 CE010000 		.4byte	.LASF70
 2062 056c 01       		.byte	0x1
 2063 056d 3E02     		.2byte	0x23e
 2064 056f AD000000 		.4byte	0xad
 2065 0573 03       		.uleb128 0x3
 2066 0574 91       		.byte	0x91
 2067 0575 847F     		.sleb128 -124
 2068 0577 19       		.uleb128 0x19
ARM GAS  C:\Users\Petro\AppData\Local\Temp\cchgZgX0.s 			page 48


 2069 0578 A9000000 		.4byte	.LASF76
 2070 057c 01       		.byte	0x1
 2071 057d 3E02     		.2byte	0x23e
 2072 057f AD000000 		.4byte	0xad
 2073 0583 03       		.uleb128 0x3
 2074 0584 91       		.byte	0x91
 2075 0585 807F     		.sleb128 -128
 2076 0587 19       		.uleb128 0x19
 2077 0588 11020000 		.4byte	.LASF77
 2078 058c 01       		.byte	0x1
 2079 058d 3E02     		.2byte	0x23e
 2080 058f A2000000 		.4byte	0xa2
 2081 0593 03       		.uleb128 0x3
 2082 0594 91       		.byte	0x91
 2083 0595 FE7E     		.sleb128 -130
 2084 0597 19       		.uleb128 0x19
 2085 0598 7A000000 		.4byte	.LASF78
 2086 059c 01       		.byte	0x1
 2087 059d 3E02     		.2byte	0x23e
 2088 059f A2000000 		.4byte	0xa2
 2089 05a3 03       		.uleb128 0x3
 2090 05a4 91       		.byte	0x91
 2091 05a5 FC7E     		.sleb128 -132
 2092 05a7 1C       		.uleb128 0x1c
 2093 05a8 494400   		.ascii	"ID\000"
 2094 05ab 01       		.byte	0x1
 2095 05ac 3E02     		.2byte	0x23e
 2096 05ae A2000000 		.4byte	0xa2
 2097 05b2 02       		.uleb128 0x2
 2098 05b3 91       		.byte	0x91
 2099 05b4 00       		.sleb128 0
 2100 05b5 14       		.uleb128 0x14
 2101 05b6 D3000000 		.4byte	.LASF42
 2102 05ba 01       		.byte	0x1
 2103 05bb 4002     		.2byte	0x240
 2104 05bd A2020000 		.4byte	0x2a2
 2105 05c1 03       		.uleb128 0x3
 2106 05c2 91       		.byte	0x91
 2107 05c3 BC7F     		.sleb128 -68
 2108 05c5 14       		.uleb128 0x14
 2109 05c6 32000000 		.4byte	.LASF43
 2110 05ca 01       		.byte	0x1
 2111 05cb 4102     		.2byte	0x241
 2112 05cd A2020000 		.4byte	0x2a2
 2113 05d1 03       		.uleb128 0x3
 2114 05d2 91       		.byte	0x91
 2115 05d3 887F     		.sleb128 -120
 2116 05d5 00       		.byte	0
 2117 05d6 0C       		.uleb128 0xc
 2118 05d7 0A040000 		.4byte	.LASF79
 2119 05db 01       		.byte	0x1
 2120 05dc 4E       		.byte	0x4e
 2121 05dd AD000000 		.4byte	0xad
 2122 05e1 05       		.uleb128 0x5
 2123 05e2 03       		.byte	0x3
 2124 05e3 00000000 		.4byte	networkStatus
 2125 05e7 0C       		.uleb128 0xc
ARM GAS  C:\Users\Petro\AppData\Local\Temp\cchgZgX0.s 			page 49


 2126 05e8 57000000 		.4byte	.LASF63
 2127 05ec 01       		.byte	0x1
 2128 05ed 4F       		.byte	0x4f
 2129 05ee 89000000 		.4byte	0x89
 2130 05f2 05       		.uleb128 0x5
 2131 05f3 03       		.byte	0x3
 2132 05f4 04000000 		.4byte	noConnect
 2133 05f8 0C       		.uleb128 0xc
 2134 05f9 C8000000 		.4byte	.LASF80
 2135 05fd 01       		.byte	0x1
 2136 05fe 50       		.byte	0x50
 2137 05ff 89000000 		.4byte	0x89
 2138 0603 05       		.uleb128 0x5
 2139 0604 03       		.byte	0x3
 2140 0605 08000000 		.4byte	finNoReady
 2141 0609 1D       		.uleb128 0x1d
 2142 060a A6010000 		.4byte	.LASF81
 2143 060e 01       		.byte	0x1
 2144 060f 49       		.byte	0x49
 2145 0610 EC010000 		.4byte	0x1ec
 2146 0614 05       		.uleb128 0x5
 2147 0615 03       		.byte	0x3
 2148 0616 00000000 		.4byte	inData
 2149 061a 1D       		.uleb128 0x1d
 2150 061b 55010000 		.4byte	.LASF82
 2151 061f 01       		.byte	0x1
 2152 0620 4A       		.byte	0x4a
 2153 0621 48020000 		.4byte	0x248
 2154 0625 05       		.uleb128 0x5
 2155 0626 03       		.byte	0x3
 2156 0627 00000000 		.4byte	outData
 2157 062b 0D       		.uleb128 0xd
 2158 062c D1000000 		.4byte	0xd1
 2159 0630 3B060000 		.4byte	0x63b
 2160 0634 0E       		.uleb128 0xe
 2161 0635 D8000000 		.4byte	0xd8
 2162 0639 63       		.byte	0x63
 2163 063a 00       		.byte	0
 2164 063b 1D       		.uleb128 0x1d
 2165 063c D8010000 		.4byte	.LASF83
 2166 0640 01       		.byte	0x1
 2167 0641 4C       		.byte	0x4c
 2168 0642 2B060000 		.4byte	0x62b
 2169 0646 05       		.uleb128 0x5
 2170 0647 03       		.byte	0x3
 2171 0648 00000000 		.4byte	previousData
 2172 064c 0D       		.uleb128 0xd
 2173 064d AD000000 		.4byte	0xad
 2174 0651 5C060000 		.4byte	0x65c
 2175 0655 0E       		.uleb128 0xe
 2176 0656 D8000000 		.4byte	0xd8
 2177 065a 03       		.byte	0x3
 2178 065b 00       		.byte	0
 2179 065c 1D       		.uleb128 0x1d
 2180 065d 20000000 		.4byte	.LASF66
 2181 0661 01       		.byte	0x1
 2182 0662 51       		.byte	0x51
ARM GAS  C:\Users\Petro\AppData\Local\Temp\cchgZgX0.s 			page 50


 2183 0663 4C060000 		.4byte	0x64c
 2184 0667 05       		.uleb128 0x5
 2185 0668 03       		.byte	0x3
 2186 0669 00000000 		.4byte	unixTime
 2187 066d 0D       		.uleb128 0xd
 2188 066e A2000000 		.4byte	0xa2
 2189 0672 7D060000 		.4byte	0x67d
 2190 0676 0E       		.uleb128 0xe
 2191 0677 D8000000 		.4byte	0xd8
 2192 067b 03       		.byte	0x3
 2193 067c 00       		.byte	0
 2194 067d 1D       		.uleb128 0x1d
 2195 067e CE030000 		.4byte	.LASF67
 2196 0682 01       		.byte	0x1
 2197 0683 52       		.byte	0x52
 2198 0684 6D060000 		.4byte	0x66d
 2199 0688 05       		.uleb128 0x5
 2200 0689 03       		.byte	0x3
 2201 068a 00000000 		.4byte	millisTime
 2202 068e 00       		.byte	0
 2203              		.section	.debug_abbrev,"",%progbits
 2204              	.Ldebug_abbrev0:
 2205 0000 01       		.uleb128 0x1
 2206 0001 11       		.uleb128 0x11
 2207 0002 01       		.byte	0x1
 2208 0003 25       		.uleb128 0x25
 2209 0004 0E       		.uleb128 0xe
 2210 0005 13       		.uleb128 0x13
 2211 0006 0B       		.uleb128 0xb
 2212 0007 03       		.uleb128 0x3
 2213 0008 0E       		.uleb128 0xe
 2214 0009 1B       		.uleb128 0x1b
 2215 000a 0E       		.uleb128 0xe
 2216 000b 55       		.uleb128 0x55
 2217 000c 17       		.uleb128 0x17
 2218 000d 11       		.uleb128 0x11
 2219 000e 01       		.uleb128 0x1
 2220 000f 10       		.uleb128 0x10
 2221 0010 17       		.uleb128 0x17
 2222 0011 00       		.byte	0
 2223 0012 00       		.byte	0
 2224 0013 02       		.uleb128 0x2
 2225 0014 24       		.uleb128 0x24
 2226 0015 00       		.byte	0
 2227 0016 0B       		.uleb128 0xb
 2228 0017 0B       		.uleb128 0xb
 2229 0018 3E       		.uleb128 0x3e
 2230 0019 0B       		.uleb128 0xb
 2231 001a 03       		.uleb128 0x3
 2232 001b 0E       		.uleb128 0xe
 2233 001c 00       		.byte	0
 2234 001d 00       		.byte	0
 2235 001e 03       		.uleb128 0x3
 2236 001f 16       		.uleb128 0x16
 2237 0020 00       		.byte	0
 2238 0021 03       		.uleb128 0x3
 2239 0022 0E       		.uleb128 0xe
ARM GAS  C:\Users\Petro\AppData\Local\Temp\cchgZgX0.s 			page 51


 2240 0023 3A       		.uleb128 0x3a
 2241 0024 0B       		.uleb128 0xb
 2242 0025 3B       		.uleb128 0x3b
 2243 0026 0B       		.uleb128 0xb
 2244 0027 49       		.uleb128 0x49
 2245 0028 13       		.uleb128 0x13
 2246 0029 00       		.byte	0
 2247 002a 00       		.byte	0
 2248 002b 04       		.uleb128 0x4
 2249 002c 24       		.uleb128 0x24
 2250 002d 00       		.byte	0
 2251 002e 0B       		.uleb128 0xb
 2252 002f 0B       		.uleb128 0xb
 2253 0030 3E       		.uleb128 0x3e
 2254 0031 0B       		.uleb128 0xb
 2255 0032 03       		.uleb128 0x3
 2256 0033 08       		.uleb128 0x8
 2257 0034 00       		.byte	0
 2258 0035 00       		.byte	0
 2259 0036 05       		.uleb128 0x5
 2260 0037 13       		.uleb128 0x13
 2261 0038 01       		.byte	0x1
 2262 0039 03       		.uleb128 0x3
 2263 003a 0E       		.uleb128 0xe
 2264 003b 0B       		.uleb128 0xb
 2265 003c 0B       		.uleb128 0xb
 2266 003d 3A       		.uleb128 0x3a
 2267 003e 0B       		.uleb128 0xb
 2268 003f 3B       		.uleb128 0x3b
 2269 0040 0B       		.uleb128 0xb
 2270 0041 01       		.uleb128 0x1
 2271 0042 13       		.uleb128 0x13
 2272 0043 00       		.byte	0
 2273 0044 00       		.byte	0
 2274 0045 06       		.uleb128 0x6
 2275 0046 0D       		.uleb128 0xd
 2276 0047 00       		.byte	0
 2277 0048 03       		.uleb128 0x3
 2278 0049 08       		.uleb128 0x8
 2279 004a 3A       		.uleb128 0x3a
 2280 004b 0B       		.uleb128 0xb
 2281 004c 3B       		.uleb128 0x3b
 2282 004d 0B       		.uleb128 0xb
 2283 004e 49       		.uleb128 0x49
 2284 004f 13       		.uleb128 0x13
 2285 0050 38       		.uleb128 0x38
 2286 0051 0B       		.uleb128 0xb
 2287 0052 00       		.byte	0
 2288 0053 00       		.byte	0
 2289 0054 07       		.uleb128 0x7
 2290 0055 0D       		.uleb128 0xd
 2291 0056 00       		.byte	0
 2292 0057 03       		.uleb128 0x3
 2293 0058 0E       		.uleb128 0xe
 2294 0059 3A       		.uleb128 0x3a
 2295 005a 0B       		.uleb128 0xb
 2296 005b 3B       		.uleb128 0x3b
ARM GAS  C:\Users\Petro\AppData\Local\Temp\cchgZgX0.s 			page 52


 2297 005c 0B       		.uleb128 0xb
 2298 005d 49       		.uleb128 0x49
 2299 005e 13       		.uleb128 0x13
 2300 005f 38       		.uleb128 0x38
 2301 0060 0B       		.uleb128 0xb
 2302 0061 00       		.byte	0
 2303 0062 00       		.byte	0
 2304 0063 08       		.uleb128 0x8
 2305 0064 13       		.uleb128 0x13
 2306 0065 01       		.byte	0x1
 2307 0066 0B       		.uleb128 0xb
 2308 0067 0B       		.uleb128 0xb
 2309 0068 3A       		.uleb128 0x3a
 2310 0069 0B       		.uleb128 0xb
 2311 006a 3B       		.uleb128 0x3b
 2312 006b 0B       		.uleb128 0xb
 2313 006c 01       		.uleb128 0x1
 2314 006d 13       		.uleb128 0x13
 2315 006e 00       		.byte	0
 2316 006f 00       		.byte	0
 2317 0070 09       		.uleb128 0x9
 2318 0071 2E       		.uleb128 0x2e
 2319 0072 00       		.byte	0
 2320 0073 3F       		.uleb128 0x3f
 2321 0074 19       		.uleb128 0x19
 2322 0075 03       		.uleb128 0x3
 2323 0076 0E       		.uleb128 0xe
 2324 0077 3A       		.uleb128 0x3a
 2325 0078 0B       		.uleb128 0xb
 2326 0079 3B       		.uleb128 0x3b
 2327 007a 0B       		.uleb128 0xb
 2328 007b 27       		.uleb128 0x27
 2329 007c 19       		.uleb128 0x19
 2330 007d 11       		.uleb128 0x11
 2331 007e 01       		.uleb128 0x1
 2332 007f 12       		.uleb128 0x12
 2333 0080 06       		.uleb128 0x6
 2334 0081 40       		.uleb128 0x40
 2335 0082 18       		.uleb128 0x18
 2336 0083 9642     		.uleb128 0x2116
 2337 0085 19       		.uleb128 0x19
 2338 0086 00       		.byte	0
 2339 0087 00       		.byte	0
 2340 0088 0A       		.uleb128 0xa
 2341 0089 2E       		.uleb128 0x2e
 2342 008a 01       		.byte	0x1
 2343 008b 3F       		.uleb128 0x3f
 2344 008c 19       		.uleb128 0x19
 2345 008d 03       		.uleb128 0x3
 2346 008e 0E       		.uleb128 0xe
 2347 008f 3A       		.uleb128 0x3a
 2348 0090 0B       		.uleb128 0xb
 2349 0091 3B       		.uleb128 0x3b
 2350 0092 0B       		.uleb128 0xb
 2351 0093 27       		.uleb128 0x27
 2352 0094 19       		.uleb128 0x19
 2353 0095 11       		.uleb128 0x11
ARM GAS  C:\Users\Petro\AppData\Local\Temp\cchgZgX0.s 			page 53


 2354 0096 01       		.uleb128 0x1
 2355 0097 12       		.uleb128 0x12
 2356 0098 06       		.uleb128 0x6
 2357 0099 40       		.uleb128 0x40
 2358 009a 18       		.uleb128 0x18
 2359 009b 9642     		.uleb128 0x2116
 2360 009d 19       		.uleb128 0x19
 2361 009e 01       		.uleb128 0x1
 2362 009f 13       		.uleb128 0x13
 2363 00a0 00       		.byte	0
 2364 00a1 00       		.byte	0
 2365 00a2 0B       		.uleb128 0xb
 2366 00a3 0B       		.uleb128 0xb
 2367 00a4 01       		.byte	0x1
 2368 00a5 11       		.uleb128 0x11
 2369 00a6 01       		.uleb128 0x1
 2370 00a7 12       		.uleb128 0x12
 2371 00a8 06       		.uleb128 0x6
 2372 00a9 00       		.byte	0
 2373 00aa 00       		.byte	0
 2374 00ab 0C       		.uleb128 0xc
 2375 00ac 34       		.uleb128 0x34
 2376 00ad 00       		.byte	0
 2377 00ae 03       		.uleb128 0x3
 2378 00af 0E       		.uleb128 0xe
 2379 00b0 3A       		.uleb128 0x3a
 2380 00b1 0B       		.uleb128 0xb
 2381 00b2 3B       		.uleb128 0x3b
 2382 00b3 0B       		.uleb128 0xb
 2383 00b4 49       		.uleb128 0x49
 2384 00b5 13       		.uleb128 0x13
 2385 00b6 02       		.uleb128 0x2
 2386 00b7 18       		.uleb128 0x18
 2387 00b8 00       		.byte	0
 2388 00b9 00       		.byte	0
 2389 00ba 0D       		.uleb128 0xd
 2390 00bb 01       		.uleb128 0x1
 2391 00bc 01       		.byte	0x1
 2392 00bd 49       		.uleb128 0x49
 2393 00be 13       		.uleb128 0x13
 2394 00bf 01       		.uleb128 0x1
 2395 00c0 13       		.uleb128 0x13
 2396 00c1 00       		.byte	0
 2397 00c2 00       		.byte	0
 2398 00c3 0E       		.uleb128 0xe
 2399 00c4 21       		.uleb128 0x21
 2400 00c5 00       		.byte	0
 2401 00c6 49       		.uleb128 0x49
 2402 00c7 13       		.uleb128 0x13
 2403 00c8 2F       		.uleb128 0x2f
 2404 00c9 0B       		.uleb128 0xb
 2405 00ca 00       		.byte	0
 2406 00cb 00       		.byte	0
 2407 00cc 0F       		.uleb128 0xf
 2408 00cd 2E       		.uleb128 0x2e
 2409 00ce 01       		.byte	0x1
 2410 00cf 3F       		.uleb128 0x3f
ARM GAS  C:\Users\Petro\AppData\Local\Temp\cchgZgX0.s 			page 54


 2411 00d0 19       		.uleb128 0x19
 2412 00d1 03       		.uleb128 0x3
 2413 00d2 0E       		.uleb128 0xe
 2414 00d3 3A       		.uleb128 0x3a
 2415 00d4 0B       		.uleb128 0xb
 2416 00d5 3B       		.uleb128 0x3b
 2417 00d6 0B       		.uleb128 0xb
 2418 00d7 27       		.uleb128 0x27
 2419 00d8 19       		.uleb128 0x19
 2420 00d9 49       		.uleb128 0x49
 2421 00da 13       		.uleb128 0x13
 2422 00db 11       		.uleb128 0x11
 2423 00dc 01       		.uleb128 0x1
 2424 00dd 12       		.uleb128 0x12
 2425 00de 06       		.uleb128 0x6
 2426 00df 40       		.uleb128 0x40
 2427 00e0 18       		.uleb128 0x18
 2428 00e1 9642     		.uleb128 0x2116
 2429 00e3 19       		.uleb128 0x19
 2430 00e4 01       		.uleb128 0x1
 2431 00e5 13       		.uleb128 0x13
 2432 00e6 00       		.byte	0
 2433 00e7 00       		.byte	0
 2434 00e8 10       		.uleb128 0x10
 2435 00e9 2E       		.uleb128 0x2e
 2436 00ea 00       		.byte	0
 2437 00eb 3F       		.uleb128 0x3f
 2438 00ec 19       		.uleb128 0x19
 2439 00ed 03       		.uleb128 0x3
 2440 00ee 0E       		.uleb128 0xe
 2441 00ef 3A       		.uleb128 0x3a
 2442 00f0 0B       		.uleb128 0xb
 2443 00f1 3B       		.uleb128 0x3b
 2444 00f2 0B       		.uleb128 0xb
 2445 00f3 27       		.uleb128 0x27
 2446 00f4 19       		.uleb128 0x19
 2447 00f5 49       		.uleb128 0x49
 2448 00f6 13       		.uleb128 0x13
 2449 00f7 11       		.uleb128 0x11
 2450 00f8 01       		.uleb128 0x1
 2451 00f9 12       		.uleb128 0x12
 2452 00fa 06       		.uleb128 0x6
 2453 00fb 40       		.uleb128 0x40
 2454 00fc 18       		.uleb128 0x18
 2455 00fd 9742     		.uleb128 0x2117
 2456 00ff 19       		.uleb128 0x19
 2457 0100 00       		.byte	0
 2458 0101 00       		.byte	0
 2459 0102 11       		.uleb128 0x11
 2460 0103 2E       		.uleb128 0x2e
 2461 0104 01       		.byte	0x1
 2462 0105 3F       		.uleb128 0x3f
 2463 0106 19       		.uleb128 0x19
 2464 0107 03       		.uleb128 0x3
 2465 0108 0E       		.uleb128 0xe
 2466 0109 3A       		.uleb128 0x3a
 2467 010a 0B       		.uleb128 0xb
ARM GAS  C:\Users\Petro\AppData\Local\Temp\cchgZgX0.s 			page 55


 2468 010b 3B       		.uleb128 0x3b
 2469 010c 0B       		.uleb128 0xb
 2470 010d 27       		.uleb128 0x27
 2471 010e 19       		.uleb128 0x19
 2472 010f 11       		.uleb128 0x11
 2473 0110 01       		.uleb128 0x1
 2474 0111 12       		.uleb128 0x12
 2475 0112 06       		.uleb128 0x6
 2476 0113 40       		.uleb128 0x40
 2477 0114 18       		.uleb128 0x18
 2478 0115 9742     		.uleb128 0x2117
 2479 0117 19       		.uleb128 0x19
 2480 0118 01       		.uleb128 0x1
 2481 0119 13       		.uleb128 0x13
 2482 011a 00       		.byte	0
 2483 011b 00       		.byte	0
 2484 011c 12       		.uleb128 0x12
 2485 011d 05       		.uleb128 0x5
 2486 011e 00       		.byte	0
 2487 011f 03       		.uleb128 0x3
 2488 0120 0E       		.uleb128 0xe
 2489 0121 3A       		.uleb128 0x3a
 2490 0122 0B       		.uleb128 0xb
 2491 0123 3B       		.uleb128 0x3b
 2492 0124 0B       		.uleb128 0xb
 2493 0125 49       		.uleb128 0x49
 2494 0126 13       		.uleb128 0x13
 2495 0127 02       		.uleb128 0x2
 2496 0128 18       		.uleb128 0x18
 2497 0129 00       		.byte	0
 2498 012a 00       		.byte	0
 2499 012b 13       		.uleb128 0x13
 2500 012c 2E       		.uleb128 0x2e
 2501 012d 01       		.byte	0x1
 2502 012e 3F       		.uleb128 0x3f
 2503 012f 19       		.uleb128 0x19
 2504 0130 03       		.uleb128 0x3
 2505 0131 0E       		.uleb128 0xe
 2506 0132 3A       		.uleb128 0x3a
 2507 0133 0B       		.uleb128 0xb
 2508 0134 3B       		.uleb128 0x3b
 2509 0135 0B       		.uleb128 0xb
 2510 0136 27       		.uleb128 0x27
 2511 0137 19       		.uleb128 0x19
 2512 0138 49       		.uleb128 0x49
 2513 0139 13       		.uleb128 0x13
 2514 013a 11       		.uleb128 0x11
 2515 013b 01       		.uleb128 0x1
 2516 013c 12       		.uleb128 0x12
 2517 013d 06       		.uleb128 0x6
 2518 013e 40       		.uleb128 0x40
 2519 013f 18       		.uleb128 0x18
 2520 0140 9742     		.uleb128 0x2117
 2521 0142 19       		.uleb128 0x19
 2522 0143 01       		.uleb128 0x1
 2523 0144 13       		.uleb128 0x13
 2524 0145 00       		.byte	0
ARM GAS  C:\Users\Petro\AppData\Local\Temp\cchgZgX0.s 			page 56


 2525 0146 00       		.byte	0
 2526 0147 14       		.uleb128 0x14
 2527 0148 34       		.uleb128 0x34
 2528 0149 00       		.byte	0
 2529 014a 03       		.uleb128 0x3
 2530 014b 0E       		.uleb128 0xe
 2531 014c 3A       		.uleb128 0x3a
 2532 014d 0B       		.uleb128 0xb
 2533 014e 3B       		.uleb128 0x3b
 2534 014f 05       		.uleb128 0x5
 2535 0150 49       		.uleb128 0x49
 2536 0151 13       		.uleb128 0x13
 2537 0152 02       		.uleb128 0x2
 2538 0153 18       		.uleb128 0x18
 2539 0154 00       		.byte	0
 2540 0155 00       		.byte	0
 2541 0156 15       		.uleb128 0x15
 2542 0157 2E       		.uleb128 0x2e
 2543 0158 01       		.byte	0x1
 2544 0159 3F       		.uleb128 0x3f
 2545 015a 19       		.uleb128 0x19
 2546 015b 03       		.uleb128 0x3
 2547 015c 0E       		.uleb128 0xe
 2548 015d 3A       		.uleb128 0x3a
 2549 015e 0B       		.uleb128 0xb
 2550 015f 3B       		.uleb128 0x3b
 2551 0160 05       		.uleb128 0x5
 2552 0161 27       		.uleb128 0x27
 2553 0162 19       		.uleb128 0x19
 2554 0163 49       		.uleb128 0x49
 2555 0164 13       		.uleb128 0x13
 2556 0165 11       		.uleb128 0x11
 2557 0166 01       		.uleb128 0x1
 2558 0167 12       		.uleb128 0x12
 2559 0168 06       		.uleb128 0x6
 2560 0169 40       		.uleb128 0x40
 2561 016a 18       		.uleb128 0x18
 2562 016b 9742     		.uleb128 0x2117
 2563 016d 19       		.uleb128 0x19
 2564 016e 01       		.uleb128 0x1
 2565 016f 13       		.uleb128 0x13
 2566 0170 00       		.byte	0
 2567 0171 00       		.byte	0
 2568 0172 16       		.uleb128 0x16
 2569 0173 2E       		.uleb128 0x2e
 2570 0174 00       		.byte	0
 2571 0175 3F       		.uleb128 0x3f
 2572 0176 19       		.uleb128 0x19
 2573 0177 03       		.uleb128 0x3
 2574 0178 0E       		.uleb128 0xe
 2575 0179 3A       		.uleb128 0x3a
 2576 017a 0B       		.uleb128 0xb
 2577 017b 3B       		.uleb128 0x3b
 2578 017c 05       		.uleb128 0x5
 2579 017d 27       		.uleb128 0x27
 2580 017e 19       		.uleb128 0x19
 2581 017f 11       		.uleb128 0x11
ARM GAS  C:\Users\Petro\AppData\Local\Temp\cchgZgX0.s 			page 57


 2582 0180 01       		.uleb128 0x1
 2583 0181 12       		.uleb128 0x12
 2584 0182 06       		.uleb128 0x6
 2585 0183 40       		.uleb128 0x40
 2586 0184 18       		.uleb128 0x18
 2587 0185 9742     		.uleb128 0x2117
 2588 0187 19       		.uleb128 0x19
 2589 0188 00       		.byte	0
 2590 0189 00       		.byte	0
 2591 018a 17       		.uleb128 0x17
 2592 018b 2E       		.uleb128 0x2e
 2593 018c 01       		.byte	0x1
 2594 018d 3F       		.uleb128 0x3f
 2595 018e 19       		.uleb128 0x19
 2596 018f 03       		.uleb128 0x3
 2597 0190 0E       		.uleb128 0xe
 2598 0191 3A       		.uleb128 0x3a
 2599 0192 0B       		.uleb128 0xb
 2600 0193 3B       		.uleb128 0x3b
 2601 0194 05       		.uleb128 0x5
 2602 0195 27       		.uleb128 0x27
 2603 0196 19       		.uleb128 0x19
 2604 0197 49       		.uleb128 0x49
 2605 0198 13       		.uleb128 0x13
 2606 0199 11       		.uleb128 0x11
 2607 019a 01       		.uleb128 0x1
 2608 019b 12       		.uleb128 0x12
 2609 019c 06       		.uleb128 0x6
 2610 019d 40       		.uleb128 0x40
 2611 019e 18       		.uleb128 0x18
 2612 019f 9642     		.uleb128 0x2116
 2613 01a1 19       		.uleb128 0x19
 2614 01a2 01       		.uleb128 0x1
 2615 01a3 13       		.uleb128 0x13
 2616 01a4 00       		.byte	0
 2617 01a5 00       		.byte	0
 2618 01a6 18       		.uleb128 0x18
 2619 01a7 34       		.uleb128 0x34
 2620 01a8 00       		.byte	0
 2621 01a9 03       		.uleb128 0x3
 2622 01aa 08       		.uleb128 0x8
 2623 01ab 3A       		.uleb128 0x3a
 2624 01ac 0B       		.uleb128 0xb
 2625 01ad 3B       		.uleb128 0x3b
 2626 01ae 05       		.uleb128 0x5
 2627 01af 49       		.uleb128 0x49
 2628 01b0 13       		.uleb128 0x13
 2629 01b1 02       		.uleb128 0x2
 2630 01b2 18       		.uleb128 0x18
 2631 01b3 00       		.byte	0
 2632 01b4 00       		.byte	0
 2633 01b5 19       		.uleb128 0x19
 2634 01b6 05       		.uleb128 0x5
 2635 01b7 00       		.byte	0
 2636 01b8 03       		.uleb128 0x3
 2637 01b9 0E       		.uleb128 0xe
 2638 01ba 3A       		.uleb128 0x3a
ARM GAS  C:\Users\Petro\AppData\Local\Temp\cchgZgX0.s 			page 58


 2639 01bb 0B       		.uleb128 0xb
 2640 01bc 3B       		.uleb128 0x3b
 2641 01bd 05       		.uleb128 0x5
 2642 01be 49       		.uleb128 0x49
 2643 01bf 13       		.uleb128 0x13
 2644 01c0 02       		.uleb128 0x2
 2645 01c1 18       		.uleb128 0x18
 2646 01c2 00       		.byte	0
 2647 01c3 00       		.byte	0
 2648 01c4 1A       		.uleb128 0x1a
 2649 01c5 0F       		.uleb128 0xf
 2650 01c6 00       		.byte	0
 2651 01c7 0B       		.uleb128 0xb
 2652 01c8 0B       		.uleb128 0xb
 2653 01c9 49       		.uleb128 0x49
 2654 01ca 13       		.uleb128 0x13
 2655 01cb 00       		.byte	0
 2656 01cc 00       		.byte	0
 2657 01cd 1B       		.uleb128 0x1b
 2658 01ce 2E       		.uleb128 0x2e
 2659 01cf 01       		.byte	0x1
 2660 01d0 3F       		.uleb128 0x3f
 2661 01d1 19       		.uleb128 0x19
 2662 01d2 03       		.uleb128 0x3
 2663 01d3 0E       		.uleb128 0xe
 2664 01d4 3A       		.uleb128 0x3a
 2665 01d5 0B       		.uleb128 0xb
 2666 01d6 3B       		.uleb128 0x3b
 2667 01d7 05       		.uleb128 0x5
 2668 01d8 27       		.uleb128 0x27
 2669 01d9 19       		.uleb128 0x19
 2670 01da 11       		.uleb128 0x11
 2671 01db 01       		.uleb128 0x1
 2672 01dc 12       		.uleb128 0x12
 2673 01dd 06       		.uleb128 0x6
 2674 01de 40       		.uleb128 0x40
 2675 01df 18       		.uleb128 0x18
 2676 01e0 9642     		.uleb128 0x2116
 2677 01e2 19       		.uleb128 0x19
 2678 01e3 01       		.uleb128 0x1
 2679 01e4 13       		.uleb128 0x13
 2680 01e5 00       		.byte	0
 2681 01e6 00       		.byte	0
 2682 01e7 1C       		.uleb128 0x1c
 2683 01e8 05       		.uleb128 0x5
 2684 01e9 00       		.byte	0
 2685 01ea 03       		.uleb128 0x3
 2686 01eb 08       		.uleb128 0x8
 2687 01ec 3A       		.uleb128 0x3a
 2688 01ed 0B       		.uleb128 0xb
 2689 01ee 3B       		.uleb128 0x3b
 2690 01ef 05       		.uleb128 0x5
 2691 01f0 49       		.uleb128 0x49
 2692 01f1 13       		.uleb128 0x13
 2693 01f2 02       		.uleb128 0x2
 2694 01f3 18       		.uleb128 0x18
 2695 01f4 00       		.byte	0
ARM GAS  C:\Users\Petro\AppData\Local\Temp\cchgZgX0.s 			page 59


 2696 01f5 00       		.byte	0
 2697 01f6 1D       		.uleb128 0x1d
 2698 01f7 34       		.uleb128 0x34
 2699 01f8 00       		.byte	0
 2700 01f9 03       		.uleb128 0x3
 2701 01fa 0E       		.uleb128 0xe
 2702 01fb 3A       		.uleb128 0x3a
 2703 01fc 0B       		.uleb128 0xb
 2704 01fd 3B       		.uleb128 0x3b
 2705 01fe 0B       		.uleb128 0xb
 2706 01ff 49       		.uleb128 0x49
 2707 0200 13       		.uleb128 0x13
 2708 0201 3F       		.uleb128 0x3f
 2709 0202 19       		.uleb128 0x19
 2710 0203 02       		.uleb128 0x2
 2711 0204 18       		.uleb128 0x18
 2712 0205 00       		.byte	0
 2713 0206 00       		.byte	0
 2714 0207 00       		.byte	0
 2715              		.section	.debug_aranges,"",%progbits
 2716 0000 84000000 		.4byte	0x84
 2717 0004 0200     		.2byte	0x2
 2718 0006 00000000 		.4byte	.Ldebug_info0
 2719 000a 04       		.byte	0x4
 2720 000b 00       		.byte	0
 2721 000c 0000     		.2byte	0
 2722 000e 0000     		.2byte	0
 2723 0010 00000000 		.4byte	.LFB28
 2724 0014 34000000 		.4byte	.LFE28-.LFB28
 2725 0018 00000000 		.4byte	.LFB29
 2726 001c DC000000 		.4byte	.LFE29-.LFB29
 2727 0020 00000000 		.4byte	.LFB30
 2728 0024 CC000000 		.4byte	.LFE30-.LFB30
 2729 0028 00000000 		.4byte	.LFB31
 2730 002c 14000000 		.4byte	.LFE31-.LFB31
 2731 0030 00000000 		.4byte	.LFB32
 2732 0034 30000000 		.4byte	.LFE32-.LFB32
 2733 0038 00000000 		.4byte	.LFB33
 2734 003c 14000000 		.4byte	.LFE33-.LFB33
 2735 0040 00000000 		.4byte	.LFB34
 2736 0044 28000000 		.4byte	.LFE34-.LFB34
 2737 0048 00000000 		.4byte	.LFB35
 2738 004c 44000000 		.4byte	.LFE35-.LFB35
 2739 0050 00000000 		.4byte	.LFB36
 2740 0054 14000000 		.4byte	.LFE36-.LFB36
 2741 0058 00000000 		.4byte	.LFB37
 2742 005c 1C000000 		.4byte	.LFE37-.LFB37
 2743 0060 00000000 		.4byte	.LFB38
 2744 0064 28020000 		.4byte	.LFE38-.LFB38
 2745 0068 00000000 		.4byte	.LFB39
 2746 006c C4000000 		.4byte	.LFE39-.LFB39
 2747 0070 00000000 		.4byte	.LFB40
 2748 0074 C2000000 		.4byte	.LFE40-.LFB40
 2749 0078 00000000 		.4byte	.LFB41
 2750 007c 60000000 		.4byte	.LFE41-.LFB41
 2751 0080 00000000 		.4byte	0
 2752 0084 00000000 		.4byte	0
ARM GAS  C:\Users\Petro\AppData\Local\Temp\cchgZgX0.s 			page 60


 2753              		.section	.debug_ranges,"",%progbits
 2754              	.Ldebug_ranges0:
 2755 0000 00000000 		.4byte	.LFB28
 2756 0004 34000000 		.4byte	.LFE28
 2757 0008 00000000 		.4byte	.LFB29
 2758 000c DC000000 		.4byte	.LFE29
 2759 0010 00000000 		.4byte	.LFB30
 2760 0014 CC000000 		.4byte	.LFE30
 2761 0018 00000000 		.4byte	.LFB31
 2762 001c 14000000 		.4byte	.LFE31
 2763 0020 00000000 		.4byte	.LFB32
 2764 0024 30000000 		.4byte	.LFE32
 2765 0028 00000000 		.4byte	.LFB33
 2766 002c 14000000 		.4byte	.LFE33
 2767 0030 00000000 		.4byte	.LFB34
 2768 0034 28000000 		.4byte	.LFE34
 2769 0038 00000000 		.4byte	.LFB35
 2770 003c 44000000 		.4byte	.LFE35
 2771 0040 00000000 		.4byte	.LFB36
 2772 0044 14000000 		.4byte	.LFE36
 2773 0048 00000000 		.4byte	.LFB37
 2774 004c 1C000000 		.4byte	.LFE37
 2775 0050 00000000 		.4byte	.LFB38
 2776 0054 28020000 		.4byte	.LFE38
 2777 0058 00000000 		.4byte	.LFB39
 2778 005c C4000000 		.4byte	.LFE39
 2779 0060 00000000 		.4byte	.LFB40
 2780 0064 C2000000 		.4byte	.LFE40
 2781 0068 00000000 		.4byte	.LFB41
 2782 006c 60000000 		.4byte	.LFE41
 2783 0070 00000000 		.4byte	0
 2784 0074 00000000 		.4byte	0
 2785              		.section	.debug_line,"",%progbits
 2786              	.Ldebug_line0:
 2787 0000 48030000 		.section	.debug_str,"MS",%progbits,1
 2787      02003801 
 2787      00000201 
 2787      FB0E0D00 
 2787      01010101 
 2788              	.LASF54:
 2789 0000 72657375 		.ascii	"result\000"
 2789      6C7400
 2790              	.LASF28:
 2791 0007 4E545052 		.ascii	"NTPResp\000"
 2791      65737000 
 2792              	.LASF39:
 2793 000f 6E657753 		.ascii	"newSkier\000"
 2793      6B696572 
 2793      00
 2794              	.LASF27:
 2795 0018 44617461 		.ascii	"DataMs1\000"
 2795      4D733100 
 2796              	.LASF66:
 2797 0020 756E6978 		.ascii	"unixTime\000"
 2797      54696D65 
 2797      00
 2798              	.LASF46:
ARM GAS  C:\Users\Petro\AppData\Local\Temp\cchgZgX0.s 			page 61


 2799 0029 53656E64 		.ascii	"SendData\000"
 2799      44617461 
 2799      00
 2800              	.LASF43:
 2801 0032 73656E64 		.ascii	"sendData\000"
 2801      44617461 
 2801      00
 2802              	.LASF55:
 2803 003b 49735265 		.ascii	"IsRebootFinishFlag\000"
 2803      626F6F74 
 2803      46696E69 
 2803      7368466C 
 2803      616700
 2804              	.LASF16:
 2805 004e 75696E74 		.ascii	"uint64_t\000"
 2805      36345F74 
 2805      00
 2806              	.LASF63:
 2807 0057 6E6F436F 		.ascii	"noConnect\000"
 2807      6E6E6563 
 2807      7400
 2808              	.LASF31:
 2809 0061 7265626F 		.ascii	"reboot\000"
 2809      6F7400
 2810              	.LASF20:
 2811 0068 73697A65 		.ascii	"sizetype\000"
 2811      74797065 
 2811      00
 2812              	.LASF45:
 2813 0071 72656376 		.ascii	"recvData\000"
 2813      44617461 
 2813      00
 2814              	.LASF78:
 2815 007a 6D696C6C 		.ascii	"millis3\000"
 2815      69733300 
 2816              	.LASF60:
 2817 0082 49447265 		.ascii	"IDreceivePacket\000"
 2817      63656976 
 2817      65506163 
 2817      6B657400 
 2818              	.LASF38:
 2819 0092 73746172 		.ascii	"startMsTime\000"
 2819      744D7354 
 2819      696D6500 
 2820              	.LASF7:
 2821 009e 5F5F7569 		.ascii	"__uint32_t\000"
 2821      6E743332 
 2821      5F7400
 2822              	.LASF76:
 2823 00a9 756E6978 		.ascii	"unixTime3\000"
 2823      54696D65 
 2823      3300
 2824              	.LASF4:
 2825 00b3 5F5F7569 		.ascii	"__uint16_t\000"
 2825      6E743136 
 2825      5F7400
 2826              	.LASF2:
ARM GAS  C:\Users\Petro\AppData\Local\Temp\cchgZgX0.s 			page 62


 2827 00be 73686F72 		.ascii	"short int\000"
 2827      7420696E 
 2827      7400
 2828              	.LASF80:
 2829 00c8 66696E4E 		.ascii	"finNoReady\000"
 2829      6F526561 
 2829      647900
 2830              	.LASF42:
 2831 00d3 73656E64 		.ascii	"sendBuffer\000"
 2831      42756666 
 2831      657200
 2832              	.LASF13:
 2833 00de 75696E74 		.ascii	"uint8_t\000"
 2833      385F7400 
 2834              	.LASF50:
 2835 00e6 4E657477 		.ascii	"NetworkStatus\000"
 2835      6F726B53 
 2835      74617475 
 2835      7300
 2836              	.LASF41:
 2837 00f4 53746172 		.ascii	"StartData\000"
 2837      74446174 
 2837      6100
 2838              	.LASF73:
 2839 00fe 73617665 		.ascii	"saveTime\000"
 2839      54696D65 
 2839      00
 2840              	.LASF74:
 2841 0107 72656376 		.ascii	"recvDataNTP\000"
 2841      44617461 
 2841      4E545000 
 2842              	.LASF17:
 2843 0113 666C6F61 		.ascii	"float\000"
 2843      7400
 2844              	.LASF26:
 2845 0119 456E6450 		.ascii	"EndPacket\000"
 2845      61636B65 
 2845      7400
 2846              	.LASF9:
 2847 0123 6C6F6E67 		.ascii	"long long int\000"
 2847      206C6F6E 
 2847      6720696E 
 2847      7400
 2848              	.LASF36:
 2849 0131 46696E69 		.ascii	"FinishData\000"
 2849      73684461 
 2849      746100
 2850              	.LASF68:
 2851 013c 52656365 		.ascii	"ReceiveRealTime\000"
 2851      69766552 
 2851      65616C54 
 2851      696D6500 
 2852              	.LASF6:
 2853 014c 6C6F6E67 		.ascii	"long int\000"
 2853      20696E74 
 2853      00
 2854              	.LASF82:
ARM GAS  C:\Users\Petro\AppData\Local\Temp\cchgZgX0.s 			page 63


 2855 0155 6F757444 		.ascii	"outData\000"
 2855      61746100 
 2856              	.LASF57:
 2857 015d 53657452 		.ascii	"SetRebootFlag\000"
 2857      65626F6F 
 2857      74466C61 
 2857      6700
 2858              	.LASF61:
 2859 016b 6C617374 		.ascii	"lastIDpacket\000"
 2859      49447061 
 2859      636B6574 
 2859      00
 2860              	.LASF40:
 2861 0178 77726974 		.ascii	"writeStatus\000"
 2861      65537461 
 2861      74757300 
 2862              	.LASF85:
 2863 0184 2E5C6C69 		.ascii	".\\lib_Network\\network.c\000"
 2863      625F4E65 
 2863      74776F72 
 2863      6B5C6E65 
 2863      74776F72 
 2864              	.LASF3:
 2865 019c 5F5F7569 		.ascii	"__uint8_t\000"
 2865      6E74385F 
 2865      7400
 2866              	.LASF81:
 2867 01a6 696E4461 		.ascii	"inData\000"
 2867      746100
 2868              	.LASF34:
 2869 01ad 746D704D 		.ascii	"tmpMsTime\000"
 2869      7354696D 
 2869      6500
 2870              	.LASF25:
 2871 01b7 43686563 		.ascii	"CheckSum\000"
 2871      6B53756D 
 2871      00
 2872              	.LASF1:
 2873 01c0 756E7369 		.ascii	"unsigned char\000"
 2873      676E6564 
 2873      20636861 
 2873      7200
 2874              	.LASF70:
 2875 01ce 756E6978 		.ascii	"unixTime2\000"
 2875      54696D65 
 2875      3200
 2876              	.LASF83:
 2877 01d8 70726576 		.ascii	"previousData\000"
 2877      696F7573 
 2877      44617461 
 2877      00
 2878              	.LASF0:
 2879 01e5 7369676E 		.ascii	"signed char\000"
 2879      65642063 
 2879      68617200 
 2880              	.LASF11:
 2881 01f1 6C6F6E67 		.ascii	"long long unsigned int\000"
ARM GAS  C:\Users\Petro\AppData\Local\Temp\cchgZgX0.s 			page 64


 2881      206C6F6E 
 2881      6720756E 
 2881      7369676E 
 2881      65642069 
 2882              	.LASF15:
 2883 0208 75696E74 		.ascii	"uint32_t\000"
 2883      33325F74 
 2883      00
 2884              	.LASF77:
 2885 0211 6D696C6C 		.ascii	"millis2\000"
 2885      69733200 
 2886              	.LASF48:
 2887 0219 756E6978 		.ascii	"unixTimeStart\000"
 2887      54696D65 
 2887      53746172 
 2887      7400
 2888              	.LASF12:
 2889 0227 756E7369 		.ascii	"unsigned int\000"
 2889      676E6564 
 2889      20696E74 
 2889      00
 2890              	.LASF14:
 2891 0234 75696E74 		.ascii	"uint16_t\000"
 2891      31365F74 
 2891      00
 2892              	.LASF8:
 2893 023d 6C6F6E67 		.ascii	"long unsigned int\000"
 2893      20756E73 
 2893      69676E65 
 2893      6420696E 
 2893      7400
 2894              	.LASF56:
 2895 024f 496E6974 		.ascii	"InitNetwork\000"
 2895      4E657477 
 2895      6F726B00 
 2896              	.LASF33:
 2897 025b 746D7054 		.ascii	"tmpTime\000"
 2897      696D6500 
 2898              	.LASF29:
 2899 0263 49447061 		.ascii	"IDpacket\000"
 2899      636B6574 
 2899      00
 2900              	.LASF21:
 2901 026c 436F6D6D 		.ascii	"Command\000"
 2901      616E6400 
 2902              	.LASF35:
 2903 0274 72656164 		.ascii	"readStatus\000"
 2903      53746174 
 2903      757300
 2904              	.LASF19:
 2905 027f 63686172 		.ascii	"char\000"
 2905      00
 2906              	.LASF51:
 2907 0284 46696E52 		.ascii	"FinReady\000"
 2907      65616479 
 2907      00
 2908              	.LASF30:
ARM GAS  C:\Users\Petro\AppData\Local\Temp\cchgZgX0.s 			page 65


 2909 028d 72656164 		.ascii	"ready\000"
 2909      7900
 2910              	.LASF84:
 2911 0293 474E5520 		.ascii	"GNU C 4.9.3 20150303 (release) [ARM/embedded-4_9-br"
 2911      4320342E 
 2911      392E3320 
 2911      32303135 
 2911      30333033 
 2912 02c6 616E6368 		.ascii	"anch revision 221220] -mcpu=cortex-m0 -mthumb -g -O"
 2912      20726576 
 2912      6973696F 
 2912      6E203232 
 2912      31323230 
 2913 02f9 30202D66 		.ascii	"0 -ffunction-sections -ffat-lto-objects\000"
 2913      66756E63 
 2913      74696F6E 
 2913      2D736563 
 2913      74696F6E 
 2914              	.LASF37:
 2915 0321 756E6978 		.ascii	"unixStartTime\000"
 2915      53746172 
 2915      7454696D 
 2915      6500
 2916              	.LASF5:
 2917 032f 73686F72 		.ascii	"short unsigned int\000"
 2917      7420756E 
 2917      7369676E 
 2917      65642069 
 2917      6E7400
 2918              	.LASF49:
 2919 0342 72656365 		.ascii	"recentMs\000"
 2919      6E744D73 
 2919      00
 2920              	.LASF71:
 2921 034b 6D696C6C 		.ascii	"millisTime2\000"
 2921      69735469 
 2921      6D653200 
 2922              	.LASF22:
 2923 0357 44617461 		.ascii	"Data1\000"
 2923      3100
 2924              	.LASF23:
 2925 035d 44617461 		.ascii	"Data2\000"
 2925      3200
 2926              	.LASF10:
 2927 0363 5F5F7569 		.ascii	"__uint64_t\000"
 2927      6E743634 
 2927      5F7400
 2928              	.LASF86:
 2929 036e 443A5C43 		.ascii	"D:\\Cypress\\system-start-finish\\vesion 2\\fw\\sta"
 2929      79707265 
 2929      73735C73 
 2929      79737465 
 2929      6D2D7374 
 2930 039c 72745C73 		.ascii	"rt\\sandbox\\v3\\Start(state machine)\\start_v0.cyd"
 2930      616E6462 
 2930      6F785C76 
 2930      335C5374 
ARM GAS  C:\Users\Petro\AppData\Local\Temp\cchgZgX0.s 			page 66


 2930      61727428 
 2931 03cb 736E00   		.ascii	"sn\000"
 2932              	.LASF67:
 2933 03ce 6D696C6C 		.ascii	"millisTime\000"
 2933      69735469 
 2933      6D6500
 2934              	.LASF64:
 2935 03d9 64656C69 		.ascii	"deliveryTime\000"
 2935      76657279 
 2935      54696D65 
 2935      00
 2936              	.LASF58:
 2937 03e6 436C6561 		.ascii	"ClearRebootFlag\000"
 2937      72526562 
 2937      6F6F7446 
 2937      6C616700 
 2938              	.LASF53:
 2939 03f6 46696E57 		.ascii	"FinWriteInDB\000"
 2939      72697465 
 2939      496E4442 
 2939      00
 2940              	.LASF18:
 2941 0403 646F7562 		.ascii	"double\000"
 2941      6C6500
 2942              	.LASF79:
 2943 040a 6E657477 		.ascii	"networkStatus\000"
 2943      6F726B53 
 2943      74617475 
 2943      7300
 2944              	.LASF65:
 2945 0418 64656C69 		.ascii	"deliveryMs\000"
 2945      76657279 
 2945      4D7300
 2946              	.LASF62:
 2947 0423 72657375 		.ascii	"resultReceive\000"
 2947      6C745265 
 2947      63656976 
 2947      6500
 2948              	.LASF44:
 2949 0431 62797465 		.ascii	"byte\000"
 2949      00
 2950              	.LASF87:
 2951 0436 52657370 		.ascii	"Resp\000"
 2951      00
 2952              	.LASF59:
 2953 043b 4E545073 		.ascii	"NTPsync\000"
 2953      796E6300 
 2954              	.LASF24:
 2955 0443 44617461 		.ascii	"Data3\000"
 2955      3300
 2956              	.LASF52:
 2957 0449 52656365 		.ascii	"ReceiveData\000"
 2957      69766544 
 2957      61746100 
 2958              	.LASF72:
 2959 0455 49447265 		.ascii	"IDreceive\000"
 2959      63656976 
ARM GAS  C:\Users\Petro\AppData\Local\Temp\cchgZgX0.s 			page 67


 2959      6500
 2960              	.LASF69:
 2961 045f 4E545072 		.ascii	"NTPreceiveTime\000"
 2961      65636569 
 2961      76655469 
 2961      6D6500
 2962              	.LASF47:
 2963 046e 53656E64 		.ascii	"SendSkierStart\000"
 2963      536B6965 
 2963      72537461 
 2963      727400
 2964              	.LASF32:
 2965 047d 636F756E 		.ascii	"countSkiers\000"
 2965      74536B69 
 2965      65727300 
 2966              	.LASF75:
 2967 0489 4E545073 		.ascii	"NTPsendTime\000"
 2967      656E6454 
 2967      696D6500 
 2968              		.ident	"GCC: (GNU Tools for ARM Embedded Processors) 4.9.3 20150303 (release) [ARM/embedded-4_9-br
