ARM GAS  C:\DOCUME~1\Admin\LOCALS~1\Temp\cc2z0V6J.s 			page 1


   1              		.cpu cortex-m0
   2              		.fpu softvfp
   3              		.eabi_attribute 20, 1
   4              		.eabi_attribute 21, 1
   5              		.eabi_attribute 23, 3
   6              		.eabi_attribute 24, 1
   7              		.eabi_attribute 25, 1
   8              		.eabi_attribute 26, 1
   9              		.eabi_attribute 30, 6
  10              		.eabi_attribute 34, 0
  11              		.eabi_attribute 18, 4
  12              		.code	16
  13              		.file	"network.c"
  14              		.text
  15              	.Ltext0:
  16              		.cfi_sections	.debug_frame
  17              		.bss
  18              		.align	2
  19              	buff:
  20 0000 00000000 		.space	100
  20      00000000 
  20      00000000 
  20      00000000 
  20      00000000 
  21              		.comm	inData,24,8
  22              		.comm	outData,24,8
  23              		.comm	previousData,100,4
  24              		.align	2
  25              	networkStatus:
  26 0064 00000000 		.space	4
  27              		.align	2
  28              	noConnect:
  29 0068 00000000 		.space	4
  30              		.align	2
  31              	finNoReady:
  32 006c 00000000 		.space	4
  33              		.section	.text.InitNetwork,"ax",%progbits
  34              		.align	2
  35              		.global	InitNetwork
  36              		.code	16
  37              		.thumb_func
  38              		.type	InitNetwork, %function
  39              	InitNetwork:
  40              	.LFB63:
  41              		.file 1 ".\\lib_Network\\network.c"
   1:.\lib_Network/network.c **** 
   2:.\lib_Network/network.c **** #include "lib_Network\network.h"
   3:.\lib_Network/network.c **** 
   4:.\lib_Network/network.c **** 
   5:.\lib_Network/network.c **** 
   6:.\lib_Network/network.c **** void InitNetwork(void)
   7:.\lib_Network/network.c **** {
  42              		.loc 1 7 0
  43              		.cfi_startproc
  44 0000 80B5     		push	{r7, lr}
  45              		.cfi_def_cfa_offset 8
  46              		.cfi_offset 7, -8
ARM GAS  C:\DOCUME~1\Admin\LOCALS~1\Temp\cc2z0V6J.s 			page 2


  47              		.cfi_offset 14, -4
  48 0002 00AF     		add	r7, sp, #0
  49              		.cfi_def_cfa_register 7
   8:.\lib_Network/network.c ****     UART_XB_Start();
  50              		.loc 1 8 0
  51 0004 FFF7FEFF 		bl	UART_XB_Start
   9:.\lib_Network/network.c ****     #ifdef DEBUG_INFO
  10:.\lib_Network/network.c ****     SW_UART_DEBUG_Start();
  11:.\lib_Network/network.c ****     SW_UART_DEBUG_PutString("HElLO, IM READY(start)");
  12:.\lib_Network/network.c ****     #endif
  13:.\lib_Network/network.c ****     inData.readStatus = NO_READ;
  52              		.loc 1 13 0
  53 0008 074B     		ldr	r3, .L2
  54 000a 0022     		mov	r2, #0
  55 000c 9A74     		strb	r2, [r3, #18]
  14:.\lib_Network/network.c ****     outData.writeStatus = WRITE_OK;
  56              		.loc 1 14 0
  57 000e 074B     		ldr	r3, .L2+4
  58 0010 0122     		mov	r2, #1
  59 0012 DA74     		strb	r2, [r3, #19]
  15:.\lib_Network/network.c ****     outData.IDpacket = 0xFF;
  60              		.loc 1 15 0
  61 0014 054B     		ldr	r3, .L2+4
  62 0016 FF22     		mov	r2, #255
  63 0018 1A70     		strb	r2, [r3]
  16:.\lib_Network/network.c ****     networkStatus = NETWORK_DISCONN;   
  64              		.loc 1 16 0
  65 001a 054B     		ldr	r3, .L2+8
  66 001c 0022     		mov	r2, #0
  67 001e 1A60     		str	r2, [r3]
  17:.\lib_Network/network.c ****     UART_XB_SpiUartClearRxBuffer();
  68              		.loc 1 17 0
  69 0020 FFF7FEFF 		bl	UART_XB_SpiUartClearRxBuffer
  18:.\lib_Network/network.c **** }
  70              		.loc 1 18 0
  71 0024 BD46     		mov	sp, r7
  72              		@ sp needed
  73 0026 80BD     		pop	{r7, pc}
  74              	.L3:
  75              		.align	2
  76              	.L2:
  77 0028 00000000 		.word	inData
  78 002c 00000000 		.word	outData
  79 0030 64000000 		.word	networkStatus
  80              		.cfi_endproc
  81              	.LFE63:
  82              		.size	InitNetwork, .-InitNetwork
  83              		.section	.rodata
  84              		.align	2
  85              	.LC6:
  86 0000 25303258 		.ascii	"%02X:%08X%08X%04X%02X%02X\000"
  86      3A253038 
  86      58253038 
  86      58253034 
  86      58253032 
  87              		.section	.text.SendData,"ax",%progbits
  88              		.align	2
ARM GAS  C:\DOCUME~1\Admin\LOCALS~1\Temp\cc2z0V6J.s 			page 3


  89              		.global	SendData
  90              		.code	16
  91              		.thumb_func
  92              		.type	SendData, %function
  93              	SendData:
  94              	.LFB64:
  19:.\lib_Network/network.c **** 
  20:.\lib_Network/network.c **** void SendData(void)
  21:.\lib_Network/network.c **** {
  95              		.loc 1 21 0
  96              		.cfi_startproc
  97 0000 F0B5     		push	{r4, r5, r6, r7, lr}
  98              		.cfi_def_cfa_offset 20
  99              		.cfi_offset 4, -20
 100              		.cfi_offset 5, -16
 101              		.cfi_offset 6, -12
 102              		.cfi_offset 7, -8
 103              		.cfi_offset 14, -4
 104 0002 9FB0     		sub	sp, sp, #124
 105              		.cfi_def_cfa_offset 144
 106 0004 04AF     		add	r7, sp, #16
 107              		.cfi_def_cfa 7, 128
  22:.\lib_Network/network.c ****     if(outData.writeStatus == NO_WRITE && inData.readStatus == READ_OK)
 108              		.loc 1 22 0
 109 0006 314B     		ldr	r3, .L7
 110 0008 DB7C     		ldrb	r3, [r3, #19]
 111 000a 002B     		cmp	r3, #0
 112 000c 5AD1     		bne	.L4
 113              		.loc 1 22 0 is_stmt 0 discriminator 1
 114 000e 304B     		ldr	r3, .L7+4
 115 0010 9B7C     		ldrb	r3, [r3, #18]
 116 0012 012B     		cmp	r3, #1
 117 0014 56D1     		bne	.L4
  23:.\lib_Network/network.c ****     { 
  24:.\lib_Network/network.c ****         if (inData.IDpacket == outData.IDpacket)
 118              		.loc 1 24 0 is_stmt 1
 119 0016 2E4B     		ldr	r3, .L7+4
 120 0018 1878     		ldrb	r0, [r3]
 121 001a 2C4B     		ldr	r3, .L7
 122 001c 1B78     		ldrb	r3, [r3]
 123 001e 9842     		cmp	r0, r3
 124 0020 0AD1     		bne	.L6
  25:.\lib_Network/network.c ****         {
  26:.\lib_Network/network.c ****             /*send previous packet*/
  27:.\lib_Network/network.c ****             
  28:.\lib_Network/network.c ****             UART_XB_UartPutString(previousData);
 125              		.loc 1 28 0
 126 0022 2C4B     		ldr	r3, .L7+8
 127 0024 181C     		mov	r0, r3
 128 0026 FFF7FEFF 		bl	UART_XB_UartPutString
  29:.\lib_Network/network.c ****             outData.writeStatus = WRITE_OK;
 129              		.loc 1 29 0
 130 002a 284B     		ldr	r3, .L7
 131 002c 0122     		mov	r2, #1
 132 002e DA74     		strb	r2, [r3, #19]
  30:.\lib_Network/network.c ****             inData.readStatus = NO_READ;
 133              		.loc 1 30 0
ARM GAS  C:\DOCUME~1\Admin\LOCALS~1\Temp\cc2z0V6J.s 			page 4


 134 0030 274B     		ldr	r3, .L7+4
 135 0032 0022     		mov	r2, #0
 136 0034 9A74     		strb	r2, [r3, #18]
 137 0036 45E0     		b	.L4
 138              	.L6:
 139              	.LBB2:
  31:.\lib_Network/network.c ****         }else
  32:.\lib_Network/network.c ****         {
  33:.\lib_Network/network.c ****             /*send nex packet*/
  34:.\lib_Network/network.c ****             
  35:.\lib_Network/network.c ****             char sendBuffer[DATA_BUFFER];
  36:.\lib_Network/network.c ****             char sendData[DATA_BUFFER];
  37:.\lib_Network/network.c ****             
  38:.\lib_Network/network.c ****             /*pack data*/
  39:.\lib_Network/network.c ****             sprintf(sendData,"%02X:%08X%08X%04X%02X%02X",
  40:.\lib_Network/network.c ****                     0u,
  41:.\lib_Network/network.c ****                     (uint32_t)((outData.unixStartTime & MASK_HIGH) >> DATA_SHIFT), 
 140              		.loc 1 41 0
 141 0038 244B     		ldr	r3, .L7
 142 003a DC68     		ldr	r4, [r3, #12]
 143 003c 9B68     		ldr	r3, [r3, #8]
 144 003e 2100     		lsr	r1, r4, #0
 145 0040 0023     		mov	r3, #0
 146 0042 1A1C     		mov	r2, r3
  39:.\lib_Network/network.c ****                     0u,
 147              		.loc 1 39 0
 148 0044 0E1C     		mov	r6, r1
  42:.\lib_Network/network.c ****                     (uint32_t)(outData.unixStartTime & MASK_LOW), 
 149              		.loc 1 42 0
 150 0046 214B     		ldr	r3, .L7
 151 0048 DC68     		ldr	r4, [r3, #12]
 152 004a 9B68     		ldr	r3, [r3, #8]
  39:.\lib_Network/network.c ****                     0u,
 153              		.loc 1 39 0
 154 004c 1D1C     		mov	r5, r3
  43:.\lib_Network/network.c ****                     outData.startMsTime, 
 155              		.loc 1 43 0
 156 004e 1F4B     		ldr	r3, .L7
 157 0050 1B8A     		ldrh	r3, [r3, #16]
  39:.\lib_Network/network.c ****                     0u,
 158              		.loc 1 39 0
 159 0052 1C1C     		mov	r4, r3
  44:.\lib_Network/network.c ****                     outData.newSkier, 
 160              		.loc 1 44 0
 161 0054 1D4B     		ldr	r3, .L7
 162 0056 9B7C     		ldrb	r3, [r3, #18]
  39:.\lib_Network/network.c ****                     0u,
 163              		.loc 1 39 0
 164 0058 181C     		mov	r0, r3
  45:.\lib_Network/network.c ****                     outData.reboot);
 165              		.loc 1 45 0
 166 005a 1C4B     		ldr	r3, .L7
 167 005c 1B7D     		ldrb	r3, [r3, #20]
  39:.\lib_Network/network.c ****                     0u,
 168              		.loc 1 39 0
 169 005e 191C     		mov	r1, r3
 170 0060 3423     		mov	r3, #52
ARM GAS  C:\DOCUME~1\Admin\LOCALS~1\Temp\cc2z0V6J.s 			page 5


 171 0062 FA18     		add	r2, r7, r3
 172 0064 1C4B     		ldr	r3, .L7+12
 173 0066 0095     		str	r5, [sp]
 174 0068 0194     		str	r4, [sp, #4]
 175 006a 0290     		str	r0, [sp, #8]
 176 006c 0391     		str	r1, [sp, #12]
 177 006e 101C     		mov	r0, r2
 178 0070 191C     		mov	r1, r3
 179 0072 0022     		mov	r2, #0
 180 0074 331C     		mov	r3, r6
 181 0076 FFF7FEFF 		bl	sprintf
  46:.\lib_Network/network.c ****             
  47:.\lib_Network/network.c ****             
  48:.\lib_Network/network.c ****             PackData(sendBuffer, (uint8_t *)sendData, inData.IDpacket);
 182              		.loc 1 48 0
 183 007a 154B     		ldr	r3, .L7+4
 184 007c 1B78     		ldrb	r3, [r3]
 185 007e 1C1C     		mov	r4, r3
 186 0080 3A1C     		mov	r2, r7
 187 0082 3423     		mov	r3, #52
 188 0084 FB18     		add	r3, r7, r3
 189 0086 101C     		mov	r0, r2
 190 0088 191C     		mov	r1, r3
 191 008a 221C     		mov	r2, r4
 192 008c FFF7FEFF 		bl	PackData
  49:.\lib_Network/network.c ****             UART_XB_UartPutString(sendBuffer);
 193              		.loc 1 49 0
 194 0090 3B1C     		mov	r3, r7
 195 0092 181C     		mov	r0, r3
 196 0094 FFF7FEFF 		bl	UART_XB_UartPutString
  50:.\lib_Network/network.c ****             
  51:.\lib_Network/network.c ****             #ifdef DEBUG_INFO
  52:.\lib_Network/network.c ****             SW_UART_DEBUG_PutString(sendBuffer);
  53:.\lib_Network/network.c ****             SW_UART_DEBUG_PutString("    send data\n\r");
  54:.\lib_Network/network.c ****             #endif
  55:.\lib_Network/network.c ****             
  56:.\lib_Network/network.c **** 
  57:.\lib_Network/network.c ****             outData.newSkier = !NEW_SKIER_IN_TARCK;
 197              		.loc 1 57 0
 198 0098 0C4B     		ldr	r3, .L7
 199 009a 0022     		mov	r2, #0
 200 009c 9A74     		strb	r2, [r3, #18]
  58:.\lib_Network/network.c ****                 
  59:.\lib_Network/network.c ****             outData.writeStatus = WRITE_OK;
 201              		.loc 1 59 0
 202 009e 0B4B     		ldr	r3, .L7
 203 00a0 0122     		mov	r2, #1
 204 00a2 DA74     		strb	r2, [r3, #19]
  60:.\lib_Network/network.c ****             outData.IDpacket = inData.IDpacket;
 205              		.loc 1 60 0
 206 00a4 0A4B     		ldr	r3, .L7+4
 207 00a6 1A78     		ldrb	r2, [r3]
 208 00a8 084B     		ldr	r3, .L7
 209 00aa 1A70     		strb	r2, [r3]
  61:.\lib_Network/network.c ****             inData.readStatus = NO_READ;
 210              		.loc 1 61 0
 211 00ac 084B     		ldr	r3, .L7+4
ARM GAS  C:\DOCUME~1\Admin\LOCALS~1\Temp\cc2z0V6J.s 			page 6


 212 00ae 0022     		mov	r2, #0
 213 00b0 9A74     		strb	r2, [r3, #18]
  62:.\lib_Network/network.c ****             strcpy(previousData, sendBuffer);
 214              		.loc 1 62 0
 215 00b2 084A     		ldr	r2, .L7+8
 216 00b4 3B1C     		mov	r3, r7
 217 00b6 101C     		mov	r0, r2
 218 00b8 191C     		mov	r1, r3
 219 00ba FFF7FEFF 		bl	strcpy
  63:.\lib_Network/network.c ****             
  64:.\lib_Network/network.c ****             CyDelay(50);
 220              		.loc 1 64 0
 221 00be 3220     		mov	r0, #50
 222 00c0 FFF7FEFF 		bl	CyDelay
 223              	.L4:
 224              	.LBE2:
  65:.\lib_Network/network.c ****         }
  66:.\lib_Network/network.c ****     }
  67:.\lib_Network/network.c **** }
 225              		.loc 1 67 0
 226 00c4 BD46     		mov	sp, r7
 227 00c6 1BB0     		add	sp, sp, #108
 228              		@ sp needed
 229 00c8 F0BD     		pop	{r4, r5, r6, r7, pc}
 230              	.L8:
 231 00ca C046     		.align	2
 232              	.L7:
 233 00cc 00000000 		.word	outData
 234 00d0 00000000 		.word	inData
 235 00d4 00000000 		.word	previousData
 236 00d8 00000000 		.word	.LC6
 237              		.cfi_endproc
 238              	.LFE64:
 239              		.size	SendData, .-SendData
 240              		.section	.text.ReceiveData,"ax",%progbits
 241              		.align	2
 242              		.global	ReceiveData
 243              		.code	16
 244              		.thumb_func
 245              		.type	ReceiveData, %function
 246              	ReceiveData:
 247              	.LFB65:
  68:.\lib_Network/network.c **** 
  69:.\lib_Network/network.c **** 
  70:.\lib_Network/network.c **** uint32_t ReceiveData(void)
  71:.\lib_Network/network.c **** {
 248              		.loc 1 71 0
 249              		.cfi_startproc
 250 0000 80B5     		push	{r7, lr}
 251              		.cfi_def_cfa_offset 8
 252              		.cfi_offset 7, -8
 253              		.cfi_offset 14, -4
 254 0002 8AB0     		sub	sp, sp, #40
 255              		.cfi_def_cfa_offset 48
 256 0004 00AF     		add	r7, sp, #0
 257              		.cfi_def_cfa_register 7
  72:.\lib_Network/network.c ****     if(outData.writeStatus == WRITE_OK && inData.readStatus == NO_READ)
ARM GAS  C:\DOCUME~1\Admin\LOCALS~1\Temp\cc2z0V6J.s 			page 7


 258              		.loc 1 72 0
 259 0006 2D4B     		ldr	r3, .L17
 260 0008 DB7C     		ldrb	r3, [r3, #19]
 261 000a 012B     		cmp	r3, #1
 262 000c 51D1     		bne	.L10
 263              		.loc 1 72 0 is_stmt 0 discriminator 1
 264 000e 2C4B     		ldr	r3, .L17+4
 265 0010 9B7C     		ldrb	r3, [r3, #18]
 266 0012 002B     		cmp	r3, #0
 267 0014 4DD1     		bne	.L10
 268              	.LBB3:
  73:.\lib_Network/network.c ****     {
  74:.\lib_Network/network.c ****         uint32_t byte;
  75:.\lib_Network/network.c ****         struct Resp recvData;
  76:.\lib_Network/network.c ****           
  77:.\lib_Network/network.c ****         while((UART_XB_SpiUartGetRxBufferSize() > 0) && ((byte=UART_XB_UartGetChar()) != 0))
 269              		.loc 1 77 0 is_stmt 1
 270 0016 35E0     		b	.L11
 271              	.L14:
  78:.\lib_Network/network.c ****         { 
  79:.\lib_Network/network.c ****             UnpackData(&recvData, (uint8_t)(byte & 0xFF));
 272              		.loc 1 79 0
 273 0018 7B6A     		ldr	r3, [r7, #36]
 274 001a DBB2     		uxtb	r3, r3
 275 001c 3A1C     		mov	r2, r7
 276 001e 101C     		mov	r0, r2
 277 0020 191C     		mov	r1, r3
 278 0022 FFF7FEFF 		bl	UnpackData
  80:.\lib_Network/network.c ****             
  81:.\lib_Network/network.c ****             CyDelay(2);
 279              		.loc 1 81 0
 280 0026 0220     		mov	r0, #2
 281 0028 FFF7FEFF 		bl	CyDelay
  82:.\lib_Network/network.c ****             #ifdef DEBUG_INFO
  83:.\lib_Network/network.c ****             SW_UART_DEBUG_PutChar(byte);
  84:.\lib_Network/network.c ****             #endif
  85:.\lib_Network/network.c ****             
  86:.\lib_Network/network.c ****             if(recvData.EndPacket == 1)
 282              		.loc 1 86 0
 283 002c 3B1C     		mov	r3, r7
 284 002e 1B7E     		ldrb	r3, [r3, #24]
 285 0030 012B     		cmp	r3, #1
 286 0032 27D1     		bne	.L11
  87:.\lib_Network/network.c ****             {                      
  88:.\lib_Network/network.c ****                 inData.IDpacket = recvData.Seq;
 287              		.loc 1 88 0
 288 0034 3B1C     		mov	r3, r7
 289 0036 1B88     		ldrh	r3, [r3]
 290 0038 DAB2     		uxtb	r2, r3
 291 003a 214B     		ldr	r3, .L17+4
 292 003c 1A70     		strb	r2, [r3]
  89:.\lib_Network/network.c ****                 
  90:.\lib_Network/network.c ****                 inData.readStatus = READ_OK;
 293              		.loc 1 90 0
 294 003e 204B     		ldr	r3, .L17+4
 295 0040 0122     		mov	r2, #1
 296 0042 9A74     		strb	r2, [r3, #18]
ARM GAS  C:\DOCUME~1\Admin\LOCALS~1\Temp\cc2z0V6J.s 			page 8


  91:.\lib_Network/network.c ****                 outData.writeStatus = NO_WRITE;
 297              		.loc 1 91 0
 298 0044 1D4B     		ldr	r3, .L17
 299 0046 0022     		mov	r2, #0
 300 0048 DA74     		strb	r2, [r3, #19]
  92:.\lib_Network/network.c ****                 
  93:.\lib_Network/network.c ****                 /*connect network*/
  94:.\lib_Network/network.c ****                 networkStatus = NETWORK_CONN;
 301              		.loc 1 94 0
 302 004a 1E4B     		ldr	r3, .L17+8
 303 004c 0122     		mov	r2, #1
 304 004e 1A60     		str	r2, [r3]
  95:.\lib_Network/network.c ****                 noConnect = 0;
 305              		.loc 1 95 0
 306 0050 1D4B     		ldr	r3, .L17+12
 307 0052 0022     		mov	r2, #0
 308 0054 1A60     		str	r2, [r3]
  96:.\lib_Network/network.c ****                 /*write data*/
  97:.\lib_Network/network.c ****                 inData.countSkiers = (recvData.Data3 & 0x00FF) << 8;
 309              		.loc 1 97 0
 310 0056 3B1C     		mov	r3, r7
 311 0058 5B8A     		ldrh	r3, [r3, #18]
 312 005a 1B02     		lsl	r3, r3, #8
 313 005c DAB2     		uxtb	r2, r3
 314 005e 184B     		ldr	r3, .L17+4
 315 0060 DA70     		strb	r2, [r3, #3]
  98:.\lib_Network/network.c ****                 //inData.unixStartTime = recvData.Data1;
  99:.\lib_Network/network.c ****                 inData.ready = (recvData.Data2 & 0xFF00) >> 8;
 316              		.loc 1 99 0
 317 0062 3B1C     		mov	r3, r7
 318 0064 1B8A     		ldrh	r3, [r3, #16]
 319 0066 1B0A     		lsr	r3, r3, #8
 320 0068 9BB2     		uxth	r3, r3
 321 006a DAB2     		uxtb	r2, r3
 322 006c 144B     		ldr	r3, .L17+4
 323 006e 5A70     		strb	r2, [r3, #1]
 100:.\lib_Network/network.c ****                 inData.reboot = recvData.Data2 & 0x00FF;
 324              		.loc 1 100 0
 325 0070 3B1C     		mov	r3, r7
 326 0072 1B8A     		ldrh	r3, [r3, #16]
 327 0074 DAB2     		uxtb	r2, r3
 328 0076 124B     		ldr	r3, .L17+4
 329 0078 9A70     		strb	r2, [r3, #2]
 101:.\lib_Network/network.c ****                 
 102:.\lib_Network/network.c ****                 #ifdef DEBUG_INFO
 103:.\lib_Network/network.c ****                 SW_UART_DEBUG_PutString("    receive data\n\r");
 104:.\lib_Network/network.c ****                 #endif
 105:.\lib_Network/network.c ****                 CyDelay(50);
 330              		.loc 1 105 0
 331 007a 3220     		mov	r0, #50
 332 007c FFF7FEFF 		bl	CyDelay
 106:.\lib_Network/network.c **** 
 107:.\lib_Network/network.c ****                 return  NETWORK_CONN;  
 333              		.loc 1 107 0
 334 0080 0123     		mov	r3, #1
 335 0082 17E0     		b	.L16
 336              	.L11:
ARM GAS  C:\DOCUME~1\Admin\LOCALS~1\Temp\cc2z0V6J.s 			page 9


  77:.\lib_Network/network.c ****         { 
 337              		.loc 1 77 0
 338 0084 FFF7FEFF 		bl	UART_XB_SpiUartGetRxBufferSize
 339 0088 031E     		sub	r3, r0, #0
 340 008a 06D0     		beq	.L13
  77:.\lib_Network/network.c ****         { 
 341              		.loc 1 77 0 is_stmt 0 discriminator 1
 342 008c FFF7FEFF 		bl	UART_XB_UartGetChar
 343 0090 031C     		mov	r3, r0
 344 0092 7B62     		str	r3, [r7, #36]
 345 0094 7B6A     		ldr	r3, [r7, #36]
 346 0096 002B     		cmp	r3, #0
 347 0098 BED1     		bne	.L14
 348              	.L13:
 108:.\lib_Network/network.c ****             }
 109:.\lib_Network/network.c ****         }
 110:.\lib_Network/network.c ****         
 111:.\lib_Network/network.c ****         /*tyme to respond*/
 112:.\lib_Network/network.c ****         if(noConnect++ >= NETWORK_TIMEOUT)
 349              		.loc 1 112 0 is_stmt 1
 350 009a 0B4B     		ldr	r3, .L17+12
 351 009c 1B68     		ldr	r3, [r3]
 352 009e 591C     		add	r1, r3, #1
 353 00a0 094A     		ldr	r2, .L17+12
 354 00a2 1160     		str	r1, [r2]
 355 00a4 312B     		cmp	r3, #49
 356 00a6 02DD     		ble	.L15
 113:.\lib_Network/network.c ****         {
 114:.\lib_Network/network.c ****             networkStatus = NETWORK_DISCONN;
 357              		.loc 1 114 0
 358 00a8 064B     		ldr	r3, .L17+8
 359 00aa 0022     		mov	r2, #0
 360 00ac 1A60     		str	r2, [r3]
 361              	.L15:
 115:.\lib_Network/network.c ****         }
 116:.\lib_Network/network.c ****         return  NETWORK_DISCONN;
 362              		.loc 1 116 0
 363 00ae 0023     		mov	r3, #0
 364 00b0 00E0     		b	.L16
 365              	.L10:
 366              	.LBE3:
 117:.\lib_Network/network.c ****     }
 118:.\lib_Network/network.c ****     return 0;
 367              		.loc 1 118 0
 368 00b2 0023     		mov	r3, #0
 369              	.L16:
 119:.\lib_Network/network.c **** }
 370              		.loc 1 119 0 discriminator 1
 371 00b4 181C     		mov	r0, r3
 372 00b6 BD46     		mov	sp, r7
 373 00b8 0AB0     		add	sp, sp, #40
 374              		@ sp needed
 375 00ba 80BD     		pop	{r7, pc}
 376              	.L18:
 377              		.align	2
 378              	.L17:
 379 00bc 00000000 		.word	outData
ARM GAS  C:\DOCUME~1\Admin\LOCALS~1\Temp\cc2z0V6J.s 			page 10


 380 00c0 00000000 		.word	inData
 381 00c4 64000000 		.word	networkStatus
 382 00c8 68000000 		.word	noConnect
 383              		.cfi_endproc
 384              	.LFE65:
 385              		.size	ReceiveData, .-ReceiveData
 386              		.section	.text.NetworkStatus,"ax",%progbits
 387              		.align	2
 388              		.global	NetworkStatus
 389              		.code	16
 390              		.thumb_func
 391              		.type	NetworkStatus, %function
 392              	NetworkStatus:
 393              	.LFB66:
 120:.\lib_Network/network.c **** 
 121:.\lib_Network/network.c **** 
 122:.\lib_Network/network.c **** uint32_t NetworkStatus(void)
 123:.\lib_Network/network.c **** {
 394              		.loc 1 123 0
 395              		.cfi_startproc
 396 0000 80B5     		push	{r7, lr}
 397              		.cfi_def_cfa_offset 8
 398              		.cfi_offset 7, -8
 399              		.cfi_offset 14, -4
 400 0002 00AF     		add	r7, sp, #0
 401              		.cfi_def_cfa_register 7
 124:.\lib_Network/network.c ****     return networkStatus;
 402              		.loc 1 124 0
 403 0004 024B     		ldr	r3, .L21
 404 0006 1B68     		ldr	r3, [r3]
 125:.\lib_Network/network.c **** }
 405              		.loc 1 125 0
 406 0008 181C     		mov	r0, r3
 407 000a BD46     		mov	sp, r7
 408              		@ sp needed
 409 000c 80BD     		pop	{r7, pc}
 410              	.L22:
 411 000e C046     		.align	2
 412              	.L21:
 413 0010 64000000 		.word	networkStatus
 414              		.cfi_endproc
 415              	.LFE66:
 416              		.size	NetworkStatus, .-NetworkStatus
 417              		.section	.text.SendSkierStart,"ax",%progbits
 418              		.align	2
 419              		.global	SendSkierStart
 420              		.code	16
 421              		.thumb_func
 422              		.type	SendSkierStart, %function
 423              	SendSkierStart:
 424              	.LFB67:
 126:.\lib_Network/network.c **** 
 127:.\lib_Network/network.c **** 
 128:.\lib_Network/network.c **** void SendSkierStart(uint64_t unixTimeStart, uint32_t recentMs)
 129:.\lib_Network/network.c **** {
 425              		.loc 1 129 0
 426              		.cfi_startproc
ARM GAS  C:\DOCUME~1\Admin\LOCALS~1\Temp\cc2z0V6J.s 			page 11


 427 0000 90B5     		push	{r4, r7, lr}
 428              		.cfi_def_cfa_offset 12
 429              		.cfi_offset 4, -12
 430              		.cfi_offset 7, -8
 431              		.cfi_offset 14, -4
 432 0002 85B0     		sub	sp, sp, #20
 433              		.cfi_def_cfa_offset 32
 434 0004 00AF     		add	r7, sp, #0
 435              		.cfi_def_cfa_register 7
 436 0006 B860     		str	r0, [r7, #8]
 437 0008 F960     		str	r1, [r7, #12]
 438 000a 7A60     		str	r2, [r7, #4]
 130:.\lib_Network/network.c ****     outData.unixStartTime = unixTimeStart;
 439              		.loc 1 130 0
 440 000c 074A     		ldr	r2, .L24
 441 000e BB68     		ldr	r3, [r7, #8]
 442 0010 FC68     		ldr	r4, [r7, #12]
 443 0012 9360     		str	r3, [r2, #8]
 444 0014 D460     		str	r4, [r2, #12]
 131:.\lib_Network/network.c ****     outData.startMsTime = recentMs;
 445              		.loc 1 131 0
 446 0016 7B68     		ldr	r3, [r7, #4]
 447 0018 9AB2     		uxth	r2, r3
 448 001a 044B     		ldr	r3, .L24
 449 001c 1A82     		strh	r2, [r3, #16]
 132:.\lib_Network/network.c ****     outData.newSkier = NEW_SKIER_IN_TARCK;
 450              		.loc 1 132 0
 451 001e 034B     		ldr	r3, .L24
 452 0020 0122     		mov	r2, #1
 453 0022 9A74     		strb	r2, [r3, #18]
 133:.\lib_Network/network.c **** }
 454              		.loc 1 133 0
 455 0024 BD46     		mov	sp, r7
 456 0026 05B0     		add	sp, sp, #20
 457              		@ sp needed
 458 0028 90BD     		pop	{r4, r7, pc}
 459              	.L25:
 460 002a C046     		.align	2
 461              	.L24:
 462 002c 00000000 		.word	outData
 463              		.cfi_endproc
 464              	.LFE67:
 465              		.size	SendSkierStart, .-SendSkierStart
 466              		.section	.text.FinReady,"ax",%progbits
 467              		.align	2
 468              		.global	FinReady
 469              		.code	16
 470              		.thumb_func
 471              		.type	FinReady, %function
 472              	FinReady:
 473              	.LFB68:
 134:.\lib_Network/network.c **** 
 135:.\lib_Network/network.c **** 
 136:.\lib_Network/network.c **** uint32_t FinReady(void)
 137:.\lib_Network/network.c **** {
 474              		.loc 1 137 0
 475              		.cfi_startproc
ARM GAS  C:\DOCUME~1\Admin\LOCALS~1\Temp\cc2z0V6J.s 			page 12


 476 0000 80B5     		push	{r7, lr}
 477              		.cfi_def_cfa_offset 8
 478              		.cfi_offset 7, -8
 479              		.cfi_offset 14, -4
 480 0002 00AF     		add	r7, sp, #0
 481              		.cfi_def_cfa_register 7
 138:.\lib_Network/network.c ****     return inData.ready;
 482              		.loc 1 138 0
 483 0004 024B     		ldr	r3, .L28
 484 0006 5B78     		ldrb	r3, [r3, #1]
 139:.\lib_Network/network.c **** }
 485              		.loc 1 139 0
 486 0008 181C     		mov	r0, r3
 487 000a BD46     		mov	sp, r7
 488              		@ sp needed
 489 000c 80BD     		pop	{r7, pc}
 490              	.L29:
 491 000e C046     		.align	2
 492              	.L28:
 493 0010 00000000 		.word	inData
 494              		.cfi_endproc
 495              	.LFE68:
 496              		.size	FinReady, .-FinReady
 497              		.section	.text.FinWriteInDB,"ax",%progbits
 498              		.align	2
 499              		.global	FinWriteInDB
 500              		.code	16
 501              		.thumb_func
 502              		.type	FinWriteInDB, %function
 503              	FinWriteInDB:
 504              	.LFB69:
 140:.\lib_Network/network.c **** 
 141:.\lib_Network/network.c **** 
 142:.\lib_Network/network.c **** uint32_t FinWriteInDB(void)
 143:.\lib_Network/network.c **** {
 505              		.loc 1 143 0
 506              		.cfi_startproc
 507 0000 80B5     		push	{r7, lr}
 508              		.cfi_def_cfa_offset 8
 509              		.cfi_offset 7, -8
 510              		.cfi_offset 14, -4
 511 0002 82B0     		sub	sp, sp, #8
 512              		.cfi_def_cfa_offset 16
 513 0004 00AF     		add	r7, sp, #0
 514              		.cfi_def_cfa_register 7
 144:.\lib_Network/network.c ****     uint32_t result;
 145:.\lib_Network/network.c ****     
 146:.\lib_Network/network.c ****     if(outData.newSkier == NEW_SKIER_IN_TARCK)
 515              		.loc 1 146 0
 516 0006 074B     		ldr	r3, .L34
 517 0008 9B7C     		ldrb	r3, [r3, #18]
 518 000a 012B     		cmp	r3, #1
 519 000c 02D1     		bne	.L31
 147:.\lib_Network/network.c ****     {
 148:.\lib_Network/network.c ****         result = NO_WRITE;
 520              		.loc 1 148 0
 521 000e 0023     		mov	r3, #0
ARM GAS  C:\DOCUME~1\Admin\LOCALS~1\Temp\cc2z0V6J.s 			page 13


 522 0010 7B60     		str	r3, [r7, #4]
 523 0012 01E0     		b	.L32
 524              	.L31:
 149:.\lib_Network/network.c ****     }else
 150:.\lib_Network/network.c ****     {
 151:.\lib_Network/network.c ****         result = WRITE_OK;
 525              		.loc 1 151 0
 526 0014 0123     		mov	r3, #1
 527 0016 7B60     		str	r3, [r7, #4]
 528              	.L32:
 152:.\lib_Network/network.c ****     }
 153:.\lib_Network/network.c ****     
 154:.\lib_Network/network.c ****     return result;
 529              		.loc 1 154 0
 530 0018 7B68     		ldr	r3, [r7, #4]
 155:.\lib_Network/network.c **** }
 531              		.loc 1 155 0
 532 001a 181C     		mov	r0, r3
 533 001c BD46     		mov	sp, r7
 534 001e 02B0     		add	sp, sp, #8
 535              		@ sp needed
 536 0020 80BD     		pop	{r7, pc}
 537              	.L35:
 538 0022 C046     		.align	2
 539              	.L34:
 540 0024 00000000 		.word	outData
 541              		.cfi_endproc
 542              	.LFE69:
 543              		.size	FinWriteInDB, .-FinWriteInDB
 544              		.section	.text.ReadRebootFinishFlag,"ax",%progbits
 545              		.align	2
 546              		.global	ReadRebootFinishFlag
 547              		.code	16
 548              		.thumb_func
 549              		.type	ReadRebootFinishFlag, %function
 550              	ReadRebootFinishFlag:
 551              	.LFB70:
 156:.\lib_Network/network.c **** 
 157:.\lib_Network/network.c **** uint32_t ReadRebootFinishFlag(void)
 158:.\lib_Network/network.c **** {
 552              		.loc 1 158 0
 553              		.cfi_startproc
 554 0000 80B5     		push	{r7, lr}
 555              		.cfi_def_cfa_offset 8
 556              		.cfi_offset 7, -8
 557              		.cfi_offset 14, -4
 558 0002 82B0     		sub	sp, sp, #8
 559              		.cfi_def_cfa_offset 16
 560 0004 00AF     		add	r7, sp, #0
 561              		.cfi_def_cfa_register 7
 159:.\lib_Network/network.c ****     uint32_t result;
 160:.\lib_Network/network.c ****     
 161:.\lib_Network/network.c ****     if(inData.reboot == 1 && outData.reboot == 0)
 562              		.loc 1 161 0
 563 0006 0D4B     		ldr	r3, .L40
 564 0008 9B78     		ldrb	r3, [r3, #2]
 565 000a 012B     		cmp	r3, #1
ARM GAS  C:\DOCUME~1\Admin\LOCALS~1\Temp\cc2z0V6J.s 			page 14


 566 000c 09D1     		bne	.L37
 567              		.loc 1 161 0 is_stmt 0 discriminator 1
 568 000e 0C4B     		ldr	r3, .L40+4
 569 0010 1B7D     		ldrb	r3, [r3, #20]
 570 0012 002B     		cmp	r3, #0
 571 0014 05D1     		bne	.L37
 162:.\lib_Network/network.c ****     {
 163:.\lib_Network/network.c ****         result = REBOOT;
 572              		.loc 1 163 0 is_stmt 1
 573 0016 FF23     		mov	r3, #255
 574 0018 7B60     		str	r3, [r7, #4]
 164:.\lib_Network/network.c ****         inData.reboot = 0;
 575              		.loc 1 164 0
 576 001a 084B     		ldr	r3, .L40
 577 001c 0022     		mov	r2, #0
 578 001e 9A70     		strb	r2, [r3, #2]
 579 0020 07E0     		b	.L38
 580              	.L37:
 165:.\lib_Network/network.c ****     }else
 166:.\lib_Network/network.c ****     {
 167:.\lib_Network/network.c ****         outData.reboot = 0;
 581              		.loc 1 167 0
 582 0022 074B     		ldr	r3, .L40+4
 583 0024 0022     		mov	r2, #0
 584 0026 1A75     		strb	r2, [r3, #20]
 168:.\lib_Network/network.c ****         inData.reboot = 0;
 585              		.loc 1 168 0
 586 0028 044B     		ldr	r3, .L40
 587 002a 0022     		mov	r2, #0
 588 002c 9A70     		strb	r2, [r3, #2]
 169:.\lib_Network/network.c ****         result = NO_REBOOT;
 589              		.loc 1 169 0
 590 002e FE23     		mov	r3, #254
 591 0030 7B60     		str	r3, [r7, #4]
 592              	.L38:
 170:.\lib_Network/network.c ****     }
 171:.\lib_Network/network.c ****     return result;
 593              		.loc 1 171 0
 594 0032 7B68     		ldr	r3, [r7, #4]
 172:.\lib_Network/network.c **** }
 595              		.loc 1 172 0
 596 0034 181C     		mov	r0, r3
 597 0036 BD46     		mov	sp, r7
 598 0038 02B0     		add	sp, sp, #8
 599              		@ sp needed
 600 003a 80BD     		pop	{r7, pc}
 601              	.L41:
 602              		.align	2
 603              	.L40:
 604 003c 00000000 		.word	inData
 605 0040 00000000 		.word	outData
 606              		.cfi_endproc
 607              	.LFE70:
 608              		.size	ReadRebootFinishFlag, .-ReadRebootFinishFlag
 609              		.section	.text.WriteRebootFlag,"ax",%progbits
 610              		.align	2
 611              		.global	WriteRebootFlag
ARM GAS  C:\DOCUME~1\Admin\LOCALS~1\Temp\cc2z0V6J.s 			page 15


 612              		.code	16
 613              		.thumb_func
 614              		.type	WriteRebootFlag, %function
 615              	WriteRebootFlag:
 616              	.LFB71:
 173:.\lib_Network/network.c **** 
 174:.\lib_Network/network.c **** void WriteRebootFlag(uint32_t status)
 175:.\lib_Network/network.c **** {
 617              		.loc 1 175 0
 618              		.cfi_startproc
 619 0000 80B5     		push	{r7, lr}
 620              		.cfi_def_cfa_offset 8
 621              		.cfi_offset 7, -8
 622              		.cfi_offset 14, -4
 623 0002 82B0     		sub	sp, sp, #8
 624              		.cfi_def_cfa_offset 16
 625 0004 00AF     		add	r7, sp, #0
 626              		.cfi_def_cfa_register 7
 627 0006 7860     		str	r0, [r7, #4]
 176:.\lib_Network/network.c ****     if(status == REBOOT)
 628              		.loc 1 176 0
 629 0008 7B68     		ldr	r3, [r7, #4]
 630 000a FF2B     		cmp	r3, #255
 631 000c 03D1     		bne	.L43
 177:.\lib_Network/network.c ****     {
 178:.\lib_Network/network.c ****         outData.reboot = 1;
 632              		.loc 1 178 0
 633 000e 054B     		ldr	r3, .L45
 634 0010 0122     		mov	r2, #1
 635 0012 1A75     		strb	r2, [r3, #20]
 636 0014 02E0     		b	.L42
 637              	.L43:
 179:.\lib_Network/network.c ****     }else
 180:.\lib_Network/network.c ****     {
 181:.\lib_Network/network.c ****         outData.reboot = 0;
 638              		.loc 1 181 0
 639 0016 034B     		ldr	r3, .L45
 640 0018 0022     		mov	r2, #0
 641 001a 1A75     		strb	r2, [r3, #20]
 642              	.L42:
 182:.\lib_Network/network.c ****     }
 183:.\lib_Network/network.c **** }
 643              		.loc 1 183 0
 644 001c BD46     		mov	sp, r7
 645 001e 02B0     		add	sp, sp, #8
 646              		@ sp needed
 647 0020 80BD     		pop	{r7, pc}
 648              	.L46:
 649 0022 C046     		.align	2
 650              	.L45:
 651 0024 00000000 		.word	outData
 652              		.cfi_endproc
 653              	.LFE71:
 654              		.size	WriteRebootFlag, .-WriteRebootFlag
 655              		.section	.text.NTPsync,"ax",%progbits
 656              		.align	2
 657              		.global	NTPsync
ARM GAS  C:\DOCUME~1\Admin\LOCALS~1\Temp\cc2z0V6J.s 			page 16


 658              		.code	16
 659              		.thumb_func
 660              		.type	NTPsync, %function
 661              	NTPsync:
 662              	.LFB72:
 184:.\lib_Network/network.c **** 
 185:.\lib_Network/network.c **** /*NTP*/
 186:.\lib_Network/network.c **** uint32_t NTPsync(void)
 187:.\lib_Network/network.c **** {
 663              		.loc 1 187 0
 664              		.cfi_startproc
 665 0000 90B5     		push	{r4, r7, lr}
 666              		.cfi_def_cfa_offset 12
 667              		.cfi_offset 4, -12
 668              		.cfi_offset 7, -8
 669              		.cfi_offset 14, -4
 670 0002 8DB0     		sub	sp, sp, #52
 671              		.cfi_def_cfa_offset 64
 672 0004 02AF     		add	r7, sp, #8
 673              		.cfi_def_cfa 7, 56
 188:.\lib_Network/network.c ****     int i;
 189:.\lib_Network/network.c ****     uint16_t result;
 190:.\lib_Network/network.c ****     uint32_t IDreceivePacket;
 191:.\lib_Network/network.c ****     uint32_t lastIDpacket;
 192:.\lib_Network/network.c ****     uint32_t unixTime[2];
 193:.\lib_Network/network.c ****     uint16_t millisTime[2];
 194:.\lib_Network/network.c ****     uint32_t resultReceive;
 195:.\lib_Network/network.c ****     uint32_t noConnect;
 196:.\lib_Network/network.c ****     
 197:.\lib_Network/network.c **** 
 198:.\lib_Network/network.c ****     noConnect = 0;
 674              		.loc 1 198 0
 675 0006 0023     		mov	r3, #0
 676 0008 7B61     		str	r3, [r7, #20]
 199:.\lib_Network/network.c ****     lastIDpacket = 0;
 677              		.loc 1 199 0
 678 000a 0023     		mov	r3, #0
 679 000c FB61     		str	r3, [r7, #28]
 200:.\lib_Network/network.c ****     
 201:.\lib_Network/network.c ****     for(i=0; (i < NUM_TRY_SYNC) && (noConnect <= NUM_CONNECT_ATTEMPS); )
 680              		.loc 1 201 0
 681 000e 0023     		mov	r3, #0
 682 0010 7B62     		str	r3, [r7, #36]
 683 0012 4EE0     		b	.L48
 684              	.L54:
 202:.\lib_Network/network.c ****     {      
 203:.\lib_Network/network.c ****         /*receive time from start*/
 204:.\lib_Network/network.c ****         resultReceive = NTPreceiveTime(&unixTime[T2],&millisTime[T2], &IDreceivePacket, !SAVE_TIME)
 685              		.loc 1 204 0
 686 0014 0823     		mov	r3, #8
 687 0016 F918     		add	r1, r7, r3
 688 0018 3A1D     		add	r2, r7, #4
 689 001a 1023     		mov	r3, #16
 690 001c FB18     		add	r3, r7, r3
 691 001e 081C     		mov	r0, r1
 692 0020 111C     		mov	r1, r2
 693 0022 1A1C     		mov	r2, r3
ARM GAS  C:\DOCUME~1\Admin\LOCALS~1\Temp\cc2z0V6J.s 			page 17


 694 0024 0023     		mov	r3, #0
 695 0026 FFF7FEFF 		bl	NTPreceiveTime
 696 002a 031C     		mov	r3, r0
 697 002c BB61     		str	r3, [r7, #24]
 205:.\lib_Network/network.c ****         
 206:.\lib_Network/network.c ****         CyDelay(50);
 698              		.loc 1 206 0
 699 002e 3220     		mov	r0, #50
 700 0030 FFF7FEFF 		bl	CyDelay
 207:.\lib_Network/network.c ****         
 208:.\lib_Network/network.c ****         if(resultReceive == READ_OK)
 701              		.loc 1 208 0
 702 0034 BB69     		ldr	r3, [r7, #24]
 703 0036 012B     		cmp	r3, #1
 704 0038 38D1     		bne	.L49
 209:.\lib_Network/network.c ****         {   
 210:.\lib_Network/network.c ****             if((i == 0) && (IDreceivePacket != 0))
 705              		.loc 1 210 0
 706 003a 7B6A     		ldr	r3, [r7, #36]
 707 003c 002B     		cmp	r3, #0
 708 003e 05D1     		bne	.L50
 709              		.loc 1 210 0 is_stmt 0 discriminator 1
 710 0040 3B69     		ldr	r3, [r7, #16]
 711 0042 002B     		cmp	r3, #0
 712 0044 02D0     		beq	.L50
 211:.\lib_Network/network.c ****             {
 212:.\lib_Network/network.c ****                 /*error sync, does not start with zero packet*/
 213:.\lib_Network/network.c ****                 noConnect = NUM_CONNECT_ATTEMPS;
 713              		.loc 1 213 0 is_stmt 1
 714 0046 6423     		mov	r3, #100
 715 0048 7B61     		str	r3, [r7, #20]
 716 004a 2EE0     		b	.L51
 717              	.L50:
 214:.\lib_Network/network.c ****             }else
 215:.\lib_Network/network.c ****             {
 216:.\lib_Network/network.c ****                 /*no error, send time*/
 217:.\lib_Network/network.c ****                 
 218:.\lib_Network/network.c ****                 unixTime[T3] = RTCGetUnixTime();
 718              		.loc 1 218 0
 719 004c FFF7FEFF 		bl	RTCGetUnixTime
 720 0050 031C     		mov	r3, r0
 721 0052 0C1C     		mov	r4, r1
 722 0054 1A1C     		mov	r2, r3
 723 0056 0823     		mov	r3, #8
 724 0058 FB18     		add	r3, r7, r3
 725 005a 5A60     		str	r2, [r3, #4]
 219:.\lib_Network/network.c ****                 millisTime[T3] = RTCgetRecentMs();
 726              		.loc 1 219 0
 727 005c FFF7FEFF 		bl	RTCgetRecentMs
 728 0060 031C     		mov	r3, r0
 729 0062 9AB2     		uxth	r2, r3
 730 0064 3B1D     		add	r3, r7, #4
 731 0066 5A80     		strh	r2, [r3, #2]
 220:.\lib_Network/network.c ****                 NTPsendTime(unixTime[T2], unixTime[T3], millisTime[T2], millisTime[T3], IDreceivePa
 732              		.loc 1 220 0
 733 0068 0823     		mov	r3, #8
 734 006a FB18     		add	r3, r7, r3
ARM GAS  C:\DOCUME~1\Admin\LOCALS~1\Temp\cc2z0V6J.s 			page 18


 735 006c 1868     		ldr	r0, [r3]
 736 006e 0823     		mov	r3, #8
 737 0070 FB18     		add	r3, r7, r3
 738 0072 5968     		ldr	r1, [r3, #4]
 739 0074 3B1D     		add	r3, r7, #4
 740 0076 1A88     		ldrh	r2, [r3]
 741 0078 3B1D     		add	r3, r7, #4
 742 007a 5C88     		ldrh	r4, [r3, #2]
 743 007c 3B69     		ldr	r3, [r7, #16]
 744 007e 0093     		str	r3, [sp]
 745 0080 231C     		mov	r3, r4
 746 0082 FFF7FEFF 		bl	NTPsendTime
 221:.\lib_Network/network.c ****                 
 222:.\lib_Network/network.c ****                 noConnect=0;
 747              		.loc 1 222 0
 748 0086 0023     		mov	r3, #0
 749 0088 7B61     		str	r3, [r7, #20]
 223:.\lib_Network/network.c ****                 
 224:.\lib_Network/network.c ****                 if((lastIDpacket != IDreceivePacket) || (lastIDpacket == 0))
 750              		.loc 1 224 0
 751 008a 3B69     		ldr	r3, [r7, #16]
 752 008c FA69     		ldr	r2, [r7, #28]
 753 008e 9A42     		cmp	r2, r3
 754 0090 02D1     		bne	.L52
 755              		.loc 1 224 0 is_stmt 0 discriminator 1
 756 0092 FB69     		ldr	r3, [r7, #28]
 757 0094 002B     		cmp	r3, #0
 758 0096 0CD1     		bne	.L48
 759              	.L52:
 225:.\lib_Network/network.c ****                 {
 226:.\lib_Network/network.c ****                     /*finish read data, next step sync*/
 227:.\lib_Network/network.c ****                     lastIDpacket = IDreceivePacket;
 760              		.loc 1 227 0 is_stmt 1
 761 0098 3B69     		ldr	r3, [r7, #16]
 762 009a FB61     		str	r3, [r7, #28]
 228:.\lib_Network/network.c ****                     DisplayPrintfLoading(i);
 763              		.loc 1 228 0
 764 009c 7B6A     		ldr	r3, [r7, #36]
 765 009e 181C     		mov	r0, r3
 766 00a0 FFF7FEFF 		bl	DisplayPrintfLoading
 229:.\lib_Network/network.c ****                     i = IDreceivePacket+1;
 767              		.loc 1 229 0
 768 00a4 3B69     		ldr	r3, [r7, #16]
 769 00a6 0133     		add	r3, r3, #1
 770 00a8 7B62     		str	r3, [r7, #36]
 771              	.L51:
 772 00aa 02E0     		b	.L48
 773              	.L49:
 230:.\lib_Network/network.c ****                 }
 231:.\lib_Network/network.c ****             }
 232:.\lib_Network/network.c ****             
 233:.\lib_Network/network.c ****         }else 
 234:.\lib_Network/network.c ****         {
 235:.\lib_Network/network.c ****             noConnect++;
 774              		.loc 1 235 0
 775 00ac 7B69     		ldr	r3, [r7, #20]
 776 00ae 0133     		add	r3, r3, #1
ARM GAS  C:\DOCUME~1\Admin\LOCALS~1\Temp\cc2z0V6J.s 			page 19


 777 00b0 7B61     		str	r3, [r7, #20]
 778              	.L48:
 201:.\lib_Network/network.c ****     {      
 779              		.loc 1 201 0 discriminator 1
 780 00b2 7B6A     		ldr	r3, [r7, #36]
 781 00b4 0D2B     		cmp	r3, #13
 782 00b6 02DC     		bgt	.L53
 201:.\lib_Network/network.c ****     {      
 783              		.loc 1 201 0 is_stmt 0 discriminator 2
 784 00b8 7B69     		ldr	r3, [r7, #20]
 785 00ba 642B     		cmp	r3, #100
 786 00bc AAD9     		bls	.L54
 787              	.L53:
 236:.\lib_Network/network.c ****         }
 237:.\lib_Network/network.c ****     }
 238:.\lib_Network/network.c ****     
 239:.\lib_Network/network.c ****     
 240:.\lib_Network/network.c ****     if(noConnect >= NUM_CONNECT_ATTEMPS)
 788              		.loc 1 240 0 is_stmt 1
 789 00be 7B69     		ldr	r3, [r7, #20]
 790 00c0 632B     		cmp	r3, #99
 791 00c2 04D9     		bls	.L55
 241:.\lib_Network/network.c ****     {
 242:.\lib_Network/network.c ****         result = TIME_SYNC_ERR;
 792              		.loc 1 242 0
 793 00c4 2223     		mov	r3, #34
 794 00c6 FB18     		add	r3, r7, r3
 795 00c8 0122     		mov	r2, #1
 796 00ca 1A80     		strh	r2, [r3]
 797 00cc 30E0     		b	.L56
 798              	.L55:
 243:.\lib_Network/network.c ****     }else
 244:.\lib_Network/network.c ****     {
 245:.\lib_Network/network.c ****         resultReceive = NO_READ;
 799              		.loc 1 245 0
 800 00ce 0023     		mov	r3, #0
 801 00d0 BB61     		str	r3, [r7, #24]
 246:.\lib_Network/network.c ****         while(resultReceive == NO_READ)
 802              		.loc 1 246 0
 803 00d2 1EE0     		b	.L57
 804              	.L59:
 247:.\lib_Network/network.c ****         {
 248:.\lib_Network/network.c ****             /*write time and ms in rtc*/
 249:.\lib_Network/network.c ****             resultReceive = NTPreceiveTime(&unixTime[T2],&millisTime[T2], &IDreceivePacket, SAVE_TI
 805              		.loc 1 249 0
 806 00d4 0823     		mov	r3, #8
 807 00d6 F918     		add	r1, r7, r3
 808 00d8 3A1D     		add	r2, r7, #4
 809 00da 1023     		mov	r3, #16
 810 00dc FB18     		add	r3, r7, r3
 811 00de 081C     		mov	r0, r1
 812 00e0 111C     		mov	r1, r2
 813 00e2 1A1C     		mov	r2, r3
 814 00e4 0123     		mov	r3, #1
 815 00e6 FFF7FEFF 		bl	NTPreceiveTime
 816 00ea 031C     		mov	r3, r0
 817 00ec BB61     		str	r3, [r7, #24]
ARM GAS  C:\DOCUME~1\Admin\LOCALS~1\Temp\cc2z0V6J.s 			page 20


 250:.\lib_Network/network.c ****             if(resultReceive == READ_OK)
 818              		.loc 1 250 0
 819 00ee BB69     		ldr	r3, [r7, #24]
 820 00f0 012B     		cmp	r3, #1
 821 00f2 0ED1     		bne	.L57
 251:.\lib_Network/network.c ****             {
 252:.\lib_Network/network.c ****                 //debug_Write(1u);
 253:.\lib_Network/network.c ****                 //debug_Write(0u);
 254:.\lib_Network/network.c ****                 if(IDreceivePacket == NUM_TRY_SYNC)
 822              		.loc 1 254 0
 823 00f4 3B69     		ldr	r3, [r7, #16]
 824 00f6 0E2B     		cmp	r3, #14
 825 00f8 09D1     		bne	.L58
 255:.\lib_Network/network.c ****                 {
 256:.\lib_Network/network.c ****                     RTCSync(unixTime[T2], millisTime[T2]+CORRECTION_TIME);
 826              		.loc 1 256 0
 827 00fa 0823     		mov	r3, #8
 828 00fc FB18     		add	r3, r7, r3
 829 00fe 1A68     		ldr	r2, [r3]
 830 0100 3B1D     		add	r3, r7, #4
 831 0102 1B88     		ldrh	r3, [r3]
 832 0104 101C     		mov	r0, r2
 833 0106 191C     		mov	r1, r3
 834 0108 FFF7FEFF 		bl	RTCSync
 835 010c 01E0     		b	.L57
 836              	.L58:
 257:.\lib_Network/network.c ****                 }else
 258:.\lib_Network/network.c ****                 {
 259:.\lib_Network/network.c ****                     resultReceive = NO_READ;
 837              		.loc 1 259 0
 838 010e 0023     		mov	r3, #0
 839 0110 BB61     		str	r3, [r7, #24]
 840              	.L57:
 246:.\lib_Network/network.c ****         {
 841              		.loc 1 246 0
 842 0112 BB69     		ldr	r3, [r7, #24]
 843 0114 002B     		cmp	r3, #0
 844 0116 DDD0     		beq	.L59
 260:.\lib_Network/network.c ****                 }
 261:.\lib_Network/network.c ****             }
 262:.\lib_Network/network.c ****         }
 263:.\lib_Network/network.c ****         
 264:.\lib_Network/network.c ****         NTPsendTime(0,0,0,0,IDreceivePacket);
 845              		.loc 1 264 0
 846 0118 3B69     		ldr	r3, [r7, #16]
 847 011a 0093     		str	r3, [sp]
 848 011c 0020     		mov	r0, #0
 849 011e 0021     		mov	r1, #0
 850 0120 0022     		mov	r2, #0
 851 0122 0023     		mov	r3, #0
 852 0124 FFF7FEFF 		bl	NTPsendTime
 265:.\lib_Network/network.c ****         
 266:.\lib_Network/network.c ****         result = TIME_SYNC_OK;
 853              		.loc 1 266 0
 854 0128 2223     		mov	r3, #34
 855 012a FB18     		add	r3, r7, r3
 856 012c 0022     		mov	r2, #0
ARM GAS  C:\DOCUME~1\Admin\LOCALS~1\Temp\cc2z0V6J.s 			page 21


 857 012e 1A80     		strh	r2, [r3]
 858              	.L56:
 267:.\lib_Network/network.c ****     }
 268:.\lib_Network/network.c ****     return result;
 859              		.loc 1 268 0
 860 0130 2223     		mov	r3, #34
 861 0132 FB18     		add	r3, r7, r3
 862 0134 1B88     		ldrh	r3, [r3]
 269:.\lib_Network/network.c **** }
 863              		.loc 1 269 0
 864 0136 181C     		mov	r0, r3
 865 0138 BD46     		mov	sp, r7
 866 013a 0BB0     		add	sp, sp, #44
 867              		@ sp needed
 868 013c 90BD     		pop	{r4, r7, pc}
 869              		.cfi_endproc
 870              	.LFE72:
 871              		.size	NTPsync, .-NTPsync
 872 013e C046     		.section	.text.NTPreceiveTime,"ax",%progbits
 873              		.align	2
 874              		.code	16
 875              		.thumb_func
 876              		.type	NTPreceiveTime, %function
 877              	NTPreceiveTime:
 878              	.LFB73:
 270:.\lib_Network/network.c **** 
 271:.\lib_Network/network.c **** 
 272:.\lib_Network/network.c **** static uint32_t NTPreceiveTime(uint32_t *unixTime2,uint16_t *millisTime2, uint32_t *IDreceive,uint3
 273:.\lib_Network/network.c **** {
 879              		.loc 1 273 0
 880              		.cfi_startproc
 881 0000 90B5     		push	{r4, r7, lr}
 882              		.cfi_def_cfa_offset 12
 883              		.cfi_offset 4, -12
 884              		.cfi_offset 7, -8
 885              		.cfi_offset 14, -4
 886 0002 8DB0     		sub	sp, sp, #52
 887              		.cfi_def_cfa_offset 64
 888 0004 00AF     		add	r7, sp, #0
 889              		.cfi_def_cfa_register 7
 890 0006 F860     		str	r0, [r7, #12]
 891 0008 B960     		str	r1, [r7, #8]
 892 000a 7A60     		str	r2, [r7, #4]
 893 000c 3B60     		str	r3, [r7]
 274:.\lib_Network/network.c ****     uint8_t byte;
 275:.\lib_Network/network.c ****     uint32_t result;
 276:.\lib_Network/network.c ****     /*debug*/
 277:.\lib_Network/network.c ****     result = READ_OK;
 894              		.loc 1 277 0
 895 000e 0123     		mov	r3, #1
 896 0010 FB62     		str	r3, [r7, #44]
 278:.\lib_Network/network.c ****     
 279:.\lib_Network/network.c ****     NTPResp recvDataNTP;
 280:.\lib_Network/network.c ****     while((UART_XB_SpiUartGetRxBufferSize() > 0) && ((byte=UART_XB_UartGetChar()) != 0))
 897              		.loc 1 280 0
 898 0012 37E0     		b	.L62
 899              	.L68:
ARM GAS  C:\DOCUME~1\Admin\LOCALS~1\Temp\cc2z0V6J.s 			page 22


 281:.\lib_Network/network.c ****     {
 282:.\lib_Network/network.c ****         result = NtpUnpackData(&recvDataNTP, (uint8_t)(byte & 0xFF));
 900              		.loc 1 282 0
 901 0014 1423     		mov	r3, #20
 902 0016 FA18     		add	r2, r7, r3
 903 0018 2B23     		mov	r3, #43
 904 001a FB18     		add	r3, r7, r3
 905 001c 1B78     		ldrb	r3, [r3]
 906 001e 101C     		mov	r0, r2
 907 0020 191C     		mov	r1, r3
 908 0022 FFF7FEFF 		bl	NtpUnpackData
 909 0026 031C     		mov	r3, r0
 910 0028 FB62     		str	r3, [r7, #44]
 283:.\lib_Network/network.c ****         
 284:.\lib_Network/network.c ****         CyDelay(2);
 911              		.loc 1 284 0
 912 002a 0220     		mov	r0, #2
 913 002c FFF7FEFF 		bl	CyDelay
 285:.\lib_Network/network.c ****                     
 286:.\lib_Network/network.c ****         if(recvDataNTP.EndPacket == 1)
 914              		.loc 1 286 0
 915 0030 1423     		mov	r3, #20
 916 0032 FB18     		add	r3, r7, r3
 917 0034 1B7C     		ldrb	r3, [r3, #16]
 918 0036 012B     		cmp	r3, #1
 919 0038 22D1     		bne	.L63
 287:.\lib_Network/network.c ****         {
 288:.\lib_Network/network.c ****             /*save unix time*/
 289:.\lib_Network/network.c ****             
 290:.\lib_Network/network.c ****             *IDreceive = recvDataNTP.Id;
 920              		.loc 1 290 0
 921 003a 1423     		mov	r3, #20
 922 003c FB18     		add	r3, r7, r3
 923 003e 1B88     		ldrh	r3, [r3]
 924 0040 1A1C     		mov	r2, r3
 925 0042 7B68     		ldr	r3, [r7, #4]
 926 0044 1A60     		str	r2, [r3]
 291:.\lib_Network/network.c ****             if(saveTime == SAVE_TIME)
 927              		.loc 1 291 0
 928 0046 3B68     		ldr	r3, [r7]
 929 0048 012B     		cmp	r3, #1
 930 004a 0AD1     		bne	.L64
 292:.\lib_Network/network.c ****             {
 293:.\lib_Network/network.c ****                 *unixTime2 = recvDataNTP.Data1;
 931              		.loc 1 293 0
 932 004c 1423     		mov	r3, #20
 933 004e FB18     		add	r3, r7, r3
 934 0050 5A68     		ldr	r2, [r3, #4]
 935 0052 FB68     		ldr	r3, [r7, #12]
 936 0054 1A60     		str	r2, [r3]
 294:.\lib_Network/network.c ****                 *millisTime2 = recvDataNTP.DataMs1;
 937              		.loc 1 294 0
 938 0056 1423     		mov	r3, #20
 939 0058 FB18     		add	r3, r7, r3
 940 005a 1A89     		ldrh	r2, [r3, #8]
 941 005c BB68     		ldr	r3, [r7, #8]
 942 005e 1A80     		strh	r2, [r3]
ARM GAS  C:\DOCUME~1\Admin\LOCALS~1\Temp\cc2z0V6J.s 			page 23


 943 0060 0CE0     		b	.L65
 944              	.L64:
 295:.\lib_Network/network.c ****             }else
 296:.\lib_Network/network.c ****             {
 297:.\lib_Network/network.c ****                 *unixTime2 = RTCGetUnixTime();
 945              		.loc 1 297 0
 946 0062 FFF7FEFF 		bl	RTCGetUnixTime
 947 0066 031C     		mov	r3, r0
 948 0068 0C1C     		mov	r4, r1
 949 006a 1A1C     		mov	r2, r3
 950 006c FB68     		ldr	r3, [r7, #12]
 951 006e 1A60     		str	r2, [r3]
 298:.\lib_Network/network.c ****                 *millisTime2 = RTCgetRecentMs();
 952              		.loc 1 298 0
 953 0070 FFF7FEFF 		bl	RTCgetRecentMs
 954 0074 031C     		mov	r3, r0
 955 0076 9AB2     		uxth	r2, r3
 956 0078 BB68     		ldr	r3, [r7, #8]
 957 007a 1A80     		strh	r2, [r3]
 958              	.L65:
 299:.\lib_Network/network.c ****             }
 300:.\lib_Network/network.c ****            
 301:.\lib_Network/network.c ****             return READ_OK;
 959              		.loc 1 301 0
 960 007c 0123     		mov	r3, #1
 961 007e 13E0     		b	.L69
 962              	.L63:
 302:.\lib_Network/network.c ****         }
 303:.\lib_Network/network.c ****         result = NO_READ;
 963              		.loc 1 303 0
 964 0080 0023     		mov	r3, #0
 965 0082 FB62     		str	r3, [r7, #44]
 966              	.L62:
 280:.\lib_Network/network.c ****     {
 967              		.loc 1 280 0
 968 0084 FFF7FEFF 		bl	UART_XB_SpiUartGetRxBufferSize
 969 0088 031E     		sub	r3, r0, #0
 970 008a 0AD0     		beq	.L67
 280:.\lib_Network/network.c ****     {
 971              		.loc 1 280 0 is_stmt 0 discriminator 1
 972 008c FFF7FEFF 		bl	UART_XB_UartGetChar
 973 0090 021C     		mov	r2, r0
 974 0092 2B23     		mov	r3, #43
 975 0094 FB18     		add	r3, r7, r3
 976 0096 1A70     		strb	r2, [r3]
 977 0098 2B23     		mov	r3, #43
 978 009a FB18     		add	r3, r7, r3
 979 009c 1B78     		ldrb	r3, [r3]
 980 009e 002B     		cmp	r3, #0
 981 00a0 B8D1     		bne	.L68
 982              	.L67:
 304:.\lib_Network/network.c ****     }
 305:.\lib_Network/network.c ****     result = NO_READ;
 983              		.loc 1 305 0 is_stmt 1
 984 00a2 0023     		mov	r3, #0
 985 00a4 FB62     		str	r3, [r7, #44]
 306:.\lib_Network/network.c ****     
ARM GAS  C:\DOCUME~1\Admin\LOCALS~1\Temp\cc2z0V6J.s 			page 24


 307:.\lib_Network/network.c ****     return result;
 986              		.loc 1 307 0
 987 00a6 FB6A     		ldr	r3, [r7, #44]
 988              	.L69:
 308:.\lib_Network/network.c **** }
 989              		.loc 1 308 0 discriminator 1
 990 00a8 181C     		mov	r0, r3
 991 00aa BD46     		mov	sp, r7
 992 00ac 0DB0     		add	sp, sp, #52
 993              		@ sp needed
 994 00ae 90BD     		pop	{r4, r7, pc}
 995              		.cfi_endproc
 996              	.LFE73:
 997              		.size	NTPreceiveTime, .-NTPreceiveTime
 998              		.section	.rodata
 999 001a 0000     		.align	2
 1000              	.LC19:
 1001 001c 25303858 		.ascii	"%08X%03X%08X%03X\000"
 1001      25303358 
 1001      25303858 
 1001      25303358 
 1001      00
 1002 002d 000000   		.section	.text.NTPsendTime,"ax",%progbits
 1003              		.align	2
 1004              		.code	16
 1005              		.thumb_func
 1006              		.type	NTPsendTime, %function
 1007              	NTPsendTime:
 1008              	.LFB74:
 309:.\lib_Network/network.c **** 
 310:.\lib_Network/network.c **** static void NTPsendTime(uint32_t unixTime2,uint32_t unixTime3,uint16_t millis2,uint16_t millis3, ui
 311:.\lib_Network/network.c **** {
 1009              		.loc 1 311 0
 1010              		.cfi_startproc
 1011 0000 B0B5     		push	{r4, r5, r7, lr}
 1012              		.cfi_def_cfa_offset 16
 1013              		.cfi_offset 4, -16
 1014              		.cfi_offset 5, -12
 1015              		.cfi_offset 7, -8
 1016              		.cfi_offset 14, -4
 1017 0002 A0B0     		sub	sp, sp, #128
 1018              		.cfi_def_cfa_offset 144
 1019 0004 02AF     		add	r7, sp, #8
 1020              		.cfi_def_cfa 7, 136
 1021 0006 F860     		str	r0, [r7, #12]
 1022 0008 B960     		str	r1, [r7, #8]
 1023 000a 191C     		mov	r1, r3
 1024 000c BB1D     		add	r3, r7, #6
 1025 000e 1A80     		strh	r2, [r3]
 1026 0010 3B1D     		add	r3, r7, #4
 1027 0012 0A1C     		add	r2, r1, #0
 1028 0014 1A80     		strh	r2, [r3]
 312:.\lib_Network/network.c ****     char sendBuffer[DATA_BUFFER];
 313:.\lib_Network/network.c ****     char sendData[DATA_BUFFER];
 314:.\lib_Network/network.c ****     
 315:.\lib_Network/network.c ****     /*pack data*/
 316:.\lib_Network/network.c ****     sprintf(sendData,"%08X%03X%08X%03X", unixTime2, millis2, unixTime3, millis3); 
ARM GAS  C:\DOCUME~1\Admin\LOCALS~1\Temp\cc2z0V6J.s 			page 25


 1029              		.loc 1 316 0
 1030 0016 BB1D     		add	r3, r7, #6
 1031 0018 1C88     		ldrh	r4, [r3]
 1032 001a 3B1D     		add	r3, r7, #4
 1033 001c 1B88     		ldrh	r3, [r3]
 1034 001e 1022     		mov	r2, #16
 1035 0020 B818     		add	r0, r7, r2
 1036 0022 1049     		ldr	r1, .L71
 1037 0024 FD68     		ldr	r5, [r7, #12]
 1038 0026 BA68     		ldr	r2, [r7, #8]
 1039 0028 0092     		str	r2, [sp]
 1040 002a 0193     		str	r3, [sp, #4]
 1041 002c 2A1C     		mov	r2, r5
 1042 002e 231C     		mov	r3, r4
 1043 0030 FFF7FEFF 		bl	sprintf
 317:.\lib_Network/network.c ****     PackData(sendBuffer, (uint8_t *)sendData, ID);
 1044              		.loc 1 317 0
 1045 0034 4423     		mov	r3, #68
 1046 0036 F918     		add	r1, r7, r3
 1047 0038 1023     		mov	r3, #16
 1048 003a FA18     		add	r2, r7, r3
 1049 003c 8823     		mov	r3, #136
 1050 003e FB18     		add	r3, r7, r3
 1051 0040 1B68     		ldr	r3, [r3]
 1052 0042 081C     		mov	r0, r1
 1053 0044 111C     		mov	r1, r2
 1054 0046 1A1C     		mov	r2, r3
 1055 0048 FFF7FEFF 		bl	PackData
 318:.\lib_Network/network.c ****     UART_XB_UartPutString(sendBuffer);
 1056              		.loc 1 318 0
 1057 004c 4423     		mov	r3, #68
 1058 004e FB18     		add	r3, r7, r3
 1059 0050 181C     		mov	r0, r3
 1060 0052 FFF7FEFF 		bl	UART_XB_UartPutString
 319:.\lib_Network/network.c ****     CyDelay(50);
 1061              		.loc 1 319 0
 1062 0056 3220     		mov	r0, #50
 1063 0058 FFF7FEFF 		bl	CyDelay
 320:.\lib_Network/network.c **** }
 1064              		.loc 1 320 0
 1065 005c BD46     		mov	sp, r7
 1066 005e 1EB0     		add	sp, sp, #120
 1067              		@ sp needed
 1068 0060 B0BD     		pop	{r4, r5, r7, pc}
 1069              	.L72:
 1070 0062 C046     		.align	2
 1071              	.L71:
 1072 0064 1C000000 		.word	.LC19
 1073              		.cfi_endproc
 1074              	.LFE74:
 1075              		.size	NTPsendTime, .-NTPsendTime
 1076              		.text
 1077              	.Letext0:
 1078              		.file 2 "c:\\program files\\cypress\\psoc creator\\3.3\\psoc creator\\import\\gnu\\arm\\4.9.3\\arm
 1079              		.file 3 "c:\\program files\\cypress\\psoc creator\\3.3\\psoc creator\\import\\gnu\\arm\\4.9.3\\arm
 1080              		.file 4 "./lib_Network\\svt.h"
 1081              		.file 5 "./lib_Network\\ntp.h"
ARM GAS  C:\DOCUME~1\Admin\LOCALS~1\Temp\cc2z0V6J.s 			page 26


 1082              		.file 6 "./lib_Network\\network.h"
 1083              		.file 7 "./lib_Display\\display.h"
 1084              		.section	.debug_info,"",%progbits
 1085              	.Ldebug_info0:
 1086 0000 03060000 		.4byte	0x603
 1087 0004 0400     		.2byte	0x4
 1088 0006 00000000 		.4byte	.Ldebug_abbrev0
 1089 000a 04       		.byte	0x4
 1090 000b 01       		.uleb128 0x1
 1091 000c 8E020000 		.4byte	.LASF79
 1092 0010 01       		.byte	0x1
 1093 0011 74030000 		.4byte	.LASF80
 1094 0015 AE030000 		.4byte	.LASF81
 1095 0019 00000000 		.4byte	.Ldebug_ranges0+0
 1096 001d 00000000 		.4byte	0
 1097 0021 00000000 		.4byte	.Ldebug_line0
 1098 0025 02       		.uleb128 0x2
 1099 0026 01       		.byte	0x1
 1100 0027 06       		.byte	0x6
 1101 0028 E4010000 		.4byte	.LASF0
 1102 002c 03       		.uleb128 0x3
 1103 002d 80010000 		.4byte	.LASF3
 1104 0031 02       		.byte	0x2
 1105 0032 1D       		.byte	0x1d
 1106 0033 37000000 		.4byte	0x37
 1107 0037 02       		.uleb128 0x2
 1108 0038 01       		.byte	0x1
 1109 0039 08       		.byte	0x8
 1110 003a BF010000 		.4byte	.LASF1
 1111 003e 02       		.uleb128 0x2
 1112 003f 02       		.byte	0x2
 1113 0040 05       		.byte	0x5
 1114 0041 BE000000 		.4byte	.LASF2
 1115 0045 03       		.uleb128 0x3
 1116 0046 B3000000 		.4byte	.LASF4
 1117 004a 02       		.byte	0x2
 1118 004b 2B       		.byte	0x2b
 1119 004c 50000000 		.4byte	0x50
 1120 0050 02       		.uleb128 0x2
 1121 0051 02       		.byte	0x2
 1122 0052 07       		.byte	0x7
 1123 0053 2A030000 		.4byte	.LASF5
 1124 0057 02       		.uleb128 0x2
 1125 0058 04       		.byte	0x4
 1126 0059 05       		.byte	0x5
 1127 005a 51010000 		.4byte	.LASF6
 1128 005e 03       		.uleb128 0x3
 1129 005f 99000000 		.4byte	.LASF7
 1130 0063 02       		.byte	0x2
 1131 0064 41       		.byte	0x41
 1132 0065 69000000 		.4byte	0x69
 1133 0069 02       		.uleb128 0x2
 1134 006a 04       		.byte	0x4
 1135 006b 07       		.byte	0x7
 1136 006c 3C020000 		.4byte	.LASF8
 1137 0070 02       		.uleb128 0x2
 1138 0071 08       		.byte	0x8
ARM GAS  C:\DOCUME~1\Admin\LOCALS~1\Temp\cc2z0V6J.s 			page 27


 1139 0072 05       		.byte	0x5
 1140 0073 38010000 		.4byte	.LASF9
 1141 0077 03       		.uleb128 0x3
 1142 0078 5E030000 		.4byte	.LASF10
 1143 007c 02       		.byte	0x2
 1144 007d 5B       		.byte	0x5b
 1145 007e 82000000 		.4byte	0x82
 1146 0082 02       		.uleb128 0x2
 1147 0083 08       		.byte	0x8
 1148 0084 07       		.byte	0x7
 1149 0085 F0010000 		.4byte	.LASF11
 1150 0089 04       		.uleb128 0x4
 1151 008a 04       		.byte	0x4
 1152 008b 05       		.byte	0x5
 1153 008c 696E7400 		.ascii	"int\000"
 1154 0090 02       		.uleb128 0x2
 1155 0091 04       		.byte	0x4
 1156 0092 07       		.byte	0x7
 1157 0093 26020000 		.4byte	.LASF12
 1158 0097 03       		.uleb128 0x3
 1159 0098 F3000000 		.4byte	.LASF13
 1160 009c 03       		.byte	0x3
 1161 009d 15       		.byte	0x15
 1162 009e 2C000000 		.4byte	0x2c
 1163 00a2 03       		.uleb128 0x3
 1164 00a3 33020000 		.4byte	.LASF14
 1165 00a7 03       		.byte	0x3
 1166 00a8 21       		.byte	0x21
 1167 00a9 45000000 		.4byte	0x45
 1168 00ad 03       		.uleb128 0x3
 1169 00ae 07020000 		.4byte	.LASF15
 1170 00b2 03       		.byte	0x3
 1171 00b3 2D       		.byte	0x2d
 1172 00b4 5E000000 		.4byte	0x5e
 1173 00b8 03       		.uleb128 0x3
 1174 00b9 49000000 		.4byte	.LASF16
 1175 00bd 03       		.byte	0x3
 1176 00be 39       		.byte	0x39
 1177 00bf 77000000 		.4byte	0x77
 1178 00c3 02       		.uleb128 0x2
 1179 00c4 04       		.byte	0x4
 1180 00c5 04       		.byte	0x4
 1181 00c6 28010000 		.4byte	.LASF17
 1182 00ca 02       		.uleb128 0x2
 1183 00cb 08       		.byte	0x8
 1184 00cc 04       		.byte	0x4
 1185 00cd 99030000 		.4byte	.LASF18
 1186 00d1 02       		.uleb128 0x2
 1187 00d2 01       		.byte	0x1
 1188 00d3 08       		.byte	0x8
 1189 00d4 7A020000 		.4byte	.LASF19
 1190 00d8 02       		.uleb128 0x2
 1191 00d9 04       		.byte	0x4
 1192 00da 07       		.byte	0x7
 1193 00db 63000000 		.4byte	.LASF20
 1194 00df 05       		.uleb128 0x5
 1195 00e0 AD000000 		.4byte	0xad
ARM GAS  C:\DOCUME~1\Admin\LOCALS~1\Temp\cc2z0V6J.s 			page 28


 1196 00e4 EF000000 		.4byte	0xef
 1197 00e8 06       		.uleb128 0x6
 1198 00e9 D8000000 		.4byte	0xd8
 1199 00ed 01       		.byte	0x1
 1200 00ee 00       		.byte	0
 1201 00ef 07       		.uleb128 0x7
 1202 00f0 62010000 		.4byte	.LASF82
 1203 00f4 20       		.byte	0x20
 1204 00f5 04       		.byte	0x4
 1205 00f6 0D       		.byte	0xd
 1206 00f7 50010000 		.4byte	0x150
 1207 00fb 08       		.uleb128 0x8
 1208 00fc 53657100 		.ascii	"Seq\000"
 1209 0100 04       		.byte	0x4
 1210 0101 0F       		.byte	0xf
 1211 0102 A2000000 		.4byte	0xa2
 1212 0106 00       		.byte	0
 1213 0107 09       		.uleb128 0x9
 1214 0108 6B020000 		.4byte	.LASF21
 1215 010c 04       		.byte	0x4
 1216 010d 10       		.byte	0x10
 1217 010e 89000000 		.4byte	0x89
 1218 0112 04       		.byte	0x4
 1219 0113 09       		.uleb128 0x9
 1220 0114 52030000 		.4byte	.LASF22
 1221 0118 04       		.byte	0x4
 1222 0119 11       		.byte	0x11
 1223 011a B8000000 		.4byte	0xb8
 1224 011e 08       		.byte	0x8
 1225 011f 09       		.uleb128 0x9
 1226 0120 58030000 		.4byte	.LASF23
 1227 0124 04       		.byte	0x4
 1228 0125 12       		.byte	0x12
 1229 0126 A2000000 		.4byte	0xa2
 1230 012a 10       		.byte	0x10
 1231 012b 09       		.uleb128 0x9
 1232 012c E7030000 		.4byte	.LASF24
 1233 0130 04       		.byte	0x4
 1234 0131 13       		.byte	0x13
 1235 0132 A2000000 		.4byte	0xa2
 1236 0136 12       		.byte	0x12
 1237 0137 09       		.uleb128 0x9
 1238 0138 AB010000 		.4byte	.LASF25
 1239 013c 04       		.byte	0x4
 1240 013d 14       		.byte	0x14
 1241 013e AD000000 		.4byte	0xad
 1242 0142 14       		.byte	0x14
 1243 0143 09       		.uleb128 0x9
 1244 0144 2E010000 		.4byte	.LASF26
 1245 0148 04       		.byte	0x4
 1246 0149 15       		.byte	0x15
 1247 014a 97000000 		.4byte	0x97
 1248 014e 18       		.byte	0x18
 1249 014f 00       		.byte	0
 1250 0150 0A       		.uleb128 0xa
 1251 0151 14       		.byte	0x14
 1252 0152 05       		.byte	0x5
ARM GAS  C:\DOCUME~1\Admin\LOCALS~1\Temp\cc2z0V6J.s 			page 29


 1253 0153 07       		.byte	0x7
 1254 0154 94010000 		.4byte	0x194
 1255 0158 08       		.uleb128 0x8
 1256 0159 496400   		.ascii	"Id\000"
 1257 015c 05       		.byte	0x5
 1258 015d 09       		.byte	0x9
 1259 015e A2000000 		.4byte	0xa2
 1260 0162 00       		.byte	0
 1261 0163 09       		.uleb128 0x9
 1262 0164 52030000 		.4byte	.LASF22
 1263 0168 05       		.byte	0x5
 1264 0169 0A       		.byte	0xa
 1265 016a AD000000 		.4byte	0xad
 1266 016e 04       		.byte	0x4
 1267 016f 09       		.uleb128 0x9
 1268 0170 18000000 		.4byte	.LASF27
 1269 0174 05       		.byte	0x5
 1270 0175 0B       		.byte	0xb
 1271 0176 A2000000 		.4byte	0xa2
 1272 017a 08       		.byte	0x8
 1273 017b 09       		.uleb128 0x9
 1274 017c AB010000 		.4byte	.LASF25
 1275 0180 05       		.byte	0x5
 1276 0181 0C       		.byte	0xc
 1277 0182 AD000000 		.4byte	0xad
 1278 0186 0C       		.byte	0xc
 1279 0187 09       		.uleb128 0x9
 1280 0188 2E010000 		.4byte	.LASF26
 1281 018c 05       		.byte	0x5
 1282 018d 0D       		.byte	0xd
 1283 018e 97000000 		.4byte	0x97
 1284 0192 10       		.byte	0x10
 1285 0193 00       		.byte	0
 1286 0194 03       		.uleb128 0x3
 1287 0195 07000000 		.4byte	.LASF28
 1288 0199 05       		.byte	0x5
 1289 019a 0E       		.byte	0xe
 1290 019b 50010000 		.4byte	0x150
 1291 019f 0A       		.uleb128 0xa
 1292 01a0 18       		.byte	0x18
 1293 01a1 06       		.byte	0x6
 1294 01a2 49       		.byte	0x49
 1295 01a3 FC010000 		.4byte	0x1fc
 1296 01a7 09       		.uleb128 0x9
 1297 01a8 62020000 		.4byte	.LASF29
 1298 01ac 06       		.byte	0x6
 1299 01ad 4B       		.byte	0x4b
 1300 01ae 97000000 		.4byte	0x97
 1301 01b2 00       		.byte	0
 1302 01b3 09       		.uleb128 0x9
 1303 01b4 88020000 		.4byte	.LASF30
 1304 01b8 06       		.byte	0x6
 1305 01b9 4C       		.byte	0x4c
 1306 01ba 97000000 		.4byte	0x97
 1307 01be 01       		.byte	0x1
 1308 01bf 09       		.uleb128 0x9
 1309 01c0 5C000000 		.4byte	.LASF31
ARM GAS  C:\DOCUME~1\Admin\LOCALS~1\Temp\cc2z0V6J.s 			page 30


 1310 01c4 06       		.byte	0x6
 1311 01c5 4D       		.byte	0x4d
 1312 01c6 97000000 		.4byte	0x97
 1313 01ca 02       		.byte	0x2
 1314 01cb 09       		.uleb128 0x9
 1315 01cc 21040000 		.4byte	.LASF32
 1316 01d0 06       		.byte	0x6
 1317 01d1 4E       		.byte	0x4e
 1318 01d2 97000000 		.4byte	0x97
 1319 01d6 03       		.byte	0x3
 1320 01d7 09       		.uleb128 0x9
 1321 01d8 5A020000 		.4byte	.LASF33
 1322 01dc 06       		.byte	0x6
 1323 01dd 4F       		.byte	0x4f
 1324 01de B8000000 		.4byte	0xb8
 1325 01e2 08       		.byte	0x8
 1326 01e3 09       		.uleb128 0x9
 1327 01e4 A1010000 		.4byte	.LASF34
 1328 01e8 06       		.byte	0x6
 1329 01e9 50       		.byte	0x50
 1330 01ea A2000000 		.4byte	0xa2
 1331 01ee 10       		.byte	0x10
 1332 01ef 09       		.uleb128 0x9
 1333 01f0 B4010000 		.4byte	.LASF35
 1334 01f4 06       		.byte	0x6
 1335 01f5 51       		.byte	0x51
 1336 01f6 97000000 		.4byte	0x97
 1337 01fa 12       		.byte	0x12
 1338 01fb 00       		.byte	0
 1339 01fc 03       		.uleb128 0x3
 1340 01fd 46010000 		.4byte	.LASF36
 1341 0201 06       		.byte	0x6
 1342 0202 52       		.byte	0x52
 1343 0203 9F010000 		.4byte	0x19f
 1344 0207 0A       		.uleb128 0xa
 1345 0208 18       		.byte	0x18
 1346 0209 06       		.byte	0x6
 1347 020a 54       		.byte	0x54
 1348 020b 58020000 		.4byte	0x258
 1349 020f 09       		.uleb128 0x9
 1350 0210 62020000 		.4byte	.LASF29
 1351 0214 06       		.byte	0x6
 1352 0215 56       		.byte	0x56
 1353 0216 97000000 		.4byte	0x97
 1354 021a 00       		.byte	0
 1355 021b 09       		.uleb128 0x9
 1356 021c 1C030000 		.4byte	.LASF37
 1357 0220 06       		.byte	0x6
 1358 0221 57       		.byte	0x57
 1359 0222 B8000000 		.4byte	0xb8
 1360 0226 08       		.byte	0x8
 1361 0227 09       		.uleb128 0x9
 1362 0228 8D000000 		.4byte	.LASF38
 1363 022c 06       		.byte	0x6
 1364 022d 58       		.byte	0x58
 1365 022e A2000000 		.4byte	0xa2
 1366 0232 10       		.byte	0x10
ARM GAS  C:\DOCUME~1\Admin\LOCALS~1\Temp\cc2z0V6J.s 			page 31


 1367 0233 09       		.uleb128 0x9
 1368 0234 0F000000 		.4byte	.LASF39
 1369 0238 06       		.byte	0x6
 1370 0239 59       		.byte	0x59
 1371 023a 97000000 		.4byte	0x97
 1372 023e 12       		.byte	0x12
 1373 023f 09       		.uleb128 0x9
 1374 0240 74010000 		.4byte	.LASF40
 1375 0244 06       		.byte	0x6
 1376 0245 5A       		.byte	0x5a
 1377 0246 97000000 		.4byte	0x97
 1378 024a 13       		.byte	0x13
 1379 024b 09       		.uleb128 0x9
 1380 024c 5C000000 		.4byte	.LASF31
 1381 0250 06       		.byte	0x6
 1382 0251 5B       		.byte	0x5b
 1383 0252 97000000 		.4byte	0x97
 1384 0256 14       		.byte	0x14
 1385 0257 00       		.byte	0
 1386 0258 03       		.uleb128 0x3
 1387 0259 09010000 		.4byte	.LASF41
 1388 025d 06       		.byte	0x6
 1389 025e 5C       		.byte	0x5c
 1390 025f 07020000 		.4byte	0x207
 1391 0263 0B       		.uleb128 0xb
 1392 0264 4E020000 		.4byte	.LASF83
 1393 0268 01       		.byte	0x1
 1394 0269 06       		.byte	0x6
 1395 026a 00000000 		.4byte	.LFB63
 1396 026e 34000000 		.4byte	.LFE63-.LFB63
 1397 0272 01       		.uleb128 0x1
 1398 0273 9C       		.byte	0x9c
 1399 0274 0C       		.uleb128 0xc
 1400 0275 29000000 		.4byte	.LASF46
 1401 0279 01       		.byte	0x1
 1402 027a 14       		.byte	0x14
 1403 027b 00000000 		.4byte	.LFB64
 1404 027f DC000000 		.4byte	.LFE64-.LFB64
 1405 0283 01       		.uleb128 0x1
 1406 0284 9C       		.byte	0x9c
 1407 0285 B2020000 		.4byte	0x2b2
 1408 0289 0D       		.uleb128 0xd
 1409 028a 38000000 		.4byte	.LBB2
 1410 028e 8C000000 		.4byte	.LBE2-.LBB2
 1411 0292 0E       		.uleb128 0xe
 1412 0293 E8000000 		.4byte	.LASF42
 1413 0297 01       		.byte	0x1
 1414 0298 23       		.byte	0x23
 1415 0299 B2020000 		.4byte	0x2b2
 1416 029d 03       		.uleb128 0x3
 1417 029e 91       		.byte	0x91
 1418 029f 807F     		.sleb128 -128
 1419 02a1 0E       		.uleb128 0xe
 1420 02a2 32000000 		.4byte	.LASF43
 1421 02a6 01       		.byte	0x1
 1422 02a7 24       		.byte	0x24
 1423 02a8 B2020000 		.4byte	0x2b2
ARM GAS  C:\DOCUME~1\Admin\LOCALS~1\Temp\cc2z0V6J.s 			page 32


 1424 02ac 03       		.uleb128 0x3
 1425 02ad 91       		.byte	0x91
 1426 02ae B47F     		.sleb128 -76
 1427 02b0 00       		.byte	0
 1428 02b1 00       		.byte	0
 1429 02b2 05       		.uleb128 0x5
 1430 02b3 D1000000 		.4byte	0xd1
 1431 02b7 C2020000 		.4byte	0x2c2
 1432 02bb 06       		.uleb128 0x6
 1433 02bc D8000000 		.4byte	0xd8
 1434 02c0 31       		.byte	0x31
 1435 02c1 00       		.byte	0
 1436 02c2 0F       		.uleb128 0xf
 1437 02c3 ED030000 		.4byte	.LASF52
 1438 02c7 01       		.byte	0x1
 1439 02c8 46       		.byte	0x46
 1440 02c9 AD000000 		.4byte	0xad
 1441 02cd 00000000 		.4byte	.LFB65
 1442 02d1 CC000000 		.4byte	.LFE65-.LFB65
 1443 02d5 01       		.uleb128 0x1
 1444 02d6 9C       		.byte	0x9c
 1445 02d7 02030000 		.4byte	0x302
 1446 02db 0D       		.uleb128 0xd
 1447 02dc 16000000 		.4byte	.LBB3
 1448 02e0 9C000000 		.4byte	.LBE3-.LBB3
 1449 02e4 0E       		.uleb128 0xe
 1450 02e5 DA030000 		.4byte	.LASF44
 1451 02e9 01       		.byte	0x1
 1452 02ea 4A       		.byte	0x4a
 1453 02eb AD000000 		.4byte	0xad
 1454 02ef 02       		.uleb128 0x2
 1455 02f0 91       		.byte	0x91
 1456 02f1 74       		.sleb128 -12
 1457 02f2 0E       		.uleb128 0xe
 1458 02f3 6C000000 		.4byte	.LASF45
 1459 02f7 01       		.byte	0x1
 1460 02f8 4B       		.byte	0x4b
 1461 02f9 EF000000 		.4byte	0xef
 1462 02fd 02       		.uleb128 0x2
 1463 02fe 91       		.byte	0x91
 1464 02ff 50       		.sleb128 -48
 1465 0300 00       		.byte	0
 1466 0301 00       		.byte	0
 1467 0302 10       		.uleb128 0x10
 1468 0303 FB000000 		.4byte	.LASF50
 1469 0307 01       		.byte	0x1
 1470 0308 7A       		.byte	0x7a
 1471 0309 AD000000 		.4byte	0xad
 1472 030d 00000000 		.4byte	.LFB66
 1473 0311 14000000 		.4byte	.LFE66-.LFB66
 1474 0315 01       		.uleb128 0x1
 1475 0316 9C       		.byte	0x9c
 1476 0317 11       		.uleb128 0x11
 1477 0318 12040000 		.4byte	.LASF47
 1478 031c 01       		.byte	0x1
 1479 031d 80       		.byte	0x80
 1480 031e 00000000 		.4byte	.LFB67
ARM GAS  C:\DOCUME~1\Admin\LOCALS~1\Temp\cc2z0V6J.s 			page 33


 1481 0322 30000000 		.4byte	.LFE67-.LFB67
 1482 0326 01       		.uleb128 0x1
 1483 0327 9C       		.byte	0x9c
 1484 0328 49030000 		.4byte	0x349
 1485 032c 12       		.uleb128 0x12
 1486 032d 18020000 		.4byte	.LASF48
 1487 0331 01       		.byte	0x1
 1488 0332 80       		.byte	0x80
 1489 0333 B8000000 		.4byte	0xb8
 1490 0337 02       		.uleb128 0x2
 1491 0338 91       		.byte	0x91
 1492 0339 68       		.sleb128 -24
 1493 033a 12       		.uleb128 0x12
 1494 033b 3D030000 		.4byte	.LASF49
 1495 033f 01       		.byte	0x1
 1496 0340 80       		.byte	0x80
 1497 0341 AD000000 		.4byte	0xad
 1498 0345 02       		.uleb128 0x2
 1499 0346 91       		.byte	0x91
 1500 0347 64       		.sleb128 -28
 1501 0348 00       		.byte	0
 1502 0349 10       		.uleb128 0x10
 1503 034a 7F020000 		.4byte	.LASF51
 1504 034e 01       		.byte	0x1
 1505 034f 88       		.byte	0x88
 1506 0350 AD000000 		.4byte	0xad
 1507 0354 00000000 		.4byte	.LFB68
 1508 0358 14000000 		.4byte	.LFE68-.LFB68
 1509 035c 01       		.uleb128 0x1
 1510 035d 9C       		.byte	0x9c
 1511 035e 13       		.uleb128 0x13
 1512 035f 8C030000 		.4byte	.LASF53
 1513 0363 01       		.byte	0x1
 1514 0364 8E       		.byte	0x8e
 1515 0365 AD000000 		.4byte	0xad
 1516 0369 00000000 		.4byte	.LFB69
 1517 036d 28000000 		.4byte	.LFE69-.LFB69
 1518 0371 01       		.uleb128 0x1
 1519 0372 9C       		.byte	0x9c
 1520 0373 86030000 		.4byte	0x386
 1521 0377 0E       		.uleb128 0xe
 1522 0378 00000000 		.4byte	.LASF54
 1523 037c 01       		.byte	0x1
 1524 037d 90       		.byte	0x90
 1525 037e AD000000 		.4byte	0xad
 1526 0382 02       		.uleb128 0x2
 1527 0383 91       		.byte	0x91
 1528 0384 74       		.sleb128 -12
 1529 0385 00       		.byte	0
 1530 0386 13       		.uleb128 0x13
 1531 0387 C8000000 		.4byte	.LASF55
 1532 038b 01       		.byte	0x1
 1533 038c 9D       		.byte	0x9d
 1534 038d AD000000 		.4byte	0xad
 1535 0391 00000000 		.4byte	.LFB70
 1536 0395 44000000 		.4byte	.LFE70-.LFB70
 1537 0399 01       		.uleb128 0x1
ARM GAS  C:\DOCUME~1\Admin\LOCALS~1\Temp\cc2z0V6J.s 			page 34


 1538 039a 9C       		.byte	0x9c
 1539 039b AE030000 		.4byte	0x3ae
 1540 039f 0E       		.uleb128 0xe
 1541 03a0 00000000 		.4byte	.LASF54
 1542 03a4 01       		.byte	0x1
 1543 03a5 9F       		.byte	0x9f
 1544 03a6 AD000000 		.4byte	0xad
 1545 03aa 02       		.uleb128 0x2
 1546 03ab 91       		.byte	0x91
 1547 03ac 74       		.sleb128 -12
 1548 03ad 00       		.byte	0
 1549 03ae 11       		.uleb128 0x11
 1550 03af 8A010000 		.4byte	.LASF56
 1551 03b3 01       		.byte	0x1
 1552 03b4 AE       		.byte	0xae
 1553 03b5 00000000 		.4byte	.LFB71
 1554 03b9 28000000 		.4byte	.LFE71-.LFB71
 1555 03bd 01       		.uleb128 0x1
 1556 03be 9C       		.byte	0x9c
 1557 03bf D2030000 		.4byte	0x3d2
 1558 03c3 12       		.uleb128 0x12
 1559 03c4 73020000 		.4byte	.LASF57
 1560 03c8 01       		.byte	0x1
 1561 03c9 AE       		.byte	0xae
 1562 03ca AD000000 		.4byte	0xad
 1563 03ce 02       		.uleb128 0x2
 1564 03cf 91       		.byte	0x91
 1565 03d0 74       		.sleb128 -12
 1566 03d1 00       		.byte	0
 1567 03d2 0F       		.uleb128 0xf
 1568 03d3 DF030000 		.4byte	.LASF58
 1569 03d7 01       		.byte	0x1
 1570 03d8 BA       		.byte	0xba
 1571 03d9 AD000000 		.4byte	0xad
 1572 03dd 00000000 		.4byte	.LFB72
 1573 03e1 3E010000 		.4byte	.LFE72-.LFB72
 1574 03e5 01       		.uleb128 0x1
 1575 03e6 9C       		.byte	0x9c
 1576 03e7 5A040000 		.4byte	0x45a
 1577 03eb 14       		.uleb128 0x14
 1578 03ec 6900     		.ascii	"i\000"
 1579 03ee 01       		.byte	0x1
 1580 03ef BC       		.byte	0xbc
 1581 03f0 89000000 		.4byte	0x89
 1582 03f4 02       		.uleb128 0x2
 1583 03f5 91       		.byte	0x91
 1584 03f6 6C       		.sleb128 -20
 1585 03f7 0E       		.uleb128 0xe
 1586 03f8 00000000 		.4byte	.LASF54
 1587 03fc 01       		.byte	0x1
 1588 03fd BD       		.byte	0xbd
 1589 03fe A2000000 		.4byte	0xa2
 1590 0402 02       		.uleb128 0x2
 1591 0403 91       		.byte	0x91
 1592 0404 6A       		.sleb128 -22
 1593 0405 0E       		.uleb128 0xe
 1594 0406 7D000000 		.4byte	.LASF59
ARM GAS  C:\DOCUME~1\Admin\LOCALS~1\Temp\cc2z0V6J.s 			page 35


 1595 040a 01       		.byte	0x1
 1596 040b BE       		.byte	0xbe
 1597 040c AD000000 		.4byte	0xad
 1598 0410 02       		.uleb128 0x2
 1599 0411 91       		.byte	0x91
 1600 0412 58       		.sleb128 -40
 1601 0413 0E       		.uleb128 0xe
 1602 0414 67010000 		.4byte	.LASF60
 1603 0418 01       		.byte	0x1
 1604 0419 BF       		.byte	0xbf
 1605 041a AD000000 		.4byte	0xad
 1606 041e 02       		.uleb128 0x2
 1607 041f 91       		.byte	0x91
 1608 0420 64       		.sleb128 -28
 1609 0421 0E       		.uleb128 0xe
 1610 0422 20000000 		.4byte	.LASF61
 1611 0426 01       		.byte	0x1
 1612 0427 C0       		.byte	0xc0
 1613 0428 DF000000 		.4byte	0xdf
 1614 042c 02       		.uleb128 0x2
 1615 042d 91       		.byte	0x91
 1616 042e 50       		.sleb128 -48
 1617 042f 0E       		.uleb128 0xe
 1618 0430 69030000 		.4byte	.LASF62
 1619 0434 01       		.byte	0x1
 1620 0435 C1       		.byte	0xc1
 1621 0436 5A040000 		.4byte	0x45a
 1622 043a 02       		.uleb128 0x2
 1623 043b 91       		.byte	0x91
 1624 043c 4C       		.sleb128 -52
 1625 043d 0E       		.uleb128 0xe
 1626 043e 3B000000 		.4byte	.LASF63
 1627 0442 01       		.byte	0x1
 1628 0443 C2       		.byte	0xc2
 1629 0444 AD000000 		.4byte	0xad
 1630 0448 02       		.uleb128 0x2
 1631 0449 91       		.byte	0x91
 1632 044a 60       		.sleb128 -32
 1633 044b 0E       		.uleb128 0xe
 1634 044c 52000000 		.4byte	.LASF64
 1635 0450 01       		.byte	0x1
 1636 0451 C3       		.byte	0xc3
 1637 0452 AD000000 		.4byte	0xad
 1638 0456 02       		.uleb128 0x2
 1639 0457 91       		.byte	0x91
 1640 0458 5C       		.sleb128 -36
 1641 0459 00       		.byte	0
 1642 045a 05       		.uleb128 0x5
 1643 045b A2000000 		.4byte	0xa2
 1644 045f 6A040000 		.4byte	0x46a
 1645 0463 06       		.uleb128 0x6
 1646 0464 D8000000 		.4byte	0xd8
 1647 0468 01       		.byte	0x1
 1648 0469 00       		.byte	0
 1649 046a 15       		.uleb128 0x15
 1650 046b 03040000 		.4byte	.LASF84
 1651 046f 01       		.byte	0x1
ARM GAS  C:\DOCUME~1\Admin\LOCALS~1\Temp\cc2z0V6J.s 			page 36


 1652 0470 1001     		.2byte	0x110
 1653 0472 AD000000 		.4byte	0xad
 1654 0476 00000000 		.4byte	.LFB73
 1655 047a B0000000 		.4byte	.LFE73-.LFB73
 1656 047e 01       		.uleb128 0x1
 1657 047f 9C       		.byte	0x9c
 1658 0480 EE040000 		.4byte	0x4ee
 1659 0484 16       		.uleb128 0x16
 1660 0485 CD010000 		.4byte	.LASF65
 1661 0489 01       		.byte	0x1
 1662 048a 1001     		.2byte	0x110
 1663 048c EE040000 		.4byte	0x4ee
 1664 0490 02       		.uleb128 0x2
 1665 0491 91       		.byte	0x91
 1666 0492 4C       		.sleb128 -52
 1667 0493 16       		.uleb128 0x16
 1668 0494 46030000 		.4byte	.LASF66
 1669 0498 01       		.byte	0x1
 1670 0499 1001     		.2byte	0x110
 1671 049b F4040000 		.4byte	0x4f4
 1672 049f 02       		.uleb128 0x2
 1673 04a0 91       		.byte	0x91
 1674 04a1 48       		.sleb128 -56
 1675 04a2 16       		.uleb128 0x16
 1676 04a3 F9030000 		.4byte	.LASF67
 1677 04a7 01       		.byte	0x1
 1678 04a8 1001     		.2byte	0x110
 1679 04aa EE040000 		.4byte	0x4ee
 1680 04ae 02       		.uleb128 0x2
 1681 04af 91       		.byte	0x91
 1682 04b0 44       		.sleb128 -60
 1683 04b1 16       		.uleb128 0x16
 1684 04b2 13010000 		.4byte	.LASF68
 1685 04b6 01       		.byte	0x1
 1686 04b7 1001     		.2byte	0x110
 1687 04b9 AD000000 		.4byte	0xad
 1688 04bd 02       		.uleb128 0x2
 1689 04be 91       		.byte	0x91
 1690 04bf 40       		.sleb128 -64
 1691 04c0 17       		.uleb128 0x17
 1692 04c1 DA030000 		.4byte	.LASF44
 1693 04c5 01       		.byte	0x1
 1694 04c6 1201     		.2byte	0x112
 1695 04c8 97000000 		.4byte	0x97
 1696 04cc 02       		.uleb128 0x2
 1697 04cd 91       		.byte	0x91
 1698 04ce 6B       		.sleb128 -21
 1699 04cf 17       		.uleb128 0x17
 1700 04d0 00000000 		.4byte	.LASF54
 1701 04d4 01       		.byte	0x1
 1702 04d5 1301     		.2byte	0x113
 1703 04d7 AD000000 		.4byte	0xad
 1704 04db 02       		.uleb128 0x2
 1705 04dc 91       		.byte	0x91
 1706 04dd 6C       		.sleb128 -20
 1707 04de 17       		.uleb128 0x17
 1708 04df 1C010000 		.4byte	.LASF69
ARM GAS  C:\DOCUME~1\Admin\LOCALS~1\Temp\cc2z0V6J.s 			page 37


 1709 04e3 01       		.byte	0x1
 1710 04e4 1701     		.2byte	0x117
 1711 04e6 94010000 		.4byte	0x194
 1712 04ea 02       		.uleb128 0x2
 1713 04eb 91       		.byte	0x91
 1714 04ec 54       		.sleb128 -44
 1715 04ed 00       		.byte	0
 1716 04ee 18       		.uleb128 0x18
 1717 04ef 04       		.byte	0x4
 1718 04f0 AD000000 		.4byte	0xad
 1719 04f4 18       		.uleb128 0x18
 1720 04f5 04       		.byte	0x4
 1721 04f6 A2000000 		.4byte	0xa2
 1722 04fa 19       		.uleb128 0x19
 1723 04fb 2D040000 		.4byte	.LASF85
 1724 04ff 01       		.byte	0x1
 1725 0500 3601     		.2byte	0x136
 1726 0502 00000000 		.4byte	.LFB74
 1727 0506 68000000 		.4byte	.LFE74-.LFB74
 1728 050a 01       		.uleb128 0x1
 1729 050b 9C       		.byte	0x9c
 1730 050c 7F050000 		.4byte	0x57f
 1731 0510 16       		.uleb128 0x16
 1732 0511 CD010000 		.4byte	.LASF65
 1733 0515 01       		.byte	0x1
 1734 0516 3601     		.2byte	0x136
 1735 0518 AD000000 		.4byte	0xad
 1736 051c 03       		.uleb128 0x3
 1737 051d 91       		.byte	0x91
 1738 051e 847F     		.sleb128 -124
 1739 0520 16       		.uleb128 0x16
 1740 0521 A9000000 		.4byte	.LASF70
 1741 0525 01       		.byte	0x1
 1742 0526 3601     		.2byte	0x136
 1743 0528 AD000000 		.4byte	0xad
 1744 052c 03       		.uleb128 0x3
 1745 052d 91       		.byte	0x91
 1746 052e 807F     		.sleb128 -128
 1747 0530 16       		.uleb128 0x16
 1748 0531 10020000 		.4byte	.LASF71
 1749 0535 01       		.byte	0x1
 1750 0536 3601     		.2byte	0x136
 1751 0538 A2000000 		.4byte	0xa2
 1752 053c 03       		.uleb128 0x3
 1753 053d 91       		.byte	0x91
 1754 053e FE7E     		.sleb128 -130
 1755 0540 16       		.uleb128 0x16
 1756 0541 75000000 		.4byte	.LASF72
 1757 0545 01       		.byte	0x1
 1758 0546 3601     		.2byte	0x136
 1759 0548 A2000000 		.4byte	0xa2
 1760 054c 03       		.uleb128 0x3
 1761 054d 91       		.byte	0x91
 1762 054e FC7E     		.sleb128 -132
 1763 0550 1A       		.uleb128 0x1a
 1764 0551 494400   		.ascii	"ID\000"
 1765 0554 01       		.byte	0x1
ARM GAS  C:\DOCUME~1\Admin\LOCALS~1\Temp\cc2z0V6J.s 			page 38


 1766 0555 3601     		.2byte	0x136
 1767 0557 AD000000 		.4byte	0xad
 1768 055b 02       		.uleb128 0x2
 1769 055c 91       		.byte	0x91
 1770 055d 00       		.sleb128 0
 1771 055e 17       		.uleb128 0x17
 1772 055f E8000000 		.4byte	.LASF42
 1773 0563 01       		.byte	0x1
 1774 0564 3801     		.2byte	0x138
 1775 0566 B2020000 		.4byte	0x2b2
 1776 056a 03       		.uleb128 0x3
 1777 056b 91       		.byte	0x91
 1778 056c BC7F     		.sleb128 -68
 1779 056e 17       		.uleb128 0x17
 1780 056f 32000000 		.4byte	.LASF43
 1781 0573 01       		.byte	0x1
 1782 0574 3901     		.2byte	0x139
 1783 0576 B2020000 		.4byte	0x2b2
 1784 057a 03       		.uleb128 0x3
 1785 057b 91       		.byte	0x91
 1786 057c 887F     		.sleb128 -120
 1787 057e 00       		.byte	0
 1788 057f 05       		.uleb128 0x5
 1789 0580 D1000000 		.4byte	0xd1
 1790 0584 8F050000 		.4byte	0x58f
 1791 0588 06       		.uleb128 0x6
 1792 0589 D8000000 		.4byte	0xd8
 1793 058d 63       		.byte	0x63
 1794 058e 00       		.byte	0
 1795 058f 0E       		.uleb128 0xe
 1796 0590 A4000000 		.4byte	.LASF73
 1797 0594 07       		.byte	0x7
 1798 0595 10       		.byte	0x10
 1799 0596 7F050000 		.4byte	0x57f
 1800 059a 05       		.uleb128 0x5
 1801 059b 03       		.byte	0x3
 1802 059c 00000000 		.4byte	buff
 1803 05a0 0E       		.uleb128 0xe
 1804 05a1 A0030000 		.4byte	.LASF74
 1805 05a5 06       		.byte	0x6
 1806 05a6 63       		.byte	0x63
 1807 05a7 AD000000 		.4byte	0xad
 1808 05ab 05       		.uleb128 0x5
 1809 05ac 03       		.byte	0x3
 1810 05ad 64000000 		.4byte	networkStatus
 1811 05b1 0E       		.uleb128 0xe
 1812 05b2 52000000 		.4byte	.LASF64
 1813 05b6 06       		.byte	0x6
 1814 05b7 64       		.byte	0x64
 1815 05b8 89000000 		.4byte	0x89
 1816 05bc 05       		.uleb128 0x5
 1817 05bd 03       		.byte	0x3
 1818 05be 68000000 		.4byte	noConnect
 1819 05c2 0E       		.uleb128 0xe
 1820 05c3 DD000000 		.4byte	.LASF75
 1821 05c7 06       		.byte	0x6
 1822 05c8 65       		.byte	0x65
ARM GAS  C:\DOCUME~1\Admin\LOCALS~1\Temp\cc2z0V6J.s 			page 39


 1823 05c9 89000000 		.4byte	0x89
 1824 05cd 05       		.uleb128 0x5
 1825 05ce 03       		.byte	0x3
 1826 05cf 6C000000 		.4byte	finNoReady
 1827 05d3 1B       		.uleb128 0x1b
 1828 05d4 9A010000 		.4byte	.LASF76
 1829 05d8 06       		.byte	0x6
 1830 05d9 5E       		.byte	0x5e
 1831 05da FC010000 		.4byte	0x1fc
 1832 05de 05       		.uleb128 0x5
 1833 05df 03       		.byte	0x3
 1834 05e0 00000000 		.4byte	inData
 1835 05e4 1B       		.uleb128 0x1b
 1836 05e5 5A010000 		.4byte	.LASF77
 1837 05e9 06       		.byte	0x6
 1838 05ea 5F       		.byte	0x5f
 1839 05eb 58020000 		.4byte	0x258
 1840 05ef 05       		.uleb128 0x5
 1841 05f0 03       		.byte	0x3
 1842 05f1 00000000 		.4byte	outData
 1843 05f5 1B       		.uleb128 0x1b
 1844 05f6 D7010000 		.4byte	.LASF78
 1845 05fa 06       		.byte	0x6
 1846 05fb 61       		.byte	0x61
 1847 05fc 7F050000 		.4byte	0x57f
 1848 0600 05       		.uleb128 0x5
 1849 0601 03       		.byte	0x3
 1850 0602 00000000 		.4byte	previousData
 1851 0606 00       		.byte	0
 1852              		.section	.debug_abbrev,"",%progbits
 1853              	.Ldebug_abbrev0:
 1854 0000 01       		.uleb128 0x1
 1855 0001 11       		.uleb128 0x11
 1856 0002 01       		.byte	0x1
 1857 0003 25       		.uleb128 0x25
 1858 0004 0E       		.uleb128 0xe
 1859 0005 13       		.uleb128 0x13
 1860 0006 0B       		.uleb128 0xb
 1861 0007 03       		.uleb128 0x3
 1862 0008 0E       		.uleb128 0xe
 1863 0009 1B       		.uleb128 0x1b
 1864 000a 0E       		.uleb128 0xe
 1865 000b 55       		.uleb128 0x55
 1866 000c 17       		.uleb128 0x17
 1867 000d 11       		.uleb128 0x11
 1868 000e 01       		.uleb128 0x1
 1869 000f 10       		.uleb128 0x10
 1870 0010 17       		.uleb128 0x17
 1871 0011 00       		.byte	0
 1872 0012 00       		.byte	0
 1873 0013 02       		.uleb128 0x2
 1874 0014 24       		.uleb128 0x24
 1875 0015 00       		.byte	0
 1876 0016 0B       		.uleb128 0xb
 1877 0017 0B       		.uleb128 0xb
 1878 0018 3E       		.uleb128 0x3e
 1879 0019 0B       		.uleb128 0xb
ARM GAS  C:\DOCUME~1\Admin\LOCALS~1\Temp\cc2z0V6J.s 			page 40


 1880 001a 03       		.uleb128 0x3
 1881 001b 0E       		.uleb128 0xe
 1882 001c 00       		.byte	0
 1883 001d 00       		.byte	0
 1884 001e 03       		.uleb128 0x3
 1885 001f 16       		.uleb128 0x16
 1886 0020 00       		.byte	0
 1887 0021 03       		.uleb128 0x3
 1888 0022 0E       		.uleb128 0xe
 1889 0023 3A       		.uleb128 0x3a
 1890 0024 0B       		.uleb128 0xb
 1891 0025 3B       		.uleb128 0x3b
 1892 0026 0B       		.uleb128 0xb
 1893 0027 49       		.uleb128 0x49
 1894 0028 13       		.uleb128 0x13
 1895 0029 00       		.byte	0
 1896 002a 00       		.byte	0
 1897 002b 04       		.uleb128 0x4
 1898 002c 24       		.uleb128 0x24
 1899 002d 00       		.byte	0
 1900 002e 0B       		.uleb128 0xb
 1901 002f 0B       		.uleb128 0xb
 1902 0030 3E       		.uleb128 0x3e
 1903 0031 0B       		.uleb128 0xb
 1904 0032 03       		.uleb128 0x3
 1905 0033 08       		.uleb128 0x8
 1906 0034 00       		.byte	0
 1907 0035 00       		.byte	0
 1908 0036 05       		.uleb128 0x5
 1909 0037 01       		.uleb128 0x1
 1910 0038 01       		.byte	0x1
 1911 0039 49       		.uleb128 0x49
 1912 003a 13       		.uleb128 0x13
 1913 003b 01       		.uleb128 0x1
 1914 003c 13       		.uleb128 0x13
 1915 003d 00       		.byte	0
 1916 003e 00       		.byte	0
 1917 003f 06       		.uleb128 0x6
 1918 0040 21       		.uleb128 0x21
 1919 0041 00       		.byte	0
 1920 0042 49       		.uleb128 0x49
 1921 0043 13       		.uleb128 0x13
 1922 0044 2F       		.uleb128 0x2f
 1923 0045 0B       		.uleb128 0xb
 1924 0046 00       		.byte	0
 1925 0047 00       		.byte	0
 1926 0048 07       		.uleb128 0x7
 1927 0049 13       		.uleb128 0x13
 1928 004a 01       		.byte	0x1
 1929 004b 03       		.uleb128 0x3
 1930 004c 0E       		.uleb128 0xe
 1931 004d 0B       		.uleb128 0xb
 1932 004e 0B       		.uleb128 0xb
 1933 004f 3A       		.uleb128 0x3a
 1934 0050 0B       		.uleb128 0xb
 1935 0051 3B       		.uleb128 0x3b
 1936 0052 0B       		.uleb128 0xb
ARM GAS  C:\DOCUME~1\Admin\LOCALS~1\Temp\cc2z0V6J.s 			page 41


 1937 0053 01       		.uleb128 0x1
 1938 0054 13       		.uleb128 0x13
 1939 0055 00       		.byte	0
 1940 0056 00       		.byte	0
 1941 0057 08       		.uleb128 0x8
 1942 0058 0D       		.uleb128 0xd
 1943 0059 00       		.byte	0
 1944 005a 03       		.uleb128 0x3
 1945 005b 08       		.uleb128 0x8
 1946 005c 3A       		.uleb128 0x3a
 1947 005d 0B       		.uleb128 0xb
 1948 005e 3B       		.uleb128 0x3b
 1949 005f 0B       		.uleb128 0xb
 1950 0060 49       		.uleb128 0x49
 1951 0061 13       		.uleb128 0x13
 1952 0062 38       		.uleb128 0x38
 1953 0063 0B       		.uleb128 0xb
 1954 0064 00       		.byte	0
 1955 0065 00       		.byte	0
 1956 0066 09       		.uleb128 0x9
 1957 0067 0D       		.uleb128 0xd
 1958 0068 00       		.byte	0
 1959 0069 03       		.uleb128 0x3
 1960 006a 0E       		.uleb128 0xe
 1961 006b 3A       		.uleb128 0x3a
 1962 006c 0B       		.uleb128 0xb
 1963 006d 3B       		.uleb128 0x3b
 1964 006e 0B       		.uleb128 0xb
 1965 006f 49       		.uleb128 0x49
 1966 0070 13       		.uleb128 0x13
 1967 0071 38       		.uleb128 0x38
 1968 0072 0B       		.uleb128 0xb
 1969 0073 00       		.byte	0
 1970 0074 00       		.byte	0
 1971 0075 0A       		.uleb128 0xa
 1972 0076 13       		.uleb128 0x13
 1973 0077 01       		.byte	0x1
 1974 0078 0B       		.uleb128 0xb
 1975 0079 0B       		.uleb128 0xb
 1976 007a 3A       		.uleb128 0x3a
 1977 007b 0B       		.uleb128 0xb
 1978 007c 3B       		.uleb128 0x3b
 1979 007d 0B       		.uleb128 0xb
 1980 007e 01       		.uleb128 0x1
 1981 007f 13       		.uleb128 0x13
 1982 0080 00       		.byte	0
 1983 0081 00       		.byte	0
 1984 0082 0B       		.uleb128 0xb
 1985 0083 2E       		.uleb128 0x2e
 1986 0084 00       		.byte	0
 1987 0085 3F       		.uleb128 0x3f
 1988 0086 19       		.uleb128 0x19
 1989 0087 03       		.uleb128 0x3
 1990 0088 0E       		.uleb128 0xe
 1991 0089 3A       		.uleb128 0x3a
 1992 008a 0B       		.uleb128 0xb
 1993 008b 3B       		.uleb128 0x3b
ARM GAS  C:\DOCUME~1\Admin\LOCALS~1\Temp\cc2z0V6J.s 			page 42


 1994 008c 0B       		.uleb128 0xb
 1995 008d 27       		.uleb128 0x27
 1996 008e 19       		.uleb128 0x19
 1997 008f 11       		.uleb128 0x11
 1998 0090 01       		.uleb128 0x1
 1999 0091 12       		.uleb128 0x12
 2000 0092 06       		.uleb128 0x6
 2001 0093 40       		.uleb128 0x40
 2002 0094 18       		.uleb128 0x18
 2003 0095 9642     		.uleb128 0x2116
 2004 0097 19       		.uleb128 0x19
 2005 0098 00       		.byte	0
 2006 0099 00       		.byte	0
 2007 009a 0C       		.uleb128 0xc
 2008 009b 2E       		.uleb128 0x2e
 2009 009c 01       		.byte	0x1
 2010 009d 3F       		.uleb128 0x3f
 2011 009e 19       		.uleb128 0x19
 2012 009f 03       		.uleb128 0x3
 2013 00a0 0E       		.uleb128 0xe
 2014 00a1 3A       		.uleb128 0x3a
 2015 00a2 0B       		.uleb128 0xb
 2016 00a3 3B       		.uleb128 0x3b
 2017 00a4 0B       		.uleb128 0xb
 2018 00a5 27       		.uleb128 0x27
 2019 00a6 19       		.uleb128 0x19
 2020 00a7 11       		.uleb128 0x11
 2021 00a8 01       		.uleb128 0x1
 2022 00a9 12       		.uleb128 0x12
 2023 00aa 06       		.uleb128 0x6
 2024 00ab 40       		.uleb128 0x40
 2025 00ac 18       		.uleb128 0x18
 2026 00ad 9642     		.uleb128 0x2116
 2027 00af 19       		.uleb128 0x19
 2028 00b0 01       		.uleb128 0x1
 2029 00b1 13       		.uleb128 0x13
 2030 00b2 00       		.byte	0
 2031 00b3 00       		.byte	0
 2032 00b4 0D       		.uleb128 0xd
 2033 00b5 0B       		.uleb128 0xb
 2034 00b6 01       		.byte	0x1
 2035 00b7 11       		.uleb128 0x11
 2036 00b8 01       		.uleb128 0x1
 2037 00b9 12       		.uleb128 0x12
 2038 00ba 06       		.uleb128 0x6
 2039 00bb 00       		.byte	0
 2040 00bc 00       		.byte	0
 2041 00bd 0E       		.uleb128 0xe
 2042 00be 34       		.uleb128 0x34
 2043 00bf 00       		.byte	0
 2044 00c0 03       		.uleb128 0x3
 2045 00c1 0E       		.uleb128 0xe
 2046 00c2 3A       		.uleb128 0x3a
 2047 00c3 0B       		.uleb128 0xb
 2048 00c4 3B       		.uleb128 0x3b
 2049 00c5 0B       		.uleb128 0xb
 2050 00c6 49       		.uleb128 0x49
ARM GAS  C:\DOCUME~1\Admin\LOCALS~1\Temp\cc2z0V6J.s 			page 43


 2051 00c7 13       		.uleb128 0x13
 2052 00c8 02       		.uleb128 0x2
 2053 00c9 18       		.uleb128 0x18
 2054 00ca 00       		.byte	0
 2055 00cb 00       		.byte	0
 2056 00cc 0F       		.uleb128 0xf
 2057 00cd 2E       		.uleb128 0x2e
 2058 00ce 01       		.byte	0x1
 2059 00cf 3F       		.uleb128 0x3f
 2060 00d0 19       		.uleb128 0x19
 2061 00d1 03       		.uleb128 0x3
 2062 00d2 0E       		.uleb128 0xe
 2063 00d3 3A       		.uleb128 0x3a
 2064 00d4 0B       		.uleb128 0xb
 2065 00d5 3B       		.uleb128 0x3b
 2066 00d6 0B       		.uleb128 0xb
 2067 00d7 27       		.uleb128 0x27
 2068 00d8 19       		.uleb128 0x19
 2069 00d9 49       		.uleb128 0x49
 2070 00da 13       		.uleb128 0x13
 2071 00db 11       		.uleb128 0x11
 2072 00dc 01       		.uleb128 0x1
 2073 00dd 12       		.uleb128 0x12
 2074 00de 06       		.uleb128 0x6
 2075 00df 40       		.uleb128 0x40
 2076 00e0 18       		.uleb128 0x18
 2077 00e1 9642     		.uleb128 0x2116
 2078 00e3 19       		.uleb128 0x19
 2079 00e4 01       		.uleb128 0x1
 2080 00e5 13       		.uleb128 0x13
 2081 00e6 00       		.byte	0
 2082 00e7 00       		.byte	0
 2083 00e8 10       		.uleb128 0x10
 2084 00e9 2E       		.uleb128 0x2e
 2085 00ea 00       		.byte	0
 2086 00eb 3F       		.uleb128 0x3f
 2087 00ec 19       		.uleb128 0x19
 2088 00ed 03       		.uleb128 0x3
 2089 00ee 0E       		.uleb128 0xe
 2090 00ef 3A       		.uleb128 0x3a
 2091 00f0 0B       		.uleb128 0xb
 2092 00f1 3B       		.uleb128 0x3b
 2093 00f2 0B       		.uleb128 0xb
 2094 00f3 27       		.uleb128 0x27
 2095 00f4 19       		.uleb128 0x19
 2096 00f5 49       		.uleb128 0x49
 2097 00f6 13       		.uleb128 0x13
 2098 00f7 11       		.uleb128 0x11
 2099 00f8 01       		.uleb128 0x1
 2100 00f9 12       		.uleb128 0x12
 2101 00fa 06       		.uleb128 0x6
 2102 00fb 40       		.uleb128 0x40
 2103 00fc 18       		.uleb128 0x18
 2104 00fd 9742     		.uleb128 0x2117
 2105 00ff 19       		.uleb128 0x19
 2106 0100 00       		.byte	0
 2107 0101 00       		.byte	0
ARM GAS  C:\DOCUME~1\Admin\LOCALS~1\Temp\cc2z0V6J.s 			page 44


 2108 0102 11       		.uleb128 0x11
 2109 0103 2E       		.uleb128 0x2e
 2110 0104 01       		.byte	0x1
 2111 0105 3F       		.uleb128 0x3f
 2112 0106 19       		.uleb128 0x19
 2113 0107 03       		.uleb128 0x3
 2114 0108 0E       		.uleb128 0xe
 2115 0109 3A       		.uleb128 0x3a
 2116 010a 0B       		.uleb128 0xb
 2117 010b 3B       		.uleb128 0x3b
 2118 010c 0B       		.uleb128 0xb
 2119 010d 27       		.uleb128 0x27
 2120 010e 19       		.uleb128 0x19
 2121 010f 11       		.uleb128 0x11
 2122 0110 01       		.uleb128 0x1
 2123 0111 12       		.uleb128 0x12
 2124 0112 06       		.uleb128 0x6
 2125 0113 40       		.uleb128 0x40
 2126 0114 18       		.uleb128 0x18
 2127 0115 9742     		.uleb128 0x2117
 2128 0117 19       		.uleb128 0x19
 2129 0118 01       		.uleb128 0x1
 2130 0119 13       		.uleb128 0x13
 2131 011a 00       		.byte	0
 2132 011b 00       		.byte	0
 2133 011c 12       		.uleb128 0x12
 2134 011d 05       		.uleb128 0x5
 2135 011e 00       		.byte	0
 2136 011f 03       		.uleb128 0x3
 2137 0120 0E       		.uleb128 0xe
 2138 0121 3A       		.uleb128 0x3a
 2139 0122 0B       		.uleb128 0xb
 2140 0123 3B       		.uleb128 0x3b
 2141 0124 0B       		.uleb128 0xb
 2142 0125 49       		.uleb128 0x49
 2143 0126 13       		.uleb128 0x13
 2144 0127 02       		.uleb128 0x2
 2145 0128 18       		.uleb128 0x18
 2146 0129 00       		.byte	0
 2147 012a 00       		.byte	0
 2148 012b 13       		.uleb128 0x13
 2149 012c 2E       		.uleb128 0x2e
 2150 012d 01       		.byte	0x1
 2151 012e 3F       		.uleb128 0x3f
 2152 012f 19       		.uleb128 0x19
 2153 0130 03       		.uleb128 0x3
 2154 0131 0E       		.uleb128 0xe
 2155 0132 3A       		.uleb128 0x3a
 2156 0133 0B       		.uleb128 0xb
 2157 0134 3B       		.uleb128 0x3b
 2158 0135 0B       		.uleb128 0xb
 2159 0136 27       		.uleb128 0x27
 2160 0137 19       		.uleb128 0x19
 2161 0138 49       		.uleb128 0x49
 2162 0139 13       		.uleb128 0x13
 2163 013a 11       		.uleb128 0x11
 2164 013b 01       		.uleb128 0x1
ARM GAS  C:\DOCUME~1\Admin\LOCALS~1\Temp\cc2z0V6J.s 			page 45


 2165 013c 12       		.uleb128 0x12
 2166 013d 06       		.uleb128 0x6
 2167 013e 40       		.uleb128 0x40
 2168 013f 18       		.uleb128 0x18
 2169 0140 9742     		.uleb128 0x2117
 2170 0142 19       		.uleb128 0x19
 2171 0143 01       		.uleb128 0x1
 2172 0144 13       		.uleb128 0x13
 2173 0145 00       		.byte	0
 2174 0146 00       		.byte	0
 2175 0147 14       		.uleb128 0x14
 2176 0148 34       		.uleb128 0x34
 2177 0149 00       		.byte	0
 2178 014a 03       		.uleb128 0x3
 2179 014b 08       		.uleb128 0x8
 2180 014c 3A       		.uleb128 0x3a
 2181 014d 0B       		.uleb128 0xb
 2182 014e 3B       		.uleb128 0x3b
 2183 014f 0B       		.uleb128 0xb
 2184 0150 49       		.uleb128 0x49
 2185 0151 13       		.uleb128 0x13
 2186 0152 02       		.uleb128 0x2
 2187 0153 18       		.uleb128 0x18
 2188 0154 00       		.byte	0
 2189 0155 00       		.byte	0
 2190 0156 15       		.uleb128 0x15
 2191 0157 2E       		.uleb128 0x2e
 2192 0158 01       		.byte	0x1
 2193 0159 03       		.uleb128 0x3
 2194 015a 0E       		.uleb128 0xe
 2195 015b 3A       		.uleb128 0x3a
 2196 015c 0B       		.uleb128 0xb
 2197 015d 3B       		.uleb128 0x3b
 2198 015e 05       		.uleb128 0x5
 2199 015f 27       		.uleb128 0x27
 2200 0160 19       		.uleb128 0x19
 2201 0161 49       		.uleb128 0x49
 2202 0162 13       		.uleb128 0x13
 2203 0163 11       		.uleb128 0x11
 2204 0164 01       		.uleb128 0x1
 2205 0165 12       		.uleb128 0x12
 2206 0166 06       		.uleb128 0x6
 2207 0167 40       		.uleb128 0x40
 2208 0168 18       		.uleb128 0x18
 2209 0169 9642     		.uleb128 0x2116
 2210 016b 19       		.uleb128 0x19
 2211 016c 01       		.uleb128 0x1
 2212 016d 13       		.uleb128 0x13
 2213 016e 00       		.byte	0
 2214 016f 00       		.byte	0
 2215 0170 16       		.uleb128 0x16
 2216 0171 05       		.uleb128 0x5
 2217 0172 00       		.byte	0
 2218 0173 03       		.uleb128 0x3
 2219 0174 0E       		.uleb128 0xe
 2220 0175 3A       		.uleb128 0x3a
 2221 0176 0B       		.uleb128 0xb
ARM GAS  C:\DOCUME~1\Admin\LOCALS~1\Temp\cc2z0V6J.s 			page 46


 2222 0177 3B       		.uleb128 0x3b
 2223 0178 05       		.uleb128 0x5
 2224 0179 49       		.uleb128 0x49
 2225 017a 13       		.uleb128 0x13
 2226 017b 02       		.uleb128 0x2
 2227 017c 18       		.uleb128 0x18
 2228 017d 00       		.byte	0
 2229 017e 00       		.byte	0
 2230 017f 17       		.uleb128 0x17
 2231 0180 34       		.uleb128 0x34
 2232 0181 00       		.byte	0
 2233 0182 03       		.uleb128 0x3
 2234 0183 0E       		.uleb128 0xe
 2235 0184 3A       		.uleb128 0x3a
 2236 0185 0B       		.uleb128 0xb
 2237 0186 3B       		.uleb128 0x3b
 2238 0187 05       		.uleb128 0x5
 2239 0188 49       		.uleb128 0x49
 2240 0189 13       		.uleb128 0x13
 2241 018a 02       		.uleb128 0x2
 2242 018b 18       		.uleb128 0x18
 2243 018c 00       		.byte	0
 2244 018d 00       		.byte	0
 2245 018e 18       		.uleb128 0x18
 2246 018f 0F       		.uleb128 0xf
 2247 0190 00       		.byte	0
 2248 0191 0B       		.uleb128 0xb
 2249 0192 0B       		.uleb128 0xb
 2250 0193 49       		.uleb128 0x49
 2251 0194 13       		.uleb128 0x13
 2252 0195 00       		.byte	0
 2253 0196 00       		.byte	0
 2254 0197 19       		.uleb128 0x19
 2255 0198 2E       		.uleb128 0x2e
 2256 0199 01       		.byte	0x1
 2257 019a 03       		.uleb128 0x3
 2258 019b 0E       		.uleb128 0xe
 2259 019c 3A       		.uleb128 0x3a
 2260 019d 0B       		.uleb128 0xb
 2261 019e 3B       		.uleb128 0x3b
 2262 019f 05       		.uleb128 0x5
 2263 01a0 27       		.uleb128 0x27
 2264 01a1 19       		.uleb128 0x19
 2265 01a2 11       		.uleb128 0x11
 2266 01a3 01       		.uleb128 0x1
 2267 01a4 12       		.uleb128 0x12
 2268 01a5 06       		.uleb128 0x6
 2269 01a6 40       		.uleb128 0x40
 2270 01a7 18       		.uleb128 0x18
 2271 01a8 9642     		.uleb128 0x2116
 2272 01aa 19       		.uleb128 0x19
 2273 01ab 01       		.uleb128 0x1
 2274 01ac 13       		.uleb128 0x13
 2275 01ad 00       		.byte	0
 2276 01ae 00       		.byte	0
 2277 01af 1A       		.uleb128 0x1a
 2278 01b0 05       		.uleb128 0x5
ARM GAS  C:\DOCUME~1\Admin\LOCALS~1\Temp\cc2z0V6J.s 			page 47


 2279 01b1 00       		.byte	0
 2280 01b2 03       		.uleb128 0x3
 2281 01b3 08       		.uleb128 0x8
 2282 01b4 3A       		.uleb128 0x3a
 2283 01b5 0B       		.uleb128 0xb
 2284 01b6 3B       		.uleb128 0x3b
 2285 01b7 05       		.uleb128 0x5
 2286 01b8 49       		.uleb128 0x49
 2287 01b9 13       		.uleb128 0x13
 2288 01ba 02       		.uleb128 0x2
 2289 01bb 18       		.uleb128 0x18
 2290 01bc 00       		.byte	0
 2291 01bd 00       		.byte	0
 2292 01be 1B       		.uleb128 0x1b
 2293 01bf 34       		.uleb128 0x34
 2294 01c0 00       		.byte	0
 2295 01c1 03       		.uleb128 0x3
 2296 01c2 0E       		.uleb128 0xe
 2297 01c3 3A       		.uleb128 0x3a
 2298 01c4 0B       		.uleb128 0xb
 2299 01c5 3B       		.uleb128 0x3b
 2300 01c6 0B       		.uleb128 0xb
 2301 01c7 49       		.uleb128 0x49
 2302 01c8 13       		.uleb128 0x13
 2303 01c9 3F       		.uleb128 0x3f
 2304 01ca 19       		.uleb128 0x19
 2305 01cb 02       		.uleb128 0x2
 2306 01cc 18       		.uleb128 0x18
 2307 01cd 00       		.byte	0
 2308 01ce 00       		.byte	0
 2309 01cf 00       		.byte	0
 2310              		.section	.debug_aranges,"",%progbits
 2311 0000 74000000 		.4byte	0x74
 2312 0004 0200     		.2byte	0x2
 2313 0006 00000000 		.4byte	.Ldebug_info0
 2314 000a 04       		.byte	0x4
 2315 000b 00       		.byte	0
 2316 000c 0000     		.2byte	0
 2317 000e 0000     		.2byte	0
 2318 0010 00000000 		.4byte	.LFB63
 2319 0014 34000000 		.4byte	.LFE63-.LFB63
 2320 0018 00000000 		.4byte	.LFB64
 2321 001c DC000000 		.4byte	.LFE64-.LFB64
 2322 0020 00000000 		.4byte	.LFB65
 2323 0024 CC000000 		.4byte	.LFE65-.LFB65
 2324 0028 00000000 		.4byte	.LFB66
 2325 002c 14000000 		.4byte	.LFE66-.LFB66
 2326 0030 00000000 		.4byte	.LFB67
 2327 0034 30000000 		.4byte	.LFE67-.LFB67
 2328 0038 00000000 		.4byte	.LFB68
 2329 003c 14000000 		.4byte	.LFE68-.LFB68
 2330 0040 00000000 		.4byte	.LFB69
 2331 0044 28000000 		.4byte	.LFE69-.LFB69
 2332 0048 00000000 		.4byte	.LFB70
 2333 004c 44000000 		.4byte	.LFE70-.LFB70
 2334 0050 00000000 		.4byte	.LFB71
 2335 0054 28000000 		.4byte	.LFE71-.LFB71
ARM GAS  C:\DOCUME~1\Admin\LOCALS~1\Temp\cc2z0V6J.s 			page 48


 2336 0058 00000000 		.4byte	.LFB72
 2337 005c 3E010000 		.4byte	.LFE72-.LFB72
 2338 0060 00000000 		.4byte	.LFB73
 2339 0064 B0000000 		.4byte	.LFE73-.LFB73
 2340 0068 00000000 		.4byte	.LFB74
 2341 006c 68000000 		.4byte	.LFE74-.LFB74
 2342 0070 00000000 		.4byte	0
 2343 0074 00000000 		.4byte	0
 2344              		.section	.debug_ranges,"",%progbits
 2345              	.Ldebug_ranges0:
 2346 0000 00000000 		.4byte	.LFB63
 2347 0004 34000000 		.4byte	.LFE63
 2348 0008 00000000 		.4byte	.LFB64
 2349 000c DC000000 		.4byte	.LFE64
 2350 0010 00000000 		.4byte	.LFB65
 2351 0014 CC000000 		.4byte	.LFE65
 2352 0018 00000000 		.4byte	.LFB66
 2353 001c 14000000 		.4byte	.LFE66
 2354 0020 00000000 		.4byte	.LFB67
 2355 0024 30000000 		.4byte	.LFE67
 2356 0028 00000000 		.4byte	.LFB68
 2357 002c 14000000 		.4byte	.LFE68
 2358 0030 00000000 		.4byte	.LFB69
 2359 0034 28000000 		.4byte	.LFE69
 2360 0038 00000000 		.4byte	.LFB70
 2361 003c 44000000 		.4byte	.LFE70
 2362 0040 00000000 		.4byte	.LFB71
 2363 0044 28000000 		.4byte	.LFE71
 2364 0048 00000000 		.4byte	.LFB72
 2365 004c 3E010000 		.4byte	.LFE72
 2366 0050 00000000 		.4byte	.LFB73
 2367 0054 B0000000 		.4byte	.LFE73
 2368 0058 00000000 		.4byte	.LFB74
 2369 005c 68000000 		.4byte	.LFE74
 2370 0060 00000000 		.4byte	0
 2371 0064 00000000 		.4byte	0
 2372              		.section	.debug_line,"",%progbits
 2373              	.Ldebug_line0:
 2374 0000 F5020000 		.section	.debug_str,"MS",%progbits,1
 2374      02005401 
 2374      00000201 
 2374      FB0E0D00 
 2374      01010101 
 2375              	.LASF54:
 2376 0000 72657375 		.ascii	"result\000"
 2376      6C7400
 2377              	.LASF28:
 2378 0007 4E545052 		.ascii	"NTPResp\000"
 2378      65737000 
 2379              	.LASF39:
 2380 000f 6E657753 		.ascii	"newSkier\000"
 2380      6B696572 
 2380      00
 2381              	.LASF27:
 2382 0018 44617461 		.ascii	"DataMs1\000"
 2382      4D733100 
 2383              	.LASF61:
ARM GAS  C:\DOCUME~1\Admin\LOCALS~1\Temp\cc2z0V6J.s 			page 49


 2384 0020 756E6978 		.ascii	"unixTime\000"
 2384      54696D65 
 2384      00
 2385              	.LASF46:
 2386 0029 53656E64 		.ascii	"SendData\000"
 2386      44617461 
 2386      00
 2387              	.LASF43:
 2388 0032 73656E64 		.ascii	"sendData\000"
 2388      44617461 
 2388      00
 2389              	.LASF63:
 2390 003b 72657375 		.ascii	"resultReceive\000"
 2390      6C745265 
 2390      63656976 
 2390      6500
 2391              	.LASF16:
 2392 0049 75696E74 		.ascii	"uint64_t\000"
 2392      36345F74 
 2392      00
 2393              	.LASF64:
 2394 0052 6E6F436F 		.ascii	"noConnect\000"
 2394      6E6E6563 
 2394      7400
 2395              	.LASF31:
 2396 005c 7265626F 		.ascii	"reboot\000"
 2396      6F7400
 2397              	.LASF20:
 2398 0063 73697A65 		.ascii	"sizetype\000"
 2398      74797065 
 2398      00
 2399              	.LASF45:
 2400 006c 72656376 		.ascii	"recvData\000"
 2400      44617461 
 2400      00
 2401              	.LASF72:
 2402 0075 6D696C6C 		.ascii	"millis3\000"
 2402      69733300 
 2403              	.LASF59:
 2404 007d 49447265 		.ascii	"IDreceivePacket\000"
 2404      63656976 
 2404      65506163 
 2404      6B657400 
 2405              	.LASF38:
 2406 008d 73746172 		.ascii	"startMsTime\000"
 2406      744D7354 
 2406      696D6500 
 2407              	.LASF7:
 2408 0099 5F5F7569 		.ascii	"__uint32_t\000"
 2408      6E743332 
 2408      5F7400
 2409              	.LASF73:
 2410 00a4 62756666 		.ascii	"buff\000"
 2410      00
 2411              	.LASF70:
 2412 00a9 756E6978 		.ascii	"unixTime3\000"
 2412      54696D65 
ARM GAS  C:\DOCUME~1\Admin\LOCALS~1\Temp\cc2z0V6J.s 			page 50


 2412      3300
 2413              	.LASF4:
 2414 00b3 5F5F7569 		.ascii	"__uint16_t\000"
 2414      6E743136 
 2414      5F7400
 2415              	.LASF2:
 2416 00be 73686F72 		.ascii	"short int\000"
 2416      7420696E 
 2416      7400
 2417              	.LASF55:
 2418 00c8 52656164 		.ascii	"ReadRebootFinishFlag\000"
 2418      5265626F 
 2418      6F744669 
 2418      6E697368 
 2418      466C6167 
 2419              	.LASF75:
 2420 00dd 66696E4E 		.ascii	"finNoReady\000"
 2420      6F526561 
 2420      647900
 2421              	.LASF42:
 2422 00e8 73656E64 		.ascii	"sendBuffer\000"
 2422      42756666 
 2422      657200
 2423              	.LASF13:
 2424 00f3 75696E74 		.ascii	"uint8_t\000"
 2424      385F7400 
 2425              	.LASF50:
 2426 00fb 4E657477 		.ascii	"NetworkStatus\000"
 2426      6F726B53 
 2426      74617475 
 2426      7300
 2427              	.LASF41:
 2428 0109 53746172 		.ascii	"StartData\000"
 2428      74446174 
 2428      6100
 2429              	.LASF68:
 2430 0113 73617665 		.ascii	"saveTime\000"
 2430      54696D65 
 2430      00
 2431              	.LASF69:
 2432 011c 72656376 		.ascii	"recvDataNTP\000"
 2432      44617461 
 2432      4E545000 
 2433              	.LASF17:
 2434 0128 666C6F61 		.ascii	"float\000"
 2434      7400
 2435              	.LASF26:
 2436 012e 456E6450 		.ascii	"EndPacket\000"
 2436      61636B65 
 2436      7400
 2437              	.LASF9:
 2438 0138 6C6F6E67 		.ascii	"long long int\000"
 2438      206C6F6E 
 2438      6720696E 
 2438      7400
 2439              	.LASF36:
 2440 0146 46696E69 		.ascii	"FinishData\000"
ARM GAS  C:\DOCUME~1\Admin\LOCALS~1\Temp\cc2z0V6J.s 			page 51


 2440      73684461 
 2440      746100
 2441              	.LASF6:
 2442 0151 6C6F6E67 		.ascii	"long int\000"
 2442      20696E74 
 2442      00
 2443              	.LASF77:
 2444 015a 6F757444 		.ascii	"outData\000"
 2444      61746100 
 2445              	.LASF82:
 2446 0162 52657370 		.ascii	"Resp\000"
 2446      00
 2447              	.LASF60:
 2448 0167 6C617374 		.ascii	"lastIDpacket\000"
 2448      49447061 
 2448      636B6574 
 2448      00
 2449              	.LASF40:
 2450 0174 77726974 		.ascii	"writeStatus\000"
 2450      65537461 
 2450      74757300 
 2451              	.LASF3:
 2452 0180 5F5F7569 		.ascii	"__uint8_t\000"
 2452      6E74385F 
 2452      7400
 2453              	.LASF56:
 2454 018a 57726974 		.ascii	"WriteRebootFlag\000"
 2454      65526562 
 2454      6F6F7446 
 2454      6C616700 
 2455              	.LASF76:
 2456 019a 696E4461 		.ascii	"inData\000"
 2456      746100
 2457              	.LASF34:
 2458 01a1 746D704D 		.ascii	"tmpMsTime\000"
 2458      7354696D 
 2458      6500
 2459              	.LASF25:
 2460 01ab 43686563 		.ascii	"CheckSum\000"
 2460      6B53756D 
 2460      00
 2461              	.LASF35:
 2462 01b4 72656164 		.ascii	"readStatus\000"
 2462      53746174 
 2462      757300
 2463              	.LASF1:
 2464 01bf 756E7369 		.ascii	"unsigned char\000"
 2464      676E6564 
 2464      20636861 
 2464      7200
 2465              	.LASF65:
 2466 01cd 756E6978 		.ascii	"unixTime2\000"
 2466      54696D65 
 2466      3200
 2467              	.LASF78:
 2468 01d7 70726576 		.ascii	"previousData\000"
 2468      696F7573 
ARM GAS  C:\DOCUME~1\Admin\LOCALS~1\Temp\cc2z0V6J.s 			page 52


 2468      44617461 
 2468      00
 2469              	.LASF0:
 2470 01e4 7369676E 		.ascii	"signed char\000"
 2470      65642063 
 2470      68617200 
 2471              	.LASF11:
 2472 01f0 6C6F6E67 		.ascii	"long long unsigned int\000"
 2472      206C6F6E 
 2472      6720756E 
 2472      7369676E 
 2472      65642069 
 2473              	.LASF15:
 2474 0207 75696E74 		.ascii	"uint32_t\000"
 2474      33325F74 
 2474      00
 2475              	.LASF71:
 2476 0210 6D696C6C 		.ascii	"millis2\000"
 2476      69733200 
 2477              	.LASF48:
 2478 0218 756E6978 		.ascii	"unixTimeStart\000"
 2478      54696D65 
 2478      53746172 
 2478      7400
 2479              	.LASF12:
 2480 0226 756E7369 		.ascii	"unsigned int\000"
 2480      676E6564 
 2480      20696E74 
 2480      00
 2481              	.LASF14:
 2482 0233 75696E74 		.ascii	"uint16_t\000"
 2482      31365F74 
 2482      00
 2483              	.LASF8:
 2484 023c 6C6F6E67 		.ascii	"long unsigned int\000"
 2484      20756E73 
 2484      69676E65 
 2484      6420696E 
 2484      7400
 2485              	.LASF83:
 2486 024e 496E6974 		.ascii	"InitNetwork\000"
 2486      4E657477 
 2486      6F726B00 
 2487              	.LASF33:
 2488 025a 746D7054 		.ascii	"tmpTime\000"
 2488      696D6500 
 2489              	.LASF29:
 2490 0262 49447061 		.ascii	"IDpacket\000"
 2490      636B6574 
 2490      00
 2491              	.LASF21:
 2492 026b 436F6D6D 		.ascii	"Command\000"
 2492      616E6400 
 2493              	.LASF57:
 2494 0273 73746174 		.ascii	"status\000"
 2494      757300
 2495              	.LASF19:
ARM GAS  C:\DOCUME~1\Admin\LOCALS~1\Temp\cc2z0V6J.s 			page 53


 2496 027a 63686172 		.ascii	"char\000"
 2496      00
 2497              	.LASF51:
 2498 027f 46696E52 		.ascii	"FinReady\000"
 2498      65616479 
 2498      00
 2499              	.LASF30:
 2500 0288 72656164 		.ascii	"ready\000"
 2500      7900
 2501              	.LASF79:
 2502 028e 474E5520 		.ascii	"GNU C 4.9.3 20150303 (release) [ARM/embedded-4_9-br"
 2502      4320342E 
 2502      392E3320 
 2502      32303135 
 2502      30333033 
 2503 02c1 616E6368 		.ascii	"anch revision 221220] -mcpu=cortex-m0 -mthumb -g -O"
 2503      20726576 
 2503      6973696F 
 2503      6E203232 
 2503      31323230 
 2504 02f4 30202D66 		.ascii	"0 -ffunction-sections -ffat-lto-objects\000"
 2504      66756E63 
 2504      74696F6E 
 2504      2D736563 
 2504      74696F6E 
 2505              	.LASF37:
 2506 031c 756E6978 		.ascii	"unixStartTime\000"
 2506      53746172 
 2506      7454696D 
 2506      6500
 2507              	.LASF5:
 2508 032a 73686F72 		.ascii	"short unsigned int\000"
 2508      7420756E 
 2508      7369676E 
 2508      65642069 
 2508      6E7400
 2509              	.LASF49:
 2510 033d 72656365 		.ascii	"recentMs\000"
 2510      6E744D73 
 2510      00
 2511              	.LASF66:
 2512 0346 6D696C6C 		.ascii	"millisTime2\000"
 2512      69735469 
 2512      6D653200 
 2513              	.LASF22:
 2514 0352 44617461 		.ascii	"Data1\000"
 2514      3100
 2515              	.LASF23:
 2516 0358 44617461 		.ascii	"Data2\000"
 2516      3200
 2517              	.LASF10:
 2518 035e 5F5F7569 		.ascii	"__uint64_t\000"
 2518      6E743634 
 2518      5F7400
 2519              	.LASF62:
 2520 0369 6D696C6C 		.ascii	"millisTime\000"
 2520      69735469 
ARM GAS  C:\DOCUME~1\Admin\LOCALS~1\Temp\cc2z0V6J.s 			page 54


 2520      6D6500
 2521              	.LASF80:
 2522 0374 2E5C6C69 		.ascii	".\\lib_Network\\network.c\000"
 2522      625F4E65 
 2522      74776F72 
 2522      6B5C6E65 
 2522      74776F72 
 2523              	.LASF53:
 2524 038c 46696E57 		.ascii	"FinWriteInDB\000"
 2524      72697465 
 2524      496E4442 
 2524      00
 2525              	.LASF18:
 2526 0399 646F7562 		.ascii	"double\000"
 2526      6C6500
 2527              	.LASF74:
 2528 03a0 6E657477 		.ascii	"networkStatus\000"
 2528      6F726B53 
 2528      74617475 
 2528      7300
 2529              	.LASF81:
 2530 03ae 633A5C43 		.ascii	"c:\\Cypress\\Mainline_v2\\Start\\start_v0.cydsn\000"
 2530      79707265 
 2530      73735C4D 
 2530      61696E6C 
 2530      696E655F 
 2531              	.LASF44:
 2532 03da 62797465 		.ascii	"byte\000"
 2532      00
 2533              	.LASF58:
 2534 03df 4E545073 		.ascii	"NTPsync\000"
 2534      796E6300 
 2535              	.LASF24:
 2536 03e7 44617461 		.ascii	"Data3\000"
 2536      3300
 2537              	.LASF52:
 2538 03ed 52656365 		.ascii	"ReceiveData\000"
 2538      69766544 
 2538      61746100 
 2539              	.LASF67:
 2540 03f9 49447265 		.ascii	"IDreceive\000"
 2540      63656976 
 2540      6500
 2541              	.LASF84:
 2542 0403 4E545072 		.ascii	"NTPreceiveTime\000"
 2542      65636569 
 2542      76655469 
 2542      6D6500
 2543              	.LASF47:
 2544 0412 53656E64 		.ascii	"SendSkierStart\000"
 2544      536B6965 
 2544      72537461 
 2544      727400
 2545              	.LASF32:
 2546 0421 636F756E 		.ascii	"countSkiers\000"
 2546      74536B69 
 2546      65727300 
ARM GAS  C:\DOCUME~1\Admin\LOCALS~1\Temp\cc2z0V6J.s 			page 55


 2547              	.LASF85:
 2548 042d 4E545073 		.ascii	"NTPsendTime\000"
 2548      656E6454 
 2548      696D6500 
 2549              		.ident	"GCC: (GNU Tools for ARM Embedded Processors) 4.9.3 20150303 (release) [ARM/embedded-4_9-br
