ARM GAS  C:\Users\Petro\AppData\Local\Temp\cctyLdqT.s 			page 1


   1              		.cpu cortex-m0
   2              		.fpu softvfp
   3              		.eabi_attribute 20, 1
   4              		.eabi_attribute 21, 1
   5              		.eabi_attribute 23, 3
   6              		.eabi_attribute 24, 1
   7              		.eabi_attribute 25, 1
   8              		.eabi_attribute 26, 1
   9              		.eabi_attribute 30, 6
  10              		.eabi_attribute 34, 0
  11              		.eabi_attribute 18, 4
  12              		.code	16
  13              		.file	"network.c"
  14              		.text
  15              	.Ltext0:
  16              		.cfi_sections	.debug_frame
  17              		.comm	PROTO_STATE,1,1
  18              		.comm	LenD1,1,1
  19              		.comm	LenD2,1,1
  20              		.comm	LenD3,1,1
  21              		.comm	LenSeq,1,1
  22              		.comm	LenChS,1,1
  23              		.comm	LenC,1,1
  24              		.comm	NtpLenD1,1,1
  25              		.comm	NtpLenMsD1,1,1
  26              		.comm	NtpLenId,1,1
  27              		.comm	NtpLenChS,1,1
  28              		.comm	inData,24,8
  29              		.comm	outData,24,8
  30              		.comm	previousData,100,4
  31              		.bss
  32              		.align	2
  33              	networkStatus:
  34 0000 00000000 		.space	4
  35              		.align	2
  36              	noConnect:
  37 0004 00000000 		.space	4
  38              		.align	2
  39              	finNoReady:
  40 0008 00000000 		.space	4
  41              		.section	.rodata
  42              		.align	2
  43              	.LC0:
  44 0000 0A0A496E 		.ascii	"\012\012Init network start\012\012\000"
  44      6974206E 
  44      6574776F 
  44      726B2073 
  44      74617274 
  45 0017 00       		.align	2
  46              	.LC2:
  47 0018 424C4142 		.ascii	"BLABLABLA\000"
  47      4C41424C 
  47      4100
  48              		.section	.text.InitNetwork,"ax",%progbits
  49              		.align	2
  50              		.global	InitNetwork
  51              		.code	16
ARM GAS  C:\Users\Petro\AppData\Local\Temp\cctyLdqT.s 			page 2


  52              		.thumb_func
  53              		.type	InitNetwork, %function
  54              	InitNetwork:
  55              	.LFB63:
  56              		.file 1 ".\\lib_Network\\network.c"
   1:.\lib_Network/network.c **** 
   2:.\lib_Network/network.c **** #include "lib_Network\network.h"
   3:.\lib_Network/network.c **** 
   4:.\lib_Network/network.c **** 
   5:.\lib_Network/network.c **** 
   6:.\lib_Network/network.c **** void InitNetwork(void)
   7:.\lib_Network/network.c **** {
  57              		.loc 1 7 0
  58              		.cfi_startproc
  59 0000 80B5     		push	{r7, lr}
  60              		.cfi_def_cfa_offset 8
  61              		.cfi_offset 7, -8
  62              		.cfi_offset 14, -4
  63 0002 00AF     		add	r7, sp, #0
  64              		.cfi_def_cfa_register 7
   8:.\lib_Network/network.c ****     UART_XB_Start();
  65              		.loc 1 8 0
  66 0004 FFF7FEFF 		bl	UART_XB_Start
   9:.\lib_Network/network.c ****     
  10:.\lib_Network/network.c ****     #ifdef DEBUG_PC
  11:.\lib_Network/network.c ****     SW_UART_DEBUG_Start();
  67              		.loc 1 11 0
  68 0008 FFF7FEFF 		bl	SW_UART_DEBUG_Start
  12:.\lib_Network/network.c ****     SW_UART_DEBUG_PutString("\n\nInit network start\n\n");
  69              		.loc 1 12 0
  70 000c 0B4B     		ldr	r3, .L2
  71 000e 181C     		mov	r0, r3
  72 0010 FFF7FEFF 		bl	SW_UART_DEBUG_PutString
  13:.\lib_Network/network.c ****     UART_XB_UartPutString("BLABLABLA");
  73              		.loc 1 13 0
  74 0014 0A4B     		ldr	r3, .L2+4
  75 0016 181C     		mov	r0, r3
  76 0018 FFF7FEFF 		bl	UART_XB_UartPutString
  14:.\lib_Network/network.c ****     #endif
  15:.\lib_Network/network.c ****     
  16:.\lib_Network/network.c ****     inData.readStatus = NO_READ;
  77              		.loc 1 16 0
  78 001c 094B     		ldr	r3, .L2+8
  79 001e 0022     		mov	r2, #0
  80 0020 9A74     		strb	r2, [r3, #18]
  17:.\lib_Network/network.c ****     outData.writeStatus = WRITE_OK;
  81              		.loc 1 17 0
  82 0022 094B     		ldr	r3, .L2+12
  83 0024 0122     		mov	r2, #1
  84 0026 DA74     		strb	r2, [r3, #19]
  18:.\lib_Network/network.c ****     outData.IDpacket = 0xFF;
  85              		.loc 1 18 0
  86 0028 074B     		ldr	r3, .L2+12
  87 002a FF22     		mov	r2, #255
  88 002c 1A70     		strb	r2, [r3]
  19:.\lib_Network/network.c ****     networkStatus = NETWORK_DISCONN;   
  89              		.loc 1 19 0
ARM GAS  C:\Users\Petro\AppData\Local\Temp\cctyLdqT.s 			page 3


  90 002e 074B     		ldr	r3, .L2+16
  91 0030 0022     		mov	r2, #0
  92 0032 1A60     		str	r2, [r3]
  20:.\lib_Network/network.c ****     UART_XB_SpiUartClearRxBuffer();
  93              		.loc 1 20 0
  94 0034 FFF7FEFF 		bl	UART_XB_SpiUartClearRxBuffer
  21:.\lib_Network/network.c **** }
  95              		.loc 1 21 0
  96 0038 BD46     		mov	sp, r7
  97              		@ sp needed
  98 003a 80BD     		pop	{r7, pc}
  99              	.L3:
 100              		.align	2
 101              	.L2:
 102 003c 00000000 		.word	.LC0
 103 0040 18000000 		.word	.LC2
 104 0044 00000000 		.word	inData
 105 0048 00000000 		.word	outData
 106 004c 00000000 		.word	networkStatus
 107              		.cfi_endproc
 108              	.LFE63:
 109              		.size	InitNetwork, .-InitNetwork
 110              		.section	.rodata
 111 0022 0000     		.align	2
 112              	.LC10:
 113 0024 25303258 		.ascii	"%02X:%08X%08X%04X%02X\000"
 113      3A253038 
 113      58253038 
 113      58253034 
 113      58253032 
 114 003a 0000     		.align	2
 115              	.LC12:
 116 003c 6F757420 		.ascii	"out data - \000"
 116      64617461 
 116      202D2000 
 117              		.align	2
 118              	.LC14:
 119 0048 0A0D00   		.ascii	"\012\015\000"
 120              		.section	.text.SendData,"ax",%progbits
 121              		.align	2
 122              		.global	SendData
 123              		.code	16
 124              		.thumb_func
 125              		.type	SendData, %function
 126              	SendData:
 127              	.LFB64:
  22:.\lib_Network/network.c **** 
  23:.\lib_Network/network.c **** void SendData(void)
  24:.\lib_Network/network.c **** {
 128              		.loc 1 24 0
 129              		.cfi_startproc
 130 0000 B0B5     		push	{r4, r5, r7, lr}
 131              		.cfi_def_cfa_offset 16
 132              		.cfi_offset 4, -16
 133              		.cfi_offset 5, -12
 134              		.cfi_offset 7, -8
 135              		.cfi_offset 14, -4
ARM GAS  C:\Users\Petro\AppData\Local\Temp\cctyLdqT.s 			page 4


 136 0002 9EB0     		sub	sp, sp, #120
 137              		.cfi_def_cfa_offset 136
 138 0004 04AF     		add	r7, sp, #16
 139              		.cfi_def_cfa 7, 120
  25:.\lib_Network/network.c ****     if(outData.writeStatus == NO_WRITE && inData.readStatus == READ_OK)
 140              		.loc 1 25 0
 141 0006 334B     		ldr	r3, .L7
 142 0008 DB7C     		ldrb	r3, [r3, #19]
 143 000a 002B     		cmp	r3, #0
 144 000c 5FD1     		bne	.L4
 145              		.loc 1 25 0 is_stmt 0 discriminator 1
 146 000e 324B     		ldr	r3, .L7+4
 147 0010 9B7C     		ldrb	r3, [r3, #18]
 148 0012 012B     		cmp	r3, #1
 149 0014 5BD1     		bne	.L4
  26:.\lib_Network/network.c ****     { 
  27:.\lib_Network/network.c ****         if (inData.IDpacket == outData.IDpacket)
 150              		.loc 1 27 0 is_stmt 1
 151 0016 304B     		ldr	r3, .L7+4
 152 0018 1878     		ldrb	r0, [r3]
 153 001a 2E4B     		ldr	r3, .L7
 154 001c 1B78     		ldrb	r3, [r3]
 155 001e 9842     		cmp	r0, r3
 156 0020 0AD1     		bne	.L6
  28:.\lib_Network/network.c ****         {
  29:.\lib_Network/network.c ****             /*send previous packet*/
  30:.\lib_Network/network.c ****             
  31:.\lib_Network/network.c ****             UART_XB_UartPutString(previousData);
 157              		.loc 1 31 0
 158 0022 2E4B     		ldr	r3, .L7+8
 159 0024 181C     		mov	r0, r3
 160 0026 FFF7FEFF 		bl	UART_XB_UartPutString
  32:.\lib_Network/network.c ****             outData.writeStatus = WRITE_OK;
 161              		.loc 1 32 0
 162 002a 2A4B     		ldr	r3, .L7
 163 002c 0122     		mov	r2, #1
 164 002e DA74     		strb	r2, [r3, #19]
  33:.\lib_Network/network.c ****             inData.readStatus = NO_READ;
 165              		.loc 1 33 0
 166 0030 294B     		ldr	r3, .L7+4
 167 0032 0022     		mov	r2, #0
 168 0034 9A74     		strb	r2, [r3, #18]
 169 0036 4AE0     		b	.L4
 170              	.L6:
 171              	.LBB2:
  34:.\lib_Network/network.c ****         }else
  35:.\lib_Network/network.c ****         {
  36:.\lib_Network/network.c ****             /*send nex packet*/
  37:.\lib_Network/network.c ****             
  38:.\lib_Network/network.c ****             char sendBuffer[DATA_BUFFER];
  39:.\lib_Network/network.c ****             char sendData[DATA_BUFFER];
  40:.\lib_Network/network.c ****             
  41:.\lib_Network/network.c ****             /*pack data*/
  42:.\lib_Network/network.c ****             sprintf(sendData,"%02X:%08X%08X%04X%02X",
  43:.\lib_Network/network.c ****                     0u,
  44:.\lib_Network/network.c ****                     (uint32_t)((outData.unixStartTime & MASK_HIGH) >> DATA_SHIFT), 
 172              		.loc 1 44 0
ARM GAS  C:\Users\Petro\AppData\Local\Temp\cctyLdqT.s 			page 5


 173 0038 264B     		ldr	r3, .L7
 174 003a DC68     		ldr	r4, [r3, #12]
 175 003c 9B68     		ldr	r3, [r3, #8]
 176 003e 2100     		lsr	r1, r4, #0
 177 0040 0023     		mov	r3, #0
 178 0042 1A1C     		mov	r2, r3
  42:.\lib_Network/network.c ****                     0u,
 179              		.loc 1 42 0
 180 0044 0D1C     		mov	r5, r1
  45:.\lib_Network/network.c ****                     (uint32_t)(outData.unixStartTime & MASK_LOW), 
 181              		.loc 1 45 0
 182 0046 234B     		ldr	r3, .L7
 183 0048 DC68     		ldr	r4, [r3, #12]
 184 004a 9B68     		ldr	r3, [r3, #8]
  42:.\lib_Network/network.c ****                     0u,
 185              		.loc 1 42 0
 186 004c 1C1C     		mov	r4, r3
  46:.\lib_Network/network.c ****                     outData.startMsTime, 
 187              		.loc 1 46 0
 188 004e 214B     		ldr	r3, .L7
 189 0050 1B8A     		ldrh	r3, [r3, #16]
  42:.\lib_Network/network.c ****                     0u,
 190              		.loc 1 42 0
 191 0052 181C     		mov	r0, r3
  47:.\lib_Network/network.c ****                     outData.newSkier);
 192              		.loc 1 47 0
 193 0054 1F4B     		ldr	r3, .L7
 194 0056 9B7C     		ldrb	r3, [r3, #18]
  42:.\lib_Network/network.c ****                     0u,
 195              		.loc 1 42 0
 196 0058 191C     		mov	r1, r3
 197 005a 3423     		mov	r3, #52
 198 005c FA18     		add	r2, r7, r3
 199 005e 204B     		ldr	r3, .L7+12
 200 0060 0094     		str	r4, [sp]
 201 0062 0190     		str	r0, [sp, #4]
 202 0064 0291     		str	r1, [sp, #8]
 203 0066 101C     		mov	r0, r2
 204 0068 191C     		mov	r1, r3
 205 006a 0022     		mov	r2, #0
 206 006c 2B1C     		mov	r3, r5
 207 006e FFF7FEFF 		bl	sprintf
  48:.\lib_Network/network.c ****             
  49:.\lib_Network/network.c ****             
  50:.\lib_Network/network.c ****             PackData(sendBuffer, (uint8_t *)sendData, inData.IDpacket);
 208              		.loc 1 50 0
 209 0072 194B     		ldr	r3, .L7+4
 210 0074 1B78     		ldrb	r3, [r3]
 211 0076 1C1C     		mov	r4, r3
 212 0078 3A1C     		mov	r2, r7
 213 007a 3423     		mov	r3, #52
 214 007c FB18     		add	r3, r7, r3
 215 007e 101C     		mov	r0, r2
 216 0080 191C     		mov	r1, r3
 217 0082 221C     		mov	r2, r4
 218 0084 FFF7FEFF 		bl	PackData
  51:.\lib_Network/network.c ****             UART_XB_UartPutString(sendBuffer);
ARM GAS  C:\Users\Petro\AppData\Local\Temp\cctyLdqT.s 			page 6


 219              		.loc 1 51 0
 220 0088 3B1C     		mov	r3, r7
 221 008a 181C     		mov	r0, r3
 222 008c FFF7FEFF 		bl	UART_XB_UartPutString
  52:.\lib_Network/network.c ****             
  53:.\lib_Network/network.c **** 
  54:.\lib_Network/network.c ****             outData.newSkier = !NEW_SKIER_IN_TARCK;
 223              		.loc 1 54 0
 224 0090 104B     		ldr	r3, .L7
 225 0092 0022     		mov	r2, #0
 226 0094 9A74     		strb	r2, [r3, #18]
  55:.\lib_Network/network.c ****                 
  56:.\lib_Network/network.c ****             outData.writeStatus = WRITE_OK;
 227              		.loc 1 56 0
 228 0096 0F4B     		ldr	r3, .L7
 229 0098 0122     		mov	r2, #1
 230 009a DA74     		strb	r2, [r3, #19]
  57:.\lib_Network/network.c ****             outData.IDpacket = inData.IDpacket;
 231              		.loc 1 57 0
 232 009c 0E4B     		ldr	r3, .L7+4
 233 009e 1A78     		ldrb	r2, [r3]
 234 00a0 0C4B     		ldr	r3, .L7
 235 00a2 1A70     		strb	r2, [r3]
  58:.\lib_Network/network.c ****             inData.readStatus = NO_READ;
 236              		.loc 1 58 0
 237 00a4 0C4B     		ldr	r3, .L7+4
 238 00a6 0022     		mov	r2, #0
 239 00a8 9A74     		strb	r2, [r3, #18]
  59:.\lib_Network/network.c ****             #ifdef DEBUG_PC
  60:.\lib_Network/network.c ****             SW_UART_DEBUG_PutString("out data - "); 
 240              		.loc 1 60 0
 241 00aa 0E4B     		ldr	r3, .L7+16
 242 00ac 181C     		mov	r0, r3
 243 00ae FFF7FEFF 		bl	SW_UART_DEBUG_PutString
  61:.\lib_Network/network.c ****             SW_UART_DEBUG_PutString(sendBuffer);   
 244              		.loc 1 61 0
 245 00b2 3B1C     		mov	r3, r7
 246 00b4 181C     		mov	r0, r3
 247 00b6 FFF7FEFF 		bl	SW_UART_DEBUG_PutString
  62:.\lib_Network/network.c ****             SW_UART_DEBUG_PutString("\n\r");
 248              		.loc 1 62 0
 249 00ba 0B4B     		ldr	r3, .L7+20
 250 00bc 181C     		mov	r0, r3
 251 00be FFF7FEFF 		bl	SW_UART_DEBUG_PutString
  63:.\lib_Network/network.c ****             #endif   
  64:.\lib_Network/network.c ****             strcpy(previousData, sendBuffer);
 252              		.loc 1 64 0
 253 00c2 064A     		ldr	r2, .L7+8
 254 00c4 3B1C     		mov	r3, r7
 255 00c6 101C     		mov	r0, r2
 256 00c8 191C     		mov	r1, r3
 257 00ca FFF7FEFF 		bl	strcpy
 258              	.L4:
 259              	.LBE2:
  65:.\lib_Network/network.c ****         }
  66:.\lib_Network/network.c ****     }
  67:.\lib_Network/network.c **** }
ARM GAS  C:\Users\Petro\AppData\Local\Temp\cctyLdqT.s 			page 7


 260              		.loc 1 67 0
 261 00ce BD46     		mov	sp, r7
 262 00d0 1AB0     		add	sp, sp, #104
 263              		@ sp needed
 264 00d2 B0BD     		pop	{r4, r5, r7, pc}
 265              	.L8:
 266              		.align	2
 267              	.L7:
 268 00d4 00000000 		.word	outData
 269 00d8 00000000 		.word	inData
 270 00dc 00000000 		.word	previousData
 271 00e0 24000000 		.word	.LC10
 272 00e4 3C000000 		.word	.LC12
 273 00e8 48000000 		.word	.LC14
 274              		.cfi_endproc
 275              	.LFE64:
 276              		.size	SendData, .-SendData
 277              		.section	.rodata
 278 004b 00       		.align	2
 279              	.LC20:
 280 004c 20202020 		.ascii	"       READ DATA OKEY\000"
 280      20202052 
 280      45414420 
 280      44415441 
 280      204F4B45 
 281              		.section	.text.ReceiveData,"ax",%progbits
 282              		.align	2
 283              		.global	ReceiveData
 284              		.code	16
 285              		.thumb_func
 286              		.type	ReceiveData, %function
 287              	ReceiveData:
 288              	.LFB65:
  68:.\lib_Network/network.c **** 
  69:.\lib_Network/network.c **** 
  70:.\lib_Network/network.c **** uint32_t ReceiveData(void)
  71:.\lib_Network/network.c **** {
 289              		.loc 1 71 0
 290              		.cfi_startproc
 291 0000 80B5     		push	{r7, lr}
 292              		.cfi_def_cfa_offset 8
 293              		.cfi_offset 7, -8
 294              		.cfi_offset 14, -4
 295 0002 8AB0     		sub	sp, sp, #40
 296              		.cfi_def_cfa_offset 48
 297 0004 00AF     		add	r7, sp, #0
 298              		.cfi_def_cfa_register 7
  72:.\lib_Network/network.c ****     if(outData.writeStatus == WRITE_OK && inData.readStatus == NO_READ)
 299              		.loc 1 72 0
 300 0006 304B     		ldr	r3, .L17
 301 0008 DB7C     		ldrb	r3, [r3, #19]
 302 000a 012B     		cmp	r3, #1
 303 000c 56D1     		bne	.L10
 304              		.loc 1 72 0 is_stmt 0 discriminator 1
 305 000e 2F4B     		ldr	r3, .L17+4
 306 0010 9B7C     		ldrb	r3, [r3, #18]
 307 0012 002B     		cmp	r3, #0
ARM GAS  C:\Users\Petro\AppData\Local\Temp\cctyLdqT.s 			page 8


 308 0014 52D1     		bne	.L10
 309              	.LBB3:
  73:.\lib_Network/network.c ****     {
  74:.\lib_Network/network.c ****         uint32_t byte;
  75:.\lib_Network/network.c ****         struct Resp recvData;
  76:.\lib_Network/network.c ****           
  77:.\lib_Network/network.c ****         while((UART_XB_SpiUartGetRxBufferSize() > 0) && ((byte=UART_XB_UartGetChar()) != 0))
 310              		.loc 1 77 0 is_stmt 1
 311 0016 3AE0     		b	.L11
 312              	.L14:
  78:.\lib_Network/network.c ****         { 
  79:.\lib_Network/network.c ****             UnpackData(&recvData, (uint8_t)(byte & 0xFF));
 313              		.loc 1 79 0
 314 0018 7B6A     		ldr	r3, [r7, #36]
 315 001a DBB2     		uxtb	r3, r3
 316 001c 3A1C     		mov	r2, r7
 317 001e 101C     		mov	r0, r2
 318 0020 191C     		mov	r1, r3
 319 0022 FFF7FEFF 		bl	UnpackData
  80:.\lib_Network/network.c ****             
  81:.\lib_Network/network.c ****             #ifdef DEBUG_PC
  82:.\lib_Network/network.c ****             //SW_UART_DEBUG_PutString("\nbyte - ");
  83:.\lib_Network/network.c ****             SW_UART_DEBUG_PutChar(byte);
 320              		.loc 1 83 0
 321 0026 7B6A     		ldr	r3, [r7, #36]
 322 0028 DBB2     		uxtb	r3, r3
 323 002a 181C     		mov	r0, r3
 324 002c FFF7FEFF 		bl	SW_UART_DEBUG_PutChar
  84:.\lib_Network/network.c ****             #endif
  85:.\lib_Network/network.c ****             
  86:.\lib_Network/network.c ****             if(recvData.EndPacket == 1)
 325              		.loc 1 86 0
 326 0030 3B1C     		mov	r3, r7
 327 0032 1B7E     		ldrb	r3, [r3, #24]
 328 0034 012B     		cmp	r3, #1
 329 0036 2AD1     		bne	.L11
  87:.\lib_Network/network.c ****             {                      
  88:.\lib_Network/network.c ****                 inData.IDpacket = recvData.Seq;
 330              		.loc 1 88 0
 331 0038 3B1C     		mov	r3, r7
 332 003a 1B88     		ldrh	r3, [r3]
 333 003c DAB2     		uxtb	r2, r3
 334 003e 234B     		ldr	r3, .L17+4
 335 0040 1A70     		strb	r2, [r3]
  89:.\lib_Network/network.c ****                 
  90:.\lib_Network/network.c ****                 inData.readStatus = READ_OK;
 336              		.loc 1 90 0
 337 0042 224B     		ldr	r3, .L17+4
 338 0044 0122     		mov	r2, #1
 339 0046 9A74     		strb	r2, [r3, #18]
  91:.\lib_Network/network.c ****                 outData.writeStatus = NO_WRITE;
 340              		.loc 1 91 0
 341 0048 1F4B     		ldr	r3, .L17
 342 004a 0022     		mov	r2, #0
 343 004c DA74     		strb	r2, [r3, #19]
  92:.\lib_Network/network.c ****                 
  93:.\lib_Network/network.c ****                 /*connect network*/
ARM GAS  C:\Users\Petro\AppData\Local\Temp\cctyLdqT.s 			page 9


  94:.\lib_Network/network.c ****                 networkStatus = NETWORK_CONN;
 344              		.loc 1 94 0
 345 004e 204B     		ldr	r3, .L17+8
 346 0050 0122     		mov	r2, #1
 347 0052 1A60     		str	r2, [r3]
  95:.\lib_Network/network.c ****                 noConnect = 0;
 348              		.loc 1 95 0
 349 0054 1F4B     		ldr	r3, .L17+12
 350 0056 0022     		mov	r2, #0
 351 0058 1A60     		str	r2, [r3]
  96:.\lib_Network/network.c ****                 /*write data*/
  97:.\lib_Network/network.c ****                 inData.countSkiers = recvData.Data3;
 352              		.loc 1 97 0
 353 005a 3B1C     		mov	r3, r7
 354 005c 9A7C     		ldrb	r2, [r3, #18]
 355 005e 1B4B     		ldr	r3, .L17+4
 356 0060 DA70     		strb	r2, [r3, #3]
  98:.\lib_Network/network.c ****                 //inData.unixStartTime = recvData.Data1;
  99:.\lib_Network/network.c ****                 inData.ready = (recvData.Data2 & 0xFF00) >> 8;
 357              		.loc 1 99 0
 358 0062 3B1C     		mov	r3, r7
 359 0064 1B8A     		ldrh	r3, [r3, #16]
 360 0066 1B0A     		lsr	r3, r3, #8
 361 0068 9BB2     		uxth	r3, r3
 362 006a DAB2     		uxtb	r2, r3
 363 006c 174B     		ldr	r3, .L17+4
 364 006e 5A70     		strb	r2, [r3, #1]
 100:.\lib_Network/network.c ****                 inData.reboot = recvData.Data2 & 0x00FF;
 365              		.loc 1 100 0
 366 0070 3B1C     		mov	r3, r7
 367 0072 1B8A     		ldrh	r3, [r3, #16]
 368 0074 DAB2     		uxtb	r2, r3
 369 0076 154B     		ldr	r3, .L17+4
 370 0078 9A70     		strb	r2, [r3, #2]
 101:.\lib_Network/network.c ****                 /*next packet*/
 102:.\lib_Network/network.c ****                 //outData.IDpacket++;
 103:.\lib_Network/network.c ****                 #ifdef DEBUG_PC
 104:.\lib_Network/network.c ****                 SW_UART_DEBUG_PutString("       READ DATA OKEY");   
 371              		.loc 1 104 0
 372 007a 174B     		ldr	r3, .L17+16
 373 007c 181C     		mov	r0, r3
 374 007e FFF7FEFF 		bl	SW_UART_DEBUG_PutString
 105:.\lib_Network/network.c ****                 SW_UART_DEBUG_PutString("\n\r");
 375              		.loc 1 105 0
 376 0082 164B     		ldr	r3, .L17+20
 377 0084 181C     		mov	r0, r3
 378 0086 FFF7FEFF 		bl	SW_UART_DEBUG_PutString
 106:.\lib_Network/network.c ****                 #endif 
 107:.\lib_Network/network.c **** 
 108:.\lib_Network/network.c ****                 return  NETWORK_CONN;  
 379              		.loc 1 108 0
 380 008a 0123     		mov	r3, #1
 381 008c 17E0     		b	.L16
 382              	.L11:
  77:.\lib_Network/network.c ****         { 
 383              		.loc 1 77 0
 384 008e FFF7FEFF 		bl	UART_XB_SpiUartGetRxBufferSize
ARM GAS  C:\Users\Petro\AppData\Local\Temp\cctyLdqT.s 			page 10


 385 0092 031E     		sub	r3, r0, #0
 386 0094 06D0     		beq	.L13
  77:.\lib_Network/network.c ****         { 
 387              		.loc 1 77 0 is_stmt 0 discriminator 1
 388 0096 FFF7FEFF 		bl	UART_XB_UartGetChar
 389 009a 031C     		mov	r3, r0
 390 009c 7B62     		str	r3, [r7, #36]
 391 009e 7B6A     		ldr	r3, [r7, #36]
 392 00a0 002B     		cmp	r3, #0
 393 00a2 B9D1     		bne	.L14
 394              	.L13:
 109:.\lib_Network/network.c ****             }
 110:.\lib_Network/network.c ****         }
 111:.\lib_Network/network.c ****         
 112:.\lib_Network/network.c ****         #ifdef DEBUG_PC
 113:.\lib_Network/network.c ****         //SW_UART_DEBUG_PutString("\nERROR READ!!!!");   
 114:.\lib_Network/network.c ****         //SW_UART_DEBUG_PutString("\n\r");
 115:.\lib_Network/network.c ****         #endif 
 116:.\lib_Network/network.c ****         
 117:.\lib_Network/network.c ****         /*tyme to respond*/
 118:.\lib_Network/network.c ****         if(noConnect++ >= NETWORK_TIMEOUT)
 395              		.loc 1 118 0 is_stmt 1
 396 00a4 0B4B     		ldr	r3, .L17+12
 397 00a6 1B68     		ldr	r3, [r3]
 398 00a8 591C     		add	r1, r3, #1
 399 00aa 0A4A     		ldr	r2, .L17+12
 400 00ac 1160     		str	r1, [r2]
 401 00ae 1D2B     		cmp	r3, #29
 402 00b0 02DD     		ble	.L15
 119:.\lib_Network/network.c ****         {
 120:.\lib_Network/network.c ****             networkStatus = NETWORK_DISCONN;
 403              		.loc 1 120 0
 404 00b2 074B     		ldr	r3, .L17+8
 405 00b4 0022     		mov	r2, #0
 406 00b6 1A60     		str	r2, [r3]
 407              	.L15:
 121:.\lib_Network/network.c ****         }
 122:.\lib_Network/network.c ****         return  NETWORK_DISCONN;
 408              		.loc 1 122 0
 409 00b8 0023     		mov	r3, #0
 410 00ba 00E0     		b	.L16
 411              	.L10:
 412              	.LBE3:
 123:.\lib_Network/network.c ****     }
 124:.\lib_Network/network.c ****     return 0;
 413              		.loc 1 124 0
 414 00bc 0023     		mov	r3, #0
 415              	.L16:
 125:.\lib_Network/network.c **** }
 416              		.loc 1 125 0 discriminator 1
 417 00be 181C     		mov	r0, r3
 418 00c0 BD46     		mov	sp, r7
 419 00c2 0AB0     		add	sp, sp, #40
 420              		@ sp needed
 421 00c4 80BD     		pop	{r7, pc}
 422              	.L18:
 423 00c6 C046     		.align	2
ARM GAS  C:\Users\Petro\AppData\Local\Temp\cctyLdqT.s 			page 11


 424              	.L17:
 425 00c8 00000000 		.word	outData
 426 00cc 00000000 		.word	inData
 427 00d0 00000000 		.word	networkStatus
 428 00d4 04000000 		.word	noConnect
 429 00d8 4C000000 		.word	.LC20
 430 00dc 48000000 		.word	.LC14
 431              		.cfi_endproc
 432              	.LFE65:
 433              		.size	ReceiveData, .-ReceiveData
 434              		.section	.text.NetworkStatus,"ax",%progbits
 435              		.align	2
 436              		.global	NetworkStatus
 437              		.code	16
 438              		.thumb_func
 439              		.type	NetworkStatus, %function
 440              	NetworkStatus:
 441              	.LFB66:
 126:.\lib_Network/network.c **** 
 127:.\lib_Network/network.c **** 
 128:.\lib_Network/network.c **** uint32_t NetworkStatus(void)
 129:.\lib_Network/network.c **** {
 442              		.loc 1 129 0
 443              		.cfi_startproc
 444 0000 80B5     		push	{r7, lr}
 445              		.cfi_def_cfa_offset 8
 446              		.cfi_offset 7, -8
 447              		.cfi_offset 14, -4
 448 0002 00AF     		add	r7, sp, #0
 449              		.cfi_def_cfa_register 7
 130:.\lib_Network/network.c ****     return networkStatus;
 450              		.loc 1 130 0
 451 0004 024B     		ldr	r3, .L21
 452 0006 1B68     		ldr	r3, [r3]
 131:.\lib_Network/network.c **** }
 453              		.loc 1 131 0
 454 0008 181C     		mov	r0, r3
 455 000a BD46     		mov	sp, r7
 456              		@ sp needed
 457 000c 80BD     		pop	{r7, pc}
 458              	.L22:
 459 000e C046     		.align	2
 460              	.L21:
 461 0010 00000000 		.word	networkStatus
 462              		.cfi_endproc
 463              	.LFE66:
 464              		.size	NetworkStatus, .-NetworkStatus
 465              		.section	.text.SendSkierStart,"ax",%progbits
 466              		.align	2
 467              		.global	SendSkierStart
 468              		.code	16
 469              		.thumb_func
 470              		.type	SendSkierStart, %function
 471              	SendSkierStart:
 472              	.LFB67:
 132:.\lib_Network/network.c **** 
 133:.\lib_Network/network.c **** 
ARM GAS  C:\Users\Petro\AppData\Local\Temp\cctyLdqT.s 			page 12


 134:.\lib_Network/network.c **** void SendSkierStart(uint64_t unixTimeStart, uint32_t recentMs)
 135:.\lib_Network/network.c **** {
 473              		.loc 1 135 0
 474              		.cfi_startproc
 475 0000 90B5     		push	{r4, r7, lr}
 476              		.cfi_def_cfa_offset 12
 477              		.cfi_offset 4, -12
 478              		.cfi_offset 7, -8
 479              		.cfi_offset 14, -4
 480 0002 85B0     		sub	sp, sp, #20
 481              		.cfi_def_cfa_offset 32
 482 0004 00AF     		add	r7, sp, #0
 483              		.cfi_def_cfa_register 7
 484 0006 B860     		str	r0, [r7, #8]
 485 0008 F960     		str	r1, [r7, #12]
 486 000a 7A60     		str	r2, [r7, #4]
 136:.\lib_Network/network.c ****     outData.unixStartTime = unixTimeStart;
 487              		.loc 1 136 0
 488 000c 074A     		ldr	r2, .L24
 489 000e BB68     		ldr	r3, [r7, #8]
 490 0010 FC68     		ldr	r4, [r7, #12]
 491 0012 9360     		str	r3, [r2, #8]
 492 0014 D460     		str	r4, [r2, #12]
 137:.\lib_Network/network.c ****     outData.startMsTime = recentMs;
 493              		.loc 1 137 0
 494 0016 7B68     		ldr	r3, [r7, #4]
 495 0018 9AB2     		uxth	r2, r3
 496 001a 044B     		ldr	r3, .L24
 497 001c 1A82     		strh	r2, [r3, #16]
 138:.\lib_Network/network.c ****     outData.newSkier = NEW_SKIER_IN_TARCK;
 498              		.loc 1 138 0
 499 001e 034B     		ldr	r3, .L24
 500 0020 0122     		mov	r2, #1
 501 0022 9A74     		strb	r2, [r3, #18]
 139:.\lib_Network/network.c **** }
 502              		.loc 1 139 0
 503 0024 BD46     		mov	sp, r7
 504 0026 05B0     		add	sp, sp, #20
 505              		@ sp needed
 506 0028 90BD     		pop	{r4, r7, pc}
 507              	.L25:
 508 002a C046     		.align	2
 509              	.L24:
 510 002c 00000000 		.word	outData
 511              		.cfi_endproc
 512              	.LFE67:
 513              		.size	SendSkierStart, .-SendSkierStart
 514              		.section	.text.FinReady,"ax",%progbits
 515              		.align	2
 516              		.global	FinReady
 517              		.code	16
 518              		.thumb_func
 519              		.type	FinReady, %function
 520              	FinReady:
 521              	.LFB68:
 140:.\lib_Network/network.c **** 
 141:.\lib_Network/network.c **** 
ARM GAS  C:\Users\Petro\AppData\Local\Temp\cctyLdqT.s 			page 13


 142:.\lib_Network/network.c **** uint32_t FinReady(void)
 143:.\lib_Network/network.c **** {
 522              		.loc 1 143 0
 523              		.cfi_startproc
 524 0000 80B5     		push	{r7, lr}
 525              		.cfi_def_cfa_offset 8
 526              		.cfi_offset 7, -8
 527              		.cfi_offset 14, -4
 528 0002 00AF     		add	r7, sp, #0
 529              		.cfi_def_cfa_register 7
 144:.\lib_Network/network.c ****     /*uint32_t result;
 145:.\lib_Network/network.c ****     
 146:.\lib_Network/network.c ****     if(finNoReady <= TIMEOUT_FIN_READY )
 147:.\lib_Network/network.c ****     {
 148:.\lib_Network/network.c ****         if(inData.ready == READY)
 149:.\lib_Network/network.c ****         {
 150:.\lib_Network/network.c ****             finNoReady = 0;
 151:.\lib_Network/network.c ****         }else
 152:.\lib_Network/network.c ****         {
 153:.\lib_Network/network.c ****             finNoReady++;    
 154:.\lib_Network/network.c ****         }
 155:.\lib_Network/network.c ****         
 156:.\lib_Network/network.c ****         result = READY;
 157:.\lib_Network/network.c ****     }else 
 158:.\lib_Network/network.c ****     {
 159:.\lib_Network/network.c ****         result = NO_READY;
 160:.\lib_Network/network.c ****         finNoReady = TIMEOUT_FIN_READY;
 161:.\lib_Network/network.c ****     }
 162:.\lib_Network/network.c ****     
 163:.\lib_Network/network.c ****     return result;*/
 164:.\lib_Network/network.c ****     return inData.ready;
 530              		.loc 1 164 0
 531 0004 024B     		ldr	r3, .L28
 532 0006 5B78     		ldrb	r3, [r3, #1]
 165:.\lib_Network/network.c **** }
 533              		.loc 1 165 0
 534 0008 181C     		mov	r0, r3
 535 000a BD46     		mov	sp, r7
 536              		@ sp needed
 537 000c 80BD     		pop	{r7, pc}
 538              	.L29:
 539 000e C046     		.align	2
 540              	.L28:
 541 0010 00000000 		.word	inData
 542              		.cfi_endproc
 543              	.LFE68:
 544              		.size	FinReady, .-FinReady
 545              		.section	.text.FinWriteInDB,"ax",%progbits
 546              		.align	2
 547              		.global	FinWriteInDB
 548              		.code	16
 549              		.thumb_func
 550              		.type	FinWriteInDB, %function
 551              	FinWriteInDB:
 552              	.LFB69:
 166:.\lib_Network/network.c **** 
 167:.\lib_Network/network.c **** 
ARM GAS  C:\Users\Petro\AppData\Local\Temp\cctyLdqT.s 			page 14


 168:.\lib_Network/network.c **** uint32_t FinWriteInDB(void)
 169:.\lib_Network/network.c **** {
 553              		.loc 1 169 0
 554              		.cfi_startproc
 555 0000 80B5     		push	{r7, lr}
 556              		.cfi_def_cfa_offset 8
 557              		.cfi_offset 7, -8
 558              		.cfi_offset 14, -4
 559 0002 82B0     		sub	sp, sp, #8
 560              		.cfi_def_cfa_offset 16
 561 0004 00AF     		add	r7, sp, #0
 562              		.cfi_def_cfa_register 7
 170:.\lib_Network/network.c ****     uint32_t result;
 171:.\lib_Network/network.c ****     
 172:.\lib_Network/network.c ****     if(outData.newSkier == NEW_SKIER_IN_TARCK)
 563              		.loc 1 172 0
 564 0006 074B     		ldr	r3, .L34
 565 0008 9B7C     		ldrb	r3, [r3, #18]
 566 000a 012B     		cmp	r3, #1
 567 000c 02D1     		bne	.L31
 173:.\lib_Network/network.c ****     {
 174:.\lib_Network/network.c ****         result = NO_WRITE;
 568              		.loc 1 174 0
 569 000e 0023     		mov	r3, #0
 570 0010 7B60     		str	r3, [r7, #4]
 571 0012 01E0     		b	.L32
 572              	.L31:
 175:.\lib_Network/network.c ****     }else
 176:.\lib_Network/network.c ****     {
 177:.\lib_Network/network.c ****         result = WRITE_OK;
 573              		.loc 1 177 0
 574 0014 0123     		mov	r3, #1
 575 0016 7B60     		str	r3, [r7, #4]
 576              	.L32:
 178:.\lib_Network/network.c ****     }
 179:.\lib_Network/network.c ****     
 180:.\lib_Network/network.c ****     return result;
 577              		.loc 1 180 0
 578 0018 7B68     		ldr	r3, [r7, #4]
 181:.\lib_Network/network.c **** }
 579              		.loc 1 181 0
 580 001a 181C     		mov	r0, r3
 581 001c BD46     		mov	sp, r7
 582 001e 02B0     		add	sp, sp, #8
 583              		@ sp needed
 584 0020 80BD     		pop	{r7, pc}
 585              	.L35:
 586 0022 C046     		.align	2
 587              	.L34:
 588 0024 00000000 		.word	outData
 589              		.cfi_endproc
 590              	.LFE69:
 591              		.size	FinWriteInDB, .-FinWriteInDB
 592              		.section	.rodata
 593 0062 0000     		.align	2
 594              	.LC27:
 595 0064 0A0D7432 		.ascii	"\012\015t2= %u:%u\012\015\000"
ARM GAS  C:\Users\Petro\AppData\Local\Temp\cctyLdqT.s 			page 15


 595      3D202575 
 595      3A25750A 
 595      0D00
 596 0072 0000     		.align	2
 597              	.LC29:
 598 0074 53746172 		.ascii	"Start i= %u, noConnect= %u\012\015\000"
 598      7420693D 
 598      2025752C 
 598      206E6F43 
 598      6F6E6E65 
 599 0091 000000   		.align	2
 600              	.LC31:
 601 0094 0A0D6561 		.ascii	"\012\015eal time is= %u:%u\012\015\000"
 601      6C207469 
 601      6D652069 
 601      733D2025 
 601      753A2575 
 602              		.section	.text.NTPsync,"ax",%progbits
 603              		.align	2
 604              		.global	NTPsync
 605              		.code	16
 606              		.thumb_func
 607              		.type	NTPsync, %function
 608              	NTPsync:
 609              	.LFB70:
 182:.\lib_Network/network.c **** 
 183:.\lib_Network/network.c **** 
 184:.\lib_Network/network.c **** uint32_t NTPsync(void)
 185:.\lib_Network/network.c **** {
 610              		.loc 1 185 0
 611              		.cfi_startproc
 612 0000 90B5     		push	{r4, r7, lr}
 613              		.cfi_def_cfa_offset 12
 614              		.cfi_offset 4, -12
 615              		.cfi_offset 7, -8
 616              		.cfi_offset 14, -4
 617 0002 A5B0     		sub	sp, sp, #148
 618              		.cfi_def_cfa_offset 160
 619 0004 02AF     		add	r7, sp, #8
 620              		.cfi_def_cfa 7, 152
 186:.\lib_Network/network.c ****     int i;
 187:.\lib_Network/network.c ****     uint16_t result;
 188:.\lib_Network/network.c ****     uint32_t IDreceivePacket;
 189:.\lib_Network/network.c ****     uint32_t lastIDpacket;
 190:.\lib_Network/network.c ****     uint32_t unixTime[2];
 191:.\lib_Network/network.c ****     uint16_t millisTime[2];
 192:.\lib_Network/network.c ****     uint32_t resultReceive;
 193:.\lib_Network/network.c ****     uint32_t noConnect;
 194:.\lib_Network/network.c ****     
 195:.\lib_Network/network.c **** 
 196:.\lib_Network/network.c ****     noConnect = 0;
 621              		.loc 1 196 0
 622 0006 0023     		mov	r3, #0
 623 0008 BB67     		str	r3, [r7, #120]
 197:.\lib_Network/network.c ****     lastIDpacket = 0xff;
 624              		.loc 1 197 0
 625 000a FF23     		mov	r3, #255
ARM GAS  C:\Users\Petro\AppData\Local\Temp\cctyLdqT.s 			page 16


 626 000c FB67     		str	r3, [r7, #124]
 198:.\lib_Network/network.c ****     #ifdef DEBUG_PC 
 199:.\lib_Network/network.c ****         char buffer[100];
 200:.\lib_Network/network.c ****     #endif
 201:.\lib_Network/network.c ****     
 202:.\lib_Network/network.c ****     for(i=0; (i < NUM_TRY_SYNC) && (noConnect <= NUM_CONNECT_ATTEMPS) ;)// && (IDreceivePacket != l
 627              		.loc 1 202 0
 628 000e 0023     		mov	r3, #0
 629 0010 8422     		mov	r2, #132
 630 0012 BA18     		add	r2, r7, r2
 631 0014 1360     		str	r3, [r2]
 632 0016 7BE0     		b	.L37
 633              	.L42:
 203:.\lib_Network/network.c ****     {      
 204:.\lib_Network/network.c ****         /*receive time from start*/
 205:.\lib_Network/network.c ****         resultReceive = NTPreceiveTime(&unixTime[T2],&millisTime[T2], &IDreceivePacket, !SAVE_TIME)
 634              		.loc 1 205 0
 635 0018 6823     		mov	r3, #104
 636 001a F918     		add	r1, r7, r3
 637 001c 6423     		mov	r3, #100
 638 001e FA18     		add	r2, r7, r3
 639 0020 7023     		mov	r3, #112
 640 0022 FB18     		add	r3, r7, r3
 641 0024 081C     		mov	r0, r1
 642 0026 111C     		mov	r1, r2
 643 0028 1A1C     		mov	r2, r3
 644 002a 0023     		mov	r3, #0
 645 002c FFF7FEFF 		bl	NTPreceiveTime
 646 0030 031C     		mov	r3, r0
 647 0032 7B67     		str	r3, [r7, #116]
 206:.\lib_Network/network.c ****         
 207:.\lib_Network/network.c ****         #ifdef DEBUG_PC 
 208:.\lib_Network/network.c ****         if(resultReceive == READ_OK)
 648              		.loc 1 208 0
 649 0034 7B6F     		ldr	r3, [r7, #116]
 650 0036 012B     		cmp	r3, #1
 651 0038 11D1     		bne	.L38
 209:.\lib_Network/network.c ****         {
 210:.\lib_Network/network.c ****             sprintf(buffer,"\n\rt2= %u:%u\n\r",unixTime[T2],millisTime[T2]);
 652              		.loc 1 210 0
 653 003a 6823     		mov	r3, #104
 654 003c FB18     		add	r3, r7, r3
 655 003e 1A68     		ldr	r2, [r3]
 656 0040 6423     		mov	r3, #100
 657 0042 FB18     		add	r3, r7, r3
 658 0044 1B88     		ldrh	r3, [r3]
 659 0046 1C1C     		mov	r4, r3
 660 0048 391C     		mov	r1, r7
 661 004a 514B     		ldr	r3, .L47
 662 004c 081C     		mov	r0, r1
 663 004e 191C     		mov	r1, r3
 664 0050 231C     		mov	r3, r4
 665 0052 FFF7FEFF 		bl	sprintf
 211:.\lib_Network/network.c ****             SW_UART_DEBUG_PutString(buffer);
 666              		.loc 1 211 0
 667 0056 3B1C     		mov	r3, r7
 668 0058 181C     		mov	r0, r3
ARM GAS  C:\Users\Petro\AppData\Local\Temp\cctyLdqT.s 			page 17


 669 005a FFF7FEFF 		bl	SW_UART_DEBUG_PutString
 670              	.L38:
 212:.\lib_Network/network.c ****         }
 213:.\lib_Network/network.c ****         sprintf(buffer,"Start i= %u, noConnect= %u\n\r",i,noConnect);
 671              		.loc 1 213 0
 672 005e 381C     		mov	r0, r7
 673 0060 4C49     		ldr	r1, .L47+4
 674 0062 8423     		mov	r3, #132
 675 0064 FB18     		add	r3, r7, r3
 676 0066 1A68     		ldr	r2, [r3]
 677 0068 BB6F     		ldr	r3, [r7, #120]
 678 006a FFF7FEFF 		bl	sprintf
 214:.\lib_Network/network.c ****         SW_UART_DEBUG_PutString(buffer);
 679              		.loc 1 214 0
 680 006e 3B1C     		mov	r3, r7
 681 0070 181C     		mov	r0, r3
 682 0072 FFF7FEFF 		bl	SW_UART_DEBUG_PutString
 215:.\lib_Network/network.c ****         #endif
 216:.\lib_Network/network.c ****         
 217:.\lib_Network/network.c ****         if(resultReceive == READ_OK)
 683              		.loc 1 217 0
 684 0076 7B6F     		ldr	r3, [r7, #116]
 685 0078 012B     		cmp	r3, #1
 686 007a 41D1     		bne	.L39
 218:.\lib_Network/network.c ****         {
 219:.\lib_Network/network.c ****             /*send real time to start*/
 220:.\lib_Network/network.c ****             unixTime[T3] = RTCGetUnixTime();
 687              		.loc 1 220 0
 688 007c FFF7FEFF 		bl	RTCGetUnixTime
 689 0080 031C     		mov	r3, r0
 690 0082 0C1C     		mov	r4, r1
 691 0084 1A1C     		mov	r2, r3
 692 0086 6823     		mov	r3, #104
 693 0088 FB18     		add	r3, r7, r3
 694 008a 5A60     		str	r2, [r3, #4]
 221:.\lib_Network/network.c ****             millisTime[T3] = RTCgetRecentMs();
 695              		.loc 1 221 0
 696 008c FFF7FEFF 		bl	RTCgetRecentMs
 697 0090 031C     		mov	r3, r0
 698 0092 9AB2     		uxth	r2, r3
 699 0094 6423     		mov	r3, #100
 700 0096 FB18     		add	r3, r7, r3
 701 0098 5A80     		strh	r2, [r3, #2]
 222:.\lib_Network/network.c ****             NTPsendTime(unixTime[T2], unixTime[T3], millisTime[T2], millisTime[T3], IDreceivePacket
 702              		.loc 1 222 0
 703 009a 6823     		mov	r3, #104
 704 009c FB18     		add	r3, r7, r3
 705 009e 1868     		ldr	r0, [r3]
 706 00a0 6823     		mov	r3, #104
 707 00a2 FB18     		add	r3, r7, r3
 708 00a4 5968     		ldr	r1, [r3, #4]
 709 00a6 6423     		mov	r3, #100
 710 00a8 FB18     		add	r3, r7, r3
 711 00aa 1A88     		ldrh	r2, [r3]
 712 00ac 6423     		mov	r3, #100
 713 00ae FB18     		add	r3, r7, r3
 714 00b0 5C88     		ldrh	r4, [r3, #2]
ARM GAS  C:\Users\Petro\AppData\Local\Temp\cctyLdqT.s 			page 18


 715 00b2 3B6F     		ldr	r3, [r7, #112]
 716 00b4 0093     		str	r3, [sp]
 717 00b6 231C     		mov	r3, r4
 718 00b8 FFF7FEFF 		bl	NTPsendTime
 223:.\lib_Network/network.c **** 
 224:.\lib_Network/network.c ****             #ifdef DEBUG_PC 
 225:.\lib_Network/network.c ****             sprintf(buffer,"\n\real time is= %u:%u\n\r",unixTime[T3],millisTime[T3]);
 719              		.loc 1 225 0
 720 00bc 6823     		mov	r3, #104
 721 00be FB18     		add	r3, r7, r3
 722 00c0 5A68     		ldr	r2, [r3, #4]
 723 00c2 6423     		mov	r3, #100
 724 00c4 FB18     		add	r3, r7, r3
 725 00c6 5B88     		ldrh	r3, [r3, #2]
 726 00c8 1C1C     		mov	r4, r3
 727 00ca 391C     		mov	r1, r7
 728 00cc 324B     		ldr	r3, .L47+8
 729 00ce 081C     		mov	r0, r1
 730 00d0 191C     		mov	r1, r3
 731 00d2 231C     		mov	r3, r4
 732 00d4 FFF7FEFF 		bl	sprintf
 226:.\lib_Network/network.c ****             SW_UART_DEBUG_PutString(buffer);
 733              		.loc 1 226 0
 734 00d8 3B1C     		mov	r3, r7
 735 00da 181C     		mov	r0, r3
 736 00dc FFF7FEFF 		bl	SW_UART_DEBUG_PutString
 227:.\lib_Network/network.c ****             #endif
 228:.\lib_Network/network.c ****             noConnect=0;
 737              		.loc 1 228 0
 738 00e0 0023     		mov	r3, #0
 739 00e2 BB67     		str	r3, [r7, #120]
 229:.\lib_Network/network.c ****             if(lastIDpacket != IDreceivePacket)
 740              		.loc 1 229 0
 741 00e4 3B6F     		ldr	r3, [r7, #112]
 742 00e6 FA6F     		ldr	r2, [r7, #124]
 743 00e8 9A42     		cmp	r2, r3
 744 00ea 11D0     		beq	.L37
 230:.\lib_Network/network.c ****             {
 231:.\lib_Network/network.c ****                 lastIDpacket = IDreceivePacket;
 745              		.loc 1 231 0
 746 00ec 3B6F     		ldr	r3, [r7, #112]
 747 00ee FB67     		str	r3, [r7, #124]
 232:.\lib_Network/network.c ****                 i++;
 748              		.loc 1 232 0
 749 00f0 8423     		mov	r3, #132
 750 00f2 FB18     		add	r3, r7, r3
 751 00f4 1B68     		ldr	r3, [r3]
 752 00f6 0133     		add	r3, r3, #1
 753 00f8 8422     		mov	r2, #132
 754 00fa BA18     		add	r2, r7, r2
 755 00fc 1360     		str	r3, [r2]
 756 00fe 07E0     		b	.L37
 757              	.L39:
 233:.\lib_Network/network.c ****             }
 234:.\lib_Network/network.c ****             
 235:.\lib_Network/network.c ****         }else 
 236:.\lib_Network/network.c ****         {
ARM GAS  C:\Users\Petro\AppData\Local\Temp\cctyLdqT.s 			page 19


 237:.\lib_Network/network.c ****             noConnect++;
 758              		.loc 1 237 0
 759 0100 BB6F     		ldr	r3, [r7, #120]
 760 0102 0133     		add	r3, r3, #1
 761 0104 BB67     		str	r3, [r7, #120]
 238:.\lib_Network/network.c ****             
 239:.\lib_Network/network.c ****             #ifdef DEBUG_PC
 240:.\lib_Network/network.c ****             CyDelay(1000);
 762              		.loc 1 240 0
 763 0106 FA23     		mov	r3, #250
 764 0108 9B00     		lsl	r3, r3, #2
 765 010a 181C     		mov	r0, r3
 766 010c FFF7FEFF 		bl	CyDelay
 767              	.L37:
 202:.\lib_Network/network.c ****     {      
 768              		.loc 1 202 0 discriminator 1
 769 0110 8423     		mov	r3, #132
 770 0112 FB18     		add	r3, r7, r3
 771 0114 1B68     		ldr	r3, [r3]
 772 0116 092B     		cmp	r3, #9
 773 0118 03DC     		bgt	.L41
 202:.\lib_Network/network.c ****     {      
 774              		.loc 1 202 0 is_stmt 0 discriminator 2
 775 011a BB6F     		ldr	r3, [r7, #120]
 776 011c 142B     		cmp	r3, #20
 777 011e 00D8     		bhi	.LCB613
 778 0120 7AE7     		b	.L42	@long jump
 779              	.LCB613:
 780              	.L41:
 241:.\lib_Network/network.c ****             #endif
 242:.\lib_Network/network.c ****         }
 243:.\lib_Network/network.c ****     }
 244:.\lib_Network/network.c ****     
 245:.\lib_Network/network.c ****     
 246:.\lib_Network/network.c ****     if(noConnect >= NUM_CONNECT_ATTEMPS)
 781              		.loc 1 246 0 is_stmt 1
 782 0122 BB6F     		ldr	r3, [r7, #120]
 783 0124 132B     		cmp	r3, #19
 784 0126 04D9     		bls	.L43
 247:.\lib_Network/network.c ****     {
 248:.\lib_Network/network.c ****         result = TIME_SYNC_ERR;
 785              		.loc 1 248 0
 786 0128 8223     		mov	r3, #130
 787 012a FB18     		add	r3, r7, r3
 788 012c 0122     		mov	r2, #1
 789 012e 1A80     		strh	r2, [r3]
 790 0130 26E0     		b	.L44
 791              	.L43:
 249:.\lib_Network/network.c ****     }else
 250:.\lib_Network/network.c ****     {
 251:.\lib_Network/network.c ****         /*write time and ms in rtc*/
 252:.\lib_Network/network.c ****         resultReceive = NTPreceiveTime(&unixTime[T2],&millisTime[T2], &IDreceivePacket, SAVE_TIME);
 792              		.loc 1 252 0
 793 0132 6823     		mov	r3, #104
 794 0134 F918     		add	r1, r7, r3
 795 0136 6423     		mov	r3, #100
 796 0138 FA18     		add	r2, r7, r3
ARM GAS  C:\Users\Petro\AppData\Local\Temp\cctyLdqT.s 			page 20


 797 013a 7023     		mov	r3, #112
 798 013c FB18     		add	r3, r7, r3
 799 013e 081C     		mov	r0, r1
 800 0140 111C     		mov	r1, r2
 801 0142 1A1C     		mov	r2, r3
 802 0144 0123     		mov	r3, #1
 803 0146 FFF7FEFF 		bl	NTPreceiveTime
 804 014a 031C     		mov	r3, r0
 805 014c 7B67     		str	r3, [r7, #116]
 253:.\lib_Network/network.c ****         if(resultReceive == READ_OK)
 806              		.loc 1 253 0
 807 014e 7B6F     		ldr	r3, [r7, #116]
 808 0150 012B     		cmp	r3, #1
 809 0152 09D1     		bne	.L45
 254:.\lib_Network/network.c ****         {
 255:.\lib_Network/network.c ****              RTCSync(unixTime[T2], millisTime[T2]);
 810              		.loc 1 255 0
 811 0154 6823     		mov	r3, #104
 812 0156 FB18     		add	r3, r7, r3
 813 0158 1A68     		ldr	r2, [r3]
 814 015a 6423     		mov	r3, #100
 815 015c FB18     		add	r3, r7, r3
 816 015e 1B88     		ldrh	r3, [r3]
 817 0160 101C     		mov	r0, r2
 818 0162 191C     		mov	r1, r3
 819 0164 FFF7FEFF 		bl	RTCSync
 820              	.L45:
 256:.\lib_Network/network.c ****         }
 257:.\lib_Network/network.c ****         NTPsendTime(0,0,0,0,IDreceivePacket);
 821              		.loc 1 257 0
 822 0168 3B6F     		ldr	r3, [r7, #112]
 823 016a 0093     		str	r3, [sp]
 824 016c 0020     		mov	r0, #0
 825 016e 0021     		mov	r1, #0
 826 0170 0022     		mov	r2, #0
 827 0172 0023     		mov	r3, #0
 828 0174 FFF7FEFF 		bl	NTPsendTime
 258:.\lib_Network/network.c ****         
 259:.\lib_Network/network.c ****         result = TIME_SYNC_OK;
 829              		.loc 1 259 0
 830 0178 8223     		mov	r3, #130
 831 017a FB18     		add	r3, r7, r3
 832 017c 0022     		mov	r2, #0
 833 017e 1A80     		strh	r2, [r3]
 834              	.L44:
 260:.\lib_Network/network.c ****     }
 261:.\lib_Network/network.c ****     return result;
 835              		.loc 1 261 0
 836 0180 8223     		mov	r3, #130
 837 0182 FB18     		add	r3, r7, r3
 838 0184 1B88     		ldrh	r3, [r3]
 262:.\lib_Network/network.c **** }
 839              		.loc 1 262 0
 840 0186 181C     		mov	r0, r3
 841 0188 BD46     		mov	sp, r7
 842 018a 23B0     		add	sp, sp, #140
 843              		@ sp needed
ARM GAS  C:\Users\Petro\AppData\Local\Temp\cctyLdqT.s 			page 21


 844 018c 90BD     		pop	{r4, r7, pc}
 845              	.L48:
 846 018e C046     		.align	2
 847              	.L47:
 848 0190 64000000 		.word	.LC27
 849 0194 74000000 		.word	.LC29
 850 0198 94000000 		.word	.LC31
 851              		.cfi_endproc
 852              	.LFE70:
 853              		.size	NTPsync, .-NTPsync
 854              		.section	.text.NTPreceiveTime,"ax",%progbits
 855              		.align	2
 856              		.code	16
 857              		.thumb_func
 858              		.type	NTPreceiveTime, %function
 859              	NTPreceiveTime:
 860              	.LFB71:
 263:.\lib_Network/network.c **** 
 264:.\lib_Network/network.c **** 
 265:.\lib_Network/network.c **** static uint32_t NTPreceiveTime(uint32_t *unixTime2,uint16_t *millisTime2, uint32_t *IDreceive,uint3
 266:.\lib_Network/network.c **** {
 861              		.loc 1 266 0
 862              		.cfi_startproc
 863 0000 90B5     		push	{r4, r7, lr}
 864              		.cfi_def_cfa_offset 12
 865              		.cfi_offset 4, -12
 866              		.cfi_offset 7, -8
 867              		.cfi_offset 14, -4
 868 0002 8DB0     		sub	sp, sp, #52
 869              		.cfi_def_cfa_offset 64
 870 0004 00AF     		add	r7, sp, #0
 871              		.cfi_def_cfa_register 7
 872 0006 F860     		str	r0, [r7, #12]
 873 0008 B960     		str	r1, [r7, #8]
 874 000a 7A60     		str	r2, [r7, #4]
 875 000c 3B60     		str	r3, [r7]
 267:.\lib_Network/network.c ****     uint8_t byte;
 268:.\lib_Network/network.c ****     uint32_t result;
 269:.\lib_Network/network.c ****     /*debug*/
 270:.\lib_Network/network.c ****     result = READ_OK;
 876              		.loc 1 270 0
 877 000e 0123     		mov	r3, #1
 878 0010 FB62     		str	r3, [r7, #44]
 271:.\lib_Network/network.c ****     
 272:.\lib_Network/network.c ****     NTPResp recvDataNTP;
 273:.\lib_Network/network.c ****     while((UART_XB_SpiUartGetRxBufferSize() > 0) && ((byte=UART_XB_UartGetChar()) != 0))
 879              		.loc 1 273 0
 880 0012 3AE0     		b	.L50
 881              	.L56:
 274:.\lib_Network/network.c ****     {
 275:.\lib_Network/network.c ****         result = NtpUnpackData(&recvDataNTP, (uint8_t)(byte & 0xFF));
 882              		.loc 1 275 0
 883 0014 1423     		mov	r3, #20
 884 0016 FA18     		add	r2, r7, r3
 885 0018 2B23     		mov	r3, #43
 886 001a FB18     		add	r3, r7, r3
 887 001c 1B78     		ldrb	r3, [r3]
ARM GAS  C:\Users\Petro\AppData\Local\Temp\cctyLdqT.s 			page 22


 888 001e 101C     		mov	r0, r2
 889 0020 191C     		mov	r1, r3
 890 0022 FFF7FEFF 		bl	NtpUnpackData
 891 0026 031C     		mov	r3, r0
 892 0028 FB62     		str	r3, [r7, #44]
 276:.\lib_Network/network.c ****         
 277:.\lib_Network/network.c ****         #ifdef DEBUG_PC
 278:.\lib_Network/network.c ****         SW_UART_DEBUG_PutChar(byte);
 893              		.loc 1 278 0
 894 002a 2B23     		mov	r3, #43
 895 002c FB18     		add	r3, r7, r3
 896 002e 1B78     		ldrb	r3, [r3]
 897 0030 181C     		mov	r0, r3
 898 0032 FFF7FEFF 		bl	SW_UART_DEBUG_PutChar
 279:.\lib_Network/network.c ****         #endif
 280:.\lib_Network/network.c ****                     
 281:.\lib_Network/network.c ****         if(recvDataNTP.EndPacket == 1)
 899              		.loc 1 281 0
 900 0036 1423     		mov	r3, #20
 901 0038 FB18     		add	r3, r7, r3
 902 003a 1B7C     		ldrb	r3, [r3, #16]
 903 003c 012B     		cmp	r3, #1
 904 003e 22D1     		bne	.L51
 282:.\lib_Network/network.c ****         {
 283:.\lib_Network/network.c ****             /*save unix time*/
 284:.\lib_Network/network.c ****             
 285:.\lib_Network/network.c ****             *IDreceive = recvDataNTP.Id;
 905              		.loc 1 285 0
 906 0040 1423     		mov	r3, #20
 907 0042 FB18     		add	r3, r7, r3
 908 0044 1B88     		ldrh	r3, [r3]
 909 0046 1A1C     		mov	r2, r3
 910 0048 7B68     		ldr	r3, [r7, #4]
 911 004a 1A60     		str	r2, [r3]
 286:.\lib_Network/network.c ****             if(saveTime == SAVE_TIME)
 912              		.loc 1 286 0
 913 004c 3B68     		ldr	r3, [r7]
 914 004e 012B     		cmp	r3, #1
 915 0050 0AD1     		bne	.L52
 287:.\lib_Network/network.c ****             {
 288:.\lib_Network/network.c ****                 *unixTime2 = recvDataNTP.Data1;
 916              		.loc 1 288 0
 917 0052 1423     		mov	r3, #20
 918 0054 FB18     		add	r3, r7, r3
 919 0056 5A68     		ldr	r2, [r3, #4]
 920 0058 FB68     		ldr	r3, [r7, #12]
 921 005a 1A60     		str	r2, [r3]
 289:.\lib_Network/network.c ****                 *millisTime2 = recvDataNTP.DataMs1;
 922              		.loc 1 289 0
 923 005c 1423     		mov	r3, #20
 924 005e FB18     		add	r3, r7, r3
 925 0060 1A89     		ldrh	r2, [r3, #8]
 926 0062 BB68     		ldr	r3, [r7, #8]
 927 0064 1A80     		strh	r2, [r3]
 928 0066 0CE0     		b	.L53
 929              	.L52:
 290:.\lib_Network/network.c ****             }else
ARM GAS  C:\Users\Petro\AppData\Local\Temp\cctyLdqT.s 			page 23


 291:.\lib_Network/network.c ****             {
 292:.\lib_Network/network.c ****                 *unixTime2 = RTCGetUnixTime();
 930              		.loc 1 292 0
 931 0068 FFF7FEFF 		bl	RTCGetUnixTime
 932 006c 031C     		mov	r3, r0
 933 006e 0C1C     		mov	r4, r1
 934 0070 1A1C     		mov	r2, r3
 935 0072 FB68     		ldr	r3, [r7, #12]
 936 0074 1A60     		str	r2, [r3]
 293:.\lib_Network/network.c ****                 *millisTime2 = RTCgetRecentMs();
 937              		.loc 1 293 0
 938 0076 FFF7FEFF 		bl	RTCgetRecentMs
 939 007a 031C     		mov	r3, r0
 940 007c 9AB2     		uxth	r2, r3
 941 007e BB68     		ldr	r3, [r7, #8]
 942 0080 1A80     		strh	r2, [r3]
 943              	.L53:
 294:.\lib_Network/network.c ****             }
 295:.\lib_Network/network.c ****            
 296:.\lib_Network/network.c ****             return READ_OK;
 944              		.loc 1 296 0
 945 0082 0123     		mov	r3, #1
 946 0084 13E0     		b	.L57
 947              	.L51:
 297:.\lib_Network/network.c ****         }
 298:.\lib_Network/network.c ****         result = NO_READ;
 948              		.loc 1 298 0
 949 0086 0023     		mov	r3, #0
 950 0088 FB62     		str	r3, [r7, #44]
 951              	.L50:
 273:.\lib_Network/network.c ****     {
 952              		.loc 1 273 0
 953 008a FFF7FEFF 		bl	UART_XB_SpiUartGetRxBufferSize
 954 008e 031E     		sub	r3, r0, #0
 955 0090 0AD0     		beq	.L55
 273:.\lib_Network/network.c ****     {
 956              		.loc 1 273 0 is_stmt 0 discriminator 1
 957 0092 FFF7FEFF 		bl	UART_XB_UartGetChar
 958 0096 021C     		mov	r2, r0
 959 0098 2B23     		mov	r3, #43
 960 009a FB18     		add	r3, r7, r3
 961 009c 1A70     		strb	r2, [r3]
 962 009e 2B23     		mov	r3, #43
 963 00a0 FB18     		add	r3, r7, r3
 964 00a2 1B78     		ldrb	r3, [r3]
 965 00a4 002B     		cmp	r3, #0
 966 00a6 B5D1     		bne	.L56
 967              	.L55:
 299:.\lib_Network/network.c ****     }
 300:.\lib_Network/network.c ****     result = NO_READ;
 968              		.loc 1 300 0 is_stmt 1
 969 00a8 0023     		mov	r3, #0
 970 00aa FB62     		str	r3, [r7, #44]
 301:.\lib_Network/network.c ****     
 302:.\lib_Network/network.c ****     return result;
 971              		.loc 1 302 0
 972 00ac FB6A     		ldr	r3, [r7, #44]
ARM GAS  C:\Users\Petro\AppData\Local\Temp\cctyLdqT.s 			page 24


 973              	.L57:
 303:.\lib_Network/network.c **** }
 974              		.loc 1 303 0 discriminator 1
 975 00ae 181C     		mov	r0, r3
 976 00b0 BD46     		mov	sp, r7
 977 00b2 0DB0     		add	sp, sp, #52
 978              		@ sp needed
 979 00b4 90BD     		pop	{r4, r7, pc}
 980              		.cfi_endproc
 981              	.LFE71:
 982              		.size	NTPreceiveTime, .-NTPreceiveTime
 983 00b6 C046     		.section	.rodata
 984 00ab 00       		.align	2
 985              	.LC33:
 986 00ac 25303858 		.ascii	"%08X%03X%08X%03X\000"
 986      25303358 
 986      25303858 
 986      25303358 
 986      00
 987 00bd 000000   		.section	.text.NTPsendTime,"ax",%progbits
 988              		.align	2
 989              		.code	16
 990              		.thumb_func
 991              		.type	NTPsendTime, %function
 992              	NTPsendTime:
 993              	.LFB72:
 304:.\lib_Network/network.c **** 
 305:.\lib_Network/network.c **** static void NTPsendTime(uint32_t unixTime2,uint32_t unixTime3,uint16_t millis2,uint16_t millis3, ui
 306:.\lib_Network/network.c **** {
 994              		.loc 1 306 0
 995              		.cfi_startproc
 996 0000 B0B5     		push	{r4, r5, r7, lr}
 997              		.cfi_def_cfa_offset 16
 998              		.cfi_offset 4, -16
 999              		.cfi_offset 5, -12
 1000              		.cfi_offset 7, -8
 1001              		.cfi_offset 14, -4
 1002 0002 A0B0     		sub	sp, sp, #128
 1003              		.cfi_def_cfa_offset 144
 1004 0004 02AF     		add	r7, sp, #8
 1005              		.cfi_def_cfa 7, 136
 1006 0006 F860     		str	r0, [r7, #12]
 1007 0008 B960     		str	r1, [r7, #8]
 1008 000a 191C     		mov	r1, r3
 1009 000c BB1D     		add	r3, r7, #6
 1010 000e 1A80     		strh	r2, [r3]
 1011 0010 3B1D     		add	r3, r7, #4
 1012 0012 0A1C     		add	r2, r1, #0
 1013 0014 1A80     		strh	r2, [r3]
 307:.\lib_Network/network.c ****     char sendBuffer[DATA_BUFFER];
 308:.\lib_Network/network.c ****     char sendData[DATA_BUFFER];
 309:.\lib_Network/network.c ****     
 310:.\lib_Network/network.c ****     /*pack data*/
 311:.\lib_Network/network.c ****     sprintf(sendData,"%08X%03X%08X%03X", unixTime2, millis2, unixTime3, millis3); 
 1014              		.loc 1 311 0
 1015 0016 BB1D     		add	r3, r7, #6
 1016 0018 1C88     		ldrh	r4, [r3]
ARM GAS  C:\Users\Petro\AppData\Local\Temp\cctyLdqT.s 			page 25


 1017 001a 3B1D     		add	r3, r7, #4
 1018 001c 1B88     		ldrh	r3, [r3]
 1019 001e 1022     		mov	r2, #16
 1020 0020 B818     		add	r0, r7, r2
 1021 0022 1149     		ldr	r1, .L59
 1022 0024 FD68     		ldr	r5, [r7, #12]
 1023 0026 BA68     		ldr	r2, [r7, #8]
 1024 0028 0092     		str	r2, [sp]
 1025 002a 0193     		str	r3, [sp, #4]
 1026 002c 2A1C     		mov	r2, r5
 1027 002e 231C     		mov	r3, r4
 1028 0030 FFF7FEFF 		bl	sprintf
 312:.\lib_Network/network.c ****     PackData(sendBuffer, (uint8_t *)sendData, ID);
 1029              		.loc 1 312 0
 1030 0034 4423     		mov	r3, #68
 1031 0036 F918     		add	r1, r7, r3
 1032 0038 1023     		mov	r3, #16
 1033 003a FA18     		add	r2, r7, r3
 1034 003c 8823     		mov	r3, #136
 1035 003e FB18     		add	r3, r7, r3
 1036 0040 1B68     		ldr	r3, [r3]
 1037 0042 081C     		mov	r0, r1
 1038 0044 111C     		mov	r1, r2
 1039 0046 1A1C     		mov	r2, r3
 1040 0048 FFF7FEFF 		bl	PackData
 313:.\lib_Network/network.c ****     UART_XB_UartPutString(sendBuffer);
 1041              		.loc 1 313 0
 1042 004c 4423     		mov	r3, #68
 1043 004e FB18     		add	r3, r7, r3
 1044 0050 181C     		mov	r0, r3
 1045 0052 FFF7FEFF 		bl	UART_XB_UartPutString
 314:.\lib_Network/network.c ****     
 315:.\lib_Network/network.c ****     #ifdef DEBUG_PC
 316:.\lib_Network/network.c ****     SW_UART_DEBUG_PutString(sendBuffer);
 1046              		.loc 1 316 0
 1047 0056 4423     		mov	r3, #68
 1048 0058 FB18     		add	r3, r7, r3
 1049 005a 181C     		mov	r0, r3
 1050 005c FFF7FEFF 		bl	SW_UART_DEBUG_PutString
 317:.\lib_Network/network.c ****     #endif
 318:.\lib_Network/network.c **** }
 1051              		.loc 1 318 0
 1052 0060 BD46     		mov	sp, r7
 1053 0062 1EB0     		add	sp, sp, #120
 1054              		@ sp needed
 1055 0064 B0BD     		pop	{r4, r5, r7, pc}
 1056              	.L60:
 1057 0066 C046     		.align	2
 1058              	.L59:
 1059 0068 AC000000 		.word	.LC33
 1060              		.cfi_endproc
 1061              	.LFE72:
 1062              		.size	NTPsendTime, .-NTPsendTime
 1063              		.text
 1064              	.Letext0:
 1065              		.file 2 "c:\\program files (x86)\\cypress\\psoc creator\\3.3\\psoc creator\\import\\gnu\\arm\\4.9.
 1066              		.file 3 "c:\\program files (x86)\\cypress\\psoc creator\\3.3\\psoc creator\\import\\gnu\\arm\\4.9.
ARM GAS  C:\Users\Petro\AppData\Local\Temp\cctyLdqT.s 			page 26


 1067              		.file 4 "./lib_Network\\svt.h"
 1068              		.file 5 "./lib_Network\\ntp.h"
 1069              		.file 6 "./lib_Network\\network.h"
 1070              		.section	.debug_info,"",%progbits
 1071              	.Ldebug_info0:
 1072 0000 64060000 		.4byte	0x664
 1073 0004 0400     		.2byte	0x4
 1074 0006 00000000 		.4byte	.Ldebug_abbrev0
 1075 000a 04       		.byte	0x4
 1076 000b 01       		.uleb128 0x1
 1077 000c A9020000 		.4byte	.LASF87
 1078 0010 01       		.byte	0x1
 1079 0011 88010000 		.4byte	.LASF88
 1080 0015 84030000 		.4byte	.LASF89
 1081 0019 00000000 		.4byte	.Ldebug_ranges0+0
 1082 001d 00000000 		.4byte	0
 1083 0021 00000000 		.4byte	.Ldebug_line0
 1084 0025 02       		.uleb128 0x2
 1085 0026 01       		.byte	0x1
 1086 0027 06       		.byte	0x6
 1087 0028 EB010000 		.4byte	.LASF0
 1088 002c 03       		.uleb128 0x3
 1089 002d A0010000 		.4byte	.LASF3
 1090 0031 02       		.byte	0x2
 1091 0032 1D       		.byte	0x1d
 1092 0033 37000000 		.4byte	0x37
 1093 0037 02       		.uleb128 0x2
 1094 0038 01       		.byte	0x1
 1095 0039 08       		.byte	0x8
 1096 003a C4010000 		.4byte	.LASF1
 1097 003e 02       		.uleb128 0x2
 1098 003f 02       		.byte	0x2
 1099 0040 05       		.byte	0x5
 1100 0041 D3000000 		.4byte	.LASF2
 1101 0045 03       		.uleb128 0x3
 1102 0046 C8000000 		.4byte	.LASF4
 1103 004a 02       		.byte	0x2
 1104 004b 2B       		.byte	0x2b
 1105 004c 50000000 		.4byte	0x50
 1106 0050 02       		.uleb128 0x2
 1107 0051 02       		.byte	0x2
 1108 0052 07       		.byte	0x7
 1109 0053 45030000 		.4byte	.LASF5
 1110 0057 02       		.uleb128 0x2
 1111 0058 04       		.byte	0x4
 1112 0059 05       		.byte	0x5
 1113 005a 53010000 		.4byte	.LASF6
 1114 005e 03       		.uleb128 0x3
 1115 005f A9000000 		.4byte	.LASF7
 1116 0063 02       		.byte	0x2
 1117 0064 41       		.byte	0x41
 1118 0065 69000000 		.4byte	0x69
 1119 0069 02       		.uleb128 0x2
 1120 006a 04       		.byte	0x4
 1121 006b 07       		.byte	0x7
 1122 006c 41020000 		.4byte	.LASF8
 1123 0070 02       		.uleb128 0x2
ARM GAS  C:\Users\Petro\AppData\Local\Temp\cctyLdqT.s 			page 27


 1124 0071 08       		.byte	0x8
 1125 0072 05       		.byte	0x5
 1126 0073 3A010000 		.4byte	.LASF9
 1127 0077 03       		.uleb128 0x3
 1128 0078 79030000 		.4byte	.LASF10
 1129 007c 02       		.byte	0x2
 1130 007d 5B       		.byte	0x5b
 1131 007e 82000000 		.4byte	0x82
 1132 0082 02       		.uleb128 0x2
 1133 0083 08       		.byte	0x8
 1134 0084 07       		.byte	0x7
 1135 0085 F7010000 		.4byte	.LASF11
 1136 0089 04       		.uleb128 0x4
 1137 008a 04       		.byte	0x4
 1138 008b 05       		.byte	0x5
 1139 008c 696E7400 		.ascii	"int\000"
 1140 0090 02       		.uleb128 0x2
 1141 0091 04       		.byte	0x4
 1142 0092 07       		.byte	0x7
 1143 0093 2D020000 		.4byte	.LASF12
 1144 0097 03       		.uleb128 0x3
 1145 0098 F3000000 		.4byte	.LASF13
 1146 009c 03       		.byte	0x3
 1147 009d 15       		.byte	0x15
 1148 009e 2C000000 		.4byte	0x2c
 1149 00a2 03       		.uleb128 0x3
 1150 00a3 91020000 		.4byte	.LASF14
 1151 00a7 03       		.byte	0x3
 1152 00a8 21       		.byte	0x21
 1153 00a9 45000000 		.4byte	0x45
 1154 00ad 03       		.uleb128 0x3
 1155 00ae 0E020000 		.4byte	.LASF15
 1156 00b2 03       		.byte	0x3
 1157 00b3 2D       		.byte	0x2d
 1158 00b4 5E000000 		.4byte	0x5e
 1159 00b8 03       		.uleb128 0x3
 1160 00b9 50000000 		.4byte	.LASF16
 1161 00bd 03       		.byte	0x3
 1162 00be 39       		.byte	0x39
 1163 00bf 77000000 		.4byte	0x77
 1164 00c3 02       		.uleb128 0x2
 1165 00c4 04       		.byte	0x4
 1166 00c5 04       		.byte	0x4
 1167 00c6 28010000 		.4byte	.LASF17
 1168 00ca 02       		.uleb128 0x2
 1169 00cb 08       		.byte	0x8
 1170 00cc 04       		.byte	0x4
 1171 00cd 03040000 		.4byte	.LASF18
 1172 00d1 02       		.uleb128 0x2
 1173 00d2 01       		.byte	0x1
 1174 00d3 08       		.byte	0x8
 1175 00d4 8C020000 		.4byte	.LASF19
 1176 00d8 02       		.uleb128 0x2
 1177 00d9 04       		.byte	0x4
 1178 00da 07       		.byte	0x7
 1179 00db 6A000000 		.4byte	.LASF20
 1180 00df 05       		.uleb128 0x5
ARM GAS  C:\Users\Petro\AppData\Local\Temp\cctyLdqT.s 			page 28


 1181 00e0 AD000000 		.4byte	0xad
 1182 00e4 EF000000 		.4byte	0xef
 1183 00e8 06       		.uleb128 0x6
 1184 00e9 D8000000 		.4byte	0xd8
 1185 00ed 01       		.byte	0x1
 1186 00ee 00       		.byte	0
 1187 00ef 07       		.uleb128 0x7
 1188 00f0 64010000 		.4byte	.LASF90
 1189 00f4 20       		.byte	0x20
 1190 00f5 04       		.byte	0x4
 1191 00f6 0E       		.byte	0xe
 1192 00f7 50010000 		.4byte	0x150
 1193 00fb 08       		.uleb128 0x8
 1194 00fc 53657100 		.ascii	"Seq\000"
 1195 0100 04       		.byte	0x4
 1196 0101 10       		.byte	0x10
 1197 0102 A2000000 		.4byte	0xa2
 1198 0106 00       		.byte	0
 1199 0107 09       		.uleb128 0x9
 1200 0108 71020000 		.4byte	.LASF21
 1201 010c 04       		.byte	0x4
 1202 010d 11       		.byte	0x11
 1203 010e 89000000 		.4byte	0x89
 1204 0112 04       		.byte	0x4
 1205 0113 09       		.uleb128 0x9
 1206 0114 6D030000 		.4byte	.LASF22
 1207 0118 04       		.byte	0x4
 1208 0119 12       		.byte	0x12
 1209 011a B8000000 		.4byte	0xb8
 1210 011e 08       		.byte	0x8
 1211 011f 09       		.uleb128 0x9
 1212 0120 73030000 		.4byte	.LASF23
 1213 0124 04       		.byte	0x4
 1214 0125 13       		.byte	0x13
 1215 0126 A2000000 		.4byte	0xa2
 1216 012a 10       		.byte	0x10
 1217 012b 09       		.uleb128 0x9
 1218 012c 3A040000 		.4byte	.LASF24
 1219 0130 04       		.byte	0x4
 1220 0131 14       		.byte	0x14
 1221 0132 97000000 		.4byte	0x97
 1222 0136 12       		.byte	0x12
 1223 0137 09       		.uleb128 0x9
 1224 0138 BB010000 		.4byte	.LASF25
 1225 013c 04       		.byte	0x4
 1226 013d 15       		.byte	0x15
 1227 013e AD000000 		.4byte	0xad
 1228 0142 14       		.byte	0x14
 1229 0143 09       		.uleb128 0x9
 1230 0144 56040000 		.4byte	.LASF26
 1231 0148 04       		.byte	0x4
 1232 0149 16       		.byte	0x16
 1233 014a 97000000 		.4byte	0x97
 1234 014e 18       		.byte	0x18
 1235 014f 00       		.byte	0
 1236 0150 0A       		.uleb128 0xa
 1237 0151 14       		.byte	0x14
ARM GAS  C:\Users\Petro\AppData\Local\Temp\cctyLdqT.s 			page 29


 1238 0152 05       		.byte	0x5
 1239 0153 07       		.byte	0x7
 1240 0154 94010000 		.4byte	0x194
 1241 0158 08       		.uleb128 0x8
 1242 0159 496400   		.ascii	"Id\000"
 1243 015c 05       		.byte	0x5
 1244 015d 09       		.byte	0x9
 1245 015e A2000000 		.4byte	0xa2
 1246 0162 00       		.byte	0
 1247 0163 09       		.uleb128 0x9
 1248 0164 6D030000 		.4byte	.LASF22
 1249 0168 05       		.byte	0x5
 1250 0169 0A       		.byte	0xa
 1251 016a AD000000 		.4byte	0xad
 1252 016e 04       		.byte	0x4
 1253 016f 09       		.uleb128 0x9
 1254 0170 1F000000 		.4byte	.LASF27
 1255 0174 05       		.byte	0x5
 1256 0175 0B       		.byte	0xb
 1257 0176 A2000000 		.4byte	0xa2
 1258 017a 08       		.byte	0x8
 1259 017b 09       		.uleb128 0x9
 1260 017c BB010000 		.4byte	.LASF25
 1261 0180 05       		.byte	0x5
 1262 0181 0C       		.byte	0xc
 1263 0182 AD000000 		.4byte	0xad
 1264 0186 0C       		.byte	0xc
 1265 0187 09       		.uleb128 0x9
 1266 0188 56040000 		.4byte	.LASF26
 1267 018c 05       		.byte	0x5
 1268 018d 0D       		.byte	0xd
 1269 018e 97000000 		.4byte	0x97
 1270 0192 10       		.byte	0x10
 1271 0193 00       		.byte	0
 1272 0194 03       		.uleb128 0x3
 1273 0195 07000000 		.4byte	.LASF28
 1274 0199 05       		.byte	0x5
 1275 019a 0E       		.byte	0xe
 1276 019b 50010000 		.4byte	0x150
 1277 019f 0A       		.uleb128 0xa
 1278 01a0 18       		.byte	0x18
 1279 01a1 06       		.byte	0x6
 1280 01a2 49       		.byte	0x49
 1281 01a3 FC010000 		.4byte	0x1fc
 1282 01a7 09       		.uleb128 0x9
 1283 01a8 68020000 		.4byte	.LASF29
 1284 01ac 06       		.byte	0x6
 1285 01ad 4B       		.byte	0x4b
 1286 01ae 97000000 		.4byte	0x97
 1287 01b2 00       		.byte	0
 1288 01b3 09       		.uleb128 0x9
 1289 01b4 A3020000 		.4byte	.LASF30
 1290 01b8 06       		.byte	0x6
 1291 01b9 4C       		.byte	0x4c
 1292 01ba 97000000 		.4byte	0x97
 1293 01be 01       		.byte	0x1
 1294 01bf 09       		.uleb128 0x9
ARM GAS  C:\Users\Petro\AppData\Local\Temp\cctyLdqT.s 			page 30


 1295 01c0 63000000 		.4byte	.LASF31
 1296 01c4 06       		.byte	0x6
 1297 01c5 4D       		.byte	0x4d
 1298 01c6 97000000 		.4byte	0x97
 1299 01ca 02       		.byte	0x2
 1300 01cb 09       		.uleb128 0x9
 1301 01cc 83040000 		.4byte	.LASF32
 1302 01d0 06       		.byte	0x6
 1303 01d1 4E       		.byte	0x4e
 1304 01d2 97000000 		.4byte	0x97
 1305 01d6 03       		.byte	0x3
 1306 01d7 09       		.uleb128 0x9
 1307 01d8 84020000 		.4byte	.LASF33
 1308 01dc 06       		.byte	0x6
 1309 01dd 4F       		.byte	0x4f
 1310 01de B8000000 		.4byte	0xb8
 1311 01e2 08       		.byte	0x8
 1312 01e3 09       		.uleb128 0x9
 1313 01e4 B1010000 		.4byte	.LASF34
 1314 01e8 06       		.byte	0x6
 1315 01e9 50       		.byte	0x50
 1316 01ea A2000000 		.4byte	0xa2
 1317 01ee 10       		.byte	0x10
 1318 01ef 09       		.uleb128 0x9
 1319 01f0 79020000 		.4byte	.LASF35
 1320 01f4 06       		.byte	0x6
 1321 01f5 51       		.byte	0x51
 1322 01f6 97000000 		.4byte	0x97
 1323 01fa 12       		.byte	0x12
 1324 01fb 00       		.byte	0
 1325 01fc 03       		.uleb128 0x3
 1326 01fd 48010000 		.4byte	.LASF36
 1327 0201 06       		.byte	0x6
 1328 0202 52       		.byte	0x52
 1329 0203 9F010000 		.4byte	0x19f
 1330 0207 0A       		.uleb128 0xa
 1331 0208 18       		.byte	0x18
 1332 0209 06       		.byte	0x6
 1333 020a 54       		.byte	0x54
 1334 020b 4C020000 		.4byte	0x24c
 1335 020f 09       		.uleb128 0x9
 1336 0210 68020000 		.4byte	.LASF29
 1337 0214 06       		.byte	0x6
 1338 0215 56       		.byte	0x56
 1339 0216 97000000 		.4byte	0x97
 1340 021a 00       		.byte	0
 1341 021b 09       		.uleb128 0x9
 1342 021c 37030000 		.4byte	.LASF37
 1343 0220 06       		.byte	0x6
 1344 0221 57       		.byte	0x57
 1345 0222 B8000000 		.4byte	0xb8
 1346 0226 08       		.byte	0x8
 1347 0227 09       		.uleb128 0x9
 1348 0228 9D000000 		.4byte	.LASF38
 1349 022c 06       		.byte	0x6
 1350 022d 58       		.byte	0x58
 1351 022e A2000000 		.4byte	0xa2
ARM GAS  C:\Users\Petro\AppData\Local\Temp\cctyLdqT.s 			page 31


 1352 0232 10       		.byte	0x10
 1353 0233 09       		.uleb128 0x9
 1354 0234 16000000 		.4byte	.LASF39
 1355 0238 06       		.byte	0x6
 1356 0239 59       		.byte	0x59
 1357 023a 97000000 		.4byte	0x97
 1358 023e 12       		.byte	0x12
 1359 023f 09       		.uleb128 0x9
 1360 0240 7C010000 		.4byte	.LASF40
 1361 0244 06       		.byte	0x6
 1362 0245 5A       		.byte	0x5a
 1363 0246 97000000 		.4byte	0x97
 1364 024a 13       		.byte	0x13
 1365 024b 00       		.byte	0
 1366 024c 03       		.uleb128 0x3
 1367 024d 09010000 		.4byte	.LASF41
 1368 0251 06       		.byte	0x6
 1369 0252 5B       		.byte	0x5b
 1370 0253 07020000 		.4byte	0x207
 1371 0257 0B       		.uleb128 0xb
 1372 0258 53020000 		.4byte	.LASF91
 1373 025c 01       		.byte	0x1
 1374 025d 06       		.byte	0x6
 1375 025e 00000000 		.4byte	.LFB63
 1376 0262 50000000 		.4byte	.LFE63-.LFB63
 1377 0266 01       		.uleb128 0x1
 1378 0267 9C       		.byte	0x9c
 1379 0268 0C       		.uleb128 0xc
 1380 0269 30000000 		.4byte	.LASF46
 1381 026d 01       		.byte	0x1
 1382 026e 17       		.byte	0x17
 1383 026f 00000000 		.4byte	.LFB64
 1384 0273 EC000000 		.4byte	.LFE64-.LFB64
 1385 0277 01       		.uleb128 0x1
 1386 0278 9C       		.byte	0x9c
 1387 0279 A6020000 		.4byte	0x2a6
 1388 027d 0D       		.uleb128 0xd
 1389 027e 38000000 		.4byte	.LBB2
 1390 0282 96000000 		.4byte	.LBE2-.LBB2
 1391 0286 0E       		.uleb128 0xe
 1392 0287 E8000000 		.4byte	.LASF42
 1393 028b 01       		.byte	0x1
 1394 028c 26       		.byte	0x26
 1395 028d A6020000 		.4byte	0x2a6
 1396 0291 03       		.uleb128 0x3
 1397 0292 91       		.byte	0x91
 1398 0293 887F     		.sleb128 -120
 1399 0295 0E       		.uleb128 0xe
 1400 0296 39000000 		.4byte	.LASF43
 1401 029a 01       		.byte	0x1
 1402 029b 27       		.byte	0x27
 1403 029c A6020000 		.4byte	0x2a6
 1404 02a0 03       		.uleb128 0x3
 1405 02a1 91       		.byte	0x91
 1406 02a2 BC7F     		.sleb128 -68
 1407 02a4 00       		.byte	0
 1408 02a5 00       		.byte	0
ARM GAS  C:\Users\Petro\AppData\Local\Temp\cctyLdqT.s 			page 32


 1409 02a6 05       		.uleb128 0x5
 1410 02a7 D1000000 		.4byte	0xd1
 1411 02ab B6020000 		.4byte	0x2b6
 1412 02af 06       		.uleb128 0x6
 1413 02b0 D8000000 		.4byte	0xd8
 1414 02b4 31       		.byte	0x31
 1415 02b5 00       		.byte	0
 1416 02b6 0F       		.uleb128 0xf
 1417 02b7 40040000 		.4byte	.LASF52
 1418 02bb 01       		.byte	0x1
 1419 02bc 46       		.byte	0x46
 1420 02bd AD000000 		.4byte	0xad
 1421 02c1 00000000 		.4byte	.LFB65
 1422 02c5 E0000000 		.4byte	.LFE65-.LFB65
 1423 02c9 01       		.uleb128 0x1
 1424 02ca 9C       		.byte	0x9c
 1425 02cb F6020000 		.4byte	0x2f6
 1426 02cf 0D       		.uleb128 0xd
 1427 02d0 16000000 		.4byte	.LBB3
 1428 02d4 A6000000 		.4byte	.LBE3-.LBB3
 1429 02d8 0E       		.uleb128 0xe
 1430 02d9 22040000 		.4byte	.LASF44
 1431 02dd 01       		.byte	0x1
 1432 02de 4A       		.byte	0x4a
 1433 02df AD000000 		.4byte	0xad
 1434 02e3 02       		.uleb128 0x2
 1435 02e4 91       		.byte	0x91
 1436 02e5 74       		.sleb128 -12
 1437 02e6 0E       		.uleb128 0xe
 1438 02e7 73000000 		.4byte	.LASF45
 1439 02eb 01       		.byte	0x1
 1440 02ec 4B       		.byte	0x4b
 1441 02ed EF000000 		.4byte	0xef
 1442 02f1 02       		.uleb128 0x2
 1443 02f2 91       		.byte	0x91
 1444 02f3 50       		.sleb128 -48
 1445 02f4 00       		.byte	0
 1446 02f5 00       		.byte	0
 1447 02f6 10       		.uleb128 0x10
 1448 02f7 FB000000 		.4byte	.LASF50
 1449 02fb 01       		.byte	0x1
 1450 02fc 80       		.byte	0x80
 1451 02fd AD000000 		.4byte	0xad
 1452 0301 00000000 		.4byte	.LFB66
 1453 0305 14000000 		.4byte	.LFE66-.LFB66
 1454 0309 01       		.uleb128 0x1
 1455 030a 9C       		.byte	0x9c
 1456 030b 11       		.uleb128 0x11
 1457 030c 74040000 		.4byte	.LASF47
 1458 0310 01       		.byte	0x1
 1459 0311 86       		.byte	0x86
 1460 0312 00000000 		.4byte	.LFB67
 1461 0316 30000000 		.4byte	.LFE67-.LFB67
 1462 031a 01       		.uleb128 0x1
 1463 031b 9C       		.byte	0x9c
 1464 031c 3D030000 		.4byte	0x33d
 1465 0320 12       		.uleb128 0x12
ARM GAS  C:\Users\Petro\AppData\Local\Temp\cctyLdqT.s 			page 33


 1466 0321 1F020000 		.4byte	.LASF48
 1467 0325 01       		.byte	0x1
 1468 0326 86       		.byte	0x86
 1469 0327 B8000000 		.4byte	0xb8
 1470 032b 02       		.uleb128 0x2
 1471 032c 91       		.byte	0x91
 1472 032d 68       		.sleb128 -24
 1473 032e 12       		.uleb128 0x12
 1474 032f 58030000 		.4byte	.LASF49
 1475 0333 01       		.byte	0x1
 1476 0334 86       		.byte	0x86
 1477 0335 AD000000 		.4byte	0xad
 1478 0339 02       		.uleb128 0x2
 1479 033a 91       		.byte	0x91
 1480 033b 64       		.sleb128 -28
 1481 033c 00       		.byte	0
 1482 033d 10       		.uleb128 0x10
 1483 033e 9A020000 		.4byte	.LASF51
 1484 0342 01       		.byte	0x1
 1485 0343 8E       		.byte	0x8e
 1486 0344 AD000000 		.4byte	0xad
 1487 0348 00000000 		.4byte	.LFB68
 1488 034c 14000000 		.4byte	.LFE68-.LFB68
 1489 0350 01       		.uleb128 0x1
 1490 0351 9C       		.byte	0x9c
 1491 0352 13       		.uleb128 0x13
 1492 0353 F6030000 		.4byte	.LASF53
 1493 0357 01       		.byte	0x1
 1494 0358 A8       		.byte	0xa8
 1495 0359 AD000000 		.4byte	0xad
 1496 035d 00000000 		.4byte	.LFB69
 1497 0361 28000000 		.4byte	.LFE69-.LFB69
 1498 0365 01       		.uleb128 0x1
 1499 0366 9C       		.byte	0x9c
 1500 0367 7A030000 		.4byte	0x37a
 1501 036b 0E       		.uleb128 0xe
 1502 036c 00000000 		.4byte	.LASF54
 1503 0370 01       		.byte	0x1
 1504 0371 AA       		.byte	0xaa
 1505 0372 AD000000 		.4byte	0xad
 1506 0376 02       		.uleb128 0x2
 1507 0377 91       		.byte	0x91
 1508 0378 74       		.sleb128 -12
 1509 0379 00       		.byte	0
 1510 037a 0F       		.uleb128 0xf
 1511 037b 32040000 		.4byte	.LASF55
 1512 037f 01       		.byte	0x1
 1513 0380 B8       		.byte	0xb8
 1514 0381 AD000000 		.4byte	0xad
 1515 0385 00000000 		.4byte	.LFB70
 1516 0389 9C010000 		.4byte	.LFE70-.LFB70
 1517 038d 01       		.uleb128 0x1
 1518 038e 9C       		.byte	0x9c
 1519 038f 11040000 		.4byte	0x411
 1520 0393 14       		.uleb128 0x14
 1521 0394 6900     		.ascii	"i\000"
 1522 0396 01       		.byte	0x1
ARM GAS  C:\Users\Petro\AppData\Local\Temp\cctyLdqT.s 			page 34


 1523 0397 BA       		.byte	0xba
 1524 0398 89000000 		.4byte	0x89
 1525 039c 02       		.uleb128 0x2
 1526 039d 91       		.byte	0x91
 1527 039e 6C       		.sleb128 -20
 1528 039f 0E       		.uleb128 0xe
 1529 03a0 00000000 		.4byte	.LASF54
 1530 03a4 01       		.byte	0x1
 1531 03a5 BB       		.byte	0xbb
 1532 03a6 A2000000 		.4byte	0xa2
 1533 03aa 02       		.uleb128 0x2
 1534 03ab 91       		.byte	0x91
 1535 03ac 6A       		.sleb128 -22
 1536 03ad 0E       		.uleb128 0xe
 1537 03ae 8D000000 		.4byte	.LASF56
 1538 03b2 01       		.byte	0x1
 1539 03b3 BC       		.byte	0xbc
 1540 03b4 AD000000 		.4byte	0xad
 1541 03b8 02       		.uleb128 0x2
 1542 03b9 91       		.byte	0x91
 1543 03ba 58       		.sleb128 -40
 1544 03bb 0E       		.uleb128 0xe
 1545 03bc 6F010000 		.4byte	.LASF57
 1546 03c0 01       		.byte	0x1
 1547 03c1 BD       		.byte	0xbd
 1548 03c2 AD000000 		.4byte	0xad
 1549 03c6 02       		.uleb128 0x2
 1550 03c7 91       		.byte	0x91
 1551 03c8 64       		.sleb128 -28
 1552 03c9 0E       		.uleb128 0xe
 1553 03ca 27000000 		.4byte	.LASF58
 1554 03ce 01       		.byte	0x1
 1555 03cf BE       		.byte	0xbe
 1556 03d0 DF000000 		.4byte	0xdf
 1557 03d4 02       		.uleb128 0x2
 1558 03d5 91       		.byte	0x91
 1559 03d6 50       		.sleb128 -48
 1560 03d7 0E       		.uleb128 0xe
 1561 03d8 E4030000 		.4byte	.LASF59
 1562 03dc 01       		.byte	0x1
 1563 03dd BF       		.byte	0xbf
 1564 03de 11040000 		.4byte	0x411
 1565 03e2 02       		.uleb128 0x2
 1566 03e3 91       		.byte	0x91
 1567 03e4 4C       		.sleb128 -52
 1568 03e5 0E       		.uleb128 0xe
 1569 03e6 42000000 		.4byte	.LASF60
 1570 03ea 01       		.byte	0x1
 1571 03eb C0       		.byte	0xc0
 1572 03ec AD000000 		.4byte	0xad
 1573 03f0 02       		.uleb128 0x2
 1574 03f1 91       		.byte	0x91
 1575 03f2 5C       		.sleb128 -36
 1576 03f3 0E       		.uleb128 0xe
 1577 03f4 59000000 		.4byte	.LASF61
 1578 03f8 01       		.byte	0x1
 1579 03f9 C1       		.byte	0xc1
ARM GAS  C:\Users\Petro\AppData\Local\Temp\cctyLdqT.s 			page 35


 1580 03fa AD000000 		.4byte	0xad
 1581 03fe 02       		.uleb128 0x2
 1582 03ff 91       		.byte	0x91
 1583 0400 60       		.sleb128 -32
 1584 0401 0E       		.uleb128 0xe
 1585 0402 EF030000 		.4byte	.LASF62
 1586 0406 01       		.byte	0x1
 1587 0407 C7       		.byte	0xc7
 1588 0408 21040000 		.4byte	0x421
 1589 040c 03       		.uleb128 0x3
 1590 040d 91       		.byte	0x91
 1591 040e E87E     		.sleb128 -152
 1592 0410 00       		.byte	0
 1593 0411 05       		.uleb128 0x5
 1594 0412 A2000000 		.4byte	0xa2
 1595 0416 21040000 		.4byte	0x421
 1596 041a 06       		.uleb128 0x6
 1597 041b D8000000 		.4byte	0xd8
 1598 041f 01       		.byte	0x1
 1599 0420 00       		.byte	0
 1600 0421 05       		.uleb128 0x5
 1601 0422 D1000000 		.4byte	0xd1
 1602 0426 31040000 		.4byte	0x431
 1603 042a 06       		.uleb128 0x6
 1604 042b D8000000 		.4byte	0xd8
 1605 042f 63       		.byte	0x63
 1606 0430 00       		.byte	0
 1607 0431 15       		.uleb128 0x15
 1608 0432 60040000 		.4byte	.LASF92
 1609 0436 01       		.byte	0x1
 1610 0437 0901     		.2byte	0x109
 1611 0439 AD000000 		.4byte	0xad
 1612 043d 00000000 		.4byte	.LFB71
 1613 0441 B6000000 		.4byte	.LFE71-.LFB71
 1614 0445 01       		.uleb128 0x1
 1615 0446 9C       		.byte	0x9c
 1616 0447 B5040000 		.4byte	0x4b5
 1617 044b 16       		.uleb128 0x16
 1618 044c B4000000 		.4byte	.LASF63
 1619 0450 01       		.byte	0x1
 1620 0451 0901     		.2byte	0x109
 1621 0453 B5040000 		.4byte	0x4b5
 1622 0457 02       		.uleb128 0x2
 1623 0458 91       		.byte	0x91
 1624 0459 4C       		.sleb128 -52
 1625 045a 16       		.uleb128 0x16
 1626 045b 61030000 		.4byte	.LASF64
 1627 045f 01       		.byte	0x1
 1628 0460 0901     		.2byte	0x109
 1629 0462 BB040000 		.4byte	0x4bb
 1630 0466 02       		.uleb128 0x2
 1631 0467 91       		.byte	0x91
 1632 0468 48       		.sleb128 -56
 1633 0469 16       		.uleb128 0x16
 1634 046a 4C040000 		.4byte	.LASF65
 1635 046e 01       		.byte	0x1
 1636 046f 0901     		.2byte	0x109
ARM GAS  C:\Users\Petro\AppData\Local\Temp\cctyLdqT.s 			page 36


 1637 0471 B5040000 		.4byte	0x4b5
 1638 0475 02       		.uleb128 0x2
 1639 0476 91       		.byte	0x91
 1640 0477 44       		.sleb128 -60
 1641 0478 16       		.uleb128 0x16
 1642 0479 13010000 		.4byte	.LASF66
 1643 047d 01       		.byte	0x1
 1644 047e 0901     		.2byte	0x109
 1645 0480 AD000000 		.4byte	0xad
 1646 0484 02       		.uleb128 0x2
 1647 0485 91       		.byte	0x91
 1648 0486 40       		.sleb128 -64
 1649 0487 17       		.uleb128 0x17
 1650 0488 22040000 		.4byte	.LASF44
 1651 048c 01       		.byte	0x1
 1652 048d 0B01     		.2byte	0x10b
 1653 048f 97000000 		.4byte	0x97
 1654 0493 02       		.uleb128 0x2
 1655 0494 91       		.byte	0x91
 1656 0495 6B       		.sleb128 -21
 1657 0496 17       		.uleb128 0x17
 1658 0497 00000000 		.4byte	.LASF54
 1659 049b 01       		.byte	0x1
 1660 049c 0C01     		.2byte	0x10c
 1661 049e AD000000 		.4byte	0xad
 1662 04a2 02       		.uleb128 0x2
 1663 04a3 91       		.byte	0x91
 1664 04a4 6C       		.sleb128 -20
 1665 04a5 17       		.uleb128 0x17
 1666 04a6 1C010000 		.4byte	.LASF67
 1667 04aa 01       		.byte	0x1
 1668 04ab 1001     		.2byte	0x110
 1669 04ad 94010000 		.4byte	0x194
 1670 04b1 02       		.uleb128 0x2
 1671 04b2 91       		.byte	0x91
 1672 04b3 54       		.sleb128 -44
 1673 04b4 00       		.byte	0
 1674 04b5 18       		.uleb128 0x18
 1675 04b6 04       		.byte	0x4
 1676 04b7 AD000000 		.4byte	0xad
 1677 04bb 18       		.uleb128 0x18
 1678 04bc 04       		.byte	0x4
 1679 04bd A2000000 		.4byte	0xa2
 1680 04c1 19       		.uleb128 0x19
 1681 04c2 8F040000 		.4byte	.LASF93
 1682 04c6 01       		.byte	0x1
 1683 04c7 3101     		.2byte	0x131
 1684 04c9 00000000 		.4byte	.LFB72
 1685 04cd 6C000000 		.4byte	.LFE72-.LFB72
 1686 04d1 01       		.uleb128 0x1
 1687 04d2 9C       		.byte	0x9c
 1688 04d3 46050000 		.4byte	0x546
 1689 04d7 16       		.uleb128 0x16
 1690 04d8 B4000000 		.4byte	.LASF63
 1691 04dc 01       		.byte	0x1
 1692 04dd 3101     		.2byte	0x131
 1693 04df AD000000 		.4byte	0xad
ARM GAS  C:\Users\Petro\AppData\Local\Temp\cctyLdqT.s 			page 37


 1694 04e3 03       		.uleb128 0x3
 1695 04e4 91       		.byte	0x91
 1696 04e5 847F     		.sleb128 -124
 1697 04e7 16       		.uleb128 0x16
 1698 04e8 BE000000 		.4byte	.LASF68
 1699 04ec 01       		.byte	0x1
 1700 04ed 3101     		.2byte	0x131
 1701 04ef AD000000 		.4byte	0xad
 1702 04f3 03       		.uleb128 0x3
 1703 04f4 91       		.byte	0x91
 1704 04f5 807F     		.sleb128 -128
 1705 04f7 16       		.uleb128 0x16
 1706 04f8 17020000 		.4byte	.LASF69
 1707 04fc 01       		.byte	0x1
 1708 04fd 3101     		.2byte	0x131
 1709 04ff A2000000 		.4byte	0xa2
 1710 0503 03       		.uleb128 0x3
 1711 0504 91       		.byte	0x91
 1712 0505 FE7E     		.sleb128 -130
 1713 0507 16       		.uleb128 0x16
 1714 0508 7C000000 		.4byte	.LASF70
 1715 050c 01       		.byte	0x1
 1716 050d 3101     		.2byte	0x131
 1717 050f A2000000 		.4byte	0xa2
 1718 0513 03       		.uleb128 0x3
 1719 0514 91       		.byte	0x91
 1720 0515 FC7E     		.sleb128 -132
 1721 0517 1A       		.uleb128 0x1a
 1722 0518 494400   		.ascii	"ID\000"
 1723 051b 01       		.byte	0x1
 1724 051c 3101     		.2byte	0x131
 1725 051e AD000000 		.4byte	0xad
 1726 0522 02       		.uleb128 0x2
 1727 0523 91       		.byte	0x91
 1728 0524 00       		.sleb128 0
 1729 0525 17       		.uleb128 0x17
 1730 0526 E8000000 		.4byte	.LASF42
 1731 052a 01       		.byte	0x1
 1732 052b 3301     		.2byte	0x133
 1733 052d A6020000 		.4byte	0x2a6
 1734 0531 03       		.uleb128 0x3
 1735 0532 91       		.byte	0x91
 1736 0533 BC7F     		.sleb128 -68
 1737 0535 17       		.uleb128 0x17
 1738 0536 39000000 		.4byte	.LASF43
 1739 053a 01       		.byte	0x1
 1740 053b 3401     		.2byte	0x134
 1741 053d A6020000 		.4byte	0x2a6
 1742 0541 03       		.uleb128 0x3
 1743 0542 91       		.byte	0x91
 1744 0543 887F     		.sleb128 -120
 1745 0545 00       		.byte	0
 1746 0546 0E       		.uleb128 0xe
 1747 0547 0A040000 		.4byte	.LASF71
 1748 054b 06       		.byte	0x6
 1749 054c 62       		.byte	0x62
 1750 054d AD000000 		.4byte	0xad
ARM GAS  C:\Users\Petro\AppData\Local\Temp\cctyLdqT.s 			page 38


 1751 0551 05       		.uleb128 0x5
 1752 0552 03       		.byte	0x3
 1753 0553 00000000 		.4byte	networkStatus
 1754 0557 0E       		.uleb128 0xe
 1755 0558 59000000 		.4byte	.LASF61
 1756 055c 06       		.byte	0x6
 1757 055d 63       		.byte	0x63
 1758 055e 89000000 		.4byte	0x89
 1759 0562 05       		.uleb128 0x5
 1760 0563 03       		.byte	0x3
 1761 0564 04000000 		.4byte	noConnect
 1762 0568 0E       		.uleb128 0xe
 1763 0569 DD000000 		.4byte	.LASF72
 1764 056d 06       		.byte	0x6
 1765 056e 64       		.byte	0x64
 1766 056f 89000000 		.4byte	0x89
 1767 0573 05       		.uleb128 0x5
 1768 0574 03       		.byte	0x3
 1769 0575 08000000 		.4byte	finNoReady
 1770 0579 1B       		.uleb128 0x1b
 1771 057a 2E010000 		.4byte	.LASF73
 1772 057e 04       		.byte	0x4
 1773 057f 4C       		.byte	0x4c
 1774 0580 97000000 		.4byte	0x97
 1775 0584 05       		.uleb128 0x5
 1776 0585 03       		.byte	0x3
 1777 0586 00000000 		.4byte	PROTO_STATE
 1778 058a 1B       		.uleb128 0x1b
 1779 058b D2010000 		.4byte	.LASF74
 1780 058f 04       		.byte	0x4
 1781 0590 4C       		.byte	0x4c
 1782 0591 97000000 		.4byte	0x97
 1783 0595 05       		.uleb128 0x5
 1784 0596 03       		.byte	0x3
 1785 0597 00000000 		.4byte	LenD1
 1786 059b 1B       		.uleb128 0x1b
 1787 059c 69010000 		.4byte	.LASF75
 1788 05a0 04       		.byte	0x4
 1789 05a1 4C       		.byte	0x4c
 1790 05a2 97000000 		.4byte	0x97
 1791 05a6 05       		.uleb128 0x5
 1792 05a7 03       		.byte	0x3
 1793 05a8 00000000 		.4byte	LenD2
 1794 05ac 1B       		.uleb128 0x1b
 1795 05ad E5010000 		.4byte	.LASF76
 1796 05b1 04       		.byte	0x4
 1797 05b2 4C       		.byte	0x4c
 1798 05b3 97000000 		.4byte	0x97
 1799 05b7 05       		.uleb128 0x5
 1800 05b8 03       		.byte	0x3
 1801 05b9 00000000 		.4byte	LenD3
 1802 05bd 1B       		.uleb128 0x1b
 1803 05be 0F000000 		.4byte	.LASF77
 1804 05c2 04       		.byte	0x4
 1805 05c3 4C       		.byte	0x4c
 1806 05c4 97000000 		.4byte	0x97
 1807 05c8 05       		.uleb128 0x5
ARM GAS  C:\Users\Petro\AppData\Local\Temp\cctyLdqT.s 			page 39


 1808 05c9 03       		.byte	0x3
 1809 05ca 00000000 		.4byte	LenSeq
 1810 05ce 1B       		.uleb128 0x1b
 1811 05cf 3A020000 		.4byte	.LASF78
 1812 05d3 04       		.byte	0x4
 1813 05d4 4C       		.byte	0x4c
 1814 05d5 97000000 		.4byte	0x97
 1815 05d9 05       		.uleb128 0x5
 1816 05da 03       		.byte	0x3
 1817 05db 00000000 		.4byte	LenChS
 1818 05df 1B       		.uleb128 0x1b
 1819 05e0 6F040000 		.4byte	.LASF79
 1820 05e4 04       		.byte	0x4
 1821 05e5 4C       		.byte	0x4c
 1822 05e6 97000000 		.4byte	0x97
 1823 05ea 05       		.uleb128 0x5
 1824 05eb 03       		.byte	0x3
 1825 05ec 00000000 		.4byte	LenC
 1826 05f0 1B       		.uleb128 0x1b
 1827 05f1 5F020000 		.4byte	.LASF80
 1828 05f5 05       		.byte	0x5
 1829 05f6 36       		.byte	0x36
 1830 05f7 97000000 		.4byte	0x97
 1831 05fb 05       		.uleb128 0x5
 1832 05fc 03       		.byte	0x3
 1833 05fd 00000000 		.4byte	NtpLenD1
 1834 0601 1B       		.uleb128 0x1b
 1835 0602 27040000 		.4byte	.LASF81
 1836 0606 05       		.byte	0x5
 1837 0607 36       		.byte	0x36
 1838 0608 97000000 		.4byte	0x97
 1839 060c 05       		.uleb128 0x5
 1840 060d 03       		.byte	0x3
 1841 060e 00000000 		.4byte	NtpLenMsD1
 1842 0612 1B       		.uleb128 0x1b
 1843 0613 84000000 		.4byte	.LASF82
 1844 0617 05       		.byte	0x5
 1845 0618 36       		.byte	0x36
 1846 0619 97000000 		.4byte	0x97
 1847 061d 05       		.uleb128 0x5
 1848 061e 03       		.byte	0x3
 1849 061f 00000000 		.4byte	NtpLenId
 1850 0623 1B       		.uleb128 0x1b
 1851 0624 18040000 		.4byte	.LASF83
 1852 0628 05       		.byte	0x5
 1853 0629 36       		.byte	0x36
 1854 062a 97000000 		.4byte	0x97
 1855 062e 05       		.uleb128 0x5
 1856 062f 03       		.byte	0x3
 1857 0630 00000000 		.4byte	NtpLenChS
 1858 0634 1B       		.uleb128 0x1b
 1859 0635 AA010000 		.4byte	.LASF84
 1860 0639 06       		.byte	0x6
 1861 063a 5D       		.byte	0x5d
 1862 063b FC010000 		.4byte	0x1fc
 1863 063f 05       		.uleb128 0x5
 1864 0640 03       		.byte	0x3
ARM GAS  C:\Users\Petro\AppData\Local\Temp\cctyLdqT.s 			page 40


 1865 0641 00000000 		.4byte	inData
 1866 0645 1B       		.uleb128 0x1b
 1867 0646 5C010000 		.4byte	.LASF85
 1868 064a 06       		.byte	0x6
 1869 064b 5E       		.byte	0x5e
 1870 064c 4C020000 		.4byte	0x24c
 1871 0650 05       		.uleb128 0x5
 1872 0651 03       		.byte	0x3
 1873 0652 00000000 		.4byte	outData
 1874 0656 1B       		.uleb128 0x1b
 1875 0657 D8010000 		.4byte	.LASF86
 1876 065b 06       		.byte	0x6
 1877 065c 60       		.byte	0x60
 1878 065d 21040000 		.4byte	0x421
 1879 0661 05       		.uleb128 0x5
 1880 0662 03       		.byte	0x3
 1881 0663 00000000 		.4byte	previousData
 1882 0667 00       		.byte	0
 1883              		.section	.debug_abbrev,"",%progbits
 1884              	.Ldebug_abbrev0:
 1885 0000 01       		.uleb128 0x1
 1886 0001 11       		.uleb128 0x11
 1887 0002 01       		.byte	0x1
 1888 0003 25       		.uleb128 0x25
 1889 0004 0E       		.uleb128 0xe
 1890 0005 13       		.uleb128 0x13
 1891 0006 0B       		.uleb128 0xb
 1892 0007 03       		.uleb128 0x3
 1893 0008 0E       		.uleb128 0xe
 1894 0009 1B       		.uleb128 0x1b
 1895 000a 0E       		.uleb128 0xe
 1896 000b 55       		.uleb128 0x55
 1897 000c 17       		.uleb128 0x17
 1898 000d 11       		.uleb128 0x11
 1899 000e 01       		.uleb128 0x1
 1900 000f 10       		.uleb128 0x10
 1901 0010 17       		.uleb128 0x17
 1902 0011 00       		.byte	0
 1903 0012 00       		.byte	0
 1904 0013 02       		.uleb128 0x2
 1905 0014 24       		.uleb128 0x24
 1906 0015 00       		.byte	0
 1907 0016 0B       		.uleb128 0xb
 1908 0017 0B       		.uleb128 0xb
 1909 0018 3E       		.uleb128 0x3e
 1910 0019 0B       		.uleb128 0xb
 1911 001a 03       		.uleb128 0x3
 1912 001b 0E       		.uleb128 0xe
 1913 001c 00       		.byte	0
 1914 001d 00       		.byte	0
 1915 001e 03       		.uleb128 0x3
 1916 001f 16       		.uleb128 0x16
 1917 0020 00       		.byte	0
 1918 0021 03       		.uleb128 0x3
 1919 0022 0E       		.uleb128 0xe
 1920 0023 3A       		.uleb128 0x3a
 1921 0024 0B       		.uleb128 0xb
ARM GAS  C:\Users\Petro\AppData\Local\Temp\cctyLdqT.s 			page 41


 1922 0025 3B       		.uleb128 0x3b
 1923 0026 0B       		.uleb128 0xb
 1924 0027 49       		.uleb128 0x49
 1925 0028 13       		.uleb128 0x13
 1926 0029 00       		.byte	0
 1927 002a 00       		.byte	0
 1928 002b 04       		.uleb128 0x4
 1929 002c 24       		.uleb128 0x24
 1930 002d 00       		.byte	0
 1931 002e 0B       		.uleb128 0xb
 1932 002f 0B       		.uleb128 0xb
 1933 0030 3E       		.uleb128 0x3e
 1934 0031 0B       		.uleb128 0xb
 1935 0032 03       		.uleb128 0x3
 1936 0033 08       		.uleb128 0x8
 1937 0034 00       		.byte	0
 1938 0035 00       		.byte	0
 1939 0036 05       		.uleb128 0x5
 1940 0037 01       		.uleb128 0x1
 1941 0038 01       		.byte	0x1
 1942 0039 49       		.uleb128 0x49
 1943 003a 13       		.uleb128 0x13
 1944 003b 01       		.uleb128 0x1
 1945 003c 13       		.uleb128 0x13
 1946 003d 00       		.byte	0
 1947 003e 00       		.byte	0
 1948 003f 06       		.uleb128 0x6
 1949 0040 21       		.uleb128 0x21
 1950 0041 00       		.byte	0
 1951 0042 49       		.uleb128 0x49
 1952 0043 13       		.uleb128 0x13
 1953 0044 2F       		.uleb128 0x2f
 1954 0045 0B       		.uleb128 0xb
 1955 0046 00       		.byte	0
 1956 0047 00       		.byte	0
 1957 0048 07       		.uleb128 0x7
 1958 0049 13       		.uleb128 0x13
 1959 004a 01       		.byte	0x1
 1960 004b 03       		.uleb128 0x3
 1961 004c 0E       		.uleb128 0xe
 1962 004d 0B       		.uleb128 0xb
 1963 004e 0B       		.uleb128 0xb
 1964 004f 3A       		.uleb128 0x3a
 1965 0050 0B       		.uleb128 0xb
 1966 0051 3B       		.uleb128 0x3b
 1967 0052 0B       		.uleb128 0xb
 1968 0053 01       		.uleb128 0x1
 1969 0054 13       		.uleb128 0x13
 1970 0055 00       		.byte	0
 1971 0056 00       		.byte	0
 1972 0057 08       		.uleb128 0x8
 1973 0058 0D       		.uleb128 0xd
 1974 0059 00       		.byte	0
 1975 005a 03       		.uleb128 0x3
 1976 005b 08       		.uleb128 0x8
 1977 005c 3A       		.uleb128 0x3a
 1978 005d 0B       		.uleb128 0xb
ARM GAS  C:\Users\Petro\AppData\Local\Temp\cctyLdqT.s 			page 42


 1979 005e 3B       		.uleb128 0x3b
 1980 005f 0B       		.uleb128 0xb
 1981 0060 49       		.uleb128 0x49
 1982 0061 13       		.uleb128 0x13
 1983 0062 38       		.uleb128 0x38
 1984 0063 0B       		.uleb128 0xb
 1985 0064 00       		.byte	0
 1986 0065 00       		.byte	0
 1987 0066 09       		.uleb128 0x9
 1988 0067 0D       		.uleb128 0xd
 1989 0068 00       		.byte	0
 1990 0069 03       		.uleb128 0x3
 1991 006a 0E       		.uleb128 0xe
 1992 006b 3A       		.uleb128 0x3a
 1993 006c 0B       		.uleb128 0xb
 1994 006d 3B       		.uleb128 0x3b
 1995 006e 0B       		.uleb128 0xb
 1996 006f 49       		.uleb128 0x49
 1997 0070 13       		.uleb128 0x13
 1998 0071 38       		.uleb128 0x38
 1999 0072 0B       		.uleb128 0xb
 2000 0073 00       		.byte	0
 2001 0074 00       		.byte	0
 2002 0075 0A       		.uleb128 0xa
 2003 0076 13       		.uleb128 0x13
 2004 0077 01       		.byte	0x1
 2005 0078 0B       		.uleb128 0xb
 2006 0079 0B       		.uleb128 0xb
 2007 007a 3A       		.uleb128 0x3a
 2008 007b 0B       		.uleb128 0xb
 2009 007c 3B       		.uleb128 0x3b
 2010 007d 0B       		.uleb128 0xb
 2011 007e 01       		.uleb128 0x1
 2012 007f 13       		.uleb128 0x13
 2013 0080 00       		.byte	0
 2014 0081 00       		.byte	0
 2015 0082 0B       		.uleb128 0xb
 2016 0083 2E       		.uleb128 0x2e
 2017 0084 00       		.byte	0
 2018 0085 3F       		.uleb128 0x3f
 2019 0086 19       		.uleb128 0x19
 2020 0087 03       		.uleb128 0x3
 2021 0088 0E       		.uleb128 0xe
 2022 0089 3A       		.uleb128 0x3a
 2023 008a 0B       		.uleb128 0xb
 2024 008b 3B       		.uleb128 0x3b
 2025 008c 0B       		.uleb128 0xb
 2026 008d 27       		.uleb128 0x27
 2027 008e 19       		.uleb128 0x19
 2028 008f 11       		.uleb128 0x11
 2029 0090 01       		.uleb128 0x1
 2030 0091 12       		.uleb128 0x12
 2031 0092 06       		.uleb128 0x6
 2032 0093 40       		.uleb128 0x40
 2033 0094 18       		.uleb128 0x18
 2034 0095 9642     		.uleb128 0x2116
 2035 0097 19       		.uleb128 0x19
ARM GAS  C:\Users\Petro\AppData\Local\Temp\cctyLdqT.s 			page 43


 2036 0098 00       		.byte	0
 2037 0099 00       		.byte	0
 2038 009a 0C       		.uleb128 0xc
 2039 009b 2E       		.uleb128 0x2e
 2040 009c 01       		.byte	0x1
 2041 009d 3F       		.uleb128 0x3f
 2042 009e 19       		.uleb128 0x19
 2043 009f 03       		.uleb128 0x3
 2044 00a0 0E       		.uleb128 0xe
 2045 00a1 3A       		.uleb128 0x3a
 2046 00a2 0B       		.uleb128 0xb
 2047 00a3 3B       		.uleb128 0x3b
 2048 00a4 0B       		.uleb128 0xb
 2049 00a5 27       		.uleb128 0x27
 2050 00a6 19       		.uleb128 0x19
 2051 00a7 11       		.uleb128 0x11
 2052 00a8 01       		.uleb128 0x1
 2053 00a9 12       		.uleb128 0x12
 2054 00aa 06       		.uleb128 0x6
 2055 00ab 40       		.uleb128 0x40
 2056 00ac 18       		.uleb128 0x18
 2057 00ad 9642     		.uleb128 0x2116
 2058 00af 19       		.uleb128 0x19
 2059 00b0 01       		.uleb128 0x1
 2060 00b1 13       		.uleb128 0x13
 2061 00b2 00       		.byte	0
 2062 00b3 00       		.byte	0
 2063 00b4 0D       		.uleb128 0xd
 2064 00b5 0B       		.uleb128 0xb
 2065 00b6 01       		.byte	0x1
 2066 00b7 11       		.uleb128 0x11
 2067 00b8 01       		.uleb128 0x1
 2068 00b9 12       		.uleb128 0x12
 2069 00ba 06       		.uleb128 0x6
 2070 00bb 00       		.byte	0
 2071 00bc 00       		.byte	0
 2072 00bd 0E       		.uleb128 0xe
 2073 00be 34       		.uleb128 0x34
 2074 00bf 00       		.byte	0
 2075 00c0 03       		.uleb128 0x3
 2076 00c1 0E       		.uleb128 0xe
 2077 00c2 3A       		.uleb128 0x3a
 2078 00c3 0B       		.uleb128 0xb
 2079 00c4 3B       		.uleb128 0x3b
 2080 00c5 0B       		.uleb128 0xb
 2081 00c6 49       		.uleb128 0x49
 2082 00c7 13       		.uleb128 0x13
 2083 00c8 02       		.uleb128 0x2
 2084 00c9 18       		.uleb128 0x18
 2085 00ca 00       		.byte	0
 2086 00cb 00       		.byte	0
 2087 00cc 0F       		.uleb128 0xf
 2088 00cd 2E       		.uleb128 0x2e
 2089 00ce 01       		.byte	0x1
 2090 00cf 3F       		.uleb128 0x3f
 2091 00d0 19       		.uleb128 0x19
 2092 00d1 03       		.uleb128 0x3
ARM GAS  C:\Users\Petro\AppData\Local\Temp\cctyLdqT.s 			page 44


 2093 00d2 0E       		.uleb128 0xe
 2094 00d3 3A       		.uleb128 0x3a
 2095 00d4 0B       		.uleb128 0xb
 2096 00d5 3B       		.uleb128 0x3b
 2097 00d6 0B       		.uleb128 0xb
 2098 00d7 27       		.uleb128 0x27
 2099 00d8 19       		.uleb128 0x19
 2100 00d9 49       		.uleb128 0x49
 2101 00da 13       		.uleb128 0x13
 2102 00db 11       		.uleb128 0x11
 2103 00dc 01       		.uleb128 0x1
 2104 00dd 12       		.uleb128 0x12
 2105 00de 06       		.uleb128 0x6
 2106 00df 40       		.uleb128 0x40
 2107 00e0 18       		.uleb128 0x18
 2108 00e1 9642     		.uleb128 0x2116
 2109 00e3 19       		.uleb128 0x19
 2110 00e4 01       		.uleb128 0x1
 2111 00e5 13       		.uleb128 0x13
 2112 00e6 00       		.byte	0
 2113 00e7 00       		.byte	0
 2114 00e8 10       		.uleb128 0x10
 2115 00e9 2E       		.uleb128 0x2e
 2116 00ea 00       		.byte	0
 2117 00eb 3F       		.uleb128 0x3f
 2118 00ec 19       		.uleb128 0x19
 2119 00ed 03       		.uleb128 0x3
 2120 00ee 0E       		.uleb128 0xe
 2121 00ef 3A       		.uleb128 0x3a
 2122 00f0 0B       		.uleb128 0xb
 2123 00f1 3B       		.uleb128 0x3b
 2124 00f2 0B       		.uleb128 0xb
 2125 00f3 27       		.uleb128 0x27
 2126 00f4 19       		.uleb128 0x19
 2127 00f5 49       		.uleb128 0x49
 2128 00f6 13       		.uleb128 0x13
 2129 00f7 11       		.uleb128 0x11
 2130 00f8 01       		.uleb128 0x1
 2131 00f9 12       		.uleb128 0x12
 2132 00fa 06       		.uleb128 0x6
 2133 00fb 40       		.uleb128 0x40
 2134 00fc 18       		.uleb128 0x18
 2135 00fd 9742     		.uleb128 0x2117
 2136 00ff 19       		.uleb128 0x19
 2137 0100 00       		.byte	0
 2138 0101 00       		.byte	0
 2139 0102 11       		.uleb128 0x11
 2140 0103 2E       		.uleb128 0x2e
 2141 0104 01       		.byte	0x1
 2142 0105 3F       		.uleb128 0x3f
 2143 0106 19       		.uleb128 0x19
 2144 0107 03       		.uleb128 0x3
 2145 0108 0E       		.uleb128 0xe
 2146 0109 3A       		.uleb128 0x3a
 2147 010a 0B       		.uleb128 0xb
 2148 010b 3B       		.uleb128 0x3b
 2149 010c 0B       		.uleb128 0xb
ARM GAS  C:\Users\Petro\AppData\Local\Temp\cctyLdqT.s 			page 45


 2150 010d 27       		.uleb128 0x27
 2151 010e 19       		.uleb128 0x19
 2152 010f 11       		.uleb128 0x11
 2153 0110 01       		.uleb128 0x1
 2154 0111 12       		.uleb128 0x12
 2155 0112 06       		.uleb128 0x6
 2156 0113 40       		.uleb128 0x40
 2157 0114 18       		.uleb128 0x18
 2158 0115 9742     		.uleb128 0x2117
 2159 0117 19       		.uleb128 0x19
 2160 0118 01       		.uleb128 0x1
 2161 0119 13       		.uleb128 0x13
 2162 011a 00       		.byte	0
 2163 011b 00       		.byte	0
 2164 011c 12       		.uleb128 0x12
 2165 011d 05       		.uleb128 0x5
 2166 011e 00       		.byte	0
 2167 011f 03       		.uleb128 0x3
 2168 0120 0E       		.uleb128 0xe
 2169 0121 3A       		.uleb128 0x3a
 2170 0122 0B       		.uleb128 0xb
 2171 0123 3B       		.uleb128 0x3b
 2172 0124 0B       		.uleb128 0xb
 2173 0125 49       		.uleb128 0x49
 2174 0126 13       		.uleb128 0x13
 2175 0127 02       		.uleb128 0x2
 2176 0128 18       		.uleb128 0x18
 2177 0129 00       		.byte	0
 2178 012a 00       		.byte	0
 2179 012b 13       		.uleb128 0x13
 2180 012c 2E       		.uleb128 0x2e
 2181 012d 01       		.byte	0x1
 2182 012e 3F       		.uleb128 0x3f
 2183 012f 19       		.uleb128 0x19
 2184 0130 03       		.uleb128 0x3
 2185 0131 0E       		.uleb128 0xe
 2186 0132 3A       		.uleb128 0x3a
 2187 0133 0B       		.uleb128 0xb
 2188 0134 3B       		.uleb128 0x3b
 2189 0135 0B       		.uleb128 0xb
 2190 0136 27       		.uleb128 0x27
 2191 0137 19       		.uleb128 0x19
 2192 0138 49       		.uleb128 0x49
 2193 0139 13       		.uleb128 0x13
 2194 013a 11       		.uleb128 0x11
 2195 013b 01       		.uleb128 0x1
 2196 013c 12       		.uleb128 0x12
 2197 013d 06       		.uleb128 0x6
 2198 013e 40       		.uleb128 0x40
 2199 013f 18       		.uleb128 0x18
 2200 0140 9742     		.uleb128 0x2117
 2201 0142 19       		.uleb128 0x19
 2202 0143 01       		.uleb128 0x1
 2203 0144 13       		.uleb128 0x13
 2204 0145 00       		.byte	0
 2205 0146 00       		.byte	0
 2206 0147 14       		.uleb128 0x14
ARM GAS  C:\Users\Petro\AppData\Local\Temp\cctyLdqT.s 			page 46


 2207 0148 34       		.uleb128 0x34
 2208 0149 00       		.byte	0
 2209 014a 03       		.uleb128 0x3
 2210 014b 08       		.uleb128 0x8
 2211 014c 3A       		.uleb128 0x3a
 2212 014d 0B       		.uleb128 0xb
 2213 014e 3B       		.uleb128 0x3b
 2214 014f 0B       		.uleb128 0xb
 2215 0150 49       		.uleb128 0x49
 2216 0151 13       		.uleb128 0x13
 2217 0152 02       		.uleb128 0x2
 2218 0153 18       		.uleb128 0x18
 2219 0154 00       		.byte	0
 2220 0155 00       		.byte	0
 2221 0156 15       		.uleb128 0x15
 2222 0157 2E       		.uleb128 0x2e
 2223 0158 01       		.byte	0x1
 2224 0159 03       		.uleb128 0x3
 2225 015a 0E       		.uleb128 0xe
 2226 015b 3A       		.uleb128 0x3a
 2227 015c 0B       		.uleb128 0xb
 2228 015d 3B       		.uleb128 0x3b
 2229 015e 05       		.uleb128 0x5
 2230 015f 27       		.uleb128 0x27
 2231 0160 19       		.uleb128 0x19
 2232 0161 49       		.uleb128 0x49
 2233 0162 13       		.uleb128 0x13
 2234 0163 11       		.uleb128 0x11
 2235 0164 01       		.uleb128 0x1
 2236 0165 12       		.uleb128 0x12
 2237 0166 06       		.uleb128 0x6
 2238 0167 40       		.uleb128 0x40
 2239 0168 18       		.uleb128 0x18
 2240 0169 9642     		.uleb128 0x2116
 2241 016b 19       		.uleb128 0x19
 2242 016c 01       		.uleb128 0x1
 2243 016d 13       		.uleb128 0x13
 2244 016e 00       		.byte	0
 2245 016f 00       		.byte	0
 2246 0170 16       		.uleb128 0x16
 2247 0171 05       		.uleb128 0x5
 2248 0172 00       		.byte	0
 2249 0173 03       		.uleb128 0x3
 2250 0174 0E       		.uleb128 0xe
 2251 0175 3A       		.uleb128 0x3a
 2252 0176 0B       		.uleb128 0xb
 2253 0177 3B       		.uleb128 0x3b
 2254 0178 05       		.uleb128 0x5
 2255 0179 49       		.uleb128 0x49
 2256 017a 13       		.uleb128 0x13
 2257 017b 02       		.uleb128 0x2
 2258 017c 18       		.uleb128 0x18
 2259 017d 00       		.byte	0
 2260 017e 00       		.byte	0
 2261 017f 17       		.uleb128 0x17
 2262 0180 34       		.uleb128 0x34
 2263 0181 00       		.byte	0
ARM GAS  C:\Users\Petro\AppData\Local\Temp\cctyLdqT.s 			page 47


 2264 0182 03       		.uleb128 0x3
 2265 0183 0E       		.uleb128 0xe
 2266 0184 3A       		.uleb128 0x3a
 2267 0185 0B       		.uleb128 0xb
 2268 0186 3B       		.uleb128 0x3b
 2269 0187 05       		.uleb128 0x5
 2270 0188 49       		.uleb128 0x49
 2271 0189 13       		.uleb128 0x13
 2272 018a 02       		.uleb128 0x2
 2273 018b 18       		.uleb128 0x18
 2274 018c 00       		.byte	0
 2275 018d 00       		.byte	0
 2276 018e 18       		.uleb128 0x18
 2277 018f 0F       		.uleb128 0xf
 2278 0190 00       		.byte	0
 2279 0191 0B       		.uleb128 0xb
 2280 0192 0B       		.uleb128 0xb
 2281 0193 49       		.uleb128 0x49
 2282 0194 13       		.uleb128 0x13
 2283 0195 00       		.byte	0
 2284 0196 00       		.byte	0
 2285 0197 19       		.uleb128 0x19
 2286 0198 2E       		.uleb128 0x2e
 2287 0199 01       		.byte	0x1
 2288 019a 03       		.uleb128 0x3
 2289 019b 0E       		.uleb128 0xe
 2290 019c 3A       		.uleb128 0x3a
 2291 019d 0B       		.uleb128 0xb
 2292 019e 3B       		.uleb128 0x3b
 2293 019f 05       		.uleb128 0x5
 2294 01a0 27       		.uleb128 0x27
 2295 01a1 19       		.uleb128 0x19
 2296 01a2 11       		.uleb128 0x11
 2297 01a3 01       		.uleb128 0x1
 2298 01a4 12       		.uleb128 0x12
 2299 01a5 06       		.uleb128 0x6
 2300 01a6 40       		.uleb128 0x40
 2301 01a7 18       		.uleb128 0x18
 2302 01a8 9642     		.uleb128 0x2116
 2303 01aa 19       		.uleb128 0x19
 2304 01ab 01       		.uleb128 0x1
 2305 01ac 13       		.uleb128 0x13
 2306 01ad 00       		.byte	0
 2307 01ae 00       		.byte	0
 2308 01af 1A       		.uleb128 0x1a
 2309 01b0 05       		.uleb128 0x5
 2310 01b1 00       		.byte	0
 2311 01b2 03       		.uleb128 0x3
 2312 01b3 08       		.uleb128 0x8
 2313 01b4 3A       		.uleb128 0x3a
 2314 01b5 0B       		.uleb128 0xb
 2315 01b6 3B       		.uleb128 0x3b
 2316 01b7 05       		.uleb128 0x5
 2317 01b8 49       		.uleb128 0x49
 2318 01b9 13       		.uleb128 0x13
 2319 01ba 02       		.uleb128 0x2
 2320 01bb 18       		.uleb128 0x18
ARM GAS  C:\Users\Petro\AppData\Local\Temp\cctyLdqT.s 			page 48


 2321 01bc 00       		.byte	0
 2322 01bd 00       		.byte	0
 2323 01be 1B       		.uleb128 0x1b
 2324 01bf 34       		.uleb128 0x34
 2325 01c0 00       		.byte	0
 2326 01c1 03       		.uleb128 0x3
 2327 01c2 0E       		.uleb128 0xe
 2328 01c3 3A       		.uleb128 0x3a
 2329 01c4 0B       		.uleb128 0xb
 2330 01c5 3B       		.uleb128 0x3b
 2331 01c6 0B       		.uleb128 0xb
 2332 01c7 49       		.uleb128 0x49
 2333 01c8 13       		.uleb128 0x13
 2334 01c9 3F       		.uleb128 0x3f
 2335 01ca 19       		.uleb128 0x19
 2336 01cb 02       		.uleb128 0x2
 2337 01cc 18       		.uleb128 0x18
 2338 01cd 00       		.byte	0
 2339 01ce 00       		.byte	0
 2340 01cf 00       		.byte	0
 2341              		.section	.debug_aranges,"",%progbits
 2342 0000 64000000 		.4byte	0x64
 2343 0004 0200     		.2byte	0x2
 2344 0006 00000000 		.4byte	.Ldebug_info0
 2345 000a 04       		.byte	0x4
 2346 000b 00       		.byte	0
 2347 000c 0000     		.2byte	0
 2348 000e 0000     		.2byte	0
 2349 0010 00000000 		.4byte	.LFB63
 2350 0014 50000000 		.4byte	.LFE63-.LFB63
 2351 0018 00000000 		.4byte	.LFB64
 2352 001c EC000000 		.4byte	.LFE64-.LFB64
 2353 0020 00000000 		.4byte	.LFB65
 2354 0024 E0000000 		.4byte	.LFE65-.LFB65
 2355 0028 00000000 		.4byte	.LFB66
 2356 002c 14000000 		.4byte	.LFE66-.LFB66
 2357 0030 00000000 		.4byte	.LFB67
 2358 0034 30000000 		.4byte	.LFE67-.LFB67
 2359 0038 00000000 		.4byte	.LFB68
 2360 003c 14000000 		.4byte	.LFE68-.LFB68
 2361 0040 00000000 		.4byte	.LFB69
 2362 0044 28000000 		.4byte	.LFE69-.LFB69
 2363 0048 00000000 		.4byte	.LFB70
 2364 004c 9C010000 		.4byte	.LFE70-.LFB70
 2365 0050 00000000 		.4byte	.LFB71
 2366 0054 B6000000 		.4byte	.LFE71-.LFB71
 2367 0058 00000000 		.4byte	.LFB72
 2368 005c 6C000000 		.4byte	.LFE72-.LFB72
 2369 0060 00000000 		.4byte	0
 2370 0064 00000000 		.4byte	0
 2371              		.section	.debug_ranges,"",%progbits
 2372              	.Ldebug_ranges0:
 2373 0000 00000000 		.4byte	.LFB63
 2374 0004 50000000 		.4byte	.LFE63
 2375 0008 00000000 		.4byte	.LFB64
 2376 000c EC000000 		.4byte	.LFE64
 2377 0010 00000000 		.4byte	.LFB65
ARM GAS  C:\Users\Petro\AppData\Local\Temp\cctyLdqT.s 			page 49


 2378 0014 E0000000 		.4byte	.LFE65
 2379 0018 00000000 		.4byte	.LFB66
 2380 001c 14000000 		.4byte	.LFE66
 2381 0020 00000000 		.4byte	.LFB67
 2382 0024 30000000 		.4byte	.LFE67
 2383 0028 00000000 		.4byte	.LFB68
 2384 002c 14000000 		.4byte	.LFE68
 2385 0030 00000000 		.4byte	.LFB69
 2386 0034 28000000 		.4byte	.LFE69
 2387 0038 00000000 		.4byte	.LFB70
 2388 003c 9C010000 		.4byte	.LFE70
 2389 0040 00000000 		.4byte	.LFB71
 2390 0044 B6000000 		.4byte	.LFE71
 2391 0048 00000000 		.4byte	.LFB72
 2392 004c 6C000000 		.4byte	.LFE72
 2393 0050 00000000 		.4byte	0
 2394 0054 00000000 		.4byte	0
 2395              		.section	.debug_line,"",%progbits
 2396              	.Ldebug_line0:
 2397 0000 A2020000 		.section	.debug_str,"MS",%progbits,1
 2397      02004501 
 2397      00000201 
 2397      FB0E0D00 
 2397      01010101 
 2398              	.LASF54:
 2399 0000 72657375 		.ascii	"result\000"
 2399      6C7400
 2400              	.LASF28:
 2401 0007 4E545052 		.ascii	"NTPResp\000"
 2401      65737000 
 2402              	.LASF77:
 2403 000f 4C656E53 		.ascii	"LenSeq\000"
 2403      657100
 2404              	.LASF39:
 2405 0016 6E657753 		.ascii	"newSkier\000"
 2405      6B696572 
 2405      00
 2406              	.LASF27:
 2407 001f 44617461 		.ascii	"DataMs1\000"
 2407      4D733100 
 2408              	.LASF58:
 2409 0027 756E6978 		.ascii	"unixTime\000"
 2409      54696D65 
 2409      00
 2410              	.LASF46:
 2411 0030 53656E64 		.ascii	"SendData\000"
 2411      44617461 
 2411      00
 2412              	.LASF43:
 2413 0039 73656E64 		.ascii	"sendData\000"
 2413      44617461 
 2413      00
 2414              	.LASF60:
 2415 0042 72657375 		.ascii	"resultReceive\000"
 2415      6C745265 
 2415      63656976 
 2415      6500
ARM GAS  C:\Users\Petro\AppData\Local\Temp\cctyLdqT.s 			page 50


 2416              	.LASF16:
 2417 0050 75696E74 		.ascii	"uint64_t\000"
 2417      36345F74 
 2417      00
 2418              	.LASF61:
 2419 0059 6E6F436F 		.ascii	"noConnect\000"
 2419      6E6E6563 
 2419      7400
 2420              	.LASF31:
 2421 0063 7265626F 		.ascii	"reboot\000"
 2421      6F7400
 2422              	.LASF20:
 2423 006a 73697A65 		.ascii	"sizetype\000"
 2423      74797065 
 2423      00
 2424              	.LASF45:
 2425 0073 72656376 		.ascii	"recvData\000"
 2425      44617461 
 2425      00
 2426              	.LASF70:
 2427 007c 6D696C6C 		.ascii	"millis3\000"
 2427      69733300 
 2428              	.LASF82:
 2429 0084 4E74704C 		.ascii	"NtpLenId\000"
 2429      656E4964 
 2429      00
 2430              	.LASF56:
 2431 008d 49447265 		.ascii	"IDreceivePacket\000"
 2431      63656976 
 2431      65506163 
 2431      6B657400 
 2432              	.LASF38:
 2433 009d 73746172 		.ascii	"startMsTime\000"
 2433      744D7354 
 2433      696D6500 
 2434              	.LASF7:
 2435 00a9 5F5F7569 		.ascii	"__uint32_t\000"
 2435      6E743332 
 2435      5F7400
 2436              	.LASF63:
 2437 00b4 756E6978 		.ascii	"unixTime2\000"
 2437      54696D65 
 2437      3200
 2438              	.LASF68:
 2439 00be 756E6978 		.ascii	"unixTime3\000"
 2439      54696D65 
 2439      3300
 2440              	.LASF4:
 2441 00c8 5F5F7569 		.ascii	"__uint16_t\000"
 2441      6E743136 
 2441      5F7400
 2442              	.LASF2:
 2443 00d3 73686F72 		.ascii	"short int\000"
 2443      7420696E 
 2443      7400
 2444              	.LASF72:
 2445 00dd 66696E4E 		.ascii	"finNoReady\000"
ARM GAS  C:\Users\Petro\AppData\Local\Temp\cctyLdqT.s 			page 51


 2445      6F526561 
 2445      647900
 2446              	.LASF42:
 2447 00e8 73656E64 		.ascii	"sendBuffer\000"
 2447      42756666 
 2447      657200
 2448              	.LASF13:
 2449 00f3 75696E74 		.ascii	"uint8_t\000"
 2449      385F7400 
 2450              	.LASF50:
 2451 00fb 4E657477 		.ascii	"NetworkStatus\000"
 2451      6F726B53 
 2451      74617475 
 2451      7300
 2452              	.LASF41:
 2453 0109 53746172 		.ascii	"StartData\000"
 2453      74446174 
 2453      6100
 2454              	.LASF66:
 2455 0113 73617665 		.ascii	"saveTime\000"
 2455      54696D65 
 2455      00
 2456              	.LASF67:
 2457 011c 72656376 		.ascii	"recvDataNTP\000"
 2457      44617461 
 2457      4E545000 
 2458              	.LASF17:
 2459 0128 666C6F61 		.ascii	"float\000"
 2459      7400
 2460              	.LASF73:
 2461 012e 50524F54 		.ascii	"PROTO_STATE\000"
 2461      4F5F5354 
 2461      41544500 
 2462              	.LASF9:
 2463 013a 6C6F6E67 		.ascii	"long long int\000"
 2463      206C6F6E 
 2463      6720696E 
 2463      7400
 2464              	.LASF36:
 2465 0148 46696E69 		.ascii	"FinishData\000"
 2465      73684461 
 2465      746100
 2466              	.LASF6:
 2467 0153 6C6F6E67 		.ascii	"long int\000"
 2467      20696E74 
 2467      00
 2468              	.LASF85:
 2469 015c 6F757444 		.ascii	"outData\000"
 2469      61746100 
 2470              	.LASF90:
 2471 0164 52657370 		.ascii	"Resp\000"
 2471      00
 2472              	.LASF75:
 2473 0169 4C656E44 		.ascii	"LenD2\000"
 2473      3200
 2474              	.LASF57:
 2475 016f 6C617374 		.ascii	"lastIDpacket\000"
ARM GAS  C:\Users\Petro\AppData\Local\Temp\cctyLdqT.s 			page 52


 2475      49447061 
 2475      636B6574 
 2475      00
 2476              	.LASF40:
 2477 017c 77726974 		.ascii	"writeStatus\000"
 2477      65537461 
 2477      74757300 
 2478              	.LASF88:
 2479 0188 2E5C6C69 		.ascii	".\\lib_Network\\network.c\000"
 2479      625F4E65 
 2479      74776F72 
 2479      6B5C6E65 
 2479      74776F72 
 2480              	.LASF3:
 2481 01a0 5F5F7569 		.ascii	"__uint8_t\000"
 2481      6E74385F 
 2481      7400
 2482              	.LASF84:
 2483 01aa 696E4461 		.ascii	"inData\000"
 2483      746100
 2484              	.LASF34:
 2485 01b1 746D704D 		.ascii	"tmpMsTime\000"
 2485      7354696D 
 2485      6500
 2486              	.LASF25:
 2487 01bb 43686563 		.ascii	"CheckSum\000"
 2487      6B53756D 
 2487      00
 2488              	.LASF1:
 2489 01c4 756E7369 		.ascii	"unsigned char\000"
 2489      676E6564 
 2489      20636861 
 2489      7200
 2490              	.LASF74:
 2491 01d2 4C656E44 		.ascii	"LenD1\000"
 2491      3100
 2492              	.LASF86:
 2493 01d8 70726576 		.ascii	"previousData\000"
 2493      696F7573 
 2493      44617461 
 2493      00
 2494              	.LASF76:
 2495 01e5 4C656E44 		.ascii	"LenD3\000"
 2495      3300
 2496              	.LASF0:
 2497 01eb 7369676E 		.ascii	"signed char\000"
 2497      65642063 
 2497      68617200 
 2498              	.LASF11:
 2499 01f7 6C6F6E67 		.ascii	"long long unsigned int\000"
 2499      206C6F6E 
 2499      6720756E 
 2499      7369676E 
 2499      65642069 
 2500              	.LASF15:
 2501 020e 75696E74 		.ascii	"uint32_t\000"
 2501      33325F74 
ARM GAS  C:\Users\Petro\AppData\Local\Temp\cctyLdqT.s 			page 53


 2501      00
 2502              	.LASF69:
 2503 0217 6D696C6C 		.ascii	"millis2\000"
 2503      69733200 
 2504              	.LASF48:
 2505 021f 756E6978 		.ascii	"unixTimeStart\000"
 2505      54696D65 
 2505      53746172 
 2505      7400
 2506              	.LASF12:
 2507 022d 756E7369 		.ascii	"unsigned int\000"
 2507      676E6564 
 2507      20696E74 
 2507      00
 2508              	.LASF78:
 2509 023a 4C656E43 		.ascii	"LenChS\000"
 2509      685300
 2510              	.LASF8:
 2511 0241 6C6F6E67 		.ascii	"long unsigned int\000"
 2511      20756E73 
 2511      69676E65 
 2511      6420696E 
 2511      7400
 2512              	.LASF91:
 2513 0253 496E6974 		.ascii	"InitNetwork\000"
 2513      4E657477 
 2513      6F726B00 
 2514              	.LASF80:
 2515 025f 4E74704C 		.ascii	"NtpLenD1\000"
 2515      656E4431 
 2515      00
 2516              	.LASF29:
 2517 0268 49447061 		.ascii	"IDpacket\000"
 2517      636B6574 
 2517      00
 2518              	.LASF21:
 2519 0271 436F6D6D 		.ascii	"Command\000"
 2519      616E6400 
 2520              	.LASF35:
 2521 0279 72656164 		.ascii	"readStatus\000"
 2521      53746174 
 2521      757300
 2522              	.LASF33:
 2523 0284 746D7054 		.ascii	"tmpTime\000"
 2523      696D6500 
 2524              	.LASF19:
 2525 028c 63686172 		.ascii	"char\000"
 2525      00
 2526              	.LASF14:
 2527 0291 75696E74 		.ascii	"uint16_t\000"
 2527      31365F74 
 2527      00
 2528              	.LASF51:
 2529 029a 46696E52 		.ascii	"FinReady\000"
 2529      65616479 
 2529      00
 2530              	.LASF30:
ARM GAS  C:\Users\Petro\AppData\Local\Temp\cctyLdqT.s 			page 54


 2531 02a3 72656164 		.ascii	"ready\000"
 2531      7900
 2532              	.LASF87:
 2533 02a9 474E5520 		.ascii	"GNU C 4.9.3 20150303 (release) [ARM/embedded-4_9-br"
 2533      4320342E 
 2533      392E3320 
 2533      32303135 
 2533      30333033 
 2534 02dc 616E6368 		.ascii	"anch revision 221220] -mcpu=cortex-m0 -mthumb -g -O"
 2534      20726576 
 2534      6973696F 
 2534      6E203232 
 2534      31323230 
 2535 030f 30202D66 		.ascii	"0 -ffunction-sections -ffat-lto-objects\000"
 2535      66756E63 
 2535      74696F6E 
 2535      2D736563 
 2535      74696F6E 
 2536              	.LASF37:
 2537 0337 756E6978 		.ascii	"unixStartTime\000"
 2537      53746172 
 2537      7454696D 
 2537      6500
 2538              	.LASF5:
 2539 0345 73686F72 		.ascii	"short unsigned int\000"
 2539      7420756E 
 2539      7369676E 
 2539      65642069 
 2539      6E7400
 2540              	.LASF49:
 2541 0358 72656365 		.ascii	"recentMs\000"
 2541      6E744D73 
 2541      00
 2542              	.LASF64:
 2543 0361 6D696C6C 		.ascii	"millisTime2\000"
 2543      69735469 
 2543      6D653200 
 2544              	.LASF22:
 2545 036d 44617461 		.ascii	"Data1\000"
 2545      3100
 2546              	.LASF23:
 2547 0373 44617461 		.ascii	"Data2\000"
 2547      3200
 2548              	.LASF10:
 2549 0379 5F5F7569 		.ascii	"__uint64_t\000"
 2549      6E743634 
 2549      5F7400
 2550              	.LASF89:
 2551 0384 443A5C43 		.ascii	"D:\\Cypress\\system-start-finish\\vesion 2\\fw\\sta"
 2551      79707265 
 2551      73735C73 
 2551      79737465 
 2551      6D2D7374 
 2552 03b2 72745C73 		.ascii	"rt\\sandbox\\v3\\Start(state machine)\\start_v0.cyd"
 2552      616E6462 
 2552      6F785C76 
 2552      335C5374 
ARM GAS  C:\Users\Petro\AppData\Local\Temp\cctyLdqT.s 			page 55


 2552      61727428 
 2553 03e1 736E00   		.ascii	"sn\000"
 2554              	.LASF59:
 2555 03e4 6D696C6C 		.ascii	"millisTime\000"
 2555      69735469 
 2555      6D6500
 2556              	.LASF62:
 2557 03ef 62756666 		.ascii	"buffer\000"
 2557      657200
 2558              	.LASF53:
 2559 03f6 46696E57 		.ascii	"FinWriteInDB\000"
 2559      72697465 
 2559      496E4442 
 2559      00
 2560              	.LASF18:
 2561 0403 646F7562 		.ascii	"double\000"
 2561      6C6500
 2562              	.LASF71:
 2563 040a 6E657477 		.ascii	"networkStatus\000"
 2563      6F726B53 
 2563      74617475 
 2563      7300
 2564              	.LASF83:
 2565 0418 4E74704C 		.ascii	"NtpLenChS\000"
 2565      656E4368 
 2565      5300
 2566              	.LASF44:
 2567 0422 62797465 		.ascii	"byte\000"
 2567      00
 2568              	.LASF81:
 2569 0427 4E74704C 		.ascii	"NtpLenMsD1\000"
 2569      656E4D73 
 2569      443100
 2570              	.LASF55:
 2571 0432 4E545073 		.ascii	"NTPsync\000"
 2571      796E6300 
 2572              	.LASF24:
 2573 043a 44617461 		.ascii	"Data3\000"
 2573      3300
 2574              	.LASF52:
 2575 0440 52656365 		.ascii	"ReceiveData\000"
 2575      69766544 
 2575      61746100 
 2576              	.LASF65:
 2577 044c 49447265 		.ascii	"IDreceive\000"
 2577      63656976 
 2577      6500
 2578              	.LASF26:
 2579 0456 456E6450 		.ascii	"EndPacket\000"
 2579      61636B65 
 2579      7400
 2580              	.LASF92:
 2581 0460 4E545072 		.ascii	"NTPreceiveTime\000"
 2581      65636569 
 2581      76655469 
 2581      6D6500
 2582              	.LASF79:
ARM GAS  C:\Users\Petro\AppData\Local\Temp\cctyLdqT.s 			page 56


 2583 046f 4C656E43 		.ascii	"LenC\000"
 2583      00
 2584              	.LASF47:
 2585 0474 53656E64 		.ascii	"SendSkierStart\000"
 2585      536B6965 
 2585      72537461 
 2585      727400
 2586              	.LASF32:
 2587 0483 636F756E 		.ascii	"countSkiers\000"
 2587      74536B69 
 2587      65727300 
 2588              	.LASF93:
 2589 048f 4E545073 		.ascii	"NTPsendTime\000"
 2589      656E6454 
 2589      696D6500 
 2590              		.ident	"GCC: (GNU Tools for ARM Embedded Processors) 4.9.3 20150303 (release) [ARM/embedded-4_9-br
