ARM GAS  C:\Users\Petro\AppData\Local\Temp\ccCq3ck9.s 			page 1


   1              		.cpu cortex-m0
   2              		.fpu softvfp
   3              		.eabi_attribute 20, 1
   4              		.eabi_attribute 21, 1
   5              		.eabi_attribute 23, 3
   6              		.eabi_attribute 24, 1
   7              		.eabi_attribute 25, 1
   8              		.eabi_attribute 26, 1
   9              		.eabi_attribute 30, 6
  10              		.eabi_attribute 34, 0
  11              		.eabi_attribute 18, 4
  12              		.code	16
  13              		.file	"svt.c"
  14              		.text
  15              	.Ltext0:
  16              		.cfi_sections	.debug_frame
  17              		.comm	PROTO_STATE,1,1
  18              		.comm	LenD1,1,1
  19              		.comm	LenD2,1,1
  20              		.comm	LenD3,1,1
  21              		.comm	LenSeq,1,1
  22              		.comm	LenChS,1,1
  23              		.comm	LenC,1,1
  24              		.section	.rodata
  25              		.align	2
  26              	.LC8:
  27 0000 25303258 		.ascii	"%02X:%08X%08X%04X%04X\000"
  27      3A253038 
  27      58253038 
  27      58253034 
  27      58253034 
  28 0016 0000     		.align	2
  29              	.LC10:
  30 0018 4100     		.ascii	"A\000"
  31 001a 0000     		.align	2
  32              	.LC12:
  33 001c 4600     		.ascii	"F\000"
  34              		.section	.text.UnpackData,"ax",%progbits
  35              		.align	2
  36              		.global	UnpackData
  37              		.code	16
  38              		.thumb_func
  39              		.type	UnpackData, %function
  40              	UnpackData:
  41              	.LFB2:
  42              		.file 1 ".\\lib_Network\\svt.c"
   1:.\lib_Network/svt.c **** #include "svt.h"
   2:.\lib_Network/svt.c **** 
   3:.\lib_Network/svt.c **** 
   4:.\lib_Network/svt.c **** uint8_t UnpackData(struct Resp *Data, uint8_t InByte)
   5:.\lib_Network/svt.c **** {
  43              		.loc 1 5 0
  44              		.cfi_startproc
  45 0000 F0B5     		push	{r4, r5, r6, r7, lr}
  46              		.cfi_def_cfa_offset 20
  47              		.cfi_offset 4, -20
  48              		.cfi_offset 5, -16
ARM GAS  C:\Users\Petro\AppData\Local\Temp\ccCq3ck9.s 			page 2


  49              		.cfi_offset 6, -12
  50              		.cfi_offset 7, -8
  51              		.cfi_offset 14, -4
  52 0002 99B0     		sub	sp, sp, #100
  53              		.cfi_def_cfa_offset 120
  54 0004 04AF     		add	r7, sp, #16
  55              		.cfi_def_cfa 7, 104
  56 0006 F861     		str	r0, [r7, #28]
  57 0008 0A1C     		mov	r2, r1
  58 000a 1B23     		mov	r3, #27
  59 000c FB18     		add	r3, r7, r3
  60 000e 1A70     		strb	r2, [r3]
   6:.\lib_Network/svt.c **** 	uint32_t ERR_CODE = 0;
  61              		.loc 1 6 0
  62 0010 0023     		mov	r3, #0
  63 0012 FB64     		str	r3, [r7, #76]
   7:.\lib_Network/svt.c **** 	InByte = DecodeByte(InByte);
  64              		.loc 1 7 0
  65 0014 1B23     		mov	r3, #27
  66 0016 FE18     		add	r6, r7, r3
  67 0018 1B23     		mov	r3, #27
  68 001a FB18     		add	r3, r7, r3
  69 001c 1B78     		ldrb	r3, [r3]
  70 001e 181C     		mov	r0, r3
  71 0020 FFF7FEFF 		bl	DecodeByte
  72 0024 031C     		mov	r3, r0
  73 0026 3370     		strb	r3, [r6]
   8:.\lib_Network/svt.c ****     if (InByte == STX)
  74              		.loc 1 8 0
  75 0028 1B23     		mov	r3, #27
  76 002a FB18     		add	r3, r7, r3
  77 002c 1B78     		ldrb	r3, [r3]
  78 002e 3C2B     		cmp	r3, #60
  79 0030 19D1     		bne	.L2
   9:.\lib_Network/svt.c **** 	{
  10:.\lib_Network/svt.c **** 	    PROTO_STATE = READ_SQ;
  80              		.loc 1 10 0
  81 0032 C44B     		ldr	r3, .L51
  82 0034 0122     		mov	r2, #1
  83 0036 1A70     		strb	r2, [r3]
  11:.\lib_Network/svt.c **** 		ResetPacket(Data);
  84              		.loc 1 11 0
  85 0038 FB69     		ldr	r3, [r7, #28]
  86 003a 181C     		mov	r0, r3
  87 003c FFF7FEFF 		bl	ResetPacket
  12:.\lib_Network/svt.c **** 		LenSeq = 0;
  88              		.loc 1 12 0
  89 0040 C14B     		ldr	r3, .L51+4
  90 0042 0022     		mov	r2, #0
  91 0044 1A70     		strb	r2, [r3]
  13:.\lib_Network/svt.c **** 		LenC = 0;
  92              		.loc 1 13 0
  93 0046 C14B     		ldr	r3, .L51+8
  94 0048 0022     		mov	r2, #0
  95 004a 1A70     		strb	r2, [r3]
  14:.\lib_Network/svt.c **** 		LenChS = 0;
  96              		.loc 1 14 0
ARM GAS  C:\Users\Petro\AppData\Local\Temp\ccCq3ck9.s 			page 3


  97 004c C04B     		ldr	r3, .L51+12
  98 004e 0022     		mov	r2, #0
  99 0050 1A70     		strb	r2, [r3]
  15:.\lib_Network/svt.c **** 		LenD1 = 0;
 100              		.loc 1 15 0
 101 0052 C04B     		ldr	r3, .L51+16
 102 0054 0022     		mov	r2, #0
 103 0056 1A70     		strb	r2, [r3]
  16:.\lib_Network/svt.c **** 		LenD2 = 0;
 104              		.loc 1 16 0
 105 0058 BF4B     		ldr	r3, .L51+20
 106 005a 0022     		mov	r2, #0
 107 005c 1A70     		strb	r2, [r3]
  17:.\lib_Network/svt.c ****         LenD3 = 0;
 108              		.loc 1 17 0
 109 005e BF4B     		ldr	r3, .L51+24
 110 0060 0022     		mov	r2, #0
 111 0062 1A70     		strb	r2, [r3]
 112 0064 EFE1     		b	.L3
 113              	.L2:
  18:.\lib_Network/svt.c ****     }
  19:.\lib_Network/svt.c ****     else
  20:.\lib_Network/svt.c ****     {
  21:.\lib_Network/svt.c ****     	switch(PROTO_STATE){
 114              		.loc 1 21 0
 115 0066 B74B     		ldr	r3, .L51
 116 0068 1B78     		ldrb	r3, [r3]
 117 006a 0A2B     		cmp	r3, #10
 118 006c 00D9     		bls	.LCB67
 119 006e E6E1     		b	.L4	@long jump
 120              	.LCB67:
 121 0070 9A00     		lsl	r2, r3, #2
 122 0072 BB4B     		ldr	r3, .L51+28
 123 0074 D318     		add	r3, r2, r3
 124 0076 1B68     		ldr	r3, [r3]
 125 0078 9F46     		mov	pc, r3
 126              		.section	.rodata
 127 001e 0000     		.align	2
 128              	.L6:
 129 0020 3E040000 		.word	.L4
 130 0024 7A000000 		.word	.L5
 131 0028 D4000000 		.word	.L7
 132 002c FA000000 		.word	.L8
 133 0030 56010000 		.word	.L9
 134 0034 7C010000 		.word	.L10
 135 0038 FC010000 		.word	.L11
 136 003c 5E020000 		.word	.L12
 137 0040 C0020000 		.word	.L13
 138 0044 E6020000 		.word	.L14
 139 0048 64030000 		.word	.L15
 140              		.section	.text.UnpackData
 141              	.L5:
  22:.\lib_Network/svt.c ****     		case READ_SQ:
  23:.\lib_Network/svt.c ****     		{
  24:.\lib_Network/svt.c ****     			if(CheckSymb(InByte))
 142              		.loc 1 24 0
 143 007a 1B23     		mov	r3, #27
ARM GAS  C:\Users\Petro\AppData\Local\Temp\ccCq3ck9.s 			page 4


 144 007c FB18     		add	r3, r7, r3
 145 007e 1B78     		ldrb	r3, [r3]
 146 0080 181C     		mov	r0, r3
 147 0082 FFF7FEFF 		bl	CheckSymb
 148 0086 031E     		sub	r3, r0, #0
 149 0088 1ED0     		beq	.L16
  25:.\lib_Network/svt.c ****     			{
  26:.\lib_Network/svt.c ****     				Data->Seq |= InByte;
 150              		.loc 1 26 0
 151 008a FB69     		ldr	r3, [r7, #28]
 152 008c 1A88     		ldrh	r2, [r3]
 153 008e 1B23     		mov	r3, #27
 154 0090 FB18     		add	r3, r7, r3
 155 0092 1B78     		ldrb	r3, [r3]
 156 0094 9BB2     		uxth	r3, r3
 157 0096 1343     		orr	r3, r2
 158 0098 9AB2     		uxth	r2, r3
 159 009a FB69     		ldr	r3, [r7, #28]
 160 009c 1A80     		strh	r2, [r3]
  27:.\lib_Network/svt.c ****     				LenSeq++;
 161              		.loc 1 27 0
 162 009e AA4B     		ldr	r3, .L51+4
 163 00a0 1B78     		ldrb	r3, [r3]
 164 00a2 0133     		add	r3, r3, #1
 165 00a4 DAB2     		uxtb	r2, r3
 166 00a6 A84B     		ldr	r3, .L51+4
 167 00a8 1A70     		strb	r2, [r3]
  28:.\lib_Network/svt.c ****     				if (LenSeq == LEN_SEQ)
 168              		.loc 1 28 0
 169 00aa A74B     		ldr	r3, .L51+4
 170 00ac 1B78     		ldrb	r3, [r3]
 171 00ae 042B     		cmp	r3, #4
 172 00b0 03D1     		bne	.L17
  29:.\lib_Network/svt.c ****     				{
  30:.\lib_Network/svt.c ****     					PROTO_STATE = READ_FR1;
 173              		.loc 1 30 0
 174 00b2 A44B     		ldr	r3, .L51
 175 00b4 0222     		mov	r2, #2
 176 00b6 1A70     		strb	r2, [r3]
  31:.\lib_Network/svt.c ****     				}
  32:.\lib_Network/svt.c ****     				else
  33:.\lib_Network/svt.c ****     				{
  34:.\lib_Network/svt.c ****     					Data->Seq = Data->Seq << HALF_BYTE;
  35:.\lib_Network/svt.c ****     				}
  36:.\lib_Network/svt.c ****     			}
  37:.\lib_Network/svt.c ****     			else{
  38:.\lib_Network/svt.c ****     				PROTO_STATE = WAIT_STX;
  39:.\lib_Network/svt.c ****     				ERR_CODE = BAD_SEQ;
  40:.\lib_Network/svt.c ****     			}
  41:.\lib_Network/svt.c ****     			break;
 177              		.loc 1 41 0
 178 00b8 C5E1     		b	.L3
 179              	.L17:
  34:.\lib_Network/svt.c ****     				}
 180              		.loc 1 34 0
 181 00ba FB69     		ldr	r3, [r7, #28]
 182 00bc 1B88     		ldrh	r3, [r3]
ARM GAS  C:\Users\Petro\AppData\Local\Temp\ccCq3ck9.s 			page 5


 183 00be 1B01     		lsl	r3, r3, #4
 184 00c0 9AB2     		uxth	r2, r3
 185 00c2 FB69     		ldr	r3, [r7, #28]
 186 00c4 1A80     		strh	r2, [r3]
 187              		.loc 1 41 0
 188 00c6 BEE1     		b	.L3
 189              	.L16:
  38:.\lib_Network/svt.c ****     				ERR_CODE = BAD_SEQ;
 190              		.loc 1 38 0
 191 00c8 9E4B     		ldr	r3, .L51
 192 00ca 0022     		mov	r2, #0
 193 00cc 1A70     		strb	r2, [r3]
  39:.\lib_Network/svt.c ****     			}
 194              		.loc 1 39 0
 195 00ce 0123     		mov	r3, #1
 196 00d0 FB64     		str	r3, [r7, #76]
 197              		.loc 1 41 0
 198 00d2 B8E1     		b	.L3
 199              	.L7:
  42:.\lib_Network/svt.c ****     		}  		
  43:.\lib_Network/svt.c ****     		case READ_FR1:
  44:.\lib_Network/svt.c ****     		{
  45:.\lib_Network/svt.c ****     			if (InByte == FR1)
 200              		.loc 1 45 0
 201 00d4 1B23     		mov	r3, #27
 202 00d6 FB18     		add	r3, r7, r3
 203 00d8 1B78     		ldrb	r3, [r3]
 204 00da 212B     		cmp	r3, #33
 205 00dc 03D1     		bne	.L20
  46:.\lib_Network/svt.c ****     			{
  47:.\lib_Network/svt.c ****     				PROTO_STATE = READ_COM;
 206              		.loc 1 47 0
 207 00de 994B     		ldr	r3, .L51
 208 00e0 0322     		mov	r2, #3
 209 00e2 1A70     		strb	r2, [r3]
  48:.\lib_Network/svt.c ****     			}
  49:.\lib_Network/svt.c ****     			else
  50:.\lib_Network/svt.c ****     			{
  51:.\lib_Network/svt.c ****     				ResetPacket(Data);
  52:.\lib_Network/svt.c ****     				ERR_CODE = NO_FR1;
  53:.\lib_Network/svt.c ****     				PROTO_STATE = WAIT_STX;
  54:.\lib_Network/svt.c ****     			}
  55:.\lib_Network/svt.c ****     			break;
 210              		.loc 1 55 0
 211 00e4 AFE1     		b	.L3
 212              	.L20:
  51:.\lib_Network/svt.c ****     				ERR_CODE = NO_FR1;
 213              		.loc 1 51 0
 214 00e6 FB69     		ldr	r3, [r7, #28]
 215 00e8 181C     		mov	r0, r3
 216 00ea FFF7FEFF 		bl	ResetPacket
  52:.\lib_Network/svt.c ****     				PROTO_STATE = WAIT_STX;
 217              		.loc 1 52 0
 218 00ee 0223     		mov	r3, #2
 219 00f0 FB64     		str	r3, [r7, #76]
  53:.\lib_Network/svt.c ****     			}
 220              		.loc 1 53 0
ARM GAS  C:\Users\Petro\AppData\Local\Temp\ccCq3ck9.s 			page 6


 221 00f2 944B     		ldr	r3, .L51
 222 00f4 0022     		mov	r2, #0
 223 00f6 1A70     		strb	r2, [r3]
 224              		.loc 1 55 0
 225 00f8 A5E1     		b	.L3
 226              	.L8:
  56:.\lib_Network/svt.c ****     		}
  57:.\lib_Network/svt.c ****     		case READ_COM:
  58:.\lib_Network/svt.c ****     		{
  59:.\lib_Network/svt.c ****     			//printf("InByte Command: %02X\n", InByte);
  60:.\lib_Network/svt.c ****     			if(CheckSymb(InByte))
 227              		.loc 1 60 0
 228 00fa 1B23     		mov	r3, #27
 229 00fc FB18     		add	r3, r7, r3
 230 00fe 1B78     		ldrb	r3, [r3]
 231 0100 181C     		mov	r0, r3
 232 0102 FFF7FEFF 		bl	CheckSymb
 233 0106 031E     		sub	r3, r0, #0
 234 0108 1BD0     		beq	.L22
  61:.\lib_Network/svt.c ****     			{
  62:.\lib_Network/svt.c ****     				Data->Command |= InByte;
 235              		.loc 1 62 0
 236 010a FB69     		ldr	r3, [r7, #28]
 237 010c 5A68     		ldr	r2, [r3, #4]
 238 010e 1B23     		mov	r3, #27
 239 0110 FB18     		add	r3, r7, r3
 240 0112 1B78     		ldrb	r3, [r3]
 241 0114 1A43     		orr	r2, r3
 242 0116 FB69     		ldr	r3, [r7, #28]
 243 0118 5A60     		str	r2, [r3, #4]
  63:.\lib_Network/svt.c ****     				LenC ++;
 244              		.loc 1 63 0
 245 011a 8C4B     		ldr	r3, .L51+8
 246 011c 1B78     		ldrb	r3, [r3]
 247 011e 0133     		add	r3, r3, #1
 248 0120 DAB2     		uxtb	r2, r3
 249 0122 8A4B     		ldr	r3, .L51+8
 250 0124 1A70     		strb	r2, [r3]
  64:.\lib_Network/svt.c ****     				//printf("LenC Command: %d\n", LenC);
  65:.\lib_Network/svt.c ****     				if (LenC == LEN_COM)
 251              		.loc 1 65 0
 252 0126 894B     		ldr	r3, .L51+8
 253 0128 1B78     		ldrb	r3, [r3]
 254 012a 022B     		cmp	r3, #2
 255 012c 03D1     		bne	.L23
  66:.\lib_Network/svt.c ****     				{
  67:.\lib_Network/svt.c ****     					PROTO_STATE = READ_FR2;
 256              		.loc 1 67 0
 257 012e 854B     		ldr	r3, .L51
 258 0130 0422     		mov	r2, #4
 259 0132 1A70     		strb	r2, [r3]
  68:.\lib_Network/svt.c ****     				}
  69:.\lib_Network/svt.c ****     				else
  70:.\lib_Network/svt.c ****     				{
  71:.\lib_Network/svt.c ****     					Data->Command = Data->Command << HALF_BYTE;
  72:.\lib_Network/svt.c ****     				}
  73:.\lib_Network/svt.c ****     			}
ARM GAS  C:\Users\Petro\AppData\Local\Temp\ccCq3ck9.s 			page 7


  74:.\lib_Network/svt.c ****     			else
  75:.\lib_Network/svt.c ****     			{
  76:.\lib_Network/svt.c ****     				ResetPacket(Data);
  77:.\lib_Network/svt.c ****     				PROTO_STATE = WAIT_STX;
  78:.\lib_Network/svt.c ****     				ERR_CODE = INV_COMM;
  79:.\lib_Network/svt.c ****     			}
  80:.\lib_Network/svt.c ****     			break;
 260              		.loc 1 80 0
 261 0134 87E1     		b	.L3
 262              	.L23:
  71:.\lib_Network/svt.c ****     				}
 263              		.loc 1 71 0
 264 0136 FB69     		ldr	r3, [r7, #28]
 265 0138 5B68     		ldr	r3, [r3, #4]
 266 013a 1A01     		lsl	r2, r3, #4
 267 013c FB69     		ldr	r3, [r7, #28]
 268 013e 5A60     		str	r2, [r3, #4]
 269              		.loc 1 80 0
 270 0140 81E1     		b	.L3
 271              	.L22:
  76:.\lib_Network/svt.c ****     				PROTO_STATE = WAIT_STX;
 272              		.loc 1 76 0
 273 0142 FB69     		ldr	r3, [r7, #28]
 274 0144 181C     		mov	r0, r3
 275 0146 FFF7FEFF 		bl	ResetPacket
  77:.\lib_Network/svt.c ****     				ERR_CODE = INV_COMM;
 276              		.loc 1 77 0
 277 014a 7E4B     		ldr	r3, .L51
 278 014c 0022     		mov	r2, #0
 279 014e 1A70     		strb	r2, [r3]
  78:.\lib_Network/svt.c ****     			}
 280              		.loc 1 78 0
 281 0150 0323     		mov	r3, #3
 282 0152 FB64     		str	r3, [r7, #76]
 283              		.loc 1 80 0
 284 0154 77E1     		b	.L3
 285              	.L9:
  81:.\lib_Network/svt.c ****     		}
  82:.\lib_Network/svt.c ****     		case READ_FR2:
  83:.\lib_Network/svt.c ****     		{
  84:.\lib_Network/svt.c ****     			if (InByte == FR2)
 286              		.loc 1 84 0
 287 0156 1B23     		mov	r3, #27
 288 0158 FB18     		add	r3, r7, r3
 289 015a 1B78     		ldrb	r3, [r3]
 290 015c 3A2B     		cmp	r3, #58
 291 015e 03D1     		bne	.L26
  85:.\lib_Network/svt.c ****     			{
  86:.\lib_Network/svt.c ****     				PROTO_STATE = READ_DA1;
 292              		.loc 1 86 0
 293 0160 784B     		ldr	r3, .L51
 294 0162 0522     		mov	r2, #5
 295 0164 1A70     		strb	r2, [r3]
  87:.\lib_Network/svt.c ****     			}
  88:.\lib_Network/svt.c ****     			else
  89:.\lib_Network/svt.c ****     			{
  90:.\lib_Network/svt.c ****     				ResetPacket(Data);
ARM GAS  C:\Users\Petro\AppData\Local\Temp\ccCq3ck9.s 			page 8


  91:.\lib_Network/svt.c ****     				ERR_CODE = NO_FR2;
  92:.\lib_Network/svt.c ****     				PROTO_STATE = WAIT_STX;
  93:.\lib_Network/svt.c ****     			}
  94:.\lib_Network/svt.c ****     			break;
 296              		.loc 1 94 0
 297 0166 6EE1     		b	.L3
 298              	.L26:
  90:.\lib_Network/svt.c ****     				ERR_CODE = NO_FR2;
 299              		.loc 1 90 0
 300 0168 FB69     		ldr	r3, [r7, #28]
 301 016a 181C     		mov	r0, r3
 302 016c FFF7FEFF 		bl	ResetPacket
  91:.\lib_Network/svt.c ****     				PROTO_STATE = WAIT_STX;
 303              		.loc 1 91 0
 304 0170 0423     		mov	r3, #4
 305 0172 FB64     		str	r3, [r7, #76]
  92:.\lib_Network/svt.c ****     			}
 306              		.loc 1 92 0
 307 0174 734B     		ldr	r3, .L51
 308 0176 0022     		mov	r2, #0
 309 0178 1A70     		strb	r2, [r3]
 310              		.loc 1 94 0
 311 017a 64E1     		b	.L3
 312              	.L10:
  95:.\lib_Network/svt.c ****     		}
  96:.\lib_Network/svt.c ****     		case READ_DA1:
  97:.\lib_Network/svt.c ****     		{
  98:.\lib_Network/svt.c **** 
  99:.\lib_Network/svt.c ****     			if(CheckSymb(InByte))
 313              		.loc 1 99 0
 314 017c 1B23     		mov	r3, #27
 315 017e FB18     		add	r3, r7, r3
 316 0180 1B78     		ldrb	r3, [r3]
 317 0182 181C     		mov	r0, r3
 318 0184 FFF7FEFF 		bl	CheckSymb
 319 0188 031E     		sub	r3, r0, #0
 320 018a 2DD0     		beq	.L28
 100:.\lib_Network/svt.c ****     			{
 101:.\lib_Network/svt.c ****     				Data->Data1 |= InByte;
 321              		.loc 1 101 0
 322 018c FB69     		ldr	r3, [r7, #28]
 323 018e 9A68     		ldr	r2, [r3, #8]
 324 0190 DB68     		ldr	r3, [r3, #12]
 325 0192 1B21     		mov	r1, #27
 326 0194 7918     		add	r1, r7, r1
 327 0196 0978     		ldrb	r1, [r1]
 328 0198 C9B2     		uxtb	r1, r1
 329 019a 3961     		str	r1, [r7, #16]
 330 019c 0021     		mov	r1, #0
 331 019e 7961     		str	r1, [r7, #20]
 332 01a0 3969     		ldr	r1, [r7, #16]
 333 01a2 1143     		orr	r1, r2
 334 01a4 B960     		str	r1, [r7, #8]
 335 01a6 7969     		ldr	r1, [r7, #20]
 336 01a8 1943     		orr	r1, r3
 337 01aa F960     		str	r1, [r7, #12]
 338 01ac FB69     		ldr	r3, [r7, #28]
ARM GAS  C:\Users\Petro\AppData\Local\Temp\ccCq3ck9.s 			page 9


 339 01ae B968     		ldr	r1, [r7, #8]
 340 01b0 FA68     		ldr	r2, [r7, #12]
 341 01b2 9960     		str	r1, [r3, #8]
 342 01b4 DA60     		str	r2, [r3, #12]
 102:.\lib_Network/svt.c ****     				LenD1++;
 343              		.loc 1 102 0
 344 01b6 674B     		ldr	r3, .L51+16
 345 01b8 1B78     		ldrb	r3, [r3]
 346 01ba 0133     		add	r3, r3, #1
 347 01bc DAB2     		uxtb	r2, r3
 348 01be 654B     		ldr	r3, .L51+16
 349 01c0 1A70     		strb	r2, [r3]
 103:.\lib_Network/svt.c ****     				if (LenD1 == LEN_DA1)
 350              		.loc 1 103 0
 351 01c2 644B     		ldr	r3, .L51+16
 352 01c4 1B78     		ldrb	r3, [r3]
 353 01c6 102B     		cmp	r3, #16
 354 01c8 03D1     		bne	.L29
 104:.\lib_Network/svt.c ****     				{
 105:.\lib_Network/svt.c ****     					PROTO_STATE = READ_DA2;
 355              		.loc 1 105 0
 356 01ca 5E4B     		ldr	r3, .L51
 357 01cc 0622     		mov	r2, #6
 358 01ce 1A70     		strb	r2, [r3]
 106:.\lib_Network/svt.c ****     				}
 107:.\lib_Network/svt.c ****     				else
 108:.\lib_Network/svt.c ****     				{
 109:.\lib_Network/svt.c ****     					Data->Data1 = Data->Data1 << HALF_BYTE;
 110:.\lib_Network/svt.c ****     				}
 111:.\lib_Network/svt.c ****     			}
 112:.\lib_Network/svt.c ****     			else{
 113:.\lib_Network/svt.c ****     				ResetPacket(Data);
 114:.\lib_Network/svt.c ****     				ERR_CODE = INV_DA1;
 115:.\lib_Network/svt.c ****     				PROTO_STATE = WAIT_STX;
 116:.\lib_Network/svt.c ****     			}
 117:.\lib_Network/svt.c ****     			break;
 359              		.loc 1 117 0
 360 01d0 39E1     		b	.L3
 361              	.L29:
 109:.\lib_Network/svt.c ****     				}
 362              		.loc 1 109 0
 363 01d2 FB69     		ldr	r3, [r7, #28]
 364 01d4 9A68     		ldr	r2, [r3, #8]
 365 01d6 DB68     		ldr	r3, [r3, #12]
 366 01d8 110F     		lsr	r1, r2, #28
 367 01da 1D01     		lsl	r5, r3, #4
 368 01dc 0D43     		orr	r5, r1
 369 01de 1401     		lsl	r4, r2, #4
 370 01e0 FB69     		ldr	r3, [r7, #28]
 371 01e2 9C60     		str	r4, [r3, #8]
 372 01e4 DD60     		str	r5, [r3, #12]
 373              		.loc 1 117 0
 374 01e6 2EE1     		b	.L3
 375              	.L28:
 113:.\lib_Network/svt.c ****     				ERR_CODE = INV_DA1;
 376              		.loc 1 113 0
 377 01e8 FB69     		ldr	r3, [r7, #28]
ARM GAS  C:\Users\Petro\AppData\Local\Temp\ccCq3ck9.s 			page 10


 378 01ea 181C     		mov	r0, r3
 379 01ec FFF7FEFF 		bl	ResetPacket
 114:.\lib_Network/svt.c ****     				PROTO_STATE = WAIT_STX;
 380              		.loc 1 114 0
 381 01f0 0523     		mov	r3, #5
 382 01f2 FB64     		str	r3, [r7, #76]
 115:.\lib_Network/svt.c ****     			}
 383              		.loc 1 115 0
 384 01f4 534B     		ldr	r3, .L51
 385 01f6 0022     		mov	r2, #0
 386 01f8 1A70     		strb	r2, [r3]
 387              		.loc 1 117 0
 388 01fa 24E1     		b	.L3
 389              	.L11:
 118:.\lib_Network/svt.c ****     		}
 119:.\lib_Network/svt.c ****     		case READ_DA2:
 120:.\lib_Network/svt.c ****     		{
 121:.\lib_Network/svt.c ****     			
 122:.\lib_Network/svt.c **** 
 123:.\lib_Network/svt.c ****     			if(CheckSymb(InByte))
 390              		.loc 1 123 0
 391 01fc 1B23     		mov	r3, #27
 392 01fe FB18     		add	r3, r7, r3
 393 0200 1B78     		ldrb	r3, [r3]
 394 0202 181C     		mov	r0, r3
 395 0204 FFF7FEFF 		bl	CheckSymb
 396 0208 031E     		sub	r3, r0, #0
 397 020a 1ED0     		beq	.L32
 124:.\lib_Network/svt.c ****     			{
 125:.\lib_Network/svt.c ****     				Data->Data2 |= InByte;
 398              		.loc 1 125 0
 399 020c FB69     		ldr	r3, [r7, #28]
 400 020e 1A8A     		ldrh	r2, [r3, #16]
 401 0210 1B23     		mov	r3, #27
 402 0212 FB18     		add	r3, r7, r3
 403 0214 1B78     		ldrb	r3, [r3]
 404 0216 9BB2     		uxth	r3, r3
 405 0218 1343     		orr	r3, r2
 406 021a 9AB2     		uxth	r2, r3
 407 021c FB69     		ldr	r3, [r7, #28]
 408 021e 1A82     		strh	r2, [r3, #16]
 126:.\lib_Network/svt.c ****     				LenD2++;
 409              		.loc 1 126 0
 410 0220 4D4B     		ldr	r3, .L51+20
 411 0222 1B78     		ldrb	r3, [r3]
 412 0224 0133     		add	r3, r3, #1
 413 0226 DAB2     		uxtb	r2, r3
 414 0228 4B4B     		ldr	r3, .L51+20
 415 022a 1A70     		strb	r2, [r3]
 127:.\lib_Network/svt.c ****     				if (LenD2 == LEN_DA2)
 416              		.loc 1 127 0
 417 022c 4A4B     		ldr	r3, .L51+20
 418 022e 1B78     		ldrb	r3, [r3]
 419 0230 042B     		cmp	r3, #4
 420 0232 03D1     		bne	.L33
 128:.\lib_Network/svt.c ****     				{
 129:.\lib_Network/svt.c ****     					PROTO_STATE = READ_DA3;
ARM GAS  C:\Users\Petro\AppData\Local\Temp\ccCq3ck9.s 			page 11


 421              		.loc 1 129 0
 422 0234 434B     		ldr	r3, .L51
 423 0236 0722     		mov	r2, #7
 424 0238 1A70     		strb	r2, [r3]
 130:.\lib_Network/svt.c ****     				}
 131:.\lib_Network/svt.c ****     				else
 132:.\lib_Network/svt.c ****     				{
 133:.\lib_Network/svt.c ****     					Data->Data2 = Data->Data2 << HALF_BYTE;
 134:.\lib_Network/svt.c ****     				}
 135:.\lib_Network/svt.c ****     			}
 136:.\lib_Network/svt.c ****     			else{
 137:.\lib_Network/svt.c ****     				ResetPacket(Data);
 138:.\lib_Network/svt.c ****     				ERR_CODE = INV_DA2;
 139:.\lib_Network/svt.c ****     				PROTO_STATE = WAIT_STX;
 140:.\lib_Network/svt.c ****     			}
 141:.\lib_Network/svt.c ****     			break;
 425              		.loc 1 141 0
 426 023a 04E1     		b	.L3
 427              	.L33:
 133:.\lib_Network/svt.c ****     				}
 428              		.loc 1 133 0
 429 023c FB69     		ldr	r3, [r7, #28]
 430 023e 1B8A     		ldrh	r3, [r3, #16]
 431 0240 1B01     		lsl	r3, r3, #4
 432 0242 9AB2     		uxth	r2, r3
 433 0244 FB69     		ldr	r3, [r7, #28]
 434 0246 1A82     		strh	r2, [r3, #16]
 435              		.loc 1 141 0
 436 0248 FDE0     		b	.L3
 437              	.L32:
 137:.\lib_Network/svt.c ****     				ERR_CODE = INV_DA2;
 438              		.loc 1 137 0
 439 024a FB69     		ldr	r3, [r7, #28]
 440 024c 181C     		mov	r0, r3
 441 024e FFF7FEFF 		bl	ResetPacket
 138:.\lib_Network/svt.c ****     				PROTO_STATE = WAIT_STX;
 442              		.loc 1 138 0
 443 0252 0623     		mov	r3, #6
 444 0254 FB64     		str	r3, [r7, #76]
 139:.\lib_Network/svt.c ****     			}
 445              		.loc 1 139 0
 446 0256 3B4B     		ldr	r3, .L51
 447 0258 0022     		mov	r2, #0
 448 025a 1A70     		strb	r2, [r3]
 449              		.loc 1 141 0
 450 025c F3E0     		b	.L3
 451              	.L12:
 142:.\lib_Network/svt.c ****     		}
 143:.\lib_Network/svt.c **** 			case READ_DA3:
 144:.\lib_Network/svt.c ****     		{
 145:.\lib_Network/svt.c ****     			if(CheckSymb(InByte))
 452              		.loc 1 145 0
 453 025e 1B23     		mov	r3, #27
 454 0260 FB18     		add	r3, r7, r3
 455 0262 1B78     		ldrb	r3, [r3]
 456 0264 181C     		mov	r0, r3
 457 0266 FFF7FEFF 		bl	CheckSymb
ARM GAS  C:\Users\Petro\AppData\Local\Temp\ccCq3ck9.s 			page 12


 458 026a 031E     		sub	r3, r0, #0
 459 026c 1ED0     		beq	.L36
 146:.\lib_Network/svt.c ****     			{
 147:.\lib_Network/svt.c ****     				Data->Data3 |= InByte;
 460              		.loc 1 147 0
 461 026e FB69     		ldr	r3, [r7, #28]
 462 0270 5A8A     		ldrh	r2, [r3, #18]
 463 0272 1B23     		mov	r3, #27
 464 0274 FB18     		add	r3, r7, r3
 465 0276 1B78     		ldrb	r3, [r3]
 466 0278 9BB2     		uxth	r3, r3
 467 027a 1343     		orr	r3, r2
 468 027c 9AB2     		uxth	r2, r3
 469 027e FB69     		ldr	r3, [r7, #28]
 470 0280 5A82     		strh	r2, [r3, #18]
 148:.\lib_Network/svt.c ****     				LenD3++;
 471              		.loc 1 148 0
 472 0282 364B     		ldr	r3, .L51+24
 473 0284 1B78     		ldrb	r3, [r3]
 474 0286 0133     		add	r3, r3, #1
 475 0288 DAB2     		uxtb	r2, r3
 476 028a 344B     		ldr	r3, .L51+24
 477 028c 1A70     		strb	r2, [r3]
 149:.\lib_Network/svt.c ****     				if (LenD3 == LEN_DA3)
 478              		.loc 1 149 0
 479 028e 334B     		ldr	r3, .L51+24
 480 0290 1B78     		ldrb	r3, [r3]
 481 0292 042B     		cmp	r3, #4
 482 0294 03D1     		bne	.L37
 150:.\lib_Network/svt.c ****     				{
 151:.\lib_Network/svt.c ****     					PROTO_STATE = READ_FR3;
 483              		.loc 1 151 0
 484 0296 2B4B     		ldr	r3, .L51
 485 0298 0822     		mov	r2, #8
 486 029a 1A70     		strb	r2, [r3]
 152:.\lib_Network/svt.c ****     				}
 153:.\lib_Network/svt.c ****     				else
 154:.\lib_Network/svt.c ****     				{
 155:.\lib_Network/svt.c ****     					Data->Data3 = Data->Data3 << HALF_BYTE;
 156:.\lib_Network/svt.c ****     				}
 157:.\lib_Network/svt.c ****     			}
 158:.\lib_Network/svt.c ****     			else{
 159:.\lib_Network/svt.c ****     				ResetPacket(Data);
 160:.\lib_Network/svt.c ****     				ERR_CODE = INV_DA3;
 161:.\lib_Network/svt.c ****     				PROTO_STATE = WAIT_STX;
 162:.\lib_Network/svt.c ****     			}
 163:.\lib_Network/svt.c ****     			break;
 487              		.loc 1 163 0
 488 029c D3E0     		b	.L3
 489              	.L37:
 155:.\lib_Network/svt.c ****     				}
 490              		.loc 1 155 0
 491 029e FB69     		ldr	r3, [r7, #28]
 492 02a0 5B8A     		ldrh	r3, [r3, #18]
 493 02a2 1B01     		lsl	r3, r3, #4
 494 02a4 9AB2     		uxth	r2, r3
 495 02a6 FB69     		ldr	r3, [r7, #28]
ARM GAS  C:\Users\Petro\AppData\Local\Temp\ccCq3ck9.s 			page 13


 496 02a8 5A82     		strh	r2, [r3, #18]
 497              		.loc 1 163 0
 498 02aa CCE0     		b	.L3
 499              	.L36:
 159:.\lib_Network/svt.c ****     				ERR_CODE = INV_DA3;
 500              		.loc 1 159 0
 501 02ac FB69     		ldr	r3, [r7, #28]
 502 02ae 181C     		mov	r0, r3
 503 02b0 FFF7FEFF 		bl	ResetPacket
 160:.\lib_Network/svt.c ****     				PROTO_STATE = WAIT_STX;
 504              		.loc 1 160 0
 505 02b4 0A23     		mov	r3, #10
 506 02b6 FB64     		str	r3, [r7, #76]
 161:.\lib_Network/svt.c ****     			}
 507              		.loc 1 161 0
 508 02b8 224B     		ldr	r3, .L51
 509 02ba 0022     		mov	r2, #0
 510 02bc 1A70     		strb	r2, [r3]
 511              		.loc 1 163 0
 512 02be C2E0     		b	.L3
 513              	.L13:
 164:.\lib_Network/svt.c ****     		}
 165:.\lib_Network/svt.c ****     		case READ_FR3:
 166:.\lib_Network/svt.c ****     		{
 167:.\lib_Network/svt.c ****     			if (InByte == FR3)
 514              		.loc 1 167 0
 515 02c0 1B23     		mov	r3, #27
 516 02c2 FB18     		add	r3, r7, r3
 517 02c4 1B78     		ldrb	r3, [r3]
 518 02c6 402B     		cmp	r3, #64
 519 02c8 03D1     		bne	.L40
 168:.\lib_Network/svt.c ****     			{
 169:.\lib_Network/svt.c ****     				PROTO_STATE = READ_CHS;
 520              		.loc 1 169 0
 521 02ca 1E4B     		ldr	r3, .L51
 522 02cc 0922     		mov	r2, #9
 523 02ce 1A70     		strb	r2, [r3]
 170:.\lib_Network/svt.c ****     			}
 171:.\lib_Network/svt.c ****     			else
 172:.\lib_Network/svt.c ****     			{
 173:.\lib_Network/svt.c ****     				ResetPacket(Data);
 174:.\lib_Network/svt.c ****     				ERR_CODE = NO_FR3;
 175:.\lib_Network/svt.c ****     				PROTO_STATE = WAIT_STX;
 176:.\lib_Network/svt.c ****     			}
 177:.\lib_Network/svt.c ****     			break;
 524              		.loc 1 177 0
 525 02d0 B9E0     		b	.L3
 526              	.L40:
 173:.\lib_Network/svt.c ****     				ERR_CODE = NO_FR3;
 527              		.loc 1 173 0
 528 02d2 FB69     		ldr	r3, [r7, #28]
 529 02d4 181C     		mov	r0, r3
 530 02d6 FFF7FEFF 		bl	ResetPacket
 174:.\lib_Network/svt.c ****     				PROTO_STATE = WAIT_STX;
 531              		.loc 1 174 0
 532 02da 0723     		mov	r3, #7
 533 02dc FB64     		str	r3, [r7, #76]
ARM GAS  C:\Users\Petro\AppData\Local\Temp\ccCq3ck9.s 			page 14


 175:.\lib_Network/svt.c ****     			}
 534              		.loc 1 175 0
 535 02de 194B     		ldr	r3, .L51
 536 02e0 0022     		mov	r2, #0
 537 02e2 1A70     		strb	r2, [r3]
 538              		.loc 1 177 0
 539 02e4 AFE0     		b	.L3
 540              	.L14:
 178:.\lib_Network/svt.c ****     		}
 179:.\lib_Network/svt.c ****     		case READ_CHS:
 180:.\lib_Network/svt.c ****     		{
 181:.\lib_Network/svt.c ****     			if(CheckSymb(InByte))
 541              		.loc 1 181 0
 542 02e6 1B23     		mov	r3, #27
 543 02e8 FB18     		add	r3, r7, r3
 544 02ea 1B78     		ldrb	r3, [r3]
 545 02ec 181C     		mov	r0, r3
 546 02ee FFF7FEFF 		bl	CheckSymb
 547 02f2 031E     		sub	r3, r0, #0
 548 02f4 1BD0     		beq	.L42
 182:.\lib_Network/svt.c ****     			{
 183:.\lib_Network/svt.c ****     				Data->CheckSum |= InByte;
 549              		.loc 1 183 0
 550 02f6 FB69     		ldr	r3, [r7, #28]
 551 02f8 5A69     		ldr	r2, [r3, #20]
 552 02fa 1B23     		mov	r3, #27
 553 02fc FB18     		add	r3, r7, r3
 554 02fe 1B78     		ldrb	r3, [r3]
 555 0300 1A43     		orr	r2, r3
 556 0302 FB69     		ldr	r3, [r7, #28]
 557 0304 5A61     		str	r2, [r3, #20]
 184:.\lib_Network/svt.c ****     				LenChS++;
 558              		.loc 1 184 0
 559 0306 124B     		ldr	r3, .L51+12
 560 0308 1B78     		ldrb	r3, [r3]
 561 030a 0133     		add	r3, r3, #1
 562 030c DAB2     		uxtb	r2, r3
 563 030e 104B     		ldr	r3, .L51+12
 564 0310 1A70     		strb	r2, [r3]
 185:.\lib_Network/svt.c ****     				if (LenChS == LEN_CHS)
 565              		.loc 1 185 0
 566 0312 0F4B     		ldr	r3, .L51+12
 567 0314 1B78     		ldrb	r3, [r3]
 568 0316 082B     		cmp	r3, #8
 569 0318 03D1     		bne	.L43
 186:.\lib_Network/svt.c ****     				{
 187:.\lib_Network/svt.c ****     					PROTO_STATE = READ_ETX;
 570              		.loc 1 187 0
 571 031a 0A4B     		ldr	r3, .L51
 572 031c 0A22     		mov	r2, #10
 573 031e 1A70     		strb	r2, [r3]
 188:.\lib_Network/svt.c ****     				}
 189:.\lib_Network/svt.c ****     				else
 190:.\lib_Network/svt.c ****     				{
 191:.\lib_Network/svt.c ****     					Data->CheckSum = Data->CheckSum << HALF_BYTE;
 192:.\lib_Network/svt.c ****     				}
 193:.\lib_Network/svt.c ****     			}
ARM GAS  C:\Users\Petro\AppData\Local\Temp\ccCq3ck9.s 			page 15


 194:.\lib_Network/svt.c ****     			else
 195:.\lib_Network/svt.c ****     			{
 196:.\lib_Network/svt.c ****     				ResetPacket(Data);
 197:.\lib_Network/svt.c ****     				ERR_CODE = INV_CKECKSUM;
 198:.\lib_Network/svt.c ****     				PROTO_STATE = WAIT_STX;
 199:.\lib_Network/svt.c ****     			}
 200:.\lib_Network/svt.c ****     			break;
 574              		.loc 1 200 0
 575 0320 91E0     		b	.L3
 576              	.L43:
 191:.\lib_Network/svt.c ****     				}
 577              		.loc 1 191 0
 578 0322 FB69     		ldr	r3, [r7, #28]
 579 0324 5B69     		ldr	r3, [r3, #20]
 580 0326 1A01     		lsl	r2, r3, #4
 581 0328 FB69     		ldr	r3, [r7, #28]
 582 032a 5A61     		str	r2, [r3, #20]
 583              		.loc 1 200 0
 584 032c 8BE0     		b	.L3
 585              	.L42:
 196:.\lib_Network/svt.c ****     				ERR_CODE = INV_CKECKSUM;
 586              		.loc 1 196 0
 587 032e FB69     		ldr	r3, [r7, #28]
 588 0330 181C     		mov	r0, r3
 589 0332 FFF7FEFF 		bl	ResetPacket
 197:.\lib_Network/svt.c ****     				PROTO_STATE = WAIT_STX;
 590              		.loc 1 197 0
 591 0336 0823     		mov	r3, #8
 592 0338 FB64     		str	r3, [r7, #76]
 198:.\lib_Network/svt.c ****     			}
 593              		.loc 1 198 0
 594 033a 024B     		ldr	r3, .L51
 595 033c 0022     		mov	r2, #0
 596 033e 1A70     		strb	r2, [r3]
 597              		.loc 1 200 0
 598 0340 81E0     		b	.L3
 599              	.L52:
 600 0342 C046     		.align	2
 601              	.L51:
 602 0344 00000000 		.word	PROTO_STATE
 603 0348 00000000 		.word	LenSeq
 604 034c 00000000 		.word	LenC
 605 0350 00000000 		.word	LenChS
 606 0354 00000000 		.word	LenD1
 607 0358 00000000 		.word	LenD2
 608 035c 00000000 		.word	LenD3
 609 0360 20000000 		.word	.L6
 610              	.L15:
 201:.\lib_Network/svt.c ****     		}
 202:.\lib_Network/svt.c ****     		case READ_ETX:
 203:.\lib_Network/svt.c ****     		{
 204:.\lib_Network/svt.c ****     			if (InByte == ETX)
 611              		.loc 1 204 0
 612 0364 1B23     		mov	r3, #27
 613 0366 FB18     		add	r3, r7, r3
 614 0368 1B78     		ldrb	r3, [r3]
 615 036a 3E2B     		cmp	r3, #62
ARM GAS  C:\Users\Petro\AppData\Local\Temp\ccCq3ck9.s 			page 16


 616 036c 5DD1     		bne	.L46
 617              	.LBB2:
 205:.\lib_Network/svt.c ****     			{
 206:.\lib_Network/svt.c ****                     uint32_t _tmpcrc;
 207:.\lib_Network/svt.c ****                     char _tmpdata[40];
 208:.\lib_Network/svt.c ****                     sprintf(_tmpdata, "%02X:%08X%08X%04X%04X", Data->Command, 
 618              		.loc 1 208 0
 619 036e FB69     		ldr	r3, [r7, #28]
 620 0370 5A68     		ldr	r2, [r3, #4]
 209:.\lib_Network/svt.c ****                         (uint32_t)((Data->Data1 & 0xFFFFFFFF00000000) >> 32), 
 621              		.loc 1 209 0
 622 0372 FB69     		ldr	r3, [r7, #28]
 623 0374 DC68     		ldr	r4, [r3, #12]
 624 0376 9B68     		ldr	r3, [r3, #8]
 625 0378 2300     		lsr	r3, r4, #0
 626 037a 3B60     		str	r3, [r7]
 627 037c 0023     		mov	r3, #0
 628 037e 7B60     		str	r3, [r7, #4]
 208:.\lib_Network/svt.c ****                         (uint32_t)((Data->Data1 & 0xFFFFFFFF00000000) >> 32), 
 629              		.loc 1 208 0
 630 0380 3E68     		ldr	r6, [r7]
 210:.\lib_Network/svt.c ****                         (uint32_t)(Data->Data1 & 0x00000000FFFFFFFF), 
 631              		.loc 1 210 0
 632 0382 FB69     		ldr	r3, [r7, #28]
 633 0384 DC68     		ldr	r4, [r3, #12]
 634 0386 9B68     		ldr	r3, [r3, #8]
 208:.\lib_Network/svt.c ****                         (uint32_t)((Data->Data1 & 0xFFFFFFFF00000000) >> 32), 
 635              		.loc 1 208 0
 636 0388 1D1C     		mov	r5, r3
 211:.\lib_Network/svt.c ****                         Data->Data2, Data->Data3);
 637              		.loc 1 211 0
 638 038a FB69     		ldr	r3, [r7, #28]
 639 038c 1B8A     		ldrh	r3, [r3, #16]
 208:.\lib_Network/svt.c ****                         (uint32_t)((Data->Data1 & 0xFFFFFFFF00000000) >> 32), 
 640              		.loc 1 208 0
 641 038e 1C1C     		mov	r4, r3
 642              		.loc 1 211 0
 643 0390 FB69     		ldr	r3, [r7, #28]
 644 0392 5B8A     		ldrh	r3, [r3, #18]
 208:.\lib_Network/svt.c ****                         (uint32_t)((Data->Data1 & 0xFFFFFFFF00000000) >> 32), 
 645              		.loc 1 208 0
 646 0394 181C     		mov	r0, r3
 647 0396 0823     		mov	r3, #8
 648 0398 1821     		mov	r1, #24
 649 039a 7918     		add	r1, r7, r1
 650 039c C918     		add	r1, r1, r3
 651 039e 2D4B     		ldr	r3, .L53
 652 03a0 0095     		str	r5, [sp]
 653 03a2 0194     		str	r4, [sp, #4]
 654 03a4 0290     		str	r0, [sp, #8]
 655 03a6 081C     		mov	r0, r1
 656 03a8 191C     		mov	r1, r3
 657 03aa 331C     		mov	r3, r6
 658 03ac FFF7FEFF 		bl	sprintf
 212:.\lib_Network/svt.c ****                     _tmpcrc = crc32_reset();
 659              		.loc 1 212 0
 660 03b0 0123     		mov	r3, #1
ARM GAS  C:\Users\Petro\AppData\Local\Temp\ccCq3ck9.s 			page 17


 661 03b2 5B42     		neg	r3, r3
 662 03b4 BB64     		str	r3, [r7, #72]
 213:.\lib_Network/svt.c ****                     _tmpcrc = crc32_calc_block((uint8_t *)"A", 1, _tmpcrc);
 663              		.loc 1 213 0
 664 03b6 284A     		ldr	r2, .L53+4
 665 03b8 BB6C     		ldr	r3, [r7, #72]
 666 03ba 101C     		mov	r0, r2
 667 03bc 0121     		mov	r1, #1
 668 03be 1A1C     		mov	r2, r3
 669 03c0 FFF7FEFF 		bl	crc32_calc_block
 670 03c4 031C     		mov	r3, r0
 671 03c6 BB64     		str	r3, [r7, #72]
 214:.\lib_Network/svt.c ****                     _tmpcrc = crc32_calc_block((uint8_t *)_tmpdata, strlen(_tmpdata), _tmpcrc);
 672              		.loc 1 214 0
 673 03c8 0823     		mov	r3, #8
 674 03ca 1822     		mov	r2, #24
 675 03cc 9446     		mov	ip, r2
 676 03ce BC44     		add	ip, ip, r7
 677 03d0 6344     		add	r3, r3, ip
 678 03d2 181C     		mov	r0, r3
 679 03d4 FFF7FEFF 		bl	strlen
 680 03d8 011C     		mov	r1, r0
 681 03da 0823     		mov	r3, #8
 682 03dc 1822     		mov	r2, #24
 683 03de BA18     		add	r2, r7, r2
 684 03e0 D218     		add	r2, r2, r3
 685 03e2 BB6C     		ldr	r3, [r7, #72]
 686 03e4 101C     		mov	r0, r2
 687 03e6 1A1C     		mov	r2, r3
 688 03e8 FFF7FEFF 		bl	crc32_calc_block
 689 03ec 031C     		mov	r3, r0
 690 03ee BB64     		str	r3, [r7, #72]
 215:.\lib_Network/svt.c ****     				_tmpcrc = crc32_calc_block((uint8_t *)"F", 1, _tmpcrc);
 691              		.loc 1 215 0
 692 03f0 1A4A     		ldr	r2, .L53+8
 693 03f2 BB6C     		ldr	r3, [r7, #72]
 694 03f4 101C     		mov	r0, r2
 695 03f6 0121     		mov	r1, #1
 696 03f8 1A1C     		mov	r2, r3
 697 03fa FFF7FEFF 		bl	crc32_calc_block
 698 03fe 031C     		mov	r3, r0
 699 0400 BB64     		str	r3, [r7, #72]
 216:.\lib_Network/svt.c ****                     _tmpcrc = crc32_final(_tmpcrc);
 700              		.loc 1 216 0
 701 0402 BB6C     		ldr	r3, [r7, #72]
 702 0404 DB43     		mvn	r3, r3
 703 0406 BB64     		str	r3, [r7, #72]
 217:.\lib_Network/svt.c ****                     if (_tmpcrc == Data->CheckSum)
 704              		.loc 1 217 0
 705 0408 FB69     		ldr	r3, [r7, #28]
 706 040a 5A69     		ldr	r2, [r3, #20]
 707 040c BB6C     		ldr	r3, [r7, #72]
 708 040e 9A42     		cmp	r2, r3
 709 0410 05D1     		bne	.L47
 218:.\lib_Network/svt.c ****                     {
 219:.\lib_Network/svt.c ****                         Data->EndPacket = 1;
 710              		.loc 1 219 0
ARM GAS  C:\Users\Petro\AppData\Local\Temp\ccCq3ck9.s 			page 18


 711 0412 FB69     		ldr	r3, [r7, #28]
 712 0414 0122     		mov	r2, #1
 713 0416 1A76     		strb	r2, [r3, #24]
 220:.\lib_Network/svt.c ****     				    ERR_CODE = PARSED_OK;
 714              		.loc 1 220 0
 715 0418 0023     		mov	r3, #0
 716 041a FB64     		str	r3, [r7, #76]
 717 041c 0BE0     		b	.L49
 718              	.L47:
 221:.\lib_Network/svt.c ****                     }
 222:.\lib_Network/svt.c ****                     else
 223:.\lib_Network/svt.c ****                     {
 224:.\lib_Network/svt.c ****                         Data->EndPacket = 0;
 719              		.loc 1 224 0
 720 041e FB69     		ldr	r3, [r7, #28]
 721 0420 0022     		mov	r2, #0
 722 0422 1A76     		strb	r2, [r3, #24]
 225:.\lib_Network/svt.c ****                         ERR_CODE = 10;
 723              		.loc 1 225 0
 724 0424 0A23     		mov	r3, #10
 725 0426 FB64     		str	r3, [r7, #76]
 726              	.LBE2:
 727 0428 05E0     		b	.L49
 728              	.L46:
 226:.\lib_Network/svt.c ****                     }
 227:.\lib_Network/svt.c ****     			}
 228:.\lib_Network/svt.c ****     			else{
 229:.\lib_Network/svt.c ****     				ERR_CODE = NO_ETX;
 729              		.loc 1 229 0
 730 042a 0923     		mov	r3, #9
 731 042c FB64     		str	r3, [r7, #76]
 230:.\lib_Network/svt.c ****     				ResetPacket(Data);
 732              		.loc 1 230 0
 733 042e FB69     		ldr	r3, [r7, #28]
 734 0430 181C     		mov	r0, r3
 735 0432 FFF7FEFF 		bl	ResetPacket
 736              	.L49:
 231:.\lib_Network/svt.c ****     			}
 232:.\lib_Network/svt.c ****     			PROTO_STATE = WAIT_STX;
 737              		.loc 1 232 0
 738 0436 0A4B     		ldr	r3, .L53+12
 739 0438 0022     		mov	r2, #0
 740 043a 1A70     		strb	r2, [r3]
 233:.\lib_Network/svt.c ****     			break;
 741              		.loc 1 233 0
 742 043c 03E0     		b	.L3
 743              	.L4:
 234:.\lib_Network/svt.c ****     		}
 235:.\lib_Network/svt.c ****             default: 
 236:.\lib_Network/svt.c ****             {
 237:.\lib_Network/svt.c ****                 ResetPacket(Data);
 744              		.loc 1 237 0
 745 043e FB69     		ldr	r3, [r7, #28]
 746 0440 181C     		mov	r0, r3
 747 0442 FFF7FEFF 		bl	ResetPacket
 748              	.L3:
 238:.\lib_Network/svt.c ****             }
ARM GAS  C:\Users\Petro\AppData\Local\Temp\ccCq3ck9.s 			page 19


 239:.\lib_Network/svt.c ****     	}
 240:.\lib_Network/svt.c ****     } 
 241:.\lib_Network/svt.c ****     return ERR_CODE;
 749              		.loc 1 241 0
 750 0446 FB6C     		ldr	r3, [r7, #76]
 751 0448 DBB2     		uxtb	r3, r3
 242:.\lib_Network/svt.c **** }
 752              		.loc 1 242 0
 753 044a 181C     		mov	r0, r3
 754 044c BD46     		mov	sp, r7
 755 044e 15B0     		add	sp, sp, #84
 756              		@ sp needed
 757 0450 F0BD     		pop	{r4, r5, r6, r7, pc}
 758              	.L54:
 759 0452 C046     		.align	2
 760              	.L53:
 761 0454 00000000 		.word	.LC8
 762 0458 18000000 		.word	.LC10
 763 045c 1C000000 		.word	.LC12
 764 0460 00000000 		.word	PROTO_STATE
 765              		.cfi_endproc
 766              	.LFE2:
 767              		.size	UnpackData, .-UnpackData
 768              		.section	.text.DecodeByte,"ax",%progbits
 769              		.align	2
 770              		.global	DecodeByte
 771              		.code	16
 772              		.thumb_func
 773              		.type	DecodeByte, %function
 774              	DecodeByte:
 775              	.LFB3:
 243:.\lib_Network/svt.c **** 
 244:.\lib_Network/svt.c **** uint8_t DecodeByte(uint8_t Inp)
 245:.\lib_Network/svt.c **** {
 776              		.loc 1 245 0
 777              		.cfi_startproc
 778 0000 80B5     		push	{r7, lr}
 779              		.cfi_def_cfa_offset 8
 780              		.cfi_offset 7, -8
 781              		.cfi_offset 14, -4
 782 0002 82B0     		sub	sp, sp, #8
 783              		.cfi_def_cfa_offset 16
 784 0004 00AF     		add	r7, sp, #0
 785              		.cfi_def_cfa_register 7
 786 0006 021C     		mov	r2, r0
 787 0008 FB1D     		add	r3, r7, #7
 788 000a 1A70     		strb	r2, [r3]
 246:.\lib_Network/svt.c **** 	if ((Inp >= 'A') && (Inp <= 'F'))
 789              		.loc 1 246 0
 790 000c FB1D     		add	r3, r7, #7
 791 000e 1B78     		ldrb	r3, [r3]
 792 0010 402B     		cmp	r3, #64
 793 0012 09D9     		bls	.L56
 794              		.loc 1 246 0 is_stmt 0 discriminator 1
 795 0014 FB1D     		add	r3, r7, #7
 796 0016 1B78     		ldrb	r3, [r3]
 797 0018 462B     		cmp	r3, #70
ARM GAS  C:\Users\Petro\AppData\Local\Temp\ccCq3ck9.s 			page 20


 798 001a 05D8     		bhi	.L56
 247:.\lib_Network/svt.c **** 	{
 248:.\lib_Network/svt.c **** 		Inp -= 0x37;
 799              		.loc 1 248 0 is_stmt 1
 800 001c FB1D     		add	r3, r7, #7
 801 001e FA1D     		add	r2, r7, #7
 802 0020 1278     		ldrb	r2, [r2]
 803 0022 373A     		sub	r2, r2, #55
 804 0024 1A70     		strb	r2, [r3]
 805 0026 0CE0     		b	.L57
 806              	.L56:
 249:.\lib_Network/svt.c **** 	}
 250:.\lib_Network/svt.c **** 	else if ((Inp >= '0') && (Inp <= '9')){
 807              		.loc 1 250 0
 808 0028 FB1D     		add	r3, r7, #7
 809 002a 1B78     		ldrb	r3, [r3]
 810 002c 2F2B     		cmp	r3, #47
 811 002e 08D9     		bls	.L57
 812              		.loc 1 250 0 is_stmt 0 discriminator 1
 813 0030 FB1D     		add	r3, r7, #7
 814 0032 1B78     		ldrb	r3, [r3]
 815 0034 392B     		cmp	r3, #57
 816 0036 04D8     		bhi	.L57
 251:.\lib_Network/svt.c **** 		Inp -= 0x30;
 817              		.loc 1 251 0 is_stmt 1
 818 0038 FB1D     		add	r3, r7, #7
 819 003a FA1D     		add	r2, r7, #7
 820 003c 1278     		ldrb	r2, [r2]
 821 003e 303A     		sub	r2, r2, #48
 822 0040 1A70     		strb	r2, [r3]
 823              	.L57:
 252:.\lib_Network/svt.c **** 	}
 253:.\lib_Network/svt.c **** 	return Inp;
 824              		.loc 1 253 0
 825 0042 FB1D     		add	r3, r7, #7
 826 0044 1B78     		ldrb	r3, [r3]
 254:.\lib_Network/svt.c **** }
 827              		.loc 1 254 0
 828 0046 181C     		mov	r0, r3
 829 0048 BD46     		mov	sp, r7
 830 004a 02B0     		add	sp, sp, #8
 831              		@ sp needed
 832 004c 80BD     		pop	{r7, pc}
 833              		.cfi_endproc
 834              	.LFE3:
 835              		.size	DecodeByte, .-DecodeByte
 836 004e C046     		.section	.text.CheckSymb,"ax",%progbits
 837              		.align	2
 838              		.global	CheckSymb
 839              		.code	16
 840              		.thumb_func
 841              		.type	CheckSymb, %function
 842              	CheckSymb:
 843              	.LFB4:
 255:.\lib_Network/svt.c **** 
 256:.\lib_Network/svt.c **** uint8_t CheckSymb(uint8_t Inp)
 257:.\lib_Network/svt.c **** {
ARM GAS  C:\Users\Petro\AppData\Local\Temp\ccCq3ck9.s 			page 21


 844              		.loc 1 257 0
 845              		.cfi_startproc
 846 0000 80B5     		push	{r7, lr}
 847              		.cfi_def_cfa_offset 8
 848              		.cfi_offset 7, -8
 849              		.cfi_offset 14, -4
 850 0002 84B0     		sub	sp, sp, #16
 851              		.cfi_def_cfa_offset 24
 852 0004 00AF     		add	r7, sp, #0
 853              		.cfi_def_cfa_register 7
 854 0006 021C     		mov	r2, r0
 855 0008 FB1D     		add	r3, r7, #7
 856 000a 1A70     		strb	r2, [r3]
 258:.\lib_Network/svt.c **** 	uint8_t Val = 1;
 857              		.loc 1 258 0
 858 000c 0F23     		mov	r3, #15
 859 000e FB18     		add	r3, r7, r3
 860 0010 0122     		mov	r2, #1
 861 0012 1A70     		strb	r2, [r3]
 259:.\lib_Network/svt.c **** 
 260:.\lib_Network/svt.c **** 	if ((Inp > 0xF) || (Inp < 0x0))
 862              		.loc 1 260 0
 863 0014 FB1D     		add	r3, r7, #7
 864 0016 1B78     		ldrb	r3, [r3]
 865 0018 0F2B     		cmp	r3, #15
 866 001a 03D9     		bls	.L60
 261:.\lib_Network/svt.c **** 	{
 262:.\lib_Network/svt.c **** 		Val = 0;
 867              		.loc 1 262 0
 868 001c 0F23     		mov	r3, #15
 869 001e FB18     		add	r3, r7, r3
 870 0020 0022     		mov	r2, #0
 871 0022 1A70     		strb	r2, [r3]
 872              	.L60:
 263:.\lib_Network/svt.c **** 	}
 264:.\lib_Network/svt.c **** 	return Val;
 873              		.loc 1 264 0
 874 0024 0F23     		mov	r3, #15
 875 0026 FB18     		add	r3, r7, r3
 876 0028 1B78     		ldrb	r3, [r3]
 265:.\lib_Network/svt.c **** }
 877              		.loc 1 265 0
 878 002a 181C     		mov	r0, r3
 879 002c BD46     		mov	sp, r7
 880 002e 04B0     		add	sp, sp, #16
 881              		@ sp needed
 882 0030 80BD     		pop	{r7, pc}
 883              		.cfi_endproc
 884              	.LFE4:
 885              		.size	CheckSymb, .-CheckSymb
 886 0032 C046     		.section	.text.ResetPacket,"ax",%progbits
 887              		.align	2
 888              		.global	ResetPacket
 889              		.code	16
 890              		.thumb_func
 891              		.type	ResetPacket, %function
 892              	ResetPacket:
ARM GAS  C:\Users\Petro\AppData\Local\Temp\ccCq3ck9.s 			page 22


 893              	.LFB5:
 266:.\lib_Network/svt.c **** 
 267:.\lib_Network/svt.c **** void ResetPacket(struct Resp *Data)
 268:.\lib_Network/svt.c **** {
 894              		.loc 1 268 0
 895              		.cfi_startproc
 896 0000 90B5     		push	{r4, r7, lr}
 897              		.cfi_def_cfa_offset 12
 898              		.cfi_offset 4, -12
 899              		.cfi_offset 7, -8
 900              		.cfi_offset 14, -4
 901 0002 83B0     		sub	sp, sp, #12
 902              		.cfi_def_cfa_offset 24
 903 0004 00AF     		add	r7, sp, #0
 904              		.cfi_def_cfa_register 7
 905 0006 7860     		str	r0, [r7, #4]
 269:.\lib_Network/svt.c **** 	Data->Seq = 0;
 906              		.loc 1 269 0
 907 0008 7B68     		ldr	r3, [r7, #4]
 908 000a 0022     		mov	r2, #0
 909 000c 1A80     		strh	r2, [r3]
 270:.\lib_Network/svt.c **** 	Data->Command = 0;
 910              		.loc 1 270 0
 911 000e 7B68     		ldr	r3, [r7, #4]
 912 0010 0022     		mov	r2, #0
 913 0012 5A60     		str	r2, [r3, #4]
 271:.\lib_Network/svt.c **** 	Data->Data1 = 0;
 914              		.loc 1 271 0
 915 0014 7A68     		ldr	r2, [r7, #4]
 916 0016 0023     		mov	r3, #0
 917 0018 0024     		mov	r4, #0
 918 001a 9360     		str	r3, [r2, #8]
 919 001c D460     		str	r4, [r2, #12]
 272:.\lib_Network/svt.c **** 	Data->Data2 = 0;
 920              		.loc 1 272 0
 921 001e 7B68     		ldr	r3, [r7, #4]
 922 0020 0022     		mov	r2, #0
 923 0022 1A82     		strh	r2, [r3, #16]
 273:.\lib_Network/svt.c **** 	Data->Data3 = 0;
 924              		.loc 1 273 0
 925 0024 7B68     		ldr	r3, [r7, #4]
 926 0026 0022     		mov	r2, #0
 927 0028 5A82     		strh	r2, [r3, #18]
 274:.\lib_Network/svt.c **** 	Data->CheckSum = 0;
 928              		.loc 1 274 0
 929 002a 7B68     		ldr	r3, [r7, #4]
 930 002c 0022     		mov	r2, #0
 931 002e 5A61     		str	r2, [r3, #20]
 275:.\lib_Network/svt.c **** 	Data->EndPacket = 0;
 932              		.loc 1 275 0
 933 0030 7B68     		ldr	r3, [r7, #4]
 934 0032 0022     		mov	r2, #0
 935 0034 1A76     		strb	r2, [r3, #24]
 276:.\lib_Network/svt.c **** }
 936              		.loc 1 276 0
 937 0036 BD46     		mov	sp, r7
 938 0038 03B0     		add	sp, sp, #12
ARM GAS  C:\Users\Petro\AppData\Local\Temp\ccCq3ck9.s 			page 23


 939              		@ sp needed
 940 003a 90BD     		pop	{r4, r7, pc}
 941              		.cfi_endproc
 942              	.LFE5:
 943              		.size	ResetPacket, .-ResetPacket
 944              		.section	.rodata
 945              		.align	2
 946              	.LC14:
 947 004c 25303458 		.ascii	"%04X\000"
 947      00
 948 0051 000000   		.align	2
 949              	.LC18:
 950 0054 25303858 		.ascii	"%08X\000"
 950      00
 951 0059 000000   		.align	2
 952              	.LC20:
 953 005c 3C00     		.ascii	"<\000"
 954 005e 0000     		.align	2
 955              	.LC22:
 956 0060 2100     		.ascii	"!\000"
 957 0062 0000     		.align	2
 958              	.LC24:
 959 0064 4000     		.ascii	"@\000"
 960 0066 0000     		.align	2
 961              	.LC26:
 962 0068 3E00     		.ascii	">\000"
 963 006a 0000     		.section	.text.PackData,"ax",%progbits
 964              		.align	2
 965              		.global	PackData
 966              		.code	16
 967              		.thumb_func
 968              		.type	PackData, %function
 969              	PackData:
 970              	.LFB6:
 277:.\lib_Network/svt.c **** 
 278:.\lib_Network/svt.c **** uint8_t PackData(char *buff, uint8_t *data, uint32_t Sequence)
 279:.\lib_Network/svt.c **** {
 971              		.loc 1 279 0
 972              		.cfi_startproc
 973 0000 90B5     		push	{r4, r7, lr}
 974              		.cfi_def_cfa_offset 12
 975              		.cfi_offset 4, -12
 976              		.cfi_offset 7, -8
 977              		.cfi_offset 14, -4
 978 0002 91B0     		sub	sp, sp, #68
 979              		.cfi_def_cfa_offset 80
 980 0004 00AF     		add	r7, sp, #0
 981              		.cfi_def_cfa_register 7
 982 0006 F860     		str	r0, [r7, #12]
 983 0008 B960     		str	r1, [r7, #8]
 984 000a 7A60     		str	r2, [r7, #4]
 280:.\lib_Network/svt.c ****     uint32_t _crc;
 281:.\lib_Network/svt.c ****     char *_p;
 282:.\lib_Network/svt.c ****     char szSeq[20];
 283:.\lib_Network/svt.c ****     char szCheckSum[20];
 284:.\lib_Network/svt.c ****     
 285:.\lib_Network/svt.c ****     _p = (char *)data;
ARM GAS  C:\Users\Petro\AppData\Local\Temp\ccCq3ck9.s 			page 24


 985              		.loc 1 285 0
 986 000c BB68     		ldr	r3, [r7, #8]
 987 000e FB63     		str	r3, [r7, #60]
 286:.\lib_Network/svt.c **** 
 287:.\lib_Network/svt.c **** 
 288:.\lib_Network/svt.c ****     sprintf(szSeq, "%04X", (uint16_t)Sequence);
 988              		.loc 1 288 0
 989 0010 7B68     		ldr	r3, [r7, #4]
 990 0012 9BB2     		uxth	r3, r3
 991 0014 1C1C     		mov	r4, r3
 992 0016 2423     		mov	r3, #36
 993 0018 FA18     		add	r2, r7, r3
 994 001a 474B     		ldr	r3, .L65
 995 001c 101C     		mov	r0, r2
 996 001e 191C     		mov	r1, r3
 997 0020 221C     		mov	r2, r4
 998 0022 FFF7FEFF 		bl	sprintf
 289:.\lib_Network/svt.c ****     
 290:.\lib_Network/svt.c ****     _crc = crc32_reset();
 999              		.loc 1 290 0
 1000 0026 0123     		mov	r3, #1
 1001 0028 5B42     		neg	r3, r3
 1002 002a BB63     		str	r3, [r7, #56]
 291:.\lib_Network/svt.c ****     _crc = crc32_calc_block((uint8_t *)"A", 1, _crc);
 1003              		.loc 1 291 0
 1004 002c 434A     		ldr	r2, .L65+4
 1005 002e BB6B     		ldr	r3, [r7, #56]
 1006 0030 101C     		mov	r0, r2
 1007 0032 0121     		mov	r1, #1
 1008 0034 1A1C     		mov	r2, r3
 1009 0036 FFF7FEFF 		bl	crc32_calc_block
 1010 003a 031C     		mov	r3, r0
 1011 003c BB63     		str	r3, [r7, #56]
 292:.\lib_Network/svt.c ****     _crc = crc32_calc_block((uint8_t *)_p, strlen(_p), _crc);
 1012              		.loc 1 292 0
 1013 003e FB6B     		ldr	r3, [r7, #60]
 1014 0040 181C     		mov	r0, r3
 1015 0042 FFF7FEFF 		bl	strlen
 1016 0046 011C     		mov	r1, r0
 1017 0048 FA6B     		ldr	r2, [r7, #60]
 1018 004a BB6B     		ldr	r3, [r7, #56]
 1019 004c 101C     		mov	r0, r2
 1020 004e 1A1C     		mov	r2, r3
 1021 0050 FFF7FEFF 		bl	crc32_calc_block
 1022 0054 031C     		mov	r3, r0
 1023 0056 BB63     		str	r3, [r7, #56]
 293:.\lib_Network/svt.c ****     _crc = crc32_calc_block((uint8_t *)"F", 1, _crc);
 1024              		.loc 1 293 0
 1025 0058 394A     		ldr	r2, .L65+8
 1026 005a BB6B     		ldr	r3, [r7, #56]
 1027 005c 101C     		mov	r0, r2
 1028 005e 0121     		mov	r1, #1
 1029 0060 1A1C     		mov	r2, r3
 1030 0062 FFF7FEFF 		bl	crc32_calc_block
 1031 0066 031C     		mov	r3, r0
 1032 0068 BB63     		str	r3, [r7, #56]
 294:.\lib_Network/svt.c ****     _crc = crc32_final(_crc);
ARM GAS  C:\Users\Petro\AppData\Local\Temp\ccCq3ck9.s 			page 25


 1033              		.loc 1 294 0
 1034 006a BB6B     		ldr	r3, [r7, #56]
 1035 006c DB43     		mvn	r3, r3
 1036 006e BB63     		str	r3, [r7, #56]
 295:.\lib_Network/svt.c ****     
 296:.\lib_Network/svt.c ****     sprintf(szCheckSum, "%08X", _crc);
 1037              		.loc 1 296 0
 1038 0070 1023     		mov	r3, #16
 1039 0072 F918     		add	r1, r7, r3
 1040 0074 334A     		ldr	r2, .L65+12
 1041 0076 BB6B     		ldr	r3, [r7, #56]
 1042 0078 081C     		mov	r0, r1
 1043 007a 111C     		mov	r1, r2
 1044 007c 1A1C     		mov	r2, r3
 1045 007e FFF7FEFF 		bl	sprintf
 297:.\lib_Network/svt.c ****     
 298:.\lib_Network/svt.c ****     strcpy(buff, STX_S);
 1046              		.loc 1 298 0
 1047 0082 FA68     		ldr	r2, [r7, #12]
 1048 0084 304B     		ldr	r3, .L65+16
 1049 0086 111C     		mov	r1, r2
 1050 0088 1A1C     		mov	r2, r3
 1051 008a 0223     		mov	r3, #2
 1052 008c 081C     		mov	r0, r1
 1053 008e 111C     		mov	r1, r2
 1054 0090 1A1C     		mov	r2, r3
 1055 0092 FFF7FEFF 		bl	memcpy
 299:.\lib_Network/svt.c ****     strcat(buff, szSeq);
 1056              		.loc 1 299 0
 1057 0096 FA68     		ldr	r2, [r7, #12]
 1058 0098 2423     		mov	r3, #36
 1059 009a FB18     		add	r3, r7, r3
 1060 009c 101C     		mov	r0, r2
 1061 009e 191C     		mov	r1, r3
 1062 00a0 FFF7FEFF 		bl	strcat
 300:.\lib_Network/svt.c ****     strcat(buff, FRM0);
 1063              		.loc 1 300 0
 1064 00a4 FB68     		ldr	r3, [r7, #12]
 1065 00a6 181C     		mov	r0, r3
 1066 00a8 FFF7FEFF 		bl	strlen
 1067 00ac 031C     		mov	r3, r0
 1068 00ae 1A1C     		mov	r2, r3
 1069 00b0 FB68     		ldr	r3, [r7, #12]
 1070 00b2 9A18     		add	r2, r3, r2
 1071 00b4 254B     		ldr	r3, .L65+20
 1072 00b6 111C     		mov	r1, r2
 1073 00b8 1A1C     		mov	r2, r3
 1074 00ba 0223     		mov	r3, #2
 1075 00bc 081C     		mov	r0, r1
 1076 00be 111C     		mov	r1, r2
 1077 00c0 1A1C     		mov	r2, r3
 1078 00c2 FFF7FEFF 		bl	memcpy
 301:.\lib_Network/svt.c ****     strcat(buff, _p);
 1079              		.loc 1 301 0
 1080 00c6 FA68     		ldr	r2, [r7, #12]
 1081 00c8 FB6B     		ldr	r3, [r7, #60]
 1082 00ca 101C     		mov	r0, r2
ARM GAS  C:\Users\Petro\AppData\Local\Temp\ccCq3ck9.s 			page 26


 1083 00cc 191C     		mov	r1, r3
 1084 00ce FFF7FEFF 		bl	strcat
 302:.\lib_Network/svt.c ****     strcat(buff, FRM1);    
 1085              		.loc 1 302 0
 1086 00d2 FB68     		ldr	r3, [r7, #12]
 1087 00d4 181C     		mov	r0, r3
 1088 00d6 FFF7FEFF 		bl	strlen
 1089 00da 031C     		mov	r3, r0
 1090 00dc 1A1C     		mov	r2, r3
 1091 00de FB68     		ldr	r3, [r7, #12]
 1092 00e0 9A18     		add	r2, r3, r2
 1093 00e2 1B4B     		ldr	r3, .L65+24
 1094 00e4 111C     		mov	r1, r2
 1095 00e6 1A1C     		mov	r2, r3
 1096 00e8 0223     		mov	r3, #2
 1097 00ea 081C     		mov	r0, r1
 1098 00ec 111C     		mov	r1, r2
 1099 00ee 1A1C     		mov	r2, r3
 1100 00f0 FFF7FEFF 		bl	memcpy
 303:.\lib_Network/svt.c ****     strcat(buff, szCheckSum);
 1101              		.loc 1 303 0
 1102 00f4 FA68     		ldr	r2, [r7, #12]
 1103 00f6 1023     		mov	r3, #16
 1104 00f8 FB18     		add	r3, r7, r3
 1105 00fa 101C     		mov	r0, r2
 1106 00fc 191C     		mov	r1, r3
 1107 00fe FFF7FEFF 		bl	strcat
 304:.\lib_Network/svt.c ****     strcat(buff, ETX_S);
 1108              		.loc 1 304 0
 1109 0102 FB68     		ldr	r3, [r7, #12]
 1110 0104 181C     		mov	r0, r3
 1111 0106 FFF7FEFF 		bl	strlen
 1112 010a 031C     		mov	r3, r0
 1113 010c 1A1C     		mov	r2, r3
 1114 010e FB68     		ldr	r3, [r7, #12]
 1115 0110 9A18     		add	r2, r3, r2
 1116 0112 104B     		ldr	r3, .L65+28
 1117 0114 111C     		mov	r1, r2
 1118 0116 1A1C     		mov	r2, r3
 1119 0118 0223     		mov	r3, #2
 1120 011a 081C     		mov	r0, r1
 1121 011c 111C     		mov	r1, r2
 1122 011e 1A1C     		mov	r2, r3
 1123 0120 FFF7FEFF 		bl	memcpy
 305:.\lib_Network/svt.c ****     
 306:.\lib_Network/svt.c ****     return strlen(buff);
 1124              		.loc 1 306 0
 1125 0124 FB68     		ldr	r3, [r7, #12]
 1126 0126 181C     		mov	r0, r3
 1127 0128 FFF7FEFF 		bl	strlen
 1128 012c 031C     		mov	r3, r0
 1129 012e DBB2     		uxtb	r3, r3
 307:.\lib_Network/svt.c **** }
 1130              		.loc 1 307 0
 1131 0130 181C     		mov	r0, r3
 1132 0132 BD46     		mov	sp, r7
 1133 0134 11B0     		add	sp, sp, #68
ARM GAS  C:\Users\Petro\AppData\Local\Temp\ccCq3ck9.s 			page 27


 1134              		@ sp needed
 1135 0136 90BD     		pop	{r4, r7, pc}
 1136              	.L66:
 1137              		.align	2
 1138              	.L65:
 1139 0138 4C000000 		.word	.LC14
 1140 013c 18000000 		.word	.LC10
 1141 0140 1C000000 		.word	.LC12
 1142 0144 54000000 		.word	.LC18
 1143 0148 5C000000 		.word	.LC20
 1144 014c 60000000 		.word	.LC22
 1145 0150 64000000 		.word	.LC24
 1146 0154 68000000 		.word	.LC26
 1147              		.cfi_endproc
 1148              	.LFE6:
 1149              		.size	PackData, .-PackData
 1150              		.text
 1151              	.Letext0:
 1152              		.file 2 "c:\\program files (x86)\\cypress\\psoc creator\\3.3\\psoc creator\\import\\gnu\\arm\\4.9.
 1153              		.file 3 "c:\\program files (x86)\\cypress\\psoc creator\\3.3\\psoc creator\\import\\gnu\\arm\\4.9.
 1154              		.file 4 ".\\lib_Network\\svt.h"
 1155              		.section	.debug_info,"",%progbits
 1156              	.Ldebug_info0:
 1157 0000 FE030000 		.4byte	0x3fe
 1158 0004 0400     		.2byte	0x4
 1159 0006 00000000 		.4byte	.Ldebug_abbrev0
 1160 000a 04       		.byte	0x4
 1161 000b 01       		.uleb128 0x1
 1162 000c 0B030000 		.4byte	.LASF73
 1163 0010 01       		.byte	0x1
 1164 0011 2B020000 		.4byte	.LASF74
 1165 0015 66020000 		.4byte	.LASF75
 1166 0019 00000000 		.4byte	.Ldebug_ranges0+0
 1167 001d 00000000 		.4byte	0
 1168 0021 00000000 		.4byte	.Ldebug_line0
 1169 0025 02       		.uleb128 0x2
 1170 0026 01       		.byte	0x1
 1171 0027 06       		.byte	0x6
 1172 0028 5B000000 		.4byte	.LASF0
 1173 002c 03       		.uleb128 0x3
 1174 002d 26000000 		.4byte	.LASF3
 1175 0031 02       		.byte	0x2
 1176 0032 1D       		.byte	0x1d
 1177 0033 37000000 		.4byte	0x37
 1178 0037 02       		.uleb128 0x2
 1179 0038 01       		.byte	0x1
 1180 0039 08       		.byte	0x8
 1181 003a F4010000 		.4byte	.LASF1
 1182 003e 02       		.uleb128 0x2
 1183 003f 02       		.byte	0x2
 1184 0040 05       		.byte	0x5
 1185 0041 0D020000 		.4byte	.LASF2
 1186 0045 03       		.uleb128 0x3
 1187 0046 54020000 		.4byte	.LASF4
 1188 004a 02       		.byte	0x2
 1189 004b 2B       		.byte	0x2b
 1190 004c 50000000 		.4byte	0x50
ARM GAS  C:\Users\Petro\AppData\Local\Temp\ccCq3ck9.s 			page 28


 1191 0050 02       		.uleb128 0x2
 1192 0051 02       		.byte	0x2
 1193 0052 07       		.byte	0x7
 1194 0053 24010000 		.4byte	.LASF5
 1195 0057 02       		.uleb128 0x2
 1196 0058 04       		.byte	0x4
 1197 0059 05       		.byte	0x5
 1198 005a 78000000 		.4byte	.LASF6
 1199 005e 03       		.uleb128 0x3
 1200 005f C2000000 		.4byte	.LASF7
 1201 0063 02       		.byte	0x2
 1202 0064 41       		.byte	0x41
 1203 0065 69000000 		.4byte	0x69
 1204 0069 02       		.uleb128 0x2
 1205 006a 04       		.byte	0x4
 1206 006b 07       		.byte	0x7
 1207 006c 03010000 		.4byte	.LASF8
 1208 0070 02       		.uleb128 0x2
 1209 0071 08       		.byte	0x8
 1210 0072 05       		.byte	0x5
 1211 0073 4D000000 		.4byte	.LASF9
 1212 0077 03       		.uleb128 0x3
 1213 0078 BF010000 		.4byte	.LASF10
 1214 007c 02       		.byte	0x2
 1215 007d 5B       		.byte	0x5b
 1216 007e 82000000 		.4byte	0x82
 1217 0082 02       		.uleb128 0x2
 1218 0083 08       		.byte	0x8
 1219 0084 07       		.byte	0x7
 1220 0085 30000000 		.4byte	.LASF11
 1221 0089 04       		.uleb128 0x4
 1222 008a 04       		.byte	0x4
 1223 008b 05       		.byte	0x5
 1224 008c 696E7400 		.ascii	"int\000"
 1225 0090 02       		.uleb128 0x2
 1226 0091 04       		.byte	0x4
 1227 0092 07       		.byte	0x7
 1228 0093 ED000000 		.4byte	.LASF12
 1229 0097 03       		.uleb128 0x3
 1230 0098 F6020000 		.4byte	.LASF13
 1231 009c 03       		.byte	0x3
 1232 009d 15       		.byte	0x15
 1233 009e 2C000000 		.4byte	0x2c
 1234 00a2 03       		.uleb128 0x3
 1235 00a3 81000000 		.4byte	.LASF14
 1236 00a7 03       		.byte	0x3
 1237 00a8 21       		.byte	0x21
 1238 00a9 45000000 		.4byte	0x45
 1239 00ad 03       		.uleb128 0x3
 1240 00ae 46020000 		.4byte	.LASF15
 1241 00b2 03       		.byte	0x3
 1242 00b3 2D       		.byte	0x2d
 1243 00b4 5E000000 		.4byte	0x5e
 1244 00b8 03       		.uleb128 0x3
 1245 00b9 1D000000 		.4byte	.LASF16
 1246 00bd 03       		.byte	0x3
 1247 00be 39       		.byte	0x39
ARM GAS  C:\Users\Petro\AppData\Local\Temp\ccCq3ck9.s 			page 29


 1248 00bf 77000000 		.4byte	0x77
 1249 00c3 02       		.uleb128 0x2
 1250 00c4 04       		.byte	0x4
 1251 00c5 07       		.byte	0x7
 1252 00c6 A7010000 		.4byte	.LASF17
 1253 00ca 05       		.uleb128 0x5
 1254 00cb 04       		.byte	0x4
 1255 00cc D0000000 		.4byte	0xd0
 1256 00d0 02       		.uleb128 0x2
 1257 00d1 01       		.byte	0x1
 1258 00d2 08       		.byte	0x8
 1259 00d3 4F020000 		.4byte	.LASF18
 1260 00d7 02       		.uleb128 0x2
 1261 00d8 04       		.byte	0x4
 1262 00d9 04       		.byte	0x4
 1263 00da CA010000 		.4byte	.LASF19
 1264 00de 02       		.uleb128 0x2
 1265 00df 08       		.byte	0x8
 1266 00e0 04       		.byte	0x4
 1267 00e1 8A000000 		.4byte	.LASF20
 1268 00e5 06       		.uleb128 0x6
 1269 00e6 BA010000 		.4byte	.LASF76
 1270 00ea 20       		.byte	0x20
 1271 00eb 04       		.byte	0x4
 1272 00ec 0E       		.byte	0xe
 1273 00ed 46010000 		.4byte	0x146
 1274 00f1 07       		.uleb128 0x7
 1275 00f2 53657100 		.ascii	"Seq\000"
 1276 00f6 04       		.byte	0x4
 1277 00f7 10       		.byte	0x10
 1278 00f8 A2000000 		.4byte	0xa2
 1279 00fc 00       		.byte	0
 1280 00fd 08       		.uleb128 0x8
 1281 00fe A3000000 		.4byte	.LASF21
 1282 0102 04       		.byte	0x4
 1283 0103 11       		.byte	0x11
 1284 0104 89000000 		.4byte	0x89
 1285 0108 04       		.byte	0x4
 1286 0109 08       		.uleb128 0x8
 1287 010a 37010000 		.4byte	.LASF22
 1288 010e 04       		.byte	0x4
 1289 010f 12       		.byte	0x12
 1290 0110 B8000000 		.4byte	0xb8
 1291 0114 08       		.byte	0x8
 1292 0115 08       		.uleb128 0x8
 1293 0116 3D010000 		.4byte	.LASF23
 1294 011a 04       		.byte	0x4
 1295 011b 13       		.byte	0x13
 1296 011c A2000000 		.4byte	0xa2
 1297 0120 10       		.byte	0x10
 1298 0121 08       		.uleb128 0x8
 1299 0122 43010000 		.4byte	.LASF24
 1300 0126 04       		.byte	0x4
 1301 0127 14       		.byte	0x14
 1302 0128 A2000000 		.4byte	0xa2
 1303 012c 12       		.byte	0x12
 1304 012d 08       		.uleb128 0x8
ARM GAS  C:\Users\Petro\AppData\Local\Temp\ccCq3ck9.s 			page 30


 1305 012e D0010000 		.4byte	.LASF25
 1306 0132 04       		.byte	0x4
 1307 0133 15       		.byte	0x15
 1308 0134 AD000000 		.4byte	0xad
 1309 0138 14       		.byte	0x14
 1310 0139 08       		.uleb128 0x8
 1311 013a A0030000 		.4byte	.LASF26
 1312 013e 04       		.byte	0x4
 1313 013f 16       		.byte	0x16
 1314 0140 97000000 		.4byte	0x97
 1315 0144 18       		.byte	0x18
 1316 0145 00       		.byte	0
 1317 0146 09       		.uleb128 0x9
 1318 0147 50010000 		.4byte	.LASF38
 1319 014b 01       		.byte	0x1
 1320 014c 04       		.byte	0x4
 1321 014d 19       		.byte	0x19
 1322 014e 95010000 		.4byte	0x195
 1323 0152 0A       		.uleb128 0xa
 1324 0153 C6020000 		.4byte	.LASF27
 1325 0157 00       		.sleb128 0
 1326 0158 0A       		.uleb128 0xa
 1327 0159 D8020000 		.4byte	.LASF28
 1328 015d 01       		.sleb128 1
 1329 015e 0A       		.uleb128 0xa
 1330 015f 7D010000 		.4byte	.LASF29
 1331 0163 02       		.sleb128 2
 1332 0164 0A       		.uleb128 0xa
 1333 0165 17020000 		.4byte	.LASF30
 1334 0169 03       		.sleb128 3
 1335 016a 0A       		.uleb128 0xa
 1336 016b 86010000 		.4byte	.LASF31
 1337 016f 04       		.sleb128 4
 1338 0170 0A       		.uleb128 0xa
 1339 0171 D9010000 		.4byte	.LASF32
 1340 0175 05       		.sleb128 5
 1341 0176 0A       		.uleb128 0xa
 1342 0177 E2010000 		.4byte	.LASF33
 1343 017b 06       		.sleb128 6
 1344 017c 0A       		.uleb128 0xa
 1345 017d EB010000 		.4byte	.LASF34
 1346 0181 07       		.sleb128 7
 1347 0182 0A       		.uleb128 0xa
 1348 0183 8F010000 		.4byte	.LASF35
 1349 0187 08       		.sleb128 8
 1350 0188 0A       		.uleb128 0xa
 1351 0189 CF020000 		.4byte	.LASF36
 1352 018d 09       		.sleb128 9
 1353 018e 0A       		.uleb128 0xa
 1354 018f 00000000 		.4byte	.LASF37
 1355 0193 0A       		.sleb128 10
 1356 0194 00       		.byte	0
 1357 0195 09       		.uleb128 0x9
 1358 0196 20020000 		.4byte	.LASF39
 1359 019a 01       		.byte	0x1
 1360 019b 04       		.byte	0x4
 1361 019c 28       		.byte	0x28
ARM GAS  C:\Users\Petro\AppData\Local\Temp\ccCq3ck9.s 			page 31


 1362 019d E4010000 		.4byte	0x1e4
 1363 01a1 0A       		.uleb128 0xa
 1364 01a2 B0010000 		.4byte	.LASF40
 1365 01a6 00       		.sleb128 0
 1366 01a7 0A       		.uleb128 0xa
 1367 01a8 75010000 		.4byte	.LASF41
 1368 01ac 01       		.sleb128 1
 1369 01ad 0A       		.uleb128 0xa
 1370 01ae BB000000 		.4byte	.LASF42
 1371 01b2 02       		.sleb128 2
 1372 01b3 0A       		.uleb128 0xa
 1373 01b4 14000000 		.4byte	.LASF43
 1374 01b8 03       		.sleb128 3
 1375 01b9 0A       		.uleb128 0xa
 1376 01ba 99030000 		.4byte	.LASF44
 1377 01be 04       		.sleb128 4
 1378 01bf 0A       		.uleb128 0xa
 1379 01c0 03030000 		.4byte	.LASF45
 1380 01c4 05       		.sleb128 5
 1381 01c5 0A       		.uleb128 0xa
 1382 01c6 AB000000 		.4byte	.LASF46
 1383 01ca 06       		.sleb128 6
 1384 01cb 0A       		.uleb128 0xa
 1385 01cc CD000000 		.4byte	.LASF47
 1386 01d0 07       		.sleb128 7
 1387 01d1 0A       		.uleb128 0xa
 1388 01d2 E0020000 		.4byte	.LASF48
 1389 01d6 08       		.sleb128 8
 1390 01d7 0A       		.uleb128 0xa
 1391 01d8 5F020000 		.4byte	.LASF49
 1392 01dc 09       		.sleb128 9
 1393 01dd 0A       		.uleb128 0xa
 1394 01de B3000000 		.4byte	.LASF50
 1395 01e2 0A       		.sleb128 10
 1396 01e3 00       		.byte	0
 1397 01e4 0B       		.uleb128 0xb
 1398 01e5 09000000 		.4byte	.LASF56
 1399 01e9 01       		.byte	0x1
 1400 01ea 04       		.byte	0x4
 1401 01eb 97000000 		.4byte	0x97
 1402 01ef 00000000 		.4byte	.LFB2
 1403 01f3 64040000 		.4byte	.LFE2-.LFB2
 1404 01f7 01       		.uleb128 0x1
 1405 01f8 9C       		.byte	0x9c
 1406 01f9 51020000 		.4byte	0x251
 1407 01fd 0C       		.uleb128 0xc
 1408 01fe FE020000 		.4byte	.LASF51
 1409 0202 01       		.byte	0x1
 1410 0203 04       		.byte	0x4
 1411 0204 51020000 		.4byte	0x251
 1412 0208 03       		.uleb128 0x3
 1413 0209 91       		.byte	0x91
 1414 020a B47F     		.sleb128 -76
 1415 020c 0C       		.uleb128 0xc
 1416 020d 49010000 		.4byte	.LASF52
 1417 0211 01       		.byte	0x1
 1418 0212 04       		.byte	0x4
ARM GAS  C:\Users\Petro\AppData\Local\Temp\ccCq3ck9.s 			page 32


 1419 0213 97000000 		.4byte	0x97
 1420 0217 03       		.uleb128 0x3
 1421 0218 91       		.byte	0x91
 1422 0219 B37F     		.sleb128 -77
 1423 021b 0D       		.uleb128 0xd
 1424 021c E4000000 		.4byte	.LASF53
 1425 0220 01       		.byte	0x1
 1426 0221 06       		.byte	0x6
 1427 0222 AD000000 		.4byte	0xad
 1428 0226 02       		.uleb128 0x2
 1429 0227 91       		.byte	0x91
 1430 0228 64       		.sleb128 -28
 1431 0229 0E       		.uleb128 0xe
 1432 022a 6E030000 		.4byte	.LBB2
 1433 022e BA000000 		.4byte	.LBE2-.LBB2
 1434 0232 0D       		.uleb128 0xd
 1435 0233 9F010000 		.4byte	.LASF54
 1436 0237 01       		.byte	0x1
 1437 0238 CE       		.byte	0xce
 1438 0239 AD000000 		.4byte	0xad
 1439 023d 02       		.uleb128 0x2
 1440 023e 91       		.byte	0x91
 1441 023f 60       		.sleb128 -32
 1442 0240 0D       		.uleb128 0xd
 1443 0241 FA000000 		.4byte	.LASF55
 1444 0245 01       		.byte	0x1
 1445 0246 CF       		.byte	0xcf
 1446 0247 57020000 		.4byte	0x257
 1447 024b 03       		.uleb128 0x3
 1448 024c 91       		.byte	0x91
 1449 024d B87F     		.sleb128 -72
 1450 024f 00       		.byte	0
 1451 0250 00       		.byte	0
 1452 0251 05       		.uleb128 0x5
 1453 0252 04       		.byte	0x4
 1454 0253 E5000000 		.4byte	0xe5
 1455 0257 0F       		.uleb128 0xf
 1456 0258 D0000000 		.4byte	0xd0
 1457 025c 67020000 		.4byte	0x267
 1458 0260 10       		.uleb128 0x10
 1459 0261 C3000000 		.4byte	0xc3
 1460 0265 27       		.byte	0x27
 1461 0266 00       		.byte	0
 1462 0267 11       		.uleb128 0x11
 1463 0268 D4000000 		.4byte	.LASF57
 1464 026c 01       		.byte	0x1
 1465 026d F4       		.byte	0xf4
 1466 026e 97000000 		.4byte	0x97
 1467 0272 00000000 		.4byte	.LFB3
 1468 0276 4E000000 		.4byte	.LFE3-.LFB3
 1469 027a 01       		.uleb128 0x1
 1470 027b 9C       		.byte	0x9c
 1471 027c 8F020000 		.4byte	0x28f
 1472 0280 12       		.uleb128 0x12
 1473 0281 496E7000 		.ascii	"Inp\000"
 1474 0285 01       		.byte	0x1
 1475 0286 F4       		.byte	0xf4
ARM GAS  C:\Users\Petro\AppData\Local\Temp\ccCq3ck9.s 			page 33


 1476 0287 97000000 		.4byte	0x97
 1477 028b 02       		.uleb128 0x2
 1478 028c 91       		.byte	0x91
 1479 028d 77       		.sleb128 -9
 1480 028e 00       		.byte	0
 1481 028f 13       		.uleb128 0x13
 1482 0290 15010000 		.4byte	.LASF58
 1483 0294 01       		.byte	0x1
 1484 0295 0001     		.2byte	0x100
 1485 0297 97000000 		.4byte	0x97
 1486 029b 00000000 		.4byte	.LFB4
 1487 029f 32000000 		.4byte	.LFE4-.LFB4
 1488 02a3 01       		.uleb128 0x1
 1489 02a4 9C       		.byte	0x9c
 1490 02a5 C8020000 		.4byte	0x2c8
 1491 02a9 14       		.uleb128 0x14
 1492 02aa 496E7000 		.ascii	"Inp\000"
 1493 02ae 01       		.byte	0x1
 1494 02af 0001     		.2byte	0x100
 1495 02b1 97000000 		.4byte	0x97
 1496 02b5 02       		.uleb128 0x2
 1497 02b6 91       		.byte	0x91
 1498 02b7 6F       		.sleb128 -17
 1499 02b8 15       		.uleb128 0x15
 1500 02b9 56616C00 		.ascii	"Val\000"
 1501 02bd 01       		.byte	0x1
 1502 02be 0201     		.2byte	0x102
 1503 02c0 97000000 		.4byte	0x97
 1504 02c4 02       		.uleb128 0x2
 1505 02c5 91       		.byte	0x91
 1506 02c6 77       		.sleb128 -9
 1507 02c7 00       		.byte	0
 1508 02c8 16       		.uleb128 0x16
 1509 02c9 6C000000 		.4byte	.LASF77
 1510 02cd 01       		.byte	0x1
 1511 02ce 0B01     		.2byte	0x10b
 1512 02d0 00000000 		.4byte	.LFB5
 1513 02d4 3C000000 		.4byte	.LFE5-.LFB5
 1514 02d8 01       		.uleb128 0x1
 1515 02d9 9C       		.byte	0x9c
 1516 02da EE020000 		.4byte	0x2ee
 1517 02de 17       		.uleb128 0x17
 1518 02df FE020000 		.4byte	.LASF51
 1519 02e3 01       		.byte	0x1
 1520 02e4 0B01     		.2byte	0x10b
 1521 02e6 51020000 		.4byte	0x251
 1522 02ea 02       		.uleb128 0x2
 1523 02eb 91       		.byte	0x91
 1524 02ec 6C       		.sleb128 -20
 1525 02ed 00       		.byte	0
 1526 02ee 18       		.uleb128 0x18
 1527 02ef 60010000 		.4byte	.LASF59
 1528 02f3 01       		.byte	0x1
 1529 02f4 1601     		.2byte	0x116
 1530 02f6 97000000 		.4byte	0x97
 1531 02fa 00000000 		.4byte	.LFB6
 1532 02fe 58010000 		.4byte	.LFE6-.LFB6
ARM GAS  C:\Users\Petro\AppData\Local\Temp\ccCq3ck9.s 			page 34


 1533 0302 01       		.uleb128 0x1
 1534 0303 9C       		.byte	0x9c
 1535 0304 74030000 		.4byte	0x374
 1536 0308 17       		.uleb128 0x17
 1537 0309 67000000 		.4byte	.LASF60
 1538 030d 01       		.byte	0x1
 1539 030e 1601     		.2byte	0x116
 1540 0310 CA000000 		.4byte	0xca
 1541 0314 03       		.uleb128 0x3
 1542 0315 91       		.byte	0x91
 1543 0316 BC7F     		.sleb128 -68
 1544 0318 17       		.uleb128 0x17
 1545 0319 1F010000 		.4byte	.LASF61
 1546 031d 01       		.byte	0x1
 1547 031e 1601     		.2byte	0x116
 1548 0320 74030000 		.4byte	0x374
 1549 0324 03       		.uleb128 0x3
 1550 0325 91       		.byte	0x91
 1551 0326 B87F     		.sleb128 -72
 1552 0328 17       		.uleb128 0x17
 1553 0329 ED020000 		.4byte	.LASF62
 1554 032d 01       		.byte	0x1
 1555 032e 1601     		.2byte	0x116
 1556 0330 AD000000 		.4byte	0xad
 1557 0334 03       		.uleb128 0x3
 1558 0335 91       		.byte	0x91
 1559 0336 B47F     		.sleb128 -76
 1560 0338 19       		.uleb128 0x19
 1561 0339 DF000000 		.4byte	.LASF63
 1562 033d 01       		.byte	0x1
 1563 033e 1801     		.2byte	0x118
 1564 0340 AD000000 		.4byte	0xad
 1565 0344 02       		.uleb128 0x2
 1566 0345 91       		.byte	0x91
 1567 0346 68       		.sleb128 -24
 1568 0347 15       		.uleb128 0x15
 1569 0348 5F7000   		.ascii	"_p\000"
 1570 034b 01       		.byte	0x1
 1571 034c 1901     		.2byte	0x119
 1572 034e CA000000 		.4byte	0xca
 1573 0352 02       		.uleb128 0x2
 1574 0353 91       		.byte	0x91
 1575 0354 6C       		.sleb128 -20
 1576 0355 19       		.uleb128 0x19
 1577 0356 47000000 		.4byte	.LASF64
 1578 035a 01       		.byte	0x1
 1579 035b 1A01     		.2byte	0x11a
 1580 035d 7A030000 		.4byte	0x37a
 1581 0361 02       		.uleb128 0x2
 1582 0362 91       		.byte	0x91
 1583 0363 54       		.sleb128 -44
 1584 0364 19       		.uleb128 0x19
 1585 0365 02020000 		.4byte	.LASF65
 1586 0369 01       		.byte	0x1
 1587 036a 1B01     		.2byte	0x11b
 1588 036c 7A030000 		.4byte	0x37a
 1589 0370 02       		.uleb128 0x2
ARM GAS  C:\Users\Petro\AppData\Local\Temp\ccCq3ck9.s 			page 35


 1590 0371 91       		.byte	0x91
 1591 0372 40       		.sleb128 -64
 1592 0373 00       		.byte	0
 1593 0374 05       		.uleb128 0x5
 1594 0375 04       		.byte	0x4
 1595 0376 97000000 		.4byte	0x97
 1596 037a 0F       		.uleb128 0xf
 1597 037b D0000000 		.4byte	0xd0
 1598 037f 8A030000 		.4byte	0x38a
 1599 0383 10       		.uleb128 0x10
 1600 0384 C3000000 		.4byte	0xc3
 1601 0388 13       		.byte	0x13
 1602 0389 00       		.byte	0
 1603 038a 1A       		.uleb128 0x1a
 1604 038b 69010000 		.4byte	.LASF66
 1605 038f 04       		.byte	0x4
 1606 0390 4C       		.byte	0x4c
 1607 0391 97000000 		.4byte	0x97
 1608 0395 05       		.uleb128 0x5
 1609 0396 03       		.byte	0x3
 1610 0397 00000000 		.4byte	PROTO_STATE
 1611 039b 1A       		.uleb128 0x1a
 1612 039c 91000000 		.4byte	.LASF67
 1613 03a0 04       		.byte	0x4
 1614 03a1 4C       		.byte	0x4c
 1615 03a2 97000000 		.4byte	0x97
 1616 03a6 05       		.uleb128 0x5
 1617 03a7 03       		.byte	0x3
 1618 03a8 00000000 		.4byte	LenD1
 1619 03ac 1A       		.uleb128 0x1a
 1620 03ad 97000000 		.4byte	.LASF68
 1621 03b1 04       		.byte	0x4
 1622 03b2 4C       		.byte	0x4c
 1623 03b3 97000000 		.4byte	0x97
 1624 03b7 05       		.uleb128 0x5
 1625 03b8 03       		.byte	0x3
 1626 03b9 00000000 		.4byte	LenD2
 1627 03bd 1A       		.uleb128 0x1a
 1628 03be 9D000000 		.4byte	.LASF69
 1629 03c2 04       		.byte	0x4
 1630 03c3 4C       		.byte	0x4c
 1631 03c4 97000000 		.4byte	0x97
 1632 03c8 05       		.uleb128 0x5
 1633 03c9 03       		.byte	0x3
 1634 03ca 00000000 		.4byte	LenD3
 1635 03ce 1A       		.uleb128 0x1a
 1636 03cf 98010000 		.4byte	.LASF70
 1637 03d3 04       		.byte	0x4
 1638 03d4 4C       		.byte	0x4c
 1639 03d5 97000000 		.4byte	0x97
 1640 03d9 05       		.uleb128 0x5
 1641 03da 03       		.byte	0x3
 1642 03db 00000000 		.4byte	LenSeq
 1643 03df 1A       		.uleb128 0x1a
 1644 03e0 3F020000 		.4byte	.LASF71
 1645 03e4 04       		.byte	0x4
 1646 03e5 4C       		.byte	0x4c
ARM GAS  C:\Users\Petro\AppData\Local\Temp\ccCq3ck9.s 			page 36


 1647 03e6 97000000 		.4byte	0x97
 1648 03ea 05       		.uleb128 0x5
 1649 03eb 03       		.byte	0x3
 1650 03ec 00000000 		.4byte	LenChS
 1651 03f0 1A       		.uleb128 0x1a
 1652 03f1 5B010000 		.4byte	.LASF72
 1653 03f5 04       		.byte	0x4
 1654 03f6 4C       		.byte	0x4c
 1655 03f7 97000000 		.4byte	0x97
 1656 03fb 05       		.uleb128 0x5
 1657 03fc 03       		.byte	0x3
 1658 03fd 00000000 		.4byte	LenC
 1659 0401 00       		.byte	0
 1660              		.section	.debug_abbrev,"",%progbits
 1661              	.Ldebug_abbrev0:
 1662 0000 01       		.uleb128 0x1
 1663 0001 11       		.uleb128 0x11
 1664 0002 01       		.byte	0x1
 1665 0003 25       		.uleb128 0x25
 1666 0004 0E       		.uleb128 0xe
 1667 0005 13       		.uleb128 0x13
 1668 0006 0B       		.uleb128 0xb
 1669 0007 03       		.uleb128 0x3
 1670 0008 0E       		.uleb128 0xe
 1671 0009 1B       		.uleb128 0x1b
 1672 000a 0E       		.uleb128 0xe
 1673 000b 55       		.uleb128 0x55
 1674 000c 17       		.uleb128 0x17
 1675 000d 11       		.uleb128 0x11
 1676 000e 01       		.uleb128 0x1
 1677 000f 10       		.uleb128 0x10
 1678 0010 17       		.uleb128 0x17
 1679 0011 00       		.byte	0
 1680 0012 00       		.byte	0
 1681 0013 02       		.uleb128 0x2
 1682 0014 24       		.uleb128 0x24
 1683 0015 00       		.byte	0
 1684 0016 0B       		.uleb128 0xb
 1685 0017 0B       		.uleb128 0xb
 1686 0018 3E       		.uleb128 0x3e
 1687 0019 0B       		.uleb128 0xb
 1688 001a 03       		.uleb128 0x3
 1689 001b 0E       		.uleb128 0xe
 1690 001c 00       		.byte	0
 1691 001d 00       		.byte	0
 1692 001e 03       		.uleb128 0x3
 1693 001f 16       		.uleb128 0x16
 1694 0020 00       		.byte	0
 1695 0021 03       		.uleb128 0x3
 1696 0022 0E       		.uleb128 0xe
 1697 0023 3A       		.uleb128 0x3a
 1698 0024 0B       		.uleb128 0xb
 1699 0025 3B       		.uleb128 0x3b
 1700 0026 0B       		.uleb128 0xb
 1701 0027 49       		.uleb128 0x49
 1702 0028 13       		.uleb128 0x13
 1703 0029 00       		.byte	0
ARM GAS  C:\Users\Petro\AppData\Local\Temp\ccCq3ck9.s 			page 37


 1704 002a 00       		.byte	0
 1705 002b 04       		.uleb128 0x4
 1706 002c 24       		.uleb128 0x24
 1707 002d 00       		.byte	0
 1708 002e 0B       		.uleb128 0xb
 1709 002f 0B       		.uleb128 0xb
 1710 0030 3E       		.uleb128 0x3e
 1711 0031 0B       		.uleb128 0xb
 1712 0032 03       		.uleb128 0x3
 1713 0033 08       		.uleb128 0x8
 1714 0034 00       		.byte	0
 1715 0035 00       		.byte	0
 1716 0036 05       		.uleb128 0x5
 1717 0037 0F       		.uleb128 0xf
 1718 0038 00       		.byte	0
 1719 0039 0B       		.uleb128 0xb
 1720 003a 0B       		.uleb128 0xb
 1721 003b 49       		.uleb128 0x49
 1722 003c 13       		.uleb128 0x13
 1723 003d 00       		.byte	0
 1724 003e 00       		.byte	0
 1725 003f 06       		.uleb128 0x6
 1726 0040 13       		.uleb128 0x13
 1727 0041 01       		.byte	0x1
 1728 0042 03       		.uleb128 0x3
 1729 0043 0E       		.uleb128 0xe
 1730 0044 0B       		.uleb128 0xb
 1731 0045 0B       		.uleb128 0xb
 1732 0046 3A       		.uleb128 0x3a
 1733 0047 0B       		.uleb128 0xb
 1734 0048 3B       		.uleb128 0x3b
 1735 0049 0B       		.uleb128 0xb
 1736 004a 01       		.uleb128 0x1
 1737 004b 13       		.uleb128 0x13
 1738 004c 00       		.byte	0
 1739 004d 00       		.byte	0
 1740 004e 07       		.uleb128 0x7
 1741 004f 0D       		.uleb128 0xd
 1742 0050 00       		.byte	0
 1743 0051 03       		.uleb128 0x3
 1744 0052 08       		.uleb128 0x8
 1745 0053 3A       		.uleb128 0x3a
 1746 0054 0B       		.uleb128 0xb
 1747 0055 3B       		.uleb128 0x3b
 1748 0056 0B       		.uleb128 0xb
 1749 0057 49       		.uleb128 0x49
 1750 0058 13       		.uleb128 0x13
 1751 0059 38       		.uleb128 0x38
 1752 005a 0B       		.uleb128 0xb
 1753 005b 00       		.byte	0
 1754 005c 00       		.byte	0
 1755 005d 08       		.uleb128 0x8
 1756 005e 0D       		.uleb128 0xd
 1757 005f 00       		.byte	0
 1758 0060 03       		.uleb128 0x3
 1759 0061 0E       		.uleb128 0xe
 1760 0062 3A       		.uleb128 0x3a
ARM GAS  C:\Users\Petro\AppData\Local\Temp\ccCq3ck9.s 			page 38


 1761 0063 0B       		.uleb128 0xb
 1762 0064 3B       		.uleb128 0x3b
 1763 0065 0B       		.uleb128 0xb
 1764 0066 49       		.uleb128 0x49
 1765 0067 13       		.uleb128 0x13
 1766 0068 38       		.uleb128 0x38
 1767 0069 0B       		.uleb128 0xb
 1768 006a 00       		.byte	0
 1769 006b 00       		.byte	0
 1770 006c 09       		.uleb128 0x9
 1771 006d 04       		.uleb128 0x4
 1772 006e 01       		.byte	0x1
 1773 006f 03       		.uleb128 0x3
 1774 0070 0E       		.uleb128 0xe
 1775 0071 0B       		.uleb128 0xb
 1776 0072 0B       		.uleb128 0xb
 1777 0073 3A       		.uleb128 0x3a
 1778 0074 0B       		.uleb128 0xb
 1779 0075 3B       		.uleb128 0x3b
 1780 0076 0B       		.uleb128 0xb
 1781 0077 01       		.uleb128 0x1
 1782 0078 13       		.uleb128 0x13
 1783 0079 00       		.byte	0
 1784 007a 00       		.byte	0
 1785 007b 0A       		.uleb128 0xa
 1786 007c 28       		.uleb128 0x28
 1787 007d 00       		.byte	0
 1788 007e 03       		.uleb128 0x3
 1789 007f 0E       		.uleb128 0xe
 1790 0080 1C       		.uleb128 0x1c
 1791 0081 0D       		.uleb128 0xd
 1792 0082 00       		.byte	0
 1793 0083 00       		.byte	0
 1794 0084 0B       		.uleb128 0xb
 1795 0085 2E       		.uleb128 0x2e
 1796 0086 01       		.byte	0x1
 1797 0087 3F       		.uleb128 0x3f
 1798 0088 19       		.uleb128 0x19
 1799 0089 03       		.uleb128 0x3
 1800 008a 0E       		.uleb128 0xe
 1801 008b 3A       		.uleb128 0x3a
 1802 008c 0B       		.uleb128 0xb
 1803 008d 3B       		.uleb128 0x3b
 1804 008e 0B       		.uleb128 0xb
 1805 008f 27       		.uleb128 0x27
 1806 0090 19       		.uleb128 0x19
 1807 0091 49       		.uleb128 0x49
 1808 0092 13       		.uleb128 0x13
 1809 0093 11       		.uleb128 0x11
 1810 0094 01       		.uleb128 0x1
 1811 0095 12       		.uleb128 0x12
 1812 0096 06       		.uleb128 0x6
 1813 0097 40       		.uleb128 0x40
 1814 0098 18       		.uleb128 0x18
 1815 0099 9642     		.uleb128 0x2116
 1816 009b 19       		.uleb128 0x19
 1817 009c 01       		.uleb128 0x1
ARM GAS  C:\Users\Petro\AppData\Local\Temp\ccCq3ck9.s 			page 39


 1818 009d 13       		.uleb128 0x13
 1819 009e 00       		.byte	0
 1820 009f 00       		.byte	0
 1821 00a0 0C       		.uleb128 0xc
 1822 00a1 05       		.uleb128 0x5
 1823 00a2 00       		.byte	0
 1824 00a3 03       		.uleb128 0x3
 1825 00a4 0E       		.uleb128 0xe
 1826 00a5 3A       		.uleb128 0x3a
 1827 00a6 0B       		.uleb128 0xb
 1828 00a7 3B       		.uleb128 0x3b
 1829 00a8 0B       		.uleb128 0xb
 1830 00a9 49       		.uleb128 0x49
 1831 00aa 13       		.uleb128 0x13
 1832 00ab 02       		.uleb128 0x2
 1833 00ac 18       		.uleb128 0x18
 1834 00ad 00       		.byte	0
 1835 00ae 00       		.byte	0
 1836 00af 0D       		.uleb128 0xd
 1837 00b0 34       		.uleb128 0x34
 1838 00b1 00       		.byte	0
 1839 00b2 03       		.uleb128 0x3
 1840 00b3 0E       		.uleb128 0xe
 1841 00b4 3A       		.uleb128 0x3a
 1842 00b5 0B       		.uleb128 0xb
 1843 00b6 3B       		.uleb128 0x3b
 1844 00b7 0B       		.uleb128 0xb
 1845 00b8 49       		.uleb128 0x49
 1846 00b9 13       		.uleb128 0x13
 1847 00ba 02       		.uleb128 0x2
 1848 00bb 18       		.uleb128 0x18
 1849 00bc 00       		.byte	0
 1850 00bd 00       		.byte	0
 1851 00be 0E       		.uleb128 0xe
 1852 00bf 0B       		.uleb128 0xb
 1853 00c0 01       		.byte	0x1
 1854 00c1 11       		.uleb128 0x11
 1855 00c2 01       		.uleb128 0x1
 1856 00c3 12       		.uleb128 0x12
 1857 00c4 06       		.uleb128 0x6
 1858 00c5 00       		.byte	0
 1859 00c6 00       		.byte	0
 1860 00c7 0F       		.uleb128 0xf
 1861 00c8 01       		.uleb128 0x1
 1862 00c9 01       		.byte	0x1
 1863 00ca 49       		.uleb128 0x49
 1864 00cb 13       		.uleb128 0x13
 1865 00cc 01       		.uleb128 0x1
 1866 00cd 13       		.uleb128 0x13
 1867 00ce 00       		.byte	0
 1868 00cf 00       		.byte	0
 1869 00d0 10       		.uleb128 0x10
 1870 00d1 21       		.uleb128 0x21
 1871 00d2 00       		.byte	0
 1872 00d3 49       		.uleb128 0x49
 1873 00d4 13       		.uleb128 0x13
 1874 00d5 2F       		.uleb128 0x2f
ARM GAS  C:\Users\Petro\AppData\Local\Temp\ccCq3ck9.s 			page 40


 1875 00d6 0B       		.uleb128 0xb
 1876 00d7 00       		.byte	0
 1877 00d8 00       		.byte	0
 1878 00d9 11       		.uleb128 0x11
 1879 00da 2E       		.uleb128 0x2e
 1880 00db 01       		.byte	0x1
 1881 00dc 3F       		.uleb128 0x3f
 1882 00dd 19       		.uleb128 0x19
 1883 00de 03       		.uleb128 0x3
 1884 00df 0E       		.uleb128 0xe
 1885 00e0 3A       		.uleb128 0x3a
 1886 00e1 0B       		.uleb128 0xb
 1887 00e2 3B       		.uleb128 0x3b
 1888 00e3 0B       		.uleb128 0xb
 1889 00e4 27       		.uleb128 0x27
 1890 00e5 19       		.uleb128 0x19
 1891 00e6 49       		.uleb128 0x49
 1892 00e7 13       		.uleb128 0x13
 1893 00e8 11       		.uleb128 0x11
 1894 00e9 01       		.uleb128 0x1
 1895 00ea 12       		.uleb128 0x12
 1896 00eb 06       		.uleb128 0x6
 1897 00ec 40       		.uleb128 0x40
 1898 00ed 18       		.uleb128 0x18
 1899 00ee 9742     		.uleb128 0x2117
 1900 00f0 19       		.uleb128 0x19
 1901 00f1 01       		.uleb128 0x1
 1902 00f2 13       		.uleb128 0x13
 1903 00f3 00       		.byte	0
 1904 00f4 00       		.byte	0
 1905 00f5 12       		.uleb128 0x12
 1906 00f6 05       		.uleb128 0x5
 1907 00f7 00       		.byte	0
 1908 00f8 03       		.uleb128 0x3
 1909 00f9 08       		.uleb128 0x8
 1910 00fa 3A       		.uleb128 0x3a
 1911 00fb 0B       		.uleb128 0xb
 1912 00fc 3B       		.uleb128 0x3b
 1913 00fd 0B       		.uleb128 0xb
 1914 00fe 49       		.uleb128 0x49
 1915 00ff 13       		.uleb128 0x13
 1916 0100 02       		.uleb128 0x2
 1917 0101 18       		.uleb128 0x18
 1918 0102 00       		.byte	0
 1919 0103 00       		.byte	0
 1920 0104 13       		.uleb128 0x13
 1921 0105 2E       		.uleb128 0x2e
 1922 0106 01       		.byte	0x1
 1923 0107 3F       		.uleb128 0x3f
 1924 0108 19       		.uleb128 0x19
 1925 0109 03       		.uleb128 0x3
 1926 010a 0E       		.uleb128 0xe
 1927 010b 3A       		.uleb128 0x3a
 1928 010c 0B       		.uleb128 0xb
 1929 010d 3B       		.uleb128 0x3b
 1930 010e 05       		.uleb128 0x5
 1931 010f 27       		.uleb128 0x27
ARM GAS  C:\Users\Petro\AppData\Local\Temp\ccCq3ck9.s 			page 41


 1932 0110 19       		.uleb128 0x19
 1933 0111 49       		.uleb128 0x49
 1934 0112 13       		.uleb128 0x13
 1935 0113 11       		.uleb128 0x11
 1936 0114 01       		.uleb128 0x1
 1937 0115 12       		.uleb128 0x12
 1938 0116 06       		.uleb128 0x6
 1939 0117 40       		.uleb128 0x40
 1940 0118 18       		.uleb128 0x18
 1941 0119 9742     		.uleb128 0x2117
 1942 011b 19       		.uleb128 0x19
 1943 011c 01       		.uleb128 0x1
 1944 011d 13       		.uleb128 0x13
 1945 011e 00       		.byte	0
 1946 011f 00       		.byte	0
 1947 0120 14       		.uleb128 0x14
 1948 0121 05       		.uleb128 0x5
 1949 0122 00       		.byte	0
 1950 0123 03       		.uleb128 0x3
 1951 0124 08       		.uleb128 0x8
 1952 0125 3A       		.uleb128 0x3a
 1953 0126 0B       		.uleb128 0xb
 1954 0127 3B       		.uleb128 0x3b
 1955 0128 05       		.uleb128 0x5
 1956 0129 49       		.uleb128 0x49
 1957 012a 13       		.uleb128 0x13
 1958 012b 02       		.uleb128 0x2
 1959 012c 18       		.uleb128 0x18
 1960 012d 00       		.byte	0
 1961 012e 00       		.byte	0
 1962 012f 15       		.uleb128 0x15
 1963 0130 34       		.uleb128 0x34
 1964 0131 00       		.byte	0
 1965 0132 03       		.uleb128 0x3
 1966 0133 08       		.uleb128 0x8
 1967 0134 3A       		.uleb128 0x3a
 1968 0135 0B       		.uleb128 0xb
 1969 0136 3B       		.uleb128 0x3b
 1970 0137 05       		.uleb128 0x5
 1971 0138 49       		.uleb128 0x49
 1972 0139 13       		.uleb128 0x13
 1973 013a 02       		.uleb128 0x2
 1974 013b 18       		.uleb128 0x18
 1975 013c 00       		.byte	0
 1976 013d 00       		.byte	0
 1977 013e 16       		.uleb128 0x16
 1978 013f 2E       		.uleb128 0x2e
 1979 0140 01       		.byte	0x1
 1980 0141 3F       		.uleb128 0x3f
 1981 0142 19       		.uleb128 0x19
 1982 0143 03       		.uleb128 0x3
 1983 0144 0E       		.uleb128 0xe
 1984 0145 3A       		.uleb128 0x3a
 1985 0146 0B       		.uleb128 0xb
 1986 0147 3B       		.uleb128 0x3b
 1987 0148 05       		.uleb128 0x5
 1988 0149 27       		.uleb128 0x27
ARM GAS  C:\Users\Petro\AppData\Local\Temp\ccCq3ck9.s 			page 42


 1989 014a 19       		.uleb128 0x19
 1990 014b 11       		.uleb128 0x11
 1991 014c 01       		.uleb128 0x1
 1992 014d 12       		.uleb128 0x12
 1993 014e 06       		.uleb128 0x6
 1994 014f 40       		.uleb128 0x40
 1995 0150 18       		.uleb128 0x18
 1996 0151 9742     		.uleb128 0x2117
 1997 0153 19       		.uleb128 0x19
 1998 0154 01       		.uleb128 0x1
 1999 0155 13       		.uleb128 0x13
 2000 0156 00       		.byte	0
 2001 0157 00       		.byte	0
 2002 0158 17       		.uleb128 0x17
 2003 0159 05       		.uleb128 0x5
 2004 015a 00       		.byte	0
 2005 015b 03       		.uleb128 0x3
 2006 015c 0E       		.uleb128 0xe
 2007 015d 3A       		.uleb128 0x3a
 2008 015e 0B       		.uleb128 0xb
 2009 015f 3B       		.uleb128 0x3b
 2010 0160 05       		.uleb128 0x5
 2011 0161 49       		.uleb128 0x49
 2012 0162 13       		.uleb128 0x13
 2013 0163 02       		.uleb128 0x2
 2014 0164 18       		.uleb128 0x18
 2015 0165 00       		.byte	0
 2016 0166 00       		.byte	0
 2017 0167 18       		.uleb128 0x18
 2018 0168 2E       		.uleb128 0x2e
 2019 0169 01       		.byte	0x1
 2020 016a 3F       		.uleb128 0x3f
 2021 016b 19       		.uleb128 0x19
 2022 016c 03       		.uleb128 0x3
 2023 016d 0E       		.uleb128 0xe
 2024 016e 3A       		.uleb128 0x3a
 2025 016f 0B       		.uleb128 0xb
 2026 0170 3B       		.uleb128 0x3b
 2027 0171 05       		.uleb128 0x5
 2028 0172 27       		.uleb128 0x27
 2029 0173 19       		.uleb128 0x19
 2030 0174 49       		.uleb128 0x49
 2031 0175 13       		.uleb128 0x13
 2032 0176 11       		.uleb128 0x11
 2033 0177 01       		.uleb128 0x1
 2034 0178 12       		.uleb128 0x12
 2035 0179 06       		.uleb128 0x6
 2036 017a 40       		.uleb128 0x40
 2037 017b 18       		.uleb128 0x18
 2038 017c 9642     		.uleb128 0x2116
 2039 017e 19       		.uleb128 0x19
 2040 017f 01       		.uleb128 0x1
 2041 0180 13       		.uleb128 0x13
 2042 0181 00       		.byte	0
 2043 0182 00       		.byte	0
 2044 0183 19       		.uleb128 0x19
 2045 0184 34       		.uleb128 0x34
ARM GAS  C:\Users\Petro\AppData\Local\Temp\ccCq3ck9.s 			page 43


 2046 0185 00       		.byte	0
 2047 0186 03       		.uleb128 0x3
 2048 0187 0E       		.uleb128 0xe
 2049 0188 3A       		.uleb128 0x3a
 2050 0189 0B       		.uleb128 0xb
 2051 018a 3B       		.uleb128 0x3b
 2052 018b 05       		.uleb128 0x5
 2053 018c 49       		.uleb128 0x49
 2054 018d 13       		.uleb128 0x13
 2055 018e 02       		.uleb128 0x2
 2056 018f 18       		.uleb128 0x18
 2057 0190 00       		.byte	0
 2058 0191 00       		.byte	0
 2059 0192 1A       		.uleb128 0x1a
 2060 0193 34       		.uleb128 0x34
 2061 0194 00       		.byte	0
 2062 0195 03       		.uleb128 0x3
 2063 0196 0E       		.uleb128 0xe
 2064 0197 3A       		.uleb128 0x3a
 2065 0198 0B       		.uleb128 0xb
 2066 0199 3B       		.uleb128 0x3b
 2067 019a 0B       		.uleb128 0xb
 2068 019b 49       		.uleb128 0x49
 2069 019c 13       		.uleb128 0x13
 2070 019d 3F       		.uleb128 0x3f
 2071 019e 19       		.uleb128 0x19
 2072 019f 02       		.uleb128 0x2
 2073 01a0 18       		.uleb128 0x18
 2074 01a1 00       		.byte	0
 2075 01a2 00       		.byte	0
 2076 01a3 00       		.byte	0
 2077              		.section	.debug_aranges,"",%progbits
 2078 0000 3C000000 		.4byte	0x3c
 2079 0004 0200     		.2byte	0x2
 2080 0006 00000000 		.4byte	.Ldebug_info0
 2081 000a 04       		.byte	0x4
 2082 000b 00       		.byte	0
 2083 000c 0000     		.2byte	0
 2084 000e 0000     		.2byte	0
 2085 0010 00000000 		.4byte	.LFB2
 2086 0014 64040000 		.4byte	.LFE2-.LFB2
 2087 0018 00000000 		.4byte	.LFB3
 2088 001c 4E000000 		.4byte	.LFE3-.LFB3
 2089 0020 00000000 		.4byte	.LFB4
 2090 0024 32000000 		.4byte	.LFE4-.LFB4
 2091 0028 00000000 		.4byte	.LFB5
 2092 002c 3C000000 		.4byte	.LFE5-.LFB5
 2093 0030 00000000 		.4byte	.LFB6
 2094 0034 58010000 		.4byte	.LFE6-.LFB6
 2095 0038 00000000 		.4byte	0
 2096 003c 00000000 		.4byte	0
 2097              		.section	.debug_ranges,"",%progbits
 2098              	.Ldebug_ranges0:
 2099 0000 00000000 		.4byte	.LFB2
 2100 0004 64040000 		.4byte	.LFE2
 2101 0008 00000000 		.4byte	.LFB3
 2102 000c 4E000000 		.4byte	.LFE3
ARM GAS  C:\Users\Petro\AppData\Local\Temp\ccCq3ck9.s 			page 44


 2103 0010 00000000 		.4byte	.LFB4
 2104 0014 32000000 		.4byte	.LFE4
 2105 0018 00000000 		.4byte	.LFB5
 2106 001c 3C000000 		.4byte	.LFE5
 2107 0020 00000000 		.4byte	.LFB6
 2108 0024 58010000 		.4byte	.LFE6
 2109 0028 00000000 		.4byte	0
 2110 002c 00000000 		.4byte	0
 2111              		.section	.debug_line,"",%progbits
 2112              	.Ldebug_line0:
 2113 0000 55020000 		.section	.debug_str,"MS",%progbits,1
 2113      02002B01 
 2113      00000201 
 2113      FB0E0D00 
 2113      01010101 
 2114              	.LASF37:
 2115 0000 52454144 		.ascii	"READ_ETX\000"
 2115      5F455458 
 2115      00
 2116              	.LASF56:
 2117 0009 556E7061 		.ascii	"UnpackData\000"
 2117      636B4461 
 2117      746100
 2118              	.LASF43:
 2119 0014 494E565F 		.ascii	"INV_COMM\000"
 2119      434F4D4D 
 2119      00
 2120              	.LASF16:
 2121 001d 75696E74 		.ascii	"uint64_t\000"
 2121      36345F74 
 2121      00
 2122              	.LASF3:
 2123 0026 5F5F7569 		.ascii	"__uint8_t\000"
 2123      6E74385F 
 2123      7400
 2124              	.LASF11:
 2125 0030 6C6F6E67 		.ascii	"long long unsigned int\000"
 2125      206C6F6E 
 2125      6720756E 
 2125      7369676E 
 2125      65642069 
 2126              	.LASF64:
 2127 0047 737A5365 		.ascii	"szSeq\000"
 2127      7100
 2128              	.LASF9:
 2129 004d 6C6F6E67 		.ascii	"long long int\000"
 2129      206C6F6E 
 2129      6720696E 
 2129      7400
 2130              	.LASF0:
 2131 005b 7369676E 		.ascii	"signed char\000"
 2131      65642063 
 2131      68617200 
 2132              	.LASF60:
 2133 0067 62756666 		.ascii	"buff\000"
 2133      00
 2134              	.LASF77:
ARM GAS  C:\Users\Petro\AppData\Local\Temp\ccCq3ck9.s 			page 45


 2135 006c 52657365 		.ascii	"ResetPacket\000"
 2135      74506163 
 2135      6B657400 
 2136              	.LASF6:
 2137 0078 6C6F6E67 		.ascii	"long int\000"
 2137      20696E74 
 2137      00
 2138              	.LASF14:
 2139 0081 75696E74 		.ascii	"uint16_t\000"
 2139      31365F74 
 2139      00
 2140              	.LASF20:
 2141 008a 646F7562 		.ascii	"double\000"
 2141      6C6500
 2142              	.LASF67:
 2143 0091 4C656E44 		.ascii	"LenD1\000"
 2143      3100
 2144              	.LASF68:
 2145 0097 4C656E44 		.ascii	"LenD2\000"
 2145      3200
 2146              	.LASF69:
 2147 009d 4C656E44 		.ascii	"LenD3\000"
 2147      3300
 2148              	.LASF21:
 2149 00a3 436F6D6D 		.ascii	"Command\000"
 2149      616E6400 
 2150              	.LASF46:
 2151 00ab 494E565F 		.ascii	"INV_DA2\000"
 2151      44413200 
 2152              	.LASF50:
 2153 00b3 494E565F 		.ascii	"INV_DA3\000"
 2153      44413300 
 2154              	.LASF42:
 2155 00bb 4E4F5F46 		.ascii	"NO_FR1\000"
 2155      523100
 2156              	.LASF7:
 2157 00c2 5F5F7569 		.ascii	"__uint32_t\000"
 2157      6E743332 
 2157      5F7400
 2158              	.LASF47:
 2159 00cd 4E4F5F46 		.ascii	"NO_FR3\000"
 2159      523300
 2160              	.LASF57:
 2161 00d4 4465636F 		.ascii	"DecodeByte\000"
 2161      64654279 
 2161      746500
 2162              	.LASF63:
 2163 00df 5F637263 		.ascii	"_crc\000"
 2163      00
 2164              	.LASF53:
 2165 00e4 4552525F 		.ascii	"ERR_CODE\000"
 2165      434F4445 
 2165      00
 2166              	.LASF12:
 2167 00ed 756E7369 		.ascii	"unsigned int\000"
 2167      676E6564 
 2167      20696E74 
ARM GAS  C:\Users\Petro\AppData\Local\Temp\ccCq3ck9.s 			page 46


 2167      00
 2168              	.LASF55:
 2169 00fa 5F746D70 		.ascii	"_tmpdata\000"
 2169      64617461 
 2169      00
 2170              	.LASF8:
 2171 0103 6C6F6E67 		.ascii	"long unsigned int\000"
 2171      20756E73 
 2171      69676E65 
 2171      6420696E 
 2171      7400
 2172              	.LASF58:
 2173 0115 43686563 		.ascii	"CheckSymb\000"
 2173      6B53796D 
 2173      6200
 2174              	.LASF61:
 2175 011f 64617461 		.ascii	"data\000"
 2175      00
 2176              	.LASF5:
 2177 0124 73686F72 		.ascii	"short unsigned int\000"
 2177      7420756E 
 2177      7369676E 
 2177      65642069 
 2177      6E7400
 2178              	.LASF22:
 2179 0137 44617461 		.ascii	"Data1\000"
 2179      3100
 2180              	.LASF23:
 2181 013d 44617461 		.ascii	"Data2\000"
 2181      3200
 2182              	.LASF24:
 2183 0143 44617461 		.ascii	"Data3\000"
 2183      3300
 2184              	.LASF52:
 2185 0149 496E4279 		.ascii	"InByte\000"
 2185      746500
 2186              	.LASF38:
 2187 0150 50524F5F 		.ascii	"PRO_STATES\000"
 2187      53544154 
 2187      455300
 2188              	.LASF72:
 2189 015b 4C656E43 		.ascii	"LenC\000"
 2189      00
 2190              	.LASF59:
 2191 0160 5061636B 		.ascii	"PackData\000"
 2191      44617461 
 2191      00
 2192              	.LASF66:
 2193 0169 50524F54 		.ascii	"PROTO_STATE\000"
 2193      4F5F5354 
 2193      41544500 
 2194              	.LASF41:
 2195 0175 4241445F 		.ascii	"BAD_SEQ\000"
 2195      53455100 
 2196              	.LASF29:
 2197 017d 52454144 		.ascii	"READ_FR1\000"
 2197      5F465231 
ARM GAS  C:\Users\Petro\AppData\Local\Temp\ccCq3ck9.s 			page 47


 2197      00
 2198              	.LASF31:
 2199 0186 52454144 		.ascii	"READ_FR2\000"
 2199      5F465232 
 2199      00
 2200              	.LASF35:
 2201 018f 52454144 		.ascii	"READ_FR3\000"
 2201      5F465233 
 2201      00
 2202              	.LASF70:
 2203 0198 4C656E53 		.ascii	"LenSeq\000"
 2203      657100
 2204              	.LASF54:
 2205 019f 5F746D70 		.ascii	"_tmpcrc\000"
 2205      63726300 
 2206              	.LASF17:
 2207 01a7 73697A65 		.ascii	"sizetype\000"
 2207      74797065 
 2207      00
 2208              	.LASF40:
 2209 01b0 50415253 		.ascii	"PARSED_OK\000"
 2209      45445F4F 
 2209      4B00
 2210              	.LASF76:
 2211 01ba 52657370 		.ascii	"Resp\000"
 2211      00
 2212              	.LASF10:
 2213 01bf 5F5F7569 		.ascii	"__uint64_t\000"
 2213      6E743634 
 2213      5F7400
 2214              	.LASF19:
 2215 01ca 666C6F61 		.ascii	"float\000"
 2215      7400
 2216              	.LASF25:
 2217 01d0 43686563 		.ascii	"CheckSum\000"
 2217      6B53756D 
 2217      00
 2218              	.LASF32:
 2219 01d9 52454144 		.ascii	"READ_DA1\000"
 2219      5F444131 
 2219      00
 2220              	.LASF33:
 2221 01e2 52454144 		.ascii	"READ_DA2\000"
 2221      5F444132 
 2221      00
 2222              	.LASF34:
 2223 01eb 52454144 		.ascii	"READ_DA3\000"
 2223      5F444133 
 2223      00
 2224              	.LASF1:
 2225 01f4 756E7369 		.ascii	"unsigned char\000"
 2225      676E6564 
 2225      20636861 
 2225      7200
 2226              	.LASF65:
 2227 0202 737A4368 		.ascii	"szCheckSum\000"
 2227      65636B53 
ARM GAS  C:\Users\Petro\AppData\Local\Temp\ccCq3ck9.s 			page 48


 2227      756D00
 2228              	.LASF2:
 2229 020d 73686F72 		.ascii	"short int\000"
 2229      7420696E 
 2229      7400
 2230              	.LASF30:
 2231 0217 52454144 		.ascii	"READ_COM\000"
 2231      5F434F4D 
 2231      00
 2232              	.LASF39:
 2233 0220 50524F5F 		.ascii	"PRO_ERRORS\000"
 2233      4552524F 
 2233      525300
 2234              	.LASF74:
 2235 022b 2E5C6C69 		.ascii	".\\lib_Network\\svt.c\000"
 2235      625F4E65 
 2235      74776F72 
 2235      6B5C7376 
 2235      742E6300 
 2236              	.LASF71:
 2237 023f 4C656E43 		.ascii	"LenChS\000"
 2237      685300
 2238              	.LASF15:
 2239 0246 75696E74 		.ascii	"uint32_t\000"
 2239      33325F74 
 2239      00
 2240              	.LASF18:
 2241 024f 63686172 		.ascii	"char\000"
 2241      00
 2242              	.LASF4:
 2243 0254 5F5F7569 		.ascii	"__uint16_t\000"
 2243      6E743136 
 2243      5F7400
 2244              	.LASF49:
 2245 025f 4E4F5F45 		.ascii	"NO_ETX\000"
 2245      545800
 2246              	.LASF75:
 2247 0266 443A5C43 		.ascii	"D:\\Cypress\\system-start-finish\\vesion 2\\fw\\sta"
 2247      79707265 
 2247      73735C73 
 2247      79737465 
 2247      6D2D7374 
 2248 0294 72745C73 		.ascii	"rt\\sandbox\\v3\\Start(state machine)\\start_v0.cyd"
 2248      616E6462 
 2248      6F785C76 
 2248      335C5374 
 2248      61727428 
 2249 02c3 736E00   		.ascii	"sn\000"
 2250              	.LASF27:
 2251 02c6 57414954 		.ascii	"WAIT_STX\000"
 2251      5F535458 
 2251      00
 2252              	.LASF36:
 2253 02cf 52454144 		.ascii	"READ_CHS\000"
 2253      5F434853 
 2253      00
 2254              	.LASF28:
ARM GAS  C:\Users\Petro\AppData\Local\Temp\ccCq3ck9.s 			page 49


 2255 02d8 52454144 		.ascii	"READ_SQ\000"
 2255      5F535100 
 2256              	.LASF48:
 2257 02e0 494E565F 		.ascii	"INV_CKECKSUM\000"
 2257      434B4543 
 2257      4B53554D 
 2257      00
 2258              	.LASF62:
 2259 02ed 53657175 		.ascii	"Sequence\000"
 2259      656E6365 
 2259      00
 2260              	.LASF13:
 2261 02f6 75696E74 		.ascii	"uint8_t\000"
 2261      385F7400 
 2262              	.LASF51:
 2263 02fe 44617461 		.ascii	"Data\000"
 2263      00
 2264              	.LASF45:
 2265 0303 494E565F 		.ascii	"INV_DA1\000"
 2265      44413100 
 2266              	.LASF73:
 2267 030b 474E5520 		.ascii	"GNU C 4.9.3 20150303 (release) [ARM/embedded-4_9-br"
 2267      4320342E 
 2267      392E3320 
 2267      32303135 
 2267      30333033 
 2268 033e 616E6368 		.ascii	"anch revision 221220] -mcpu=cortex-m0 -mthumb -g -O"
 2268      20726576 
 2268      6973696F 
 2268      6E203232 
 2268      31323230 
 2269 0371 30202D66 		.ascii	"0 -ffunction-sections -ffat-lto-objects\000"
 2269      66756E63 
 2269      74696F6E 
 2269      2D736563 
 2269      74696F6E 
 2270              	.LASF44:
 2271 0399 4E4F5F46 		.ascii	"NO_FR2\000"
 2271      523200
 2272              	.LASF26:
 2273 03a0 456E6450 		.ascii	"EndPacket\000"
 2273      61636B65 
 2273      7400
 2274              		.ident	"GCC: (GNU Tools for ARM Embedded Processors) 4.9.3 20150303 (release) [ARM/embedded-4_9-br
