ARM GAS  C:\Users\Petro\AppData\Local\Temp\ccwZSVKu.s 			page 1


   1              		.cpu cortex-m0
   2              		.fpu softvfp
   3              		.eabi_attribute 20, 1
   4              		.eabi_attribute 21, 1
   5              		.eabi_attribute 23, 3
   6              		.eabi_attribute 24, 1
   7              		.eabi_attribute 25, 1
   8              		.eabi_attribute 26, 1
   9              		.eabi_attribute 30, 6
  10              		.eabi_attribute 34, 0
  11              		.eabi_attribute 18, 4
  12              		.code	16
  13              		.file	"UART_XB_UART.c"
  14              		.text
  15              	.Ltext0:
  16              		.cfi_sections	.debug_frame
  17              		.section	.text.UART_XB_UartInit,"ax",%progbits
  18              		.align	2
  19              		.global	UART_XB_UartInit
  20              		.code	16
  21              		.thumb_func
  22              		.type	UART_XB_UartInit, %function
  23              	UART_XB_UartInit:
  24              	.LFB2:
  25              		.file 1 ".\\Generated_Source\\PSoC4\\UART_XB_UART.c"
   1:.\Generated_Source\PSoC4/UART_XB_UART.c **** /***************************************************************************//**
   2:.\Generated_Source\PSoC4/UART_XB_UART.c **** * \file UART_XB_UART.c
   3:.\Generated_Source\PSoC4/UART_XB_UART.c **** * \version 3.20
   4:.\Generated_Source\PSoC4/UART_XB_UART.c **** *
   5:.\Generated_Source\PSoC4/UART_XB_UART.c **** * \brief
   6:.\Generated_Source\PSoC4/UART_XB_UART.c **** *  This file provides the source code to the API for the SCB Component in
   7:.\Generated_Source\PSoC4/UART_XB_UART.c **** *  UART mode.
   8:.\Generated_Source\PSoC4/UART_XB_UART.c **** *
   9:.\Generated_Source\PSoC4/UART_XB_UART.c **** * Note:
  10:.\Generated_Source\PSoC4/UART_XB_UART.c **** *
  11:.\Generated_Source\PSoC4/UART_XB_UART.c **** *******************************************************************************
  12:.\Generated_Source\PSoC4/UART_XB_UART.c **** * \copyright
  13:.\Generated_Source\PSoC4/UART_XB_UART.c **** * Copyright 2013-2016, Cypress Semiconductor Corporation.  All rights reserved.
  14:.\Generated_Source\PSoC4/UART_XB_UART.c **** * You may use this file only in accordance with the license, terms, conditions,
  15:.\Generated_Source\PSoC4/UART_XB_UART.c **** * disclaimers, and limitations in the end user license agreement accompanying
  16:.\Generated_Source\PSoC4/UART_XB_UART.c **** * the software package with which this file was provided.
  17:.\Generated_Source\PSoC4/UART_XB_UART.c **** *******************************************************************************/
  18:.\Generated_Source\PSoC4/UART_XB_UART.c **** 
  19:.\Generated_Source\PSoC4/UART_XB_UART.c **** #include "UART_XB_PVT.h"
  20:.\Generated_Source\PSoC4/UART_XB_UART.c **** #include "UART_XB_SPI_UART_PVT.h"
  21:.\Generated_Source\PSoC4/UART_XB_UART.c **** #include "cyapicallbacks.h"
  22:.\Generated_Source\PSoC4/UART_XB_UART.c **** 
  23:.\Generated_Source\PSoC4/UART_XB_UART.c **** #if (UART_XB_UART_WAKE_ENABLE_CONST && UART_XB_UART_RX_WAKEUP_IRQ)
  24:.\Generated_Source\PSoC4/UART_XB_UART.c ****     /**
  25:.\Generated_Source\PSoC4/UART_XB_UART.c ****     * \addtogroup group_globals
  26:.\Generated_Source\PSoC4/UART_XB_UART.c ****     * \{
  27:.\Generated_Source\PSoC4/UART_XB_UART.c ****     */
  28:.\Generated_Source\PSoC4/UART_XB_UART.c ****     /** This global variable determines whether to enable Skip Start
  29:.\Generated_Source\PSoC4/UART_XB_UART.c ****     * functionality when UART_XB_Sleep() function is called:
  30:.\Generated_Source\PSoC4/UART_XB_UART.c ****     * 0 – disable, other values – enable. Default value is 1.
  31:.\Generated_Source\PSoC4/UART_XB_UART.c ****     * It is only available when Enable wakeup from Deep Sleep Mode is enabled.
  32:.\Generated_Source\PSoC4/UART_XB_UART.c ****     */
ARM GAS  C:\Users\Petro\AppData\Local\Temp\ccwZSVKu.s 			page 2


  33:.\Generated_Source\PSoC4/UART_XB_UART.c ****     uint8 UART_XB_skipStart = 1u;
  34:.\Generated_Source\PSoC4/UART_XB_UART.c ****     /** \} globals */
  35:.\Generated_Source\PSoC4/UART_XB_UART.c **** #endif /* (UART_XB_UART_WAKE_ENABLE_CONST && UART_XB_UART_RX_WAKEUP_IRQ) */
  36:.\Generated_Source\PSoC4/UART_XB_UART.c **** 
  37:.\Generated_Source\PSoC4/UART_XB_UART.c **** #if(UART_XB_SCB_MODE_UNCONFIG_CONST_CFG)
  38:.\Generated_Source\PSoC4/UART_XB_UART.c **** 
  39:.\Generated_Source\PSoC4/UART_XB_UART.c ****     /***************************************
  40:.\Generated_Source\PSoC4/UART_XB_UART.c ****     *  Configuration Structure Initialization
  41:.\Generated_Source\PSoC4/UART_XB_UART.c ****     ***************************************/
  42:.\Generated_Source\PSoC4/UART_XB_UART.c **** 
  43:.\Generated_Source\PSoC4/UART_XB_UART.c ****     const UART_XB_UART_INIT_STRUCT UART_XB_configUart =
  44:.\Generated_Source\PSoC4/UART_XB_UART.c ****     {
  45:.\Generated_Source\PSoC4/UART_XB_UART.c ****         UART_XB_UART_SUB_MODE,
  46:.\Generated_Source\PSoC4/UART_XB_UART.c ****         UART_XB_UART_DIRECTION,
  47:.\Generated_Source\PSoC4/UART_XB_UART.c ****         UART_XB_UART_DATA_BITS_NUM,
  48:.\Generated_Source\PSoC4/UART_XB_UART.c ****         UART_XB_UART_PARITY_TYPE,
  49:.\Generated_Source\PSoC4/UART_XB_UART.c ****         UART_XB_UART_STOP_BITS_NUM,
  50:.\Generated_Source\PSoC4/UART_XB_UART.c ****         UART_XB_UART_OVS_FACTOR,
  51:.\Generated_Source\PSoC4/UART_XB_UART.c ****         UART_XB_UART_IRDA_LOW_POWER,
  52:.\Generated_Source\PSoC4/UART_XB_UART.c ****         UART_XB_UART_MEDIAN_FILTER_ENABLE,
  53:.\Generated_Source\PSoC4/UART_XB_UART.c ****         UART_XB_UART_RETRY_ON_NACK,
  54:.\Generated_Source\PSoC4/UART_XB_UART.c ****         UART_XB_UART_IRDA_POLARITY,
  55:.\Generated_Source\PSoC4/UART_XB_UART.c ****         UART_XB_UART_DROP_ON_PARITY_ERR,
  56:.\Generated_Source\PSoC4/UART_XB_UART.c ****         UART_XB_UART_DROP_ON_FRAME_ERR,
  57:.\Generated_Source\PSoC4/UART_XB_UART.c ****         UART_XB_UART_WAKE_ENABLE,
  58:.\Generated_Source\PSoC4/UART_XB_UART.c ****         0u,
  59:.\Generated_Source\PSoC4/UART_XB_UART.c ****         NULL,
  60:.\Generated_Source\PSoC4/UART_XB_UART.c ****         0u,
  61:.\Generated_Source\PSoC4/UART_XB_UART.c ****         NULL,
  62:.\Generated_Source\PSoC4/UART_XB_UART.c ****         UART_XB_UART_MP_MODE_ENABLE,
  63:.\Generated_Source\PSoC4/UART_XB_UART.c ****         UART_XB_UART_MP_ACCEPT_ADDRESS,
  64:.\Generated_Source\PSoC4/UART_XB_UART.c ****         UART_XB_UART_MP_RX_ADDRESS,
  65:.\Generated_Source\PSoC4/UART_XB_UART.c ****         UART_XB_UART_MP_RX_ADDRESS_MASK,
  66:.\Generated_Source\PSoC4/UART_XB_UART.c ****         (uint32) UART_XB_SCB_IRQ_INTERNAL,
  67:.\Generated_Source\PSoC4/UART_XB_UART.c ****         UART_XB_UART_INTR_RX_MASK,
  68:.\Generated_Source\PSoC4/UART_XB_UART.c ****         UART_XB_UART_RX_TRIGGER_LEVEL,
  69:.\Generated_Source\PSoC4/UART_XB_UART.c ****         UART_XB_UART_INTR_TX_MASK,
  70:.\Generated_Source\PSoC4/UART_XB_UART.c ****         UART_XB_UART_TX_TRIGGER_LEVEL,
  71:.\Generated_Source\PSoC4/UART_XB_UART.c ****         (uint8) UART_XB_UART_BYTE_MODE_ENABLE,
  72:.\Generated_Source\PSoC4/UART_XB_UART.c ****         (uint8) UART_XB_UART_CTS_ENABLE,
  73:.\Generated_Source\PSoC4/UART_XB_UART.c ****         (uint8) UART_XB_UART_CTS_POLARITY,
  74:.\Generated_Source\PSoC4/UART_XB_UART.c ****         (uint8) UART_XB_UART_RTS_POLARITY,
  75:.\Generated_Source\PSoC4/UART_XB_UART.c ****         (uint8) UART_XB_UART_RTS_FIFO_LEVEL
  76:.\Generated_Source\PSoC4/UART_XB_UART.c ****     };
  77:.\Generated_Source\PSoC4/UART_XB_UART.c **** 
  78:.\Generated_Source\PSoC4/UART_XB_UART.c **** 
  79:.\Generated_Source\PSoC4/UART_XB_UART.c ****     /*******************************************************************************
  80:.\Generated_Source\PSoC4/UART_XB_UART.c ****     * Function Name: UART_XB_UartInit
  81:.\Generated_Source\PSoC4/UART_XB_UART.c ****     ****************************************************************************//**
  82:.\Generated_Source\PSoC4/UART_XB_UART.c ****     *
  83:.\Generated_Source\PSoC4/UART_XB_UART.c ****     *  Configures the UART_XB for UART operation.
  84:.\Generated_Source\PSoC4/UART_XB_UART.c ****     *
  85:.\Generated_Source\PSoC4/UART_XB_UART.c ****     *  This function is intended specifically to be used when the UART_XB
  86:.\Generated_Source\PSoC4/UART_XB_UART.c ****     *  configuration is set to “Unconfigured UART_XB” in the customizer.
  87:.\Generated_Source\PSoC4/UART_XB_UART.c ****     *  After initializing the UART_XB in UART mode using this function,
  88:.\Generated_Source\PSoC4/UART_XB_UART.c ****     *  the component can be enabled using the UART_XB_Start() or
  89:.\Generated_Source\PSoC4/UART_XB_UART.c ****     * UART_XB_Enable() function.
ARM GAS  C:\Users\Petro\AppData\Local\Temp\ccwZSVKu.s 			page 3


  90:.\Generated_Source\PSoC4/UART_XB_UART.c ****     *  This function uses a pointer to a structure that provides the configuration
  91:.\Generated_Source\PSoC4/UART_XB_UART.c ****     *  settings. This structure contains the same information that would otherwise
  92:.\Generated_Source\PSoC4/UART_XB_UART.c ****     *  be provided by the customizer settings.
  93:.\Generated_Source\PSoC4/UART_XB_UART.c ****     *
  94:.\Generated_Source\PSoC4/UART_XB_UART.c ****     *  \param config: pointer to a structure that contains the following list of
  95:.\Generated_Source\PSoC4/UART_XB_UART.c ****     *   fields. These fields match the selections available in the customizer.
  96:.\Generated_Source\PSoC4/UART_XB_UART.c ****     *   Refer to the customizer for further description of the settings.
  97:.\Generated_Source\PSoC4/UART_XB_UART.c ****     *
  98:.\Generated_Source\PSoC4/UART_XB_UART.c ****     *******************************************************************************/
  99:.\Generated_Source\PSoC4/UART_XB_UART.c ****     void UART_XB_UartInit(const UART_XB_UART_INIT_STRUCT *config)
 100:.\Generated_Source\PSoC4/UART_XB_UART.c ****     {
 101:.\Generated_Source\PSoC4/UART_XB_UART.c ****         uint32 pinsConfig;
 102:.\Generated_Source\PSoC4/UART_XB_UART.c **** 
 103:.\Generated_Source\PSoC4/UART_XB_UART.c ****         if (NULL == config)
 104:.\Generated_Source\PSoC4/UART_XB_UART.c ****         {
 105:.\Generated_Source\PSoC4/UART_XB_UART.c ****             CYASSERT(0u != 0u); /* Halt execution due to bad function parameter */
 106:.\Generated_Source\PSoC4/UART_XB_UART.c ****         }
 107:.\Generated_Source\PSoC4/UART_XB_UART.c ****         else
 108:.\Generated_Source\PSoC4/UART_XB_UART.c ****         {
 109:.\Generated_Source\PSoC4/UART_XB_UART.c ****             /* Get direction to configure UART pins: TX, RX or TX+RX */
 110:.\Generated_Source\PSoC4/UART_XB_UART.c ****             pinsConfig  = config->direction;
 111:.\Generated_Source\PSoC4/UART_XB_UART.c **** 
 112:.\Generated_Source\PSoC4/UART_XB_UART.c ****         #if !(UART_XB_CY_SCBIP_V0 || UART_XB_CY_SCBIP_V1)
 113:.\Generated_Source\PSoC4/UART_XB_UART.c ****             /* Add RTS and CTS pins to configure */
 114:.\Generated_Source\PSoC4/UART_XB_UART.c ****             pinsConfig |= (0u != config->rtsRxFifoLevel) ? (UART_XB_UART_RTS_PIN_ENABLE) : (0u);
 115:.\Generated_Source\PSoC4/UART_XB_UART.c ****             pinsConfig |= (0u != config->enableCts)      ? (UART_XB_UART_CTS_PIN_ENABLE) : (0u);
 116:.\Generated_Source\PSoC4/UART_XB_UART.c ****         #endif /* !(UART_XB_CY_SCBIP_V0 || UART_XB_CY_SCBIP_V1) */
 117:.\Generated_Source\PSoC4/UART_XB_UART.c **** 
 118:.\Generated_Source\PSoC4/UART_XB_UART.c ****             /* Configure pins */
 119:.\Generated_Source\PSoC4/UART_XB_UART.c ****             UART_XB_SetPins(UART_XB_SCB_MODE_UART, config->mode, pinsConfig);
 120:.\Generated_Source\PSoC4/UART_XB_UART.c **** 
 121:.\Generated_Source\PSoC4/UART_XB_UART.c ****             /* Store internal configuration */
 122:.\Generated_Source\PSoC4/UART_XB_UART.c ****             UART_XB_scbMode       = (uint8) UART_XB_SCB_MODE_UART;
 123:.\Generated_Source\PSoC4/UART_XB_UART.c ****             UART_XB_scbEnableWake = (uint8) config->enableWake;
 124:.\Generated_Source\PSoC4/UART_XB_UART.c ****             UART_XB_scbEnableIntr = (uint8) config->enableInterrupt;
 125:.\Generated_Source\PSoC4/UART_XB_UART.c **** 
 126:.\Generated_Source\PSoC4/UART_XB_UART.c ****             /* Set RX direction internal variables */
 127:.\Generated_Source\PSoC4/UART_XB_UART.c ****             UART_XB_rxBuffer      =         config->rxBuffer;
 128:.\Generated_Source\PSoC4/UART_XB_UART.c ****             UART_XB_rxDataBits    = (uint8) config->dataBits;
 129:.\Generated_Source\PSoC4/UART_XB_UART.c ****             UART_XB_rxBufferSize  = (uint8) config->rxBufferSize;
 130:.\Generated_Source\PSoC4/UART_XB_UART.c **** 
 131:.\Generated_Source\PSoC4/UART_XB_UART.c ****             /* Set TX direction internal variables */
 132:.\Generated_Source\PSoC4/UART_XB_UART.c ****             UART_XB_txBuffer      =         config->txBuffer;
 133:.\Generated_Source\PSoC4/UART_XB_UART.c ****             UART_XB_txDataBits    = (uint8) config->dataBits;
 134:.\Generated_Source\PSoC4/UART_XB_UART.c ****             UART_XB_txBufferSize  = (uint8) config->txBufferSize;
 135:.\Generated_Source\PSoC4/UART_XB_UART.c **** 
 136:.\Generated_Source\PSoC4/UART_XB_UART.c ****             /* Configure UART interface */
 137:.\Generated_Source\PSoC4/UART_XB_UART.c ****             if(UART_XB_UART_MODE_IRDA == config->mode)
 138:.\Generated_Source\PSoC4/UART_XB_UART.c ****             {
 139:.\Generated_Source\PSoC4/UART_XB_UART.c ****                 /* OVS settings: IrDA */
 140:.\Generated_Source\PSoC4/UART_XB_UART.c ****                 UART_XB_CTRL_REG  = ((0u != config->enableIrdaLowPower) ?
 141:.\Generated_Source\PSoC4/UART_XB_UART.c ****                                                 (UART_XB_UART_GET_CTRL_OVS_IRDA_LP(config->oversamp
 142:.\Generated_Source\PSoC4/UART_XB_UART.c ****                                                 (UART_XB_CTRL_OVS_IRDA_OVS16));
 143:.\Generated_Source\PSoC4/UART_XB_UART.c ****             }
 144:.\Generated_Source\PSoC4/UART_XB_UART.c ****             else
 145:.\Generated_Source\PSoC4/UART_XB_UART.c ****             {
 146:.\Generated_Source\PSoC4/UART_XB_UART.c ****                 /* OVS settings: UART and SmartCard */
ARM GAS  C:\Users\Petro\AppData\Local\Temp\ccwZSVKu.s 			page 4


 147:.\Generated_Source\PSoC4/UART_XB_UART.c ****                 UART_XB_CTRL_REG  = UART_XB_GET_CTRL_OVS(config->oversample);
 148:.\Generated_Source\PSoC4/UART_XB_UART.c ****             }
 149:.\Generated_Source\PSoC4/UART_XB_UART.c **** 
 150:.\Generated_Source\PSoC4/UART_XB_UART.c ****             UART_XB_CTRL_REG     |= UART_XB_GET_CTRL_BYTE_MODE  (config->enableByteMode)      |
 151:.\Generated_Source\PSoC4/UART_XB_UART.c ****                                              UART_XB_GET_CTRL_ADDR_ACCEPT(config->multiprocAcceptAd
 152:.\Generated_Source\PSoC4/UART_XB_UART.c ****                                              UART_XB_CTRL_UART;
 153:.\Generated_Source\PSoC4/UART_XB_UART.c **** 
 154:.\Generated_Source\PSoC4/UART_XB_UART.c ****             /* Configure sub-mode: UART, SmartCard or IrDA */
 155:.\Generated_Source\PSoC4/UART_XB_UART.c ****             UART_XB_UART_CTRL_REG = UART_XB_GET_UART_CTRL_MODE(config->mode);
 156:.\Generated_Source\PSoC4/UART_XB_UART.c **** 
 157:.\Generated_Source\PSoC4/UART_XB_UART.c ****             /* Configure RX direction */
 158:.\Generated_Source\PSoC4/UART_XB_UART.c ****             UART_XB_UART_RX_CTRL_REG = UART_XB_GET_UART_RX_CTRL_MODE(config->stopBits)             
 159:.\Generated_Source\PSoC4/UART_XB_UART.c ****                                         UART_XB_GET_UART_RX_CTRL_POLARITY(config->enableInvertedRx)
 160:.\Generated_Source\PSoC4/UART_XB_UART.c ****                                         UART_XB_GET_UART_RX_CTRL_MP_MODE(config->enableMultiproc)  
 161:.\Generated_Source\PSoC4/UART_XB_UART.c ****                                         UART_XB_GET_UART_RX_CTRL_DROP_ON_PARITY_ERR(config->dropOnP
 162:.\Generated_Source\PSoC4/UART_XB_UART.c ****                                         UART_XB_GET_UART_RX_CTRL_DROP_ON_FRAME_ERR(config->dropOnFr
 163:.\Generated_Source\PSoC4/UART_XB_UART.c **** 
 164:.\Generated_Source\PSoC4/UART_XB_UART.c ****             if(UART_XB_UART_PARITY_NONE != config->parity)
 165:.\Generated_Source\PSoC4/UART_XB_UART.c ****             {
 166:.\Generated_Source\PSoC4/UART_XB_UART.c ****                UART_XB_UART_RX_CTRL_REG |= UART_XB_GET_UART_RX_CTRL_PARITY(config->parity) |
 167:.\Generated_Source\PSoC4/UART_XB_UART.c ****                                                     UART_XB_UART_RX_CTRL_PARITY_ENABLED;
 168:.\Generated_Source\PSoC4/UART_XB_UART.c ****             }
 169:.\Generated_Source\PSoC4/UART_XB_UART.c **** 
 170:.\Generated_Source\PSoC4/UART_XB_UART.c ****             UART_XB_RX_CTRL_REG      = UART_XB_GET_RX_CTRL_DATA_WIDTH(config->dataBits)       |
 171:.\Generated_Source\PSoC4/UART_XB_UART.c ****                                                 UART_XB_GET_RX_CTRL_MEDIAN(config->enableMedianFilt
 172:.\Generated_Source\PSoC4/UART_XB_UART.c ****                                                 UART_XB_GET_UART_RX_CTRL_ENABLED(config->direction)
 173:.\Generated_Source\PSoC4/UART_XB_UART.c **** 
 174:.\Generated_Source\PSoC4/UART_XB_UART.c ****             UART_XB_RX_FIFO_CTRL_REG = UART_XB_GET_RX_FIFO_CTRL_TRIGGER_LEVEL(config->rxTriggerLeve
 175:.\Generated_Source\PSoC4/UART_XB_UART.c **** 
 176:.\Generated_Source\PSoC4/UART_XB_UART.c ****             /* Configure MP address */
 177:.\Generated_Source\PSoC4/UART_XB_UART.c ****             UART_XB_RX_MATCH_REG     = UART_XB_GET_RX_MATCH_ADDR(config->multiprocAddr) |
 178:.\Generated_Source\PSoC4/UART_XB_UART.c ****                                                 UART_XB_GET_RX_MATCH_MASK(config->multiprocAddrMask
 179:.\Generated_Source\PSoC4/UART_XB_UART.c **** 
 180:.\Generated_Source\PSoC4/UART_XB_UART.c ****             /* Configure RX direction */
 181:.\Generated_Source\PSoC4/UART_XB_UART.c ****             UART_XB_UART_TX_CTRL_REG = UART_XB_GET_UART_TX_CTRL_MODE(config->stopBits) |
 182:.\Generated_Source\PSoC4/UART_XB_UART.c ****                                                 UART_XB_GET_UART_TX_CTRL_RETRY_NACK(config->enableR
 183:.\Generated_Source\PSoC4/UART_XB_UART.c **** 
 184:.\Generated_Source\PSoC4/UART_XB_UART.c ****             if(UART_XB_UART_PARITY_NONE != config->parity)
 185:.\Generated_Source\PSoC4/UART_XB_UART.c ****             {
 186:.\Generated_Source\PSoC4/UART_XB_UART.c ****                UART_XB_UART_TX_CTRL_REG |= UART_XB_GET_UART_TX_CTRL_PARITY(config->parity) |
 187:.\Generated_Source\PSoC4/UART_XB_UART.c ****                                                     UART_XB_UART_TX_CTRL_PARITY_ENABLED;
 188:.\Generated_Source\PSoC4/UART_XB_UART.c ****             }
 189:.\Generated_Source\PSoC4/UART_XB_UART.c **** 
 190:.\Generated_Source\PSoC4/UART_XB_UART.c ****             UART_XB_TX_CTRL_REG      = UART_XB_GET_TX_CTRL_DATA_WIDTH(config->dataBits)    |
 191:.\Generated_Source\PSoC4/UART_XB_UART.c ****                                                 UART_XB_GET_UART_TX_CTRL_ENABLED(config->direction)
 192:.\Generated_Source\PSoC4/UART_XB_UART.c **** 
 193:.\Generated_Source\PSoC4/UART_XB_UART.c ****             UART_XB_TX_FIFO_CTRL_REG = UART_XB_GET_TX_FIFO_CTRL_TRIGGER_LEVEL(config->txTriggerLeve
 194:.\Generated_Source\PSoC4/UART_XB_UART.c **** 
 195:.\Generated_Source\PSoC4/UART_XB_UART.c ****         #if !(UART_XB_CY_SCBIP_V0 || UART_XB_CY_SCBIP_V1)
 196:.\Generated_Source\PSoC4/UART_XB_UART.c ****             UART_XB_UART_FLOW_CTRL_REG = UART_XB_GET_UART_FLOW_CTRL_CTS_ENABLE(config->enableCts) |
 197:.\Generated_Source\PSoC4/UART_XB_UART.c ****                                             UART_XB_GET_UART_FLOW_CTRL_CTS_POLARITY (config->ctsPol
 198:.\Generated_Source\PSoC4/UART_XB_UART.c ****                                             UART_XB_GET_UART_FLOW_CTRL_RTS_POLARITY (config->rtsPol
 199:.\Generated_Source\PSoC4/UART_XB_UART.c ****                                             UART_XB_GET_UART_FLOW_CTRL_TRIGGER_LEVEL(config->rtsRxF
 200:.\Generated_Source\PSoC4/UART_XB_UART.c ****         #endif /* !(UART_XB_CY_SCBIP_V0 || UART_XB_CY_SCBIP_V1) */
 201:.\Generated_Source\PSoC4/UART_XB_UART.c **** 
 202:.\Generated_Source\PSoC4/UART_XB_UART.c ****             /* Configure interrupt with UART handler but do not enable it */
 203:.\Generated_Source\PSoC4/UART_XB_UART.c ****             CyIntDisable    (UART_XB_ISR_NUMBER);
ARM GAS  C:\Users\Petro\AppData\Local\Temp\ccwZSVKu.s 			page 5


 204:.\Generated_Source\PSoC4/UART_XB_UART.c ****             CyIntSetPriority(UART_XB_ISR_NUMBER, UART_XB_ISR_PRIORITY);
 205:.\Generated_Source\PSoC4/UART_XB_UART.c ****             (void) CyIntSetVector(UART_XB_ISR_NUMBER, &UART_XB_SPI_UART_ISR);
 206:.\Generated_Source\PSoC4/UART_XB_UART.c **** 
 207:.\Generated_Source\PSoC4/UART_XB_UART.c ****             /* Configure WAKE interrupt */
 208:.\Generated_Source\PSoC4/UART_XB_UART.c ****         #if(UART_XB_UART_RX_WAKEUP_IRQ)
 209:.\Generated_Source\PSoC4/UART_XB_UART.c ****             CyIntDisable    (UART_XB_RX_WAKE_ISR_NUMBER);
 210:.\Generated_Source\PSoC4/UART_XB_UART.c ****             CyIntSetPriority(UART_XB_RX_WAKE_ISR_NUMBER, UART_XB_RX_WAKE_ISR_PRIORITY);
 211:.\Generated_Source\PSoC4/UART_XB_UART.c ****             (void) CyIntSetVector(UART_XB_RX_WAKE_ISR_NUMBER, &UART_XB_UART_WAKEUP_ISR);
 212:.\Generated_Source\PSoC4/UART_XB_UART.c ****         #endif /* (UART_XB_UART_RX_WAKEUP_IRQ) */
 213:.\Generated_Source\PSoC4/UART_XB_UART.c **** 
 214:.\Generated_Source\PSoC4/UART_XB_UART.c ****             /* Configure interrupt sources */
 215:.\Generated_Source\PSoC4/UART_XB_UART.c ****             UART_XB_INTR_I2C_EC_MASK_REG = UART_XB_NO_INTR_SOURCES;
 216:.\Generated_Source\PSoC4/UART_XB_UART.c ****             UART_XB_INTR_SPI_EC_MASK_REG = UART_XB_NO_INTR_SOURCES;
 217:.\Generated_Source\PSoC4/UART_XB_UART.c ****             UART_XB_INTR_SLAVE_MASK_REG  = UART_XB_NO_INTR_SOURCES;
 218:.\Generated_Source\PSoC4/UART_XB_UART.c ****             UART_XB_INTR_MASTER_MASK_REG = UART_XB_NO_INTR_SOURCES;
 219:.\Generated_Source\PSoC4/UART_XB_UART.c ****             UART_XB_INTR_RX_MASK_REG     = config->rxInterruptMask;
 220:.\Generated_Source\PSoC4/UART_XB_UART.c ****             UART_XB_INTR_TX_MASK_REG     = config->txInterruptMask;
 221:.\Generated_Source\PSoC4/UART_XB_UART.c ****         
 222:.\Generated_Source\PSoC4/UART_XB_UART.c ****             /* Configure TX interrupt sources to restore. */
 223:.\Generated_Source\PSoC4/UART_XB_UART.c ****             UART_XB_IntrTxMask = LO16(UART_XB_INTR_TX_MASK_REG);
 224:.\Generated_Source\PSoC4/UART_XB_UART.c **** 
 225:.\Generated_Source\PSoC4/UART_XB_UART.c ****             /* Clear RX buffer indexes */
 226:.\Generated_Source\PSoC4/UART_XB_UART.c ****             UART_XB_rxBufferHead     = 0u;
 227:.\Generated_Source\PSoC4/UART_XB_UART.c ****             UART_XB_rxBufferTail     = 0u;
 228:.\Generated_Source\PSoC4/UART_XB_UART.c ****             UART_XB_rxBufferOverflow = 0u;
 229:.\Generated_Source\PSoC4/UART_XB_UART.c **** 
 230:.\Generated_Source\PSoC4/UART_XB_UART.c ****             /* Clear TX buffer indexes */
 231:.\Generated_Source\PSoC4/UART_XB_UART.c ****             UART_XB_txBufferHead = 0u;
 232:.\Generated_Source\PSoC4/UART_XB_UART.c ****             UART_XB_txBufferTail = 0u;
 233:.\Generated_Source\PSoC4/UART_XB_UART.c ****         }
 234:.\Generated_Source\PSoC4/UART_XB_UART.c ****     }
 235:.\Generated_Source\PSoC4/UART_XB_UART.c **** 
 236:.\Generated_Source\PSoC4/UART_XB_UART.c **** #else
 237:.\Generated_Source\PSoC4/UART_XB_UART.c **** 
 238:.\Generated_Source\PSoC4/UART_XB_UART.c ****     /*******************************************************************************
 239:.\Generated_Source\PSoC4/UART_XB_UART.c ****     * Function Name: UART_XB_UartInit
 240:.\Generated_Source\PSoC4/UART_XB_UART.c ****     ****************************************************************************//**
 241:.\Generated_Source\PSoC4/UART_XB_UART.c ****     *
 242:.\Generated_Source\PSoC4/UART_XB_UART.c ****     *  Configures the SCB for the UART operation.
 243:.\Generated_Source\PSoC4/UART_XB_UART.c ****     *
 244:.\Generated_Source\PSoC4/UART_XB_UART.c ****     *******************************************************************************/
 245:.\Generated_Source\PSoC4/UART_XB_UART.c ****     void UART_XB_UartInit(void)
 246:.\Generated_Source\PSoC4/UART_XB_UART.c ****     {
  26              		.loc 1 246 0
  27              		.cfi_startproc
  28 0000 80B5     		push	{r7, lr}
  29              		.cfi_def_cfa_offset 8
  30              		.cfi_offset 7, -8
  31              		.cfi_offset 14, -4
  32 0002 00AF     		add	r7, sp, #0
  33              		.cfi_def_cfa_register 7
 247:.\Generated_Source\PSoC4/UART_XB_UART.c ****         /* Configure UART interface */
 248:.\Generated_Source\PSoC4/UART_XB_UART.c ****         UART_XB_CTRL_REG = UART_XB_UART_DEFAULT_CTRL;
  34              		.loc 1 248 0
  35 0004 284B     		ldr	r3, .L2
  36 0006 294A     		ldr	r2, .L2+4
  37 0008 1A60     		str	r2, [r3]
ARM GAS  C:\Users\Petro\AppData\Local\Temp\ccwZSVKu.s 			page 6


 249:.\Generated_Source\PSoC4/UART_XB_UART.c **** 
 250:.\Generated_Source\PSoC4/UART_XB_UART.c ****         /* Configure sub-mode: UART, SmartCard or IrDA */
 251:.\Generated_Source\PSoC4/UART_XB_UART.c ****         UART_XB_UART_CTRL_REG = UART_XB_UART_DEFAULT_UART_CTRL;
  38              		.loc 1 251 0
  39 000a 294B     		ldr	r3, .L2+8
  40 000c 0022     		mov	r2, #0
  41 000e 1A60     		str	r2, [r3]
 252:.\Generated_Source\PSoC4/UART_XB_UART.c **** 
 253:.\Generated_Source\PSoC4/UART_XB_UART.c ****         /* Configure RX direction */
 254:.\Generated_Source\PSoC4/UART_XB_UART.c ****         UART_XB_UART_RX_CTRL_REG = UART_XB_UART_DEFAULT_UART_RX_CTRL;
  42              		.loc 1 254 0
  43 0010 284B     		ldr	r3, .L2+12
  44 0012 0122     		mov	r2, #1
  45 0014 1A60     		str	r2, [r3]
 255:.\Generated_Source\PSoC4/UART_XB_UART.c ****         UART_XB_RX_CTRL_REG      = UART_XB_UART_DEFAULT_RX_CTRL;
  46              		.loc 1 255 0
  47 0016 284B     		ldr	r3, .L2+16
  48 0018 284A     		ldr	r2, .L2+20
  49 001a 1A60     		str	r2, [r3]
 256:.\Generated_Source\PSoC4/UART_XB_UART.c ****         UART_XB_RX_FIFO_CTRL_REG = UART_XB_UART_DEFAULT_RX_FIFO_CTRL;
  50              		.loc 1 256 0
  51 001c 284B     		ldr	r3, .L2+24
  52 001e 0722     		mov	r2, #7
  53 0020 1A60     		str	r2, [r3]
 257:.\Generated_Source\PSoC4/UART_XB_UART.c ****         UART_XB_RX_MATCH_REG     = UART_XB_UART_DEFAULT_RX_MATCH_REG;
  54              		.loc 1 257 0
  55 0022 284B     		ldr	r3, .L2+28
  56 0024 0022     		mov	r2, #0
  57 0026 1A60     		str	r2, [r3]
 258:.\Generated_Source\PSoC4/UART_XB_UART.c **** 
 259:.\Generated_Source\PSoC4/UART_XB_UART.c ****         /* Configure TX direction */
 260:.\Generated_Source\PSoC4/UART_XB_UART.c ****         UART_XB_UART_TX_CTRL_REG = UART_XB_UART_DEFAULT_UART_TX_CTRL;
  58              		.loc 1 260 0
  59 0028 274B     		ldr	r3, .L2+32
  60 002a 0122     		mov	r2, #1
  61 002c 1A60     		str	r2, [r3]
 261:.\Generated_Source\PSoC4/UART_XB_UART.c ****         UART_XB_TX_CTRL_REG      = UART_XB_UART_DEFAULT_TX_CTRL;
  62              		.loc 1 261 0
  63 002e 274B     		ldr	r3, .L2+36
  64 0030 224A     		ldr	r2, .L2+20
  65 0032 1A60     		str	r2, [r3]
 262:.\Generated_Source\PSoC4/UART_XB_UART.c ****         UART_XB_TX_FIFO_CTRL_REG = UART_XB_UART_DEFAULT_TX_FIFO_CTRL;
  66              		.loc 1 262 0
  67 0034 264B     		ldr	r3, .L2+40
  68 0036 0022     		mov	r2, #0
  69 0038 1A60     		str	r2, [r3]
 263:.\Generated_Source\PSoC4/UART_XB_UART.c **** 
 264:.\Generated_Source\PSoC4/UART_XB_UART.c ****     #if !(UART_XB_CY_SCBIP_V0 || UART_XB_CY_SCBIP_V1)
 265:.\Generated_Source\PSoC4/UART_XB_UART.c ****         UART_XB_UART_FLOW_CTRL_REG = UART_XB_UART_DEFAULT_FLOW_CTRL;
  70              		.loc 1 265 0
  71 003a 264B     		ldr	r3, .L2+44
  72 003c 0422     		mov	r2, #4
  73 003e 1A60     		str	r2, [r3]
 266:.\Generated_Source\PSoC4/UART_XB_UART.c ****     #endif /* !(UART_XB_CY_SCBIP_V0 || UART_XB_CY_SCBIP_V1) */
 267:.\Generated_Source\PSoC4/UART_XB_UART.c **** 
 268:.\Generated_Source\PSoC4/UART_XB_UART.c ****         /* Configure interrupt with UART handler but do not enable it */
 269:.\Generated_Source\PSoC4/UART_XB_UART.c ****     #if(UART_XB_SCB_IRQ_INTERNAL)
ARM GAS  C:\Users\Petro\AppData\Local\Temp\ccwZSVKu.s 			page 7


 270:.\Generated_Source\PSoC4/UART_XB_UART.c ****         CyIntDisable    (UART_XB_ISR_NUMBER);
  74              		.loc 1 270 0
  75 0040 0A20     		mov	r0, #10
  76 0042 FFF7FEFF 		bl	CyIntDisable
 271:.\Generated_Source\PSoC4/UART_XB_UART.c ****         CyIntSetPriority(UART_XB_ISR_NUMBER, UART_XB_ISR_PRIORITY);
  77              		.loc 1 271 0
  78 0046 0A20     		mov	r0, #10
  79 0048 0321     		mov	r1, #3
  80 004a FFF7FEFF 		bl	CyIntSetPriority
 272:.\Generated_Source\PSoC4/UART_XB_UART.c ****         (void) CyIntSetVector(UART_XB_ISR_NUMBER, &UART_XB_SPI_UART_ISR);
  81              		.loc 1 272 0
  82 004e 224B     		ldr	r3, .L2+48
  83 0050 0A20     		mov	r0, #10
  84 0052 191C     		mov	r1, r3
  85 0054 FFF7FEFF 		bl	CyIntSetVector
 273:.\Generated_Source\PSoC4/UART_XB_UART.c ****     #endif /* (UART_XB_SCB_IRQ_INTERNAL) */
 274:.\Generated_Source\PSoC4/UART_XB_UART.c **** 
 275:.\Generated_Source\PSoC4/UART_XB_UART.c ****         /* Configure WAKE interrupt */
 276:.\Generated_Source\PSoC4/UART_XB_UART.c ****     #if(UART_XB_UART_RX_WAKEUP_IRQ)
 277:.\Generated_Source\PSoC4/UART_XB_UART.c ****         CyIntDisable    (UART_XB_RX_WAKE_ISR_NUMBER);
 278:.\Generated_Source\PSoC4/UART_XB_UART.c ****         CyIntSetPriority(UART_XB_RX_WAKE_ISR_NUMBER, UART_XB_RX_WAKE_ISR_PRIORITY);
 279:.\Generated_Source\PSoC4/UART_XB_UART.c ****         (void) CyIntSetVector(UART_XB_RX_WAKE_ISR_NUMBER, &UART_XB_UART_WAKEUP_ISR);
 280:.\Generated_Source\PSoC4/UART_XB_UART.c ****     #endif /* (UART_XB_UART_RX_WAKEUP_IRQ) */
 281:.\Generated_Source\PSoC4/UART_XB_UART.c **** 
 282:.\Generated_Source\PSoC4/UART_XB_UART.c ****         /* Configure interrupt sources */
 283:.\Generated_Source\PSoC4/UART_XB_UART.c ****         UART_XB_INTR_I2C_EC_MASK_REG = UART_XB_UART_DEFAULT_INTR_I2C_EC_MASK;
  86              		.loc 1 283 0
  87 0058 204B     		ldr	r3, .L2+52
  88 005a 0022     		mov	r2, #0
  89 005c 1A60     		str	r2, [r3]
 284:.\Generated_Source\PSoC4/UART_XB_UART.c ****         UART_XB_INTR_SPI_EC_MASK_REG = UART_XB_UART_DEFAULT_INTR_SPI_EC_MASK;
  90              		.loc 1 284 0
  91 005e 204B     		ldr	r3, .L2+56
  92 0060 0022     		mov	r2, #0
  93 0062 1A60     		str	r2, [r3]
 285:.\Generated_Source\PSoC4/UART_XB_UART.c ****         UART_XB_INTR_SLAVE_MASK_REG  = UART_XB_UART_DEFAULT_INTR_SLAVE_MASK;
  94              		.loc 1 285 0
  95 0064 1F4B     		ldr	r3, .L2+60
  96 0066 0022     		mov	r2, #0
  97 0068 1A60     		str	r2, [r3]
 286:.\Generated_Source\PSoC4/UART_XB_UART.c ****         UART_XB_INTR_MASTER_MASK_REG = UART_XB_UART_DEFAULT_INTR_MASTER_MASK;
  98              		.loc 1 286 0
  99 006a 1F4B     		ldr	r3, .L2+64
 100 006c 0022     		mov	r2, #0
 101 006e 1A60     		str	r2, [r3]
 287:.\Generated_Source\PSoC4/UART_XB_UART.c ****         UART_XB_INTR_RX_MASK_REG     = UART_XB_UART_DEFAULT_INTR_RX_MASK;
 102              		.loc 1 287 0
 103 0070 1E4B     		ldr	r3, .L2+68
 104 0072 0422     		mov	r2, #4
 105 0074 1A60     		str	r2, [r3]
 288:.\Generated_Source\PSoC4/UART_XB_UART.c ****         UART_XB_INTR_TX_MASK_REG     = UART_XB_UART_DEFAULT_INTR_TX_MASK;
 106              		.loc 1 288 0
 107 0076 1E4B     		ldr	r3, .L2+72
 108 0078 0022     		mov	r2, #0
 109 007a 1A60     		str	r2, [r3]
 289:.\Generated_Source\PSoC4/UART_XB_UART.c ****     
 290:.\Generated_Source\PSoC4/UART_XB_UART.c ****         /* Configure TX interrupt sources to restore. */
ARM GAS  C:\Users\Petro\AppData\Local\Temp\ccwZSVKu.s 			page 8


 291:.\Generated_Source\PSoC4/UART_XB_UART.c ****         UART_XB_IntrTxMask = LO16(UART_XB_INTR_TX_MASK_REG);
 110              		.loc 1 291 0
 111 007c 1C4B     		ldr	r3, .L2+72
 112 007e 1B68     		ldr	r3, [r3]
 113 0080 9AB2     		uxth	r2, r3
 114 0082 1C4B     		ldr	r3, .L2+76
 115 0084 1A80     		strh	r2, [r3]
 292:.\Generated_Source\PSoC4/UART_XB_UART.c **** 
 293:.\Generated_Source\PSoC4/UART_XB_UART.c ****     #if(UART_XB_INTERNAL_RX_SW_BUFFER_CONST)
 294:.\Generated_Source\PSoC4/UART_XB_UART.c ****         UART_XB_rxBufferHead     = 0u;
 116              		.loc 1 294 0
 117 0086 1C4B     		ldr	r3, .L2+80
 118 0088 0022     		mov	r2, #0
 119 008a 1A60     		str	r2, [r3]
 295:.\Generated_Source\PSoC4/UART_XB_UART.c ****         UART_XB_rxBufferTail     = 0u;
 120              		.loc 1 295 0
 121 008c 1B4B     		ldr	r3, .L2+84
 122 008e 0022     		mov	r2, #0
 123 0090 1A60     		str	r2, [r3]
 296:.\Generated_Source\PSoC4/UART_XB_UART.c ****         UART_XB_rxBufferOverflow = 0u;
 124              		.loc 1 296 0
 125 0092 1B4B     		ldr	r3, .L2+88
 126 0094 0022     		mov	r2, #0
 127 0096 1A70     		strb	r2, [r3]
 297:.\Generated_Source\PSoC4/UART_XB_UART.c ****     #endif /* (UART_XB_INTERNAL_RX_SW_BUFFER_CONST) */
 298:.\Generated_Source\PSoC4/UART_XB_UART.c **** 
 299:.\Generated_Source\PSoC4/UART_XB_UART.c ****     #if(UART_XB_INTERNAL_TX_SW_BUFFER_CONST)
 300:.\Generated_Source\PSoC4/UART_XB_UART.c ****         UART_XB_txBufferHead = 0u;
 128              		.loc 1 300 0
 129 0098 1A4B     		ldr	r3, .L2+92
 130 009a 0022     		mov	r2, #0
 131 009c 1A60     		str	r2, [r3]
 301:.\Generated_Source\PSoC4/UART_XB_UART.c ****         UART_XB_txBufferTail = 0u;
 132              		.loc 1 301 0
 133 009e 1A4B     		ldr	r3, .L2+96
 134 00a0 0022     		mov	r2, #0
 135 00a2 1A60     		str	r2, [r3]
 302:.\Generated_Source\PSoC4/UART_XB_UART.c ****     #endif /* (UART_XB_INTERNAL_TX_SW_BUFFER_CONST) */
 303:.\Generated_Source\PSoC4/UART_XB_UART.c ****     }
 136              		.loc 1 303 0
 137 00a4 BD46     		mov	sp, r7
 138              		@ sp needed
 139 00a6 80BD     		pop	{r7, pc}
 140              	.L3:
 141              		.align	2
 142              	.L2:
 143 00a8 00002540 		.word	1076166656
 144 00ac 0B080002 		.word	33556491
 145 00b0 40002540 		.word	1076166720
 146 00b4 48002540 		.word	1076166728
 147 00b8 00032540 		.word	1076167424
 148 00bc 07000080 		.word	-2147483641
 149 00c0 04032540 		.word	1076167428
 150 00c4 10032540 		.word	1076167440
 151 00c8 44002540 		.word	1076166724
 152 00cc 00022540 		.word	1076167168
 153 00d0 04022540 		.word	1076167172
ARM GAS  C:\Users\Petro\AppData\Local\Temp\ccwZSVKu.s 			page 9


 154 00d4 50002540 		.word	1076166736
 155 00d8 00000000 		.word	UART_XB_SPI_UART_ISR
 156 00dc 880E2540 		.word	1076170376
 157 00e0 C80E2540 		.word	1076170440
 158 00e4 480F2540 		.word	1076170568
 159 00e8 080F2540 		.word	1076170504
 160 00ec C80F2540 		.word	1076170696
 161 00f0 880F2540 		.word	1076170632
 162 00f4 00000000 		.word	UART_XB_IntrTxMask
 163 00f8 00000000 		.word	UART_XB_rxBufferHead
 164 00fc 00000000 		.word	UART_XB_rxBufferTail
 165 0100 00000000 		.word	UART_XB_rxBufferOverflow
 166 0104 00000000 		.word	UART_XB_txBufferHead
 167 0108 00000000 		.word	UART_XB_txBufferTail
 168              		.cfi_endproc
 169              	.LFE2:
 170              		.size	UART_XB_UartInit, .-UART_XB_UartInit
 171              		.section	.text.UART_XB_UartPostEnable,"ax",%progbits
 172              		.align	2
 173              		.global	UART_XB_UartPostEnable
 174              		.code	16
 175              		.thumb_func
 176              		.type	UART_XB_UartPostEnable, %function
 177              	UART_XB_UartPostEnable:
 178              	.LFB3:
 304:.\Generated_Source\PSoC4/UART_XB_UART.c **** #endif /* (UART_XB_SCB_MODE_UNCONFIG_CONST_CFG) */
 305:.\Generated_Source\PSoC4/UART_XB_UART.c **** 
 306:.\Generated_Source\PSoC4/UART_XB_UART.c **** 
 307:.\Generated_Source\PSoC4/UART_XB_UART.c **** /*******************************************************************************
 308:.\Generated_Source\PSoC4/UART_XB_UART.c **** * Function Name: UART_XB_UartPostEnable
 309:.\Generated_Source\PSoC4/UART_XB_UART.c **** ****************************************************************************//**
 310:.\Generated_Source\PSoC4/UART_XB_UART.c **** *
 311:.\Generated_Source\PSoC4/UART_XB_UART.c **** *  Restores HSIOM settings for the UART output pins (TX and/or RTS) to be
 312:.\Generated_Source\PSoC4/UART_XB_UART.c **** *  controlled by the SCB UART.
 313:.\Generated_Source\PSoC4/UART_XB_UART.c **** *
 314:.\Generated_Source\PSoC4/UART_XB_UART.c **** *******************************************************************************/
 315:.\Generated_Source\PSoC4/UART_XB_UART.c **** void UART_XB_UartPostEnable(void)
 316:.\Generated_Source\PSoC4/UART_XB_UART.c **** {
 179              		.loc 1 316 0
 180              		.cfi_startproc
 181 0000 80B5     		push	{r7, lr}
 182              		.cfi_def_cfa_offset 8
 183              		.cfi_offset 7, -8
 184              		.cfi_offset 14, -4
 185 0002 00AF     		add	r7, sp, #0
 186              		.cfi_def_cfa_register 7
 317:.\Generated_Source\PSoC4/UART_XB_UART.c **** #if (UART_XB_SCB_MODE_UNCONFIG_CONST_CFG)
 318:.\Generated_Source\PSoC4/UART_XB_UART.c ****     #if (UART_XB_TX_SCL_MISO_PIN)
 319:.\Generated_Source\PSoC4/UART_XB_UART.c ****         if (UART_XB_CHECK_TX_SCL_MISO_PIN_USED)
 320:.\Generated_Source\PSoC4/UART_XB_UART.c ****         {
 321:.\Generated_Source\PSoC4/UART_XB_UART.c ****             /* Set SCB UART to drive the output pin */
 322:.\Generated_Source\PSoC4/UART_XB_UART.c ****             UART_XB_SET_HSIOM_SEL(UART_XB_TX_SCL_MISO_HSIOM_REG, UART_XB_TX_SCL_MISO_HSIOM_MASK,
 323:.\Generated_Source\PSoC4/UART_XB_UART.c ****                                            UART_XB_TX_SCL_MISO_HSIOM_POS, UART_XB_TX_SCL_MISO_HSIOM
 324:.\Generated_Source\PSoC4/UART_XB_UART.c ****         }
 325:.\Generated_Source\PSoC4/UART_XB_UART.c ****     #endif /* (UART_XB_TX_SCL_MISO_PIN_PIN) */
 326:.\Generated_Source\PSoC4/UART_XB_UART.c **** 
 327:.\Generated_Source\PSoC4/UART_XB_UART.c ****     #if !(UART_XB_CY_SCBIP_V0 || UART_XB_CY_SCBIP_V1)
ARM GAS  C:\Users\Petro\AppData\Local\Temp\ccwZSVKu.s 			page 10


 328:.\Generated_Source\PSoC4/UART_XB_UART.c ****         #if (UART_XB_RTS_SS0_PIN)
 329:.\Generated_Source\PSoC4/UART_XB_UART.c ****             if (UART_XB_CHECK_RTS_SS0_PIN_USED)
 330:.\Generated_Source\PSoC4/UART_XB_UART.c ****             {
 331:.\Generated_Source\PSoC4/UART_XB_UART.c ****                 /* Set SCB UART to drive the output pin */
 332:.\Generated_Source\PSoC4/UART_XB_UART.c ****                 UART_XB_SET_HSIOM_SEL(UART_XB_RTS_SS0_HSIOM_REG, UART_XB_RTS_SS0_HSIOM_MASK,
 333:.\Generated_Source\PSoC4/UART_XB_UART.c ****                                                UART_XB_RTS_SS0_HSIOM_POS, UART_XB_RTS_SS0_HSIOM_SEL
 334:.\Generated_Source\PSoC4/UART_XB_UART.c ****             }
 335:.\Generated_Source\PSoC4/UART_XB_UART.c ****         #endif /* (UART_XB_RTS_SS0_PIN) */
 336:.\Generated_Source\PSoC4/UART_XB_UART.c ****     #endif /* !(UART_XB_CY_SCBIP_V0 || UART_XB_CY_SCBIP_V1) */
 337:.\Generated_Source\PSoC4/UART_XB_UART.c **** 
 338:.\Generated_Source\PSoC4/UART_XB_UART.c **** #else
 339:.\Generated_Source\PSoC4/UART_XB_UART.c ****     #if (UART_XB_UART_TX_PIN)
 340:.\Generated_Source\PSoC4/UART_XB_UART.c ****          /* Set SCB UART to drive the output pin */
 341:.\Generated_Source\PSoC4/UART_XB_UART.c ****         UART_XB_SET_HSIOM_SEL(UART_XB_TX_HSIOM_REG, UART_XB_TX_HSIOM_MASK,
 187              		.loc 1 341 0
 188 0004 064B     		ldr	r3, .L5
 189 0006 064A     		ldr	r2, .L5
 190 0008 1268     		ldr	r2, [r2]
 191 000a F021     		mov	r1, #240
 192 000c 8A43     		bic	r2, r1
 193 000e 9021     		mov	r1, #144
 194 0010 0A43     		orr	r2, r1
 195 0012 1A60     		str	r2, [r3]
 342:.\Generated_Source\PSoC4/UART_XB_UART.c ****                                        UART_XB_TX_HSIOM_POS, UART_XB_TX_HSIOM_SEL_UART);
 343:.\Generated_Source\PSoC4/UART_XB_UART.c ****     #endif /* (UART_XB_UART_TX_PIN) */
 344:.\Generated_Source\PSoC4/UART_XB_UART.c **** 
 345:.\Generated_Source\PSoC4/UART_XB_UART.c ****     #if (UART_XB_UART_RTS_PIN)
 346:.\Generated_Source\PSoC4/UART_XB_UART.c ****         /* Set SCB UART to drive the output pin */
 347:.\Generated_Source\PSoC4/UART_XB_UART.c ****         UART_XB_SET_HSIOM_SEL(UART_XB_RTS_HSIOM_REG, UART_XB_RTS_HSIOM_MASK,
 348:.\Generated_Source\PSoC4/UART_XB_UART.c ****                                        UART_XB_RTS_HSIOM_POS, UART_XB_RTS_HSIOM_SEL_UART);
 349:.\Generated_Source\PSoC4/UART_XB_UART.c ****     #endif /* (UART_XB_UART_RTS_PIN) */
 350:.\Generated_Source\PSoC4/UART_XB_UART.c **** #endif /* (UART_XB_SCB_MODE_UNCONFIG_CONST_CFG) */
 351:.\Generated_Source\PSoC4/UART_XB_UART.c **** 
 352:.\Generated_Source\PSoC4/UART_XB_UART.c ****     /* Restore TX interrupt sources. */
 353:.\Generated_Source\PSoC4/UART_XB_UART.c ****     UART_XB_SetTxInterruptMode(UART_XB_IntrTxMask);
 196              		.loc 1 353 0
 197 0014 034B     		ldr	r3, .L5+4
 198 0016 044A     		ldr	r2, .L5+8
 199 0018 1288     		ldrh	r2, [r2]
 200 001a 1A60     		str	r2, [r3]
 354:.\Generated_Source\PSoC4/UART_XB_UART.c **** }
 201              		.loc 1 354 0
 202 001c BD46     		mov	sp, r7
 203              		@ sp needed
 204 001e 80BD     		pop	{r7, pc}
 205              	.L6:
 206              		.align	2
 207              	.L5:
 208 0020 00000240 		.word	1073872896
 209 0024 880F2540 		.word	1076170632
 210 0028 00000000 		.word	UART_XB_IntrTxMask
 211              		.cfi_endproc
 212              	.LFE3:
 213              		.size	UART_XB_UartPostEnable, .-UART_XB_UartPostEnable
 214              		.section	.text.UART_XB_UartStop,"ax",%progbits
 215              		.align	2
 216              		.global	UART_XB_UartStop
ARM GAS  C:\Users\Petro\AppData\Local\Temp\ccwZSVKu.s 			page 11


 217              		.code	16
 218              		.thumb_func
 219              		.type	UART_XB_UartStop, %function
 220              	UART_XB_UartStop:
 221              	.LFB4:
 355:.\Generated_Source\PSoC4/UART_XB_UART.c **** 
 356:.\Generated_Source\PSoC4/UART_XB_UART.c **** 
 357:.\Generated_Source\PSoC4/UART_XB_UART.c **** /*******************************************************************************
 358:.\Generated_Source\PSoC4/UART_XB_UART.c **** * Function Name: UART_XB_UartStop
 359:.\Generated_Source\PSoC4/UART_XB_UART.c **** ****************************************************************************//**
 360:.\Generated_Source\PSoC4/UART_XB_UART.c **** *
 361:.\Generated_Source\PSoC4/UART_XB_UART.c **** *  Changes the HSIOM settings for the UART output pins (TX and/or RTS) to keep
 362:.\Generated_Source\PSoC4/UART_XB_UART.c **** *  them inactive after the block is disabled. The output pins are controlled by
 363:.\Generated_Source\PSoC4/UART_XB_UART.c **** *  the GPIO data register. Also, the function disables the skip start feature
 364:.\Generated_Source\PSoC4/UART_XB_UART.c **** *  to not cause it to trigger after the component is enabled.
 365:.\Generated_Source\PSoC4/UART_XB_UART.c **** *
 366:.\Generated_Source\PSoC4/UART_XB_UART.c **** *******************************************************************************/
 367:.\Generated_Source\PSoC4/UART_XB_UART.c **** void UART_XB_UartStop(void)
 368:.\Generated_Source\PSoC4/UART_XB_UART.c **** {
 222              		.loc 1 368 0
 223              		.cfi_startproc
 224 0000 80B5     		push	{r7, lr}
 225              		.cfi_def_cfa_offset 8
 226              		.cfi_offset 7, -8
 227              		.cfi_offset 14, -4
 228 0002 00AF     		add	r7, sp, #0
 229              		.cfi_def_cfa_register 7
 369:.\Generated_Source\PSoC4/UART_XB_UART.c **** #if(UART_XB_SCB_MODE_UNCONFIG_CONST_CFG)
 370:.\Generated_Source\PSoC4/UART_XB_UART.c ****     #if (UART_XB_TX_SCL_MISO_PIN)
 371:.\Generated_Source\PSoC4/UART_XB_UART.c ****         if (UART_XB_CHECK_TX_SCL_MISO_PIN_USED)
 372:.\Generated_Source\PSoC4/UART_XB_UART.c ****         {
 373:.\Generated_Source\PSoC4/UART_XB_UART.c ****             /* Set GPIO to drive output pin */
 374:.\Generated_Source\PSoC4/UART_XB_UART.c ****             UART_XB_SET_HSIOM_SEL(UART_XB_TX_SCL_MISO_HSIOM_REG, UART_XB_TX_SCL_MISO_HSIOM_MASK,
 375:.\Generated_Source\PSoC4/UART_XB_UART.c ****                                            UART_XB_TX_SCL_MISO_HSIOM_POS, UART_XB_TX_SCL_MISO_HSIOM
 376:.\Generated_Source\PSoC4/UART_XB_UART.c ****         }
 377:.\Generated_Source\PSoC4/UART_XB_UART.c ****     #endif /* (UART_XB_TX_SCL_MISO_PIN_PIN) */
 378:.\Generated_Source\PSoC4/UART_XB_UART.c **** 
 379:.\Generated_Source\PSoC4/UART_XB_UART.c ****     #if !(UART_XB_CY_SCBIP_V0 || UART_XB_CY_SCBIP_V1)
 380:.\Generated_Source\PSoC4/UART_XB_UART.c ****         #if (UART_XB_RTS_SS0_PIN)
 381:.\Generated_Source\PSoC4/UART_XB_UART.c ****             if (UART_XB_CHECK_RTS_SS0_PIN_USED)
 382:.\Generated_Source\PSoC4/UART_XB_UART.c ****             {
 383:.\Generated_Source\PSoC4/UART_XB_UART.c ****                 /* Set output pin state after block is disabled */
 384:.\Generated_Source\PSoC4/UART_XB_UART.c ****                 UART_XB_uart_rts_spi_ss0_Write(UART_XB_GET_UART_RTS_INACTIVE);
 385:.\Generated_Source\PSoC4/UART_XB_UART.c **** 
 386:.\Generated_Source\PSoC4/UART_XB_UART.c ****                 /* Set GPIO to drive output pin */
 387:.\Generated_Source\PSoC4/UART_XB_UART.c ****                 UART_XB_SET_HSIOM_SEL(UART_XB_RTS_SS0_HSIOM_REG, UART_XB_RTS_SS0_HSIOM_MASK,
 388:.\Generated_Source\PSoC4/UART_XB_UART.c ****                                                UART_XB_RTS_SS0_HSIOM_POS, UART_XB_RTS_SS0_HSIOM_SEL
 389:.\Generated_Source\PSoC4/UART_XB_UART.c ****             }
 390:.\Generated_Source\PSoC4/UART_XB_UART.c ****         #endif /* (UART_XB_RTS_SS0_PIN) */
 391:.\Generated_Source\PSoC4/UART_XB_UART.c ****     #endif /* !(UART_XB_CY_SCBIP_V0 || UART_XB_CY_SCBIP_V1) */
 392:.\Generated_Source\PSoC4/UART_XB_UART.c **** 
 393:.\Generated_Source\PSoC4/UART_XB_UART.c **** #else
 394:.\Generated_Source\PSoC4/UART_XB_UART.c ****     #if (UART_XB_UART_TX_PIN)
 395:.\Generated_Source\PSoC4/UART_XB_UART.c ****         /* Set GPIO to drive output pin */
 396:.\Generated_Source\PSoC4/UART_XB_UART.c ****         UART_XB_SET_HSIOM_SEL(UART_XB_TX_HSIOM_REG, UART_XB_TX_HSIOM_MASK,
 230              		.loc 1 396 0
 231 0004 084B     		ldr	r3, .L8
ARM GAS  C:\Users\Petro\AppData\Local\Temp\ccwZSVKu.s 			page 12


 232 0006 084A     		ldr	r2, .L8
 233 0008 1268     		ldr	r2, [r2]
 234 000a F021     		mov	r1, #240
 235 000c 8A43     		bic	r2, r1
 236 000e 1A60     		str	r2, [r3]
 397:.\Generated_Source\PSoC4/UART_XB_UART.c ****                                        UART_XB_TX_HSIOM_POS, UART_XB_TX_HSIOM_SEL_GPIO);
 398:.\Generated_Source\PSoC4/UART_XB_UART.c ****     #endif /* (UART_XB_UART_TX_PIN) */
 399:.\Generated_Source\PSoC4/UART_XB_UART.c **** 
 400:.\Generated_Source\PSoC4/UART_XB_UART.c ****     #if (UART_XB_UART_RTS_PIN)
 401:.\Generated_Source\PSoC4/UART_XB_UART.c ****         /* Set output pin state after block is disabled */
 402:.\Generated_Source\PSoC4/UART_XB_UART.c ****         UART_XB_rts_Write(UART_XB_GET_UART_RTS_INACTIVE);
 403:.\Generated_Source\PSoC4/UART_XB_UART.c **** 
 404:.\Generated_Source\PSoC4/UART_XB_UART.c ****         /* Set GPIO to drive output pin */
 405:.\Generated_Source\PSoC4/UART_XB_UART.c ****         UART_XB_SET_HSIOM_SEL(UART_XB_RTS_HSIOM_REG, UART_XB_RTS_HSIOM_MASK,
 406:.\Generated_Source\PSoC4/UART_XB_UART.c ****                                        UART_XB_RTS_HSIOM_POS, UART_XB_RTS_HSIOM_SEL_GPIO);
 407:.\Generated_Source\PSoC4/UART_XB_UART.c ****     #endif /* (UART_XB_UART_RTS_PIN) */
 408:.\Generated_Source\PSoC4/UART_XB_UART.c **** 
 409:.\Generated_Source\PSoC4/UART_XB_UART.c **** #endif /* (UART_XB_SCB_MODE_UNCONFIG_CONST_CFG) */
 410:.\Generated_Source\PSoC4/UART_XB_UART.c **** 
 411:.\Generated_Source\PSoC4/UART_XB_UART.c **** #if (UART_XB_UART_WAKE_ENABLE_CONST)
 412:.\Generated_Source\PSoC4/UART_XB_UART.c ****     /* Disable skip start feature used for wakeup */
 413:.\Generated_Source\PSoC4/UART_XB_UART.c ****     UART_XB_UART_RX_CTRL_REG &= (uint32) ~UART_XB_UART_RX_CTRL_SKIP_START;
 414:.\Generated_Source\PSoC4/UART_XB_UART.c **** #endif /* (UART_XB_UART_WAKE_ENABLE_CONST) */
 415:.\Generated_Source\PSoC4/UART_XB_UART.c **** 
 416:.\Generated_Source\PSoC4/UART_XB_UART.c ****     /* Store TX interrupt sources (exclude level triggered). */
 417:.\Generated_Source\PSoC4/UART_XB_UART.c ****     UART_XB_IntrTxMask = LO16(UART_XB_GetTxInterruptMode() & UART_XB_INTR_UART_TX_RESTORE);
 237              		.loc 1 417 0
 238 0010 064B     		ldr	r3, .L8+4
 239 0012 1B68     		ldr	r3, [r3]
 240 0014 9AB2     		uxth	r2, r3
 241 0016 E423     		mov	r3, #228
 242 0018 DB00     		lsl	r3, r3, #3
 243 001a 1340     		and	r3, r2
 244 001c 9AB2     		uxth	r2, r3
 245 001e 044B     		ldr	r3, .L8+8
 246 0020 1A80     		strh	r2, [r3]
 418:.\Generated_Source\PSoC4/UART_XB_UART.c **** }
 247              		.loc 1 418 0
 248 0022 BD46     		mov	sp, r7
 249              		@ sp needed
 250 0024 80BD     		pop	{r7, pc}
 251              	.L9:
 252 0026 C046     		.align	2
 253              	.L8:
 254 0028 00000240 		.word	1073872896
 255 002c 880F2540 		.word	1076170632
 256 0030 00000000 		.word	UART_XB_IntrTxMask
 257              		.cfi_endproc
 258              	.LFE4:
 259              		.size	UART_XB_UartStop, .-UART_XB_UartStop
 260              		.section	.text.UART_XB_UartSetRxAddress,"ax",%progbits
 261              		.align	2
 262              		.global	UART_XB_UartSetRxAddress
 263              		.code	16
 264              		.thumb_func
 265              		.type	UART_XB_UartSetRxAddress, %function
 266              	UART_XB_UartSetRxAddress:
ARM GAS  C:\Users\Petro\AppData\Local\Temp\ccwZSVKu.s 			page 13


 267              	.LFB5:
 419:.\Generated_Source\PSoC4/UART_XB_UART.c **** 
 420:.\Generated_Source\PSoC4/UART_XB_UART.c **** 
 421:.\Generated_Source\PSoC4/UART_XB_UART.c **** /*******************************************************************************
 422:.\Generated_Source\PSoC4/UART_XB_UART.c **** * Function Name: UART_XB_UartSetRxAddress
 423:.\Generated_Source\PSoC4/UART_XB_UART.c **** ****************************************************************************//**
 424:.\Generated_Source\PSoC4/UART_XB_UART.c **** *
 425:.\Generated_Source\PSoC4/UART_XB_UART.c **** *  Sets the hardware detectable receiver address for the UART in the
 426:.\Generated_Source\PSoC4/UART_XB_UART.c **** *  Multiprocessor mode.
 427:.\Generated_Source\PSoC4/UART_XB_UART.c **** *
 428:.\Generated_Source\PSoC4/UART_XB_UART.c **** *  \param address: Address for hardware address detection.
 429:.\Generated_Source\PSoC4/UART_XB_UART.c **** *
 430:.\Generated_Source\PSoC4/UART_XB_UART.c **** *******************************************************************************/
 431:.\Generated_Source\PSoC4/UART_XB_UART.c **** void UART_XB_UartSetRxAddress(uint32 address)
 432:.\Generated_Source\PSoC4/UART_XB_UART.c **** {
 268              		.loc 1 432 0
 269              		.cfi_startproc
 270 0000 80B5     		push	{r7, lr}
 271              		.cfi_def_cfa_offset 8
 272              		.cfi_offset 7, -8
 273              		.cfi_offset 14, -4
 274 0002 84B0     		sub	sp, sp, #16
 275              		.cfi_def_cfa_offset 24
 276 0004 00AF     		add	r7, sp, #0
 277              		.cfi_def_cfa_register 7
 278 0006 7860     		str	r0, [r7, #4]
 433:.\Generated_Source\PSoC4/UART_XB_UART.c ****      uint32 matchReg;
 434:.\Generated_Source\PSoC4/UART_XB_UART.c **** 
 435:.\Generated_Source\PSoC4/UART_XB_UART.c ****     matchReg = UART_XB_RX_MATCH_REG;
 279              		.loc 1 435 0
 280 0008 094B     		ldr	r3, .L11
 281 000a 1B68     		ldr	r3, [r3]
 282 000c FB60     		str	r3, [r7, #12]
 436:.\Generated_Source\PSoC4/UART_XB_UART.c **** 
 437:.\Generated_Source\PSoC4/UART_XB_UART.c ****     matchReg &= ((uint32) ~UART_XB_RX_MATCH_ADDR_MASK); /* Clear address bits */
 283              		.loc 1 437 0
 284 000e FB68     		ldr	r3, [r7, #12]
 285 0010 FF22     		mov	r2, #255
 286 0012 9343     		bic	r3, r2
 287 0014 FB60     		str	r3, [r7, #12]
 438:.\Generated_Source\PSoC4/UART_XB_UART.c ****     matchReg |= ((uint32)  (address & UART_XB_RX_MATCH_ADDR_MASK)); /* Set address  */
 288              		.loc 1 438 0
 289 0016 7B68     		ldr	r3, [r7, #4]
 290 0018 FF22     		mov	r2, #255
 291 001a 1340     		and	r3, r2
 292 001c FA68     		ldr	r2, [r7, #12]
 293 001e 1343     		orr	r3, r2
 294 0020 FB60     		str	r3, [r7, #12]
 439:.\Generated_Source\PSoC4/UART_XB_UART.c **** 
 440:.\Generated_Source\PSoC4/UART_XB_UART.c ****     UART_XB_RX_MATCH_REG = matchReg;
 295              		.loc 1 440 0
 296 0022 034B     		ldr	r3, .L11
 297 0024 FA68     		ldr	r2, [r7, #12]
 298 0026 1A60     		str	r2, [r3]
 441:.\Generated_Source\PSoC4/UART_XB_UART.c **** }
 299              		.loc 1 441 0
 300 0028 BD46     		mov	sp, r7
ARM GAS  C:\Users\Petro\AppData\Local\Temp\ccwZSVKu.s 			page 14


 301 002a 04B0     		add	sp, sp, #16
 302              		@ sp needed
 303 002c 80BD     		pop	{r7, pc}
 304              	.L12:
 305 002e C046     		.align	2
 306              	.L11:
 307 0030 10032540 		.word	1076167440
 308              		.cfi_endproc
 309              	.LFE5:
 310              		.size	UART_XB_UartSetRxAddress, .-UART_XB_UartSetRxAddress
 311              		.section	.text.UART_XB_UartSetRxAddressMask,"ax",%progbits
 312              		.align	2
 313              		.global	UART_XB_UartSetRxAddressMask
 314              		.code	16
 315              		.thumb_func
 316              		.type	UART_XB_UartSetRxAddressMask, %function
 317              	UART_XB_UartSetRxAddressMask:
 318              	.LFB6:
 442:.\Generated_Source\PSoC4/UART_XB_UART.c **** 
 443:.\Generated_Source\PSoC4/UART_XB_UART.c **** 
 444:.\Generated_Source\PSoC4/UART_XB_UART.c **** /*******************************************************************************
 445:.\Generated_Source\PSoC4/UART_XB_UART.c **** * Function Name: UART_XB_UartSetRxAddressMask
 446:.\Generated_Source\PSoC4/UART_XB_UART.c **** ****************************************************************************//**
 447:.\Generated_Source\PSoC4/UART_XB_UART.c **** *
 448:.\Generated_Source\PSoC4/UART_XB_UART.c **** *  Sets the hardware address mask for the UART in the Multiprocessor mode.
 449:.\Generated_Source\PSoC4/UART_XB_UART.c **** *
 450:.\Generated_Source\PSoC4/UART_XB_UART.c **** *  \param addressMask: Address mask.
 451:.\Generated_Source\PSoC4/UART_XB_UART.c **** *   - Bit value 0 – excludes bit from address comparison.
 452:.\Generated_Source\PSoC4/UART_XB_UART.c **** *   - Bit value 1 – the bit needs to match with the corresponding bit
 453:.\Generated_Source\PSoC4/UART_XB_UART.c **** *     of the address.
 454:.\Generated_Source\PSoC4/UART_XB_UART.c **** *
 455:.\Generated_Source\PSoC4/UART_XB_UART.c **** *******************************************************************************/
 456:.\Generated_Source\PSoC4/UART_XB_UART.c **** void UART_XB_UartSetRxAddressMask(uint32 addressMask)
 457:.\Generated_Source\PSoC4/UART_XB_UART.c **** {
 319              		.loc 1 457 0
 320              		.cfi_startproc
 321 0000 80B5     		push	{r7, lr}
 322              		.cfi_def_cfa_offset 8
 323              		.cfi_offset 7, -8
 324              		.cfi_offset 14, -4
 325 0002 84B0     		sub	sp, sp, #16
 326              		.cfi_def_cfa_offset 24
 327 0004 00AF     		add	r7, sp, #0
 328              		.cfi_def_cfa_register 7
 329 0006 7860     		str	r0, [r7, #4]
 458:.\Generated_Source\PSoC4/UART_XB_UART.c ****     uint32 matchReg;
 459:.\Generated_Source\PSoC4/UART_XB_UART.c **** 
 460:.\Generated_Source\PSoC4/UART_XB_UART.c ****     matchReg = UART_XB_RX_MATCH_REG;
 330              		.loc 1 460 0
 331 0008 084B     		ldr	r3, .L14
 332 000a 1B68     		ldr	r3, [r3]
 333 000c FB60     		str	r3, [r7, #12]
 461:.\Generated_Source\PSoC4/UART_XB_UART.c **** 
 462:.\Generated_Source\PSoC4/UART_XB_UART.c ****     matchReg &= ((uint32) ~UART_XB_RX_MATCH_MASK_MASK); /* Clear address mask bits */
 334              		.loc 1 462 0
 335 000e FB68     		ldr	r3, [r7, #12]
 336 0010 074A     		ldr	r2, .L14+4
ARM GAS  C:\Users\Petro\AppData\Local\Temp\ccwZSVKu.s 			page 15


 337 0012 1340     		and	r3, r2
 338 0014 FB60     		str	r3, [r7, #12]
 463:.\Generated_Source\PSoC4/UART_XB_UART.c ****     matchReg |= ((uint32) (addressMask << UART_XB_RX_MATCH_MASK_POS));
 339              		.loc 1 463 0
 340 0016 7B68     		ldr	r3, [r7, #4]
 341 0018 1B04     		lsl	r3, r3, #16
 342 001a FA68     		ldr	r2, [r7, #12]
 343 001c 1343     		orr	r3, r2
 344 001e FB60     		str	r3, [r7, #12]
 464:.\Generated_Source\PSoC4/UART_XB_UART.c **** 
 465:.\Generated_Source\PSoC4/UART_XB_UART.c ****     UART_XB_RX_MATCH_REG = matchReg;
 345              		.loc 1 465 0
 346 0020 024B     		ldr	r3, .L14
 347 0022 FA68     		ldr	r2, [r7, #12]
 348 0024 1A60     		str	r2, [r3]
 466:.\Generated_Source\PSoC4/UART_XB_UART.c **** }
 349              		.loc 1 466 0
 350 0026 BD46     		mov	sp, r7
 351 0028 04B0     		add	sp, sp, #16
 352              		@ sp needed
 353 002a 80BD     		pop	{r7, pc}
 354              	.L15:
 355              		.align	2
 356              	.L14:
 357 002c 10032540 		.word	1076167440
 358 0030 FFFF00FF 		.word	-16711681
 359              		.cfi_endproc
 360              	.LFE6:
 361              		.size	UART_XB_UartSetRxAddressMask, .-UART_XB_UartSetRxAddressMask
 362              		.section	.text.UART_XB_UartGetChar,"ax",%progbits
 363              		.align	2
 364              		.global	UART_XB_UartGetChar
 365              		.code	16
 366              		.thumb_func
 367              		.type	UART_XB_UartGetChar, %function
 368              	UART_XB_UartGetChar:
 369              	.LFB7:
 467:.\Generated_Source\PSoC4/UART_XB_UART.c **** 
 468:.\Generated_Source\PSoC4/UART_XB_UART.c **** 
 469:.\Generated_Source\PSoC4/UART_XB_UART.c **** #if(UART_XB_UART_RX_DIRECTION)
 470:.\Generated_Source\PSoC4/UART_XB_UART.c ****     /*******************************************************************************
 471:.\Generated_Source\PSoC4/UART_XB_UART.c ****     * Function Name: UART_XB_UartGetChar
 472:.\Generated_Source\PSoC4/UART_XB_UART.c ****     ****************************************************************************//**
 473:.\Generated_Source\PSoC4/UART_XB_UART.c ****     *
 474:.\Generated_Source\PSoC4/UART_XB_UART.c ****     *  Retrieves next data element from receive buffer.
 475:.\Generated_Source\PSoC4/UART_XB_UART.c ****     *  This function is designed for ASCII characters and returns a char where
 476:.\Generated_Source\PSoC4/UART_XB_UART.c ****     *  1 to 255 are valid characters and 0 indicates an error occurred or no data
 477:.\Generated_Source\PSoC4/UART_XB_UART.c ****     *  is present.
 478:.\Generated_Source\PSoC4/UART_XB_UART.c ****     *  - RX software buffer is disabled: Returns data element retrieved from RX
 479:.\Generated_Source\PSoC4/UART_XB_UART.c ****     *    FIFO.
 480:.\Generated_Source\PSoC4/UART_XB_UART.c ****     *  - RX software buffer is enabled: Returns data element from the software
 481:.\Generated_Source\PSoC4/UART_XB_UART.c ****     *    receive buffer.
 482:.\Generated_Source\PSoC4/UART_XB_UART.c ****     *
 483:.\Generated_Source\PSoC4/UART_XB_UART.c ****     *  \return
 484:.\Generated_Source\PSoC4/UART_XB_UART.c ****     *   Next data element from the receive buffer. ASCII character values from
 485:.\Generated_Source\PSoC4/UART_XB_UART.c ****     *   1 to 255 are valid. A returned zero signifies an error condition or no
 486:.\Generated_Source\PSoC4/UART_XB_UART.c ****     *   data available.
ARM GAS  C:\Users\Petro\AppData\Local\Temp\ccwZSVKu.s 			page 16


 487:.\Generated_Source\PSoC4/UART_XB_UART.c ****     *
 488:.\Generated_Source\PSoC4/UART_XB_UART.c ****     *  \sideeffect
 489:.\Generated_Source\PSoC4/UART_XB_UART.c ****     *   The errors bits may not correspond with reading characters due to
 490:.\Generated_Source\PSoC4/UART_XB_UART.c ****     *   RX FIFO and software buffer usage.
 491:.\Generated_Source\PSoC4/UART_XB_UART.c ****     *   RX software buffer is enabled: The internal software buffer overflow
 492:.\Generated_Source\PSoC4/UART_XB_UART.c ****     *   is not treated as an error condition.
 493:.\Generated_Source\PSoC4/UART_XB_UART.c ****     *   Check UART_XB_rxBufferOverflow to capture that error condition.
 494:.\Generated_Source\PSoC4/UART_XB_UART.c ****     *
 495:.\Generated_Source\PSoC4/UART_XB_UART.c ****     *******************************************************************************/
 496:.\Generated_Source\PSoC4/UART_XB_UART.c ****     uint32 UART_XB_UartGetChar(void)
 497:.\Generated_Source\PSoC4/UART_XB_UART.c ****     {
 370              		.loc 1 497 0
 371              		.cfi_startproc
 372 0000 80B5     		push	{r7, lr}
 373              		.cfi_def_cfa_offset 8
 374              		.cfi_offset 7, -8
 375              		.cfi_offset 14, -4
 376 0002 82B0     		sub	sp, sp, #8
 377              		.cfi_def_cfa_offset 16
 378 0004 00AF     		add	r7, sp, #0
 379              		.cfi_def_cfa_register 7
 498:.\Generated_Source\PSoC4/UART_XB_UART.c ****         uint32 rxData = 0u;
 380              		.loc 1 498 0
 381 0006 0023     		mov	r3, #0
 382 0008 7B60     		str	r3, [r7, #4]
 499:.\Generated_Source\PSoC4/UART_XB_UART.c **** 
 500:.\Generated_Source\PSoC4/UART_XB_UART.c ****         /* Reads data only if there is data to read */
 501:.\Generated_Source\PSoC4/UART_XB_UART.c ****         if (0u != UART_XB_SpiUartGetRxBufferSize())
 383              		.loc 1 501 0
 384 000a FFF7FEFF 		bl	UART_XB_SpiUartGetRxBufferSize
 385 000e 031E     		sub	r3, r0, #0
 386 0010 03D0     		beq	.L17
 502:.\Generated_Source\PSoC4/UART_XB_UART.c ****         {
 503:.\Generated_Source\PSoC4/UART_XB_UART.c ****             rxData = UART_XB_SpiUartReadRxData();
 387              		.loc 1 503 0
 388 0012 FFF7FEFF 		bl	UART_XB_SpiUartReadRxData
 389 0016 031C     		mov	r3, r0
 390 0018 7B60     		str	r3, [r7, #4]
 391              	.L17:
 504:.\Generated_Source\PSoC4/UART_XB_UART.c ****         }
 505:.\Generated_Source\PSoC4/UART_XB_UART.c **** 
 506:.\Generated_Source\PSoC4/UART_XB_UART.c ****         if (UART_XB_CHECK_INTR_RX(UART_XB_INTR_RX_ERR))
 392              		.loc 1 506 0
 393 001a 084B     		ldr	r3, .L20
 394 001c 1A68     		ldr	r2, [r3]
 395 001e D823     		mov	r3, #216
 396 0020 9B00     		lsl	r3, r3, #2
 397 0022 1340     		and	r3, r2
 398 0024 05D0     		beq	.L18
 507:.\Generated_Source\PSoC4/UART_XB_UART.c ****         {
 508:.\Generated_Source\PSoC4/UART_XB_UART.c ****             rxData = 0u; /* Error occurred: returns zero */
 399              		.loc 1 508 0
 400 0026 0023     		mov	r3, #0
 401 0028 7B60     		str	r3, [r7, #4]
 509:.\Generated_Source\PSoC4/UART_XB_UART.c ****             UART_XB_ClearRxInterruptSource(UART_XB_INTR_RX_ERR);
 402              		.loc 1 509 0
 403 002a 044B     		ldr	r3, .L20
ARM GAS  C:\Users\Petro\AppData\Local\Temp\ccwZSVKu.s 			page 17


 404 002c D822     		mov	r2, #216
 405 002e 9200     		lsl	r2, r2, #2
 406 0030 1A60     		str	r2, [r3]
 407              	.L18:
 510:.\Generated_Source\PSoC4/UART_XB_UART.c ****         }
 511:.\Generated_Source\PSoC4/UART_XB_UART.c **** 
 512:.\Generated_Source\PSoC4/UART_XB_UART.c ****         return (rxData);
 408              		.loc 1 512 0
 409 0032 7B68     		ldr	r3, [r7, #4]
 513:.\Generated_Source\PSoC4/UART_XB_UART.c ****     }
 410              		.loc 1 513 0
 411 0034 181C     		mov	r0, r3
 412 0036 BD46     		mov	sp, r7
 413 0038 02B0     		add	sp, sp, #8
 414              		@ sp needed
 415 003a 80BD     		pop	{r7, pc}
 416              	.L21:
 417              		.align	2
 418              	.L20:
 419 003c C00F2540 		.word	1076170688
 420              		.cfi_endproc
 421              	.LFE7:
 422              		.size	UART_XB_UartGetChar, .-UART_XB_UartGetChar
 423              		.section	.text.UART_XB_UartGetByte,"ax",%progbits
 424              		.align	2
 425              		.global	UART_XB_UartGetByte
 426              		.code	16
 427              		.thumb_func
 428              		.type	UART_XB_UartGetByte, %function
 429              	UART_XB_UartGetByte:
 430              	.LFB8:
 514:.\Generated_Source\PSoC4/UART_XB_UART.c **** 
 515:.\Generated_Source\PSoC4/UART_XB_UART.c **** 
 516:.\Generated_Source\PSoC4/UART_XB_UART.c ****     /*******************************************************************************
 517:.\Generated_Source\PSoC4/UART_XB_UART.c ****     * Function Name: UART_XB_UartGetByte
 518:.\Generated_Source\PSoC4/UART_XB_UART.c ****     ****************************************************************************//**
 519:.\Generated_Source\PSoC4/UART_XB_UART.c ****     *
 520:.\Generated_Source\PSoC4/UART_XB_UART.c ****     *  Retrieves the next data element from the receive buffer, returns the
 521:.\Generated_Source\PSoC4/UART_XB_UART.c ****     *  received byte and error condition.
 522:.\Generated_Source\PSoC4/UART_XB_UART.c ****     *   - The RX software buffer is disabled: returns the data element retrieved
 523:.\Generated_Source\PSoC4/UART_XB_UART.c ****     *     from the RX FIFO. Undefined data will be returned if the RX FIFO is
 524:.\Generated_Source\PSoC4/UART_XB_UART.c ****     *     empty.
 525:.\Generated_Source\PSoC4/UART_XB_UART.c ****     *   - The RX software buffer is enabled: returns data element from the
 526:.\Generated_Source\PSoC4/UART_XB_UART.c ****     *     software receive buffer.
 527:.\Generated_Source\PSoC4/UART_XB_UART.c ****     *
 528:.\Generated_Source\PSoC4/UART_XB_UART.c ****     *  \return
 529:.\Generated_Source\PSoC4/UART_XB_UART.c ****     *   Bits 7-0 contain the next data element from the receive buffer and
 530:.\Generated_Source\PSoC4/UART_XB_UART.c ****     *   other bits contain the error condition.
 531:.\Generated_Source\PSoC4/UART_XB_UART.c ****     *   - UART_XB_UART_RX_OVERFLOW - Attempt to write to a full
 532:.\Generated_Source\PSoC4/UART_XB_UART.c ****     *     receiver FIFO.
 533:.\Generated_Source\PSoC4/UART_XB_UART.c ****     *   - UART_XB_UART_RX_UNDERFLOW	Attempt to read from an empty
 534:.\Generated_Source\PSoC4/UART_XB_UART.c ****     *     receiver FIFO.
 535:.\Generated_Source\PSoC4/UART_XB_UART.c ****     *   - UART_XB_UART_RX_FRAME_ERROR - UART framing error detected.
 536:.\Generated_Source\PSoC4/UART_XB_UART.c ****     *   - UART_XB_UART_RX_PARITY_ERROR - UART parity error detected.
 537:.\Generated_Source\PSoC4/UART_XB_UART.c ****     *
 538:.\Generated_Source\PSoC4/UART_XB_UART.c ****     *  \sideeffect
 539:.\Generated_Source\PSoC4/UART_XB_UART.c ****     *   The errors bits may not correspond with reading characters due to
ARM GAS  C:\Users\Petro\AppData\Local\Temp\ccwZSVKu.s 			page 18


 540:.\Generated_Source\PSoC4/UART_XB_UART.c ****     *   RX FIFO and software buffer usage.
 541:.\Generated_Source\PSoC4/UART_XB_UART.c ****     *   RX software buffer is enabled: The internal software buffer overflow
 542:.\Generated_Source\PSoC4/UART_XB_UART.c ****     *   is not treated as an error condition.
 543:.\Generated_Source\PSoC4/UART_XB_UART.c ****     *   Check UART_XB_rxBufferOverflow to capture that error condition.
 544:.\Generated_Source\PSoC4/UART_XB_UART.c ****     *
 545:.\Generated_Source\PSoC4/UART_XB_UART.c ****     *******************************************************************************/
 546:.\Generated_Source\PSoC4/UART_XB_UART.c ****     uint32 UART_XB_UartGetByte(void)
 547:.\Generated_Source\PSoC4/UART_XB_UART.c ****     {
 431              		.loc 1 547 0
 432              		.cfi_startproc
 433 0000 80B5     		push	{r7, lr}
 434              		.cfi_def_cfa_offset 8
 435              		.cfi_offset 7, -8
 436              		.cfi_offset 14, -4
 437 0002 82B0     		sub	sp, sp, #8
 438              		.cfi_def_cfa_offset 16
 439 0004 00AF     		add	r7, sp, #0
 440              		.cfi_def_cfa_register 7
 548:.\Generated_Source\PSoC4/UART_XB_UART.c ****         uint32 rxData;
 549:.\Generated_Source\PSoC4/UART_XB_UART.c ****         uint32 tmpStatus;
 550:.\Generated_Source\PSoC4/UART_XB_UART.c **** 
 551:.\Generated_Source\PSoC4/UART_XB_UART.c ****         #if (UART_XB_CHECK_RX_SW_BUFFER)
 552:.\Generated_Source\PSoC4/UART_XB_UART.c ****         {
 553:.\Generated_Source\PSoC4/UART_XB_UART.c ****             UART_XB_DisableInt();
 441              		.loc 1 553 0
 442 0006 0A20     		mov	r0, #10
 443 0008 FFF7FEFF 		bl	CyIntDisable
 554:.\Generated_Source\PSoC4/UART_XB_UART.c ****         }
 555:.\Generated_Source\PSoC4/UART_XB_UART.c ****         #endif
 556:.\Generated_Source\PSoC4/UART_XB_UART.c **** 
 557:.\Generated_Source\PSoC4/UART_XB_UART.c ****         if (0u != UART_XB_SpiUartGetRxBufferSize())
 444              		.loc 1 557 0
 445 000c FFF7FEFF 		bl	UART_XB_SpiUartGetRxBufferSize
 446 0010 031E     		sub	r3, r0, #0
 447 0012 07D0     		beq	.L23
 558:.\Generated_Source\PSoC4/UART_XB_UART.c ****         {
 559:.\Generated_Source\PSoC4/UART_XB_UART.c ****             /* Enables interrupt to receive more bytes: at least one byte is in
 560:.\Generated_Source\PSoC4/UART_XB_UART.c ****             * buffer.
 561:.\Generated_Source\PSoC4/UART_XB_UART.c ****             */
 562:.\Generated_Source\PSoC4/UART_XB_UART.c ****             #if (UART_XB_CHECK_RX_SW_BUFFER)
 563:.\Generated_Source\PSoC4/UART_XB_UART.c ****             {
 564:.\Generated_Source\PSoC4/UART_XB_UART.c ****                 UART_XB_EnableInt();
 448              		.loc 1 564 0
 449 0014 0A20     		mov	r0, #10
 450 0016 FFF7FEFF 		bl	CyIntEnable
 565:.\Generated_Source\PSoC4/UART_XB_UART.c ****             }
 566:.\Generated_Source\PSoC4/UART_XB_UART.c ****             #endif
 567:.\Generated_Source\PSoC4/UART_XB_UART.c **** 
 568:.\Generated_Source\PSoC4/UART_XB_UART.c ****             /* Get received byte */
 569:.\Generated_Source\PSoC4/UART_XB_UART.c ****             rxData = UART_XB_SpiUartReadRxData();
 451              		.loc 1 569 0
 452 001a FFF7FEFF 		bl	UART_XB_SpiUartReadRxData
 453 001e 031C     		mov	r3, r0
 454 0020 7B60     		str	r3, [r7, #4]
 455 0022 08E0     		b	.L24
 456              	.L23:
 570:.\Generated_Source\PSoC4/UART_XB_UART.c ****         }
ARM GAS  C:\Users\Petro\AppData\Local\Temp\ccwZSVKu.s 			page 19


 571:.\Generated_Source\PSoC4/UART_XB_UART.c ****         else
 572:.\Generated_Source\PSoC4/UART_XB_UART.c ****         {
 573:.\Generated_Source\PSoC4/UART_XB_UART.c ****             /* Reads a byte directly from RX FIFO: underflow is raised in the
 574:.\Generated_Source\PSoC4/UART_XB_UART.c ****             * case of empty. Otherwise the first received byte will be read.
 575:.\Generated_Source\PSoC4/UART_XB_UART.c ****             */
 576:.\Generated_Source\PSoC4/UART_XB_UART.c ****             rxData = UART_XB_RX_FIFO_RD_REG;
 457              		.loc 1 576 0
 458 0024 0E4B     		ldr	r3, .L26
 459 0026 1B68     		ldr	r3, [r3]
 460 0028 7B60     		str	r3, [r7, #4]
 577:.\Generated_Source\PSoC4/UART_XB_UART.c **** 
 578:.\Generated_Source\PSoC4/UART_XB_UART.c **** 
 579:.\Generated_Source\PSoC4/UART_XB_UART.c ****             /* Enables interrupt to receive more bytes. */
 580:.\Generated_Source\PSoC4/UART_XB_UART.c ****             #if (UART_XB_CHECK_RX_SW_BUFFER)
 581:.\Generated_Source\PSoC4/UART_XB_UART.c ****             {
 582:.\Generated_Source\PSoC4/UART_XB_UART.c **** 
 583:.\Generated_Source\PSoC4/UART_XB_UART.c ****                 /* The byte has been read from RX FIFO. Clear RX interrupt to
 584:.\Generated_Source\PSoC4/UART_XB_UART.c ****                 * not involve interrupt handler when RX FIFO is empty.
 585:.\Generated_Source\PSoC4/UART_XB_UART.c ****                 */
 586:.\Generated_Source\PSoC4/UART_XB_UART.c ****                 UART_XB_ClearRxInterruptSource(UART_XB_INTR_RX_NOT_EMPTY);
 461              		.loc 1 586 0
 462 002a 0E4B     		ldr	r3, .L26+4
 463 002c 0422     		mov	r2, #4
 464 002e 1A60     		str	r2, [r3]
 587:.\Generated_Source\PSoC4/UART_XB_UART.c **** 
 588:.\Generated_Source\PSoC4/UART_XB_UART.c ****                 UART_XB_EnableInt();
 465              		.loc 1 588 0
 466 0030 0A20     		mov	r0, #10
 467 0032 FFF7FEFF 		bl	CyIntEnable
 468              	.L24:
 589:.\Generated_Source\PSoC4/UART_XB_UART.c ****             }
 590:.\Generated_Source\PSoC4/UART_XB_UART.c ****             #endif
 591:.\Generated_Source\PSoC4/UART_XB_UART.c ****         }
 592:.\Generated_Source\PSoC4/UART_XB_UART.c **** 
 593:.\Generated_Source\PSoC4/UART_XB_UART.c ****         /* Get and clear RX error mask */
 594:.\Generated_Source\PSoC4/UART_XB_UART.c ****         tmpStatus = (UART_XB_GetRxInterruptSource() & UART_XB_INTR_RX_ERR);
 469              		.loc 1 594 0
 470 0036 0B4B     		ldr	r3, .L26+4
 471 0038 1A68     		ldr	r2, [r3]
 472 003a D823     		mov	r3, #216
 473 003c 9B00     		lsl	r3, r3, #2
 474 003e 1340     		and	r3, r2
 475 0040 3B60     		str	r3, [r7]
 595:.\Generated_Source\PSoC4/UART_XB_UART.c ****         UART_XB_ClearRxInterruptSource(UART_XB_INTR_RX_ERR);
 476              		.loc 1 595 0
 477 0042 084B     		ldr	r3, .L26+4
 478 0044 D822     		mov	r2, #216
 479 0046 9200     		lsl	r2, r2, #2
 480 0048 1A60     		str	r2, [r3]
 596:.\Generated_Source\PSoC4/UART_XB_UART.c **** 
 597:.\Generated_Source\PSoC4/UART_XB_UART.c ****         /* Puts together data and error status:
 598:.\Generated_Source\PSoC4/UART_XB_UART.c ****         * MP mode and accept address: 9th bit is set to notify mark.
 599:.\Generated_Source\PSoC4/UART_XB_UART.c ****         */
 600:.\Generated_Source\PSoC4/UART_XB_UART.c ****         rxData |= ((uint32) (tmpStatus << 8u));
 481              		.loc 1 600 0
 482 004a 3B68     		ldr	r3, [r7]
 483 004c 1B02     		lsl	r3, r3, #8
ARM GAS  C:\Users\Petro\AppData\Local\Temp\ccwZSVKu.s 			page 20


 484 004e 7A68     		ldr	r2, [r7, #4]
 485 0050 1343     		orr	r3, r2
 486 0052 7B60     		str	r3, [r7, #4]
 601:.\Generated_Source\PSoC4/UART_XB_UART.c **** 
 602:.\Generated_Source\PSoC4/UART_XB_UART.c ****         return (rxData);
 487              		.loc 1 602 0
 488 0054 7B68     		ldr	r3, [r7, #4]
 603:.\Generated_Source\PSoC4/UART_XB_UART.c ****     }
 489              		.loc 1 603 0
 490 0056 181C     		mov	r0, r3
 491 0058 BD46     		mov	sp, r7
 492 005a 02B0     		add	sp, sp, #8
 493              		@ sp needed
 494 005c 80BD     		pop	{r7, pc}
 495              	.L27:
 496 005e C046     		.align	2
 497              	.L26:
 498 0060 40032540 		.word	1076167488
 499 0064 C00F2540 		.word	1076170688
 500              		.cfi_endproc
 501              	.LFE8:
 502              		.size	UART_XB_UartGetByte, .-UART_XB_UartGetByte
 503              		.section	.text.UART_XB_UartSetRtsPolarity,"ax",%progbits
 504              		.align	2
 505              		.global	UART_XB_UartSetRtsPolarity
 506              		.code	16
 507              		.thumb_func
 508              		.type	UART_XB_UartSetRtsPolarity, %function
 509              	UART_XB_UartSetRtsPolarity:
 510              	.LFB9:
 604:.\Generated_Source\PSoC4/UART_XB_UART.c **** 
 605:.\Generated_Source\PSoC4/UART_XB_UART.c **** 
 606:.\Generated_Source\PSoC4/UART_XB_UART.c ****     #if !(UART_XB_CY_SCBIP_V0 || UART_XB_CY_SCBIP_V1)
 607:.\Generated_Source\PSoC4/UART_XB_UART.c ****         /*******************************************************************************
 608:.\Generated_Source\PSoC4/UART_XB_UART.c ****         * Function Name: UART_XB_UartSetRtsPolarity
 609:.\Generated_Source\PSoC4/UART_XB_UART.c ****         ****************************************************************************//**
 610:.\Generated_Source\PSoC4/UART_XB_UART.c ****         *
 611:.\Generated_Source\PSoC4/UART_XB_UART.c ****         *  Sets active polarity of RTS output signal.
 612:.\Generated_Source\PSoC4/UART_XB_UART.c ****         *  Only available for PSoC 4100 BLE / PSoC 4200 BLE / PSoC 4100M / PSoC 4200M /
 613:.\Generated_Source\PSoC4/UART_XB_UART.c ****         *  PSoC 4200L / PSoC 4000S / PSoC 4100S / PSoC Analog Coprocessor devices.
 614:.\Generated_Source\PSoC4/UART_XB_UART.c ****         *
 615:.\Generated_Source\PSoC4/UART_XB_UART.c ****         *  \param polarity: Active polarity of RTS output signal.
 616:.\Generated_Source\PSoC4/UART_XB_UART.c ****         *   - UART_XB_UART_RTS_ACTIVE_LOW  - RTS signal is active low.
 617:.\Generated_Source\PSoC4/UART_XB_UART.c ****         *   - UART_XB_UART_RTS_ACTIVE_HIGH - RTS signal is active high.
 618:.\Generated_Source\PSoC4/UART_XB_UART.c ****         *
 619:.\Generated_Source\PSoC4/UART_XB_UART.c ****         *******************************************************************************/
 620:.\Generated_Source\PSoC4/UART_XB_UART.c ****         void UART_XB_UartSetRtsPolarity(uint32 polarity)
 621:.\Generated_Source\PSoC4/UART_XB_UART.c ****         {
 511              		.loc 1 621 0
 512              		.cfi_startproc
 513 0000 80B5     		push	{r7, lr}
 514              		.cfi_def_cfa_offset 8
 515              		.cfi_offset 7, -8
 516              		.cfi_offset 14, -4
 517 0002 82B0     		sub	sp, sp, #8
 518              		.cfi_def_cfa_offset 16
 519 0004 00AF     		add	r7, sp, #0
ARM GAS  C:\Users\Petro\AppData\Local\Temp\ccwZSVKu.s 			page 21


 520              		.cfi_def_cfa_register 7
 521 0006 7860     		str	r0, [r7, #4]
 622:.\Generated_Source\PSoC4/UART_XB_UART.c ****             if(0u != polarity)
 522              		.loc 1 622 0
 523 0008 7B68     		ldr	r3, [r7, #4]
 524 000a 002B     		cmp	r3, #0
 525 000c 07D0     		beq	.L29
 623:.\Generated_Source\PSoC4/UART_XB_UART.c ****             {
 624:.\Generated_Source\PSoC4/UART_XB_UART.c ****                 UART_XB_UART_FLOW_CTRL_REG |= (uint32)  UART_XB_UART_FLOW_CTRL_RTS_POLARITY;
 526              		.loc 1 624 0
 527 000e 084B     		ldr	r3, .L31
 528 0010 074A     		ldr	r2, .L31
 529 0012 1268     		ldr	r2, [r2]
 530 0014 8021     		mov	r1, #128
 531 0016 4902     		lsl	r1, r1, #9
 532 0018 0A43     		orr	r2, r1
 533 001a 1A60     		str	r2, [r3]
 534 001c 05E0     		b	.L28
 535              	.L29:
 625:.\Generated_Source\PSoC4/UART_XB_UART.c ****             }
 626:.\Generated_Source\PSoC4/UART_XB_UART.c ****             else
 627:.\Generated_Source\PSoC4/UART_XB_UART.c ****             {
 628:.\Generated_Source\PSoC4/UART_XB_UART.c ****                 UART_XB_UART_FLOW_CTRL_REG &= (uint32) ~UART_XB_UART_FLOW_CTRL_RTS_POLARITY;
 536              		.loc 1 628 0
 537 001e 044B     		ldr	r3, .L31
 538 0020 034A     		ldr	r2, .L31
 539 0022 1268     		ldr	r2, [r2]
 540 0024 0349     		ldr	r1, .L31+4
 541 0026 0A40     		and	r2, r1
 542 0028 1A60     		str	r2, [r3]
 543              	.L28:
 629:.\Generated_Source\PSoC4/UART_XB_UART.c ****             }
 630:.\Generated_Source\PSoC4/UART_XB_UART.c ****         }
 544              		.loc 1 630 0
 545 002a BD46     		mov	sp, r7
 546 002c 02B0     		add	sp, sp, #8
 547              		@ sp needed
 548 002e 80BD     		pop	{r7, pc}
 549              	.L32:
 550              		.align	2
 551              	.L31:
 552 0030 50002540 		.word	1076166736
 553 0034 FFFFFEFF 		.word	-65537
 554              		.cfi_endproc
 555              	.LFE9:
 556              		.size	UART_XB_UartSetRtsPolarity, .-UART_XB_UartSetRtsPolarity
 557              		.section	.text.UART_XB_UartSetRtsFifoLevel,"ax",%progbits
 558              		.align	2
 559              		.global	UART_XB_UartSetRtsFifoLevel
 560              		.code	16
 561              		.thumb_func
 562              		.type	UART_XB_UartSetRtsFifoLevel, %function
 563              	UART_XB_UartSetRtsFifoLevel:
 564              	.LFB10:
 631:.\Generated_Source\PSoC4/UART_XB_UART.c **** 
 632:.\Generated_Source\PSoC4/UART_XB_UART.c **** 
 633:.\Generated_Source\PSoC4/UART_XB_UART.c ****         /*******************************************************************************
ARM GAS  C:\Users\Petro\AppData\Local\Temp\ccwZSVKu.s 			page 22


 634:.\Generated_Source\PSoC4/UART_XB_UART.c ****         * Function Name: UART_XB_UartSetRtsFifoLevel
 635:.\Generated_Source\PSoC4/UART_XB_UART.c ****         ****************************************************************************//**
 636:.\Generated_Source\PSoC4/UART_XB_UART.c ****         *
 637:.\Generated_Source\PSoC4/UART_XB_UART.c ****         *  Sets level in the RX FIFO for RTS signal activation.
 638:.\Generated_Source\PSoC4/UART_XB_UART.c ****         *  While the RX FIFO has fewer entries than the RX FIFO level the RTS signal
 639:.\Generated_Source\PSoC4/UART_XB_UART.c ****         *  remains active, otherwise the RTS signal becomes inactive.
 640:.\Generated_Source\PSoC4/UART_XB_UART.c ****         *  Only available for PSoC 4100 BLE / PSoC 4200 BLE / PSoC 4100M / PSoC 4200M /
 641:.\Generated_Source\PSoC4/UART_XB_UART.c ****         *  PSoC 4200L / PSoC 4000S / PSoC 4100S / PSoC Analog Coprocessor devices.
 642:.\Generated_Source\PSoC4/UART_XB_UART.c ****         *
 643:.\Generated_Source\PSoC4/UART_XB_UART.c ****         *  \param level: Level in the RX FIFO for RTS signal activation.
 644:.\Generated_Source\PSoC4/UART_XB_UART.c ****         *   The range of valid level values is between 0 and RX FIFO depth - 1.
 645:.\Generated_Source\PSoC4/UART_XB_UART.c ****         *   Setting level value to 0 disables RTS signal activation.
 646:.\Generated_Source\PSoC4/UART_XB_UART.c ****         *
 647:.\Generated_Source\PSoC4/UART_XB_UART.c ****         *******************************************************************************/
 648:.\Generated_Source\PSoC4/UART_XB_UART.c ****         void UART_XB_UartSetRtsFifoLevel(uint32 level)
 649:.\Generated_Source\PSoC4/UART_XB_UART.c ****         {
 565              		.loc 1 649 0
 566              		.cfi_startproc
 567 0000 80B5     		push	{r7, lr}
 568              		.cfi_def_cfa_offset 8
 569              		.cfi_offset 7, -8
 570              		.cfi_offset 14, -4
 571 0002 84B0     		sub	sp, sp, #16
 572              		.cfi_def_cfa_offset 24
 573 0004 00AF     		add	r7, sp, #0
 574              		.cfi_def_cfa_register 7
 575 0006 7860     		str	r0, [r7, #4]
 650:.\Generated_Source\PSoC4/UART_XB_UART.c ****             uint32 uartFlowCtrl;
 651:.\Generated_Source\PSoC4/UART_XB_UART.c **** 
 652:.\Generated_Source\PSoC4/UART_XB_UART.c ****             uartFlowCtrl = UART_XB_UART_FLOW_CTRL_REG;
 576              		.loc 1 652 0
 577 0008 094B     		ldr	r3, .L34
 578 000a 1B68     		ldr	r3, [r3]
 579 000c FB60     		str	r3, [r7, #12]
 653:.\Generated_Source\PSoC4/UART_XB_UART.c **** 
 654:.\Generated_Source\PSoC4/UART_XB_UART.c ****             uartFlowCtrl &= ((uint32) ~UART_XB_UART_FLOW_CTRL_TRIGGER_LEVEL_MASK); /* Clear level m
 580              		.loc 1 654 0
 581 000e FB68     		ldr	r3, [r7, #12]
 582 0010 0F22     		mov	r2, #15
 583 0012 9343     		bic	r3, r2
 584 0014 FB60     		str	r3, [r7, #12]
 655:.\Generated_Source\PSoC4/UART_XB_UART.c ****             uartFlowCtrl |= ((uint32) (UART_XB_UART_FLOW_CTRL_TRIGGER_LEVEL_MASK & level));
 585              		.loc 1 655 0
 586 0016 7B68     		ldr	r3, [r7, #4]
 587 0018 0F22     		mov	r2, #15
 588 001a 1340     		and	r3, r2
 589 001c FA68     		ldr	r2, [r7, #12]
 590 001e 1343     		orr	r3, r2
 591 0020 FB60     		str	r3, [r7, #12]
 656:.\Generated_Source\PSoC4/UART_XB_UART.c **** 
 657:.\Generated_Source\PSoC4/UART_XB_UART.c ****             UART_XB_UART_FLOW_CTRL_REG = uartFlowCtrl;
 592              		.loc 1 657 0
 593 0022 034B     		ldr	r3, .L34
 594 0024 FA68     		ldr	r2, [r7, #12]
 595 0026 1A60     		str	r2, [r3]
 658:.\Generated_Source\PSoC4/UART_XB_UART.c ****         }
 596              		.loc 1 658 0
ARM GAS  C:\Users\Petro\AppData\Local\Temp\ccwZSVKu.s 			page 23


 597 0028 BD46     		mov	sp, r7
 598 002a 04B0     		add	sp, sp, #16
 599              		@ sp needed
 600 002c 80BD     		pop	{r7, pc}
 601              	.L35:
 602 002e C046     		.align	2
 603              	.L34:
 604 0030 50002540 		.word	1076166736
 605              		.cfi_endproc
 606              	.LFE10:
 607              		.size	UART_XB_UartSetRtsFifoLevel, .-UART_XB_UartSetRtsFifoLevel
 608              		.section	.text.UART_XB_UartPutString,"ax",%progbits
 609              		.align	2
 610              		.global	UART_XB_UartPutString
 611              		.code	16
 612              		.thumb_func
 613              		.type	UART_XB_UartPutString, %function
 614              	UART_XB_UartPutString:
 615              	.LFB11:
 659:.\Generated_Source\PSoC4/UART_XB_UART.c ****     #endif /* !(UART_XB_CY_SCBIP_V0 || UART_XB_CY_SCBIP_V1) */
 660:.\Generated_Source\PSoC4/UART_XB_UART.c **** 
 661:.\Generated_Source\PSoC4/UART_XB_UART.c **** #endif /* (UART_XB_UART_RX_DIRECTION) */
 662:.\Generated_Source\PSoC4/UART_XB_UART.c **** 
 663:.\Generated_Source\PSoC4/UART_XB_UART.c **** 
 664:.\Generated_Source\PSoC4/UART_XB_UART.c **** #if(UART_XB_UART_TX_DIRECTION)
 665:.\Generated_Source\PSoC4/UART_XB_UART.c ****     /*******************************************************************************
 666:.\Generated_Source\PSoC4/UART_XB_UART.c ****     * Function Name: UART_XB_UartPutString
 667:.\Generated_Source\PSoC4/UART_XB_UART.c ****     ****************************************************************************//**
 668:.\Generated_Source\PSoC4/UART_XB_UART.c ****     *
 669:.\Generated_Source\PSoC4/UART_XB_UART.c ****     *  Places a NULL terminated string in the transmit buffer to be sent at the
 670:.\Generated_Source\PSoC4/UART_XB_UART.c ****     *  next available bus time.
 671:.\Generated_Source\PSoC4/UART_XB_UART.c ****     *  This function is blocking and waits until there is a space available to put
 672:.\Generated_Source\PSoC4/UART_XB_UART.c ****     *  requested data in transmit buffer.
 673:.\Generated_Source\PSoC4/UART_XB_UART.c ****     *
 674:.\Generated_Source\PSoC4/UART_XB_UART.c ****     *  \param string: pointer to the null terminated string array to be placed in the
 675:.\Generated_Source\PSoC4/UART_XB_UART.c ****     *   transmit buffer.
 676:.\Generated_Source\PSoC4/UART_XB_UART.c ****     *
 677:.\Generated_Source\PSoC4/UART_XB_UART.c ****     *******************************************************************************/
 678:.\Generated_Source\PSoC4/UART_XB_UART.c ****     void UART_XB_UartPutString(const char8 string[])
 679:.\Generated_Source\PSoC4/UART_XB_UART.c ****     {
 616              		.loc 1 679 0
 617              		.cfi_startproc
 618 0000 80B5     		push	{r7, lr}
 619              		.cfi_def_cfa_offset 8
 620              		.cfi_offset 7, -8
 621              		.cfi_offset 14, -4
 622 0002 84B0     		sub	sp, sp, #16
 623              		.cfi_def_cfa_offset 24
 624 0004 00AF     		add	r7, sp, #0
 625              		.cfi_def_cfa_register 7
 626 0006 7860     		str	r0, [r7, #4]
 680:.\Generated_Source\PSoC4/UART_XB_UART.c ****         uint32 bufIndex;
 681:.\Generated_Source\PSoC4/UART_XB_UART.c **** 
 682:.\Generated_Source\PSoC4/UART_XB_UART.c ****         bufIndex = 0u;
 627              		.loc 1 682 0
 628 0008 0023     		mov	r3, #0
 629 000a FB60     		str	r3, [r7, #12]
ARM GAS  C:\Users\Petro\AppData\Local\Temp\ccwZSVKu.s 			page 24


 683:.\Generated_Source\PSoC4/UART_XB_UART.c **** 
 684:.\Generated_Source\PSoC4/UART_XB_UART.c ****         /* Blocks the control flow until all data has been sent */
 685:.\Generated_Source\PSoC4/UART_XB_UART.c ****         while(string[bufIndex] != ((char8) 0))
 630              		.loc 1 685 0
 631 000c 09E0     		b	.L37
 632              	.L38:
 686:.\Generated_Source\PSoC4/UART_XB_UART.c ****         {
 687:.\Generated_Source\PSoC4/UART_XB_UART.c ****             UART_XB_UartPutChar((uint32) string[bufIndex]);
 633              		.loc 1 687 0
 634 000e 7A68     		ldr	r2, [r7, #4]
 635 0010 FB68     		ldr	r3, [r7, #12]
 636 0012 D318     		add	r3, r2, r3
 637 0014 1B78     		ldrb	r3, [r3]
 638 0016 181C     		mov	r0, r3
 639 0018 FFF7FEFF 		bl	UART_XB_SpiUartWriteTxData
 688:.\Generated_Source\PSoC4/UART_XB_UART.c ****             bufIndex++;
 640              		.loc 1 688 0
 641 001c FB68     		ldr	r3, [r7, #12]
 642 001e 0133     		add	r3, r3, #1
 643 0020 FB60     		str	r3, [r7, #12]
 644              	.L37:
 685:.\Generated_Source\PSoC4/UART_XB_UART.c ****         {
 645              		.loc 1 685 0
 646 0022 7A68     		ldr	r2, [r7, #4]
 647 0024 FB68     		ldr	r3, [r7, #12]
 648 0026 D318     		add	r3, r2, r3
 649 0028 1B78     		ldrb	r3, [r3]
 650 002a 002B     		cmp	r3, #0
 651 002c EFD1     		bne	.L38
 689:.\Generated_Source\PSoC4/UART_XB_UART.c ****         }
 690:.\Generated_Source\PSoC4/UART_XB_UART.c ****     }
 652              		.loc 1 690 0
 653 002e BD46     		mov	sp, r7
 654 0030 04B0     		add	sp, sp, #16
 655              		@ sp needed
 656 0032 80BD     		pop	{r7, pc}
 657              		.cfi_endproc
 658              	.LFE11:
 659              		.size	UART_XB_UartPutString, .-UART_XB_UartPutString
 660              		.section	.text.UART_XB_UartPutCRLF,"ax",%progbits
 661              		.align	2
 662              		.global	UART_XB_UartPutCRLF
 663              		.code	16
 664              		.thumb_func
 665              		.type	UART_XB_UartPutCRLF, %function
 666              	UART_XB_UartPutCRLF:
 667              	.LFB12:
 691:.\Generated_Source\PSoC4/UART_XB_UART.c **** 
 692:.\Generated_Source\PSoC4/UART_XB_UART.c **** 
 693:.\Generated_Source\PSoC4/UART_XB_UART.c ****     /*******************************************************************************
 694:.\Generated_Source\PSoC4/UART_XB_UART.c ****     * Function Name: UART_XB_UartPutCRLF
 695:.\Generated_Source\PSoC4/UART_XB_UART.c ****     ****************************************************************************//**
 696:.\Generated_Source\PSoC4/UART_XB_UART.c ****     *
 697:.\Generated_Source\PSoC4/UART_XB_UART.c ****     *  Places byte of data followed by a carriage return (0x0D) and line feed
 698:.\Generated_Source\PSoC4/UART_XB_UART.c ****     *  (0x0A) in the transmit buffer.
 699:.\Generated_Source\PSoC4/UART_XB_UART.c ****     *  This function is blocking and waits until there is a space available to put
 700:.\Generated_Source\PSoC4/UART_XB_UART.c ****     *  all requested data in transmit buffer.
ARM GAS  C:\Users\Petro\AppData\Local\Temp\ccwZSVKu.s 			page 25


 701:.\Generated_Source\PSoC4/UART_XB_UART.c ****     *
 702:.\Generated_Source\PSoC4/UART_XB_UART.c ****     *  \param txDataByte: the data to be transmitted.
 703:.\Generated_Source\PSoC4/UART_XB_UART.c ****     *
 704:.\Generated_Source\PSoC4/UART_XB_UART.c ****     *******************************************************************************/
 705:.\Generated_Source\PSoC4/UART_XB_UART.c ****     void UART_XB_UartPutCRLF(uint32 txDataByte)
 706:.\Generated_Source\PSoC4/UART_XB_UART.c ****     {
 668              		.loc 1 706 0
 669              		.cfi_startproc
 670 0000 80B5     		push	{r7, lr}
 671              		.cfi_def_cfa_offset 8
 672              		.cfi_offset 7, -8
 673              		.cfi_offset 14, -4
 674 0002 82B0     		sub	sp, sp, #8
 675              		.cfi_def_cfa_offset 16
 676 0004 00AF     		add	r7, sp, #0
 677              		.cfi_def_cfa_register 7
 678 0006 7860     		str	r0, [r7, #4]
 707:.\Generated_Source\PSoC4/UART_XB_UART.c ****         UART_XB_UartPutChar(txDataByte);  /* Blocks control flow until all data has been sent */
 679              		.loc 1 707 0
 680 0008 7B68     		ldr	r3, [r7, #4]
 681 000a 181C     		mov	r0, r3
 682 000c FFF7FEFF 		bl	UART_XB_SpiUartWriteTxData
 708:.\Generated_Source\PSoC4/UART_XB_UART.c ****         UART_XB_UartPutChar(0x0Du);       /* Blocks control flow until all data has been sent */
 683              		.loc 1 708 0
 684 0010 0D20     		mov	r0, #13
 685 0012 FFF7FEFF 		bl	UART_XB_SpiUartWriteTxData
 709:.\Generated_Source\PSoC4/UART_XB_UART.c ****         UART_XB_UartPutChar(0x0Au);       /* Blocks control flow until all data has been sent */
 686              		.loc 1 709 0
 687 0016 0A20     		mov	r0, #10
 688 0018 FFF7FEFF 		bl	UART_XB_SpiUartWriteTxData
 710:.\Generated_Source\PSoC4/UART_XB_UART.c ****     }
 689              		.loc 1 710 0
 690 001c BD46     		mov	sp, r7
 691 001e 02B0     		add	sp, sp, #8
 692              		@ sp needed
 693 0020 80BD     		pop	{r7, pc}
 694              		.cfi_endproc
 695              	.LFE12:
 696              		.size	UART_XB_UartPutCRLF, .-UART_XB_UartPutCRLF
 697 0022 C046     		.section	.text.UART_XB_UartEnableCts,"ax",%progbits
 698              		.align	2
 699              		.global	UART_XB_UartEnableCts
 700              		.code	16
 701              		.thumb_func
 702              		.type	UART_XB_UartEnableCts, %function
 703              	UART_XB_UartEnableCts:
 704              	.LFB13:
 711:.\Generated_Source\PSoC4/UART_XB_UART.c **** 
 712:.\Generated_Source\PSoC4/UART_XB_UART.c **** 
 713:.\Generated_Source\PSoC4/UART_XB_UART.c ****     #if !(UART_XB_CY_SCBIP_V0 || UART_XB_CY_SCBIP_V1)
 714:.\Generated_Source\PSoC4/UART_XB_UART.c ****         /*******************************************************************************
 715:.\Generated_Source\PSoC4/UART_XB_UART.c ****         * Function Name: UART_XBSCB_UartEnableCts
 716:.\Generated_Source\PSoC4/UART_XB_UART.c ****         ****************************************************************************//**
 717:.\Generated_Source\PSoC4/UART_XB_UART.c ****         *
 718:.\Generated_Source\PSoC4/UART_XB_UART.c ****         *  Enables usage of CTS input signal by the UART transmitter.
 719:.\Generated_Source\PSoC4/UART_XB_UART.c ****         *  Only available for PSoC 4100 BLE / PSoC 4200 BLE / PSoC 4100M / PSoC 4200M /
 720:.\Generated_Source\PSoC4/UART_XB_UART.c ****         *  PSoC 4200L / PSoC 4000S / PSoC 4100S / PSoC Analog Coprocessor devices.
ARM GAS  C:\Users\Petro\AppData\Local\Temp\ccwZSVKu.s 			page 26


 721:.\Generated_Source\PSoC4/UART_XB_UART.c ****         *
 722:.\Generated_Source\PSoC4/UART_XB_UART.c ****         *******************************************************************************/
 723:.\Generated_Source\PSoC4/UART_XB_UART.c ****         void UART_XB_UartEnableCts(void)
 724:.\Generated_Source\PSoC4/UART_XB_UART.c ****         {
 705              		.loc 1 724 0
 706              		.cfi_startproc
 707 0000 80B5     		push	{r7, lr}
 708              		.cfi_def_cfa_offset 8
 709              		.cfi_offset 7, -8
 710              		.cfi_offset 14, -4
 711 0002 00AF     		add	r7, sp, #0
 712              		.cfi_def_cfa_register 7
 725:.\Generated_Source\PSoC4/UART_XB_UART.c ****             UART_XB_UART_FLOW_CTRL_REG |= (uint32)  UART_XB_UART_FLOW_CTRL_CTS_ENABLE;
 713              		.loc 1 725 0
 714 0004 044B     		ldr	r3, .L41
 715 0006 044A     		ldr	r2, .L41
 716 0008 1268     		ldr	r2, [r2]
 717 000a 8021     		mov	r1, #128
 718 000c 8904     		lsl	r1, r1, #18
 719 000e 0A43     		orr	r2, r1
 720 0010 1A60     		str	r2, [r3]
 726:.\Generated_Source\PSoC4/UART_XB_UART.c ****         }
 721              		.loc 1 726 0
 722 0012 BD46     		mov	sp, r7
 723              		@ sp needed
 724 0014 80BD     		pop	{r7, pc}
 725              	.L42:
 726 0016 C046     		.align	2
 727              	.L41:
 728 0018 50002540 		.word	1076166736
 729              		.cfi_endproc
 730              	.LFE13:
 731              		.size	UART_XB_UartEnableCts, .-UART_XB_UartEnableCts
 732              		.section	.text.UART_XB_UartDisableCts,"ax",%progbits
 733              		.align	2
 734              		.global	UART_XB_UartDisableCts
 735              		.code	16
 736              		.thumb_func
 737              		.type	UART_XB_UartDisableCts, %function
 738              	UART_XB_UartDisableCts:
 739              	.LFB14:
 727:.\Generated_Source\PSoC4/UART_XB_UART.c **** 
 728:.\Generated_Source\PSoC4/UART_XB_UART.c **** 
 729:.\Generated_Source\PSoC4/UART_XB_UART.c ****         /*******************************************************************************
 730:.\Generated_Source\PSoC4/UART_XB_UART.c ****         * Function Name: UART_XB_UartDisableCts
 731:.\Generated_Source\PSoC4/UART_XB_UART.c ****         ****************************************************************************//**
 732:.\Generated_Source\PSoC4/UART_XB_UART.c ****         *
 733:.\Generated_Source\PSoC4/UART_XB_UART.c ****         *  Disables usage of CTS input signal by the UART transmitter.
 734:.\Generated_Source\PSoC4/UART_XB_UART.c ****         *  Only available for PSoC 4100 BLE / PSoC 4200 BLE / PSoC 4100M / PSoC 4200M /
 735:.\Generated_Source\PSoC4/UART_XB_UART.c ****         *  PSoC 4200L / PSoC 4000S / PSoC 4100S / PSoC Analog Coprocessor devices.
 736:.\Generated_Source\PSoC4/UART_XB_UART.c ****         *
 737:.\Generated_Source\PSoC4/UART_XB_UART.c ****         *******************************************************************************/
 738:.\Generated_Source\PSoC4/UART_XB_UART.c ****         void UART_XB_UartDisableCts(void)
 739:.\Generated_Source\PSoC4/UART_XB_UART.c ****         {
 740              		.loc 1 739 0
 741              		.cfi_startproc
 742 0000 80B5     		push	{r7, lr}
ARM GAS  C:\Users\Petro\AppData\Local\Temp\ccwZSVKu.s 			page 27


 743              		.cfi_def_cfa_offset 8
 744              		.cfi_offset 7, -8
 745              		.cfi_offset 14, -4
 746 0002 00AF     		add	r7, sp, #0
 747              		.cfi_def_cfa_register 7
 740:.\Generated_Source\PSoC4/UART_XB_UART.c ****             UART_XB_UART_FLOW_CTRL_REG &= (uint32) ~UART_XB_UART_FLOW_CTRL_CTS_ENABLE;
 748              		.loc 1 740 0
 749 0004 034B     		ldr	r3, .L44
 750 0006 034A     		ldr	r2, .L44
 751 0008 1268     		ldr	r2, [r2]
 752 000a 0349     		ldr	r1, .L44+4
 753 000c 0A40     		and	r2, r1
 754 000e 1A60     		str	r2, [r3]
 741:.\Generated_Source\PSoC4/UART_XB_UART.c ****         }
 755              		.loc 1 741 0
 756 0010 BD46     		mov	sp, r7
 757              		@ sp needed
 758 0012 80BD     		pop	{r7, pc}
 759              	.L45:
 760              		.align	2
 761              	.L44:
 762 0014 50002540 		.word	1076166736
 763 0018 FFFFFFFD 		.word	-33554433
 764              		.cfi_endproc
 765              	.LFE14:
 766              		.size	UART_XB_UartDisableCts, .-UART_XB_UartDisableCts
 767              		.section	.text.UART_XB_UartSetCtsPolarity,"ax",%progbits
 768              		.align	2
 769              		.global	UART_XB_UartSetCtsPolarity
 770              		.code	16
 771              		.thumb_func
 772              		.type	UART_XB_UartSetCtsPolarity, %function
 773              	UART_XB_UartSetCtsPolarity:
 774              	.LFB15:
 742:.\Generated_Source\PSoC4/UART_XB_UART.c **** 
 743:.\Generated_Source\PSoC4/UART_XB_UART.c **** 
 744:.\Generated_Source\PSoC4/UART_XB_UART.c ****         /*******************************************************************************
 745:.\Generated_Source\PSoC4/UART_XB_UART.c ****         * Function Name: UART_XB_UartSetCtsPolarity
 746:.\Generated_Source\PSoC4/UART_XB_UART.c ****         ****************************************************************************//**
 747:.\Generated_Source\PSoC4/UART_XB_UART.c ****         *
 748:.\Generated_Source\PSoC4/UART_XB_UART.c ****         *  Sets active polarity of CTS input signal.
 749:.\Generated_Source\PSoC4/UART_XB_UART.c ****         *  Only available for PSoC 4100 BLE / PSoC 4200 BLE / PSoC 4100M / PSoC 4200M /
 750:.\Generated_Source\PSoC4/UART_XB_UART.c ****         *  PSoC 4200L / PSoC 4000S / PSoC 4100S / PSoC Analog Coprocessor devices.
 751:.\Generated_Source\PSoC4/UART_XB_UART.c ****         *
 752:.\Generated_Source\PSoC4/UART_XB_UART.c ****         *  \param polarity: Active polarity of CTS output signal.
 753:.\Generated_Source\PSoC4/UART_XB_UART.c ****         *   - UART_XB_UART_CTS_ACTIVE_LOW  - CTS signal is active low.
 754:.\Generated_Source\PSoC4/UART_XB_UART.c ****         *   - UART_XB_UART_CTS_ACTIVE_HIGH - CTS signal is active high.
 755:.\Generated_Source\PSoC4/UART_XB_UART.c ****         *
 756:.\Generated_Source\PSoC4/UART_XB_UART.c ****         *******************************************************************************/
 757:.\Generated_Source\PSoC4/UART_XB_UART.c ****         void UART_XB_UartSetCtsPolarity(uint32 polarity)
 758:.\Generated_Source\PSoC4/UART_XB_UART.c ****         {
 775              		.loc 1 758 0
 776              		.cfi_startproc
 777 0000 80B5     		push	{r7, lr}
 778              		.cfi_def_cfa_offset 8
 779              		.cfi_offset 7, -8
 780              		.cfi_offset 14, -4
ARM GAS  C:\Users\Petro\AppData\Local\Temp\ccwZSVKu.s 			page 28


 781 0002 82B0     		sub	sp, sp, #8
 782              		.cfi_def_cfa_offset 16
 783 0004 00AF     		add	r7, sp, #0
 784              		.cfi_def_cfa_register 7
 785 0006 7860     		str	r0, [r7, #4]
 759:.\Generated_Source\PSoC4/UART_XB_UART.c ****             if (0u != polarity)
 786              		.loc 1 759 0
 787 0008 7B68     		ldr	r3, [r7, #4]
 788 000a 002B     		cmp	r3, #0
 789 000c 07D0     		beq	.L47
 760:.\Generated_Source\PSoC4/UART_XB_UART.c ****             {
 761:.\Generated_Source\PSoC4/UART_XB_UART.c ****                 UART_XB_UART_FLOW_CTRL_REG |= (uint32)  UART_XB_UART_FLOW_CTRL_CTS_POLARITY;
 790              		.loc 1 761 0
 791 000e 084B     		ldr	r3, .L49
 792 0010 074A     		ldr	r2, .L49
 793 0012 1268     		ldr	r2, [r2]
 794 0014 8021     		mov	r1, #128
 795 0016 4904     		lsl	r1, r1, #17
 796 0018 0A43     		orr	r2, r1
 797 001a 1A60     		str	r2, [r3]
 798 001c 05E0     		b	.L46
 799              	.L47:
 762:.\Generated_Source\PSoC4/UART_XB_UART.c ****             }
 763:.\Generated_Source\PSoC4/UART_XB_UART.c ****             else
 764:.\Generated_Source\PSoC4/UART_XB_UART.c ****             {
 765:.\Generated_Source\PSoC4/UART_XB_UART.c ****                 UART_XB_UART_FLOW_CTRL_REG &= (uint32) ~UART_XB_UART_FLOW_CTRL_CTS_POLARITY;
 800              		.loc 1 765 0
 801 001e 044B     		ldr	r3, .L49
 802 0020 034A     		ldr	r2, .L49
 803 0022 1268     		ldr	r2, [r2]
 804 0024 0349     		ldr	r1, .L49+4
 805 0026 0A40     		and	r2, r1
 806 0028 1A60     		str	r2, [r3]
 807              	.L46:
 766:.\Generated_Source\PSoC4/UART_XB_UART.c ****             }
 767:.\Generated_Source\PSoC4/UART_XB_UART.c ****         }
 808              		.loc 1 767 0
 809 002a BD46     		mov	sp, r7
 810 002c 02B0     		add	sp, sp, #8
 811              		@ sp needed
 812 002e 80BD     		pop	{r7, pc}
 813              	.L50:
 814              		.align	2
 815              	.L49:
 816 0030 50002540 		.word	1076166736
 817 0034 FFFFFFFE 		.word	-16777217
 818              		.cfi_endproc
 819              	.LFE15:
 820              		.size	UART_XB_UartSetCtsPolarity, .-UART_XB_UartSetCtsPolarity
 821              		.text
 822              	.Letext0:
 823              		.file 2 "Generated_Source\\PSoC4/cytypes.h"
 824              		.file 3 ".\\Generated_Source\\PSoC4\\UART_XB_PVT.h"
 825              		.file 4 ".\\Generated_Source\\PSoC4\\UART_XB_SPI_UART_PVT.h"
 826              		.section	.debug_info,"",%progbits
 827              	.Ldebug_info0:
 828 0000 19030000 		.4byte	0x319
ARM GAS  C:\Users\Petro\AppData\Local\Temp\ccwZSVKu.s 			page 29


 829 0004 0400     		.2byte	0x4
 830 0006 00000000 		.4byte	.Ldebug_abbrev0
 831 000a 04       		.byte	0x4
 832 000b 01       		.uleb128 0x1
 833 000c 10020000 		.4byte	.LASF49
 834 0010 01       		.byte	0x1
 835 0011 CA020000 		.4byte	.LASF50
 836 0015 CC000000 		.4byte	.LASF51
 837 0019 00000000 		.4byte	.Ldebug_ranges0+0
 838 001d 00000000 		.4byte	0
 839 0021 00000000 		.4byte	.Ldebug_line0
 840 0025 02       		.uleb128 0x2
 841 0026 01       		.byte	0x1
 842 0027 06       		.byte	0x6
 843 0028 88030000 		.4byte	.LASF0
 844 002c 02       		.uleb128 0x2
 845 002d 01       		.byte	0x1
 846 002e 08       		.byte	0x8
 847 002f 40010000 		.4byte	.LASF1
 848 0033 02       		.uleb128 0x2
 849 0034 02       		.byte	0x2
 850 0035 05       		.byte	0x5
 851 0036 49030000 		.4byte	.LASF2
 852 003a 02       		.uleb128 0x2
 853 003b 02       		.byte	0x2
 854 003c 07       		.byte	0x7
 855 003d 7E000000 		.4byte	.LASF3
 856 0041 02       		.uleb128 0x2
 857 0042 04       		.byte	0x4
 858 0043 05       		.byte	0x5
 859 0044 6C030000 		.4byte	.LASF4
 860 0048 02       		.uleb128 0x2
 861 0049 04       		.byte	0x4
 862 004a 07       		.byte	0x7
 863 004b 6B010000 		.4byte	.LASF5
 864 004f 02       		.uleb128 0x2
 865 0050 08       		.byte	0x8
 866 0051 05       		.byte	0x5
 867 0052 00000000 		.4byte	.LASF6
 868 0056 02       		.uleb128 0x2
 869 0057 08       		.byte	0x8
 870 0058 07       		.byte	0x7
 871 0059 B3020000 		.4byte	.LASF7
 872 005d 03       		.uleb128 0x3
 873 005e 04       		.byte	0x4
 874 005f 05       		.byte	0x5
 875 0060 696E7400 		.ascii	"int\000"
 876 0064 02       		.uleb128 0x2
 877 0065 04       		.byte	0x4
 878 0066 07       		.byte	0x7
 879 0067 9E020000 		.4byte	.LASF8
 880 006b 04       		.uleb128 0x4
 881 006c 7D010000 		.4byte	.LASF9
 882 0070 02       		.byte	0x2
 883 0071 9801     		.2byte	0x198
 884 0073 2C000000 		.4byte	0x2c
 885 0077 04       		.uleb128 0x4
ARM GAS  C:\Users\Petro\AppData\Local\Temp\ccwZSVKu.s 			page 30


 886 0078 02020000 		.4byte	.LASF10
 887 007c 02       		.byte	0x2
 888 007d 9901     		.2byte	0x199
 889 007f 3A000000 		.4byte	0x3a
 890 0083 04       		.uleb128 0x4
 891 0084 09020000 		.4byte	.LASF11
 892 0088 02       		.byte	0x2
 893 0089 9A01     		.2byte	0x19a
 894 008b 48000000 		.4byte	0x48
 895 008f 02       		.uleb128 0x2
 896 0090 04       		.byte	0x4
 897 0091 04       		.byte	0x4
 898 0092 C6000000 		.4byte	.LASF12
 899 0096 02       		.uleb128 0x2
 900 0097 08       		.byte	0x8
 901 0098 04       		.byte	0x4
 902 0099 E7010000 		.4byte	.LASF13
 903 009d 04       		.uleb128 0x4
 904 009e 4E010000 		.4byte	.LASF14
 905 00a2 02       		.byte	0x2
 906 00a3 A901     		.2byte	0x1a9
 907 00a5 A9000000 		.4byte	0xa9
 908 00a9 02       		.uleb128 0x2
 909 00aa 01       		.byte	0x1
 910 00ab 08       		.byte	0x8
 911 00ac 33030000 		.4byte	.LASF15
 912 00b0 05       		.uleb128 0x5
 913 00b1 6B000000 		.4byte	0x6b
 914 00b5 04       		.uleb128 0x4
 915 00b6 22000000 		.4byte	.LASF16
 916 00ba 02       		.byte	0x2
 917 00bb 4402     		.2byte	0x244
 918 00bd C1000000 		.4byte	0xc1
 919 00c1 05       		.uleb128 0x5
 920 00c2 83000000 		.4byte	0x83
 921 00c6 02       		.uleb128 0x2
 922 00c7 04       		.byte	0x4
 923 00c8 07       		.byte	0x7
 924 00c9 1F030000 		.4byte	.LASF17
 925 00cd 06       		.uleb128 0x6
 926 00ce C0010000 		.4byte	.LASF18
 927 00d2 01       		.byte	0x1
 928 00d3 F5       		.byte	0xf5
 929 00d4 00000000 		.4byte	.LFB2
 930 00d8 0C010000 		.4byte	.LFE2-.LFB2
 931 00dc 01       		.uleb128 0x1
 932 00dd 9C       		.byte	0x9c
 933 00de 07       		.uleb128 0x7
 934 00df 54010000 		.4byte	.LASF19
 935 00e3 01       		.byte	0x1
 936 00e4 3B01     		.2byte	0x13b
 937 00e6 00000000 		.4byte	.LFB3
 938 00ea 2C000000 		.4byte	.LFE3-.LFB3
 939 00ee 01       		.uleb128 0x1
 940 00ef 9C       		.byte	0x9c
 941 00f0 07       		.uleb128 0x7
 942 00f1 38030000 		.4byte	.LASF20
ARM GAS  C:\Users\Petro\AppData\Local\Temp\ccwZSVKu.s 			page 31


 943 00f5 01       		.byte	0x1
 944 00f6 6F01     		.2byte	0x16f
 945 00f8 00000000 		.4byte	.LFB4
 946 00fc 34000000 		.4byte	.LFE4-.LFB4
 947 0100 01       		.uleb128 0x1
 948 0101 9C       		.byte	0x9c
 949 0102 08       		.uleb128 0x8
 950 0103 53030000 		.4byte	.LASF21
 951 0107 01       		.byte	0x1
 952 0108 AF01     		.2byte	0x1af
 953 010a 00000000 		.4byte	.LFB5
 954 010e 34000000 		.4byte	.LFE5-.LFB5
 955 0112 01       		.uleb128 0x1
 956 0113 9C       		.byte	0x9c
 957 0114 37010000 		.4byte	0x137
 958 0118 09       		.uleb128 0x9
 959 0119 AB020000 		.4byte	.LASF23
 960 011d 01       		.byte	0x1
 961 011e AF01     		.2byte	0x1af
 962 0120 83000000 		.4byte	0x83
 963 0124 02       		.uleb128 0x2
 964 0125 91       		.byte	0x91
 965 0126 6C       		.sleb128 -20
 966 0127 0A       		.uleb128 0xa
 967 0128 7F030000 		.4byte	.LASF25
 968 012c 01       		.byte	0x1
 969 012d B101     		.2byte	0x1b1
 970 012f 83000000 		.4byte	0x83
 971 0133 02       		.uleb128 0x2
 972 0134 91       		.byte	0x91
 973 0135 74       		.sleb128 -12
 974 0136 00       		.byte	0
 975 0137 08       		.uleb128 0x8
 976 0138 28000000 		.4byte	.LASF22
 977 013c 01       		.byte	0x1
 978 013d C801     		.2byte	0x1c8
 979 013f 00000000 		.4byte	.LFB6
 980 0143 34000000 		.4byte	.LFE6-.LFB6
 981 0147 01       		.uleb128 0x1
 982 0148 9C       		.byte	0x9c
 983 0149 6C010000 		.4byte	0x16c
 984 014d 09       		.uleb128 0x9
 985 014e 9F010000 		.4byte	.LASF24
 986 0152 01       		.byte	0x1
 987 0153 C801     		.2byte	0x1c8
 988 0155 83000000 		.4byte	0x83
 989 0159 02       		.uleb128 0x2
 990 015a 91       		.byte	0x91
 991 015b 6C       		.sleb128 -20
 992 015c 0A       		.uleb128 0xa
 993 015d 7F030000 		.4byte	.LASF25
 994 0161 01       		.byte	0x1
 995 0162 CA01     		.2byte	0x1ca
 996 0164 83000000 		.4byte	0x83
 997 0168 02       		.uleb128 0x2
 998 0169 91       		.byte	0x91
 999 016a 74       		.sleb128 -12
ARM GAS  C:\Users\Petro\AppData\Local\Temp\ccwZSVKu.s 			page 32


 1000 016b 00       		.byte	0
 1001 016c 0B       		.uleb128 0xb
 1002 016d 2C010000 		.4byte	.LASF27
 1003 0171 01       		.byte	0x1
 1004 0172 F001     		.2byte	0x1f0
 1005 0174 83000000 		.4byte	0x83
 1006 0178 00000000 		.4byte	.LFB7
 1007 017c 40000000 		.4byte	.LFE7-.LFB7
 1008 0180 01       		.uleb128 0x1
 1009 0181 9C       		.byte	0x9c
 1010 0182 96010000 		.4byte	0x196
 1011 0186 0A       		.uleb128 0xa
 1012 0187 98010000 		.4byte	.LASF26
 1013 018b 01       		.byte	0x1
 1014 018c F201     		.2byte	0x1f2
 1015 018e 83000000 		.4byte	0x83
 1016 0192 02       		.uleb128 0x2
 1017 0193 91       		.byte	0x91
 1018 0194 74       		.sleb128 -12
 1019 0195 00       		.byte	0
 1020 0196 0B       		.uleb128 0xb
 1021 0197 EE010000 		.4byte	.LASF28
 1022 019b 01       		.byte	0x1
 1023 019c 2202     		.2byte	0x222
 1024 019e 83000000 		.4byte	0x83
 1025 01a2 00000000 		.4byte	.LFB8
 1026 01a6 68000000 		.4byte	.LFE8-.LFB8
 1027 01aa 01       		.uleb128 0x1
 1028 01ab 9C       		.byte	0x9c
 1029 01ac CF010000 		.4byte	0x1cf
 1030 01b0 0A       		.uleb128 0xa
 1031 01b1 98010000 		.4byte	.LASF26
 1032 01b5 01       		.byte	0x1
 1033 01b6 2402     		.2byte	0x224
 1034 01b8 83000000 		.4byte	0x83
 1035 01bc 02       		.uleb128 0x2
 1036 01bd 91       		.byte	0x91
 1037 01be 74       		.sleb128 -12
 1038 01bf 0A       		.uleb128 0xa
 1039 01c0 75030000 		.4byte	.LASF29
 1040 01c4 01       		.byte	0x1
 1041 01c5 2502     		.2byte	0x225
 1042 01c7 83000000 		.4byte	0x83
 1043 01cb 02       		.uleb128 0x2
 1044 01cc 91       		.byte	0x91
 1045 01cd 70       		.sleb128 -16
 1046 01ce 00       		.byte	0
 1047 01cf 08       		.uleb128 0x8
 1048 01d0 04030000 		.4byte	.LASF30
 1049 01d4 01       		.byte	0x1
 1050 01d5 6C02     		.2byte	0x26c
 1051 01d7 00000000 		.4byte	.LFB9
 1052 01db 38000000 		.4byte	.LFE9-.LFB9
 1053 01df 01       		.uleb128 0x1
 1054 01e0 9C       		.byte	0x9c
 1055 01e1 F5010000 		.4byte	0x1f5
 1056 01e5 09       		.uleb128 0x9
ARM GAS  C:\Users\Petro\AppData\Local\Temp\ccwZSVKu.s 			page 33


 1057 01e6 F2020000 		.4byte	.LASF31
 1058 01ea 01       		.byte	0x1
 1059 01eb 6C02     		.2byte	0x26c
 1060 01ed 83000000 		.4byte	0x83
 1061 01f1 02       		.uleb128 0x2
 1062 01f2 91       		.byte	0x91
 1063 01f3 74       		.sleb128 -12
 1064 01f4 00       		.byte	0
 1065 01f5 08       		.uleb128 0x8
 1066 01f6 45000000 		.4byte	.LASF32
 1067 01fa 01       		.byte	0x1
 1068 01fb 8802     		.2byte	0x288
 1069 01fd 00000000 		.4byte	.LFB10
 1070 0201 34000000 		.4byte	.LFE10-.LFB10
 1071 0205 01       		.uleb128 0x1
 1072 0206 9C       		.byte	0x9c
 1073 0207 2A020000 		.4byte	0x22a
 1074 020b 09       		.uleb128 0x9
 1075 020c 61000000 		.4byte	.LASF33
 1076 0210 01       		.byte	0x1
 1077 0211 8802     		.2byte	0x288
 1078 0213 83000000 		.4byte	0x83
 1079 0217 02       		.uleb128 0x2
 1080 0218 91       		.byte	0x91
 1081 0219 6C       		.sleb128 -20
 1082 021a 0A       		.uleb128 0xa
 1083 021b BF030000 		.4byte	.LASF34
 1084 021f 01       		.byte	0x1
 1085 0220 8A02     		.2byte	0x28a
 1086 0222 83000000 		.4byte	0x83
 1087 0226 02       		.uleb128 0x2
 1088 0227 91       		.byte	0x91
 1089 0228 74       		.sleb128 -12
 1090 0229 00       		.byte	0
 1091 022a 0C       		.uleb128 0xc
 1092 022b D1010000 		.4byte	.LASF35
 1093 022f 01       		.byte	0x1
 1094 0230 A602     		.2byte	0x2a6
 1095 0232 00000000 		.4byte	.LFB11
 1096 0236 34000000 		.4byte	.LFE11-.LFB11
 1097 023a 01       		.uleb128 0x1
 1098 023b 9C       		.byte	0x9c
 1099 023c 5F020000 		.4byte	0x25f
 1100 0240 09       		.uleb128 0x9
 1101 0241 BF000000 		.4byte	.LASF36
 1102 0245 01       		.byte	0x1
 1103 0246 A602     		.2byte	0x2a6
 1104 0248 5F020000 		.4byte	0x25f
 1105 024c 02       		.uleb128 0x2
 1106 024d 91       		.byte	0x91
 1107 024e 6C       		.sleb128 -20
 1108 024f 0A       		.uleb128 0xa
 1109 0250 FB020000 		.4byte	.LASF37
 1110 0254 01       		.byte	0x1
 1111 0255 A802     		.2byte	0x2a8
 1112 0257 83000000 		.4byte	0x83
 1113 025b 02       		.uleb128 0x2
ARM GAS  C:\Users\Petro\AppData\Local\Temp\ccwZSVKu.s 			page 34


 1114 025c 91       		.byte	0x91
 1115 025d 74       		.sleb128 -12
 1116 025e 00       		.byte	0
 1117 025f 0D       		.uleb128 0xd
 1118 0260 04       		.byte	0x4
 1119 0261 65020000 		.4byte	0x265
 1120 0265 0E       		.uleb128 0xe
 1121 0266 9D000000 		.4byte	0x9d
 1122 026a 0C       		.uleb128 0xc
 1123 026b 0E000000 		.4byte	.LASF38
 1124 026f 01       		.byte	0x1
 1125 0270 C102     		.2byte	0x2c1
 1126 0272 00000000 		.4byte	.LFB12
 1127 0276 22000000 		.4byte	.LFE12-.LFB12
 1128 027a 01       		.uleb128 0x1
 1129 027b 9C       		.byte	0x9c
 1130 027c 90020000 		.4byte	0x290
 1131 0280 09       		.uleb128 0x9
 1132 0281 28030000 		.4byte	.LASF39
 1133 0285 01       		.byte	0x1
 1134 0286 C102     		.2byte	0x2c1
 1135 0288 83000000 		.4byte	0x83
 1136 028c 02       		.uleb128 0x2
 1137 028d 91       		.byte	0x91
 1138 028e 74       		.sleb128 -12
 1139 028f 00       		.byte	0
 1140 0290 07       		.uleb128 0x7
 1141 0291 94030000 		.4byte	.LASF40
 1142 0295 01       		.byte	0x1
 1143 0296 D302     		.2byte	0x2d3
 1144 0298 00000000 		.4byte	.LFB13
 1145 029c 1C000000 		.4byte	.LFE13-.LFB13
 1146 02a0 01       		.uleb128 0x1
 1147 02a1 9C       		.byte	0x9c
 1148 02a2 07       		.uleb128 0x7
 1149 02a3 67000000 		.4byte	.LASF41
 1150 02a7 01       		.byte	0x1
 1151 02a8 E202     		.2byte	0x2e2
 1152 02aa 00000000 		.4byte	.LFB14
 1153 02ae 1C000000 		.4byte	.LFE14-.LFB14
 1154 02b2 01       		.uleb128 0x1
 1155 02b3 9C       		.byte	0x9c
 1156 02b4 08       		.uleb128 0x8
 1157 02b5 A4000000 		.4byte	.LASF42
 1158 02b9 01       		.byte	0x1
 1159 02ba F502     		.2byte	0x2f5
 1160 02bc 00000000 		.4byte	.LFB15
 1161 02c0 38000000 		.4byte	.LFE15-.LFB15
 1162 02c4 01       		.uleb128 0x1
 1163 02c5 9C       		.byte	0x9c
 1164 02c6 DA020000 		.4byte	0x2da
 1165 02ca 09       		.uleb128 0x9
 1166 02cb F2020000 		.4byte	.LASF31
 1167 02cf 01       		.byte	0x1
 1168 02d0 F502     		.2byte	0x2f5
 1169 02d2 83000000 		.4byte	0x83
 1170 02d6 02       		.uleb128 0x2
ARM GAS  C:\Users\Petro\AppData\Local\Temp\ccwZSVKu.s 			page 35


 1171 02d7 91       		.byte	0x91
 1172 02d8 74       		.sleb128 -12
 1173 02d9 00       		.byte	0
 1174 02da 0F       		.uleb128 0xf
 1175 02db 91000000 		.4byte	.LASF43
 1176 02df 03       		.byte	0x3
 1177 02e0 5B       		.byte	0x5b
 1178 02e1 77000000 		.4byte	0x77
 1179 02e5 0F       		.uleb128 0xf
 1180 02e6 CC030000 		.4byte	.LASF44
 1181 02ea 04       		.byte	0x4
 1182 02eb 1F       		.byte	0x1f
 1183 02ec C1000000 		.4byte	0xc1
 1184 02f0 0F       		.uleb128 0xf
 1185 02f1 AB010000 		.4byte	.LASF45
 1186 02f5 04       		.byte	0x4
 1187 02f6 20       		.byte	0x20
 1188 02f7 C1000000 		.4byte	0xc1
 1189 02fb 0F       		.uleb128 0xf
 1190 02fc E1030000 		.4byte	.LASF46
 1191 0300 04       		.byte	0x4
 1192 0301 2A       		.byte	0x2a
 1193 0302 B0000000 		.4byte	0xb0
 1194 0306 0F       		.uleb128 0xf
 1195 0307 AA030000 		.4byte	.LASF47
 1196 030b 04       		.byte	0x4
 1197 030c 2F       		.byte	0x2f
 1198 030d C1000000 		.4byte	0xc1
 1199 0311 0F       		.uleb128 0xf
 1200 0312 83010000 		.4byte	.LASF48
 1201 0316 04       		.byte	0x4
 1202 0317 30       		.byte	0x30
 1203 0318 C1000000 		.4byte	0xc1
 1204 031c 00       		.byte	0
 1205              		.section	.debug_abbrev,"",%progbits
 1206              	.Ldebug_abbrev0:
 1207 0000 01       		.uleb128 0x1
 1208 0001 11       		.uleb128 0x11
 1209 0002 01       		.byte	0x1
 1210 0003 25       		.uleb128 0x25
 1211 0004 0E       		.uleb128 0xe
 1212 0005 13       		.uleb128 0x13
 1213 0006 0B       		.uleb128 0xb
 1214 0007 03       		.uleb128 0x3
 1215 0008 0E       		.uleb128 0xe
 1216 0009 1B       		.uleb128 0x1b
 1217 000a 0E       		.uleb128 0xe
 1218 000b 55       		.uleb128 0x55
 1219 000c 17       		.uleb128 0x17
 1220 000d 11       		.uleb128 0x11
 1221 000e 01       		.uleb128 0x1
 1222 000f 10       		.uleb128 0x10
 1223 0010 17       		.uleb128 0x17
 1224 0011 00       		.byte	0
 1225 0012 00       		.byte	0
 1226 0013 02       		.uleb128 0x2
 1227 0014 24       		.uleb128 0x24
ARM GAS  C:\Users\Petro\AppData\Local\Temp\ccwZSVKu.s 			page 36


 1228 0015 00       		.byte	0
 1229 0016 0B       		.uleb128 0xb
 1230 0017 0B       		.uleb128 0xb
 1231 0018 3E       		.uleb128 0x3e
 1232 0019 0B       		.uleb128 0xb
 1233 001a 03       		.uleb128 0x3
 1234 001b 0E       		.uleb128 0xe
 1235 001c 00       		.byte	0
 1236 001d 00       		.byte	0
 1237 001e 03       		.uleb128 0x3
 1238 001f 24       		.uleb128 0x24
 1239 0020 00       		.byte	0
 1240 0021 0B       		.uleb128 0xb
 1241 0022 0B       		.uleb128 0xb
 1242 0023 3E       		.uleb128 0x3e
 1243 0024 0B       		.uleb128 0xb
 1244 0025 03       		.uleb128 0x3
 1245 0026 08       		.uleb128 0x8
 1246 0027 00       		.byte	0
 1247 0028 00       		.byte	0
 1248 0029 04       		.uleb128 0x4
 1249 002a 16       		.uleb128 0x16
 1250 002b 00       		.byte	0
 1251 002c 03       		.uleb128 0x3
 1252 002d 0E       		.uleb128 0xe
 1253 002e 3A       		.uleb128 0x3a
 1254 002f 0B       		.uleb128 0xb
 1255 0030 3B       		.uleb128 0x3b
 1256 0031 05       		.uleb128 0x5
 1257 0032 49       		.uleb128 0x49
 1258 0033 13       		.uleb128 0x13
 1259 0034 00       		.byte	0
 1260 0035 00       		.byte	0
 1261 0036 05       		.uleb128 0x5
 1262 0037 35       		.uleb128 0x35
 1263 0038 00       		.byte	0
 1264 0039 49       		.uleb128 0x49
 1265 003a 13       		.uleb128 0x13
 1266 003b 00       		.byte	0
 1267 003c 00       		.byte	0
 1268 003d 06       		.uleb128 0x6
 1269 003e 2E       		.uleb128 0x2e
 1270 003f 00       		.byte	0
 1271 0040 3F       		.uleb128 0x3f
 1272 0041 19       		.uleb128 0x19
 1273 0042 03       		.uleb128 0x3
 1274 0043 0E       		.uleb128 0xe
 1275 0044 3A       		.uleb128 0x3a
 1276 0045 0B       		.uleb128 0xb
 1277 0046 3B       		.uleb128 0x3b
 1278 0047 0B       		.uleb128 0xb
 1279 0048 27       		.uleb128 0x27
 1280 0049 19       		.uleb128 0x19
 1281 004a 11       		.uleb128 0x11
 1282 004b 01       		.uleb128 0x1
 1283 004c 12       		.uleb128 0x12
 1284 004d 06       		.uleb128 0x6
ARM GAS  C:\Users\Petro\AppData\Local\Temp\ccwZSVKu.s 			page 37


 1285 004e 40       		.uleb128 0x40
 1286 004f 18       		.uleb128 0x18
 1287 0050 9642     		.uleb128 0x2116
 1288 0052 19       		.uleb128 0x19
 1289 0053 00       		.byte	0
 1290 0054 00       		.byte	0
 1291 0055 07       		.uleb128 0x7
 1292 0056 2E       		.uleb128 0x2e
 1293 0057 00       		.byte	0
 1294 0058 3F       		.uleb128 0x3f
 1295 0059 19       		.uleb128 0x19
 1296 005a 03       		.uleb128 0x3
 1297 005b 0E       		.uleb128 0xe
 1298 005c 3A       		.uleb128 0x3a
 1299 005d 0B       		.uleb128 0xb
 1300 005e 3B       		.uleb128 0x3b
 1301 005f 05       		.uleb128 0x5
 1302 0060 27       		.uleb128 0x27
 1303 0061 19       		.uleb128 0x19
 1304 0062 11       		.uleb128 0x11
 1305 0063 01       		.uleb128 0x1
 1306 0064 12       		.uleb128 0x12
 1307 0065 06       		.uleb128 0x6
 1308 0066 40       		.uleb128 0x40
 1309 0067 18       		.uleb128 0x18
 1310 0068 9742     		.uleb128 0x2117
 1311 006a 19       		.uleb128 0x19
 1312 006b 00       		.byte	0
 1313 006c 00       		.byte	0
 1314 006d 08       		.uleb128 0x8
 1315 006e 2E       		.uleb128 0x2e
 1316 006f 01       		.byte	0x1
 1317 0070 3F       		.uleb128 0x3f
 1318 0071 19       		.uleb128 0x19
 1319 0072 03       		.uleb128 0x3
 1320 0073 0E       		.uleb128 0xe
 1321 0074 3A       		.uleb128 0x3a
 1322 0075 0B       		.uleb128 0xb
 1323 0076 3B       		.uleb128 0x3b
 1324 0077 05       		.uleb128 0x5
 1325 0078 27       		.uleb128 0x27
 1326 0079 19       		.uleb128 0x19
 1327 007a 11       		.uleb128 0x11
 1328 007b 01       		.uleb128 0x1
 1329 007c 12       		.uleb128 0x12
 1330 007d 06       		.uleb128 0x6
 1331 007e 40       		.uleb128 0x40
 1332 007f 18       		.uleb128 0x18
 1333 0080 9742     		.uleb128 0x2117
 1334 0082 19       		.uleb128 0x19
 1335 0083 01       		.uleb128 0x1
 1336 0084 13       		.uleb128 0x13
 1337 0085 00       		.byte	0
 1338 0086 00       		.byte	0
 1339 0087 09       		.uleb128 0x9
 1340 0088 05       		.uleb128 0x5
 1341 0089 00       		.byte	0
ARM GAS  C:\Users\Petro\AppData\Local\Temp\ccwZSVKu.s 			page 38


 1342 008a 03       		.uleb128 0x3
 1343 008b 0E       		.uleb128 0xe
 1344 008c 3A       		.uleb128 0x3a
 1345 008d 0B       		.uleb128 0xb
 1346 008e 3B       		.uleb128 0x3b
 1347 008f 05       		.uleb128 0x5
 1348 0090 49       		.uleb128 0x49
 1349 0091 13       		.uleb128 0x13
 1350 0092 02       		.uleb128 0x2
 1351 0093 18       		.uleb128 0x18
 1352 0094 00       		.byte	0
 1353 0095 00       		.byte	0
 1354 0096 0A       		.uleb128 0xa
 1355 0097 34       		.uleb128 0x34
 1356 0098 00       		.byte	0
 1357 0099 03       		.uleb128 0x3
 1358 009a 0E       		.uleb128 0xe
 1359 009b 3A       		.uleb128 0x3a
 1360 009c 0B       		.uleb128 0xb
 1361 009d 3B       		.uleb128 0x3b
 1362 009e 05       		.uleb128 0x5
 1363 009f 49       		.uleb128 0x49
 1364 00a0 13       		.uleb128 0x13
 1365 00a1 02       		.uleb128 0x2
 1366 00a2 18       		.uleb128 0x18
 1367 00a3 00       		.byte	0
 1368 00a4 00       		.byte	0
 1369 00a5 0B       		.uleb128 0xb
 1370 00a6 2E       		.uleb128 0x2e
 1371 00a7 01       		.byte	0x1
 1372 00a8 3F       		.uleb128 0x3f
 1373 00a9 19       		.uleb128 0x19
 1374 00aa 03       		.uleb128 0x3
 1375 00ab 0E       		.uleb128 0xe
 1376 00ac 3A       		.uleb128 0x3a
 1377 00ad 0B       		.uleb128 0xb
 1378 00ae 3B       		.uleb128 0x3b
 1379 00af 05       		.uleb128 0x5
 1380 00b0 27       		.uleb128 0x27
 1381 00b1 19       		.uleb128 0x19
 1382 00b2 49       		.uleb128 0x49
 1383 00b3 13       		.uleb128 0x13
 1384 00b4 11       		.uleb128 0x11
 1385 00b5 01       		.uleb128 0x1
 1386 00b6 12       		.uleb128 0x12
 1387 00b7 06       		.uleb128 0x6
 1388 00b8 40       		.uleb128 0x40
 1389 00b9 18       		.uleb128 0x18
 1390 00ba 9642     		.uleb128 0x2116
 1391 00bc 19       		.uleb128 0x19
 1392 00bd 01       		.uleb128 0x1
 1393 00be 13       		.uleb128 0x13
 1394 00bf 00       		.byte	0
 1395 00c0 00       		.byte	0
 1396 00c1 0C       		.uleb128 0xc
 1397 00c2 2E       		.uleb128 0x2e
 1398 00c3 01       		.byte	0x1
ARM GAS  C:\Users\Petro\AppData\Local\Temp\ccwZSVKu.s 			page 39


 1399 00c4 3F       		.uleb128 0x3f
 1400 00c5 19       		.uleb128 0x19
 1401 00c6 03       		.uleb128 0x3
 1402 00c7 0E       		.uleb128 0xe
 1403 00c8 3A       		.uleb128 0x3a
 1404 00c9 0B       		.uleb128 0xb
 1405 00ca 3B       		.uleb128 0x3b
 1406 00cb 05       		.uleb128 0x5
 1407 00cc 27       		.uleb128 0x27
 1408 00cd 19       		.uleb128 0x19
 1409 00ce 11       		.uleb128 0x11
 1410 00cf 01       		.uleb128 0x1
 1411 00d0 12       		.uleb128 0x12
 1412 00d1 06       		.uleb128 0x6
 1413 00d2 40       		.uleb128 0x40
 1414 00d3 18       		.uleb128 0x18
 1415 00d4 9642     		.uleb128 0x2116
 1416 00d6 19       		.uleb128 0x19
 1417 00d7 01       		.uleb128 0x1
 1418 00d8 13       		.uleb128 0x13
 1419 00d9 00       		.byte	0
 1420 00da 00       		.byte	0
 1421 00db 0D       		.uleb128 0xd
 1422 00dc 0F       		.uleb128 0xf
 1423 00dd 00       		.byte	0
 1424 00de 0B       		.uleb128 0xb
 1425 00df 0B       		.uleb128 0xb
 1426 00e0 49       		.uleb128 0x49
 1427 00e1 13       		.uleb128 0x13
 1428 00e2 00       		.byte	0
 1429 00e3 00       		.byte	0
 1430 00e4 0E       		.uleb128 0xe
 1431 00e5 26       		.uleb128 0x26
 1432 00e6 00       		.byte	0
 1433 00e7 49       		.uleb128 0x49
 1434 00e8 13       		.uleb128 0x13
 1435 00e9 00       		.byte	0
 1436 00ea 00       		.byte	0
 1437 00eb 0F       		.uleb128 0xf
 1438 00ec 34       		.uleb128 0x34
 1439 00ed 00       		.byte	0
 1440 00ee 03       		.uleb128 0x3
 1441 00ef 0E       		.uleb128 0xe
 1442 00f0 3A       		.uleb128 0x3a
 1443 00f1 0B       		.uleb128 0xb
 1444 00f2 3B       		.uleb128 0x3b
 1445 00f3 0B       		.uleb128 0xb
 1446 00f4 49       		.uleb128 0x49
 1447 00f5 13       		.uleb128 0x13
 1448 00f6 3F       		.uleb128 0x3f
 1449 00f7 19       		.uleb128 0x19
 1450 00f8 3C       		.uleb128 0x3c
 1451 00f9 19       		.uleb128 0x19
 1452 00fa 00       		.byte	0
 1453 00fb 00       		.byte	0
 1454 00fc 00       		.byte	0
 1455              		.section	.debug_aranges,"",%progbits
ARM GAS  C:\Users\Petro\AppData\Local\Temp\ccwZSVKu.s 			page 40


 1456 0000 84000000 		.4byte	0x84
 1457 0004 0200     		.2byte	0x2
 1458 0006 00000000 		.4byte	.Ldebug_info0
 1459 000a 04       		.byte	0x4
 1460 000b 00       		.byte	0
 1461 000c 0000     		.2byte	0
 1462 000e 0000     		.2byte	0
 1463 0010 00000000 		.4byte	.LFB2
 1464 0014 0C010000 		.4byte	.LFE2-.LFB2
 1465 0018 00000000 		.4byte	.LFB3
 1466 001c 2C000000 		.4byte	.LFE3-.LFB3
 1467 0020 00000000 		.4byte	.LFB4
 1468 0024 34000000 		.4byte	.LFE4-.LFB4
 1469 0028 00000000 		.4byte	.LFB5
 1470 002c 34000000 		.4byte	.LFE5-.LFB5
 1471 0030 00000000 		.4byte	.LFB6
 1472 0034 34000000 		.4byte	.LFE6-.LFB6
 1473 0038 00000000 		.4byte	.LFB7
 1474 003c 40000000 		.4byte	.LFE7-.LFB7
 1475 0040 00000000 		.4byte	.LFB8
 1476 0044 68000000 		.4byte	.LFE8-.LFB8
 1477 0048 00000000 		.4byte	.LFB9
 1478 004c 38000000 		.4byte	.LFE9-.LFB9
 1479 0050 00000000 		.4byte	.LFB10
 1480 0054 34000000 		.4byte	.LFE10-.LFB10
 1481 0058 00000000 		.4byte	.LFB11
 1482 005c 34000000 		.4byte	.LFE11-.LFB11
 1483 0060 00000000 		.4byte	.LFB12
 1484 0064 22000000 		.4byte	.LFE12-.LFB12
 1485 0068 00000000 		.4byte	.LFB13
 1486 006c 1C000000 		.4byte	.LFE13-.LFB13
 1487 0070 00000000 		.4byte	.LFB14
 1488 0074 1C000000 		.4byte	.LFE14-.LFB14
 1489 0078 00000000 		.4byte	.LFB15
 1490 007c 38000000 		.4byte	.LFE15-.LFB15
 1491 0080 00000000 		.4byte	0
 1492 0084 00000000 		.4byte	0
 1493              		.section	.debug_ranges,"",%progbits
 1494              	.Ldebug_ranges0:
 1495 0000 00000000 		.4byte	.LFB2
 1496 0004 0C010000 		.4byte	.LFE2
 1497 0008 00000000 		.4byte	.LFB3
 1498 000c 2C000000 		.4byte	.LFE3
 1499 0010 00000000 		.4byte	.LFB4
 1500 0014 34000000 		.4byte	.LFE4
 1501 0018 00000000 		.4byte	.LFB5
 1502 001c 34000000 		.4byte	.LFE5
 1503 0020 00000000 		.4byte	.LFB6
 1504 0024 34000000 		.4byte	.LFE6
 1505 0028 00000000 		.4byte	.LFB7
 1506 002c 40000000 		.4byte	.LFE7
 1507 0030 00000000 		.4byte	.LFB8
 1508 0034 68000000 		.4byte	.LFE8
 1509 0038 00000000 		.4byte	.LFB9
 1510 003c 38000000 		.4byte	.LFE9
 1511 0040 00000000 		.4byte	.LFB10
 1512 0044 34000000 		.4byte	.LFE10
ARM GAS  C:\Users\Petro\AppData\Local\Temp\ccwZSVKu.s 			page 41


 1513 0048 00000000 		.4byte	.LFB11
 1514 004c 34000000 		.4byte	.LFE11
 1515 0050 00000000 		.4byte	.LFB12
 1516 0054 22000000 		.4byte	.LFE12
 1517 0058 00000000 		.4byte	.LFB13
 1518 005c 1C000000 		.4byte	.LFE13
 1519 0060 00000000 		.4byte	.LFB14
 1520 0064 1C000000 		.4byte	.LFE14
 1521 0068 00000000 		.4byte	.LFB15
 1522 006c 38000000 		.4byte	.LFE15
 1523 0070 00000000 		.4byte	0
 1524 0074 00000000 		.4byte	0
 1525              		.section	.debug_line,"",%progbits
 1526              	.Ldebug_line0:
 1527 0000 D8010000 		.section	.debug_str,"MS",%progbits,1
 1527      02008D00 
 1527      00000201 
 1527      FB0E0D00 
 1527      01010101 
 1528              	.LASF6:
 1529 0000 6C6F6E67 		.ascii	"long long int\000"
 1529      206C6F6E 
 1529      6720696E 
 1529      7400
 1530              	.LASF38:
 1531 000e 55415254 		.ascii	"UART_XB_UartPutCRLF\000"
 1531      5F58425F 
 1531      55617274 
 1531      50757443 
 1531      524C4600 
 1532              	.LASF16:
 1533 0022 72656733 		.ascii	"reg32\000"
 1533      3200
 1534              	.LASF22:
 1535 0028 55415254 		.ascii	"UART_XB_UartSetRxAddressMask\000"
 1535      5F58425F 
 1535      55617274 
 1535      53657452 
 1535      78416464 
 1536              	.LASF32:
 1537 0045 55415254 		.ascii	"UART_XB_UartSetRtsFifoLevel\000"
 1537      5F58425F 
 1537      55617274 
 1537      53657452 
 1537      74734669 
 1538              	.LASF33:
 1539 0061 6C657665 		.ascii	"level\000"
 1539      6C00
 1540              	.LASF41:
 1541 0067 55415254 		.ascii	"UART_XB_UartDisableCts\000"
 1541      5F58425F 
 1541      55617274 
 1541      44697361 
 1541      626C6543 
 1542              	.LASF3:
 1543 007e 73686F72 		.ascii	"short unsigned int\000"
 1543      7420756E 
ARM GAS  C:\Users\Petro\AppData\Local\Temp\ccwZSVKu.s 			page 42


 1543      7369676E 
 1543      65642069 
 1543      6E7400
 1544              	.LASF43:
 1545 0091 55415254 		.ascii	"UART_XB_IntrTxMask\000"
 1545      5F58425F 
 1545      496E7472 
 1545      54784D61 
 1545      736B00
 1546              	.LASF42:
 1547 00a4 55415254 		.ascii	"UART_XB_UartSetCtsPolarity\000"
 1547      5F58425F 
 1547      55617274 
 1547      53657443 
 1547      7473506F 
 1548              	.LASF36:
 1549 00bf 73747269 		.ascii	"string\000"
 1549      6E6700
 1550              	.LASF12:
 1551 00c6 666C6F61 		.ascii	"float\000"
 1551      7400
 1552              	.LASF51:
 1553 00cc 443A5C43 		.ascii	"D:\\Cypress\\system-start-finish\\vesion 2\\fw\\sta"
 1553      79707265 
 1553      73735C73 
 1553      79737465 
 1553      6D2D7374 
 1554 00fa 72745C73 		.ascii	"rt\\sandbox\\v3\\Start(state machine)\\start_v0.cyd"
 1554      616E6462 
 1554      6F785C76 
 1554      335C5374 
 1554      61727428 
 1555 0129 736E00   		.ascii	"sn\000"
 1556              	.LASF27:
 1557 012c 55415254 		.ascii	"UART_XB_UartGetChar\000"
 1557      5F58425F 
 1557      55617274 
 1557      47657443 
 1557      68617200 
 1558              	.LASF1:
 1559 0140 756E7369 		.ascii	"unsigned char\000"
 1559      676E6564 
 1559      20636861 
 1559      7200
 1560              	.LASF14:
 1561 014e 63686172 		.ascii	"char8\000"
 1561      3800
 1562              	.LASF19:
 1563 0154 55415254 		.ascii	"UART_XB_UartPostEnable\000"
 1563      5F58425F 
 1563      55617274 
 1563      506F7374 
 1563      456E6162 
 1564              	.LASF5:
 1565 016b 6C6F6E67 		.ascii	"long unsigned int\000"
 1565      20756E73 
 1565      69676E65 
ARM GAS  C:\Users\Petro\AppData\Local\Temp\ccwZSVKu.s 			page 43


 1565      6420696E 
 1565      7400
 1566              	.LASF9:
 1567 017d 75696E74 		.ascii	"uint8\000"
 1567      3800
 1568              	.LASF48:
 1569 0183 55415254 		.ascii	"UART_XB_txBufferTail\000"
 1569      5F58425F 
 1569      74784275 
 1569      66666572 
 1569      5461696C 
 1570              	.LASF26:
 1571 0198 72784461 		.ascii	"rxData\000"
 1571      746100
 1572              	.LASF24:
 1573 019f 61646472 		.ascii	"addressMask\000"
 1573      6573734D 
 1573      61736B00 
 1574              	.LASF45:
 1575 01ab 55415254 		.ascii	"UART_XB_rxBufferTail\000"
 1575      5F58425F 
 1575      72784275 
 1575      66666572 
 1575      5461696C 
 1576              	.LASF18:
 1577 01c0 55415254 		.ascii	"UART_XB_UartInit\000"
 1577      5F58425F 
 1577      55617274 
 1577      496E6974 
 1577      00
 1578              	.LASF35:
 1579 01d1 55415254 		.ascii	"UART_XB_UartPutString\000"
 1579      5F58425F 
 1579      55617274 
 1579      50757453 
 1579      7472696E 
 1580              	.LASF13:
 1581 01e7 646F7562 		.ascii	"double\000"
 1581      6C6500
 1582              	.LASF28:
 1583 01ee 55415254 		.ascii	"UART_XB_UartGetByte\000"
 1583      5F58425F 
 1583      55617274 
 1583      47657442 
 1583      79746500 
 1584              	.LASF10:
 1585 0202 75696E74 		.ascii	"uint16\000"
 1585      313600
 1586              	.LASF11:
 1587 0209 75696E74 		.ascii	"uint32\000"
 1587      333200
 1588              	.LASF49:
 1589 0210 474E5520 		.ascii	"GNU C 4.9.3 20150303 (release) [ARM/embedded-4_9-br"
 1589      4320342E 
 1589      392E3320 
 1589      32303135 
 1589      30333033 
ARM GAS  C:\Users\Petro\AppData\Local\Temp\ccwZSVKu.s 			page 44


 1590 0243 616E6368 		.ascii	"anch revision 221220] -mcpu=cortex-m0 -mthumb -g -O"
 1590      20726576 
 1590      6973696F 
 1590      6E203232 
 1590      31323230 
 1591 0276 30202D66 		.ascii	"0 -ffunction-sections -ffat-lto-objects\000"
 1591      66756E63 
 1591      74696F6E 
 1591      2D736563 
 1591      74696F6E 
 1592              	.LASF8:
 1593 029e 756E7369 		.ascii	"unsigned int\000"
 1593      676E6564 
 1593      20696E74 
 1593      00
 1594              	.LASF23:
 1595 02ab 61646472 		.ascii	"address\000"
 1595      65737300 
 1596              	.LASF7:
 1597 02b3 6C6F6E67 		.ascii	"long long unsigned int\000"
 1597      206C6F6E 
 1597      6720756E 
 1597      7369676E 
 1597      65642069 
 1598              	.LASF50:
 1599 02ca 2E5C4765 		.ascii	".\\Generated_Source\\PSoC4\\UART_XB_UART.c\000"
 1599      6E657261 
 1599      7465645F 
 1599      536F7572 
 1599      63655C50 
 1600              	.LASF31:
 1601 02f2 706F6C61 		.ascii	"polarity\000"
 1601      72697479 
 1601      00
 1602              	.LASF37:
 1603 02fb 62756649 		.ascii	"bufIndex\000"
 1603      6E646578 
 1603      00
 1604              	.LASF30:
 1605 0304 55415254 		.ascii	"UART_XB_UartSetRtsPolarity\000"
 1605      5F58425F 
 1605      55617274 
 1605      53657452 
 1605      7473506F 
 1606              	.LASF17:
 1607 031f 73697A65 		.ascii	"sizetype\000"
 1607      74797065 
 1607      00
 1608              	.LASF39:
 1609 0328 74784461 		.ascii	"txDataByte\000"
 1609      74614279 
 1609      746500
 1610              	.LASF15:
 1611 0333 63686172 		.ascii	"char\000"
 1611      00
 1612              	.LASF20:
 1613 0338 55415254 		.ascii	"UART_XB_UartStop\000"
ARM GAS  C:\Users\Petro\AppData\Local\Temp\ccwZSVKu.s 			page 45


 1613      5F58425F 
 1613      55617274 
 1613      53746F70 
 1613      00
 1614              	.LASF2:
 1615 0349 73686F72 		.ascii	"short int\000"
 1615      7420696E 
 1615      7400
 1616              	.LASF21:
 1617 0353 55415254 		.ascii	"UART_XB_UartSetRxAddress\000"
 1617      5F58425F 
 1617      55617274 
 1617      53657452 
 1617      78416464 
 1618              	.LASF4:
 1619 036c 6C6F6E67 		.ascii	"long int\000"
 1619      20696E74 
 1619      00
 1620              	.LASF29:
 1621 0375 746D7053 		.ascii	"tmpStatus\000"
 1621      74617475 
 1621      7300
 1622              	.LASF25:
 1623 037f 6D617463 		.ascii	"matchReg\000"
 1623      68526567 
 1623      00
 1624              	.LASF0:
 1625 0388 7369676E 		.ascii	"signed char\000"
 1625      65642063 
 1625      68617200 
 1626              	.LASF40:
 1627 0394 55415254 		.ascii	"UART_XB_UartEnableCts\000"
 1627      5F58425F 
 1627      55617274 
 1627      456E6162 
 1627      6C654374 
 1628              	.LASF47:
 1629 03aa 55415254 		.ascii	"UART_XB_txBufferHead\000"
 1629      5F58425F 
 1629      74784275 
 1629      66666572 
 1629      48656164 
 1630              	.LASF34:
 1631 03bf 75617274 		.ascii	"uartFlowCtrl\000"
 1631      466C6F77 
 1631      4374726C 
 1631      00
 1632              	.LASF44:
 1633 03cc 55415254 		.ascii	"UART_XB_rxBufferHead\000"
 1633      5F58425F 
 1633      72784275 
 1633      66666572 
 1633      48656164 
 1634              	.LASF46:
 1635 03e1 55415254 		.ascii	"UART_XB_rxBufferOverflow\000"
 1635      5F58425F 
 1635      72784275 
ARM GAS  C:\Users\Petro\AppData\Local\Temp\ccwZSVKu.s 			page 46


 1635      66666572 
 1635      4F766572 
 1636              		.ident	"GCC: (GNU Tools for ARM Embedded Processors) 4.9.3 20150303 (release) [ARM/embedded-4_9-br
