ARM GAS  C:\Users\Petro\AppData\Local\Temp\cca601q2.s 			page 1


   1              		.cpu cortex-m0
   2              		.fpu softvfp
   3              		.eabi_attribute 20, 1
   4              		.eabi_attribute 21, 1
   5              		.eabi_attribute 23, 3
   6              		.eabi_attribute 24, 1
   7              		.eabi_attribute 25, 1
   8              		.eabi_attribute 26, 1
   9              		.eabi_attribute 30, 1
  10              		.eabi_attribute 34, 0
  11              		.eabi_attribute 18, 4
  12              		.code	16
  13              		.file	"cyfitter_cfg.c"
  14              		.text
  15              	.Ltext0:
  16              		.cfi_sections	.debug_frame
  17              		.section	.text.cfg_write_bytes32,"ax",%progbits
  18              		.align	2
  19              		.code	16
  20              		.thumb_func
  21              		.type	cfg_write_bytes32, %function
  22              	cfg_write_bytes32:
  23              	.LFB3:
  24              		.file 1 ".\\Generated_Source\\PSoC4\\cyfitter_cfg.c"
   1:.\Generated_Source\PSoC4/cyfitter_cfg.c **** /*******************************************************************************
   2:.\Generated_Source\PSoC4/cyfitter_cfg.c **** * File Name: cyfitter_cfg.c
   3:.\Generated_Source\PSoC4/cyfitter_cfg.c **** * 
   4:.\Generated_Source\PSoC4/cyfitter_cfg.c **** * PSoC Creator  3.3 SP1
   5:.\Generated_Source\PSoC4/cyfitter_cfg.c **** *
   6:.\Generated_Source\PSoC4/cyfitter_cfg.c **** * Description:
   7:.\Generated_Source\PSoC4/cyfitter_cfg.c **** * This file contains device initialization code.
   8:.\Generated_Source\PSoC4/cyfitter_cfg.c **** * Except for the user defined sections in CyClockStartupError(), this file should not be modified.
   9:.\Generated_Source\PSoC4/cyfitter_cfg.c **** * This file is automatically generated by PSoC Creator.
  10:.\Generated_Source\PSoC4/cyfitter_cfg.c **** *
  11:.\Generated_Source\PSoC4/cyfitter_cfg.c **** ********************************************************************************
  12:.\Generated_Source\PSoC4/cyfitter_cfg.c **** * Copyright (c) 2007-2015 Cypress Semiconductor.  All rights reserved.
  13:.\Generated_Source\PSoC4/cyfitter_cfg.c **** * You may use this file only in accordance with the license, terms, conditions, 
  14:.\Generated_Source\PSoC4/cyfitter_cfg.c **** * disclaimers, and limitations in the end user license agreement accompanying 
  15:.\Generated_Source\PSoC4/cyfitter_cfg.c **** * the software package with which this file was provided.
  16:.\Generated_Source\PSoC4/cyfitter_cfg.c **** ********************************************************************************/
  17:.\Generated_Source\PSoC4/cyfitter_cfg.c **** 
  18:.\Generated_Source\PSoC4/cyfitter_cfg.c **** #include <string.h>
  19:.\Generated_Source\PSoC4/cyfitter_cfg.c **** #include "cytypes.h"
  20:.\Generated_Source\PSoC4/cyfitter_cfg.c **** #include "cydevice_trm.h"
  21:.\Generated_Source\PSoC4/cyfitter_cfg.c **** #include "cyfitter.h"
  22:.\Generated_Source\PSoC4/cyfitter_cfg.c **** #include "CyLib.h"
  23:.\Generated_Source\PSoC4/cyfitter_cfg.c **** #include "cyfitter_cfg.h"
  24:.\Generated_Source\PSoC4/cyfitter_cfg.c **** 
  25:.\Generated_Source\PSoC4/cyfitter_cfg.c **** 
  26:.\Generated_Source\PSoC4/cyfitter_cfg.c **** #if defined(__GNUC__) || defined(__ARMCC_VERSION)
  27:.\Generated_Source\PSoC4/cyfitter_cfg.c ****     #define CYPACKED 
  28:.\Generated_Source\PSoC4/cyfitter_cfg.c ****     #define CYPACKED_ATTR __attribute__ ((packed))
  29:.\Generated_Source\PSoC4/cyfitter_cfg.c ****     #define CYALIGNED __attribute__ ((aligned))
  30:.\Generated_Source\PSoC4/cyfitter_cfg.c ****     #define CY_CFG_UNUSED __attribute__ ((unused))
  31:.\Generated_Source\PSoC4/cyfitter_cfg.c ****     #ifndef CY_CFG_SECTION
  32:.\Generated_Source\PSoC4/cyfitter_cfg.c ****         #define CY_CFG_SECTION __attribute__ ((section(".psocinit")))
  33:.\Generated_Source\PSoC4/cyfitter_cfg.c ****     #endif
ARM GAS  C:\Users\Petro\AppData\Local\Temp\cca601q2.s 			page 2


  34:.\Generated_Source\PSoC4/cyfitter_cfg.c ****     
  35:.\Generated_Source\PSoC4/cyfitter_cfg.c ****     #if defined(__ARMCC_VERSION)
  36:.\Generated_Source\PSoC4/cyfitter_cfg.c ****         #define CY_CFG_MEMORY_BARRIER() __memory_changed()
  37:.\Generated_Source\PSoC4/cyfitter_cfg.c ****     #else
  38:.\Generated_Source\PSoC4/cyfitter_cfg.c ****         #define CY_CFG_MEMORY_BARRIER() __sync_synchronize()
  39:.\Generated_Source\PSoC4/cyfitter_cfg.c ****     #endif
  40:.\Generated_Source\PSoC4/cyfitter_cfg.c ****     
  41:.\Generated_Source\PSoC4/cyfitter_cfg.c **** #elif defined(__ICCARM__)
  42:.\Generated_Source\PSoC4/cyfitter_cfg.c ****     #include <intrinsics.h>
  43:.\Generated_Source\PSoC4/cyfitter_cfg.c **** 
  44:.\Generated_Source\PSoC4/cyfitter_cfg.c ****     #define CYPACKED __packed
  45:.\Generated_Source\PSoC4/cyfitter_cfg.c ****     #define CYPACKED_ATTR 
  46:.\Generated_Source\PSoC4/cyfitter_cfg.c ****     #define CYALIGNED _Pragma("data_alignment=4")
  47:.\Generated_Source\PSoC4/cyfitter_cfg.c ****     #define CY_CFG_UNUSED _Pragma("diag_suppress=Pe177")
  48:.\Generated_Source\PSoC4/cyfitter_cfg.c ****     #define CY_CFG_SECTION _Pragma("location=\".psocinit\"")
  49:.\Generated_Source\PSoC4/cyfitter_cfg.c ****     
  50:.\Generated_Source\PSoC4/cyfitter_cfg.c ****     #define CY_CFG_MEMORY_BARRIER() __DMB()
  51:.\Generated_Source\PSoC4/cyfitter_cfg.c ****     
  52:.\Generated_Source\PSoC4/cyfitter_cfg.c **** #else
  53:.\Generated_Source\PSoC4/cyfitter_cfg.c ****     #error Unsupported toolchain
  54:.\Generated_Source\PSoC4/cyfitter_cfg.c **** #endif
  55:.\Generated_Source\PSoC4/cyfitter_cfg.c **** 
  56:.\Generated_Source\PSoC4/cyfitter_cfg.c **** 
  57:.\Generated_Source\PSoC4/cyfitter_cfg.c **** CY_CFG_UNUSED
  58:.\Generated_Source\PSoC4/cyfitter_cfg.c **** static void CYMEMZERO(void *s, size_t n);
  59:.\Generated_Source\PSoC4/cyfitter_cfg.c **** CY_CFG_UNUSED
  60:.\Generated_Source\PSoC4/cyfitter_cfg.c **** static void CYMEMZERO(void *s, size_t n)
  61:.\Generated_Source\PSoC4/cyfitter_cfg.c **** {
  62:.\Generated_Source\PSoC4/cyfitter_cfg.c **** 	(void)memset(s, 0, n);
  63:.\Generated_Source\PSoC4/cyfitter_cfg.c **** }
  64:.\Generated_Source\PSoC4/cyfitter_cfg.c **** CY_CFG_UNUSED
  65:.\Generated_Source\PSoC4/cyfitter_cfg.c **** static void CYCONFIGCPY(void *dest, const void *src, size_t n);
  66:.\Generated_Source\PSoC4/cyfitter_cfg.c **** CY_CFG_UNUSED
  67:.\Generated_Source\PSoC4/cyfitter_cfg.c **** static void CYCONFIGCPY(void *dest, const void *src, size_t n)
  68:.\Generated_Source\PSoC4/cyfitter_cfg.c **** {
  69:.\Generated_Source\PSoC4/cyfitter_cfg.c **** 	(void)memcpy(dest, src, n);
  70:.\Generated_Source\PSoC4/cyfitter_cfg.c **** }
  71:.\Generated_Source\PSoC4/cyfitter_cfg.c **** CY_CFG_UNUSED
  72:.\Generated_Source\PSoC4/cyfitter_cfg.c **** static void CYCONFIGCPYCODE(void *dest, const void *src, size_t n);
  73:.\Generated_Source\PSoC4/cyfitter_cfg.c **** CY_CFG_UNUSED
  74:.\Generated_Source\PSoC4/cyfitter_cfg.c **** static void CYCONFIGCPYCODE(void *dest, const void *src, size_t n)
  75:.\Generated_Source\PSoC4/cyfitter_cfg.c **** {
  76:.\Generated_Source\PSoC4/cyfitter_cfg.c **** 	(void)memcpy(dest, src, n);
  77:.\Generated_Source\PSoC4/cyfitter_cfg.c **** }
  78:.\Generated_Source\PSoC4/cyfitter_cfg.c **** 
  79:.\Generated_Source\PSoC4/cyfitter_cfg.c **** 
  80:.\Generated_Source\PSoC4/cyfitter_cfg.c **** 
  81:.\Generated_Source\PSoC4/cyfitter_cfg.c **** /* Clock startup error codes                                                   */
  82:.\Generated_Source\PSoC4/cyfitter_cfg.c **** #define CYCLOCKSTART_NO_ERROR    0u
  83:.\Generated_Source\PSoC4/cyfitter_cfg.c **** #define CYCLOCKSTART_XTAL_ERROR  1u
  84:.\Generated_Source\PSoC4/cyfitter_cfg.c **** #define CYCLOCKSTART_32KHZ_ERROR 2u
  85:.\Generated_Source\PSoC4/cyfitter_cfg.c **** #define CYCLOCKSTART_PLL_ERROR   3u
  86:.\Generated_Source\PSoC4/cyfitter_cfg.c **** 
  87:.\Generated_Source\PSoC4/cyfitter_cfg.c **** #ifdef CY_NEED_CYCLOCKSTARTUPERROR
  88:.\Generated_Source\PSoC4/cyfitter_cfg.c **** /*******************************************************************************
  89:.\Generated_Source\PSoC4/cyfitter_cfg.c **** * Function Name: CyClockStartupError
  90:.\Generated_Source\PSoC4/cyfitter_cfg.c **** ********************************************************************************
ARM GAS  C:\Users\Petro\AppData\Local\Temp\cca601q2.s 			page 3


  91:.\Generated_Source\PSoC4/cyfitter_cfg.c **** * Summary:
  92:.\Generated_Source\PSoC4/cyfitter_cfg.c **** *  If an error is encountered during clock configuration (crystal startup error,
  93:.\Generated_Source\PSoC4/cyfitter_cfg.c **** *  PLL lock error, etc.), the system will end up here.  Unless reimplemented by
  94:.\Generated_Source\PSoC4/cyfitter_cfg.c **** *  the customer, this function will stop in an infinite loop.
  95:.\Generated_Source\PSoC4/cyfitter_cfg.c **** *
  96:.\Generated_Source\PSoC4/cyfitter_cfg.c **** * Parameters:
  97:.\Generated_Source\PSoC4/cyfitter_cfg.c **** *   void
  98:.\Generated_Source\PSoC4/cyfitter_cfg.c **** *
  99:.\Generated_Source\PSoC4/cyfitter_cfg.c **** * Return:
 100:.\Generated_Source\PSoC4/cyfitter_cfg.c **** *   void
 101:.\Generated_Source\PSoC4/cyfitter_cfg.c **** *
 102:.\Generated_Source\PSoC4/cyfitter_cfg.c **** *******************************************************************************/
 103:.\Generated_Source\PSoC4/cyfitter_cfg.c **** CY_CFG_UNUSED
 104:.\Generated_Source\PSoC4/cyfitter_cfg.c **** static void CyClockStartupError(uint8 errorCode);
 105:.\Generated_Source\PSoC4/cyfitter_cfg.c **** CY_CFG_UNUSED
 106:.\Generated_Source\PSoC4/cyfitter_cfg.c **** static void CyClockStartupError(uint8 errorCode)
 107:.\Generated_Source\PSoC4/cyfitter_cfg.c **** {
 108:.\Generated_Source\PSoC4/cyfitter_cfg.c ****     /* To remove the compiler warning if errorCode not used.                */
 109:.\Generated_Source\PSoC4/cyfitter_cfg.c ****     errorCode = errorCode;
 110:.\Generated_Source\PSoC4/cyfitter_cfg.c **** 
 111:.\Generated_Source\PSoC4/cyfitter_cfg.c ****     /* `#START CyClockStartupError` */
 112:.\Generated_Source\PSoC4/cyfitter_cfg.c **** 
 113:.\Generated_Source\PSoC4/cyfitter_cfg.c ****     /* If we have a clock startup error (bad MHz crystal, PLL lock, etc.),  */
 114:.\Generated_Source\PSoC4/cyfitter_cfg.c ****     /* we will end up here to allow the customer to implement something to  */
 115:.\Generated_Source\PSoC4/cyfitter_cfg.c ****     /* deal with the clock condition.                                       */
 116:.\Generated_Source\PSoC4/cyfitter_cfg.c **** 
 117:.\Generated_Source\PSoC4/cyfitter_cfg.c ****     /* `#END` */
 118:.\Generated_Source\PSoC4/cyfitter_cfg.c **** 
 119:.\Generated_Source\PSoC4/cyfitter_cfg.c ****     /* If nothing else, stop here since the clocks have not started         */
 120:.\Generated_Source\PSoC4/cyfitter_cfg.c ****     /* correctly.                                                           */
 121:.\Generated_Source\PSoC4/cyfitter_cfg.c ****     while(1) {}
 122:.\Generated_Source\PSoC4/cyfitter_cfg.c **** }
 123:.\Generated_Source\PSoC4/cyfitter_cfg.c **** #endif
 124:.\Generated_Source\PSoC4/cyfitter_cfg.c **** 
 125:.\Generated_Source\PSoC4/cyfitter_cfg.c **** #define CY_CFG_BASE_ADDR_COUNT 8u
 126:.\Generated_Source\PSoC4/cyfitter_cfg.c **** CYPACKED typedef struct
 127:.\Generated_Source\PSoC4/cyfitter_cfg.c **** {
 128:.\Generated_Source\PSoC4/cyfitter_cfg.c **** 	uint8 offset;
 129:.\Generated_Source\PSoC4/cyfitter_cfg.c **** 	uint8 value;
 130:.\Generated_Source\PSoC4/cyfitter_cfg.c **** } CYPACKED_ATTR cy_cfg_addrvalue_t;
 131:.\Generated_Source\PSoC4/cyfitter_cfg.c **** 
 132:.\Generated_Source\PSoC4/cyfitter_cfg.c **** 
 133:.\Generated_Source\PSoC4/cyfitter_cfg.c **** 
 134:.\Generated_Source\PSoC4/cyfitter_cfg.c **** /*******************************************************************************
 135:.\Generated_Source\PSoC4/cyfitter_cfg.c **** * Function Name: cfg_write_bytes32
 136:.\Generated_Source\PSoC4/cyfitter_cfg.c **** ********************************************************************************
 137:.\Generated_Source\PSoC4/cyfitter_cfg.c **** * Summary:
 138:.\Generated_Source\PSoC4/cyfitter_cfg.c **** *  This function is used for setting up the chip configuration areas that
 139:.\Generated_Source\PSoC4/cyfitter_cfg.c **** *  contain relatively sparse data.
 140:.\Generated_Source\PSoC4/cyfitter_cfg.c **** *
 141:.\Generated_Source\PSoC4/cyfitter_cfg.c **** * Parameters:
 142:.\Generated_Source\PSoC4/cyfitter_cfg.c **** *   void
 143:.\Generated_Source\PSoC4/cyfitter_cfg.c **** *
 144:.\Generated_Source\PSoC4/cyfitter_cfg.c **** * Return:
 145:.\Generated_Source\PSoC4/cyfitter_cfg.c **** *   void
 146:.\Generated_Source\PSoC4/cyfitter_cfg.c **** *
 147:.\Generated_Source\PSoC4/cyfitter_cfg.c **** *******************************************************************************/
ARM GAS  C:\Users\Petro\AppData\Local\Temp\cca601q2.s 			page 4


 148:.\Generated_Source\PSoC4/cyfitter_cfg.c **** static void cfg_write_bytes32(const uint32 addr_table[], const cy_cfg_addrvalue_t data_table[]);
 149:.\Generated_Source\PSoC4/cyfitter_cfg.c **** static void cfg_write_bytes32(const uint32 addr_table[], const cy_cfg_addrvalue_t data_table[])
 150:.\Generated_Source\PSoC4/cyfitter_cfg.c **** {
  25              		.loc 1 150 0
  26              		.cfi_startproc
  27              	.LVL0:
  28 0000 F0B5     		push	{r4, r5, r6, r7, lr}
  29              		.cfi_def_cfa_offset 20
  30              		.cfi_offset 4, -20
  31              		.cfi_offset 5, -16
  32              		.cfi_offset 6, -12
  33              		.cfi_offset 7, -8
  34              		.cfi_offset 14, -4
  35              	.LVL1:
 151:.\Generated_Source\PSoC4/cyfitter_cfg.c **** 	/* For 32-bit little-endian architectures */
 152:.\Generated_Source\PSoC4/cyfitter_cfg.c **** 	uint32 i, j = 0u;
  36              		.loc 1 152 0
  37 0002 0025     		mov	r5, #0
 153:.\Generated_Source\PSoC4/cyfitter_cfg.c **** 	for (i = 0u; i < CY_CFG_BASE_ADDR_COUNT; i++)
  38              		.loc 1 153 0
  39 0004 0027     		mov	r7, #0
  40 0006 11E0     		b	.L2
  41              	.LVL2:
  42              	.L5:
  43              	.LBB2:
 154:.\Generated_Source\PSoC4/cyfitter_cfg.c **** 	{
 155:.\Generated_Source\PSoC4/cyfitter_cfg.c **** 		uint32 baseAddr = addr_table[i];
  44              		.loc 1 155 0
  45 0008 BB00     		lsl	r3, r7, #2
  46 000a C658     		ldr	r6, [r0, r3]
  47              	.LVL3:
 156:.\Generated_Source\PSoC4/cyfitter_cfg.c **** 		uint8 count = (uint8)baseAddr;
  48              		.loc 1 156 0
  49 000c F3B2     		uxtb	r3, r6
  50              	.LVL4:
 157:.\Generated_Source\PSoC4/cyfitter_cfg.c **** 		baseAddr &= 0xFFFFFF00u;
  51              		.loc 1 157 0
  52 000e FF22     		mov	r2, #255
  53 0010 9643     		bic	r6, r2
  54              	.LVL5:
 158:.\Generated_Source\PSoC4/cyfitter_cfg.c **** 		while (count != 0u)
  55              		.loc 1 158 0
  56 0012 08E0     		b	.L3
  57              	.L4:
 159:.\Generated_Source\PSoC4/cyfitter_cfg.c **** 		{
 160:.\Generated_Source\PSoC4/cyfitter_cfg.c **** 			CY_SET_XTND_REG8((void CYFAR *)(baseAddr + data_table[j].offset), data_table[j].value);
  58              		.loc 1 160 0
  59 0014 6A00     		lsl	r2, r5, #1
  60 0016 8A18     		add	r2, r1, r2
  61 0018 1478     		ldrb	r4, [r2]
  62 001a A419     		add	r4, r4, r6
  63 001c 5278     		ldrb	r2, [r2, #1]
  64 001e 2270     		strb	r2, [r4]
 161:.\Generated_Source\PSoC4/cyfitter_cfg.c **** 			j++;
  65              		.loc 1 161 0
  66 0020 0135     		add	r5, r5, #1
  67              	.LVL6:
ARM GAS  C:\Users\Petro\AppData\Local\Temp\cca601q2.s 			page 5


 162:.\Generated_Source\PSoC4/cyfitter_cfg.c **** 			count--;
  68              		.loc 1 162 0
  69 0022 013B     		sub	r3, r3, #1
  70              	.LVL7:
  71 0024 DBB2     		uxtb	r3, r3
  72              	.LVL8:
  73              	.L3:
 158:.\Generated_Source\PSoC4/cyfitter_cfg.c **** 		{
  74              		.loc 1 158 0
  75 0026 002B     		cmp	r3, #0
  76 0028 F4D1     		bne	.L4
  77              	.LBE2:
 153:.\Generated_Source\PSoC4/cyfitter_cfg.c **** 	{
  78              		.loc 1 153 0 discriminator 2
  79 002a 0137     		add	r7, r7, #1
  80              	.LVL9:
  81              	.L2:
 153:.\Generated_Source\PSoC4/cyfitter_cfg.c **** 	{
  82              		.loc 1 153 0 is_stmt 0 discriminator 1
  83 002c 072F     		cmp	r7, #7
  84 002e EBD9     		bls	.L5
 163:.\Generated_Source\PSoC4/cyfitter_cfg.c **** 		}
 164:.\Generated_Source\PSoC4/cyfitter_cfg.c **** 	}
 165:.\Generated_Source\PSoC4/cyfitter_cfg.c **** }
  85              		.loc 1 165 0 is_stmt 1
  86              		@ sp needed
  87              	.LVL10:
  88              	.LVL11:
  89 0030 F0BD     		pop	{r4, r5, r6, r7, pc}
  90              		.cfi_endproc
  91              	.LFE3:
  92              		.size	cfg_write_bytes32, .-cfg_write_bytes32
  93 0032 C046     		.section	.text.CYMEMZERO,"ax",%progbits
  94              		.align	2
  95              		.code	16
  96              		.thumb_func
  97              		.type	CYMEMZERO, %function
  98              	CYMEMZERO:
  99              	.LFB0:
  61:.\Generated_Source\PSoC4/cyfitter_cfg.c **** 	(void)memset(s, 0, n);
 100              		.loc 1 61 0
 101              		.cfi_startproc
 102              	.LVL12:
 103 0000 08B5     		push	{r3, lr}
 104              		.cfi_def_cfa_offset 8
 105              		.cfi_offset 3, -8
 106              		.cfi_offset 14, -4
 107 0002 0A1C     		mov	r2, r1
  62:.\Generated_Source\PSoC4/cyfitter_cfg.c **** }
 108              		.loc 1 62 0
 109 0004 0021     		mov	r1, #0
 110              	.LVL13:
 111 0006 FFF7FEFF 		bl	memset
 112              	.LVL14:
  63:.\Generated_Source\PSoC4/cyfitter_cfg.c **** CY_CFG_UNUSED
 113              		.loc 1 63 0
 114              		@ sp needed
ARM GAS  C:\Users\Petro\AppData\Local\Temp\cca601q2.s 			page 6


 115 000a 08BD     		pop	{r3, pc}
 116              		.cfi_endproc
 117              	.LFE0:
 118              		.size	CYMEMZERO, .-CYMEMZERO
 119              		.section	.text.CYCONFIGCPYCODE,"ax",%progbits
 120              		.align	2
 121              		.code	16
 122              		.thumb_func
 123              		.type	CYCONFIGCPYCODE, %function
 124              	CYCONFIGCPYCODE:
 125              	.LFB2:
  75:.\Generated_Source\PSoC4/cyfitter_cfg.c **** 	(void)memcpy(dest, src, n);
 126              		.loc 1 75 0
 127              		.cfi_startproc
 128              	.LVL15:
 129 0000 08B5     		push	{r3, lr}
 130              		.cfi_def_cfa_offset 8
 131              		.cfi_offset 3, -8
 132              		.cfi_offset 14, -4
  76:.\Generated_Source\PSoC4/cyfitter_cfg.c **** }
 133              		.loc 1 76 0
 134 0002 FFF7FEFF 		bl	memcpy
 135              	.LVL16:
  77:.\Generated_Source\PSoC4/cyfitter_cfg.c **** 
 136              		.loc 1 77 0
 137              		@ sp needed
 138 0006 08BD     		pop	{r3, pc}
 139              		.cfi_endproc
 140              	.LFE2:
 141              		.size	CYCONFIGCPYCODE, .-CYCONFIGCPYCODE
 142              		.section	.psocinit,"ax",%progbits
 143              		.align	2
 144              		.code	16
 145              		.thumb_func
 146              		.type	ClockSetup, %function
 147              	ClockSetup:
 148              	.LFB4:
 166:.\Generated_Source\PSoC4/cyfitter_cfg.c **** 
 167:.\Generated_Source\PSoC4/cyfitter_cfg.c **** 
 168:.\Generated_Source\PSoC4/cyfitter_cfg.c **** /*******************************************************************************
 169:.\Generated_Source\PSoC4/cyfitter_cfg.c **** * Function Name: ClockSetup
 170:.\Generated_Source\PSoC4/cyfitter_cfg.c **** ********************************************************************************
 171:.\Generated_Source\PSoC4/cyfitter_cfg.c **** *
 172:.\Generated_Source\PSoC4/cyfitter_cfg.c **** * Summary:
 173:.\Generated_Source\PSoC4/cyfitter_cfg.c **** *   Performs the initialization of all of the clocks in the device based on the
 174:.\Generated_Source\PSoC4/cyfitter_cfg.c **** *   settings in the Clock tab of the DWR.  This includes enabling the requested
 175:.\Generated_Source\PSoC4/cyfitter_cfg.c **** *   clocks and setting the necessary dividers to produce the desired frequency. 
 176:.\Generated_Source\PSoC4/cyfitter_cfg.c **** *
 177:.\Generated_Source\PSoC4/cyfitter_cfg.c **** * Parameters:
 178:.\Generated_Source\PSoC4/cyfitter_cfg.c **** *   void
 179:.\Generated_Source\PSoC4/cyfitter_cfg.c **** *
 180:.\Generated_Source\PSoC4/cyfitter_cfg.c **** * Return:
 181:.\Generated_Source\PSoC4/cyfitter_cfg.c **** *   void
 182:.\Generated_Source\PSoC4/cyfitter_cfg.c **** *
 183:.\Generated_Source\PSoC4/cyfitter_cfg.c **** *******************************************************************************/
 184:.\Generated_Source\PSoC4/cyfitter_cfg.c **** static void ClockSetup(void);
 185:.\Generated_Source\PSoC4/cyfitter_cfg.c **** CY_CFG_SECTION
ARM GAS  C:\Users\Petro\AppData\Local\Temp\cca601q2.s 			page 7


 186:.\Generated_Source\PSoC4/cyfitter_cfg.c **** static void ClockSetup(void)
 187:.\Generated_Source\PSoC4/cyfitter_cfg.c **** {
 149              		.loc 1 187 0
 150              		.cfi_startproc
 151 0000 10B5     		push	{r4, lr}
 152              		.cfi_def_cfa_offset 8
 153              		.cfi_offset 4, -8
 154              		.cfi_offset 14, -4
 188:.\Generated_Source\PSoC4/cyfitter_cfg.c **** 	/* Enable HALF_EN before trimming for the flash accelerator. */
 189:.\Generated_Source\PSoC4/cyfitter_cfg.c **** 	CY_SET_REG32((void CYXDATA *)(CYREG_CLK_SELECT), (CY_GET_REG32((void *)CYREG_CLK_SELECT) | 0x00040
 155              		.loc 1 189 0
 156 0002 164C     		ldr	r4, .L10
 157 0004 2368     		ldr	r3, [r4]
 158 0006 8022     		mov	r2, #128
 159 0008 D202     		lsl	r2, r2, #11
 160 000a 1343     		orr	r3, r2
 161 000c 2360     		str	r3, [r4]
 190:.\Generated_Source\PSoC4/cyfitter_cfg.c **** 
 191:.\Generated_Source\PSoC4/cyfitter_cfg.c **** 	/* Setup and trim IMO based on desired frequency. */
 192:.\Generated_Source\PSoC4/cyfitter_cfg.c **** 	CySysClkWriteImoFreq(24u);
 162              		.loc 1 192 0
 163 000e 1820     		mov	r0, #24
 164 0010 FFF7FEFF 		bl	CySysClkWriteImoFreq
 165              	.LVL17:
 193:.\Generated_Source\PSoC4/cyfitter_cfg.c **** 
 194:.\Generated_Source\PSoC4/cyfitter_cfg.c **** 	/* Disable HALF_EN since it is not required at this IMO frequency. */
 195:.\Generated_Source\PSoC4/cyfitter_cfg.c **** 	CY_SET_REG32((void CYXDATA *)(CYREG_CLK_SELECT), (CY_GET_REG32((void *)CYREG_CLK_SELECT) & 0xFFFBF
 166              		.loc 1 195 0
 167 0014 2268     		ldr	r2, [r4]
 168 0016 124B     		ldr	r3, .L10+4
 169 0018 1340     		and	r3, r2
 170 001a 2360     		str	r3, [r4]
 196:.\Generated_Source\PSoC4/cyfitter_cfg.c **** 	/* CYDEV_CLK_ILO_CONFIG Starting address: CYDEV_CLK_ILO_CONFIG */
 197:.\Generated_Source\PSoC4/cyfitter_cfg.c **** 	CY_SET_XTND_REG32((void CYFAR *)(CYREG_CLK_ILO_CONFIG), 0x80000006u);
 171              		.loc 1 197 0
 172 001c 114A     		ldr	r2, .L10+8
 173 001e 124B     		ldr	r3, .L10+12
 174 0020 1A60     		str	r2, [r3]
 198:.\Generated_Source\PSoC4/cyfitter_cfg.c **** 
 199:.\Generated_Source\PSoC4/cyfitter_cfg.c **** 
 200:.\Generated_Source\PSoC4/cyfitter_cfg.c **** 	/* CYDEV_CLK_SELECT00 Starting address: CYDEV_CLK_SELECT00 */
 201:.\Generated_Source\PSoC4/cyfitter_cfg.c **** 	CY_SET_XTND_REG32((void CYFAR *)(CYREG_CLK_SELECT12), 0x00000010u);
 175              		.loc 1 201 0
 176 0022 1022     		mov	r2, #16
 177 0024 114B     		ldr	r3, .L10+16
 178 0026 1A60     		str	r2, [r3]
 202:.\Generated_Source\PSoC4/cyfitter_cfg.c **** 
 203:.\Generated_Source\PSoC4/cyfitter_cfg.c **** 	/* CYDEV_CLK_IMO_CONFIG Starting address: CYDEV_CLK_IMO_CONFIG */
 204:.\Generated_Source\PSoC4/cyfitter_cfg.c **** 	CY_SET_XTND_REG32((void CYFAR *)(CYREG_CLK_IMO_CONFIG), 0x80000000u);
 179              		.loc 1 204 0
 180 0028 8022     		mov	r2, #128
 181 002a 1206     		lsl	r2, r2, #24
 182 002c 104B     		ldr	r3, .L10+20
 183 002e 1A60     		str	r2, [r3]
 205:.\Generated_Source\PSoC4/cyfitter_cfg.c **** 
 206:.\Generated_Source\PSoC4/cyfitter_cfg.c **** 	/* CYDEV_CLK_SELECT Starting address: CYDEV_CLK_SELECT */
 207:.\Generated_Source\PSoC4/cyfitter_cfg.c **** 	CY_SET_XTND_REG32((void CYFAR *)(CYREG_CLK_SELECT), 0x00000000u);
ARM GAS  C:\Users\Petro\AppData\Local\Temp\cca601q2.s 			page 8


 184              		.loc 1 207 0
 185 0030 0023     		mov	r3, #0
 186 0032 2360     		str	r3, [r4]
 208:.\Generated_Source\PSoC4/cyfitter_cfg.c **** 
 209:.\Generated_Source\PSoC4/cyfitter_cfg.c **** 	/* CYDEV_CLK_DIVIDER_A00 Starting address: CYDEV_CLK_DIVIDER_A00 */
 210:.\Generated_Source\PSoC4/cyfitter_cfg.c **** 	CY_SET_XTND_REG32((void CYFAR *)(CYREG_CLK_DIVIDER_A00), 0x80000138u);
 187              		.loc 1 210 0
 188 0034 0F4A     		ldr	r2, .L10+24
 189 0036 104B     		ldr	r3, .L10+28
 190 0038 1A60     		str	r2, [r3]
 211:.\Generated_Source\PSoC4/cyfitter_cfg.c **** 
 212:.\Generated_Source\PSoC4/cyfitter_cfg.c **** 	CY_SET_XTND_REG32((void CYFAR *)(CYREG_WDT_MATCH), 0x0000FFFEu);
 191              		.loc 1 212 0
 192 003a 104A     		ldr	r2, .L10+32
 193 003c 104B     		ldr	r3, .L10+36
 194 003e 1A60     		str	r2, [r3]
 213:.\Generated_Source\PSoC4/cyfitter_cfg.c **** 	CY_SET_XTND_REG32((void CYFAR *)(CYREG_WDT_CONFIG), 0x00000005u);
 195              		.loc 1 213 0
 196 0040 0522     		mov	r2, #5
 197 0042 104B     		ldr	r3, .L10+40
 198 0044 1A60     		str	r2, [r3]
 214:.\Generated_Source\PSoC4/cyfitter_cfg.c **** 	CY_SET_XTND_REG32((void CYFAR *)(CYREG_WDT_CONTROL), 0x00000008u);
 199              		.loc 1 214 0
 200 0046 0332     		add	r2, r2, #3
 201 0048 0F4B     		ldr	r3, .L10+44
 202 004a 1A60     		str	r2, [r3]
 203              	.L9:
 215:.\Generated_Source\PSoC4/cyfitter_cfg.c **** 	while ((CY_GET_XTND_REG32((void CYFAR *)(CYREG_WDT_CONTROL)) & 0x00000008u) != 0u) { }
 204              		.loc 1 215 0 discriminator 1
 205 004c 0E4B     		ldr	r3, .L10+44
 206 004e 1B68     		ldr	r3, [r3]
 207 0050 1B07     		lsl	r3, r3, #28
 208 0052 FBD4     		bmi	.L9
 216:.\Generated_Source\PSoC4/cyfitter_cfg.c **** 	CY_SET_XTND_REG32((void CYFAR *)(CYREG_WDT_CONTROL), 0x00000001u);
 209              		.loc 1 216 0
 210 0054 0122     		mov	r2, #1
 211 0056 0C4B     		ldr	r3, .L10+44
 212 0058 1A60     		str	r2, [r3]
 217:.\Generated_Source\PSoC4/cyfitter_cfg.c **** }
 213              		.loc 1 217 0
 214              		@ sp needed
 215 005a 10BD     		pop	{r4, pc}
 216              	.L11:
 217              		.align	2
 218              	.L10:
 219 005c 00010B40 		.word	1074462976
 220 0060 FFFFFBFF 		.word	-262145
 221 0064 06000080 		.word	-2147483642
 222 0068 04010B40 		.word	1074462980
 223 006c 30020240 		.word	1073873456
 224 0070 08010B40 		.word	1074462984
 225 0074 38010080 		.word	-2147483336
 226 0078 00000240 		.word	1073872896
 227 007c FEFF0000 		.word	65534
 228 0080 08020B40 		.word	1074463240
 229 0084 0C020B40 		.word	1074463244
 230 0088 10020B40 		.word	1074463248
ARM GAS  C:\Users\Petro\AppData\Local\Temp\cca601q2.s 			page 9


 231              		.cfi_endproc
 232              	.LFE4:
 233              		.size	ClockSetup, .-ClockSetup
 234              		.align	2
 235              		.global	cyfitter_cfg
 236              		.code	16
 237              		.thumb_func
 238              		.type	cyfitter_cfg, %function
 239              	cyfitter_cfg:
 240              	.LFB6:
 218:.\Generated_Source\PSoC4/cyfitter_cfg.c **** 
 219:.\Generated_Source\PSoC4/cyfitter_cfg.c **** 
 220:.\Generated_Source\PSoC4/cyfitter_cfg.c **** /* Analog API Functions */
 221:.\Generated_Source\PSoC4/cyfitter_cfg.c **** 
 222:.\Generated_Source\PSoC4/cyfitter_cfg.c **** 
 223:.\Generated_Source\PSoC4/cyfitter_cfg.c **** /*******************************************************************************
 224:.\Generated_Source\PSoC4/cyfitter_cfg.c **** * Function Name: AnalogSetDefault
 225:.\Generated_Source\PSoC4/cyfitter_cfg.c **** ********************************************************************************
 226:.\Generated_Source\PSoC4/cyfitter_cfg.c **** *
 227:.\Generated_Source\PSoC4/cyfitter_cfg.c **** * Summary:
 228:.\Generated_Source\PSoC4/cyfitter_cfg.c **** *  Sets up the analog portions of the chip to default values based on chip
 229:.\Generated_Source\PSoC4/cyfitter_cfg.c **** *  configuration options from the project.
 230:.\Generated_Source\PSoC4/cyfitter_cfg.c **** *
 231:.\Generated_Source\PSoC4/cyfitter_cfg.c **** * Parameters:
 232:.\Generated_Source\PSoC4/cyfitter_cfg.c **** *  void
 233:.\Generated_Source\PSoC4/cyfitter_cfg.c **** *
 234:.\Generated_Source\PSoC4/cyfitter_cfg.c **** * Return:
 235:.\Generated_Source\PSoC4/cyfitter_cfg.c **** *  void
 236:.\Generated_Source\PSoC4/cyfitter_cfg.c **** *
 237:.\Generated_Source\PSoC4/cyfitter_cfg.c **** *******************************************************************************/
 238:.\Generated_Source\PSoC4/cyfitter_cfg.c **** static void AnalogSetDefault(void);
 239:.\Generated_Source\PSoC4/cyfitter_cfg.c **** static void AnalogSetDefault(void)
 240:.\Generated_Source\PSoC4/cyfitter_cfg.c **** {
 241:.\Generated_Source\PSoC4/cyfitter_cfg.c **** }
 242:.\Generated_Source\PSoC4/cyfitter_cfg.c **** 
 243:.\Generated_Source\PSoC4/cyfitter_cfg.c **** #define CY_AMUX_UNUSED CYREG_CM0_ROM_DWT
 244:.\Generated_Source\PSoC4/cyfitter_cfg.c **** 
 245:.\Generated_Source\PSoC4/cyfitter_cfg.c **** 
 246:.\Generated_Source\PSoC4/cyfitter_cfg.c **** /*******************************************************************************
 247:.\Generated_Source\PSoC4/cyfitter_cfg.c **** * Function Name: cyfitter_cfg
 248:.\Generated_Source\PSoC4/cyfitter_cfg.c **** ********************************************************************************
 249:.\Generated_Source\PSoC4/cyfitter_cfg.c **** * Summary:
 250:.\Generated_Source\PSoC4/cyfitter_cfg.c **** *  This function is called by the start-up code for the selected device. It
 251:.\Generated_Source\PSoC4/cyfitter_cfg.c **** *  performs all of the necessary device configuration based on the design
 252:.\Generated_Source\PSoC4/cyfitter_cfg.c **** *  settings.  This includes settings from the Design Wide Resources (DWR) such
 253:.\Generated_Source\PSoC4/cyfitter_cfg.c **** *  as Clocks and Pins as well as any component configuration that is necessary.
 254:.\Generated_Source\PSoC4/cyfitter_cfg.c **** *
 255:.\Generated_Source\PSoC4/cyfitter_cfg.c **** * Parameters:  
 256:.\Generated_Source\PSoC4/cyfitter_cfg.c **** *   void
 257:.\Generated_Source\PSoC4/cyfitter_cfg.c **** *
 258:.\Generated_Source\PSoC4/cyfitter_cfg.c **** * Return:
 259:.\Generated_Source\PSoC4/cyfitter_cfg.c **** *   void
 260:.\Generated_Source\PSoC4/cyfitter_cfg.c **** *
 261:.\Generated_Source\PSoC4/cyfitter_cfg.c **** *******************************************************************************/
 262:.\Generated_Source\PSoC4/cyfitter_cfg.c **** CY_CFG_SECTION
 263:.\Generated_Source\PSoC4/cyfitter_cfg.c **** void cyfitter_cfg(void)
 264:.\Generated_Source\PSoC4/cyfitter_cfg.c **** {
ARM GAS  C:\Users\Petro\AppData\Local\Temp\cca601q2.s 			page 10


 241              		.loc 1 264 0
 242              		.cfi_startproc
 243 008c 38B5     		push	{r3, r4, r5, lr}
 244              		.cfi_def_cfa_offset 16
 245              		.cfi_offset 3, -16
 246              		.cfi_offset 4, -12
 247              		.cfi_offset 5, -8
 248              		.cfi_offset 14, -4
 265:.\Generated_Source\PSoC4/cyfitter_cfg.c **** 	/* Disable interrupts by default. Let user enable if/when they want. */
 266:.\Generated_Source\PSoC4/cyfitter_cfg.c **** 	CyGlobalIntDisable;
 249              		.loc 1 266 0
 250              	@ 266 ".\Generated_Source\PSoC4\cyfitter_cfg.c" 1
 251 008e 72B6     		CPSID   i
 252              	@ 0 "" 2
 267:.\Generated_Source\PSoC4/cyfitter_cfg.c **** 
 268:.\Generated_Source\PSoC4/cyfitter_cfg.c **** 	/* Enable the clock in the interrupt controller for the routed interrupts */
 269:.\Generated_Source\PSoC4/cyfitter_cfg.c **** 	CY_SET_REG8((void *)CYREG_UDB_UDBIF_INT_CLK_CTL, 0x01u);
 253              		.loc 1 269 0
 254              		.code	16
 255 0090 0122     		mov	r2, #1
 256 0092 454B     		ldr	r3, .L17
 257 0094 1A70     		strb	r2, [r3]
 258              	.LVL18:
 259              	.LBB3:
 270:.\Generated_Source\PSoC4/cyfitter_cfg.c **** 	{
 271:.\Generated_Source\PSoC4/cyfitter_cfg.c **** 		static const uint32 CYCODE cy_cfg_addr_table[] = {
 272:.\Generated_Source\PSoC4/cyfitter_cfg.c **** 			0x400F0003u, /* Base address: 0x400F0000 Count: 3 */
 273:.\Generated_Source\PSoC4/cyfitter_cfg.c **** 			0x400F3014u, /* Base address: 0x400F3000 Count: 20 */
 274:.\Generated_Source\PSoC4/cyfitter_cfg.c **** 			0x400F313Au, /* Base address: 0x400F3100 Count: 58 */
 275:.\Generated_Source\PSoC4/cyfitter_cfg.c **** 			0x400F326Au, /* Base address: 0x400F3200 Count: 106 */
 276:.\Generated_Source\PSoC4/cyfitter_cfg.c **** 			0x400F3349u, /* Base address: 0x400F3300 Count: 73 */
 277:.\Generated_Source\PSoC4/cyfitter_cfg.c **** 			0x400F4008u, /* Base address: 0x400F4000 Count: 8 */
 278:.\Generated_Source\PSoC4/cyfitter_cfg.c **** 			0x400F4104u, /* Base address: 0x400F4100 Count: 4 */
 279:.\Generated_Source\PSoC4/cyfitter_cfg.c **** 			0x400F6002u, /* Base address: 0x400F6000 Count: 2 */
 280:.\Generated_Source\PSoC4/cyfitter_cfg.c **** 		};
 281:.\Generated_Source\PSoC4/cyfitter_cfg.c **** 
 282:.\Generated_Source\PSoC4/cyfitter_cfg.c **** 		static const cy_cfg_addrvalue_t CYCODE cy_cfg_data_table[] = {
 283:.\Generated_Source\PSoC4/cyfitter_cfg.c **** 			{0x80u, 0x72u},
 284:.\Generated_Source\PSoC4/cyfitter_cfg.c **** 			{0x81u, 0x38u},
 285:.\Generated_Source\PSoC4/cyfitter_cfg.c **** 			{0x83u, 0x0Fu},
 286:.\Generated_Source\PSoC4/cyfitter_cfg.c **** 			{0x81u, 0x01u},
 287:.\Generated_Source\PSoC4/cyfitter_cfg.c **** 			{0x82u, 0x01u},
 288:.\Generated_Source\PSoC4/cyfitter_cfg.c **** 			{0x84u, 0x08u},
 289:.\Generated_Source\PSoC4/cyfitter_cfg.c **** 			{0x8Eu, 0x02u},
 290:.\Generated_Source\PSoC4/cyfitter_cfg.c **** 			{0x92u, 0x04u},
 291:.\Generated_Source\PSoC4/cyfitter_cfg.c **** 			{0x9Au, 0x02u},
 292:.\Generated_Source\PSoC4/cyfitter_cfg.c **** 			{0x9Eu, 0x01u},
 293:.\Generated_Source\PSoC4/cyfitter_cfg.c **** 			{0xB0u, 0x01u},
 294:.\Generated_Source\PSoC4/cyfitter_cfg.c **** 			{0xB2u, 0x02u},
 295:.\Generated_Source\PSoC4/cyfitter_cfg.c **** 			{0xB4u, 0x04u},
 296:.\Generated_Source\PSoC4/cyfitter_cfg.c **** 			{0xB5u, 0x01u},
 297:.\Generated_Source\PSoC4/cyfitter_cfg.c **** 			{0xB6u, 0x08u},
 298:.\Generated_Source\PSoC4/cyfitter_cfg.c **** 			{0xBEu, 0x45u},
 299:.\Generated_Source\PSoC4/cyfitter_cfg.c **** 			{0xBFu, 0x10u},
 300:.\Generated_Source\PSoC4/cyfitter_cfg.c **** 			{0xD4u, 0x18u},
 301:.\Generated_Source\PSoC4/cyfitter_cfg.c **** 			{0xD6u, 0x04u},
 302:.\Generated_Source\PSoC4/cyfitter_cfg.c **** 			{0xD8u, 0x04u},
ARM GAS  C:\Users\Petro\AppData\Local\Temp\cca601q2.s 			page 11


 303:.\Generated_Source\PSoC4/cyfitter_cfg.c **** 			{0xD9u, 0x04u},
 304:.\Generated_Source\PSoC4/cyfitter_cfg.c **** 			{0xDBu, 0x04u},
 305:.\Generated_Source\PSoC4/cyfitter_cfg.c **** 			{0xDFu, 0x01u},
 306:.\Generated_Source\PSoC4/cyfitter_cfg.c **** 			{0x02u, 0x01u},
 307:.\Generated_Source\PSoC4/cyfitter_cfg.c **** 			{0x03u, 0x28u},
 308:.\Generated_Source\PSoC4/cyfitter_cfg.c **** 			{0x04u, 0x04u},
 309:.\Generated_Source\PSoC4/cyfitter_cfg.c **** 			{0x05u, 0x02u},
 310:.\Generated_Source\PSoC4/cyfitter_cfg.c **** 			{0x07u, 0x02u},
 311:.\Generated_Source\PSoC4/cyfitter_cfg.c **** 			{0x08u, 0x80u},
 312:.\Generated_Source\PSoC4/cyfitter_cfg.c **** 			{0x0Au, 0xE8u},
 313:.\Generated_Source\PSoC4/cyfitter_cfg.c **** 			{0x0Cu, 0x02u},
 314:.\Generated_Source\PSoC4/cyfitter_cfg.c **** 			{0x0Du, 0x20u},
 315:.\Generated_Source\PSoC4/cyfitter_cfg.c **** 			{0x0Eu, 0x01u},
 316:.\Generated_Source\PSoC4/cyfitter_cfg.c **** 			{0x10u, 0x80u},
 317:.\Generated_Source\PSoC4/cyfitter_cfg.c **** 			{0x13u, 0xA8u},
 318:.\Generated_Source\PSoC4/cyfitter_cfg.c **** 			{0x19u, 0x85u},
 319:.\Generated_Source\PSoC4/cyfitter_cfg.c **** 			{0x1Au, 0x01u},
 320:.\Generated_Source\PSoC4/cyfitter_cfg.c **** 			{0x1Bu, 0x28u},
 321:.\Generated_Source\PSoC4/cyfitter_cfg.c **** 			{0x1Du, 0x10u},
 322:.\Generated_Source\PSoC4/cyfitter_cfg.c **** 			{0x1Fu, 0x45u},
 323:.\Generated_Source\PSoC4/cyfitter_cfg.c **** 			{0x20u, 0x48u},
 324:.\Generated_Source\PSoC4/cyfitter_cfg.c **** 			{0x21u, 0x10u},
 325:.\Generated_Source\PSoC4/cyfitter_cfg.c **** 			{0x22u, 0x18u},
 326:.\Generated_Source\PSoC4/cyfitter_cfg.c **** 			{0x23u, 0x82u},
 327:.\Generated_Source\PSoC4/cyfitter_cfg.c **** 			{0x27u, 0x04u},
 328:.\Generated_Source\PSoC4/cyfitter_cfg.c **** 			{0x28u, 0x80u},
 329:.\Generated_Source\PSoC4/cyfitter_cfg.c **** 			{0x29u, 0x14u},
 330:.\Generated_Source\PSoC4/cyfitter_cfg.c **** 			{0x2Au, 0x80u},
 331:.\Generated_Source\PSoC4/cyfitter_cfg.c **** 			{0x30u, 0x02u},
 332:.\Generated_Source\PSoC4/cyfitter_cfg.c **** 			{0x32u, 0x44u},
 333:.\Generated_Source\PSoC4/cyfitter_cfg.c **** 			{0x33u, 0x20u},
 334:.\Generated_Source\PSoC4/cyfitter_cfg.c **** 			{0x38u, 0x68u},
 335:.\Generated_Source\PSoC4/cyfitter_cfg.c **** 			{0x3Au, 0x02u},
 336:.\Generated_Source\PSoC4/cyfitter_cfg.c **** 			{0x3Fu, 0x01u},
 337:.\Generated_Source\PSoC4/cyfitter_cfg.c **** 			{0x40u, 0x01u},
 338:.\Generated_Source\PSoC4/cyfitter_cfg.c **** 			{0x41u, 0x01u},
 339:.\Generated_Source\PSoC4/cyfitter_cfg.c **** 			{0x42u, 0x40u},
 340:.\Generated_Source\PSoC4/cyfitter_cfg.c **** 			{0x43u, 0x20u},
 341:.\Generated_Source\PSoC4/cyfitter_cfg.c **** 			{0x48u, 0x04u},
 342:.\Generated_Source\PSoC4/cyfitter_cfg.c **** 			{0x49u, 0x82u},
 343:.\Generated_Source\PSoC4/cyfitter_cfg.c **** 			{0x51u, 0x20u},
 344:.\Generated_Source\PSoC4/cyfitter_cfg.c **** 			{0x59u, 0x01u},
 345:.\Generated_Source\PSoC4/cyfitter_cfg.c **** 			{0x5Du, 0x01u},
 346:.\Generated_Source\PSoC4/cyfitter_cfg.c **** 			{0x67u, 0x4Au},
 347:.\Generated_Source\PSoC4/cyfitter_cfg.c **** 			{0x69u, 0x54u},
 348:.\Generated_Source\PSoC4/cyfitter_cfg.c **** 			{0x70u, 0x94u},
 349:.\Generated_Source\PSoC4/cyfitter_cfg.c **** 			{0x72u, 0x02u},
 350:.\Generated_Source\PSoC4/cyfitter_cfg.c **** 			{0x73u, 0x28u},
 351:.\Generated_Source\PSoC4/cyfitter_cfg.c **** 			{0x85u, 0x01u},
 352:.\Generated_Source\PSoC4/cyfitter_cfg.c **** 			{0x86u, 0x08u},
 353:.\Generated_Source\PSoC4/cyfitter_cfg.c **** 			{0x87u, 0x40u},
 354:.\Generated_Source\PSoC4/cyfitter_cfg.c **** 			{0xC0u, 0xB7u},
 355:.\Generated_Source\PSoC4/cyfitter_cfg.c **** 			{0xC2u, 0xDFu},
 356:.\Generated_Source\PSoC4/cyfitter_cfg.c **** 			{0xC4u, 0x0Fu},
 357:.\Generated_Source\PSoC4/cyfitter_cfg.c **** 			{0xCAu, 0x0Fu},
 358:.\Generated_Source\PSoC4/cyfitter_cfg.c **** 			{0xCCu, 0x0Fu},
 359:.\Generated_Source\PSoC4/cyfitter_cfg.c **** 			{0xCEu, 0x8Fu},
ARM GAS  C:\Users\Petro\AppData\Local\Temp\cca601q2.s 			page 12


 360:.\Generated_Source\PSoC4/cyfitter_cfg.c **** 			{0xD0u, 0x0Du},
 361:.\Generated_Source\PSoC4/cyfitter_cfg.c **** 			{0xD2u, 0x0Cu},
 362:.\Generated_Source\PSoC4/cyfitter_cfg.c **** 			{0xD6u, 0x81u},
 363:.\Generated_Source\PSoC4/cyfitter_cfg.c **** 			{0xD8u, 0xB0u},
 364:.\Generated_Source\PSoC4/cyfitter_cfg.c **** 			{0x01u, 0x80u},
 365:.\Generated_Source\PSoC4/cyfitter_cfg.c **** 			{0x03u, 0x13u},
 366:.\Generated_Source\PSoC4/cyfitter_cfg.c **** 			{0x06u, 0x03u},
 367:.\Generated_Source\PSoC4/cyfitter_cfg.c **** 			{0x08u, 0xDCu},
 368:.\Generated_Source\PSoC4/cyfitter_cfg.c **** 			{0x0Au, 0x22u},
 369:.\Generated_Source\PSoC4/cyfitter_cfg.c **** 			{0x10u, 0x10u},
 370:.\Generated_Source\PSoC4/cyfitter_cfg.c **** 			{0x12u, 0xACu},
 371:.\Generated_Source\PSoC4/cyfitter_cfg.c **** 			{0x13u, 0x0Cu},
 372:.\Generated_Source\PSoC4/cyfitter_cfg.c **** 			{0x14u, 0x0Cu},
 373:.\Generated_Source\PSoC4/cyfitter_cfg.c **** 			{0x15u, 0x2Cu},
 374:.\Generated_Source\PSoC4/cyfitter_cfg.c **** 			{0x16u, 0x71u},
 375:.\Generated_Source\PSoC4/cyfitter_cfg.c **** 			{0x17u, 0x43u},
 376:.\Generated_Source\PSoC4/cyfitter_cfg.c **** 			{0x1Eu, 0x20u},
 377:.\Generated_Source\PSoC4/cyfitter_cfg.c **** 			{0x20u, 0x09u},
 378:.\Generated_Source\PSoC4/cyfitter_cfg.c **** 			{0x22u, 0xD0u},
 379:.\Generated_Source\PSoC4/cyfitter_cfg.c **** 			{0x24u, 0x10u},
 380:.\Generated_Source\PSoC4/cyfitter_cfg.c **** 			{0x26u, 0x40u},
 381:.\Generated_Source\PSoC4/cyfitter_cfg.c **** 			{0x27u, 0x08u},
 382:.\Generated_Source\PSoC4/cyfitter_cfg.c **** 			{0x28u, 0x14u},
 383:.\Generated_Source\PSoC4/cyfitter_cfg.c **** 			{0x29u, 0x71u},
 384:.\Generated_Source\PSoC4/cyfitter_cfg.c **** 			{0x2Bu, 0x0Eu},
 385:.\Generated_Source\PSoC4/cyfitter_cfg.c **** 			{0x2Du, 0x71u},
 386:.\Generated_Source\PSoC4/cyfitter_cfg.c **** 			{0x2Fu, 0x06u},
 387:.\Generated_Source\PSoC4/cyfitter_cfg.c **** 			{0x32u, 0xE0u},
 388:.\Generated_Source\PSoC4/cyfitter_cfg.c **** 			{0x33u, 0x30u},
 389:.\Generated_Source\PSoC4/cyfitter_cfg.c **** 			{0x34u, 0x1Fu},
 390:.\Generated_Source\PSoC4/cyfitter_cfg.c **** 			{0x35u, 0x0Fu},
 391:.\Generated_Source\PSoC4/cyfitter_cfg.c **** 			{0x37u, 0xC0u},
 392:.\Generated_Source\PSoC4/cyfitter_cfg.c **** 			{0x39u, 0x88u},
 393:.\Generated_Source\PSoC4/cyfitter_cfg.c **** 			{0x3Au, 0x08u},
 394:.\Generated_Source\PSoC4/cyfitter_cfg.c **** 			{0x3Bu, 0x20u},
 395:.\Generated_Source\PSoC4/cyfitter_cfg.c **** 			{0x3Fu, 0x04u},
 396:.\Generated_Source\PSoC4/cyfitter_cfg.c **** 			{0x40u, 0x02u},
 397:.\Generated_Source\PSoC4/cyfitter_cfg.c **** 			{0x46u, 0x40u},
 398:.\Generated_Source\PSoC4/cyfitter_cfg.c **** 			{0x49u, 0xFFu},
 399:.\Generated_Source\PSoC4/cyfitter_cfg.c **** 			{0x4Au, 0x07u},
 400:.\Generated_Source\PSoC4/cyfitter_cfg.c **** 			{0x4Bu, 0xFFu},
 401:.\Generated_Source\PSoC4/cyfitter_cfg.c **** 			{0x4Cu, 0x40u},
 402:.\Generated_Source\PSoC4/cyfitter_cfg.c **** 			{0x4Du, 0x20u},
 403:.\Generated_Source\PSoC4/cyfitter_cfg.c **** 			{0x4Eu, 0xF0u},
 404:.\Generated_Source\PSoC4/cyfitter_cfg.c **** 			{0x4Fu, 0x05u},
 405:.\Generated_Source\PSoC4/cyfitter_cfg.c **** 			{0x50u, 0x08u},
 406:.\Generated_Source\PSoC4/cyfitter_cfg.c **** 			{0x58u, 0x04u},
 407:.\Generated_Source\PSoC4/cyfitter_cfg.c **** 			{0x59u, 0x04u},
 408:.\Generated_Source\PSoC4/cyfitter_cfg.c **** 			{0x5Au, 0x04u},
 409:.\Generated_Source\PSoC4/cyfitter_cfg.c **** 			{0x5Fu, 0x01u},
 410:.\Generated_Source\PSoC4/cyfitter_cfg.c **** 			{0x60u, 0x40u},
 411:.\Generated_Source\PSoC4/cyfitter_cfg.c **** 			{0x61u, 0xA8u},
 412:.\Generated_Source\PSoC4/cyfitter_cfg.c **** 			{0x62u, 0x40u},
 413:.\Generated_Source\PSoC4/cyfitter_cfg.c **** 			{0x63u, 0x20u},
 414:.\Generated_Source\PSoC4/cyfitter_cfg.c **** 			{0x81u, 0x01u},
 415:.\Generated_Source\PSoC4/cyfitter_cfg.c **** 			{0x82u, 0x15u},
 416:.\Generated_Source\PSoC4/cyfitter_cfg.c **** 			{0x83u, 0x0Au},
ARM GAS  C:\Users\Petro\AppData\Local\Temp\cca601q2.s 			page 13


 417:.\Generated_Source\PSoC4/cyfitter_cfg.c **** 			{0x84u, 0x0Au},
 418:.\Generated_Source\PSoC4/cyfitter_cfg.c **** 			{0x85u, 0x13u},
 419:.\Generated_Source\PSoC4/cyfitter_cfg.c **** 			{0x86u, 0x14u},
 420:.\Generated_Source\PSoC4/cyfitter_cfg.c **** 			{0x88u, 0x20u},
 421:.\Generated_Source\PSoC4/cyfitter_cfg.c **** 			{0x89u, 0x13u},
 422:.\Generated_Source\PSoC4/cyfitter_cfg.c **** 			{0x8Au, 0xC0u},
 423:.\Generated_Source\PSoC4/cyfitter_cfg.c **** 			{0x8Cu, 0x40u},
 424:.\Generated_Source\PSoC4/cyfitter_cfg.c **** 			{0x8Du, 0x10u},
 425:.\Generated_Source\PSoC4/cyfitter_cfg.c **** 			{0x8Eu, 0x20u},
 426:.\Generated_Source\PSoC4/cyfitter_cfg.c **** 			{0x90u, 0x13u},
 427:.\Generated_Source\PSoC4/cyfitter_cfg.c **** 			{0x92u, 0x0Cu},
 428:.\Generated_Source\PSoC4/cyfitter_cfg.c **** 			{0x94u, 0x13u},
 429:.\Generated_Source\PSoC4/cyfitter_cfg.c **** 			{0x96u, 0x04u},
 430:.\Generated_Source\PSoC4/cyfitter_cfg.c **** 			{0x98u, 0x80u},
 431:.\Generated_Source\PSoC4/cyfitter_cfg.c **** 			{0x99u, 0x02u},
 432:.\Generated_Source\PSoC4/cyfitter_cfg.c **** 			{0x9Au, 0x20u},
 433:.\Generated_Source\PSoC4/cyfitter_cfg.c **** 			{0x9Bu, 0x09u},
 434:.\Generated_Source\PSoC4/cyfitter_cfg.c **** 			{0x9Eu, 0x08u},
 435:.\Generated_Source\PSoC4/cyfitter_cfg.c **** 			{0xA0u, 0x03u},
 436:.\Generated_Source\PSoC4/cyfitter_cfg.c **** 			{0xA2u, 0x14u},
 437:.\Generated_Source\PSoC4/cyfitter_cfg.c **** 			{0xA4u, 0xE0u},
 438:.\Generated_Source\PSoC4/cyfitter_cfg.c **** 			{0xA7u, 0x04u},
 439:.\Generated_Source\PSoC4/cyfitter_cfg.c **** 			{0xA8u, 0xE0u},
 440:.\Generated_Source\PSoC4/cyfitter_cfg.c **** 			{0xB0u, 0x0Fu},
 441:.\Generated_Source\PSoC4/cyfitter_cfg.c **** 			{0xB1u, 0x10u},
 442:.\Generated_Source\PSoC4/cyfitter_cfg.c **** 			{0xB4u, 0xE0u},
 443:.\Generated_Source\PSoC4/cyfitter_cfg.c **** 			{0xB5u, 0x03u},
 444:.\Generated_Source\PSoC4/cyfitter_cfg.c **** 			{0xB6u, 0x10u},
 445:.\Generated_Source\PSoC4/cyfitter_cfg.c **** 			{0xB7u, 0x0Cu},
 446:.\Generated_Source\PSoC4/cyfitter_cfg.c **** 			{0xBAu, 0x02u},
 447:.\Generated_Source\PSoC4/cyfitter_cfg.c **** 			{0xBEu, 0x40u},
 448:.\Generated_Source\PSoC4/cyfitter_cfg.c **** 			{0xBFu, 0x40u},
 449:.\Generated_Source\PSoC4/cyfitter_cfg.c **** 			{0xC0u, 0x41u},
 450:.\Generated_Source\PSoC4/cyfitter_cfg.c **** 			{0xC1u, 0x03u},
 451:.\Generated_Source\PSoC4/cyfitter_cfg.c **** 			{0xC5u, 0xE0u},
 452:.\Generated_Source\PSoC4/cyfitter_cfg.c **** 			{0xC6u, 0x0Cu},
 453:.\Generated_Source\PSoC4/cyfitter_cfg.c **** 			{0xC7u, 0x0Bu},
 454:.\Generated_Source\PSoC4/cyfitter_cfg.c **** 			{0xC8u, 0x16u},
 455:.\Generated_Source\PSoC4/cyfitter_cfg.c **** 			{0xC9u, 0xFFu},
 456:.\Generated_Source\PSoC4/cyfitter_cfg.c **** 			{0xCAu, 0xFFu},
 457:.\Generated_Source\PSoC4/cyfitter_cfg.c **** 			{0xCBu, 0xFFu},
 458:.\Generated_Source\PSoC4/cyfitter_cfg.c **** 			{0xCEu, 0xF0u},
 459:.\Generated_Source\PSoC4/cyfitter_cfg.c **** 			{0xCFu, 0x44u},
 460:.\Generated_Source\PSoC4/cyfitter_cfg.c **** 			{0xD0u, 0x0Cu},
 461:.\Generated_Source\PSoC4/cyfitter_cfg.c **** 			{0xD4u, 0x01u},
 462:.\Generated_Source\PSoC4/cyfitter_cfg.c **** 			{0xD8u, 0x04u},
 463:.\Generated_Source\PSoC4/cyfitter_cfg.c **** 			{0xD9u, 0x04u},
 464:.\Generated_Source\PSoC4/cyfitter_cfg.c **** 			{0xDAu, 0x04u},
 465:.\Generated_Source\PSoC4/cyfitter_cfg.c **** 			{0xDBu, 0x04u},
 466:.\Generated_Source\PSoC4/cyfitter_cfg.c **** 			{0xDFu, 0x01u},
 467:.\Generated_Source\PSoC4/cyfitter_cfg.c **** 			{0xE6u, 0xC0u},
 468:.\Generated_Source\PSoC4/cyfitter_cfg.c **** 			{0xEAu, 0x40u},
 469:.\Generated_Source\PSoC4/cyfitter_cfg.c **** 			{0xEBu, 0x02u},
 470:.\Generated_Source\PSoC4/cyfitter_cfg.c **** 			{0x00u, 0x02u},
 471:.\Generated_Source\PSoC4/cyfitter_cfg.c **** 			{0x01u, 0x20u},
 472:.\Generated_Source\PSoC4/cyfitter_cfg.c **** 			{0x02u, 0x21u},
 473:.\Generated_Source\PSoC4/cyfitter_cfg.c **** 			{0x04u, 0x04u},
ARM GAS  C:\Users\Petro\AppData\Local\Temp\cca601q2.s 			page 14


 474:.\Generated_Source\PSoC4/cyfitter_cfg.c **** 			{0x07u, 0x08u},
 475:.\Generated_Source\PSoC4/cyfitter_cfg.c **** 			{0x09u, 0x48u},
 476:.\Generated_Source\PSoC4/cyfitter_cfg.c **** 			{0x0Au, 0x48u},
 477:.\Generated_Source\PSoC4/cyfitter_cfg.c **** 			{0x0Bu, 0x04u},
 478:.\Generated_Source\PSoC4/cyfitter_cfg.c **** 			{0x0Du, 0x08u},
 479:.\Generated_Source\PSoC4/cyfitter_cfg.c **** 			{0x0Eu, 0x40u},
 480:.\Generated_Source\PSoC4/cyfitter_cfg.c **** 			{0x0Fu, 0x02u},
 481:.\Generated_Source\PSoC4/cyfitter_cfg.c **** 			{0x11u, 0x14u},
 482:.\Generated_Source\PSoC4/cyfitter_cfg.c **** 			{0x12u, 0x40u},
 483:.\Generated_Source\PSoC4/cyfitter_cfg.c **** 			{0x16u, 0x14u},
 484:.\Generated_Source\PSoC4/cyfitter_cfg.c **** 			{0x17u, 0x01u},
 485:.\Generated_Source\PSoC4/cyfitter_cfg.c **** 			{0x19u, 0xA0u},
 486:.\Generated_Source\PSoC4/cyfitter_cfg.c **** 			{0x1Au, 0x40u},
 487:.\Generated_Source\PSoC4/cyfitter_cfg.c **** 			{0x1Bu, 0x12u},
 488:.\Generated_Source\PSoC4/cyfitter_cfg.c **** 			{0x1Cu, 0x04u},
 489:.\Generated_Source\PSoC4/cyfitter_cfg.c **** 			{0x1Du, 0x08u},
 490:.\Generated_Source\PSoC4/cyfitter_cfg.c **** 			{0x1Fu, 0x08u},
 491:.\Generated_Source\PSoC4/cyfitter_cfg.c **** 			{0x20u, 0x01u},
 492:.\Generated_Source\PSoC4/cyfitter_cfg.c **** 			{0x21u, 0x01u},
 493:.\Generated_Source\PSoC4/cyfitter_cfg.c **** 			{0x22u, 0x10u},
 494:.\Generated_Source\PSoC4/cyfitter_cfg.c **** 			{0x23u, 0x04u},
 495:.\Generated_Source\PSoC4/cyfitter_cfg.c **** 			{0x25u, 0x40u},
 496:.\Generated_Source\PSoC4/cyfitter_cfg.c **** 			{0x26u, 0x20u},
 497:.\Generated_Source\PSoC4/cyfitter_cfg.c **** 			{0x27u, 0x29u},
 498:.\Generated_Source\PSoC4/cyfitter_cfg.c **** 			{0x2Bu, 0x10u},
 499:.\Generated_Source\PSoC4/cyfitter_cfg.c **** 			{0x2Fu, 0x2Au},
 500:.\Generated_Source\PSoC4/cyfitter_cfg.c **** 			{0x32u, 0x10u},
 501:.\Generated_Source\PSoC4/cyfitter_cfg.c **** 			{0x37u, 0x09u},
 502:.\Generated_Source\PSoC4/cyfitter_cfg.c **** 			{0x39u, 0x54u},
 503:.\Generated_Source\PSoC4/cyfitter_cfg.c **** 			{0x3Au, 0x01u},
 504:.\Generated_Source\PSoC4/cyfitter_cfg.c **** 			{0x3Fu, 0x02u},
 505:.\Generated_Source\PSoC4/cyfitter_cfg.c **** 			{0x42u, 0x02u},
 506:.\Generated_Source\PSoC4/cyfitter_cfg.c **** 			{0x43u, 0x0Au},
 507:.\Generated_Source\PSoC4/cyfitter_cfg.c **** 			{0x47u, 0x20u},
 508:.\Generated_Source\PSoC4/cyfitter_cfg.c **** 			{0x49u, 0x01u},
 509:.\Generated_Source\PSoC4/cyfitter_cfg.c **** 			{0x4Bu, 0x01u},
 510:.\Generated_Source\PSoC4/cyfitter_cfg.c **** 			{0x51u, 0x40u},
 511:.\Generated_Source\PSoC4/cyfitter_cfg.c **** 			{0x52u, 0x44u},
 512:.\Generated_Source\PSoC4/cyfitter_cfg.c **** 			{0x54u, 0x01u},
 513:.\Generated_Source\PSoC4/cyfitter_cfg.c **** 			{0x56u, 0x12u},
 514:.\Generated_Source\PSoC4/cyfitter_cfg.c **** 			{0x57u, 0x21u},
 515:.\Generated_Source\PSoC4/cyfitter_cfg.c **** 			{0x59u, 0x81u},
 516:.\Generated_Source\PSoC4/cyfitter_cfg.c **** 			{0x5Au, 0x10u},
 517:.\Generated_Source\PSoC4/cyfitter_cfg.c **** 			{0x5Bu, 0x04u},
 518:.\Generated_Source\PSoC4/cyfitter_cfg.c **** 			{0x80u, 0x80u},
 519:.\Generated_Source\PSoC4/cyfitter_cfg.c **** 			{0x83u, 0x10u},
 520:.\Generated_Source\PSoC4/cyfitter_cfg.c **** 			{0x8Du, 0x40u},
 521:.\Generated_Source\PSoC4/cyfitter_cfg.c **** 			{0x8Eu, 0x10u},
 522:.\Generated_Source\PSoC4/cyfitter_cfg.c **** 			{0x91u, 0x54u},
 523:.\Generated_Source\PSoC4/cyfitter_cfg.c **** 			{0x94u, 0x05u},
 524:.\Generated_Source\PSoC4/cyfitter_cfg.c **** 			{0x95u, 0x02u},
 525:.\Generated_Source\PSoC4/cyfitter_cfg.c **** 			{0x96u, 0x08u},
 526:.\Generated_Source\PSoC4/cyfitter_cfg.c **** 			{0x97u, 0x01u},
 527:.\Generated_Source\PSoC4/cyfitter_cfg.c **** 			{0x9Au, 0x01u},
 528:.\Generated_Source\PSoC4/cyfitter_cfg.c **** 			{0x9Bu, 0x04u},
 529:.\Generated_Source\PSoC4/cyfitter_cfg.c **** 			{0x9Cu, 0x80u},
 530:.\Generated_Source\PSoC4/cyfitter_cfg.c **** 			{0xA8u, 0x02u},
ARM GAS  C:\Users\Petro\AppData\Local\Temp\cca601q2.s 			page 15


 531:.\Generated_Source\PSoC4/cyfitter_cfg.c **** 			{0xAAu, 0x01u},
 532:.\Generated_Source\PSoC4/cyfitter_cfg.c **** 			{0xADu, 0x10u},
 533:.\Generated_Source\PSoC4/cyfitter_cfg.c **** 			{0xAEu, 0x80u},
 534:.\Generated_Source\PSoC4/cyfitter_cfg.c **** 			{0xAFu, 0x40u},
 535:.\Generated_Source\PSoC4/cyfitter_cfg.c **** 			{0xC0u, 0x6Fu},
 536:.\Generated_Source\PSoC4/cyfitter_cfg.c **** 			{0xC2u, 0xBFu},
 537:.\Generated_Source\PSoC4/cyfitter_cfg.c **** 			{0xC4u, 0x7Eu},
 538:.\Generated_Source\PSoC4/cyfitter_cfg.c **** 			{0xCAu, 0x72u},
 539:.\Generated_Source\PSoC4/cyfitter_cfg.c **** 			{0xCCu, 0xC4u},
 540:.\Generated_Source\PSoC4/cyfitter_cfg.c **** 			{0xCEu, 0x8Fu},
 541:.\Generated_Source\PSoC4/cyfitter_cfg.c **** 			{0xD0u, 0x2Bu},
 542:.\Generated_Source\PSoC4/cyfitter_cfg.c **** 			{0xD6u, 0x0Fu},
 543:.\Generated_Source\PSoC4/cyfitter_cfg.c **** 			{0x0Au, 0x40u},
 544:.\Generated_Source\PSoC4/cyfitter_cfg.c **** 			{0x5Du, 0x01u},
 545:.\Generated_Source\PSoC4/cyfitter_cfg.c **** 			{0x6Eu, 0x80u},
 546:.\Generated_Source\PSoC4/cyfitter_cfg.c **** 			{0x86u, 0x40u},
 547:.\Generated_Source\PSoC4/cyfitter_cfg.c **** 			{0xC2u, 0x10u},
 548:.\Generated_Source\PSoC4/cyfitter_cfg.c **** 			{0xD6u, 0x80u},
 549:.\Generated_Source\PSoC4/cyfitter_cfg.c **** 			{0xDAu, 0x80u},
 550:.\Generated_Source\PSoC4/cyfitter_cfg.c **** 			{0xE6u, 0x40u},
 551:.\Generated_Source\PSoC4/cyfitter_cfg.c **** 			{0xAAu, 0x40u},
 552:.\Generated_Source\PSoC4/cyfitter_cfg.c **** 			{0xADu, 0x01u},
 553:.\Generated_Source\PSoC4/cyfitter_cfg.c **** 			{0xE8u, 0x20u},
 554:.\Generated_Source\PSoC4/cyfitter_cfg.c **** 			{0xEAu, 0x10u},
 555:.\Generated_Source\PSoC4/cyfitter_cfg.c **** 			{0x10u, 0x01u},
 556:.\Generated_Source\PSoC4/cyfitter_cfg.c **** 			{0x11u, 0x01u},
 557:.\Generated_Source\PSoC4/cyfitter_cfg.c **** 		};
 558:.\Generated_Source\PSoC4/cyfitter_cfg.c **** 
 559:.\Generated_Source\PSoC4/cyfitter_cfg.c **** 
 560:.\Generated_Source\PSoC4/cyfitter_cfg.c **** 
 561:.\Generated_Source\PSoC4/cyfitter_cfg.c **** 		CYPACKED typedef struct {
 562:.\Generated_Source\PSoC4/cyfitter_cfg.c **** 			void CYFAR *address;
 563:.\Generated_Source\PSoC4/cyfitter_cfg.c **** 			uint16 size;
 564:.\Generated_Source\PSoC4/cyfitter_cfg.c **** 		} CYPACKED_ATTR cfg_memset_t;
 565:.\Generated_Source\PSoC4/cyfitter_cfg.c **** 
 566:.\Generated_Source\PSoC4/cyfitter_cfg.c **** 
 567:.\Generated_Source\PSoC4/cyfitter_cfg.c **** 		CYPACKED typedef struct {
 568:.\Generated_Source\PSoC4/cyfitter_cfg.c **** 			void CYFAR *dest;
 569:.\Generated_Source\PSoC4/cyfitter_cfg.c **** 			const void CYCODE *src;
 570:.\Generated_Source\PSoC4/cyfitter_cfg.c **** 			uint16 size;
 571:.\Generated_Source\PSoC4/cyfitter_cfg.c **** 		} CYPACKED_ATTR cfg_memcpy_t;
 572:.\Generated_Source\PSoC4/cyfitter_cfg.c **** 
 573:.\Generated_Source\PSoC4/cyfitter_cfg.c **** 		static const cfg_memset_t CYCODE cfg_memset_list [] = {
 574:.\Generated_Source\PSoC4/cyfitter_cfg.c **** 			/* address, size */
 575:.\Generated_Source\PSoC4/cyfitter_cfg.c **** 			{(void CYFAR *)(CYDEV_UDB_P0_U1_BASE), 896u},
 576:.\Generated_Source\PSoC4/cyfitter_cfg.c **** 			{(void CYFAR *)(CYDEV_UDB_DSI0_BASE), 1024u},
 577:.\Generated_Source\PSoC4/cyfitter_cfg.c **** 		};
 578:.\Generated_Source\PSoC4/cyfitter_cfg.c **** 
 579:.\Generated_Source\PSoC4/cyfitter_cfg.c **** 		/* UDB_0_1_0_CONFIG Address: CYDEV_UDB_P0_U0_BASE Size (bytes): 128 */
 580:.\Generated_Source\PSoC4/cyfitter_cfg.c **** 		static const uint8 CYCODE BS_UDB_0_1_0_CONFIG_VAL[] = {
 581:.\Generated_Source\PSoC4/cyfitter_cfg.c **** 			0x00u, 0x10u, 0x00u, 0x00u, 0x73u, 0x18u, 0x0Cu, 0x00u, 0x1Fu, 0x08u, 0x60u, 0x00u, 0x01u, 0x1Cu
 582:.\Generated_Source\PSoC4/cyfitter_cfg.c **** 			0x00u, 0x24u, 0x63u, 0x00u, 0x7Fu, 0x40u, 0x00u, 0x00u, 0x02u, 0xE7u, 0x00u, 0x18u, 0x03u, 0x00u
 583:.\Generated_Source\PSoC4/cyfitter_cfg.c **** 			0x08u, 0x60u, 0x00u, 0x00u, 0x04u, 0x1Cu, 0x00u, 0xE1u, 0x0Cu, 0x00u, 0x00u, 0x04u, 0x5Cu, 0xFFu
 584:.\Generated_Source\PSoC4/cyfitter_cfg.c **** 			0x10u, 0x1Fu, 0x2Cu, 0x60u, 0x0Fu, 0x00u, 0x4Cu, 0x80u, 0x00u, 0x80u, 0x28u, 0x22u, 0x00u, 0x00u
 585:.\Generated_Source\PSoC4/cyfitter_cfg.c **** 			0x24u, 0x06u, 0x05u, 0x00u, 0x01u, 0xC0u, 0xE0u, 0x00u, 0x0Au, 0xFFu, 0xFFu, 0xFFu, 0x62u, 0xA0u
 586:.\Generated_Source\PSoC4/cyfitter_cfg.c **** 			0x0Cu, 0x00u, 0x00u, 0x00u, 0x00u, 0x00u, 0x02u, 0x13u, 0x04u, 0x04u, 0x04u, 0x04u, 0x00u, 0x00u
 587:.\Generated_Source\PSoC4/cyfitter_cfg.c **** 			0x00u, 0x00u, 0x00u, 0x00u, 0x00u, 0x00u, 0x40u, 0x02u, 0x00u, 0x10u, 0x30u, 0x10u, 0x00u, 0x10u
ARM GAS  C:\Users\Petro\AppData\Local\Temp\cca601q2.s 			page 16


 588:.\Generated_Source\PSoC4/cyfitter_cfg.c **** 			0x00u, 0x00u, 0x00u, 0x00u, 0x00u, 0x00u, 0x00u, 0x00u, 0x00u, 0x00u, 0x00u, 0x00u, 0x00u, 0x00u
 589:.\Generated_Source\PSoC4/cyfitter_cfg.c **** 
 590:.\Generated_Source\PSoC4/cyfitter_cfg.c **** 		static const cfg_memcpy_t CYCODE cfg_memcpy_list [] = {
 591:.\Generated_Source\PSoC4/cyfitter_cfg.c **** 			/* dest, src, size */
 592:.\Generated_Source\PSoC4/cyfitter_cfg.c **** 			{(void CYFAR *)(CYDEV_UDB_P0_U0_BASE), BS_UDB_0_1_0_CONFIG_VAL, 128u},
 593:.\Generated_Source\PSoC4/cyfitter_cfg.c **** 		};
 594:.\Generated_Source\PSoC4/cyfitter_cfg.c **** 
 595:.\Generated_Source\PSoC4/cyfitter_cfg.c **** 		uint8 CYDATA i;
 596:.\Generated_Source\PSoC4/cyfitter_cfg.c **** 
 597:.\Generated_Source\PSoC4/cyfitter_cfg.c **** 		/* Zero out critical memory blocks before beginning configuration */
 598:.\Generated_Source\PSoC4/cyfitter_cfg.c **** 		for (i = 0u; i < (sizeof(cfg_memset_list)/sizeof(cfg_memset_list[0])); i++)
 260              		.loc 1 598 0
 261 0096 0024     		mov	r4, #0
 262 0098 10E0     		b	.L13
 263              	.LVL19:
 264              	.L14:
 265              	.LBB4:
 599:.\Generated_Source\PSoC4/cyfitter_cfg.c **** 		{
 600:.\Generated_Source\PSoC4/cyfitter_cfg.c **** 			const cfg_memset_t CYCODE * CYDATA ms = &cfg_memset_list[i];
 601:.\Generated_Source\PSoC4/cyfitter_cfg.c **** 			CYMEMZERO(ms->address, (size_t)(uint32)(ms->size));
 266              		.loc 1 601 0 discriminator 3
 267 009a 4448     		ldr	r0, .L17+4
 268 009c 6300     		lsl	r3, r4, #1
 269 009e 1A19     		add	r2, r3, r4
 270 00a0 5200     		lsl	r2, r2, #1
 271 00a2 8218     		add	r2, r0, r2
 272 00a4 9188     		ldrh	r1, [r2, #4]
 273 00a6 1B19     		add	r3, r3, r4
 274 00a8 5B00     		lsl	r3, r3, #1
 275 00aa 1A5A     		ldrh	r2, [r3, r0]
 276 00ac C318     		add	r3, r0, r3
 277 00ae 5888     		ldrh	r0, [r3, #2]
 278 00b0 0004     		lsl	r0, r0, #16
 279 00b2 1043     		orr	r0, r2
 280 00b4 FFF7FEFF 		bl	CYMEMZERO
 281              	.LVL20:
 282              	.LBE4:
 598:.\Generated_Source\PSoC4/cyfitter_cfg.c **** 		{
 283              		.loc 1 598 0 discriminator 3
 284 00b8 0134     		add	r4, r4, #1
 285              	.LVL21:
 286 00ba E4B2     		uxtb	r4, r4
 287              	.LVL22:
 288              	.L13:
 598:.\Generated_Source\PSoC4/cyfitter_cfg.c **** 		{
 289              		.loc 1 598 0 is_stmt 0 discriminator 1
 290 00bc 012C     		cmp	r4, #1
 291 00be ECD9     		bls	.L14
 292 00c0 0024     		mov	r4, #0
 293              	.LVL23:
 294 00c2 12E0     		b	.L15
 295              	.LVL24:
 296              	.L16:
 297              	.LBB5:
 602:.\Generated_Source\PSoC4/cyfitter_cfg.c **** 		}
 603:.\Generated_Source\PSoC4/cyfitter_cfg.c **** 
 604:.\Generated_Source\PSoC4/cyfitter_cfg.c **** 		/* Copy device configuration data into registers */
ARM GAS  C:\Users\Petro\AppData\Local\Temp\cca601q2.s 			page 17


 605:.\Generated_Source\PSoC4/cyfitter_cfg.c **** 		for (i = 0u; i < (sizeof(cfg_memcpy_list)/sizeof(cfg_memcpy_list[0])); i++)
 606:.\Generated_Source\PSoC4/cyfitter_cfg.c **** 		{
 607:.\Generated_Source\PSoC4/cyfitter_cfg.c **** 			const cfg_memcpy_t CYCODE * CYDATA mc = &cfg_memcpy_list[i];
 608:.\Generated_Source\PSoC4/cyfitter_cfg.c **** 			void * CYDATA destPtr = mc->dest;
 298              		.loc 1 608 0 is_stmt 1 discriminator 3
 299 00c4 394D     		ldr	r5, .L17+4
 300 00c6 A300     		lsl	r3, r4, #2
 301 00c8 1A19     		add	r2, r3, r4
 302 00ca 5200     		lsl	r2, r2, #1
 303 00cc AA18     		add	r2, r5, r2
 304 00ce 9189     		ldrh	r1, [r2, #12]
 305 00d0 D089     		ldrh	r0, [r2, #14]
 306 00d2 0004     		lsl	r0, r0, #16
 307 00d4 0843     		orr	r0, r1
 308              	.LVL25:
 609:.\Generated_Source\PSoC4/cyfitter_cfg.c **** 			const void CYCODE * CYDATA srcPtr = mc->src;
 309              		.loc 1 609 0 discriminator 3
 310 00d6 131C     		mov	r3, r2
 311 00d8 128A     		ldrh	r2, [r2, #16]
 312 00da 598A     		ldrh	r1, [r3, #18]
 313 00dc 0904     		lsl	r1, r1, #16
 314 00de 1143     		orr	r1, r2
 315              	.LVL26:
 610:.\Generated_Source\PSoC4/cyfitter_cfg.c **** 			uint16 CYDATA numBytes = mc->size;
 611:.\Generated_Source\PSoC4/cyfitter_cfg.c **** 			CYCONFIGCPYCODE(destPtr, srcPtr, numBytes);
 316              		.loc 1 611 0 discriminator 3
 317 00e0 8022     		mov	r2, #128
 318 00e2 FFF7FEFF 		bl	CYCONFIGCPYCODE
 319              	.LVL27:
 320              	.LBE5:
 605:.\Generated_Source\PSoC4/cyfitter_cfg.c **** 		{
 321              		.loc 1 605 0 discriminator 3
 322 00e6 0134     		add	r4, r4, #1
 323              	.LVL28:
 324 00e8 E4B2     		uxtb	r4, r4
 325              	.LVL29:
 326              	.L15:
 605:.\Generated_Source\PSoC4/cyfitter_cfg.c **** 		{
 327              		.loc 1 605 0 is_stmt 0 discriminator 1
 328 00ea 002C     		cmp	r4, #0
 329 00ec EAD0     		beq	.L16
 612:.\Generated_Source\PSoC4/cyfitter_cfg.c **** 		}
 613:.\Generated_Source\PSoC4/cyfitter_cfg.c **** 
 614:.\Generated_Source\PSoC4/cyfitter_cfg.c **** 		cfg_write_bytes32(cy_cfg_addr_table, cy_cfg_data_table);
 330              		.loc 1 614 0 is_stmt 1
 331 00ee 2F49     		ldr	r1, .L17+4
 332 00f0 081C     		mov	r0, r1
 333 00f2 1830     		add	r0, r0, #24
 334 00f4 3831     		add	r1, r1, #56
 335 00f6 FFF7FEFF 		bl	cfg_write_bytes32
 336              	.LVL30:
 615:.\Generated_Source\PSoC4/cyfitter_cfg.c **** 
 616:.\Generated_Source\PSoC4/cyfitter_cfg.c **** 		/* Perform normal device configuration. Order is not critical for these items. */
 617:.\Generated_Source\PSoC4/cyfitter_cfg.c **** 		CY_SET_XTND_REG16((void CYFAR *)(CYREG_UDB_BCTL0_DRV), 0x0100u);
 337              		.loc 1 617 0
 338 00fa 8022     		mov	r2, #128
 339 00fc 5200     		lsl	r2, r2, #1
ARM GAS  C:\Users\Petro\AppData\Local\Temp\cca601q2.s 			page 18


 340 00fe 2C4B     		ldr	r3, .L17+8
 341 0100 1A80     		strh	r2, [r3]
 618:.\Generated_Source\PSoC4/cyfitter_cfg.c **** 		CY_SET_XTND_REG8((void CYFAR *)(CYREG_UDB_BCTL0_DRV + 0x2u), 0x01u);
 342              		.loc 1 618 0
 343 0102 FF3A     		sub	r2, r2, #255
 344 0104 2B4B     		ldr	r3, .L17+12
 345 0106 1A70     		strb	r2, [r3]
 619:.\Generated_Source\PSoC4/cyfitter_cfg.c **** 
 620:.\Generated_Source\PSoC4/cyfitter_cfg.c **** 		/* HSIOM Starting address: CYDEV_HSIOM_BASE */
 621:.\Generated_Source\PSoC4/cyfitter_cfg.c **** 		CY_SET_XTND_REG32((void CYFAR *)(CYDEV_HSIOM_BASE), 0x00300000u);
 346              		.loc 1 621 0
 347 0108 C022     		mov	r2, #192
 348 010a 9203     		lsl	r2, r2, #14
 349 010c 2A4B     		ldr	r3, .L17+16
 350 010e 1A60     		str	r2, [r3]
 622:.\Generated_Source\PSoC4/cyfitter_cfg.c **** 		CY_SET_XTND_REG32((void CYFAR *)(CYREG_HSIOM_PORT_SEL3), 0x0000EE00u);
 351              		.loc 1 622 0
 352 0110 EE22     		mov	r2, #238
 353 0112 1202     		lsl	r2, r2, #8
 354 0114 294B     		ldr	r3, .L17+20
 355 0116 1A60     		str	r2, [r3]
 623:.\Generated_Source\PSoC4/cyfitter_cfg.c **** 
 624:.\Generated_Source\PSoC4/cyfitter_cfg.c **** 		/* UDB_PA_0 Starting address: CYDEV_UDB_PA0_BASE */
 625:.\Generated_Source\PSoC4/cyfitter_cfg.c **** 		CY_SET_XTND_REG32((void CYFAR *)(CYDEV_UDB_PA0_BASE), 0x00990004u);
 356              		.loc 1 625 0
 357 0118 294A     		ldr	r2, .L17+24
 358 011a 2A4B     		ldr	r3, .L17+28
 359 011c 1A60     		str	r2, [r3]
 626:.\Generated_Source\PSoC4/cyfitter_cfg.c **** 		CY_SET_XTND_REG32((void CYFAR *)(CYREG_UDB_PA0_CFG4), 0x02000000u);
 360              		.loc 1 626 0
 361 011e 8022     		mov	r2, #128
 362 0120 9204     		lsl	r2, r2, #18
 363 0122 294B     		ldr	r3, .L17+32
 364 0124 1A60     		str	r2, [r3]
 627:.\Generated_Source\PSoC4/cyfitter_cfg.c **** 		CY_SET_XTND_REG32((void CYFAR *)(CYREG_UDB_PA0_CFG8), 0x04000000u);
 365              		.loc 1 627 0
 366 0126 8022     		mov	r2, #128
 367 0128 D204     		lsl	r2, r2, #19
 368 012a 284B     		ldr	r3, .L17+36
 369 012c 1A60     		str	r2, [r3]
 628:.\Generated_Source\PSoC4/cyfitter_cfg.c **** 
 629:.\Generated_Source\PSoC4/cyfitter_cfg.c **** 		/* UDB_PA_1 Starting address: CYDEV_UDB_PA1_BASE */
 630:.\Generated_Source\PSoC4/cyfitter_cfg.c **** 		CY_SET_XTND_REG32((void CYFAR *)(CYDEV_UDB_PA1_BASE), 0x00990000u);
 370              		.loc 1 630 0
 371 012e 9923     		mov	r3, #153
 372 0130 1B04     		lsl	r3, r3, #16
 373 0132 274A     		ldr	r2, .L17+40
 374 0134 1360     		str	r3, [r2]
 631:.\Generated_Source\PSoC4/cyfitter_cfg.c **** 
 632:.\Generated_Source\PSoC4/cyfitter_cfg.c **** 		/* UDB_PA_2 Starting address: CYDEV_UDB_PA2_BASE */
 633:.\Generated_Source\PSoC4/cyfitter_cfg.c **** 		CY_SET_XTND_REG32((void CYFAR *)(CYDEV_UDB_PA2_BASE), 0x00990000u);
 375              		.loc 1 633 0
 376 0136 274A     		ldr	r2, .L17+44
 377 0138 1360     		str	r3, [r2]
 634:.\Generated_Source\PSoC4/cyfitter_cfg.c **** 
 635:.\Generated_Source\PSoC4/cyfitter_cfg.c **** 		/* UDB_PA_3 Starting address: CYDEV_UDB_PA3_BASE */
 636:.\Generated_Source\PSoC4/cyfitter_cfg.c **** 		CY_SET_XTND_REG32((void CYFAR *)(CYDEV_UDB_PA3_BASE), 0x00990000u);
ARM GAS  C:\Users\Petro\AppData\Local\Temp\cca601q2.s 			page 19


 378              		.loc 1 636 0
 379 013a 274A     		ldr	r2, .L17+48
 380 013c 1360     		str	r3, [r2]
 637:.\Generated_Source\PSoC4/cyfitter_cfg.c **** 
 638:.\Generated_Source\PSoC4/cyfitter_cfg.c **** 		/* INT_SELECT Starting address: CYDEV_CPUSS_INTR_SELECT */
 639:.\Generated_Source\PSoC4/cyfitter_cfg.c **** 		CY_SET_XTND_REG32((void CYFAR *)(CYREG_CPUSS_INTR_SELECT), 0x00000002u);
 381              		.loc 1 639 0
 382 013e 0223     		mov	r3, #2
 383 0140 264A     		ldr	r2, .L17+52
 384 0142 1360     		str	r3, [r2]
 640:.\Generated_Source\PSoC4/cyfitter_cfg.c **** 
 641:.\Generated_Source\PSoC4/cyfitter_cfg.c **** 		/* INT_CONFIG Starting address: CYDEV_UDB_INT_CFG */
 642:.\Generated_Source\PSoC4/cyfitter_cfg.c **** 		CY_SET_XTND_REG32((void CYFAR *)(CYREG_UDB_INT_CFG), 0x00000002u);
 385              		.loc 1 642 0
 386 0144 264A     		ldr	r2, .L17+56
 387 0146 1360     		str	r3, [r2]
 643:.\Generated_Source\PSoC4/cyfitter_cfg.c **** 
 644:.\Generated_Source\PSoC4/cyfitter_cfg.c **** 		/* Enable digital routing */
 645:.\Generated_Source\PSoC4/cyfitter_cfg.c **** 		CY_SET_XTND_REG8((void *)CYREG_UDB_UDBIF_BANK_CTL, CY_GET_XTND_REG8((void *)CYREG_UDB_UDBIF_BANK_
 388              		.loc 1 645 0
 389 0148 264B     		ldr	r3, .L17+60
 390 014a 1978     		ldrb	r1, [r3]
 391 014c 0222     		mov	r2, #2
 392 014e 0A43     		orr	r2, r1
 393 0150 1A70     		strb	r2, [r3]
 646:.\Generated_Source\PSoC4/cyfitter_cfg.c **** 
 647:.\Generated_Source\PSoC4/cyfitter_cfg.c **** 		/* Enable UDB array */
 648:.\Generated_Source\PSoC4/cyfitter_cfg.c **** 		CY_SET_XTND_REG8((void *)CYREG_UDB_UDBIF_WAIT_CFG, (uint8)((CY_GET_XTND_REG8((void *)CYREG_UDB_UD
 394              		.loc 1 648 0
 395 0152 2548     		ldr	r0, .L17+64
 396 0154 0278     		ldrb	r2, [r0]
 397 0156 3C21     		mov	r1, #60
 398 0158 8A43     		bic	r2, r1
 399 015a 2839     		sub	r1, r1, #40
 400 015c 0A43     		orr	r2, r1
 401 015e 0270     		strb	r2, [r0]
 649:.\Generated_Source\PSoC4/cyfitter_cfg.c **** 		CY_SET_XTND_REG8((void *)CYREG_UDB_UDBIF_BANK_CTL, (uint8)(CY_GET_XTND_REG8((void *)CYREG_UDB_UDB
 402              		.loc 1 649 0
 403 0160 1978     		ldrb	r1, [r3]
 404 0162 1622     		mov	r2, #22
 405 0164 0A43     		orr	r2, r1
 406 0166 1A70     		strb	r2, [r3]
 407              	.LBE3:
 650:.\Generated_Source\PSoC4/cyfitter_cfg.c **** 	}
 651:.\Generated_Source\PSoC4/cyfitter_cfg.c **** 
 652:.\Generated_Source\PSoC4/cyfitter_cfg.c **** 	/* Perform second pass device configuration. These items must be configured in specific order afte
 653:.\Generated_Source\PSoC4/cyfitter_cfg.c **** 	/* IOPINS0_0 Starting address: CYDEV_PRT0_BASE */
 654:.\Generated_Source\PSoC4/cyfitter_cfg.c **** 	CY_SET_XTND_REG32((void CYFAR *)(CYDEV_PRT0_BASE), 0x000000A8u);
 408              		.loc 1 654 0
 409 0168 A822     		mov	r2, #168
 410 016a 204B     		ldr	r3, .L17+68
 411 016c 1A60     		str	r2, [r3]
 655:.\Generated_Source\PSoC4/cyfitter_cfg.c **** 	CY_SET_XTND_REG32((void CYFAR *)(CYREG_PRT0_PC), 0x00431C00u);
 412              		.loc 1 655 0
 413 016e 204A     		ldr	r2, .L17+72
 414 0170 204B     		ldr	r3, .L17+76
 415 0172 1A60     		str	r2, [r3]
ARM GAS  C:\Users\Petro\AppData\Local\Temp\cca601q2.s 			page 20


 656:.\Generated_Source\PSoC4/cyfitter_cfg.c **** 	CY_SET_XTND_REG32((void CYFAR *)(CYREG_PRT0_INTCFG), 0x00008000u);
 416              		.loc 1 656 0
 417 0174 8023     		mov	r3, #128
 418 0176 1B02     		lsl	r3, r3, #8
 419 0178 1F4A     		ldr	r2, .L17+80
 420 017a 1360     		str	r3, [r2]
 657:.\Generated_Source\PSoC4/cyfitter_cfg.c **** 
 658:.\Generated_Source\PSoC4/cyfitter_cfg.c **** 	/* IOPINS0_1 Starting address: CYDEV_PRT1_BASE */
 659:.\Generated_Source\PSoC4/cyfitter_cfg.c **** 	CY_SET_XTND_REG32((void CYFAR *)(CYDEV_PRT1_BASE), 0x00000040u);
 421              		.loc 1 659 0
 422 017c 4021     		mov	r1, #64
 423 017e 1F4A     		ldr	r2, .L17+84
 424 0180 1160     		str	r1, [r2]
 660:.\Generated_Source\PSoC4/cyfitter_cfg.c **** 	CY_SET_XTND_REG32((void CYFAR *)(CYREG_PRT1_PC), 0x00180000u);
 425              		.loc 1 660 0
 426 0182 C021     		mov	r1, #192
 427 0184 4903     		lsl	r1, r1, #13
 428 0186 1E4A     		ldr	r2, .L17+88
 429 0188 1160     		str	r1, [r2]
 661:.\Generated_Source\PSoC4/cyfitter_cfg.c **** 
 662:.\Generated_Source\PSoC4/cyfitter_cfg.c **** 	/* IOPINS0_2 Starting address: CYDEV_PRT2_BASE */
 663:.\Generated_Source\PSoC4/cyfitter_cfg.c **** 	CY_SET_XTND_REG32((void CYFAR *)(CYREG_PRT2_PC), 0x007B6DB6u);
 430              		.loc 1 663 0
 431 018a 1E49     		ldr	r1, .L17+92
 432 018c 1E4A     		ldr	r2, .L17+96
 433 018e 1160     		str	r1, [r2]
 664:.\Generated_Source\PSoC4/cyfitter_cfg.c **** 
 665:.\Generated_Source\PSoC4/cyfitter_cfg.c **** 	/* IOPINS0_3 Starting address: CYDEV_PRT3_BASE */
 666:.\Generated_Source\PSoC4/cyfitter_cfg.c **** 	CY_SET_XTND_REG32((void CYFAR *)(CYDEV_PRT3_BASE), 0x00000080u);
 434              		.loc 1 666 0
 435 0190 8021     		mov	r1, #128
 436 0192 1E4A     		ldr	r2, .L17+100
 437 0194 1160     		str	r1, [r2]
 667:.\Generated_Source\PSoC4/cyfitter_cfg.c **** 	CY_SET_XTND_REG32((void CYFAR *)(CYREG_PRT3_PC), 0x00400D80u);
 438              		.loc 1 667 0
 439 0196 1E49     		ldr	r1, .L17+104
 440 0198 1E4A     		ldr	r2, .L17+108
 441 019a 1160     		str	r1, [r2]
 668:.\Generated_Source\PSoC4/cyfitter_cfg.c **** 	CY_SET_XTND_REG32((void CYFAR *)(CYREG_PRT3_INTCFG), 0x00008000u);
 442              		.loc 1 668 0
 443 019c 1E4A     		ldr	r2, .L17+112
 444 019e 1360     		str	r3, [r2]
 669:.\Generated_Source\PSoC4/cyfitter_cfg.c **** 
 670:.\Generated_Source\PSoC4/cyfitter_cfg.c **** 
 671:.\Generated_Source\PSoC4/cyfitter_cfg.c **** 	/* Setup clocks based on selections from Clock DWR */
 672:.\Generated_Source\PSoC4/cyfitter_cfg.c **** 	ClockSetup();
 445              		.loc 1 672 0
 446 01a0 FFF72EFF 		bl	ClockSetup
 447              	.LVL31:
 673:.\Generated_Source\PSoC4/cyfitter_cfg.c **** 
 674:.\Generated_Source\PSoC4/cyfitter_cfg.c **** 	/* Perform basic analog initialization to defaults */
 675:.\Generated_Source\PSoC4/cyfitter_cfg.c **** 	AnalogSetDefault();
 676:.\Generated_Source\PSoC4/cyfitter_cfg.c **** 
 677:.\Generated_Source\PSoC4/cyfitter_cfg.c **** }
 448              		.loc 1 677 0
 449              		@ sp needed
 450              	.LVL32:
ARM GAS  C:\Users\Petro\AppData\Local\Temp\cca601q2.s 			page 21


 451 01a4 38BD     		pop	{r3, r4, r5, pc}
 452              	.L18:
 453 01a6 C046     		.align	2
 454              	.L17:
 455 01a8 1C700F40 		.word	1074753564
 456 01ac 00000000 		.word	.LANCHOR0
 457 01b0 00600F40 		.word	1074749440
 458 01b4 02600F40 		.word	1074749442
 459 01b8 00000140 		.word	1073807360
 460 01bc 0C000140 		.word	1073807372
 461 01c0 04009900 		.word	10027012
 462 01c4 00500F40 		.word	1074745344
 463 01c8 04500F40 		.word	1074745348
 464 01cc 08500F40 		.word	1074745352
 465 01d0 10500F40 		.word	1074745360
 466 01d4 20500F40 		.word	1074745376
 467 01d8 30500F40 		.word	1074745392
 468 01dc 20000040 		.word	1073741856
 469 01e0 00800F40 		.word	1074757632
 470 01e4 00700F40 		.word	1074753536
 471 01e8 01700F40 		.word	1074753537
 472 01ec 00000440 		.word	1074003968
 473 01f0 001C4300 		.word	4398080
 474 01f4 08000440 		.word	1074003976
 475 01f8 0C000440 		.word	1074003980
 476 01fc 00010440 		.word	1074004224
 477 0200 08010440 		.word	1074004232
 478 0204 B66D7B00 		.word	8089014
 479 0208 08020440 		.word	1074004488
 480 020c 00030440 		.word	1074004736
 481 0210 800D4000 		.word	4197760
 482 0214 08030440 		.word	1074004744
 483 0218 0C030440 		.word	1074004748
 484              		.cfi_endproc
 485              	.LFE6:
 486              		.size	cyfitter_cfg, .-cyfitter_cfg
 487              		.section	.rodata
 488              		.align	2
 489              		.set	.LANCHOR0,. + 0
 490              		.type	cfg_memset_list.4747, %object
 491              		.size	cfg_memset_list.4747, 12
 492              	cfg_memset_list.4747:
 493 0000 80300F40 		.word	1074737280
 494 0004 8003     		.short	896
 495 0006 00400F40 		.4byte	1074741248
 496 000a 0004     		.short	1024
 497              		.type	cfg_memcpy_list.4749, %object
 498              		.size	cfg_memcpy_list.4749, 10
 499              	cfg_memcpy_list.4749:
 500 000c 00300F40 		.word	1074737152
 501 0010 5C020000 		.word	BS_UDB_0_1_0_CONFIG_VAL.4748
 502 0014 8000     		.short	128
 503 0016 0000     		.space	2
 504              		.type	cy_cfg_addr_table.4736, %object
 505              		.size	cy_cfg_addr_table.4736, 32
 506              	cy_cfg_addr_table.4736:
 507 0018 03000F40 		.word	1074724867
ARM GAS  C:\Users\Petro\AppData\Local\Temp\cca601q2.s 			page 22


 508 001c 14300F40 		.word	1074737172
 509 0020 3A310F40 		.word	1074737466
 510 0024 6A320F40 		.word	1074737770
 511 0028 49330F40 		.word	1074737993
 512 002c 08400F40 		.word	1074741256
 513 0030 04410F40 		.word	1074741508
 514 0034 02600F40 		.word	1074749442
 515              		.type	cy_cfg_data_table.4737, %object
 516              		.size	cy_cfg_data_table.4737, 548
 517              	cy_cfg_data_table.4737:
 518 0038 80       		.byte	-128
 519 0039 72       		.byte	114
 520 003a 81       		.byte	-127
 521 003b 38       		.byte	56
 522 003c 83       		.byte	-125
 523 003d 0F       		.byte	15
 524 003e 81       		.byte	-127
 525 003f 01       		.byte	1
 526 0040 82       		.byte	-126
 527 0041 01       		.byte	1
 528 0042 84       		.byte	-124
 529 0043 08       		.byte	8
 530 0044 8E       		.byte	-114
 531 0045 02       		.byte	2
 532 0046 92       		.byte	-110
 533 0047 04       		.byte	4
 534 0048 9A       		.byte	-102
 535 0049 02       		.byte	2
 536 004a 9E       		.byte	-98
 537 004b 01       		.byte	1
 538 004c B0       		.byte	-80
 539 004d 01       		.byte	1
 540 004e B2       		.byte	-78
 541 004f 02       		.byte	2
 542 0050 B4       		.byte	-76
 543 0051 04       		.byte	4
 544 0052 B5       		.byte	-75
 545 0053 01       		.byte	1
 546 0054 B6       		.byte	-74
 547 0055 08       		.byte	8
 548 0056 BE       		.byte	-66
 549 0057 45       		.byte	69
 550 0058 BF       		.byte	-65
 551 0059 10       		.byte	16
 552 005a D4       		.byte	-44
 553 005b 18       		.byte	24
 554 005c D6       		.byte	-42
 555 005d 04       		.byte	4
 556 005e D8       		.byte	-40
 557 005f 04       		.byte	4
 558 0060 D9       		.byte	-39
 559 0061 04       		.byte	4
 560 0062 DB       		.byte	-37
 561 0063 04       		.byte	4
 562 0064 DF       		.byte	-33
 563 0065 01       		.byte	1
 564 0066 02       		.byte	2
ARM GAS  C:\Users\Petro\AppData\Local\Temp\cca601q2.s 			page 23


 565 0067 01       		.byte	1
 566 0068 03       		.byte	3
 567 0069 28       		.byte	40
 568 006a 04       		.byte	4
 569 006b 04       		.byte	4
 570 006c 05       		.byte	5
 571 006d 02       		.byte	2
 572 006e 07       		.byte	7
 573 006f 02       		.byte	2
 574 0070 08       		.byte	8
 575 0071 80       		.byte	-128
 576 0072 0A       		.byte	10
 577 0073 E8       		.byte	-24
 578 0074 0C       		.byte	12
 579 0075 02       		.byte	2
 580 0076 0D       		.byte	13
 581 0077 20       		.byte	32
 582 0078 0E       		.byte	14
 583 0079 01       		.byte	1
 584 007a 10       		.byte	16
 585 007b 80       		.byte	-128
 586 007c 13       		.byte	19
 587 007d A8       		.byte	-88
 588 007e 19       		.byte	25
 589 007f 85       		.byte	-123
 590 0080 1A       		.byte	26
 591 0081 01       		.byte	1
 592 0082 1B       		.byte	27
 593 0083 28       		.byte	40
 594 0084 1D       		.byte	29
 595 0085 10       		.byte	16
 596 0086 1F       		.byte	31
 597 0087 45       		.byte	69
 598 0088 20       		.byte	32
 599 0089 48       		.byte	72
 600 008a 21       		.byte	33
 601 008b 10       		.byte	16
 602 008c 22       		.byte	34
 603 008d 18       		.byte	24
 604 008e 23       		.byte	35
 605 008f 82       		.byte	-126
 606 0090 27       		.byte	39
 607 0091 04       		.byte	4
 608 0092 28       		.byte	40
 609 0093 80       		.byte	-128
 610 0094 29       		.byte	41
 611 0095 14       		.byte	20
 612 0096 2A       		.byte	42
 613 0097 80       		.byte	-128
 614 0098 30       		.byte	48
 615 0099 02       		.byte	2
 616 009a 32       		.byte	50
 617 009b 44       		.byte	68
 618 009c 33       		.byte	51
 619 009d 20       		.byte	32
 620 009e 38       		.byte	56
 621 009f 68       		.byte	104
ARM GAS  C:\Users\Petro\AppData\Local\Temp\cca601q2.s 			page 24


 622 00a0 3A       		.byte	58
 623 00a1 02       		.byte	2
 624 00a2 3F       		.byte	63
 625 00a3 01       		.byte	1
 626 00a4 40       		.byte	64
 627 00a5 01       		.byte	1
 628 00a6 41       		.byte	65
 629 00a7 01       		.byte	1
 630 00a8 42       		.byte	66
 631 00a9 40       		.byte	64
 632 00aa 43       		.byte	67
 633 00ab 20       		.byte	32
 634 00ac 48       		.byte	72
 635 00ad 04       		.byte	4
 636 00ae 49       		.byte	73
 637 00af 82       		.byte	-126
 638 00b0 51       		.byte	81
 639 00b1 20       		.byte	32
 640 00b2 59       		.byte	89
 641 00b3 01       		.byte	1
 642 00b4 5D       		.byte	93
 643 00b5 01       		.byte	1
 644 00b6 67       		.byte	103
 645 00b7 4A       		.byte	74
 646 00b8 69       		.byte	105
 647 00b9 54       		.byte	84
 648 00ba 70       		.byte	112
 649 00bb 94       		.byte	-108
 650 00bc 72       		.byte	114
 651 00bd 02       		.byte	2
 652 00be 73       		.byte	115
 653 00bf 28       		.byte	40
 654 00c0 85       		.byte	-123
 655 00c1 01       		.byte	1
 656 00c2 86       		.byte	-122
 657 00c3 08       		.byte	8
 658 00c4 87       		.byte	-121
 659 00c5 40       		.byte	64
 660 00c6 C0       		.byte	-64
 661 00c7 B7       		.byte	-73
 662 00c8 C2       		.byte	-62
 663 00c9 DF       		.byte	-33
 664 00ca C4       		.byte	-60
 665 00cb 0F       		.byte	15
 666 00cc CA       		.byte	-54
 667 00cd 0F       		.byte	15
 668 00ce CC       		.byte	-52
 669 00cf 0F       		.byte	15
 670 00d0 CE       		.byte	-50
 671 00d1 8F       		.byte	-113
 672 00d2 D0       		.byte	-48
 673 00d3 0D       		.byte	13
 674 00d4 D2       		.byte	-46
 675 00d5 0C       		.byte	12
 676 00d6 D6       		.byte	-42
 677 00d7 81       		.byte	-127
 678 00d8 D8       		.byte	-40
ARM GAS  C:\Users\Petro\AppData\Local\Temp\cca601q2.s 			page 25


 679 00d9 B0       		.byte	-80
 680 00da 01       		.byte	1
 681 00db 80       		.byte	-128
 682 00dc 03       		.byte	3
 683 00dd 13       		.byte	19
 684 00de 06       		.byte	6
 685 00df 03       		.byte	3
 686 00e0 08       		.byte	8
 687 00e1 DC       		.byte	-36
 688 00e2 0A       		.byte	10
 689 00e3 22       		.byte	34
 690 00e4 10       		.byte	16
 691 00e5 10       		.byte	16
 692 00e6 12       		.byte	18
 693 00e7 AC       		.byte	-84
 694 00e8 13       		.byte	19
 695 00e9 0C       		.byte	12
 696 00ea 14       		.byte	20
 697 00eb 0C       		.byte	12
 698 00ec 15       		.byte	21
 699 00ed 2C       		.byte	44
 700 00ee 16       		.byte	22
 701 00ef 71       		.byte	113
 702 00f0 17       		.byte	23
 703 00f1 43       		.byte	67
 704 00f2 1E       		.byte	30
 705 00f3 20       		.byte	32
 706 00f4 20       		.byte	32
 707 00f5 09       		.byte	9
 708 00f6 22       		.byte	34
 709 00f7 D0       		.byte	-48
 710 00f8 24       		.byte	36
 711 00f9 10       		.byte	16
 712 00fa 26       		.byte	38
 713 00fb 40       		.byte	64
 714 00fc 27       		.byte	39
 715 00fd 08       		.byte	8
 716 00fe 28       		.byte	40
 717 00ff 14       		.byte	20
 718 0100 29       		.byte	41
 719 0101 71       		.byte	113
 720 0102 2B       		.byte	43
 721 0103 0E       		.byte	14
 722 0104 2D       		.byte	45
 723 0105 71       		.byte	113
 724 0106 2F       		.byte	47
 725 0107 06       		.byte	6
 726 0108 32       		.byte	50
 727 0109 E0       		.byte	-32
 728 010a 33       		.byte	51
 729 010b 30       		.byte	48
 730 010c 34       		.byte	52
 731 010d 1F       		.byte	31
 732 010e 35       		.byte	53
 733 010f 0F       		.byte	15
 734 0110 37       		.byte	55
 735 0111 C0       		.byte	-64
ARM GAS  C:\Users\Petro\AppData\Local\Temp\cca601q2.s 			page 26


 736 0112 39       		.byte	57
 737 0113 88       		.byte	-120
 738 0114 3A       		.byte	58
 739 0115 08       		.byte	8
 740 0116 3B       		.byte	59
 741 0117 20       		.byte	32
 742 0118 3F       		.byte	63
 743 0119 04       		.byte	4
 744 011a 40       		.byte	64
 745 011b 02       		.byte	2
 746 011c 46       		.byte	70
 747 011d 40       		.byte	64
 748 011e 49       		.byte	73
 749 011f FF       		.byte	-1
 750 0120 4A       		.byte	74
 751 0121 07       		.byte	7
 752 0122 4B       		.byte	75
 753 0123 FF       		.byte	-1
 754 0124 4C       		.byte	76
 755 0125 40       		.byte	64
 756 0126 4D       		.byte	77
 757 0127 20       		.byte	32
 758 0128 4E       		.byte	78
 759 0129 F0       		.byte	-16
 760 012a 4F       		.byte	79
 761 012b 05       		.byte	5
 762 012c 50       		.byte	80
 763 012d 08       		.byte	8
 764 012e 58       		.byte	88
 765 012f 04       		.byte	4
 766 0130 59       		.byte	89
 767 0131 04       		.byte	4
 768 0132 5A       		.byte	90
 769 0133 04       		.byte	4
 770 0134 5F       		.byte	95
 771 0135 01       		.byte	1
 772 0136 60       		.byte	96
 773 0137 40       		.byte	64
 774 0138 61       		.byte	97
 775 0139 A8       		.byte	-88
 776 013a 62       		.byte	98
 777 013b 40       		.byte	64
 778 013c 63       		.byte	99
 779 013d 20       		.byte	32
 780 013e 81       		.byte	-127
 781 013f 01       		.byte	1
 782 0140 82       		.byte	-126
 783 0141 15       		.byte	21
 784 0142 83       		.byte	-125
 785 0143 0A       		.byte	10
 786 0144 84       		.byte	-124
 787 0145 0A       		.byte	10
 788 0146 85       		.byte	-123
 789 0147 13       		.byte	19
 790 0148 86       		.byte	-122
 791 0149 14       		.byte	20
 792 014a 88       		.byte	-120
ARM GAS  C:\Users\Petro\AppData\Local\Temp\cca601q2.s 			page 27


 793 014b 20       		.byte	32
 794 014c 89       		.byte	-119
 795 014d 13       		.byte	19
 796 014e 8A       		.byte	-118
 797 014f C0       		.byte	-64
 798 0150 8C       		.byte	-116
 799 0151 40       		.byte	64
 800 0152 8D       		.byte	-115
 801 0153 10       		.byte	16
 802 0154 8E       		.byte	-114
 803 0155 20       		.byte	32
 804 0156 90       		.byte	-112
 805 0157 13       		.byte	19
 806 0158 92       		.byte	-110
 807 0159 0C       		.byte	12
 808 015a 94       		.byte	-108
 809 015b 13       		.byte	19
 810 015c 96       		.byte	-106
 811 015d 04       		.byte	4
 812 015e 98       		.byte	-104
 813 015f 80       		.byte	-128
 814 0160 99       		.byte	-103
 815 0161 02       		.byte	2
 816 0162 9A       		.byte	-102
 817 0163 20       		.byte	32
 818 0164 9B       		.byte	-101
 819 0165 09       		.byte	9
 820 0166 9E       		.byte	-98
 821 0167 08       		.byte	8
 822 0168 A0       		.byte	-96
 823 0169 03       		.byte	3
 824 016a A2       		.byte	-94
 825 016b 14       		.byte	20
 826 016c A4       		.byte	-92
 827 016d E0       		.byte	-32
 828 016e A7       		.byte	-89
 829 016f 04       		.byte	4
 830 0170 A8       		.byte	-88
 831 0171 E0       		.byte	-32
 832 0172 B0       		.byte	-80
 833 0173 0F       		.byte	15
 834 0174 B1       		.byte	-79
 835 0175 10       		.byte	16
 836 0176 B4       		.byte	-76
 837 0177 E0       		.byte	-32
 838 0178 B5       		.byte	-75
 839 0179 03       		.byte	3
 840 017a B6       		.byte	-74
 841 017b 10       		.byte	16
 842 017c B7       		.byte	-73
 843 017d 0C       		.byte	12
 844 017e BA       		.byte	-70
 845 017f 02       		.byte	2
 846 0180 BE       		.byte	-66
 847 0181 40       		.byte	64
 848 0182 BF       		.byte	-65
 849 0183 40       		.byte	64
ARM GAS  C:\Users\Petro\AppData\Local\Temp\cca601q2.s 			page 28


 850 0184 C0       		.byte	-64
 851 0185 41       		.byte	65
 852 0186 C1       		.byte	-63
 853 0187 03       		.byte	3
 854 0188 C5       		.byte	-59
 855 0189 E0       		.byte	-32
 856 018a C6       		.byte	-58
 857 018b 0C       		.byte	12
 858 018c C7       		.byte	-57
 859 018d 0B       		.byte	11
 860 018e C8       		.byte	-56
 861 018f 16       		.byte	22
 862 0190 C9       		.byte	-55
 863 0191 FF       		.byte	-1
 864 0192 CA       		.byte	-54
 865 0193 FF       		.byte	-1
 866 0194 CB       		.byte	-53
 867 0195 FF       		.byte	-1
 868 0196 CE       		.byte	-50
 869 0197 F0       		.byte	-16
 870 0198 CF       		.byte	-49
 871 0199 44       		.byte	68
 872 019a D0       		.byte	-48
 873 019b 0C       		.byte	12
 874 019c D4       		.byte	-44
 875 019d 01       		.byte	1
 876 019e D8       		.byte	-40
 877 019f 04       		.byte	4
 878 01a0 D9       		.byte	-39
 879 01a1 04       		.byte	4
 880 01a2 DA       		.byte	-38
 881 01a3 04       		.byte	4
 882 01a4 DB       		.byte	-37
 883 01a5 04       		.byte	4
 884 01a6 DF       		.byte	-33
 885 01a7 01       		.byte	1
 886 01a8 E6       		.byte	-26
 887 01a9 C0       		.byte	-64
 888 01aa EA       		.byte	-22
 889 01ab 40       		.byte	64
 890 01ac EB       		.byte	-21
 891 01ad 02       		.byte	2
 892 01ae 00       		.byte	0
 893 01af 02       		.byte	2
 894 01b0 01       		.byte	1
 895 01b1 20       		.byte	32
 896 01b2 02       		.byte	2
 897 01b3 21       		.byte	33
 898 01b4 04       		.byte	4
 899 01b5 04       		.byte	4
 900 01b6 07       		.byte	7
 901 01b7 08       		.byte	8
 902 01b8 09       		.byte	9
 903 01b9 48       		.byte	72
 904 01ba 0A       		.byte	10
 905 01bb 48       		.byte	72
 906 01bc 0B       		.byte	11
ARM GAS  C:\Users\Petro\AppData\Local\Temp\cca601q2.s 			page 29


 907 01bd 04       		.byte	4
 908 01be 0D       		.byte	13
 909 01bf 08       		.byte	8
 910 01c0 0E       		.byte	14
 911 01c1 40       		.byte	64
 912 01c2 0F       		.byte	15
 913 01c3 02       		.byte	2
 914 01c4 11       		.byte	17
 915 01c5 14       		.byte	20
 916 01c6 12       		.byte	18
 917 01c7 40       		.byte	64
 918 01c8 16       		.byte	22
 919 01c9 14       		.byte	20
 920 01ca 17       		.byte	23
 921 01cb 01       		.byte	1
 922 01cc 19       		.byte	25
 923 01cd A0       		.byte	-96
 924 01ce 1A       		.byte	26
 925 01cf 40       		.byte	64
 926 01d0 1B       		.byte	27
 927 01d1 12       		.byte	18
 928 01d2 1C       		.byte	28
 929 01d3 04       		.byte	4
 930 01d4 1D       		.byte	29
 931 01d5 08       		.byte	8
 932 01d6 1F       		.byte	31
 933 01d7 08       		.byte	8
 934 01d8 20       		.byte	32
 935 01d9 01       		.byte	1
 936 01da 21       		.byte	33
 937 01db 01       		.byte	1
 938 01dc 22       		.byte	34
 939 01dd 10       		.byte	16
 940 01de 23       		.byte	35
 941 01df 04       		.byte	4
 942 01e0 25       		.byte	37
 943 01e1 40       		.byte	64
 944 01e2 26       		.byte	38
 945 01e3 20       		.byte	32
 946 01e4 27       		.byte	39
 947 01e5 29       		.byte	41
 948 01e6 2B       		.byte	43
 949 01e7 10       		.byte	16
 950 01e8 2F       		.byte	47
 951 01e9 2A       		.byte	42
 952 01ea 32       		.byte	50
 953 01eb 10       		.byte	16
 954 01ec 37       		.byte	55
 955 01ed 09       		.byte	9
 956 01ee 39       		.byte	57
 957 01ef 54       		.byte	84
 958 01f0 3A       		.byte	58
 959 01f1 01       		.byte	1
 960 01f2 3F       		.byte	63
 961 01f3 02       		.byte	2
 962 01f4 42       		.byte	66
 963 01f5 02       		.byte	2
ARM GAS  C:\Users\Petro\AppData\Local\Temp\cca601q2.s 			page 30


 964 01f6 43       		.byte	67
 965 01f7 0A       		.byte	10
 966 01f8 47       		.byte	71
 967 01f9 20       		.byte	32
 968 01fa 49       		.byte	73
 969 01fb 01       		.byte	1
 970 01fc 4B       		.byte	75
 971 01fd 01       		.byte	1
 972 01fe 51       		.byte	81
 973 01ff 40       		.byte	64
 974 0200 52       		.byte	82
 975 0201 44       		.byte	68
 976 0202 54       		.byte	84
 977 0203 01       		.byte	1
 978 0204 56       		.byte	86
 979 0205 12       		.byte	18
 980 0206 57       		.byte	87
 981 0207 21       		.byte	33
 982 0208 59       		.byte	89
 983 0209 81       		.byte	-127
 984 020a 5A       		.byte	90
 985 020b 10       		.byte	16
 986 020c 5B       		.byte	91
 987 020d 04       		.byte	4
 988 020e 80       		.byte	-128
 989 020f 80       		.byte	-128
 990 0210 83       		.byte	-125
 991 0211 10       		.byte	16
 992 0212 8D       		.byte	-115
 993 0213 40       		.byte	64
 994 0214 8E       		.byte	-114
 995 0215 10       		.byte	16
 996 0216 91       		.byte	-111
 997 0217 54       		.byte	84
 998 0218 94       		.byte	-108
 999 0219 05       		.byte	5
 1000 021a 95       		.byte	-107
 1001 021b 02       		.byte	2
 1002 021c 96       		.byte	-106
 1003 021d 08       		.byte	8
 1004 021e 97       		.byte	-105
 1005 021f 01       		.byte	1
 1006 0220 9A       		.byte	-102
 1007 0221 01       		.byte	1
 1008 0222 9B       		.byte	-101
 1009 0223 04       		.byte	4
 1010 0224 9C       		.byte	-100
 1011 0225 80       		.byte	-128
 1012 0226 A8       		.byte	-88
 1013 0227 02       		.byte	2
 1014 0228 AA       		.byte	-86
 1015 0229 01       		.byte	1
 1016 022a AD       		.byte	-83
 1017 022b 10       		.byte	16
 1018 022c AE       		.byte	-82
 1019 022d 80       		.byte	-128
 1020 022e AF       		.byte	-81
ARM GAS  C:\Users\Petro\AppData\Local\Temp\cca601q2.s 			page 31


 1021 022f 40       		.byte	64
 1022 0230 C0       		.byte	-64
 1023 0231 6F       		.byte	111
 1024 0232 C2       		.byte	-62
 1025 0233 BF       		.byte	-65
 1026 0234 C4       		.byte	-60
 1027 0235 7E       		.byte	126
 1028 0236 CA       		.byte	-54
 1029 0237 72       		.byte	114
 1030 0238 CC       		.byte	-52
 1031 0239 C4       		.byte	-60
 1032 023a CE       		.byte	-50
 1033 023b 8F       		.byte	-113
 1034 023c D0       		.byte	-48
 1035 023d 2B       		.byte	43
 1036 023e D6       		.byte	-42
 1037 023f 0F       		.byte	15
 1038 0240 0A       		.byte	10
 1039 0241 40       		.byte	64
 1040 0242 5D       		.byte	93
 1041 0243 01       		.byte	1
 1042 0244 6E       		.byte	110
 1043 0245 80       		.byte	-128
 1044 0246 86       		.byte	-122
 1045 0247 40       		.byte	64
 1046 0248 C2       		.byte	-62
 1047 0249 10       		.byte	16
 1048 024a D6       		.byte	-42
 1049 024b 80       		.byte	-128
 1050 024c DA       		.byte	-38
 1051 024d 80       		.byte	-128
 1052 024e E6       		.byte	-26
 1053 024f 40       		.byte	64
 1054 0250 AA       		.byte	-86
 1055 0251 40       		.byte	64
 1056 0252 AD       		.byte	-83
 1057 0253 01       		.byte	1
 1058 0254 E8       		.byte	-24
 1059 0255 20       		.byte	32
 1060 0256 EA       		.byte	-22
 1061 0257 10       		.byte	16
 1062 0258 10       		.byte	16
 1063 0259 01       		.byte	1
 1064 025a 11       		.byte	17
 1065 025b 01       		.byte	1
 1066              		.type	BS_UDB_0_1_0_CONFIG_VAL.4748, %object
 1067              		.size	BS_UDB_0_1_0_CONFIG_VAL.4748, 128
 1068              	BS_UDB_0_1_0_CONFIG_VAL.4748:
 1069 025c 00       		.byte	0
 1070 025d 10       		.byte	16
 1071 025e 00       		.byte	0
 1072 025f 00       		.byte	0
 1073 0260 73       		.byte	115
 1074 0261 18       		.byte	24
 1075 0262 0C       		.byte	12
 1076 0263 00       		.byte	0
 1077 0264 1F       		.byte	31
ARM GAS  C:\Users\Petro\AppData\Local\Temp\cca601q2.s 			page 32


 1078 0265 08       		.byte	8
 1079 0266 60       		.byte	96
 1080 0267 00       		.byte	0
 1081 0268 01       		.byte	1
 1082 0269 1C       		.byte	28
 1083 026a 00       		.byte	0
 1084 026b E2       		.byte	-30
 1085 026c 00       		.byte	0
 1086 026d 24       		.byte	36
 1087 026e 63       		.byte	99
 1088 026f 00       		.byte	0
 1089 0270 7F       		.byte	127
 1090 0271 40       		.byte	64
 1091 0272 00       		.byte	0
 1092 0273 00       		.byte	0
 1093 0274 02       		.byte	2
 1094 0275 E7       		.byte	-25
 1095 0276 00       		.byte	0
 1096 0277 18       		.byte	24
 1097 0278 03       		.byte	3
 1098 0279 00       		.byte	0
 1099 027a 00       		.byte	0
 1100 027b 63       		.byte	99
 1101 027c 08       		.byte	8
 1102 027d 60       		.byte	96
 1103 027e 00       		.byte	0
 1104 027f 00       		.byte	0
 1105 0280 04       		.byte	4
 1106 0281 1C       		.byte	28
 1107 0282 00       		.byte	0
 1108 0283 E1       		.byte	-31
 1109 0284 0C       		.byte	12
 1110 0285 00       		.byte	0
 1111 0286 00       		.byte	0
 1112 0287 04       		.byte	4
 1113 0288 5C       		.byte	92
 1114 0289 FF       		.byte	-1
 1115 028a 23       		.byte	35
 1116 028b 00       		.byte	0
 1117 028c 10       		.byte	16
 1118 028d 1F       		.byte	31
 1119 028e 2C       		.byte	44
 1120 028f 60       		.byte	96
 1121 0290 0F       		.byte	15
 1122 0291 00       		.byte	0
 1123 0292 4C       		.byte	76
 1124 0293 80       		.byte	-128
 1125 0294 00       		.byte	0
 1126 0295 80       		.byte	-128
 1127 0296 28       		.byte	40
 1128 0297 22       		.byte	34
 1129 0298 00       		.byte	0
 1130 0299 00       		.byte	0
 1131 029a 01       		.byte	1
 1132 029b 00       		.byte	0
 1133 029c 24       		.byte	36
 1134 029d 06       		.byte	6
ARM GAS  C:\Users\Petro\AppData\Local\Temp\cca601q2.s 			page 33


 1135 029e 05       		.byte	5
 1136 029f 00       		.byte	0
 1137 02a0 01       		.byte	1
 1138 02a1 C0       		.byte	-64
 1139 02a2 E0       		.byte	-32
 1140 02a3 00       		.byte	0
 1141 02a4 0A       		.byte	10
 1142 02a5 FF       		.byte	-1
 1143 02a6 FF       		.byte	-1
 1144 02a7 FF       		.byte	-1
 1145 02a8 62       		.byte	98
 1146 02a9 A0       		.byte	-96
 1147 02aa F0       		.byte	-16
 1148 02ab 41       		.byte	65
 1149 02ac 0C       		.byte	12
 1150 02ad 00       		.byte	0
 1151 02ae 00       		.byte	0
 1152 02af 00       		.byte	0
 1153 02b0 00       		.byte	0
 1154 02b1 00       		.byte	0
 1155 02b2 02       		.byte	2
 1156 02b3 13       		.byte	19
 1157 02b4 04       		.byte	4
 1158 02b5 04       		.byte	4
 1159 02b6 04       		.byte	4
 1160 02b7 04       		.byte	4
 1161 02b8 00       		.byte	0
 1162 02b9 00       		.byte	0
 1163 02ba 00       		.byte	0
 1164 02bb 01       		.byte	1
 1165 02bc 00       		.byte	0
 1166 02bd 00       		.byte	0
 1167 02be 00       		.byte	0
 1168 02bf 00       		.byte	0
 1169 02c0 00       		.byte	0
 1170 02c1 00       		.byte	0
 1171 02c2 40       		.byte	64
 1172 02c3 02       		.byte	2
 1173 02c4 00       		.byte	0
 1174 02c5 10       		.byte	16
 1175 02c6 30       		.byte	48
 1176 02c7 10       		.byte	16
 1177 02c8 00       		.byte	0
 1178 02c9 10       		.byte	16
 1179 02ca 10       		.byte	16
 1180 02cb 12       		.byte	18
 1181 02cc 00       		.byte	0
 1182 02cd 00       		.byte	0
 1183 02ce 00       		.byte	0
 1184 02cf 00       		.byte	0
 1185 02d0 00       		.byte	0
 1186 02d1 00       		.byte	0
 1187 02d2 00       		.byte	0
 1188 02d3 00       		.byte	0
 1189 02d4 00       		.byte	0
 1190 02d5 00       		.byte	0
 1191 02d6 00       		.byte	0
ARM GAS  C:\Users\Petro\AppData\Local\Temp\cca601q2.s 			page 34


 1192 02d7 00       		.byte	0
 1193 02d8 00       		.byte	0
 1194 02d9 00       		.byte	0
 1195 02da 00       		.byte	0
 1196 02db 00       		.byte	0
 1197              		.text
 1198              	.Letext0:
 1199              		.file 2 "c:\\program files (x86)\\cypress\\psoc creator\\3.3\\psoc creator\\import\\gnu\\arm\\4.9.
 1200              		.file 3 ".\\Generated_Source\\PSoC4\\cytypes.h"
 1201              		.file 4 ".\\Generated_Source\\PSoC4\\CyLib.h"