ARM GAS  C:\Users\Petro\AppData\Local\Temp\ccdrxIsg.s 			page 1


   1              		.cpu cortex-m0
   2              		.fpu softvfp
   3              		.eabi_attribute 20, 1
   4              		.eabi_attribute 21, 1
   5              		.eabi_attribute 23, 3
   6              		.eabi_attribute 24, 1
   7              		.eabi_attribute 25, 1
   8              		.eabi_attribute 26, 1
   9              		.eabi_attribute 30, 1
  10              		.eabi_attribute 34, 0
  11              		.eabi_attribute 18, 4
  12              		.code	16
  13              		.file	"cyfitter_cfg.c"
  14              		.text
  15              	.Ltext0:
  16              		.cfi_sections	.debug_frame
  17              		.section	.text.cfg_write_bytes32,"ax",%progbits
  18              		.align	2
  19              		.code	16
  20              		.thumb_func
  21              		.type	cfg_write_bytes32, %function
  22              	cfg_write_bytes32:
  23              	.LFB3:
  24              		.file 1 ".\\Generated_Source\\PSoC4\\cyfitter_cfg.c"
   1:.\Generated_Source\PSoC4/cyfitter_cfg.c **** /*******************************************************************************
   2:.\Generated_Source\PSoC4/cyfitter_cfg.c **** * File Name: cyfitter_cfg.c
   3:.\Generated_Source\PSoC4/cyfitter_cfg.c **** * 
   4:.\Generated_Source\PSoC4/cyfitter_cfg.c **** * PSoC Creator  3.3 SP1
   5:.\Generated_Source\PSoC4/cyfitter_cfg.c **** *
   6:.\Generated_Source\PSoC4/cyfitter_cfg.c **** * Description:
   7:.\Generated_Source\PSoC4/cyfitter_cfg.c **** * This file contains device initialization code.
   8:.\Generated_Source\PSoC4/cyfitter_cfg.c **** * Except for the user defined sections in CyClockStartupError(), this file should not be modified.
   9:.\Generated_Source\PSoC4/cyfitter_cfg.c **** * This file is automatically generated by PSoC Creator.
  10:.\Generated_Source\PSoC4/cyfitter_cfg.c **** *
  11:.\Generated_Source\PSoC4/cyfitter_cfg.c **** ********************************************************************************
  12:.\Generated_Source\PSoC4/cyfitter_cfg.c **** * Copyright (c) 2007-2015 Cypress Semiconductor.  All rights reserved.
  13:.\Generated_Source\PSoC4/cyfitter_cfg.c **** * You may use this file only in accordance with the license, terms, conditions, 
  14:.\Generated_Source\PSoC4/cyfitter_cfg.c **** * disclaimers, and limitations in the end user license agreement accompanying 
  15:.\Generated_Source\PSoC4/cyfitter_cfg.c **** * the software package with which this file was provided.
  16:.\Generated_Source\PSoC4/cyfitter_cfg.c **** ********************************************************************************/
  17:.\Generated_Source\PSoC4/cyfitter_cfg.c **** 
  18:.\Generated_Source\PSoC4/cyfitter_cfg.c **** #include <string.h>
  19:.\Generated_Source\PSoC4/cyfitter_cfg.c **** #include "cytypes.h"
  20:.\Generated_Source\PSoC4/cyfitter_cfg.c **** #include "cydevice_trm.h"
  21:.\Generated_Source\PSoC4/cyfitter_cfg.c **** #include "cyfitter.h"
  22:.\Generated_Source\PSoC4/cyfitter_cfg.c **** #include "CyLib.h"
  23:.\Generated_Source\PSoC4/cyfitter_cfg.c **** #include "cyfitter_cfg.h"
  24:.\Generated_Source\PSoC4/cyfitter_cfg.c **** 
  25:.\Generated_Source\PSoC4/cyfitter_cfg.c **** 
  26:.\Generated_Source\PSoC4/cyfitter_cfg.c **** #if defined(__GNUC__) || defined(__ARMCC_VERSION)
  27:.\Generated_Source\PSoC4/cyfitter_cfg.c ****     #define CYPACKED 
  28:.\Generated_Source\PSoC4/cyfitter_cfg.c ****     #define CYPACKED_ATTR __attribute__ ((packed))
  29:.\Generated_Source\PSoC4/cyfitter_cfg.c ****     #define CYALIGNED __attribute__ ((aligned))
  30:.\Generated_Source\PSoC4/cyfitter_cfg.c ****     #define CY_CFG_UNUSED __attribute__ ((unused))
  31:.\Generated_Source\PSoC4/cyfitter_cfg.c ****     #ifndef CY_CFG_SECTION
  32:.\Generated_Source\PSoC4/cyfitter_cfg.c ****         #define CY_CFG_SECTION __attribute__ ((section(".psocinit")))
  33:.\Generated_Source\PSoC4/cyfitter_cfg.c ****     #endif
ARM GAS  C:\Users\Petro\AppData\Local\Temp\ccdrxIsg.s 			page 2


  34:.\Generated_Source\PSoC4/cyfitter_cfg.c ****     
  35:.\Generated_Source\PSoC4/cyfitter_cfg.c ****     #if defined(__ARMCC_VERSION)
  36:.\Generated_Source\PSoC4/cyfitter_cfg.c ****         #define CY_CFG_MEMORY_BARRIER() __memory_changed()
  37:.\Generated_Source\PSoC4/cyfitter_cfg.c ****     #else
  38:.\Generated_Source\PSoC4/cyfitter_cfg.c ****         #define CY_CFG_MEMORY_BARRIER() __sync_synchronize()
  39:.\Generated_Source\PSoC4/cyfitter_cfg.c ****     #endif
  40:.\Generated_Source\PSoC4/cyfitter_cfg.c ****     
  41:.\Generated_Source\PSoC4/cyfitter_cfg.c **** #elif defined(__ICCARM__)
  42:.\Generated_Source\PSoC4/cyfitter_cfg.c ****     #include <intrinsics.h>
  43:.\Generated_Source\PSoC4/cyfitter_cfg.c **** 
  44:.\Generated_Source\PSoC4/cyfitter_cfg.c ****     #define CYPACKED __packed
  45:.\Generated_Source\PSoC4/cyfitter_cfg.c ****     #define CYPACKED_ATTR 
  46:.\Generated_Source\PSoC4/cyfitter_cfg.c ****     #define CYALIGNED _Pragma("data_alignment=4")
  47:.\Generated_Source\PSoC4/cyfitter_cfg.c ****     #define CY_CFG_UNUSED _Pragma("diag_suppress=Pe177")
  48:.\Generated_Source\PSoC4/cyfitter_cfg.c ****     #define CY_CFG_SECTION _Pragma("location=\".psocinit\"")
  49:.\Generated_Source\PSoC4/cyfitter_cfg.c ****     
  50:.\Generated_Source\PSoC4/cyfitter_cfg.c ****     #define CY_CFG_MEMORY_BARRIER() __DMB()
  51:.\Generated_Source\PSoC4/cyfitter_cfg.c ****     
  52:.\Generated_Source\PSoC4/cyfitter_cfg.c **** #else
  53:.\Generated_Source\PSoC4/cyfitter_cfg.c ****     #error Unsupported toolchain
  54:.\Generated_Source\PSoC4/cyfitter_cfg.c **** #endif
  55:.\Generated_Source\PSoC4/cyfitter_cfg.c **** 
  56:.\Generated_Source\PSoC4/cyfitter_cfg.c **** 
  57:.\Generated_Source\PSoC4/cyfitter_cfg.c **** CY_CFG_UNUSED
  58:.\Generated_Source\PSoC4/cyfitter_cfg.c **** static void CYMEMZERO(void *s, size_t n);
  59:.\Generated_Source\PSoC4/cyfitter_cfg.c **** CY_CFG_UNUSED
  60:.\Generated_Source\PSoC4/cyfitter_cfg.c **** static void CYMEMZERO(void *s, size_t n)
  61:.\Generated_Source\PSoC4/cyfitter_cfg.c **** {
  62:.\Generated_Source\PSoC4/cyfitter_cfg.c **** 	(void)memset(s, 0, n);
  63:.\Generated_Source\PSoC4/cyfitter_cfg.c **** }
  64:.\Generated_Source\PSoC4/cyfitter_cfg.c **** CY_CFG_UNUSED
  65:.\Generated_Source\PSoC4/cyfitter_cfg.c **** static void CYCONFIGCPY(void *dest, const void *src, size_t n);
  66:.\Generated_Source\PSoC4/cyfitter_cfg.c **** CY_CFG_UNUSED
  67:.\Generated_Source\PSoC4/cyfitter_cfg.c **** static void CYCONFIGCPY(void *dest, const void *src, size_t n)
  68:.\Generated_Source\PSoC4/cyfitter_cfg.c **** {
  69:.\Generated_Source\PSoC4/cyfitter_cfg.c **** 	(void)memcpy(dest, src, n);
  70:.\Generated_Source\PSoC4/cyfitter_cfg.c **** }
  71:.\Generated_Source\PSoC4/cyfitter_cfg.c **** CY_CFG_UNUSED
  72:.\Generated_Source\PSoC4/cyfitter_cfg.c **** static void CYCONFIGCPYCODE(void *dest, const void *src, size_t n);
  73:.\Generated_Source\PSoC4/cyfitter_cfg.c **** CY_CFG_UNUSED
  74:.\Generated_Source\PSoC4/cyfitter_cfg.c **** static void CYCONFIGCPYCODE(void *dest, const void *src, size_t n)
  75:.\Generated_Source\PSoC4/cyfitter_cfg.c **** {
  76:.\Generated_Source\PSoC4/cyfitter_cfg.c **** 	(void)memcpy(dest, src, n);
  77:.\Generated_Source\PSoC4/cyfitter_cfg.c **** }
  78:.\Generated_Source\PSoC4/cyfitter_cfg.c **** 
  79:.\Generated_Source\PSoC4/cyfitter_cfg.c **** 
  80:.\Generated_Source\PSoC4/cyfitter_cfg.c **** 
  81:.\Generated_Source\PSoC4/cyfitter_cfg.c **** /* Clock startup error codes                                                   */
  82:.\Generated_Source\PSoC4/cyfitter_cfg.c **** #define CYCLOCKSTART_NO_ERROR    0u
  83:.\Generated_Source\PSoC4/cyfitter_cfg.c **** #define CYCLOCKSTART_XTAL_ERROR  1u
  84:.\Generated_Source\PSoC4/cyfitter_cfg.c **** #define CYCLOCKSTART_32KHZ_ERROR 2u
  85:.\Generated_Source\PSoC4/cyfitter_cfg.c **** #define CYCLOCKSTART_PLL_ERROR   3u
  86:.\Generated_Source\PSoC4/cyfitter_cfg.c **** 
  87:.\Generated_Source\PSoC4/cyfitter_cfg.c **** #ifdef CY_NEED_CYCLOCKSTARTUPERROR
  88:.\Generated_Source\PSoC4/cyfitter_cfg.c **** /*******************************************************************************
  89:.\Generated_Source\PSoC4/cyfitter_cfg.c **** * Function Name: CyClockStartupError
  90:.\Generated_Source\PSoC4/cyfitter_cfg.c **** ********************************************************************************
ARM GAS  C:\Users\Petro\AppData\Local\Temp\ccdrxIsg.s 			page 3


  91:.\Generated_Source\PSoC4/cyfitter_cfg.c **** * Summary:
  92:.\Generated_Source\PSoC4/cyfitter_cfg.c **** *  If an error is encountered during clock configuration (crystal startup error,
  93:.\Generated_Source\PSoC4/cyfitter_cfg.c **** *  PLL lock error, etc.), the system will end up here.  Unless reimplemented by
  94:.\Generated_Source\PSoC4/cyfitter_cfg.c **** *  the customer, this function will stop in an infinite loop.
  95:.\Generated_Source\PSoC4/cyfitter_cfg.c **** *
  96:.\Generated_Source\PSoC4/cyfitter_cfg.c **** * Parameters:
  97:.\Generated_Source\PSoC4/cyfitter_cfg.c **** *   void
  98:.\Generated_Source\PSoC4/cyfitter_cfg.c **** *
  99:.\Generated_Source\PSoC4/cyfitter_cfg.c **** * Return:
 100:.\Generated_Source\PSoC4/cyfitter_cfg.c **** *   void
 101:.\Generated_Source\PSoC4/cyfitter_cfg.c **** *
 102:.\Generated_Source\PSoC4/cyfitter_cfg.c **** *******************************************************************************/
 103:.\Generated_Source\PSoC4/cyfitter_cfg.c **** CY_CFG_UNUSED
 104:.\Generated_Source\PSoC4/cyfitter_cfg.c **** static void CyClockStartupError(uint8 errorCode);
 105:.\Generated_Source\PSoC4/cyfitter_cfg.c **** CY_CFG_UNUSED
 106:.\Generated_Source\PSoC4/cyfitter_cfg.c **** static void CyClockStartupError(uint8 errorCode)
 107:.\Generated_Source\PSoC4/cyfitter_cfg.c **** {
 108:.\Generated_Source\PSoC4/cyfitter_cfg.c ****     /* To remove the compiler warning if errorCode not used.                */
 109:.\Generated_Source\PSoC4/cyfitter_cfg.c ****     errorCode = errorCode;
 110:.\Generated_Source\PSoC4/cyfitter_cfg.c **** 
 111:.\Generated_Source\PSoC4/cyfitter_cfg.c ****     /* `#START CyClockStartupError` */
 112:.\Generated_Source\PSoC4/cyfitter_cfg.c **** 
 113:.\Generated_Source\PSoC4/cyfitter_cfg.c ****     /* If we have a clock startup error (bad MHz crystal, PLL lock, etc.),  */
 114:.\Generated_Source\PSoC4/cyfitter_cfg.c ****     /* we will end up here to allow the customer to implement something to  */
 115:.\Generated_Source\PSoC4/cyfitter_cfg.c ****     /* deal with the clock condition.                                       */
 116:.\Generated_Source\PSoC4/cyfitter_cfg.c **** 
 117:.\Generated_Source\PSoC4/cyfitter_cfg.c ****     /* `#END` */
 118:.\Generated_Source\PSoC4/cyfitter_cfg.c **** 
 119:.\Generated_Source\PSoC4/cyfitter_cfg.c ****     /* If nothing else, stop here since the clocks have not started         */
 120:.\Generated_Source\PSoC4/cyfitter_cfg.c ****     /* correctly.                                                           */
 121:.\Generated_Source\PSoC4/cyfitter_cfg.c ****     while(1) {}
 122:.\Generated_Source\PSoC4/cyfitter_cfg.c **** }
 123:.\Generated_Source\PSoC4/cyfitter_cfg.c **** #endif
 124:.\Generated_Source\PSoC4/cyfitter_cfg.c **** 
 125:.\Generated_Source\PSoC4/cyfitter_cfg.c **** #define CY_CFG_BASE_ADDR_COUNT 8u
 126:.\Generated_Source\PSoC4/cyfitter_cfg.c **** CYPACKED typedef struct
 127:.\Generated_Source\PSoC4/cyfitter_cfg.c **** {
 128:.\Generated_Source\PSoC4/cyfitter_cfg.c **** 	uint8 offset;
 129:.\Generated_Source\PSoC4/cyfitter_cfg.c **** 	uint8 value;
 130:.\Generated_Source\PSoC4/cyfitter_cfg.c **** } CYPACKED_ATTR cy_cfg_addrvalue_t;
 131:.\Generated_Source\PSoC4/cyfitter_cfg.c **** 
 132:.\Generated_Source\PSoC4/cyfitter_cfg.c **** 
 133:.\Generated_Source\PSoC4/cyfitter_cfg.c **** 
 134:.\Generated_Source\PSoC4/cyfitter_cfg.c **** /*******************************************************************************
 135:.\Generated_Source\PSoC4/cyfitter_cfg.c **** * Function Name: cfg_write_bytes32
 136:.\Generated_Source\PSoC4/cyfitter_cfg.c **** ********************************************************************************
 137:.\Generated_Source\PSoC4/cyfitter_cfg.c **** * Summary:
 138:.\Generated_Source\PSoC4/cyfitter_cfg.c **** *  This function is used for setting up the chip configuration areas that
 139:.\Generated_Source\PSoC4/cyfitter_cfg.c **** *  contain relatively sparse data.
 140:.\Generated_Source\PSoC4/cyfitter_cfg.c **** *
 141:.\Generated_Source\PSoC4/cyfitter_cfg.c **** * Parameters:
 142:.\Generated_Source\PSoC4/cyfitter_cfg.c **** *   void
 143:.\Generated_Source\PSoC4/cyfitter_cfg.c **** *
 144:.\Generated_Source\PSoC4/cyfitter_cfg.c **** * Return:
 145:.\Generated_Source\PSoC4/cyfitter_cfg.c **** *   void
 146:.\Generated_Source\PSoC4/cyfitter_cfg.c **** *
 147:.\Generated_Source\PSoC4/cyfitter_cfg.c **** *******************************************************************************/
ARM GAS  C:\Users\Petro\AppData\Local\Temp\ccdrxIsg.s 			page 4


 148:.\Generated_Source\PSoC4/cyfitter_cfg.c **** static void cfg_write_bytes32(const uint32 addr_table[], const cy_cfg_addrvalue_t data_table[]);
 149:.\Generated_Source\PSoC4/cyfitter_cfg.c **** static void cfg_write_bytes32(const uint32 addr_table[], const cy_cfg_addrvalue_t data_table[])
 150:.\Generated_Source\PSoC4/cyfitter_cfg.c **** {
  25              		.loc 1 150 0
  26              		.cfi_startproc
  27              	.LVL0:
  28 0000 F0B5     		push	{r4, r5, r6, r7, lr}
  29              		.cfi_def_cfa_offset 20
  30              		.cfi_offset 4, -20
  31              		.cfi_offset 5, -16
  32              		.cfi_offset 6, -12
  33              		.cfi_offset 7, -8
  34              		.cfi_offset 14, -4
  35              	.LVL1:
 151:.\Generated_Source\PSoC4/cyfitter_cfg.c **** 	/* For 32-bit little-endian architectures */
 152:.\Generated_Source\PSoC4/cyfitter_cfg.c **** 	uint32 i, j = 0u;
  36              		.loc 1 152 0
  37 0002 0025     		mov	r5, #0
 153:.\Generated_Source\PSoC4/cyfitter_cfg.c **** 	for (i = 0u; i < CY_CFG_BASE_ADDR_COUNT; i++)
  38              		.loc 1 153 0
  39 0004 0027     		mov	r7, #0
  40 0006 11E0     		b	.L2
  41              	.LVL2:
  42              	.L5:
  43              	.LBB2:
 154:.\Generated_Source\PSoC4/cyfitter_cfg.c **** 	{
 155:.\Generated_Source\PSoC4/cyfitter_cfg.c **** 		uint32 baseAddr = addr_table[i];
  44              		.loc 1 155 0
  45 0008 BB00     		lsl	r3, r7, #2
  46 000a C658     		ldr	r6, [r0, r3]
  47              	.LVL3:
 156:.\Generated_Source\PSoC4/cyfitter_cfg.c **** 		uint8 count = (uint8)baseAddr;
  48              		.loc 1 156 0
  49 000c F3B2     		uxtb	r3, r6
  50              	.LVL4:
 157:.\Generated_Source\PSoC4/cyfitter_cfg.c **** 		baseAddr &= 0xFFFFFF00u;
  51              		.loc 1 157 0
  52 000e FF22     		mov	r2, #255
  53 0010 9643     		bic	r6, r2
  54              	.LVL5:
 158:.\Generated_Source\PSoC4/cyfitter_cfg.c **** 		while (count != 0u)
  55              		.loc 1 158 0
  56 0012 08E0     		b	.L3
  57              	.L4:
 159:.\Generated_Source\PSoC4/cyfitter_cfg.c **** 		{
 160:.\Generated_Source\PSoC4/cyfitter_cfg.c **** 			CY_SET_XTND_REG8((void CYFAR *)(baseAddr + data_table[j].offset), data_table[j].value);
  58              		.loc 1 160 0
  59 0014 6A00     		lsl	r2, r5, #1
  60 0016 8A18     		add	r2, r1, r2
  61 0018 1478     		ldrb	r4, [r2]
  62 001a A419     		add	r4, r4, r6
  63 001c 5278     		ldrb	r2, [r2, #1]
  64 001e 2270     		strb	r2, [r4]
 161:.\Generated_Source\PSoC4/cyfitter_cfg.c **** 			j++;
  65              		.loc 1 161 0
  66 0020 0135     		add	r5, r5, #1
  67              	.LVL6:
ARM GAS  C:\Users\Petro\AppData\Local\Temp\ccdrxIsg.s 			page 5


 162:.\Generated_Source\PSoC4/cyfitter_cfg.c **** 			count--;
  68              		.loc 1 162 0
  69 0022 013B     		sub	r3, r3, #1
  70              	.LVL7:
  71 0024 DBB2     		uxtb	r3, r3
  72              	.LVL8:
  73              	.L3:
 158:.\Generated_Source\PSoC4/cyfitter_cfg.c **** 		{
  74              		.loc 1 158 0
  75 0026 002B     		cmp	r3, #0
  76 0028 F4D1     		bne	.L4
  77              	.LBE2:
 153:.\Generated_Source\PSoC4/cyfitter_cfg.c **** 	{
  78              		.loc 1 153 0 discriminator 2
  79 002a 0137     		add	r7, r7, #1
  80              	.LVL9:
  81              	.L2:
 153:.\Generated_Source\PSoC4/cyfitter_cfg.c **** 	{
  82              		.loc 1 153 0 is_stmt 0 discriminator 1
  83 002c 072F     		cmp	r7, #7
  84 002e EBD9     		bls	.L5
 163:.\Generated_Source\PSoC4/cyfitter_cfg.c **** 		}
 164:.\Generated_Source\PSoC4/cyfitter_cfg.c **** 	}
 165:.\Generated_Source\PSoC4/cyfitter_cfg.c **** }
  85              		.loc 1 165 0 is_stmt 1
  86              		@ sp needed
  87              	.LVL10:
  88              	.LVL11:
  89 0030 F0BD     		pop	{r4, r5, r6, r7, pc}
  90              		.cfi_endproc
  91              	.LFE3:
  92              		.size	cfg_write_bytes32, .-cfg_write_bytes32
  93 0032 C046     		.section	.text.CYMEMZERO,"ax",%progbits
  94              		.align	2
  95              		.code	16
  96              		.thumb_func
  97              		.type	CYMEMZERO, %function
  98              	CYMEMZERO:
  99              	.LFB0:
  61:.\Generated_Source\PSoC4/cyfitter_cfg.c **** 	(void)memset(s, 0, n);
 100              		.loc 1 61 0
 101              		.cfi_startproc
 102              	.LVL12:
 103 0000 08B5     		push	{r3, lr}
 104              		.cfi_def_cfa_offset 8
 105              		.cfi_offset 3, -8
 106              		.cfi_offset 14, -4
 107 0002 0A1C     		mov	r2, r1
  62:.\Generated_Source\PSoC4/cyfitter_cfg.c **** }
 108              		.loc 1 62 0
 109 0004 0021     		mov	r1, #0
 110              	.LVL13:
 111 0006 FFF7FEFF 		bl	memset
 112              	.LVL14:
  63:.\Generated_Source\PSoC4/cyfitter_cfg.c **** CY_CFG_UNUSED
 113              		.loc 1 63 0
 114              		@ sp needed
ARM GAS  C:\Users\Petro\AppData\Local\Temp\ccdrxIsg.s 			page 6


 115 000a 08BD     		pop	{r3, pc}
 116              		.cfi_endproc
 117              	.LFE0:
 118              		.size	CYMEMZERO, .-CYMEMZERO
 119              		.section	.text.CYCONFIGCPYCODE,"ax",%progbits
 120              		.align	2
 121              		.code	16
 122              		.thumb_func
 123              		.type	CYCONFIGCPYCODE, %function
 124              	CYCONFIGCPYCODE:
 125              	.LFB2:
  75:.\Generated_Source\PSoC4/cyfitter_cfg.c **** 	(void)memcpy(dest, src, n);
 126              		.loc 1 75 0
 127              		.cfi_startproc
 128              	.LVL15:
 129 0000 08B5     		push	{r3, lr}
 130              		.cfi_def_cfa_offset 8
 131              		.cfi_offset 3, -8
 132              		.cfi_offset 14, -4
  76:.\Generated_Source\PSoC4/cyfitter_cfg.c **** }
 133              		.loc 1 76 0
 134 0002 FFF7FEFF 		bl	memcpy
 135              	.LVL16:
  77:.\Generated_Source\PSoC4/cyfitter_cfg.c **** 
 136              		.loc 1 77 0
 137              		@ sp needed
 138 0006 08BD     		pop	{r3, pc}
 139              		.cfi_endproc
 140              	.LFE2:
 141              		.size	CYCONFIGCPYCODE, .-CYCONFIGCPYCODE
 142              		.section	.psocinit,"ax",%progbits
 143              		.align	2
 144              		.code	16
 145              		.thumb_func
 146              		.type	ClockSetup, %function
 147              	ClockSetup:
 148              	.LFB4:
 166:.\Generated_Source\PSoC4/cyfitter_cfg.c **** 
 167:.\Generated_Source\PSoC4/cyfitter_cfg.c **** 
 168:.\Generated_Source\PSoC4/cyfitter_cfg.c **** /*******************************************************************************
 169:.\Generated_Source\PSoC4/cyfitter_cfg.c **** * Function Name: ClockSetup
 170:.\Generated_Source\PSoC4/cyfitter_cfg.c **** ********************************************************************************
 171:.\Generated_Source\PSoC4/cyfitter_cfg.c **** *
 172:.\Generated_Source\PSoC4/cyfitter_cfg.c **** * Summary:
 173:.\Generated_Source\PSoC4/cyfitter_cfg.c **** *   Performs the initialization of all of the clocks in the device based on the
 174:.\Generated_Source\PSoC4/cyfitter_cfg.c **** *   settings in the Clock tab of the DWR.  This includes enabling the requested
 175:.\Generated_Source\PSoC4/cyfitter_cfg.c **** *   clocks and setting the necessary dividers to produce the desired frequency. 
 176:.\Generated_Source\PSoC4/cyfitter_cfg.c **** *
 177:.\Generated_Source\PSoC4/cyfitter_cfg.c **** * Parameters:
 178:.\Generated_Source\PSoC4/cyfitter_cfg.c **** *   void
 179:.\Generated_Source\PSoC4/cyfitter_cfg.c **** *
 180:.\Generated_Source\PSoC4/cyfitter_cfg.c **** * Return:
 181:.\Generated_Source\PSoC4/cyfitter_cfg.c **** *   void
 182:.\Generated_Source\PSoC4/cyfitter_cfg.c **** *
 183:.\Generated_Source\PSoC4/cyfitter_cfg.c **** *******************************************************************************/
 184:.\Generated_Source\PSoC4/cyfitter_cfg.c **** static void ClockSetup(void);
 185:.\Generated_Source\PSoC4/cyfitter_cfg.c **** CY_CFG_SECTION
ARM GAS  C:\Users\Petro\AppData\Local\Temp\ccdrxIsg.s 			page 7


 186:.\Generated_Source\PSoC4/cyfitter_cfg.c **** static void ClockSetup(void)
 187:.\Generated_Source\PSoC4/cyfitter_cfg.c **** {
 149              		.loc 1 187 0
 150              		.cfi_startproc
 151 0000 10B5     		push	{r4, lr}
 152              		.cfi_def_cfa_offset 8
 153              		.cfi_offset 4, -8
 154              		.cfi_offset 14, -4
 188:.\Generated_Source\PSoC4/cyfitter_cfg.c **** 	/* Enable HALF_EN before trimming for the flash accelerator. */
 189:.\Generated_Source\PSoC4/cyfitter_cfg.c **** 	CY_SET_REG32((void CYXDATA *)(CYREG_CLK_SELECT), (CY_GET_REG32((void *)CYREG_CLK_SELECT) | 0x00040
 155              		.loc 1 189 0
 156 0002 164C     		ldr	r4, .L10
 157 0004 2368     		ldr	r3, [r4]
 158 0006 8022     		mov	r2, #128
 159 0008 D202     		lsl	r2, r2, #11
 160 000a 1343     		orr	r3, r2
 161 000c 2360     		str	r3, [r4]
 190:.\Generated_Source\PSoC4/cyfitter_cfg.c **** 
 191:.\Generated_Source\PSoC4/cyfitter_cfg.c **** 	/* Setup and trim IMO based on desired frequency. */
 192:.\Generated_Source\PSoC4/cyfitter_cfg.c **** 	CySysClkWriteImoFreq(24u);
 162              		.loc 1 192 0
 163 000e 1820     		mov	r0, #24
 164 0010 FFF7FEFF 		bl	CySysClkWriteImoFreq
 165              	.LVL17:
 193:.\Generated_Source\PSoC4/cyfitter_cfg.c **** 
 194:.\Generated_Source\PSoC4/cyfitter_cfg.c **** 	/* Disable HALF_EN since it is not required at this IMO frequency. */
 195:.\Generated_Source\PSoC4/cyfitter_cfg.c **** 	CY_SET_REG32((void CYXDATA *)(CYREG_CLK_SELECT), (CY_GET_REG32((void *)CYREG_CLK_SELECT) & 0xFFFBF
 166              		.loc 1 195 0
 167 0014 2268     		ldr	r2, [r4]
 168 0016 124B     		ldr	r3, .L10+4
 169 0018 1340     		and	r3, r2
 170 001a 2360     		str	r3, [r4]
 196:.\Generated_Source\PSoC4/cyfitter_cfg.c **** 	/* CYDEV_CLK_ILO_CONFIG Starting address: CYDEV_CLK_ILO_CONFIG */
 197:.\Generated_Source\PSoC4/cyfitter_cfg.c **** 	CY_SET_XTND_REG32((void CYFAR *)(CYREG_CLK_ILO_CONFIG), 0x80000006u);
 171              		.loc 1 197 0
 172 001c 114A     		ldr	r2, .L10+8
 173 001e 124B     		ldr	r3, .L10+12
 174 0020 1A60     		str	r2, [r3]
 198:.\Generated_Source\PSoC4/cyfitter_cfg.c **** 
 199:.\Generated_Source\PSoC4/cyfitter_cfg.c **** 
 200:.\Generated_Source\PSoC4/cyfitter_cfg.c **** 	/* CYDEV_CLK_SELECT00 Starting address: CYDEV_CLK_SELECT00 */
 201:.\Generated_Source\PSoC4/cyfitter_cfg.c **** 	CY_SET_XTND_REG32((void CYFAR *)(CYREG_CLK_SELECT12), 0x00000010u);
 175              		.loc 1 201 0
 176 0022 1022     		mov	r2, #16
 177 0024 114B     		ldr	r3, .L10+16
 178 0026 1A60     		str	r2, [r3]
 202:.\Generated_Source\PSoC4/cyfitter_cfg.c **** 
 203:.\Generated_Source\PSoC4/cyfitter_cfg.c **** 	/* CYDEV_CLK_IMO_CONFIG Starting address: CYDEV_CLK_IMO_CONFIG */
 204:.\Generated_Source\PSoC4/cyfitter_cfg.c **** 	CY_SET_XTND_REG32((void CYFAR *)(CYREG_CLK_IMO_CONFIG), 0x80000000u);
 179              		.loc 1 204 0
 180 0028 8022     		mov	r2, #128
 181 002a 1206     		lsl	r2, r2, #24
 182 002c 104B     		ldr	r3, .L10+20
 183 002e 1A60     		str	r2, [r3]
 205:.\Generated_Source\PSoC4/cyfitter_cfg.c **** 
 206:.\Generated_Source\PSoC4/cyfitter_cfg.c **** 	/* CYDEV_CLK_SELECT Starting address: CYDEV_CLK_SELECT */
 207:.\Generated_Source\PSoC4/cyfitter_cfg.c **** 	CY_SET_XTND_REG32((void CYFAR *)(CYREG_CLK_SELECT), 0x00000000u);
ARM GAS  C:\Users\Petro\AppData\Local\Temp\ccdrxIsg.s 			page 8


 184              		.loc 1 207 0
 185 0030 0023     		mov	r3, #0
 186 0032 2360     		str	r3, [r4]
 208:.\Generated_Source\PSoC4/cyfitter_cfg.c **** 
 209:.\Generated_Source\PSoC4/cyfitter_cfg.c **** 	/* CYDEV_CLK_DIVIDER_A00 Starting address: CYDEV_CLK_DIVIDER_A00 */
 210:.\Generated_Source\PSoC4/cyfitter_cfg.c **** 	CY_SET_XTND_REG32((void CYFAR *)(CYREG_CLK_DIVIDER_A00), 0x80000138u);
 187              		.loc 1 210 0
 188 0034 0F4A     		ldr	r2, .L10+24
 189 0036 104B     		ldr	r3, .L10+28
 190 0038 1A60     		str	r2, [r3]
 211:.\Generated_Source\PSoC4/cyfitter_cfg.c **** 
 212:.\Generated_Source\PSoC4/cyfitter_cfg.c **** 	CY_SET_XTND_REG32((void CYFAR *)(CYREG_WDT_MATCH), 0x0000FFFEu);
 191              		.loc 1 212 0
 192 003a 104A     		ldr	r2, .L10+32
 193 003c 104B     		ldr	r3, .L10+36
 194 003e 1A60     		str	r2, [r3]
 213:.\Generated_Source\PSoC4/cyfitter_cfg.c **** 	CY_SET_XTND_REG32((void CYFAR *)(CYREG_WDT_CONFIG), 0x00000005u);
 195              		.loc 1 213 0
 196 0040 0522     		mov	r2, #5
 197 0042 104B     		ldr	r3, .L10+40
 198 0044 1A60     		str	r2, [r3]
 214:.\Generated_Source\PSoC4/cyfitter_cfg.c **** 	CY_SET_XTND_REG32((void CYFAR *)(CYREG_WDT_CONTROL), 0x00000008u);
 199              		.loc 1 214 0
 200 0046 0332     		add	r2, r2, #3
 201 0048 0F4B     		ldr	r3, .L10+44
 202 004a 1A60     		str	r2, [r3]
 203              	.L9:
 215:.\Generated_Source\PSoC4/cyfitter_cfg.c **** 	while ((CY_GET_XTND_REG32((void CYFAR *)(CYREG_WDT_CONTROL)) & 0x00000008u) != 0u) { }
 204              		.loc 1 215 0 discriminator 1
 205 004c 0E4B     		ldr	r3, .L10+44
 206 004e 1B68     		ldr	r3, [r3]
 207 0050 1B07     		lsl	r3, r3, #28
 208 0052 FBD4     		bmi	.L9
 216:.\Generated_Source\PSoC4/cyfitter_cfg.c **** 	CY_SET_XTND_REG32((void CYFAR *)(CYREG_WDT_CONTROL), 0x00000001u);
 209              		.loc 1 216 0
 210 0054 0122     		mov	r2, #1
 211 0056 0C4B     		ldr	r3, .L10+44
 212 0058 1A60     		str	r2, [r3]
 217:.\Generated_Source\PSoC4/cyfitter_cfg.c **** }
 213              		.loc 1 217 0
 214              		@ sp needed
 215 005a 10BD     		pop	{r4, pc}
 216              	.L11:
 217              		.align	2
 218              	.L10:
 219 005c 00010B40 		.word	1074462976
 220 0060 FFFFFBFF 		.word	-262145
 221 0064 06000080 		.word	-2147483642
 222 0068 04010B40 		.word	1074462980
 223 006c 30020240 		.word	1073873456
 224 0070 08010B40 		.word	1074462984
 225 0074 38010080 		.word	-2147483336
 226 0078 00000240 		.word	1073872896
 227 007c FEFF0000 		.word	65534
 228 0080 08020B40 		.word	1074463240
 229 0084 0C020B40 		.word	1074463244
 230 0088 10020B40 		.word	1074463248
ARM GAS  C:\Users\Petro\AppData\Local\Temp\ccdrxIsg.s 			page 9


 231              		.cfi_endproc
 232              	.LFE4:
 233              		.size	ClockSetup, .-ClockSetup
 234              		.align	2
 235              		.global	cyfitter_cfg
 236              		.code	16
 237              		.thumb_func
 238              		.type	cyfitter_cfg, %function
 239              	cyfitter_cfg:
 240              	.LFB6:
 218:.\Generated_Source\PSoC4/cyfitter_cfg.c **** 
 219:.\Generated_Source\PSoC4/cyfitter_cfg.c **** 
 220:.\Generated_Source\PSoC4/cyfitter_cfg.c **** /* Analog API Functions */
 221:.\Generated_Source\PSoC4/cyfitter_cfg.c **** 
 222:.\Generated_Source\PSoC4/cyfitter_cfg.c **** 
 223:.\Generated_Source\PSoC4/cyfitter_cfg.c **** /*******************************************************************************
 224:.\Generated_Source\PSoC4/cyfitter_cfg.c **** * Function Name: AnalogSetDefault
 225:.\Generated_Source\PSoC4/cyfitter_cfg.c **** ********************************************************************************
 226:.\Generated_Source\PSoC4/cyfitter_cfg.c **** *
 227:.\Generated_Source\PSoC4/cyfitter_cfg.c **** * Summary:
 228:.\Generated_Source\PSoC4/cyfitter_cfg.c **** *  Sets up the analog portions of the chip to default values based on chip
 229:.\Generated_Source\PSoC4/cyfitter_cfg.c **** *  configuration options from the project.
 230:.\Generated_Source\PSoC4/cyfitter_cfg.c **** *
 231:.\Generated_Source\PSoC4/cyfitter_cfg.c **** * Parameters:
 232:.\Generated_Source\PSoC4/cyfitter_cfg.c **** *  void
 233:.\Generated_Source\PSoC4/cyfitter_cfg.c **** *
 234:.\Generated_Source\PSoC4/cyfitter_cfg.c **** * Return:
 235:.\Generated_Source\PSoC4/cyfitter_cfg.c **** *  void
 236:.\Generated_Source\PSoC4/cyfitter_cfg.c **** *
 237:.\Generated_Source\PSoC4/cyfitter_cfg.c **** *******************************************************************************/
 238:.\Generated_Source\PSoC4/cyfitter_cfg.c **** static void AnalogSetDefault(void);
 239:.\Generated_Source\PSoC4/cyfitter_cfg.c **** static void AnalogSetDefault(void)
 240:.\Generated_Source\PSoC4/cyfitter_cfg.c **** {
 241:.\Generated_Source\PSoC4/cyfitter_cfg.c **** }
 242:.\Generated_Source\PSoC4/cyfitter_cfg.c **** 
 243:.\Generated_Source\PSoC4/cyfitter_cfg.c **** #define CY_AMUX_UNUSED CYREG_CM0_ROM_DWT
 244:.\Generated_Source\PSoC4/cyfitter_cfg.c **** 
 245:.\Generated_Source\PSoC4/cyfitter_cfg.c **** 
 246:.\Generated_Source\PSoC4/cyfitter_cfg.c **** /*******************************************************************************
 247:.\Generated_Source\PSoC4/cyfitter_cfg.c **** * Function Name: cyfitter_cfg
 248:.\Generated_Source\PSoC4/cyfitter_cfg.c **** ********************************************************************************
 249:.\Generated_Source\PSoC4/cyfitter_cfg.c **** * Summary:
 250:.\Generated_Source\PSoC4/cyfitter_cfg.c **** *  This function is called by the start-up code for the selected device. It
 251:.\Generated_Source\PSoC4/cyfitter_cfg.c **** *  performs all of the necessary device configuration based on the design
 252:.\Generated_Source\PSoC4/cyfitter_cfg.c **** *  settings.  This includes settings from the Design Wide Resources (DWR) such
 253:.\Generated_Source\PSoC4/cyfitter_cfg.c **** *  as Clocks and Pins as well as any component configuration that is necessary.
 254:.\Generated_Source\PSoC4/cyfitter_cfg.c **** *
 255:.\Generated_Source\PSoC4/cyfitter_cfg.c **** * Parameters:  
 256:.\Generated_Source\PSoC4/cyfitter_cfg.c **** *   void
 257:.\Generated_Source\PSoC4/cyfitter_cfg.c **** *
 258:.\Generated_Source\PSoC4/cyfitter_cfg.c **** * Return:
 259:.\Generated_Source\PSoC4/cyfitter_cfg.c **** *   void
 260:.\Generated_Source\PSoC4/cyfitter_cfg.c **** *
 261:.\Generated_Source\PSoC4/cyfitter_cfg.c **** *******************************************************************************/
 262:.\Generated_Source\PSoC4/cyfitter_cfg.c **** CY_CFG_SECTION
 263:.\Generated_Source\PSoC4/cyfitter_cfg.c **** void cyfitter_cfg(void)
 264:.\Generated_Source\PSoC4/cyfitter_cfg.c **** {
ARM GAS  C:\Users\Petro\AppData\Local\Temp\ccdrxIsg.s 			page 10


 241              		.loc 1 264 0
 242              		.cfi_startproc
 243 008c 38B5     		push	{r3, r4, r5, lr}
 244              		.cfi_def_cfa_offset 16
 245              		.cfi_offset 3, -16
 246              		.cfi_offset 4, -12
 247              		.cfi_offset 5, -8
 248              		.cfi_offset 14, -4
 265:.\Generated_Source\PSoC4/cyfitter_cfg.c **** 	/* Disable interrupts by default. Let user enable if/when they want. */
 266:.\Generated_Source\PSoC4/cyfitter_cfg.c **** 	CyGlobalIntDisable;
 249              		.loc 1 266 0
 250              	@ 266 ".\Generated_Source\PSoC4\cyfitter_cfg.c" 1
 251 008e 72B6     		CPSID   i
 252              	@ 0 "" 2
 253              	.LVL18:
 254              		.code	16
 255              	.LBB3:
 267:.\Generated_Source\PSoC4/cyfitter_cfg.c **** 
 268:.\Generated_Source\PSoC4/cyfitter_cfg.c **** 	{
 269:.\Generated_Source\PSoC4/cyfitter_cfg.c **** 		static const uint32 CYCODE cy_cfg_addr_table[] = {
 270:.\Generated_Source\PSoC4/cyfitter_cfg.c **** 			0x400F0003u, /* Base address: 0x400F0000 Count: 3 */
 271:.\Generated_Source\PSoC4/cyfitter_cfg.c **** 			0x400F3012u, /* Base address: 0x400F3000 Count: 18 */
 272:.\Generated_Source\PSoC4/cyfitter_cfg.c **** 			0x400F313Cu, /* Base address: 0x400F3100 Count: 60 */
 273:.\Generated_Source\PSoC4/cyfitter_cfg.c **** 			0x400F3269u, /* Base address: 0x400F3200 Count: 105 */
 274:.\Generated_Source\PSoC4/cyfitter_cfg.c **** 			0x400F3342u, /* Base address: 0x400F3300 Count: 66 */
 275:.\Generated_Source\PSoC4/cyfitter_cfg.c **** 			0x400F4004u, /* Base address: 0x400F4000 Count: 4 */
 276:.\Generated_Source\PSoC4/cyfitter_cfg.c **** 			0x400F4104u, /* Base address: 0x400F4100 Count: 4 */
 277:.\Generated_Source\PSoC4/cyfitter_cfg.c **** 			0x400F6002u, /* Base address: 0x400F6000 Count: 2 */
 278:.\Generated_Source\PSoC4/cyfitter_cfg.c **** 		};
 279:.\Generated_Source\PSoC4/cyfitter_cfg.c **** 
 280:.\Generated_Source\PSoC4/cyfitter_cfg.c **** 		static const cy_cfg_addrvalue_t CYCODE cy_cfg_data_table[] = {
 281:.\Generated_Source\PSoC4/cyfitter_cfg.c **** 			{0x80u, 0x72u},
 282:.\Generated_Source\PSoC4/cyfitter_cfg.c **** 			{0x81u, 0x38u},
 283:.\Generated_Source\PSoC4/cyfitter_cfg.c **** 			{0x83u, 0x0Fu},
 284:.\Generated_Source\PSoC4/cyfitter_cfg.c **** 			{0x80u, 0x04u},
 285:.\Generated_Source\PSoC4/cyfitter_cfg.c **** 			{0x86u, 0x02u},
 286:.\Generated_Source\PSoC4/cyfitter_cfg.c **** 			{0x8Cu, 0x08u},
 287:.\Generated_Source\PSoC4/cyfitter_cfg.c **** 			{0x92u, 0x02u},
 288:.\Generated_Source\PSoC4/cyfitter_cfg.c **** 			{0x9Eu, 0x01u},
 289:.\Generated_Source\PSoC4/cyfitter_cfg.c **** 			{0xA2u, 0x01u},
 290:.\Generated_Source\PSoC4/cyfitter_cfg.c **** 			{0xAFu, 0x01u},
 291:.\Generated_Source\PSoC4/cyfitter_cfg.c **** 			{0xB0u, 0x02u},
 292:.\Generated_Source\PSoC4/cyfitter_cfg.c **** 			{0xB2u, 0x01u},
 293:.\Generated_Source\PSoC4/cyfitter_cfg.c **** 			{0xB4u, 0x04u},
 294:.\Generated_Source\PSoC4/cyfitter_cfg.c **** 			{0xB6u, 0x08u},
 295:.\Generated_Source\PSoC4/cyfitter_cfg.c **** 			{0xB7u, 0x01u},
 296:.\Generated_Source\PSoC4/cyfitter_cfg.c **** 			{0xBEu, 0x55u},
 297:.\Generated_Source\PSoC4/cyfitter_cfg.c **** 			{0xD4u, 0x18u},
 298:.\Generated_Source\PSoC4/cyfitter_cfg.c **** 			{0xD8u, 0x04u},
 299:.\Generated_Source\PSoC4/cyfitter_cfg.c **** 			{0xD9u, 0x04u},
 300:.\Generated_Source\PSoC4/cyfitter_cfg.c **** 			{0xDBu, 0x04u},
 301:.\Generated_Source\PSoC4/cyfitter_cfg.c **** 			{0xDFu, 0x01u},
 302:.\Generated_Source\PSoC4/cyfitter_cfg.c **** 			{0x01u, 0x80u},
 303:.\Generated_Source\PSoC4/cyfitter_cfg.c **** 			{0x02u, 0x04u},
 304:.\Generated_Source\PSoC4/cyfitter_cfg.c **** 			{0x03u, 0x28u},
 305:.\Generated_Source\PSoC4/cyfitter_cfg.c **** 			{0x04u, 0x40u},
 306:.\Generated_Source\PSoC4/cyfitter_cfg.c **** 			{0x05u, 0x06u},
ARM GAS  C:\Users\Petro\AppData\Local\Temp\ccdrxIsg.s 			page 11


 307:.\Generated_Source\PSoC4/cyfitter_cfg.c **** 			{0x08u, 0x84u},
 308:.\Generated_Source\PSoC4/cyfitter_cfg.c **** 			{0x0Au, 0x28u},
 309:.\Generated_Source\PSoC4/cyfitter_cfg.c **** 			{0x0Bu, 0x80u},
 310:.\Generated_Source\PSoC4/cyfitter_cfg.c **** 			{0x0Eu, 0x40u},
 311:.\Generated_Source\PSoC4/cyfitter_cfg.c **** 			{0x0Fu, 0x81u},
 312:.\Generated_Source\PSoC4/cyfitter_cfg.c **** 			{0x10u, 0x80u},
 313:.\Generated_Source\PSoC4/cyfitter_cfg.c **** 			{0x11u, 0x40u},
 314:.\Generated_Source\PSoC4/cyfitter_cfg.c **** 			{0x13u, 0x98u},
 315:.\Generated_Source\PSoC4/cyfitter_cfg.c **** 			{0x15u, 0x02u},
 316:.\Generated_Source\PSoC4/cyfitter_cfg.c **** 			{0x19u, 0x01u},
 317:.\Generated_Source\PSoC4/cyfitter_cfg.c **** 			{0x1Bu, 0x68u},
 318:.\Generated_Source\PSoC4/cyfitter_cfg.c **** 			{0x1Eu, 0x04u},
 319:.\Generated_Source\PSoC4/cyfitter_cfg.c **** 			{0x1Fu, 0x85u},
 320:.\Generated_Source\PSoC4/cyfitter_cfg.c **** 			{0x20u, 0x08u},
 321:.\Generated_Source\PSoC4/cyfitter_cfg.c **** 			{0x22u, 0x18u},
 322:.\Generated_Source\PSoC4/cyfitter_cfg.c **** 			{0x23u, 0x81u},
 323:.\Generated_Source\PSoC4/cyfitter_cfg.c **** 			{0x25u, 0x80u},
 324:.\Generated_Source\PSoC4/cyfitter_cfg.c **** 			{0x28u, 0x84u},
 325:.\Generated_Source\PSoC4/cyfitter_cfg.c **** 			{0x29u, 0x80u},
 326:.\Generated_Source\PSoC4/cyfitter_cfg.c **** 			{0x2Au, 0x04u},
 327:.\Generated_Source\PSoC4/cyfitter_cfg.c **** 			{0x2Du, 0x80u},
 328:.\Generated_Source\PSoC4/cyfitter_cfg.c **** 			{0x31u, 0x80u},
 329:.\Generated_Source\PSoC4/cyfitter_cfg.c **** 			{0x32u, 0x06u},
 330:.\Generated_Source\PSoC4/cyfitter_cfg.c **** 			{0x33u, 0x20u},
 331:.\Generated_Source\PSoC4/cyfitter_cfg.c **** 			{0x38u, 0x28u},
 332:.\Generated_Source\PSoC4/cyfitter_cfg.c **** 			{0x39u, 0x40u},
 333:.\Generated_Source\PSoC4/cyfitter_cfg.c **** 			{0x3Au, 0x02u},
 334:.\Generated_Source\PSoC4/cyfitter_cfg.c **** 			{0x40u, 0x01u},
 335:.\Generated_Source\PSoC4/cyfitter_cfg.c **** 			{0x42u, 0x40u},
 336:.\Generated_Source\PSoC4/cyfitter_cfg.c **** 			{0x43u, 0x20u},
 337:.\Generated_Source\PSoC4/cyfitter_cfg.c **** 			{0x48u, 0x04u},
 338:.\Generated_Source\PSoC4/cyfitter_cfg.c **** 			{0x49u, 0x04u},
 339:.\Generated_Source\PSoC4/cyfitter_cfg.c **** 			{0x4Au, 0x02u},
 340:.\Generated_Source\PSoC4/cyfitter_cfg.c **** 			{0x4Bu, 0x80u},
 341:.\Generated_Source\PSoC4/cyfitter_cfg.c **** 			{0x51u, 0x01u},
 342:.\Generated_Source\PSoC4/cyfitter_cfg.c **** 			{0x59u, 0x01u},
 343:.\Generated_Source\PSoC4/cyfitter_cfg.c **** 			{0x5Du, 0x01u},
 344:.\Generated_Source\PSoC4/cyfitter_cfg.c **** 			{0x67u, 0x0Au},
 345:.\Generated_Source\PSoC4/cyfitter_cfg.c **** 			{0x69u, 0x14u},
 346:.\Generated_Source\PSoC4/cyfitter_cfg.c **** 			{0x6Au, 0x80u},
 347:.\Generated_Source\PSoC4/cyfitter_cfg.c **** 			{0x70u, 0x94u},
 348:.\Generated_Source\PSoC4/cyfitter_cfg.c **** 			{0x72u, 0x02u},
 349:.\Generated_Source\PSoC4/cyfitter_cfg.c **** 			{0x73u, 0x18u},
 350:.\Generated_Source\PSoC4/cyfitter_cfg.c **** 			{0x85u, 0x01u},
 351:.\Generated_Source\PSoC4/cyfitter_cfg.c **** 			{0x86u, 0x08u},
 352:.\Generated_Source\PSoC4/cyfitter_cfg.c **** 			{0xC0u, 0xB7u},
 353:.\Generated_Source\PSoC4/cyfitter_cfg.c **** 			{0xC2u, 0x9Fu},
 354:.\Generated_Source\PSoC4/cyfitter_cfg.c **** 			{0xC4u, 0x1Fu},
 355:.\Generated_Source\PSoC4/cyfitter_cfg.c **** 			{0xCAu, 0x1Fu},
 356:.\Generated_Source\PSoC4/cyfitter_cfg.c **** 			{0xCCu, 0x0Fu},
 357:.\Generated_Source\PSoC4/cyfitter_cfg.c **** 			{0xCEu, 0x0Fu},
 358:.\Generated_Source\PSoC4/cyfitter_cfg.c **** 			{0xD0u, 0x0Du},
 359:.\Generated_Source\PSoC4/cyfitter_cfg.c **** 			{0xD2u, 0x0Cu},
 360:.\Generated_Source\PSoC4/cyfitter_cfg.c **** 			{0xD6u, 0x81u},
 361:.\Generated_Source\PSoC4/cyfitter_cfg.c **** 			{0xD8u, 0x30u},
 362:.\Generated_Source\PSoC4/cyfitter_cfg.c **** 			{0x00u, 0x10u},
 363:.\Generated_Source\PSoC4/cyfitter_cfg.c **** 			{0x01u, 0x80u},
ARM GAS  C:\Users\Petro\AppData\Local\Temp\ccdrxIsg.s 			page 12


 364:.\Generated_Source\PSoC4/cyfitter_cfg.c **** 			{0x02u, 0xACu},
 365:.\Generated_Source\PSoC4/cyfitter_cfg.c **** 			{0x03u, 0x13u},
 366:.\Generated_Source\PSoC4/cyfitter_cfg.c **** 			{0x04u, 0x14u},
 367:.\Generated_Source\PSoC4/cyfitter_cfg.c **** 			{0x08u, 0xDCu},
 368:.\Generated_Source\PSoC4/cyfitter_cfg.c **** 			{0x0Au, 0x22u},
 369:.\Generated_Source\PSoC4/cyfitter_cfg.c **** 			{0x12u, 0x03u},
 370:.\Generated_Source\PSoC4/cyfitter_cfg.c **** 			{0x13u, 0x0Cu},
 371:.\Generated_Source\PSoC4/cyfitter_cfg.c **** 			{0x14u, 0x0Cu},
 372:.\Generated_Source\PSoC4/cyfitter_cfg.c **** 			{0x15u, 0x2Cu},
 373:.\Generated_Source\PSoC4/cyfitter_cfg.c **** 			{0x16u, 0x71u},
 374:.\Generated_Source\PSoC4/cyfitter_cfg.c **** 			{0x17u, 0x43u},
 375:.\Generated_Source\PSoC4/cyfitter_cfg.c **** 			{0x1Eu, 0x20u},
 376:.\Generated_Source\PSoC4/cyfitter_cfg.c **** 			{0x20u, 0x09u},
 377:.\Generated_Source\PSoC4/cyfitter_cfg.c **** 			{0x22u, 0xD0u},
 378:.\Generated_Source\PSoC4/cyfitter_cfg.c **** 			{0x24u, 0x10u},
 379:.\Generated_Source\PSoC4/cyfitter_cfg.c **** 			{0x26u, 0x40u},
 380:.\Generated_Source\PSoC4/cyfitter_cfg.c **** 			{0x27u, 0x08u},
 381:.\Generated_Source\PSoC4/cyfitter_cfg.c **** 			{0x29u, 0x71u},
 382:.\Generated_Source\PSoC4/cyfitter_cfg.c **** 			{0x2Bu, 0x0Eu},
 383:.\Generated_Source\PSoC4/cyfitter_cfg.c **** 			{0x2Du, 0x71u},
 384:.\Generated_Source\PSoC4/cyfitter_cfg.c **** 			{0x2Fu, 0x06u},
 385:.\Generated_Source\PSoC4/cyfitter_cfg.c **** 			{0x30u, 0x1Fu},
 386:.\Generated_Source\PSoC4/cyfitter_cfg.c **** 			{0x32u, 0xE0u},
 387:.\Generated_Source\PSoC4/cyfitter_cfg.c **** 			{0x33u, 0x30u},
 388:.\Generated_Source\PSoC4/cyfitter_cfg.c **** 			{0x35u, 0x0Fu},
 389:.\Generated_Source\PSoC4/cyfitter_cfg.c **** 			{0x37u, 0xC0u},
 390:.\Generated_Source\PSoC4/cyfitter_cfg.c **** 			{0x39u, 0x88u},
 391:.\Generated_Source\PSoC4/cyfitter_cfg.c **** 			{0x3Au, 0x08u},
 392:.\Generated_Source\PSoC4/cyfitter_cfg.c **** 			{0x3Bu, 0x20u},
 393:.\Generated_Source\PSoC4/cyfitter_cfg.c **** 			{0x3Fu, 0x04u},
 394:.\Generated_Source\PSoC4/cyfitter_cfg.c **** 			{0x40u, 0x02u},
 395:.\Generated_Source\PSoC4/cyfitter_cfg.c **** 			{0x46u, 0x40u},
 396:.\Generated_Source\PSoC4/cyfitter_cfg.c **** 			{0x49u, 0xFFu},
 397:.\Generated_Source\PSoC4/cyfitter_cfg.c **** 			{0x4Au, 0x07u},
 398:.\Generated_Source\PSoC4/cyfitter_cfg.c **** 			{0x4Bu, 0xFFu},
 399:.\Generated_Source\PSoC4/cyfitter_cfg.c **** 			{0x4Cu, 0x40u},
 400:.\Generated_Source\PSoC4/cyfitter_cfg.c **** 			{0x4Du, 0x20u},
 401:.\Generated_Source\PSoC4/cyfitter_cfg.c **** 			{0x4Eu, 0xF0u},
 402:.\Generated_Source\PSoC4/cyfitter_cfg.c **** 			{0x4Fu, 0x05u},
 403:.\Generated_Source\PSoC4/cyfitter_cfg.c **** 			{0x50u, 0x08u},
 404:.\Generated_Source\PSoC4/cyfitter_cfg.c **** 			{0x58u, 0x04u},
 405:.\Generated_Source\PSoC4/cyfitter_cfg.c **** 			{0x59u, 0x04u},
 406:.\Generated_Source\PSoC4/cyfitter_cfg.c **** 			{0x5Au, 0x04u},
 407:.\Generated_Source\PSoC4/cyfitter_cfg.c **** 			{0x5Fu, 0x01u},
 408:.\Generated_Source\PSoC4/cyfitter_cfg.c **** 			{0x60u, 0x40u},
 409:.\Generated_Source\PSoC4/cyfitter_cfg.c **** 			{0x61u, 0xA8u},
 410:.\Generated_Source\PSoC4/cyfitter_cfg.c **** 			{0x62u, 0x40u},
 411:.\Generated_Source\PSoC4/cyfitter_cfg.c **** 			{0x63u, 0x20u},
 412:.\Generated_Source\PSoC4/cyfitter_cfg.c **** 			{0x80u, 0x03u},
 413:.\Generated_Source\PSoC4/cyfitter_cfg.c **** 			{0x81u, 0x01u},
 414:.\Generated_Source\PSoC4/cyfitter_cfg.c **** 			{0x82u, 0x14u},
 415:.\Generated_Source\PSoC4/cyfitter_cfg.c **** 			{0x83u, 0x0Au},
 416:.\Generated_Source\PSoC4/cyfitter_cfg.c **** 			{0x84u, 0x0Au},
 417:.\Generated_Source\PSoC4/cyfitter_cfg.c **** 			{0x85u, 0x13u},
 418:.\Generated_Source\PSoC4/cyfitter_cfg.c **** 			{0x86u, 0x14u},
 419:.\Generated_Source\PSoC4/cyfitter_cfg.c **** 			{0x88u, 0x20u},
 420:.\Generated_Source\PSoC4/cyfitter_cfg.c **** 			{0x89u, 0x13u},
ARM GAS  C:\Users\Petro\AppData\Local\Temp\ccdrxIsg.s 			page 13


 421:.\Generated_Source\PSoC4/cyfitter_cfg.c **** 			{0x8Au, 0xC0u},
 422:.\Generated_Source\PSoC4/cyfitter_cfg.c **** 			{0x8Cu, 0x40u},
 423:.\Generated_Source\PSoC4/cyfitter_cfg.c **** 			{0x8Eu, 0x20u},
 424:.\Generated_Source\PSoC4/cyfitter_cfg.c **** 			{0x90u, 0x13u},
 425:.\Generated_Source\PSoC4/cyfitter_cfg.c **** 			{0x92u, 0x0Cu},
 426:.\Generated_Source\PSoC4/cyfitter_cfg.c **** 			{0x94u, 0x13u},
 427:.\Generated_Source\PSoC4/cyfitter_cfg.c **** 			{0x95u, 0x02u},
 428:.\Generated_Source\PSoC4/cyfitter_cfg.c **** 			{0x96u, 0x04u},
 429:.\Generated_Source\PSoC4/cyfitter_cfg.c **** 			{0x97u, 0x09u},
 430:.\Generated_Source\PSoC4/cyfitter_cfg.c **** 			{0x98u, 0x80u},
 431:.\Generated_Source\PSoC4/cyfitter_cfg.c **** 			{0x9Au, 0x20u},
 432:.\Generated_Source\PSoC4/cyfitter_cfg.c **** 			{0x9Du, 0x10u},
 433:.\Generated_Source\PSoC4/cyfitter_cfg.c **** 			{0x9Eu, 0x08u},
 434:.\Generated_Source\PSoC4/cyfitter_cfg.c **** 			{0xA2u, 0x15u},
 435:.\Generated_Source\PSoC4/cyfitter_cfg.c **** 			{0xA4u, 0xE0u},
 436:.\Generated_Source\PSoC4/cyfitter_cfg.c **** 			{0xA7u, 0x04u},
 437:.\Generated_Source\PSoC4/cyfitter_cfg.c **** 			{0xA8u, 0xE0u},
 438:.\Generated_Source\PSoC4/cyfitter_cfg.c **** 			{0xB0u, 0x0Fu},
 439:.\Generated_Source\PSoC4/cyfitter_cfg.c **** 			{0xB1u, 0x10u},
 440:.\Generated_Source\PSoC4/cyfitter_cfg.c **** 			{0xB3u, 0x03u},
 441:.\Generated_Source\PSoC4/cyfitter_cfg.c **** 			{0xB4u, 0xE0u},
 442:.\Generated_Source\PSoC4/cyfitter_cfg.c **** 			{0xB6u, 0x10u},
 443:.\Generated_Source\PSoC4/cyfitter_cfg.c **** 			{0xB7u, 0x0Cu},
 444:.\Generated_Source\PSoC4/cyfitter_cfg.c **** 			{0xBAu, 0x02u},
 445:.\Generated_Source\PSoC4/cyfitter_cfg.c **** 			{0xBEu, 0x40u},
 446:.\Generated_Source\PSoC4/cyfitter_cfg.c **** 			{0xBFu, 0x40u},
 447:.\Generated_Source\PSoC4/cyfitter_cfg.c **** 			{0xC0u, 0x41u},
 448:.\Generated_Source\PSoC4/cyfitter_cfg.c **** 			{0xC1u, 0x03u},
 449:.\Generated_Source\PSoC4/cyfitter_cfg.c **** 			{0xC5u, 0xEBu},
 450:.\Generated_Source\PSoC4/cyfitter_cfg.c **** 			{0xC6u, 0x0Cu},
 451:.\Generated_Source\PSoC4/cyfitter_cfg.c **** 			{0xC8u, 0x07u},
 452:.\Generated_Source\PSoC4/cyfitter_cfg.c **** 			{0xC9u, 0xFFu},
 453:.\Generated_Source\PSoC4/cyfitter_cfg.c **** 			{0xCAu, 0xFFu},
 454:.\Generated_Source\PSoC4/cyfitter_cfg.c **** 			{0xCBu, 0xFFu},
 455:.\Generated_Source\PSoC4/cyfitter_cfg.c **** 			{0xCEu, 0xF0u},
 456:.\Generated_Source\PSoC4/cyfitter_cfg.c **** 			{0xCFu, 0x44u},
 457:.\Generated_Source\PSoC4/cyfitter_cfg.c **** 			{0xD0u, 0x0Cu},
 458:.\Generated_Source\PSoC4/cyfitter_cfg.c **** 			{0xD4u, 0x01u},
 459:.\Generated_Source\PSoC4/cyfitter_cfg.c **** 			{0xD8u, 0x04u},
 460:.\Generated_Source\PSoC4/cyfitter_cfg.c **** 			{0xD9u, 0x04u},
 461:.\Generated_Source\PSoC4/cyfitter_cfg.c **** 			{0xDAu, 0x04u},
 462:.\Generated_Source\PSoC4/cyfitter_cfg.c **** 			{0xDBu, 0x04u},
 463:.\Generated_Source\PSoC4/cyfitter_cfg.c **** 			{0xDFu, 0x01u},
 464:.\Generated_Source\PSoC4/cyfitter_cfg.c **** 			{0xE6u, 0xC0u},
 465:.\Generated_Source\PSoC4/cyfitter_cfg.c **** 			{0xEAu, 0x40u},
 466:.\Generated_Source\PSoC4/cyfitter_cfg.c **** 			{0xEBu, 0x02u},
 467:.\Generated_Source\PSoC4/cyfitter_cfg.c **** 			{0x00u, 0x04u},
 468:.\Generated_Source\PSoC4/cyfitter_cfg.c **** 			{0x01u, 0x20u},
 469:.\Generated_Source\PSoC4/cyfitter_cfg.c **** 			{0x02u, 0x01u},
 470:.\Generated_Source\PSoC4/cyfitter_cfg.c **** 			{0x03u, 0x80u},
 471:.\Generated_Source\PSoC4/cyfitter_cfg.c **** 			{0x05u, 0x05u},
 472:.\Generated_Source\PSoC4/cyfitter_cfg.c **** 			{0x07u, 0x08u},
 473:.\Generated_Source\PSoC4/cyfitter_cfg.c **** 			{0x09u, 0x48u},
 474:.\Generated_Source\PSoC4/cyfitter_cfg.c **** 			{0x0Au, 0x48u},
 475:.\Generated_Source\PSoC4/cyfitter_cfg.c **** 			{0x0Du, 0x0Au},
 476:.\Generated_Source\PSoC4/cyfitter_cfg.c **** 			{0x0Fu, 0x02u},
 477:.\Generated_Source\PSoC4/cyfitter_cfg.c **** 			{0x11u, 0x14u},
ARM GAS  C:\Users\Petro\AppData\Local\Temp\ccdrxIsg.s 			page 14


 478:.\Generated_Source\PSoC4/cyfitter_cfg.c **** 			{0x12u, 0x80u},
 479:.\Generated_Source\PSoC4/cyfitter_cfg.c **** 			{0x16u, 0x10u},
 480:.\Generated_Source\PSoC4/cyfitter_cfg.c **** 			{0x17u, 0x01u},
 481:.\Generated_Source\PSoC4/cyfitter_cfg.c **** 			{0x19u, 0xA1u},
 482:.\Generated_Source\PSoC4/cyfitter_cfg.c **** 			{0x1Au, 0x40u},
 483:.\Generated_Source\PSoC4/cyfitter_cfg.c **** 			{0x1Bu, 0x12u},
 484:.\Generated_Source\PSoC4/cyfitter_cfg.c **** 			{0x1Cu, 0x40u},
 485:.\Generated_Source\PSoC4/cyfitter_cfg.c **** 			{0x1Du, 0x0Au},
 486:.\Generated_Source\PSoC4/cyfitter_cfg.c **** 			{0x1Fu, 0x08u},
 487:.\Generated_Source\PSoC4/cyfitter_cfg.c **** 			{0x20u, 0x01u},
 488:.\Generated_Source\PSoC4/cyfitter_cfg.c **** 			{0x22u, 0x06u},
 489:.\Generated_Source\PSoC4/cyfitter_cfg.c **** 			{0x24u, 0x04u},
 490:.\Generated_Source\PSoC4/cyfitter_cfg.c **** 			{0x25u, 0x40u},
 491:.\Generated_Source\PSoC4/cyfitter_cfg.c **** 			{0x27u, 0x29u},
 492:.\Generated_Source\PSoC4/cyfitter_cfg.c **** 			{0x2Bu, 0x10u},
 493:.\Generated_Source\PSoC4/cyfitter_cfg.c **** 			{0x2Fu, 0x2Au},
 494:.\Generated_Source\PSoC4/cyfitter_cfg.c **** 			{0x32u, 0x44u},
 495:.\Generated_Source\PSoC4/cyfitter_cfg.c **** 			{0x37u, 0x09u},
 496:.\Generated_Source\PSoC4/cyfitter_cfg.c **** 			{0x39u, 0x14u},
 497:.\Generated_Source\PSoC4/cyfitter_cfg.c **** 			{0x3Au, 0x01u},
 498:.\Generated_Source\PSoC4/cyfitter_cfg.c **** 			{0x3Eu, 0x01u},
 499:.\Generated_Source\PSoC4/cyfitter_cfg.c **** 			{0x3Fu, 0x02u},
 500:.\Generated_Source\PSoC4/cyfitter_cfg.c **** 			{0x42u, 0x01u},
 501:.\Generated_Source\PSoC4/cyfitter_cfg.c **** 			{0x43u, 0x0Au},
 502:.\Generated_Source\PSoC4/cyfitter_cfg.c **** 			{0x47u, 0x20u},
 503:.\Generated_Source\PSoC4/cyfitter_cfg.c **** 			{0x49u, 0x06u},
 504:.\Generated_Source\PSoC4/cyfitter_cfg.c **** 			{0x4Eu, 0x80u},
 505:.\Generated_Source\PSoC4/cyfitter_cfg.c **** 			{0x4Fu, 0x02u},
 506:.\Generated_Source\PSoC4/cyfitter_cfg.c **** 			{0x53u, 0x80u},
 507:.\Generated_Source\PSoC4/cyfitter_cfg.c **** 			{0x56u, 0x10u},
 508:.\Generated_Source\PSoC4/cyfitter_cfg.c **** 			{0x57u, 0x20u},
 509:.\Generated_Source\PSoC4/cyfitter_cfg.c **** 			{0x58u, 0x20u},
 510:.\Generated_Source\PSoC4/cyfitter_cfg.c **** 			{0x59u, 0x82u},
 511:.\Generated_Source\PSoC4/cyfitter_cfg.c **** 			{0x5Au, 0x04u},
 512:.\Generated_Source\PSoC4/cyfitter_cfg.c **** 			{0x80u, 0xA0u},
 513:.\Generated_Source\PSoC4/cyfitter_cfg.c **** 			{0x83u, 0x90u},
 514:.\Generated_Source\PSoC4/cyfitter_cfg.c **** 			{0x91u, 0x14u},
 515:.\Generated_Source\PSoC4/cyfitter_cfg.c **** 			{0x92u, 0x84u},
 516:.\Generated_Source\PSoC4/cyfitter_cfg.c **** 			{0x94u, 0x41u},
 517:.\Generated_Source\PSoC4/cyfitter_cfg.c **** 			{0x96u, 0x08u},
 518:.\Generated_Source\PSoC4/cyfitter_cfg.c **** 			{0x9Au, 0x01u},
 519:.\Generated_Source\PSoC4/cyfitter_cfg.c **** 			{0x9Cu, 0x80u},
 520:.\Generated_Source\PSoC4/cyfitter_cfg.c **** 			{0x9Du, 0x02u},
 521:.\Generated_Source\PSoC4/cyfitter_cfg.c **** 			{0xA6u, 0x02u},
 522:.\Generated_Source\PSoC4/cyfitter_cfg.c **** 			{0xA9u, 0x80u},
 523:.\Generated_Source\PSoC4/cyfitter_cfg.c **** 			{0xAAu, 0x01u},
 524:.\Generated_Source\PSoC4/cyfitter_cfg.c **** 			{0xAFu, 0x80u},
 525:.\Generated_Source\PSoC4/cyfitter_cfg.c **** 			{0xC0u, 0x7Fu},
 526:.\Generated_Source\PSoC4/cyfitter_cfg.c **** 			{0xC2u, 0xBFu},
 527:.\Generated_Source\PSoC4/cyfitter_cfg.c **** 			{0xC4u, 0x3Eu},
 528:.\Generated_Source\PSoC4/cyfitter_cfg.c **** 			{0xCAu, 0x72u},
 529:.\Generated_Source\PSoC4/cyfitter_cfg.c **** 			{0xCCu, 0xCAu},
 530:.\Generated_Source\PSoC4/cyfitter_cfg.c **** 			{0xCEu, 0x87u},
 531:.\Generated_Source\PSoC4/cyfitter_cfg.c **** 			{0xD0u, 0x2Bu},
 532:.\Generated_Source\PSoC4/cyfitter_cfg.c **** 			{0xD6u, 0x0Fu},
 533:.\Generated_Source\PSoC4/cyfitter_cfg.c **** 			{0x0Au, 0x40u},
 534:.\Generated_Source\PSoC4/cyfitter_cfg.c **** 			{0x63u, 0x02u},
ARM GAS  C:\Users\Petro\AppData\Local\Temp\ccdrxIsg.s 			page 15


 535:.\Generated_Source\PSoC4/cyfitter_cfg.c **** 			{0xC2u, 0x10u},
 536:.\Generated_Source\PSoC4/cyfitter_cfg.c **** 			{0xD6u, 0x40u},
 537:.\Generated_Source\PSoC4/cyfitter_cfg.c **** 			{0xAAu, 0x40u},
 538:.\Generated_Source\PSoC4/cyfitter_cfg.c **** 			{0xAFu, 0x01u},
 539:.\Generated_Source\PSoC4/cyfitter_cfg.c **** 			{0xE8u, 0x20u},
 540:.\Generated_Source\PSoC4/cyfitter_cfg.c **** 			{0xEEu, 0x10u},
 541:.\Generated_Source\PSoC4/cyfitter_cfg.c **** 			{0x10u, 0x01u},
 542:.\Generated_Source\PSoC4/cyfitter_cfg.c **** 			{0x11u, 0x01u},
 543:.\Generated_Source\PSoC4/cyfitter_cfg.c **** 		};
 544:.\Generated_Source\PSoC4/cyfitter_cfg.c **** 
 545:.\Generated_Source\PSoC4/cyfitter_cfg.c **** 
 546:.\Generated_Source\PSoC4/cyfitter_cfg.c **** 
 547:.\Generated_Source\PSoC4/cyfitter_cfg.c **** 		CYPACKED typedef struct {
 548:.\Generated_Source\PSoC4/cyfitter_cfg.c **** 			void CYFAR *address;
 549:.\Generated_Source\PSoC4/cyfitter_cfg.c **** 			uint16 size;
 550:.\Generated_Source\PSoC4/cyfitter_cfg.c **** 		} CYPACKED_ATTR cfg_memset_t;
 551:.\Generated_Source\PSoC4/cyfitter_cfg.c **** 
 552:.\Generated_Source\PSoC4/cyfitter_cfg.c **** 
 553:.\Generated_Source\PSoC4/cyfitter_cfg.c **** 		CYPACKED typedef struct {
 554:.\Generated_Source\PSoC4/cyfitter_cfg.c **** 			void CYFAR *dest;
 555:.\Generated_Source\PSoC4/cyfitter_cfg.c **** 			const void CYCODE *src;
 556:.\Generated_Source\PSoC4/cyfitter_cfg.c **** 			uint16 size;
 557:.\Generated_Source\PSoC4/cyfitter_cfg.c **** 		} CYPACKED_ATTR cfg_memcpy_t;
 558:.\Generated_Source\PSoC4/cyfitter_cfg.c **** 
 559:.\Generated_Source\PSoC4/cyfitter_cfg.c **** 		static const cfg_memset_t CYCODE cfg_memset_list [] = {
 560:.\Generated_Source\PSoC4/cyfitter_cfg.c **** 			/* address, size */
 561:.\Generated_Source\PSoC4/cyfitter_cfg.c **** 			{(void CYFAR *)(CYDEV_UDB_P0_U1_BASE), 896u},
 562:.\Generated_Source\PSoC4/cyfitter_cfg.c **** 			{(void CYFAR *)(CYDEV_UDB_DSI0_BASE), 1024u},
 563:.\Generated_Source\PSoC4/cyfitter_cfg.c **** 		};
 564:.\Generated_Source\PSoC4/cyfitter_cfg.c **** 
 565:.\Generated_Source\PSoC4/cyfitter_cfg.c **** 		/* UDB_0_1_0_CONFIG Address: CYDEV_UDB_P0_U0_BASE Size (bytes): 128 */
 566:.\Generated_Source\PSoC4/cyfitter_cfg.c **** 		static const uint8 CYCODE BS_UDB_0_1_0_CONFIG_VAL[] = {
 567:.\Generated_Source\PSoC4/cyfitter_cfg.c **** 			0x00u, 0x10u, 0x00u, 0x00u, 0x73u, 0x18u, 0x0Cu, 0x00u, 0x4Fu, 0x08u, 0x30u, 0x00u, 0x01u, 0x1Cu
 568:.\Generated_Source\PSoC4/cyfitter_cfg.c **** 			0x00u, 0x00u, 0x33u, 0x63u, 0x7Fu, 0x40u, 0x00u, 0x00u, 0x02u, 0xE7u, 0x00u, 0x18u, 0x03u, 0x00u
 569:.\Generated_Source\PSoC4/cyfitter_cfg.c **** 			0x08u, 0x60u, 0x00u, 0x00u, 0x04u, 0x1Cu, 0x00u, 0xE1u, 0x0Cu, 0xFFu, 0x00u, 0x00u, 0x5Cu, 0x24u
 570:.\Generated_Source\PSoC4/cyfitter_cfg.c **** 			0x40u, 0x1Fu, 0x2Cu, 0x60u, 0x0Fu, 0x00u, 0x1Cu, 0x80u, 0x00u, 0x80u, 0x28u, 0x22u, 0x00u, 0x00u
 571:.\Generated_Source\PSoC4/cyfitter_cfg.c **** 			0x25u, 0x06u, 0x04u, 0x00u, 0x01u, 0x0Cu, 0x00u, 0xE0u, 0x21u, 0xFFu, 0xFFu, 0xFFu, 0x62u, 0xA0u
 572:.\Generated_Source\PSoC4/cyfitter_cfg.c **** 			0x0Cu, 0x00u, 0x00u, 0x00u, 0x00u, 0x00u, 0x02u, 0x13u, 0x04u, 0x04u, 0x04u, 0x04u, 0x00u, 0x00u
 573:.\Generated_Source\PSoC4/cyfitter_cfg.c **** 			0x00u, 0x00u, 0x00u, 0x00u, 0x00u, 0x00u, 0x40u, 0x02u, 0x00u, 0x10u, 0x30u, 0x10u, 0x00u, 0x10u
 574:.\Generated_Source\PSoC4/cyfitter_cfg.c **** 			0x00u, 0x00u, 0x00u, 0x00u, 0x00u, 0x00u, 0x00u, 0x00u, 0x00u, 0x00u, 0x00u, 0x00u, 0x00u, 0x00u
 575:.\Generated_Source\PSoC4/cyfitter_cfg.c **** 
 576:.\Generated_Source\PSoC4/cyfitter_cfg.c **** 		static const cfg_memcpy_t CYCODE cfg_memcpy_list [] = {
 577:.\Generated_Source\PSoC4/cyfitter_cfg.c **** 			/* dest, src, size */
 578:.\Generated_Source\PSoC4/cyfitter_cfg.c **** 			{(void CYFAR *)(CYDEV_UDB_P0_U0_BASE), BS_UDB_0_1_0_CONFIG_VAL, 128u},
 579:.\Generated_Source\PSoC4/cyfitter_cfg.c **** 		};
 580:.\Generated_Source\PSoC4/cyfitter_cfg.c **** 
 581:.\Generated_Source\PSoC4/cyfitter_cfg.c **** 		uint8 CYDATA i;
 582:.\Generated_Source\PSoC4/cyfitter_cfg.c **** 
 583:.\Generated_Source\PSoC4/cyfitter_cfg.c **** 		/* Zero out critical memory blocks before beginning configuration */
 584:.\Generated_Source\PSoC4/cyfitter_cfg.c **** 		for (i = 0u; i < (sizeof(cfg_memset_list)/sizeof(cfg_memset_list[0])); i++)
 256              		.loc 1 584 0
 257 0090 0024     		mov	r4, #0
 258 0092 10E0     		b	.L13
 259              	.LVL19:
 260              	.L14:
 261              	.LBB4:
 585:.\Generated_Source\PSoC4/cyfitter_cfg.c **** 		{
ARM GAS  C:\Users\Petro\AppData\Local\Temp\ccdrxIsg.s 			page 16


 586:.\Generated_Source\PSoC4/cyfitter_cfg.c **** 			const cfg_memset_t CYCODE * CYDATA ms = &cfg_memset_list[i];
 587:.\Generated_Source\PSoC4/cyfitter_cfg.c **** 			CYMEMZERO(ms->address, (size_t)(uint32)(ms->size));
 262              		.loc 1 587 0 discriminator 3
 263 0094 3E48     		ldr	r0, .L17
 264 0096 6300     		lsl	r3, r4, #1
 265 0098 1A19     		add	r2, r3, r4
 266 009a 5200     		lsl	r2, r2, #1
 267 009c 8218     		add	r2, r0, r2
 268 009e 9188     		ldrh	r1, [r2, #4]
 269 00a0 1B19     		add	r3, r3, r4
 270 00a2 5B00     		lsl	r3, r3, #1
 271 00a4 1A5A     		ldrh	r2, [r3, r0]
 272 00a6 C318     		add	r3, r0, r3
 273 00a8 5888     		ldrh	r0, [r3, #2]
 274 00aa 0004     		lsl	r0, r0, #16
 275 00ac 1043     		orr	r0, r2
 276 00ae FFF7FEFF 		bl	CYMEMZERO
 277              	.LVL20:
 278              	.LBE4:
 584:.\Generated_Source\PSoC4/cyfitter_cfg.c **** 		{
 279              		.loc 1 584 0 discriminator 3
 280 00b2 0134     		add	r4, r4, #1
 281              	.LVL21:
 282 00b4 E4B2     		uxtb	r4, r4
 283              	.LVL22:
 284              	.L13:
 584:.\Generated_Source\PSoC4/cyfitter_cfg.c **** 		{
 285              		.loc 1 584 0 is_stmt 0 discriminator 1
 286 00b6 012C     		cmp	r4, #1
 287 00b8 ECD9     		bls	.L14
 288 00ba 0024     		mov	r4, #0
 289              	.LVL23:
 290 00bc 12E0     		b	.L15
 291              	.LVL24:
 292              	.L16:
 293              	.LBB5:
 588:.\Generated_Source\PSoC4/cyfitter_cfg.c **** 		}
 589:.\Generated_Source\PSoC4/cyfitter_cfg.c **** 
 590:.\Generated_Source\PSoC4/cyfitter_cfg.c **** 		/* Copy device configuration data into registers */
 591:.\Generated_Source\PSoC4/cyfitter_cfg.c **** 		for (i = 0u; i < (sizeof(cfg_memcpy_list)/sizeof(cfg_memcpy_list[0])); i++)
 592:.\Generated_Source\PSoC4/cyfitter_cfg.c **** 		{
 593:.\Generated_Source\PSoC4/cyfitter_cfg.c **** 			const cfg_memcpy_t CYCODE * CYDATA mc = &cfg_memcpy_list[i];
 594:.\Generated_Source\PSoC4/cyfitter_cfg.c **** 			void * CYDATA destPtr = mc->dest;
 294              		.loc 1 594 0 is_stmt 1 discriminator 3
 295 00be 344D     		ldr	r5, .L17
 296 00c0 A300     		lsl	r3, r4, #2
 297 00c2 1A19     		add	r2, r3, r4
 298 00c4 5200     		lsl	r2, r2, #1
 299 00c6 AA18     		add	r2, r5, r2
 300 00c8 9189     		ldrh	r1, [r2, #12]
 301 00ca D089     		ldrh	r0, [r2, #14]
 302 00cc 0004     		lsl	r0, r0, #16
 303 00ce 0843     		orr	r0, r1
 304              	.LVL25:
 595:.\Generated_Source\PSoC4/cyfitter_cfg.c **** 			const void CYCODE * CYDATA srcPtr = mc->src;
 305              		.loc 1 595 0 discriminator 3
 306 00d0 131C     		mov	r3, r2
ARM GAS  C:\Users\Petro\AppData\Local\Temp\ccdrxIsg.s 			page 17


 307 00d2 128A     		ldrh	r2, [r2, #16]
 308 00d4 598A     		ldrh	r1, [r3, #18]
 309 00d6 0904     		lsl	r1, r1, #16
 310 00d8 1143     		orr	r1, r2
 311              	.LVL26:
 596:.\Generated_Source\PSoC4/cyfitter_cfg.c **** 			uint16 CYDATA numBytes = mc->size;
 597:.\Generated_Source\PSoC4/cyfitter_cfg.c **** 			CYCONFIGCPYCODE(destPtr, srcPtr, numBytes);
 312              		.loc 1 597 0 discriminator 3
 313 00da 8022     		mov	r2, #128
 314 00dc FFF7FEFF 		bl	CYCONFIGCPYCODE
 315              	.LVL27:
 316              	.LBE5:
 591:.\Generated_Source\PSoC4/cyfitter_cfg.c **** 		{
 317              		.loc 1 591 0 discriminator 3
 318 00e0 0134     		add	r4, r4, #1
 319              	.LVL28:
 320 00e2 E4B2     		uxtb	r4, r4
 321              	.LVL29:
 322              	.L15:
 591:.\Generated_Source\PSoC4/cyfitter_cfg.c **** 		{
 323              		.loc 1 591 0 is_stmt 0 discriminator 1
 324 00e4 002C     		cmp	r4, #0
 325 00e6 EAD0     		beq	.L16
 598:.\Generated_Source\PSoC4/cyfitter_cfg.c **** 		}
 599:.\Generated_Source\PSoC4/cyfitter_cfg.c **** 
 600:.\Generated_Source\PSoC4/cyfitter_cfg.c **** 		cfg_write_bytes32(cy_cfg_addr_table, cy_cfg_data_table);
 326              		.loc 1 600 0 is_stmt 1
 327 00e8 2949     		ldr	r1, .L17
 328 00ea 081C     		mov	r0, r1
 329 00ec 1830     		add	r0, r0, #24
 330 00ee 3831     		add	r1, r1, #56
 331 00f0 FFF7FEFF 		bl	cfg_write_bytes32
 332              	.LVL30:
 601:.\Generated_Source\PSoC4/cyfitter_cfg.c **** 
 602:.\Generated_Source\PSoC4/cyfitter_cfg.c **** 		/* Perform normal device configuration. Order is not critical for these items. */
 603:.\Generated_Source\PSoC4/cyfitter_cfg.c **** 		CY_SET_XTND_REG16((void CYFAR *)(CYREG_UDB_BCTL0_DRV), 0x0100u);
 333              		.loc 1 603 0
 334 00f4 8022     		mov	r2, #128
 335 00f6 5200     		lsl	r2, r2, #1
 336 00f8 264B     		ldr	r3, .L17+4
 337 00fa 1A80     		strh	r2, [r3]
 604:.\Generated_Source\PSoC4/cyfitter_cfg.c **** 		CY_SET_XTND_REG8((void CYFAR *)(CYREG_UDB_BCTL0_DRV + 0x2u), 0x01u);
 338              		.loc 1 604 0
 339 00fc FF3A     		sub	r2, r2, #255
 340 00fe 264B     		ldr	r3, .L17+8
 341 0100 1A70     		strb	r2, [r3]
 605:.\Generated_Source\PSoC4/cyfitter_cfg.c **** 
 606:.\Generated_Source\PSoC4/cyfitter_cfg.c **** 		/* HSIOM Starting address: CYDEV_HSIOM_BASE */
 607:.\Generated_Source\PSoC4/cyfitter_cfg.c **** 		CY_SET_XTND_REG32((void CYFAR *)(CYDEV_HSIOM_BASE), 0x00300000u);
 342              		.loc 1 607 0
 343 0102 C022     		mov	r2, #192
 344 0104 9203     		lsl	r2, r2, #14
 345 0106 254B     		ldr	r3, .L17+12
 346 0108 1A60     		str	r2, [r3]
 608:.\Generated_Source\PSoC4/cyfitter_cfg.c **** 		CY_SET_XTND_REG32((void CYFAR *)(CYREG_HSIOM_PORT_SEL3), 0x0000EE00u);
 347              		.loc 1 608 0
 348 010a EE22     		mov	r2, #238
ARM GAS  C:\Users\Petro\AppData\Local\Temp\ccdrxIsg.s 			page 18


 349 010c 1202     		lsl	r2, r2, #8
 350 010e 244B     		ldr	r3, .L17+16
 351 0110 1A60     		str	r2, [r3]
 609:.\Generated_Source\PSoC4/cyfitter_cfg.c **** 
 610:.\Generated_Source\PSoC4/cyfitter_cfg.c **** 		/* UDB_PA_0 Starting address: CYDEV_UDB_PA0_BASE */
 611:.\Generated_Source\PSoC4/cyfitter_cfg.c **** 		CY_SET_XTND_REG32((void CYFAR *)(CYDEV_UDB_PA0_BASE), 0x00990004u);
 352              		.loc 1 611 0
 353 0112 244A     		ldr	r2, .L17+20
 354 0114 244B     		ldr	r3, .L17+24
 355 0116 1A60     		str	r2, [r3]
 612:.\Generated_Source\PSoC4/cyfitter_cfg.c **** 		CY_SET_XTND_REG32((void CYFAR *)(CYREG_UDB_PA0_CFG4), 0x02000000u);
 356              		.loc 1 612 0
 357 0118 8022     		mov	r2, #128
 358 011a 9204     		lsl	r2, r2, #18
 359 011c 234B     		ldr	r3, .L17+28
 360 011e 1A60     		str	r2, [r3]
 613:.\Generated_Source\PSoC4/cyfitter_cfg.c **** 		CY_SET_XTND_REG32((void CYFAR *)(CYREG_UDB_PA0_CFG8), 0x51000000u);
 361              		.loc 1 613 0
 362 0120 A222     		mov	r2, #162
 363 0122 D205     		lsl	r2, r2, #23
 364 0124 224B     		ldr	r3, .L17+32
 365 0126 1A60     		str	r2, [r3]
 614:.\Generated_Source\PSoC4/cyfitter_cfg.c **** 
 615:.\Generated_Source\PSoC4/cyfitter_cfg.c **** 		/* UDB_PA_1 Starting address: CYDEV_UDB_PA1_BASE */
 616:.\Generated_Source\PSoC4/cyfitter_cfg.c **** 		CY_SET_XTND_REG32((void CYFAR *)(CYDEV_UDB_PA1_BASE), 0x00990000u);
 366              		.loc 1 616 0
 367 0128 9923     		mov	r3, #153
 368 012a 1B04     		lsl	r3, r3, #16
 369 012c 214A     		ldr	r2, .L17+36
 370 012e 1360     		str	r3, [r2]
 617:.\Generated_Source\PSoC4/cyfitter_cfg.c **** 
 618:.\Generated_Source\PSoC4/cyfitter_cfg.c **** 		/* UDB_PA_2 Starting address: CYDEV_UDB_PA2_BASE */
 619:.\Generated_Source\PSoC4/cyfitter_cfg.c **** 		CY_SET_XTND_REG32((void CYFAR *)(CYDEV_UDB_PA2_BASE), 0x00990000u);
 371              		.loc 1 619 0
 372 0130 214A     		ldr	r2, .L17+40
 373 0132 1360     		str	r3, [r2]
 620:.\Generated_Source\PSoC4/cyfitter_cfg.c **** 
 621:.\Generated_Source\PSoC4/cyfitter_cfg.c **** 		/* UDB_PA_3 Starting address: CYDEV_UDB_PA3_BASE */
 622:.\Generated_Source\PSoC4/cyfitter_cfg.c **** 		CY_SET_XTND_REG32((void CYFAR *)(CYDEV_UDB_PA3_BASE), 0x00990000u);
 374              		.loc 1 622 0
 375 0134 214A     		ldr	r2, .L17+44
 376 0136 1360     		str	r3, [r2]
 623:.\Generated_Source\PSoC4/cyfitter_cfg.c **** 
 624:.\Generated_Source\PSoC4/cyfitter_cfg.c **** 		/* Enable digital routing */
 625:.\Generated_Source\PSoC4/cyfitter_cfg.c **** 		CY_SET_XTND_REG8((void *)CYREG_UDB_UDBIF_BANK_CTL, CY_GET_XTND_REG8((void *)CYREG_UDB_UDBIF_BANK_
 377              		.loc 1 625 0
 378 0138 214B     		ldr	r3, .L17+48
 379 013a 1978     		ldrb	r1, [r3]
 380 013c 0222     		mov	r2, #2
 381 013e 0A43     		orr	r2, r1
 382 0140 1A70     		strb	r2, [r3]
 626:.\Generated_Source\PSoC4/cyfitter_cfg.c **** 
 627:.\Generated_Source\PSoC4/cyfitter_cfg.c **** 		/* Enable UDB array */
 628:.\Generated_Source\PSoC4/cyfitter_cfg.c **** 		CY_SET_XTND_REG8((void *)CYREG_UDB_UDBIF_WAIT_CFG, (uint8)((CY_GET_XTND_REG8((void *)CYREG_UDB_UD
 383              		.loc 1 628 0
 384 0142 2048     		ldr	r0, .L17+52
 385 0144 0278     		ldrb	r2, [r0]
ARM GAS  C:\Users\Petro\AppData\Local\Temp\ccdrxIsg.s 			page 19


 386 0146 3C21     		mov	r1, #60
 387 0148 8A43     		bic	r2, r1
 388 014a 2839     		sub	r1, r1, #40
 389 014c 0A43     		orr	r2, r1
 390 014e 0270     		strb	r2, [r0]
 629:.\Generated_Source\PSoC4/cyfitter_cfg.c **** 		CY_SET_XTND_REG8((void *)CYREG_UDB_UDBIF_BANK_CTL, (uint8)(CY_GET_XTND_REG8((void *)CYREG_UDB_UDB
 391              		.loc 1 629 0
 392 0150 1978     		ldrb	r1, [r3]
 393 0152 1622     		mov	r2, #22
 394 0154 0A43     		orr	r2, r1
 395 0156 1A70     		strb	r2, [r3]
 396              	.LBE3:
 630:.\Generated_Source\PSoC4/cyfitter_cfg.c **** 	}
 631:.\Generated_Source\PSoC4/cyfitter_cfg.c **** 
 632:.\Generated_Source\PSoC4/cyfitter_cfg.c **** 	/* Perform second pass device configuration. These items must be configured in specific order afte
 633:.\Generated_Source\PSoC4/cyfitter_cfg.c **** 	/* IOPINS0_0 Starting address: CYDEV_PRT0_BASE */
 634:.\Generated_Source\PSoC4/cyfitter_cfg.c **** 	CY_SET_XTND_REG32((void CYFAR *)(CYDEV_PRT0_BASE), 0x000000A8u);
 397              		.loc 1 634 0
 398 0158 A822     		mov	r2, #168
 399 015a 1B4B     		ldr	r3, .L17+56
 400 015c 1A60     		str	r2, [r3]
 635:.\Generated_Source\PSoC4/cyfitter_cfg.c **** 	CY_SET_XTND_REG32((void CYFAR *)(CYREG_PRT0_PC), 0x00431C00u);
 401              		.loc 1 635 0
 402 015e 1B4A     		ldr	r2, .L17+60
 403 0160 1B4B     		ldr	r3, .L17+64
 404 0162 1A60     		str	r2, [r3]
 636:.\Generated_Source\PSoC4/cyfitter_cfg.c **** 	CY_SET_XTND_REG32((void CYFAR *)(CYREG_PRT0_INTCFG), 0x00008000u);
 405              		.loc 1 636 0
 406 0164 8022     		mov	r2, #128
 407 0166 1202     		lsl	r2, r2, #8
 408 0168 1A4B     		ldr	r3, .L17+68
 409 016a 1A60     		str	r2, [r3]
 637:.\Generated_Source\PSoC4/cyfitter_cfg.c **** 
 638:.\Generated_Source\PSoC4/cyfitter_cfg.c **** 	/* IOPINS0_1 Starting address: CYDEV_PRT1_BASE */
 639:.\Generated_Source\PSoC4/cyfitter_cfg.c **** 	CY_SET_XTND_REG32((void CYFAR *)(CYDEV_PRT1_BASE), 0x00000040u);
 410              		.loc 1 639 0
 411 016c 4022     		mov	r2, #64
 412 016e 1A4B     		ldr	r3, .L17+72
 413 0170 1A60     		str	r2, [r3]
 640:.\Generated_Source\PSoC4/cyfitter_cfg.c **** 	CY_SET_XTND_REG32((void CYFAR *)(CYREG_PRT1_PC), 0x00180000u);
 414              		.loc 1 640 0
 415 0172 C022     		mov	r2, #192
 416 0174 5203     		lsl	r2, r2, #13
 417 0176 194B     		ldr	r3, .L17+76
 418 0178 1A60     		str	r2, [r3]
 641:.\Generated_Source\PSoC4/cyfitter_cfg.c **** 
 642:.\Generated_Source\PSoC4/cyfitter_cfg.c **** 	/* IOPINS0_2 Starting address: CYDEV_PRT2_BASE */
 643:.\Generated_Source\PSoC4/cyfitter_cfg.c **** 	CY_SET_XTND_REG32((void CYFAR *)(CYREG_PRT2_PC), 0x001B6DB6u);
 419              		.loc 1 643 0
 420 017a 194A     		ldr	r2, .L17+80
 421 017c 194B     		ldr	r3, .L17+84
 422 017e 1A60     		str	r2, [r3]
 644:.\Generated_Source\PSoC4/cyfitter_cfg.c **** 
 645:.\Generated_Source\PSoC4/cyfitter_cfg.c **** 	/* IOPINS0_3 Starting address: CYDEV_PRT3_BASE */
 646:.\Generated_Source\PSoC4/cyfitter_cfg.c **** 	CY_SET_XTND_REG32((void CYFAR *)(CYREG_PRT3_PC), 0x00000D80u);
 423              		.loc 1 646 0
 424 0180 D822     		mov	r2, #216
ARM GAS  C:\Users\Petro\AppData\Local\Temp\ccdrxIsg.s 			page 20


 425 0182 1201     		lsl	r2, r2, #4
 426 0184 184B     		ldr	r3, .L17+88
 427 0186 1A60     		str	r2, [r3]
 647:.\Generated_Source\PSoC4/cyfitter_cfg.c **** 
 648:.\Generated_Source\PSoC4/cyfitter_cfg.c **** 
 649:.\Generated_Source\PSoC4/cyfitter_cfg.c **** 	/* Setup clocks based on selections from Clock DWR */
 650:.\Generated_Source\PSoC4/cyfitter_cfg.c **** 	ClockSetup();
 428              		.loc 1 650 0
 429 0188 FFF73AFF 		bl	ClockSetup
 430              	.LVL31:
 651:.\Generated_Source\PSoC4/cyfitter_cfg.c **** 
 652:.\Generated_Source\PSoC4/cyfitter_cfg.c **** 	/* Perform basic analog initialization to defaults */
 653:.\Generated_Source\PSoC4/cyfitter_cfg.c **** 	AnalogSetDefault();
 654:.\Generated_Source\PSoC4/cyfitter_cfg.c **** 
 655:.\Generated_Source\PSoC4/cyfitter_cfg.c **** }
 431              		.loc 1 655 0
 432              		@ sp needed
 433              	.LVL32:
 434 018c 38BD     		pop	{r3, r4, r5, pc}
 435              	.L18:
 436 018e C046     		.align	2
 437              	.L17:
 438 0190 00000000 		.word	.LANCHOR0
 439 0194 00600F40 		.word	1074749440
 440 0198 02600F40 		.word	1074749442
 441 019c 00000140 		.word	1073807360
 442 01a0 0C000140 		.word	1073807372
 443 01a4 04009900 		.word	10027012
 444 01a8 00500F40 		.word	1074745344
 445 01ac 04500F40 		.word	1074745348
 446 01b0 08500F40 		.word	1074745352
 447 01b4 10500F40 		.word	1074745360
 448 01b8 20500F40 		.word	1074745376
 449 01bc 30500F40 		.word	1074745392
 450 01c0 00700F40 		.word	1074753536
 451 01c4 01700F40 		.word	1074753537
 452 01c8 00000440 		.word	1074003968
 453 01cc 001C4300 		.word	4398080
 454 01d0 08000440 		.word	1074003976
 455 01d4 0C000440 		.word	1074003980
 456 01d8 00010440 		.word	1074004224
 457 01dc 08010440 		.word	1074004232
 458 01e0 B66D1B00 		.word	1797558
 459 01e4 08020440 		.word	1074004488
 460 01e8 08030440 		.word	1074004744
 461              		.cfi_endproc
 462              	.LFE6:
 463              		.size	cyfitter_cfg, .-cyfitter_cfg
 464              		.section	.rodata
 465              		.align	2
 466              		.set	.LANCHOR0,. + 0
 467              		.type	cfg_memset_list.4747, %object
 468              		.size	cfg_memset_list.4747, 12
 469              	cfg_memset_list.4747:
 470 0000 80300F40 		.word	1074737280
 471 0004 8003     		.short	896
 472 0006 00400F40 		.4byte	1074741248
ARM GAS  C:\Users\Petro\AppData\Local\Temp\ccdrxIsg.s 			page 21


 473 000a 0004     		.short	1024
 474              		.type	cfg_memcpy_list.4749, %object
 475              		.size	cfg_memcpy_list.4749, 10
 476              	cfg_memcpy_list.4749:
 477 000c 00300F40 		.word	1074737152
 478 0010 44020000 		.word	BS_UDB_0_1_0_CONFIG_VAL.4748
 479 0014 8000     		.short	128
 480 0016 0000     		.space	2
 481              		.type	cy_cfg_addr_table.4736, %object
 482              		.size	cy_cfg_addr_table.4736, 32
 483              	cy_cfg_addr_table.4736:
 484 0018 03000F40 		.word	1074724867
 485 001c 12300F40 		.word	1074737170
 486 0020 3C310F40 		.word	1074737468
 487 0024 69320F40 		.word	1074737769
 488 0028 42330F40 		.word	1074737986
 489 002c 04400F40 		.word	1074741252
 490 0030 04410F40 		.word	1074741508
 491 0034 02600F40 		.word	1074749442
 492              		.type	cy_cfg_data_table.4737, %object
 493              		.size	cy_cfg_data_table.4737, 524
 494              	cy_cfg_data_table.4737:
 495 0038 80       		.byte	-128
 496 0039 72       		.byte	114
 497 003a 81       		.byte	-127
 498 003b 38       		.byte	56
 499 003c 83       		.byte	-125
 500 003d 0F       		.byte	15
 501 003e 80       		.byte	-128
 502 003f 04       		.byte	4
 503 0040 86       		.byte	-122
 504 0041 02       		.byte	2
 505 0042 8C       		.byte	-116
 506 0043 08       		.byte	8
 507 0044 92       		.byte	-110
 508 0045 02       		.byte	2
 509 0046 9E       		.byte	-98
 510 0047 01       		.byte	1
 511 0048 A2       		.byte	-94
 512 0049 01       		.byte	1
 513 004a AF       		.byte	-81
 514 004b 01       		.byte	1
 515 004c B0       		.byte	-80
 516 004d 02       		.byte	2
 517 004e B2       		.byte	-78
 518 004f 01       		.byte	1
 519 0050 B4       		.byte	-76
 520 0051 04       		.byte	4
 521 0052 B6       		.byte	-74
 522 0053 08       		.byte	8
 523 0054 B7       		.byte	-73
 524 0055 01       		.byte	1
 525 0056 BE       		.byte	-66
 526 0057 55       		.byte	85
 527 0058 D4       		.byte	-44
 528 0059 18       		.byte	24
 529 005a D8       		.byte	-40
ARM GAS  C:\Users\Petro\AppData\Local\Temp\ccdrxIsg.s 			page 22


 530 005b 04       		.byte	4
 531 005c D9       		.byte	-39
 532 005d 04       		.byte	4
 533 005e DB       		.byte	-37
 534 005f 04       		.byte	4
 535 0060 DF       		.byte	-33
 536 0061 01       		.byte	1
 537 0062 01       		.byte	1
 538 0063 80       		.byte	-128
 539 0064 02       		.byte	2
 540 0065 04       		.byte	4
 541 0066 03       		.byte	3
 542 0067 28       		.byte	40
 543 0068 04       		.byte	4
 544 0069 40       		.byte	64
 545 006a 05       		.byte	5
 546 006b 06       		.byte	6
 547 006c 08       		.byte	8
 548 006d 84       		.byte	-124
 549 006e 0A       		.byte	10
 550 006f 28       		.byte	40
 551 0070 0B       		.byte	11
 552 0071 80       		.byte	-128
 553 0072 0E       		.byte	14
 554 0073 40       		.byte	64
 555 0074 0F       		.byte	15
 556 0075 81       		.byte	-127
 557 0076 10       		.byte	16
 558 0077 80       		.byte	-128
 559 0078 11       		.byte	17
 560 0079 40       		.byte	64
 561 007a 13       		.byte	19
 562 007b 98       		.byte	-104
 563 007c 15       		.byte	21
 564 007d 02       		.byte	2
 565 007e 19       		.byte	25
 566 007f 01       		.byte	1
 567 0080 1B       		.byte	27
 568 0081 68       		.byte	104
 569 0082 1E       		.byte	30
 570 0083 04       		.byte	4
 571 0084 1F       		.byte	31
 572 0085 85       		.byte	-123
 573 0086 20       		.byte	32
 574 0087 08       		.byte	8
 575 0088 22       		.byte	34
 576 0089 18       		.byte	24
 577 008a 23       		.byte	35
 578 008b 81       		.byte	-127
 579 008c 25       		.byte	37
 580 008d 80       		.byte	-128
 581 008e 28       		.byte	40
 582 008f 84       		.byte	-124
 583 0090 29       		.byte	41
 584 0091 80       		.byte	-128
 585 0092 2A       		.byte	42
 586 0093 04       		.byte	4
ARM GAS  C:\Users\Petro\AppData\Local\Temp\ccdrxIsg.s 			page 23


 587 0094 2D       		.byte	45
 588 0095 80       		.byte	-128
 589 0096 31       		.byte	49
 590 0097 80       		.byte	-128
 591 0098 32       		.byte	50
 592 0099 06       		.byte	6
 593 009a 33       		.byte	51
 594 009b 20       		.byte	32
 595 009c 38       		.byte	56
 596 009d 28       		.byte	40
 597 009e 39       		.byte	57
 598 009f 40       		.byte	64
 599 00a0 3A       		.byte	58
 600 00a1 02       		.byte	2
 601 00a2 40       		.byte	64
 602 00a3 01       		.byte	1
 603 00a4 42       		.byte	66
 604 00a5 40       		.byte	64
 605 00a6 43       		.byte	67
 606 00a7 20       		.byte	32
 607 00a8 48       		.byte	72
 608 00a9 04       		.byte	4
 609 00aa 49       		.byte	73
 610 00ab 04       		.byte	4
 611 00ac 4A       		.byte	74
 612 00ad 02       		.byte	2
 613 00ae 4B       		.byte	75
 614 00af 80       		.byte	-128
 615 00b0 51       		.byte	81
 616 00b1 01       		.byte	1
 617 00b2 59       		.byte	89
 618 00b3 01       		.byte	1
 619 00b4 5D       		.byte	93
 620 00b5 01       		.byte	1
 621 00b6 67       		.byte	103
 622 00b7 0A       		.byte	10
 623 00b8 69       		.byte	105
 624 00b9 14       		.byte	20
 625 00ba 6A       		.byte	106
 626 00bb 80       		.byte	-128
 627 00bc 70       		.byte	112
 628 00bd 94       		.byte	-108
 629 00be 72       		.byte	114
 630 00bf 02       		.byte	2
 631 00c0 73       		.byte	115
 632 00c1 18       		.byte	24
 633 00c2 85       		.byte	-123
 634 00c3 01       		.byte	1
 635 00c4 86       		.byte	-122
 636 00c5 08       		.byte	8
 637 00c6 C0       		.byte	-64
 638 00c7 B7       		.byte	-73
 639 00c8 C2       		.byte	-62
 640 00c9 9F       		.byte	-97
 641 00ca C4       		.byte	-60
 642 00cb 1F       		.byte	31
 643 00cc CA       		.byte	-54
ARM GAS  C:\Users\Petro\AppData\Local\Temp\ccdrxIsg.s 			page 24


 644 00cd 1F       		.byte	31
 645 00ce CC       		.byte	-52
 646 00cf 0F       		.byte	15
 647 00d0 CE       		.byte	-50
 648 00d1 0F       		.byte	15
 649 00d2 D0       		.byte	-48
 650 00d3 0D       		.byte	13
 651 00d4 D2       		.byte	-46
 652 00d5 0C       		.byte	12
 653 00d6 D6       		.byte	-42
 654 00d7 81       		.byte	-127
 655 00d8 D8       		.byte	-40
 656 00d9 30       		.byte	48
 657 00da 00       		.byte	0
 658 00db 10       		.byte	16
 659 00dc 01       		.byte	1
 660 00dd 80       		.byte	-128
 661 00de 02       		.byte	2
 662 00df AC       		.byte	-84
 663 00e0 03       		.byte	3
 664 00e1 13       		.byte	19
 665 00e2 04       		.byte	4
 666 00e3 14       		.byte	20
 667 00e4 08       		.byte	8
 668 00e5 DC       		.byte	-36
 669 00e6 0A       		.byte	10
 670 00e7 22       		.byte	34
 671 00e8 12       		.byte	18
 672 00e9 03       		.byte	3
 673 00ea 13       		.byte	19
 674 00eb 0C       		.byte	12
 675 00ec 14       		.byte	20
 676 00ed 0C       		.byte	12
 677 00ee 15       		.byte	21
 678 00ef 2C       		.byte	44
 679 00f0 16       		.byte	22
 680 00f1 71       		.byte	113
 681 00f2 17       		.byte	23
 682 00f3 43       		.byte	67
 683 00f4 1E       		.byte	30
 684 00f5 20       		.byte	32
 685 00f6 20       		.byte	32
 686 00f7 09       		.byte	9
 687 00f8 22       		.byte	34
 688 00f9 D0       		.byte	-48
 689 00fa 24       		.byte	36
 690 00fb 10       		.byte	16
 691 00fc 26       		.byte	38
 692 00fd 40       		.byte	64
 693 00fe 27       		.byte	39
 694 00ff 08       		.byte	8
 695 0100 29       		.byte	41
 696 0101 71       		.byte	113
 697 0102 2B       		.byte	43
 698 0103 0E       		.byte	14
 699 0104 2D       		.byte	45
 700 0105 71       		.byte	113
ARM GAS  C:\Users\Petro\AppData\Local\Temp\ccdrxIsg.s 			page 25


 701 0106 2F       		.byte	47
 702 0107 06       		.byte	6
 703 0108 30       		.byte	48
 704 0109 1F       		.byte	31
 705 010a 32       		.byte	50
 706 010b E0       		.byte	-32
 707 010c 33       		.byte	51
 708 010d 30       		.byte	48
 709 010e 35       		.byte	53
 710 010f 0F       		.byte	15
 711 0110 37       		.byte	55
 712 0111 C0       		.byte	-64
 713 0112 39       		.byte	57
 714 0113 88       		.byte	-120
 715 0114 3A       		.byte	58
 716 0115 08       		.byte	8
 717 0116 3B       		.byte	59
 718 0117 20       		.byte	32
 719 0118 3F       		.byte	63
 720 0119 04       		.byte	4
 721 011a 40       		.byte	64
 722 011b 02       		.byte	2
 723 011c 46       		.byte	70
 724 011d 40       		.byte	64
 725 011e 49       		.byte	73
 726 011f FF       		.byte	-1
 727 0120 4A       		.byte	74
 728 0121 07       		.byte	7
 729 0122 4B       		.byte	75
 730 0123 FF       		.byte	-1
 731 0124 4C       		.byte	76
 732 0125 40       		.byte	64
 733 0126 4D       		.byte	77
 734 0127 20       		.byte	32
 735 0128 4E       		.byte	78
 736 0129 F0       		.byte	-16
 737 012a 4F       		.byte	79
 738 012b 05       		.byte	5
 739 012c 50       		.byte	80
 740 012d 08       		.byte	8
 741 012e 58       		.byte	88
 742 012f 04       		.byte	4
 743 0130 59       		.byte	89
 744 0131 04       		.byte	4
 745 0132 5A       		.byte	90
 746 0133 04       		.byte	4
 747 0134 5F       		.byte	95
 748 0135 01       		.byte	1
 749 0136 60       		.byte	96
 750 0137 40       		.byte	64
 751 0138 61       		.byte	97
 752 0139 A8       		.byte	-88
 753 013a 62       		.byte	98
 754 013b 40       		.byte	64
 755 013c 63       		.byte	99
 756 013d 20       		.byte	32
 757 013e 80       		.byte	-128
ARM GAS  C:\Users\Petro\AppData\Local\Temp\ccdrxIsg.s 			page 26


 758 013f 03       		.byte	3
 759 0140 81       		.byte	-127
 760 0141 01       		.byte	1
 761 0142 82       		.byte	-126
 762 0143 14       		.byte	20
 763 0144 83       		.byte	-125
 764 0145 0A       		.byte	10
 765 0146 84       		.byte	-124
 766 0147 0A       		.byte	10
 767 0148 85       		.byte	-123
 768 0149 13       		.byte	19
 769 014a 86       		.byte	-122
 770 014b 14       		.byte	20
 771 014c 88       		.byte	-120
 772 014d 20       		.byte	32
 773 014e 89       		.byte	-119
 774 014f 13       		.byte	19
 775 0150 8A       		.byte	-118
 776 0151 C0       		.byte	-64
 777 0152 8C       		.byte	-116
 778 0153 40       		.byte	64
 779 0154 8E       		.byte	-114
 780 0155 20       		.byte	32
 781 0156 90       		.byte	-112
 782 0157 13       		.byte	19
 783 0158 92       		.byte	-110
 784 0159 0C       		.byte	12
 785 015a 94       		.byte	-108
 786 015b 13       		.byte	19
 787 015c 95       		.byte	-107
 788 015d 02       		.byte	2
 789 015e 96       		.byte	-106
 790 015f 04       		.byte	4
 791 0160 97       		.byte	-105
 792 0161 09       		.byte	9
 793 0162 98       		.byte	-104
 794 0163 80       		.byte	-128
 795 0164 9A       		.byte	-102
 796 0165 20       		.byte	32
 797 0166 9D       		.byte	-99
 798 0167 10       		.byte	16
 799 0168 9E       		.byte	-98
 800 0169 08       		.byte	8
 801 016a A2       		.byte	-94
 802 016b 15       		.byte	21
 803 016c A4       		.byte	-92
 804 016d E0       		.byte	-32
 805 016e A7       		.byte	-89
 806 016f 04       		.byte	4
 807 0170 A8       		.byte	-88
 808 0171 E0       		.byte	-32
 809 0172 B0       		.byte	-80
 810 0173 0F       		.byte	15
 811 0174 B1       		.byte	-79
 812 0175 10       		.byte	16
 813 0176 B3       		.byte	-77
 814 0177 03       		.byte	3
ARM GAS  C:\Users\Petro\AppData\Local\Temp\ccdrxIsg.s 			page 27


 815 0178 B4       		.byte	-76
 816 0179 E0       		.byte	-32
 817 017a B6       		.byte	-74
 818 017b 10       		.byte	16
 819 017c B7       		.byte	-73
 820 017d 0C       		.byte	12
 821 017e BA       		.byte	-70
 822 017f 02       		.byte	2
 823 0180 BE       		.byte	-66
 824 0181 40       		.byte	64
 825 0182 BF       		.byte	-65
 826 0183 40       		.byte	64
 827 0184 C0       		.byte	-64
 828 0185 41       		.byte	65
 829 0186 C1       		.byte	-63
 830 0187 03       		.byte	3
 831 0188 C5       		.byte	-59
 832 0189 EB       		.byte	-21
 833 018a C6       		.byte	-58
 834 018b 0C       		.byte	12
 835 018c C8       		.byte	-56
 836 018d 07       		.byte	7
 837 018e C9       		.byte	-55
 838 018f FF       		.byte	-1
 839 0190 CA       		.byte	-54
 840 0191 FF       		.byte	-1
 841 0192 CB       		.byte	-53
 842 0193 FF       		.byte	-1
 843 0194 CE       		.byte	-50
 844 0195 F0       		.byte	-16
 845 0196 CF       		.byte	-49
 846 0197 44       		.byte	68
 847 0198 D0       		.byte	-48
 848 0199 0C       		.byte	12
 849 019a D4       		.byte	-44
 850 019b 01       		.byte	1
 851 019c D8       		.byte	-40
 852 019d 04       		.byte	4
 853 019e D9       		.byte	-39
 854 019f 04       		.byte	4
 855 01a0 DA       		.byte	-38
 856 01a1 04       		.byte	4
 857 01a2 DB       		.byte	-37
 858 01a3 04       		.byte	4
 859 01a4 DF       		.byte	-33
 860 01a5 01       		.byte	1
 861 01a6 E6       		.byte	-26
 862 01a7 C0       		.byte	-64
 863 01a8 EA       		.byte	-22
 864 01a9 40       		.byte	64
 865 01aa EB       		.byte	-21
 866 01ab 02       		.byte	2
 867 01ac 00       		.byte	0
 868 01ad 04       		.byte	4
 869 01ae 01       		.byte	1
 870 01af 20       		.byte	32
 871 01b0 02       		.byte	2
ARM GAS  C:\Users\Petro\AppData\Local\Temp\ccdrxIsg.s 			page 28


 872 01b1 01       		.byte	1
 873 01b2 03       		.byte	3
 874 01b3 80       		.byte	-128
 875 01b4 05       		.byte	5
 876 01b5 05       		.byte	5
 877 01b6 07       		.byte	7
 878 01b7 08       		.byte	8
 879 01b8 09       		.byte	9
 880 01b9 48       		.byte	72
 881 01ba 0A       		.byte	10
 882 01bb 48       		.byte	72
 883 01bc 0D       		.byte	13
 884 01bd 0A       		.byte	10
 885 01be 0F       		.byte	15
 886 01bf 02       		.byte	2
 887 01c0 11       		.byte	17
 888 01c1 14       		.byte	20
 889 01c2 12       		.byte	18
 890 01c3 80       		.byte	-128
 891 01c4 16       		.byte	22
 892 01c5 10       		.byte	16
 893 01c6 17       		.byte	23
 894 01c7 01       		.byte	1
 895 01c8 19       		.byte	25
 896 01c9 A1       		.byte	-95
 897 01ca 1A       		.byte	26
 898 01cb 40       		.byte	64
 899 01cc 1B       		.byte	27
 900 01cd 12       		.byte	18
 901 01ce 1C       		.byte	28
 902 01cf 40       		.byte	64
 903 01d0 1D       		.byte	29
 904 01d1 0A       		.byte	10
 905 01d2 1F       		.byte	31
 906 01d3 08       		.byte	8
 907 01d4 20       		.byte	32
 908 01d5 01       		.byte	1
 909 01d6 22       		.byte	34
 910 01d7 06       		.byte	6
 911 01d8 24       		.byte	36
 912 01d9 04       		.byte	4
 913 01da 25       		.byte	37
 914 01db 40       		.byte	64
 915 01dc 27       		.byte	39
 916 01dd 29       		.byte	41
 917 01de 2B       		.byte	43
 918 01df 10       		.byte	16
 919 01e0 2F       		.byte	47
 920 01e1 2A       		.byte	42
 921 01e2 32       		.byte	50
 922 01e3 44       		.byte	68
 923 01e4 37       		.byte	55
 924 01e5 09       		.byte	9
 925 01e6 39       		.byte	57
 926 01e7 14       		.byte	20
 927 01e8 3A       		.byte	58
 928 01e9 01       		.byte	1
ARM GAS  C:\Users\Petro\AppData\Local\Temp\ccdrxIsg.s 			page 29


 929 01ea 3E       		.byte	62
 930 01eb 01       		.byte	1
 931 01ec 3F       		.byte	63
 932 01ed 02       		.byte	2
 933 01ee 42       		.byte	66
 934 01ef 01       		.byte	1
 935 01f0 43       		.byte	67
 936 01f1 0A       		.byte	10
 937 01f2 47       		.byte	71
 938 01f3 20       		.byte	32
 939 01f4 49       		.byte	73
 940 01f5 06       		.byte	6
 941 01f6 4E       		.byte	78
 942 01f7 80       		.byte	-128
 943 01f8 4F       		.byte	79
 944 01f9 02       		.byte	2
 945 01fa 53       		.byte	83
 946 01fb 80       		.byte	-128
 947 01fc 56       		.byte	86
 948 01fd 10       		.byte	16
 949 01fe 57       		.byte	87
 950 01ff 20       		.byte	32
 951 0200 58       		.byte	88
 952 0201 20       		.byte	32
 953 0202 59       		.byte	89
 954 0203 82       		.byte	-126
 955 0204 5A       		.byte	90
 956 0205 04       		.byte	4
 957 0206 80       		.byte	-128
 958 0207 A0       		.byte	-96
 959 0208 83       		.byte	-125
 960 0209 90       		.byte	-112
 961 020a 91       		.byte	-111
 962 020b 14       		.byte	20
 963 020c 92       		.byte	-110
 964 020d 84       		.byte	-124
 965 020e 94       		.byte	-108
 966 020f 41       		.byte	65
 967 0210 96       		.byte	-106
 968 0211 08       		.byte	8
 969 0212 9A       		.byte	-102
 970 0213 01       		.byte	1
 971 0214 9C       		.byte	-100
 972 0215 80       		.byte	-128
 973 0216 9D       		.byte	-99
 974 0217 02       		.byte	2
 975 0218 A6       		.byte	-90
 976 0219 02       		.byte	2
 977 021a A9       		.byte	-87
 978 021b 80       		.byte	-128
 979 021c AA       		.byte	-86
 980 021d 01       		.byte	1
 981 021e AF       		.byte	-81
 982 021f 80       		.byte	-128
 983 0220 C0       		.byte	-64
 984 0221 7F       		.byte	127
 985 0222 C2       		.byte	-62
ARM GAS  C:\Users\Petro\AppData\Local\Temp\ccdrxIsg.s 			page 30


 986 0223 BF       		.byte	-65
 987 0224 C4       		.byte	-60
 988 0225 3E       		.byte	62
 989 0226 CA       		.byte	-54
 990 0227 72       		.byte	114
 991 0228 CC       		.byte	-52
 992 0229 CA       		.byte	-54
 993 022a CE       		.byte	-50
 994 022b 87       		.byte	-121
 995 022c D0       		.byte	-48
 996 022d 2B       		.byte	43
 997 022e D6       		.byte	-42
 998 022f 0F       		.byte	15
 999 0230 0A       		.byte	10
 1000 0231 40       		.byte	64
 1001 0232 63       		.byte	99
 1002 0233 02       		.byte	2
 1003 0234 C2       		.byte	-62
 1004 0235 10       		.byte	16
 1005 0236 D6       		.byte	-42
 1006 0237 40       		.byte	64
 1007 0238 AA       		.byte	-86
 1008 0239 40       		.byte	64
 1009 023a AF       		.byte	-81
 1010 023b 01       		.byte	1
 1011 023c E8       		.byte	-24
 1012 023d 20       		.byte	32
 1013 023e EE       		.byte	-18
 1014 023f 10       		.byte	16
 1015 0240 10       		.byte	16
 1016 0241 01       		.byte	1
 1017 0242 11       		.byte	17
 1018 0243 01       		.byte	1
 1019              		.type	BS_UDB_0_1_0_CONFIG_VAL.4748, %object
 1020              		.size	BS_UDB_0_1_0_CONFIG_VAL.4748, 128
 1021              	BS_UDB_0_1_0_CONFIG_VAL.4748:
 1022 0244 00       		.byte	0
 1023 0245 10       		.byte	16
 1024 0246 00       		.byte	0
 1025 0247 00       		.byte	0
 1026 0248 73       		.byte	115
 1027 0249 18       		.byte	24
 1028 024a 0C       		.byte	12
 1029 024b 00       		.byte	0
 1030 024c 4F       		.byte	79
 1031 024d 08       		.byte	8
 1032 024e 30       		.byte	48
 1033 024f 00       		.byte	0
 1034 0250 01       		.byte	1
 1035 0251 1C       		.byte	28
 1036 0252 00       		.byte	0
 1037 0253 E2       		.byte	-30
 1038 0254 00       		.byte	0
 1039 0255 00       		.byte	0
 1040 0256 33       		.byte	51
 1041 0257 63       		.byte	99
 1042 0258 7F       		.byte	127
ARM GAS  C:\Users\Petro\AppData\Local\Temp\ccdrxIsg.s 			page 31


 1043 0259 40       		.byte	64
 1044 025a 00       		.byte	0
 1045 025b 00       		.byte	0
 1046 025c 02       		.byte	2
 1047 025d E7       		.byte	-25
 1048 025e 00       		.byte	0
 1049 025f 18       		.byte	24
 1050 0260 03       		.byte	3
 1051 0261 00       		.byte	0
 1052 0262 00       		.byte	0
 1053 0263 04       		.byte	4
 1054 0264 08       		.byte	8
 1055 0265 60       		.byte	96
 1056 0266 00       		.byte	0
 1057 0267 00       		.byte	0
 1058 0268 04       		.byte	4
 1059 0269 1C       		.byte	28
 1060 026a 00       		.byte	0
 1061 026b E1       		.byte	-31
 1062 026c 0C       		.byte	12
 1063 026d FF       		.byte	-1
 1064 026e 00       		.byte	0
 1065 026f 00       		.byte	0
 1066 0270 5C       		.byte	92
 1067 0271 24       		.byte	36
 1068 0272 23       		.byte	35
 1069 0273 00       		.byte	0
 1070 0274 40       		.byte	64
 1071 0275 1F       		.byte	31
 1072 0276 2C       		.byte	44
 1073 0277 60       		.byte	96
 1074 0278 0F       		.byte	15
 1075 0279 00       		.byte	0
 1076 027a 1C       		.byte	28
 1077 027b 80       		.byte	-128
 1078 027c 00       		.byte	0
 1079 027d 80       		.byte	-128
 1080 027e 28       		.byte	40
 1081 027f 22       		.byte	34
 1082 0280 00       		.byte	0
 1083 0281 00       		.byte	0
 1084 0282 01       		.byte	1
 1085 0283 00       		.byte	0
 1086 0284 25       		.byte	37
 1087 0285 06       		.byte	6
 1088 0286 04       		.byte	4
 1089 0287 00       		.byte	0
 1090 0288 01       		.byte	1
 1091 0289 0C       		.byte	12
 1092 028a 00       		.byte	0
 1093 028b E0       		.byte	-32
 1094 028c 21       		.byte	33
 1095 028d FF       		.byte	-1
 1096 028e FF       		.byte	-1
 1097 028f FF       		.byte	-1
 1098 0290 62       		.byte	98
 1099 0291 A0       		.byte	-96
ARM GAS  C:\Users\Petro\AppData\Local\Temp\ccdrxIsg.s 			page 32


 1100 0292 F0       		.byte	-16
 1101 0293 41       		.byte	65
 1102 0294 0C       		.byte	12
 1103 0295 00       		.byte	0
 1104 0296 00       		.byte	0
 1105 0297 00       		.byte	0
 1106 0298 00       		.byte	0
 1107 0299 00       		.byte	0
 1108 029a 02       		.byte	2
 1109 029b 13       		.byte	19
 1110 029c 04       		.byte	4
 1111 029d 04       		.byte	4
 1112 029e 04       		.byte	4
 1113 029f 04       		.byte	4
 1114 02a0 00       		.byte	0
 1115 02a1 00       		.byte	0
 1116 02a2 00       		.byte	0
 1117 02a3 01       		.byte	1
 1118 02a4 00       		.byte	0
 1119 02a5 00       		.byte	0
 1120 02a6 00       		.byte	0
 1121 02a7 00       		.byte	0
 1122 02a8 00       		.byte	0
 1123 02a9 00       		.byte	0
 1124 02aa 40       		.byte	64
 1125 02ab 02       		.byte	2
 1126 02ac 00       		.byte	0
 1127 02ad 10       		.byte	16
 1128 02ae 30       		.byte	48
 1129 02af 10       		.byte	16
 1130 02b0 00       		.byte	0
 1131 02b1 10       		.byte	16
 1132 02b2 10       		.byte	16
 1133 02b3 12       		.byte	18
 1134 02b4 00       		.byte	0
 1135 02b5 00       		.byte	0
 1136 02b6 00       		.byte	0
 1137 02b7 00       		.byte	0
 1138 02b8 00       		.byte	0
 1139 02b9 00       		.byte	0
 1140 02ba 00       		.byte	0
 1141 02bb 00       		.byte	0
 1142 02bc 00       		.byte	0
 1143 02bd 00       		.byte	0
 1144 02be 00       		.byte	0
 1145 02bf 00       		.byte	0
 1146 02c0 00       		.byte	0
 1147 02c1 00       		.byte	0
 1148 02c2 00       		.byte	0
 1149 02c3 00       		.byte	0
 1150              		.text
 1151              	.Letext0:
 1152              		.file 2 "c:\\program files (x86)\\cypress\\psoc creator\\3.3\\psoc creator\\import\\gnu\\arm\\4.9.
 1153              		.file 3 ".\\Generated_Source\\PSoC4\\cytypes.h"
 1154              		.file 4 ".\\Generated_Source\\PSoC4\\CyLib.h"