ARM GAS  C:\Users\Petro\AppData\Local\Temp\ccWf2gHi.s 			page 1


   1              		.syntax unified
   2              		.cpu cortex-m0
   3              		.fpu softvfp
   4              		.eabi_attribute 20, 1
   5              		.eabi_attribute 21, 1
   6              		.eabi_attribute 23, 3
   7              		.eabi_attribute 24, 1
   8              		.eabi_attribute 25, 1
   9              		.eabi_attribute 26, 1
  10              		.eabi_attribute 30, 6
  11              		.eabi_attribute 34, 0
  12              		.eabi_attribute 18, 4
  13              		.thumb
  14              		.syntax unified
  15              		.file	"display.c"
  16              		.text
  17              	.Ltext0:
  18              		.cfi_sections	.debug_frame
  19              		.section	.text.RTC_GetSecond,"ax",%progbits
  20              		.align	2
  21              		.code	16
  22              		.thumb_func
  23              		.type	RTC_GetSecond, %function
  24              	RTC_GetSecond:
  25              	.LFB5:
  26              		.file 1 "Generated_Source\\PSoC4/RTC.h"
   1:Generated_Source\PSoC4/RTC.h **** /***************************************************************************//**
   2:Generated_Source\PSoC4/RTC.h **** * \file Name: RTC.h
   3:Generated_Source\PSoC4/RTC.h **** * \version 1.10
   4:Generated_Source\PSoC4/RTC.h **** *
   5:Generated_Source\PSoC4/RTC.h **** * \brief
   6:Generated_Source\PSoC4/RTC.h **** *  This file provides constants and parameter values for the RTC_P4 Component.
   7:Generated_Source\PSoC4/RTC.h **** *
   8:Generated_Source\PSoC4/RTC.h **** ********************************************************************************
   9:Generated_Source\PSoC4/RTC.h **** * Copyright 2015-2016, Cypress Semiconductor Corporation.  All rights reserved.
  10:Generated_Source\PSoC4/RTC.h **** * You may use this file only in accordance with the license, terms, conditions,
  11:Generated_Source\PSoC4/RTC.h **** * disclaimers, and limitations in the end user license agreement accompanying
  12:Generated_Source\PSoC4/RTC.h **** * the software package with which this file was provided.
  13:Generated_Source\PSoC4/RTC.h **** *******************************************************************************/
  14:Generated_Source\PSoC4/RTC.h **** 
  15:Generated_Source\PSoC4/RTC.h **** #if !defined(CY_RTC_P4_RTC_H)
  16:Generated_Source\PSoC4/RTC.h **** #define CY_RTC_P4_RTC_H
  17:Generated_Source\PSoC4/RTC.h **** 
  18:Generated_Source\PSoC4/RTC.h **** #include <cytypes.h>
  19:Generated_Source\PSoC4/RTC.h **** #include <CyLib.h>
  20:Generated_Source\PSoC4/RTC.h **** 
  21:Generated_Source\PSoC4/RTC.h **** 
  22:Generated_Source\PSoC4/RTC.h **** /*******************************************************************************
  23:Generated_Source\PSoC4/RTC.h **** *    Data types definition
  24:Generated_Source\PSoC4/RTC.h **** *******************************************************************************/
  25:Generated_Source\PSoC4/RTC.h **** 
  26:Generated_Source\PSoC4/RTC.h **** typedef enum
  27:Generated_Source\PSoC4/RTC.h **** {
  28:Generated_Source\PSoC4/RTC.h ****     RTC_DST_DATE_RELATIVE = 0u,
  29:Generated_Source\PSoC4/RTC.h ****     RTC_DST_DATE_FIXED = 1u
  30:Generated_Source\PSoC4/RTC.h **** }RTC_DST_DATETYPE_ENUM;
  31:Generated_Source\PSoC4/RTC.h **** 
ARM GAS  C:\Users\Petro\AppData\Local\Temp\ccWf2gHi.s 			page 2


  32:Generated_Source\PSoC4/RTC.h **** /**
  33:Generated_Source\PSoC4/RTC.h **** * \addtogroup group_structures
  34:Generated_Source\PSoC4/RTC.h **** * @{
  35:Generated_Source\PSoC4/RTC.h **** */
  36:Generated_Source\PSoC4/RTC.h **** 
  37:Generated_Source\PSoC4/RTC.h **** /**
  38:Generated_Source\PSoC4/RTC.h **** * This is the data structure that is used to save the current time and date 
  39:Generated_Source\PSoC4/RTC.h **** * (RTC_currentTimeDate), and Alarm time and date (RTC_alarmCfgTimeDate).
  40:Generated_Source\PSoC4/RTC.h **** */
  41:Generated_Source\PSoC4/RTC.h **** typedef struct
  42:Generated_Source\PSoC4/RTC.h **** {
  43:Generated_Source\PSoC4/RTC.h ****     uint32 time;
  44:Generated_Source\PSoC4/RTC.h ****     uint32 date;
  45:Generated_Source\PSoC4/RTC.h ****     uint32 dayOfWeek;
  46:Generated_Source\PSoC4/RTC.h ****     uint32 status;
  47:Generated_Source\PSoC4/RTC.h **** }RTC_DATE_TIME;
  48:Generated_Source\PSoC4/RTC.h **** 
  49:Generated_Source\PSoC4/RTC.h **** /**
  50:Generated_Source\PSoC4/RTC.h **** * This is the data structure that is used to save time and date values for 
  51:Generated_Source\PSoC4/RTC.h **** * Daylight Savings Time Start and Stop (RTC_dstTimeDateStart and 
  52:Generated_Source\PSoC4/RTC.h **** * RTC_dstTimeDateStop).
  53:Generated_Source\PSoC4/RTC.h **** */
  54:Generated_Source\PSoC4/RTC.h **** typedef struct
  55:Generated_Source\PSoC4/RTC.h **** {
  56:Generated_Source\PSoC4/RTC.h ****     uint32 hour;
  57:Generated_Source\PSoC4/RTC.h ****     uint32 dayOfWeek;
  58:Generated_Source\PSoC4/RTC.h ****     uint32 dayOfMonth;
  59:Generated_Source\PSoC4/RTC.h ****     uint32 weekOfMonth;
  60:Generated_Source\PSoC4/RTC.h ****     uint32 month;
  61:Generated_Source\PSoC4/RTC.h ****     uint8  timeFormat;
  62:Generated_Source\PSoC4/RTC.h **** }RTC_DST_TIME;
  63:Generated_Source\PSoC4/RTC.h **** 
  64:Generated_Source\PSoC4/RTC.h **** /** @} structures */
  65:Generated_Source\PSoC4/RTC.h **** 
  66:Generated_Source\PSoC4/RTC.h **** /*******************************************************************************
  67:Generated_Source\PSoC4/RTC.h **** *    Enumerated Types and Parameters
  68:Generated_Source\PSoC4/RTC.h **** *******************************************************************************/
  69:Generated_Source\PSoC4/RTC.h **** /* Time Format setting constants */
  70:Generated_Source\PSoC4/RTC.h **** #define RTC__HOUR_12 1
  71:Generated_Source\PSoC4/RTC.h **** #define RTC__HOUR_24 0
  72:Generated_Source\PSoC4/RTC.h **** 
  73:Generated_Source\PSoC4/RTC.h **** /*  Date Format setting constants */
  74:Generated_Source\PSoC4/RTC.h **** #define RTC__MM_DD_YYYY 0
  75:Generated_Source\PSoC4/RTC.h **** #define RTC__DD_MM_YYYY 1
  76:Generated_Source\PSoC4/RTC.h **** #define RTC__YYYY_MM_DD 2
  77:Generated_Source\PSoC4/RTC.h **** 
  78:Generated_Source\PSoC4/RTC.h **** /* Date Type setting constants */
  79:Generated_Source\PSoC4/RTC.h **** #define RTC__RELATIVE 0
  80:Generated_Source\PSoC4/RTC.h **** #define RTC__FIXED 1
  81:Generated_Source\PSoC4/RTC.h **** 
  82:Generated_Source\PSoC4/RTC.h **** /* DST Hour setting constants */
  83:Generated_Source\PSoC4/RTC.h **** #define RTC__H0000 0
  84:Generated_Source\PSoC4/RTC.h **** #define RTC__H0100 1
  85:Generated_Source\PSoC4/RTC.h **** #define RTC__H0200 2
  86:Generated_Source\PSoC4/RTC.h **** #define RTC__H0300 3
  87:Generated_Source\PSoC4/RTC.h **** #define RTC__H0400 4
  88:Generated_Source\PSoC4/RTC.h **** #define RTC__H0500 5
ARM GAS  C:\Users\Petro\AppData\Local\Temp\ccWf2gHi.s 			page 3


  89:Generated_Source\PSoC4/RTC.h **** #define RTC__H0600 6
  90:Generated_Source\PSoC4/RTC.h **** #define RTC__H0700 7
  91:Generated_Source\PSoC4/RTC.h **** #define RTC__H0800 8
  92:Generated_Source\PSoC4/RTC.h **** #define RTC__H0900 9
  93:Generated_Source\PSoC4/RTC.h **** #define RTC__H1000 10
  94:Generated_Source\PSoC4/RTC.h **** #define RTC__H1100 11
  95:Generated_Source\PSoC4/RTC.h **** #define RTC__H1200 12
  96:Generated_Source\PSoC4/RTC.h **** #define RTC__H1300 13
  97:Generated_Source\PSoC4/RTC.h **** #define RTC__H1400 14
  98:Generated_Source\PSoC4/RTC.h **** #define RTC__H1500 15
  99:Generated_Source\PSoC4/RTC.h **** #define RTC__H1600 16
 100:Generated_Source\PSoC4/RTC.h **** #define RTC__H1700 17
 101:Generated_Source\PSoC4/RTC.h **** #define RTC__H1800 18
 102:Generated_Source\PSoC4/RTC.h **** #define RTC__H1900 19
 103:Generated_Source\PSoC4/RTC.h **** #define RTC__H2000 20
 104:Generated_Source\PSoC4/RTC.h **** #define RTC__H2100 21
 105:Generated_Source\PSoC4/RTC.h **** #define RTC__H2200 22
 106:Generated_Source\PSoC4/RTC.h **** #define RTC__H2300 23
 107:Generated_Source\PSoC4/RTC.h **** 
 108:Generated_Source\PSoC4/RTC.h **** /* DST DayOfWeek setting constants */
 109:Generated_Source\PSoC4/RTC.h **** #define RTC__SUNDAY 1
 110:Generated_Source\PSoC4/RTC.h **** #define RTC__MONDAY 2
 111:Generated_Source\PSoC4/RTC.h **** #define RTC__TUESDAY 3
 112:Generated_Source\PSoC4/RTC.h **** #define RTC__WEDNESDAY 4
 113:Generated_Source\PSoC4/RTC.h **** #define RTC__THURSDAY 5
 114:Generated_Source\PSoC4/RTC.h **** #define RTC__FRIDAY 6
 115:Generated_Source\PSoC4/RTC.h **** #define RTC__SATURDAY 7
 116:Generated_Source\PSoC4/RTC.h **** 
 117:Generated_Source\PSoC4/RTC.h **** /* DST Month setting constants */
 118:Generated_Source\PSoC4/RTC.h **** #define RTC__JAN 1
 119:Generated_Source\PSoC4/RTC.h **** #define RTC__FEB 2
 120:Generated_Source\PSoC4/RTC.h **** #define RTC__MAR 3
 121:Generated_Source\PSoC4/RTC.h **** #define RTC__APR 4
 122:Generated_Source\PSoC4/RTC.h **** #define RTC__MAY 5
 123:Generated_Source\PSoC4/RTC.h **** #define RTC__JUN 6
 124:Generated_Source\PSoC4/RTC.h **** #define RTC__JUL 7
 125:Generated_Source\PSoC4/RTC.h **** #define RTC__AUG 8
 126:Generated_Source\PSoC4/RTC.h **** #define RTC__SEP 9
 127:Generated_Source\PSoC4/RTC.h **** #define RTC__OCT 10
 128:Generated_Source\PSoC4/RTC.h **** #define RTC__NOV 11
 129:Generated_Source\PSoC4/RTC.h **** #define RTC__DEC 12
 130:Generated_Source\PSoC4/RTC.h **** 
 131:Generated_Source\PSoC4/RTC.h **** /* DST WeekOfMonth setting constants */
 132:Generated_Source\PSoC4/RTC.h **** #define RTC__FIRST 1
 133:Generated_Source\PSoC4/RTC.h **** #define RTC__SECOND 2
 134:Generated_Source\PSoC4/RTC.h **** #define RTC__THIRD 3
 135:Generated_Source\PSoC4/RTC.h **** #define RTC__FOURTH 4
 136:Generated_Source\PSoC4/RTC.h **** #define RTC__FIFTH 5
 137:Generated_Source\PSoC4/RTC.h **** #define RTC__LAST 6
 138:Generated_Source\PSoC4/RTC.h **** 
 139:Generated_Source\PSoC4/RTC.h **** 
 140:Generated_Source\PSoC4/RTC.h **** #define RTC_INITIAL_DATA_FORMAT     (0u)
 141:Generated_Source\PSoC4/RTC.h **** #define RTC_INITIAL_TIME_FORMAT     (0u)
 142:Generated_Source\PSoC4/RTC.h **** #define RTC_INITIAL_UPDATE_MODE     (0u)
 143:Generated_Source\PSoC4/RTC.h **** #define RTC_INITIAL_SECOND          (27u)
 144:Generated_Source\PSoC4/RTC.h **** #define RTC_INITIAL_MINUTE          (23u)
 145:Generated_Source\PSoC4/RTC.h **** #define RTC_INITIAL_HOUR            (23u)
ARM GAS  C:\Users\Petro\AppData\Local\Temp\ccWf2gHi.s 			page 4


 146:Generated_Source\PSoC4/RTC.h **** #define RTC_INITIAL_DAY             (1u)
 147:Generated_Source\PSoC4/RTC.h **** #define RTC_INITIAL_MONTH           (9u)
 148:Generated_Source\PSoC4/RTC.h **** #define RTC_INITIAL_YEAR            (2016u)
 149:Generated_Source\PSoC4/RTC.h **** 
 150:Generated_Source\PSoC4/RTC.h **** #define RTC_INITIAL_ALARM_STATUS    (0u)
 151:Generated_Source\PSoC4/RTC.h **** 
 152:Generated_Source\PSoC4/RTC.h **** #define RTC_INITIAL_DST_STATUS      (0u)
 153:Generated_Source\PSoC4/RTC.h **** #define RTC_INITIAL_DST_DATE_TYPE   (0u)
 154:Generated_Source\PSoC4/RTC.h **** #define RTC_INITIAL_DST_START_MONTH (3uL)
 155:Generated_Source\PSoC4/RTC.h **** #define RTC_INITIAL_DST_START_WOM   (6uL)
 156:Generated_Source\PSoC4/RTC.h **** #define RTC_INITIAL_DST_START_DOM   (22uL)
 157:Generated_Source\PSoC4/RTC.h **** #define RTC_INITIAL_DST_START_DOW   (1uL)
 158:Generated_Source\PSoC4/RTC.h **** #define RTC_INITIAL_DST_START_HRS   (0uL)
 159:Generated_Source\PSoC4/RTC.h **** #define RTC_INITIAL_DST_STOP_MONTH  (10uL)
 160:Generated_Source\PSoC4/RTC.h **** #define RTC_INITIAL_DST_STOP_DOM    (22uL)
 161:Generated_Source\PSoC4/RTC.h **** #define RTC_INITIAL_DST_STOP_DOW    (1uL)
 162:Generated_Source\PSoC4/RTC.h **** #define RTC_INITIAL_DST_STOP_WOM    (6uL)
 163:Generated_Source\PSoC4/RTC.h **** #define RTC_INITIAL_DST_STOP_HRS    (0uL)
 164:Generated_Source\PSoC4/RTC.h **** 
 165:Generated_Source\PSoC4/RTC.h **** /* Day of week definitions */
 166:Generated_Source\PSoC4/RTC.h **** #define RTC_SUNDAY     (RTC__SUNDAY)
 167:Generated_Source\PSoC4/RTC.h **** #define RTC_MONDAY     (RTC__MONDAY)
 168:Generated_Source\PSoC4/RTC.h **** #define RTC_TUESDAY    (RTC__TUESDAY)
 169:Generated_Source\PSoC4/RTC.h **** #define RTC_WEDNESDAY  (RTC__WEDNESDAY)
 170:Generated_Source\PSoC4/RTC.h **** #define RTC_THURSDAY   (RTC__THURSDAY)
 171:Generated_Source\PSoC4/RTC.h **** #define RTC_FRIDAY     (RTC__FRIDAY)
 172:Generated_Source\PSoC4/RTC.h **** #define RTC_SATURDAY   (RTC__SATURDAY)
 173:Generated_Source\PSoC4/RTC.h **** 
 174:Generated_Source\PSoC4/RTC.h **** /* DST WeekOfMonth setting constants definitions */
 175:Generated_Source\PSoC4/RTC.h **** #define RTC_FIRST      (RTC__FIRST)
 176:Generated_Source\PSoC4/RTC.h **** #define RTC_SECOND     (RTC__SECOND)
 177:Generated_Source\PSoC4/RTC.h **** #define RTC_THIRD      (RTC__THIRD)
 178:Generated_Source\PSoC4/RTC.h **** #define RTC_FOURTH     (RTC__FOURTH)
 179:Generated_Source\PSoC4/RTC.h **** #define RTC_FIFTH      (RTC__FIFTH)
 180:Generated_Source\PSoC4/RTC.h **** #define RTC_LAST       (RTC__LAST)
 181:Generated_Source\PSoC4/RTC.h **** 
 182:Generated_Source\PSoC4/RTC.h **** /* Month definitions */
 183:Generated_Source\PSoC4/RTC.h **** #define RTC_JANUARY    (RTC__JAN)
 184:Generated_Source\PSoC4/RTC.h **** #define RTC_FEBRUARY   (RTC__FEB)
 185:Generated_Source\PSoC4/RTC.h **** #define RTC_MARCH      (RTC__MAR)
 186:Generated_Source\PSoC4/RTC.h **** #define RTC_APRIL      (RTC__APR)
 187:Generated_Source\PSoC4/RTC.h **** #define RTC_MAY        (RTC__MAY)
 188:Generated_Source\PSoC4/RTC.h **** #define RTC_JUNE       (RTC__JUN)
 189:Generated_Source\PSoC4/RTC.h **** #define RTC_JULY       (RTC__JUL)
 190:Generated_Source\PSoC4/RTC.h **** #define RTC_AUGUST     (RTC__AUG)
 191:Generated_Source\PSoC4/RTC.h **** #define RTC_SEPTEMBER  (RTC__SEP)
 192:Generated_Source\PSoC4/RTC.h **** #define RTC_OCTOBER    (RTC__OCT)
 193:Generated_Source\PSoC4/RTC.h **** #define RTC_NOVEMBER   (RTC__NOV)
 194:Generated_Source\PSoC4/RTC.h **** #define RTC_DECEMBER   (RTC__DEC)
 195:Generated_Source\PSoC4/RTC.h **** 
 196:Generated_Source\PSoC4/RTC.h **** #define RTC_DAYS_PER_WEEK       (7u)
 197:Generated_Source\PSoC4/RTC.h **** 
 198:Generated_Source\PSoC4/RTC.h **** /* Number of days in month definitions */
 199:Generated_Source\PSoC4/RTC.h **** #define RTC_DAYS_IN_JANUARY     (31u)
 200:Generated_Source\PSoC4/RTC.h **** #define RTC_DAYS_IN_FEBRUARY    (28u)
 201:Generated_Source\PSoC4/RTC.h **** #define RTC_DAYS_IN_MARCH       (31u)
 202:Generated_Source\PSoC4/RTC.h **** #define RTC_DAYS_IN_APRIL       (30u)
ARM GAS  C:\Users\Petro\AppData\Local\Temp\ccWf2gHi.s 			page 5


 203:Generated_Source\PSoC4/RTC.h **** #define RTC_DAYS_IN_MAY         (31u)
 204:Generated_Source\PSoC4/RTC.h **** #define RTC_DAYS_IN_JUNE        (30u)
 205:Generated_Source\PSoC4/RTC.h **** #define RTC_DAYS_IN_JULY        (31u)
 206:Generated_Source\PSoC4/RTC.h **** #define RTC_DAYS_IN_AUGUST      (31u)
 207:Generated_Source\PSoC4/RTC.h **** #define RTC_DAYS_IN_SEPTEMBER   (30u)
 208:Generated_Source\PSoC4/RTC.h **** #define RTC_DAYS_IN_OCTOBER     (31u)
 209:Generated_Source\PSoC4/RTC.h **** #define RTC_DAYS_IN_NOVEMBER    (30u)
 210:Generated_Source\PSoC4/RTC.h **** #define RTC_DAYS_IN_DECEMBER    (31u)
 211:Generated_Source\PSoC4/RTC.h **** 
 212:Generated_Source\PSoC4/RTC.h **** #define RTC_MONTHS_PER_YEAR     (12uL)
 213:Generated_Source\PSoC4/RTC.h **** 
 214:Generated_Source\PSoC4/RTC.h **** #define RTC_HOURS_PER_DAY       (24uL)
 215:Generated_Source\PSoC4/RTC.h **** #define RTC_HOURS_PER_HALF_DAY  (12uL)
 216:Generated_Source\PSoC4/RTC.h **** 
 217:Generated_Source\PSoC4/RTC.h **** #define RTC_SECONDS_PER_MINUTE  (60uL)
 218:Generated_Source\PSoC4/RTC.h **** #define RTC_SECONDS_PER_HOUR    (3600uL)
 219:Generated_Source\PSoC4/RTC.h **** #define RTC_SECONDS_PER_DAY     (24uL * 3600uL)
 220:Generated_Source\PSoC4/RTC.h **** 
 221:Generated_Source\PSoC4/RTC.h **** #define RTC_SECONDS_PER_LEAP_YEAR    (366uL * 24uL * 3600uL)
 222:Generated_Source\PSoC4/RTC.h **** #define RTC_SECONDS_PER_NONLEAP_YEAR (365uL * 24uL * 3600uL)
 223:Generated_Source\PSoC4/RTC.h **** 
 224:Generated_Source\PSoC4/RTC.h **** #define RTC_UNIX_TIME_PM   ((12uL * 3600uL) + 1uL)
 225:Generated_Source\PSoC4/RTC.h **** 
 226:Generated_Source\PSoC4/RTC.h **** /* AM/PM status definitions */
 227:Generated_Source\PSoC4/RTC.h **** #define RTC_AM                 (0u)
 228:Generated_Source\PSoC4/RTC.h **** #define RTC_PM                 (1u)
 229:Generated_Source\PSoC4/RTC.h **** 
 230:Generated_Source\PSoC4/RTC.h **** /* Time format definitions */
 231:Generated_Source\PSoC4/RTC.h **** #define RTC_12_HOURS_FORMAT    (RTC__HOUR_12)
 232:Generated_Source\PSoC4/RTC.h **** #define RTC_24_HOURS_FORMAT    (RTC__HOUR_24)
 233:Generated_Source\PSoC4/RTC.h **** 
 234:Generated_Source\PSoC4/RTC.h **** /* UNIX time begins in 1970 year.  */
 235:Generated_Source\PSoC4/RTC.h **** #define RTC_YEAR_0             (1970u)
 236:Generated_Source\PSoC4/RTC.h **** 
 237:Generated_Source\PSoC4/RTC.h **** /* Definition of date register fields */
 238:Generated_Source\PSoC4/RTC.h **** #if(RTC_INITIAL_DATA_FORMAT == RTC__MM_DD_YYYY)
 239:Generated_Source\PSoC4/RTC.h ****     #define RTC_10_MONTH_OFFSET   (28u)
 240:Generated_Source\PSoC4/RTC.h ****     #define RTC_MONTH_OFFSET      (24u)
 241:Generated_Source\PSoC4/RTC.h ****     #define RTC_10_DAY_OFFSET     (20u)
 242:Generated_Source\PSoC4/RTC.h ****     #define RTC_DAY_OFFSET        (16u)
 243:Generated_Source\PSoC4/RTC.h ****     #define RTC_1000_YEAR_OFFSET  (12u)
 244:Generated_Source\PSoC4/RTC.h ****     #define RTC_100_YEAR_OFFSET   (8u)
 245:Generated_Source\PSoC4/RTC.h ****     #define RTC_10_YEAR_OFFSET    (4u)
 246:Generated_Source\PSoC4/RTC.h ****     #define RTC_YEAR_OFFSET       (0u)
 247:Generated_Source\PSoC4/RTC.h **** #elif(RTC_INITIAL_DATA_FORMAT == RTC__DD_MM_YYYY)
 248:Generated_Source\PSoC4/RTC.h ****     #define RTC_10_MONTH_OFFSET   (20u)
 249:Generated_Source\PSoC4/RTC.h ****     #define RTC_MONTH_OFFSET      (16u)
 250:Generated_Source\PSoC4/RTC.h ****     #define RTC_10_DAY_OFFSET     (28u)
 251:Generated_Source\PSoC4/RTC.h ****     #define RTC_DAY_OFFSET        (24u)
 252:Generated_Source\PSoC4/RTC.h ****     #define RTC_1000_YEAR_OFFSET  (12u)
 253:Generated_Source\PSoC4/RTC.h ****     #define RTC_100_YEAR_OFFSET   (8u)
 254:Generated_Source\PSoC4/RTC.h ****     #define RTC_10_YEAR_OFFSET    (4u)
 255:Generated_Source\PSoC4/RTC.h ****     #define RTC_YEAR_OFFSET       (0u)
 256:Generated_Source\PSoC4/RTC.h **** #else
 257:Generated_Source\PSoC4/RTC.h ****     #define RTC_10_MONTH_OFFSET   (12u)
 258:Generated_Source\PSoC4/RTC.h ****     #define RTC_MONTH_OFFSET      (8u)
 259:Generated_Source\PSoC4/RTC.h ****     #define RTC_10_DAY_OFFSET     (4u)
ARM GAS  C:\Users\Petro\AppData\Local\Temp\ccWf2gHi.s 			page 6


 260:Generated_Source\PSoC4/RTC.h ****     #define RTC_DAY_OFFSET        (0u)
 261:Generated_Source\PSoC4/RTC.h ****     #define RTC_1000_YEAR_OFFSET  (28u)
 262:Generated_Source\PSoC4/RTC.h ****     #define RTC_100_YEAR_OFFSET   (24u)
 263:Generated_Source\PSoC4/RTC.h ****     #define RTC_10_YEAR_OFFSET    (20u)
 264:Generated_Source\PSoC4/RTC.h ****     #define RTC_YEAR_OFFSET       (16u)
 265:Generated_Source\PSoC4/RTC.h **** #endif /* (RTC_INITIAL_DATA_FORMAT == RTC__MM_DD_YYYY) */
 266:Generated_Source\PSoC4/RTC.h **** 
 267:Generated_Source\PSoC4/RTC.h **** #define RTC_10_MONTH_MASK          (0x00000001uL << RTC_10_MONTH_OFFSET)
 268:Generated_Source\PSoC4/RTC.h **** #define RTC_MONTH_MASK             (0x0000000FuL << RTC_MONTH_OFFSET)
 269:Generated_Source\PSoC4/RTC.h **** #define RTC_10_DAY_MASK            (0x00000003uL << RTC_10_DAY_OFFSET)
 270:Generated_Source\PSoC4/RTC.h **** #define RTC_DAY_MASK               (0x0000000FuL << RTC_DAY_OFFSET)
 271:Generated_Source\PSoC4/RTC.h **** #define RTC_1000_YEAR_MASK         (0x00000003uL << RTC_1000_YEAR_OFFSET)
 272:Generated_Source\PSoC4/RTC.h **** #define RTC_100_YEAR_MASK          (0x0000000FuL << RTC_100_YEAR_OFFSET)
 273:Generated_Source\PSoC4/RTC.h **** #define RTC_10_YEAR_MASK           (0x0000000FuL << RTC_10_YEAR_OFFSET)
 274:Generated_Source\PSoC4/RTC.h **** #define RTC_YEAR_MASK              (0x0000000FuL << RTC_YEAR_OFFSET)
 275:Generated_Source\PSoC4/RTC.h **** 
 276:Generated_Source\PSoC4/RTC.h **** #define  RTC_MONTH_FULL_MASK       (RTC_10_MONTH_MASK  | RTC_MONTH_MASK)
 277:Generated_Source\PSoC4/RTC.h **** #define  RTC_DAY_FULL_MASK         (RTC_10_DAY_MASK    | RTC_DAY_MASK)
 278:Generated_Source\PSoC4/RTC.h **** #define  RTC_YEAR_FULL_MASK        (RTC_1000_YEAR_MASK | RTC_100_YEAR_MASK |\
 279:Generated_Source\PSoC4/RTC.h ****                                                  RTC_10_YEAR_MASK   | RTC_YEAR_MASK)
 280:Generated_Source\PSoC4/RTC.h **** 
 281:Generated_Source\PSoC4/RTC.h **** 
 282:Generated_Source\PSoC4/RTC.h **** /* Definition of time register fields */
 283:Generated_Source\PSoC4/RTC.h **** #define RTC_TIME_FORMAT_OFFSET     (23u)
 284:Generated_Source\PSoC4/RTC.h **** #define RTC_PERIOD_OF_DAY_OFFSET   (22u)
 285:Generated_Source\PSoC4/RTC.h **** #define RTC_10_HOURS_OFFSET        (20u)
 286:Generated_Source\PSoC4/RTC.h **** #define RTC_HOURS_OFFSET           (16u)
 287:Generated_Source\PSoC4/RTC.h **** #define RTC_10_MINUTES_OFFSET      (12u)
 288:Generated_Source\PSoC4/RTC.h **** #define RTC_MINUTES_OFFSET         (8u)
 289:Generated_Source\PSoC4/RTC.h **** #define RTC_10_SECONDS_OFFSET      (4u)
 290:Generated_Source\PSoC4/RTC.h **** #define RTC_SECONDS_OFFSET         (0u)
 291:Generated_Source\PSoC4/RTC.h **** 
 292:Generated_Source\PSoC4/RTC.h **** #define RTC_TIME_FORMAT_MASK       (0x00000001uL << RTC_TIME_FORMAT_OFFSET)
 293:Generated_Source\PSoC4/RTC.h **** #define RTC_PERIOD_OF_DAY_MASK     (0x00000001uL << RTC_PERIOD_OF_DAY_OFFSET)
 294:Generated_Source\PSoC4/RTC.h **** #define RTC_10_HOURS_MASK          (0x00000003uL << RTC_10_HOURS_OFFSET)
 295:Generated_Source\PSoC4/RTC.h **** #define RTC_HOURS_MASK             (0x0000000FuL << RTC_HOURS_OFFSET)
 296:Generated_Source\PSoC4/RTC.h **** #define RTC_10_MINUTES_MASK        (0x00000007uL << RTC_10_MINUTES_OFFSET)
 297:Generated_Source\PSoC4/RTC.h **** #define RTC_MINUTES_MASK           (0x0000000FuL << RTC_MINUTES_OFFSET)
 298:Generated_Source\PSoC4/RTC.h **** #define RTC_10_SECONDS_MASK        (0x00000007uL << RTC_10_SECONDS_OFFSET)
 299:Generated_Source\PSoC4/RTC.h **** #define RTC_SECONDS_MASK           (0x0000000FuL << RTC_SECONDS_OFFSET)
 300:Generated_Source\PSoC4/RTC.h **** 
 301:Generated_Source\PSoC4/RTC.h **** #define RTC_HOURS_FULL_MASK        (RTC_10_HOURS_MASK   | RTC_HOURS_MASK)
 302:Generated_Source\PSoC4/RTC.h **** #define RTC_MINUTES_FULL_MASK      (RTC_10_MINUTES_MASK | RTC_MINUTES_MASK)
 303:Generated_Source\PSoC4/RTC.h **** #define RTC_SECONDS_FULL_MASK      (RTC_10_SECONDS_MASK | RTC_SECONDS_MASK)
 304:Generated_Source\PSoC4/RTC.h **** 
 305:Generated_Source\PSoC4/RTC.h **** #define RTC_ALARM_SEC_MASK         (0x00000001uL)
 306:Generated_Source\PSoC4/RTC.h **** #define RTC_ALARM_MIN_MASK         (0x00000002uL)
 307:Generated_Source\PSoC4/RTC.h **** #define RTC_ALARM_HOUR_MASK        (0x00000004uL)
 308:Generated_Source\PSoC4/RTC.h **** #define RTC_ALARM_DAYOFWEEK_MASK   (0x00000008uL)
 309:Generated_Source\PSoC4/RTC.h **** #define RTC_ALARM_DAYOFMONTH_MASK  (0x00000010uL)
 310:Generated_Source\PSoC4/RTC.h **** #define RTC_ALARM_MONTH_MASK       (0x00000020uL)
 311:Generated_Source\PSoC4/RTC.h **** #define RTC_ALARM_YEAR_MASK        (0x00000040uL)
 312:Generated_Source\PSoC4/RTC.h **** 
 313:Generated_Source\PSoC4/RTC.h **** #define RTC_STATUS_DST_OFFSET      (1u)
 314:Generated_Source\PSoC4/RTC.h **** #define RTC_STATUS_ALARM_OFFSET    (2u)
 315:Generated_Source\PSoC4/RTC.h **** #define RTC_STATUS_LY_OFFSET       (3u)
 316:Generated_Source\PSoC4/RTC.h **** #define RTC_STATUS_AM_PM_OFFSET    (4u)
ARM GAS  C:\Users\Petro\AppData\Local\Temp\ccWf2gHi.s 			page 7


 317:Generated_Source\PSoC4/RTC.h **** 
 318:Generated_Source\PSoC4/RTC.h **** /* Definition of the RTC status values. */
 319:Generated_Source\PSoC4/RTC.h **** #define RTC_STATUS_DST             (1uL << RTC_STATUS_DST_OFFSET)
 320:Generated_Source\PSoC4/RTC.h **** #define RTC_STATUS_LY              (1uL << RTC_STATUS_LY_OFFSET)
 321:Generated_Source\PSoC4/RTC.h **** #define RTC_STATUS_AM_PM           (1uL << RTC_STATUS_AM_PM_OFFSET)
 322:Generated_Source\PSoC4/RTC.h **** 
 323:Generated_Source\PSoC4/RTC.h **** /* Number of bits per one BCD digit. */
 324:Generated_Source\PSoC4/RTC.h **** #define RTC_BCD_NUMBER_SIZE        (4u)
 325:Generated_Source\PSoC4/RTC.h **** #define RTC_BCD_ONE_DIGIT_MASK     (0x0000000FuL)
 326:Generated_Source\PSoC4/RTC.h **** 
 327:Generated_Source\PSoC4/RTC.h **** /*******************************************************************************
 328:Generated_Source\PSoC4/RTC.h **** *    Function Prototypes
 329:Generated_Source\PSoC4/RTC.h **** *******************************************************************************/
 330:Generated_Source\PSoC4/RTC.h **** /**
 331:Generated_Source\PSoC4/RTC.h **** * \addtogroup group_api
 332:Generated_Source\PSoC4/RTC.h **** * @{
 333:Generated_Source\PSoC4/RTC.h **** */
 334:Generated_Source\PSoC4/RTC.h **** void   RTC_Start(void);
 335:Generated_Source\PSoC4/RTC.h **** void   RTC_Stop(void);
 336:Generated_Source\PSoC4/RTC.h **** void   RTC_Init(void);
 337:Generated_Source\PSoC4/RTC.h **** void   RTC_SetUnixTime(uint64 unixTime);
 338:Generated_Source\PSoC4/RTC.h **** uint64 RTC_GetUnixTime(void);
 339:Generated_Source\PSoC4/RTC.h **** void   RTC_SetPeriod(uint32 ticks, uint32 refOneSecTicks);
 340:Generated_Source\PSoC4/RTC.h **** uint32 RTC_GetPeriod(void);
 341:Generated_Source\PSoC4/RTC.h **** uint32 RTC_GetRefOneSec(void);
 342:Generated_Source\PSoC4/RTC.h **** void   RTC_SetDateAndTime(uint32 inputTime, uint32 inputDate);
 343:Generated_Source\PSoC4/RTC.h **** void   RTC_GetDateAndTime(RTC_DATE_TIME* dateTime);
 344:Generated_Source\PSoC4/RTC.h **** uint32 RTC_GetTime(void);
 345:Generated_Source\PSoC4/RTC.h **** uint32 RTC_GetDate(void);
 346:Generated_Source\PSoC4/RTC.h **** void   RTC_SetAlarmDateAndTime(const RTC_DATE_TIME* alarmTime);
 347:Generated_Source\PSoC4/RTC.h **** void   RTC_GetAlarmDateAndTime(RTC_DATE_TIME* alarmTimeDate);
 348:Generated_Source\PSoC4/RTC.h **** void   RTC_SetAlarmMask(uint32 mask);
 349:Generated_Source\PSoC4/RTC.h **** uint32 RTC_GetAlarmMask(void);
 350:Generated_Source\PSoC4/RTC.h **** uint32 RTC_ReadStatus(void);
 351:Generated_Source\PSoC4/RTC.h **** uint32 RTC_GetAlarmStatus(void);
 352:Generated_Source\PSoC4/RTC.h **** void   RTC_ClearAlarmStatus(void);
 353:Generated_Source\PSoC4/RTC.h **** void   RTC_SetDSTStartTime(const RTC_DST_TIME* dstStartTime,
 354:Generated_Source\PSoC4/RTC.h ****                                               RTC_DST_DATETYPE_ENUM type);
 355:Generated_Source\PSoC4/RTC.h **** void   RTC_SetDSTStopTime(const RTC_DST_TIME* dstStopTime,
 356:Generated_Source\PSoC4/RTC.h ****                                              RTC_DST_DATETYPE_ENUM type);
 357:Generated_Source\PSoC4/RTC.h **** uint32 RTC_ConvertBCDToDec(uint32 bcdNum);
 358:Generated_Source\PSoC4/RTC.h **** uint32 RTC_ConvertDecToBCD(uint32 decNum);
 359:Generated_Source\PSoC4/RTC.h **** void   RTC_Update(void);
 360:Generated_Source\PSoC4/RTC.h **** void*  RTC_SetAlarmHandler(void (*CallbackFunction)(void));
 361:Generated_Source\PSoC4/RTC.h **** 
 362:Generated_Source\PSoC4/RTC.h **** static uint32 RTC_ConstructDate(uint32 month, uint32 day, uint32 year);
 363:Generated_Source\PSoC4/RTC.h **** static uint32 RTC_ConstructTime(uint32 timeFormat, uint32 stateAmPm, uint32 hour, uint32 min, uint3
 364:Generated_Source\PSoC4/RTC.h **** /** @} api */
 365:Generated_Source\PSoC4/RTC.h **** 
 366:Generated_Source\PSoC4/RTC.h **** static uint32 RTC_GetTimeFormat(uint32 inputTime);
 367:Generated_Source\PSoC4/RTC.h **** static uint32 RTC_SetTimeFormat(uint32 inputTime, uint32 timeFormat);
 368:Generated_Source\PSoC4/RTC.h **** 
 369:Generated_Source\PSoC4/RTC.h **** /**
 370:Generated_Source\PSoC4/RTC.h **** * \addtogroup group_api
 371:Generated_Source\PSoC4/RTC.h **** * @{
 372:Generated_Source\PSoC4/RTC.h **** */
 373:Generated_Source\PSoC4/RTC.h **** static uint32 RTC_LeapYear(uint32 year);
ARM GAS  C:\Users\Petro\AppData\Local\Temp\ccWf2gHi.s 			page 8


 374:Generated_Source\PSoC4/RTC.h **** static uint32 RTC_IsBitSet(uint32 var, uint32 mask);
 375:Generated_Source\PSoC4/RTC.h **** static uint32 RTC_GetSecond(uint32 inputTime);
 376:Generated_Source\PSoC4/RTC.h **** static uint32 RTC_GetMinutes(uint32 inputTime);
 377:Generated_Source\PSoC4/RTC.h **** static uint32 RTC_GetHours(uint32 inputTime);
 378:Generated_Source\PSoC4/RTC.h **** static uint32 RTC_GetAmPm(uint32 inputTime);
 379:Generated_Source\PSoC4/RTC.h **** static uint32 RTC_GetDay(uint32 date);
 380:Generated_Source\PSoC4/RTC.h **** static uint32 RTC_GetMonth(uint32 date);
 381:Generated_Source\PSoC4/RTC.h **** static uint32 RTC_GetYear(uint32 date);
 382:Generated_Source\PSoC4/RTC.h **** /** @} api */
 383:Generated_Source\PSoC4/RTC.h **** 
 384:Generated_Source\PSoC4/RTC.h **** static uint32 RTC_SetSecond(uint32 inputTime, uint32 inputSecond);
 385:Generated_Source\PSoC4/RTC.h **** static uint32 RTC_SetMinutes(uint32 inputTime, uint32 inputMinute);
 386:Generated_Source\PSoC4/RTC.h **** static uint32 RTC_SetHours(uint32 inputTime, uint32 inputHours);
 387:Generated_Source\PSoC4/RTC.h **** static uint32 RTC_SetAmPm(uint32 inputTime, uint32 periodOfDay);
 388:Generated_Source\PSoC4/RTC.h **** static uint32 RTC_SetDay(uint32 inputDate, uint32 inputDay);
 389:Generated_Source\PSoC4/RTC.h **** static uint32 RTC_SetMonth(uint32 inputDate, uint32 inputMonth);
 390:Generated_Source\PSoC4/RTC.h **** static uint32 RTC_SetYear(uint32 inputDate, uint32 inputYear);
 391:Generated_Source\PSoC4/RTC.h **** 
 392:Generated_Source\PSoC4/RTC.h **** uint64 RTC_ConstructUnixAlarmTime(const RTC_DATE_TIME* alarmTime, uint8 alarmCfgMask);
 393:Generated_Source\PSoC4/RTC.h **** uint64 RTC_GetDstUnixTime(const RTC_DST_TIME* dstTime);
 394:Generated_Source\PSoC4/RTC.h **** uint64 RTC_GetNexAlarmTime(uint64 curUnixTime, uint8 alarmCfgMask);
 395:Generated_Source\PSoC4/RTC.h **** 
 396:Generated_Source\PSoC4/RTC.h **** static uint32 RTC_GetNextMinSec(uint32 curVal);
 397:Generated_Source\PSoC4/RTC.h **** static uint32 RTC_GetNextHour(uint32 curVal);
 398:Generated_Source\PSoC4/RTC.h **** static uint32 RTC_GetNextDay(uint32 curYear, uint32 curMonth, uint32 curDay, uint32 alarmCfgMask);
 399:Generated_Source\PSoC4/RTC.h **** static uint32 RTC_GetNextMonth(uint32 curMonth);
 400:Generated_Source\PSoC4/RTC.h **** static uint32 RTC_GetNextYear(uint32 curYear);
 401:Generated_Source\PSoC4/RTC.h **** static uint32 RTC_GetDayOfWeek(uint32 day, uint32 month, uint32 year);
 402:Generated_Source\PSoC4/RTC.h **** 
 403:Generated_Source\PSoC4/RTC.h **** uint32 RTC_DaysInMonth(uint32 month, uint32 year);
 404:Generated_Source\PSoC4/RTC.h **** uint32 RTC_DaysBeforeMonth(uint32 month, uint32 year);
 405:Generated_Source\PSoC4/RTC.h **** 
 406:Generated_Source\PSoC4/RTC.h **** /**
 407:Generated_Source\PSoC4/RTC.h **** * \addtogroup group_api
 408:Generated_Source\PSoC4/RTC.h **** * @{
 409:Generated_Source\PSoC4/RTC.h **** */
 410:Generated_Source\PSoC4/RTC.h **** void   RTC_UnixToDateTime(RTC_DATE_TIME* dateTime, uint64 unixTime, uint32 timeFormat);
 411:Generated_Source\PSoC4/RTC.h **** uint64 RTC_DateTimeToUnix(uint32 inputDate, uint32 inputTime);
 412:Generated_Source\PSoC4/RTC.h **** /** @} api */
 413:Generated_Source\PSoC4/RTC.h **** 
 414:Generated_Source\PSoC4/RTC.h **** uint32 RTC_RelativeToFixed(uint32 dayOfWeek, uint32 weekOfMonth, uint32 month, uint32 year);
 415:Generated_Source\PSoC4/RTC.h **** 
 416:Generated_Source\PSoC4/RTC.h **** 
 417:Generated_Source\PSoC4/RTC.h **** #if defined(CYDEV_RTC_SOURCE_WDT)
 418:Generated_Source\PSoC4/RTC.h ****     #if((0u != CYDEV_WDT_GENERATE_ISR) && (0u == RTC_INITIAL_UPDATE_MODE))
 419:Generated_Source\PSoC4/RTC.h ****         static void RTC_CySysRtcSetCallback(uint32 wdtNumber);
 420:Generated_Source\PSoC4/RTC.h ****         static void RTC_CySysRtcResetCallback(uint32 wdtNumber);
 421:Generated_Source\PSoC4/RTC.h ****     #endif /* ((0u != CYDEV_WDT_GENERATE_ISR) && (0u == RTC_INITIAL_UPDATE_MODE)) */
 422:Generated_Source\PSoC4/RTC.h **** #endif /* (CYDEV_RTC_SOURCE_WDT) */
 423:Generated_Source\PSoC4/RTC.h **** 
 424:Generated_Source\PSoC4/RTC.h **** /*******************************************************************************
 425:Generated_Source\PSoC4/RTC.h **** * Function Name: RTC_IsBitSet
 426:Generated_Source\PSoC4/RTC.h **** ****************************************************************************//**
 427:Generated_Source\PSoC4/RTC.h **** *
 428:Generated_Source\PSoC4/RTC.h **** * \brief
 429:Generated_Source\PSoC4/RTC.h **** *  Checks the state of a bit passed through parameter.
 430:Generated_Source\PSoC4/RTC.h **** *
ARM GAS  C:\Users\Petro\AppData\Local\Temp\ccWf2gHi.s 			page 9


 431:Generated_Source\PSoC4/RTC.h **** * \param
 432:Generated_Source\PSoC4/RTC.h **** *  var The variable to be checked.
 433:Generated_Source\PSoC4/RTC.h **** * \param
 434:Generated_Source\PSoC4/RTC.h **** *  mask The mask for a bit to be checked.
 435:Generated_Source\PSoC4/RTC.h **** *
 436:Generated_Source\PSoC4/RTC.h **** * \return
 437:Generated_Source\PSoC4/RTC.h **** *  0u - Bit is not set.
 438:Generated_Source\PSoC4/RTC.h **** * \return
 439:Generated_Source\PSoC4/RTC.h **** *  1u - Bit is set.
 440:Generated_Source\PSoC4/RTC.h **** *
 441:Generated_Source\PSoC4/RTC.h **** *******************************************************************************/
 442:Generated_Source\PSoC4/RTC.h **** static CY_INLINE uint32 RTC_IsBitSet(uint32 var, uint32 mask)
 443:Generated_Source\PSoC4/RTC.h **** {
 444:Generated_Source\PSoC4/RTC.h ****     return ((mask == (var & mask)) ? 1Lu : 0Lu);
 445:Generated_Source\PSoC4/RTC.h **** }
 446:Generated_Source\PSoC4/RTC.h **** 
 447:Generated_Source\PSoC4/RTC.h **** 
 448:Generated_Source\PSoC4/RTC.h **** /*******************************************************************************
 449:Generated_Source\PSoC4/RTC.h **** * Function Name: RTC_LeapYear
 450:Generated_Source\PSoC4/RTC.h **** ****************************************************************************//**
 451:Generated_Source\PSoC4/RTC.h **** *
 452:Generated_Source\PSoC4/RTC.h **** * \brief
 453:Generated_Source\PSoC4/RTC.h **** * Checks whether the year passed through the parameter is
 454:Generated_Source\PSoC4/RTC.h **** * leap or no.
 455:Generated_Source\PSoC4/RTC.h **** *
 456:Generated_Source\PSoC4/RTC.h **** * \param
 457:Generated_Source\PSoC4/RTC.h **** *  year The year to be checked.
 458:Generated_Source\PSoC4/RTC.h **** *
 459:Generated_Source\PSoC4/RTC.h **** *
 460:Generated_Source\PSoC4/RTC.h **** * \return
 461:Generated_Source\PSoC4/RTC.h **** *  0u - The year is not leap.
 462:Generated_Source\PSoC4/RTC.h **** * \return
 463:Generated_Source\PSoC4/RTC.h **** *  1u - The year is leap.
 464:Generated_Source\PSoC4/RTC.h **** *
 465:Generated_Source\PSoC4/RTC.h **** *******************************************************************************/
 466:Generated_Source\PSoC4/RTC.h **** static CY_INLINE uint32 RTC_LeapYear(uint32 year)
 467:Generated_Source\PSoC4/RTC.h **** {
 468:Generated_Source\PSoC4/RTC.h ****     uint32 retVal;
 469:Generated_Source\PSoC4/RTC.h **** 
 470:Generated_Source\PSoC4/RTC.h ****     if(((0u == (year % 4Lu)) && (0u != (year % 100Lu))) || (0u == (year % 400Lu)))
 471:Generated_Source\PSoC4/RTC.h ****     {
 472:Generated_Source\PSoC4/RTC.h ****         retVal = 1uL;
 473:Generated_Source\PSoC4/RTC.h ****     }
 474:Generated_Source\PSoC4/RTC.h ****     else
 475:Generated_Source\PSoC4/RTC.h ****     {
 476:Generated_Source\PSoC4/RTC.h ****         retVal = 0uL;
 477:Generated_Source\PSoC4/RTC.h ****     }
 478:Generated_Source\PSoC4/RTC.h **** 
 479:Generated_Source\PSoC4/RTC.h ****     return(retVal);
 480:Generated_Source\PSoC4/RTC.h **** }
 481:Generated_Source\PSoC4/RTC.h **** 
 482:Generated_Source\PSoC4/RTC.h **** 
 483:Generated_Source\PSoC4/RTC.h **** /*******************************************************************************
 484:Generated_Source\PSoC4/RTC.h **** * Function Name: RTC_GetSecond
 485:Generated_Source\PSoC4/RTC.h **** ****************************************************************************//**
 486:Generated_Source\PSoC4/RTC.h **** *
 487:Generated_Source\PSoC4/RTC.h **** * \brief
ARM GAS  C:\Users\Petro\AppData\Local\Temp\ccWf2gHi.s 			page 10


 488:Generated_Source\PSoC4/RTC.h **** *  Returns the seconds value from the time value that is passed as a/the parameter.
 489:Generated_Source\PSoC4/RTC.h **** *
 490:Generated_Source\PSoC4/RTC.h **** * \param
 491:Generated_Source\PSoC4/RTC.h **** *  time The time value.
 492:Generated_Source\PSoC4/RTC.h **** *
 493:Generated_Source\PSoC4/RTC.h **** * \return
 494:Generated_Source\PSoC4/RTC.h **** *  The seconds value.
 495:Generated_Source\PSoC4/RTC.h **** *
 496:Generated_Source\PSoC4/RTC.h **** *******************************************************************************/
 497:Generated_Source\PSoC4/RTC.h **** static CY_INLINE uint32 RTC_GetSecond(uint32 inputTime)
 498:Generated_Source\PSoC4/RTC.h **** {
  27              		.loc 1 498 0
  28              		.cfi_startproc
  29              		@ args = 0, pretend = 0, frame = 16
  30              		@ frame_needed = 1, uses_anonymous_args = 0
  31 0000 80B5     		push	{r7, lr}
  32              		.cfi_def_cfa_offset 8
  33              		.cfi_offset 7, -8
  34              		.cfi_offset 14, -4
  35 0002 84B0     		sub	sp, sp, #16
  36              		.cfi_def_cfa_offset 24
  37 0004 00AF     		add	r7, sp, #0
  38              		.cfi_def_cfa_register 7
  39 0006 7860     		str	r0, [r7, #4]
 499:Generated_Source\PSoC4/RTC.h ****     uint32 retVal;
 500:Generated_Source\PSoC4/RTC.h **** 
 501:Generated_Source\PSoC4/RTC.h ****     retVal  = ((inputTime & RTC_10_SECONDS_MASK) >> RTC_10_SECONDS_OFFSET) * 10u;
  40              		.loc 1 501 0
  41 0008 7B68     		ldr	r3, [r7, #4]
  42 000a 1B09     		lsrs	r3, r3, #4
  43 000c 0722     		movs	r2, #7
  44 000e 1A40     		ands	r2, r3
  45 0010 1300     		movs	r3, r2
  46 0012 9B00     		lsls	r3, r3, #2
  47 0014 9B18     		adds	r3, r3, r2
  48 0016 5B00     		lsls	r3, r3, #1
  49 0018 FB60     		str	r3, [r7, #12]
 502:Generated_Source\PSoC4/RTC.h ****     retVal += (inputTime & RTC_SECONDS_MASK) >> RTC_SECONDS_OFFSET;
  50              		.loc 1 502 0
  51 001a 7B68     		ldr	r3, [r7, #4]
  52 001c 0F22     		movs	r2, #15
  53 001e 1340     		ands	r3, r2
  54 0020 FA68     		ldr	r2, [r7, #12]
  55 0022 D318     		adds	r3, r2, r3
  56 0024 FB60     		str	r3, [r7, #12]
 503:Generated_Source\PSoC4/RTC.h **** 
 504:Generated_Source\PSoC4/RTC.h ****     return (retVal);
  57              		.loc 1 504 0
  58 0026 FB68     		ldr	r3, [r7, #12]
 505:Generated_Source\PSoC4/RTC.h **** }
  59              		.loc 1 505 0
  60 0028 1800     		movs	r0, r3
  61 002a BD46     		mov	sp, r7
  62 002c 04B0     		add	sp, sp, #16
  63              		@ sp needed
  64 002e 80BD     		pop	{r7, pc}
  65              		.cfi_endproc
ARM GAS  C:\Users\Petro\AppData\Local\Temp\ccWf2gHi.s 			page 11


  66              	.LFE5:
  67              		.size	RTC_GetSecond, .-RTC_GetSecond
  68              		.section	.text.RTC_GetMinutes,"ax",%progbits
  69              		.align	2
  70              		.code	16
  71              		.thumb_func
  72              		.type	RTC_GetMinutes, %function
  73              	RTC_GetMinutes:
  74              	.LFB6:
 506:Generated_Source\PSoC4/RTC.h **** 
 507:Generated_Source\PSoC4/RTC.h **** 
 508:Generated_Source\PSoC4/RTC.h **** /*******************************************************************************
 509:Generated_Source\PSoC4/RTC.h **** * Function Name: RTC_GetMinutes
 510:Generated_Source\PSoC4/RTC.h **** ****************************************************************************//**
 511:Generated_Source\PSoC4/RTC.h **** *
 512:Generated_Source\PSoC4/RTC.h **** * \brief
 513:Generated_Source\PSoC4/RTC.h **** *  Returns the minutes value from the time value that is passed as a/the 
 514:Generated_Source\PSoC4/RTC.h **** * parameter.
 515:Generated_Source\PSoC4/RTC.h **** *
 516:Generated_Source\PSoC4/RTC.h **** * \param
 517:Generated_Source\PSoC4/RTC.h **** *  time The time value.
 518:Generated_Source\PSoC4/RTC.h **** *
 519:Generated_Source\PSoC4/RTC.h **** * \return
 520:Generated_Source\PSoC4/RTC.h **** *  The minutes value.
 521:Generated_Source\PSoC4/RTC.h **** *
 522:Generated_Source\PSoC4/RTC.h **** *******************************************************************************/
 523:Generated_Source\PSoC4/RTC.h **** static CY_INLINE uint32 RTC_GetMinutes(uint32 inputTime)
 524:Generated_Source\PSoC4/RTC.h **** {
  75              		.loc 1 524 0
  76              		.cfi_startproc
  77              		@ args = 0, pretend = 0, frame = 16
  78              		@ frame_needed = 1, uses_anonymous_args = 0
  79 0000 80B5     		push	{r7, lr}
  80              		.cfi_def_cfa_offset 8
  81              		.cfi_offset 7, -8
  82              		.cfi_offset 14, -4
  83 0002 84B0     		sub	sp, sp, #16
  84              		.cfi_def_cfa_offset 24
  85 0004 00AF     		add	r7, sp, #0
  86              		.cfi_def_cfa_register 7
  87 0006 7860     		str	r0, [r7, #4]
 525:Generated_Source\PSoC4/RTC.h ****     uint32 retVal;
 526:Generated_Source\PSoC4/RTC.h **** 
 527:Generated_Source\PSoC4/RTC.h ****     retVal  = ((inputTime & RTC_10_MINUTES_MASK) >> RTC_10_MINUTES_OFFSET) * 10u;
  88              		.loc 1 527 0
  89 0008 7B68     		ldr	r3, [r7, #4]
  90 000a 1B0B     		lsrs	r3, r3, #12
  91 000c 0722     		movs	r2, #7
  92 000e 1A40     		ands	r2, r3
  93 0010 1300     		movs	r3, r2
  94 0012 9B00     		lsls	r3, r3, #2
  95 0014 9B18     		adds	r3, r3, r2
  96 0016 5B00     		lsls	r3, r3, #1
  97 0018 FB60     		str	r3, [r7, #12]
 528:Generated_Source\PSoC4/RTC.h ****     retVal += (inputTime & RTC_MINUTES_MASK) >> RTC_MINUTES_OFFSET;
  98              		.loc 1 528 0
  99 001a 7B68     		ldr	r3, [r7, #4]
ARM GAS  C:\Users\Petro\AppData\Local\Temp\ccWf2gHi.s 			page 12


 100 001c 1B0A     		lsrs	r3, r3, #8
 101 001e 0F22     		movs	r2, #15
 102 0020 1340     		ands	r3, r2
 103 0022 FA68     		ldr	r2, [r7, #12]
 104 0024 D318     		adds	r3, r2, r3
 105 0026 FB60     		str	r3, [r7, #12]
 529:Generated_Source\PSoC4/RTC.h **** 
 530:Generated_Source\PSoC4/RTC.h ****     return (retVal);
 106              		.loc 1 530 0
 107 0028 FB68     		ldr	r3, [r7, #12]
 531:Generated_Source\PSoC4/RTC.h **** }
 108              		.loc 1 531 0
 109 002a 1800     		movs	r0, r3
 110 002c BD46     		mov	sp, r7
 111 002e 04B0     		add	sp, sp, #16
 112              		@ sp needed
 113 0030 80BD     		pop	{r7, pc}
 114              		.cfi_endproc
 115              	.LFE6:
 116              		.size	RTC_GetMinutes, .-RTC_GetMinutes
 117 0032 C046     		.section	.text.RTC_GetHours,"ax",%progbits
 118              		.align	2
 119              		.code	16
 120              		.thumb_func
 121              		.type	RTC_GetHours, %function
 122              	RTC_GetHours:
 123              	.LFB7:
 532:Generated_Source\PSoC4/RTC.h **** 
 533:Generated_Source\PSoC4/RTC.h **** 
 534:Generated_Source\PSoC4/RTC.h **** /*******************************************************************************
 535:Generated_Source\PSoC4/RTC.h **** * Function Name: RTC_GetHours
 536:Generated_Source\PSoC4/RTC.h **** ****************************************************************************//**
 537:Generated_Source\PSoC4/RTC.h **** *
 538:Generated_Source\PSoC4/RTC.h **** * \brief
 539:Generated_Source\PSoC4/RTC.h **** *  Returns the hours value from the time value that is passed as a/the parameter.
 540:Generated_Source\PSoC4/RTC.h **** *
 541:Generated_Source\PSoC4/RTC.h **** * \param
 542:Generated_Source\PSoC4/RTC.h **** *  time The time value.
 543:Generated_Source\PSoC4/RTC.h **** *
 544:Generated_Source\PSoC4/RTC.h **** * \return
 545:Generated_Source\PSoC4/RTC.h **** *  The hours value.
 546:Generated_Source\PSoC4/RTC.h **** *
 547:Generated_Source\PSoC4/RTC.h **** *******************************************************************************/
 548:Generated_Source\PSoC4/RTC.h **** static CY_INLINE uint32 RTC_GetHours(uint32 inputTime)
 549:Generated_Source\PSoC4/RTC.h **** {
 124              		.loc 1 549 0
 125              		.cfi_startproc
 126              		@ args = 0, pretend = 0, frame = 16
 127              		@ frame_needed = 1, uses_anonymous_args = 0
 128 0000 80B5     		push	{r7, lr}
 129              		.cfi_def_cfa_offset 8
 130              		.cfi_offset 7, -8
 131              		.cfi_offset 14, -4
 132 0002 84B0     		sub	sp, sp, #16
 133              		.cfi_def_cfa_offset 24
 134 0004 00AF     		add	r7, sp, #0
 135              		.cfi_def_cfa_register 7
ARM GAS  C:\Users\Petro\AppData\Local\Temp\ccWf2gHi.s 			page 13


 136 0006 7860     		str	r0, [r7, #4]
 550:Generated_Source\PSoC4/RTC.h ****     uint32 retVal;
 551:Generated_Source\PSoC4/RTC.h **** 
 552:Generated_Source\PSoC4/RTC.h ****     retVal  = ((inputTime & RTC_10_HOURS_MASK) >> RTC_10_HOURS_OFFSET) * 10u;
 137              		.loc 1 552 0
 138 0008 7B68     		ldr	r3, [r7, #4]
 139 000a 1B0D     		lsrs	r3, r3, #20
 140 000c 0322     		movs	r2, #3
 141 000e 1A40     		ands	r2, r3
 142 0010 1300     		movs	r3, r2
 143 0012 9B00     		lsls	r3, r3, #2
 144 0014 9B18     		adds	r3, r3, r2
 145 0016 5B00     		lsls	r3, r3, #1
 146 0018 FB60     		str	r3, [r7, #12]
 553:Generated_Source\PSoC4/RTC.h ****     retVal += (inputTime & RTC_HOURS_MASK) >> RTC_HOURS_OFFSET;
 147              		.loc 1 553 0
 148 001a 7B68     		ldr	r3, [r7, #4]
 149 001c 1B0C     		lsrs	r3, r3, #16
 150 001e 0F22     		movs	r2, #15
 151 0020 1340     		ands	r3, r2
 152 0022 FA68     		ldr	r2, [r7, #12]
 153 0024 D318     		adds	r3, r2, r3
 154 0026 FB60     		str	r3, [r7, #12]
 554:Generated_Source\PSoC4/RTC.h **** 
 555:Generated_Source\PSoC4/RTC.h ****     return (retVal);
 155              		.loc 1 555 0
 156 0028 FB68     		ldr	r3, [r7, #12]
 556:Generated_Source\PSoC4/RTC.h **** }
 157              		.loc 1 556 0
 158 002a 1800     		movs	r0, r3
 159 002c BD46     		mov	sp, r7
 160 002e 04B0     		add	sp, sp, #16
 161              		@ sp needed
 162 0030 80BD     		pop	{r7, pc}
 163              		.cfi_endproc
 164              	.LFE7:
 165              		.size	RTC_GetHours, .-RTC_GetHours
 166              		.comm	cfont,12,4
 167              		.comm	scrbuf,504,4
 168              		.comm	_sleep,1,1
 169              		.comm	_contrast,4,4
 170 0032 C046     		.bss
 171              		.align	2
 172              	buff:
 173 0000 00000000 		.space	100
 173      00000000 
 173      00000000 
 173      00000000 
 173      00000000 
 174              		.section	.text.DisplayStart,"ax",%progbits
 175              		.align	2
 176              		.global	DisplayStart
 177              		.code	16
 178              		.thumb_func
 179              		.type	DisplayStart, %function
 180              	DisplayStart:
 181              	.LFB64:
ARM GAS  C:\Users\Petro\AppData\Local\Temp\ccWf2gHi.s 			page 14


 182              		.file 2 "..\\..\\common\\lib\\lib_Display\\display.c"
   1:..\..\common\lib\lib_Display/display.c **** 
   2:..\..\common\lib\lib_Display/display.c **** #include <CyLib.h>
   3:..\..\common\lib\lib_Display/display.c **** #include <stdio.h>
   4:..\..\common\lib\lib_Display/display.c **** //#include "lib_RTC\RTC_WDT.h"
   5:..\..\common\lib\lib_Display/display.c **** #include "..\..\common\lib\lib_Display\display.h"
   6:..\..\common\lib\lib_Display/display.c **** #include "..\..\common\lib\nokia5110\LCD5110_Graph.h"
   7:..\..\common\lib\lib_Display/display.c **** #include "project.h"
   8:..\..\common\lib\lib_Display/display.c **** 
   9:..\..\common\lib\lib_Display/display.c **** /*resistive voltage divider 1/10 */
  10:..\..\common\lib\lib_Display/display.c **** #define BATT_0_PERCENT      0.40
  11:..\..\common\lib\lib_Display/display.c **** #define BATT_25_PERCENT     0.42
  12:..\..\common\lib\lib_Display/display.c **** #define BATT_50_PERCENT     0.44
  13:..\..\common\lib\lib_Display/display.c **** #define BATT_75_PERCENT     0.46
  14:..\..\common\lib\lib_Display/display.c **** #define BATT_100_PERCENT    0.48
  15:..\..\common\lib\lib_Display/display.c **** 
  16:..\..\common\lib\lib_Display/display.c **** #define MAX_LEN_DISPLAY     11
  17:..\..\common\lib\lib_Display/display.c **** 
  18:..\..\common\lib\lib_Display/display.c **** /*network quality*/
  19:..\..\common\lib\lib_Display/display.c **** #define NUM_STICK_NETWORK_QUALITY   4
  20:..\..\common\lib\lib_Display/display.c **** 
  21:..\..\common\lib\lib_Display/display.c **** extern unsigned char SmallFont[];
  22:..\..\common\lib\lib_Display/display.c **** extern unsigned char TinyFont[];
  23:..\..\common\lib\lib_Display/display.c **** extern unsigned char BigNumbers[];
  24:..\..\common\lib\lib_Display/display.c **** extern unsigned char MediumNumbers[];
  25:..\..\common\lib\lib_Display/display.c **** extern uint8_t logoCypress[];
  26:..\..\common\lib\lib_Display/display.c **** extern uint8_t homeSkreen[];
  27:..\..\common\lib\lib_Display/display.c **** extern uint8_t homeSkreenNull[];
  28:..\..\common\lib\lib_Display/display.c **** extern uint8_t networkOn[];
  29:..\..\common\lib\lib_Display/display.c **** extern uint8_t SDinsert[];
  30:..\..\common\lib\lib_Display/display.c **** extern uint8_t SDnoInsert[];
  31:..\..\common\lib\lib_Display/display.c **** 
  32:..\..\common\lib\lib_Display/display.c **** /*buffer for print string on LCD*/
  33:..\..\common\lib\lib_Display/display.c **** static  char buff[100];
  34:..\..\common\lib\lib_Display/display.c **** 
  35:..\..\common\lib\lib_Display/display.c **** 
  36:..\..\common\lib\lib_Display/display.c **** /*******************************************************************************
  37:..\..\common\lib\lib_Display/display.c **** * Function name: DisplayConfig
  38:..\..\common\lib\lib_Display/display.c **** ********************************************************************************
  39:..\..\common\lib\lib_Display/display.c **** *
  40:..\..\common\lib\lib_Display/display.c **** * Summary:
  41:..\..\common\lib\lib_Display/display.c **** * initialization display
  42:..\..\common\lib\lib_Display/display.c **** *
  43:..\..\common\lib\lib_Display/display.c **** *******************************************************************************/	
  44:..\..\common\lib\lib_Display/display.c **** void DisplayStart(void)
  45:..\..\common\lib\lib_Display/display.c **** {
 183              		.loc 2 45 0
 184              		.cfi_startproc
 185              		@ args = 0, pretend = 0, frame = 0
 186              		@ frame_needed = 1, uses_anonymous_args = 0
 187 0000 80B5     		push	{r7, lr}
 188              		.cfi_def_cfa_offset 8
 189              		.cfi_offset 7, -8
 190              		.cfi_offset 14, -4
 191 0002 82B0     		sub	sp, sp, #8
 192              		.cfi_def_cfa_offset 16
 193 0004 02AF     		add	r7, sp, #8
ARM GAS  C:\Users\Petro\AppData\Local\Temp\ccWf2gHi.s 			page 15


 194              		.cfi_def_cfa 7, 8
  46:..\..\common\lib\lib_Display/display.c ****     /*backlight off*/
  47:..\..\common\lib\lib_Display/display.c ****     LCD_BL_Write(0);
 195              		.loc 2 47 0
 196 0006 0020     		movs	r0, #0
 197 0008 FFF7FEFF 		bl	LCD_BL_Write
  48:..\..\common\lib\lib_Display/display.c ****     
  49:..\..\common\lib\lib_Display/display.c ****     InitLCD(LCD_CONTRAST);
 198              		.loc 2 49 0
 199 000c 4620     		movs	r0, #70
 200 000e FFF7FEFF 		bl	InitLCD
  50:..\..\common\lib\lib_Display/display.c ****     setFont(SmallFont);
 201              		.loc 2 50 0
 202 0012 094B     		ldr	r3, .L8
 203 0014 1800     		movs	r0, r3
 204 0016 FFF7FEFF 		bl	setFont
  51:..\..\common\lib\lib_Display/display.c ****     clrScr();
 205              		.loc 2 51 0
 206 001a FFF7FEFF 		bl	clrScr
  52:..\..\common\lib\lib_Display/display.c ****     drawBitmap(0, 0, homeSkreenNull, 84, 48);
 207              		.loc 2 52 0
 208 001e 074A     		ldr	r2, .L8+4
 209 0020 3023     		movs	r3, #48
 210 0022 0093     		str	r3, [sp]
 211 0024 5423     		movs	r3, #84
 212 0026 0021     		movs	r1, #0
 213 0028 0020     		movs	r0, #0
 214 002a FFF7FEFF 		bl	drawBitmap
  53:..\..\common\lib\lib_Display/display.c ****     update();
 215              		.loc 2 53 0
 216 002e FFF7FEFF 		bl	update
  54:..\..\common\lib\lib_Display/display.c **** }
 217              		.loc 2 54 0
 218 0032 C046     		nop
 219 0034 BD46     		mov	sp, r7
 220              		@ sp needed
 221 0036 80BD     		pop	{r7, pc}
 222              	.L9:
 223              		.align	2
 224              	.L8:
 225 0038 00000000 		.word	SmallFont
 226 003c 00000000 		.word	homeSkreenNull
 227              		.cfi_endproc
 228              	.LFE64:
 229              		.size	DisplayStart, .-DisplayStart
 230              		.section	.rodata
 231              		.align	2
 232              	.LC2:
 233 0000 20202020 		.ascii	"           \000"
 233      20202020 
 233      20202000 
 234              		.section	.text.Display,"ax",%progbits
 235              		.align	2
 236              		.global	Display
 237              		.code	16
 238              		.thumb_func
 239              		.type	Display, %function
ARM GAS  C:\Users\Petro\AppData\Local\Temp\ccWf2gHi.s 			page 16


 240              	Display:
 241              	.LFB65:
  55:..\..\common\lib\lib_Display/display.c **** 	
  56:..\..\common\lib\lib_Display/display.c **** 
  57:..\..\common\lib\lib_Display/display.c **** /*******************************************************************************
  58:..\..\common\lib\lib_Display/display.c **** * Function Name: DisplayPrintf
  59:..\..\common\lib\lib_Display/display.c **** ********************************************************************************
  60:..\..\common\lib\lib_Display/display.c **** *
  61:..\..\common\lib\lib_Display/display.c **** * Summary:
  62:..\..\common\lib\lib_Display/display.c **** *   Writes a zero terminated string to the LCD.
  63:..\..\common\lib\lib_Display/display.c **** *
  64:..\..\common\lib\lib_Display/display.c **** * Parameters:
  65:..\..\common\lib\lib_Display/display.c **** *  string: Pointer to head of char8 array to be written to the LCD module
  66:..\..\common\lib\lib_Display/display.c **** * Note:
  67:..\..\common\lib\lib_Display/display.c **** *   print string from position row = 0, column = 0
  68:..\..\common\lib\lib_Display/display.c **** *
  69:..\..\common\lib\lib_Display/display.c **** *******************************************************************************/
  70:..\..\common\lib\lib_Display/display.c **** void Display(char *message)
  71:..\..\common\lib\lib_Display/display.c **** {    
 242              		.loc 2 71 0
 243              		.cfi_startproc
 244              		@ args = 0, pretend = 0, frame = 24
 245              		@ frame_needed = 1, uses_anonymous_args = 0
 246 0000 80B5     		push	{r7, lr}
 247              		.cfi_def_cfa_offset 8
 248              		.cfi_offset 7, -8
 249              		.cfi_offset 14, -4
 250 0002 86B0     		sub	sp, sp, #24
 251              		.cfi_def_cfa_offset 32
 252 0004 00AF     		add	r7, sp, #0
 253              		.cfi_def_cfa_register 7
 254 0006 7860     		str	r0, [r7, #4]
  72:..\..\common\lib\lib_Display/display.c ****     uint8_t len;
  73:..\..\common\lib\lib_Display/display.c ****     char strNull[11] = {"           "};
 255              		.loc 2 73 0
 256 0008 0C23     		movs	r3, #12
 257 000a FB18     		adds	r3, r7, r3
 258 000c 1A4A     		ldr	r2, .L12
 259 000e 03CA     		ldmia	r2!, {r0, r1}
 260 0010 03C3     		stmia	r3!, {r0, r1}
 261 0012 1188     		ldrh	r1, [r2]
 262 0014 1980     		strh	r1, [r3]
 263 0016 9278     		ldrb	r2, [r2, #2]
 264 0018 9A70     		strb	r2, [r3, #2]
  74:..\..\common\lib\lib_Display/display.c ****     strncpy(buff,message,MAX_LEN_DISPLAY);
 265              		.loc 2 74 0
 266 001a 7968     		ldr	r1, [r7, #4]
 267 001c 174B     		ldr	r3, .L12+4
 268 001e 0B22     		movs	r2, #11
 269 0020 1800     		movs	r0, r3
 270 0022 FFF7FEFF 		bl	strncpy
  75:..\..\common\lib\lib_Display/display.c ****     len = strlen(message);
 271              		.loc 2 75 0
 272 0026 7B68     		ldr	r3, [r7, #4]
 273 0028 1800     		movs	r0, r3
 274 002a FFF7FEFF 		bl	strlen
 275 002e 0200     		movs	r2, r0
ARM GAS  C:\Users\Petro\AppData\Local\Temp\ccWf2gHi.s 			page 17


 276 0030 1723     		movs	r3, #23
 277 0032 FB18     		adds	r3, r7, r3
 278 0034 1A70     		strb	r2, [r3]
  76:..\..\common\lib\lib_Display/display.c ****     if(len < MAX_LEN_DISPLAY)
 279              		.loc 2 76 0
 280 0036 1723     		movs	r3, #23
 281 0038 FB18     		adds	r3, r7, r3
 282 003a 1B78     		ldrb	r3, [r3]
 283 003c 0A2B     		cmp	r3, #10
 284 003e 0BD8     		bhi	.L11
  77:..\..\common\lib\lib_Display/display.c ****     {
  78:..\..\common\lib\lib_Display/display.c ****         strncat(buff,strNull,MAX_LEN_DISPLAY-len);
 285              		.loc 2 78 0
 286 0040 1723     		movs	r3, #23
 287 0042 FB18     		adds	r3, r7, r3
 288 0044 1B78     		ldrb	r3, [r3]
 289 0046 0B22     		movs	r2, #11
 290 0048 D31A     		subs	r3, r2, r3
 291 004a 1A00     		movs	r2, r3
 292 004c 0C23     		movs	r3, #12
 293 004e F918     		adds	r1, r7, r3
 294 0050 0A4B     		ldr	r3, .L12+4
 295 0052 1800     		movs	r0, r3
 296 0054 FFF7FEFF 		bl	strncat
 297              	.L11:
  79:..\..\common\lib\lib_Display/display.c ****     }
  80:..\..\common\lib\lib_Display/display.c ****     
  81:..\..\common\lib\lib_Display/display.c ****     setFont(SmallFont);
 298              		.loc 2 81 0
 299 0058 094B     		ldr	r3, .L12+8
 300 005a 1800     		movs	r0, r3
 301 005c FFF7FEFF 		bl	setFont
  82:..\..\common\lib\lib_Display/display.c ****     print(buff,8,40);
 302              		.loc 2 82 0
 303 0060 064B     		ldr	r3, .L12+4
 304 0062 2822     		movs	r2, #40
 305 0064 0821     		movs	r1, #8
 306 0066 1800     		movs	r0, r3
 307 0068 FFF7FEFF 		bl	print
  83:..\..\common\lib\lib_Display/display.c ****     update();
 308              		.loc 2 83 0
 309 006c FFF7FEFF 		bl	update
  84:..\..\common\lib\lib_Display/display.c **** }
 310              		.loc 2 84 0
 311 0070 C046     		nop
 312 0072 BD46     		mov	sp, r7
 313 0074 06B0     		add	sp, sp, #24
 314              		@ sp needed
 315 0076 80BD     		pop	{r7, pc}
 316              	.L13:
 317              		.align	2
 318              	.L12:
 319 0078 00000000 		.word	.LC2
 320 007c 00000000 		.word	buff
 321 0080 00000000 		.word	SmallFont
 322              		.cfi_endproc
 323              	.LFE65:
ARM GAS  C:\Users\Petro\AppData\Local\Temp\ccWf2gHi.s 			page 18


 324              		.size	Display, .-Display
 325              		.section	.text.DisplayIndicatorSD,"ax",%progbits
 326              		.align	2
 327              		.global	DisplayIndicatorSD
 328              		.code	16
 329              		.thumb_func
 330              		.type	DisplayIndicatorSD, %function
 331              	DisplayIndicatorSD:
 332              	.LFB66:
  85:..\..\common\lib\lib_Display/display.c **** 
  86:..\..\common\lib\lib_Display/display.c **** /*******************************************************************************
  87:..\..\common\lib\lib_Display/display.c **** * Function name: DisplayPutIndicatorSD
  88:..\..\common\lib\lib_Display/display.c **** ********************************************************************************
  89:..\..\common\lib\lib_Display/display.c **** *
  90:..\..\common\lib\lib_Display/display.c **** * Summary:
  91:..\..\common\lib\lib_Display/display.c **** *   print incator SD card 
  92:..\..\common\lib\lib_Display/display.c **** *
  93:..\..\common\lib\lib_Display/display.c **** * Parametrs:
  94:..\..\common\lib\lib_Display/display.c **** *   state = SD_INSERT or state = SD_NO_INSERT
  95:..\..\common\lib\lib_Display/display.c **** *******************************************************************************/
  96:..\..\common\lib\lib_Display/display.c **** void DisplayIndicatorSD(SDindicator indicator)
  97:..\..\common\lib\lib_Display/display.c **** {
 333              		.loc 2 97 0
 334              		.cfi_startproc
 335              		@ args = 0, pretend = 0, frame = 8
 336              		@ frame_needed = 1, uses_anonymous_args = 0
 337 0000 80B5     		push	{r7, lr}
 338              		.cfi_def_cfa_offset 8
 339              		.cfi_offset 7, -8
 340              		.cfi_offset 14, -4
 341 0002 84B0     		sub	sp, sp, #16
 342              		.cfi_def_cfa_offset 24
 343 0004 02AF     		add	r7, sp, #8
 344              		.cfi_def_cfa 7, 16
 345 0006 0200     		movs	r2, r0
 346 0008 FB1D     		adds	r3, r7, #7
 347 000a 1A70     		strb	r2, [r3]
  98:..\..\common\lib\lib_Display/display.c ****     if(indicator == SD_INSERT)
 348              		.loc 2 98 0
 349 000c FB1D     		adds	r3, r7, #7
 350 000e 1B78     		ldrb	r3, [r3]
 351 0010 002B     		cmp	r3, #0
 352 0012 08D1     		bne	.L15
  99:..\..\common\lib\lib_Display/display.c ****     {
 100:..\..\common\lib\lib_Display/display.c ****         drawBitmap(64, 1, SDinsert, 10, 8);
 353              		.loc 2 100 0
 354 0014 0B4A     		ldr	r2, .L17
 355 0016 0823     		movs	r3, #8
 356 0018 0093     		str	r3, [sp]
 357 001a 0A23     		movs	r3, #10
 358 001c 0121     		movs	r1, #1
 359 001e 4020     		movs	r0, #64
 360 0020 FFF7FEFF 		bl	drawBitmap
 361 0024 07E0     		b	.L16
 362              	.L15:
 101:..\..\common\lib\lib_Display/display.c ****     }
 102:..\..\common\lib\lib_Display/display.c ****     else
ARM GAS  C:\Users\Petro\AppData\Local\Temp\ccWf2gHi.s 			page 19


 103:..\..\common\lib\lib_Display/display.c ****     {
 104:..\..\common\lib\lib_Display/display.c ****         drawBitmap(64, 1, SDnoInsert, 10, 8);
 363              		.loc 2 104 0
 364 0026 084A     		ldr	r2, .L17+4
 365 0028 0823     		movs	r3, #8
 366 002a 0093     		str	r3, [sp]
 367 002c 0A23     		movs	r3, #10
 368 002e 0121     		movs	r1, #1
 369 0030 4020     		movs	r0, #64
 370 0032 FFF7FEFF 		bl	drawBitmap
 371              	.L16:
 105:..\..\common\lib\lib_Display/display.c ****     }
 106:..\..\common\lib\lib_Display/display.c ****     update();
 372              		.loc 2 106 0
 373 0036 FFF7FEFF 		bl	update
 107:..\..\common\lib\lib_Display/display.c **** }
 374              		.loc 2 107 0
 375 003a C046     		nop
 376 003c BD46     		mov	sp, r7
 377 003e 02B0     		add	sp, sp, #8
 378              		@ sp needed
 379 0040 80BD     		pop	{r7, pc}
 380              	.L18:
 381 0042 C046     		.align	2
 382              	.L17:
 383 0044 00000000 		.word	SDinsert
 384 0048 00000000 		.word	SDnoInsert
 385              		.cfi_endproc
 386              	.LFE66:
 387              		.size	DisplayIndicatorSD, .-DisplayIndicatorSD
 388              		.section	.text.DisplayIndicatorNetwork,"ax",%progbits
 389              		.align	2
 390              		.global	DisplayIndicatorNetwork
 391              		.code	16
 392              		.thumb_func
 393              		.type	DisplayIndicatorNetwork, %function
 394              	DisplayIndicatorNetwork:
 395              	.LFB67:
 108:..\..\common\lib\lib_Display/display.c **** 
 109:..\..\common\lib\lib_Display/display.c **** /*******************************************************************************
 110:..\..\common\lib\lib_Display/display.c **** * Function name: DisplayPutIndicatorNetwork
 111:..\..\common\lib\lib_Display/display.c **** ********************************************************************************
 112:..\..\common\lib\lib_Display/display.c **** *
 113:..\..\common\lib\lib_Display/display.c **** * Summary:
 114:..\..\common\lib\lib_Display/display.c **** *   print incator connect  from position row = 1, column = 15
 115:..\..\common\lib\lib_Display/display.c **** *
 116:..\..\common\lib\lib_Display/display.c **** * Parametrs:
 117:..\..\common\lib\lib_Display/display.c **** *   state = CONNECT or state = DISCONNECT
 118:..\..\common\lib\lib_Display/display.c **** *******************************************************************************/
 119:..\..\common\lib\lib_Display/display.c **** void DisplayIndicatorNetwork(NetworkIndicator indicator)
 120:..\..\common\lib\lib_Display/display.c **** {
 396              		.loc 2 120 0
 397              		.cfi_startproc
 398              		@ args = 0, pretend = 0, frame = 8
 399              		@ frame_needed = 1, uses_anonymous_args = 0
 400 0000 80B5     		push	{r7, lr}
 401              		.cfi_def_cfa_offset 8
ARM GAS  C:\Users\Petro\AppData\Local\Temp\ccWf2gHi.s 			page 20


 402              		.cfi_offset 7, -8
 403              		.cfi_offset 14, -4
 404 0002 84B0     		sub	sp, sp, #16
 405              		.cfi_def_cfa_offset 24
 406 0004 02AF     		add	r7, sp, #8
 407              		.cfi_def_cfa 7, 16
 408 0006 0200     		movs	r2, r0
 409 0008 FB1D     		adds	r3, r7, #7
 410 000a 1A70     		strb	r2, [r3]
 121:..\..\common\lib\lib_Display/display.c ****     if(indicator == CONNECT)
 411              		.loc 2 121 0
 412 000c FB1D     		adds	r3, r7, #7
 413 000e 1B78     		ldrb	r3, [r3]
 414 0010 002B     		cmp	r3, #0
 415 0012 08D1     		bne	.L20
 122:..\..\common\lib\lib_Display/display.c ****     {
 123:..\..\common\lib\lib_Display/display.c ****         drawBitmap(1,3,networkOn,6,35);
 416              		.loc 2 123 0
 417 0014 134A     		ldr	r2, .L22
 418 0016 2323     		movs	r3, #35
 419 0018 0093     		str	r3, [sp]
 420 001a 0623     		movs	r3, #6
 421 001c 0321     		movs	r1, #3
 422 001e 0120     		movs	r0, #1
 423 0020 FFF7FEFF 		bl	drawBitmap
 424 0024 18E0     		b	.L21
 425              	.L20:
 124:..\..\common\lib\lib_Display/display.c ****     }
 125:..\..\common\lib\lib_Display/display.c ****     else
 126:..\..\common\lib\lib_Display/display.c ****     {
 127:..\..\common\lib\lib_Display/display.c ****         clrVLine(1,3,35);
 426              		.loc 2 127 0
 427 0026 2322     		movs	r2, #35
 428 0028 0321     		movs	r1, #3
 429 002a 0120     		movs	r0, #1
 430 002c FFF7FEFF 		bl	clrVLine
 128:..\..\common\lib\lib_Display/display.c ****         clrVLine(2,3,35);
 431              		.loc 2 128 0
 432 0030 2322     		movs	r2, #35
 433 0032 0321     		movs	r1, #3
 434 0034 0220     		movs	r0, #2
 435 0036 FFF7FEFF 		bl	clrVLine
 129:..\..\common\lib\lib_Display/display.c ****         clrVLine(3,3,35);
 436              		.loc 2 129 0
 437 003a 2322     		movs	r2, #35
 438 003c 0321     		movs	r1, #3
 439 003e 0320     		movs	r0, #3
 440 0040 FFF7FEFF 		bl	clrVLine
 130:..\..\common\lib\lib_Display/display.c ****         clrVLine(4,3,35);
 441              		.loc 2 130 0
 442 0044 2322     		movs	r2, #35
 443 0046 0321     		movs	r1, #3
 444 0048 0420     		movs	r0, #4
 445 004a FFF7FEFF 		bl	clrVLine
 131:..\..\common\lib\lib_Display/display.c ****         clrVLine(5,3,35);
 446              		.loc 2 131 0
 447 004e 2322     		movs	r2, #35
ARM GAS  C:\Users\Petro\AppData\Local\Temp\ccWf2gHi.s 			page 21


 448 0050 0321     		movs	r1, #3
 449 0052 0520     		movs	r0, #5
 450 0054 FFF7FEFF 		bl	clrVLine
 451              	.L21:
 132:..\..\common\lib\lib_Display/display.c ****     }
 133:..\..\common\lib\lib_Display/display.c ****     update();
 452              		.loc 2 133 0
 453 0058 FFF7FEFF 		bl	update
 134:..\..\common\lib\lib_Display/display.c **** }
 454              		.loc 2 134 0
 455 005c C046     		nop
 456 005e BD46     		mov	sp, r7
 457 0060 02B0     		add	sp, sp, #8
 458              		@ sp needed
 459 0062 80BD     		pop	{r7, pc}
 460              	.L23:
 461              		.align	2
 462              	.L22:
 463 0064 00000000 		.word	networkOn
 464              		.cfi_endproc
 465              	.LFE67:
 466              		.size	DisplayIndicatorNetwork, .-DisplayIndicatorNetwork
 467              		.section	.text.DisplayNetworkQuality,"ax",%progbits
 468              		.align	2
 469              		.global	DisplayNetworkQuality
 470              		.code	16
 471              		.thumb_func
 472              		.type	DisplayNetworkQuality, %function
 473              	DisplayNetworkQuality:
 474              	.LFB68:
 135:..\..\common\lib\lib_Display/display.c **** 
 136:..\..\common\lib\lib_Display/display.c **** /*******************************************************************************
 137:..\..\common\lib\lib_Display/display.c **** * Function name: DisplayNetworkQuality
 138:..\..\common\lib\lib_Display/display.c **** ********************************************************************************
 139:..\..\common\lib\lib_Display/display.c **** *
 140:..\..\common\lib\lib_Display/display.c **** * Summary:
 141:..\..\common\lib\lib_Display/display.c **** *   print quality network
 142:..\..\common\lib\lib_Display/display.c **** *
 143:..\..\common\lib\lib_Display/display.c **** * Parametrs:
 144:..\..\common\lib\lib_Display/display.c **** *   quality - quality network 0..5
 145:..\..\common\lib\lib_Display/display.c **** *******************************************************************************/
 146:..\..\common\lib\lib_Display/display.c **** void DisplayNetworkQuality(uint8_t quality)
 147:..\..\common\lib\lib_Display/display.c **** {
 475              		.loc 2 147 0
 476              		.cfi_startproc
 477              		@ args = 0, pretend = 0, frame = 8
 478              		@ frame_needed = 1, uses_anonymous_args = 0
 479 0000 80B5     		push	{r7, lr}
 480              		.cfi_def_cfa_offset 8
 481              		.cfi_offset 7, -8
 482              		.cfi_offset 14, -4
 483 0002 82B0     		sub	sp, sp, #8
 484              		.cfi_def_cfa_offset 16
 485 0004 00AF     		add	r7, sp, #0
 486              		.cfi_def_cfa_register 7
 487 0006 0200     		movs	r2, r0
 488 0008 FB1D     		adds	r3, r7, #7
ARM GAS  C:\Users\Petro\AppData\Local\Temp\ccWf2gHi.s 			page 22


 489 000a 1A70     		strb	r2, [r3]
 148:..\..\common\lib\lib_Display/display.c ****     clrVLine(1,3,35);
 490              		.loc 2 148 0
 491 000c 2322     		movs	r2, #35
 492 000e 0321     		movs	r1, #3
 493 0010 0120     		movs	r0, #1
 494 0012 FFF7FEFF 		bl	clrVLine
 149:..\..\common\lib\lib_Display/display.c ****     clrVLine(2,3,35);
 495              		.loc 2 149 0
 496 0016 2322     		movs	r2, #35
 497 0018 0321     		movs	r1, #3
 498 001a 0220     		movs	r0, #2
 499 001c FFF7FEFF 		bl	clrVLine
 150:..\..\common\lib\lib_Display/display.c ****     clrVLine(3,3,35);
 500              		.loc 2 150 0
 501 0020 2322     		movs	r2, #35
 502 0022 0321     		movs	r1, #3
 503 0024 0320     		movs	r0, #3
 504 0026 FFF7FEFF 		bl	clrVLine
 151:..\..\common\lib\lib_Display/display.c ****     clrVLine(4,3,35);
 505              		.loc 2 151 0
 506 002a 2322     		movs	r2, #35
 507 002c 0321     		movs	r1, #3
 508 002e 0420     		movs	r0, #4
 509 0030 FFF7FEFF 		bl	clrVLine
 152:..\..\common\lib\lib_Display/display.c ****     clrVLine(5,3,35);
 510              		.loc 2 152 0
 511 0034 2322     		movs	r2, #35
 512 0036 0321     		movs	r1, #3
 513 0038 0520     		movs	r0, #5
 514 003a FFF7FEFF 		bl	clrVLine
 153:..\..\common\lib\lib_Display/display.c ****     
 154:..\..\common\lib\lib_Display/display.c ****     if(quality > 1)
 515              		.loc 2 154 0
 516 003e FB1D     		adds	r3, r7, #7
 517 0040 1B78     		ldrb	r3, [r3]
 518 0042 012B     		cmp	r3, #1
 519 0044 0ED9     		bls	.L25
 155:..\..\common\lib\lib_Display/display.c ****     {
 156:..\..\common\lib\lib_Display/display.c ****         drawVLine(1,31,7);
 520              		.loc 2 156 0
 521 0046 0722     		movs	r2, #7
 522 0048 1F21     		movs	r1, #31
 523 004a 0120     		movs	r0, #1
 524 004c FFF7FEFF 		bl	drawVLine
 157:..\..\common\lib\lib_Display/display.c ****         drawVLine(2,31,7);
 525              		.loc 2 157 0
 526 0050 0722     		movs	r2, #7
 527 0052 1F21     		movs	r1, #31
 528 0054 0220     		movs	r0, #2
 529 0056 FFF7FEFF 		bl	drawVLine
 158:..\..\common\lib\lib_Display/display.c ****         drawVLine(3,31,7);
 530              		.loc 2 158 0
 531 005a 0722     		movs	r2, #7
 532 005c 1F21     		movs	r1, #31
 533 005e 0320     		movs	r0, #3
 534 0060 FFF7FEFF 		bl	drawVLine
ARM GAS  C:\Users\Petro\AppData\Local\Temp\ccWf2gHi.s 			page 23


 535              	.L25:
 159:..\..\common\lib\lib_Display/display.c ****     }
 160:..\..\common\lib\lib_Display/display.c ****     if(quality > 2)
 536              		.loc 2 160 0
 537 0064 FB1D     		adds	r3, r7, #7
 538 0066 1B78     		ldrb	r3, [r3]
 539 0068 022B     		cmp	r3, #2
 540 006a 0ED9     		bls	.L26
 161:..\..\common\lib\lib_Display/display.c ****     {
 162:..\..\common\lib\lib_Display/display.c ****         drawVLine(1,22,7);
 541              		.loc 2 162 0
 542 006c 0722     		movs	r2, #7
 543 006e 1621     		movs	r1, #22
 544 0070 0120     		movs	r0, #1
 545 0072 FFF7FEFF 		bl	drawVLine
 163:..\..\common\lib\lib_Display/display.c ****         drawVLine(2,22,7);
 546              		.loc 2 163 0
 547 0076 0722     		movs	r2, #7
 548 0078 1621     		movs	r1, #22
 549 007a 0220     		movs	r0, #2
 550 007c FFF7FEFF 		bl	drawVLine
 164:..\..\common\lib\lib_Display/display.c ****         drawVLine(3,22,7);
 551              		.loc 2 164 0
 552 0080 0722     		movs	r2, #7
 553 0082 1621     		movs	r1, #22
 554 0084 0320     		movs	r0, #3
 555 0086 FFF7FEFF 		bl	drawVLine
 556              	.L26:
 165:..\..\common\lib\lib_Display/display.c ****     }
 166:..\..\common\lib\lib_Display/display.c ****     if(quality > 3)
 557              		.loc 2 166 0
 558 008a FB1D     		adds	r3, r7, #7
 559 008c 1B78     		ldrb	r3, [r3]
 560 008e 032B     		cmp	r3, #3
 561 0090 13D9     		bls	.L27
 167:..\..\common\lib\lib_Display/display.c ****     {
 168:..\..\common\lib\lib_Display/display.c ****         drawVLine(1,13,7);
 562              		.loc 2 168 0
 563 0092 0722     		movs	r2, #7
 564 0094 0D21     		movs	r1, #13
 565 0096 0120     		movs	r0, #1
 566 0098 FFF7FEFF 		bl	drawVLine
 169:..\..\common\lib\lib_Display/display.c ****         drawVLine(2,13,7);
 567              		.loc 2 169 0
 568 009c 0722     		movs	r2, #7
 569 009e 0D21     		movs	r1, #13
 570 00a0 0220     		movs	r0, #2
 571 00a2 FFF7FEFF 		bl	drawVLine
 170:..\..\common\lib\lib_Display/display.c ****         drawVLine(3,13,7);
 572              		.loc 2 170 0
 573 00a6 0722     		movs	r2, #7
 574 00a8 0D21     		movs	r1, #13
 575 00aa 0320     		movs	r0, #3
 576 00ac FFF7FEFF 		bl	drawVLine
 171:..\..\common\lib\lib_Display/display.c ****         drawVLine(4,13,7);
 577              		.loc 2 171 0
 578 00b0 0722     		movs	r2, #7
ARM GAS  C:\Users\Petro\AppData\Local\Temp\ccWf2gHi.s 			page 24


 579 00b2 0D21     		movs	r1, #13
 580 00b4 0420     		movs	r0, #4
 581 00b6 FFF7FEFF 		bl	drawVLine
 582              	.L27:
 172:..\..\common\lib\lib_Display/display.c ****     }
 173:..\..\common\lib\lib_Display/display.c ****     if(quality > 4)
 583              		.loc 2 173 0
 584 00ba FB1D     		adds	r3, r7, #7
 585 00bc 1B78     		ldrb	r3, [r3]
 586 00be 042B     		cmp	r3, #4
 587 00c0 13D9     		bls	.L28
 174:..\..\common\lib\lib_Display/display.c ****     {
 175:..\..\common\lib\lib_Display/display.c ****         drawVLine(1,4,7);
 588              		.loc 2 175 0
 589 00c2 0722     		movs	r2, #7
 590 00c4 0421     		movs	r1, #4
 591 00c6 0120     		movs	r0, #1
 592 00c8 FFF7FEFF 		bl	drawVLine
 176:..\..\common\lib\lib_Display/display.c ****         drawVLine(2,4,7);
 593              		.loc 2 176 0
 594 00cc 0722     		movs	r2, #7
 595 00ce 0421     		movs	r1, #4
 596 00d0 0220     		movs	r0, #2
 597 00d2 FFF7FEFF 		bl	drawVLine
 177:..\..\common\lib\lib_Display/display.c ****         drawVLine(3,4,7);
 598              		.loc 2 177 0
 599 00d6 0722     		movs	r2, #7
 600 00d8 0421     		movs	r1, #4
 601 00da 0320     		movs	r0, #3
 602 00dc FFF7FEFF 		bl	drawVLine
 178:..\..\common\lib\lib_Display/display.c ****         drawVLine(4,4,7);
 603              		.loc 2 178 0
 604 00e0 0722     		movs	r2, #7
 605 00e2 0421     		movs	r1, #4
 606 00e4 0420     		movs	r0, #4
 607 00e6 FFF7FEFF 		bl	drawVLine
 608              	.L28:
 179:..\..\common\lib\lib_Display/display.c ****     }
 180:..\..\common\lib\lib_Display/display.c ****     update(); 
 609              		.loc 2 180 0
 610 00ea FFF7FEFF 		bl	update
 181:..\..\common\lib\lib_Display/display.c **** }
 611              		.loc 2 181 0
 612 00ee C046     		nop
 613 00f0 BD46     		mov	sp, r7
 614 00f2 02B0     		add	sp, sp, #8
 615              		@ sp needed
 616 00f4 80BD     		pop	{r7, pc}
 617              		.cfi_endproc
 618              	.LFE68:
 619              		.size	DisplayNetworkQuality, .-DisplayNetworkQuality
 620 00f6 C046     		.section	.rodata
 621              		.align	2
 622              	.LC10:
 623 000c 2530326C 		.ascii	"%02lu:%02lu:%02lu\000"
 623      753A2530 
 623      326C753A 
ARM GAS  C:\Users\Petro\AppData\Local\Temp\ccWf2gHi.s 			page 25


 623      2530326C 
 623      7500
 624              		.section	.text.DisplayRealTime,"ax",%progbits
 625              		.align	2
 626              		.global	DisplayRealTime
 627              		.code	16
 628              		.thumb_func
 629              		.type	DisplayRealTime, %function
 630              	DisplayRealTime:
 631              	.LFB69:
 182:..\..\common\lib\lib_Display/display.c **** 
 183:..\..\common\lib\lib_Display/display.c **** /*******************************************************************************
 184:..\..\common\lib\lib_Display/display.c **** * Function name: DisplayPrintfRealTime
 185:..\..\common\lib\lib_Display/display.c **** ********************************************************************************
 186:..\..\common\lib\lib_Display/display.c **** *
 187:..\..\common\lib\lib_Display/display.c **** * Summary:
 188:..\..\common\lib\lib_Display/display.c **** *   print real time from position row = 1, column = 0
 189:..\..\common\lib\lib_Display/display.c **** *
 190:..\..\common\lib\lib_Display/display.c **** *******************************************************************************/
 191:..\..\common\lib\lib_Display/display.c **** void DisplayRealTime(void)
 192:..\..\common\lib\lib_Display/display.c **** {
 632              		.loc 2 192 0
 633              		.cfi_startproc
 634              		@ args = 0, pretend = 0, frame = 8
 635              		@ frame_needed = 1, uses_anonymous_args = 0
 636 0000 B0B5     		push	{r4, r5, r7, lr}
 637              		.cfi_def_cfa_offset 16
 638              		.cfi_offset 4, -16
 639              		.cfi_offset 5, -12
 640              		.cfi_offset 7, -8
 641              		.cfi_offset 14, -4
 642 0002 84B0     		sub	sp, sp, #16
 643              		.cfi_def_cfa_offset 32
 644 0004 02AF     		add	r7, sp, #8
 645              		.cfi_def_cfa 7, 24
 193:..\..\common\lib\lib_Display/display.c ****     uint32_t time;
 194:..\..\common\lib\lib_Display/display.c ****     
 195:..\..\common\lib\lib_Display/display.c ****     setFont(SmallFont);
 646              		.loc 2 195 0
 647 0006 154B     		ldr	r3, .L30
 648 0008 1800     		movs	r0, r3
 649 000a FFF7FEFF 		bl	setFont
 196:..\..\common\lib\lib_Display/display.c ****     time = RTC_GetTime();
 650              		.loc 2 196 0
 651 000e FFF7FEFF 		bl	RTC_GetTime
 652 0012 0300     		movs	r3, r0
 653 0014 7B60     		str	r3, [r7, #4]
 197:..\..\common\lib\lib_Display/display.c ****     sprintf(buff, "%02lu:%02lu:%02lu", RTC_GetHours(time),RTC_GetMinutes(time), RTC_GetSecond(time)
 654              		.loc 2 197 0
 655 0016 7B68     		ldr	r3, [r7, #4]
 656 0018 1800     		movs	r0, r3
 657 001a FFF7FEFF 		bl	RTC_GetHours
 658 001e 0400     		movs	r4, r0
 659 0020 7B68     		ldr	r3, [r7, #4]
 660 0022 1800     		movs	r0, r3
 661 0024 FFF7FEFF 		bl	RTC_GetMinutes
 662 0028 0500     		movs	r5, r0
ARM GAS  C:\Users\Petro\AppData\Local\Temp\ccWf2gHi.s 			page 26


 663 002a 7B68     		ldr	r3, [r7, #4]
 664 002c 1800     		movs	r0, r3
 665 002e FFF7FEFF 		bl	RTC_GetSecond
 666 0032 0300     		movs	r3, r0
 667 0034 0A49     		ldr	r1, .L30+4
 668 0036 0B48     		ldr	r0, .L30+8
 669 0038 0093     		str	r3, [sp]
 670 003a 2B00     		movs	r3, r5
 671 003c 2200     		movs	r2, r4
 672 003e FFF7FEFF 		bl	sprintf
 198:..\..\common\lib\lib_Display/display.c ****     //sprintf(buff,"%02d:%02d:%02d", 13,59,59);
 199:..\..\common\lib\lib_Display/display.c ****     print(buff,10,0);
 673              		.loc 2 199 0
 674 0042 084B     		ldr	r3, .L30+8
 675 0044 0022     		movs	r2, #0
 676 0046 0A21     		movs	r1, #10
 677 0048 1800     		movs	r0, r3
 678 004a FFF7FEFF 		bl	print
 200:..\..\common\lib\lib_Display/display.c ****     update();
 679              		.loc 2 200 0
 680 004e FFF7FEFF 		bl	update
 201:..\..\common\lib\lib_Display/display.c ****     
 202:..\..\common\lib\lib_Display/display.c **** }
 681              		.loc 2 202 0
 682 0052 C046     		nop
 683 0054 BD46     		mov	sp, r7
 684 0056 02B0     		add	sp, sp, #8
 685              		@ sp needed
 686 0058 B0BD     		pop	{r4, r5, r7, pc}
 687              	.L31:
 688 005a C046     		.align	2
 689              	.L30:
 690 005c 00000000 		.word	SmallFont
 691 0060 0C000000 		.word	.LC10
 692 0064 00000000 		.word	buff
 693              		.cfi_endproc
 694              	.LFE69:
 695              		.size	DisplayRealTime, .-DisplayRealTime
 696              		.section	.text.DisplayLoading,"ax",%progbits
 697              		.align	2
 698              		.global	DisplayLoading
 699              		.code	16
 700              		.thumb_func
 701              		.type	DisplayLoading, %function
 702              	DisplayLoading:
 703              	.LFB70:
 203:..\..\common\lib\lib_Display/display.c **** 
 204:..\..\common\lib\lib_Display/display.c **** 
 205:..\..\common\lib\lib_Display/display.c **** /*******************************************************************************
 206:..\..\common\lib\lib_Display/display.c **** * Function name: DisplayPrintfLoading
 207:..\..\common\lib\lib_Display/display.c **** ********************************************************************************
 208:..\..\common\lib\lib_Display/display.c **** *
 209:..\..\common\lib\lib_Display/display.c **** * print loading from position row = 1, column = 0
 210:..\..\common\lib\lib_Display/display.c **** *
 211:..\..\common\lib\lib_Display/display.c **** *******************************************************************************/
 212:..\..\common\lib\lib_Display/display.c **** void DisplayLoading(uint32_t numLoad)
 213:..\..\common\lib\lib_Display/display.c **** {
ARM GAS  C:\Users\Petro\AppData\Local\Temp\ccWf2gHi.s 			page 27


 704              		.loc 2 213 0
 705              		.cfi_startproc
 706              		@ args = 0, pretend = 0, frame = 8
 707              		@ frame_needed = 1, uses_anonymous_args = 0
 708 0000 80B5     		push	{r7, lr}
 709              		.cfi_def_cfa_offset 8
 710              		.cfi_offset 7, -8
 711              		.cfi_offset 14, -4
 712 0002 82B0     		sub	sp, sp, #8
 713              		.cfi_def_cfa_offset 16
 714 0004 00AF     		add	r7, sp, #0
 715              		.cfi_def_cfa_register 7
 716 0006 7860     		str	r0, [r7, #4]
 214:..\..\common\lib\lib_Display/display.c **** //    if(numLoad == 0)
 215:..\..\common\lib\lib_Display/display.c **** //    {
 216:..\..\common\lib\lib_Display/display.c **** //        /*clear row 1*/
 217:..\..\common\lib\lib_Display/display.c **** //        LCD_Position(1,0);
 218:..\..\common\lib\lib_Display/display.c **** //        LCD_PrintString("             ");
 219:..\..\common\lib\lib_Display/display.c **** //    }
 220:..\..\common\lib\lib_Display/display.c **** //    if((numLoad > 0) && numLoad < 16)
 221:..\..\common\lib\lib_Display/display.c **** //    {
 222:..\..\common\lib\lib_Display/display.c **** //        LCD_Position(1,numLoad-1);
 223:..\..\common\lib\lib_Display/display.c **** //        LCD_PutChar(LCD_CUSTOM_4);
 224:..\..\common\lib\lib_Display/display.c **** //    }
 225:..\..\common\lib\lib_Display/display.c **** }
 717              		.loc 2 225 0
 718 0008 C046     		nop
 719 000a BD46     		mov	sp, r7
 720 000c 02B0     		add	sp, sp, #8
 721              		@ sp needed
 722 000e 80BD     		pop	{r7, pc}
 723              		.cfi_endproc
 724              	.LFE70:
 725              		.size	DisplayLoading, .-DisplayLoading
 726              		.global	__aeabi_fcmplt
 727              		.global	__aeabi_f2d
 728              		.global	__aeabi_dcmpgt
 729              		.section	.text.DisplayBattVoltage,"ax",%progbits
 730              		.align	2
 731              		.global	DisplayBattVoltage
 732              		.code	16
 733              		.thumb_func
 734              		.type	DisplayBattVoltage, %function
 735              	DisplayBattVoltage:
 736              	.LFB71:
 226:..\..\common\lib\lib_Display/display.c **** 
 227:..\..\common\lib\lib_Display/display.c **** /*******************************************************************************
 228:..\..\common\lib\lib_Display/display.c **** * Function name: DisplayBattVoltage
 229:..\..\common\lib\lib_Display/display.c **** ********************************************************************************
 230:..\..\common\lib\lib_Display/display.c **** *
 231:..\..\common\lib\lib_Display/display.c **** * print voltage battery
 232:..\..\common\lib\lib_Display/display.c **** *
 233:..\..\common\lib\lib_Display/display.c **** *******************************************************************************/
 234:..\..\common\lib\lib_Display/display.c **** void DisplayBattVoltage(float voltage)
 235:..\..\common\lib\lib_Display/display.c **** {
 737              		.loc 2 235 0
 738              		.cfi_startproc
ARM GAS  C:\Users\Petro\AppData\Local\Temp\ccWf2gHi.s 			page 28


 739              		@ args = 0, pretend = 0, frame = 16
 740              		@ frame_needed = 1, uses_anonymous_args = 0
 741 0000 80B5     		push	{r7, lr}
 742              		.cfi_def_cfa_offset 8
 743              		.cfi_offset 7, -8
 744              		.cfi_offset 14, -4
 745 0002 84B0     		sub	sp, sp, #16
 746              		.cfi_def_cfa_offset 24
 747 0004 00AF     		add	r7, sp, #0
 748              		.cfi_def_cfa_register 7
 749 0006 7860     		str	r0, [r7, #4]
 236:..\..\common\lib\lib_Display/display.c ****     if(voltage < 0)return;
 750              		.loc 2 236 0
 751 0008 0021     		movs	r1, #0
 752 000a 7868     		ldr	r0, [r7, #4]
 753 000c FFF7FEFF 		bl	__aeabi_fcmplt
 754 0010 031E     		subs	r3, r0, #0
 755 0012 00D0     		beq	.LCB604
 756 0014 8BE0     		b	.L51	@long jump
 757              	.LCB604:
 237:..\..\common\lib\lib_Display/display.c ****     
 238:..\..\common\lib\lib_Display/display.c ****     /*clear image batt*/
 239:..\..\common\lib\lib_Display/display.c ****     uint8_t i;
 240:..\..\common\lib\lib_Display/display.c ****     for(i=0;i<5;i++)
 758              		.loc 2 240 0
 759 0016 0F23     		movs	r3, #15
 760 0018 FB18     		adds	r3, r7, r3
 761 001a 0022     		movs	r2, #0
 762 001c 1A70     		strb	r2, [r3]
 763 001e 0FE0     		b	.L37
 764              	.L38:
 241:..\..\common\lib\lib_Display/display.c ****     {
 242:..\..\common\lib\lib_Display/display.c ****         clrVLine(77+i,4,35);
 765              		.loc 2 242 0 discriminator 3
 766 0020 0F23     		movs	r3, #15
 767 0022 FB18     		adds	r3, r7, r3
 768 0024 1B78     		ldrb	r3, [r3]
 769 0026 4D33     		adds	r3, r3, #77
 770 0028 2322     		movs	r2, #35
 771 002a 0421     		movs	r1, #4
 772 002c 1800     		movs	r0, r3
 773 002e FFF7FEFF 		bl	clrVLine
 240:..\..\common\lib\lib_Display/display.c ****     {
 774              		.loc 2 240 0 discriminator 3
 775 0032 0F23     		movs	r3, #15
 776 0034 FB18     		adds	r3, r7, r3
 777 0036 1A78     		ldrb	r2, [r3]
 778 0038 0F23     		movs	r3, #15
 779 003a FB18     		adds	r3, r7, r3
 780 003c 0132     		adds	r2, r2, #1
 781 003e 1A70     		strb	r2, [r3]
 782              	.L37:
 240:..\..\common\lib\lib_Display/display.c ****     {
 783              		.loc 2 240 0 is_stmt 0 discriminator 1
 784 0040 0F23     		movs	r3, #15
 785 0042 FB18     		adds	r3, r7, r3
 786 0044 1B78     		ldrb	r3, [r3]
ARM GAS  C:\Users\Petro\AppData\Local\Temp\ccWf2gHi.s 			page 29


 787 0046 042B     		cmp	r3, #4
 788 0048 EAD9     		bls	.L38
 243:..\..\common\lib\lib_Display/display.c ****     }
 244:..\..\common\lib\lib_Display/display.c ****     
 245:..\..\common\lib\lib_Display/display.c ****     if(voltage > BATT_0_PERCENT)
 789              		.loc 2 245 0 is_stmt 1
 790 004a 7868     		ldr	r0, [r7, #4]
 791 004c FFF7FEFF 		bl	__aeabi_f2d
 792 0050 394A     		ldr	r2, .L52
 793 0052 3A4B     		ldr	r3, .L52+4
 794 0054 FFF7FEFF 		bl	__aeabi_dcmpgt
 795 0058 031E     		subs	r3, r0, #0
 796 005a 0ED0     		beq	.L39
 246:..\..\common\lib\lib_Display/display.c ****     {
 247:..\..\common\lib\lib_Display/display.c ****         drawVLine(79,31,7);
 797              		.loc 2 247 0
 798 005c 0722     		movs	r2, #7
 799 005e 1F21     		movs	r1, #31
 800 0060 4F20     		movs	r0, #79
 801 0062 FFF7FEFF 		bl	drawVLine
 248:..\..\common\lib\lib_Display/display.c ****         drawVLine(80,31,7);
 802              		.loc 2 248 0
 803 0066 0722     		movs	r2, #7
 804 0068 1F21     		movs	r1, #31
 805 006a 5020     		movs	r0, #80
 806 006c FFF7FEFF 		bl	drawVLine
 249:..\..\common\lib\lib_Display/display.c ****         drawVLine(81,31,7);
 807              		.loc 2 249 0
 808 0070 0722     		movs	r2, #7
 809 0072 1F21     		movs	r1, #31
 810 0074 5120     		movs	r0, #81
 811 0076 FFF7FEFF 		bl	drawVLine
 812              	.L39:
 250:..\..\common\lib\lib_Display/display.c ****     }
 251:..\..\common\lib\lib_Display/display.c ****     if(voltage > BATT_25_PERCENT)
 813              		.loc 2 251 0
 814 007a 7868     		ldr	r0, [r7, #4]
 815 007c FFF7FEFF 		bl	__aeabi_f2d
 816 0080 2F4A     		ldr	r2, .L52+8
 817 0082 304B     		ldr	r3, .L52+12
 818 0084 FFF7FEFF 		bl	__aeabi_dcmpgt
 819 0088 031E     		subs	r3, r0, #0
 820 008a 0ED0     		beq	.L41
 252:..\..\common\lib\lib_Display/display.c ****     {
 253:..\..\common\lib\lib_Display/display.c ****         drawVLine(79,22,7);
 821              		.loc 2 253 0
 822 008c 0722     		movs	r2, #7
 823 008e 1621     		movs	r1, #22
 824 0090 4F20     		movs	r0, #79
 825 0092 FFF7FEFF 		bl	drawVLine
 254:..\..\common\lib\lib_Display/display.c ****         drawVLine(80,22,7);
 826              		.loc 2 254 0
 827 0096 0722     		movs	r2, #7
 828 0098 1621     		movs	r1, #22
 829 009a 5020     		movs	r0, #80
 830 009c FFF7FEFF 		bl	drawVLine
 255:..\..\common\lib\lib_Display/display.c ****         drawVLine(81,22,7);
ARM GAS  C:\Users\Petro\AppData\Local\Temp\ccWf2gHi.s 			page 30


 831              		.loc 2 255 0
 832 00a0 0722     		movs	r2, #7
 833 00a2 1621     		movs	r1, #22
 834 00a4 5120     		movs	r0, #81
 835 00a6 FFF7FEFF 		bl	drawVLine
 836              	.L41:
 256:..\..\common\lib\lib_Display/display.c ****     }
 257:..\..\common\lib\lib_Display/display.c ****     if(voltage > BATT_50_PERCENT)
 837              		.loc 2 257 0
 838 00aa 7868     		ldr	r0, [r7, #4]
 839 00ac FFF7FEFF 		bl	__aeabi_f2d
 840 00b0 254A     		ldr	r2, .L52+16
 841 00b2 264B     		ldr	r3, .L52+20
 842 00b4 FFF7FEFF 		bl	__aeabi_dcmpgt
 843 00b8 031E     		subs	r3, r0, #0
 844 00ba 13D0     		beq	.L43
 258:..\..\common\lib\lib_Display/display.c ****     {
 259:..\..\common\lib\lib_Display/display.c ****         drawVLine(78,13,7);
 845              		.loc 2 259 0
 846 00bc 0722     		movs	r2, #7
 847 00be 0D21     		movs	r1, #13
 848 00c0 4E20     		movs	r0, #78
 849 00c2 FFF7FEFF 		bl	drawVLine
 260:..\..\common\lib\lib_Display/display.c ****         drawVLine(79,13,7);
 850              		.loc 2 260 0
 851 00c6 0722     		movs	r2, #7
 852 00c8 0D21     		movs	r1, #13
 853 00ca 4F20     		movs	r0, #79
 854 00cc FFF7FEFF 		bl	drawVLine
 261:..\..\common\lib\lib_Display/display.c ****         drawVLine(80,13,7);
 855              		.loc 2 261 0
 856 00d0 0722     		movs	r2, #7
 857 00d2 0D21     		movs	r1, #13
 858 00d4 5020     		movs	r0, #80
 859 00d6 FFF7FEFF 		bl	drawVLine
 262:..\..\common\lib\lib_Display/display.c ****         drawVLine(81,13,7);
 860              		.loc 2 262 0
 861 00da 0722     		movs	r2, #7
 862 00dc 0D21     		movs	r1, #13
 863 00de 5120     		movs	r0, #81
 864 00e0 FFF7FEFF 		bl	drawVLine
 865              	.L43:
 263:..\..\common\lib\lib_Display/display.c ****     }
 264:..\..\common\lib\lib_Display/display.c ****     if(voltage > BATT_75_PERCENT)
 866              		.loc 2 264 0
 867 00e4 7868     		ldr	r0, [r7, #4]
 868 00e6 FFF7FEFF 		bl	__aeabi_f2d
 869 00ea 194A     		ldr	r2, .L52+24
 870 00ec 194B     		ldr	r3, .L52+28
 871 00ee FFF7FEFF 		bl	__aeabi_dcmpgt
 872 00f2 031E     		subs	r3, r0, #0
 873 00f4 18D0     		beq	.L45
 265:..\..\common\lib\lib_Display/display.c ****     {
 266:..\..\common\lib\lib_Display/display.c ****         drawVLine(77,4,7);
 874              		.loc 2 266 0
 875 00f6 0722     		movs	r2, #7
 876 00f8 0421     		movs	r1, #4
ARM GAS  C:\Users\Petro\AppData\Local\Temp\ccWf2gHi.s 			page 31


 877 00fa 4D20     		movs	r0, #77
 878 00fc FFF7FEFF 		bl	drawVLine
 267:..\..\common\lib\lib_Display/display.c ****         drawVLine(78,4,7);
 879              		.loc 2 267 0
 880 0100 0722     		movs	r2, #7
 881 0102 0421     		movs	r1, #4
 882 0104 4E20     		movs	r0, #78
 883 0106 FFF7FEFF 		bl	drawVLine
 268:..\..\common\lib\lib_Display/display.c ****         drawVLine(79,4,7);
 884              		.loc 2 268 0
 885 010a 0722     		movs	r2, #7
 886 010c 0421     		movs	r1, #4
 887 010e 4F20     		movs	r0, #79
 888 0110 FFF7FEFF 		bl	drawVLine
 269:..\..\common\lib\lib_Display/display.c ****         drawVLine(80,4,7);
 889              		.loc 2 269 0
 890 0114 0722     		movs	r2, #7
 891 0116 0421     		movs	r1, #4
 892 0118 5020     		movs	r0, #80
 893 011a FFF7FEFF 		bl	drawVLine
 270:..\..\common\lib\lib_Display/display.c ****         drawVLine(81,4,7);
 894              		.loc 2 270 0
 895 011e 0722     		movs	r2, #7
 896 0120 0421     		movs	r1, #4
 897 0122 5120     		movs	r0, #81
 898 0124 FFF7FEFF 		bl	drawVLine
 899              	.L45:
 271:..\..\common\lib\lib_Display/display.c ****     }
 272:..\..\common\lib\lib_Display/display.c ****     update();
 900              		.loc 2 272 0
 901 0128 FFF7FEFF 		bl	update
 902 012c 00E0     		b	.L33
 903              	.L51:
 236:..\..\common\lib\lib_Display/display.c ****     
 904              		.loc 2 236 0
 905 012e C046     		nop
 906              	.L33:
 273:..\..\common\lib\lib_Display/display.c **** }
 907              		.loc 2 273 0
 908 0130 BD46     		mov	sp, r7
 909 0132 04B0     		add	sp, sp, #16
 910              		@ sp needed
 911 0134 80BD     		pop	{r7, pc}
 912              	.L53:
 913 0136 C046     		.align	2
 914              	.L52:
 915 0138 9A999999 		.word	-1717986918
 916 013c 9999D93F 		.word	1071225241
 917 0140 E17A14AE 		.word	-1374389535
 918 0144 47E1DA3F 		.word	1071309127
 919 0148 295C8FC2 		.word	-1030792151
 920 014c F528DC3F 		.word	1071393013
 921 0150 713D0AD7 		.word	-687194767
 922 0154 A370DD3F 		.word	1071476899
 923              		.cfi_endproc
 924              	.LFE71:
 925              		.size	DisplayBattVoltage, .-DisplayBattVoltage
ARM GAS  C:\Users\Petro\AppData\Local\Temp\ccWf2gHi.s 			page 32


 926              		.global	__aeabi_uidiv
 927              		.global	__aeabi_uidivmod
 928              		.section	.text.DisplayLastSkierTime,"ax",%progbits
 929              		.align	2
 930              		.global	DisplayLastSkierTime
 931              		.code	16
 932              		.thumb_func
 933              		.type	DisplayLastSkierTime, %function
 934              	DisplayLastSkierTime:
 935              	.LFB72:
 274:..\..\common\lib\lib_Display/display.c **** 
 275:..\..\common\lib\lib_Display/display.c **** /*******************************************************************************
 276:..\..\common\lib\lib_Display/display.c **** * Function name: DisplayPrintLastTimeSkier
 277:..\..\common\lib\lib_Display/display.c **** ********************************************************************************
 278:..\..\common\lib\lib_Display/display.c **** *
 279:..\..\common\lib\lib_Display/display.c **** * Summary:
 280:..\..\common\lib\lib_Display/display.c **** *   print time last skier from position row = 1, column = 0
 281:..\..\common\lib\lib_Display/display.c **** *
 282:..\..\common\lib\lib_Display/display.c **** *******************************************************************************/
 283:..\..\common\lib\lib_Display/display.c **** void DisplayLastSkierTime(uint32_t sec, uint16_t milisec)
 284:..\..\common\lib\lib_Display/display.c **** {
 936              		.loc 2 284 0
 937              		.cfi_startproc
 938              		@ args = 0, pretend = 0, frame = 8
 939              		@ frame_needed = 1, uses_anonymous_args = 0
 940 0000 80B5     		push	{r7, lr}
 941              		.cfi_def_cfa_offset 8
 942              		.cfi_offset 7, -8
 943              		.cfi_offset 14, -4
 944 0002 84B0     		sub	sp, sp, #16
 945              		.cfi_def_cfa_offset 24
 946 0004 02AF     		add	r7, sp, #8
 947              		.cfi_def_cfa 7, 16
 948 0006 7860     		str	r0, [r7, #4]
 949 0008 0A00     		movs	r2, r1
 950 000a BB1C     		adds	r3, r7, #2
 951 000c 1A80     		strh	r2, [r3]
 285:..\..\common\lib\lib_Display/display.c ****     if(sec > 60000 || milisec >= 1000)return;
 952              		.loc 2 285 0
 953 000e 7B68     		ldr	r3, [r7, #4]
 954 0010 1A4A     		ldr	r2, .L59
 955 0012 9342     		cmp	r3, r2
 956 0014 2ED8     		bhi	.L58
 957              		.loc 2 285 0 is_stmt 0 discriminator 1
 958 0016 BB1C     		adds	r3, r7, #2
 959 0018 1B88     		ldrh	r3, [r3]
 960 001a 194A     		ldr	r2, .L59+4
 961 001c 9342     		cmp	r3, r2
 962 001e 29D8     		bhi	.L58
 286:..\..\common\lib\lib_Display/display.c ****         
 287:..\..\common\lib\lib_Display/display.c ****     setFont(SmallFont);
 963              		.loc 2 287 0 is_stmt 1
 964 0020 184B     		ldr	r3, .L59+8
 965 0022 1800     		movs	r0, r3
 966 0024 FFF7FEFF 		bl	setFont
 288:..\..\common\lib\lib_Display/display.c ****     printNumI(sec/60,22,11,3,' ');
 967              		.loc 2 288 0
ARM GAS  C:\Users\Petro\AppData\Local\Temp\ccWf2gHi.s 			page 33


 968 0028 7B68     		ldr	r3, [r7, #4]
 969 002a 3C21     		movs	r1, #60
 970 002c 1800     		movs	r0, r3
 971 002e FFF7FEFF 		bl	__aeabi_uidiv
 972 0032 0300     		movs	r3, r0
 973 0034 1800     		movs	r0, r3
 974 0036 2023     		movs	r3, #32
 975 0038 0093     		str	r3, [sp]
 976 003a 0323     		movs	r3, #3
 977 003c 0B22     		movs	r2, #11
 978 003e 1621     		movs	r1, #22
 979 0040 FFF7FEFF 		bl	printNumI
 289:..\..\common\lib\lib_Display/display.c ****     printNumI(sec%60,28,20,2,' ');
 980              		.loc 2 289 0
 981 0044 7B68     		ldr	r3, [r7, #4]
 982 0046 3C21     		movs	r1, #60
 983 0048 1800     		movs	r0, r3
 984 004a FFF7FEFF 		bl	__aeabi_uidivmod
 985 004e 0B00     		movs	r3, r1
 986 0050 1800     		movs	r0, r3
 987 0052 2023     		movs	r3, #32
 988 0054 0093     		str	r3, [sp]
 989 0056 0223     		movs	r3, #2
 990 0058 1422     		movs	r2, #20
 991 005a 1C21     		movs	r1, #28
 992 005c FFF7FEFF 		bl	printNumI
 290:..\..\common\lib\lib_Display/display.c ****     printNumI(milisec,22,29,3,' ');
 993              		.loc 2 290 0
 994 0060 BB1C     		adds	r3, r7, #2
 995 0062 1888     		ldrh	r0, [r3]
 996 0064 2023     		movs	r3, #32
 997 0066 0093     		str	r3, [sp]
 998 0068 0323     		movs	r3, #3
 999 006a 1D22     		movs	r2, #29
 1000 006c 1621     		movs	r1, #22
 1001 006e FFF7FEFF 		bl	printNumI
 1002 0072 00E0     		b	.L54
 1003              	.L58:
 285:..\..\common\lib\lib_Display/display.c ****         
 1004              		.loc 2 285 0
 1005 0074 C046     		nop
 1006              	.L54:
 291:..\..\common\lib\lib_Display/display.c **** }
 1007              		.loc 2 291 0
 1008 0076 BD46     		mov	sp, r7
 1009 0078 02B0     		add	sp, sp, #8
 1010              		@ sp needed
 1011 007a 80BD     		pop	{r7, pc}
 1012              	.L60:
 1013              		.align	2
 1014              	.L59:
 1015 007c 60EA0000 		.word	60000
 1016 0080 E7030000 		.word	999
 1017 0084 00000000 		.word	SmallFont
 1018              		.cfi_endproc
 1019              	.LFE72:
 1020              		.size	DisplayLastSkierTime, .-DisplayLastSkierTime
ARM GAS  C:\Users\Petro\AppData\Local\Temp\ccWf2gHi.s 			page 34


 1021              		.section	.text.DisplayNumSkierOnWay,"ax",%progbits
 1022              		.align	2
 1023              		.global	DisplayNumSkierOnWay
 1024              		.code	16
 1025              		.thumb_func
 1026              		.type	DisplayNumSkierOnWay, %function
 1027              	DisplayNumSkierOnWay:
 1028              	.LFB73:
 292:..\..\common\lib\lib_Display/display.c **** 
 293:..\..\common\lib\lib_Display/display.c **** /*******************************************************************************
 294:..\..\common\lib\lib_Display/display.c **** * Function name: DisplayPrintNumSkierOnWay
 295:..\..\common\lib\lib_Display/display.c **** ********************************************************************************
 296:..\..\common\lib\lib_Display/display.c **** *
 297:..\..\common\lib\lib_Display/display.c **** * Summary:
 298:..\..\common\lib\lib_Display/display.c **** *   print number skier on way from position row = 1, column = 11
 299:..\..\common\lib\lib_Display/display.c **** *
 300:..\..\common\lib\lib_Display/display.c **** *******************************************************************************/
 301:..\..\common\lib\lib_Display/display.c **** void DisplayNumSkierOnWay(uint32_t num)
 302:..\..\common\lib\lib_Display/display.c **** {
 1029              		.loc 2 302 0
 1030              		.cfi_startproc
 1031              		@ args = 0, pretend = 0, frame = 8
 1032              		@ frame_needed = 1, uses_anonymous_args = 0
 1033 0000 80B5     		push	{r7, lr}
 1034              		.cfi_def_cfa_offset 8
 1035              		.cfi_offset 7, -8
 1036              		.cfi_offset 14, -4
 1037 0002 84B0     		sub	sp, sp, #16
 1038              		.cfi_def_cfa_offset 24
 1039 0004 02AF     		add	r7, sp, #8
 1040              		.cfi_def_cfa 7, 16
 1041 0006 7860     		str	r0, [r7, #4]
 303:..\..\common\lib\lib_Display/display.c ****     setFont(MediumNumbers);
 1042              		.loc 2 303 0
 1043 0008 0C4B     		ldr	r3, .L62
 1044 000a 1800     		movs	r0, r3
 1045 000c FFF7FEFF 		bl	setFont
 304:..\..\common\lib\lib_Display/display.c ****     printNumI(num,43,14,1,' ');
 1046              		.loc 2 304 0
 1047 0010 7868     		ldr	r0, [r7, #4]
 1048 0012 2023     		movs	r3, #32
 1049 0014 0093     		str	r3, [sp]
 1050 0016 0123     		movs	r3, #1
 1051 0018 0E22     		movs	r2, #14
 1052 001a 2B21     		movs	r1, #43
 1053 001c FFF7FEFF 		bl	printNumI
 305:..\..\common\lib\lib_Display/display.c ****     printNumI(4,64,14,1,' ');
 1054              		.loc 2 305 0
 1055 0020 2023     		movs	r3, #32
 1056 0022 0093     		str	r3, [sp]
 1057 0024 0123     		movs	r3, #1
 1058 0026 0E22     		movs	r2, #14
 1059 0028 4021     		movs	r1, #64
 1060 002a 0420     		movs	r0, #4
 1061 002c FFF7FEFF 		bl	printNumI
 306:..\..\common\lib\lib_Display/display.c ****     update();
 1062              		.loc 2 306 0
ARM GAS  C:\Users\Petro\AppData\Local\Temp\ccWf2gHi.s 			page 35


 1063 0030 FFF7FEFF 		bl	update
 307:..\..\common\lib\lib_Display/display.c **** }
 1064              		.loc 2 307 0
 1065 0034 C046     		nop
 1066 0036 BD46     		mov	sp, r7
 1067 0038 02B0     		add	sp, sp, #8
 1068              		@ sp needed
 1069 003a 80BD     		pop	{r7, pc}
 1070              	.L63:
 1071              		.align	2
 1072              	.L62:
 1073 003c 00000000 		.word	MediumNumbers
 1074              		.cfi_endproc
 1075              	.LFE73:
 1076              		.size	DisplayNumSkierOnWay, .-DisplayNumSkierOnWay
 1077              		.section	.rodata
 1078 001e 0000     		.align	2
 1079              	.LC16:
 1080 0020 74657374 		.ascii	"test\000"
 1080      00
 1081 0025 000000   		.align	2
 1082              	.LC18:
 1083 0028 20202020 		.ascii	"    \000"
 1083      00
 1084              		.section	.text.DisplayTestMode,"ax",%progbits
 1085              		.align	2
 1086              		.global	DisplayTestMode
 1087              		.code	16
 1088              		.thumb_func
 1089              		.type	DisplayTestMode, %function
 1090              	DisplayTestMode:
 1091              	.LFB74:
 308:..\..\common\lib\lib_Display/display.c **** 
 309:..\..\common\lib\lib_Display/display.c **** /*******************************************************************************
 310:..\..\common\lib\lib_Display/display.c **** * Function name: DisplayTestMode
 311:..\..\common\lib\lib_Display/display.c **** ********************************************************************************
 312:..\..\common\lib\lib_Display/display.c **** *
 313:..\..\common\lib\lib_Display/display.c **** * Summary:
 314:..\..\common\lib\lib_Display/display.c **** *   display on indicator test mode
 315:..\..\common\lib\lib_Display/display.c **** *
 316:..\..\common\lib\lib_Display/display.c **** *******************************************************************************/
 317:..\..\common\lib\lib_Display/display.c **** void DisplayTestMode(uint8_t state)
 318:..\..\common\lib\lib_Display/display.c **** {
 1092              		.loc 2 318 0
 1093              		.cfi_startproc
 1094              		@ args = 0, pretend = 0, frame = 8
 1095              		@ frame_needed = 1, uses_anonymous_args = 0
 1096 0000 80B5     		push	{r7, lr}
 1097              		.cfi_def_cfa_offset 8
 1098              		.cfi_offset 7, -8
 1099              		.cfi_offset 14, -4
 1100 0002 82B0     		sub	sp, sp, #8
 1101              		.cfi_def_cfa_offset 16
 1102 0004 00AF     		add	r7, sp, #0
 1103              		.cfi_def_cfa_register 7
 1104 0006 0200     		movs	r2, r0
 1105 0008 FB1D     		adds	r3, r7, #7
ARM GAS  C:\Users\Petro\AppData\Local\Temp\ccWf2gHi.s 			page 36


 1106 000a 1A70     		strb	r2, [r3]
 319:..\..\common\lib\lib_Display/display.c ****     setFont(TinyFont);
 1107              		.loc 2 319 0
 1108 000c 0C4B     		ldr	r3, .L68
 1109 000e 1800     		movs	r0, r3
 1110 0010 FFF7FEFF 		bl	setFont
 320:..\..\common\lib\lib_Display/display.c ****     if(state > 0)
 1111              		.loc 2 320 0
 1112 0014 FB1D     		adds	r3, r7, #7
 1113 0016 1B78     		ldrb	r3, [r3]
 1114 0018 002B     		cmp	r3, #0
 1115 001a 06D0     		beq	.L65
 321:..\..\common\lib\lib_Display/display.c ****         print("test",43,31);
 1116              		.loc 2 321 0
 1117 001c 094B     		ldr	r3, .L68+4
 1118 001e 1F22     		movs	r2, #31
 1119 0020 2B21     		movs	r1, #43
 1120 0022 1800     		movs	r0, r3
 1121 0024 FFF7FEFF 		bl	print
 322:..\..\common\lib\lib_Display/display.c ****     else
 323:..\..\common\lib\lib_Display/display.c ****         print("    ",43,31); 
 324:..\..\common\lib\lib_Display/display.c **** }
 1122              		.loc 2 324 0
 1123 0028 05E0     		b	.L67
 1124              	.L65:
 323:..\..\common\lib\lib_Display/display.c **** }
 1125              		.loc 2 323 0
 1126 002a 074B     		ldr	r3, .L68+8
 1127 002c 1F22     		movs	r2, #31
 1128 002e 2B21     		movs	r1, #43
 1129 0030 1800     		movs	r0, r3
 1130 0032 FFF7FEFF 		bl	print
 1131              	.L67:
 1132              		.loc 2 324 0
 1133 0036 C046     		nop
 1134 0038 BD46     		mov	sp, r7
 1135 003a 02B0     		add	sp, sp, #8
 1136              		@ sp needed
 1137 003c 80BD     		pop	{r7, pc}
 1138              	.L69:
 1139 003e C046     		.align	2
 1140              	.L68:
 1141 0040 00000000 		.word	TinyFont
 1142 0044 20000000 		.word	.LC16
 1143 0048 28000000 		.word	.LC18
 1144              		.cfi_endproc
 1145              	.LFE74:
 1146              		.size	DisplayTestMode, .-DisplayTestMode
 1147              		.section	.text.DisplaBacklightOn,"ax",%progbits
 1148              		.align	2
 1149              		.global	DisplaBacklightOn
 1150              		.code	16
 1151              		.thumb_func
 1152              		.type	DisplaBacklightOn, %function
 1153              	DisplaBacklightOn:
 1154              	.LFB75:
 325:..\..\common\lib\lib_Display/display.c **** 
ARM GAS  C:\Users\Petro\AppData\Local\Temp\ccWf2gHi.s 			page 37


 326:..\..\common\lib\lib_Display/display.c **** /*******************************************************************************
 327:..\..\common\lib\lib_Display/display.c **** * Function name: DisplaBacklightOn/DisplaBacklightOff
 328:..\..\common\lib\lib_Display/display.c **** ********************************************************************************
 329:..\..\common\lib\lib_Display/display.c **** *
 330:..\..\common\lib\lib_Display/display.c **** * Summary:
 331:..\..\common\lib\lib_Display/display.c **** *   on and off backlight display
 332:..\..\common\lib\lib_Display/display.c **** *
 333:..\..\common\lib\lib_Display/display.c **** *******************************************************************************/
 334:..\..\common\lib\lib_Display/display.c **** void DisplaBacklightOn(void)
 335:..\..\common\lib\lib_Display/display.c **** {
 1155              		.loc 2 335 0
 1156              		.cfi_startproc
 1157              		@ args = 0, pretend = 0, frame = 0
 1158              		@ frame_needed = 1, uses_anonymous_args = 0
 1159 0000 80B5     		push	{r7, lr}
 1160              		.cfi_def_cfa_offset 8
 1161              		.cfi_offset 7, -8
 1162              		.cfi_offset 14, -4
 1163 0002 00AF     		add	r7, sp, #0
 1164              		.cfi_def_cfa_register 7
 336:..\..\common\lib\lib_Display/display.c ****     LCD_BL_Write(1);
 1165              		.loc 2 336 0
 1166 0004 0120     		movs	r0, #1
 1167 0006 FFF7FEFF 		bl	LCD_BL_Write
 337:..\..\common\lib\lib_Display/display.c **** }
 1168              		.loc 2 337 0
 1169 000a C046     		nop
 1170 000c BD46     		mov	sp, r7
 1171              		@ sp needed
 1172 000e 80BD     		pop	{r7, pc}
 1173              		.cfi_endproc
 1174              	.LFE75:
 1175              		.size	DisplaBacklightOn, .-DisplaBacklightOn
 1176              		.section	.text.DisplaBacklightOff,"ax",%progbits
 1177              		.align	2
 1178              		.global	DisplaBacklightOff
 1179              		.code	16
 1180              		.thumb_func
 1181              		.type	DisplaBacklightOff, %function
 1182              	DisplaBacklightOff:
 1183              	.LFB76:
 338:..\..\common\lib\lib_Display/display.c **** 
 339:..\..\common\lib\lib_Display/display.c **** void DisplaBacklightOff(void)
 340:..\..\common\lib\lib_Display/display.c **** {
 1184              		.loc 2 340 0
 1185              		.cfi_startproc
 1186              		@ args = 0, pretend = 0, frame = 0
 1187              		@ frame_needed = 1, uses_anonymous_args = 0
 1188 0000 80B5     		push	{r7, lr}
 1189              		.cfi_def_cfa_offset 8
 1190              		.cfi_offset 7, -8
 1191              		.cfi_offset 14, -4
 1192 0002 00AF     		add	r7, sp, #0
 1193              		.cfi_def_cfa_register 7
 341:..\..\common\lib\lib_Display/display.c ****     LCD_BL_Write(0);
 1194              		.loc 2 341 0
 1195 0004 0020     		movs	r0, #0
ARM GAS  C:\Users\Petro\AppData\Local\Temp\ccWf2gHi.s 			page 38


 1196 0006 FFF7FEFF 		bl	LCD_BL_Write
 342:..\..\common\lib\lib_Display/display.c **** }
 1197              		.loc 2 342 0
 1198 000a C046     		nop
 1199 000c BD46     		mov	sp, r7
 1200              		@ sp needed
 1201 000e 80BD     		pop	{r7, pc}
 1202              		.cfi_endproc
 1203              	.LFE76:
 1204              		.size	DisplaBacklightOff, .-DisplaBacklightOff
 1205              		.section	.rodata
 1206 002d 000000   		.align	2
 1207              	.LC22:
 1208 0030 202000   		.ascii	"  \000"
 1209              		.section	.text.DisplayIDskier,"ax",%progbits
 1210              		.align	2
 1211              		.global	DisplayIDskier
 1212              		.code	16
 1213              		.thumb_func
 1214              		.type	DisplayIDskier, %function
 1215              	DisplayIDskier:
 1216              	.LFB77:
 343:..\..\common\lib\lib_Display/display.c **** 
 344:..\..\common\lib\lib_Display/display.c **** /*******************************************************************************
 345:..\..\common\lib\lib_Display/display.c **** * Function name: DisplaBacklightOn/DisplaBacklightOff
 346:..\..\common\lib\lib_Display/display.c **** ********************************************************************************
 347:..\..\common\lib\lib_Display/display.c **** *
 348:..\..\common\lib\lib_Display/display.c **** * Summary:
 349:..\..\common\lib\lib_Display/display.c **** *   display number id skier
 350:..\..\common\lib\lib_Display/display.c **** *
 351:..\..\common\lib\lib_Display/display.c **** *******************************************************************************/
 352:..\..\common\lib\lib_Display/display.c **** void DisplayIDskier(uint8_t number)
 353:..\..\common\lib\lib_Display/display.c **** {
 1217              		.loc 2 353 0
 1218              		.cfi_startproc
 1219              		@ args = 0, pretend = 0, frame = 8
 1220              		@ frame_needed = 1, uses_anonymous_args = 0
 1221 0000 80B5     		push	{r7, lr}
 1222              		.cfi_def_cfa_offset 8
 1223              		.cfi_offset 7, -8
 1224              		.cfi_offset 14, -4
 1225 0002 84B0     		sub	sp, sp, #16
 1226              		.cfi_def_cfa_offset 24
 1227 0004 02AF     		add	r7, sp, #8
 1228              		.cfi_def_cfa 7, 16
 1229 0006 0200     		movs	r2, r0
 1230 0008 FB1D     		adds	r3, r7, #7
 1231 000a 1A70     		strb	r2, [r3]
 354:..\..\common\lib\lib_Display/display.c ****     setFont(MediumNumbers);
 1232              		.loc 2 354 0
 1233 000c 2D4B     		ldr	r3, .L76
 1234 000e 1800     		movs	r0, r3
 1235 0010 FFF7FEFF 		bl	setFont
 355:..\..\common\lib\lib_Display/display.c ****     if(number <10)
 1236              		.loc 2 355 0
 1237 0014 FB1D     		adds	r3, r7, #7
 1238 0016 1B78     		ldrb	r3, [r3]
ARM GAS  C:\Users\Petro\AppData\Local\Temp\ccWf2gHi.s 			page 39


 1239 0018 092B     		cmp	r3, #9
 1240 001a 25D8     		bhi	.L73
 356:..\..\common\lib\lib_Display/display.c ****     {
 357:..\..\common\lib\lib_Display/display.c ****         printNumI(number,27,14,1,' ');
 1241              		.loc 2 357 0
 1242 001c FB1D     		adds	r3, r7, #7
 1243 001e 1878     		ldrb	r0, [r3]
 1244 0020 2023     		movs	r3, #32
 1245 0022 0093     		str	r3, [sp]
 1246 0024 0123     		movs	r3, #1
 1247 0026 0E22     		movs	r2, #14
 1248 0028 1B21     		movs	r1, #27
 1249 002a FFF7FEFF 		bl	printNumI
 358:..\..\common\lib\lib_Display/display.c ****         setFont(SmallFont);
 1250              		.loc 2 358 0
 1251 002e 264B     		ldr	r3, .L76+4
 1252 0030 1800     		movs	r0, r3
 1253 0032 FFF7FEFF 		bl	setFont
 359:..\..\common\lib\lib_Display/display.c ****         print("  ",40,14);
 1254              		.loc 2 359 0
 1255 0036 254B     		ldr	r3, .L76+8
 1256 0038 0E22     		movs	r2, #14
 1257 003a 2821     		movs	r1, #40
 1258 003c 1800     		movs	r0, r3
 1259 003e FFF7FEFF 		bl	print
 360:..\..\common\lib\lib_Display/display.c ****         print("  ",40,22);
 1260              		.loc 2 360 0
 1261 0042 224B     		ldr	r3, .L76+8
 1262 0044 1622     		movs	r2, #22
 1263 0046 2821     		movs	r1, #40
 1264 0048 1800     		movs	r0, r3
 1265 004a FFF7FEFF 		bl	print
 361:..\..\common\lib\lib_Display/display.c ****         print("  ",50,14);
 1266              		.loc 2 361 0
 1267 004e 1F4B     		ldr	r3, .L76+8
 1268 0050 0E22     		movs	r2, #14
 1269 0052 3221     		movs	r1, #50
 1270 0054 1800     		movs	r0, r3
 1271 0056 FFF7FEFF 		bl	print
 362:..\..\common\lib\lib_Display/display.c ****         print("  ",50,22);
 1272              		.loc 2 362 0
 1273 005a 1C4B     		ldr	r3, .L76+8
 1274 005c 1622     		movs	r2, #22
 1275 005e 3221     		movs	r1, #50
 1276 0060 1800     		movs	r0, r3
 1277 0062 FFF7FEFF 		bl	print
 1278 0066 26E0     		b	.L74
 1279              	.L73:
 363:..\..\common\lib\lib_Display/display.c ****     }else if(number < 100)
 1280              		.loc 2 363 0
 1281 0068 FB1D     		adds	r3, r7, #7
 1282 006a 1B78     		ldrb	r3, [r3]
 1283 006c 632B     		cmp	r3, #99
 1284 006e 19D8     		bhi	.L75
 364:..\..\common\lib\lib_Display/display.c ****     {
 365:..\..\common\lib\lib_Display/display.c ****         printNumI(number,27,14,1,' ');
 1285              		.loc 2 365 0
ARM GAS  C:\Users\Petro\AppData\Local\Temp\ccWf2gHi.s 			page 40


 1286 0070 FB1D     		adds	r3, r7, #7
 1287 0072 1878     		ldrb	r0, [r3]
 1288 0074 2023     		movs	r3, #32
 1289 0076 0093     		str	r3, [sp]
 1290 0078 0123     		movs	r3, #1
 1291 007a 0E22     		movs	r2, #14
 1292 007c 1B21     		movs	r1, #27
 1293 007e FFF7FEFF 		bl	printNumI
 366:..\..\common\lib\lib_Display/display.c ****         setFont(SmallFont);
 1294              		.loc 2 366 0
 1295 0082 114B     		ldr	r3, .L76+4
 1296 0084 1800     		movs	r0, r3
 1297 0086 FFF7FEFF 		bl	setFont
 367:..\..\common\lib\lib_Display/display.c ****         print("  ",50,14);
 1298              		.loc 2 367 0
 1299 008a 104B     		ldr	r3, .L76+8
 1300 008c 0E22     		movs	r2, #14
 1301 008e 3221     		movs	r1, #50
 1302 0090 1800     		movs	r0, r3
 1303 0092 FFF7FEFF 		bl	print
 368:..\..\common\lib\lib_Display/display.c ****         print("  ",50,22);
 1304              		.loc 2 368 0
 1305 0096 0D4B     		ldr	r3, .L76+8
 1306 0098 1622     		movs	r2, #22
 1307 009a 3221     		movs	r1, #50
 1308 009c 1800     		movs	r0, r3
 1309 009e FFF7FEFF 		bl	print
 1310 00a2 08E0     		b	.L74
 1311              	.L75:
 369:..\..\common\lib\lib_Display/display.c ****     }
 370:..\..\common\lib\lib_Display/display.c ****     else
 371:..\..\common\lib\lib_Display/display.c ****     {
 372:..\..\common\lib\lib_Display/display.c ****         printNumI(number,27,14,1,' ');
 1312              		.loc 2 372 0
 1313 00a4 FB1D     		adds	r3, r7, #7
 1314 00a6 1878     		ldrb	r0, [r3]
 1315 00a8 2023     		movs	r3, #32
 1316 00aa 0093     		str	r3, [sp]
 1317 00ac 0123     		movs	r3, #1
 1318 00ae 0E22     		movs	r2, #14
 1319 00b0 1B21     		movs	r1, #27
 1320 00b2 FFF7FEFF 		bl	printNumI
 1321              	.L74:
 373:..\..\common\lib\lib_Display/display.c ****     }
 374:..\..\common\lib\lib_Display/display.c ****     update();
 1322              		.loc 2 374 0
 1323 00b6 FFF7FEFF 		bl	update
 375:..\..\common\lib\lib_Display/display.c **** }
 1324              		.loc 2 375 0
 1325 00ba C046     		nop
 1326 00bc BD46     		mov	sp, r7
 1327 00be 02B0     		add	sp, sp, #8
 1328              		@ sp needed
 1329 00c0 80BD     		pop	{r7, pc}
 1330              	.L77:
 1331 00c2 C046     		.align	2
 1332              	.L76:
ARM GAS  C:\Users\Petro\AppData\Local\Temp\ccWf2gHi.s 			page 41


 1333 00c4 00000000 		.word	MediumNumbers
 1334 00c8 00000000 		.word	SmallFont
 1335 00cc 30000000 		.word	.LC22
 1336              		.cfi_endproc
 1337              	.LFE77:
 1338              		.size	DisplayIDskier, .-DisplayIDskier
 1339              		.text
 1340              	.Letext0:
 1341              		.file 3 "c:\\program files (x86)\\cypress\\psoc creator\\4.1\\psoc creator\\import\\gnu\\arm\\5.4.
 1342              		.file 4 "c:\\program files (x86)\\cypress\\psoc creator\\4.1\\psoc creator\\import\\gnu\\arm\\5.4.
 1343              		.file 5 "Generated_Source\\PSoC4/cytypes.h"
 1344              		.file 6 "./..\\..\\common\\lib\\lib_Display\\display.h"
 1345              		.file 7 "./..\\..\\common\\lib\\nokia5110\\LCD5110_Graph.h"