ARM GAS  C:\Users\Petro\AppData\Local\Temp\ccT7A2G2.s 			page 1


   1              		.syntax unified
   2              		.cpu cortex-m0
   3              		.fpu softvfp
   4              		.eabi_attribute 20, 1
   5              		.eabi_attribute 21, 1
   6              		.eabi_attribute 23, 3
   7              		.eabi_attribute 24, 1
   8              		.eabi_attribute 25, 1
   9              		.eabi_attribute 26, 1
  10              		.eabi_attribute 30, 6
  11              		.eabi_attribute 34, 0
  12              		.eabi_attribute 18, 4
  13              		.thumb
  14              		.syntax unified
  15              		.file	"LCD5110_Graph.c"
  16              		.text
  17              	.Ltext0:
  18              		.cfi_sections	.debug_frame
  19              		.comm	cfont,12,4
  20              		.comm	scrbuf,504,4
  21              		.comm	_sleep,1,1
  22              		.comm	_contrast,4,4
  23              		.section	.rodata
  24              		.align	2
  25              	.LC0:
  26 0000 25252569 		.ascii	"%%%i.%if\000"
  26      2E256966 
  26      00
  27              		.section	.text._convert_float,"ax",%progbits
  28              		.align	2
  29              		.global	_convert_float
  30              		.code	16
  31              		.thumb_func
  32              		.type	_convert_float, %function
  33              	_convert_float:
  34              	.LFB64:
  35              		.file 1 "./..\\..\\common\\lib\\nokia5110/HW_ARM.h"
   1:./..\..\common\lib\nokia5110/HW_ARM.h **** #include "stdio.h"
   2:./..\..\common\lib\nokia5110/HW_ARM.h **** #include "stdint.h"
   3:./..\..\common\lib\nokia5110/HW_ARM.h **** 
   4:./..\..\common\lib\nokia5110/HW_ARM.h **** void _convert_float(char *buf, double num, int width, uint8_t prec)
   5:./..\..\common\lib\nokia5110/HW_ARM.h **** {
  36              		.loc 1 5 0
  37              		.cfi_startproc
  38              		@ args = 8, pretend = 0, frame = 32
  39              		@ frame_needed = 1, uses_anonymous_args = 0
  40 0000 90B5     		push	{r4, r7, lr}
  41              		.cfi_def_cfa_offset 12
  42              		.cfi_offset 4, -12
  43              		.cfi_offset 7, -8
  44              		.cfi_offset 14, -4
  45 0002 89B0     		sub	sp, sp, #36
  46              		.cfi_def_cfa_offset 48
  47 0004 00AF     		add	r7, sp, #0
  48              		.cfi_def_cfa_register 7
  49 0006 F860     		str	r0, [r7, #12]
  50 0008 3A60     		str	r2, [r7]
ARM GAS  C:\Users\Petro\AppData\Local\Temp\ccT7A2G2.s 			page 2


  51 000a 7B60     		str	r3, [r7, #4]
   6:./..\..\common\lib\nokia5110/HW_ARM.h **** 	char format[10];
   7:./..\..\common\lib\nokia5110/HW_ARM.h **** 	
   8:./..\..\common\lib\nokia5110/HW_ARM.h **** 	sprintf(format, "%%%i.%if", width, prec);
  52              		.loc 1 8 0
  53 000c 3423     		movs	r3, #52
  54 000e FB18     		adds	r3, r7, r3
  55 0010 1B78     		ldrb	r3, [r3]
  56 0012 3A6B     		ldr	r2, [r7, #48]
  57 0014 0849     		ldr	r1, .L2
  58 0016 1420     		movs	r0, #20
  59 0018 3818     		adds	r0, r7, r0
  60 001a FFF7FEFF 		bl	sprintf
   9:./..\..\common\lib\nokia5110/HW_ARM.h **** 	sprintf(buf, format, num);
  61              		.loc 1 9 0
  62 001e 3B68     		ldr	r3, [r7]
  63 0020 7C68     		ldr	r4, [r7, #4]
  64 0022 1422     		movs	r2, #20
  65 0024 B918     		adds	r1, r7, r2
  66 0026 F868     		ldr	r0, [r7, #12]
  67 0028 1A00     		movs	r2, r3
  68 002a 2300     		movs	r3, r4
  69 002c FFF7FEFF 		bl	sprintf
  10:./..\..\common\lib\nokia5110/HW_ARM.h **** }
  70              		.loc 1 10 0
  71 0030 C046     		nop
  72 0032 BD46     		mov	sp, r7
  73 0034 09B0     		add	sp, sp, #36
  74              		@ sp needed
  75 0036 90BD     		pop	{r4, r7, pc}
  76              	.L3:
  77              		.align	2
  78              	.L2:
  79 0038 00000000 		.word	.LC0
  80              		.cfi_endproc
  81              	.LFE64:
  82              		.size	_convert_float, .-_convert_float
  83              		.section	.text._LCD_Write,"ax",%progbits
  84              		.align	2
  85              		.global	_LCD_Write
  86              		.code	16
  87              		.thumb_func
  88              		.type	_LCD_Write, %function
  89              	_LCD_Write:
  90              	.LFB65:
  91              		.file 2 "..\\..\\common\\lib\\nokia5110\\LCD5110_Graph.c"
   1:..\..\common\lib\nokia5110/LCD5110_Graph.c **** /*
   2:..\..\common\lib\nokia5110/LCD5110_Graph.c ****   LCD5110_Graph.cpp - Arduino/chipKit library support for Nokia 5110 compatible LCDs
   3:..\..\common\lib\nokia5110/LCD5110_Graph.c ****   Copyright (C)2015 Rinky-Dink Electronics, Henning Karlsen. All right reserved
   4:..\..\common\lib\nokia5110/LCD5110_Graph.c ****   
   5:..\..\common\lib\nokia5110/LCD5110_Graph.c ****   Basic functionality of this library are based on the demo-code provided by
   6:..\..\common\lib\nokia5110/LCD5110_Graph.c ****   ITead studio. You can find the latest version of the library at
   7:..\..\common\lib\nokia5110/LCD5110_Graph.c ****   http://www.RinkyDinkElectronics.com/
   8:..\..\common\lib\nokia5110/LCD5110_Graph.c **** 
   9:..\..\common\lib\nokia5110/LCD5110_Graph.c ****   This library has been made to make it easy to use the Nokia 5110 LCD module 
  10:..\..\common\lib\nokia5110/LCD5110_Graph.c ****   as a graphics display on an Arduino or a chipKit.
  11:..\..\common\lib\nokia5110/LCD5110_Graph.c **** 
ARM GAS  C:\Users\Petro\AppData\Local\Temp\ccT7A2G2.s 			page 3


  12:..\..\common\lib\nokia5110/LCD5110_Graph.c ****   This library is free software; you can redistribute it and/or
  13:..\..\common\lib\nokia5110/LCD5110_Graph.c ****   modify it under the terms of the CC BY-NC-SA 3.0 license.
  14:..\..\common\lib\nokia5110/LCD5110_Graph.c ****   Please see the included documents for further information.
  15:..\..\common\lib\nokia5110/LCD5110_Graph.c **** 
  16:..\..\common\lib\nokia5110/LCD5110_Graph.c ****   Commercial use of this library requires you to buy a license that
  17:..\..\common\lib\nokia5110/LCD5110_Graph.c ****   will allow commercial use. This includes using the library,
  18:..\..\common\lib\nokia5110/LCD5110_Graph.c ****   modified or not, as a tool to sell products.
  19:..\..\common\lib\nokia5110/LCD5110_Graph.c **** 
  20:..\..\common\lib\nokia5110/LCD5110_Graph.c ****   The license applies to all part of the library including the 
  21:..\..\common\lib\nokia5110/LCD5110_Graph.c ****   examples and tools supplied with the library.
  22:..\..\common\lib\nokia5110/LCD5110_Graph.c **** */
  23:..\..\common\lib\nokia5110/LCD5110_Graph.c **** 
  24:..\..\common\lib\nokia5110/LCD5110_Graph.c **** #include "LCD5110_Graph.h"
  25:..\..\common\lib\nokia5110/LCD5110_Graph.c **** #include "stdlib.h"
  26:..\..\common\lib\nokia5110/LCD5110_Graph.c **** 
  27:..\..\common\lib\nokia5110/LCD5110_Graph.c **** #if defined(__AVR__)
  28:..\..\common\lib\nokia5110/LCD5110_Graph.c **** 	#include <avr/pgmspace.h>
  29:..\..\common\lib\nokia5110/LCD5110_Graph.c **** 	#include "hardware/avr/HW_AVR.h"
  30:..\..\common\lib\nokia5110/LCD5110_Graph.c **** #elif defined(__PIC32MX__)
  31:..\..\common\lib\nokia5110/LCD5110_Graph.c **** 	#pragma message("Compiling for PIC32 Architecture...")
  32:..\..\common\lib\nokia5110/LCD5110_Graph.c **** 	#include "hardware/pic32/HW_PIC32.h"
  33:..\..\common\lib\nokia5110/LCD5110_Graph.c **** #elif defined(__arm__)
  34:..\..\common\lib\nokia5110/LCD5110_Graph.c **** 	//#pragma message("Compiling for ARM Architecture...")
  35:..\..\common\lib\nokia5110/LCD5110_Graph.c **** 	#include "..\..\common\lib\nokia5110/HW_ARM.h"
  36:..\..\common\lib\nokia5110/LCD5110_Graph.c **** #endif
  37:..\..\common\lib\nokia5110/LCD5110_Graph.c **** 
  38:..\..\common\lib\nokia5110/LCD5110_Graph.c **** //void LCD5110(int SCK, int MOSI, int DC, int RST, int CS)
  39:..\..\common\lib\nokia5110/LCD5110_Graph.c **** //{ 
  40:..\..\common\lib\nokia5110/LCD5110_Graph.c **** //	P_SCK	= portOutputRegister(digitalPinToPort(SCK));
  41:..\..\common\lib\nokia5110/LCD5110_Graph.c **** //	B_SCK	= digitalPinToBitMask(SCK);
  42:..\..\common\lib\nokia5110/LCD5110_Graph.c **** //	P_MOSI	= portOutputRegister(digitalPinToPort(MOSI));
  43:..\..\common\lib\nokia5110/LCD5110_Graph.c **** //	B_MOSI	= digitalPinToBitMask(MOSI);
  44:..\..\common\lib\nokia5110/LCD5110_Graph.c **** //	P_DC	= portOutputRegister(digitalPinToPort(DC));
  45:..\..\common\lib\nokia5110/LCD5110_Graph.c **** //	B_DC	= digitalPinToBitMask(DC);
  46:..\..\common\lib\nokia5110/LCD5110_Graph.c **** //	P_RST	= portOutputRegister(digitalPinToPort(RST));
  47:..\..\common\lib\nokia5110/LCD5110_Graph.c **** //	B_RST	= digitalPinToBitMask(RST);
  48:..\..\common\lib\nokia5110/LCD5110_Graph.c **** //	P_CS	= portOutputRegister(digitalPinToPort(CS));
  49:..\..\common\lib\nokia5110/LCD5110_Graph.c **** //	B_CS	= digitalPinToBitMask(CS);
  50:..\..\common\lib\nokia5110/LCD5110_Graph.c **** //	pinMode(SCK,OUTPUT);
  51:..\..\common\lib\nokia5110/LCD5110_Graph.c **** //	pinMode(MOSI,OUTPUT);
  52:..\..\common\lib\nokia5110/LCD5110_Graph.c **** //	pinMode(DC,OUTPUT);
  53:..\..\common\lib\nokia5110/LCD5110_Graph.c **** //	pinMode(RST,OUTPUT);
  54:..\..\common\lib\nokia5110/LCD5110_Graph.c **** //	pinMode(CS,OUTPUT);
  55:..\..\common\lib\nokia5110/LCD5110_Graph.c **** //	SCK_Pin=SCK;
  56:..\..\common\lib\nokia5110/LCD5110_Graph.c **** //	RST_Pin=RST;
  57:..\..\common\lib\nokia5110/LCD5110_Graph.c **** //}
  58:..\..\common\lib\nokia5110/LCD5110_Graph.c **** 
  59:..\..\common\lib\nokia5110/LCD5110_Graph.c **** void _LCD_Write(unsigned char data, unsigned char mode)
  60:..\..\common\lib\nokia5110/LCD5110_Graph.c **** {   
  92              		.loc 2 60 0
  93              		.cfi_startproc
  94              		@ args = 0, pretend = 0, frame = 8
  95              		@ frame_needed = 1, uses_anonymous_args = 0
  96 0000 80B5     		push	{r7, lr}
  97              		.cfi_def_cfa_offset 8
  98              		.cfi_offset 7, -8
  99              		.cfi_offset 14, -4
ARM GAS  C:\Users\Petro\AppData\Local\Temp\ccT7A2G2.s 			page 4


 100 0002 82B0     		sub	sp, sp, #8
 101              		.cfi_def_cfa_offset 16
 102 0004 00AF     		add	r7, sp, #0
 103              		.cfi_def_cfa_register 7
 104 0006 0200     		movs	r2, r0
 105 0008 FB1D     		adds	r3, r7, #7
 106 000a 1A70     		strb	r2, [r3]
 107 000c BB1D     		adds	r3, r7, #6
 108 000e 0A1C     		adds	r2, r1, #0
 109 0010 1A70     		strb	r2, [r3]
  61:..\..\common\lib\nokia5110/LCD5110_Graph.c ****     //cbi(P_CS, B_CS);
  62:..\..\common\lib\nokia5110/LCD5110_Graph.c **** 
  63:..\..\common\lib\nokia5110/LCD5110_Graph.c **** 	if (mode==LCD_COMMAND)
 110              		.loc 2 63 0
 111 0012 BB1D     		adds	r3, r7, #6
 112 0014 1B78     		ldrb	r3, [r3]
 113 0016 002B     		cmp	r3, #0
 114 0018 03D1     		bne	.L5
  64:..\..\common\lib\nokia5110/LCD5110_Graph.c **** 		//cbi(P_DC, B_DC);
  65:..\..\common\lib\nokia5110/LCD5110_Graph.c ****         DC_Write(0);
 115              		.loc 2 65 0
 116 001a 0020     		movs	r0, #0
 117 001c FFF7FEFF 		bl	DC_Write
 118 0020 02E0     		b	.L6
 119              	.L5:
  66:..\..\common\lib\nokia5110/LCD5110_Graph.c **** 	else
  67:..\..\common\lib\nokia5110/LCD5110_Graph.c **** 		//sbi(P_DC, B_DC);
  68:..\..\common\lib\nokia5110/LCD5110_Graph.c ****         DC_Write(1);
 120              		.loc 2 68 0
 121 0022 0120     		movs	r0, #1
 122 0024 FFF7FEFF 		bl	DC_Write
 123              	.L6:
  69:..\..\common\lib\nokia5110/LCD5110_Graph.c **** 
  70:..\..\common\lib\nokia5110/LCD5110_Graph.c **** //    char c;
  71:..\..\common\lib\nokia5110/LCD5110_Graph.c **** //	for (c=0; c<8; c++)
  72:..\..\common\lib\nokia5110/LCD5110_Graph.c **** //	{
  73:..\..\common\lib\nokia5110/LCD5110_Graph.c **** //		if (data & 0x80)
  74:..\..\common\lib\nokia5110/LCD5110_Graph.c **** //			sbi(P_MOSI, B_MOSI);
  75:..\..\common\lib\nokia5110/LCD5110_Graph.c **** //		else
  76:..\..\common\lib\nokia5110/LCD5110_Graph.c **** //			cbi(P_MOSI, B_MOSI);
  77:..\..\common\lib\nokia5110/LCD5110_Graph.c **** //		data = data<<1;
  78:..\..\common\lib\nokia5110/LCD5110_Graph.c **** //		pulseClock;
  79:..\..\common\lib\nokia5110/LCD5110_Graph.c **** //	}
  80:..\..\common\lib\nokia5110/LCD5110_Graph.c ****     //SPIM_WriteTxData(data);
  81:..\..\common\lib\nokia5110/LCD5110_Graph.c ****     CE_Write(0);
 124              		.loc 2 81 0
 125 0028 0020     		movs	r0, #0
 126 002a FFF7FEFF 		bl	CE_Write
  82:..\..\common\lib\nokia5110/LCD5110_Graph.c ****     SwSPI_Master_SendByte(data);
 127              		.loc 2 82 0
 128 002e FB1D     		adds	r3, r7, #7
 129 0030 1B78     		ldrb	r3, [r3]
 130 0032 1800     		movs	r0, r3
 131 0034 FFF7FEFF 		bl	SwSPI_Master_SendByte
  83:..\..\common\lib\nokia5110/LCD5110_Graph.c ****     CE_Write(1);
 132              		.loc 2 83 0
 133 0038 0120     		movs	r0, #1
ARM GAS  C:\Users\Petro\AppData\Local\Temp\ccT7A2G2.s 			page 5


 134 003a FFF7FEFF 		bl	CE_Write
  84:..\..\common\lib\nokia5110/LCD5110_Graph.c **** 
  85:..\..\common\lib\nokia5110/LCD5110_Graph.c **** 	//sbi(P_CS, B_CS);
  86:..\..\common\lib\nokia5110/LCD5110_Graph.c **** }
 135              		.loc 2 86 0
 136 003e C046     		nop
 137 0040 BD46     		mov	sp, r7
 138 0042 02B0     		add	sp, sp, #8
 139              		@ sp needed
 140 0044 80BD     		pop	{r7, pc}
 141              		.cfi_endproc
 142              	.LFE65:
 143              		.size	_LCD_Write, .-_LCD_Write
 144 0046 C046     		.section	.text.InitLCD,"ax",%progbits
 145              		.align	2
 146              		.global	InitLCD
 147              		.code	16
 148              		.thumb_func
 149              		.type	InitLCD, %function
 150              	InitLCD:
 151              	.LFB66:
  87:..\..\common\lib\nokia5110/LCD5110_Graph.c **** 
  88:..\..\common\lib\nokia5110/LCD5110_Graph.c **** void InitLCD(int contrast)
  89:..\..\common\lib\nokia5110/LCD5110_Graph.c **** {
 152              		.loc 2 89 0
 153              		.cfi_startproc
 154              		@ args = 0, pretend = 0, frame = 8
 155              		@ frame_needed = 1, uses_anonymous_args = 0
 156 0000 80B5     		push	{r7, lr}
 157              		.cfi_def_cfa_offset 8
 158              		.cfi_offset 7, -8
 159              		.cfi_offset 14, -4
 160 0002 82B0     		sub	sp, sp, #8
 161              		.cfi_def_cfa_offset 16
 162 0004 00AF     		add	r7, sp, #0
 163              		.cfi_def_cfa_register 7
 164 0006 7860     		str	r0, [r7, #4]
  90:..\..\common\lib\nokia5110/LCD5110_Graph.c ****     //SPIM_Start();
  91:..\..\common\lib\nokia5110/LCD5110_Graph.c ****     
  92:..\..\common\lib\nokia5110/LCD5110_Graph.c **** 	if (contrast>0x7F)
 165              		.loc 2 92 0
 166 0008 7B68     		ldr	r3, [r7, #4]
 167 000a 7F2B     		cmp	r3, #127
 168 000c 01DD     		ble	.L8
  93:..\..\common\lib\nokia5110/LCD5110_Graph.c **** 		contrast=0x7F;
 169              		.loc 2 93 0
 170 000e 7F23     		movs	r3, #127
 171 0010 7B60     		str	r3, [r7, #4]
 172              	.L8:
  94:..\..\common\lib\nokia5110/LCD5110_Graph.c **** 	if (contrast<0)
 173              		.loc 2 94 0
 174 0012 7B68     		ldr	r3, [r7, #4]
 175 0014 002B     		cmp	r3, #0
 176 0016 01DA     		bge	.L9
  95:..\..\common\lib\nokia5110/LCD5110_Graph.c **** 		contrast=0;
 177              		.loc 2 95 0
 178 0018 0023     		movs	r3, #0
ARM GAS  C:\Users\Petro\AppData\Local\Temp\ccT7A2G2.s 			page 6


 179 001a 7B60     		str	r3, [r7, #4]
 180              	.L9:
  96:..\..\common\lib\nokia5110/LCD5110_Graph.c **** 
  97:..\..\common\lib\nokia5110/LCD5110_Graph.c **** 	resetLCD;
 181              		.loc 2 97 0
 182 001c 0020     		movs	r0, #0
 183 001e FFF7FEFF 		bl	RST_Write
 184 0022 0120     		movs	r0, #1
 185 0024 FFF7FEFF 		bl	RST_Write
  98:..\..\common\lib\nokia5110/LCD5110_Graph.c **** 
  99:..\..\common\lib\nokia5110/LCD5110_Graph.c **** 	_LCD_Write(PCD8544_FUNCTIONSET | PCD8544_EXTENDEDINSTRUCTION, LCD_COMMAND);
 186              		.loc 2 99 0
 187 0028 0021     		movs	r1, #0
 188 002a 2120     		movs	r0, #33
 189 002c FFF7FEFF 		bl	_LCD_Write
 100:..\..\common\lib\nokia5110/LCD5110_Graph.c **** 	_LCD_Write(PCD8544_SETVOP | contrast, LCD_COMMAND);
 190              		.loc 2 100 0
 191 0030 7B68     		ldr	r3, [r7, #4]
 192 0032 5BB2     		sxtb	r3, r3
 193 0034 8022     		movs	r2, #128
 194 0036 5242     		rsbs	r2, r2, #0
 195 0038 1343     		orrs	r3, r2
 196 003a 5BB2     		sxtb	r3, r3
 197 003c DBB2     		uxtb	r3, r3
 198 003e 0021     		movs	r1, #0
 199 0040 1800     		movs	r0, r3
 200 0042 FFF7FEFF 		bl	_LCD_Write
 101:..\..\common\lib\nokia5110/LCD5110_Graph.c **** 	_LCD_Write(PCD8544_SETTEMP | LCD_TEMP, LCD_COMMAND);
 201              		.loc 2 101 0
 202 0046 0021     		movs	r1, #0
 203 0048 0620     		movs	r0, #6
 204 004a FFF7FEFF 		bl	_LCD_Write
 102:..\..\common\lib\nokia5110/LCD5110_Graph.c **** 	_LCD_Write(PCD8544_SETBIAS | LCD_BIAS, LCD_COMMAND);
 205              		.loc 2 102 0
 206 004e 0021     		movs	r1, #0
 207 0050 1320     		movs	r0, #19
 208 0052 FFF7FEFF 		bl	_LCD_Write
 103:..\..\common\lib\nokia5110/LCD5110_Graph.c **** 	_LCD_Write(PCD8544_FUNCTIONSET, LCD_COMMAND);
 209              		.loc 2 103 0
 210 0056 0021     		movs	r1, #0
 211 0058 2020     		movs	r0, #32
 212 005a FFF7FEFF 		bl	_LCD_Write
 104:..\..\common\lib\nokia5110/LCD5110_Graph.c **** 	_LCD_Write(PCD8544_SETYADDR, LCD_COMMAND);
 213              		.loc 2 104 0
 214 005e 0021     		movs	r1, #0
 215 0060 4020     		movs	r0, #64
 216 0062 FFF7FEFF 		bl	_LCD_Write
 105:..\..\common\lib\nokia5110/LCD5110_Graph.c **** 	_LCD_Write(PCD8544_SETXADDR, LCD_COMMAND);
 217              		.loc 2 105 0
 218 0066 0021     		movs	r1, #0
 219 0068 8020     		movs	r0, #128
 220 006a FFF7FEFF 		bl	_LCD_Write
 106:..\..\common\lib\nokia5110/LCD5110_Graph.c **** 	_LCD_Write(PCD8544_DISPLAYCONTROL | PCD8544_DISPLAYNORMAL, LCD_COMMAND);
 221              		.loc 2 106 0
 222 006e 0021     		movs	r1, #0
 223 0070 0C20     		movs	r0, #12
 224 0072 FFF7FEFF 		bl	_LCD_Write
ARM GAS  C:\Users\Petro\AppData\Local\Temp\ccT7A2G2.s 			page 7


 107:..\..\common\lib\nokia5110/LCD5110_Graph.c **** 
 108:..\..\common\lib\nokia5110/LCD5110_Graph.c **** 	clrScr();
 225              		.loc 2 108 0
 226 0076 FFF7FEFF 		bl	clrScr
 109:..\..\common\lib\nokia5110/LCD5110_Graph.c **** 	update();
 227              		.loc 2 109 0
 228 007a FFF7FEFF 		bl	update
 110:..\..\common\lib\nokia5110/LCD5110_Graph.c **** 	cfont.font=0;
 229              		.loc 2 110 0
 230 007e 064B     		ldr	r3, .L10
 231 0080 0022     		movs	r2, #0
 232 0082 1A60     		str	r2, [r3]
 111:..\..\common\lib\nokia5110/LCD5110_Graph.c **** 	_sleep=false;
 233              		.loc 2 111 0
 234 0084 054B     		ldr	r3, .L10+4
 235 0086 0022     		movs	r2, #0
 236 0088 1A70     		strb	r2, [r3]
 112:..\..\common\lib\nokia5110/LCD5110_Graph.c **** 	_contrast=contrast;
 237              		.loc 2 112 0
 238 008a 054B     		ldr	r3, .L10+8
 239 008c 7A68     		ldr	r2, [r7, #4]
 240 008e 1A60     		str	r2, [r3]
 113:..\..\common\lib\nokia5110/LCD5110_Graph.c **** }
 241              		.loc 2 113 0
 242 0090 C046     		nop
 243 0092 BD46     		mov	sp, r7
 244 0094 02B0     		add	sp, sp, #8
 245              		@ sp needed
 246 0096 80BD     		pop	{r7, pc}
 247              	.L11:
 248              		.align	2
 249              	.L10:
 250 0098 00000000 		.word	cfont
 251 009c 00000000 		.word	_sleep
 252 00a0 00000000 		.word	_contrast
 253              		.cfi_endproc
 254              	.LFE66:
 255              		.size	InitLCD, .-InitLCD
 256              		.section	.text.setContrast,"ax",%progbits
 257              		.align	2
 258              		.global	setContrast
 259              		.code	16
 260              		.thumb_func
 261              		.type	setContrast, %function
 262              	setContrast:
 263              	.LFB67:
 114:..\..\common\lib\nokia5110/LCD5110_Graph.c **** 
 115:..\..\common\lib\nokia5110/LCD5110_Graph.c **** void setContrast(int contrast)
 116:..\..\common\lib\nokia5110/LCD5110_Graph.c **** {
 264              		.loc 2 116 0
 265              		.cfi_startproc
 266              		@ args = 0, pretend = 0, frame = 8
 267              		@ frame_needed = 1, uses_anonymous_args = 0
 268 0000 80B5     		push	{r7, lr}
 269              		.cfi_def_cfa_offset 8
 270              		.cfi_offset 7, -8
 271              		.cfi_offset 14, -4
ARM GAS  C:\Users\Petro\AppData\Local\Temp\ccT7A2G2.s 			page 8


 272 0002 82B0     		sub	sp, sp, #8
 273              		.cfi_def_cfa_offset 16
 274 0004 00AF     		add	r7, sp, #0
 275              		.cfi_def_cfa_register 7
 276 0006 7860     		str	r0, [r7, #4]
 117:..\..\common\lib\nokia5110/LCD5110_Graph.c **** 	if (contrast>0x7F)
 277              		.loc 2 117 0
 278 0008 7B68     		ldr	r3, [r7, #4]
 279 000a 7F2B     		cmp	r3, #127
 280 000c 01DD     		ble	.L13
 118:..\..\common\lib\nokia5110/LCD5110_Graph.c **** 		contrast=0x7F;
 281              		.loc 2 118 0
 282 000e 7F23     		movs	r3, #127
 283 0010 7B60     		str	r3, [r7, #4]
 284              	.L13:
 119:..\..\common\lib\nokia5110/LCD5110_Graph.c **** 	if (contrast<0)
 285              		.loc 2 119 0
 286 0012 7B68     		ldr	r3, [r7, #4]
 287 0014 002B     		cmp	r3, #0
 288 0016 01DA     		bge	.L14
 120:..\..\common\lib\nokia5110/LCD5110_Graph.c **** 		contrast=0;
 289              		.loc 2 120 0
 290 0018 0023     		movs	r3, #0
 291 001a 7B60     		str	r3, [r7, #4]
 292              	.L14:
 121:..\..\common\lib\nokia5110/LCD5110_Graph.c **** 	_LCD_Write(PCD8544_FUNCTIONSET | PCD8544_EXTENDEDINSTRUCTION, LCD_COMMAND);
 293              		.loc 2 121 0
 294 001c 0021     		movs	r1, #0
 295 001e 2120     		movs	r0, #33
 296 0020 FFF7FEFF 		bl	_LCD_Write
 122:..\..\common\lib\nokia5110/LCD5110_Graph.c **** 	_LCD_Write(PCD8544_SETVOP | contrast, LCD_COMMAND);
 297              		.loc 2 122 0
 298 0024 7B68     		ldr	r3, [r7, #4]
 299 0026 5BB2     		sxtb	r3, r3
 300 0028 8022     		movs	r2, #128
 301 002a 5242     		rsbs	r2, r2, #0
 302 002c 1343     		orrs	r3, r2
 303 002e 5BB2     		sxtb	r3, r3
 304 0030 DBB2     		uxtb	r3, r3
 305 0032 0021     		movs	r1, #0
 306 0034 1800     		movs	r0, r3
 307 0036 FFF7FEFF 		bl	_LCD_Write
 123:..\..\common\lib\nokia5110/LCD5110_Graph.c **** 	_LCD_Write(PCD8544_FUNCTIONSET, LCD_COMMAND);
 308              		.loc 2 123 0
 309 003a 0021     		movs	r1, #0
 310 003c 2020     		movs	r0, #32
 311 003e FFF7FEFF 		bl	_LCD_Write
 124:..\..\common\lib\nokia5110/LCD5110_Graph.c **** 	_contrast=contrast;
 312              		.loc 2 124 0
 313 0042 034B     		ldr	r3, .L15
 314 0044 7A68     		ldr	r2, [r7, #4]
 315 0046 1A60     		str	r2, [r3]
 125:..\..\common\lib\nokia5110/LCD5110_Graph.c **** }
 316              		.loc 2 125 0
 317 0048 C046     		nop
 318 004a BD46     		mov	sp, r7
 319 004c 02B0     		add	sp, sp, #8
ARM GAS  C:\Users\Petro\AppData\Local\Temp\ccT7A2G2.s 			page 9


 320              		@ sp needed
 321 004e 80BD     		pop	{r7, pc}
 322              	.L16:
 323              		.align	2
 324              	.L15:
 325 0050 00000000 		.word	_contrast
 326              		.cfi_endproc
 327              	.LFE67:
 328              		.size	setContrast, .-setContrast
 329              		.section	.text.enableSleep,"ax",%progbits
 330              		.align	2
 331              		.global	enableSleep
 332              		.code	16
 333              		.thumb_func
 334              		.type	enableSleep, %function
 335              	enableSleep:
 336              	.LFB68:
 126:..\..\common\lib\nokia5110/LCD5110_Graph.c **** 
 127:..\..\common\lib\nokia5110/LCD5110_Graph.c **** void enableSleep()
 128:..\..\common\lib\nokia5110/LCD5110_Graph.c **** {
 337              		.loc 2 128 0
 338              		.cfi_startproc
 339              		@ args = 0, pretend = 0, frame = 8
 340              		@ frame_needed = 1, uses_anonymous_args = 0
 341 0000 80B5     		push	{r7, lr}
 342              		.cfi_def_cfa_offset 8
 343              		.cfi_offset 7, -8
 344              		.cfi_offset 14, -4
 345 0002 82B0     		sub	sp, sp, #8
 346              		.cfi_def_cfa_offset 16
 347 0004 00AF     		add	r7, sp, #0
 348              		.cfi_def_cfa_register 7
 129:..\..\common\lib\nokia5110/LCD5110_Graph.c **** 	_sleep = true;
 349              		.loc 2 129 0
 350 0006 114B     		ldr	r3, .L20
 351 0008 0122     		movs	r2, #1
 352 000a 1A70     		strb	r2, [r3]
 130:..\..\common\lib\nokia5110/LCD5110_Graph.c **** 	_LCD_Write(PCD8544_SETYADDR, LCD_COMMAND);
 353              		.loc 2 130 0
 354 000c 0021     		movs	r1, #0
 355 000e 4020     		movs	r0, #64
 356 0010 FFF7FEFF 		bl	_LCD_Write
 131:..\..\common\lib\nokia5110/LCD5110_Graph.c **** 	_LCD_Write(PCD8544_SETXADDR, LCD_COMMAND);
 357              		.loc 2 131 0
 358 0014 0021     		movs	r1, #0
 359 0016 8020     		movs	r0, #128
 360 0018 FFF7FEFF 		bl	_LCD_Write
 132:..\..\common\lib\nokia5110/LCD5110_Graph.c ****     int b;
 133:..\..\common\lib\nokia5110/LCD5110_Graph.c **** 	for (b=0; b<504; b++)
 361              		.loc 2 133 0
 362 001c 0023     		movs	r3, #0
 363 001e 7B60     		str	r3, [r7, #4]
 364 0020 06E0     		b	.L18
 365              	.L19:
 134:..\..\common\lib\nokia5110/LCD5110_Graph.c **** 		_LCD_Write(0, LCD_DATA);
 366              		.loc 2 134 0 discriminator 3
 367 0022 0121     		movs	r1, #1
ARM GAS  C:\Users\Petro\AppData\Local\Temp\ccT7A2G2.s 			page 10


 368 0024 0020     		movs	r0, #0
 369 0026 FFF7FEFF 		bl	_LCD_Write
 133:..\..\common\lib\nokia5110/LCD5110_Graph.c **** 		_LCD_Write(0, LCD_DATA);
 370              		.loc 2 133 0 discriminator 3
 371 002a 7B68     		ldr	r3, [r7, #4]
 372 002c 0133     		adds	r3, r3, #1
 373 002e 7B60     		str	r3, [r7, #4]
 374              	.L18:
 133:..\..\common\lib\nokia5110/LCD5110_Graph.c **** 		_LCD_Write(0, LCD_DATA);
 375              		.loc 2 133 0 is_stmt 0 discriminator 1
 376 0030 7A68     		ldr	r2, [r7, #4]
 377 0032 F823     		movs	r3, #248
 378 0034 FF33     		adds	r3, r3, #255
 379 0036 9A42     		cmp	r2, r3
 380 0038 F3DD     		ble	.L19
 135:..\..\common\lib\nokia5110/LCD5110_Graph.c **** 	_LCD_Write(PCD8544_FUNCTIONSET | PCD8544_POWERDOWN, LCD_COMMAND);
 381              		.loc 2 135 0 is_stmt 1
 382 003a 0021     		movs	r1, #0
 383 003c 2420     		movs	r0, #36
 384 003e FFF7FEFF 		bl	_LCD_Write
 136:..\..\common\lib\nokia5110/LCD5110_Graph.c **** }
 385              		.loc 2 136 0
 386 0042 C046     		nop
 387 0044 BD46     		mov	sp, r7
 388 0046 02B0     		add	sp, sp, #8
 389              		@ sp needed
 390 0048 80BD     		pop	{r7, pc}
 391              	.L21:
 392 004a C046     		.align	2
 393              	.L20:
 394 004c 00000000 		.word	_sleep
 395              		.cfi_endproc
 396              	.LFE68:
 397              		.size	enableSleep, .-enableSleep
 398              		.section	.text.disableSleep,"ax",%progbits
 399              		.align	2
 400              		.global	disableSleep
 401              		.code	16
 402              		.thumb_func
 403              		.type	disableSleep, %function
 404              	disableSleep:
 405              	.LFB69:
 137:..\..\common\lib\nokia5110/LCD5110_Graph.c **** 
 138:..\..\common\lib\nokia5110/LCD5110_Graph.c **** void disableSleep()
 139:..\..\common\lib\nokia5110/LCD5110_Graph.c **** {
 406              		.loc 2 139 0
 407              		.cfi_startproc
 408              		@ args = 0, pretend = 0, frame = 0
 409              		@ frame_needed = 1, uses_anonymous_args = 0
 410 0000 80B5     		push	{r7, lr}
 411              		.cfi_def_cfa_offset 8
 412              		.cfi_offset 7, -8
 413              		.cfi_offset 14, -4
 414 0002 00AF     		add	r7, sp, #0
 415              		.cfi_def_cfa_register 7
 140:..\..\common\lib\nokia5110/LCD5110_Graph.c **** 	_sleep = false;
 416              		.loc 2 140 0
ARM GAS  C:\Users\Petro\AppData\Local\Temp\ccT7A2G2.s 			page 11


 417 0004 134B     		ldr	r3, .L23
 418 0006 0022     		movs	r2, #0
 419 0008 1A70     		strb	r2, [r3]
 141:..\..\common\lib\nokia5110/LCD5110_Graph.c **** 	_LCD_Write(PCD8544_FUNCTIONSET | PCD8544_EXTENDEDINSTRUCTION, LCD_COMMAND);
 420              		.loc 2 141 0
 421 000a 0021     		movs	r1, #0
 422 000c 2120     		movs	r0, #33
 423 000e FFF7FEFF 		bl	_LCD_Write
 142:..\..\common\lib\nokia5110/LCD5110_Graph.c **** 	_LCD_Write(PCD8544_SETVOP | _contrast, LCD_COMMAND);
 424              		.loc 2 142 0
 425 0012 114B     		ldr	r3, .L23+4
 426 0014 1B68     		ldr	r3, [r3]
 427 0016 5BB2     		sxtb	r3, r3
 428 0018 8022     		movs	r2, #128
 429 001a 5242     		rsbs	r2, r2, #0
 430 001c 1343     		orrs	r3, r2
 431 001e 5BB2     		sxtb	r3, r3
 432 0020 DBB2     		uxtb	r3, r3
 433 0022 0021     		movs	r1, #0
 434 0024 1800     		movs	r0, r3
 435 0026 FFF7FEFF 		bl	_LCD_Write
 143:..\..\common\lib\nokia5110/LCD5110_Graph.c **** 	_LCD_Write(PCD8544_SETTEMP | LCD_TEMP, LCD_COMMAND);
 436              		.loc 2 143 0
 437 002a 0021     		movs	r1, #0
 438 002c 0620     		movs	r0, #6
 439 002e FFF7FEFF 		bl	_LCD_Write
 144:..\..\common\lib\nokia5110/LCD5110_Graph.c **** 	_LCD_Write(PCD8544_SETBIAS | LCD_BIAS, LCD_COMMAND);
 440              		.loc 2 144 0
 441 0032 0021     		movs	r1, #0
 442 0034 1320     		movs	r0, #19
 443 0036 FFF7FEFF 		bl	_LCD_Write
 145:..\..\common\lib\nokia5110/LCD5110_Graph.c **** 	_LCD_Write(PCD8544_FUNCTIONSET, LCD_COMMAND);
 444              		.loc 2 145 0
 445 003a 0021     		movs	r1, #0
 446 003c 2020     		movs	r0, #32
 447 003e FFF7FEFF 		bl	_LCD_Write
 146:..\..\common\lib\nokia5110/LCD5110_Graph.c **** 	_LCD_Write(PCD8544_DISPLAYCONTROL | PCD8544_DISPLAYNORMAL, LCD_COMMAND);
 448              		.loc 2 146 0
 449 0042 0021     		movs	r1, #0
 450 0044 0C20     		movs	r0, #12
 451 0046 FFF7FEFF 		bl	_LCD_Write
 147:..\..\common\lib\nokia5110/LCD5110_Graph.c **** 	update();
 452              		.loc 2 147 0
 453 004a FFF7FEFF 		bl	update
 148:..\..\common\lib\nokia5110/LCD5110_Graph.c **** }
 454              		.loc 2 148 0
 455 004e C046     		nop
 456 0050 BD46     		mov	sp, r7
 457              		@ sp needed
 458 0052 80BD     		pop	{r7, pc}
 459              	.L24:
 460              		.align	2
 461              	.L23:
 462 0054 00000000 		.word	_sleep
 463 0058 00000000 		.word	_contrast
 464              		.cfi_endproc
 465              	.LFE69:
ARM GAS  C:\Users\Petro\AppData\Local\Temp\ccT7A2G2.s 			page 12


 466              		.size	disableSleep, .-disableSleep
 467              		.section	.text.update,"ax",%progbits
 468              		.align	2
 469              		.global	update
 470              		.code	16
 471              		.thumb_func
 472              		.type	update, %function
 473              	update:
 474              	.LFB70:
 149:..\..\common\lib\nokia5110/LCD5110_Graph.c **** 
 150:..\..\common\lib\nokia5110/LCD5110_Graph.c **** void update()
 151:..\..\common\lib\nokia5110/LCD5110_Graph.c **** {
 475              		.loc 2 151 0
 476              		.cfi_startproc
 477              		@ args = 0, pretend = 0, frame = 8
 478              		@ frame_needed = 1, uses_anonymous_args = 0
 479 0000 80B5     		push	{r7, lr}
 480              		.cfi_def_cfa_offset 8
 481              		.cfi_offset 7, -8
 482              		.cfi_offset 14, -4
 483 0002 82B0     		sub	sp, sp, #8
 484              		.cfi_def_cfa_offset 16
 485 0004 00AF     		add	r7, sp, #0
 486              		.cfi_def_cfa_register 7
 152:..\..\common\lib\nokia5110/LCD5110_Graph.c **** 	if (_sleep==false)
 487              		.loc 2 152 0
 488 0006 134B     		ldr	r3, .L30
 489 0008 1B78     		ldrb	r3, [r3]
 490 000a 0122     		movs	r2, #1
 491 000c 5340     		eors	r3, r2
 492 000e DBB2     		uxtb	r3, r3
 493 0010 002B     		cmp	r3, #0
 494 0012 1AD0     		beq	.L29
 495              	.LBB2:
 153:..\..\common\lib\nokia5110/LCD5110_Graph.c **** 	{
 154:..\..\common\lib\nokia5110/LCD5110_Graph.c **** 		_LCD_Write(PCD8544_SETYADDR, LCD_COMMAND);
 496              		.loc 2 154 0
 497 0014 0021     		movs	r1, #0
 498 0016 4020     		movs	r0, #64
 499 0018 FFF7FEFF 		bl	_LCD_Write
 155:..\..\common\lib\nokia5110/LCD5110_Graph.c **** 		_LCD_Write(PCD8544_SETXADDR, LCD_COMMAND);
 500              		.loc 2 155 0
 501 001c 0021     		movs	r1, #0
 502 001e 8020     		movs	r0, #128
 503 0020 FFF7FEFF 		bl	_LCD_Write
 156:..\..\common\lib\nokia5110/LCD5110_Graph.c ****         int b;
 157:..\..\common\lib\nokia5110/LCD5110_Graph.c **** 		for (b=0; b<504; b++)
 504              		.loc 2 157 0
 505 0024 0023     		movs	r3, #0
 506 0026 7B60     		str	r3, [r7, #4]
 507 0028 0AE0     		b	.L27
 508              	.L28:
 158:..\..\common\lib\nokia5110/LCD5110_Graph.c **** 			_LCD_Write(scrbuf[b], LCD_DATA);
 509              		.loc 2 158 0 discriminator 3
 510 002a 0B4A     		ldr	r2, .L30+4
 511 002c 7B68     		ldr	r3, [r7, #4]
 512 002e D318     		adds	r3, r2, r3
ARM GAS  C:\Users\Petro\AppData\Local\Temp\ccT7A2G2.s 			page 13


 513 0030 1B78     		ldrb	r3, [r3]
 514 0032 0121     		movs	r1, #1
 515 0034 1800     		movs	r0, r3
 516 0036 FFF7FEFF 		bl	_LCD_Write
 157:..\..\common\lib\nokia5110/LCD5110_Graph.c **** 			_LCD_Write(scrbuf[b], LCD_DATA);
 517              		.loc 2 157 0 discriminator 3
 518 003a 7B68     		ldr	r3, [r7, #4]
 519 003c 0133     		adds	r3, r3, #1
 520 003e 7B60     		str	r3, [r7, #4]
 521              	.L27:
 157:..\..\common\lib\nokia5110/LCD5110_Graph.c **** 			_LCD_Write(scrbuf[b], LCD_DATA);
 522              		.loc 2 157 0 is_stmt 0 discriminator 1
 523 0040 7A68     		ldr	r2, [r7, #4]
 524 0042 F823     		movs	r3, #248
 525 0044 FF33     		adds	r3, r3, #255
 526 0046 9A42     		cmp	r2, r3
 527 0048 EFDD     		ble	.L28
 528              	.L29:
 529              	.LBE2:
 159:..\..\common\lib\nokia5110/LCD5110_Graph.c **** 	}
 160:..\..\common\lib\nokia5110/LCD5110_Graph.c **** }
 530              		.loc 2 160 0 is_stmt 1
 531 004a C046     		nop
 532 004c BD46     		mov	sp, r7
 533 004e 02B0     		add	sp, sp, #8
 534              		@ sp needed
 535 0050 80BD     		pop	{r7, pc}
 536              	.L31:
 537 0052 C046     		.align	2
 538              	.L30:
 539 0054 00000000 		.word	_sleep
 540 0058 00000000 		.word	scrbuf
 541              		.cfi_endproc
 542              	.LFE70:
 543              		.size	update, .-update
 544              		.section	.text.clrScr,"ax",%progbits
 545              		.align	2
 546              		.global	clrScr
 547              		.code	16
 548              		.thumb_func
 549              		.type	clrScr, %function
 550              	clrScr:
 551              	.LFB71:
 161:..\..\common\lib\nokia5110/LCD5110_Graph.c **** 
 162:..\..\common\lib\nokia5110/LCD5110_Graph.c **** void clrScr()
 163:..\..\common\lib\nokia5110/LCD5110_Graph.c **** {
 552              		.loc 2 163 0
 553              		.cfi_startproc
 554              		@ args = 0, pretend = 0, frame = 8
 555              		@ frame_needed = 1, uses_anonymous_args = 0
 556 0000 80B5     		push	{r7, lr}
 557              		.cfi_def_cfa_offset 8
 558              		.cfi_offset 7, -8
 559              		.cfi_offset 14, -4
 560 0002 82B0     		sub	sp, sp, #8
 561              		.cfi_def_cfa_offset 16
 562 0004 00AF     		add	r7, sp, #0
ARM GAS  C:\Users\Petro\AppData\Local\Temp\ccT7A2G2.s 			page 14


 563              		.cfi_def_cfa_register 7
 164:..\..\common\lib\nokia5110/LCD5110_Graph.c ****     int c;
 165:..\..\common\lib\nokia5110/LCD5110_Graph.c **** 	for (c=0; c<504; c++)
 564              		.loc 2 165 0
 565 0006 0023     		movs	r3, #0
 566 0008 7B60     		str	r3, [r7, #4]
 567 000a 07E0     		b	.L33
 568              	.L34:
 166:..\..\common\lib\nokia5110/LCD5110_Graph.c **** 		scrbuf[c]=0;
 569              		.loc 2 166 0 discriminator 3
 570 000c 084A     		ldr	r2, .L35
 571 000e 7B68     		ldr	r3, [r7, #4]
 572 0010 D318     		adds	r3, r2, r3
 573 0012 0022     		movs	r2, #0
 574 0014 1A70     		strb	r2, [r3]
 165:..\..\common\lib\nokia5110/LCD5110_Graph.c **** 		scrbuf[c]=0;
 575              		.loc 2 165 0 discriminator 3
 576 0016 7B68     		ldr	r3, [r7, #4]
 577 0018 0133     		adds	r3, r3, #1
 578 001a 7B60     		str	r3, [r7, #4]
 579              	.L33:
 165:..\..\common\lib\nokia5110/LCD5110_Graph.c **** 		scrbuf[c]=0;
 580              		.loc 2 165 0 is_stmt 0 discriminator 1
 581 001c 7A68     		ldr	r2, [r7, #4]
 582 001e F823     		movs	r3, #248
 583 0020 FF33     		adds	r3, r3, #255
 584 0022 9A42     		cmp	r2, r3
 585 0024 F2DD     		ble	.L34
 167:..\..\common\lib\nokia5110/LCD5110_Graph.c **** }
 586              		.loc 2 167 0 is_stmt 1
 587 0026 C046     		nop
 588 0028 BD46     		mov	sp, r7
 589 002a 02B0     		add	sp, sp, #8
 590              		@ sp needed
 591 002c 80BD     		pop	{r7, pc}
 592              	.L36:
 593 002e C046     		.align	2
 594              	.L35:
 595 0030 00000000 		.word	scrbuf
 596              		.cfi_endproc
 597              	.LFE71:
 598              		.size	clrScr, .-clrScr
 599              		.section	.text.fillScr,"ax",%progbits
 600              		.align	2
 601              		.global	fillScr
 602              		.code	16
 603              		.thumb_func
 604              		.type	fillScr, %function
 605              	fillScr:
 606              	.LFB72:
 168:..\..\common\lib\nokia5110/LCD5110_Graph.c **** 
 169:..\..\common\lib\nokia5110/LCD5110_Graph.c **** void fillScr()
 170:..\..\common\lib\nokia5110/LCD5110_Graph.c **** {
 607              		.loc 2 170 0
 608              		.cfi_startproc
 609              		@ args = 0, pretend = 0, frame = 8
 610              		@ frame_needed = 1, uses_anonymous_args = 0
ARM GAS  C:\Users\Petro\AppData\Local\Temp\ccT7A2G2.s 			page 15


 611 0000 80B5     		push	{r7, lr}
 612              		.cfi_def_cfa_offset 8
 613              		.cfi_offset 7, -8
 614              		.cfi_offset 14, -4
 615 0002 82B0     		sub	sp, sp, #8
 616              		.cfi_def_cfa_offset 16
 617 0004 00AF     		add	r7, sp, #0
 618              		.cfi_def_cfa_register 7
 171:..\..\common\lib\nokia5110/LCD5110_Graph.c ****     int c;
 172:..\..\common\lib\nokia5110/LCD5110_Graph.c **** 	for (c=0; c<504; c++)
 619              		.loc 2 172 0
 620 0006 0023     		movs	r3, #0
 621 0008 7B60     		str	r3, [r7, #4]
 622 000a 07E0     		b	.L38
 623              	.L39:
 173:..\..\common\lib\nokia5110/LCD5110_Graph.c **** 		scrbuf[c]=255;
 624              		.loc 2 173 0 discriminator 3
 625 000c 084A     		ldr	r2, .L40
 626 000e 7B68     		ldr	r3, [r7, #4]
 627 0010 D318     		adds	r3, r2, r3
 628 0012 FF22     		movs	r2, #255
 629 0014 1A70     		strb	r2, [r3]
 172:..\..\common\lib\nokia5110/LCD5110_Graph.c **** 		scrbuf[c]=255;
 630              		.loc 2 172 0 discriminator 3
 631 0016 7B68     		ldr	r3, [r7, #4]
 632 0018 0133     		adds	r3, r3, #1
 633 001a 7B60     		str	r3, [r7, #4]
 634              	.L38:
 172:..\..\common\lib\nokia5110/LCD5110_Graph.c **** 		scrbuf[c]=255;
 635              		.loc 2 172 0 is_stmt 0 discriminator 1
 636 001c 7A68     		ldr	r2, [r7, #4]
 637 001e F823     		movs	r3, #248
 638 0020 FF33     		adds	r3, r3, #255
 639 0022 9A42     		cmp	r2, r3
 640 0024 F2DD     		ble	.L39
 174:..\..\common\lib\nokia5110/LCD5110_Graph.c **** }
 641              		.loc 2 174 0 is_stmt 1
 642 0026 C046     		nop
 643 0028 BD46     		mov	sp, r7
 644 002a 02B0     		add	sp, sp, #8
 645              		@ sp needed
 646 002c 80BD     		pop	{r7, pc}
 647              	.L41:
 648 002e C046     		.align	2
 649              	.L40:
 650 0030 00000000 		.word	scrbuf
 651              		.cfi_endproc
 652              	.LFE72:
 653              		.size	fillScr, .-fillScr
 654              		.section	.text.invert,"ax",%progbits
 655              		.align	2
 656              		.global	invert
 657              		.code	16
 658              		.thumb_func
 659              		.type	invert, %function
 660              	invert:
 661              	.LFB73:
ARM GAS  C:\Users\Petro\AppData\Local\Temp\ccT7A2G2.s 			page 16


 175:..\..\common\lib\nokia5110/LCD5110_Graph.c **** 
 176:..\..\common\lib\nokia5110/LCD5110_Graph.c **** void invert(bool mode)
 177:..\..\common\lib\nokia5110/LCD5110_Graph.c **** {
 662              		.loc 2 177 0
 663              		.cfi_startproc
 664              		@ args = 0, pretend = 0, frame = 8
 665              		@ frame_needed = 1, uses_anonymous_args = 0
 666 0000 80B5     		push	{r7, lr}
 667              		.cfi_def_cfa_offset 8
 668              		.cfi_offset 7, -8
 669              		.cfi_offset 14, -4
 670 0002 82B0     		sub	sp, sp, #8
 671              		.cfi_def_cfa_offset 16
 672 0004 00AF     		add	r7, sp, #0
 673              		.cfi_def_cfa_register 7
 674 0006 0200     		movs	r2, r0
 675 0008 FB1D     		adds	r3, r7, #7
 676 000a 1A70     		strb	r2, [r3]
 178:..\..\common\lib\nokia5110/LCD5110_Graph.c **** 	if (mode==true)
 677              		.loc 2 178 0
 678 000c FB1D     		adds	r3, r7, #7
 679 000e 1B78     		ldrb	r3, [r3]
 680 0010 002B     		cmp	r3, #0
 681 0012 04D0     		beq	.L43
 179:..\..\common\lib\nokia5110/LCD5110_Graph.c **** 		_LCD_Write(PCD8544_DISPLAYCONTROL | PCD8544_DISPLAYINVERTED, LCD_COMMAND);
 682              		.loc 2 179 0
 683 0014 0021     		movs	r1, #0
 684 0016 0D20     		movs	r0, #13
 685 0018 FFF7FEFF 		bl	_LCD_Write
 180:..\..\common\lib\nokia5110/LCD5110_Graph.c **** 	else
 181:..\..\common\lib\nokia5110/LCD5110_Graph.c **** 		_LCD_Write(PCD8544_DISPLAYCONTROL | PCD8544_DISPLAYNORMAL, LCD_COMMAND);
 182:..\..\common\lib\nokia5110/LCD5110_Graph.c **** }
 686              		.loc 2 182 0
 687 001c 03E0     		b	.L45
 688              	.L43:
 181:..\..\common\lib\nokia5110/LCD5110_Graph.c **** }
 689              		.loc 2 181 0
 690 001e 0021     		movs	r1, #0
 691 0020 0C20     		movs	r0, #12
 692 0022 FFF7FEFF 		bl	_LCD_Write
 693              	.L45:
 694              		.loc 2 182 0
 695 0026 C046     		nop
 696 0028 BD46     		mov	sp, r7
 697 002a 02B0     		add	sp, sp, #8
 698              		@ sp needed
 699 002c 80BD     		pop	{r7, pc}
 700              		.cfi_endproc
 701              	.LFE73:
 702              		.size	invert, .-invert
 703 002e C046     		.section	.text.setPixel,"ax",%progbits
 704              		.align	2
 705              		.global	setPixel
 706              		.code	16
 707              		.thumb_func
 708              		.type	setPixel, %function
 709              	setPixel:
ARM GAS  C:\Users\Petro\AppData\Local\Temp\ccT7A2G2.s 			page 17


 710              	.LFB74:
 183:..\..\common\lib\nokia5110/LCD5110_Graph.c **** 
 184:..\..\common\lib\nokia5110/LCD5110_Graph.c **** void setPixel(uint16_t x, uint16_t y)
 185:..\..\common\lib\nokia5110/LCD5110_Graph.c **** {
 711              		.loc 2 185 0
 712              		.cfi_startproc
 713              		@ args = 0, pretend = 0, frame = 16
 714              		@ frame_needed = 1, uses_anonymous_args = 0
 715 0000 80B5     		push	{r7, lr}
 716              		.cfi_def_cfa_offset 8
 717              		.cfi_offset 7, -8
 718              		.cfi_offset 14, -4
 719 0002 84B0     		sub	sp, sp, #16
 720              		.cfi_def_cfa_offset 24
 721 0004 00AF     		add	r7, sp, #0
 722              		.cfi_def_cfa_register 7
 723 0006 0200     		movs	r2, r0
 724 0008 BB1D     		adds	r3, r7, #6
 725 000a 1A80     		strh	r2, [r3]
 726 000c 3B1D     		adds	r3, r7, #4
 727 000e 0A1C     		adds	r2, r1, #0
 728 0010 1A80     		strh	r2, [r3]
 186:..\..\common\lib\nokia5110/LCD5110_Graph.c **** 	int by, bi;
 187:..\..\common\lib\nokia5110/LCD5110_Graph.c **** 
 188:..\..\common\lib\nokia5110/LCD5110_Graph.c **** 	if ((x>=0) && (x<84) && (y>=0) && (y<48))
 729              		.loc 2 188 0
 730 0012 BB1D     		adds	r3, r7, #6
 731 0014 1B88     		ldrh	r3, [r3]
 732 0016 532B     		cmp	r3, #83
 733 0018 25D8     		bhi	.L48
 734              		.loc 2 188 0 is_stmt 0 discriminator 1
 735 001a 3B1D     		adds	r3, r7, #4
 736 001c 1B88     		ldrh	r3, [r3]
 737 001e 2F2B     		cmp	r3, #47
 738 0020 21D8     		bhi	.L48
 189:..\..\common\lib\nokia5110/LCD5110_Graph.c **** 	{
 190:..\..\common\lib\nokia5110/LCD5110_Graph.c **** 		by=((y/8)*84)+x;
 739              		.loc 2 190 0 is_stmt 1
 740 0022 3B1D     		adds	r3, r7, #4
 741 0024 1B88     		ldrh	r3, [r3]
 742 0026 DB08     		lsrs	r3, r3, #3
 743 0028 9BB2     		uxth	r3, r3
 744 002a 1A00     		movs	r2, r3
 745 002c 5423     		movs	r3, #84
 746 002e 5A43     		muls	r2, r3
 747 0030 BB1D     		adds	r3, r7, #6
 748 0032 1B88     		ldrh	r3, [r3]
 749 0034 D318     		adds	r3, r2, r3
 750 0036 FB60     		str	r3, [r7, #12]
 191:..\..\common\lib\nokia5110/LCD5110_Graph.c **** 		bi=y % 8;
 751              		.loc 2 191 0
 752 0038 3B1D     		adds	r3, r7, #4
 753 003a 1B88     		ldrh	r3, [r3]
 754 003c 0722     		movs	r2, #7
 755 003e 1340     		ands	r3, r2
 756 0040 BB60     		str	r3, [r7, #8]
 192:..\..\common\lib\nokia5110/LCD5110_Graph.c **** 
ARM GAS  C:\Users\Petro\AppData\Local\Temp\ccT7A2G2.s 			page 18


 193:..\..\common\lib\nokia5110/LCD5110_Graph.c **** 		scrbuf[by]=scrbuf[by] | (1<<bi);
 757              		.loc 2 193 0
 758 0042 0B4A     		ldr	r2, .L49
 759 0044 FB68     		ldr	r3, [r7, #12]
 760 0046 D318     		adds	r3, r2, r3
 761 0048 1B78     		ldrb	r3, [r3]
 762 004a 5AB2     		sxtb	r2, r3
 763 004c 0121     		movs	r1, #1
 764 004e BB68     		ldr	r3, [r7, #8]
 765 0050 9940     		lsls	r1, r1, r3
 766 0052 0B00     		movs	r3, r1
 767 0054 5BB2     		sxtb	r3, r3
 768 0056 1343     		orrs	r3, r2
 769 0058 5BB2     		sxtb	r3, r3
 770 005a D9B2     		uxtb	r1, r3
 771 005c 044A     		ldr	r2, .L49
 772 005e FB68     		ldr	r3, [r7, #12]
 773 0060 D318     		adds	r3, r2, r3
 774 0062 0A1C     		adds	r2, r1, #0
 775 0064 1A70     		strb	r2, [r3]
 776              	.L48:
 194:..\..\common\lib\nokia5110/LCD5110_Graph.c **** 	}
 195:..\..\common\lib\nokia5110/LCD5110_Graph.c **** }
 777              		.loc 2 195 0
 778 0066 C046     		nop
 779 0068 BD46     		mov	sp, r7
 780 006a 04B0     		add	sp, sp, #16
 781              		@ sp needed
 782 006c 80BD     		pop	{r7, pc}
 783              	.L50:
 784 006e C046     		.align	2
 785              	.L49:
 786 0070 00000000 		.word	scrbuf
 787              		.cfi_endproc
 788              	.LFE74:
 789              		.size	setPixel, .-setPixel
 790              		.section	.text.clrPixel,"ax",%progbits
 791              		.align	2
 792              		.global	clrPixel
 793              		.code	16
 794              		.thumb_func
 795              		.type	clrPixel, %function
 796              	clrPixel:
 797              	.LFB75:
 196:..\..\common\lib\nokia5110/LCD5110_Graph.c **** 
 197:..\..\common\lib\nokia5110/LCD5110_Graph.c **** void clrPixel(uint16_t x, uint16_t y)
 198:..\..\common\lib\nokia5110/LCD5110_Graph.c **** {
 798              		.loc 2 198 0
 799              		.cfi_startproc
 800              		@ args = 0, pretend = 0, frame = 16
 801              		@ frame_needed = 1, uses_anonymous_args = 0
 802 0000 80B5     		push	{r7, lr}
 803              		.cfi_def_cfa_offset 8
 804              		.cfi_offset 7, -8
 805              		.cfi_offset 14, -4
 806 0002 84B0     		sub	sp, sp, #16
 807              		.cfi_def_cfa_offset 24
ARM GAS  C:\Users\Petro\AppData\Local\Temp\ccT7A2G2.s 			page 19


 808 0004 00AF     		add	r7, sp, #0
 809              		.cfi_def_cfa_register 7
 810 0006 0200     		movs	r2, r0
 811 0008 BB1D     		adds	r3, r7, #6
 812 000a 1A80     		strh	r2, [r3]
 813 000c 3B1D     		adds	r3, r7, #4
 814 000e 0A1C     		adds	r2, r1, #0
 815 0010 1A80     		strh	r2, [r3]
 199:..\..\common\lib\nokia5110/LCD5110_Graph.c **** 	int by, bi;
 200:..\..\common\lib\nokia5110/LCD5110_Graph.c **** 
 201:..\..\common\lib\nokia5110/LCD5110_Graph.c **** 	if ((x>=0) && (x<84) && (y>=0) && (y<48))
 816              		.loc 2 201 0
 817 0012 BB1D     		adds	r3, r7, #6
 818 0014 1B88     		ldrh	r3, [r3]
 819 0016 532B     		cmp	r3, #83
 820 0018 27D8     		bhi	.L53
 821              		.loc 2 201 0 is_stmt 0 discriminator 1
 822 001a 3B1D     		adds	r3, r7, #4
 823 001c 1B88     		ldrh	r3, [r3]
 824 001e 2F2B     		cmp	r3, #47
 825 0020 23D8     		bhi	.L53
 202:..\..\common\lib\nokia5110/LCD5110_Graph.c **** 	{
 203:..\..\common\lib\nokia5110/LCD5110_Graph.c **** 		by=((y/8)*84)+x;
 826              		.loc 2 203 0 is_stmt 1
 827 0022 3B1D     		adds	r3, r7, #4
 828 0024 1B88     		ldrh	r3, [r3]
 829 0026 DB08     		lsrs	r3, r3, #3
 830 0028 9BB2     		uxth	r3, r3
 831 002a 1A00     		movs	r2, r3
 832 002c 5423     		movs	r3, #84
 833 002e 5A43     		muls	r2, r3
 834 0030 BB1D     		adds	r3, r7, #6
 835 0032 1B88     		ldrh	r3, [r3]
 836 0034 D318     		adds	r3, r2, r3
 837 0036 FB60     		str	r3, [r7, #12]
 204:..\..\common\lib\nokia5110/LCD5110_Graph.c **** 		bi=y % 8;
 838              		.loc 2 204 0
 839 0038 3B1D     		adds	r3, r7, #4
 840 003a 1B88     		ldrh	r3, [r3]
 841 003c 0722     		movs	r2, #7
 842 003e 1340     		ands	r3, r2
 843 0040 BB60     		str	r3, [r7, #8]
 205:..\..\common\lib\nokia5110/LCD5110_Graph.c **** 
 206:..\..\common\lib\nokia5110/LCD5110_Graph.c **** 		scrbuf[by]=scrbuf[by] & ~(1<<bi);
 844              		.loc 2 206 0
 845 0042 0C4A     		ldr	r2, .L54
 846 0044 FB68     		ldr	r3, [r7, #12]
 847 0046 D318     		adds	r3, r2, r3
 848 0048 1B78     		ldrb	r3, [r3]
 849 004a 5BB2     		sxtb	r3, r3
 850 004c 0121     		movs	r1, #1
 851 004e BA68     		ldr	r2, [r7, #8]
 852 0050 9140     		lsls	r1, r1, r2
 853 0052 0A00     		movs	r2, r1
 854 0054 52B2     		sxtb	r2, r2
 855 0056 D243     		mvns	r2, r2
 856 0058 52B2     		sxtb	r2, r2
ARM GAS  C:\Users\Petro\AppData\Local\Temp\ccT7A2G2.s 			page 20


 857 005a 1340     		ands	r3, r2
 858 005c 5BB2     		sxtb	r3, r3
 859 005e D9B2     		uxtb	r1, r3
 860 0060 044A     		ldr	r2, .L54
 861 0062 FB68     		ldr	r3, [r7, #12]
 862 0064 D318     		adds	r3, r2, r3
 863 0066 0A1C     		adds	r2, r1, #0
 864 0068 1A70     		strb	r2, [r3]
 865              	.L53:
 207:..\..\common\lib\nokia5110/LCD5110_Graph.c **** 	}
 208:..\..\common\lib\nokia5110/LCD5110_Graph.c **** }
 866              		.loc 2 208 0
 867 006a C046     		nop
 868 006c BD46     		mov	sp, r7
 869 006e 04B0     		add	sp, sp, #16
 870              		@ sp needed
 871 0070 80BD     		pop	{r7, pc}
 872              	.L55:
 873 0072 C046     		.align	2
 874              	.L54:
 875 0074 00000000 		.word	scrbuf
 876              		.cfi_endproc
 877              	.LFE75:
 878              		.size	clrPixel, .-clrPixel
 879              		.section	.text.invPixel,"ax",%progbits
 880              		.align	2
 881              		.global	invPixel
 882              		.code	16
 883              		.thumb_func
 884              		.type	invPixel, %function
 885              	invPixel:
 886              	.LFB76:
 209:..\..\common\lib\nokia5110/LCD5110_Graph.c **** 
 210:..\..\common\lib\nokia5110/LCD5110_Graph.c **** void invPixel(uint16_t x, uint16_t y)
 211:..\..\common\lib\nokia5110/LCD5110_Graph.c **** {
 887              		.loc 2 211 0
 888              		.cfi_startproc
 889              		@ args = 0, pretend = 0, frame = 16
 890              		@ frame_needed = 1, uses_anonymous_args = 0
 891 0000 80B5     		push	{r7, lr}
 892              		.cfi_def_cfa_offset 8
 893              		.cfi_offset 7, -8
 894              		.cfi_offset 14, -4
 895 0002 84B0     		sub	sp, sp, #16
 896              		.cfi_def_cfa_offset 24
 897 0004 00AF     		add	r7, sp, #0
 898              		.cfi_def_cfa_register 7
 899 0006 0200     		movs	r2, r0
 900 0008 BB1D     		adds	r3, r7, #6
 901 000a 1A80     		strh	r2, [r3]
 902 000c 3B1D     		adds	r3, r7, #4
 903 000e 0A1C     		adds	r2, r1, #0
 904 0010 1A80     		strh	r2, [r3]
 212:..\..\common\lib\nokia5110/LCD5110_Graph.c **** 	int by, bi;
 213:..\..\common\lib\nokia5110/LCD5110_Graph.c **** 
 214:..\..\common\lib\nokia5110/LCD5110_Graph.c **** 	if ((x>=0) && (x<84) && (y>=0) && (y<48))
 905              		.loc 2 214 0
ARM GAS  C:\Users\Petro\AppData\Local\Temp\ccT7A2G2.s 			page 21


 906 0012 BB1D     		adds	r3, r7, #6
 907 0014 1B88     		ldrh	r3, [r3]
 908 0016 532B     		cmp	r3, #83
 909 0018 45D8     		bhi	.L59
 910              		.loc 2 214 0 is_stmt 0 discriminator 1
 911 001a 3B1D     		adds	r3, r7, #4
 912 001c 1B88     		ldrh	r3, [r3]
 913 001e 2F2B     		cmp	r3, #47
 914 0020 41D8     		bhi	.L59
 215:..\..\common\lib\nokia5110/LCD5110_Graph.c **** 	{
 216:..\..\common\lib\nokia5110/LCD5110_Graph.c **** 		by=((y/8)*84)+x;
 915              		.loc 2 216 0 is_stmt 1
 916 0022 3B1D     		adds	r3, r7, #4
 917 0024 1B88     		ldrh	r3, [r3]
 918 0026 DB08     		lsrs	r3, r3, #3
 919 0028 9BB2     		uxth	r3, r3
 920 002a 1A00     		movs	r2, r3
 921 002c 5423     		movs	r3, #84
 922 002e 5A43     		muls	r2, r3
 923 0030 BB1D     		adds	r3, r7, #6
 924 0032 1B88     		ldrh	r3, [r3]
 925 0034 D318     		adds	r3, r2, r3
 926 0036 FB60     		str	r3, [r7, #12]
 217:..\..\common\lib\nokia5110/LCD5110_Graph.c **** 		bi=y % 8;
 927              		.loc 2 217 0
 928 0038 3B1D     		adds	r3, r7, #4
 929 003a 1B88     		ldrh	r3, [r3]
 930 003c 0722     		movs	r2, #7
 931 003e 1340     		ands	r3, r2
 932 0040 BB60     		str	r3, [r7, #8]
 218:..\..\common\lib\nokia5110/LCD5110_Graph.c **** 
 219:..\..\common\lib\nokia5110/LCD5110_Graph.c **** 		if ((scrbuf[by] & (1<<bi))==0)
 933              		.loc 2 219 0
 934 0042 1B4A     		ldr	r2, .L60
 935 0044 FB68     		ldr	r3, [r7, #12]
 936 0046 D318     		adds	r3, r2, r3
 937 0048 1B78     		ldrb	r3, [r3]
 938 004a 1A00     		movs	r2, r3
 939 004c BB68     		ldr	r3, [r7, #8]
 940 004e 1A41     		asrs	r2, r2, r3
 941 0050 1300     		movs	r3, r2
 942 0052 0122     		movs	r2, #1
 943 0054 1340     		ands	r3, r2
 944 0056 12D1     		bne	.L58
 220:..\..\common\lib\nokia5110/LCD5110_Graph.c **** 			scrbuf[by]=scrbuf[by] | (1<<bi);
 945              		.loc 2 220 0
 946 0058 154A     		ldr	r2, .L60
 947 005a FB68     		ldr	r3, [r7, #12]
 948 005c D318     		adds	r3, r2, r3
 949 005e 1B78     		ldrb	r3, [r3]
 950 0060 5AB2     		sxtb	r2, r3
 951 0062 0121     		movs	r1, #1
 952 0064 BB68     		ldr	r3, [r7, #8]
 953 0066 9940     		lsls	r1, r1, r3
 954 0068 0B00     		movs	r3, r1
 955 006a 5BB2     		sxtb	r3, r3
 956 006c 1343     		orrs	r3, r2
ARM GAS  C:\Users\Petro\AppData\Local\Temp\ccT7A2G2.s 			page 22


 957 006e 5BB2     		sxtb	r3, r3
 958 0070 D9B2     		uxtb	r1, r3
 959 0072 0F4A     		ldr	r2, .L60
 960 0074 FB68     		ldr	r3, [r7, #12]
 961 0076 D318     		adds	r3, r2, r3
 962 0078 0A1C     		adds	r2, r1, #0
 963 007a 1A70     		strb	r2, [r3]
 221:..\..\common\lib\nokia5110/LCD5110_Graph.c **** 		else
 222:..\..\common\lib\nokia5110/LCD5110_Graph.c **** 			scrbuf[by]=scrbuf[by] & ~(1<<bi);
 223:..\..\common\lib\nokia5110/LCD5110_Graph.c **** 	}
 224:..\..\common\lib\nokia5110/LCD5110_Graph.c **** }
 964              		.loc 2 224 0
 965 007c 13E0     		b	.L59
 966              	.L58:
 222:..\..\common\lib\nokia5110/LCD5110_Graph.c **** 	}
 967              		.loc 2 222 0
 968 007e 0C4A     		ldr	r2, .L60
 969 0080 FB68     		ldr	r3, [r7, #12]
 970 0082 D318     		adds	r3, r2, r3
 971 0084 1B78     		ldrb	r3, [r3]
 972 0086 5BB2     		sxtb	r3, r3
 973 0088 0121     		movs	r1, #1
 974 008a BA68     		ldr	r2, [r7, #8]
 975 008c 9140     		lsls	r1, r1, r2
 976 008e 0A00     		movs	r2, r1
 977 0090 52B2     		sxtb	r2, r2
 978 0092 D243     		mvns	r2, r2
 979 0094 52B2     		sxtb	r2, r2
 980 0096 1340     		ands	r3, r2
 981 0098 5BB2     		sxtb	r3, r3
 982 009a D9B2     		uxtb	r1, r3
 983 009c 044A     		ldr	r2, .L60
 984 009e FB68     		ldr	r3, [r7, #12]
 985 00a0 D318     		adds	r3, r2, r3
 986 00a2 0A1C     		adds	r2, r1, #0
 987 00a4 1A70     		strb	r2, [r3]
 988              	.L59:
 989              		.loc 2 224 0
 990 00a6 C046     		nop
 991 00a8 BD46     		mov	sp, r7
 992 00aa 04B0     		add	sp, sp, #16
 993              		@ sp needed
 994 00ac 80BD     		pop	{r7, pc}
 995              	.L61:
 996 00ae C046     		.align	2
 997              	.L60:
 998 00b0 00000000 		.word	scrbuf
 999              		.cfi_endproc
 1000              	.LFE76:
 1001              		.size	invPixel, .-invPixel
 1002              		.section	.text.invertText,"ax",%progbits
 1003              		.align	2
 1004              		.global	invertText
 1005              		.code	16
 1006              		.thumb_func
 1007              		.type	invertText, %function
 1008              	invertText:
ARM GAS  C:\Users\Petro\AppData\Local\Temp\ccT7A2G2.s 			page 23


 1009              	.LFB77:
 225:..\..\common\lib\nokia5110/LCD5110_Graph.c **** 
 226:..\..\common\lib\nokia5110/LCD5110_Graph.c **** void invertText(bool mode)
 227:..\..\common\lib\nokia5110/LCD5110_Graph.c **** {
 1010              		.loc 2 227 0
 1011              		.cfi_startproc
 1012              		@ args = 0, pretend = 0, frame = 8
 1013              		@ frame_needed = 1, uses_anonymous_args = 0
 1014 0000 80B5     		push	{r7, lr}
 1015              		.cfi_def_cfa_offset 8
 1016              		.cfi_offset 7, -8
 1017              		.cfi_offset 14, -4
 1018 0002 82B0     		sub	sp, sp, #8
 1019              		.cfi_def_cfa_offset 16
 1020 0004 00AF     		add	r7, sp, #0
 1021              		.cfi_def_cfa_register 7
 1022 0006 0200     		movs	r2, r0
 1023 0008 FB1D     		adds	r3, r7, #7
 1024 000a 1A70     		strb	r2, [r3]
 228:..\..\common\lib\nokia5110/LCD5110_Graph.c **** 	if (mode==true)
 1025              		.loc 2 228 0
 1026 000c FB1D     		adds	r3, r7, #7
 1027 000e 1B78     		ldrb	r3, [r3]
 1028 0010 002B     		cmp	r3, #0
 1029 0012 03D0     		beq	.L63
 229:..\..\common\lib\nokia5110/LCD5110_Graph.c **** 		cfont.inverted=1;
 1030              		.loc 2 229 0
 1031 0014 054B     		ldr	r3, .L66
 1032 0016 0122     		movs	r2, #1
 1033 0018 1A72     		strb	r2, [r3, #8]
 230:..\..\common\lib\nokia5110/LCD5110_Graph.c **** 	else
 231:..\..\common\lib\nokia5110/LCD5110_Graph.c **** 		cfont.inverted=0;
 232:..\..\common\lib\nokia5110/LCD5110_Graph.c **** }
 1034              		.loc 2 232 0
 1035 001a 02E0     		b	.L65
 1036              	.L63:
 231:..\..\common\lib\nokia5110/LCD5110_Graph.c **** }
 1037              		.loc 2 231 0
 1038 001c 034B     		ldr	r3, .L66
 1039 001e 0022     		movs	r2, #0
 1040 0020 1A72     		strb	r2, [r3, #8]
 1041              	.L65:
 1042              		.loc 2 232 0
 1043 0022 C046     		nop
 1044 0024 BD46     		mov	sp, r7
 1045 0026 02B0     		add	sp, sp, #8
 1046              		@ sp needed
 1047 0028 80BD     		pop	{r7, pc}
 1048              	.L67:
 1049 002a C046     		.align	2
 1050              	.L66:
 1051 002c 00000000 		.word	cfont
 1052              		.cfi_endproc
 1053              	.LFE77:
 1054              		.size	invertText, .-invertText
 1055              		.section	.text.print,"ax",%progbits
 1056              		.align	2
ARM GAS  C:\Users\Petro\AppData\Local\Temp\ccT7A2G2.s 			page 24


 1057              		.global	print
 1058              		.code	16
 1059              		.thumb_func
 1060              		.type	print, %function
 1061              	print:
 1062              	.LFB78:
 233:..\..\common\lib\nokia5110/LCD5110_Graph.c **** 
 234:..\..\common\lib\nokia5110/LCD5110_Graph.c **** void print(char *st, int x, int y)
 235:..\..\common\lib\nokia5110/LCD5110_Graph.c **** {
 1063              		.loc 2 235 0
 1064              		.cfi_startproc
 1065              		@ args = 0, pretend = 0, frame = 24
 1066              		@ frame_needed = 1, uses_anonymous_args = 0
 1067 0000 80B5     		push	{r7, lr}
 1068              		.cfi_def_cfa_offset 8
 1069              		.cfi_offset 7, -8
 1070              		.cfi_offset 14, -4
 1071 0002 86B0     		sub	sp, sp, #24
 1072              		.cfi_def_cfa_offset 32
 1073 0004 00AF     		add	r7, sp, #0
 1074              		.cfi_def_cfa_register 7
 1075 0006 F860     		str	r0, [r7, #12]
 1076 0008 B960     		str	r1, [r7, #8]
 1077 000a 7A60     		str	r2, [r7, #4]
 236:..\..\common\lib\nokia5110/LCD5110_Graph.c **** 	unsigned char ch;
 237:..\..\common\lib\nokia5110/LCD5110_Graph.c **** 	int stl;
 238:..\..\common\lib\nokia5110/LCD5110_Graph.c **** 
 239:..\..\common\lib\nokia5110/LCD5110_Graph.c **** 	stl = strlen(st);
 1078              		.loc 2 239 0
 1079 000c FB68     		ldr	r3, [r7, #12]
 1080 000e 1800     		movs	r0, r3
 1081 0010 FFF7FEFF 		bl	strlen
 1082 0014 0300     		movs	r3, r0
 1083 0016 3B61     		str	r3, [r7, #16]
 240:..\..\common\lib\nokia5110/LCD5110_Graph.c **** 	if (x == RIGHT)
 1084              		.loc 2 240 0
 1085 0018 BB68     		ldr	r3, [r7, #8]
 1086 001a 1B4A     		ldr	r2, .L74
 1087 001c 9342     		cmp	r3, r2
 1088 001e 07D1     		bne	.L69
 241:..\..\common\lib\nokia5110/LCD5110_Graph.c **** 		x = 84-(stl*cfont.x_size);
 1089              		.loc 2 241 0
 1090 0020 1A4B     		ldr	r3, .L74+4
 1091 0022 1B79     		ldrb	r3, [r3, #4]
 1092 0024 1A00     		movs	r2, r3
 1093 0026 3B69     		ldr	r3, [r7, #16]
 1094 0028 5343     		muls	r3, r2
 1095 002a 5422     		movs	r2, #84
 1096 002c D31A     		subs	r3, r2, r3
 1097 002e BB60     		str	r3, [r7, #8]
 1098              	.L69:
 242:..\..\common\lib\nokia5110/LCD5110_Graph.c **** 	if (x == CENTER)
 1099              		.loc 2 242 0
 1100 0030 BB68     		ldr	r3, [r7, #8]
 1101 0032 174A     		ldr	r2, .L74+8
 1102 0034 9342     		cmp	r3, r2
 1103 0036 0AD1     		bne	.L70
ARM GAS  C:\Users\Petro\AppData\Local\Temp\ccT7A2G2.s 			page 25


 243:..\..\common\lib\nokia5110/LCD5110_Graph.c **** 		x = (84-(stl*cfont.x_size))/2;
 1104              		.loc 2 243 0
 1105 0038 144B     		ldr	r3, .L74+4
 1106 003a 1B79     		ldrb	r3, [r3, #4]
 1107 003c 1A00     		movs	r2, r3
 1108 003e 3B69     		ldr	r3, [r7, #16]
 1109 0040 5343     		muls	r3, r2
 1110 0042 5422     		movs	r2, #84
 1111 0044 D31A     		subs	r3, r2, r3
 1112 0046 00D5     		bpl	.L71
 1113 0048 0133     		adds	r3, r3, #1
 1114              	.L71:
 1115 004a 5B10     		asrs	r3, r3, #1
 1116 004c BB60     		str	r3, [r7, #8]
 1117              	.L70:
 244:..\..\common\lib\nokia5110/LCD5110_Graph.c **** 
 245:..\..\common\lib\nokia5110/LCD5110_Graph.c ****     int cnt;
 246:..\..\common\lib\nokia5110/LCD5110_Graph.c **** 	for (cnt=0; cnt<stl; cnt++)
 1118              		.loc 2 246 0
 1119 004e 0023     		movs	r3, #0
 1120 0050 7B61     		str	r3, [r7, #20]
 1121 0052 11E0     		b	.L72
 1122              	.L73:
 247:..\..\common\lib\nokia5110/LCD5110_Graph.c **** 			_print_char(*st++, x + (cnt*(cfont.x_size)), y);
 1123              		.loc 2 247 0 discriminator 3
 1124 0054 FB68     		ldr	r3, [r7, #12]
 1125 0056 5A1C     		adds	r2, r3, #1
 1126 0058 FA60     		str	r2, [r7, #12]
 1127 005a 1878     		ldrb	r0, [r3]
 1128 005c 0B4B     		ldr	r3, .L74+4
 1129 005e 1B79     		ldrb	r3, [r3, #4]
 1130 0060 1A00     		movs	r2, r3
 1131 0062 7B69     		ldr	r3, [r7, #20]
 1132 0064 5A43     		muls	r2, r3
 1133 0066 BB68     		ldr	r3, [r7, #8]
 1134 0068 D318     		adds	r3, r2, r3
 1135 006a 7A68     		ldr	r2, [r7, #4]
 1136 006c 1900     		movs	r1, r3
 1137 006e FFF7FEFF 		bl	_print_char
 246:..\..\common\lib\nokia5110/LCD5110_Graph.c **** 			_print_char(*st++, x + (cnt*(cfont.x_size)), y);
 1138              		.loc 2 246 0 discriminator 3
 1139 0072 7B69     		ldr	r3, [r7, #20]
 1140 0074 0133     		adds	r3, r3, #1
 1141 0076 7B61     		str	r3, [r7, #20]
 1142              	.L72:
 246:..\..\common\lib\nokia5110/LCD5110_Graph.c **** 			_print_char(*st++, x + (cnt*(cfont.x_size)), y);
 1143              		.loc 2 246 0 is_stmt 0 discriminator 1
 1144 0078 7A69     		ldr	r2, [r7, #20]
 1145 007a 3B69     		ldr	r3, [r7, #16]
 1146 007c 9A42     		cmp	r2, r3
 1147 007e E9DB     		blt	.L73
 248:..\..\common\lib\nokia5110/LCD5110_Graph.c **** }
 1148              		.loc 2 248 0 is_stmt 1
 1149 0080 C046     		nop
 1150 0082 BD46     		mov	sp, r7
 1151 0084 06B0     		add	sp, sp, #24
 1152              		@ sp needed
ARM GAS  C:\Users\Petro\AppData\Local\Temp\ccT7A2G2.s 			page 26


 1153 0086 80BD     		pop	{r7, pc}
 1154              	.L75:
 1155              		.align	2
 1156              	.L74:
 1157 0088 0F270000 		.word	9999
 1158 008c 00000000 		.word	cfont
 1159 0090 0E270000 		.word	9998
 1160              		.cfi_endproc
 1161              	.LFE78:
 1162              		.size	print, .-print
 1163              		.section	.text.prints,"ax",%progbits
 1164              		.align	2
 1165              		.global	prints
 1166              		.code	16
 1167              		.thumb_func
 1168              		.type	prints, %function
 1169              	prints:
 1170              	.LFB79:
 249:..\..\common\lib\nokia5110/LCD5110_Graph.c **** 
 250:..\..\common\lib\nokia5110/LCD5110_Graph.c **** void prints(char *st, int x, int y)
 251:..\..\common\lib\nokia5110/LCD5110_Graph.c **** {
 1171              		.loc 2 251 0
 1172              		.cfi_startproc
 1173              		@ args = 0, pretend = 0, frame = 16
 1174              		@ frame_needed = 1, uses_anonymous_args = 0
 1175 0000 80B5     		push	{r7, lr}
 1176              		.cfi_def_cfa_offset 8
 1177              		.cfi_offset 7, -8
 1178              		.cfi_offset 14, -4
 1179 0002 84B0     		sub	sp, sp, #16
 1180              		.cfi_def_cfa_offset 24
 1181 0004 00AF     		add	r7, sp, #0
 1182              		.cfi_def_cfa_register 7
 1183 0006 F860     		str	r0, [r7, #12]
 1184 0008 B960     		str	r1, [r7, #8]
 1185 000a 7A60     		str	r2, [r7, #4]
 252:..\..\common\lib\nokia5110/LCD5110_Graph.c **** //	char buf[st.length()+1];
 253:..\..\common\lib\nokia5110/LCD5110_Graph.c **** //
 254:..\..\common\lib\nokia5110/LCD5110_Graph.c **** //	st.toCharArray(buf, st.length()+1);
 255:..\..\common\lib\nokia5110/LCD5110_Graph.c **** 	print(st, x, y);
 1186              		.loc 2 255 0
 1187 000c 7A68     		ldr	r2, [r7, #4]
 1188 000e B968     		ldr	r1, [r7, #8]
 1189 0010 FB68     		ldr	r3, [r7, #12]
 1190 0012 1800     		movs	r0, r3
 1191 0014 FFF7FEFF 		bl	print
 256:..\..\common\lib\nokia5110/LCD5110_Graph.c **** }
 1192              		.loc 2 256 0
 1193 0018 C046     		nop
 1194 001a BD46     		mov	sp, r7
 1195 001c 04B0     		add	sp, sp, #16
 1196              		@ sp needed
 1197 001e 80BD     		pop	{r7, pc}
 1198              		.cfi_endproc
 1199              	.LFE79:
 1200              		.size	prints, .-prints
 1201              		.global	__aeabi_idivmod
ARM GAS  C:\Users\Petro\AppData\Local\Temp\ccT7A2G2.s 			page 27


 1202              		.global	__aeabi_idiv
 1203              		.section	.text.printNumI,"ax",%progbits
 1204              		.align	2
 1205              		.global	printNumI
 1206              		.code	16
 1207              		.thumb_func
 1208              		.type	printNumI, %function
 1209              	printNumI:
 1210              	.LFB80:
 257:..\..\common\lib\nokia5110/LCD5110_Graph.c **** 
 258:..\..\common\lib\nokia5110/LCD5110_Graph.c **** void printNumI(long num, int x, int y, int length, char filler)
 259:..\..\common\lib\nokia5110/LCD5110_Graph.c **** {
 1211              		.loc 2 259 0
 1212              		.cfi_startproc
 1213              		@ args = 4, pretend = 0, frame = 96
 1214              		@ frame_needed = 1, uses_anonymous_args = 0
 1215 0000 80B5     		push	{r7, lr}
 1216              		.cfi_def_cfa_offset 8
 1217              		.cfi_offset 7, -8
 1218              		.cfi_offset 14, -4
 1219 0002 98B0     		sub	sp, sp, #96
 1220              		.cfi_def_cfa_offset 104
 1221 0004 00AF     		add	r7, sp, #0
 1222              		.cfi_def_cfa_register 7
 1223 0006 F860     		str	r0, [r7, #12]
 1224 0008 B960     		str	r1, [r7, #8]
 1225 000a 7A60     		str	r2, [r7, #4]
 1226 000c 3B60     		str	r3, [r7]
 260:..\..\common\lib\nokia5110/LCD5110_Graph.c **** 	char buf[25];
 261:..\..\common\lib\nokia5110/LCD5110_Graph.c **** 	char st[27];
 262:..\..\common\lib\nokia5110/LCD5110_Graph.c **** 	bool neg=false;
 1227              		.loc 2 262 0
 1228 000e 5F23     		movs	r3, #95
 1229 0010 FB18     		adds	r3, r7, r3
 1230 0012 0022     		movs	r2, #0
 1231 0014 1A70     		strb	r2, [r3]
 263:..\..\common\lib\nokia5110/LCD5110_Graph.c **** 	int c=0, f=0;
 1232              		.loc 2 263 0
 1233 0016 0023     		movs	r3, #0
 1234 0018 BB65     		str	r3, [r7, #88]
 1235 001a 0023     		movs	r3, #0
 1236 001c 7B65     		str	r3, [r7, #84]
 264:..\..\common\lib\nokia5110/LCD5110_Graph.c ****   
 265:..\..\common\lib\nokia5110/LCD5110_Graph.c **** 	if (num==0)
 1237              		.loc 2 265 0
 1238 001e FB68     		ldr	r3, [r7, #12]
 1239 0020 002B     		cmp	r3, #0
 1240 0022 2BD1     		bne	.L78
 266:..\..\common\lib\nokia5110/LCD5110_Graph.c **** 	{
 267:..\..\common\lib\nokia5110/LCD5110_Graph.c **** 		if (length!=0)
 1241              		.loc 2 267 0
 1242 0024 3B68     		ldr	r3, [r7]
 1243 0026 002B     		cmp	r3, #0
 1244 0028 1FD0     		beq	.L79
 268:..\..\common\lib\nokia5110/LCD5110_Graph.c **** 		{
 269:..\..\common\lib\nokia5110/LCD5110_Graph.c **** 			for (c=0; c<(length-1); c++)
 1245              		.loc 2 269 0
ARM GAS  C:\Users\Petro\AppData\Local\Temp\ccT7A2G2.s 			page 28


 1246 002a 0023     		movs	r3, #0
 1247 002c BB65     		str	r3, [r7, #88]
 1248 002e 0AE0     		b	.L80
 1249              	.L81:
 270:..\..\common\lib\nokia5110/LCD5110_Graph.c **** 				st[c]=filler;
 1250              		.loc 2 270 0 discriminator 3
 1251 0030 1423     		movs	r3, #20
 1252 0032 FA18     		adds	r2, r7, r3
 1253 0034 BB6D     		ldr	r3, [r7, #88]
 1254 0036 D318     		adds	r3, r2, r3
 1255 0038 6822     		movs	r2, #104
 1256 003a BA18     		adds	r2, r7, r2
 1257 003c 1278     		ldrb	r2, [r2]
 1258 003e 1A70     		strb	r2, [r3]
 269:..\..\common\lib\nokia5110/LCD5110_Graph.c **** 				st[c]=filler;
 1259              		.loc 2 269 0 discriminator 3
 1260 0040 BB6D     		ldr	r3, [r7, #88]
 1261 0042 0133     		adds	r3, r3, #1
 1262 0044 BB65     		str	r3, [r7, #88]
 1263              	.L80:
 269:..\..\common\lib\nokia5110/LCD5110_Graph.c **** 				st[c]=filler;
 1264              		.loc 2 269 0 is_stmt 0 discriminator 1
 1265 0046 3B68     		ldr	r3, [r7]
 1266 0048 5A1E     		subs	r2, r3, #1
 1267 004a BB6D     		ldr	r3, [r7, #88]
 1268 004c 9A42     		cmp	r2, r3
 1269 004e EFDC     		bgt	.L81
 271:..\..\common\lib\nokia5110/LCD5110_Graph.c **** 			st[c]=48;
 1270              		.loc 2 271 0 is_stmt 1
 1271 0050 1423     		movs	r3, #20
 1272 0052 FA18     		adds	r2, r7, r3
 1273 0054 BB6D     		ldr	r3, [r7, #88]
 1274 0056 D318     		adds	r3, r2, r3
 1275 0058 3022     		movs	r2, #48
 1276 005a 1A70     		strb	r2, [r3]
 272:..\..\common\lib\nokia5110/LCD5110_Graph.c **** 			st[c+1]=0;
 1277              		.loc 2 272 0
 1278 005c BB6D     		ldr	r3, [r7, #88]
 1279 005e 0133     		adds	r3, r3, #1
 1280 0060 1422     		movs	r2, #20
 1281 0062 BA18     		adds	r2, r7, r2
 1282 0064 0021     		movs	r1, #0
 1283 0066 D154     		strb	r1, [r2, r3]
 1284 0068 92E0     		b	.L83
 1285              	.L79:
 273:..\..\common\lib\nokia5110/LCD5110_Graph.c **** 		}
 274:..\..\common\lib\nokia5110/LCD5110_Graph.c **** 		else
 275:..\..\common\lib\nokia5110/LCD5110_Graph.c **** 		{
 276:..\..\common\lib\nokia5110/LCD5110_Graph.c **** 			st[0]=48;
 1286              		.loc 2 276 0
 1287 006a 1423     		movs	r3, #20
 1288 006c FB18     		adds	r3, r7, r3
 1289 006e 3022     		movs	r2, #48
 1290 0070 1A70     		strb	r2, [r3]
 277:..\..\common\lib\nokia5110/LCD5110_Graph.c **** 			st[1]=0;
 1291              		.loc 2 277 0
 1292 0072 1423     		movs	r3, #20
ARM GAS  C:\Users\Petro\AppData\Local\Temp\ccT7A2G2.s 			page 29


 1293 0074 FB18     		adds	r3, r7, r3
 1294 0076 0022     		movs	r2, #0
 1295 0078 5A70     		strb	r2, [r3, #1]
 1296 007a 89E0     		b	.L83
 1297              	.L78:
 1298              	.LBB3:
 278:..\..\common\lib\nokia5110/LCD5110_Graph.c **** 		}
 279:..\..\common\lib\nokia5110/LCD5110_Graph.c **** 	}
 280:..\..\common\lib\nokia5110/LCD5110_Graph.c **** 	else
 281:..\..\common\lib\nokia5110/LCD5110_Graph.c **** 	{
 282:..\..\common\lib\nokia5110/LCD5110_Graph.c **** 		if (num<0)
 1299              		.loc 2 282 0
 1300 007c FB68     		ldr	r3, [r7, #12]
 1301 007e 002B     		cmp	r3, #0
 1302 0080 28DA     		bge	.L85
 283:..\..\common\lib\nokia5110/LCD5110_Graph.c **** 		{
 284:..\..\common\lib\nokia5110/LCD5110_Graph.c **** 			neg=true;
 1303              		.loc 2 284 0
 1304 0082 5F23     		movs	r3, #95
 1305 0084 FB18     		adds	r3, r7, r3
 1306 0086 0122     		movs	r2, #1
 1307 0088 1A70     		strb	r2, [r3]
 285:..\..\common\lib\nokia5110/LCD5110_Graph.c **** 			num=-num;
 1308              		.loc 2 285 0
 1309 008a FB68     		ldr	r3, [r7, #12]
 1310 008c 5B42     		rsbs	r3, r3, #0
 1311 008e FB60     		str	r3, [r7, #12]
 286:..\..\common\lib\nokia5110/LCD5110_Graph.c **** 		}
 287:..\..\common\lib\nokia5110/LCD5110_Graph.c **** 	  
 288:..\..\common\lib\nokia5110/LCD5110_Graph.c **** 		while (num>0)
 1312              		.loc 2 288 0
 1313 0090 20E0     		b	.L85
 1314              	.L86:
 289:..\..\common\lib\nokia5110/LCD5110_Graph.c **** 		{
 290:..\..\common\lib\nokia5110/LCD5110_Graph.c **** 			buf[c]=48+(num % 10);
 1315              		.loc 2 290 0
 1316 0092 FB68     		ldr	r3, [r7, #12]
 1317 0094 0A21     		movs	r1, #10
 1318 0096 1800     		movs	r0, r3
 1319 0098 FFF7FEFF 		bl	__aeabi_idivmod
 1320 009c 0B00     		movs	r3, r1
 1321 009e DBB2     		uxtb	r3, r3
 1322 00a0 3033     		adds	r3, r3, #48
 1323 00a2 D9B2     		uxtb	r1, r3
 1324 00a4 3023     		movs	r3, #48
 1325 00a6 FA18     		adds	r2, r7, r3
 1326 00a8 BB6D     		ldr	r3, [r7, #88]
 1327 00aa D318     		adds	r3, r2, r3
 1328 00ac 0A1C     		adds	r2, r1, #0
 1329 00ae 1A70     		strb	r2, [r3]
 291:..\..\common\lib\nokia5110/LCD5110_Graph.c **** 			c++;
 1330              		.loc 2 291 0
 1331 00b0 BB6D     		ldr	r3, [r7, #88]
 1332 00b2 0133     		adds	r3, r3, #1
 1333 00b4 BB65     		str	r3, [r7, #88]
 292:..\..\common\lib\nokia5110/LCD5110_Graph.c **** 			num=(num-(num % 10))/10;
 1334              		.loc 2 292 0
ARM GAS  C:\Users\Petro\AppData\Local\Temp\ccT7A2G2.s 			page 30


 1335 00b6 FB68     		ldr	r3, [r7, #12]
 1336 00b8 0A21     		movs	r1, #10
 1337 00ba 1800     		movs	r0, r3
 1338 00bc FFF7FEFF 		bl	__aeabi_idivmod
 1339 00c0 0B00     		movs	r3, r1
 1340 00c2 1A00     		movs	r2, r3
 1341 00c4 FB68     		ldr	r3, [r7, #12]
 1342 00c6 9B1A     		subs	r3, r3, r2
 1343 00c8 0A21     		movs	r1, #10
 1344 00ca 1800     		movs	r0, r3
 1345 00cc FFF7FEFF 		bl	__aeabi_idiv
 1346 00d0 0300     		movs	r3, r0
 1347 00d2 FB60     		str	r3, [r7, #12]
 1348              	.L85:
 288:..\..\common\lib\nokia5110/LCD5110_Graph.c **** 		{
 1349              		.loc 2 288 0
 1350 00d4 FB68     		ldr	r3, [r7, #12]
 1351 00d6 002B     		cmp	r3, #0
 1352 00d8 DBDC     		bgt	.L86
 293:..\..\common\lib\nokia5110/LCD5110_Graph.c **** 		}
 294:..\..\common\lib\nokia5110/LCD5110_Graph.c **** 		buf[c]=0;
 1353              		.loc 2 294 0
 1354 00da 3023     		movs	r3, #48
 1355 00dc FA18     		adds	r2, r7, r3
 1356 00de BB6D     		ldr	r3, [r7, #88]
 1357 00e0 D318     		adds	r3, r2, r3
 1358 00e2 0022     		movs	r2, #0
 1359 00e4 1A70     		strb	r2, [r3]
 295:..\..\common\lib\nokia5110/LCD5110_Graph.c **** 	  
 296:..\..\common\lib\nokia5110/LCD5110_Graph.c **** 		if (neg)
 1360              		.loc 2 296 0
 1361 00e6 5F23     		movs	r3, #95
 1362 00e8 FB18     		adds	r3, r7, r3
 1363 00ea 1B78     		ldrb	r3, [r3]
 1364 00ec 002B     		cmp	r3, #0
 1365 00ee 03D0     		beq	.L87
 297:..\..\common\lib\nokia5110/LCD5110_Graph.c **** 		{
 298:..\..\common\lib\nokia5110/LCD5110_Graph.c **** 			st[0]=45;
 1366              		.loc 2 298 0
 1367 00f0 1423     		movs	r3, #20
 1368 00f2 FB18     		adds	r3, r7, r3
 1369 00f4 2D22     		movs	r2, #45
 1370 00f6 1A70     		strb	r2, [r3]
 1371              	.L87:
 299:..\..\common\lib\nokia5110/LCD5110_Graph.c **** 		}
 300:..\..\common\lib\nokia5110/LCD5110_Graph.c **** 	  
 301:..\..\common\lib\nokia5110/LCD5110_Graph.c **** 		if (length>(c+neg))
 1372              		.loc 2 301 0
 1373 00f8 5F23     		movs	r3, #95
 1374 00fa FB18     		adds	r3, r7, r3
 1375 00fc 1A78     		ldrb	r2, [r3]
 1376 00fe BB6D     		ldr	r3, [r7, #88]
 1377 0100 D218     		adds	r2, r2, r3
 1378 0102 3B68     		ldr	r3, [r7]
 1379 0104 9A42     		cmp	r2, r3
 1380 0106 1DDA     		bge	.L88
 1381              	.LBB4:
ARM GAS  C:\Users\Petro\AppData\Local\Temp\ccT7A2G2.s 			page 31


 302:..\..\common\lib\nokia5110/LCD5110_Graph.c **** 		{
 303:..\..\common\lib\nokia5110/LCD5110_Graph.c ****             int i;
 304:..\..\common\lib\nokia5110/LCD5110_Graph.c **** 			for (i=0; i<(length-c-neg); i++)
 1382              		.loc 2 304 0
 1383 0108 0023     		movs	r3, #0
 1384 010a 3B65     		str	r3, [r7, #80]
 1385 010c 10E0     		b	.L89
 1386              	.L90:
 305:..\..\common\lib\nokia5110/LCD5110_Graph.c **** 			{
 306:..\..\common\lib\nokia5110/LCD5110_Graph.c **** 				st[i+neg]=filler;
 1387              		.loc 2 306 0 discriminator 3
 1388 010e 5F23     		movs	r3, #95
 1389 0110 FB18     		adds	r3, r7, r3
 1390 0112 1A78     		ldrb	r2, [r3]
 1391 0114 3B6D     		ldr	r3, [r7, #80]
 1392 0116 D318     		adds	r3, r2, r3
 1393 0118 1422     		movs	r2, #20
 1394 011a BA18     		adds	r2, r7, r2
 1395 011c 6821     		movs	r1, #104
 1396 011e 7918     		adds	r1, r7, r1
 1397 0120 0978     		ldrb	r1, [r1]
 1398 0122 D154     		strb	r1, [r2, r3]
 307:..\..\common\lib\nokia5110/LCD5110_Graph.c **** 				f++;
 1399              		.loc 2 307 0 discriminator 3
 1400 0124 7B6D     		ldr	r3, [r7, #84]
 1401 0126 0133     		adds	r3, r3, #1
 1402 0128 7B65     		str	r3, [r7, #84]
 304:..\..\common\lib\nokia5110/LCD5110_Graph.c **** 			{
 1403              		.loc 2 304 0 discriminator 3
 1404 012a 3B6D     		ldr	r3, [r7, #80]
 1405 012c 0133     		adds	r3, r3, #1
 1406 012e 3B65     		str	r3, [r7, #80]
 1407              	.L89:
 304:..\..\common\lib\nokia5110/LCD5110_Graph.c **** 			{
 1408              		.loc 2 304 0 is_stmt 0 discriminator 1
 1409 0130 3A68     		ldr	r2, [r7]
 1410 0132 BB6D     		ldr	r3, [r7, #88]
 1411 0134 D21A     		subs	r2, r2, r3
 1412 0136 5F23     		movs	r3, #95
 1413 0138 FB18     		adds	r3, r7, r3
 1414 013a 1B78     		ldrb	r3, [r3]
 1415 013c D21A     		subs	r2, r2, r3
 1416 013e 3B6D     		ldr	r3, [r7, #80]
 1417 0140 9A42     		cmp	r2, r3
 1418 0142 E4DC     		bgt	.L90
 1419              	.L88:
 1420              	.LBE4:
 308:..\..\common\lib\nokia5110/LCD5110_Graph.c **** 			}
 309:..\..\common\lib\nokia5110/LCD5110_Graph.c **** 		}
 310:..\..\common\lib\nokia5110/LCD5110_Graph.c **** 
 311:..\..\common\lib\nokia5110/LCD5110_Graph.c ****         int i;
 312:..\..\common\lib\nokia5110/LCD5110_Graph.c **** 		for (i=0; i<c; i++)
 1421              		.loc 2 312 0 is_stmt 1
 1422 0144 0023     		movs	r3, #0
 1423 0146 FB64     		str	r3, [r7, #76]
 1424 0148 13E0     		b	.L91
 1425              	.L92:
ARM GAS  C:\Users\Petro\AppData\Local\Temp\ccT7A2G2.s 			page 32


 313:..\..\common\lib\nokia5110/LCD5110_Graph.c **** 		{
 314:..\..\common\lib\nokia5110/LCD5110_Graph.c **** 			st[i+neg+f]=buf[c-i-1];
 1426              		.loc 2 314 0 discriminator 3
 1427 014a 5F23     		movs	r3, #95
 1428 014c FB18     		adds	r3, r7, r3
 1429 014e 1A78     		ldrb	r2, [r3]
 1430 0150 FB6C     		ldr	r3, [r7, #76]
 1431 0152 D218     		adds	r2, r2, r3
 1432 0154 7B6D     		ldr	r3, [r7, #84]
 1433 0156 D318     		adds	r3, r2, r3
 1434 0158 B96D     		ldr	r1, [r7, #88]
 1435 015a FA6C     		ldr	r2, [r7, #76]
 1436 015c 8A1A     		subs	r2, r1, r2
 1437 015e 013A     		subs	r2, r2, #1
 1438 0160 3021     		movs	r1, #48
 1439 0162 7918     		adds	r1, r7, r1
 1440 0164 895C     		ldrb	r1, [r1, r2]
 1441 0166 1422     		movs	r2, #20
 1442 0168 BA18     		adds	r2, r7, r2
 1443 016a D154     		strb	r1, [r2, r3]
 312:..\..\common\lib\nokia5110/LCD5110_Graph.c **** 		{
 1444              		.loc 2 312 0 discriminator 3
 1445 016c FB6C     		ldr	r3, [r7, #76]
 1446 016e 0133     		adds	r3, r3, #1
 1447 0170 FB64     		str	r3, [r7, #76]
 1448              	.L91:
 312:..\..\common\lib\nokia5110/LCD5110_Graph.c **** 		{
 1449              		.loc 2 312 0 is_stmt 0 discriminator 1
 1450 0172 FA6C     		ldr	r2, [r7, #76]
 1451 0174 BB6D     		ldr	r3, [r7, #88]
 1452 0176 9A42     		cmp	r2, r3
 1453 0178 E7DB     		blt	.L92
 315:..\..\common\lib\nokia5110/LCD5110_Graph.c **** 		}
 316:..\..\common\lib\nokia5110/LCD5110_Graph.c **** 		st[c+neg+f]=0;
 1454              		.loc 2 316 0 is_stmt 1
 1455 017a 5F23     		movs	r3, #95
 1456 017c FB18     		adds	r3, r7, r3
 1457 017e 1A78     		ldrb	r2, [r3]
 1458 0180 BB6D     		ldr	r3, [r7, #88]
 1459 0182 D218     		adds	r2, r2, r3
 1460 0184 7B6D     		ldr	r3, [r7, #84]
 1461 0186 D318     		adds	r3, r2, r3
 1462 0188 1422     		movs	r2, #20
 1463 018a BA18     		adds	r2, r7, r2
 1464 018c 0021     		movs	r1, #0
 1465 018e D154     		strb	r1, [r2, r3]
 1466              	.L83:
 1467              	.LBE3:
 317:..\..\common\lib\nokia5110/LCD5110_Graph.c **** 
 318:..\..\common\lib\nokia5110/LCD5110_Graph.c **** 	}
 319:..\..\common\lib\nokia5110/LCD5110_Graph.c **** 
 320:..\..\common\lib\nokia5110/LCD5110_Graph.c **** 	print(st,x,y);
 1468              		.loc 2 320 0
 1469 0190 7A68     		ldr	r2, [r7, #4]
 1470 0192 B968     		ldr	r1, [r7, #8]
 1471 0194 1423     		movs	r3, #20
 1472 0196 FB18     		adds	r3, r7, r3
ARM GAS  C:\Users\Petro\AppData\Local\Temp\ccT7A2G2.s 			page 33


 1473 0198 1800     		movs	r0, r3
 1474 019a FFF7FEFF 		bl	print
 321:..\..\common\lib\nokia5110/LCD5110_Graph.c **** }
 1475              		.loc 2 321 0
 1476 019e C046     		nop
 1477 01a0 BD46     		mov	sp, r7
 1478 01a2 18B0     		add	sp, sp, #96
 1479              		@ sp needed
 1480 01a4 80BD     		pop	{r7, pc}
 1481              		.cfi_endproc
 1482              	.LFE80:
 1483              		.size	printNumI, .-printNumI
 1484              		.global	__aeabi_dcmplt
 1485 01a6 C046     		.section	.text.printNumF,"ax",%progbits
 1486              		.align	2
 1487              		.global	printNumF
 1488              		.code	16
 1489              		.thumb_func
 1490              		.type	printNumF, %function
 1491              	printNumF:
 1492              	.LFB81:
 322:..\..\common\lib\nokia5110/LCD5110_Graph.c **** 
 323:..\..\common\lib\nokia5110/LCD5110_Graph.c **** void printNumF(double num, uint8 dec, int x, int y, char divider, int length, char filler)
 324:..\..\common\lib\nokia5110/LCD5110_Graph.c **** {
 1493              		.loc 2 324 0
 1494              		.cfi_startproc
 1495              		@ args = 16, pretend = 0, frame = 64
 1496              		@ frame_needed = 1, uses_anonymous_args = 0
 1497 0000 90B5     		push	{r4, r7, lr}
 1498              		.cfi_def_cfa_offset 12
 1499              		.cfi_offset 4, -12
 1500              		.cfi_offset 7, -8
 1501              		.cfi_offset 14, -4
 1502 0002 93B0     		sub	sp, sp, #76
 1503              		.cfi_def_cfa_offset 88
 1504 0004 02AF     		add	r7, sp, #8
 1505              		.cfi_def_cfa 7, 80
 1506 0006 B860     		str	r0, [r7, #8]
 1507 0008 F960     		str	r1, [r7, #12]
 1508 000a 3B60     		str	r3, [r7]
 1509 000c FB1D     		adds	r3, r7, #7
 1510 000e 1A70     		strb	r2, [r3]
 325:..\..\common\lib\nokia5110/LCD5110_Graph.c **** 	char st[27];
 326:..\..\common\lib\nokia5110/LCD5110_Graph.c ****     uint8_t size;
 327:..\..\common\lib\nokia5110/LCD5110_Graph.c **** 	bool neg=false;
 1511              		.loc 2 327 0
 1512 0010 3F23     		movs	r3, #63
 1513 0012 FB18     		adds	r3, r7, r3
 1514 0014 0022     		movs	r2, #0
 1515 0016 1A70     		strb	r2, [r3]
 328:..\..\common\lib\nokia5110/LCD5110_Graph.c **** 
 329:..\..\common\lib\nokia5110/LCD5110_Graph.c **** 	if (num<0)
 1516              		.loc 2 329 0
 1517 0018 0022     		movs	r2, #0
 1518 001a 0023     		movs	r3, #0
 1519 001c B868     		ldr	r0, [r7, #8]
 1520 001e F968     		ldr	r1, [r7, #12]
ARM GAS  C:\Users\Petro\AppData\Local\Temp\ccT7A2G2.s 			page 34


 1521 0020 FFF7FEFF 		bl	__aeabi_dcmplt
 1522 0024 031E     		subs	r3, r0, #0
 1523 0026 03D0     		beq	.L94
 330:..\..\common\lib\nokia5110/LCD5110_Graph.c **** 		neg = true;
 1524              		.loc 2 330 0
 1525 0028 3F23     		movs	r3, #63
 1526 002a FB18     		adds	r3, r7, r3
 1527 002c 0122     		movs	r2, #1
 1528 002e 1A70     		strb	r2, [r3]
 1529              	.L94:
 331:..\..\common\lib\nokia5110/LCD5110_Graph.c **** 
 332:..\..\common\lib\nokia5110/LCD5110_Graph.c **** 	_convert_float(st, num, length, dec);
 1530              		.loc 2 332 0
 1531 0030 BB68     		ldr	r3, [r7, #8]
 1532 0032 FC68     		ldr	r4, [r7, #12]
 1533 0034 1422     		movs	r2, #20
 1534 0036 B918     		adds	r1, r7, r2
 1535 0038 FA1D     		adds	r2, r7, #7
 1536 003a 1278     		ldrb	r2, [r2]
 1537 003c 0192     		str	r2, [sp, #4]
 1538 003e BA6D     		ldr	r2, [r7, #88]
 1539 0040 0092     		str	r2, [sp]
 1540 0042 1A00     		movs	r2, r3
 1541 0044 2300     		movs	r3, r4
 1542 0046 0800     		movs	r0, r1
 1543 0048 FFF7FEFF 		bl	_convert_float
 333:..\..\common\lib\nokia5110/LCD5110_Graph.c **** 
 334:..\..\common\lib\nokia5110/LCD5110_Graph.c **** 	if (divider != '.')
 1544              		.loc 2 334 0
 1545 004c 5423     		movs	r3, #84
 1546 004e FB18     		adds	r3, r7, r3
 1547 0050 1B78     		ldrb	r3, [r3]
 1548 0052 2E2B     		cmp	r3, #46
 1549 0054 1ED0     		beq	.L96
 1550              	.LBB5:
 335:..\..\common\lib\nokia5110/LCD5110_Graph.c **** 	{
 336:..\..\common\lib\nokia5110/LCD5110_Graph.c ****         size = sizeof st;
 1551              		.loc 2 336 0
 1552 0056 2F23     		movs	r3, #47
 1553 0058 FB18     		adds	r3, r7, r3
 1554 005a 1B22     		movs	r2, #27
 1555 005c 1A70     		strb	r2, [r3]
 337:..\..\common\lib\nokia5110/LCD5110_Graph.c ****         int i;
 338:..\..\common\lib\nokia5110/LCD5110_Graph.c **** 		for (i=0; i<size; i++)
 1556              		.loc 2 338 0
 1557 005e 0023     		movs	r3, #0
 1558 0060 BB63     		str	r3, [r7, #56]
 1559 0062 11E0     		b	.L97
 1560              	.L99:
 339:..\..\common\lib\nokia5110/LCD5110_Graph.c **** 			if (st[i]=='.')
 1561              		.loc 2 339 0
 1562 0064 1423     		movs	r3, #20
 1563 0066 FA18     		adds	r2, r7, r3
 1564 0068 BB6B     		ldr	r3, [r7, #56]
 1565 006a D318     		adds	r3, r2, r3
 1566 006c 1B78     		ldrb	r3, [r3]
 1567 006e 2E2B     		cmp	r3, #46
ARM GAS  C:\Users\Petro\AppData\Local\Temp\ccT7A2G2.s 			page 35


 1568 0070 07D1     		bne	.L98
 340:..\..\common\lib\nokia5110/LCD5110_Graph.c **** 				st[i]=divider;
 1569              		.loc 2 340 0
 1570 0072 1423     		movs	r3, #20
 1571 0074 FA18     		adds	r2, r7, r3
 1572 0076 BB6B     		ldr	r3, [r7, #56]
 1573 0078 D318     		adds	r3, r2, r3
 1574 007a 5422     		movs	r2, #84
 1575 007c BA18     		adds	r2, r7, r2
 1576 007e 1278     		ldrb	r2, [r2]
 1577 0080 1A70     		strb	r2, [r3]
 1578              	.L98:
 338:..\..\common\lib\nokia5110/LCD5110_Graph.c **** 			if (st[i]=='.')
 1579              		.loc 2 338 0 discriminator 2
 1580 0082 BB6B     		ldr	r3, [r7, #56]
 1581 0084 0133     		adds	r3, r3, #1
 1582 0086 BB63     		str	r3, [r7, #56]
 1583              	.L97:
 338:..\..\common\lib\nokia5110/LCD5110_Graph.c **** 			if (st[i]=='.')
 1584              		.loc 2 338 0 is_stmt 0 discriminator 1
 1585 0088 2F23     		movs	r3, #47
 1586 008a FB18     		adds	r3, r7, r3
 1587 008c 1A78     		ldrb	r2, [r3]
 1588 008e BB6B     		ldr	r3, [r7, #56]
 1589 0090 9A42     		cmp	r2, r3
 1590 0092 E7DC     		bgt	.L99
 1591              	.L96:
 1592              	.LBE5:
 341:..\..\common\lib\nokia5110/LCD5110_Graph.c **** 	}
 342:..\..\common\lib\nokia5110/LCD5110_Graph.c **** 
 343:..\..\common\lib\nokia5110/LCD5110_Graph.c **** 	if (filler != ' ')
 1593              		.loc 2 343 0 is_stmt 1
 1594 0094 5C23     		movs	r3, #92
 1595 0096 FB18     		adds	r3, r7, r3
 1596 0098 1B78     		ldrb	r3, [r3]
 1597 009a 202B     		cmp	r3, #32
 1598 009c 4ED0     		beq	.L100
 344:..\..\common\lib\nokia5110/LCD5110_Graph.c **** 	{
 345:..\..\common\lib\nokia5110/LCD5110_Graph.c **** 		if (neg)
 1599              		.loc 2 345 0
 1600 009e 3F23     		movs	r3, #63
 1601 00a0 FB18     		adds	r3, r7, r3
 1602 00a2 1B78     		ldrb	r3, [r3]
 1603 00a4 002B     		cmp	r3, #0
 1604 00a6 2AD0     		beq	.L101
 1605              	.LBB6:
 346:..\..\common\lib\nokia5110/LCD5110_Graph.c **** 		{
 347:..\..\common\lib\nokia5110/LCD5110_Graph.c **** 			st[0]='-';
 1606              		.loc 2 347 0
 1607 00a8 1423     		movs	r3, #20
 1608 00aa FB18     		adds	r3, r7, r3
 1609 00ac 2D22     		movs	r2, #45
 1610 00ae 1A70     		strb	r2, [r3]
 348:..\..\common\lib\nokia5110/LCD5110_Graph.c ****             size = sizeof st;
 1611              		.loc 2 348 0
 1612 00b0 2F23     		movs	r3, #47
 1613 00b2 FB18     		adds	r3, r7, r3
ARM GAS  C:\Users\Petro\AppData\Local\Temp\ccT7A2G2.s 			page 36


 1614 00b4 1B22     		movs	r2, #27
 1615 00b6 1A70     		strb	r2, [r3]
 349:..\..\common\lib\nokia5110/LCD5110_Graph.c ****             int i;
 350:..\..\common\lib\nokia5110/LCD5110_Graph.c **** 			for (i=1; i<size; i++)
 1616              		.loc 2 350 0
 1617 00b8 0123     		movs	r3, #1
 1618 00ba 7B63     		str	r3, [r7, #52]
 1619 00bc 18E0     		b	.L102
 1620              	.L105:
 351:..\..\common\lib\nokia5110/LCD5110_Graph.c **** 				if ((st[i]==' ') || (st[i]=='-'))
 1621              		.loc 2 351 0
 1622 00be 1423     		movs	r3, #20
 1623 00c0 FA18     		adds	r2, r7, r3
 1624 00c2 7B6B     		ldr	r3, [r7, #52]
 1625 00c4 D318     		adds	r3, r2, r3
 1626 00c6 1B78     		ldrb	r3, [r3]
 1627 00c8 202B     		cmp	r3, #32
 1628 00ca 06D0     		beq	.L103
 1629              		.loc 2 351 0 is_stmt 0 discriminator 1
 1630 00cc 1423     		movs	r3, #20
 1631 00ce FA18     		adds	r2, r7, r3
 1632 00d0 7B6B     		ldr	r3, [r7, #52]
 1633 00d2 D318     		adds	r3, r2, r3
 1634 00d4 1B78     		ldrb	r3, [r3]
 1635 00d6 2D2B     		cmp	r3, #45
 1636 00d8 07D1     		bne	.L104
 1637              	.L103:
 352:..\..\common\lib\nokia5110/LCD5110_Graph.c **** 					st[i]=filler;
 1638              		.loc 2 352 0 is_stmt 1
 1639 00da 1423     		movs	r3, #20
 1640 00dc FA18     		adds	r2, r7, r3
 1641 00de 7B6B     		ldr	r3, [r7, #52]
 1642 00e0 D318     		adds	r3, r2, r3
 1643 00e2 5C22     		movs	r2, #92
 1644 00e4 BA18     		adds	r2, r7, r2
 1645 00e6 1278     		ldrb	r2, [r2]
 1646 00e8 1A70     		strb	r2, [r3]
 1647              	.L104:
 350:..\..\common\lib\nokia5110/LCD5110_Graph.c **** 				if ((st[i]==' ') || (st[i]=='-'))
 1648              		.loc 2 350 0 discriminator 2
 1649 00ea 7B6B     		ldr	r3, [r7, #52]
 1650 00ec 0133     		adds	r3, r3, #1
 1651 00ee 7B63     		str	r3, [r7, #52]
 1652              	.L102:
 350:..\..\common\lib\nokia5110/LCD5110_Graph.c **** 				if ((st[i]==' ') || (st[i]=='-'))
 1653              		.loc 2 350 0 is_stmt 0 discriminator 1
 1654 00f0 2F23     		movs	r3, #47
 1655 00f2 FB18     		adds	r3, r7, r3
 1656 00f4 1A78     		ldrb	r2, [r3]
 1657 00f6 7B6B     		ldr	r3, [r7, #52]
 1658 00f8 9A42     		cmp	r2, r3
 1659 00fa E0DC     		bgt	.L105
 1660 00fc 1EE0     		b	.L100
 1661              	.L101:
 1662              	.LBE6:
 1663              	.LBB7:
 353:..\..\common\lib\nokia5110/LCD5110_Graph.c **** 		}
ARM GAS  C:\Users\Petro\AppData\Local\Temp\ccT7A2G2.s 			page 37


 354:..\..\common\lib\nokia5110/LCD5110_Graph.c **** 		else
 355:..\..\common\lib\nokia5110/LCD5110_Graph.c **** 		{
 356:..\..\common\lib\nokia5110/LCD5110_Graph.c ****             size = sizeof st;
 1664              		.loc 2 356 0 is_stmt 1
 1665 00fe 2F23     		movs	r3, #47
 1666 0100 FB18     		adds	r3, r7, r3
 1667 0102 1B22     		movs	r2, #27
 1668 0104 1A70     		strb	r2, [r3]
 357:..\..\common\lib\nokia5110/LCD5110_Graph.c ****             int i;
 358:..\..\common\lib\nokia5110/LCD5110_Graph.c **** 			for (i=0; i<size; i++)
 1669              		.loc 2 358 0
 1670 0106 0023     		movs	r3, #0
 1671 0108 3B63     		str	r3, [r7, #48]
 1672 010a 11E0     		b	.L106
 1673              	.L108:
 359:..\..\common\lib\nokia5110/LCD5110_Graph.c **** 				if (st[i]==' ')
 1674              		.loc 2 359 0
 1675 010c 1423     		movs	r3, #20
 1676 010e FA18     		adds	r2, r7, r3
 1677 0110 3B6B     		ldr	r3, [r7, #48]
 1678 0112 D318     		adds	r3, r2, r3
 1679 0114 1B78     		ldrb	r3, [r3]
 1680 0116 202B     		cmp	r3, #32
 1681 0118 07D1     		bne	.L107
 360:..\..\common\lib\nokia5110/LCD5110_Graph.c **** 					st[i]=filler;
 1682              		.loc 2 360 0
 1683 011a 1423     		movs	r3, #20
 1684 011c FA18     		adds	r2, r7, r3
 1685 011e 3B6B     		ldr	r3, [r7, #48]
 1686 0120 D318     		adds	r3, r2, r3
 1687 0122 5C22     		movs	r2, #92
 1688 0124 BA18     		adds	r2, r7, r2
 1689 0126 1278     		ldrb	r2, [r2]
 1690 0128 1A70     		strb	r2, [r3]
 1691              	.L107:
 358:..\..\common\lib\nokia5110/LCD5110_Graph.c **** 				if (st[i]==' ')
 1692              		.loc 2 358 0 discriminator 2
 1693 012a 3B6B     		ldr	r3, [r7, #48]
 1694 012c 0133     		adds	r3, r3, #1
 1695 012e 3B63     		str	r3, [r7, #48]
 1696              	.L106:
 358:..\..\common\lib\nokia5110/LCD5110_Graph.c **** 				if (st[i]==' ')
 1697              		.loc 2 358 0 is_stmt 0 discriminator 1
 1698 0130 2F23     		movs	r3, #47
 1699 0132 FB18     		adds	r3, r7, r3
 1700 0134 1A78     		ldrb	r2, [r3]
 1701 0136 3B6B     		ldr	r3, [r7, #48]
 1702 0138 9A42     		cmp	r2, r3
 1703 013a E7DC     		bgt	.L108
 1704              	.L100:
 1705              	.LBE7:
 361:..\..\common\lib\nokia5110/LCD5110_Graph.c **** 		}
 362:..\..\common\lib\nokia5110/LCD5110_Graph.c **** 	}
 363:..\..\common\lib\nokia5110/LCD5110_Graph.c **** 
 364:..\..\common\lib\nokia5110/LCD5110_Graph.c **** 	print(st,x,y);
 1706              		.loc 2 364 0 is_stmt 1
 1707 013c 3A6D     		ldr	r2, [r7, #80]
ARM GAS  C:\Users\Petro\AppData\Local\Temp\ccT7A2G2.s 			page 38


 1708 013e 3968     		ldr	r1, [r7]
 1709 0140 1423     		movs	r3, #20
 1710 0142 FB18     		adds	r3, r7, r3
 1711 0144 1800     		movs	r0, r3
 1712 0146 FFF7FEFF 		bl	print
 365:..\..\common\lib\nokia5110/LCD5110_Graph.c **** }
 1713              		.loc 2 365 0
 1714 014a C046     		nop
 1715 014c BD46     		mov	sp, r7
 1716 014e 11B0     		add	sp, sp, #68
 1717              		@ sp needed
 1718 0150 90BD     		pop	{r4, r7, pc}
 1719              		.cfi_endproc
 1720              	.LFE81:
 1721              		.size	printNumF, .-printNumF
 1722 0152 C046     		.section	.text._print_char,"ax",%progbits
 1723              		.align	2
 1724              		.global	_print_char
 1725              		.code	16
 1726              		.thumb_func
 1727              		.type	_print_char, %function
 1728              	_print_char:
 1729              	.LFB82:
 366:..\..\common\lib\nokia5110/LCD5110_Graph.c **** 
 367:..\..\common\lib\nokia5110/LCD5110_Graph.c **** void _print_char(unsigned char c, int x, int y)
 368:..\..\common\lib\nokia5110/LCD5110_Graph.c **** {
 1730              		.loc 2 368 0
 1731              		.cfi_startproc
 1732              		@ args = 0, pretend = 0, frame = 56
 1733              		@ frame_needed = 1, uses_anonymous_args = 0
 1734 0000 80B5     		push	{r7, lr}
 1735              		.cfi_def_cfa_offset 8
 1736              		.cfi_offset 7, -8
 1737              		.cfi_offset 14, -4
 1738 0002 8EB0     		sub	sp, sp, #56
 1739              		.cfi_def_cfa_offset 64
 1740 0004 00AF     		add	r7, sp, #0
 1741              		.cfi_def_cfa_register 7
 1742 0006 B960     		str	r1, [r7, #8]
 1743 0008 7A60     		str	r2, [r7, #4]
 1744 000a 0F23     		movs	r3, #15
 1745 000c FB18     		adds	r3, r7, r3
 1746 000e 021C     		adds	r2, r0, #0
 1747 0010 1A70     		strb	r2, [r3]
 369:..\..\common\lib\nokia5110/LCD5110_Graph.c **** 	if ((cfont.y_size % 8) == 0)
 1748              		.loc 2 369 0
 1749 0012 A44B     		ldr	r3, .L136
 1750 0014 5B79     		ldrb	r3, [r3, #5]
 1751 0016 0722     		movs	r2, #7
 1752 0018 1340     		ands	r3, r2
 1753 001a DBB2     		uxtb	r3, r3
 1754 001c 002B     		cmp	r3, #0
 1755 001e 00D0     		beq	.LCB1524
 1756 0020 A9E0     		b	.L111	@long jump
 1757              	.LCB1524:
 1758              	.LBB8:
 370:..\..\common\lib\nokia5110/LCD5110_Graph.c **** 	{
ARM GAS  C:\Users\Petro\AppData\Local\Temp\ccT7A2G2.s 			page 39


 371:..\..\common\lib\nokia5110/LCD5110_Graph.c **** 		int font_idx = ((c - cfont.offset)*(cfont.x_size*(cfont.y_size/8)))+4;
 1759              		.loc 2 371 0
 1760 0022 0F23     		movs	r3, #15
 1761 0024 FB18     		adds	r3, r7, r3
 1762 0026 1B78     		ldrb	r3, [r3]
 1763 0028 9E4A     		ldr	r2, .L136
 1764 002a 9279     		ldrb	r2, [r2, #6]
 1765 002c 9B1A     		subs	r3, r3, r2
 1766 002e 9D4A     		ldr	r2, .L136
 1767 0030 1279     		ldrb	r2, [r2, #4]
 1768 0032 1100     		movs	r1, r2
 1769 0034 9B4A     		ldr	r2, .L136
 1770 0036 5279     		ldrb	r2, [r2, #5]
 1771 0038 D208     		lsrs	r2, r2, #3
 1772 003a D2B2     		uxtb	r2, r2
 1773 003c 4A43     		muls	r2, r1
 1774 003e 5343     		muls	r3, r2
 1775 0040 0433     		adds	r3, r3, #4
 1776 0042 7B61     		str	r3, [r7, #20]
 372:..\..\common\lib\nokia5110/LCD5110_Graph.c ****         int rowcnt;
 373:..\..\common\lib\nokia5110/LCD5110_Graph.c **** 		for (rowcnt=0; rowcnt<(cfont.y_size/8); rowcnt++)
 1777              		.loc 2 373 0
 1778 0044 0023     		movs	r3, #0
 1779 0046 7B63     		str	r3, [r7, #52]
 1780 0048 8BE0     		b	.L112
 1781              	.L122:
 1782              	.LBB9:
 374:..\..\common\lib\nokia5110/LCD5110_Graph.c **** 		{
 375:..\..\common\lib\nokia5110/LCD5110_Graph.c ****             int cnt;
 376:..\..\common\lib\nokia5110/LCD5110_Graph.c **** 			for(cnt=0; cnt<cfont.x_size; cnt++)
 1783              		.loc 2 376 0
 1784 004a 0023     		movs	r3, #0
 1785 004c 3B63     		str	r3, [r7, #48]
 1786 004e 7EE0     		b	.L113
 1787              	.L121:
 1788              	.LBB10:
 377:..\..\common\lib\nokia5110/LCD5110_Graph.c **** 			{
 378:..\..\common\lib\nokia5110/LCD5110_Graph.c ****                 int b;
 379:..\..\common\lib\nokia5110/LCD5110_Graph.c **** 				for (b=0; b<8; b++)
 1789              		.loc 2 379 0
 1790 0050 0023     		movs	r3, #0
 1791 0052 FB62     		str	r3, [r7, #44]
 1792 0054 75E0     		b	.L114
 1793              	.L120:
 380:..\..\common\lib\nokia5110/LCD5110_Graph.c **** 					if ((fontbyte(font_idx+cnt+(rowcnt*cfont.x_size)) & (1<<b))!=0)
 1794              		.loc 2 380 0
 1795 0056 934B     		ldr	r3, .L136
 1796 0058 1B68     		ldr	r3, [r3]
 1797 005a 7969     		ldr	r1, [r7, #20]
 1798 005c 3A6B     		ldr	r2, [r7, #48]
 1799 005e 8918     		adds	r1, r1, r2
 1800 0060 904A     		ldr	r2, .L136
 1801 0062 1279     		ldrb	r2, [r2, #4]
 1802 0064 1000     		movs	r0, r2
 1803 0066 7A6B     		ldr	r2, [r7, #52]
 1804 0068 4243     		muls	r2, r0
 1805 006a 8A18     		adds	r2, r1, r2
ARM GAS  C:\Users\Petro\AppData\Local\Temp\ccT7A2G2.s 			page 40


 1806 006c 9B18     		adds	r3, r3, r2
 1807 006e 1B78     		ldrb	r3, [r3]
 1808 0070 1A00     		movs	r2, r3
 1809 0072 FB6A     		ldr	r3, [r7, #44]
 1810 0074 1A41     		asrs	r2, r2, r3
 1811 0076 1300     		movs	r3, r2
 1812 0078 0122     		movs	r2, #1
 1813 007a 1340     		ands	r3, r2
 1814 007c 2FD0     		beq	.L115
 381:..\..\common\lib\nokia5110/LCD5110_Graph.c **** 						if (cfont.inverted==0)
 1815              		.loc 2 381 0
 1816 007e 894B     		ldr	r3, .L136
 1817 0080 1B7A     		ldrb	r3, [r3, #8]
 1818 0082 002B     		cmp	r3, #0
 1819 0084 15D1     		bne	.L116
 382:..\..\common\lib\nokia5110/LCD5110_Graph.c **** 							setPixel(x+cnt, y+(rowcnt*8)+b);
 1820              		.loc 2 382 0
 1821 0086 BB68     		ldr	r3, [r7, #8]
 1822 0088 9AB2     		uxth	r2, r3
 1823 008a 3B6B     		ldr	r3, [r7, #48]
 1824 008c 9BB2     		uxth	r3, r3
 1825 008e D318     		adds	r3, r2, r3
 1826 0090 98B2     		uxth	r0, r3
 1827 0092 7B6B     		ldr	r3, [r7, #52]
 1828 0094 9BB2     		uxth	r3, r3
 1829 0096 DB00     		lsls	r3, r3, #3
 1830 0098 9AB2     		uxth	r2, r3
 1831 009a 7B68     		ldr	r3, [r7, #4]
 1832 009c 9BB2     		uxth	r3, r3
 1833 009e D318     		adds	r3, r2, r3
 1834 00a0 9AB2     		uxth	r2, r3
 1835 00a2 FB6A     		ldr	r3, [r7, #44]
 1836 00a4 9BB2     		uxth	r3, r3
 1837 00a6 D318     		adds	r3, r2, r3
 1838 00a8 9BB2     		uxth	r3, r3
 1839 00aa 1900     		movs	r1, r3
 1840 00ac FFF7FEFF 		bl	setPixel
 1841 00b0 44E0     		b	.L118
 1842              	.L116:
 383:..\..\common\lib\nokia5110/LCD5110_Graph.c **** 						else
 384:..\..\common\lib\nokia5110/LCD5110_Graph.c **** 							clrPixel(x+cnt, y+(rowcnt*8)+b);
 1843              		.loc 2 384 0
 1844 00b2 BB68     		ldr	r3, [r7, #8]
 1845 00b4 9AB2     		uxth	r2, r3
 1846 00b6 3B6B     		ldr	r3, [r7, #48]
 1847 00b8 9BB2     		uxth	r3, r3
 1848 00ba D318     		adds	r3, r2, r3
 1849 00bc 98B2     		uxth	r0, r3
 1850 00be 7B6B     		ldr	r3, [r7, #52]
 1851 00c0 9BB2     		uxth	r3, r3
 1852 00c2 DB00     		lsls	r3, r3, #3
 1853 00c4 9AB2     		uxth	r2, r3
 1854 00c6 7B68     		ldr	r3, [r7, #4]
 1855 00c8 9BB2     		uxth	r3, r3
 1856 00ca D318     		adds	r3, r2, r3
 1857 00cc 9AB2     		uxth	r2, r3
 1858 00ce FB6A     		ldr	r3, [r7, #44]
ARM GAS  C:\Users\Petro\AppData\Local\Temp\ccT7A2G2.s 			page 41


 1859 00d0 9BB2     		uxth	r3, r3
 1860 00d2 D318     		adds	r3, r2, r3
 1861 00d4 9BB2     		uxth	r3, r3
 1862 00d6 1900     		movs	r1, r3
 1863 00d8 FFF7FEFF 		bl	clrPixel
 1864 00dc 2EE0     		b	.L118
 1865              	.L115:
 385:..\..\common\lib\nokia5110/LCD5110_Graph.c **** 					else
 386:..\..\common\lib\nokia5110/LCD5110_Graph.c **** 						if (cfont.inverted==0)
 1866              		.loc 2 386 0
 1867 00de 714B     		ldr	r3, .L136
 1868 00e0 1B7A     		ldrb	r3, [r3, #8]
 1869 00e2 002B     		cmp	r3, #0
 1870 00e4 15D1     		bne	.L119
 387:..\..\common\lib\nokia5110/LCD5110_Graph.c **** 							clrPixel(x+cnt, y+(rowcnt*8)+b);
 1871              		.loc 2 387 0
 1872 00e6 BB68     		ldr	r3, [r7, #8]
 1873 00e8 9AB2     		uxth	r2, r3
 1874 00ea 3B6B     		ldr	r3, [r7, #48]
 1875 00ec 9BB2     		uxth	r3, r3
 1876 00ee D318     		adds	r3, r2, r3
 1877 00f0 98B2     		uxth	r0, r3
 1878 00f2 7B6B     		ldr	r3, [r7, #52]
 1879 00f4 9BB2     		uxth	r3, r3
 1880 00f6 DB00     		lsls	r3, r3, #3
 1881 00f8 9AB2     		uxth	r2, r3
 1882 00fa 7B68     		ldr	r3, [r7, #4]
 1883 00fc 9BB2     		uxth	r3, r3
 1884 00fe D318     		adds	r3, r2, r3
 1885 0100 9AB2     		uxth	r2, r3
 1886 0102 FB6A     		ldr	r3, [r7, #44]
 1887 0104 9BB2     		uxth	r3, r3
 1888 0106 D318     		adds	r3, r2, r3
 1889 0108 9BB2     		uxth	r3, r3
 1890 010a 1900     		movs	r1, r3
 1891 010c FFF7FEFF 		bl	clrPixel
 1892 0110 14E0     		b	.L118
 1893              	.L119:
 388:..\..\common\lib\nokia5110/LCD5110_Graph.c **** 						else
 389:..\..\common\lib\nokia5110/LCD5110_Graph.c **** 							setPixel(x+cnt, y+(rowcnt*8)+b);
 1894              		.loc 2 389 0
 1895 0112 BB68     		ldr	r3, [r7, #8]
 1896 0114 9AB2     		uxth	r2, r3
 1897 0116 3B6B     		ldr	r3, [r7, #48]
 1898 0118 9BB2     		uxth	r3, r3
 1899 011a D318     		adds	r3, r2, r3
 1900 011c 98B2     		uxth	r0, r3
 1901 011e 7B6B     		ldr	r3, [r7, #52]
 1902 0120 9BB2     		uxth	r3, r3
 1903 0122 DB00     		lsls	r3, r3, #3
 1904 0124 9AB2     		uxth	r2, r3
 1905 0126 7B68     		ldr	r3, [r7, #4]
 1906 0128 9BB2     		uxth	r3, r3
 1907 012a D318     		adds	r3, r2, r3
 1908 012c 9AB2     		uxth	r2, r3
 1909 012e FB6A     		ldr	r3, [r7, #44]
 1910 0130 9BB2     		uxth	r3, r3
ARM GAS  C:\Users\Petro\AppData\Local\Temp\ccT7A2G2.s 			page 42


 1911 0132 D318     		adds	r3, r2, r3
 1912 0134 9BB2     		uxth	r3, r3
 1913 0136 1900     		movs	r1, r3
 1914 0138 FFF7FEFF 		bl	setPixel
 1915              	.L118:
 379:..\..\common\lib\nokia5110/LCD5110_Graph.c **** 					if ((fontbyte(font_idx+cnt+(rowcnt*cfont.x_size)) & (1<<b))!=0)
 1916              		.loc 2 379 0 discriminator 2
 1917 013c FB6A     		ldr	r3, [r7, #44]
 1918 013e 0133     		adds	r3, r3, #1
 1919 0140 FB62     		str	r3, [r7, #44]
 1920              	.L114:
 379:..\..\common\lib\nokia5110/LCD5110_Graph.c **** 					if ((fontbyte(font_idx+cnt+(rowcnt*cfont.x_size)) & (1<<b))!=0)
 1921              		.loc 2 379 0 is_stmt 0 discriminator 1
 1922 0142 FB6A     		ldr	r3, [r7, #44]
 1923 0144 072B     		cmp	r3, #7
 1924 0146 86DD     		ble	.L120
 1925              	.LBE10:
 376:..\..\common\lib\nokia5110/LCD5110_Graph.c **** 			{
 1926              		.loc 2 376 0 is_stmt 1 discriminator 2
 1927 0148 3B6B     		ldr	r3, [r7, #48]
 1928 014a 0133     		adds	r3, r3, #1
 1929 014c 3B63     		str	r3, [r7, #48]
 1930              	.L113:
 376:..\..\common\lib\nokia5110/LCD5110_Graph.c **** 			{
 1931              		.loc 2 376 0 is_stmt 0 discriminator 1
 1932 014e 554B     		ldr	r3, .L136
 1933 0150 1B79     		ldrb	r3, [r3, #4]
 1934 0152 1A00     		movs	r2, r3
 1935 0154 3B6B     		ldr	r3, [r7, #48]
 1936 0156 9A42     		cmp	r2, r3
 1937 0158 00DD     		ble	.LCB1705
 1938 015a 79E7     		b	.L121	@long jump
 1939              	.LCB1705:
 1940              	.LBE9:
 373:..\..\common\lib\nokia5110/LCD5110_Graph.c **** 		{
 1941              		.loc 2 373 0 is_stmt 1 discriminator 2
 1942 015c 7B6B     		ldr	r3, [r7, #52]
 1943 015e 0133     		adds	r3, r3, #1
 1944 0160 7B63     		str	r3, [r7, #52]
 1945              	.L112:
 373:..\..\common\lib\nokia5110/LCD5110_Graph.c **** 		{
 1946              		.loc 2 373 0 is_stmt 0 discriminator 1
 1947 0162 504B     		ldr	r3, .L136
 1948 0164 5B79     		ldrb	r3, [r3, #5]
 1949 0166 DB08     		lsrs	r3, r3, #3
 1950 0168 DBB2     		uxtb	r3, r3
 1951 016a 1A00     		movs	r2, r3
 1952 016c 7B6B     		ldr	r3, [r7, #52]
 1953 016e 9A42     		cmp	r2, r3
 1954 0170 00DD     		ble	.LCB1719
 1955 0172 6AE7     		b	.L122	@long jump
 1956              	.LCB1719:
 1957              	.LBE8:
 390:..\..\common\lib\nokia5110/LCD5110_Graph.c **** 			}
 391:..\..\common\lib\nokia5110/LCD5110_Graph.c **** 		}
 392:..\..\common\lib\nokia5110/LCD5110_Graph.c **** 	}
 393:..\..\common\lib\nokia5110/LCD5110_Graph.c **** 	else
ARM GAS  C:\Users\Petro\AppData\Local\Temp\ccT7A2G2.s 			page 43


 394:..\..\common\lib\nokia5110/LCD5110_Graph.c **** 	{
 395:..\..\common\lib\nokia5110/LCD5110_Graph.c **** 		int font_idx = ((c - cfont.offset)*((cfont.x_size*cfont.y_size/8)))+4;
 396:..\..\common\lib\nokia5110/LCD5110_Graph.c **** 		int cbyte=fontbyte(font_idx);
 397:..\..\common\lib\nokia5110/LCD5110_Graph.c **** 		int cbit=7;
 398:..\..\common\lib\nokia5110/LCD5110_Graph.c ****         int cx;
 399:..\..\common\lib\nokia5110/LCD5110_Graph.c **** 		for (cx=0; cx<cfont.x_size; cx++)
 400:..\..\common\lib\nokia5110/LCD5110_Graph.c **** 		{
 401:..\..\common\lib\nokia5110/LCD5110_Graph.c ****             int cy;
 402:..\..\common\lib\nokia5110/LCD5110_Graph.c **** 			for (cy=0; cy<cfont.y_size; cy++)
 403:..\..\common\lib\nokia5110/LCD5110_Graph.c **** 			{
 404:..\..\common\lib\nokia5110/LCD5110_Graph.c **** 				if ((cbyte & (1<<cbit)) != 0)
 405:..\..\common\lib\nokia5110/LCD5110_Graph.c **** 					if (cfont.inverted==0)
 406:..\..\common\lib\nokia5110/LCD5110_Graph.c **** 						setPixel(x+cx, y+cy);
 407:..\..\common\lib\nokia5110/LCD5110_Graph.c **** 					else
 408:..\..\common\lib\nokia5110/LCD5110_Graph.c **** 						clrPixel(x+cx, y+cy);
 409:..\..\common\lib\nokia5110/LCD5110_Graph.c **** 				else
 410:..\..\common\lib\nokia5110/LCD5110_Graph.c **** 					if (cfont.inverted==0)
 411:..\..\common\lib\nokia5110/LCD5110_Graph.c **** 						clrPixel(x+cx, y+cy);
 412:..\..\common\lib\nokia5110/LCD5110_Graph.c **** 					else
 413:..\..\common\lib\nokia5110/LCD5110_Graph.c **** 						setPixel(x+cx, y+cy);
 414:..\..\common\lib\nokia5110/LCD5110_Graph.c **** 				cbit--;
 415:..\..\common\lib\nokia5110/LCD5110_Graph.c **** 				if (cbit<0)
 416:..\..\common\lib\nokia5110/LCD5110_Graph.c **** 				{
 417:..\..\common\lib\nokia5110/LCD5110_Graph.c **** 					cbit=7;
 418:..\..\common\lib\nokia5110/LCD5110_Graph.c **** 					font_idx++;
 419:..\..\common\lib\nokia5110/LCD5110_Graph.c **** 					cbyte=fontbyte(font_idx);
 420:..\..\common\lib\nokia5110/LCD5110_Graph.c **** 				}
 421:..\..\common\lib\nokia5110/LCD5110_Graph.c **** 			}
 422:..\..\common\lib\nokia5110/LCD5110_Graph.c **** 		}
 423:..\..\common\lib\nokia5110/LCD5110_Graph.c **** 	}
 424:..\..\common\lib\nokia5110/LCD5110_Graph.c **** }
 1958              		.loc 2 424 0 is_stmt 1
 1959 0174 91E0     		b	.L135
 1960              	.L111:
 1961              	.LBB11:
 395:..\..\common\lib\nokia5110/LCD5110_Graph.c **** 		int cbyte=fontbyte(font_idx);
 1962              		.loc 2 395 0
 1963 0176 0F23     		movs	r3, #15
 1964 0178 FB18     		adds	r3, r7, r3
 1965 017a 1B78     		ldrb	r3, [r3]
 1966 017c 494A     		ldr	r2, .L136
 1967 017e 9279     		ldrb	r2, [r2, #6]
 1968 0180 9A1A     		subs	r2, r3, r2
 1969 0182 484B     		ldr	r3, .L136
 1970 0184 1B79     		ldrb	r3, [r3, #4]
 1971 0186 1900     		movs	r1, r3
 1972 0188 464B     		ldr	r3, .L136
 1973 018a 5B79     		ldrb	r3, [r3, #5]
 1974 018c 4B43     		muls	r3, r1
 1975 018e 002B     		cmp	r3, #0
 1976 0190 00DA     		bge	.L124
 1977 0192 0733     		adds	r3, r3, #7
 1978              	.L124:
 1979 0194 DB10     		asrs	r3, r3, #3
 1980 0196 5343     		muls	r3, r2
 1981 0198 0433     		adds	r3, r3, #4
 1982 019a BB62     		str	r3, [r7, #40]
ARM GAS  C:\Users\Petro\AppData\Local\Temp\ccT7A2G2.s 			page 44


 396:..\..\common\lib\nokia5110/LCD5110_Graph.c **** 		int cbit=7;
 1983              		.loc 2 396 0
 1984 019c 414B     		ldr	r3, .L136
 1985 019e 1A68     		ldr	r2, [r3]
 1986 01a0 BB6A     		ldr	r3, [r7, #40]
 1987 01a2 D318     		adds	r3, r2, r3
 1988 01a4 1B78     		ldrb	r3, [r3]
 1989 01a6 7B62     		str	r3, [r7, #36]
 397:..\..\common\lib\nokia5110/LCD5110_Graph.c ****         int cx;
 1990              		.loc 2 397 0
 1991 01a8 0723     		movs	r3, #7
 1992 01aa 3B62     		str	r3, [r7, #32]
 399:..\..\common\lib\nokia5110/LCD5110_Graph.c **** 		{
 1993              		.loc 2 399 0
 1994 01ac 0023     		movs	r3, #0
 1995 01ae FB61     		str	r3, [r7, #28]
 1996 01b0 6DE0     		b	.L125
 1997              	.L134:
 1998              	.LBB12:
 402:..\..\common\lib\nokia5110/LCD5110_Graph.c **** 			{
 1999              		.loc 2 402 0
 2000 01b2 0023     		movs	r3, #0
 2001 01b4 BB61     		str	r3, [r7, #24]
 2002 01b6 61E0     		b	.L126
 2003              	.L133:
 404:..\..\common\lib\nokia5110/LCD5110_Graph.c **** 					if (cfont.inverted==0)
 2004              		.loc 2 404 0
 2005 01b8 7A6A     		ldr	r2, [r7, #36]
 2006 01ba 3B6A     		ldr	r3, [r7, #32]
 2007 01bc 1A41     		asrs	r2, r2, r3
 2008 01be 1300     		movs	r3, r2
 2009 01c0 0122     		movs	r2, #1
 2010 01c2 1340     		ands	r3, r2
 2011 01c4 23D0     		beq	.L127
 405:..\..\common\lib\nokia5110/LCD5110_Graph.c **** 						setPixel(x+cx, y+cy);
 2012              		.loc 2 405 0
 2013 01c6 374B     		ldr	r3, .L136
 2014 01c8 1B7A     		ldrb	r3, [r3, #8]
 2015 01ca 002B     		cmp	r3, #0
 2016 01cc 0FD1     		bne	.L128
 406:..\..\common\lib\nokia5110/LCD5110_Graph.c **** 					else
 2017              		.loc 2 406 0
 2018 01ce BB68     		ldr	r3, [r7, #8]
 2019 01d0 9AB2     		uxth	r2, r3
 2020 01d2 FB69     		ldr	r3, [r7, #28]
 2021 01d4 9BB2     		uxth	r3, r3
 2022 01d6 D318     		adds	r3, r2, r3
 2023 01d8 98B2     		uxth	r0, r3
 2024 01da 7B68     		ldr	r3, [r7, #4]
 2025 01dc 9AB2     		uxth	r2, r3
 2026 01de BB69     		ldr	r3, [r7, #24]
 2027 01e0 9BB2     		uxth	r3, r3
 2028 01e2 D318     		adds	r3, r2, r3
 2029 01e4 9BB2     		uxth	r3, r3
 2030 01e6 1900     		movs	r1, r3
 2031 01e8 FFF7FEFF 		bl	setPixel
 2032 01ec 32E0     		b	.L130
ARM GAS  C:\Users\Petro\AppData\Local\Temp\ccT7A2G2.s 			page 45


 2033              	.L128:
 408:..\..\common\lib\nokia5110/LCD5110_Graph.c **** 				else
 2034              		.loc 2 408 0
 2035 01ee BB68     		ldr	r3, [r7, #8]
 2036 01f0 9AB2     		uxth	r2, r3
 2037 01f2 FB69     		ldr	r3, [r7, #28]
 2038 01f4 9BB2     		uxth	r3, r3
 2039 01f6 D318     		adds	r3, r2, r3
 2040 01f8 98B2     		uxth	r0, r3
 2041 01fa 7B68     		ldr	r3, [r7, #4]
 2042 01fc 9AB2     		uxth	r2, r3
 2043 01fe BB69     		ldr	r3, [r7, #24]
 2044 0200 9BB2     		uxth	r3, r3
 2045 0202 D318     		adds	r3, r2, r3
 2046 0204 9BB2     		uxth	r3, r3
 2047 0206 1900     		movs	r1, r3
 2048 0208 FFF7FEFF 		bl	clrPixel
 2049 020c 22E0     		b	.L130
 2050              	.L127:
 410:..\..\common\lib\nokia5110/LCD5110_Graph.c **** 						clrPixel(x+cx, y+cy);
 2051              		.loc 2 410 0
 2052 020e 254B     		ldr	r3, .L136
 2053 0210 1B7A     		ldrb	r3, [r3, #8]
 2054 0212 002B     		cmp	r3, #0
 2055 0214 0FD1     		bne	.L131
 411:..\..\common\lib\nokia5110/LCD5110_Graph.c **** 					else
 2056              		.loc 2 411 0
 2057 0216 BB68     		ldr	r3, [r7, #8]
 2058 0218 9AB2     		uxth	r2, r3
 2059 021a FB69     		ldr	r3, [r7, #28]
 2060 021c 9BB2     		uxth	r3, r3
 2061 021e D318     		adds	r3, r2, r3
 2062 0220 98B2     		uxth	r0, r3
 2063 0222 7B68     		ldr	r3, [r7, #4]
 2064 0224 9AB2     		uxth	r2, r3
 2065 0226 BB69     		ldr	r3, [r7, #24]
 2066 0228 9BB2     		uxth	r3, r3
 2067 022a D318     		adds	r3, r2, r3
 2068 022c 9BB2     		uxth	r3, r3
 2069 022e 1900     		movs	r1, r3
 2070 0230 FFF7FEFF 		bl	clrPixel
 2071 0234 0EE0     		b	.L130
 2072              	.L131:
 413:..\..\common\lib\nokia5110/LCD5110_Graph.c **** 				cbit--;
 2073              		.loc 2 413 0
 2074 0236 BB68     		ldr	r3, [r7, #8]
 2075 0238 9AB2     		uxth	r2, r3
 2076 023a FB69     		ldr	r3, [r7, #28]
 2077 023c 9BB2     		uxth	r3, r3
 2078 023e D318     		adds	r3, r2, r3
 2079 0240 98B2     		uxth	r0, r3
 2080 0242 7B68     		ldr	r3, [r7, #4]
 2081 0244 9AB2     		uxth	r2, r3
 2082 0246 BB69     		ldr	r3, [r7, #24]
 2083 0248 9BB2     		uxth	r3, r3
 2084 024a D318     		adds	r3, r2, r3
 2085 024c 9BB2     		uxth	r3, r3
ARM GAS  C:\Users\Petro\AppData\Local\Temp\ccT7A2G2.s 			page 46


 2086 024e 1900     		movs	r1, r3
 2087 0250 FFF7FEFF 		bl	setPixel
 2088              	.L130:
 414:..\..\common\lib\nokia5110/LCD5110_Graph.c **** 				if (cbit<0)
 2089              		.loc 2 414 0
 2090 0254 3B6A     		ldr	r3, [r7, #32]
 2091 0256 013B     		subs	r3, r3, #1
 2092 0258 3B62     		str	r3, [r7, #32]
 415:..\..\common\lib\nokia5110/LCD5110_Graph.c **** 				{
 2093              		.loc 2 415 0
 2094 025a 3B6A     		ldr	r3, [r7, #32]
 2095 025c 002B     		cmp	r3, #0
 2096 025e 0ADA     		bge	.L132
 417:..\..\common\lib\nokia5110/LCD5110_Graph.c **** 					font_idx++;
 2097              		.loc 2 417 0
 2098 0260 0723     		movs	r3, #7
 2099 0262 3B62     		str	r3, [r7, #32]
 418:..\..\common\lib\nokia5110/LCD5110_Graph.c **** 					cbyte=fontbyte(font_idx);
 2100              		.loc 2 418 0
 2101 0264 BB6A     		ldr	r3, [r7, #40]
 2102 0266 0133     		adds	r3, r3, #1
 2103 0268 BB62     		str	r3, [r7, #40]
 419:..\..\common\lib\nokia5110/LCD5110_Graph.c **** 				}
 2104              		.loc 2 419 0
 2105 026a 0E4B     		ldr	r3, .L136
 2106 026c 1A68     		ldr	r2, [r3]
 2107 026e BB6A     		ldr	r3, [r7, #40]
 2108 0270 D318     		adds	r3, r2, r3
 2109 0272 1B78     		ldrb	r3, [r3]
 2110 0274 7B62     		str	r3, [r7, #36]
 2111              	.L132:
 402:..\..\common\lib\nokia5110/LCD5110_Graph.c **** 			{
 2112              		.loc 2 402 0 discriminator 2
 2113 0276 BB69     		ldr	r3, [r7, #24]
 2114 0278 0133     		adds	r3, r3, #1
 2115 027a BB61     		str	r3, [r7, #24]
 2116              	.L126:
 402:..\..\common\lib\nokia5110/LCD5110_Graph.c **** 			{
 2117              		.loc 2 402 0 is_stmt 0 discriminator 1
 2118 027c 094B     		ldr	r3, .L136
 2119 027e 5B79     		ldrb	r3, [r3, #5]
 2120 0280 1A00     		movs	r2, r3
 2121 0282 BB69     		ldr	r3, [r7, #24]
 2122 0284 9A42     		cmp	r2, r3
 2123 0286 97DC     		bgt	.L133
 2124              	.LBE12:
 399:..\..\common\lib\nokia5110/LCD5110_Graph.c **** 		{
 2125              		.loc 2 399 0 is_stmt 1 discriminator 2
 2126 0288 FB69     		ldr	r3, [r7, #28]
 2127 028a 0133     		adds	r3, r3, #1
 2128 028c FB61     		str	r3, [r7, #28]
 2129              	.L125:
 399:..\..\common\lib\nokia5110/LCD5110_Graph.c **** 		{
 2130              		.loc 2 399 0 is_stmt 0 discriminator 1
 2131 028e 054B     		ldr	r3, .L136
 2132 0290 1B79     		ldrb	r3, [r3, #4]
 2133 0292 1A00     		movs	r2, r3
ARM GAS  C:\Users\Petro\AppData\Local\Temp\ccT7A2G2.s 			page 47


 2134 0294 FB69     		ldr	r3, [r7, #28]
 2135 0296 9A42     		cmp	r2, r3
 2136 0298 8BDC     		bgt	.L134
 2137              	.L135:
 2138              	.LBE11:
 2139              		.loc 2 424 0 is_stmt 1
 2140 029a C046     		nop
 2141 029c BD46     		mov	sp, r7
 2142 029e 0EB0     		add	sp, sp, #56
 2143              		@ sp needed
 2144 02a0 80BD     		pop	{r7, pc}
 2145              	.L137:
 2146 02a2 C046     		.align	2
 2147              	.L136:
 2148 02a4 00000000 		.word	cfont
 2149              		.cfi_endproc
 2150              	.LFE82:
 2151              		.size	_print_char, .-_print_char
 2152              		.section	.text.setFont,"ax",%progbits
 2153              		.align	2
 2154              		.global	setFont
 2155              		.code	16
 2156              		.thumb_func
 2157              		.type	setFont, %function
 2158              	setFont:
 2159              	.LFB83:
 425:..\..\common\lib\nokia5110/LCD5110_Graph.c **** 
 426:..\..\common\lib\nokia5110/LCD5110_Graph.c **** void setFont(uint8_t* font)
 427:..\..\common\lib\nokia5110/LCD5110_Graph.c **** {
 2160              		.loc 2 427 0
 2161              		.cfi_startproc
 2162              		@ args = 0, pretend = 0, frame = 8
 2163              		@ frame_needed = 1, uses_anonymous_args = 0
 2164 0000 80B5     		push	{r7, lr}
 2165              		.cfi_def_cfa_offset 8
 2166              		.cfi_offset 7, -8
 2167              		.cfi_offset 14, -4
 2168 0002 82B0     		sub	sp, sp, #8
 2169              		.cfi_def_cfa_offset 16
 2170 0004 00AF     		add	r7, sp, #0
 2171              		.cfi_def_cfa_register 7
 2172 0006 7860     		str	r0, [r7, #4]
 428:..\..\common\lib\nokia5110/LCD5110_Graph.c **** 	cfont.font=font;
 2173              		.loc 2 428 0
 2174 0008 0E4B     		ldr	r3, .L139
 2175 000a 7A68     		ldr	r2, [r7, #4]
 2176 000c 1A60     		str	r2, [r3]
 429:..\..\common\lib\nokia5110/LCD5110_Graph.c **** 	cfont.x_size=fontbyte(0);
 2177              		.loc 2 429 0
 2178 000e 0D4B     		ldr	r3, .L139
 2179 0010 1B68     		ldr	r3, [r3]
 2180 0012 1A78     		ldrb	r2, [r3]
 2181 0014 0B4B     		ldr	r3, .L139
 2182 0016 1A71     		strb	r2, [r3, #4]
 430:..\..\common\lib\nokia5110/LCD5110_Graph.c **** 	cfont.y_size=fontbyte(1);
 2183              		.loc 2 430 0
 2184 0018 0A4B     		ldr	r3, .L139
ARM GAS  C:\Users\Petro\AppData\Local\Temp\ccT7A2G2.s 			page 48


 2185 001a 1B68     		ldr	r3, [r3]
 2186 001c 5A78     		ldrb	r2, [r3, #1]
 2187 001e 094B     		ldr	r3, .L139
 2188 0020 5A71     		strb	r2, [r3, #5]
 431:..\..\common\lib\nokia5110/LCD5110_Graph.c **** 	cfont.offset=fontbyte(2);
 2189              		.loc 2 431 0
 2190 0022 084B     		ldr	r3, .L139
 2191 0024 1B68     		ldr	r3, [r3]
 2192 0026 9A78     		ldrb	r2, [r3, #2]
 2193 0028 064B     		ldr	r3, .L139
 2194 002a 9A71     		strb	r2, [r3, #6]
 432:..\..\common\lib\nokia5110/LCD5110_Graph.c **** 	cfont.numchars=fontbyte(3);
 2195              		.loc 2 432 0
 2196 002c 054B     		ldr	r3, .L139
 2197 002e 1B68     		ldr	r3, [r3]
 2198 0030 DA78     		ldrb	r2, [r3, #3]
 2199 0032 044B     		ldr	r3, .L139
 2200 0034 DA71     		strb	r2, [r3, #7]
 433:..\..\common\lib\nokia5110/LCD5110_Graph.c **** 	cfont.inverted=0;
 2201              		.loc 2 433 0
 2202 0036 034B     		ldr	r3, .L139
 2203 0038 0022     		movs	r2, #0
 2204 003a 1A72     		strb	r2, [r3, #8]
 434:..\..\common\lib\nokia5110/LCD5110_Graph.c **** }
 2205              		.loc 2 434 0
 2206 003c C046     		nop
 2207 003e BD46     		mov	sp, r7
 2208 0040 02B0     		add	sp, sp, #8
 2209              		@ sp needed
 2210 0042 80BD     		pop	{r7, pc}
 2211              	.L140:
 2212              		.align	2
 2213              	.L139:
 2214 0044 00000000 		.word	cfont
 2215              		.cfi_endproc
 2216              	.LFE83:
 2217              		.size	setFont, .-setFont
 2218              		.section	.text.drawHLine,"ax",%progbits
 2219              		.align	2
 2220              		.global	drawHLine
 2221              		.code	16
 2222              		.thumb_func
 2223              		.type	drawHLine, %function
 2224              	drawHLine:
 2225              	.LFB84:
 435:..\..\common\lib\nokia5110/LCD5110_Graph.c **** 
 436:..\..\common\lib\nokia5110/LCD5110_Graph.c **** void drawHLine(int x, int y, int l)
 437:..\..\common\lib\nokia5110/LCD5110_Graph.c **** {
 2226              		.loc 2 437 0
 2227              		.cfi_startproc
 2228              		@ args = 0, pretend = 0, frame = 32
 2229              		@ frame_needed = 1, uses_anonymous_args = 0
 2230 0000 80B5     		push	{r7, lr}
 2231              		.cfi_def_cfa_offset 8
 2232              		.cfi_offset 7, -8
 2233              		.cfi_offset 14, -4
 2234 0002 88B0     		sub	sp, sp, #32
ARM GAS  C:\Users\Petro\AppData\Local\Temp\ccT7A2G2.s 			page 49


 2235              		.cfi_def_cfa_offset 40
 2236 0004 00AF     		add	r7, sp, #0
 2237              		.cfi_def_cfa_register 7
 2238 0006 F860     		str	r0, [r7, #12]
 2239 0008 B960     		str	r1, [r7, #8]
 2240 000a 7A60     		str	r2, [r7, #4]
 438:..\..\common\lib\nokia5110/LCD5110_Graph.c **** 	int by, bi;
 439:..\..\common\lib\nokia5110/LCD5110_Graph.c **** 
 440:..\..\common\lib\nokia5110/LCD5110_Graph.c **** 	if ((x>=0) && (x<84) && (y>=0) && (y<48))
 2241              		.loc 2 440 0
 2242 000c FB68     		ldr	r3, [r7, #12]
 2243 000e 002B     		cmp	r3, #0
 2244 0010 3ADB     		blt	.L147
 2245              		.loc 2 440 0 is_stmt 0 discriminator 1
 2246 0012 FB68     		ldr	r3, [r7, #12]
 2247 0014 532B     		cmp	r3, #83
 2248 0016 37DC     		bgt	.L147
 2249              		.loc 2 440 0 discriminator 2
 2250 0018 BB68     		ldr	r3, [r7, #8]
 2251 001a 002B     		cmp	r3, #0
 2252 001c 34DB     		blt	.L147
 2253              		.loc 2 440 0 discriminator 3
 2254 001e BB68     		ldr	r3, [r7, #8]
 2255 0020 2F2B     		cmp	r3, #47
 2256 0022 31DC     		bgt	.L147
 2257              	.LBB13:
 441:..\..\common\lib\nokia5110/LCD5110_Graph.c **** 	{
 442:..\..\common\lib\nokia5110/LCD5110_Graph.c ****         int cx;
 443:..\..\common\lib\nokia5110/LCD5110_Graph.c **** 		for (cx=0; cx<l; cx++)
 2258              		.loc 2 443 0 is_stmt 1
 2259 0024 0023     		movs	r3, #0
 2260 0026 FB61     		str	r3, [r7, #28]
 2261 0028 2AE0     		b	.L143
 2262              	.L146:
 444:..\..\common\lib\nokia5110/LCD5110_Graph.c **** 		{
 445:..\..\common\lib\nokia5110/LCD5110_Graph.c **** 			by=((y/8)*84)+x;
 2263              		.loc 2 445 0 discriminator 3
 2264 002a BB68     		ldr	r3, [r7, #8]
 2265 002c 002B     		cmp	r3, #0
 2266 002e 00DA     		bge	.L144
 2267 0030 0733     		adds	r3, r3, #7
 2268              	.L144:
 2269 0032 DB10     		asrs	r3, r3, #3
 2270 0034 1A00     		movs	r2, r3
 2271 0036 5423     		movs	r3, #84
 2272 0038 5A43     		muls	r2, r3
 2273 003a FB68     		ldr	r3, [r7, #12]
 2274 003c D318     		adds	r3, r2, r3
 2275 003e BB61     		str	r3, [r7, #24]
 446:..\..\common\lib\nokia5110/LCD5110_Graph.c **** 			bi=y % 8;
 2276              		.loc 2 446 0 discriminator 3
 2277 0040 BB68     		ldr	r3, [r7, #8]
 2278 0042 134A     		ldr	r2, .L148
 2279 0044 1340     		ands	r3, r2
 2280 0046 04D5     		bpl	.L145
 2281 0048 013B     		subs	r3, r3, #1
 2282 004a 0822     		movs	r2, #8
ARM GAS  C:\Users\Petro\AppData\Local\Temp\ccT7A2G2.s 			page 50


 2283 004c 5242     		rsbs	r2, r2, #0
 2284 004e 1343     		orrs	r3, r2
 2285 0050 0133     		adds	r3, r3, #1
 2286              	.L145:
 2287 0052 7B61     		str	r3, [r7, #20]
 447:..\..\common\lib\nokia5110/LCD5110_Graph.c **** 
 448:..\..\common\lib\nokia5110/LCD5110_Graph.c **** 			scrbuf[by+cx] |= (1<<bi);
 2288              		.loc 2 448 0 discriminator 3
 2289 0054 BA69     		ldr	r2, [r7, #24]
 2290 0056 FB69     		ldr	r3, [r7, #28]
 2291 0058 D318     		adds	r3, r2, r3
 2292 005a B969     		ldr	r1, [r7, #24]
 2293 005c FA69     		ldr	r2, [r7, #28]
 2294 005e 8A18     		adds	r2, r1, r2
 2295 0060 0C49     		ldr	r1, .L148+4
 2296 0062 8A5C     		ldrb	r2, [r1, r2]
 2297 0064 51B2     		sxtb	r1, r2
 2298 0066 0120     		movs	r0, #1
 2299 0068 7A69     		ldr	r2, [r7, #20]
 2300 006a 9040     		lsls	r0, r0, r2
 2301 006c 0200     		movs	r2, r0
 2302 006e 52B2     		sxtb	r2, r2
 2303 0070 0A43     		orrs	r2, r1
 2304 0072 52B2     		sxtb	r2, r2
 2305 0074 D1B2     		uxtb	r1, r2
 2306 0076 074A     		ldr	r2, .L148+4
 2307 0078 D154     		strb	r1, [r2, r3]
 443:..\..\common\lib\nokia5110/LCD5110_Graph.c **** 		{
 2308              		.loc 2 443 0 discriminator 3
 2309 007a FB69     		ldr	r3, [r7, #28]
 2310 007c 0133     		adds	r3, r3, #1
 2311 007e FB61     		str	r3, [r7, #28]
 2312              	.L143:
 443:..\..\common\lib\nokia5110/LCD5110_Graph.c **** 		{
 2313              		.loc 2 443 0 is_stmt 0 discriminator 1
 2314 0080 FA69     		ldr	r2, [r7, #28]
 2315 0082 7B68     		ldr	r3, [r7, #4]
 2316 0084 9A42     		cmp	r2, r3
 2317 0086 D0DB     		blt	.L146
 2318              	.L147:
 2319              	.LBE13:
 449:..\..\common\lib\nokia5110/LCD5110_Graph.c **** 		}
 450:..\..\common\lib\nokia5110/LCD5110_Graph.c **** 	}
 451:..\..\common\lib\nokia5110/LCD5110_Graph.c **** }
 2320              		.loc 2 451 0 is_stmt 1
 2321 0088 C046     		nop
 2322 008a BD46     		mov	sp, r7
 2323 008c 08B0     		add	sp, sp, #32
 2324              		@ sp needed
 2325 008e 80BD     		pop	{r7, pc}
 2326              	.L149:
 2327              		.align	2
 2328              	.L148:
 2329 0090 07000080 		.word	-2147483641
 2330 0094 00000000 		.word	scrbuf
 2331              		.cfi_endproc
 2332              	.LFE84:
ARM GAS  C:\Users\Petro\AppData\Local\Temp\ccT7A2G2.s 			page 51


 2333              		.size	drawHLine, .-drawHLine
 2334              		.section	.text.clrHLine,"ax",%progbits
 2335              		.align	2
 2336              		.global	clrHLine
 2337              		.code	16
 2338              		.thumb_func
 2339              		.type	clrHLine, %function
 2340              	clrHLine:
 2341              	.LFB85:
 452:..\..\common\lib\nokia5110/LCD5110_Graph.c **** 
 453:..\..\common\lib\nokia5110/LCD5110_Graph.c **** void clrHLine(int x, int y, int l)
 454:..\..\common\lib\nokia5110/LCD5110_Graph.c **** {
 2342              		.loc 2 454 0
 2343              		.cfi_startproc
 2344              		@ args = 0, pretend = 0, frame = 32
 2345              		@ frame_needed = 1, uses_anonymous_args = 0
 2346 0000 80B5     		push	{r7, lr}
 2347              		.cfi_def_cfa_offset 8
 2348              		.cfi_offset 7, -8
 2349              		.cfi_offset 14, -4
 2350 0002 88B0     		sub	sp, sp, #32
 2351              		.cfi_def_cfa_offset 40
 2352 0004 00AF     		add	r7, sp, #0
 2353              		.cfi_def_cfa_register 7
 2354 0006 F860     		str	r0, [r7, #12]
 2355 0008 B960     		str	r1, [r7, #8]
 2356 000a 7A60     		str	r2, [r7, #4]
 455:..\..\common\lib\nokia5110/LCD5110_Graph.c **** 	int by, bi;
 456:..\..\common\lib\nokia5110/LCD5110_Graph.c **** 
 457:..\..\common\lib\nokia5110/LCD5110_Graph.c **** 	if ((x>=0) && (x<84) && (y>=0) && (y<48))
 2357              		.loc 2 457 0
 2358 000c FB68     		ldr	r3, [r7, #12]
 2359 000e 002B     		cmp	r3, #0
 2360 0010 3CDB     		blt	.L156
 2361              		.loc 2 457 0 is_stmt 0 discriminator 1
 2362 0012 FB68     		ldr	r3, [r7, #12]
 2363 0014 532B     		cmp	r3, #83
 2364 0016 39DC     		bgt	.L156
 2365              		.loc 2 457 0 discriminator 2
 2366 0018 BB68     		ldr	r3, [r7, #8]
 2367 001a 002B     		cmp	r3, #0
 2368 001c 36DB     		blt	.L156
 2369              		.loc 2 457 0 discriminator 3
 2370 001e BB68     		ldr	r3, [r7, #8]
 2371 0020 2F2B     		cmp	r3, #47
 2372 0022 33DC     		bgt	.L156
 2373              	.LBB14:
 458:..\..\common\lib\nokia5110/LCD5110_Graph.c **** 	{
 459:..\..\common\lib\nokia5110/LCD5110_Graph.c ****         int cx;
 460:..\..\common\lib\nokia5110/LCD5110_Graph.c **** 		for (cx=0; cx<l; cx++)
 2374              		.loc 2 460 0 is_stmt 1
 2375 0024 0023     		movs	r3, #0
 2376 0026 FB61     		str	r3, [r7, #28]
 2377 0028 2CE0     		b	.L152
 2378              	.L155:
 461:..\..\common\lib\nokia5110/LCD5110_Graph.c **** 		{
 462:..\..\common\lib\nokia5110/LCD5110_Graph.c **** 			by=((y/8)*84)+x;
ARM GAS  C:\Users\Petro\AppData\Local\Temp\ccT7A2G2.s 			page 52


 2379              		.loc 2 462 0 discriminator 3
 2380 002a BB68     		ldr	r3, [r7, #8]
 2381 002c 002B     		cmp	r3, #0
 2382 002e 00DA     		bge	.L153
 2383 0030 0733     		adds	r3, r3, #7
 2384              	.L153:
 2385 0032 DB10     		asrs	r3, r3, #3
 2386 0034 1A00     		movs	r2, r3
 2387 0036 5423     		movs	r3, #84
 2388 0038 5A43     		muls	r2, r3
 2389 003a FB68     		ldr	r3, [r7, #12]
 2390 003c D318     		adds	r3, r2, r3
 2391 003e BB61     		str	r3, [r7, #24]
 463:..\..\common\lib\nokia5110/LCD5110_Graph.c **** 			bi=y % 8;
 2392              		.loc 2 463 0 discriminator 3
 2393 0040 BB68     		ldr	r3, [r7, #8]
 2394 0042 144A     		ldr	r2, .L157
 2395 0044 1340     		ands	r3, r2
 2396 0046 04D5     		bpl	.L154
 2397 0048 013B     		subs	r3, r3, #1
 2398 004a 0822     		movs	r2, #8
 2399 004c 5242     		rsbs	r2, r2, #0
 2400 004e 1343     		orrs	r3, r2
 2401 0050 0133     		adds	r3, r3, #1
 2402              	.L154:
 2403 0052 7B61     		str	r3, [r7, #20]
 464:..\..\common\lib\nokia5110/LCD5110_Graph.c **** 
 465:..\..\common\lib\nokia5110/LCD5110_Graph.c **** 			scrbuf[by+cx] &= ~(1<<bi);
 2404              		.loc 2 465 0 discriminator 3
 2405 0054 BA69     		ldr	r2, [r7, #24]
 2406 0056 FB69     		ldr	r3, [r7, #28]
 2407 0058 D318     		adds	r3, r2, r3
 2408 005a B969     		ldr	r1, [r7, #24]
 2409 005c FA69     		ldr	r2, [r7, #28]
 2410 005e 8A18     		adds	r2, r1, r2
 2411 0060 0D49     		ldr	r1, .L157+4
 2412 0062 8A5C     		ldrb	r2, [r1, r2]
 2413 0064 52B2     		sxtb	r2, r2
 2414 0066 0120     		movs	r0, #1
 2415 0068 7969     		ldr	r1, [r7, #20]
 2416 006a 8840     		lsls	r0, r0, r1
 2417 006c 0100     		movs	r1, r0
 2418 006e 49B2     		sxtb	r1, r1
 2419 0070 C943     		mvns	r1, r1
 2420 0072 49B2     		sxtb	r1, r1
 2421 0074 0A40     		ands	r2, r1
 2422 0076 52B2     		sxtb	r2, r2
 2423 0078 D1B2     		uxtb	r1, r2
 2424 007a 074A     		ldr	r2, .L157+4
 2425 007c D154     		strb	r1, [r2, r3]
 460:..\..\common\lib\nokia5110/LCD5110_Graph.c **** 		{
 2426              		.loc 2 460 0 discriminator 3
 2427 007e FB69     		ldr	r3, [r7, #28]
 2428 0080 0133     		adds	r3, r3, #1
 2429 0082 FB61     		str	r3, [r7, #28]
 2430              	.L152:
 460:..\..\common\lib\nokia5110/LCD5110_Graph.c **** 		{
ARM GAS  C:\Users\Petro\AppData\Local\Temp\ccT7A2G2.s 			page 53


 2431              		.loc 2 460 0 is_stmt 0 discriminator 1
 2432 0084 FA69     		ldr	r2, [r7, #28]
 2433 0086 7B68     		ldr	r3, [r7, #4]
 2434 0088 9A42     		cmp	r2, r3
 2435 008a CEDB     		blt	.L155
 2436              	.L156:
 2437              	.LBE14:
 466:..\..\common\lib\nokia5110/LCD5110_Graph.c **** 		}
 467:..\..\common\lib\nokia5110/LCD5110_Graph.c **** 	}
 468:..\..\common\lib\nokia5110/LCD5110_Graph.c **** }
 2438              		.loc 2 468 0 is_stmt 1
 2439 008c C046     		nop
 2440 008e BD46     		mov	sp, r7
 2441 0090 08B0     		add	sp, sp, #32
 2442              		@ sp needed
 2443 0092 80BD     		pop	{r7, pc}
 2444              	.L158:
 2445              		.align	2
 2446              	.L157:
 2447 0094 07000080 		.word	-2147483641
 2448 0098 00000000 		.word	scrbuf
 2449              		.cfi_endproc
 2450              	.LFE85:
 2451              		.size	clrHLine, .-clrHLine
 2452              		.section	.text.drawVLine,"ax",%progbits
 2453              		.align	2
 2454              		.global	drawVLine
 2455              		.code	16
 2456              		.thumb_func
 2457              		.type	drawVLine, %function
 2458              	drawVLine:
 2459              	.LFB86:
 469:..\..\common\lib\nokia5110/LCD5110_Graph.c **** 
 470:..\..\common\lib\nokia5110/LCD5110_Graph.c **** void drawVLine(int x, int y, int l)
 471:..\..\common\lib\nokia5110/LCD5110_Graph.c **** {
 2460              		.loc 2 471 0
 2461              		.cfi_startproc
 2462              		@ args = 0, pretend = 0, frame = 24
 2463              		@ frame_needed = 1, uses_anonymous_args = 0
 2464 0000 80B5     		push	{r7, lr}
 2465              		.cfi_def_cfa_offset 8
 2466              		.cfi_offset 7, -8
 2467              		.cfi_offset 14, -4
 2468 0002 86B0     		sub	sp, sp, #24
 2469              		.cfi_def_cfa_offset 32
 2470 0004 00AF     		add	r7, sp, #0
 2471              		.cfi_def_cfa_register 7
 2472 0006 F860     		str	r0, [r7, #12]
 2473 0008 B960     		str	r1, [r7, #8]
 2474 000a 7A60     		str	r2, [r7, #4]
 472:..\..\common\lib\nokia5110/LCD5110_Graph.c **** 	int by, bi;
 473:..\..\common\lib\nokia5110/LCD5110_Graph.c **** 
 474:..\..\common\lib\nokia5110/LCD5110_Graph.c **** 	if ((x>=0) && (x<84) && (y>=0) && (y<48))
 2475              		.loc 2 474 0
 2476 000c FB68     		ldr	r3, [r7, #12]
 2477 000e 002B     		cmp	r3, #0
 2478 0010 1DDB     		blt	.L163
ARM GAS  C:\Users\Petro\AppData\Local\Temp\ccT7A2G2.s 			page 54


 2479              		.loc 2 474 0 is_stmt 0 discriminator 1
 2480 0012 FB68     		ldr	r3, [r7, #12]
 2481 0014 532B     		cmp	r3, #83
 2482 0016 1ADC     		bgt	.L163
 2483              		.loc 2 474 0 discriminator 2
 2484 0018 BB68     		ldr	r3, [r7, #8]
 2485 001a 002B     		cmp	r3, #0
 2486 001c 17DB     		blt	.L163
 2487              		.loc 2 474 0 discriminator 3
 2488 001e BB68     		ldr	r3, [r7, #8]
 2489 0020 2F2B     		cmp	r3, #47
 2490 0022 14DC     		bgt	.L163
 2491              	.LBB15:
 475:..\..\common\lib\nokia5110/LCD5110_Graph.c **** 	{
 476:..\..\common\lib\nokia5110/LCD5110_Graph.c ****         int cy;
 477:..\..\common\lib\nokia5110/LCD5110_Graph.c **** 		for (cy=0; cy<l; cy++)
 2492              		.loc 2 477 0 is_stmt 1
 2493 0024 0023     		movs	r3, #0
 2494 0026 7B61     		str	r3, [r7, #20]
 2495 0028 0DE0     		b	.L161
 2496              	.L162:
 478:..\..\common\lib\nokia5110/LCD5110_Graph.c **** 		{
 479:..\..\common\lib\nokia5110/LCD5110_Graph.c **** 			setPixel(x, y+cy);
 2497              		.loc 2 479 0 discriminator 3
 2498 002a FB68     		ldr	r3, [r7, #12]
 2499 002c 98B2     		uxth	r0, r3
 2500 002e BB68     		ldr	r3, [r7, #8]
 2501 0030 9AB2     		uxth	r2, r3
 2502 0032 7B69     		ldr	r3, [r7, #20]
 2503 0034 9BB2     		uxth	r3, r3
 2504 0036 D318     		adds	r3, r2, r3
 2505 0038 9BB2     		uxth	r3, r3
 2506 003a 1900     		movs	r1, r3
 2507 003c FFF7FEFF 		bl	setPixel
 477:..\..\common\lib\nokia5110/LCD5110_Graph.c **** 		{
 2508              		.loc 2 477 0 discriminator 3
 2509 0040 7B69     		ldr	r3, [r7, #20]
 2510 0042 0133     		adds	r3, r3, #1
 2511 0044 7B61     		str	r3, [r7, #20]
 2512              	.L161:
 477:..\..\common\lib\nokia5110/LCD5110_Graph.c **** 		{
 2513              		.loc 2 477 0 is_stmt 0 discriminator 1
 2514 0046 7A69     		ldr	r2, [r7, #20]
 2515 0048 7B68     		ldr	r3, [r7, #4]
 2516 004a 9A42     		cmp	r2, r3
 2517 004c EDDB     		blt	.L162
 2518              	.L163:
 2519              	.LBE15:
 480:..\..\common\lib\nokia5110/LCD5110_Graph.c **** 		}
 481:..\..\common\lib\nokia5110/LCD5110_Graph.c **** 	}
 482:..\..\common\lib\nokia5110/LCD5110_Graph.c **** }
 2520              		.loc 2 482 0 is_stmt 1
 2521 004e C046     		nop
 2522 0050 BD46     		mov	sp, r7
 2523 0052 06B0     		add	sp, sp, #24
 2524              		@ sp needed
 2525 0054 80BD     		pop	{r7, pc}
ARM GAS  C:\Users\Petro\AppData\Local\Temp\ccT7A2G2.s 			page 55


 2526              		.cfi_endproc
 2527              	.LFE86:
 2528              		.size	drawVLine, .-drawVLine
 2529 0056 C046     		.section	.text.clrVLine,"ax",%progbits
 2530              		.align	2
 2531              		.global	clrVLine
 2532              		.code	16
 2533              		.thumb_func
 2534              		.type	clrVLine, %function
 2535              	clrVLine:
 2536              	.LFB87:
 483:..\..\common\lib\nokia5110/LCD5110_Graph.c **** 
 484:..\..\common\lib\nokia5110/LCD5110_Graph.c **** void clrVLine(int x, int y, int l)
 485:..\..\common\lib\nokia5110/LCD5110_Graph.c **** {
 2537              		.loc 2 485 0
 2538              		.cfi_startproc
 2539              		@ args = 0, pretend = 0, frame = 24
 2540              		@ frame_needed = 1, uses_anonymous_args = 0
 2541 0000 80B5     		push	{r7, lr}
 2542              		.cfi_def_cfa_offset 8
 2543              		.cfi_offset 7, -8
 2544              		.cfi_offset 14, -4
 2545 0002 86B0     		sub	sp, sp, #24
 2546              		.cfi_def_cfa_offset 32
 2547 0004 00AF     		add	r7, sp, #0
 2548              		.cfi_def_cfa_register 7
 2549 0006 F860     		str	r0, [r7, #12]
 2550 0008 B960     		str	r1, [r7, #8]
 2551 000a 7A60     		str	r2, [r7, #4]
 486:..\..\common\lib\nokia5110/LCD5110_Graph.c **** 	int by, bi;
 487:..\..\common\lib\nokia5110/LCD5110_Graph.c **** 
 488:..\..\common\lib\nokia5110/LCD5110_Graph.c **** 	if ((x>=0) && (x<84) && (y>=0) && (y<48))
 2552              		.loc 2 488 0
 2553 000c FB68     		ldr	r3, [r7, #12]
 2554 000e 002B     		cmp	r3, #0
 2555 0010 1DDB     		blt	.L168
 2556              		.loc 2 488 0 is_stmt 0 discriminator 1
 2557 0012 FB68     		ldr	r3, [r7, #12]
 2558 0014 532B     		cmp	r3, #83
 2559 0016 1ADC     		bgt	.L168
 2560              		.loc 2 488 0 discriminator 2
 2561 0018 BB68     		ldr	r3, [r7, #8]
 2562 001a 002B     		cmp	r3, #0
 2563 001c 17DB     		blt	.L168
 2564              		.loc 2 488 0 discriminator 3
 2565 001e BB68     		ldr	r3, [r7, #8]
 2566 0020 2F2B     		cmp	r3, #47
 2567 0022 14DC     		bgt	.L168
 2568              	.LBB16:
 489:..\..\common\lib\nokia5110/LCD5110_Graph.c **** 	{
 490:..\..\common\lib\nokia5110/LCD5110_Graph.c ****         int cy;
 491:..\..\common\lib\nokia5110/LCD5110_Graph.c **** 		for (cy=0; cy<l; cy++)
 2569              		.loc 2 491 0 is_stmt 1
 2570 0024 0023     		movs	r3, #0
 2571 0026 7B61     		str	r3, [r7, #20]
 2572 0028 0DE0     		b	.L166
 2573              	.L167:
ARM GAS  C:\Users\Petro\AppData\Local\Temp\ccT7A2G2.s 			page 56


 492:..\..\common\lib\nokia5110/LCD5110_Graph.c **** 		{
 493:..\..\common\lib\nokia5110/LCD5110_Graph.c **** 			clrPixel(x, y+cy);
 2574              		.loc 2 493 0 discriminator 3
 2575 002a FB68     		ldr	r3, [r7, #12]
 2576 002c 98B2     		uxth	r0, r3
 2577 002e BB68     		ldr	r3, [r7, #8]
 2578 0030 9AB2     		uxth	r2, r3
 2579 0032 7B69     		ldr	r3, [r7, #20]
 2580 0034 9BB2     		uxth	r3, r3
 2581 0036 D318     		adds	r3, r2, r3
 2582 0038 9BB2     		uxth	r3, r3
 2583 003a 1900     		movs	r1, r3
 2584 003c FFF7FEFF 		bl	clrPixel
 491:..\..\common\lib\nokia5110/LCD5110_Graph.c **** 		{
 2585              		.loc 2 491 0 discriminator 3
 2586 0040 7B69     		ldr	r3, [r7, #20]
 2587 0042 0133     		adds	r3, r3, #1
 2588 0044 7B61     		str	r3, [r7, #20]
 2589              	.L166:
 491:..\..\common\lib\nokia5110/LCD5110_Graph.c **** 		{
 2590              		.loc 2 491 0 is_stmt 0 discriminator 1
 2591 0046 7A69     		ldr	r2, [r7, #20]
 2592 0048 7B68     		ldr	r3, [r7, #4]
 2593 004a 9A42     		cmp	r2, r3
 2594 004c EDDB     		blt	.L167
 2595              	.L168:
 2596              	.LBE16:
 494:..\..\common\lib\nokia5110/LCD5110_Graph.c **** 		}
 495:..\..\common\lib\nokia5110/LCD5110_Graph.c **** 	}
 496:..\..\common\lib\nokia5110/LCD5110_Graph.c **** }
 2597              		.loc 2 496 0 is_stmt 1
 2598 004e C046     		nop
 2599 0050 BD46     		mov	sp, r7
 2600 0052 06B0     		add	sp, sp, #24
 2601              		@ sp needed
 2602 0054 80BD     		pop	{r7, pc}
 2603              		.cfi_endproc
 2604              	.LFE87:
 2605              		.size	clrVLine, .-clrVLine
 2606              		.global	__aeabi_i2d
 2607              		.global	__aeabi_ddiv
 2608              		.global	__aeabi_dadd
 2609              		.global	__aeabi_d2iz
 2610              		.global	__aeabi_dsub
 2611              		.global	__aeabi_i2f
 2612              		.global	__aeabi_fdiv
 2613              		.global	__aeabi_f2d
 2614 0056 C046     		.section	.text.drawLine,"ax",%progbits
 2615              		.align	2
 2616              		.global	drawLine
 2617              		.code	16
 2618              		.thumb_func
 2619              		.type	drawLine, %function
 2620              	drawLine:
 2621              	.LFB88:
 497:..\..\common\lib\nokia5110/LCD5110_Graph.c **** 
 498:..\..\common\lib\nokia5110/LCD5110_Graph.c **** void drawLine(int x1, int y1, int x2, int y2)
ARM GAS  C:\Users\Petro\AppData\Local\Temp\ccT7A2G2.s 			page 57


 499:..\..\common\lib\nokia5110/LCD5110_Graph.c **** {
 2622              		.loc 2 499 0
 2623              		.cfi_startproc
 2624              		@ args = 0, pretend = 0, frame = 64
 2625              		@ frame_needed = 1, uses_anonymous_args = 0
 2626 0000 B0B5     		push	{r4, r5, r7, lr}
 2627              		.cfi_def_cfa_offset 16
 2628              		.cfi_offset 4, -16
 2629              		.cfi_offset 5, -12
 2630              		.cfi_offset 7, -8
 2631              		.cfi_offset 14, -4
 2632 0002 90B0     		sub	sp, sp, #64
 2633              		.cfi_def_cfa_offset 80
 2634 0004 00AF     		add	r7, sp, #0
 2635              		.cfi_def_cfa_register 7
 2636 0006 F860     		str	r0, [r7, #12]
 2637 0008 B960     		str	r1, [r7, #8]
 2638 000a 7A60     		str	r2, [r7, #4]
 2639 000c 3B60     		str	r3, [r7]
 500:..\..\common\lib\nokia5110/LCD5110_Graph.c **** 	int tmp;
 501:..\..\common\lib\nokia5110/LCD5110_Graph.c **** 	double delta, tx, ty;
 502:..\..\common\lib\nokia5110/LCD5110_Graph.c **** 	double m, b, dx, dy;
 503:..\..\common\lib\nokia5110/LCD5110_Graph.c **** 	
 504:..\..\common\lib\nokia5110/LCD5110_Graph.c **** 	if (((x2-x1)<0))
 2640              		.loc 2 504 0
 2641 000e 7A68     		ldr	r2, [r7, #4]
 2642 0010 FB68     		ldr	r3, [r7, #12]
 2643 0012 D31A     		subs	r3, r2, r3
 2644 0014 0BD5     		bpl	.L170
 505:..\..\common\lib\nokia5110/LCD5110_Graph.c **** 	{
 506:..\..\common\lib\nokia5110/LCD5110_Graph.c **** 		tmp=x1;
 2645              		.loc 2 506 0
 2646 0016 FB68     		ldr	r3, [r7, #12]
 2647 0018 FB61     		str	r3, [r7, #28]
 507:..\..\common\lib\nokia5110/LCD5110_Graph.c **** 		x1=x2;
 2648              		.loc 2 507 0
 2649 001a 7B68     		ldr	r3, [r7, #4]
 2650 001c FB60     		str	r3, [r7, #12]
 508:..\..\common\lib\nokia5110/LCD5110_Graph.c **** 		x2=tmp;
 2651              		.loc 2 508 0
 2652 001e FB69     		ldr	r3, [r7, #28]
 2653 0020 7B60     		str	r3, [r7, #4]
 509:..\..\common\lib\nokia5110/LCD5110_Graph.c **** 		tmp=y1;
 2654              		.loc 2 509 0
 2655 0022 BB68     		ldr	r3, [r7, #8]
 2656 0024 FB61     		str	r3, [r7, #28]
 510:..\..\common\lib\nokia5110/LCD5110_Graph.c **** 		y1=y2;
 2657              		.loc 2 510 0
 2658 0026 3B68     		ldr	r3, [r7]
 2659 0028 BB60     		str	r3, [r7, #8]
 511:..\..\common\lib\nokia5110/LCD5110_Graph.c **** 		y2=tmp;
 2660              		.loc 2 511 0
 2661 002a FB69     		ldr	r3, [r7, #28]
 2662 002c 3B60     		str	r3, [r7]
 2663              	.L170:
 512:..\..\common\lib\nokia5110/LCD5110_Graph.c **** 	}
 513:..\..\common\lib\nokia5110/LCD5110_Graph.c ****     if (((y2-y1)<0))
ARM GAS  C:\Users\Petro\AppData\Local\Temp\ccT7A2G2.s 			page 58


 2664              		.loc 2 513 0
 2665 002e 3A68     		ldr	r2, [r7]
 2666 0030 BB68     		ldr	r3, [r7, #8]
 2667 0032 D31A     		subs	r3, r2, r3
 2668 0034 0BD5     		bpl	.L171
 514:..\..\common\lib\nokia5110/LCD5110_Graph.c **** 	{
 515:..\..\common\lib\nokia5110/LCD5110_Graph.c **** 		tmp=x1;
 2669              		.loc 2 515 0
 2670 0036 FB68     		ldr	r3, [r7, #12]
 2671 0038 FB61     		str	r3, [r7, #28]
 516:..\..\common\lib\nokia5110/LCD5110_Graph.c **** 		x1=x2;
 2672              		.loc 2 516 0
 2673 003a 7B68     		ldr	r3, [r7, #4]
 2674 003c FB60     		str	r3, [r7, #12]
 517:..\..\common\lib\nokia5110/LCD5110_Graph.c **** 		x2=tmp;
 2675              		.loc 2 517 0
 2676 003e FB69     		ldr	r3, [r7, #28]
 2677 0040 7B60     		str	r3, [r7, #4]
 518:..\..\common\lib\nokia5110/LCD5110_Graph.c **** 		tmp=y1;
 2678              		.loc 2 518 0
 2679 0042 BB68     		ldr	r3, [r7, #8]
 2680 0044 FB61     		str	r3, [r7, #28]
 519:..\..\common\lib\nokia5110/LCD5110_Graph.c **** 		y1=y2;
 2681              		.loc 2 519 0
 2682 0046 3B68     		ldr	r3, [r7]
 2683 0048 BB60     		str	r3, [r7, #8]
 520:..\..\common\lib\nokia5110/LCD5110_Graph.c **** 		y2=tmp;
 2684              		.loc 2 520 0
 2685 004a FB69     		ldr	r3, [r7, #28]
 2686 004c 3B60     		str	r3, [r7]
 2687              	.L171:
 521:..\..\common\lib\nokia5110/LCD5110_Graph.c **** 	}
 522:..\..\common\lib\nokia5110/LCD5110_Graph.c **** 
 523:..\..\common\lib\nokia5110/LCD5110_Graph.c **** 	if (y1==y2)
 2688              		.loc 2 523 0
 2689 004e BA68     		ldr	r2, [r7, #8]
 2690 0050 3B68     		ldr	r3, [r7]
 2691 0052 9A42     		cmp	r2, r3
 2692 0054 12D1     		bne	.L172
 524:..\..\common\lib\nokia5110/LCD5110_Graph.c **** 	{
 525:..\..\common\lib\nokia5110/LCD5110_Graph.c **** 		if (x1>x2)
 2693              		.loc 2 525 0
 2694 0056 FA68     		ldr	r2, [r7, #12]
 2695 0058 7B68     		ldr	r3, [r7, #4]
 2696 005a 9A42     		cmp	r2, r3
 2697 005c 05DD     		ble	.L173
 526:..\..\common\lib\nokia5110/LCD5110_Graph.c **** 		{
 527:..\..\common\lib\nokia5110/LCD5110_Graph.c **** 			tmp=x1;
 2698              		.loc 2 527 0
 2699 005e FB68     		ldr	r3, [r7, #12]
 2700 0060 FB61     		str	r3, [r7, #28]
 528:..\..\common\lib\nokia5110/LCD5110_Graph.c **** 			x1=x2;
 2701              		.loc 2 528 0
 2702 0062 7B68     		ldr	r3, [r7, #4]
 2703 0064 FB60     		str	r3, [r7, #12]
 529:..\..\common\lib\nokia5110/LCD5110_Graph.c **** 			x2=tmp;
 2704              		.loc 2 529 0
ARM GAS  C:\Users\Petro\AppData\Local\Temp\ccT7A2G2.s 			page 59


 2705 0066 FB69     		ldr	r3, [r7, #28]
 2706 0068 7B60     		str	r3, [r7, #4]
 2707              	.L173:
 530:..\..\common\lib\nokia5110/LCD5110_Graph.c **** 		}
 531:..\..\common\lib\nokia5110/LCD5110_Graph.c **** 		drawHLine(x1, y1, x2-x1);
 2708              		.loc 2 531 0
 2709 006a 7A68     		ldr	r2, [r7, #4]
 2710 006c FB68     		ldr	r3, [r7, #12]
 2711 006e D21A     		subs	r2, r2, r3
 2712 0070 B968     		ldr	r1, [r7, #8]
 2713 0072 FB68     		ldr	r3, [r7, #12]
 2714 0074 1800     		movs	r0, r3
 2715 0076 FFF7FEFF 		bl	drawHLine
 532:..\..\common\lib\nokia5110/LCD5110_Graph.c **** 	}
 533:..\..\common\lib\nokia5110/LCD5110_Graph.c **** 	else if (x1==x2)
 534:..\..\common\lib\nokia5110/LCD5110_Graph.c **** 	{
 535:..\..\common\lib\nokia5110/LCD5110_Graph.c **** 		if (y1>y2)
 536:..\..\common\lib\nokia5110/LCD5110_Graph.c **** 		{
 537:..\..\common\lib\nokia5110/LCD5110_Graph.c **** 			tmp=y1;
 538:..\..\common\lib\nokia5110/LCD5110_Graph.c **** 			y1=y2;
 539:..\..\common\lib\nokia5110/LCD5110_Graph.c **** 			y2=tmp;
 540:..\..\common\lib\nokia5110/LCD5110_Graph.c **** 		}
 541:..\..\common\lib\nokia5110/LCD5110_Graph.c **** 		drawVLine(x1, y1, y2-y1);
 542:..\..\common\lib\nokia5110/LCD5110_Graph.c **** 	}
 543:..\..\common\lib\nokia5110/LCD5110_Graph.c **** 	else if (abs(x2-x1)>abs(y2-y1))
 544:..\..\common\lib\nokia5110/LCD5110_Graph.c **** 	{
 545:..\..\common\lib\nokia5110/LCD5110_Graph.c **** 		delta=((double)(y2-y1)/(double)(x2-x1));
 546:..\..\common\lib\nokia5110/LCD5110_Graph.c **** 		ty=(double)(y1);
 547:..\..\common\lib\nokia5110/LCD5110_Graph.c **** 		if (x1>x2)
 548:..\..\common\lib\nokia5110/LCD5110_Graph.c **** 		{
 549:..\..\common\lib\nokia5110/LCD5110_Graph.c ****             int i;
 550:..\..\common\lib\nokia5110/LCD5110_Graph.c **** 			for (i=x1; i>=x2; i--)
 551:..\..\common\lib\nokia5110/LCD5110_Graph.c **** 			{
 552:..\..\common\lib\nokia5110/LCD5110_Graph.c **** 				setPixel(i, (int)(ty+0.5));
 553:..\..\common\lib\nokia5110/LCD5110_Graph.c ****         		ty=ty-delta;
 554:..\..\common\lib\nokia5110/LCD5110_Graph.c **** 			}
 555:..\..\common\lib\nokia5110/LCD5110_Graph.c **** 		}
 556:..\..\common\lib\nokia5110/LCD5110_Graph.c **** 		else
 557:..\..\common\lib\nokia5110/LCD5110_Graph.c **** 		{
 558:..\..\common\lib\nokia5110/LCD5110_Graph.c ****             int i;
 559:..\..\common\lib\nokia5110/LCD5110_Graph.c **** 			for (i=x1; i<=x2; i++)
 560:..\..\common\lib\nokia5110/LCD5110_Graph.c **** 			{
 561:..\..\common\lib\nokia5110/LCD5110_Graph.c **** 				setPixel(i, (int)(ty+0.5));
 562:..\..\common\lib\nokia5110/LCD5110_Graph.c ****         		ty=ty+delta;
 563:..\..\common\lib\nokia5110/LCD5110_Graph.c **** 			}
 564:..\..\common\lib\nokia5110/LCD5110_Graph.c **** 		}
 565:..\..\common\lib\nokia5110/LCD5110_Graph.c **** 	}
 566:..\..\common\lib\nokia5110/LCD5110_Graph.c **** 	else
 567:..\..\common\lib\nokia5110/LCD5110_Graph.c **** 	{
 568:..\..\common\lib\nokia5110/LCD5110_Graph.c **** 		delta=((float)(x2-x1)/(float)(y2-y1));
 569:..\..\common\lib\nokia5110/LCD5110_Graph.c **** 		tx=(float)(x1);
 570:..\..\common\lib\nokia5110/LCD5110_Graph.c ****         if (y1>y2)
 571:..\..\common\lib\nokia5110/LCD5110_Graph.c ****         {
 572:..\..\common\lib\nokia5110/LCD5110_Graph.c ****             int i;
 573:..\..\common\lib\nokia5110/LCD5110_Graph.c **** 			for (i=y2+1; i>y1; i--)
 574:..\..\common\lib\nokia5110/LCD5110_Graph.c **** 			{
 575:..\..\common\lib\nokia5110/LCD5110_Graph.c **** 		 		setPixel((int)(tx+0.5), i);
ARM GAS  C:\Users\Petro\AppData\Local\Temp\ccT7A2G2.s 			page 60


 576:..\..\common\lib\nokia5110/LCD5110_Graph.c ****         		tx=tx+delta;
 577:..\..\common\lib\nokia5110/LCD5110_Graph.c **** 			}
 578:..\..\common\lib\nokia5110/LCD5110_Graph.c ****         }
 579:..\..\common\lib\nokia5110/LCD5110_Graph.c ****         else
 580:..\..\common\lib\nokia5110/LCD5110_Graph.c ****         {
 581:..\..\common\lib\nokia5110/LCD5110_Graph.c ****             int i;
 582:..\..\common\lib\nokia5110/LCD5110_Graph.c **** 			for (i=y1; i<y2+1; i++)
 583:..\..\common\lib\nokia5110/LCD5110_Graph.c **** 			{
 584:..\..\common\lib\nokia5110/LCD5110_Graph.c **** 		 		setPixel((int)(tx+0.5), i);
 585:..\..\common\lib\nokia5110/LCD5110_Graph.c ****         		tx=tx+delta;
 586:..\..\common\lib\nokia5110/LCD5110_Graph.c **** 			}
 587:..\..\common\lib\nokia5110/LCD5110_Graph.c ****         }
 588:..\..\common\lib\nokia5110/LCD5110_Graph.c **** 	}
 589:..\..\common\lib\nokia5110/LCD5110_Graph.c **** 
 590:..\..\common\lib\nokia5110/LCD5110_Graph.c **** }
 2716              		.loc 2 590 0
 2717 007a 16E1     		b	.L189
 2718              	.L172:
 533:..\..\common\lib\nokia5110/LCD5110_Graph.c **** 	{
 2719              		.loc 2 533 0
 2720 007c FA68     		ldr	r2, [r7, #12]
 2721 007e 7B68     		ldr	r3, [r7, #4]
 2722 0080 9A42     		cmp	r2, r3
 2723 0082 12D1     		bne	.L175
 535:..\..\common\lib\nokia5110/LCD5110_Graph.c **** 		{
 2724              		.loc 2 535 0
 2725 0084 BA68     		ldr	r2, [r7, #8]
 2726 0086 3B68     		ldr	r3, [r7]
 2727 0088 9A42     		cmp	r2, r3
 2728 008a 05DD     		ble	.L176
 537:..\..\common\lib\nokia5110/LCD5110_Graph.c **** 			y1=y2;
 2729              		.loc 2 537 0
 2730 008c BB68     		ldr	r3, [r7, #8]
 2731 008e FB61     		str	r3, [r7, #28]
 538:..\..\common\lib\nokia5110/LCD5110_Graph.c **** 			y2=tmp;
 2732              		.loc 2 538 0
 2733 0090 3B68     		ldr	r3, [r7]
 2734 0092 BB60     		str	r3, [r7, #8]
 539:..\..\common\lib\nokia5110/LCD5110_Graph.c **** 		}
 2735              		.loc 2 539 0
 2736 0094 FB69     		ldr	r3, [r7, #28]
 2737 0096 3B60     		str	r3, [r7]
 2738              	.L176:
 541:..\..\common\lib\nokia5110/LCD5110_Graph.c **** 	}
 2739              		.loc 2 541 0
 2740 0098 3A68     		ldr	r2, [r7]
 2741 009a BB68     		ldr	r3, [r7, #8]
 2742 009c D21A     		subs	r2, r2, r3
 2743 009e B968     		ldr	r1, [r7, #8]
 2744 00a0 FB68     		ldr	r3, [r7, #12]
 2745 00a2 1800     		movs	r0, r3
 2746 00a4 FFF7FEFF 		bl	drawVLine
 2747              		.loc 2 590 0
 2748 00a8 FFE0     		b	.L189
 2749              	.L175:
 543:..\..\common\lib\nokia5110/LCD5110_Graph.c **** 	{
 2750              		.loc 2 543 0
ARM GAS  C:\Users\Petro\AppData\Local\Temp\ccT7A2G2.s 			page 61


 2751 00aa 7A68     		ldr	r2, [r7, #4]
 2752 00ac FB68     		ldr	r3, [r7, #12]
 2753 00ae D31A     		subs	r3, r2, r3
 2754 00b0 D917     		asrs	r1, r3, #31
 2755 00b2 5A18     		adds	r2, r3, r1
 2756 00b4 4A40     		eors	r2, r1
 2757 00b6 3968     		ldr	r1, [r7]
 2758 00b8 BB68     		ldr	r3, [r7, #8]
 2759 00ba CB1A     		subs	r3, r1, r3
 2760 00bc D917     		asrs	r1, r3, #31
 2761 00be 5B18     		adds	r3, r3, r1
 2762 00c0 4B40     		eors	r3, r1
 2763 00c2 9A42     		cmp	r2, r3
 2764 00c4 00DC     		bgt	.LCB2441
 2765 00c6 74E0     		b	.L177	@long jump
 2766              	.LCB2441:
 545:..\..\common\lib\nokia5110/LCD5110_Graph.c **** 		ty=(double)(y1);
 2767              		.loc 2 545 0
 2768 00c8 3A68     		ldr	r2, [r7]
 2769 00ca BB68     		ldr	r3, [r7, #8]
 2770 00cc D31A     		subs	r3, r2, r3
 2771 00ce 1800     		movs	r0, r3
 2772 00d0 FFF7FEFF 		bl	__aeabi_i2d
 2773 00d4 0400     		movs	r4, r0
 2774 00d6 0D00     		movs	r5, r1
 2775 00d8 7A68     		ldr	r2, [r7, #4]
 2776 00da FB68     		ldr	r3, [r7, #12]
 2777 00dc D31A     		subs	r3, r2, r3
 2778 00de 1800     		movs	r0, r3
 2779 00e0 FFF7FEFF 		bl	__aeabi_i2d
 2780 00e4 0200     		movs	r2, r0
 2781 00e6 0B00     		movs	r3, r1
 2782 00e8 2000     		movs	r0, r4
 2783 00ea 2900     		movs	r1, r5
 2784 00ec FFF7FEFF 		bl	__aeabi_ddiv
 2785 00f0 0300     		movs	r3, r0
 2786 00f2 0C00     		movs	r4, r1
 2787 00f4 3B61     		str	r3, [r7, #16]
 2788 00f6 7C61     		str	r4, [r7, #20]
 546:..\..\common\lib\nokia5110/LCD5110_Graph.c **** 		if (x1>x2)
 2789              		.loc 2 546 0
 2790 00f8 B868     		ldr	r0, [r7, #8]
 2791 00fa FFF7FEFF 		bl	__aeabi_i2d
 2792 00fe 0300     		movs	r3, r0
 2793 0100 0C00     		movs	r4, r1
 2794 0102 3B63     		str	r3, [r7, #48]
 2795 0104 7C63     		str	r4, [r7, #52]
 547:..\..\common\lib\nokia5110/LCD5110_Graph.c **** 		{
 2796              		.loc 2 547 0
 2797 0106 FA68     		ldr	r2, [r7, #12]
 2798 0108 7B68     		ldr	r3, [r7, #4]
 2799 010a 9A42     		cmp	r2, r3
 2800 010c 28DD     		ble	.L178
 2801              	.LBB17:
 550:..\..\common\lib\nokia5110/LCD5110_Graph.c **** 			{
 2802              		.loc 2 550 0
 2803 010e FB68     		ldr	r3, [r7, #12]
ARM GAS  C:\Users\Petro\AppData\Local\Temp\ccT7A2G2.s 			page 62


 2804 0110 FB62     		str	r3, [r7, #44]
 2805 0112 20E0     		b	.L179
 2806              	.L180:
 552:..\..\common\lib\nokia5110/LCD5110_Graph.c ****         		ty=ty-delta;
 2807              		.loc 2 552 0 discriminator 3
 2808 0114 FB6A     		ldr	r3, [r7, #44]
 2809 0116 9CB2     		uxth	r4, r3
 2810 0118 0022     		movs	r2, #0
 2811 011a 664B     		ldr	r3, .L190
 2812 011c 386B     		ldr	r0, [r7, #48]
 2813 011e 796B     		ldr	r1, [r7, #52]
 2814 0120 FFF7FEFF 		bl	__aeabi_dadd
 2815 0124 0200     		movs	r2, r0
 2816 0126 0B00     		movs	r3, r1
 2817 0128 1000     		movs	r0, r2
 2818 012a 1900     		movs	r1, r3
 2819 012c FFF7FEFF 		bl	__aeabi_d2iz
 2820 0130 0300     		movs	r3, r0
 2821 0132 9BB2     		uxth	r3, r3
 2822 0134 1900     		movs	r1, r3
 2823 0136 2000     		movs	r0, r4
 2824 0138 FFF7FEFF 		bl	setPixel
 553:..\..\common\lib\nokia5110/LCD5110_Graph.c **** 			}
 2825              		.loc 2 553 0 discriminator 3
 2826 013c 3A69     		ldr	r2, [r7, #16]
 2827 013e 7B69     		ldr	r3, [r7, #20]
 2828 0140 386B     		ldr	r0, [r7, #48]
 2829 0142 796B     		ldr	r1, [r7, #52]
 2830 0144 FFF7FEFF 		bl	__aeabi_dsub
 2831 0148 0300     		movs	r3, r0
 2832 014a 0C00     		movs	r4, r1
 2833 014c 3B63     		str	r3, [r7, #48]
 2834 014e 7C63     		str	r4, [r7, #52]
 550:..\..\common\lib\nokia5110/LCD5110_Graph.c **** 			{
 2835              		.loc 2 550 0 discriminator 3
 2836 0150 FB6A     		ldr	r3, [r7, #44]
 2837 0152 013B     		subs	r3, r3, #1
 2838 0154 FB62     		str	r3, [r7, #44]
 2839              	.L179:
 550:..\..\common\lib\nokia5110/LCD5110_Graph.c **** 			{
 2840              		.loc 2 550 0 is_stmt 0 discriminator 1
 2841 0156 FA6A     		ldr	r2, [r7, #44]
 2842 0158 7B68     		ldr	r3, [r7, #4]
 2843 015a 9A42     		cmp	r2, r3
 2844 015c DADA     		bge	.L180
 2845              	.LBE17:
 2846              		.loc 2 590 0 is_stmt 1
 2847 015e A4E0     		b	.L189
 2848              	.L178:
 2849              	.LBB18:
 559:..\..\common\lib\nokia5110/LCD5110_Graph.c **** 			{
 2850              		.loc 2 559 0
 2851 0160 FB68     		ldr	r3, [r7, #12]
 2852 0162 BB62     		str	r3, [r7, #40]
 2853 0164 20E0     		b	.L182
 2854              	.L183:
 561:..\..\common\lib\nokia5110/LCD5110_Graph.c ****         		ty=ty+delta;
ARM GAS  C:\Users\Petro\AppData\Local\Temp\ccT7A2G2.s 			page 63


 2855              		.loc 2 561 0 discriminator 3
 2856 0166 BB6A     		ldr	r3, [r7, #40]
 2857 0168 9CB2     		uxth	r4, r3
 2858 016a 0022     		movs	r2, #0
 2859 016c 514B     		ldr	r3, .L190
 2860 016e 386B     		ldr	r0, [r7, #48]
 2861 0170 796B     		ldr	r1, [r7, #52]
 2862 0172 FFF7FEFF 		bl	__aeabi_dadd
 2863 0176 0200     		movs	r2, r0
 2864 0178 0B00     		movs	r3, r1
 2865 017a 1000     		movs	r0, r2
 2866 017c 1900     		movs	r1, r3
 2867 017e FFF7FEFF 		bl	__aeabi_d2iz
 2868 0182 0300     		movs	r3, r0
 2869 0184 9BB2     		uxth	r3, r3
 2870 0186 1900     		movs	r1, r3
 2871 0188 2000     		movs	r0, r4
 2872 018a FFF7FEFF 		bl	setPixel
 562:..\..\common\lib\nokia5110/LCD5110_Graph.c **** 			}
 2873              		.loc 2 562 0 discriminator 3
 2874 018e 3A69     		ldr	r2, [r7, #16]
 2875 0190 7B69     		ldr	r3, [r7, #20]
 2876 0192 386B     		ldr	r0, [r7, #48]
 2877 0194 796B     		ldr	r1, [r7, #52]
 2878 0196 FFF7FEFF 		bl	__aeabi_dadd
 2879 019a 0300     		movs	r3, r0
 2880 019c 0C00     		movs	r4, r1
 2881 019e 3B63     		str	r3, [r7, #48]
 2882 01a0 7C63     		str	r4, [r7, #52]
 559:..\..\common\lib\nokia5110/LCD5110_Graph.c **** 			{
 2883              		.loc 2 559 0 discriminator 3
 2884 01a2 BB6A     		ldr	r3, [r7, #40]
 2885 01a4 0133     		adds	r3, r3, #1
 2886 01a6 BB62     		str	r3, [r7, #40]
 2887              	.L182:
 559:..\..\common\lib\nokia5110/LCD5110_Graph.c **** 			{
 2888              		.loc 2 559 0 is_stmt 0 discriminator 1
 2889 01a8 BA6A     		ldr	r2, [r7, #40]
 2890 01aa 7B68     		ldr	r3, [r7, #4]
 2891 01ac 9A42     		cmp	r2, r3
 2892 01ae DADD     		ble	.L183
 2893              	.LBE18:
 2894              		.loc 2 590 0 is_stmt 1
 2895 01b0 7BE0     		b	.L189
 2896              	.L177:
 568:..\..\common\lib\nokia5110/LCD5110_Graph.c **** 		tx=(float)(x1);
 2897              		.loc 2 568 0
 2898 01b2 7A68     		ldr	r2, [r7, #4]
 2899 01b4 FB68     		ldr	r3, [r7, #12]
 2900 01b6 D31A     		subs	r3, r2, r3
 2901 01b8 1800     		movs	r0, r3
 2902 01ba FFF7FEFF 		bl	__aeabi_i2f
 2903 01be 041C     		adds	r4, r0, #0
 2904 01c0 3A68     		ldr	r2, [r7]
 2905 01c2 BB68     		ldr	r3, [r7, #8]
 2906 01c4 D31A     		subs	r3, r2, r3
 2907 01c6 1800     		movs	r0, r3
ARM GAS  C:\Users\Petro\AppData\Local\Temp\ccT7A2G2.s 			page 64


 2908 01c8 FFF7FEFF 		bl	__aeabi_i2f
 2909 01cc 031C     		adds	r3, r0, #0
 2910 01ce 191C     		adds	r1, r3, #0
 2911 01d0 201C     		adds	r0, r4, #0
 2912 01d2 FFF7FEFF 		bl	__aeabi_fdiv
 2913 01d6 031C     		adds	r3, r0, #0
 2914 01d8 181C     		adds	r0, r3, #0
 2915 01da FFF7FEFF 		bl	__aeabi_f2d
 2916 01de 0300     		movs	r3, r0
 2917 01e0 0C00     		movs	r4, r1
 2918 01e2 3B61     		str	r3, [r7, #16]
 2919 01e4 7C61     		str	r4, [r7, #20]
 569:..\..\common\lib\nokia5110/LCD5110_Graph.c ****         if (y1>y2)
 2920              		.loc 2 569 0
 2921 01e6 F868     		ldr	r0, [r7, #12]
 2922 01e8 FFF7FEFF 		bl	__aeabi_i2f
 2923 01ec 031C     		adds	r3, r0, #0
 2924 01ee 181C     		adds	r0, r3, #0
 2925 01f0 FFF7FEFF 		bl	__aeabi_f2d
 2926 01f4 0300     		movs	r3, r0
 2927 01f6 0C00     		movs	r4, r1
 2928 01f8 BB63     		str	r3, [r7, #56]
 2929 01fa FC63     		str	r4, [r7, #60]
 570:..\..\common\lib\nokia5110/LCD5110_Graph.c ****         {
 2930              		.loc 2 570 0
 2931 01fc BA68     		ldr	r2, [r7, #8]
 2932 01fe 3B68     		ldr	r3, [r7]
 2933 0200 9A42     		cmp	r2, r3
 2934 0202 29DD     		ble	.L184
 2935              	.LBB19:
 573:..\..\common\lib\nokia5110/LCD5110_Graph.c **** 			{
 2936              		.loc 2 573 0
 2937 0204 3B68     		ldr	r3, [r7]
 2938 0206 0133     		adds	r3, r3, #1
 2939 0208 7B62     		str	r3, [r7, #36]
 2940 020a 20E0     		b	.L185
 2941              	.L186:
 575:..\..\common\lib\nokia5110/LCD5110_Graph.c ****         		tx=tx+delta;
 2942              		.loc 2 575 0 discriminator 3
 2943 020c 0022     		movs	r2, #0
 2944 020e 294B     		ldr	r3, .L190
 2945 0210 B86B     		ldr	r0, [r7, #56]
 2946 0212 F96B     		ldr	r1, [r7, #60]
 2947 0214 FFF7FEFF 		bl	__aeabi_dadd
 2948 0218 0300     		movs	r3, r0
 2949 021a 0C00     		movs	r4, r1
 2950 021c 1800     		movs	r0, r3
 2951 021e 2100     		movs	r1, r4
 2952 0220 FFF7FEFF 		bl	__aeabi_d2iz
 2953 0224 0300     		movs	r3, r0
 2954 0226 9BB2     		uxth	r3, r3
 2955 0228 7A6A     		ldr	r2, [r7, #36]
 2956 022a 92B2     		uxth	r2, r2
 2957 022c 1100     		movs	r1, r2
 2958 022e 1800     		movs	r0, r3
 2959 0230 FFF7FEFF 		bl	setPixel
 576:..\..\common\lib\nokia5110/LCD5110_Graph.c **** 			}
ARM GAS  C:\Users\Petro\AppData\Local\Temp\ccT7A2G2.s 			page 65


 2960              		.loc 2 576 0 discriminator 3
 2961 0234 3A69     		ldr	r2, [r7, #16]
 2962 0236 7B69     		ldr	r3, [r7, #20]
 2963 0238 B86B     		ldr	r0, [r7, #56]
 2964 023a F96B     		ldr	r1, [r7, #60]
 2965 023c FFF7FEFF 		bl	__aeabi_dadd
 2966 0240 0300     		movs	r3, r0
 2967 0242 0C00     		movs	r4, r1
 2968 0244 BB63     		str	r3, [r7, #56]
 2969 0246 FC63     		str	r4, [r7, #60]
 573:..\..\common\lib\nokia5110/LCD5110_Graph.c **** 			{
 2970              		.loc 2 573 0 discriminator 3
 2971 0248 7B6A     		ldr	r3, [r7, #36]
 2972 024a 013B     		subs	r3, r3, #1
 2973 024c 7B62     		str	r3, [r7, #36]
 2974              	.L185:
 573:..\..\common\lib\nokia5110/LCD5110_Graph.c **** 			{
 2975              		.loc 2 573 0 is_stmt 0 discriminator 1
 2976 024e 7A6A     		ldr	r2, [r7, #36]
 2977 0250 BB68     		ldr	r3, [r7, #8]
 2978 0252 9A42     		cmp	r2, r3
 2979 0254 DADC     		bgt	.L186
 2980              	.LBE19:
 2981              		.loc 2 590 0 is_stmt 1
 2982 0256 28E0     		b	.L189
 2983              	.L184:
 2984              	.LBB20:
 582:..\..\common\lib\nokia5110/LCD5110_Graph.c **** 			{
 2985              		.loc 2 582 0
 2986 0258 BB68     		ldr	r3, [r7, #8]
 2987 025a 3B62     		str	r3, [r7, #32]
 2988 025c 20E0     		b	.L187
 2989              	.L188:
 584:..\..\common\lib\nokia5110/LCD5110_Graph.c ****         		tx=tx+delta;
 2990              		.loc 2 584 0 discriminator 3
 2991 025e 0022     		movs	r2, #0
 2992 0260 144B     		ldr	r3, .L190
 2993 0262 B86B     		ldr	r0, [r7, #56]
 2994 0264 F96B     		ldr	r1, [r7, #60]
 2995 0266 FFF7FEFF 		bl	__aeabi_dadd
 2996 026a 0300     		movs	r3, r0
 2997 026c 0C00     		movs	r4, r1
 2998 026e 1800     		movs	r0, r3
 2999 0270 2100     		movs	r1, r4
 3000 0272 FFF7FEFF 		bl	__aeabi_d2iz
 3001 0276 0300     		movs	r3, r0
 3002 0278 9BB2     		uxth	r3, r3
 3003 027a 3A6A     		ldr	r2, [r7, #32]
 3004 027c 92B2     		uxth	r2, r2
 3005 027e 1100     		movs	r1, r2
 3006 0280 1800     		movs	r0, r3
 3007 0282 FFF7FEFF 		bl	setPixel
 585:..\..\common\lib\nokia5110/LCD5110_Graph.c **** 			}
 3008              		.loc 2 585 0 discriminator 3
 3009 0286 3A69     		ldr	r2, [r7, #16]
 3010 0288 7B69     		ldr	r3, [r7, #20]
 3011 028a B86B     		ldr	r0, [r7, #56]
ARM GAS  C:\Users\Petro\AppData\Local\Temp\ccT7A2G2.s 			page 66


 3012 028c F96B     		ldr	r1, [r7, #60]
 3013 028e FFF7FEFF 		bl	__aeabi_dadd
 3014 0292 0300     		movs	r3, r0
 3015 0294 0C00     		movs	r4, r1
 3016 0296 BB63     		str	r3, [r7, #56]
 3017 0298 FC63     		str	r4, [r7, #60]
 582:..\..\common\lib\nokia5110/LCD5110_Graph.c **** 			{
 3018              		.loc 2 582 0 discriminator 3
 3019 029a 3B6A     		ldr	r3, [r7, #32]
 3020 029c 0133     		adds	r3, r3, #1
 3021 029e 3B62     		str	r3, [r7, #32]
 3022              	.L187:
 582:..\..\common\lib\nokia5110/LCD5110_Graph.c **** 			{
 3023              		.loc 2 582 0 is_stmt 0 discriminator 1
 3024 02a0 3B68     		ldr	r3, [r7]
 3025 02a2 5A1C     		adds	r2, r3, #1
 3026 02a4 3B6A     		ldr	r3, [r7, #32]
 3027 02a6 9A42     		cmp	r2, r3
 3028 02a8 D9DC     		bgt	.L188
 3029              	.L189:
 3030              	.LBE20:
 3031              		.loc 2 590 0 is_stmt 1
 3032 02aa C046     		nop
 3033 02ac BD46     		mov	sp, r7
 3034 02ae 10B0     		add	sp, sp, #64
 3035              		@ sp needed
 3036 02b0 B0BD     		pop	{r4, r5, r7, pc}
 3037              	.L191:
 3038 02b2 C046     		.align	2
 3039              	.L190:
 3040 02b4 0000E03F 		.word	1071644672
 3041              		.cfi_endproc
 3042              	.LFE88:
 3043              		.size	drawLine, .-drawLine
 3044              		.section	.text.clrLine,"ax",%progbits
 3045              		.align	2
 3046              		.global	clrLine
 3047              		.code	16
 3048              		.thumb_func
 3049              		.type	clrLine, %function
 3050              	clrLine:
 3051              	.LFB89:
 591:..\..\common\lib\nokia5110/LCD5110_Graph.c **** 
 592:..\..\common\lib\nokia5110/LCD5110_Graph.c **** void clrLine(int x1, int y1, int x2, int y2)
 593:..\..\common\lib\nokia5110/LCD5110_Graph.c **** {
 3052              		.loc 2 593 0
 3053              		.cfi_startproc
 3054              		@ args = 0, pretend = 0, frame = 64
 3055              		@ frame_needed = 1, uses_anonymous_args = 0
 3056 0000 B0B5     		push	{r4, r5, r7, lr}
 3057              		.cfi_def_cfa_offset 16
 3058              		.cfi_offset 4, -16
 3059              		.cfi_offset 5, -12
 3060              		.cfi_offset 7, -8
 3061              		.cfi_offset 14, -4
 3062 0002 90B0     		sub	sp, sp, #64
 3063              		.cfi_def_cfa_offset 80
ARM GAS  C:\Users\Petro\AppData\Local\Temp\ccT7A2G2.s 			page 67


 3064 0004 00AF     		add	r7, sp, #0
 3065              		.cfi_def_cfa_register 7
 3066 0006 F860     		str	r0, [r7, #12]
 3067 0008 B960     		str	r1, [r7, #8]
 3068 000a 7A60     		str	r2, [r7, #4]
 3069 000c 3B60     		str	r3, [r7]
 594:..\..\common\lib\nokia5110/LCD5110_Graph.c **** 	int tmp;
 595:..\..\common\lib\nokia5110/LCD5110_Graph.c **** 	double delta, tx, ty;
 596:..\..\common\lib\nokia5110/LCD5110_Graph.c **** 	double m, b, dx, dy;
 597:..\..\common\lib\nokia5110/LCD5110_Graph.c **** 	
 598:..\..\common\lib\nokia5110/LCD5110_Graph.c **** 	if (((x2-x1)<0))
 3070              		.loc 2 598 0
 3071 000e 7A68     		ldr	r2, [r7, #4]
 3072 0010 FB68     		ldr	r3, [r7, #12]
 3073 0012 D31A     		subs	r3, r2, r3
 3074 0014 0BD5     		bpl	.L193
 599:..\..\common\lib\nokia5110/LCD5110_Graph.c **** 	{
 600:..\..\common\lib\nokia5110/LCD5110_Graph.c **** 		tmp=x1;
 3075              		.loc 2 600 0
 3076 0016 FB68     		ldr	r3, [r7, #12]
 3077 0018 FB61     		str	r3, [r7, #28]
 601:..\..\common\lib\nokia5110/LCD5110_Graph.c **** 		x1=x2;
 3078              		.loc 2 601 0
 3079 001a 7B68     		ldr	r3, [r7, #4]
 3080 001c FB60     		str	r3, [r7, #12]
 602:..\..\common\lib\nokia5110/LCD5110_Graph.c **** 		x2=tmp;
 3081              		.loc 2 602 0
 3082 001e FB69     		ldr	r3, [r7, #28]
 3083 0020 7B60     		str	r3, [r7, #4]
 603:..\..\common\lib\nokia5110/LCD5110_Graph.c **** 		tmp=y1;
 3084              		.loc 2 603 0
 3085 0022 BB68     		ldr	r3, [r7, #8]
 3086 0024 FB61     		str	r3, [r7, #28]
 604:..\..\common\lib\nokia5110/LCD5110_Graph.c **** 		y1=y2;
 3087              		.loc 2 604 0
 3088 0026 3B68     		ldr	r3, [r7]
 3089 0028 BB60     		str	r3, [r7, #8]
 605:..\..\common\lib\nokia5110/LCD5110_Graph.c **** 		y2=tmp;
 3090              		.loc 2 605 0
 3091 002a FB69     		ldr	r3, [r7, #28]
 3092 002c 3B60     		str	r3, [r7]
 3093              	.L193:
 606:..\..\common\lib\nokia5110/LCD5110_Graph.c **** 	}
 607:..\..\common\lib\nokia5110/LCD5110_Graph.c ****     if (((y2-y1)<0))
 3094              		.loc 2 607 0
 3095 002e 3A68     		ldr	r2, [r7]
 3096 0030 BB68     		ldr	r3, [r7, #8]
 3097 0032 D31A     		subs	r3, r2, r3
 3098 0034 0BD5     		bpl	.L194
 608:..\..\common\lib\nokia5110/LCD5110_Graph.c **** 	{
 609:..\..\common\lib\nokia5110/LCD5110_Graph.c **** 		tmp=x1;
 3099              		.loc 2 609 0
 3100 0036 FB68     		ldr	r3, [r7, #12]
 3101 0038 FB61     		str	r3, [r7, #28]
 610:..\..\common\lib\nokia5110/LCD5110_Graph.c **** 		x1=x2;
 3102              		.loc 2 610 0
 3103 003a 7B68     		ldr	r3, [r7, #4]
ARM GAS  C:\Users\Petro\AppData\Local\Temp\ccT7A2G2.s 			page 68


 3104 003c FB60     		str	r3, [r7, #12]
 611:..\..\common\lib\nokia5110/LCD5110_Graph.c **** 		x2=tmp;
 3105              		.loc 2 611 0
 3106 003e FB69     		ldr	r3, [r7, #28]
 3107 0040 7B60     		str	r3, [r7, #4]
 612:..\..\common\lib\nokia5110/LCD5110_Graph.c **** 		tmp=y1;
 3108              		.loc 2 612 0
 3109 0042 BB68     		ldr	r3, [r7, #8]
 3110 0044 FB61     		str	r3, [r7, #28]
 613:..\..\common\lib\nokia5110/LCD5110_Graph.c **** 		y1=y2;
 3111              		.loc 2 613 0
 3112 0046 3B68     		ldr	r3, [r7]
 3113 0048 BB60     		str	r3, [r7, #8]
 614:..\..\common\lib\nokia5110/LCD5110_Graph.c **** 		y2=tmp;
 3114              		.loc 2 614 0
 3115 004a FB69     		ldr	r3, [r7, #28]
 3116 004c 3B60     		str	r3, [r7]
 3117              	.L194:
 615:..\..\common\lib\nokia5110/LCD5110_Graph.c **** 	}
 616:..\..\common\lib\nokia5110/LCD5110_Graph.c **** 
 617:..\..\common\lib\nokia5110/LCD5110_Graph.c **** 	if (y1==y2)
 3118              		.loc 2 617 0
 3119 004e BA68     		ldr	r2, [r7, #8]
 3120 0050 3B68     		ldr	r3, [r7]
 3121 0052 9A42     		cmp	r2, r3
 3122 0054 12D1     		bne	.L195
 618:..\..\common\lib\nokia5110/LCD5110_Graph.c **** 	{
 619:..\..\common\lib\nokia5110/LCD5110_Graph.c **** 		if (x1>x2)
 3123              		.loc 2 619 0
 3124 0056 FA68     		ldr	r2, [r7, #12]
 3125 0058 7B68     		ldr	r3, [r7, #4]
 3126 005a 9A42     		cmp	r2, r3
 3127 005c 05DD     		ble	.L196
 620:..\..\common\lib\nokia5110/LCD5110_Graph.c **** 		{
 621:..\..\common\lib\nokia5110/LCD5110_Graph.c **** 			tmp=x1;
 3128              		.loc 2 621 0
 3129 005e FB68     		ldr	r3, [r7, #12]
 3130 0060 FB61     		str	r3, [r7, #28]
 622:..\..\common\lib\nokia5110/LCD5110_Graph.c **** 			x1=x2;
 3131              		.loc 2 622 0
 3132 0062 7B68     		ldr	r3, [r7, #4]
 3133 0064 FB60     		str	r3, [r7, #12]
 623:..\..\common\lib\nokia5110/LCD5110_Graph.c **** 			x2=tmp;
 3134              		.loc 2 623 0
 3135 0066 FB69     		ldr	r3, [r7, #28]
 3136 0068 7B60     		str	r3, [r7, #4]
 3137              	.L196:
 624:..\..\common\lib\nokia5110/LCD5110_Graph.c **** 		}
 625:..\..\common\lib\nokia5110/LCD5110_Graph.c **** 		clrHLine(x1, y1, x2-x1);
 3138              		.loc 2 625 0
 3139 006a 7A68     		ldr	r2, [r7, #4]
 3140 006c FB68     		ldr	r3, [r7, #12]
 3141 006e D21A     		subs	r2, r2, r3
 3142 0070 B968     		ldr	r1, [r7, #8]
 3143 0072 FB68     		ldr	r3, [r7, #12]
 3144 0074 1800     		movs	r0, r3
 3145 0076 FFF7FEFF 		bl	clrHLine
ARM GAS  C:\Users\Petro\AppData\Local\Temp\ccT7A2G2.s 			page 69


 626:..\..\common\lib\nokia5110/LCD5110_Graph.c **** 	}
 627:..\..\common\lib\nokia5110/LCD5110_Graph.c **** 	else if (x1==x2)
 628:..\..\common\lib\nokia5110/LCD5110_Graph.c **** 	{
 629:..\..\common\lib\nokia5110/LCD5110_Graph.c **** 		if (y1>y2)
 630:..\..\common\lib\nokia5110/LCD5110_Graph.c **** 		{
 631:..\..\common\lib\nokia5110/LCD5110_Graph.c **** 			tmp=y1;
 632:..\..\common\lib\nokia5110/LCD5110_Graph.c **** 			y1=y2;
 633:..\..\common\lib\nokia5110/LCD5110_Graph.c **** 			y2=tmp;
 634:..\..\common\lib\nokia5110/LCD5110_Graph.c **** 		}
 635:..\..\common\lib\nokia5110/LCD5110_Graph.c **** 		clrVLine(x1, y1, y2-y1);
 636:..\..\common\lib\nokia5110/LCD5110_Graph.c **** 	}
 637:..\..\common\lib\nokia5110/LCD5110_Graph.c **** 	else if (abs(x2-x1)>abs(y2-y1))
 638:..\..\common\lib\nokia5110/LCD5110_Graph.c **** 	{
 639:..\..\common\lib\nokia5110/LCD5110_Graph.c **** 		delta=((double)(y2-y1))/((double)(x2-x1));
 640:..\..\common\lib\nokia5110/LCD5110_Graph.c **** 		ty=(double)(y1);
 641:..\..\common\lib\nokia5110/LCD5110_Graph.c **** 		if (x1>x2)
 642:..\..\common\lib\nokia5110/LCD5110_Graph.c **** 		{
 643:..\..\common\lib\nokia5110/LCD5110_Graph.c ****             int i;
 644:..\..\common\lib\nokia5110/LCD5110_Graph.c **** 			for ( i=x1; i>=x2; i--)
 645:..\..\common\lib\nokia5110/LCD5110_Graph.c **** 			{
 646:..\..\common\lib\nokia5110/LCD5110_Graph.c **** 				clrPixel(i, (int)(ty+0.5));
 647:..\..\common\lib\nokia5110/LCD5110_Graph.c ****         		ty=ty-delta;
 648:..\..\common\lib\nokia5110/LCD5110_Graph.c **** 			}
 649:..\..\common\lib\nokia5110/LCD5110_Graph.c **** 		}
 650:..\..\common\lib\nokia5110/LCD5110_Graph.c **** 		else
 651:..\..\common\lib\nokia5110/LCD5110_Graph.c **** 		{
 652:..\..\common\lib\nokia5110/LCD5110_Graph.c ****             int i;
 653:..\..\common\lib\nokia5110/LCD5110_Graph.c **** 			for (i=x1; i<=x2; i++)
 654:..\..\common\lib\nokia5110/LCD5110_Graph.c **** 			{
 655:..\..\common\lib\nokia5110/LCD5110_Graph.c **** 				clrPixel(i, (int)(ty+0.5));
 656:..\..\common\lib\nokia5110/LCD5110_Graph.c ****         		ty=ty+delta;
 657:..\..\common\lib\nokia5110/LCD5110_Graph.c **** 			}
 658:..\..\common\lib\nokia5110/LCD5110_Graph.c **** 		}
 659:..\..\common\lib\nokia5110/LCD5110_Graph.c **** 	}
 660:..\..\common\lib\nokia5110/LCD5110_Graph.c **** 	else
 661:..\..\common\lib\nokia5110/LCD5110_Graph.c **** 	{
 662:..\..\common\lib\nokia5110/LCD5110_Graph.c **** 		delta=((float)(x2-x1)/(float)(y2-y1));
 663:..\..\common\lib\nokia5110/LCD5110_Graph.c **** 		tx=(float)(x1);
 664:..\..\common\lib\nokia5110/LCD5110_Graph.c ****         if (y1>y2)
 665:..\..\common\lib\nokia5110/LCD5110_Graph.c ****         {
 666:..\..\common\lib\nokia5110/LCD5110_Graph.c ****             int i;
 667:..\..\common\lib\nokia5110/LCD5110_Graph.c **** 			for (i=y2+1; i>y1; i--)
 668:..\..\common\lib\nokia5110/LCD5110_Graph.c **** 			{
 669:..\..\common\lib\nokia5110/LCD5110_Graph.c **** 		 		clrPixel((int)(tx+0.5), i);
 670:..\..\common\lib\nokia5110/LCD5110_Graph.c ****         		tx=tx+delta;
 671:..\..\common\lib\nokia5110/LCD5110_Graph.c **** 			}
 672:..\..\common\lib\nokia5110/LCD5110_Graph.c ****         }
 673:..\..\common\lib\nokia5110/LCD5110_Graph.c ****         else
 674:..\..\common\lib\nokia5110/LCD5110_Graph.c ****         {
 675:..\..\common\lib\nokia5110/LCD5110_Graph.c ****             int i;
 676:..\..\common\lib\nokia5110/LCD5110_Graph.c **** 			for (i=y1; i<y2+1; i++)
 677:..\..\common\lib\nokia5110/LCD5110_Graph.c **** 			{
 678:..\..\common\lib\nokia5110/LCD5110_Graph.c **** 		 		clrPixel((int)(tx+0.5), i);
 679:..\..\common\lib\nokia5110/LCD5110_Graph.c ****         		tx=tx+delta;
 680:..\..\common\lib\nokia5110/LCD5110_Graph.c **** 			}
 681:..\..\common\lib\nokia5110/LCD5110_Graph.c ****         }
 682:..\..\common\lib\nokia5110/LCD5110_Graph.c **** 	}
ARM GAS  C:\Users\Petro\AppData\Local\Temp\ccT7A2G2.s 			page 70


 683:..\..\common\lib\nokia5110/LCD5110_Graph.c **** 
 684:..\..\common\lib\nokia5110/LCD5110_Graph.c **** }
 3146              		.loc 2 684 0
 3147 007a 16E1     		b	.L212
 3148              	.L195:
 627:..\..\common\lib\nokia5110/LCD5110_Graph.c **** 	{
 3149              		.loc 2 627 0
 3150 007c FA68     		ldr	r2, [r7, #12]
 3151 007e 7B68     		ldr	r3, [r7, #4]
 3152 0080 9A42     		cmp	r2, r3
 3153 0082 12D1     		bne	.L198
 629:..\..\common\lib\nokia5110/LCD5110_Graph.c **** 		{
 3154              		.loc 2 629 0
 3155 0084 BA68     		ldr	r2, [r7, #8]
 3156 0086 3B68     		ldr	r3, [r7]
 3157 0088 9A42     		cmp	r2, r3
 3158 008a 05DD     		ble	.L199
 631:..\..\common\lib\nokia5110/LCD5110_Graph.c **** 			y1=y2;
 3159              		.loc 2 631 0
 3160 008c BB68     		ldr	r3, [r7, #8]
 3161 008e FB61     		str	r3, [r7, #28]
 632:..\..\common\lib\nokia5110/LCD5110_Graph.c **** 			y2=tmp;
 3162              		.loc 2 632 0
 3163 0090 3B68     		ldr	r3, [r7]
 3164 0092 BB60     		str	r3, [r7, #8]
 633:..\..\common\lib\nokia5110/LCD5110_Graph.c **** 		}
 3165              		.loc 2 633 0
 3166 0094 FB69     		ldr	r3, [r7, #28]
 3167 0096 3B60     		str	r3, [r7]
 3168              	.L199:
 635:..\..\common\lib\nokia5110/LCD5110_Graph.c **** 	}
 3169              		.loc 2 635 0
 3170 0098 3A68     		ldr	r2, [r7]
 3171 009a BB68     		ldr	r3, [r7, #8]
 3172 009c D21A     		subs	r2, r2, r3
 3173 009e B968     		ldr	r1, [r7, #8]
 3174 00a0 FB68     		ldr	r3, [r7, #12]
 3175 00a2 1800     		movs	r0, r3
 3176 00a4 FFF7FEFF 		bl	clrVLine
 3177              		.loc 2 684 0
 3178 00a8 FFE0     		b	.L212
 3179              	.L198:
 637:..\..\common\lib\nokia5110/LCD5110_Graph.c **** 	{
 3180              		.loc 2 637 0
 3181 00aa 7A68     		ldr	r2, [r7, #4]
 3182 00ac FB68     		ldr	r3, [r7, #12]
 3183 00ae D31A     		subs	r3, r2, r3
 3184 00b0 D917     		asrs	r1, r3, #31
 3185 00b2 5A18     		adds	r2, r3, r1
 3186 00b4 4A40     		eors	r2, r1
 3187 00b6 3968     		ldr	r1, [r7]
 3188 00b8 BB68     		ldr	r3, [r7, #8]
 3189 00ba CB1A     		subs	r3, r1, r3
 3190 00bc D917     		asrs	r1, r3, #31
 3191 00be 5B18     		adds	r3, r3, r1
 3192 00c0 4B40     		eors	r3, r1
 3193 00c2 9A42     		cmp	r2, r3
ARM GAS  C:\Users\Petro\AppData\Local\Temp\ccT7A2G2.s 			page 71


 3194 00c4 00DC     		bgt	.LCB2816
 3195 00c6 74E0     		b	.L200	@long jump
 3196              	.LCB2816:
 639:..\..\common\lib\nokia5110/LCD5110_Graph.c **** 		ty=(double)(y1);
 3197              		.loc 2 639 0
 3198 00c8 3A68     		ldr	r2, [r7]
 3199 00ca BB68     		ldr	r3, [r7, #8]
 3200 00cc D31A     		subs	r3, r2, r3
 3201 00ce 1800     		movs	r0, r3
 3202 00d0 FFF7FEFF 		bl	__aeabi_i2d
 3203 00d4 0400     		movs	r4, r0
 3204 00d6 0D00     		movs	r5, r1
 3205 00d8 7A68     		ldr	r2, [r7, #4]
 3206 00da FB68     		ldr	r3, [r7, #12]
 3207 00dc D31A     		subs	r3, r2, r3
 3208 00de 1800     		movs	r0, r3
 3209 00e0 FFF7FEFF 		bl	__aeabi_i2d
 3210 00e4 0200     		movs	r2, r0
 3211 00e6 0B00     		movs	r3, r1
 3212 00e8 2000     		movs	r0, r4
 3213 00ea 2900     		movs	r1, r5
 3214 00ec FFF7FEFF 		bl	__aeabi_ddiv
 3215 00f0 0300     		movs	r3, r0
 3216 00f2 0C00     		movs	r4, r1
 3217 00f4 3B61     		str	r3, [r7, #16]
 3218 00f6 7C61     		str	r4, [r7, #20]
 640:..\..\common\lib\nokia5110/LCD5110_Graph.c **** 		if (x1>x2)
 3219              		.loc 2 640 0
 3220 00f8 B868     		ldr	r0, [r7, #8]
 3221 00fa FFF7FEFF 		bl	__aeabi_i2d
 3222 00fe 0300     		movs	r3, r0
 3223 0100 0C00     		movs	r4, r1
 3224 0102 3B63     		str	r3, [r7, #48]
 3225 0104 7C63     		str	r4, [r7, #52]
 641:..\..\common\lib\nokia5110/LCD5110_Graph.c **** 		{
 3226              		.loc 2 641 0
 3227 0106 FA68     		ldr	r2, [r7, #12]
 3228 0108 7B68     		ldr	r3, [r7, #4]
 3229 010a 9A42     		cmp	r2, r3
 3230 010c 28DD     		ble	.L201
 3231              	.LBB21:
 644:..\..\common\lib\nokia5110/LCD5110_Graph.c **** 			{
 3232              		.loc 2 644 0
 3233 010e FB68     		ldr	r3, [r7, #12]
 3234 0110 FB62     		str	r3, [r7, #44]
 3235 0112 20E0     		b	.L202
 3236              	.L203:
 646:..\..\common\lib\nokia5110/LCD5110_Graph.c ****         		ty=ty-delta;
 3237              		.loc 2 646 0 discriminator 3
 3238 0114 FB6A     		ldr	r3, [r7, #44]
 3239 0116 9CB2     		uxth	r4, r3
 3240 0118 0022     		movs	r2, #0
 3241 011a 664B     		ldr	r3, .L213
 3242 011c 386B     		ldr	r0, [r7, #48]
 3243 011e 796B     		ldr	r1, [r7, #52]
 3244 0120 FFF7FEFF 		bl	__aeabi_dadd
 3245 0124 0200     		movs	r2, r0
ARM GAS  C:\Users\Petro\AppData\Local\Temp\ccT7A2G2.s 			page 72


 3246 0126 0B00     		movs	r3, r1
 3247 0128 1000     		movs	r0, r2
 3248 012a 1900     		movs	r1, r3
 3249 012c FFF7FEFF 		bl	__aeabi_d2iz
 3250 0130 0300     		movs	r3, r0
 3251 0132 9BB2     		uxth	r3, r3
 3252 0134 1900     		movs	r1, r3
 3253 0136 2000     		movs	r0, r4
 3254 0138 FFF7FEFF 		bl	clrPixel
 647:..\..\common\lib\nokia5110/LCD5110_Graph.c **** 			}
 3255              		.loc 2 647 0 discriminator 3
 3256 013c 3A69     		ldr	r2, [r7, #16]
 3257 013e 7B69     		ldr	r3, [r7, #20]
 3258 0140 386B     		ldr	r0, [r7, #48]
 3259 0142 796B     		ldr	r1, [r7, #52]
 3260 0144 FFF7FEFF 		bl	__aeabi_dsub
 3261 0148 0300     		movs	r3, r0
 3262 014a 0C00     		movs	r4, r1
 3263 014c 3B63     		str	r3, [r7, #48]
 3264 014e 7C63     		str	r4, [r7, #52]
 644:..\..\common\lib\nokia5110/LCD5110_Graph.c **** 			{
 3265              		.loc 2 644 0 discriminator 3
 3266 0150 FB6A     		ldr	r3, [r7, #44]
 3267 0152 013B     		subs	r3, r3, #1
 3268 0154 FB62     		str	r3, [r7, #44]
 3269              	.L202:
 644:..\..\common\lib\nokia5110/LCD5110_Graph.c **** 			{
 3270              		.loc 2 644 0 is_stmt 0 discriminator 1
 3271 0156 FA6A     		ldr	r2, [r7, #44]
 3272 0158 7B68     		ldr	r3, [r7, #4]
 3273 015a 9A42     		cmp	r2, r3
 3274 015c DADA     		bge	.L203
 3275              	.LBE21:
 3276              		.loc 2 684 0 is_stmt 1
 3277 015e A4E0     		b	.L212
 3278              	.L201:
 3279              	.LBB22:
 653:..\..\common\lib\nokia5110/LCD5110_Graph.c **** 			{
 3280              		.loc 2 653 0
 3281 0160 FB68     		ldr	r3, [r7, #12]
 3282 0162 BB62     		str	r3, [r7, #40]
 3283 0164 20E0     		b	.L205
 3284              	.L206:
 655:..\..\common\lib\nokia5110/LCD5110_Graph.c ****         		ty=ty+delta;
 3285              		.loc 2 655 0 discriminator 3
 3286 0166 BB6A     		ldr	r3, [r7, #40]
 3287 0168 9CB2     		uxth	r4, r3
 3288 016a 0022     		movs	r2, #0
 3289 016c 514B     		ldr	r3, .L213
 3290 016e 386B     		ldr	r0, [r7, #48]
 3291 0170 796B     		ldr	r1, [r7, #52]
 3292 0172 FFF7FEFF 		bl	__aeabi_dadd
 3293 0176 0200     		movs	r2, r0
 3294 0178 0B00     		movs	r3, r1
 3295 017a 1000     		movs	r0, r2
 3296 017c 1900     		movs	r1, r3
 3297 017e FFF7FEFF 		bl	__aeabi_d2iz
ARM GAS  C:\Users\Petro\AppData\Local\Temp\ccT7A2G2.s 			page 73


 3298 0182 0300     		movs	r3, r0
 3299 0184 9BB2     		uxth	r3, r3
 3300 0186 1900     		movs	r1, r3
 3301 0188 2000     		movs	r0, r4
 3302 018a FFF7FEFF 		bl	clrPixel
 656:..\..\common\lib\nokia5110/LCD5110_Graph.c **** 			}
 3303              		.loc 2 656 0 discriminator 3
 3304 018e 3A69     		ldr	r2, [r7, #16]
 3305 0190 7B69     		ldr	r3, [r7, #20]
 3306 0192 386B     		ldr	r0, [r7, #48]
 3307 0194 796B     		ldr	r1, [r7, #52]
 3308 0196 FFF7FEFF 		bl	__aeabi_dadd
 3309 019a 0300     		movs	r3, r0
 3310 019c 0C00     		movs	r4, r1
 3311 019e 3B63     		str	r3, [r7, #48]
 3312 01a0 7C63     		str	r4, [r7, #52]
 653:..\..\common\lib\nokia5110/LCD5110_Graph.c **** 			{
 3313              		.loc 2 653 0 discriminator 3
 3314 01a2 BB6A     		ldr	r3, [r7, #40]
 3315 01a4 0133     		adds	r3, r3, #1
 3316 01a6 BB62     		str	r3, [r7, #40]
 3317              	.L205:
 653:..\..\common\lib\nokia5110/LCD5110_Graph.c **** 			{
 3318              		.loc 2 653 0 is_stmt 0 discriminator 1
 3319 01a8 BA6A     		ldr	r2, [r7, #40]
 3320 01aa 7B68     		ldr	r3, [r7, #4]
 3321 01ac 9A42     		cmp	r2, r3
 3322 01ae DADD     		ble	.L206
 3323              	.LBE22:
 3324              		.loc 2 684 0 is_stmt 1
 3325 01b0 7BE0     		b	.L212
 3326              	.L200:
 662:..\..\common\lib\nokia5110/LCD5110_Graph.c **** 		tx=(float)(x1);
 3327              		.loc 2 662 0
 3328 01b2 7A68     		ldr	r2, [r7, #4]
 3329 01b4 FB68     		ldr	r3, [r7, #12]
 3330 01b6 D31A     		subs	r3, r2, r3
 3331 01b8 1800     		movs	r0, r3
 3332 01ba FFF7FEFF 		bl	__aeabi_i2f
 3333 01be 041C     		adds	r4, r0, #0
 3334 01c0 3A68     		ldr	r2, [r7]
 3335 01c2 BB68     		ldr	r3, [r7, #8]
 3336 01c4 D31A     		subs	r3, r2, r3
 3337 01c6 1800     		movs	r0, r3
 3338 01c8 FFF7FEFF 		bl	__aeabi_i2f
 3339 01cc 031C     		adds	r3, r0, #0
 3340 01ce 191C     		adds	r1, r3, #0
 3341 01d0 201C     		adds	r0, r4, #0
 3342 01d2 FFF7FEFF 		bl	__aeabi_fdiv
 3343 01d6 031C     		adds	r3, r0, #0
 3344 01d8 181C     		adds	r0, r3, #0
 3345 01da FFF7FEFF 		bl	__aeabi_f2d
 3346 01de 0300     		movs	r3, r0
 3347 01e0 0C00     		movs	r4, r1
 3348 01e2 3B61     		str	r3, [r7, #16]
 3349 01e4 7C61     		str	r4, [r7, #20]
 663:..\..\common\lib\nokia5110/LCD5110_Graph.c ****         if (y1>y2)
ARM GAS  C:\Users\Petro\AppData\Local\Temp\ccT7A2G2.s 			page 74


 3350              		.loc 2 663 0
 3351 01e6 F868     		ldr	r0, [r7, #12]
 3352 01e8 FFF7FEFF 		bl	__aeabi_i2f
 3353 01ec 031C     		adds	r3, r0, #0
 3354 01ee 181C     		adds	r0, r3, #0
 3355 01f0 FFF7FEFF 		bl	__aeabi_f2d
 3356 01f4 0300     		movs	r3, r0
 3357 01f6 0C00     		movs	r4, r1
 3358 01f8 BB63     		str	r3, [r7, #56]
 3359 01fa FC63     		str	r4, [r7, #60]
 664:..\..\common\lib\nokia5110/LCD5110_Graph.c ****         {
 3360              		.loc 2 664 0
 3361 01fc BA68     		ldr	r2, [r7, #8]
 3362 01fe 3B68     		ldr	r3, [r7]
 3363 0200 9A42     		cmp	r2, r3
 3364 0202 29DD     		ble	.L207
 3365              	.LBB23:
 667:..\..\common\lib\nokia5110/LCD5110_Graph.c **** 			{
 3366              		.loc 2 667 0
 3367 0204 3B68     		ldr	r3, [r7]
 3368 0206 0133     		adds	r3, r3, #1
 3369 0208 7B62     		str	r3, [r7, #36]
 3370 020a 20E0     		b	.L208
 3371              	.L209:
 669:..\..\common\lib\nokia5110/LCD5110_Graph.c ****         		tx=tx+delta;
 3372              		.loc 2 669 0 discriminator 3
 3373 020c 0022     		movs	r2, #0
 3374 020e 294B     		ldr	r3, .L213
 3375 0210 B86B     		ldr	r0, [r7, #56]
 3376 0212 F96B     		ldr	r1, [r7, #60]
 3377 0214 FFF7FEFF 		bl	__aeabi_dadd
 3378 0218 0300     		movs	r3, r0
 3379 021a 0C00     		movs	r4, r1
 3380 021c 1800     		movs	r0, r3
 3381 021e 2100     		movs	r1, r4
 3382 0220 FFF7FEFF 		bl	__aeabi_d2iz
 3383 0224 0300     		movs	r3, r0
 3384 0226 9BB2     		uxth	r3, r3
 3385 0228 7A6A     		ldr	r2, [r7, #36]
 3386 022a 92B2     		uxth	r2, r2
 3387 022c 1100     		movs	r1, r2
 3388 022e 1800     		movs	r0, r3
 3389 0230 FFF7FEFF 		bl	clrPixel
 670:..\..\common\lib\nokia5110/LCD5110_Graph.c **** 			}
 3390              		.loc 2 670 0 discriminator 3
 3391 0234 3A69     		ldr	r2, [r7, #16]
 3392 0236 7B69     		ldr	r3, [r7, #20]
 3393 0238 B86B     		ldr	r0, [r7, #56]
 3394 023a F96B     		ldr	r1, [r7, #60]
 3395 023c FFF7FEFF 		bl	__aeabi_dadd
 3396 0240 0300     		movs	r3, r0
 3397 0242 0C00     		movs	r4, r1
 3398 0244 BB63     		str	r3, [r7, #56]
 3399 0246 FC63     		str	r4, [r7, #60]
 667:..\..\common\lib\nokia5110/LCD5110_Graph.c **** 			{
 3400              		.loc 2 667 0 discriminator 3
 3401 0248 7B6A     		ldr	r3, [r7, #36]
ARM GAS  C:\Users\Petro\AppData\Local\Temp\ccT7A2G2.s 			page 75


 3402 024a 013B     		subs	r3, r3, #1
 3403 024c 7B62     		str	r3, [r7, #36]
 3404              	.L208:
 667:..\..\common\lib\nokia5110/LCD5110_Graph.c **** 			{
 3405              		.loc 2 667 0 is_stmt 0 discriminator 1
 3406 024e 7A6A     		ldr	r2, [r7, #36]
 3407 0250 BB68     		ldr	r3, [r7, #8]
 3408 0252 9A42     		cmp	r2, r3
 3409 0254 DADC     		bgt	.L209
 3410              	.LBE23:
 3411              		.loc 2 684 0 is_stmt 1
 3412 0256 28E0     		b	.L212
 3413              	.L207:
 3414              	.LBB24:
 676:..\..\common\lib\nokia5110/LCD5110_Graph.c **** 			{
 3415              		.loc 2 676 0
 3416 0258 BB68     		ldr	r3, [r7, #8]
 3417 025a 3B62     		str	r3, [r7, #32]
 3418 025c 20E0     		b	.L210
 3419              	.L211:
 678:..\..\common\lib\nokia5110/LCD5110_Graph.c ****         		tx=tx+delta;
 3420              		.loc 2 678 0 discriminator 3
 3421 025e 0022     		movs	r2, #0
 3422 0260 144B     		ldr	r3, .L213
 3423 0262 B86B     		ldr	r0, [r7, #56]
 3424 0264 F96B     		ldr	r1, [r7, #60]
 3425 0266 FFF7FEFF 		bl	__aeabi_dadd
 3426 026a 0300     		movs	r3, r0
 3427 026c 0C00     		movs	r4, r1
 3428 026e 1800     		movs	r0, r3
 3429 0270 2100     		movs	r1, r4
 3430 0272 FFF7FEFF 		bl	__aeabi_d2iz
 3431 0276 0300     		movs	r3, r0
 3432 0278 9BB2     		uxth	r3, r3
 3433 027a 3A6A     		ldr	r2, [r7, #32]
 3434 027c 92B2     		uxth	r2, r2
 3435 027e 1100     		movs	r1, r2
 3436 0280 1800     		movs	r0, r3
 3437 0282 FFF7FEFF 		bl	clrPixel
 679:..\..\common\lib\nokia5110/LCD5110_Graph.c **** 			}
 3438              		.loc 2 679 0 discriminator 3
 3439 0286 3A69     		ldr	r2, [r7, #16]
 3440 0288 7B69     		ldr	r3, [r7, #20]
 3441 028a B86B     		ldr	r0, [r7, #56]
 3442 028c F96B     		ldr	r1, [r7, #60]
 3443 028e FFF7FEFF 		bl	__aeabi_dadd
 3444 0292 0300     		movs	r3, r0
 3445 0294 0C00     		movs	r4, r1
 3446 0296 BB63     		str	r3, [r7, #56]
 3447 0298 FC63     		str	r4, [r7, #60]
 676:..\..\common\lib\nokia5110/LCD5110_Graph.c **** 			{
 3448              		.loc 2 676 0 discriminator 3
 3449 029a 3B6A     		ldr	r3, [r7, #32]
 3450 029c 0133     		adds	r3, r3, #1
 3451 029e 3B62     		str	r3, [r7, #32]
 3452              	.L210:
 676:..\..\common\lib\nokia5110/LCD5110_Graph.c **** 			{
ARM GAS  C:\Users\Petro\AppData\Local\Temp\ccT7A2G2.s 			page 76


 3453              		.loc 2 676 0 is_stmt 0 discriminator 1
 3454 02a0 3B68     		ldr	r3, [r7]
 3455 02a2 5A1C     		adds	r2, r3, #1
 3456 02a4 3B6A     		ldr	r3, [r7, #32]
 3457 02a6 9A42     		cmp	r2, r3
 3458 02a8 D9DC     		bgt	.L211
 3459              	.L212:
 3460              	.LBE24:
 3461              		.loc 2 684 0 is_stmt 1
 3462 02aa C046     		nop
 3463 02ac BD46     		mov	sp, r7
 3464 02ae 10B0     		add	sp, sp, #64
 3465              		@ sp needed
 3466 02b0 B0BD     		pop	{r4, r5, r7, pc}
 3467              	.L214:
 3468 02b2 C046     		.align	2
 3469              	.L213:
 3470 02b4 0000E03F 		.word	1071644672
 3471              		.cfi_endproc
 3472              	.LFE89:
 3473              		.size	clrLine, .-clrLine
 3474              		.section	.text.drawRect,"ax",%progbits
 3475              		.align	2
 3476              		.global	drawRect
 3477              		.code	16
 3478              		.thumb_func
 3479              		.type	drawRect, %function
 3480              	drawRect:
 3481              	.LFB90:
 685:..\..\common\lib\nokia5110/LCD5110_Graph.c **** 
 686:..\..\common\lib\nokia5110/LCD5110_Graph.c **** void drawRect(int x1, int y1, int x2, int y2)
 687:..\..\common\lib\nokia5110/LCD5110_Graph.c **** {
 3482              		.loc 2 687 0
 3483              		.cfi_startproc
 3484              		@ args = 0, pretend = 0, frame = 24
 3485              		@ frame_needed = 1, uses_anonymous_args = 0
 3486 0000 80B5     		push	{r7, lr}
 3487              		.cfi_def_cfa_offset 8
 3488              		.cfi_offset 7, -8
 3489              		.cfi_offset 14, -4
 3490 0002 86B0     		sub	sp, sp, #24
 3491              		.cfi_def_cfa_offset 32
 3492 0004 00AF     		add	r7, sp, #0
 3493              		.cfi_def_cfa_register 7
 3494 0006 F860     		str	r0, [r7, #12]
 3495 0008 B960     		str	r1, [r7, #8]
 3496 000a 7A60     		str	r2, [r7, #4]
 3497 000c 3B60     		str	r3, [r7]
 688:..\..\common\lib\nokia5110/LCD5110_Graph.c **** 	int tmp;
 689:..\..\common\lib\nokia5110/LCD5110_Graph.c **** 
 690:..\..\common\lib\nokia5110/LCD5110_Graph.c **** 	if (x1>x2)
 3498              		.loc 2 690 0
 3499 000e FA68     		ldr	r2, [r7, #12]
 3500 0010 7B68     		ldr	r3, [r7, #4]
 3501 0012 9A42     		cmp	r2, r3
 3502 0014 05DD     		ble	.L216
 691:..\..\common\lib\nokia5110/LCD5110_Graph.c **** 	{
ARM GAS  C:\Users\Petro\AppData\Local\Temp\ccT7A2G2.s 			page 77


 692:..\..\common\lib\nokia5110/LCD5110_Graph.c **** 		tmp=x1;
 3503              		.loc 2 692 0
 3504 0016 FB68     		ldr	r3, [r7, #12]
 3505 0018 7B61     		str	r3, [r7, #20]
 693:..\..\common\lib\nokia5110/LCD5110_Graph.c **** 		x1=x2;
 3506              		.loc 2 693 0
 3507 001a 7B68     		ldr	r3, [r7, #4]
 3508 001c FB60     		str	r3, [r7, #12]
 694:..\..\common\lib\nokia5110/LCD5110_Graph.c **** 		x2=tmp;
 3509              		.loc 2 694 0
 3510 001e 7B69     		ldr	r3, [r7, #20]
 3511 0020 7B60     		str	r3, [r7, #4]
 3512              	.L216:
 695:..\..\common\lib\nokia5110/LCD5110_Graph.c **** 	}
 696:..\..\common\lib\nokia5110/LCD5110_Graph.c **** 	if (y1>y2)
 3513              		.loc 2 696 0
 3514 0022 BA68     		ldr	r2, [r7, #8]
 3515 0024 3B68     		ldr	r3, [r7]
 3516 0026 9A42     		cmp	r2, r3
 3517 0028 05DD     		ble	.L217
 697:..\..\common\lib\nokia5110/LCD5110_Graph.c **** 	{
 698:..\..\common\lib\nokia5110/LCD5110_Graph.c **** 		tmp=y1;
 3518              		.loc 2 698 0
 3519 002a BB68     		ldr	r3, [r7, #8]
 3520 002c 7B61     		str	r3, [r7, #20]
 699:..\..\common\lib\nokia5110/LCD5110_Graph.c **** 		y1=y2;
 3521              		.loc 2 699 0
 3522 002e 3B68     		ldr	r3, [r7]
 3523 0030 BB60     		str	r3, [r7, #8]
 700:..\..\common\lib\nokia5110/LCD5110_Graph.c **** 		y2=tmp;
 3524              		.loc 2 700 0
 3525 0032 7B69     		ldr	r3, [r7, #20]
 3526 0034 3B60     		str	r3, [r7]
 3527              	.L217:
 701:..\..\common\lib\nokia5110/LCD5110_Graph.c **** 	}
 702:..\..\common\lib\nokia5110/LCD5110_Graph.c **** 
 703:..\..\common\lib\nokia5110/LCD5110_Graph.c **** 	drawHLine(x1, y1, x2-x1);
 3528              		.loc 2 703 0
 3529 0036 7A68     		ldr	r2, [r7, #4]
 3530 0038 FB68     		ldr	r3, [r7, #12]
 3531 003a D21A     		subs	r2, r2, r3
 3532 003c B968     		ldr	r1, [r7, #8]
 3533 003e FB68     		ldr	r3, [r7, #12]
 3534 0040 1800     		movs	r0, r3
 3535 0042 FFF7FEFF 		bl	drawHLine
 704:..\..\common\lib\nokia5110/LCD5110_Graph.c **** 	drawHLine(x1, y2, x2-x1);
 3536              		.loc 2 704 0
 3537 0046 7A68     		ldr	r2, [r7, #4]
 3538 0048 FB68     		ldr	r3, [r7, #12]
 3539 004a D21A     		subs	r2, r2, r3
 3540 004c 3968     		ldr	r1, [r7]
 3541 004e FB68     		ldr	r3, [r7, #12]
 3542 0050 1800     		movs	r0, r3
 3543 0052 FFF7FEFF 		bl	drawHLine
 705:..\..\common\lib\nokia5110/LCD5110_Graph.c **** 	drawVLine(x1, y1, y2-y1);
 3544              		.loc 2 705 0
 3545 0056 3A68     		ldr	r2, [r7]
ARM GAS  C:\Users\Petro\AppData\Local\Temp\ccT7A2G2.s 			page 78


 3546 0058 BB68     		ldr	r3, [r7, #8]
 3547 005a D21A     		subs	r2, r2, r3
 3548 005c B968     		ldr	r1, [r7, #8]
 3549 005e FB68     		ldr	r3, [r7, #12]
 3550 0060 1800     		movs	r0, r3
 3551 0062 FFF7FEFF 		bl	drawVLine
 706:..\..\common\lib\nokia5110/LCD5110_Graph.c **** 	drawVLine(x2, y1, y2-y1+1);
 3552              		.loc 2 706 0
 3553 0066 3A68     		ldr	r2, [r7]
 3554 0068 BB68     		ldr	r3, [r7, #8]
 3555 006a D31A     		subs	r3, r2, r3
 3556 006c 5A1C     		adds	r2, r3, #1
 3557 006e B968     		ldr	r1, [r7, #8]
 3558 0070 7B68     		ldr	r3, [r7, #4]
 3559 0072 1800     		movs	r0, r3
 3560 0074 FFF7FEFF 		bl	drawVLine
 707:..\..\common\lib\nokia5110/LCD5110_Graph.c **** }
 3561              		.loc 2 707 0
 3562 0078 C046     		nop
 3563 007a BD46     		mov	sp, r7
 3564 007c 06B0     		add	sp, sp, #24
 3565              		@ sp needed
 3566 007e 80BD     		pop	{r7, pc}
 3567              		.cfi_endproc
 3568              	.LFE90:
 3569              		.size	drawRect, .-drawRect
 3570              		.section	.text.clrRect,"ax",%progbits
 3571              		.align	2
 3572              		.global	clrRect
 3573              		.code	16
 3574              		.thumb_func
 3575              		.type	clrRect, %function
 3576              	clrRect:
 3577              	.LFB91:
 708:..\..\common\lib\nokia5110/LCD5110_Graph.c **** 
 709:..\..\common\lib\nokia5110/LCD5110_Graph.c **** void clrRect(int x1, int y1, int x2, int y2)
 710:..\..\common\lib\nokia5110/LCD5110_Graph.c **** {
 3578              		.loc 2 710 0
 3579              		.cfi_startproc
 3580              		@ args = 0, pretend = 0, frame = 24
 3581              		@ frame_needed = 1, uses_anonymous_args = 0
 3582 0000 80B5     		push	{r7, lr}
 3583              		.cfi_def_cfa_offset 8
 3584              		.cfi_offset 7, -8
 3585              		.cfi_offset 14, -4
 3586 0002 86B0     		sub	sp, sp, #24
 3587              		.cfi_def_cfa_offset 32
 3588 0004 00AF     		add	r7, sp, #0
 3589              		.cfi_def_cfa_register 7
 3590 0006 F860     		str	r0, [r7, #12]
 3591 0008 B960     		str	r1, [r7, #8]
 3592 000a 7A60     		str	r2, [r7, #4]
 3593 000c 3B60     		str	r3, [r7]
 711:..\..\common\lib\nokia5110/LCD5110_Graph.c **** 	int tmp;
 712:..\..\common\lib\nokia5110/LCD5110_Graph.c **** 
 713:..\..\common\lib\nokia5110/LCD5110_Graph.c **** 	if (x1>x2)
 3594              		.loc 2 713 0
ARM GAS  C:\Users\Petro\AppData\Local\Temp\ccT7A2G2.s 			page 79


 3595 000e FA68     		ldr	r2, [r7, #12]
 3596 0010 7B68     		ldr	r3, [r7, #4]
 3597 0012 9A42     		cmp	r2, r3
 3598 0014 05DD     		ble	.L219
 714:..\..\common\lib\nokia5110/LCD5110_Graph.c **** 	{
 715:..\..\common\lib\nokia5110/LCD5110_Graph.c **** 		tmp=x1;
 3599              		.loc 2 715 0
 3600 0016 FB68     		ldr	r3, [r7, #12]
 3601 0018 7B61     		str	r3, [r7, #20]
 716:..\..\common\lib\nokia5110/LCD5110_Graph.c **** 		x1=x2;
 3602              		.loc 2 716 0
 3603 001a 7B68     		ldr	r3, [r7, #4]
 3604 001c FB60     		str	r3, [r7, #12]
 717:..\..\common\lib\nokia5110/LCD5110_Graph.c **** 		x2=tmp;
 3605              		.loc 2 717 0
 3606 001e 7B69     		ldr	r3, [r7, #20]
 3607 0020 7B60     		str	r3, [r7, #4]
 3608              	.L219:
 718:..\..\common\lib\nokia5110/LCD5110_Graph.c **** 	}
 719:..\..\common\lib\nokia5110/LCD5110_Graph.c **** 	if (y1>y2)
 3609              		.loc 2 719 0
 3610 0022 BA68     		ldr	r2, [r7, #8]
 3611 0024 3B68     		ldr	r3, [r7]
 3612 0026 9A42     		cmp	r2, r3
 3613 0028 05DD     		ble	.L220
 720:..\..\common\lib\nokia5110/LCD5110_Graph.c **** 	{
 721:..\..\common\lib\nokia5110/LCD5110_Graph.c **** 		tmp=y1;
 3614              		.loc 2 721 0
 3615 002a BB68     		ldr	r3, [r7, #8]
 3616 002c 7B61     		str	r3, [r7, #20]
 722:..\..\common\lib\nokia5110/LCD5110_Graph.c **** 		y1=y2;
 3617              		.loc 2 722 0
 3618 002e 3B68     		ldr	r3, [r7]
 3619 0030 BB60     		str	r3, [r7, #8]
 723:..\..\common\lib\nokia5110/LCD5110_Graph.c **** 		y2=tmp;
 3620              		.loc 2 723 0
 3621 0032 7B69     		ldr	r3, [r7, #20]
 3622 0034 3B60     		str	r3, [r7]
 3623              	.L220:
 724:..\..\common\lib\nokia5110/LCD5110_Graph.c **** 	}
 725:..\..\common\lib\nokia5110/LCD5110_Graph.c **** 
 726:..\..\common\lib\nokia5110/LCD5110_Graph.c **** 	clrHLine(x1, y1, x2-x1);
 3624              		.loc 2 726 0
 3625 0036 7A68     		ldr	r2, [r7, #4]
 3626 0038 FB68     		ldr	r3, [r7, #12]
 3627 003a D21A     		subs	r2, r2, r3
 3628 003c B968     		ldr	r1, [r7, #8]
 3629 003e FB68     		ldr	r3, [r7, #12]
 3630 0040 1800     		movs	r0, r3
 3631 0042 FFF7FEFF 		bl	clrHLine
 727:..\..\common\lib\nokia5110/LCD5110_Graph.c **** 	clrHLine(x1, y2, x2-x1);
 3632              		.loc 2 727 0
 3633 0046 7A68     		ldr	r2, [r7, #4]
 3634 0048 FB68     		ldr	r3, [r7, #12]
 3635 004a D21A     		subs	r2, r2, r3
 3636 004c 3968     		ldr	r1, [r7]
 3637 004e FB68     		ldr	r3, [r7, #12]
ARM GAS  C:\Users\Petro\AppData\Local\Temp\ccT7A2G2.s 			page 80


 3638 0050 1800     		movs	r0, r3
 3639 0052 FFF7FEFF 		bl	clrHLine
 728:..\..\common\lib\nokia5110/LCD5110_Graph.c **** 	clrVLine(x1, y1, y2-y1);
 3640              		.loc 2 728 0
 3641 0056 3A68     		ldr	r2, [r7]
 3642 0058 BB68     		ldr	r3, [r7, #8]
 3643 005a D21A     		subs	r2, r2, r3
 3644 005c B968     		ldr	r1, [r7, #8]
 3645 005e FB68     		ldr	r3, [r7, #12]
 3646 0060 1800     		movs	r0, r3
 3647 0062 FFF7FEFF 		bl	clrVLine
 729:..\..\common\lib\nokia5110/LCD5110_Graph.c **** 	clrVLine(x2, y1, y2-y1+1);
 3648              		.loc 2 729 0
 3649 0066 3A68     		ldr	r2, [r7]
 3650 0068 BB68     		ldr	r3, [r7, #8]
 3651 006a D31A     		subs	r3, r2, r3
 3652 006c 5A1C     		adds	r2, r3, #1
 3653 006e B968     		ldr	r1, [r7, #8]
 3654 0070 7B68     		ldr	r3, [r7, #4]
 3655 0072 1800     		movs	r0, r3
 3656 0074 FFF7FEFF 		bl	clrVLine
 730:..\..\common\lib\nokia5110/LCD5110_Graph.c **** }
 3657              		.loc 2 730 0
 3658 0078 C046     		nop
 3659 007a BD46     		mov	sp, r7
 3660 007c 06B0     		add	sp, sp, #24
 3661              		@ sp needed
 3662 007e 80BD     		pop	{r7, pc}
 3663              		.cfi_endproc
 3664              	.LFE91:
 3665              		.size	clrRect, .-clrRect
 3666              		.section	.text.drawRoundRect,"ax",%progbits
 3667              		.align	2
 3668              		.global	drawRoundRect
 3669              		.code	16
 3670              		.thumb_func
 3671              		.type	drawRoundRect, %function
 3672              	drawRoundRect:
 3673              	.LFB92:
 731:..\..\common\lib\nokia5110/LCD5110_Graph.c **** 
 732:..\..\common\lib\nokia5110/LCD5110_Graph.c **** void drawRoundRect(int x1, int y1, int x2, int y2)
 733:..\..\common\lib\nokia5110/LCD5110_Graph.c **** {
 3674              		.loc 2 733 0
 3675              		.cfi_startproc
 3676              		@ args = 0, pretend = 0, frame = 24
 3677              		@ frame_needed = 1, uses_anonymous_args = 0
 3678 0000 80B5     		push	{r7, lr}
 3679              		.cfi_def_cfa_offset 8
 3680              		.cfi_offset 7, -8
 3681              		.cfi_offset 14, -4
 3682 0002 86B0     		sub	sp, sp, #24
 3683              		.cfi_def_cfa_offset 32
 3684 0004 00AF     		add	r7, sp, #0
 3685              		.cfi_def_cfa_register 7
 3686 0006 F860     		str	r0, [r7, #12]
 3687 0008 B960     		str	r1, [r7, #8]
 3688 000a 7A60     		str	r2, [r7, #4]
ARM GAS  C:\Users\Petro\AppData\Local\Temp\ccT7A2G2.s 			page 81


 3689 000c 3B60     		str	r3, [r7]
 734:..\..\common\lib\nokia5110/LCD5110_Graph.c **** 	int tmp;
 735:..\..\common\lib\nokia5110/LCD5110_Graph.c **** 
 736:..\..\common\lib\nokia5110/LCD5110_Graph.c **** 	if (x1>x2)
 3690              		.loc 2 736 0
 3691 000e FA68     		ldr	r2, [r7, #12]
 3692 0010 7B68     		ldr	r3, [r7, #4]
 3693 0012 9A42     		cmp	r2, r3
 3694 0014 05DD     		ble	.L222
 737:..\..\common\lib\nokia5110/LCD5110_Graph.c **** 	{
 738:..\..\common\lib\nokia5110/LCD5110_Graph.c **** 		tmp=x1;
 3695              		.loc 2 738 0
 3696 0016 FB68     		ldr	r3, [r7, #12]
 3697 0018 7B61     		str	r3, [r7, #20]
 739:..\..\common\lib\nokia5110/LCD5110_Graph.c **** 		x1=x2;
 3698              		.loc 2 739 0
 3699 001a 7B68     		ldr	r3, [r7, #4]
 3700 001c FB60     		str	r3, [r7, #12]
 740:..\..\common\lib\nokia5110/LCD5110_Graph.c **** 		x2=tmp;
 3701              		.loc 2 740 0
 3702 001e 7B69     		ldr	r3, [r7, #20]
 3703 0020 7B60     		str	r3, [r7, #4]
 3704              	.L222:
 741:..\..\common\lib\nokia5110/LCD5110_Graph.c **** 	}
 742:..\..\common\lib\nokia5110/LCD5110_Graph.c **** 	if (y1>y2)
 3705              		.loc 2 742 0
 3706 0022 BA68     		ldr	r2, [r7, #8]
 3707 0024 3B68     		ldr	r3, [r7]
 3708 0026 9A42     		cmp	r2, r3
 3709 0028 05DD     		ble	.L223
 743:..\..\common\lib\nokia5110/LCD5110_Graph.c **** 	{
 744:..\..\common\lib\nokia5110/LCD5110_Graph.c **** 		tmp=y1;
 3710              		.loc 2 744 0
 3711 002a BB68     		ldr	r3, [r7, #8]
 3712 002c 7B61     		str	r3, [r7, #20]
 745:..\..\common\lib\nokia5110/LCD5110_Graph.c **** 		y1=y2;
 3713              		.loc 2 745 0
 3714 002e 3B68     		ldr	r3, [r7]
 3715 0030 BB60     		str	r3, [r7, #8]
 746:..\..\common\lib\nokia5110/LCD5110_Graph.c **** 		y2=tmp;
 3716              		.loc 2 746 0
 3717 0032 7B69     		ldr	r3, [r7, #20]
 3718 0034 3B60     		str	r3, [r7]
 3719              	.L223:
 747:..\..\common\lib\nokia5110/LCD5110_Graph.c **** 	}
 748:..\..\common\lib\nokia5110/LCD5110_Graph.c **** 	if ((x2-x1)>4 && (y2-y1)>4)
 3720              		.loc 2 748 0
 3721 0036 7A68     		ldr	r2, [r7, #4]
 3722 0038 FB68     		ldr	r3, [r7, #12]
 3723 003a D31A     		subs	r3, r2, r3
 3724 003c 042B     		cmp	r3, #4
 3725 003e 5CDD     		ble	.L225
 3726              		.loc 2 748 0 is_stmt 0 discriminator 1
 3727 0040 3A68     		ldr	r2, [r7]
 3728 0042 BB68     		ldr	r3, [r7, #8]
 3729 0044 D31A     		subs	r3, r2, r3
 3730 0046 042B     		cmp	r3, #4
ARM GAS  C:\Users\Petro\AppData\Local\Temp\ccT7A2G2.s 			page 82


 3731 0048 57DD     		ble	.L225
 749:..\..\common\lib\nokia5110/LCD5110_Graph.c **** 	{
 750:..\..\common\lib\nokia5110/LCD5110_Graph.c **** 		setPixel(x1+1,y1+1);
 3732              		.loc 2 750 0 is_stmt 1
 3733 004a FB68     		ldr	r3, [r7, #12]
 3734 004c 9BB2     		uxth	r3, r3
 3735 004e 0133     		adds	r3, r3, #1
 3736 0050 9AB2     		uxth	r2, r3
 3737 0052 BB68     		ldr	r3, [r7, #8]
 3738 0054 9BB2     		uxth	r3, r3
 3739 0056 0133     		adds	r3, r3, #1
 3740 0058 9BB2     		uxth	r3, r3
 3741 005a 1900     		movs	r1, r3
 3742 005c 1000     		movs	r0, r2
 3743 005e FFF7FEFF 		bl	setPixel
 751:..\..\common\lib\nokia5110/LCD5110_Graph.c **** 		setPixel(x2-1,y1+1);
 3744              		.loc 2 751 0
 3745 0062 7B68     		ldr	r3, [r7, #4]
 3746 0064 9BB2     		uxth	r3, r3
 3747 0066 013B     		subs	r3, r3, #1
 3748 0068 9AB2     		uxth	r2, r3
 3749 006a BB68     		ldr	r3, [r7, #8]
 3750 006c 9BB2     		uxth	r3, r3
 3751 006e 0133     		adds	r3, r3, #1
 3752 0070 9BB2     		uxth	r3, r3
 3753 0072 1900     		movs	r1, r3
 3754 0074 1000     		movs	r0, r2
 3755 0076 FFF7FEFF 		bl	setPixel
 752:..\..\common\lib\nokia5110/LCD5110_Graph.c **** 		setPixel(x1+1,y2-1);
 3756              		.loc 2 752 0
 3757 007a FB68     		ldr	r3, [r7, #12]
 3758 007c 9BB2     		uxth	r3, r3
 3759 007e 0133     		adds	r3, r3, #1
 3760 0080 9AB2     		uxth	r2, r3
 3761 0082 3B68     		ldr	r3, [r7]
 3762 0084 9BB2     		uxth	r3, r3
 3763 0086 013B     		subs	r3, r3, #1
 3764 0088 9BB2     		uxth	r3, r3
 3765 008a 1900     		movs	r1, r3
 3766 008c 1000     		movs	r0, r2
 3767 008e FFF7FEFF 		bl	setPixel
 753:..\..\common\lib\nokia5110/LCD5110_Graph.c **** 		setPixel(x2-1,y2-1);
 3768              		.loc 2 753 0
 3769 0092 7B68     		ldr	r3, [r7, #4]
 3770 0094 9BB2     		uxth	r3, r3
 3771 0096 013B     		subs	r3, r3, #1
 3772 0098 9AB2     		uxth	r2, r3
 3773 009a 3B68     		ldr	r3, [r7]
 3774 009c 9BB2     		uxth	r3, r3
 3775 009e 013B     		subs	r3, r3, #1
 3776 00a0 9BB2     		uxth	r3, r3
 3777 00a2 1900     		movs	r1, r3
 3778 00a4 1000     		movs	r0, r2
 3779 00a6 FFF7FEFF 		bl	setPixel
 754:..\..\common\lib\nokia5110/LCD5110_Graph.c **** 		drawHLine(x1+2, y1, x2-x1-3);
 3780              		.loc 2 754 0
 3781 00aa FB68     		ldr	r3, [r7, #12]
ARM GAS  C:\Users\Petro\AppData\Local\Temp\ccT7A2G2.s 			page 83


 3782 00ac 981C     		adds	r0, r3, #2
 3783 00ae 7A68     		ldr	r2, [r7, #4]
 3784 00b0 FB68     		ldr	r3, [r7, #12]
 3785 00b2 D31A     		subs	r3, r2, r3
 3786 00b4 DA1E     		subs	r2, r3, #3
 3787 00b6 BB68     		ldr	r3, [r7, #8]
 3788 00b8 1900     		movs	r1, r3
 3789 00ba FFF7FEFF 		bl	drawHLine
 755:..\..\common\lib\nokia5110/LCD5110_Graph.c **** 		drawHLine(x1+2, y2, x2-x1-3);
 3790              		.loc 2 755 0
 3791 00be FB68     		ldr	r3, [r7, #12]
 3792 00c0 981C     		adds	r0, r3, #2
 3793 00c2 7A68     		ldr	r2, [r7, #4]
 3794 00c4 FB68     		ldr	r3, [r7, #12]
 3795 00c6 D31A     		subs	r3, r2, r3
 3796 00c8 DA1E     		subs	r2, r3, #3
 3797 00ca 3B68     		ldr	r3, [r7]
 3798 00cc 1900     		movs	r1, r3
 3799 00ce FFF7FEFF 		bl	drawHLine
 756:..\..\common\lib\nokia5110/LCD5110_Graph.c **** 		drawVLine(x1, y1+2, y2-y1-3);
 3800              		.loc 2 756 0
 3801 00d2 BB68     		ldr	r3, [r7, #8]
 3802 00d4 991C     		adds	r1, r3, #2
 3803 00d6 3A68     		ldr	r2, [r7]
 3804 00d8 BB68     		ldr	r3, [r7, #8]
 3805 00da D31A     		subs	r3, r2, r3
 3806 00dc DA1E     		subs	r2, r3, #3
 3807 00de FB68     		ldr	r3, [r7, #12]
 3808 00e0 1800     		movs	r0, r3
 3809 00e2 FFF7FEFF 		bl	drawVLine
 757:..\..\common\lib\nokia5110/LCD5110_Graph.c **** 		drawVLine(x2, y1+2, y2-y1-3);
 3810              		.loc 2 757 0
 3811 00e6 BB68     		ldr	r3, [r7, #8]
 3812 00e8 991C     		adds	r1, r3, #2
 3813 00ea 3A68     		ldr	r2, [r7]
 3814 00ec BB68     		ldr	r3, [r7, #8]
 3815 00ee D31A     		subs	r3, r2, r3
 3816 00f0 DA1E     		subs	r2, r3, #3
 3817 00f2 7B68     		ldr	r3, [r7, #4]
 3818 00f4 1800     		movs	r0, r3
 3819 00f6 FFF7FEFF 		bl	drawVLine
 3820              	.L225:
 758:..\..\common\lib\nokia5110/LCD5110_Graph.c **** 	}
 759:..\..\common\lib\nokia5110/LCD5110_Graph.c **** }
 3821              		.loc 2 759 0
 3822 00fa C046     		nop
 3823 00fc BD46     		mov	sp, r7
 3824 00fe 06B0     		add	sp, sp, #24
 3825              		@ sp needed
 3826 0100 80BD     		pop	{r7, pc}
 3827              		.cfi_endproc
 3828              	.LFE92:
 3829              		.size	drawRoundRect, .-drawRoundRect
 3830 0102 C046     		.section	.text.clrRoundRect,"ax",%progbits
 3831              		.align	2
 3832              		.global	clrRoundRect
 3833              		.code	16
ARM GAS  C:\Users\Petro\AppData\Local\Temp\ccT7A2G2.s 			page 84


 3834              		.thumb_func
 3835              		.type	clrRoundRect, %function
 3836              	clrRoundRect:
 3837              	.LFB93:
 760:..\..\common\lib\nokia5110/LCD5110_Graph.c **** 
 761:..\..\common\lib\nokia5110/LCD5110_Graph.c **** void clrRoundRect(int x1, int y1, int x2, int y2)
 762:..\..\common\lib\nokia5110/LCD5110_Graph.c **** {
 3838              		.loc 2 762 0
 3839              		.cfi_startproc
 3840              		@ args = 0, pretend = 0, frame = 24
 3841              		@ frame_needed = 1, uses_anonymous_args = 0
 3842 0000 80B5     		push	{r7, lr}
 3843              		.cfi_def_cfa_offset 8
 3844              		.cfi_offset 7, -8
 3845              		.cfi_offset 14, -4
 3846 0002 86B0     		sub	sp, sp, #24
 3847              		.cfi_def_cfa_offset 32
 3848 0004 00AF     		add	r7, sp, #0
 3849              		.cfi_def_cfa_register 7
 3850 0006 F860     		str	r0, [r7, #12]
 3851 0008 B960     		str	r1, [r7, #8]
 3852 000a 7A60     		str	r2, [r7, #4]
 3853 000c 3B60     		str	r3, [r7]
 763:..\..\common\lib\nokia5110/LCD5110_Graph.c **** 	int tmp;
 764:..\..\common\lib\nokia5110/LCD5110_Graph.c **** 
 765:..\..\common\lib\nokia5110/LCD5110_Graph.c **** 	if (x1>x2)
 3854              		.loc 2 765 0
 3855 000e FA68     		ldr	r2, [r7, #12]
 3856 0010 7B68     		ldr	r3, [r7, #4]
 3857 0012 9A42     		cmp	r2, r3
 3858 0014 05DD     		ble	.L227
 766:..\..\common\lib\nokia5110/LCD5110_Graph.c **** 	{
 767:..\..\common\lib\nokia5110/LCD5110_Graph.c **** 		tmp=x1;
 3859              		.loc 2 767 0
 3860 0016 FB68     		ldr	r3, [r7, #12]
 3861 0018 7B61     		str	r3, [r7, #20]
 768:..\..\common\lib\nokia5110/LCD5110_Graph.c **** 		x1=x2;
 3862              		.loc 2 768 0
 3863 001a 7B68     		ldr	r3, [r7, #4]
 3864 001c FB60     		str	r3, [r7, #12]
 769:..\..\common\lib\nokia5110/LCD5110_Graph.c **** 		x2=tmp;
 3865              		.loc 2 769 0
 3866 001e 7B69     		ldr	r3, [r7, #20]
 3867 0020 7B60     		str	r3, [r7, #4]
 3868              	.L227:
 770:..\..\common\lib\nokia5110/LCD5110_Graph.c **** 	}
 771:..\..\common\lib\nokia5110/LCD5110_Graph.c **** 	if (y1>y2)
 3869              		.loc 2 771 0
 3870 0022 BA68     		ldr	r2, [r7, #8]
 3871 0024 3B68     		ldr	r3, [r7]
 3872 0026 9A42     		cmp	r2, r3
 3873 0028 05DD     		ble	.L228
 772:..\..\common\lib\nokia5110/LCD5110_Graph.c **** 	{
 773:..\..\common\lib\nokia5110/LCD5110_Graph.c **** 		tmp=y1;
 3874              		.loc 2 773 0
 3875 002a BB68     		ldr	r3, [r7, #8]
 3876 002c 7B61     		str	r3, [r7, #20]
ARM GAS  C:\Users\Petro\AppData\Local\Temp\ccT7A2G2.s 			page 85


 774:..\..\common\lib\nokia5110/LCD5110_Graph.c **** 		y1=y2;
 3877              		.loc 2 774 0
 3878 002e 3B68     		ldr	r3, [r7]
 3879 0030 BB60     		str	r3, [r7, #8]
 775:..\..\common\lib\nokia5110/LCD5110_Graph.c **** 		y2=tmp;
 3880              		.loc 2 775 0
 3881 0032 7B69     		ldr	r3, [r7, #20]
 3882 0034 3B60     		str	r3, [r7]
 3883              	.L228:
 776:..\..\common\lib\nokia5110/LCD5110_Graph.c **** 	}
 777:..\..\common\lib\nokia5110/LCD5110_Graph.c **** 	if ((x2-x1)>4 && (y2-y1)>4)
 3884              		.loc 2 777 0
 3885 0036 7A68     		ldr	r2, [r7, #4]
 3886 0038 FB68     		ldr	r3, [r7, #12]
 3887 003a D31A     		subs	r3, r2, r3
 3888 003c 042B     		cmp	r3, #4
 3889 003e 5CDD     		ble	.L230
 3890              		.loc 2 777 0 is_stmt 0 discriminator 1
 3891 0040 3A68     		ldr	r2, [r7]
 3892 0042 BB68     		ldr	r3, [r7, #8]
 3893 0044 D31A     		subs	r3, r2, r3
 3894 0046 042B     		cmp	r3, #4
 3895 0048 57DD     		ble	.L230
 778:..\..\common\lib\nokia5110/LCD5110_Graph.c **** 	{
 779:..\..\common\lib\nokia5110/LCD5110_Graph.c **** 		clrPixel(x1+1,y1+1);
 3896              		.loc 2 779 0 is_stmt 1
 3897 004a FB68     		ldr	r3, [r7, #12]
 3898 004c 9BB2     		uxth	r3, r3
 3899 004e 0133     		adds	r3, r3, #1
 3900 0050 9AB2     		uxth	r2, r3
 3901 0052 BB68     		ldr	r3, [r7, #8]
 3902 0054 9BB2     		uxth	r3, r3
 3903 0056 0133     		adds	r3, r3, #1
 3904 0058 9BB2     		uxth	r3, r3
 3905 005a 1900     		movs	r1, r3
 3906 005c 1000     		movs	r0, r2
 3907 005e FFF7FEFF 		bl	clrPixel
 780:..\..\common\lib\nokia5110/LCD5110_Graph.c **** 		clrPixel(x2-1,y1+1);
 3908              		.loc 2 780 0
 3909 0062 7B68     		ldr	r3, [r7, #4]
 3910 0064 9BB2     		uxth	r3, r3
 3911 0066 013B     		subs	r3, r3, #1
 3912 0068 9AB2     		uxth	r2, r3
 3913 006a BB68     		ldr	r3, [r7, #8]
 3914 006c 9BB2     		uxth	r3, r3
 3915 006e 0133     		adds	r3, r3, #1
 3916 0070 9BB2     		uxth	r3, r3
 3917 0072 1900     		movs	r1, r3
 3918 0074 1000     		movs	r0, r2
 3919 0076 FFF7FEFF 		bl	clrPixel
 781:..\..\common\lib\nokia5110/LCD5110_Graph.c **** 		clrPixel(x1+1,y2-1);
 3920              		.loc 2 781 0
 3921 007a FB68     		ldr	r3, [r7, #12]
 3922 007c 9BB2     		uxth	r3, r3
 3923 007e 0133     		adds	r3, r3, #1
 3924 0080 9AB2     		uxth	r2, r3
 3925 0082 3B68     		ldr	r3, [r7]
ARM GAS  C:\Users\Petro\AppData\Local\Temp\ccT7A2G2.s 			page 86


 3926 0084 9BB2     		uxth	r3, r3
 3927 0086 013B     		subs	r3, r3, #1
 3928 0088 9BB2     		uxth	r3, r3
 3929 008a 1900     		movs	r1, r3
 3930 008c 1000     		movs	r0, r2
 3931 008e FFF7FEFF 		bl	clrPixel
 782:..\..\common\lib\nokia5110/LCD5110_Graph.c **** 		clrPixel(x2-1,y2-1);
 3932              		.loc 2 782 0
 3933 0092 7B68     		ldr	r3, [r7, #4]
 3934 0094 9BB2     		uxth	r3, r3
 3935 0096 013B     		subs	r3, r3, #1
 3936 0098 9AB2     		uxth	r2, r3
 3937 009a 3B68     		ldr	r3, [r7]
 3938 009c 9BB2     		uxth	r3, r3
 3939 009e 013B     		subs	r3, r3, #1
 3940 00a0 9BB2     		uxth	r3, r3
 3941 00a2 1900     		movs	r1, r3
 3942 00a4 1000     		movs	r0, r2
 3943 00a6 FFF7FEFF 		bl	clrPixel
 783:..\..\common\lib\nokia5110/LCD5110_Graph.c **** 		clrHLine(x1+2, y1, x2-x1-3);
 3944              		.loc 2 783 0
 3945 00aa FB68     		ldr	r3, [r7, #12]
 3946 00ac 981C     		adds	r0, r3, #2
 3947 00ae 7A68     		ldr	r2, [r7, #4]
 3948 00b0 FB68     		ldr	r3, [r7, #12]
 3949 00b2 D31A     		subs	r3, r2, r3
 3950 00b4 DA1E     		subs	r2, r3, #3
 3951 00b6 BB68     		ldr	r3, [r7, #8]
 3952 00b8 1900     		movs	r1, r3
 3953 00ba FFF7FEFF 		bl	clrHLine
 784:..\..\common\lib\nokia5110/LCD5110_Graph.c **** 		clrHLine(x1+2, y2, x2-x1-3);
 3954              		.loc 2 784 0
 3955 00be FB68     		ldr	r3, [r7, #12]
 3956 00c0 981C     		adds	r0, r3, #2
 3957 00c2 7A68     		ldr	r2, [r7, #4]
 3958 00c4 FB68     		ldr	r3, [r7, #12]
 3959 00c6 D31A     		subs	r3, r2, r3
 3960 00c8 DA1E     		subs	r2, r3, #3
 3961 00ca 3B68     		ldr	r3, [r7]
 3962 00cc 1900     		movs	r1, r3
 3963 00ce FFF7FEFF 		bl	clrHLine
 785:..\..\common\lib\nokia5110/LCD5110_Graph.c **** 		clrVLine(x1, y1+2, y2-y1-3);
 3964              		.loc 2 785 0
 3965 00d2 BB68     		ldr	r3, [r7, #8]
 3966 00d4 991C     		adds	r1, r3, #2
 3967 00d6 3A68     		ldr	r2, [r7]
 3968 00d8 BB68     		ldr	r3, [r7, #8]
 3969 00da D31A     		subs	r3, r2, r3
 3970 00dc DA1E     		subs	r2, r3, #3
 3971 00de FB68     		ldr	r3, [r7, #12]
 3972 00e0 1800     		movs	r0, r3
 3973 00e2 FFF7FEFF 		bl	clrVLine
 786:..\..\common\lib\nokia5110/LCD5110_Graph.c **** 		clrVLine(x2, y1+2, y2-y1-3);
 3974              		.loc 2 786 0
 3975 00e6 BB68     		ldr	r3, [r7, #8]
 3976 00e8 991C     		adds	r1, r3, #2
 3977 00ea 3A68     		ldr	r2, [r7]
ARM GAS  C:\Users\Petro\AppData\Local\Temp\ccT7A2G2.s 			page 87


 3978 00ec BB68     		ldr	r3, [r7, #8]
 3979 00ee D31A     		subs	r3, r2, r3
 3980 00f0 DA1E     		subs	r2, r3, #3
 3981 00f2 7B68     		ldr	r3, [r7, #4]
 3982 00f4 1800     		movs	r0, r3
 3983 00f6 FFF7FEFF 		bl	clrVLine
 3984              	.L230:
 787:..\..\common\lib\nokia5110/LCD5110_Graph.c **** 	}
 788:..\..\common\lib\nokia5110/LCD5110_Graph.c **** }
 3985              		.loc 2 788 0
 3986 00fa C046     		nop
 3987 00fc BD46     		mov	sp, r7
 3988 00fe 06B0     		add	sp, sp, #24
 3989              		@ sp needed
 3990 0100 80BD     		pop	{r7, pc}
 3991              		.cfi_endproc
 3992              	.LFE93:
 3993              		.size	clrRoundRect, .-clrRoundRect
 3994 0102 C046     		.section	.text.drawCircle,"ax",%progbits
 3995              		.align	2
 3996              		.global	drawCircle
 3997              		.code	16
 3998              		.thumb_func
 3999              		.type	drawCircle, %function
 4000              	drawCircle:
 4001              	.LFB94:
 789:..\..\common\lib\nokia5110/LCD5110_Graph.c **** 
 790:..\..\common\lib\nokia5110/LCD5110_Graph.c **** void drawCircle(int x, int y, int radius)
 791:..\..\common\lib\nokia5110/LCD5110_Graph.c **** {
 4002              		.loc 2 791 0
 4003              		.cfi_startproc
 4004              		@ args = 0, pretend = 0, frame = 40
 4005              		@ frame_needed = 1, uses_anonymous_args = 0
 4006 0000 80B5     		push	{r7, lr}
 4007              		.cfi_def_cfa_offset 8
 4008              		.cfi_offset 7, -8
 4009              		.cfi_offset 14, -4
 4010 0002 8AB0     		sub	sp, sp, #40
 4011              		.cfi_def_cfa_offset 48
 4012 0004 00AF     		add	r7, sp, #0
 4013              		.cfi_def_cfa_register 7
 4014 0006 F860     		str	r0, [r7, #12]
 4015 0008 B960     		str	r1, [r7, #8]
 4016 000a 7A60     		str	r2, [r7, #4]
 792:..\..\common\lib\nokia5110/LCD5110_Graph.c **** 	int f = 1 - radius;
 4017              		.loc 2 792 0
 4018 000c 7B68     		ldr	r3, [r7, #4]
 4019 000e 0122     		movs	r2, #1
 4020 0010 D31A     		subs	r3, r2, r3
 4021 0012 7B62     		str	r3, [r7, #36]
 793:..\..\common\lib\nokia5110/LCD5110_Graph.c **** 	int ddF_x = 1;
 4022              		.loc 2 793 0
 4023 0014 0123     		movs	r3, #1
 4024 0016 3B62     		str	r3, [r7, #32]
 794:..\..\common\lib\nokia5110/LCD5110_Graph.c **** 	int ddF_y = -2 * radius;
 4025              		.loc 2 794 0
 4026 0018 7A68     		ldr	r2, [r7, #4]
ARM GAS  C:\Users\Petro\AppData\Local\Temp\ccT7A2G2.s 			page 88


 4027 001a 1300     		movs	r3, r2
 4028 001c DB07     		lsls	r3, r3, #31
 4029 001e 9B1A     		subs	r3, r3, r2
 4030 0020 5B00     		lsls	r3, r3, #1
 4031 0022 FB61     		str	r3, [r7, #28]
 795:..\..\common\lib\nokia5110/LCD5110_Graph.c **** 	int x1 = 0;
 4032              		.loc 2 795 0
 4033 0024 0023     		movs	r3, #0
 4034 0026 BB61     		str	r3, [r7, #24]
 796:..\..\common\lib\nokia5110/LCD5110_Graph.c **** 	int y1 = radius;
 4035              		.loc 2 796 0
 4036 0028 7B68     		ldr	r3, [r7, #4]
 4037 002a 7B61     		str	r3, [r7, #20]
 797:..\..\common\lib\nokia5110/LCD5110_Graph.c **** 	char ch, cl;
 798:..\..\common\lib\nokia5110/LCD5110_Graph.c **** 	
 799:..\..\common\lib\nokia5110/LCD5110_Graph.c **** 	setPixel(x, y + radius);
 4038              		.loc 2 799 0
 4039 002c FB68     		ldr	r3, [r7, #12]
 4040 002e 98B2     		uxth	r0, r3
 4041 0030 BB68     		ldr	r3, [r7, #8]
 4042 0032 9AB2     		uxth	r2, r3
 4043 0034 7B68     		ldr	r3, [r7, #4]
 4044 0036 9BB2     		uxth	r3, r3
 4045 0038 D318     		adds	r3, r2, r3
 4046 003a 9BB2     		uxth	r3, r3
 4047 003c 1900     		movs	r1, r3
 4048 003e FFF7FEFF 		bl	setPixel
 800:..\..\common\lib\nokia5110/LCD5110_Graph.c **** 	setPixel(x, y - radius);
 4049              		.loc 2 800 0
 4050 0042 FB68     		ldr	r3, [r7, #12]
 4051 0044 98B2     		uxth	r0, r3
 4052 0046 BB68     		ldr	r3, [r7, #8]
 4053 0048 9AB2     		uxth	r2, r3
 4054 004a 7B68     		ldr	r3, [r7, #4]
 4055 004c 9BB2     		uxth	r3, r3
 4056 004e D31A     		subs	r3, r2, r3
 4057 0050 9BB2     		uxth	r3, r3
 4058 0052 1900     		movs	r1, r3
 4059 0054 FFF7FEFF 		bl	setPixel
 801:..\..\common\lib\nokia5110/LCD5110_Graph.c **** 	setPixel(x + radius, y);
 4060              		.loc 2 801 0
 4061 0058 FB68     		ldr	r3, [r7, #12]
 4062 005a 9AB2     		uxth	r2, r3
 4063 005c 7B68     		ldr	r3, [r7, #4]
 4064 005e 9BB2     		uxth	r3, r3
 4065 0060 D318     		adds	r3, r2, r3
 4066 0062 9BB2     		uxth	r3, r3
 4067 0064 BA68     		ldr	r2, [r7, #8]
 4068 0066 92B2     		uxth	r2, r2
 4069 0068 1100     		movs	r1, r2
 4070 006a 1800     		movs	r0, r3
 4071 006c FFF7FEFF 		bl	setPixel
 802:..\..\common\lib\nokia5110/LCD5110_Graph.c **** 	setPixel(x - radius, y);
 4072              		.loc 2 802 0
 4073 0070 FB68     		ldr	r3, [r7, #12]
 4074 0072 9AB2     		uxth	r2, r3
 4075 0074 7B68     		ldr	r3, [r7, #4]
ARM GAS  C:\Users\Petro\AppData\Local\Temp\ccT7A2G2.s 			page 89


 4076 0076 9BB2     		uxth	r3, r3
 4077 0078 D31A     		subs	r3, r2, r3
 4078 007a 9BB2     		uxth	r3, r3
 4079 007c BA68     		ldr	r2, [r7, #8]
 4080 007e 92B2     		uxth	r2, r2
 4081 0080 1100     		movs	r1, r2
 4082 0082 1800     		movs	r0, r3
 4083 0084 FFF7FEFF 		bl	setPixel
 803:..\..\common\lib\nokia5110/LCD5110_Graph.c ****  
 804:..\..\common\lib\nokia5110/LCD5110_Graph.c **** 	while(x1 < y1)
 4084              		.loc 2 804 0
 4085 0088 8EE0     		b	.L232
 4086              	.L234:
 805:..\..\common\lib\nokia5110/LCD5110_Graph.c **** 	{
 806:..\..\common\lib\nokia5110/LCD5110_Graph.c **** 		if(f >= 0) 
 4087              		.loc 2 806 0
 4088 008a 7B6A     		ldr	r3, [r7, #36]
 4089 008c 002B     		cmp	r3, #0
 4090 008e 09DB     		blt	.L233
 807:..\..\common\lib\nokia5110/LCD5110_Graph.c **** 		{
 808:..\..\common\lib\nokia5110/LCD5110_Graph.c **** 			y1--;
 4091              		.loc 2 808 0
 4092 0090 7B69     		ldr	r3, [r7, #20]
 4093 0092 013B     		subs	r3, r3, #1
 4094 0094 7B61     		str	r3, [r7, #20]
 809:..\..\common\lib\nokia5110/LCD5110_Graph.c **** 			ddF_y += 2;
 4095              		.loc 2 809 0
 4096 0096 FB69     		ldr	r3, [r7, #28]
 4097 0098 0233     		adds	r3, r3, #2
 4098 009a FB61     		str	r3, [r7, #28]
 810:..\..\common\lib\nokia5110/LCD5110_Graph.c **** 			f += ddF_y;
 4099              		.loc 2 810 0
 4100 009c 7A6A     		ldr	r2, [r7, #36]
 4101 009e FB69     		ldr	r3, [r7, #28]
 4102 00a0 D318     		adds	r3, r2, r3
 4103 00a2 7B62     		str	r3, [r7, #36]
 4104              	.L233:
 811:..\..\common\lib\nokia5110/LCD5110_Graph.c **** 		}
 812:..\..\common\lib\nokia5110/LCD5110_Graph.c **** 		x1++;
 4105              		.loc 2 812 0
 4106 00a4 BB69     		ldr	r3, [r7, #24]
 4107 00a6 0133     		adds	r3, r3, #1
 4108 00a8 BB61     		str	r3, [r7, #24]
 813:..\..\common\lib\nokia5110/LCD5110_Graph.c **** 		ddF_x += 2;
 4109              		.loc 2 813 0
 4110 00aa 3B6A     		ldr	r3, [r7, #32]
 4111 00ac 0233     		adds	r3, r3, #2
 4112 00ae 3B62     		str	r3, [r7, #32]
 814:..\..\common\lib\nokia5110/LCD5110_Graph.c **** 		f += ddF_x;    
 4113              		.loc 2 814 0
 4114 00b0 7A6A     		ldr	r2, [r7, #36]
 4115 00b2 3B6A     		ldr	r3, [r7, #32]
 4116 00b4 D318     		adds	r3, r2, r3
 4117 00b6 7B62     		str	r3, [r7, #36]
 815:..\..\common\lib\nokia5110/LCD5110_Graph.c **** 		setPixel(x + x1, y + y1);
 4118              		.loc 2 815 0
 4119 00b8 FB68     		ldr	r3, [r7, #12]
ARM GAS  C:\Users\Petro\AppData\Local\Temp\ccT7A2G2.s 			page 90


 4120 00ba 9AB2     		uxth	r2, r3
 4121 00bc BB69     		ldr	r3, [r7, #24]
 4122 00be 9BB2     		uxth	r3, r3
 4123 00c0 D318     		adds	r3, r2, r3
 4124 00c2 98B2     		uxth	r0, r3
 4125 00c4 BB68     		ldr	r3, [r7, #8]
 4126 00c6 9AB2     		uxth	r2, r3
 4127 00c8 7B69     		ldr	r3, [r7, #20]
 4128 00ca 9BB2     		uxth	r3, r3
 4129 00cc D318     		adds	r3, r2, r3
 4130 00ce 9BB2     		uxth	r3, r3
 4131 00d0 1900     		movs	r1, r3
 4132 00d2 FFF7FEFF 		bl	setPixel
 816:..\..\common\lib\nokia5110/LCD5110_Graph.c **** 		setPixel(x - x1, y + y1);
 4133              		.loc 2 816 0
 4134 00d6 FB68     		ldr	r3, [r7, #12]
 4135 00d8 9AB2     		uxth	r2, r3
 4136 00da BB69     		ldr	r3, [r7, #24]
 4137 00dc 9BB2     		uxth	r3, r3
 4138 00de D31A     		subs	r3, r2, r3
 4139 00e0 98B2     		uxth	r0, r3
 4140 00e2 BB68     		ldr	r3, [r7, #8]
 4141 00e4 9AB2     		uxth	r2, r3
 4142 00e6 7B69     		ldr	r3, [r7, #20]
 4143 00e8 9BB2     		uxth	r3, r3
 4144 00ea D318     		adds	r3, r2, r3
 4145 00ec 9BB2     		uxth	r3, r3
 4146 00ee 1900     		movs	r1, r3
 4147 00f0 FFF7FEFF 		bl	setPixel
 817:..\..\common\lib\nokia5110/LCD5110_Graph.c **** 		setPixel(x + x1, y - y1);
 4148              		.loc 2 817 0
 4149 00f4 FB68     		ldr	r3, [r7, #12]
 4150 00f6 9AB2     		uxth	r2, r3
 4151 00f8 BB69     		ldr	r3, [r7, #24]
 4152 00fa 9BB2     		uxth	r3, r3
 4153 00fc D318     		adds	r3, r2, r3
 4154 00fe 98B2     		uxth	r0, r3
 4155 0100 BB68     		ldr	r3, [r7, #8]
 4156 0102 9AB2     		uxth	r2, r3
 4157 0104 7B69     		ldr	r3, [r7, #20]
 4158 0106 9BB2     		uxth	r3, r3
 4159 0108 D31A     		subs	r3, r2, r3
 4160 010a 9BB2     		uxth	r3, r3
 4161 010c 1900     		movs	r1, r3
 4162 010e FFF7FEFF 		bl	setPixel
 818:..\..\common\lib\nokia5110/LCD5110_Graph.c **** 		setPixel(x - x1, y - y1);
 4163              		.loc 2 818 0
 4164 0112 FB68     		ldr	r3, [r7, #12]
 4165 0114 9AB2     		uxth	r2, r3
 4166 0116 BB69     		ldr	r3, [r7, #24]
 4167 0118 9BB2     		uxth	r3, r3
 4168 011a D31A     		subs	r3, r2, r3
 4169 011c 98B2     		uxth	r0, r3
 4170 011e BB68     		ldr	r3, [r7, #8]
 4171 0120 9AB2     		uxth	r2, r3
 4172 0122 7B69     		ldr	r3, [r7, #20]
 4173 0124 9BB2     		uxth	r3, r3
ARM GAS  C:\Users\Petro\AppData\Local\Temp\ccT7A2G2.s 			page 91


 4174 0126 D31A     		subs	r3, r2, r3
 4175 0128 9BB2     		uxth	r3, r3
 4176 012a 1900     		movs	r1, r3
 4177 012c FFF7FEFF 		bl	setPixel
 819:..\..\common\lib\nokia5110/LCD5110_Graph.c **** 		setPixel(x + y1, y + x1);
 4178              		.loc 2 819 0
 4179 0130 FB68     		ldr	r3, [r7, #12]
 4180 0132 9AB2     		uxth	r2, r3
 4181 0134 7B69     		ldr	r3, [r7, #20]
 4182 0136 9BB2     		uxth	r3, r3
 4183 0138 D318     		adds	r3, r2, r3
 4184 013a 98B2     		uxth	r0, r3
 4185 013c BB68     		ldr	r3, [r7, #8]
 4186 013e 9AB2     		uxth	r2, r3
 4187 0140 BB69     		ldr	r3, [r7, #24]
 4188 0142 9BB2     		uxth	r3, r3
 4189 0144 D318     		adds	r3, r2, r3
 4190 0146 9BB2     		uxth	r3, r3
 4191 0148 1900     		movs	r1, r3
 4192 014a FFF7FEFF 		bl	setPixel
 820:..\..\common\lib\nokia5110/LCD5110_Graph.c **** 		setPixel(x - y1, y + x1);
 4193              		.loc 2 820 0
 4194 014e FB68     		ldr	r3, [r7, #12]
 4195 0150 9AB2     		uxth	r2, r3
 4196 0152 7B69     		ldr	r3, [r7, #20]
 4197 0154 9BB2     		uxth	r3, r3
 4198 0156 D31A     		subs	r3, r2, r3
 4199 0158 98B2     		uxth	r0, r3
 4200 015a BB68     		ldr	r3, [r7, #8]
 4201 015c 9AB2     		uxth	r2, r3
 4202 015e BB69     		ldr	r3, [r7, #24]
 4203 0160 9BB2     		uxth	r3, r3
 4204 0162 D318     		adds	r3, r2, r3
 4205 0164 9BB2     		uxth	r3, r3
 4206 0166 1900     		movs	r1, r3
 4207 0168 FFF7FEFF 		bl	setPixel
 821:..\..\common\lib\nokia5110/LCD5110_Graph.c **** 		setPixel(x + y1, y - x1);
 4208              		.loc 2 821 0
 4209 016c FB68     		ldr	r3, [r7, #12]
 4210 016e 9AB2     		uxth	r2, r3
 4211 0170 7B69     		ldr	r3, [r7, #20]
 4212 0172 9BB2     		uxth	r3, r3
 4213 0174 D318     		adds	r3, r2, r3
 4214 0176 98B2     		uxth	r0, r3
 4215 0178 BB68     		ldr	r3, [r7, #8]
 4216 017a 9AB2     		uxth	r2, r3
 4217 017c BB69     		ldr	r3, [r7, #24]
 4218 017e 9BB2     		uxth	r3, r3
 4219 0180 D31A     		subs	r3, r2, r3
 4220 0182 9BB2     		uxth	r3, r3
 4221 0184 1900     		movs	r1, r3
 4222 0186 FFF7FEFF 		bl	setPixel
 822:..\..\common\lib\nokia5110/LCD5110_Graph.c **** 		setPixel(x - y1, y - x1);
 4223              		.loc 2 822 0
 4224 018a FB68     		ldr	r3, [r7, #12]
 4225 018c 9AB2     		uxth	r2, r3
 4226 018e 7B69     		ldr	r3, [r7, #20]
ARM GAS  C:\Users\Petro\AppData\Local\Temp\ccT7A2G2.s 			page 92


 4227 0190 9BB2     		uxth	r3, r3
 4228 0192 D31A     		subs	r3, r2, r3
 4229 0194 98B2     		uxth	r0, r3
 4230 0196 BB68     		ldr	r3, [r7, #8]
 4231 0198 9AB2     		uxth	r2, r3
 4232 019a BB69     		ldr	r3, [r7, #24]
 4233 019c 9BB2     		uxth	r3, r3
 4234 019e D31A     		subs	r3, r2, r3
 4235 01a0 9BB2     		uxth	r3, r3
 4236 01a2 1900     		movs	r1, r3
 4237 01a4 FFF7FEFF 		bl	setPixel
 4238              	.L232:
 804:..\..\common\lib\nokia5110/LCD5110_Graph.c **** 	{
 4239              		.loc 2 804 0
 4240 01a8 BA69     		ldr	r2, [r7, #24]
 4241 01aa 7B69     		ldr	r3, [r7, #20]
 4242 01ac 9A42     		cmp	r2, r3
 4243 01ae 00DA     		bge	.LCB3729
 4244 01b0 6BE7     		b	.L234	@long jump
 4245              	.LCB3729:
 823:..\..\common\lib\nokia5110/LCD5110_Graph.c **** 	}
 824:..\..\common\lib\nokia5110/LCD5110_Graph.c **** }
 4246              		.loc 2 824 0
 4247 01b2 C046     		nop
 4248 01b4 BD46     		mov	sp, r7
 4249 01b6 0AB0     		add	sp, sp, #40
 4250              		@ sp needed
 4251 01b8 80BD     		pop	{r7, pc}
 4252              		.cfi_endproc
 4253              	.LFE94:
 4254              		.size	drawCircle, .-drawCircle
 4255              		.section	.text.clrCircle,"ax",%progbits
 4256              		.align	2
 4257              		.global	clrCircle
 4258              		.code	16
 4259              		.thumb_func
 4260              		.type	clrCircle, %function
 4261              	clrCircle:
 4262              	.LFB95:
 825:..\..\common\lib\nokia5110/LCD5110_Graph.c **** 
 826:..\..\common\lib\nokia5110/LCD5110_Graph.c **** void clrCircle(int x, int y, int radius)
 827:..\..\common\lib\nokia5110/LCD5110_Graph.c **** {
 4263              		.loc 2 827 0
 4264              		.cfi_startproc
 4265              		@ args = 0, pretend = 0, frame = 40
 4266              		@ frame_needed = 1, uses_anonymous_args = 0
 4267 0000 80B5     		push	{r7, lr}
 4268              		.cfi_def_cfa_offset 8
 4269              		.cfi_offset 7, -8
 4270              		.cfi_offset 14, -4
 4271 0002 8AB0     		sub	sp, sp, #40
 4272              		.cfi_def_cfa_offset 48
 4273 0004 00AF     		add	r7, sp, #0
 4274              		.cfi_def_cfa_register 7
 4275 0006 F860     		str	r0, [r7, #12]
 4276 0008 B960     		str	r1, [r7, #8]
 4277 000a 7A60     		str	r2, [r7, #4]
ARM GAS  C:\Users\Petro\AppData\Local\Temp\ccT7A2G2.s 			page 93


 828:..\..\common\lib\nokia5110/LCD5110_Graph.c **** 	int f = 1 - radius;
 4278              		.loc 2 828 0
 4279 000c 7B68     		ldr	r3, [r7, #4]
 4280 000e 0122     		movs	r2, #1
 4281 0010 D31A     		subs	r3, r2, r3
 4282 0012 7B62     		str	r3, [r7, #36]
 829:..\..\common\lib\nokia5110/LCD5110_Graph.c **** 	int ddF_x = 1;
 4283              		.loc 2 829 0
 4284 0014 0123     		movs	r3, #1
 4285 0016 3B62     		str	r3, [r7, #32]
 830:..\..\common\lib\nokia5110/LCD5110_Graph.c **** 	int ddF_y = -2 * radius;
 4286              		.loc 2 830 0
 4287 0018 7A68     		ldr	r2, [r7, #4]
 4288 001a 1300     		movs	r3, r2
 4289 001c DB07     		lsls	r3, r3, #31
 4290 001e 9B1A     		subs	r3, r3, r2
 4291 0020 5B00     		lsls	r3, r3, #1
 4292 0022 FB61     		str	r3, [r7, #28]
 831:..\..\common\lib\nokia5110/LCD5110_Graph.c **** 	int x1 = 0;
 4293              		.loc 2 831 0
 4294 0024 0023     		movs	r3, #0
 4295 0026 BB61     		str	r3, [r7, #24]
 832:..\..\common\lib\nokia5110/LCD5110_Graph.c **** 	int y1 = radius;
 4296              		.loc 2 832 0
 4297 0028 7B68     		ldr	r3, [r7, #4]
 4298 002a 7B61     		str	r3, [r7, #20]
 833:..\..\common\lib\nokia5110/LCD5110_Graph.c **** 	char ch, cl;
 834:..\..\common\lib\nokia5110/LCD5110_Graph.c **** 	
 835:..\..\common\lib\nokia5110/LCD5110_Graph.c **** 	clrPixel(x, y + radius);
 4299              		.loc 2 835 0
 4300 002c FB68     		ldr	r3, [r7, #12]
 4301 002e 98B2     		uxth	r0, r3
 4302 0030 BB68     		ldr	r3, [r7, #8]
 4303 0032 9AB2     		uxth	r2, r3
 4304 0034 7B68     		ldr	r3, [r7, #4]
 4305 0036 9BB2     		uxth	r3, r3
 4306 0038 D318     		adds	r3, r2, r3
 4307 003a 9BB2     		uxth	r3, r3
 4308 003c 1900     		movs	r1, r3
 4309 003e FFF7FEFF 		bl	clrPixel
 836:..\..\common\lib\nokia5110/LCD5110_Graph.c **** 	clrPixel(x, y - radius);
 4310              		.loc 2 836 0
 4311 0042 FB68     		ldr	r3, [r7, #12]
 4312 0044 98B2     		uxth	r0, r3
 4313 0046 BB68     		ldr	r3, [r7, #8]
 4314 0048 9AB2     		uxth	r2, r3
 4315 004a 7B68     		ldr	r3, [r7, #4]
 4316 004c 9BB2     		uxth	r3, r3
 4317 004e D31A     		subs	r3, r2, r3
 4318 0050 9BB2     		uxth	r3, r3
 4319 0052 1900     		movs	r1, r3
 4320 0054 FFF7FEFF 		bl	clrPixel
 837:..\..\common\lib\nokia5110/LCD5110_Graph.c **** 	clrPixel(x + radius, y);
 4321              		.loc 2 837 0
 4322 0058 FB68     		ldr	r3, [r7, #12]
 4323 005a 9AB2     		uxth	r2, r3
 4324 005c 7B68     		ldr	r3, [r7, #4]
ARM GAS  C:\Users\Petro\AppData\Local\Temp\ccT7A2G2.s 			page 94


 4325 005e 9BB2     		uxth	r3, r3
 4326 0060 D318     		adds	r3, r2, r3
 4327 0062 9BB2     		uxth	r3, r3
 4328 0064 BA68     		ldr	r2, [r7, #8]
 4329 0066 92B2     		uxth	r2, r2
 4330 0068 1100     		movs	r1, r2
 4331 006a 1800     		movs	r0, r3
 4332 006c FFF7FEFF 		bl	clrPixel
 838:..\..\common\lib\nokia5110/LCD5110_Graph.c **** 	clrPixel(x - radius, y);
 4333              		.loc 2 838 0
 4334 0070 FB68     		ldr	r3, [r7, #12]
 4335 0072 9AB2     		uxth	r2, r3
 4336 0074 7B68     		ldr	r3, [r7, #4]
 4337 0076 9BB2     		uxth	r3, r3
 4338 0078 D31A     		subs	r3, r2, r3
 4339 007a 9BB2     		uxth	r3, r3
 4340 007c BA68     		ldr	r2, [r7, #8]
 4341 007e 92B2     		uxth	r2, r2
 4342 0080 1100     		movs	r1, r2
 4343 0082 1800     		movs	r0, r3
 4344 0084 FFF7FEFF 		bl	clrPixel
 839:..\..\common\lib\nokia5110/LCD5110_Graph.c ****  
 840:..\..\common\lib\nokia5110/LCD5110_Graph.c **** 	while(x1 < y1)
 4345              		.loc 2 840 0
 4346 0088 8EE0     		b	.L236
 4347              	.L238:
 841:..\..\common\lib\nokia5110/LCD5110_Graph.c **** 	{
 842:..\..\common\lib\nokia5110/LCD5110_Graph.c **** 		if(f >= 0) 
 4348              		.loc 2 842 0
 4349 008a 7B6A     		ldr	r3, [r7, #36]
 4350 008c 002B     		cmp	r3, #0
 4351 008e 09DB     		blt	.L237
 843:..\..\common\lib\nokia5110/LCD5110_Graph.c **** 		{
 844:..\..\common\lib\nokia5110/LCD5110_Graph.c **** 			y1--;
 4352              		.loc 2 844 0
 4353 0090 7B69     		ldr	r3, [r7, #20]
 4354 0092 013B     		subs	r3, r3, #1
 4355 0094 7B61     		str	r3, [r7, #20]
 845:..\..\common\lib\nokia5110/LCD5110_Graph.c **** 			ddF_y += 2;
 4356              		.loc 2 845 0
 4357 0096 FB69     		ldr	r3, [r7, #28]
 4358 0098 0233     		adds	r3, r3, #2
 4359 009a FB61     		str	r3, [r7, #28]
 846:..\..\common\lib\nokia5110/LCD5110_Graph.c **** 			f += ddF_y;
 4360              		.loc 2 846 0
 4361 009c 7A6A     		ldr	r2, [r7, #36]
 4362 009e FB69     		ldr	r3, [r7, #28]
 4363 00a0 D318     		adds	r3, r2, r3
 4364 00a2 7B62     		str	r3, [r7, #36]
 4365              	.L237:
 847:..\..\common\lib\nokia5110/LCD5110_Graph.c **** 		}
 848:..\..\common\lib\nokia5110/LCD5110_Graph.c **** 		x1++;
 4366              		.loc 2 848 0
 4367 00a4 BB69     		ldr	r3, [r7, #24]
 4368 00a6 0133     		adds	r3, r3, #1
 4369 00a8 BB61     		str	r3, [r7, #24]
 849:..\..\common\lib\nokia5110/LCD5110_Graph.c **** 		ddF_x += 2;
ARM GAS  C:\Users\Petro\AppData\Local\Temp\ccT7A2G2.s 			page 95


 4370              		.loc 2 849 0
 4371 00aa 3B6A     		ldr	r3, [r7, #32]
 4372 00ac 0233     		adds	r3, r3, #2
 4373 00ae 3B62     		str	r3, [r7, #32]
 850:..\..\common\lib\nokia5110/LCD5110_Graph.c **** 		f += ddF_x;    
 4374              		.loc 2 850 0
 4375 00b0 7A6A     		ldr	r2, [r7, #36]
 4376 00b2 3B6A     		ldr	r3, [r7, #32]
 4377 00b4 D318     		adds	r3, r2, r3
 4378 00b6 7B62     		str	r3, [r7, #36]
 851:..\..\common\lib\nokia5110/LCD5110_Graph.c **** 		clrPixel(x + x1, y + y1);
 4379              		.loc 2 851 0
 4380 00b8 FB68     		ldr	r3, [r7, #12]
 4381 00ba 9AB2     		uxth	r2, r3
 4382 00bc BB69     		ldr	r3, [r7, #24]
 4383 00be 9BB2     		uxth	r3, r3
 4384 00c0 D318     		adds	r3, r2, r3
 4385 00c2 98B2     		uxth	r0, r3
 4386 00c4 BB68     		ldr	r3, [r7, #8]
 4387 00c6 9AB2     		uxth	r2, r3
 4388 00c8 7B69     		ldr	r3, [r7, #20]
 4389 00ca 9BB2     		uxth	r3, r3
 4390 00cc D318     		adds	r3, r2, r3
 4391 00ce 9BB2     		uxth	r3, r3
 4392 00d0 1900     		movs	r1, r3
 4393 00d2 FFF7FEFF 		bl	clrPixel
 852:..\..\common\lib\nokia5110/LCD5110_Graph.c **** 		clrPixel(x - x1, y + y1);
 4394              		.loc 2 852 0
 4395 00d6 FB68     		ldr	r3, [r7, #12]
 4396 00d8 9AB2     		uxth	r2, r3
 4397 00da BB69     		ldr	r3, [r7, #24]
 4398 00dc 9BB2     		uxth	r3, r3
 4399 00de D31A     		subs	r3, r2, r3
 4400 00e0 98B2     		uxth	r0, r3
 4401 00e2 BB68     		ldr	r3, [r7, #8]
 4402 00e4 9AB2     		uxth	r2, r3
 4403 00e6 7B69     		ldr	r3, [r7, #20]
 4404 00e8 9BB2     		uxth	r3, r3
 4405 00ea D318     		adds	r3, r2, r3
 4406 00ec 9BB2     		uxth	r3, r3
 4407 00ee 1900     		movs	r1, r3
 4408 00f0 FFF7FEFF 		bl	clrPixel
 853:..\..\common\lib\nokia5110/LCD5110_Graph.c **** 		clrPixel(x + x1, y - y1);
 4409              		.loc 2 853 0
 4410 00f4 FB68     		ldr	r3, [r7, #12]
 4411 00f6 9AB2     		uxth	r2, r3
 4412 00f8 BB69     		ldr	r3, [r7, #24]
 4413 00fa 9BB2     		uxth	r3, r3
 4414 00fc D318     		adds	r3, r2, r3
 4415 00fe 98B2     		uxth	r0, r3
 4416 0100 BB68     		ldr	r3, [r7, #8]
 4417 0102 9AB2     		uxth	r2, r3
 4418 0104 7B69     		ldr	r3, [r7, #20]
 4419 0106 9BB2     		uxth	r3, r3
 4420 0108 D31A     		subs	r3, r2, r3
 4421 010a 9BB2     		uxth	r3, r3
 4422 010c 1900     		movs	r1, r3
ARM GAS  C:\Users\Petro\AppData\Local\Temp\ccT7A2G2.s 			page 96


 4423 010e FFF7FEFF 		bl	clrPixel
 854:..\..\common\lib\nokia5110/LCD5110_Graph.c **** 		clrPixel(x - x1, y - y1);
 4424              		.loc 2 854 0
 4425 0112 FB68     		ldr	r3, [r7, #12]
 4426 0114 9AB2     		uxth	r2, r3
 4427 0116 BB69     		ldr	r3, [r7, #24]
 4428 0118 9BB2     		uxth	r3, r3
 4429 011a D31A     		subs	r3, r2, r3
 4430 011c 98B2     		uxth	r0, r3
 4431 011e BB68     		ldr	r3, [r7, #8]
 4432 0120 9AB2     		uxth	r2, r3
 4433 0122 7B69     		ldr	r3, [r7, #20]
 4434 0124 9BB2     		uxth	r3, r3
 4435 0126 D31A     		subs	r3, r2, r3
 4436 0128 9BB2     		uxth	r3, r3
 4437 012a 1900     		movs	r1, r3
 4438 012c FFF7FEFF 		bl	clrPixel
 855:..\..\common\lib\nokia5110/LCD5110_Graph.c **** 		clrPixel(x + y1, y + x1);
 4439              		.loc 2 855 0
 4440 0130 FB68     		ldr	r3, [r7, #12]
 4441 0132 9AB2     		uxth	r2, r3
 4442 0134 7B69     		ldr	r3, [r7, #20]
 4443 0136 9BB2     		uxth	r3, r3
 4444 0138 D318     		adds	r3, r2, r3
 4445 013a 98B2     		uxth	r0, r3
 4446 013c BB68     		ldr	r3, [r7, #8]
 4447 013e 9AB2     		uxth	r2, r3
 4448 0140 BB69     		ldr	r3, [r7, #24]
 4449 0142 9BB2     		uxth	r3, r3
 4450 0144 D318     		adds	r3, r2, r3
 4451 0146 9BB2     		uxth	r3, r3
 4452 0148 1900     		movs	r1, r3
 4453 014a FFF7FEFF 		bl	clrPixel
 856:..\..\common\lib\nokia5110/LCD5110_Graph.c **** 		clrPixel(x - y1, y + x1);
 4454              		.loc 2 856 0
 4455 014e FB68     		ldr	r3, [r7, #12]
 4456 0150 9AB2     		uxth	r2, r3
 4457 0152 7B69     		ldr	r3, [r7, #20]
 4458 0154 9BB2     		uxth	r3, r3
 4459 0156 D31A     		subs	r3, r2, r3
 4460 0158 98B2     		uxth	r0, r3
 4461 015a BB68     		ldr	r3, [r7, #8]
 4462 015c 9AB2     		uxth	r2, r3
 4463 015e BB69     		ldr	r3, [r7, #24]
 4464 0160 9BB2     		uxth	r3, r3
 4465 0162 D318     		adds	r3, r2, r3
 4466 0164 9BB2     		uxth	r3, r3
 4467 0166 1900     		movs	r1, r3
 4468 0168 FFF7FEFF 		bl	clrPixel
 857:..\..\common\lib\nokia5110/LCD5110_Graph.c **** 		clrPixel(x + y1, y - x1);
 4469              		.loc 2 857 0
 4470 016c FB68     		ldr	r3, [r7, #12]
 4471 016e 9AB2     		uxth	r2, r3
 4472 0170 7B69     		ldr	r3, [r7, #20]
 4473 0172 9BB2     		uxth	r3, r3
 4474 0174 D318     		adds	r3, r2, r3
 4475 0176 98B2     		uxth	r0, r3
ARM GAS  C:\Users\Petro\AppData\Local\Temp\ccT7A2G2.s 			page 97


 4476 0178 BB68     		ldr	r3, [r7, #8]
 4477 017a 9AB2     		uxth	r2, r3
 4478 017c BB69     		ldr	r3, [r7, #24]
 4479 017e 9BB2     		uxth	r3, r3
 4480 0180 D31A     		subs	r3, r2, r3
 4481 0182 9BB2     		uxth	r3, r3
 4482 0184 1900     		movs	r1, r3
 4483 0186 FFF7FEFF 		bl	clrPixel
 858:..\..\common\lib\nokia5110/LCD5110_Graph.c **** 		clrPixel(x - y1, y - x1);
 4484              		.loc 2 858 0
 4485 018a FB68     		ldr	r3, [r7, #12]
 4486 018c 9AB2     		uxth	r2, r3
 4487 018e 7B69     		ldr	r3, [r7, #20]
 4488 0190 9BB2     		uxth	r3, r3
 4489 0192 D31A     		subs	r3, r2, r3
 4490 0194 98B2     		uxth	r0, r3
 4491 0196 BB68     		ldr	r3, [r7, #8]
 4492 0198 9AB2     		uxth	r2, r3
 4493 019a BB69     		ldr	r3, [r7, #24]
 4494 019c 9BB2     		uxth	r3, r3
 4495 019e D31A     		subs	r3, r2, r3
 4496 01a0 9BB2     		uxth	r3, r3
 4497 01a2 1900     		movs	r1, r3
 4498 01a4 FFF7FEFF 		bl	clrPixel
 4499              	.L236:
 840:..\..\common\lib\nokia5110/LCD5110_Graph.c **** 	{
 4500              		.loc 2 840 0
 4501 01a8 BA69     		ldr	r2, [r7, #24]
 4502 01aa 7B69     		ldr	r3, [r7, #20]
 4503 01ac 9A42     		cmp	r2, r3
 4504 01ae 00DA     		bge	.LCB3959
 4505 01b0 6BE7     		b	.L238	@long jump
 4506              	.LCB3959:
 859:..\..\common\lib\nokia5110/LCD5110_Graph.c **** 	}
 860:..\..\common\lib\nokia5110/LCD5110_Graph.c **** }
 4507              		.loc 2 860 0
 4508 01b2 C046     		nop
 4509 01b4 BD46     		mov	sp, r7
 4510 01b6 0AB0     		add	sp, sp, #40
 4511              		@ sp needed
 4512 01b8 80BD     		pop	{r7, pc}
 4513              		.cfi_endproc
 4514              	.LFE95:
 4515              		.size	clrCircle, .-clrCircle
 4516              		.section	.text.drawBitmap,"ax",%progbits
 4517              		.align	2
 4518              		.global	drawBitmap
 4519              		.code	16
 4520              		.thumb_func
 4521              		.type	drawBitmap, %function
 4522              	drawBitmap:
 4523              	.LFB96:
 861:..\..\common\lib\nokia5110/LCD5110_Graph.c **** 
 862:..\..\common\lib\nokia5110/LCD5110_Graph.c **** void drawBitmap(int x, int y, uint8_t* bitmap, int sx, int sy)
 863:..\..\common\lib\nokia5110/LCD5110_Graph.c **** {
 4524              		.loc 2 863 0
 4525              		.cfi_startproc
ARM GAS  C:\Users\Petro\AppData\Local\Temp\ccT7A2G2.s 			page 98


 4526              		@ args = 4, pretend = 0, frame = 32
 4527              		@ frame_needed = 1, uses_anonymous_args = 0
 4528 0000 80B5     		push	{r7, lr}
 4529              		.cfi_def_cfa_offset 8
 4530              		.cfi_offset 7, -8
 4531              		.cfi_offset 14, -4
 4532 0002 88B0     		sub	sp, sp, #32
 4533              		.cfi_def_cfa_offset 40
 4534 0004 00AF     		add	r7, sp, #0
 4535              		.cfi_def_cfa_register 7
 4536 0006 F860     		str	r0, [r7, #12]
 4537 0008 B960     		str	r1, [r7, #8]
 4538 000a 7A60     		str	r2, [r7, #4]
 4539 000c 3B60     		str	r3, [r7]
 864:..\..\common\lib\nokia5110/LCD5110_Graph.c **** 	int bit;
 865:..\..\common\lib\nokia5110/LCD5110_Graph.c **** 	uint8_t data;
 866:..\..\common\lib\nokia5110/LCD5110_Graph.c **** 
 867:..\..\common\lib\nokia5110/LCD5110_Graph.c ****     int cy;
 868:..\..\common\lib\nokia5110/LCD5110_Graph.c **** 	for (cy=0; cy<sy; cy++)
 4540              		.loc 2 868 0
 4541 000e 0023     		movs	r3, #0
 4542 0010 FB61     		str	r3, [r7, #28]
 4543 0012 50E0     		b	.L240
 4544              	.L247:
 4545              	.LBB25:
 869:..\..\common\lib\nokia5110/LCD5110_Graph.c **** 	{
 870:..\..\common\lib\nokia5110/LCD5110_Graph.c **** 		bit= cy % 8;
 4546              		.loc 2 870 0
 4547 0014 FB69     		ldr	r3, [r7, #28]
 4548 0016 2C4A     		ldr	r2, .L248
 4549 0018 1340     		ands	r3, r2
 4550 001a 04D5     		bpl	.L241
 4551 001c 013B     		subs	r3, r3, #1
 4552 001e 0822     		movs	r2, #8
 4553 0020 5242     		rsbs	r2, r2, #0
 4554 0022 1343     		orrs	r3, r2
 4555 0024 0133     		adds	r3, r3, #1
 4556              	.L241:
 4557 0026 7B61     		str	r3, [r7, #20]
 871:..\..\common\lib\nokia5110/LCD5110_Graph.c ****         int cx;
 872:..\..\common\lib\nokia5110/LCD5110_Graph.c **** 		for(cx=0; cx<sx; cx++)
 4558              		.loc 2 872 0
 4559 0028 0023     		movs	r3, #0
 4560 002a BB61     		str	r3, [r7, #24]
 4561 002c 3CE0     		b	.L242
 4562              	.L246:
 873:..\..\common\lib\nokia5110/LCD5110_Graph.c **** 		{
 874:..\..\common\lib\nokia5110/LCD5110_Graph.c **** 			data=bitmapbyte(cx+((cy/8)*sx));
 4563              		.loc 2 874 0
 4564 002e FB69     		ldr	r3, [r7, #28]
 4565 0030 002B     		cmp	r3, #0
 4566 0032 00DA     		bge	.L243
 4567 0034 0733     		adds	r3, r3, #7
 4568              	.L243:
 4569 0036 DB10     		asrs	r3, r3, #3
 4570 0038 1A00     		movs	r2, r3
 4571 003a 3B68     		ldr	r3, [r7]
ARM GAS  C:\Users\Petro\AppData\Local\Temp\ccT7A2G2.s 			page 99


 4572 003c 5A43     		muls	r2, r3
 4573 003e BB69     		ldr	r3, [r7, #24]
 4574 0040 D318     		adds	r3, r2, r3
 4575 0042 1A00     		movs	r2, r3
 4576 0044 7B68     		ldr	r3, [r7, #4]
 4577 0046 9A18     		adds	r2, r3, r2
 4578 0048 1323     		movs	r3, #19
 4579 004a FB18     		adds	r3, r7, r3
 4580 004c 1278     		ldrb	r2, [r2]
 4581 004e 1A70     		strb	r2, [r3]
 875:..\..\common\lib\nokia5110/LCD5110_Graph.c **** 			if ((data & (1<<bit))>0)
 4582              		.loc 2 875 0
 4583 0050 1323     		movs	r3, #19
 4584 0052 FB18     		adds	r3, r7, r3
 4585 0054 1B78     		ldrb	r3, [r3]
 4586 0056 0121     		movs	r1, #1
 4587 0058 7A69     		ldr	r2, [r7, #20]
 4588 005a 9140     		lsls	r1, r1, r2
 4589 005c 0A00     		movs	r2, r1
 4590 005e 1340     		ands	r3, r2
 4591 0060 002B     		cmp	r3, #0
 4592 0062 0FDD     		ble	.L244
 876:..\..\common\lib\nokia5110/LCD5110_Graph.c **** 				setPixel(x+cx, y+cy);
 4593              		.loc 2 876 0
 4594 0064 FB68     		ldr	r3, [r7, #12]
 4595 0066 9AB2     		uxth	r2, r3
 4596 0068 BB69     		ldr	r3, [r7, #24]
 4597 006a 9BB2     		uxth	r3, r3
 4598 006c D318     		adds	r3, r2, r3
 4599 006e 98B2     		uxth	r0, r3
 4600 0070 BB68     		ldr	r3, [r7, #8]
 4601 0072 9AB2     		uxth	r2, r3
 4602 0074 FB69     		ldr	r3, [r7, #28]
 4603 0076 9BB2     		uxth	r3, r3
 4604 0078 D318     		adds	r3, r2, r3
 4605 007a 9BB2     		uxth	r3, r3
 4606 007c 1900     		movs	r1, r3
 4607 007e FFF7FEFF 		bl	setPixel
 4608 0082 0EE0     		b	.L245
 4609              	.L244:
 877:..\..\common\lib\nokia5110/LCD5110_Graph.c **** 			else
 878:..\..\common\lib\nokia5110/LCD5110_Graph.c **** 				clrPixel(x+cx, y+cy);
 4610              		.loc 2 878 0
 4611 0084 FB68     		ldr	r3, [r7, #12]
 4612 0086 9AB2     		uxth	r2, r3
 4613 0088 BB69     		ldr	r3, [r7, #24]
 4614 008a 9BB2     		uxth	r3, r3
 4615 008c D318     		adds	r3, r2, r3
 4616 008e 98B2     		uxth	r0, r3
 4617 0090 BB68     		ldr	r3, [r7, #8]
 4618 0092 9AB2     		uxth	r2, r3
 4619 0094 FB69     		ldr	r3, [r7, #28]
 4620 0096 9BB2     		uxth	r3, r3
 4621 0098 D318     		adds	r3, r2, r3
 4622 009a 9BB2     		uxth	r3, r3
 4623 009c 1900     		movs	r1, r3
 4624 009e FFF7FEFF 		bl	clrPixel
ARM GAS  C:\Users\Petro\AppData\Local\Temp\ccT7A2G2.s 			page 100


 4625              	.L245:
 872:..\..\common\lib\nokia5110/LCD5110_Graph.c **** 		{
 4626              		.loc 2 872 0 discriminator 2
 4627 00a2 BB69     		ldr	r3, [r7, #24]
 4628 00a4 0133     		adds	r3, r3, #1
 4629 00a6 BB61     		str	r3, [r7, #24]
 4630              	.L242:
 872:..\..\common\lib\nokia5110/LCD5110_Graph.c **** 		{
 4631              		.loc 2 872 0 is_stmt 0 discriminator 1
 4632 00a8 BA69     		ldr	r2, [r7, #24]
 4633 00aa 3B68     		ldr	r3, [r7]
 4634 00ac 9A42     		cmp	r2, r3
 4635 00ae BEDB     		blt	.L246
 4636              	.LBE25:
 868:..\..\common\lib\nokia5110/LCD5110_Graph.c **** 	{
 4637              		.loc 2 868 0 is_stmt 1 discriminator 2
 4638 00b0 FB69     		ldr	r3, [r7, #28]
 4639 00b2 0133     		adds	r3, r3, #1
 4640 00b4 FB61     		str	r3, [r7, #28]
 4641              	.L240:
 868:..\..\common\lib\nokia5110/LCD5110_Graph.c **** 	{
 4642              		.loc 2 868 0 is_stmt 0 discriminator 1
 4643 00b6 FA69     		ldr	r2, [r7, #28]
 4644 00b8 BB6A     		ldr	r3, [r7, #40]
 4645 00ba 9A42     		cmp	r2, r3
 4646 00bc AADB     		blt	.L247
 879:..\..\common\lib\nokia5110/LCD5110_Graph.c **** 		}
 880:..\..\common\lib\nokia5110/LCD5110_Graph.c **** 	}      
 881:..\..\common\lib\nokia5110/LCD5110_Graph.c **** }
 4647              		.loc 2 881 0 is_stmt 1
 4648 00be C046     		nop
 4649 00c0 BD46     		mov	sp, r7
 4650 00c2 08B0     		add	sp, sp, #32
 4651              		@ sp needed
 4652 00c4 80BD     		pop	{r7, pc}
 4653              	.L249:
 4654 00c6 C046     		.align	2
 4655              	.L248:
 4656 00c8 07000080 		.word	-2147483641
 4657              		.cfi_endproc
 4658              	.LFE96:
 4659              		.size	drawBitmap, .-drawBitmap
 4660              		.text
 4661              	.Letext0:
 4662              		.file 3 "c:\\program files (x86)\\cypress\\psoc creator\\4.1\\psoc creator\\import\\gnu\\arm\\5.4.
 4663              		.file 4 "c:\\program files (x86)\\cypress\\psoc creator\\4.1\\psoc creator\\import\\gnu\\arm\\5.4.
 4664              		.file 5 "Generated_Source\\PSoC4/cytypes.h"
 4665              		.file 6 "..\\..\\common\\lib\\nokia5110\\LCD5110_Graph.h"
 4666              		.section	.debug_info,"",%progbits
 4667              	.Ldebug_info0:
 4668 0000 240F0000 		.4byte	0xf24
 4669 0004 0400     		.2byte	0x4
 4670 0006 00000000 		.4byte	.Ldebug_abbrev0
 4671 000a 04       		.byte	0x4
 4672 000b 01       		.uleb128 0x1
 4673 000c 91000000 		.4byte	.LASF82
 4674 0010 0C       		.byte	0xc
ARM GAS  C:\Users\Petro\AppData\Local\Temp\ccT7A2G2.s 			page 101


 4675 0011 C0020000 		.4byte	.LASF83
 4676 0015 DE010000 		.4byte	.LASF84
 4677 0019 00000000 		.4byte	.Ldebug_ranges0+0
 4678 001d 00000000 		.4byte	0
 4679 0021 00000000 		.4byte	.Ldebug_line0
 4680 0025 02       		.uleb128 0x2
 4681 0026 01       		.byte	0x1
 4682 0027 06       		.byte	0x6
 4683 0028 5E010000 		.4byte	.LASF0
 4684 002c 03       		.uleb128 0x3
 4685 002d 1A020000 		.4byte	.LASF3
 4686 0031 03       		.byte	0x3
 4687 0032 1D       		.byte	0x1d
 4688 0033 37000000 		.4byte	0x37
 4689 0037 02       		.uleb128 0x2
 4690 0038 01       		.byte	0x1
 4691 0039 08       		.byte	0x8
 4692 003a 5F020000 		.4byte	.LASF1
 4693 003e 02       		.uleb128 0x2
 4694 003f 02       		.byte	0x2
 4695 0040 05       		.byte	0x5
 4696 0041 2D000000 		.4byte	.LASF2
 4697 0045 03       		.uleb128 0x3
 4698 0046 81000000 		.4byte	.LASF4
 4699 004a 03       		.byte	0x3
 4700 004b 2B       		.byte	0x2b
 4701 004c 50000000 		.4byte	0x50
 4702 0050 02       		.uleb128 0x2
 4703 0051 02       		.byte	0x2
 4704 0052 07       		.byte	0x7
 4705 0053 14030000 		.4byte	.LASF5
 4706 0057 02       		.uleb128 0x2
 4707 0058 04       		.byte	0x4
 4708 0059 05       		.byte	0x5
 4709 005a AF010000 		.4byte	.LASF6
 4710 005e 02       		.uleb128 0x2
 4711 005f 04       		.byte	0x4
 4712 0060 07       		.byte	0x7
 4713 0061 CC010000 		.4byte	.LASF7
 4714 0065 02       		.uleb128 0x2
 4715 0066 08       		.byte	0x8
 4716 0067 05       		.byte	0x5
 4717 0068 58000000 		.4byte	.LASF8
 4718 006c 02       		.uleb128 0x2
 4719 006d 08       		.byte	0x8
 4720 006e 07       		.byte	0x7
 4721 006f 88020000 		.4byte	.LASF9
 4722 0073 04       		.uleb128 0x4
 4723 0074 04       		.byte	0x4
 4724 0075 05       		.byte	0x5
 4725 0076 696E7400 		.ascii	"int\000"
 4726 007a 02       		.uleb128 0x2
 4727 007b 04       		.byte	0x4
 4728 007c 07       		.byte	0x7
 4729 007d B3020000 		.4byte	.LASF10
 4730 0081 03       		.uleb128 0x3
 4731 0082 25010000 		.4byte	.LASF11
ARM GAS  C:\Users\Petro\AppData\Local\Temp\ccT7A2G2.s 			page 102


 4732 0086 04       		.byte	0x4
 4733 0087 18       		.byte	0x18
 4734 0088 2C000000 		.4byte	0x2c
 4735 008c 03       		.uleb128 0x3
 4736 008d EB020000 		.4byte	.LASF12
 4737 0091 04       		.byte	0x4
 4738 0092 24       		.byte	0x24
 4739 0093 45000000 		.4byte	0x45
 4740 0097 05       		.uleb128 0x5
 4741 0098 2D010000 		.4byte	.LASF13
 4742 009c 05       		.byte	0x5
 4743 009d 9801     		.2byte	0x198
 4744 009f 37000000 		.4byte	0x37
 4745 00a3 02       		.uleb128 0x2
 4746 00a4 04       		.byte	0x4
 4747 00a5 04       		.byte	0x4
 4748 00a6 83010000 		.4byte	.LASF14
 4749 00aa 02       		.uleb128 0x2
 4750 00ab 08       		.byte	0x8
 4751 00ac 04       		.byte	0x4
 4752 00ad A6030000 		.4byte	.LASF15
 4753 00b1 02       		.uleb128 0x2
 4754 00b2 01       		.byte	0x1
 4755 00b3 08       		.byte	0x8
 4756 00b4 27030000 		.4byte	.LASF16
 4757 00b8 02       		.uleb128 0x2
 4758 00b9 08       		.byte	0x8
 4759 00ba 04       		.byte	0x4
 4760 00bb 45020000 		.4byte	.LASF17
 4761 00bf 02       		.uleb128 0x2
 4762 00c0 04       		.byte	0x4
 4763 00c1 07       		.byte	0x7
 4764 00c2 37000000 		.4byte	.LASF18
 4765 00c6 06       		.uleb128 0x6
 4766 00c7 04       		.byte	0x4
 4767 00c8 B1000000 		.4byte	0xb1
 4768 00cc 07       		.uleb128 0x7
 4769 00cd B1000000 		.4byte	0xb1
 4770 00d1 DC000000 		.4byte	0xdc
 4771 00d5 08       		.uleb128 0x8
 4772 00d6 BF000000 		.4byte	0xbf
 4773 00da 18       		.byte	0x18
 4774 00db 00       		.byte	0
 4775 00dc 09       		.uleb128 0x9
 4776 00dd 0C       		.byte	0xc
 4777 00de 06       		.byte	0x6
 4778 00df 3F       		.byte	0x3f
 4779 00e0 2D010000 		.4byte	0x12d
 4780 00e4 0A       		.uleb128 0xa
 4781 00e5 66000000 		.4byte	.LASF19
 4782 00e9 06       		.byte	0x6
 4783 00ea 41       		.byte	0x41
 4784 00eb 2D010000 		.4byte	0x12d
 4785 00ef 00       		.byte	0
 4786 00f0 0A       		.uleb128 0xa
 4787 00f1 C3030000 		.4byte	.LASF20
 4788 00f5 06       		.byte	0x6
ARM GAS  C:\Users\Petro\AppData\Local\Temp\ccT7A2G2.s 			page 103


 4789 00f6 42       		.byte	0x42
 4790 00f7 81000000 		.4byte	0x81
 4791 00fb 04       		.byte	0x4
 4792 00fc 0A       		.uleb128 0xa
 4793 00fd 3E020000 		.4byte	.LASF21
 4794 0101 06       		.byte	0x6
 4795 0102 43       		.byte	0x43
 4796 0103 81000000 		.4byte	0x81
 4797 0107 05       		.byte	0x5
 4798 0108 0A       		.uleb128 0xa
 4799 0109 C5010000 		.4byte	.LASF22
 4800 010d 06       		.byte	0x6
 4801 010e 44       		.byte	0x44
 4802 010f 81000000 		.4byte	0x81
 4803 0113 06       		.byte	0x6
 4804 0114 0A       		.uleb128 0xa
 4805 0115 09000000 		.4byte	.LASF23
 4806 0119 06       		.byte	0x6
 4807 011a 45       		.byte	0x45
 4808 011b 81000000 		.4byte	0x81
 4809 011f 07       		.byte	0x7
 4810 0120 0A       		.uleb128 0xa
 4811 0121 9F020000 		.4byte	.LASF24
 4812 0125 06       		.byte	0x6
 4813 0126 46       		.byte	0x46
 4814 0127 81000000 		.4byte	0x81
 4815 012b 08       		.byte	0x8
 4816 012c 00       		.byte	0
 4817 012d 06       		.uleb128 0x6
 4818 012e 04       		.byte	0x4
 4819 012f 81000000 		.4byte	0x81
 4820 0133 03       		.uleb128 0x3
 4821 0134 9A010000 		.4byte	.LASF25
 4822 0138 06       		.byte	0x6
 4823 0139 47       		.byte	0x47
 4824 013a DC000000 		.4byte	0xdc
 4825 013e 0B       		.uleb128 0xb
 4826 013f FD020000 		.4byte	.LASF28
 4827 0143 01       		.byte	0x1
 4828 0144 04       		.byte	0x4
 4829 0145 00000000 		.4byte	.LFB64
 4830 0149 3C000000 		.4byte	.LFE64-.LFB64
 4831 014d 01       		.uleb128 0x1
 4832 014e 9C       		.byte	0x9c
 4833 014f 9A010000 		.4byte	0x19a
 4834 0153 0C       		.uleb128 0xc
 4835 0154 62756600 		.ascii	"buf\000"
 4836 0158 01       		.byte	0x1
 4837 0159 04       		.byte	0x4
 4838 015a C6000000 		.4byte	0xc6
 4839 015e 02       		.uleb128 0x2
 4840 015f 91       		.byte	0x91
 4841 0160 5C       		.sleb128 -36
 4842 0161 0C       		.uleb128 0xc
 4843 0162 6E756D00 		.ascii	"num\000"
 4844 0166 01       		.byte	0x1
 4845 0167 04       		.byte	0x4
ARM GAS  C:\Users\Petro\AppData\Local\Temp\ccT7A2G2.s 			page 104


 4846 0168 AA000000 		.4byte	0xaa
 4847 016c 02       		.uleb128 0x2
 4848 016d 91       		.byte	0x91
 4849 016e 50       		.sleb128 -48
 4850 016f 0D       		.uleb128 0xd
 4851 0170 6A010000 		.4byte	.LASF26
 4852 0174 01       		.byte	0x1
 4853 0175 04       		.byte	0x4
 4854 0176 73000000 		.4byte	0x73
 4855 017a 02       		.uleb128 0x2
 4856 017b 91       		.byte	0x91
 4857 017c 00       		.sleb128 0
 4858 017d 0D       		.uleb128 0xd
 4859 017e A1030000 		.4byte	.LASF27
 4860 0182 01       		.byte	0x1
 4861 0183 04       		.byte	0x4
 4862 0184 81000000 		.4byte	0x81
 4863 0188 02       		.uleb128 0x2
 4864 0189 91       		.byte	0x91
 4865 018a 04       		.sleb128 4
 4866 018b 0E       		.uleb128 0xe
 4867 018c 93010000 		.4byte	.LASF35
 4868 0190 01       		.byte	0x1
 4869 0191 06       		.byte	0x6
 4870 0192 9A010000 		.4byte	0x19a
 4871 0196 02       		.uleb128 0x2
 4872 0197 91       		.byte	0x91
 4873 0198 64       		.sleb128 -28
 4874 0199 00       		.byte	0
 4875 019a 07       		.uleb128 0x7
 4876 019b B1000000 		.4byte	0xb1
 4877 019f AA010000 		.4byte	0x1aa
 4878 01a3 08       		.uleb128 0x8
 4879 01a4 BF000000 		.4byte	0xbf
 4880 01a8 09       		.byte	0x9
 4881 01a9 00       		.byte	0
 4882 01aa 0B       		.uleb128 0xb
 4883 01ab 2C030000 		.4byte	.LASF29
 4884 01af 02       		.byte	0x2
 4885 01b0 3B       		.byte	0x3b
 4886 01b1 00000000 		.4byte	.LFB65
 4887 01b5 46000000 		.4byte	.LFE65-.LFB65
 4888 01b9 01       		.uleb128 0x1
 4889 01ba 9C       		.byte	0x9c
 4890 01bb DC010000 		.4byte	0x1dc
 4891 01bf 0D       		.uleb128 0xd
 4892 01c0 4B030000 		.4byte	.LASF30
 4893 01c4 02       		.byte	0x2
 4894 01c5 3B       		.byte	0x3b
 4895 01c6 37000000 		.4byte	0x37
 4896 01ca 02       		.uleb128 0x2
 4897 01cb 91       		.byte	0x91
 4898 01cc 77       		.sleb128 -9
 4899 01cd 0D       		.uleb128 0xd
 4900 01ce 6B000000 		.4byte	.LASF31
 4901 01d2 02       		.byte	0x2
 4902 01d3 3B       		.byte	0x3b
ARM GAS  C:\Users\Petro\AppData\Local\Temp\ccT7A2G2.s 			page 105


 4903 01d4 37000000 		.4byte	0x37
 4904 01d8 02       		.uleb128 0x2
 4905 01d9 91       		.byte	0x91
 4906 01da 76       		.sleb128 -10
 4907 01db 00       		.byte	0
 4908 01dc 0B       		.uleb128 0xb
 4909 01dd 0C030000 		.4byte	.LASF32
 4910 01e1 02       		.byte	0x2
 4911 01e2 58       		.byte	0x58
 4912 01e3 00000000 		.4byte	.LFB66
 4913 01e7 A4000000 		.4byte	.LFE66-.LFB66
 4914 01eb 01       		.uleb128 0x1
 4915 01ec 9C       		.byte	0x9c
 4916 01ed 00020000 		.4byte	0x200
 4917 01f1 0D       		.uleb128 0xd
 4918 01f2 84030000 		.4byte	.LASF33
 4919 01f6 02       		.byte	0x2
 4920 01f7 58       		.byte	0x58
 4921 01f8 73000000 		.4byte	0x73
 4922 01fc 02       		.uleb128 0x2
 4923 01fd 91       		.byte	0x91
 4924 01fe 74       		.sleb128 -12
 4925 01ff 00       		.byte	0
 4926 0200 0B       		.uleb128 0xb
 4927 0201 AD030000 		.4byte	.LASF34
 4928 0205 02       		.byte	0x2
 4929 0206 73       		.byte	0x73
 4930 0207 00000000 		.4byte	.LFB67
 4931 020b 54000000 		.4byte	.LFE67-.LFB67
 4932 020f 01       		.uleb128 0x1
 4933 0210 9C       		.byte	0x9c
 4934 0211 24020000 		.4byte	0x224
 4935 0215 0D       		.uleb128 0xd
 4936 0216 84030000 		.4byte	.LASF33
 4937 021a 02       		.byte	0x2
 4938 021b 73       		.byte	0x73
 4939 021c 73000000 		.4byte	0x73
 4940 0220 02       		.uleb128 0x2
 4941 0221 91       		.byte	0x91
 4942 0222 74       		.sleb128 -12
 4943 0223 00       		.byte	0
 4944 0224 0F       		.uleb128 0xf
 4945 0225 CA030000 		.4byte	.LASF36
 4946 0229 02       		.byte	0x2
 4947 022a 7F       		.byte	0x7f
 4948 022b 00000000 		.4byte	.LFB68
 4949 022f 50000000 		.4byte	.LFE68-.LFB68
 4950 0233 01       		.uleb128 0x1
 4951 0234 9C       		.byte	0x9c
 4952 0235 46020000 		.4byte	0x246
 4953 0239 10       		.uleb128 0x10
 4954 023a 6200     		.ascii	"b\000"
 4955 023c 02       		.byte	0x2
 4956 023d 84       		.byte	0x84
 4957 023e 73000000 		.4byte	0x73
 4958 0242 02       		.uleb128 0x2
 4959 0243 91       		.byte	0x91
ARM GAS  C:\Users\Petro\AppData\Local\Temp\ccT7A2G2.s 			page 106


 4960 0244 74       		.sleb128 -12
 4961 0245 00       		.byte	0
 4962 0246 11       		.uleb128 0x11
 4963 0247 40000000 		.4byte	.LASF85
 4964 024b 02       		.byte	0x2
 4965 024c 8A       		.byte	0x8a
 4966 024d 00000000 		.4byte	.LFB69
 4967 0251 5C000000 		.4byte	.LFE69-.LFB69
 4968 0255 01       		.uleb128 0x1
 4969 0256 9C       		.byte	0x9c
 4970 0257 0F       		.uleb128 0xf
 4971 0258 A8010000 		.4byte	.LASF37
 4972 025c 02       		.byte	0x2
 4973 025d 96       		.byte	0x96
 4974 025e 00000000 		.4byte	.LFB70
 4975 0262 5C000000 		.4byte	.LFE70-.LFB70
 4976 0266 01       		.uleb128 0x1
 4977 0267 9C       		.byte	0x9c
 4978 0268 83020000 		.4byte	0x283
 4979 026c 12       		.uleb128 0x12
 4980 026d 14000000 		.4byte	.LBB2
 4981 0271 36000000 		.4byte	.LBE2-.LBB2
 4982 0275 10       		.uleb128 0x10
 4983 0276 6200     		.ascii	"b\000"
 4984 0278 02       		.byte	0x2
 4985 0279 9C       		.byte	0x9c
 4986 027a 73000000 		.4byte	0x73
 4987 027e 02       		.uleb128 0x2
 4988 027f 91       		.byte	0x91
 4989 0280 74       		.sleb128 -12
 4990 0281 00       		.byte	0
 4991 0282 00       		.byte	0
 4992 0283 13       		.uleb128 0x13
 4993 0284 8D030000 		.4byte	.LASF38
 4994 0288 02       		.byte	0x2
 4995 0289 A2       		.byte	0xa2
 4996 028a 00000000 		.4byte	.LFB71
 4997 028e 34000000 		.4byte	.LFE71-.LFB71
 4998 0292 01       		.uleb128 0x1
 4999 0293 9C       		.byte	0x9c
 5000 0294 A5020000 		.4byte	0x2a5
 5001 0298 10       		.uleb128 0x10
 5002 0299 6300     		.ascii	"c\000"
 5003 029b 02       		.byte	0x2
 5004 029c A4       		.byte	0xa4
 5005 029d 73000000 		.4byte	0x73
 5006 02a1 02       		.uleb128 0x2
 5007 02a2 91       		.byte	0x91
 5008 02a3 74       		.sleb128 -12
 5009 02a4 00       		.byte	0
 5010 02a5 13       		.uleb128 0x13
 5011 02a6 63030000 		.4byte	.LASF39
 5012 02aa 02       		.byte	0x2
 5013 02ab A9       		.byte	0xa9
 5014 02ac 00000000 		.4byte	.LFB72
 5015 02b0 34000000 		.4byte	.LFE72-.LFB72
 5016 02b4 01       		.uleb128 0x1
ARM GAS  C:\Users\Petro\AppData\Local\Temp\ccT7A2G2.s 			page 107


 5017 02b5 9C       		.byte	0x9c
 5018 02b6 C7020000 		.4byte	0x2c7
 5019 02ba 10       		.uleb128 0x10
 5020 02bb 6300     		.ascii	"c\000"
 5021 02bd 02       		.byte	0x2
 5022 02be AB       		.byte	0xab
 5023 02bf 73000000 		.4byte	0x73
 5024 02c3 02       		.uleb128 0x2
 5025 02c4 91       		.byte	0x91
 5026 02c5 74       		.sleb128 -12
 5027 02c6 00       		.byte	0
 5028 02c7 0B       		.uleb128 0xb
 5029 02c8 37030000 		.4byte	.LASF40
 5030 02cc 02       		.byte	0x2
 5031 02cd B0       		.byte	0xb0
 5032 02ce 00000000 		.4byte	.LFB73
 5033 02d2 2E000000 		.4byte	.LFE73-.LFB73
 5034 02d6 01       		.uleb128 0x1
 5035 02d7 9C       		.byte	0x9c
 5036 02d8 EB020000 		.4byte	0x2eb
 5037 02dc 0D       		.uleb128 0xd
 5038 02dd 6B000000 		.4byte	.LASF31
 5039 02e1 02       		.byte	0x2
 5040 02e2 B0       		.byte	0xb0
 5041 02e3 EB020000 		.4byte	0x2eb
 5042 02e7 02       		.uleb128 0x2
 5043 02e8 91       		.byte	0x91
 5044 02e9 77       		.sleb128 -9
 5045 02ea 00       		.byte	0
 5046 02eb 02       		.uleb128 0x2
 5047 02ec 01       		.byte	0x1
 5048 02ed 02       		.byte	0x2
 5049 02ee 3E030000 		.4byte	.LASF41
 5050 02f2 14       		.uleb128 0x14
 5051 02f3 F4020000 		.4byte	.LASF42
 5052 02f7 02       		.byte	0x2
 5053 02f8 B8       		.byte	0xb8
 5054 02f9 00000000 		.4byte	.LFB74
 5055 02fd 74000000 		.4byte	.LFE74-.LFB74
 5056 0301 01       		.uleb128 0x1
 5057 0302 9C       		.byte	0x9c
 5058 0303 3A030000 		.4byte	0x33a
 5059 0307 0C       		.uleb128 0xc
 5060 0308 7800     		.ascii	"x\000"
 5061 030a 02       		.byte	0x2
 5062 030b B8       		.byte	0xb8
 5063 030c 8C000000 		.4byte	0x8c
 5064 0310 02       		.uleb128 0x2
 5065 0311 91       		.byte	0x91
 5066 0312 6E       		.sleb128 -18
 5067 0313 0C       		.uleb128 0xc
 5068 0314 7900     		.ascii	"y\000"
 5069 0316 02       		.byte	0x2
 5070 0317 B8       		.byte	0xb8
 5071 0318 8C000000 		.4byte	0x8c
 5072 031c 02       		.uleb128 0x2
 5073 031d 91       		.byte	0x91
ARM GAS  C:\Users\Petro\AppData\Local\Temp\ccT7A2G2.s 			page 108


 5074 031e 6C       		.sleb128 -20
 5075 031f 10       		.uleb128 0x10
 5076 0320 627900   		.ascii	"by\000"
 5077 0323 02       		.byte	0x2
 5078 0324 BA       		.byte	0xba
 5079 0325 73000000 		.4byte	0x73
 5080 0329 02       		.uleb128 0x2
 5081 032a 91       		.byte	0x91
 5082 032b 74       		.sleb128 -12
 5083 032c 10       		.uleb128 0x10
 5084 032d 626900   		.ascii	"bi\000"
 5085 0330 02       		.byte	0x2
 5086 0331 BA       		.byte	0xba
 5087 0332 73000000 		.4byte	0x73
 5088 0336 02       		.uleb128 0x2
 5089 0337 91       		.byte	0x91
 5090 0338 70       		.sleb128 -16
 5091 0339 00       		.byte	0
 5092 033a 14       		.uleb128 0x14
 5093 033b 55010000 		.4byte	.LASF43
 5094 033f 02       		.byte	0x2
 5095 0340 C5       		.byte	0xc5
 5096 0341 00000000 		.4byte	.LFB75
 5097 0345 78000000 		.4byte	.LFE75-.LFB75
 5098 0349 01       		.uleb128 0x1
 5099 034a 9C       		.byte	0x9c
 5100 034b 82030000 		.4byte	0x382
 5101 034f 0C       		.uleb128 0xc
 5102 0350 7800     		.ascii	"x\000"
 5103 0352 02       		.byte	0x2
 5104 0353 C5       		.byte	0xc5
 5105 0354 8C000000 		.4byte	0x8c
 5106 0358 02       		.uleb128 0x2
 5107 0359 91       		.byte	0x91
 5108 035a 6E       		.sleb128 -18
 5109 035b 0C       		.uleb128 0xc
 5110 035c 7900     		.ascii	"y\000"
 5111 035e 02       		.byte	0x2
 5112 035f C5       		.byte	0xc5
 5113 0360 8C000000 		.4byte	0x8c
 5114 0364 02       		.uleb128 0x2
 5115 0365 91       		.byte	0x91
 5116 0366 6C       		.sleb128 -20
 5117 0367 10       		.uleb128 0x10
 5118 0368 627900   		.ascii	"by\000"
 5119 036b 02       		.byte	0x2
 5120 036c C7       		.byte	0xc7
 5121 036d 73000000 		.4byte	0x73
 5122 0371 02       		.uleb128 0x2
 5123 0372 91       		.byte	0x91
 5124 0373 74       		.sleb128 -12
 5125 0374 10       		.uleb128 0x10
 5126 0375 626900   		.ascii	"bi\000"
 5127 0378 02       		.byte	0x2
 5128 0379 C7       		.byte	0xc7
 5129 037a 73000000 		.4byte	0x73
 5130 037e 02       		.uleb128 0x2
ARM GAS  C:\Users\Petro\AppData\Local\Temp\ccT7A2G2.s 			page 109


 5131 037f 91       		.byte	0x91
 5132 0380 70       		.sleb128 -16
 5133 0381 00       		.byte	0
 5134 0382 14       		.uleb128 0x14
 5135 0383 24020000 		.4byte	.LASF44
 5136 0387 02       		.byte	0x2
 5137 0388 D2       		.byte	0xd2
 5138 0389 00000000 		.4byte	.LFB76
 5139 038d B4000000 		.4byte	.LFE76-.LFB76
 5140 0391 01       		.uleb128 0x1
 5141 0392 9C       		.byte	0x9c
 5142 0393 CA030000 		.4byte	0x3ca
 5143 0397 0C       		.uleb128 0xc
 5144 0398 7800     		.ascii	"x\000"
 5145 039a 02       		.byte	0x2
 5146 039b D2       		.byte	0xd2
 5147 039c 8C000000 		.4byte	0x8c
 5148 03a0 02       		.uleb128 0x2
 5149 03a1 91       		.byte	0x91
 5150 03a2 6E       		.sleb128 -18
 5151 03a3 0C       		.uleb128 0xc
 5152 03a4 7900     		.ascii	"y\000"
 5153 03a6 02       		.byte	0x2
 5154 03a7 D2       		.byte	0xd2
 5155 03a8 8C000000 		.4byte	0x8c
 5156 03ac 02       		.uleb128 0x2
 5157 03ad 91       		.byte	0x91
 5158 03ae 6C       		.sleb128 -20
 5159 03af 10       		.uleb128 0x10
 5160 03b0 627900   		.ascii	"by\000"
 5161 03b3 02       		.byte	0x2
 5162 03b4 D4       		.byte	0xd4
 5163 03b5 73000000 		.4byte	0x73
 5164 03b9 02       		.uleb128 0x2
 5165 03ba 91       		.byte	0x91
 5166 03bb 74       		.sleb128 -12
 5167 03bc 10       		.uleb128 0x10
 5168 03bd 626900   		.ascii	"bi\000"
 5169 03c0 02       		.byte	0x2
 5170 03c1 D4       		.byte	0xd4
 5171 03c2 73000000 		.4byte	0x73
 5172 03c6 02       		.uleb128 0x2
 5173 03c7 91       		.byte	0x91
 5174 03c8 70       		.sleb128 -16
 5175 03c9 00       		.byte	0
 5176 03ca 14       		.uleb128 0x14
 5177 03cb 4D000000 		.4byte	.LASF45
 5178 03cf 02       		.byte	0x2
 5179 03d0 E2       		.byte	0xe2
 5180 03d1 00000000 		.4byte	.LFB77
 5181 03d5 30000000 		.4byte	.LFE77-.LFB77
 5182 03d9 01       		.uleb128 0x1
 5183 03da 9C       		.byte	0x9c
 5184 03db EE030000 		.4byte	0x3ee
 5185 03df 0D       		.uleb128 0xd
 5186 03e0 6B000000 		.4byte	.LASF31
 5187 03e4 02       		.byte	0x2
ARM GAS  C:\Users\Petro\AppData\Local\Temp\ccT7A2G2.s 			page 110


 5188 03e5 E2       		.byte	0xe2
 5189 03e6 EB020000 		.4byte	0x2eb
 5190 03ea 02       		.uleb128 0x2
 5191 03eb 91       		.byte	0x91
 5192 03ec 77       		.sleb128 -9
 5193 03ed 00       		.byte	0
 5194 03ee 0B       		.uleb128 0xb
 5195 03ef 94030000 		.4byte	.LASF46
 5196 03f3 02       		.byte	0x2
 5197 03f4 EA       		.byte	0xea
 5198 03f5 00000000 		.4byte	.LFB78
 5199 03f9 94000000 		.4byte	.LFE78-.LFB78
 5200 03fd 01       		.uleb128 0x1
 5201 03fe 9C       		.byte	0x9c
 5202 03ff 4F040000 		.4byte	0x44f
 5203 0403 0C       		.uleb128 0xc
 5204 0404 737400   		.ascii	"st\000"
 5205 0407 02       		.byte	0x2
 5206 0408 EA       		.byte	0xea
 5207 0409 C6000000 		.4byte	0xc6
 5208 040d 02       		.uleb128 0x2
 5209 040e 91       		.byte	0x91
 5210 040f 6C       		.sleb128 -20
 5211 0410 0C       		.uleb128 0xc
 5212 0411 7800     		.ascii	"x\000"
 5213 0413 02       		.byte	0x2
 5214 0414 EA       		.byte	0xea
 5215 0415 73000000 		.4byte	0x73
 5216 0419 02       		.uleb128 0x2
 5217 041a 91       		.byte	0x91
 5218 041b 68       		.sleb128 -24
 5219 041c 0C       		.uleb128 0xc
 5220 041d 7900     		.ascii	"y\000"
 5221 041f 02       		.byte	0x2
 5222 0420 EA       		.byte	0xea
 5223 0421 73000000 		.4byte	0x73
 5224 0425 02       		.uleb128 0x2
 5225 0426 91       		.byte	0x91
 5226 0427 64       		.sleb128 -28
 5227 0428 15       		.uleb128 0x15
 5228 0429 636800   		.ascii	"ch\000"
 5229 042c 02       		.byte	0x2
 5230 042d EC       		.byte	0xec
 5231 042e 37000000 		.4byte	0x37
 5232 0432 10       		.uleb128 0x10
 5233 0433 73746C00 		.ascii	"stl\000"
 5234 0437 02       		.byte	0x2
 5235 0438 ED       		.byte	0xed
 5236 0439 73000000 		.4byte	0x73
 5237 043d 02       		.uleb128 0x2
 5238 043e 91       		.byte	0x91
 5239 043f 70       		.sleb128 -16
 5240 0440 10       		.uleb128 0x10
 5241 0441 636E7400 		.ascii	"cnt\000"
 5242 0445 02       		.byte	0x2
 5243 0446 F5       		.byte	0xf5
 5244 0447 73000000 		.4byte	0x73
ARM GAS  C:\Users\Petro\AppData\Local\Temp\ccT7A2G2.s 			page 111


 5245 044b 02       		.uleb128 0x2
 5246 044c 91       		.byte	0x91
 5247 044d 74       		.sleb128 -12
 5248 044e 00       		.byte	0
 5249 044f 0B       		.uleb128 0xb
 5250 0450 50030000 		.4byte	.LASF47
 5251 0454 02       		.byte	0x2
 5252 0455 FA       		.byte	0xfa
 5253 0456 00000000 		.4byte	.LFB79
 5254 045a 20000000 		.4byte	.LFE79-.LFB79
 5255 045e 01       		.uleb128 0x1
 5256 045f 9C       		.byte	0x9c
 5257 0460 8A040000 		.4byte	0x48a
 5258 0464 0C       		.uleb128 0xc
 5259 0465 737400   		.ascii	"st\000"
 5260 0468 02       		.byte	0x2
 5261 0469 FA       		.byte	0xfa
 5262 046a C6000000 		.4byte	0xc6
 5263 046e 02       		.uleb128 0x2
 5264 046f 91       		.byte	0x91
 5265 0470 74       		.sleb128 -12
 5266 0471 0C       		.uleb128 0xc
 5267 0472 7800     		.ascii	"x\000"
 5268 0474 02       		.byte	0x2
 5269 0475 FA       		.byte	0xfa
 5270 0476 73000000 		.4byte	0x73
 5271 047a 02       		.uleb128 0x2
 5272 047b 91       		.byte	0x91
 5273 047c 70       		.sleb128 -16
 5274 047d 0C       		.uleb128 0xc
 5275 047e 7900     		.ascii	"y\000"
 5276 0480 02       		.byte	0x2
 5277 0481 FA       		.byte	0xfa
 5278 0482 73000000 		.4byte	0x73
 5279 0486 02       		.uleb128 0x2
 5280 0487 91       		.byte	0x91
 5281 0488 6C       		.sleb128 -20
 5282 0489 00       		.byte	0
 5283 048a 16       		.uleb128 0x16
 5284 048b 75030000 		.4byte	.LASF48
 5285 048f 02       		.byte	0x2
 5286 0490 0201     		.2byte	0x102
 5287 0492 00000000 		.4byte	.LFB80
 5288 0496 A6010000 		.4byte	.LFE80-.LFB80
 5289 049a 01       		.uleb128 0x1
 5290 049b 9C       		.byte	0x9c
 5291 049c 61050000 		.4byte	0x561
 5292 04a0 17       		.uleb128 0x17
 5293 04a1 6E756D00 		.ascii	"num\000"
 5294 04a5 02       		.byte	0x2
 5295 04a6 0201     		.2byte	0x102
 5296 04a8 57000000 		.4byte	0x57
 5297 04ac 03       		.uleb128 0x3
 5298 04ad 91       		.byte	0x91
 5299 04ae A47F     		.sleb128 -92
 5300 04b0 17       		.uleb128 0x17
 5301 04b1 7800     		.ascii	"x\000"
ARM GAS  C:\Users\Petro\AppData\Local\Temp\ccT7A2G2.s 			page 112


 5302 04b3 02       		.byte	0x2
 5303 04b4 0201     		.2byte	0x102
 5304 04b6 73000000 		.4byte	0x73
 5305 04ba 03       		.uleb128 0x3
 5306 04bb 91       		.byte	0x91
 5307 04bc A07F     		.sleb128 -96
 5308 04be 17       		.uleb128 0x17
 5309 04bf 7900     		.ascii	"y\000"
 5310 04c1 02       		.byte	0x2
 5311 04c2 0201     		.2byte	0x102
 5312 04c4 73000000 		.4byte	0x73
 5313 04c8 03       		.uleb128 0x3
 5314 04c9 91       		.byte	0x91
 5315 04ca 9C7F     		.sleb128 -100
 5316 04cc 18       		.uleb128 0x18
 5317 04cd 70010000 		.4byte	.LASF49
 5318 04d1 02       		.byte	0x2
 5319 04d2 0201     		.2byte	0x102
 5320 04d4 73000000 		.4byte	0x73
 5321 04d8 03       		.uleb128 0x3
 5322 04d9 91       		.byte	0x91
 5323 04da 987F     		.sleb128 -104
 5324 04dc 18       		.uleb128 0x18
 5325 04dd 9A030000 		.4byte	.LASF50
 5326 04e1 02       		.byte	0x2
 5327 04e2 0201     		.2byte	0x102
 5328 04e4 B1000000 		.4byte	0xb1
 5329 04e8 02       		.uleb128 0x2
 5330 04e9 91       		.byte	0x91
 5331 04ea 00       		.sleb128 0
 5332 04eb 19       		.uleb128 0x19
 5333 04ec 62756600 		.ascii	"buf\000"
 5334 04f0 02       		.byte	0x2
 5335 04f1 0401     		.2byte	0x104
 5336 04f3 CC000000 		.4byte	0xcc
 5337 04f7 02       		.uleb128 0x2
 5338 04f8 91       		.byte	0x91
 5339 04f9 48       		.sleb128 -56
 5340 04fa 19       		.uleb128 0x19
 5341 04fb 737400   		.ascii	"st\000"
 5342 04fe 02       		.byte	0x2
 5343 04ff 0501     		.2byte	0x105
 5344 0501 61050000 		.4byte	0x561
 5345 0505 03       		.uleb128 0x3
 5346 0506 91       		.byte	0x91
 5347 0507 AC7F     		.sleb128 -84
 5348 0509 19       		.uleb128 0x19
 5349 050a 6E656700 		.ascii	"neg\000"
 5350 050e 02       		.byte	0x2
 5351 050f 0601     		.2byte	0x106
 5352 0511 EB020000 		.4byte	0x2eb
 5353 0515 02       		.uleb128 0x2
 5354 0516 91       		.byte	0x91
 5355 0517 77       		.sleb128 -9
 5356 0518 19       		.uleb128 0x19
 5357 0519 6300     		.ascii	"c\000"
 5358 051b 02       		.byte	0x2
ARM GAS  C:\Users\Petro\AppData\Local\Temp\ccT7A2G2.s 			page 113


 5359 051c 0701     		.2byte	0x107
 5360 051e 73000000 		.4byte	0x73
 5361 0522 02       		.uleb128 0x2
 5362 0523 91       		.byte	0x91
 5363 0524 70       		.sleb128 -16
 5364 0525 19       		.uleb128 0x19
 5365 0526 6600     		.ascii	"f\000"
 5366 0528 02       		.byte	0x2
 5367 0529 0701     		.2byte	0x107
 5368 052b 73000000 		.4byte	0x73
 5369 052f 02       		.uleb128 0x2
 5370 0530 91       		.byte	0x91
 5371 0531 6C       		.sleb128 -20
 5372 0532 12       		.uleb128 0x12
 5373 0533 7C000000 		.4byte	.LBB3
 5374 0537 14010000 		.4byte	.LBE3-.LBB3
 5375 053b 19       		.uleb128 0x19
 5376 053c 6900     		.ascii	"i\000"
 5377 053e 02       		.byte	0x2
 5378 053f 3701     		.2byte	0x137
 5379 0541 73000000 		.4byte	0x73
 5380 0545 02       		.uleb128 0x2
 5381 0546 91       		.byte	0x91
 5382 0547 64       		.sleb128 -28
 5383 0548 12       		.uleb128 0x12
 5384 0549 08010000 		.4byte	.LBB4
 5385 054d 3C000000 		.4byte	.LBE4-.LBB4
 5386 0551 19       		.uleb128 0x19
 5387 0552 6900     		.ascii	"i\000"
 5388 0554 02       		.byte	0x2
 5389 0555 2F01     		.2byte	0x12f
 5390 0557 73000000 		.4byte	0x73
 5391 055b 02       		.uleb128 0x2
 5392 055c 91       		.byte	0x91
 5393 055d 68       		.sleb128 -24
 5394 055e 00       		.byte	0
 5395 055f 00       		.byte	0
 5396 0560 00       		.byte	0
 5397 0561 07       		.uleb128 0x7
 5398 0562 B1000000 		.4byte	0xb1
 5399 0566 71050000 		.4byte	0x571
 5400 056a 08       		.uleb128 0x8
 5401 056b BF000000 		.4byte	0xbf
 5402 056f 1A       		.byte	0x1a
 5403 0570 00       		.byte	0
 5404 0571 16       		.uleb128 0x16
 5405 0572 6B030000 		.4byte	.LASF51
 5406 0576 02       		.byte	0x2
 5407 0577 4301     		.2byte	0x143
 5408 0579 00000000 		.4byte	.LFB81
 5409 057d 52010000 		.4byte	.LFE81-.LFB81
 5410 0581 01       		.uleb128 0x1
 5411 0582 9C       		.byte	0x9c
 5412 0583 69060000 		.4byte	0x669
 5413 0587 17       		.uleb128 0x17
 5414 0588 6E756D00 		.ascii	"num\000"
 5415 058c 02       		.byte	0x2
ARM GAS  C:\Users\Petro\AppData\Local\Temp\ccT7A2G2.s 			page 114


 5416 058d 4301     		.2byte	0x143
 5417 058f AA000000 		.4byte	0xaa
 5418 0593 03       		.uleb128 0x3
 5419 0594 91       		.byte	0x91
 5420 0595 B87F     		.sleb128 -72
 5421 0597 17       		.uleb128 0x17
 5422 0598 64656300 		.ascii	"dec\000"
 5423 059c 02       		.byte	0x2
 5424 059d 4301     		.2byte	0x143
 5425 059f 97000000 		.4byte	0x97
 5426 05a3 03       		.uleb128 0x3
 5427 05a4 91       		.byte	0x91
 5428 05a5 B77F     		.sleb128 -73
 5429 05a7 17       		.uleb128 0x17
 5430 05a8 7800     		.ascii	"x\000"
 5431 05aa 02       		.byte	0x2
 5432 05ab 4301     		.2byte	0x143
 5433 05ad 73000000 		.4byte	0x73
 5434 05b1 03       		.uleb128 0x3
 5435 05b2 91       		.byte	0x91
 5436 05b3 B07F     		.sleb128 -80
 5437 05b5 17       		.uleb128 0x17
 5438 05b6 7900     		.ascii	"y\000"
 5439 05b8 02       		.byte	0x2
 5440 05b9 4301     		.2byte	0x143
 5441 05bb 73000000 		.4byte	0x73
 5442 05bf 02       		.uleb128 0x2
 5443 05c0 91       		.byte	0x91
 5444 05c1 00       		.sleb128 0
 5445 05c2 18       		.uleb128 0x18
 5446 05c3 D6030000 		.4byte	.LASF52
 5447 05c7 02       		.byte	0x2
 5448 05c8 4301     		.2byte	0x143
 5449 05ca B1000000 		.4byte	0xb1
 5450 05ce 02       		.uleb128 0x2
 5451 05cf 91       		.byte	0x91
 5452 05d0 04       		.sleb128 4
 5453 05d1 18       		.uleb128 0x18
 5454 05d2 70010000 		.4byte	.LASF49
 5455 05d6 02       		.byte	0x2
 5456 05d7 4301     		.2byte	0x143
 5457 05d9 73000000 		.4byte	0x73
 5458 05dd 02       		.uleb128 0x2
 5459 05de 91       		.byte	0x91
 5460 05df 08       		.sleb128 8
 5461 05e0 18       		.uleb128 0x18
 5462 05e1 9A030000 		.4byte	.LASF50
 5463 05e5 02       		.byte	0x2
 5464 05e6 4301     		.2byte	0x143
 5465 05e8 B1000000 		.4byte	0xb1
 5466 05ec 02       		.uleb128 0x2
 5467 05ed 91       		.byte	0x91
 5468 05ee 0C       		.sleb128 12
 5469 05ef 19       		.uleb128 0x19
 5470 05f0 737400   		.ascii	"st\000"
 5471 05f3 02       		.byte	0x2
 5472 05f4 4501     		.2byte	0x145
ARM GAS  C:\Users\Petro\AppData\Local\Temp\ccT7A2G2.s 			page 115


 5473 05f6 61050000 		.4byte	0x561
 5474 05fa 02       		.uleb128 0x2
 5475 05fb 91       		.byte	0x91
 5476 05fc 44       		.sleb128 -60
 5477 05fd 1A       		.uleb128 0x1a
 5478 05fe 7F030000 		.4byte	.LASF53
 5479 0602 02       		.byte	0x2
 5480 0603 4601     		.2byte	0x146
 5481 0605 81000000 		.4byte	0x81
 5482 0609 02       		.uleb128 0x2
 5483 060a 91       		.byte	0x91
 5484 060b 5F       		.sleb128 -33
 5485 060c 19       		.uleb128 0x19
 5486 060d 6E656700 		.ascii	"neg\000"
 5487 0611 02       		.byte	0x2
 5488 0612 4701     		.2byte	0x147
 5489 0614 EB020000 		.4byte	0x2eb
 5490 0618 02       		.uleb128 0x2
 5491 0619 91       		.byte	0x91
 5492 061a 6F       		.sleb128 -17
 5493 061b 1B       		.uleb128 0x1b
 5494 061c 56000000 		.4byte	.LBB5
 5495 0620 3E000000 		.4byte	.LBE5-.LBB5
 5496 0624 36060000 		.4byte	0x636
 5497 0628 19       		.uleb128 0x19
 5498 0629 6900     		.ascii	"i\000"
 5499 062b 02       		.byte	0x2
 5500 062c 5101     		.2byte	0x151
 5501 062e 73000000 		.4byte	0x73
 5502 0632 02       		.uleb128 0x2
 5503 0633 91       		.byte	0x91
 5504 0634 68       		.sleb128 -24
 5505 0635 00       		.byte	0
 5506 0636 1B       		.uleb128 0x1b
 5507 0637 A8000000 		.4byte	.LBB6
 5508 063b 56000000 		.4byte	.LBE6-.LBB6
 5509 063f 51060000 		.4byte	0x651
 5510 0643 19       		.uleb128 0x19
 5511 0644 6900     		.ascii	"i\000"
 5512 0646 02       		.byte	0x2
 5513 0647 5D01     		.2byte	0x15d
 5514 0649 73000000 		.4byte	0x73
 5515 064d 02       		.uleb128 0x2
 5516 064e 91       		.byte	0x91
 5517 064f 64       		.sleb128 -28
 5518 0650 00       		.byte	0
 5519 0651 12       		.uleb128 0x12
 5520 0652 FE000000 		.4byte	.LBB7
 5521 0656 3E000000 		.4byte	.LBE7-.LBB7
 5522 065a 19       		.uleb128 0x19
 5523 065b 6900     		.ascii	"i\000"
 5524 065d 02       		.byte	0x2
 5525 065e 6501     		.2byte	0x165
 5526 0660 73000000 		.4byte	0x73
 5527 0664 02       		.uleb128 0x2
 5528 0665 91       		.byte	0x91
 5529 0666 60       		.sleb128 -32
ARM GAS  C:\Users\Petro\AppData\Local\Temp\ccT7A2G2.s 			page 116


 5530 0667 00       		.byte	0
 5531 0668 00       		.byte	0
 5532 0669 16       		.uleb128 0x16
 5533 066a 77010000 		.4byte	.LASF54
 5534 066e 02       		.byte	0x2
 5535 066f 6F01     		.2byte	0x16f
 5536 0671 00000000 		.4byte	.LFB82
 5537 0675 A8020000 		.4byte	.LFE82-.LFB82
 5538 0679 01       		.uleb128 0x1
 5539 067a 9C       		.byte	0x9c
 5540 067b 60070000 		.4byte	0x760
 5541 067f 17       		.uleb128 0x17
 5542 0680 6300     		.ascii	"c\000"
 5543 0682 02       		.byte	0x2
 5544 0683 6F01     		.2byte	0x16f
 5545 0685 37000000 		.4byte	0x37
 5546 0689 02       		.uleb128 0x2
 5547 068a 91       		.byte	0x91
 5548 068b 4F       		.sleb128 -49
 5549 068c 17       		.uleb128 0x17
 5550 068d 7800     		.ascii	"x\000"
 5551 068f 02       		.byte	0x2
 5552 0690 6F01     		.2byte	0x16f
 5553 0692 73000000 		.4byte	0x73
 5554 0696 02       		.uleb128 0x2
 5555 0697 91       		.byte	0x91
 5556 0698 48       		.sleb128 -56
 5557 0699 17       		.uleb128 0x17
 5558 069a 7900     		.ascii	"y\000"
 5559 069c 02       		.byte	0x2
 5560 069d 6F01     		.2byte	0x16f
 5561 069f 73000000 		.4byte	0x73
 5562 06a3 02       		.uleb128 0x2
 5563 06a4 91       		.byte	0x91
 5564 06a5 44       		.sleb128 -60
 5565 06a6 1B       		.uleb128 0x1b
 5566 06a7 22000000 		.4byte	.LBB8
 5567 06ab 52010000 		.4byte	.LBE8-.LBB8
 5568 06af 02070000 		.4byte	0x702
 5569 06b3 1A       		.uleb128 0x1a
 5570 06b4 00000000 		.4byte	.LASF55
 5571 06b8 02       		.byte	0x2
 5572 06b9 7301     		.2byte	0x173
 5573 06bb 73000000 		.4byte	0x73
 5574 06bf 02       		.uleb128 0x2
 5575 06c0 91       		.byte	0x91
 5576 06c1 54       		.sleb128 -44
 5577 06c2 1A       		.uleb128 0x1a
 5578 06c3 70000000 		.4byte	.LASF56
 5579 06c7 02       		.byte	0x2
 5580 06c8 7401     		.2byte	0x174
 5581 06ca 73000000 		.4byte	0x73
 5582 06ce 02       		.uleb128 0x2
 5583 06cf 91       		.byte	0x91
 5584 06d0 74       		.sleb128 -12
 5585 06d1 12       		.uleb128 0x12
 5586 06d2 4A000000 		.4byte	.LBB9
ARM GAS  C:\Users\Petro\AppData\Local\Temp\ccT7A2G2.s 			page 117


 5587 06d6 12010000 		.4byte	.LBE9-.LBB9
 5588 06da 19       		.uleb128 0x19
 5589 06db 636E7400 		.ascii	"cnt\000"
 5590 06df 02       		.byte	0x2
 5591 06e0 7701     		.2byte	0x177
 5592 06e2 73000000 		.4byte	0x73
 5593 06e6 02       		.uleb128 0x2
 5594 06e7 91       		.byte	0x91
 5595 06e8 70       		.sleb128 -16
 5596 06e9 12       		.uleb128 0x12
 5597 06ea 50000000 		.4byte	.LBB10
 5598 06ee F8000000 		.4byte	.LBE10-.LBB10
 5599 06f2 19       		.uleb128 0x19
 5600 06f3 6200     		.ascii	"b\000"
 5601 06f5 02       		.byte	0x2
 5602 06f6 7A01     		.2byte	0x17a
 5603 06f8 73000000 		.4byte	0x73
 5604 06fc 02       		.uleb128 0x2
 5605 06fd 91       		.byte	0x91
 5606 06fe 6C       		.sleb128 -20
 5607 06ff 00       		.byte	0
 5608 0700 00       		.byte	0
 5609 0701 00       		.byte	0
 5610 0702 12       		.uleb128 0x12
 5611 0703 76010000 		.4byte	.LBB11
 5612 0707 24010000 		.4byte	.LBE11-.LBB11
 5613 070b 1A       		.uleb128 0x1a
 5614 070c 00000000 		.4byte	.LASF55
 5615 0710 02       		.byte	0x2
 5616 0711 8B01     		.2byte	0x18b
 5617 0713 73000000 		.4byte	0x73
 5618 0717 02       		.uleb128 0x2
 5619 0718 91       		.byte	0x91
 5620 0719 68       		.sleb128 -24
 5621 071a 1A       		.uleb128 0x1a
 5622 071b 82020000 		.4byte	.LASF57
 5623 071f 02       		.byte	0x2
 5624 0720 8C01     		.2byte	0x18c
 5625 0722 73000000 		.4byte	0x73
 5626 0726 02       		.uleb128 0x2
 5627 0727 91       		.byte	0x91
 5628 0728 64       		.sleb128 -28
 5629 0729 1A       		.uleb128 0x1a
 5630 072a 8C000000 		.4byte	.LASF58
 5631 072e 02       		.byte	0x2
 5632 072f 8D01     		.2byte	0x18d
 5633 0731 73000000 		.4byte	0x73
 5634 0735 02       		.uleb128 0x2
 5635 0736 91       		.byte	0x91
 5636 0737 60       		.sleb128 -32
 5637 0738 19       		.uleb128 0x19
 5638 0739 637800   		.ascii	"cx\000"
 5639 073c 02       		.byte	0x2
 5640 073d 8E01     		.2byte	0x18e
 5641 073f 73000000 		.4byte	0x73
 5642 0743 02       		.uleb128 0x2
 5643 0744 91       		.byte	0x91
ARM GAS  C:\Users\Petro\AppData\Local\Temp\ccT7A2G2.s 			page 118


 5644 0745 5C       		.sleb128 -36
 5645 0746 12       		.uleb128 0x12
 5646 0747 B2010000 		.4byte	.LBB12
 5647 074b D6000000 		.4byte	.LBE12-.LBB12
 5648 074f 19       		.uleb128 0x19
 5649 0750 637900   		.ascii	"cy\000"
 5650 0753 02       		.byte	0x2
 5651 0754 9101     		.2byte	0x191
 5652 0756 73000000 		.4byte	0x73
 5653 075a 02       		.uleb128 0x2
 5654 075b 91       		.byte	0x91
 5655 075c 58       		.sleb128 -40
 5656 075d 00       		.byte	0
 5657 075e 00       		.byte	0
 5658 075f 00       		.byte	0
 5659 0760 1C       		.uleb128 0x1c
 5660 0761 7A020000 		.4byte	.LASF59
 5661 0765 02       		.byte	0x2
 5662 0766 AA01     		.2byte	0x1aa
 5663 0768 00000000 		.4byte	.LFB83
 5664 076c 48000000 		.4byte	.LFE83-.LFB83
 5665 0770 01       		.uleb128 0x1
 5666 0771 9C       		.byte	0x9c
 5667 0772 86070000 		.4byte	0x786
 5668 0776 18       		.uleb128 0x18
 5669 0777 66000000 		.4byte	.LASF19
 5670 077b 02       		.byte	0x2
 5671 077c AA01     		.2byte	0x1aa
 5672 077e 2D010000 		.4byte	0x12d
 5673 0782 02       		.uleb128 0x2
 5674 0783 91       		.byte	0x91
 5675 0784 74       		.sleb128 -12
 5676 0785 00       		.byte	0
 5677 0786 1C       		.uleb128 0x1c
 5678 0787 3A010000 		.4byte	.LASF60
 5679 078b 02       		.byte	0x2
 5680 078c B401     		.2byte	0x1b4
 5681 078e 00000000 		.4byte	.LFB84
 5682 0792 98000000 		.4byte	.LFE84-.LFB84
 5683 0796 01       		.uleb128 0x1
 5684 0797 9C       		.byte	0x9c
 5685 0798 F8070000 		.4byte	0x7f8
 5686 079c 17       		.uleb128 0x17
 5687 079d 7800     		.ascii	"x\000"
 5688 079f 02       		.byte	0x2
 5689 07a0 B401     		.2byte	0x1b4
 5690 07a2 73000000 		.4byte	0x73
 5691 07a6 02       		.uleb128 0x2
 5692 07a7 91       		.byte	0x91
 5693 07a8 64       		.sleb128 -28
 5694 07a9 17       		.uleb128 0x17
 5695 07aa 7900     		.ascii	"y\000"
 5696 07ac 02       		.byte	0x2
 5697 07ad B401     		.2byte	0x1b4
 5698 07af 73000000 		.4byte	0x73
 5699 07b3 02       		.uleb128 0x2
 5700 07b4 91       		.byte	0x91
ARM GAS  C:\Users\Petro\AppData\Local\Temp\ccT7A2G2.s 			page 119


 5701 07b5 60       		.sleb128 -32
 5702 07b6 17       		.uleb128 0x17
 5703 07b7 6C00     		.ascii	"l\000"
 5704 07b9 02       		.byte	0x2
 5705 07ba B401     		.2byte	0x1b4
 5706 07bc 73000000 		.4byte	0x73
 5707 07c0 02       		.uleb128 0x2
 5708 07c1 91       		.byte	0x91
 5709 07c2 5C       		.sleb128 -36
 5710 07c3 19       		.uleb128 0x19
 5711 07c4 627900   		.ascii	"by\000"
 5712 07c7 02       		.byte	0x2
 5713 07c8 B601     		.2byte	0x1b6
 5714 07ca 73000000 		.4byte	0x73
 5715 07ce 02       		.uleb128 0x2
 5716 07cf 91       		.byte	0x91
 5717 07d0 70       		.sleb128 -16
 5718 07d1 19       		.uleb128 0x19
 5719 07d2 626900   		.ascii	"bi\000"
 5720 07d5 02       		.byte	0x2
 5721 07d6 B601     		.2byte	0x1b6
 5722 07d8 73000000 		.4byte	0x73
 5723 07dc 02       		.uleb128 0x2
 5724 07dd 91       		.byte	0x91
 5725 07de 6C       		.sleb128 -20
 5726 07df 12       		.uleb128 0x12
 5727 07e0 24000000 		.4byte	.LBB13
 5728 07e4 64000000 		.4byte	.LBE13-.LBB13
 5729 07e8 19       		.uleb128 0x19
 5730 07e9 637800   		.ascii	"cx\000"
 5731 07ec 02       		.byte	0x2
 5732 07ed BA01     		.2byte	0x1ba
 5733 07ef 73000000 		.4byte	0x73
 5734 07f3 02       		.uleb128 0x2
 5735 07f4 91       		.byte	0x91
 5736 07f5 74       		.sleb128 -12
 5737 07f6 00       		.byte	0
 5738 07f7 00       		.byte	0
 5739 07f8 1C       		.uleb128 0x1c
 5740 07f9 1D000000 		.4byte	.LASF61
 5741 07fd 02       		.byte	0x2
 5742 07fe C501     		.2byte	0x1c5
 5743 0800 00000000 		.4byte	.LFB85
 5744 0804 9C000000 		.4byte	.LFE85-.LFB85
 5745 0808 01       		.uleb128 0x1
 5746 0809 9C       		.byte	0x9c
 5747 080a 6A080000 		.4byte	0x86a
 5748 080e 17       		.uleb128 0x17
 5749 080f 7800     		.ascii	"x\000"
 5750 0811 02       		.byte	0x2
 5751 0812 C501     		.2byte	0x1c5
 5752 0814 73000000 		.4byte	0x73
 5753 0818 02       		.uleb128 0x2
 5754 0819 91       		.byte	0x91
 5755 081a 64       		.sleb128 -28
 5756 081b 17       		.uleb128 0x17
 5757 081c 7900     		.ascii	"y\000"
ARM GAS  C:\Users\Petro\AppData\Local\Temp\ccT7A2G2.s 			page 120


 5758 081e 02       		.byte	0x2
 5759 081f C501     		.2byte	0x1c5
 5760 0821 73000000 		.4byte	0x73
 5761 0825 02       		.uleb128 0x2
 5762 0826 91       		.byte	0x91
 5763 0827 60       		.sleb128 -32
 5764 0828 17       		.uleb128 0x17
 5765 0829 6C00     		.ascii	"l\000"
 5766 082b 02       		.byte	0x2
 5767 082c C501     		.2byte	0x1c5
 5768 082e 73000000 		.4byte	0x73
 5769 0832 02       		.uleb128 0x2
 5770 0833 91       		.byte	0x91
 5771 0834 5C       		.sleb128 -36
 5772 0835 19       		.uleb128 0x19
 5773 0836 627900   		.ascii	"by\000"
 5774 0839 02       		.byte	0x2
 5775 083a C701     		.2byte	0x1c7
 5776 083c 73000000 		.4byte	0x73
 5777 0840 02       		.uleb128 0x2
 5778 0841 91       		.byte	0x91
 5779 0842 70       		.sleb128 -16
 5780 0843 19       		.uleb128 0x19
 5781 0844 626900   		.ascii	"bi\000"
 5782 0847 02       		.byte	0x2
 5783 0848 C701     		.2byte	0x1c7
 5784 084a 73000000 		.4byte	0x73
 5785 084e 02       		.uleb128 0x2
 5786 084f 91       		.byte	0x91
 5787 0850 6C       		.sleb128 -20
 5788 0851 12       		.uleb128 0x12
 5789 0852 24000000 		.4byte	.LBB14
 5790 0856 68000000 		.4byte	.LBE14-.LBB14
 5791 085a 19       		.uleb128 0x19
 5792 085b 637800   		.ascii	"cx\000"
 5793 085e 02       		.byte	0x2
 5794 085f CB01     		.2byte	0x1cb
 5795 0861 73000000 		.4byte	0x73
 5796 0865 02       		.uleb128 0x2
 5797 0866 91       		.byte	0x91
 5798 0867 74       		.sleb128 -12
 5799 0868 00       		.byte	0
 5800 0869 00       		.byte	0
 5801 086a 16       		.uleb128 0x16
 5802 086b 77000000 		.4byte	.LASF62
 5803 086f 02       		.byte	0x2
 5804 0870 D601     		.2byte	0x1d6
 5805 0872 00000000 		.4byte	.LFB86
 5806 0876 56000000 		.4byte	.LFE86-.LFB86
 5807 087a 01       		.uleb128 0x1
 5808 087b 9C       		.byte	0x9c
 5809 087c D6080000 		.4byte	0x8d6
 5810 0880 17       		.uleb128 0x17
 5811 0881 7800     		.ascii	"x\000"
 5812 0883 02       		.byte	0x2
 5813 0884 D601     		.2byte	0x1d6
 5814 0886 73000000 		.4byte	0x73
ARM GAS  C:\Users\Petro\AppData\Local\Temp\ccT7A2G2.s 			page 121


 5815 088a 02       		.uleb128 0x2
 5816 088b 91       		.byte	0x91
 5817 088c 6C       		.sleb128 -20
 5818 088d 17       		.uleb128 0x17
 5819 088e 7900     		.ascii	"y\000"
 5820 0890 02       		.byte	0x2
 5821 0891 D601     		.2byte	0x1d6
 5822 0893 73000000 		.4byte	0x73
 5823 0897 02       		.uleb128 0x2
 5824 0898 91       		.byte	0x91
 5825 0899 68       		.sleb128 -24
 5826 089a 17       		.uleb128 0x17
 5827 089b 6C00     		.ascii	"l\000"
 5828 089d 02       		.byte	0x2
 5829 089e D601     		.2byte	0x1d6
 5830 08a0 73000000 		.4byte	0x73
 5831 08a4 02       		.uleb128 0x2
 5832 08a5 91       		.byte	0x91
 5833 08a6 64       		.sleb128 -28
 5834 08a7 1D       		.uleb128 0x1d
 5835 08a8 627900   		.ascii	"by\000"
 5836 08ab 02       		.byte	0x2
 5837 08ac D801     		.2byte	0x1d8
 5838 08ae 73000000 		.4byte	0x73
 5839 08b2 1D       		.uleb128 0x1d
 5840 08b3 626900   		.ascii	"bi\000"
 5841 08b6 02       		.byte	0x2
 5842 08b7 D801     		.2byte	0x1d8
 5843 08b9 73000000 		.4byte	0x73
 5844 08bd 12       		.uleb128 0x12
 5845 08be 24000000 		.4byte	.LBB15
 5846 08c2 2A000000 		.4byte	.LBE15-.LBB15
 5847 08c6 19       		.uleb128 0x19
 5848 08c7 637900   		.ascii	"cy\000"
 5849 08ca 02       		.byte	0x2
 5850 08cb DC01     		.2byte	0x1dc
 5851 08cd 73000000 		.4byte	0x73
 5852 08d1 02       		.uleb128 0x2
 5853 08d2 91       		.byte	0x91
 5854 08d3 74       		.sleb128 -12
 5855 08d4 00       		.byte	0
 5856 08d5 00       		.byte	0
 5857 08d6 16       		.uleb128 0x16
 5858 08d7 DE030000 		.4byte	.LASF63
 5859 08db 02       		.byte	0x2
 5860 08dc E401     		.2byte	0x1e4
 5861 08de 00000000 		.4byte	.LFB87
 5862 08e2 56000000 		.4byte	.LFE87-.LFB87
 5863 08e6 01       		.uleb128 0x1
 5864 08e7 9C       		.byte	0x9c
 5865 08e8 42090000 		.4byte	0x942
 5866 08ec 17       		.uleb128 0x17
 5867 08ed 7800     		.ascii	"x\000"
 5868 08ef 02       		.byte	0x2
 5869 08f0 E401     		.2byte	0x1e4
 5870 08f2 73000000 		.4byte	0x73
 5871 08f6 02       		.uleb128 0x2
ARM GAS  C:\Users\Petro\AppData\Local\Temp\ccT7A2G2.s 			page 122


 5872 08f7 91       		.byte	0x91
 5873 08f8 6C       		.sleb128 -20
 5874 08f9 17       		.uleb128 0x17
 5875 08fa 7900     		.ascii	"y\000"
 5876 08fc 02       		.byte	0x2
 5877 08fd E401     		.2byte	0x1e4
 5878 08ff 73000000 		.4byte	0x73
 5879 0903 02       		.uleb128 0x2
 5880 0904 91       		.byte	0x91
 5881 0905 68       		.sleb128 -24
 5882 0906 17       		.uleb128 0x17
 5883 0907 6C00     		.ascii	"l\000"
 5884 0909 02       		.byte	0x2
 5885 090a E401     		.2byte	0x1e4
 5886 090c 73000000 		.4byte	0x73
 5887 0910 02       		.uleb128 0x2
 5888 0911 91       		.byte	0x91
 5889 0912 64       		.sleb128 -28
 5890 0913 1D       		.uleb128 0x1d
 5891 0914 627900   		.ascii	"by\000"
 5892 0917 02       		.byte	0x2
 5893 0918 E601     		.2byte	0x1e6
 5894 091a 73000000 		.4byte	0x73
 5895 091e 1D       		.uleb128 0x1d
 5896 091f 626900   		.ascii	"bi\000"
 5897 0922 02       		.byte	0x2
 5898 0923 E601     		.2byte	0x1e6
 5899 0925 73000000 		.4byte	0x73
 5900 0929 12       		.uleb128 0x12
 5901 092a 24000000 		.4byte	.LBB16
 5902 092e 2A000000 		.4byte	.LBE16-.LBB16
 5903 0932 19       		.uleb128 0x19
 5904 0933 637900   		.ascii	"cy\000"
 5905 0936 02       		.byte	0x2
 5906 0937 EA01     		.2byte	0x1ea
 5907 0939 73000000 		.4byte	0x73
 5908 093d 02       		.uleb128 0x2
 5909 093e 91       		.byte	0x91
 5910 093f 74       		.sleb128 -12
 5911 0940 00       		.byte	0
 5912 0941 00       		.byte	0
 5913 0942 16       		.uleb128 0x16
 5914 0943 44010000 		.4byte	.LASF64
 5915 0947 02       		.byte	0x2
 5916 0948 F201     		.2byte	0x1f2
 5917 094a 00000000 		.4byte	.LFB88
 5918 094e B8020000 		.4byte	.LFE88-.LFB88
 5919 0952 01       		.uleb128 0x1
 5920 0953 9C       		.byte	0x9c
 5921 0954 610A0000 		.4byte	0xa61
 5922 0958 17       		.uleb128 0x17
 5923 0959 783100   		.ascii	"x1\000"
 5924 095c 02       		.byte	0x2
 5925 095d F201     		.2byte	0x1f2
 5926 095f 73000000 		.4byte	0x73
 5927 0963 03       		.uleb128 0x3
 5928 0964 91       		.byte	0x91
ARM GAS  C:\Users\Petro\AppData\Local\Temp\ccT7A2G2.s 			page 123


 5929 0965 BC7F     		.sleb128 -68
 5930 0967 17       		.uleb128 0x17
 5931 0968 793100   		.ascii	"y1\000"
 5932 096b 02       		.byte	0x2
 5933 096c F201     		.2byte	0x1f2
 5934 096e 73000000 		.4byte	0x73
 5935 0972 03       		.uleb128 0x3
 5936 0973 91       		.byte	0x91
 5937 0974 B87F     		.sleb128 -72
 5938 0976 17       		.uleb128 0x17
 5939 0977 783200   		.ascii	"x2\000"
 5940 097a 02       		.byte	0x2
 5941 097b F201     		.2byte	0x1f2
 5942 097d 73000000 		.4byte	0x73
 5943 0981 03       		.uleb128 0x3
 5944 0982 91       		.byte	0x91
 5945 0983 B47F     		.sleb128 -76
 5946 0985 17       		.uleb128 0x17
 5947 0986 793200   		.ascii	"y2\000"
 5948 0989 02       		.byte	0x2
 5949 098a F201     		.2byte	0x1f2
 5950 098c 73000000 		.4byte	0x73
 5951 0990 03       		.uleb128 0x3
 5952 0991 91       		.byte	0x91
 5953 0992 B07F     		.sleb128 -80
 5954 0994 19       		.uleb128 0x19
 5955 0995 746D7000 		.ascii	"tmp\000"
 5956 0999 02       		.byte	0x2
 5957 099a F401     		.2byte	0x1f4
 5958 099c 73000000 		.4byte	0x73
 5959 09a0 02       		.uleb128 0x2
 5960 09a1 91       		.byte	0x91
 5961 09a2 4C       		.sleb128 -52
 5962 09a3 1A       		.uleb128 0x1a
 5963 09a4 1F010000 		.4byte	.LASF65
 5964 09a8 02       		.byte	0x2
 5965 09a9 F501     		.2byte	0x1f5
 5966 09ab AA000000 		.4byte	0xaa
 5967 09af 02       		.uleb128 0x2
 5968 09b0 91       		.byte	0x91
 5969 09b1 40       		.sleb128 -64
 5970 09b2 19       		.uleb128 0x19
 5971 09b3 747800   		.ascii	"tx\000"
 5972 09b6 02       		.byte	0x2
 5973 09b7 F501     		.2byte	0x1f5
 5974 09b9 AA000000 		.4byte	0xaa
 5975 09bd 02       		.uleb128 0x2
 5976 09be 91       		.byte	0x91
 5977 09bf 68       		.sleb128 -24
 5978 09c0 19       		.uleb128 0x19
 5979 09c1 747900   		.ascii	"ty\000"
 5980 09c4 02       		.byte	0x2
 5981 09c5 F501     		.2byte	0x1f5
 5982 09c7 AA000000 		.4byte	0xaa
 5983 09cb 02       		.uleb128 0x2
 5984 09cc 91       		.byte	0x91
 5985 09cd 60       		.sleb128 -32
ARM GAS  C:\Users\Petro\AppData\Local\Temp\ccT7A2G2.s 			page 124


 5986 09ce 1D       		.uleb128 0x1d
 5987 09cf 6D00     		.ascii	"m\000"
 5988 09d1 02       		.byte	0x2
 5989 09d2 F601     		.2byte	0x1f6
 5990 09d4 AA000000 		.4byte	0xaa
 5991 09d8 1D       		.uleb128 0x1d
 5992 09d9 6200     		.ascii	"b\000"
 5993 09db 02       		.byte	0x2
 5994 09dc F601     		.2byte	0x1f6
 5995 09de AA000000 		.4byte	0xaa
 5996 09e2 1D       		.uleb128 0x1d
 5997 09e3 647800   		.ascii	"dx\000"
 5998 09e6 02       		.byte	0x2
 5999 09e7 F601     		.2byte	0x1f6
 6000 09e9 AA000000 		.4byte	0xaa
 6001 09ed 1D       		.uleb128 0x1d
 6002 09ee 647900   		.ascii	"dy\000"
 6003 09f1 02       		.byte	0x2
 6004 09f2 F601     		.2byte	0x1f6
 6005 09f4 AA000000 		.4byte	0xaa
 6006 09f8 1B       		.uleb128 0x1b
 6007 09f9 0E010000 		.4byte	.LBB17
 6008 09fd 50000000 		.4byte	.LBE17-.LBB17
 6009 0a01 130A0000 		.4byte	0xa13
 6010 0a05 19       		.uleb128 0x19
 6011 0a06 6900     		.ascii	"i\000"
 6012 0a08 02       		.byte	0x2
 6013 0a09 2502     		.2byte	0x225
 6014 0a0b 73000000 		.4byte	0x73
 6015 0a0f 02       		.uleb128 0x2
 6016 0a10 91       		.byte	0x91
 6017 0a11 5C       		.sleb128 -36
 6018 0a12 00       		.byte	0
 6019 0a13 1B       		.uleb128 0x1b
 6020 0a14 60010000 		.4byte	.LBB18
 6021 0a18 50000000 		.4byte	.LBE18-.LBB18
 6022 0a1c 2E0A0000 		.4byte	0xa2e
 6023 0a20 19       		.uleb128 0x19
 6024 0a21 6900     		.ascii	"i\000"
 6025 0a23 02       		.byte	0x2
 6026 0a24 2E02     		.2byte	0x22e
 6027 0a26 73000000 		.4byte	0x73
 6028 0a2a 02       		.uleb128 0x2
 6029 0a2b 91       		.byte	0x91
 6030 0a2c 58       		.sleb128 -40
 6031 0a2d 00       		.byte	0
 6032 0a2e 1B       		.uleb128 0x1b
 6033 0a2f 04020000 		.4byte	.LBB19
 6034 0a33 52000000 		.4byte	.LBE19-.LBB19
 6035 0a37 490A0000 		.4byte	0xa49
 6036 0a3b 19       		.uleb128 0x19
 6037 0a3c 6900     		.ascii	"i\000"
 6038 0a3e 02       		.byte	0x2
 6039 0a3f 3C02     		.2byte	0x23c
 6040 0a41 73000000 		.4byte	0x73
 6041 0a45 02       		.uleb128 0x2
 6042 0a46 91       		.byte	0x91
ARM GAS  C:\Users\Petro\AppData\Local\Temp\ccT7A2G2.s 			page 125


 6043 0a47 54       		.sleb128 -44
 6044 0a48 00       		.byte	0
 6045 0a49 12       		.uleb128 0x12
 6046 0a4a 58020000 		.4byte	.LBB20
 6047 0a4e 52000000 		.4byte	.LBE20-.LBB20
 6048 0a52 19       		.uleb128 0x19
 6049 0a53 6900     		.ascii	"i\000"
 6050 0a55 02       		.byte	0x2
 6051 0a56 4502     		.2byte	0x245
 6052 0a58 73000000 		.4byte	0x73
 6053 0a5c 02       		.uleb128 0x2
 6054 0a5d 91       		.byte	0x91
 6055 0a5e 50       		.sleb128 -48
 6056 0a5f 00       		.byte	0
 6057 0a60 00       		.byte	0
 6058 0a61 16       		.uleb128 0x16
 6059 0a62 4D010000 		.4byte	.LASF66
 6060 0a66 02       		.byte	0x2
 6061 0a67 5002     		.2byte	0x250
 6062 0a69 00000000 		.4byte	.LFB89
 6063 0a6d B8020000 		.4byte	.LFE89-.LFB89
 6064 0a71 01       		.uleb128 0x1
 6065 0a72 9C       		.byte	0x9c
 6066 0a73 800B0000 		.4byte	0xb80
 6067 0a77 17       		.uleb128 0x17
 6068 0a78 783100   		.ascii	"x1\000"
 6069 0a7b 02       		.byte	0x2
 6070 0a7c 5002     		.2byte	0x250
 6071 0a7e 73000000 		.4byte	0x73
 6072 0a82 03       		.uleb128 0x3
 6073 0a83 91       		.byte	0x91
 6074 0a84 BC7F     		.sleb128 -68
 6075 0a86 17       		.uleb128 0x17
 6076 0a87 793100   		.ascii	"y1\000"
 6077 0a8a 02       		.byte	0x2
 6078 0a8b 5002     		.2byte	0x250
 6079 0a8d 73000000 		.4byte	0x73
 6080 0a91 03       		.uleb128 0x3
 6081 0a92 91       		.byte	0x91
 6082 0a93 B87F     		.sleb128 -72
 6083 0a95 17       		.uleb128 0x17
 6084 0a96 783200   		.ascii	"x2\000"
 6085 0a99 02       		.byte	0x2
 6086 0a9a 5002     		.2byte	0x250
 6087 0a9c 73000000 		.4byte	0x73
 6088 0aa0 03       		.uleb128 0x3
 6089 0aa1 91       		.byte	0x91
 6090 0aa2 B47F     		.sleb128 -76
 6091 0aa4 17       		.uleb128 0x17
 6092 0aa5 793200   		.ascii	"y2\000"
 6093 0aa8 02       		.byte	0x2
 6094 0aa9 5002     		.2byte	0x250
 6095 0aab 73000000 		.4byte	0x73
 6096 0aaf 03       		.uleb128 0x3
 6097 0ab0 91       		.byte	0x91
 6098 0ab1 B07F     		.sleb128 -80
 6099 0ab3 19       		.uleb128 0x19
ARM GAS  C:\Users\Petro\AppData\Local\Temp\ccT7A2G2.s 			page 126


 6100 0ab4 746D7000 		.ascii	"tmp\000"
 6101 0ab8 02       		.byte	0x2
 6102 0ab9 5202     		.2byte	0x252
 6103 0abb 73000000 		.4byte	0x73
 6104 0abf 02       		.uleb128 0x2
 6105 0ac0 91       		.byte	0x91
 6106 0ac1 4C       		.sleb128 -52
 6107 0ac2 1A       		.uleb128 0x1a
 6108 0ac3 1F010000 		.4byte	.LASF65
 6109 0ac7 02       		.byte	0x2
 6110 0ac8 5302     		.2byte	0x253
 6111 0aca AA000000 		.4byte	0xaa
 6112 0ace 02       		.uleb128 0x2
 6113 0acf 91       		.byte	0x91
 6114 0ad0 40       		.sleb128 -64
 6115 0ad1 19       		.uleb128 0x19
 6116 0ad2 747800   		.ascii	"tx\000"
 6117 0ad5 02       		.byte	0x2
 6118 0ad6 5302     		.2byte	0x253
 6119 0ad8 AA000000 		.4byte	0xaa
 6120 0adc 02       		.uleb128 0x2
 6121 0add 91       		.byte	0x91
 6122 0ade 68       		.sleb128 -24
 6123 0adf 19       		.uleb128 0x19
 6124 0ae0 747900   		.ascii	"ty\000"
 6125 0ae3 02       		.byte	0x2
 6126 0ae4 5302     		.2byte	0x253
 6127 0ae6 AA000000 		.4byte	0xaa
 6128 0aea 02       		.uleb128 0x2
 6129 0aeb 91       		.byte	0x91
 6130 0aec 60       		.sleb128 -32
 6131 0aed 1D       		.uleb128 0x1d
 6132 0aee 6D00     		.ascii	"m\000"
 6133 0af0 02       		.byte	0x2
 6134 0af1 5402     		.2byte	0x254
 6135 0af3 AA000000 		.4byte	0xaa
 6136 0af7 1D       		.uleb128 0x1d
 6137 0af8 6200     		.ascii	"b\000"
 6138 0afa 02       		.byte	0x2
 6139 0afb 5402     		.2byte	0x254
 6140 0afd AA000000 		.4byte	0xaa
 6141 0b01 1D       		.uleb128 0x1d
 6142 0b02 647800   		.ascii	"dx\000"
 6143 0b05 02       		.byte	0x2
 6144 0b06 5402     		.2byte	0x254
 6145 0b08 AA000000 		.4byte	0xaa
 6146 0b0c 1D       		.uleb128 0x1d
 6147 0b0d 647900   		.ascii	"dy\000"
 6148 0b10 02       		.byte	0x2
 6149 0b11 5402     		.2byte	0x254
 6150 0b13 AA000000 		.4byte	0xaa
 6151 0b17 1B       		.uleb128 0x1b
 6152 0b18 0E010000 		.4byte	.LBB21
 6153 0b1c 50000000 		.4byte	.LBE21-.LBB21
 6154 0b20 320B0000 		.4byte	0xb32
 6155 0b24 19       		.uleb128 0x19
 6156 0b25 6900     		.ascii	"i\000"
ARM GAS  C:\Users\Petro\AppData\Local\Temp\ccT7A2G2.s 			page 127


 6157 0b27 02       		.byte	0x2
 6158 0b28 8302     		.2byte	0x283
 6159 0b2a 73000000 		.4byte	0x73
 6160 0b2e 02       		.uleb128 0x2
 6161 0b2f 91       		.byte	0x91
 6162 0b30 5C       		.sleb128 -36
 6163 0b31 00       		.byte	0
 6164 0b32 1B       		.uleb128 0x1b
 6165 0b33 60010000 		.4byte	.LBB22
 6166 0b37 50000000 		.4byte	.LBE22-.LBB22
 6167 0b3b 4D0B0000 		.4byte	0xb4d
 6168 0b3f 19       		.uleb128 0x19
 6169 0b40 6900     		.ascii	"i\000"
 6170 0b42 02       		.byte	0x2
 6171 0b43 8C02     		.2byte	0x28c
 6172 0b45 73000000 		.4byte	0x73
 6173 0b49 02       		.uleb128 0x2
 6174 0b4a 91       		.byte	0x91
 6175 0b4b 58       		.sleb128 -40
 6176 0b4c 00       		.byte	0
 6177 0b4d 1B       		.uleb128 0x1b
 6178 0b4e 04020000 		.4byte	.LBB23
 6179 0b52 52000000 		.4byte	.LBE23-.LBB23
 6180 0b56 680B0000 		.4byte	0xb68
 6181 0b5a 19       		.uleb128 0x19
 6182 0b5b 6900     		.ascii	"i\000"
 6183 0b5d 02       		.byte	0x2
 6184 0b5e 9A02     		.2byte	0x29a
 6185 0b60 73000000 		.4byte	0x73
 6186 0b64 02       		.uleb128 0x2
 6187 0b65 91       		.byte	0x91
 6188 0b66 54       		.sleb128 -44
 6189 0b67 00       		.byte	0
 6190 0b68 12       		.uleb128 0x12
 6191 0b69 58020000 		.4byte	.LBB24
 6192 0b6d 52000000 		.4byte	.LBE24-.LBB24
 6193 0b71 19       		.uleb128 0x19
 6194 0b72 6900     		.ascii	"i\000"
 6195 0b74 02       		.byte	0x2
 6196 0b75 A302     		.2byte	0x2a3
 6197 0b77 73000000 		.4byte	0x73
 6198 0b7b 02       		.uleb128 0x2
 6199 0b7c 91       		.byte	0x91
 6200 0b7d 50       		.sleb128 -48
 6201 0b7e 00       		.byte	0
 6202 0b7f 00       		.byte	0
 6203 0b80 16       		.uleb128 0x16
 6204 0b81 2D020000 		.4byte	.LASF67
 6205 0b85 02       		.byte	0x2
 6206 0b86 AE02     		.2byte	0x2ae
 6207 0b88 00000000 		.4byte	.LFB90
 6208 0b8c 80000000 		.4byte	.LFE90-.LFB90
 6209 0b90 01       		.uleb128 0x1
 6210 0b91 9C       		.byte	0x9c
 6211 0b92 DE0B0000 		.4byte	0xbde
 6212 0b96 17       		.uleb128 0x17
 6213 0b97 783100   		.ascii	"x1\000"
ARM GAS  C:\Users\Petro\AppData\Local\Temp\ccT7A2G2.s 			page 128


 6214 0b9a 02       		.byte	0x2
 6215 0b9b AE02     		.2byte	0x2ae
 6216 0b9d 73000000 		.4byte	0x73
 6217 0ba1 02       		.uleb128 0x2
 6218 0ba2 91       		.byte	0x91
 6219 0ba3 6C       		.sleb128 -20
 6220 0ba4 17       		.uleb128 0x17
 6221 0ba5 793100   		.ascii	"y1\000"
 6222 0ba8 02       		.byte	0x2
 6223 0ba9 AE02     		.2byte	0x2ae
 6224 0bab 73000000 		.4byte	0x73
 6225 0baf 02       		.uleb128 0x2
 6226 0bb0 91       		.byte	0x91
 6227 0bb1 68       		.sleb128 -24
 6228 0bb2 17       		.uleb128 0x17
 6229 0bb3 783200   		.ascii	"x2\000"
 6230 0bb6 02       		.byte	0x2
 6231 0bb7 AE02     		.2byte	0x2ae
 6232 0bb9 73000000 		.4byte	0x73
 6233 0bbd 02       		.uleb128 0x2
 6234 0bbe 91       		.byte	0x91
 6235 0bbf 64       		.sleb128 -28
 6236 0bc0 17       		.uleb128 0x17
 6237 0bc1 793200   		.ascii	"y2\000"
 6238 0bc4 02       		.byte	0x2
 6239 0bc5 AE02     		.2byte	0x2ae
 6240 0bc7 73000000 		.4byte	0x73
 6241 0bcb 02       		.uleb128 0x2
 6242 0bcc 91       		.byte	0x91
 6243 0bcd 60       		.sleb128 -32
 6244 0bce 19       		.uleb128 0x19
 6245 0bcf 746D7000 		.ascii	"tmp\000"
 6246 0bd3 02       		.byte	0x2
 6247 0bd4 B002     		.2byte	0x2b0
 6248 0bd6 73000000 		.4byte	0x73
 6249 0bda 02       		.uleb128 0x2
 6250 0bdb 91       		.byte	0x91
 6251 0bdc 74       		.sleb128 -12
 6252 0bdd 00       		.byte	0
 6253 0bde 16       		.uleb128 0x16
 6254 0bdf 36020000 		.4byte	.LASF68
 6255 0be3 02       		.byte	0x2
 6256 0be4 C502     		.2byte	0x2c5
 6257 0be6 00000000 		.4byte	.LFB91
 6258 0bea 80000000 		.4byte	.LFE91-.LFB91
 6259 0bee 01       		.uleb128 0x1
 6260 0bef 9C       		.byte	0x9c
 6261 0bf0 3C0C0000 		.4byte	0xc3c
 6262 0bf4 17       		.uleb128 0x17
 6263 0bf5 783100   		.ascii	"x1\000"
 6264 0bf8 02       		.byte	0x2
 6265 0bf9 C502     		.2byte	0x2c5
 6266 0bfb 73000000 		.4byte	0x73
 6267 0bff 02       		.uleb128 0x2
 6268 0c00 91       		.byte	0x91
 6269 0c01 6C       		.sleb128 -20
 6270 0c02 17       		.uleb128 0x17
ARM GAS  C:\Users\Petro\AppData\Local\Temp\ccT7A2G2.s 			page 129


 6271 0c03 793100   		.ascii	"y1\000"
 6272 0c06 02       		.byte	0x2
 6273 0c07 C502     		.2byte	0x2c5
 6274 0c09 73000000 		.4byte	0x73
 6275 0c0d 02       		.uleb128 0x2
 6276 0c0e 91       		.byte	0x91
 6277 0c0f 68       		.sleb128 -24
 6278 0c10 17       		.uleb128 0x17
 6279 0c11 783200   		.ascii	"x2\000"
 6280 0c14 02       		.byte	0x2
 6281 0c15 C502     		.2byte	0x2c5
 6282 0c17 73000000 		.4byte	0x73
 6283 0c1b 02       		.uleb128 0x2
 6284 0c1c 91       		.byte	0x91
 6285 0c1d 64       		.sleb128 -28
 6286 0c1e 17       		.uleb128 0x17
 6287 0c1f 793200   		.ascii	"y2\000"
 6288 0c22 02       		.byte	0x2
 6289 0c23 C502     		.2byte	0x2c5
 6290 0c25 73000000 		.4byte	0x73
 6291 0c29 02       		.uleb128 0x2
 6292 0c2a 91       		.byte	0x91
 6293 0c2b 60       		.sleb128 -32
 6294 0c2c 19       		.uleb128 0x19
 6295 0c2d 746D7000 		.ascii	"tmp\000"
 6296 0c31 02       		.byte	0x2
 6297 0c32 C702     		.2byte	0x2c7
 6298 0c34 73000000 		.4byte	0x73
 6299 0c38 02       		.uleb128 0x2
 6300 0c39 91       		.byte	0x91
 6301 0c3a 74       		.sleb128 -12
 6302 0c3b 00       		.byte	0
 6303 0c3c 16       		.uleb128 0x16
 6304 0c3d 51020000 		.4byte	.LASF69
 6305 0c41 02       		.byte	0x2
 6306 0c42 DC02     		.2byte	0x2dc
 6307 0c44 00000000 		.4byte	.LFB92
 6308 0c48 02010000 		.4byte	.LFE92-.LFB92
 6309 0c4c 01       		.uleb128 0x1
 6310 0c4d 9C       		.byte	0x9c
 6311 0c4e 9A0C0000 		.4byte	0xc9a
 6312 0c52 17       		.uleb128 0x17
 6313 0c53 783100   		.ascii	"x1\000"
 6314 0c56 02       		.byte	0x2
 6315 0c57 DC02     		.2byte	0x2dc
 6316 0c59 73000000 		.4byte	0x73
 6317 0c5d 02       		.uleb128 0x2
 6318 0c5e 91       		.byte	0x91
 6319 0c5f 6C       		.sleb128 -20
 6320 0c60 17       		.uleb128 0x17
 6321 0c61 793100   		.ascii	"y1\000"
 6322 0c64 02       		.byte	0x2
 6323 0c65 DC02     		.2byte	0x2dc
 6324 0c67 73000000 		.4byte	0x73
 6325 0c6b 02       		.uleb128 0x2
 6326 0c6c 91       		.byte	0x91
 6327 0c6d 68       		.sleb128 -24
ARM GAS  C:\Users\Petro\AppData\Local\Temp\ccT7A2G2.s 			page 130


 6328 0c6e 17       		.uleb128 0x17
 6329 0c6f 783200   		.ascii	"x2\000"
 6330 0c72 02       		.byte	0x2
 6331 0c73 DC02     		.2byte	0x2dc
 6332 0c75 73000000 		.4byte	0x73
 6333 0c79 02       		.uleb128 0x2
 6334 0c7a 91       		.byte	0x91
 6335 0c7b 64       		.sleb128 -28
 6336 0c7c 17       		.uleb128 0x17
 6337 0c7d 793200   		.ascii	"y2\000"
 6338 0c80 02       		.byte	0x2
 6339 0c81 DC02     		.2byte	0x2dc
 6340 0c83 73000000 		.4byte	0x73
 6341 0c87 02       		.uleb128 0x2
 6342 0c88 91       		.byte	0x91
 6343 0c89 60       		.sleb128 -32
 6344 0c8a 19       		.uleb128 0x19
 6345 0c8b 746D7000 		.ascii	"tmp\000"
 6346 0c8f 02       		.byte	0x2
 6347 0c90 DE02     		.2byte	0x2de
 6348 0c92 73000000 		.4byte	0x73
 6349 0c96 02       		.uleb128 0x2
 6350 0c97 91       		.byte	0x91
 6351 0c98 74       		.sleb128 -12
 6352 0c99 00       		.byte	0
 6353 0c9a 16       		.uleb128 0x16
 6354 0c9b B8010000 		.4byte	.LASF70
 6355 0c9f 02       		.byte	0x2
 6356 0ca0 F902     		.2byte	0x2f9
 6357 0ca2 00000000 		.4byte	.LFB93
 6358 0ca6 02010000 		.4byte	.LFE93-.LFB93
 6359 0caa 01       		.uleb128 0x1
 6360 0cab 9C       		.byte	0x9c
 6361 0cac F80C0000 		.4byte	0xcf8
 6362 0cb0 17       		.uleb128 0x17
 6363 0cb1 783100   		.ascii	"x1\000"
 6364 0cb4 02       		.byte	0x2
 6365 0cb5 F902     		.2byte	0x2f9
 6366 0cb7 73000000 		.4byte	0x73
 6367 0cbb 02       		.uleb128 0x2
 6368 0cbc 91       		.byte	0x91
 6369 0cbd 6C       		.sleb128 -20
 6370 0cbe 17       		.uleb128 0x17
 6371 0cbf 793100   		.ascii	"y1\000"
 6372 0cc2 02       		.byte	0x2
 6373 0cc3 F902     		.2byte	0x2f9
 6374 0cc5 73000000 		.4byte	0x73
 6375 0cc9 02       		.uleb128 0x2
 6376 0cca 91       		.byte	0x91
 6377 0ccb 68       		.sleb128 -24
 6378 0ccc 17       		.uleb128 0x17
 6379 0ccd 783200   		.ascii	"x2\000"
 6380 0cd0 02       		.byte	0x2
 6381 0cd1 F902     		.2byte	0x2f9
 6382 0cd3 73000000 		.4byte	0x73
 6383 0cd7 02       		.uleb128 0x2
 6384 0cd8 91       		.byte	0x91
ARM GAS  C:\Users\Petro\AppData\Local\Temp\ccT7A2G2.s 			page 131


 6385 0cd9 64       		.sleb128 -28
 6386 0cda 17       		.uleb128 0x17
 6387 0cdb 793200   		.ascii	"y2\000"
 6388 0cde 02       		.byte	0x2
 6389 0cdf F902     		.2byte	0x2f9
 6390 0ce1 73000000 		.4byte	0x73
 6391 0ce5 02       		.uleb128 0x2
 6392 0ce6 91       		.byte	0x91
 6393 0ce7 60       		.sleb128 -32
 6394 0ce8 19       		.uleb128 0x19
 6395 0ce9 746D7000 		.ascii	"tmp\000"
 6396 0ced 02       		.byte	0x2
 6397 0cee FB02     		.2byte	0x2fb
 6398 0cf0 73000000 		.4byte	0x73
 6399 0cf4 02       		.uleb128 0x2
 6400 0cf5 91       		.byte	0x91
 6401 0cf6 74       		.sleb128 -12
 6402 0cf7 00       		.byte	0
 6403 0cf8 16       		.uleb128 0x16
 6404 0cf9 12000000 		.4byte	.LASF71
 6405 0cfd 02       		.byte	0x2
 6406 0cfe 1603     		.2byte	0x316
 6407 0d00 00000000 		.4byte	.LFB94
 6408 0d04 BA010000 		.4byte	.LFE94-.LFB94
 6409 0d08 01       		.uleb128 0x1
 6410 0d09 9C       		.byte	0x9c
 6411 0d0a 950D0000 		.4byte	0xd95
 6412 0d0e 17       		.uleb128 0x17
 6413 0d0f 7800     		.ascii	"x\000"
 6414 0d11 02       		.byte	0x2
 6415 0d12 1603     		.2byte	0x316
 6416 0d14 73000000 		.4byte	0x73
 6417 0d18 02       		.uleb128 0x2
 6418 0d19 91       		.byte	0x91
 6419 0d1a 5C       		.sleb128 -36
 6420 0d1b 17       		.uleb128 0x17
 6421 0d1c 7900     		.ascii	"y\000"
 6422 0d1e 02       		.byte	0x2
 6423 0d1f 1603     		.2byte	0x316
 6424 0d21 73000000 		.4byte	0x73
 6425 0d25 02       		.uleb128 0x2
 6426 0d26 91       		.byte	0x91
 6427 0d27 58       		.sleb128 -40
 6428 0d28 18       		.uleb128 0x18
 6429 0d29 73020000 		.4byte	.LASF72
 6430 0d2d 02       		.byte	0x2
 6431 0d2e 1603     		.2byte	0x316
 6432 0d30 73000000 		.4byte	0x73
 6433 0d34 02       		.uleb128 0x2
 6434 0d35 91       		.byte	0x91
 6435 0d36 54       		.sleb128 -44
 6436 0d37 19       		.uleb128 0x19
 6437 0d38 6600     		.ascii	"f\000"
 6438 0d3a 02       		.byte	0x2
 6439 0d3b 1803     		.2byte	0x318
 6440 0d3d 73000000 		.4byte	0x73
 6441 0d41 02       		.uleb128 0x2
ARM GAS  C:\Users\Petro\AppData\Local\Temp\ccT7A2G2.s 			page 132


 6442 0d42 91       		.byte	0x91
 6443 0d43 74       		.sleb128 -12
 6444 0d44 1A       		.uleb128 0x1a
 6445 0d45 57030000 		.4byte	.LASF73
 6446 0d49 02       		.byte	0x2
 6447 0d4a 1903     		.2byte	0x319
 6448 0d4c 73000000 		.4byte	0x73
 6449 0d50 02       		.uleb128 0x2
 6450 0d51 91       		.byte	0x91
 6451 0d52 70       		.sleb128 -16
 6452 0d53 1A       		.uleb128 0x1a
 6453 0d54 5D030000 		.4byte	.LASF74
 6454 0d58 02       		.byte	0x2
 6455 0d59 1A03     		.2byte	0x31a
 6456 0d5b 73000000 		.4byte	0x73
 6457 0d5f 02       		.uleb128 0x2
 6458 0d60 91       		.byte	0x91
 6459 0d61 6C       		.sleb128 -20
 6460 0d62 19       		.uleb128 0x19
 6461 0d63 783100   		.ascii	"x1\000"
 6462 0d66 02       		.byte	0x2
 6463 0d67 1B03     		.2byte	0x31b
 6464 0d69 73000000 		.4byte	0x73
 6465 0d6d 02       		.uleb128 0x2
 6466 0d6e 91       		.byte	0x91
 6467 0d6f 68       		.sleb128 -24
 6468 0d70 19       		.uleb128 0x19
 6469 0d71 793100   		.ascii	"y1\000"
 6470 0d74 02       		.byte	0x2
 6471 0d75 1C03     		.2byte	0x31c
 6472 0d77 73000000 		.4byte	0x73
 6473 0d7b 02       		.uleb128 0x2
 6474 0d7c 91       		.byte	0x91
 6475 0d7d 64       		.sleb128 -28
 6476 0d7e 1D       		.uleb128 0x1d
 6477 0d7f 636800   		.ascii	"ch\000"
 6478 0d82 02       		.byte	0x2
 6479 0d83 1D03     		.2byte	0x31d
 6480 0d85 B1000000 		.4byte	0xb1
 6481 0d89 1D       		.uleb128 0x1d
 6482 0d8a 636C00   		.ascii	"cl\000"
 6483 0d8d 02       		.byte	0x2
 6484 0d8e 1D03     		.2byte	0x31d
 6485 0d90 B1000000 		.4byte	0xb1
 6486 0d94 00       		.byte	0
 6487 0d95 16       		.uleb128 0x16
 6488 0d96 89010000 		.4byte	.LASF75
 6489 0d9a 02       		.byte	0x2
 6490 0d9b 3A03     		.2byte	0x33a
 6491 0d9d 00000000 		.4byte	.LFB95
 6492 0da1 BA010000 		.4byte	.LFE95-.LFB95
 6493 0da5 01       		.uleb128 0x1
 6494 0da6 9C       		.byte	0x9c
 6495 0da7 320E0000 		.4byte	0xe32
 6496 0dab 17       		.uleb128 0x17
 6497 0dac 7800     		.ascii	"x\000"
 6498 0dae 02       		.byte	0x2
ARM GAS  C:\Users\Petro\AppData\Local\Temp\ccT7A2G2.s 			page 133


 6499 0daf 3A03     		.2byte	0x33a
 6500 0db1 73000000 		.4byte	0x73
 6501 0db5 02       		.uleb128 0x2
 6502 0db6 91       		.byte	0x91
 6503 0db7 5C       		.sleb128 -36
 6504 0db8 17       		.uleb128 0x17
 6505 0db9 7900     		.ascii	"y\000"
 6506 0dbb 02       		.byte	0x2
 6507 0dbc 3A03     		.2byte	0x33a
 6508 0dbe 73000000 		.4byte	0x73
 6509 0dc2 02       		.uleb128 0x2
 6510 0dc3 91       		.byte	0x91
 6511 0dc4 58       		.sleb128 -40
 6512 0dc5 18       		.uleb128 0x18
 6513 0dc6 73020000 		.4byte	.LASF72
 6514 0dca 02       		.byte	0x2
 6515 0dcb 3A03     		.2byte	0x33a
 6516 0dcd 73000000 		.4byte	0x73
 6517 0dd1 02       		.uleb128 0x2
 6518 0dd2 91       		.byte	0x91
 6519 0dd3 54       		.sleb128 -44
 6520 0dd4 19       		.uleb128 0x19
 6521 0dd5 6600     		.ascii	"f\000"
 6522 0dd7 02       		.byte	0x2
 6523 0dd8 3C03     		.2byte	0x33c
 6524 0dda 73000000 		.4byte	0x73
 6525 0dde 02       		.uleb128 0x2
 6526 0ddf 91       		.byte	0x91
 6527 0de0 74       		.sleb128 -12
 6528 0de1 1A       		.uleb128 0x1a
 6529 0de2 57030000 		.4byte	.LASF73
 6530 0de6 02       		.byte	0x2
 6531 0de7 3D03     		.2byte	0x33d
 6532 0de9 73000000 		.4byte	0x73
 6533 0ded 02       		.uleb128 0x2
 6534 0dee 91       		.byte	0x91
 6535 0def 70       		.sleb128 -16
 6536 0df0 1A       		.uleb128 0x1a
 6537 0df1 5D030000 		.4byte	.LASF74
 6538 0df5 02       		.byte	0x2
 6539 0df6 3E03     		.2byte	0x33e
 6540 0df8 73000000 		.4byte	0x73
 6541 0dfc 02       		.uleb128 0x2
 6542 0dfd 91       		.byte	0x91
 6543 0dfe 6C       		.sleb128 -20
 6544 0dff 19       		.uleb128 0x19
 6545 0e00 783100   		.ascii	"x1\000"
 6546 0e03 02       		.byte	0x2
 6547 0e04 3F03     		.2byte	0x33f
 6548 0e06 73000000 		.4byte	0x73
 6549 0e0a 02       		.uleb128 0x2
 6550 0e0b 91       		.byte	0x91
 6551 0e0c 68       		.sleb128 -24
 6552 0e0d 19       		.uleb128 0x19
 6553 0e0e 793100   		.ascii	"y1\000"
 6554 0e11 02       		.byte	0x2
 6555 0e12 4003     		.2byte	0x340
ARM GAS  C:\Users\Petro\AppData\Local\Temp\ccT7A2G2.s 			page 134


 6556 0e14 73000000 		.4byte	0x73
 6557 0e18 02       		.uleb128 0x2
 6558 0e19 91       		.byte	0x91
 6559 0e1a 64       		.sleb128 -28
 6560 0e1b 1D       		.uleb128 0x1d
 6561 0e1c 636800   		.ascii	"ch\000"
 6562 0e1f 02       		.byte	0x2
 6563 0e20 4103     		.2byte	0x341
 6564 0e22 B1000000 		.4byte	0xb1
 6565 0e26 1D       		.uleb128 0x1d
 6566 0e27 636C00   		.ascii	"cl\000"
 6567 0e2a 02       		.byte	0x2
 6568 0e2b 4103     		.2byte	0x341
 6569 0e2d B1000000 		.4byte	0xb1
 6570 0e31 00       		.byte	0
 6571 0e32 16       		.uleb128 0x16
 6572 0e33 A8020000 		.4byte	.LASF76
 6573 0e37 02       		.byte	0x2
 6574 0e38 5E03     		.2byte	0x35e
 6575 0e3a 00000000 		.4byte	.LFB96
 6576 0e3e CC000000 		.4byte	.LFE96-.LFB96
 6577 0e42 01       		.uleb128 0x1
 6578 0e43 9C       		.byte	0x9c
 6579 0e44 D20E0000 		.4byte	0xed2
 6580 0e48 17       		.uleb128 0x17
 6581 0e49 7800     		.ascii	"x\000"
 6582 0e4b 02       		.byte	0x2
 6583 0e4c 5E03     		.2byte	0x35e
 6584 0e4e 73000000 		.4byte	0x73
 6585 0e52 02       		.uleb128 0x2
 6586 0e53 91       		.byte	0x91
 6587 0e54 64       		.sleb128 -28
 6588 0e55 17       		.uleb128 0x17
 6589 0e56 7900     		.ascii	"y\000"
 6590 0e58 02       		.byte	0x2
 6591 0e59 5E03     		.2byte	0x35e
 6592 0e5b 73000000 		.4byte	0x73
 6593 0e5f 02       		.uleb128 0x2
 6594 0e60 91       		.byte	0x91
 6595 0e61 60       		.sleb128 -32
 6596 0e62 18       		.uleb128 0x18
 6597 0e63 33010000 		.4byte	.LASF77
 6598 0e67 02       		.byte	0x2
 6599 0e68 5E03     		.2byte	0x35e
 6600 0e6a 2D010000 		.4byte	0x12d
 6601 0e6e 02       		.uleb128 0x2
 6602 0e6f 91       		.byte	0x91
 6603 0e70 5C       		.sleb128 -36
 6604 0e71 17       		.uleb128 0x17
 6605 0e72 737800   		.ascii	"sx\000"
 6606 0e75 02       		.byte	0x2
 6607 0e76 5E03     		.2byte	0x35e
 6608 0e78 73000000 		.4byte	0x73
 6609 0e7c 02       		.uleb128 0x2
 6610 0e7d 91       		.byte	0x91
 6611 0e7e 58       		.sleb128 -40
 6612 0e7f 17       		.uleb128 0x17
ARM GAS  C:\Users\Petro\AppData\Local\Temp\ccT7A2G2.s 			page 135


 6613 0e80 737900   		.ascii	"sy\000"
 6614 0e83 02       		.byte	0x2
 6615 0e84 5E03     		.2byte	0x35e
 6616 0e86 73000000 		.4byte	0x73
 6617 0e8a 02       		.uleb128 0x2
 6618 0e8b 91       		.byte	0x91
 6619 0e8c 00       		.sleb128 0
 6620 0e8d 19       		.uleb128 0x19
 6621 0e8e 62697400 		.ascii	"bit\000"
 6622 0e92 02       		.byte	0x2
 6623 0e93 6003     		.2byte	0x360
 6624 0e95 73000000 		.4byte	0x73
 6625 0e99 02       		.uleb128 0x2
 6626 0e9a 91       		.byte	0x91
 6627 0e9b 6C       		.sleb128 -20
 6628 0e9c 1A       		.uleb128 0x1a
 6629 0e9d 4B030000 		.4byte	.LASF30
 6630 0ea1 02       		.byte	0x2
 6631 0ea2 6103     		.2byte	0x361
 6632 0ea4 81000000 		.4byte	0x81
 6633 0ea8 02       		.uleb128 0x2
 6634 0ea9 91       		.byte	0x91
 6635 0eaa 6B       		.sleb128 -21
 6636 0eab 19       		.uleb128 0x19
 6637 0eac 637900   		.ascii	"cy\000"
 6638 0eaf 02       		.byte	0x2
 6639 0eb0 6303     		.2byte	0x363
 6640 0eb2 73000000 		.4byte	0x73
 6641 0eb6 02       		.uleb128 0x2
 6642 0eb7 91       		.byte	0x91
 6643 0eb8 74       		.sleb128 -12
 6644 0eb9 12       		.uleb128 0x12
 6645 0eba 14000000 		.4byte	.LBB25
 6646 0ebe 9C000000 		.4byte	.LBE25-.LBB25
 6647 0ec2 19       		.uleb128 0x19
 6648 0ec3 637800   		.ascii	"cx\000"
 6649 0ec6 02       		.byte	0x2
 6650 0ec7 6703     		.2byte	0x367
 6651 0ec9 73000000 		.4byte	0x73
 6652 0ecd 02       		.uleb128 0x2
 6653 0ece 91       		.byte	0x91
 6654 0ecf 70       		.sleb128 -16
 6655 0ed0 00       		.byte	0
 6656 0ed1 00       		.byte	0
 6657 0ed2 1E       		.uleb128 0x1e
 6658 0ed3 6D020000 		.4byte	.LASF78
 6659 0ed7 06       		.byte	0x6
 6660 0ed8 66       		.byte	0x66
 6661 0ed9 33010000 		.4byte	0x133
 6662 0edd 05       		.uleb128 0x5
 6663 0ede 03       		.byte	0x3
 6664 0edf 00000000 		.4byte	cfont
 6665 0ee3 07       		.uleb128 0x7
 6666 0ee4 81000000 		.4byte	0x81
 6667 0ee8 F40E0000 		.4byte	0xef4
 6668 0eec 1F       		.uleb128 0x1f
 6669 0eed BF000000 		.4byte	0xbf
ARM GAS  C:\Users\Petro\AppData\Local\Temp\ccT7A2G2.s 			page 136


 6670 0ef1 F701     		.2byte	0x1f7
 6671 0ef3 00       		.byte	0
 6672 0ef4 1E       		.uleb128 0x1e
 6673 0ef5 26000000 		.4byte	.LASF79
 6674 0ef9 06       		.byte	0x6
 6675 0efa 67       		.byte	0x67
 6676 0efb E30E0000 		.4byte	0xee3
 6677 0eff 05       		.uleb128 0x5
 6678 0f00 03       		.byte	0x3
 6679 0f01 00000000 		.4byte	scrbuf
 6680 0f05 1E       		.uleb128 0x1e
 6681 0f06 44030000 		.4byte	.LASF80
 6682 0f0a 06       		.byte	0x6
 6683 0f0b 68       		.byte	0x68
 6684 0f0c EB020000 		.4byte	0x2eb
 6685 0f10 05       		.uleb128 0x5
 6686 0f11 03       		.byte	0x3
 6687 0f12 00000000 		.4byte	_sleep
 6688 0f16 1E       		.uleb128 0x1e
 6689 0f17 B9030000 		.4byte	.LASF81
 6690 0f1b 06       		.byte	0x6
 6691 0f1c 69       		.byte	0x69
 6692 0f1d 73000000 		.4byte	0x73
 6693 0f21 05       		.uleb128 0x5
 6694 0f22 03       		.byte	0x3
 6695 0f23 00000000 		.4byte	_contrast
 6696 0f27 00       		.byte	0
 6697              		.section	.debug_abbrev,"",%progbits
 6698              	.Ldebug_abbrev0:
 6699 0000 01       		.uleb128 0x1
 6700 0001 11       		.uleb128 0x11
 6701 0002 01       		.byte	0x1
 6702 0003 25       		.uleb128 0x25
 6703 0004 0E       		.uleb128 0xe
 6704 0005 13       		.uleb128 0x13
 6705 0006 0B       		.uleb128 0xb
 6706 0007 03       		.uleb128 0x3
 6707 0008 0E       		.uleb128 0xe
 6708 0009 1B       		.uleb128 0x1b
 6709 000a 0E       		.uleb128 0xe
 6710 000b 55       		.uleb128 0x55
 6711 000c 17       		.uleb128 0x17
 6712 000d 11       		.uleb128 0x11
 6713 000e 01       		.uleb128 0x1
 6714 000f 10       		.uleb128 0x10
 6715 0010 17       		.uleb128 0x17
 6716 0011 00       		.byte	0
 6717 0012 00       		.byte	0
 6718 0013 02       		.uleb128 0x2
 6719 0014 24       		.uleb128 0x24
 6720 0015 00       		.byte	0
 6721 0016 0B       		.uleb128 0xb
 6722 0017 0B       		.uleb128 0xb
 6723 0018 3E       		.uleb128 0x3e
 6724 0019 0B       		.uleb128 0xb
 6725 001a 03       		.uleb128 0x3
 6726 001b 0E       		.uleb128 0xe
ARM GAS  C:\Users\Petro\AppData\Local\Temp\ccT7A2G2.s 			page 137


 6727 001c 00       		.byte	0
 6728 001d 00       		.byte	0
 6729 001e 03       		.uleb128 0x3
 6730 001f 16       		.uleb128 0x16
 6731 0020 00       		.byte	0
 6732 0021 03       		.uleb128 0x3
 6733 0022 0E       		.uleb128 0xe
 6734 0023 3A       		.uleb128 0x3a
 6735 0024 0B       		.uleb128 0xb
 6736 0025 3B       		.uleb128 0x3b
 6737 0026 0B       		.uleb128 0xb
 6738 0027 49       		.uleb128 0x49
 6739 0028 13       		.uleb128 0x13
 6740 0029 00       		.byte	0
 6741 002a 00       		.byte	0
 6742 002b 04       		.uleb128 0x4
 6743 002c 24       		.uleb128 0x24
 6744 002d 00       		.byte	0
 6745 002e 0B       		.uleb128 0xb
 6746 002f 0B       		.uleb128 0xb
 6747 0030 3E       		.uleb128 0x3e
 6748 0031 0B       		.uleb128 0xb
 6749 0032 03       		.uleb128 0x3
 6750 0033 08       		.uleb128 0x8
 6751 0034 00       		.byte	0
 6752 0035 00       		.byte	0
 6753 0036 05       		.uleb128 0x5
 6754 0037 16       		.uleb128 0x16
 6755 0038 00       		.byte	0
 6756 0039 03       		.uleb128 0x3
 6757 003a 0E       		.uleb128 0xe
 6758 003b 3A       		.uleb128 0x3a
 6759 003c 0B       		.uleb128 0xb
 6760 003d 3B       		.uleb128 0x3b
 6761 003e 05       		.uleb128 0x5
 6762 003f 49       		.uleb128 0x49
 6763 0040 13       		.uleb128 0x13
 6764 0041 00       		.byte	0
 6765 0042 00       		.byte	0
 6766 0043 06       		.uleb128 0x6
 6767 0044 0F       		.uleb128 0xf
 6768 0045 00       		.byte	0
 6769 0046 0B       		.uleb128 0xb
 6770 0047 0B       		.uleb128 0xb
 6771 0048 49       		.uleb128 0x49
 6772 0049 13       		.uleb128 0x13
 6773 004a 00       		.byte	0
 6774 004b 00       		.byte	0
 6775 004c 07       		.uleb128 0x7
 6776 004d 01       		.uleb128 0x1
 6777 004e 01       		.byte	0x1
 6778 004f 49       		.uleb128 0x49
 6779 0050 13       		.uleb128 0x13
 6780 0051 01       		.uleb128 0x1
 6781 0052 13       		.uleb128 0x13
 6782 0053 00       		.byte	0
 6783 0054 00       		.byte	0
ARM GAS  C:\Users\Petro\AppData\Local\Temp\ccT7A2G2.s 			page 138


 6784 0055 08       		.uleb128 0x8
 6785 0056 21       		.uleb128 0x21
 6786 0057 00       		.byte	0
 6787 0058 49       		.uleb128 0x49
 6788 0059 13       		.uleb128 0x13
 6789 005a 2F       		.uleb128 0x2f
 6790 005b 0B       		.uleb128 0xb
 6791 005c 00       		.byte	0
 6792 005d 00       		.byte	0
 6793 005e 09       		.uleb128 0x9
 6794 005f 13       		.uleb128 0x13
 6795 0060 01       		.byte	0x1
 6796 0061 0B       		.uleb128 0xb
 6797 0062 0B       		.uleb128 0xb
 6798 0063 3A       		.uleb128 0x3a
 6799 0064 0B       		.uleb128 0xb
 6800 0065 3B       		.uleb128 0x3b
 6801 0066 0B       		.uleb128 0xb
 6802 0067 01       		.uleb128 0x1
 6803 0068 13       		.uleb128 0x13
 6804 0069 00       		.byte	0
 6805 006a 00       		.byte	0
 6806 006b 0A       		.uleb128 0xa
 6807 006c 0D       		.uleb128 0xd
 6808 006d 00       		.byte	0
 6809 006e 03       		.uleb128 0x3
 6810 006f 0E       		.uleb128 0xe
 6811 0070 3A       		.uleb128 0x3a
 6812 0071 0B       		.uleb128 0xb
 6813 0072 3B       		.uleb128 0x3b
 6814 0073 0B       		.uleb128 0xb
 6815 0074 49       		.uleb128 0x49
 6816 0075 13       		.uleb128 0x13
 6817 0076 38       		.uleb128 0x38
 6818 0077 0B       		.uleb128 0xb
 6819 0078 00       		.byte	0
 6820 0079 00       		.byte	0
 6821 007a 0B       		.uleb128 0xb
 6822 007b 2E       		.uleb128 0x2e
 6823 007c 01       		.byte	0x1
 6824 007d 3F       		.uleb128 0x3f
 6825 007e 19       		.uleb128 0x19
 6826 007f 03       		.uleb128 0x3
 6827 0080 0E       		.uleb128 0xe
 6828 0081 3A       		.uleb128 0x3a
 6829 0082 0B       		.uleb128 0xb
 6830 0083 3B       		.uleb128 0x3b
 6831 0084 0B       		.uleb128 0xb
 6832 0085 27       		.uleb128 0x27
 6833 0086 19       		.uleb128 0x19
 6834 0087 11       		.uleb128 0x11
 6835 0088 01       		.uleb128 0x1
 6836 0089 12       		.uleb128 0x12
 6837 008a 06       		.uleb128 0x6
 6838 008b 40       		.uleb128 0x40
 6839 008c 18       		.uleb128 0x18
 6840 008d 9642     		.uleb128 0x2116
ARM GAS  C:\Users\Petro\AppData\Local\Temp\ccT7A2G2.s 			page 139


 6841 008f 19       		.uleb128 0x19
 6842 0090 01       		.uleb128 0x1
 6843 0091 13       		.uleb128 0x13
 6844 0092 00       		.byte	0
 6845 0093 00       		.byte	0
 6846 0094 0C       		.uleb128 0xc
 6847 0095 05       		.uleb128 0x5
 6848 0096 00       		.byte	0
 6849 0097 03       		.uleb128 0x3
 6850 0098 08       		.uleb128 0x8
 6851 0099 3A       		.uleb128 0x3a
 6852 009a 0B       		.uleb128 0xb
 6853 009b 3B       		.uleb128 0x3b
 6854 009c 0B       		.uleb128 0xb
 6855 009d 49       		.uleb128 0x49
 6856 009e 13       		.uleb128 0x13
 6857 009f 02       		.uleb128 0x2
 6858 00a0 18       		.uleb128 0x18
 6859 00a1 00       		.byte	0
 6860 00a2 00       		.byte	0
 6861 00a3 0D       		.uleb128 0xd
 6862 00a4 05       		.uleb128 0x5
 6863 00a5 00       		.byte	0
 6864 00a6 03       		.uleb128 0x3
 6865 00a7 0E       		.uleb128 0xe
 6866 00a8 3A       		.uleb128 0x3a
 6867 00a9 0B       		.uleb128 0xb
 6868 00aa 3B       		.uleb128 0x3b
 6869 00ab 0B       		.uleb128 0xb
 6870 00ac 49       		.uleb128 0x49
 6871 00ad 13       		.uleb128 0x13
 6872 00ae 02       		.uleb128 0x2
 6873 00af 18       		.uleb128 0x18
 6874 00b0 00       		.byte	0
 6875 00b1 00       		.byte	0
 6876 00b2 0E       		.uleb128 0xe
 6877 00b3 34       		.uleb128 0x34
 6878 00b4 00       		.byte	0
 6879 00b5 03       		.uleb128 0x3
 6880 00b6 0E       		.uleb128 0xe
 6881 00b7 3A       		.uleb128 0x3a
 6882 00b8 0B       		.uleb128 0xb
 6883 00b9 3B       		.uleb128 0x3b
 6884 00ba 0B       		.uleb128 0xb
 6885 00bb 49       		.uleb128 0x49
 6886 00bc 13       		.uleb128 0x13
 6887 00bd 02       		.uleb128 0x2
 6888 00be 18       		.uleb128 0x18
 6889 00bf 00       		.byte	0
 6890 00c0 00       		.byte	0
 6891 00c1 0F       		.uleb128 0xf
 6892 00c2 2E       		.uleb128 0x2e
 6893 00c3 01       		.byte	0x1
 6894 00c4 3F       		.uleb128 0x3f
 6895 00c5 19       		.uleb128 0x19
 6896 00c6 03       		.uleb128 0x3
 6897 00c7 0E       		.uleb128 0xe
ARM GAS  C:\Users\Petro\AppData\Local\Temp\ccT7A2G2.s 			page 140


 6898 00c8 3A       		.uleb128 0x3a
 6899 00c9 0B       		.uleb128 0xb
 6900 00ca 3B       		.uleb128 0x3b
 6901 00cb 0B       		.uleb128 0xb
 6902 00cc 11       		.uleb128 0x11
 6903 00cd 01       		.uleb128 0x1
 6904 00ce 12       		.uleb128 0x12
 6905 00cf 06       		.uleb128 0x6
 6906 00d0 40       		.uleb128 0x40
 6907 00d1 18       		.uleb128 0x18
 6908 00d2 9642     		.uleb128 0x2116
 6909 00d4 19       		.uleb128 0x19
 6910 00d5 01       		.uleb128 0x1
 6911 00d6 13       		.uleb128 0x13
 6912 00d7 00       		.byte	0
 6913 00d8 00       		.byte	0
 6914 00d9 10       		.uleb128 0x10
 6915 00da 34       		.uleb128 0x34
 6916 00db 00       		.byte	0
 6917 00dc 03       		.uleb128 0x3
 6918 00dd 08       		.uleb128 0x8
 6919 00de 3A       		.uleb128 0x3a
 6920 00df 0B       		.uleb128 0xb
 6921 00e0 3B       		.uleb128 0x3b
 6922 00e1 0B       		.uleb128 0xb
 6923 00e2 49       		.uleb128 0x49
 6924 00e3 13       		.uleb128 0x13
 6925 00e4 02       		.uleb128 0x2
 6926 00e5 18       		.uleb128 0x18
 6927 00e6 00       		.byte	0
 6928 00e7 00       		.byte	0
 6929 00e8 11       		.uleb128 0x11
 6930 00e9 2E       		.uleb128 0x2e
 6931 00ea 00       		.byte	0
 6932 00eb 3F       		.uleb128 0x3f
 6933 00ec 19       		.uleb128 0x19
 6934 00ed 03       		.uleb128 0x3
 6935 00ee 0E       		.uleb128 0xe
 6936 00ef 3A       		.uleb128 0x3a
 6937 00f0 0B       		.uleb128 0xb
 6938 00f1 3B       		.uleb128 0x3b
 6939 00f2 0B       		.uleb128 0xb
 6940 00f3 11       		.uleb128 0x11
 6941 00f4 01       		.uleb128 0x1
 6942 00f5 12       		.uleb128 0x12
 6943 00f6 06       		.uleb128 0x6
 6944 00f7 40       		.uleb128 0x40
 6945 00f8 18       		.uleb128 0x18
 6946 00f9 9642     		.uleb128 0x2116
 6947 00fb 19       		.uleb128 0x19
 6948 00fc 00       		.byte	0
 6949 00fd 00       		.byte	0
 6950 00fe 12       		.uleb128 0x12
 6951 00ff 0B       		.uleb128 0xb
 6952 0100 01       		.byte	0x1
 6953 0101 11       		.uleb128 0x11
 6954 0102 01       		.uleb128 0x1
ARM GAS  C:\Users\Petro\AppData\Local\Temp\ccT7A2G2.s 			page 141


 6955 0103 12       		.uleb128 0x12
 6956 0104 06       		.uleb128 0x6
 6957 0105 00       		.byte	0
 6958 0106 00       		.byte	0
 6959 0107 13       		.uleb128 0x13
 6960 0108 2E       		.uleb128 0x2e
 6961 0109 01       		.byte	0x1
 6962 010a 3F       		.uleb128 0x3f
 6963 010b 19       		.uleb128 0x19
 6964 010c 03       		.uleb128 0x3
 6965 010d 0E       		.uleb128 0xe
 6966 010e 3A       		.uleb128 0x3a
 6967 010f 0B       		.uleb128 0xb
 6968 0110 3B       		.uleb128 0x3b
 6969 0111 0B       		.uleb128 0xb
 6970 0112 11       		.uleb128 0x11
 6971 0113 01       		.uleb128 0x1
 6972 0114 12       		.uleb128 0x12
 6973 0115 06       		.uleb128 0x6
 6974 0116 40       		.uleb128 0x40
 6975 0117 18       		.uleb128 0x18
 6976 0118 9742     		.uleb128 0x2117
 6977 011a 19       		.uleb128 0x19
 6978 011b 01       		.uleb128 0x1
 6979 011c 13       		.uleb128 0x13
 6980 011d 00       		.byte	0
 6981 011e 00       		.byte	0
 6982 011f 14       		.uleb128 0x14
 6983 0120 2E       		.uleb128 0x2e
 6984 0121 01       		.byte	0x1
 6985 0122 3F       		.uleb128 0x3f
 6986 0123 19       		.uleb128 0x19
 6987 0124 03       		.uleb128 0x3
 6988 0125 0E       		.uleb128 0xe
 6989 0126 3A       		.uleb128 0x3a
 6990 0127 0B       		.uleb128 0xb
 6991 0128 3B       		.uleb128 0x3b
 6992 0129 0B       		.uleb128 0xb
 6993 012a 27       		.uleb128 0x27
 6994 012b 19       		.uleb128 0x19
 6995 012c 11       		.uleb128 0x11
 6996 012d 01       		.uleb128 0x1
 6997 012e 12       		.uleb128 0x12
 6998 012f 06       		.uleb128 0x6
 6999 0130 40       		.uleb128 0x40
 7000 0131 18       		.uleb128 0x18
 7001 0132 9742     		.uleb128 0x2117
 7002 0134 19       		.uleb128 0x19
 7003 0135 01       		.uleb128 0x1
 7004 0136 13       		.uleb128 0x13
 7005 0137 00       		.byte	0
 7006 0138 00       		.byte	0
 7007 0139 15       		.uleb128 0x15
 7008 013a 34       		.uleb128 0x34
 7009 013b 00       		.byte	0
 7010 013c 03       		.uleb128 0x3
 7011 013d 08       		.uleb128 0x8
ARM GAS  C:\Users\Petro\AppData\Local\Temp\ccT7A2G2.s 			page 142


 7012 013e 3A       		.uleb128 0x3a
 7013 013f 0B       		.uleb128 0xb
 7014 0140 3B       		.uleb128 0x3b
 7015 0141 0B       		.uleb128 0xb
 7016 0142 49       		.uleb128 0x49
 7017 0143 13       		.uleb128 0x13
 7018 0144 00       		.byte	0
 7019 0145 00       		.byte	0
 7020 0146 16       		.uleb128 0x16
 7021 0147 2E       		.uleb128 0x2e
 7022 0148 01       		.byte	0x1
 7023 0149 3F       		.uleb128 0x3f
 7024 014a 19       		.uleb128 0x19
 7025 014b 03       		.uleb128 0x3
 7026 014c 0E       		.uleb128 0xe
 7027 014d 3A       		.uleb128 0x3a
 7028 014e 0B       		.uleb128 0xb
 7029 014f 3B       		.uleb128 0x3b
 7030 0150 05       		.uleb128 0x5
 7031 0151 27       		.uleb128 0x27
 7032 0152 19       		.uleb128 0x19
 7033 0153 11       		.uleb128 0x11
 7034 0154 01       		.uleb128 0x1
 7035 0155 12       		.uleb128 0x12
 7036 0156 06       		.uleb128 0x6
 7037 0157 40       		.uleb128 0x40
 7038 0158 18       		.uleb128 0x18
 7039 0159 9642     		.uleb128 0x2116
 7040 015b 19       		.uleb128 0x19
 7041 015c 01       		.uleb128 0x1
 7042 015d 13       		.uleb128 0x13
 7043 015e 00       		.byte	0
 7044 015f 00       		.byte	0
 7045 0160 17       		.uleb128 0x17
 7046 0161 05       		.uleb128 0x5
 7047 0162 00       		.byte	0
 7048 0163 03       		.uleb128 0x3
 7049 0164 08       		.uleb128 0x8
 7050 0165 3A       		.uleb128 0x3a
 7051 0166 0B       		.uleb128 0xb
 7052 0167 3B       		.uleb128 0x3b
 7053 0168 05       		.uleb128 0x5
 7054 0169 49       		.uleb128 0x49
 7055 016a 13       		.uleb128 0x13
 7056 016b 02       		.uleb128 0x2
 7057 016c 18       		.uleb128 0x18
 7058 016d 00       		.byte	0
 7059 016e 00       		.byte	0
 7060 016f 18       		.uleb128 0x18
 7061 0170 05       		.uleb128 0x5
 7062 0171 00       		.byte	0
 7063 0172 03       		.uleb128 0x3
 7064 0173 0E       		.uleb128 0xe
 7065 0174 3A       		.uleb128 0x3a
 7066 0175 0B       		.uleb128 0xb
 7067 0176 3B       		.uleb128 0x3b
 7068 0177 05       		.uleb128 0x5
ARM GAS  C:\Users\Petro\AppData\Local\Temp\ccT7A2G2.s 			page 143


 7069 0178 49       		.uleb128 0x49
 7070 0179 13       		.uleb128 0x13
 7071 017a 02       		.uleb128 0x2
 7072 017b 18       		.uleb128 0x18
 7073 017c 00       		.byte	0
 7074 017d 00       		.byte	0
 7075 017e 19       		.uleb128 0x19
 7076 017f 34       		.uleb128 0x34
 7077 0180 00       		.byte	0
 7078 0181 03       		.uleb128 0x3
 7079 0182 08       		.uleb128 0x8
 7080 0183 3A       		.uleb128 0x3a
 7081 0184 0B       		.uleb128 0xb
 7082 0185 3B       		.uleb128 0x3b
 7083 0186 05       		.uleb128 0x5
 7084 0187 49       		.uleb128 0x49
 7085 0188 13       		.uleb128 0x13
 7086 0189 02       		.uleb128 0x2
 7087 018a 18       		.uleb128 0x18
 7088 018b 00       		.byte	0
 7089 018c 00       		.byte	0
 7090 018d 1A       		.uleb128 0x1a
 7091 018e 34       		.uleb128 0x34
 7092 018f 00       		.byte	0
 7093 0190 03       		.uleb128 0x3
 7094 0191 0E       		.uleb128 0xe
 7095 0192 3A       		.uleb128 0x3a
 7096 0193 0B       		.uleb128 0xb
 7097 0194 3B       		.uleb128 0x3b
 7098 0195 05       		.uleb128 0x5
 7099 0196 49       		.uleb128 0x49
 7100 0197 13       		.uleb128 0x13
 7101 0198 02       		.uleb128 0x2
 7102 0199 18       		.uleb128 0x18
 7103 019a 00       		.byte	0
 7104 019b 00       		.byte	0
 7105 019c 1B       		.uleb128 0x1b
 7106 019d 0B       		.uleb128 0xb
 7107 019e 01       		.byte	0x1
 7108 019f 11       		.uleb128 0x11
 7109 01a0 01       		.uleb128 0x1
 7110 01a1 12       		.uleb128 0x12
 7111 01a2 06       		.uleb128 0x6
 7112 01a3 01       		.uleb128 0x1
 7113 01a4 13       		.uleb128 0x13
 7114 01a5 00       		.byte	0
 7115 01a6 00       		.byte	0
 7116 01a7 1C       		.uleb128 0x1c
 7117 01a8 2E       		.uleb128 0x2e
 7118 01a9 01       		.byte	0x1
 7119 01aa 3F       		.uleb128 0x3f
 7120 01ab 19       		.uleb128 0x19
 7121 01ac 03       		.uleb128 0x3
 7122 01ad 0E       		.uleb128 0xe
 7123 01ae 3A       		.uleb128 0x3a
 7124 01af 0B       		.uleb128 0xb
 7125 01b0 3B       		.uleb128 0x3b
ARM GAS  C:\Users\Petro\AppData\Local\Temp\ccT7A2G2.s 			page 144


 7126 01b1 05       		.uleb128 0x5
 7127 01b2 27       		.uleb128 0x27
 7128 01b3 19       		.uleb128 0x19
 7129 01b4 11       		.uleb128 0x11
 7130 01b5 01       		.uleb128 0x1
 7131 01b6 12       		.uleb128 0x12
 7132 01b7 06       		.uleb128 0x6
 7133 01b8 40       		.uleb128 0x40
 7134 01b9 18       		.uleb128 0x18
 7135 01ba 9742     		.uleb128 0x2117
 7136 01bc 19       		.uleb128 0x19
 7137 01bd 01       		.uleb128 0x1
 7138 01be 13       		.uleb128 0x13
 7139 01bf 00       		.byte	0
 7140 01c0 00       		.byte	0
 7141 01c1 1D       		.uleb128 0x1d
 7142 01c2 34       		.uleb128 0x34
 7143 01c3 00       		.byte	0
 7144 01c4 03       		.uleb128 0x3
 7145 01c5 08       		.uleb128 0x8
 7146 01c6 3A       		.uleb128 0x3a
 7147 01c7 0B       		.uleb128 0xb
 7148 01c8 3B       		.uleb128 0x3b
 7149 01c9 05       		.uleb128 0x5
 7150 01ca 49       		.uleb128 0x49
 7151 01cb 13       		.uleb128 0x13
 7152 01cc 00       		.byte	0
 7153 01cd 00       		.byte	0
 7154 01ce 1E       		.uleb128 0x1e
 7155 01cf 34       		.uleb128 0x34
 7156 01d0 00       		.byte	0
 7157 01d1 03       		.uleb128 0x3
 7158 01d2 0E       		.uleb128 0xe
 7159 01d3 3A       		.uleb128 0x3a
 7160 01d4 0B       		.uleb128 0xb
 7161 01d5 3B       		.uleb128 0x3b
 7162 01d6 0B       		.uleb128 0xb
 7163 01d7 49       		.uleb128 0x49
 7164 01d8 13       		.uleb128 0x13
 7165 01d9 3F       		.uleb128 0x3f
 7166 01da 19       		.uleb128 0x19
 7167 01db 02       		.uleb128 0x2
 7168 01dc 18       		.uleb128 0x18
 7169 01dd 00       		.byte	0
 7170 01de 00       		.byte	0
 7171 01df 1F       		.uleb128 0x1f
 7172 01e0 21       		.uleb128 0x21
 7173 01e1 00       		.byte	0
 7174 01e2 49       		.uleb128 0x49
 7175 01e3 13       		.uleb128 0x13
 7176 01e4 2F       		.uleb128 0x2f
 7177 01e5 05       		.uleb128 0x5
 7178 01e6 00       		.byte	0
 7179 01e7 00       		.byte	0
 7180 01e8 00       		.byte	0
 7181              		.section	.debug_aranges,"",%progbits
 7182 0000 1C010000 		.4byte	0x11c
ARM GAS  C:\Users\Petro\AppData\Local\Temp\ccT7A2G2.s 			page 145


 7183 0004 0200     		.2byte	0x2
 7184 0006 00000000 		.4byte	.Ldebug_info0
 7185 000a 04       		.byte	0x4
 7186 000b 00       		.byte	0
 7187 000c 0000     		.2byte	0
 7188 000e 0000     		.2byte	0
 7189 0010 00000000 		.4byte	.LFB64
 7190 0014 3C000000 		.4byte	.LFE64-.LFB64
 7191 0018 00000000 		.4byte	.LFB65
 7192 001c 46000000 		.4byte	.LFE65-.LFB65
 7193 0020 00000000 		.4byte	.LFB66
 7194 0024 A4000000 		.4byte	.LFE66-.LFB66
 7195 0028 00000000 		.4byte	.LFB67
 7196 002c 54000000 		.4byte	.LFE67-.LFB67
 7197 0030 00000000 		.4byte	.LFB68
 7198 0034 50000000 		.4byte	.LFE68-.LFB68
 7199 0038 00000000 		.4byte	.LFB69
 7200 003c 5C000000 		.4byte	.LFE69-.LFB69
 7201 0040 00000000 		.4byte	.LFB70
 7202 0044 5C000000 		.4byte	.LFE70-.LFB70
 7203 0048 00000000 		.4byte	.LFB71
 7204 004c 34000000 		.4byte	.LFE71-.LFB71
 7205 0050 00000000 		.4byte	.LFB72
 7206 0054 34000000 		.4byte	.LFE72-.LFB72
 7207 0058 00000000 		.4byte	.LFB73
 7208 005c 2E000000 		.4byte	.LFE73-.LFB73
 7209 0060 00000000 		.4byte	.LFB74
 7210 0064 74000000 		.4byte	.LFE74-.LFB74
 7211 0068 00000000 		.4byte	.LFB75
 7212 006c 78000000 		.4byte	.LFE75-.LFB75
 7213 0070 00000000 		.4byte	.LFB76
 7214 0074 B4000000 		.4byte	.LFE76-.LFB76
 7215 0078 00000000 		.4byte	.LFB77
 7216 007c 30000000 		.4byte	.LFE77-.LFB77
 7217 0080 00000000 		.4byte	.LFB78
 7218 0084 94000000 		.4byte	.LFE78-.LFB78
 7219 0088 00000000 		.4byte	.LFB79
 7220 008c 20000000 		.4byte	.LFE79-.LFB79
 7221 0090 00000000 		.4byte	.LFB80
 7222 0094 A6010000 		.4byte	.LFE80-.LFB80
 7223 0098 00000000 		.4byte	.LFB81
 7224 009c 52010000 		.4byte	.LFE81-.LFB81
 7225 00a0 00000000 		.4byte	.LFB82
 7226 00a4 A8020000 		.4byte	.LFE82-.LFB82
 7227 00a8 00000000 		.4byte	.LFB83
 7228 00ac 48000000 		.4byte	.LFE83-.LFB83
 7229 00b0 00000000 		.4byte	.LFB84
 7230 00b4 98000000 		.4byte	.LFE84-.LFB84
 7231 00b8 00000000 		.4byte	.LFB85
 7232 00bc 9C000000 		.4byte	.LFE85-.LFB85
 7233 00c0 00000000 		.4byte	.LFB86
 7234 00c4 56000000 		.4byte	.LFE86-.LFB86
 7235 00c8 00000000 		.4byte	.LFB87
 7236 00cc 56000000 		.4byte	.LFE87-.LFB87
 7237 00d0 00000000 		.4byte	.LFB88
 7238 00d4 B8020000 		.4byte	.LFE88-.LFB88
 7239 00d8 00000000 		.4byte	.LFB89
ARM GAS  C:\Users\Petro\AppData\Local\Temp\ccT7A2G2.s 			page 146


 7240 00dc B8020000 		.4byte	.LFE89-.LFB89
 7241 00e0 00000000 		.4byte	.LFB90
 7242 00e4 80000000 		.4byte	.LFE90-.LFB90
 7243 00e8 00000000 		.4byte	.LFB91
 7244 00ec 80000000 		.4byte	.LFE91-.LFB91
 7245 00f0 00000000 		.4byte	.LFB92
 7246 00f4 02010000 		.4byte	.LFE92-.LFB92
 7247 00f8 00000000 		.4byte	.LFB93
 7248 00fc 02010000 		.4byte	.LFE93-.LFB93
 7249 0100 00000000 		.4byte	.LFB94
 7250 0104 BA010000 		.4byte	.LFE94-.LFB94
 7251 0108 00000000 		.4byte	.LFB95
 7252 010c BA010000 		.4byte	.LFE95-.LFB95
 7253 0110 00000000 		.4byte	.LFB96
 7254 0114 CC000000 		.4byte	.LFE96-.LFB96
 7255 0118 00000000 		.4byte	0
 7256 011c 00000000 		.4byte	0
 7257              		.section	.debug_ranges,"",%progbits
 7258              	.Ldebug_ranges0:
 7259 0000 00000000 		.4byte	.LFB64
 7260 0004 3C000000 		.4byte	.LFE64
 7261 0008 00000000 		.4byte	.LFB65
 7262 000c 46000000 		.4byte	.LFE65
 7263 0010 00000000 		.4byte	.LFB66
 7264 0014 A4000000 		.4byte	.LFE66
 7265 0018 00000000 		.4byte	.LFB67
 7266 001c 54000000 		.4byte	.LFE67
 7267 0020 00000000 		.4byte	.LFB68
 7268 0024 50000000 		.4byte	.LFE68
 7269 0028 00000000 		.4byte	.LFB69
 7270 002c 5C000000 		.4byte	.LFE69
 7271 0030 00000000 		.4byte	.LFB70
 7272 0034 5C000000 		.4byte	.LFE70
 7273 0038 00000000 		.4byte	.LFB71
 7274 003c 34000000 		.4byte	.LFE71
 7275 0040 00000000 		.4byte	.LFB72
 7276 0044 34000000 		.4byte	.LFE72
 7277 0048 00000000 		.4byte	.LFB73
 7278 004c 2E000000 		.4byte	.LFE73
 7279 0050 00000000 		.4byte	.LFB74
 7280 0054 74000000 		.4byte	.LFE74
 7281 0058 00000000 		.4byte	.LFB75
 7282 005c 78000000 		.4byte	.LFE75
 7283 0060 00000000 		.4byte	.LFB76
 7284 0064 B4000000 		.4byte	.LFE76
 7285 0068 00000000 		.4byte	.LFB77
 7286 006c 30000000 		.4byte	.LFE77
 7287 0070 00000000 		.4byte	.LFB78
 7288 0074 94000000 		.4byte	.LFE78
 7289 0078 00000000 		.4byte	.LFB79
 7290 007c 20000000 		.4byte	.LFE79
 7291 0080 00000000 		.4byte	.LFB80
 7292 0084 A6010000 		.4byte	.LFE80
 7293 0088 00000000 		.4byte	.LFB81
 7294 008c 52010000 		.4byte	.LFE81
 7295 0090 00000000 		.4byte	.LFB82
 7296 0094 A8020000 		.4byte	.LFE82
ARM GAS  C:\Users\Petro\AppData\Local\Temp\ccT7A2G2.s 			page 147


 7297 0098 00000000 		.4byte	.LFB83
 7298 009c 48000000 		.4byte	.LFE83
 7299 00a0 00000000 		.4byte	.LFB84
 7300 00a4 98000000 		.4byte	.LFE84
 7301 00a8 00000000 		.4byte	.LFB85
 7302 00ac 9C000000 		.4byte	.LFE85
 7303 00b0 00000000 		.4byte	.LFB86
 7304 00b4 56000000 		.4byte	.LFE86
 7305 00b8 00000000 		.4byte	.LFB87
 7306 00bc 56000000 		.4byte	.LFE87
 7307 00c0 00000000 		.4byte	.LFB88
 7308 00c4 B8020000 		.4byte	.LFE88
 7309 00c8 00000000 		.4byte	.LFB89
 7310 00cc B8020000 		.4byte	.LFE89
 7311 00d0 00000000 		.4byte	.LFB90
 7312 00d4 80000000 		.4byte	.LFE90
 7313 00d8 00000000 		.4byte	.LFB91
 7314 00dc 80000000 		.4byte	.LFE91
 7315 00e0 00000000 		.4byte	.LFB92
 7316 00e4 02010000 		.4byte	.LFE92
 7317 00e8 00000000 		.4byte	.LFB93
 7318 00ec 02010000 		.4byte	.LFE93
 7319 00f0 00000000 		.4byte	.LFB94
 7320 00f4 BA010000 		.4byte	.LFE94
 7321 00f8 00000000 		.4byte	.LFB95
 7322 00fc BA010000 		.4byte	.LFE95
 7323 0100 00000000 		.4byte	.LFB96
 7324 0104 CC000000 		.4byte	.LFE96
 7325 0108 00000000 		.4byte	0
 7326 010c 00000000 		.4byte	0
 7327              		.section	.debug_line,"",%progbits
 7328              	.Ldebug_line0:
 7329 0000 5C080000 		.section	.debug_str,"MS",%progbits,1
 7329      02009E01 
 7329      00000201 
 7329      FB0E0D00 
 7329      01010101 
 7330              	.LASF55:
 7331 0000 666F6E74 		.ascii	"font_idx\000"
 7331      5F696478 
 7331      00
 7332              	.LASF23:
 7333 0009 6E756D63 		.ascii	"numchars\000"
 7333      68617273 
 7333      00
 7334              	.LASF71:
 7335 0012 64726177 		.ascii	"drawCircle\000"
 7335      43697263 
 7335      6C6500
 7336              	.LASF61:
 7337 001d 636C7248 		.ascii	"clrHLine\000"
 7337      4C696E65 
 7337      00
 7338              	.LASF79:
 7339 0026 73637262 		.ascii	"scrbuf\000"
 7339      756600
 7340              	.LASF2:
ARM GAS  C:\Users\Petro\AppData\Local\Temp\ccT7A2G2.s 			page 148


 7341 002d 73686F72 		.ascii	"short int\000"
 7341      7420696E 
 7341      7400
 7342              	.LASF18:
 7343 0037 73697A65 		.ascii	"sizetype\000"
 7343      74797065 
 7343      00
 7344              	.LASF85:
 7345 0040 64697361 		.ascii	"disableSleep\000"
 7345      626C6553 
 7345      6C656570 
 7345      00
 7346              	.LASF45:
 7347 004d 696E7665 		.ascii	"invertText\000"
 7347      72745465 
 7347      787400
 7348              	.LASF8:
 7349 0058 6C6F6E67 		.ascii	"long long int\000"
 7349      206C6F6E 
 7349      6720696E 
 7349      7400
 7350              	.LASF19:
 7351 0066 666F6E74 		.ascii	"font\000"
 7351      00
 7352              	.LASF31:
 7353 006b 6D6F6465 		.ascii	"mode\000"
 7353      00
 7354              	.LASF56:
 7355 0070 726F7763 		.ascii	"rowcnt\000"
 7355      6E7400
 7356              	.LASF62:
 7357 0077 64726177 		.ascii	"drawVLine\000"
 7357      564C696E 
 7357      6500
 7358              	.LASF4:
 7359 0081 5F5F7569 		.ascii	"__uint16_t\000"
 7359      6E743136 
 7359      5F7400
 7360              	.LASF58:
 7361 008c 63626974 		.ascii	"cbit\000"
 7361      00
 7362              	.LASF82:
 7363 0091 474E5520 		.ascii	"GNU C11 5.4.1 20160609 (release) [ARM/embedded-5-br"
 7363      43313120 
 7363      352E342E 
 7363      31203230 
 7363      31363036 
 7364 00c4 616E6368 		.ascii	"anch revision 237715] -mcpu=cortex-m0 -mthumb -g -O"
 7364      20726576 
 7364      6973696F 
 7364      6E203233 
 7364      37373135 
 7365 00f7 30202D66 		.ascii	"0 -ffunction-sections -ffat-lto-objects\000"
 7365      66756E63 
 7365      74696F6E 
 7365      2D736563 
 7365      74696F6E 
ARM GAS  C:\Users\Petro\AppData\Local\Temp\ccT7A2G2.s 			page 149


 7366              	.LASF65:
 7367 011f 64656C74 		.ascii	"delta\000"
 7367      6100
 7368              	.LASF11:
 7369 0125 75696E74 		.ascii	"uint8_t\000"
 7369      385F7400 
 7370              	.LASF13:
 7371 012d 75696E74 		.ascii	"uint8\000"
 7371      3800
 7372              	.LASF77:
 7373 0133 6269746D 		.ascii	"bitmap\000"
 7373      617000
 7374              	.LASF60:
 7375 013a 64726177 		.ascii	"drawHLine\000"
 7375      484C696E 
 7375      6500
 7376              	.LASF64:
 7377 0144 64726177 		.ascii	"drawLine\000"
 7377      4C696E65 
 7377      00
 7378              	.LASF66:
 7379 014d 636C724C 		.ascii	"clrLine\000"
 7379      696E6500 
 7380              	.LASF43:
 7381 0155 636C7250 		.ascii	"clrPixel\000"
 7381      6978656C 
 7381      00
 7382              	.LASF0:
 7383 015e 7369676E 		.ascii	"signed char\000"
 7383      65642063 
 7383      68617200 
 7384              	.LASF26:
 7385 016a 77696474 		.ascii	"width\000"
 7385      6800
 7386              	.LASF49:
 7387 0170 6C656E67 		.ascii	"length\000"
 7387      746800
 7388              	.LASF54:
 7389 0177 5F707269 		.ascii	"_print_char\000"
 7389      6E745F63 
 7389      68617200 
 7390              	.LASF14:
 7391 0183 666C6F61 		.ascii	"float\000"
 7391      7400
 7392              	.LASF75:
 7393 0189 636C7243 		.ascii	"clrCircle\000"
 7393      6972636C 
 7393      6500
 7394              	.LASF35:
 7395 0193 666F726D 		.ascii	"format\000"
 7395      617400
 7396              	.LASF25:
 7397 019a 5F637572 		.ascii	"_current_font\000"
 7397      72656E74 
 7397      5F666F6E 
 7397      7400
 7398              	.LASF37:
ARM GAS  C:\Users\Petro\AppData\Local\Temp\ccT7A2G2.s 			page 150


 7399 01a8 75706461 		.ascii	"update\000"
 7399      746500
 7400              	.LASF6:
 7401 01af 6C6F6E67 		.ascii	"long int\000"
 7401      20696E74 
 7401      00
 7402              	.LASF70:
 7403 01b8 636C7252 		.ascii	"clrRoundRect\000"
 7403      6F756E64 
 7403      52656374 
 7403      00
 7404              	.LASF22:
 7405 01c5 6F666673 		.ascii	"offset\000"
 7405      657400
 7406              	.LASF7:
 7407 01cc 6C6F6E67 		.ascii	"long unsigned int\000"
 7407      20756E73 
 7407      69676E65 
 7407      6420696E 
 7407      7400
 7408              	.LASF84:
 7409 01de 443A5C43 		.ascii	"D:\\Cypress\\system-start-finish\\dev\\FW\\start\\s"
 7409      79707265 
 7409      73735C73 
 7409      79737465 
 7409      6D2D7374 
 7410 020b 74617274 		.ascii	"tart_v11.cydsn\000"
 7410      5F763131 
 7410      2E637964 
 7410      736E00
 7411              	.LASF3:
 7412 021a 5F5F7569 		.ascii	"__uint8_t\000"
 7412      6E74385F 
 7412      7400
 7413              	.LASF44:
 7414 0224 696E7650 		.ascii	"invPixel\000"
 7414      6978656C 
 7414      00
 7415              	.LASF67:
 7416 022d 64726177 		.ascii	"drawRect\000"
 7416      52656374 
 7416      00
 7417              	.LASF68:
 7418 0236 636C7252 		.ascii	"clrRect\000"
 7418      65637400 
 7419              	.LASF21:
 7420 023e 795F7369 		.ascii	"y_size\000"
 7420      7A6500
 7421              	.LASF17:
 7422 0245 6C6F6E67 		.ascii	"long double\000"
 7422      20646F75 
 7422      626C6500 
 7423              	.LASF69:
 7424 0251 64726177 		.ascii	"drawRoundRect\000"
 7424      526F756E 
 7424      64526563 
 7424      7400
ARM GAS  C:\Users\Petro\AppData\Local\Temp\ccT7A2G2.s 			page 151


 7425              	.LASF1:
 7426 025f 756E7369 		.ascii	"unsigned char\000"
 7426      676E6564 
 7426      20636861 
 7426      7200
 7427              	.LASF78:
 7428 026d 63666F6E 		.ascii	"cfont\000"
 7428      7400
 7429              	.LASF72:
 7430 0273 72616469 		.ascii	"radius\000"
 7430      757300
 7431              	.LASF59:
 7432 027a 73657446 		.ascii	"setFont\000"
 7432      6F6E7400 
 7433              	.LASF57:
 7434 0282 63627974 		.ascii	"cbyte\000"
 7434      6500
 7435              	.LASF9:
 7436 0288 6C6F6E67 		.ascii	"long long unsigned int\000"
 7436      206C6F6E 
 7436      6720756E 
 7436      7369676E 
 7436      65642069 
 7437              	.LASF24:
 7438 029f 696E7665 		.ascii	"inverted\000"
 7438      72746564 
 7438      00
 7439              	.LASF76:
 7440 02a8 64726177 		.ascii	"drawBitmap\000"
 7440      4269746D 
 7440      617000
 7441              	.LASF10:
 7442 02b3 756E7369 		.ascii	"unsigned int\000"
 7442      676E6564 
 7442      20696E74 
 7442      00
 7443              	.LASF83:
 7444 02c0 2E2E5C2E 		.ascii	"..\\..\\common\\lib\\nokia5110\\LCD5110_Graph.c\000"
 7444      2E5C636F 
 7444      6D6D6F6E 
 7444      5C6C6962 
 7444      5C6E6F6B 
 7445              	.LASF12:
 7446 02eb 75696E74 		.ascii	"uint16_t\000"
 7446      31365F74 
 7446      00
 7447              	.LASF42:
 7448 02f4 73657450 		.ascii	"setPixel\000"
 7448      6978656C 
 7448      00
 7449              	.LASF28:
 7450 02fd 5F636F6E 		.ascii	"_convert_float\000"
 7450      76657274 
 7450      5F666C6F 
 7450      617400
 7451              	.LASF32:
 7452 030c 496E6974 		.ascii	"InitLCD\000"
ARM GAS  C:\Users\Petro\AppData\Local\Temp\ccT7A2G2.s 			page 152


 7452      4C434400 
 7453              	.LASF5:
 7454 0314 73686F72 		.ascii	"short unsigned int\000"
 7454      7420756E 
 7454      7369676E 
 7454      65642069 
 7454      6E7400
 7455              	.LASF16:
 7456 0327 63686172 		.ascii	"char\000"
 7456      00
 7457              	.LASF29:
 7458 032c 5F4C4344 		.ascii	"_LCD_Write\000"
 7458      5F577269 
 7458      746500
 7459              	.LASF40:
 7460 0337 696E7665 		.ascii	"invert\000"
 7460      727400
 7461              	.LASF41:
 7462 033e 5F426F6F 		.ascii	"_Bool\000"
 7462      6C00
 7463              	.LASF80:
 7464 0344 5F736C65 		.ascii	"_sleep\000"
 7464      657000
 7465              	.LASF30:
 7466 034b 64617461 		.ascii	"data\000"
 7466      00
 7467              	.LASF47:
 7468 0350 7072696E 		.ascii	"prints\000"
 7468      747300
 7469              	.LASF73:
 7470 0357 6464465F 		.ascii	"ddF_x\000"
 7470      7800
 7471              	.LASF74:
 7472 035d 6464465F 		.ascii	"ddF_y\000"
 7472      7900
 7473              	.LASF39:
 7474 0363 66696C6C 		.ascii	"fillScr\000"
 7474      53637200 
 7475              	.LASF51:
 7476 036b 7072696E 		.ascii	"printNumF\000"
 7476      744E756D 
 7476      4600
 7477              	.LASF48:
 7478 0375 7072696E 		.ascii	"printNumI\000"
 7478      744E756D 
 7478      4900
 7479              	.LASF53:
 7480 037f 73697A65 		.ascii	"size\000"
 7480      00
 7481              	.LASF33:
 7482 0384 636F6E74 		.ascii	"contrast\000"
 7482      72617374 
 7482      00
 7483              	.LASF38:
 7484 038d 636C7253 		.ascii	"clrScr\000"
 7484      637200
 7485              	.LASF46:
ARM GAS  C:\Users\Petro\AppData\Local\Temp\ccT7A2G2.s 			page 153


 7486 0394 7072696E 		.ascii	"print\000"
 7486      7400
 7487              	.LASF50:
 7488 039a 66696C6C 		.ascii	"filler\000"
 7488      657200
 7489              	.LASF27:
 7490 03a1 70726563 		.ascii	"prec\000"
 7490      00
 7491              	.LASF15:
 7492 03a6 646F7562 		.ascii	"double\000"
 7492      6C6500
 7493              	.LASF34:
 7494 03ad 73657443 		.ascii	"setContrast\000"
 7494      6F6E7472 
 7494      61737400 
 7495              	.LASF81:
 7496 03b9 5F636F6E 		.ascii	"_contrast\000"
 7496      74726173 
 7496      7400
 7497              	.LASF20:
 7498 03c3 785F7369 		.ascii	"x_size\000"
 7498      7A6500
 7499              	.LASF36:
 7500 03ca 656E6162 		.ascii	"enableSleep\000"
 7500      6C65536C 
 7500      65657000 
 7501              	.LASF52:
 7502 03d6 64697669 		.ascii	"divider\000"
 7502      64657200 
 7503              	.LASF63:
 7504 03de 636C7256 		.ascii	"clrVLine\000"
 7504      4C696E65 
 7504      00
 7505              		.ident	"GCC: (GNU Tools for ARM Embedded Processors) 5.4.1 20160609 (release) [ARM/embedded-5-bran
