ARM GAS  C:\Users\Petro\AppData\Local\Temp\ccgRYyHV.s 			page 1


   1              		.syntax unified
   2              		.cpu cortex-m0
   3              		.fpu softvfp
   4              		.eabi_attribute 20, 1
   5              		.eabi_attribute 21, 1
   6              		.eabi_attribute 23, 3
   7              		.eabi_attribute 24, 1
   8              		.eabi_attribute 25, 1
   9              		.eabi_attribute 26, 1
  10              		.eabi_attribute 30, 6
  11              		.eabi_attribute 34, 0
  12              		.eabi_attribute 18, 4
  13              		.thumb
  14              		.syntax unified
  15              		.file	"LED.c"
  16              		.text
  17              	.Ltext0:
  18              		.cfi_sections	.debug_frame
  19              		.comm	currentState,1,1
  20              		.bss
  21              		.align	2
  22              	result:
  23 0000 00000000 		.space	4
  24              		.comm	LED_InitValue,1,1
  25              		.section	.text.LedInit,"ax",%progbits
  26              		.align	2
  27              		.global	LedInit
  28              		.code	16
  29              		.thumb_func
  30              		.type	LedInit, %function
  31              	LedInit:
  32              	.LFB63:
  33              		.file 1 "..\\..\\common\\lib\\lib_LED\\LED.c"
   1:..\..\common\lib\lib_LED/LED.c **** /* ========================================
   2:..\..\common\lib\lib_LED/LED.c ****  *
   3:..\..\common\lib\lib_LED/LED.c ****  * Copyright YOUR COMPANY, THE YEAR
   4:..\..\common\lib\lib_LED/LED.c ****  * All Rights Reserved
   5:..\..\common\lib\lib_LED/LED.c ****  * UNPUBLISHED, LICENSED SOFTWARE.
   6:..\..\common\lib\lib_LED/LED.c ****  *
   7:..\..\common\lib\lib_LED/LED.c ****  * CONFIDENTIAL AND PROPRIETARY INFORMATION
   8:..\..\common\lib\lib_LED/LED.c ****  * WHICH IS THE PROPERTY OF your company.
   9:..\..\common\lib\lib_LED/LED.c ****  *
  10:..\..\common\lib\lib_LED/LED.c ****  * ========================================
  11:..\..\common\lib\lib_LED/LED.c **** */
  12:..\..\common\lib\lib_LED/LED.c **** #include "LED.h"
  13:..\..\common\lib\lib_LED/LED.c **** #include <Timer_LED.h>
  14:..\..\common\lib\lib_LED/LED.c **** #include <Int_Timer_Led.h>
  15:..\..\common\lib\lib_LED/LED.c **** //#include "appGlobal.h"
  16:..\..\common\lib\lib_LED/LED.c **** #ifdef START_MODULE
  17:..\..\common\lib\lib_LED/LED.c **** #include <LED_RED_PIN.h>
  18:..\..\common\lib\lib_LED/LED.c **** #include <LED_GREEN_PIN.h>
  19:..\..\common\lib\lib_LED/LED.c **** #endif
  20:..\..\common\lib\lib_LED/LED.c **** #ifdef FINISH_MODULE
  21:..\..\common\lib\lib_LED/LED.c **** #include <LED_PIN.h>
  22:..\..\common\lib\lib_LED/LED.c **** #endif
  23:..\..\common\lib\lib_LED/LED.c **** // Max pulses in 16-Bit Resolution
  24:..\..\common\lib\lib_LED/LED.c **** #define MAX_TICKS_16BIT                      (65535)
ARM GAS  C:\Users\Petro\AppData\Local\Temp\ccgRYyHV.s 			page 2


  25:..\..\common\lib\lib_LED/LED.c **** 
  26:..\..\common\lib\lib_LED/LED.c **** // Frequency Timer for Led in Hz. 
  27:..\..\common\lib\lib_LED/LED.c **** #define FREQ_TIMER_LED                       (1000u)
  28:..\..\common\lib\lib_LED/LED.c **** 
  29:..\..\common\lib\lib_LED/LED.c **** /*******************************************
  30:..\..\common\lib\lib_LED/LED.c ****     Change Frequency value to count pulses
  31:..\..\common\lib\lib_LED/LED.c ****     Macros which value count pulses
  32:..\..\common\lib\lib_LED/LED.c ****     Arguments
  33:..\..\common\lib\lib_LED/LED.c ****                 Freq: Frequency with which want 
  34:..\..\common\lib\lib_LED/LED.c ****                     light LED indicator
  35:..\..\common\lib\lib_LED/LED.c ****     Macro
  36:..\..\common\lib\lib_LED/LED.c ****                 FREQ_TIMER_LED : 
  37:..\..\common\lib\lib_LED/LED.c ****                     Input Clock Timer_LED Frequency
  38:..\..\common\lib\lib_LED/LED.c ****     Result 
  39:..\..\common\lib\lib_LED/LED.c ****                 Count pulses which need 
  40:..\..\common\lib\lib_LED/LED.c ****                     upload as Period in Timer
  41:..\..\common\lib\lib_LED/LED.c ****                 
  42:..\..\common\lib\lib_LED/LED.c ****                 Diving 2 because One Period have Low 
  43:..\..\common\lib\lib_LED/LED.c ****                     and Hidh Levels
  44:..\..\common\lib\lib_LED/LED.c ****     
  45:..\..\common\lib\lib_LED/LED.c **** *******************************************/
  46:..\..\common\lib\lib_LED/LED.c **** 
  47:..\..\common\lib\lib_LED/LED.c **** #define FreqToTicks(Freq)        FREQ_TIMER_LED/(2*Freq)  
  48:..\..\common\lib\lib_LED/LED.c **** CY_ISR_PROTO(LedHandler); /* Interrupt Timer */
  49:..\..\common\lib\lib_LED/LED.c **** 
  50:..\..\common\lib\lib_LED/LED.c **** uint8_t LED_InitValue;
  51:..\..\common\lib\lib_LED/LED.c **** 
  52:..\..\common\lib\lib_LED/LED.c **** 
  53:..\..\common\lib\lib_LED/LED.c **** /*
  54:..\..\common\lib\lib_LED/LED.c ****     Initialization timer and add interrupt to him 
  55:..\..\common\lib\lib_LED/LED.c **** */
  56:..\..\common\lib\lib_LED/LED.c **** void LedInit(void)
  57:..\..\common\lib\lib_LED/LED.c **** {
  34              		.loc 1 57 0
  35              		.cfi_startproc
  36              		@ args = 0, pretend = 0, frame = 0
  37              		@ frame_needed = 1, uses_anonymous_args = 0
  38 0000 80B5     		push	{r7, lr}
  39              		.cfi_def_cfa_offset 8
  40              		.cfi_offset 7, -8
  41              		.cfi_offset 14, -4
  42 0002 00AF     		add	r7, sp, #0
  43              		.cfi_def_cfa_register 7
  58:..\..\common\lib\lib_LED/LED.c ****     Timer_LED_Init();
  44              		.loc 1 58 0
  45 0004 FFF7FEFF 		bl	Timer_LED_Init
  59:..\..\common\lib\lib_LED/LED.c ****     if (!LED_InitValue)
  46              		.loc 1 59 0
  47 0008 064B     		ldr	r3, .L3
  48 000a 1B78     		ldrb	r3, [r3]
  49 000c 002B     		cmp	r3, #0
  50 000e 03D1     		bne	.L2
  60:..\..\common\lib\lib_LED/LED.c ****     {
  61:..\..\common\lib\lib_LED/LED.c ****         Int_Timer_Led_StartEx(LedHandler);
  51              		.loc 1 61 0
  52 0010 054B     		ldr	r3, .L3+4
  53 0012 1800     		movs	r0, r3
ARM GAS  C:\Users\Petro\AppData\Local\Temp\ccgRYyHV.s 			page 3


  54 0014 FFF7FEFF 		bl	Int_Timer_Led_StartEx
  55              	.L2:
  62:..\..\common\lib\lib_LED/LED.c ****     }
  63:..\..\common\lib\lib_LED/LED.c ****     LED_InitValue = 1;
  56              		.loc 1 63 0
  57 0018 024B     		ldr	r3, .L3
  58 001a 0122     		movs	r2, #1
  59 001c 1A70     		strb	r2, [r3]
  64:..\..\common\lib\lib_LED/LED.c **** }
  60              		.loc 1 64 0
  61 001e C046     		nop
  62 0020 BD46     		mov	sp, r7
  63              		@ sp needed
  64 0022 80BD     		pop	{r7, pc}
  65              	.L4:
  66              		.align	2
  67              	.L3:
  68 0024 00000000 		.word	LED_InitValue
  69 0028 00000000 		.word	LedHandler
  70              		.cfi_endproc
  71              	.LFE63:
  72              		.size	LedInit, .-LedInit
  73              		.section	.text.LedHandler,"ax",%progbits
  74              		.align	2
  75              		.global	LedHandler
  76              		.code	16
  77              		.thumb_func
  78              		.type	LedHandler, %function
  79              	LedHandler:
  80              	.LFB64:
  65:..\..\common\lib\lib_LED/LED.c **** 
  66:..\..\common\lib\lib_LED/LED.c **** /*
  67:..\..\common\lib\lib_LED/LED.c ****     Interrupt handler after lefting time one period light
  68:..\..\common\lib\lib_LED/LED.c **** */
  69:..\..\common\lib\lib_LED/LED.c **** #ifdef START_MODULE
  70:..\..\common\lib\lib_LED/LED.c **** CY_ISR(LedHandler)
  71:..\..\common\lib\lib_LED/LED.c **** {
  81              		.loc 1 71 0
  82              		.cfi_startproc
  83              		@ args = 0, pretend = 0, frame = 0
  84              		@ frame_needed = 1, uses_anonymous_args = 0
  85 0000 80B5     		push	{r7, lr}
  86              		.cfi_def_cfa_offset 8
  87              		.cfi_offset 7, -8
  88              		.cfi_offset 14, -4
  89 0002 00AF     		add	r7, sp, #0
  90              		.cfi_def_cfa_register 7
  72:..\..\common\lib\lib_LED/LED.c ****     LED_RED_PIN_Write(~LED_RED_PIN_Read());
  91              		.loc 1 72 0
  92 0004 FFF7FEFF 		bl	LED_RED_PIN_Read
  93 0008 0300     		movs	r3, r0
  94 000a DB43     		mvns	r3, r3
  95 000c DBB2     		uxtb	r3, r3
  96 000e 1800     		movs	r0, r3
  97 0010 FFF7FEFF 		bl	LED_RED_PIN_Write
  73:..\..\common\lib\lib_LED/LED.c ****     Timer_LED_ClearInterrupt(Timer_LED_INTR_MASK_CC_MATCH);
  98              		.loc 1 73 0
ARM GAS  C:\Users\Petro\AppData\Local\Temp\ccgRYyHV.s 			page 4


  99 0014 0220     		movs	r0, #2
 100 0016 FFF7FEFF 		bl	Timer_LED_ClearInterrupt
  74:..\..\common\lib\lib_LED/LED.c **** }
 101              		.loc 1 74 0
 102 001a C046     		nop
 103 001c BD46     		mov	sp, r7
 104              		@ sp needed
 105 001e 80BD     		pop	{r7, pc}
 106              		.cfi_endproc
 107              	.LFE64:
 108              		.size	LedHandler, .-LedHandler
 109              		.global	__aeabi_uidiv
 110              		.section	.text.LedRedBlink,"ax",%progbits
 111              		.align	2
 112              		.global	LedRedBlink
 113              		.code	16
 114              		.thumb_func
 115              		.type	LedRedBlink, %function
 116              	LedRedBlink:
 117              	.LFB65:
  75:..\..\common\lib\lib_LED/LED.c **** #endif 
  76:..\..\common\lib\lib_LED/LED.c **** #ifdef FINISH_MODULE
  77:..\..\common\lib\lib_LED/LED.c **** CY_ISR(LedHandler)
  78:..\..\common\lib\lib_LED/LED.c **** {
  79:..\..\common\lib\lib_LED/LED.c ****     LED_PIN_Write(~LED_PIN_Read());
  80:..\..\common\lib\lib_LED/LED.c ****     Timer_LED_ClearInterrupt(Timer_LED_INTR_MASK_CC_MATCH);
  81:..\..\common\lib\lib_LED/LED.c **** }
  82:..\..\common\lib\lib_LED/LED.c **** #endif
  83:..\..\common\lib\lib_LED/LED.c **** 
  84:..\..\common\lib\lib_LED/LED.c **** /* 
  85:..\..\common\lib\lib_LED/LED.c ****     Blinking Led with Frequency
  86:..\..\common\lib\lib_LED/LED.c ****     Arguments: 
  87:..\..\common\lib\lib_LED/LED.c ****         uint16_t Frequency: 
  88:..\..\common\lib\lib_LED/LED.c ****         Frequency with which LED will blinking
  89:..\..\common\lib\lib_LED/LED.c ****         Value in Hz
  90:..\..\common\lib\lib_LED/LED.c **** */
  91:..\..\common\lib\lib_LED/LED.c **** #ifdef START_MODULE
  92:..\..\common\lib\lib_LED/LED.c **** void LedRedBlink(uint16_t Frequency)
  93:..\..\common\lib\lib_LED/LED.c **** {
 118              		.loc 1 93 0
 119              		.cfi_startproc
 120              		@ args = 0, pretend = 0, frame = 16
 121              		@ frame_needed = 1, uses_anonymous_args = 0
 122 0000 80B5     		push	{r7, lr}
 123              		.cfi_def_cfa_offset 8
 124              		.cfi_offset 7, -8
 125              		.cfi_offset 14, -4
 126 0002 84B0     		sub	sp, sp, #16
 127              		.cfi_def_cfa_offset 24
 128 0004 00AF     		add	r7, sp, #0
 129              		.cfi_def_cfa_register 7
 130 0006 0200     		movs	r2, r0
 131 0008 BB1D     		adds	r3, r7, #6
 132 000a 1A80     		strh	r2, [r3]
  94:..\..\common\lib\lib_LED/LED.c ****     uint32_t time_l;
  95:..\..\common\lib\lib_LED/LED.c ****     time_l = FreqToTicks(Frequency);
 133              		.loc 1 95 0
ARM GAS  C:\Users\Petro\AppData\Local\Temp\ccgRYyHV.s 			page 5


 134 000c BB1D     		adds	r3, r7, #6
 135 000e 1B88     		ldrh	r3, [r3]
 136 0010 5B00     		lsls	r3, r3, #1
 137 0012 1900     		movs	r1, r3
 138 0014 FA23     		movs	r3, #250
 139 0016 9800     		lsls	r0, r3, #2
 140 0018 FFF7FEFF 		bl	__aeabi_uidiv
 141 001c 0300     		movs	r3, r0
 142 001e FB60     		str	r3, [r7, #12]
  96:..\..\common\lib\lib_LED/LED.c ****     Timer_LED_WritePeriod(time_l);
 143              		.loc 1 96 0
 144 0020 FB68     		ldr	r3, [r7, #12]
 145 0022 1800     		movs	r0, r3
 146 0024 FFF7FEFF 		bl	Timer_LED_WritePeriod
  97:..\..\common\lib\lib_LED/LED.c ****     Timer_LED_Enable();
 147              		.loc 1 97 0
 148 0028 FFF7FEFF 		bl	Timer_LED_Enable
  98:..\..\common\lib\lib_LED/LED.c **** }
 149              		.loc 1 98 0
 150 002c C046     		nop
 151 002e BD46     		mov	sp, r7
 152 0030 04B0     		add	sp, sp, #16
 153              		@ sp needed
 154 0032 80BD     		pop	{r7, pc}
 155              		.cfi_endproc
 156              	.LFE65:
 157              		.size	LedRedBlink, .-LedRedBlink
 158              		.section	.text.SetLedsState,"ax",%progbits
 159              		.align	2
 160              		.global	SetLedsState
 161              		.code	16
 162              		.thumb_func
 163              		.type	SetLedsState, %function
 164              	SetLedsState:
 165              	.LFB66:
  99:..\..\common\lib\lib_LED/LED.c **** #endif
 100:..\..\common\lib\lib_LED/LED.c **** #ifdef FINISH_MODULE
 101:..\..\common\lib\lib_LED/LED.c **** void LedBlink(uint16_t Frequency)
 102:..\..\common\lib\lib_LED/LED.c **** {
 103:..\..\common\lib\lib_LED/LED.c ****     uint32_t time_l;
 104:..\..\common\lib\lib_LED/LED.c ****     time_l = FreqToTicks(Frequency);
 105:..\..\common\lib\lib_LED/LED.c ****     Timer_LED_WritePeriod(time_l);
 106:..\..\common\lib\lib_LED/LED.c ****     Timer_LED_Enable();
 107:..\..\common\lib\lib_LED/LED.c **** }
 108:..\..\common\lib\lib_LED/LED.c **** #endif
 109:..\..\common\lib\lib_LED/LED.c **** 
 110:..\..\common\lib\lib_LED/LED.c **** /* 
 111:..\..\common\lib\lib_LED/LED.c ****     Set static state LED indicator
 112:..\..\common\lib\lib_LED/LED.c ****     Arguments: 
 113:..\..\common\lib\lib_LED/LED.c ****         uint8_t State: 
 114:..\..\common\lib\lib_LED/LED.c ****         High or low state.
 115:..\..\common\lib\lib_LED/LED.c ****         High - ENABLE (1u), Low - Disable(0u)
 116:..\..\common\lib\lib_LED/LED.c **** */
 117:..\..\common\lib\lib_LED/LED.c **** #ifdef START_MODULE
 118:..\..\common\lib\lib_LED/LED.c **** void SetLedsState(uint8_t stateRed, uint8_t stateGreen)
 119:..\..\common\lib\lib_LED/LED.c **** {
 166              		.loc 1 119 0
ARM GAS  C:\Users\Petro\AppData\Local\Temp\ccgRYyHV.s 			page 6


 167              		.cfi_startproc
 168              		@ args = 0, pretend = 0, frame = 8
 169              		@ frame_needed = 1, uses_anonymous_args = 0
 170 0000 80B5     		push	{r7, lr}
 171              		.cfi_def_cfa_offset 8
 172              		.cfi_offset 7, -8
 173              		.cfi_offset 14, -4
 174 0002 82B0     		sub	sp, sp, #8
 175              		.cfi_def_cfa_offset 16
 176 0004 00AF     		add	r7, sp, #0
 177              		.cfi_def_cfa_register 7
 178 0006 0200     		movs	r2, r0
 179 0008 FB1D     		adds	r3, r7, #7
 180 000a 1A70     		strb	r2, [r3]
 181 000c BB1D     		adds	r3, r7, #6
 182 000e 0A1C     		adds	r2, r1, #0
 183 0010 1A70     		strb	r2, [r3]
 120:..\..\common\lib\lib_LED/LED.c ****     Timer_LED_Stop();
 184              		.loc 1 120 0
 185 0012 FFF7FEFF 		bl	Timer_LED_Stop
 121:..\..\common\lib\lib_LED/LED.c ****     LED_RED_PIN_Write(stateRed);
 186              		.loc 1 121 0
 187 0016 FB1D     		adds	r3, r7, #7
 188 0018 1B78     		ldrb	r3, [r3]
 189 001a 1800     		movs	r0, r3
 190 001c FFF7FEFF 		bl	LED_RED_PIN_Write
 122:..\..\common\lib\lib_LED/LED.c ****     LED_GREEN_PIN_Write(stateGreen);
 191              		.loc 1 122 0
 192 0020 BB1D     		adds	r3, r7, #6
 193 0022 1B78     		ldrb	r3, [r3]
 194 0024 1800     		movs	r0, r3
 195 0026 FFF7FEFF 		bl	LED_GREEN_PIN_Write
 123:..\..\common\lib\lib_LED/LED.c **** }
 196              		.loc 1 123 0
 197 002a C046     		nop
 198 002c BD46     		mov	sp, r7
 199 002e 02B0     		add	sp, sp, #8
 200              		@ sp needed
 201 0030 80BD     		pop	{r7, pc}
 202              		.cfi_endproc
 203              	.LFE66:
 204              		.size	SetLedsState, .-SetLedsState
 205 0032 C046     		.text
 206              	.Letext0:
 207              		.file 2 "c:\\program files (x86)\\cypress\\psoc creator\\4.1\\psoc creator\\import\\gnu\\arm\\5.4.
 208              		.file 3 "c:\\program files (x86)\\cypress\\psoc creator\\4.1\\psoc creator\\import\\gnu\\arm\\5.4.
 209              		.file 4 "Generated_Source\\PSoC4/cytypes.h"
 210              		.file 5 "./appGlobal.h"