ARM GAS  C:\Users\Petro\AppData\Local\Temp\ccXBAWyA.s 			page 1


   1              		.syntax unified
   2              		.cpu cortex-m0
   3              		.fpu softvfp
   4              		.eabi_attribute 20, 1
   5              		.eabi_attribute 21, 1
   6              		.eabi_attribute 23, 3
   7              		.eabi_attribute 24, 1
   8              		.eabi_attribute 25, 1
   9              		.eabi_attribute 26, 1
  10              		.eabi_attribute 30, 6
  11              		.eabi_attribute 34, 0
  12              		.eabi_attribute 18, 4
  13              		.thumb
  14              		.syntax unified
  15              		.file	"main.c"
  16              		.text
  17              	.Ltext0:
  18              		.cfi_sections	.debug_frame
  19              		.comm	currentState,1,1
  20              		.bss
  21              		.align	2
  22              	result:
  23 0000 00000000 		.space	4
  24              		.section	.text.main,"ax",%progbits
  25              		.align	2
  26              		.global	main
  27              		.code	16
  28              		.thumb_func
  29              		.type	main, %function
  30              	main:
  31              	.LFB63:
  32              		.file 1 "main.c"
   1:main.c        **** #include "appGlobal.h"
   2:main.c        **** 
   3:main.c        **** int main()
   4:main.c        **** {
  33              		.loc 1 4 0
  34              		.cfi_startproc
  35              		@ args = 0, pretend = 0, frame = 0
  36              		@ frame_needed = 1, uses_anonymous_args = 0
  37 0000 80B5     		push	{r7, lr}
  38              		.cfi_def_cfa_offset 8
  39              		.cfi_offset 7, -8
  40              		.cfi_offset 14, -4
  41 0002 00AF     		add	r7, sp, #0
  42              		.cfi_def_cfa_register 7
   5:main.c        ****     SystemInit();
  43              		.loc 1 5 0
  44 0004 FFF7FEFF 		bl	SystemInit
   6:main.c        ****     currentState = TIME_SYNC;
  45              		.loc 1 6 0
  46 0008 284B     		ldr	r3, .L16
  47 000a 0022     		movs	r2, #0
  48 000c 1A70     		strb	r2, [r3]
  49              	.L13:
   7:main.c        **** 
   8:main.c        ****     for(;;)
ARM GAS  C:\Users\Petro\AppData\Local\Temp\ccXBAWyA.s 			page 2


   9:main.c        ****     {
  10:main.c        ****         switch (currentState)
  50              		.loc 1 10 0
  51 000e 274B     		ldr	r3, .L16
  52 0010 1B78     		ldrb	r3, [r3]
  53 0012 012B     		cmp	r3, #1
  54 0014 15D0     		beq	.L3
  55 0016 02DC     		bgt	.L4
  56 0018 002B     		cmp	r3, #0
  57 001a 05D0     		beq	.L5
  58 001c 43E0     		b	.L2
  59              	.L4:
  60 001e 022B     		cmp	r3, #2
  61 0020 24D0     		beq	.L6
  62 0022 032B     		cmp	r3, #3
  63 0024 33D0     		beq	.L7
  64 0026 3EE0     		b	.L2
  65              	.L5:
  11:main.c        ****         {
  12:main.c        ****             case TIME_SYNC:
  13:main.c        ****             {
  14:main.c        ****                 result = TimeSynchronize();
  66              		.loc 1 14 0
  67 0028 FFF7FEFF 		bl	TimeSynchronize
  68 002c 0200     		movs	r2, r0
  69 002e 204B     		ldr	r3, .L16+4
  70 0030 1A60     		str	r2, [r3]
  15:main.c        ****                 if(result == TIME_SYNC_OK)
  71              		.loc 1 15 0
  72 0032 1F4B     		ldr	r3, .L16+4
  73 0034 1B68     		ldr	r3, [r3]
  74 0036 002B     		cmp	r3, #0
  75 0038 32D1     		bne	.L14
  16:main.c        ****                 {
  17:main.c        ****                     currentState = GET_FIN_STATUS;
  76              		.loc 1 17 0
  77 003a 1C4B     		ldr	r3, .L16
  78 003c 0122     		movs	r2, #1
  79 003e 1A70     		strb	r2, [r3]
  18:main.c        ****                 }
  19:main.c        ****                 break;
  80              		.loc 1 19 0
  81 0040 2EE0     		b	.L14
  82              	.L3:
  20:main.c        ****             }
  21:main.c        ****             case GET_FIN_STATUS:
  22:main.c        ****             {
  23:main.c        ****                 result = GetFinishStatus();
  83              		.loc 1 23 0
  84 0042 FFF7FEFF 		bl	GetFinishStatus
  85 0046 0200     		movs	r2, r0
  86 0048 194B     		ldr	r3, .L16+4
  87 004a 1A60     		str	r2, [r3]
  24:main.c        **** 
  25:main.c        ****                 if(result == NO_ERROR)
  88              		.loc 1 25 0
  89 004c 184B     		ldr	r3, .L16+4
ARM GAS  C:\Users\Petro\AppData\Local\Temp\ccXBAWyA.s 			page 3


  90 004e 1B68     		ldr	r3, [r3]
  91 0050 012B     		cmp	r3, #1
  92 0052 03D1     		bne	.L9
  26:main.c        ****                 {
  27:main.c        ****                     currentState = CHECK_GATE;                   
  93              		.loc 1 27 0
  94 0054 154B     		ldr	r3, .L16
  95 0056 0222     		movs	r2, #2
  96 0058 1A70     		strb	r2, [r3]
  28:main.c        ****                 }
  29:main.c        ****                 else if(result == REBOOT)  
  30:main.c        ****                 {
  31:main.c        ****                     currentState = TIME_SYNC;
  32:main.c        ****                 }
  33:main.c        ****                 break;
  97              		.loc 1 33 0
  98 005a 23E0     		b	.L15
  99              	.L9:
  29:main.c        ****                 {
 100              		.loc 1 29 0
 101 005c 144B     		ldr	r3, .L16+4
 102 005e 1B68     		ldr	r3, [r3]
 103 0060 FF2B     		cmp	r3, #255
 104 0062 1FD1     		bne	.L15
  31:main.c        ****                 }
 105              		.loc 1 31 0
 106 0064 114B     		ldr	r3, .L16
 107 0066 0022     		movs	r2, #0
 108 0068 1A70     		strb	r2, [r3]
 109              		.loc 1 33 0
 110 006a 1BE0     		b	.L15
 111              	.L6:
  34:main.c        ****             }
  35:main.c        ****             case CHECK_GATE:
  36:main.c        ****             {
  37:main.c        ****                 result = CheckGate();
 112              		.loc 1 37 0
 113 006c FFF7FEFF 		bl	CheckGate
 114 0070 0200     		movs	r2, r0
 115 0072 0F4B     		ldr	r3, .L16+4
 116 0074 1A60     		str	r2, [r3]
  38:main.c        ****                 if(result == GATE_OPEN)
 117              		.loc 1 38 0
 118 0076 0E4B     		ldr	r3, .L16+4
 119 0078 1B68     		ldr	r3, [r3]
 120 007a 012B     		cmp	r3, #1
 121 007c 03D1     		bne	.L11
  39:main.c        ****                 {
  40:main.c        ****                     currentState = SAVE_RESULT;
 122              		.loc 1 40 0
 123 007e 0B4B     		ldr	r3, .L16
 124 0080 0322     		movs	r2, #3
 125 0082 1A70     		strb	r2, [r3]
  41:main.c        ****                 }
  42:main.c        ****                 else
  43:main.c        ****                 {
  44:main.c        ****                     currentState = GET_FIN_STATUS;
ARM GAS  C:\Users\Petro\AppData\Local\Temp\ccXBAWyA.s 			page 4


  45:main.c        ****                 }
  46:main.c        ****                 break;
 126              		.loc 1 46 0
 127 0084 0FE0     		b	.L2
 128              	.L11:
  44:main.c        ****                 }
 129              		.loc 1 44 0
 130 0086 094B     		ldr	r3, .L16
 131 0088 0122     		movs	r2, #1
 132 008a 1A70     		strb	r2, [r3]
 133              		.loc 1 46 0
 134 008c 0BE0     		b	.L2
 135              	.L7:
  47:main.c        ****             }
  48:main.c        ****             case SAVE_RESULT:
  49:main.c        ****             {
  50:main.c        ****                 result = SaveResult();
 136              		.loc 1 50 0
 137 008e FFF7FEFF 		bl	SaveResult
 138 0092 0200     		movs	r2, r0
 139 0094 064B     		ldr	r3, .L16+4
 140 0096 1A60     		str	r2, [r3]
  51:main.c        ****                 currentState = GET_FIN_STATUS;
 141              		.loc 1 51 0
 142 0098 044B     		ldr	r3, .L16
 143 009a 0122     		movs	r2, #1
 144 009c 1A70     		strb	r2, [r3]
  52:main.c        ****     
  53:main.c        ****                 break;
 145              		.loc 1 53 0
 146 009e 02E0     		b	.L2
 147              	.L14:
  19:main.c        ****             }
 148              		.loc 1 19 0
 149 00a0 C046     		nop
 150 00a2 00E0     		b	.L2
 151              	.L15:
  33:main.c        ****             }
 152              		.loc 1 33 0
 153 00a4 C046     		nop
 154              	.L2:
  54:main.c        ****             }           
  55:main.c        ****         }
  56:main.c        ****         //CyDelay(TIMEOUT_STATE);
  57:main.c        ****         TaskCheck();
 155              		.loc 1 57 0
 156 00a6 FFF7FEFF 		bl	TaskCheck
  58:main.c        ****     }
 157              		.loc 1 58 0
 158 00aa B0E7     		b	.L13
 159              	.L17:
 160              		.align	2
 161              	.L16:
 162 00ac 00000000 		.word	currentState
 163 00b0 00000000 		.word	result
 164              		.cfi_endproc
 165              	.LFE63:
ARM GAS  C:\Users\Petro\AppData\Local\Temp\ccXBAWyA.s 			page 5


 166              		.size	main, .-main
 167              		.section	.rodata
 168              		.align	2
 169              	.LC2:
 170 0000 53797374 		.ascii	"System init...\000"
 170      656D2069 
 170      6E69742E 
 170      2E2E00
 171              		.section	.text.SystemInit,"ax",%progbits
 172              		.align	2
 173              		.global	SystemInit
 174              		.code	16
 175              		.thumb_func
 176              		.type	SystemInit, %function
 177              	SystemInit:
 178              	.LFB64:
  59:main.c        **** }
  60:main.c        **** 
  61:main.c        **** void  SystemInit(void)
  62:main.c        **** {   
 179              		.loc 1 62 0
 180              		.cfi_startproc
 181              		@ args = 0, pretend = 0, frame = 0
 182              		@ frame_needed = 1, uses_anonymous_args = 0
 183 0000 80B5     		push	{r7, lr}
 184              		.cfi_def_cfa_offset 8
 185              		.cfi_offset 7, -8
 186              		.cfi_offset 14, -4
 187 0002 00AF     		add	r7, sp, #0
 188              		.cfi_def_cfa_register 7
  63:main.c        ****     SetRebootFlag();
 189              		.loc 1 63 0
 190 0004 FFF7FEFF 		bl	SetRebootFlag
  64:main.c        ****     LedInit();
 191              		.loc 1 64 0
 192 0008 FFF7FEFF 		bl	LedInit
  65:main.c        ****     SetLedsState(LED_ENABLE, LED_DISABLE);
 193              		.loc 1 65 0
 194 000c 0021     		movs	r1, #0
 195 000e 0120     		movs	r0, #1
 196 0010 FFF7FEFF 		bl	SetLedsState
  66:main.c        ****     
  67:main.c        ****     DisplayStart();
 197              		.loc 1 67 0
 198 0014 FFF7FEFF 		bl	DisplayStart
  68:main.c        ****     Display("System init...");
 199              		.loc 1 68 0
 200 0018 124B     		ldr	r3, .L19
 201 001a 1800     		movs	r0, r3
 202 001c FFF7FEFF 		bl	Display
  69:main.c        ****     DisplaBacklightOn();
 203              		.loc 1 69 0
 204 0020 FFF7FEFF 		bl	DisplaBacklightOn
  70:main.c        ****     
  71:main.c        ****     RTC_WDT_Init();
 205              		.loc 1 71 0
 206 0024 FFF7FEFF 		bl	RTC_WDT_Init
ARM GAS  C:\Users\Petro\AppData\Local\Temp\ccXBAWyA.s 			page 6


  72:main.c        ****     InitNetwork();
 207              		.loc 1 72 0
 208 0028 FFF7FEFF 		bl	InitNetwork
  73:main.c        ****     GateInit();
 209              		.loc 1 73 0
 210 002c FFF7FEFF 		bl	GateInit
  74:main.c        ****     BattADC_Init();
 211              		.loc 1 74 0
 212 0030 FFF7FEFF 		bl	BattADC_Init
  75:main.c        ****     ButtInit();
 213              		.loc 1 75 0
 214 0034 FFF7FEFF 		bl	ButtInit
  76:main.c        ****     
  77:main.c        ****     TaskTimerInit();    
 215              		.loc 1 77 0
 216 0038 FFF7FEFF 		bl	TaskTimerInit
  78:main.c        ****     SetTaskTimer(ACTION1, ACTION1_TIMEOUT); //network
 217              		.loc 1 78 0
 218 003c FA23     		movs	r3, #250
 219 003e 5B00     		lsls	r3, r3, #1
 220 0040 1900     		movs	r1, r3
 221 0042 0020     		movs	r0, #0
 222 0044 FFF7FEFF 		bl	SetTaskTimer
  79:main.c        ****     SetTaskTimer(ACTION2, ACTION2_TIMEOUT); //display real time
 223              		.loc 1 79 0
 224 0048 6421     		movs	r1, #100
 225 004a 0120     		movs	r0, #1
 226 004c FFF7FEFF 		bl	SetTaskTimer
  80:main.c        ****     SetTaskTimer(ACTION3, ACTION3_TIMEOUT); //display indicator
 227              		.loc 1 80 0
 228 0050 FA23     		movs	r3, #250
 229 0052 5B00     		lsls	r3, r3, #1
 230 0054 1900     		movs	r1, r3
 231 0056 0220     		movs	r0, #2
 232 0058 FFF7FEFF 		bl	SetTaskTimer
  81:main.c        ****     
  82:main.c        ****     /* Enable global interrupts. */ 
  83:main.c        ****     CyGlobalIntEnable; 
 233              		.loc 1 83 0
 234              		.syntax divided
 235              	@ 83 "main.c" 1
 236 005c 62B6     		CPSIE   i
 237              	@ 0 "" 2
  84:main.c        ****     
  85:main.c        **** }
 238              		.loc 1 85 0
 239              		.thumb
 240              		.syntax unified
 241 005e C046     		nop
 242 0060 BD46     		mov	sp, r7
 243              		@ sp needed
 244 0062 80BD     		pop	{r7, pc}
 245              	.L20:
 246              		.align	2
 247              	.L19:
 248 0064 00000000 		.word	.LC2
 249              		.cfi_endproc
ARM GAS  C:\Users\Petro\AppData\Local\Temp\ccXBAWyA.s 			page 7


 250              	.LFE64:
 251              		.size	SystemInit, .-SystemInit
 252              		.section	.rodata
 253 000f 00       		.align	2
 254              	.LC4:
 255 0010 436F6E6E 		.ascii	"Connect...\000"
 255      6563742E 
 255      2E2E00
 256 001b 00       		.align	2
 257              	.LC6:
 258 001c 53796E63 		.ascii	"Sync time...\000"
 258      2074696D 
 258      652E2E2E 
 258      00
 259 0029 000000   		.align	2
 260              	.LC8:
 261 002c 20205379 		.ascii	"  Sync ok\000"
 261      6E63206F 
 261      6B00
 262 0036 0000     		.align	2
 263              	.LC10:
 264 0038 53796E63 		.ascii	"Sync error\000"
 264      20657272 
 264      6F7200
 265              		.section	.text.TimeSynchronize,"ax",%progbits
 266              		.align	2
 267              		.global	TimeSynchronize
 268              		.code	16
 269              		.thumb_func
 270              		.type	TimeSynchronize, %function
 271              	TimeSynchronize:
 272              	.LFB65:
  86:main.c        **** 
  87:main.c        **** uint32_t TimeSynchronize(void)
  88:main.c        **** {
 273              		.loc 1 88 0
 274              		.cfi_startproc
 275              		@ args = 0, pretend = 0, frame = 8
 276              		@ frame_needed = 1, uses_anonymous_args = 0
 277 0000 80B5     		push	{r7, lr}
 278              		.cfi_def_cfa_offset 8
 279              		.cfi_offset 7, -8
 280              		.cfi_offset 14, -4
 281 0002 82B0     		sub	sp, sp, #8
 282              		.cfi_def_cfa_offset 16
 283 0004 00AF     		add	r7, sp, #0
 284              		.cfi_def_cfa_register 7
  89:main.c        ****     uint32_t result;
  90:main.c        ****     
  91:main.c        ****     SetLedsState(LED_ENABLE, LED_DISABLE);
 285              		.loc 1 91 0
 286 0006 0021     		movs	r1, #0
 287 0008 0120     		movs	r0, #1
 288 000a FFF7FEFF 		bl	SetLedsState
  92:main.c        ****     
  93:main.c        ****     /*network connect*/
  94:main.c        ****     if(NetworkStatus() == NETWORK_DISCONN)
ARM GAS  C:\Users\Petro\AppData\Local\Temp\ccXBAWyA.s 			page 8


 289              		.loc 1 94 0
 290 000e FFF7FEFF 		bl	NetworkStatus
 291 0012 031E     		subs	r3, r0, #0
 292 0014 09D1     		bne	.L22
  95:main.c        ****     {
  96:main.c        ****         Display("Connect...");
 293              		.loc 1 96 0
 294 0016 194B     		ldr	r3, .L26
 295 0018 1800     		movs	r0, r3
 296 001a FFF7FEFF 		bl	Display
  97:main.c        ****         Delay(TIMEOUT_STATE);
 297              		.loc 1 97 0
 298 001e FA23     		movs	r3, #250
 299 0020 5B00     		lsls	r3, r3, #1
 300 0022 1800     		movs	r0, r3
 301 0024 FFF7FEFF 		bl	Delay
 302 0028 22E0     		b	.L23
 303              	.L22:
  98:main.c        ****     }
  99:main.c        ****     else
 100:main.c        ****     {
 101:main.c        ****         /*time sync*/
 102:main.c        ****         Display("Sync time...");
 304              		.loc 1 102 0
 305 002a 154B     		ldr	r3, .L26+4
 306 002c 1800     		movs	r0, r3
 307 002e FFF7FEFF 		bl	Display
 103:main.c        ****         
 104:main.c        ****         if(NTPsync() == TIME_SYNC_OK)
 308              		.loc 1 104 0
 309 0032 FFF7FEFF 		bl	NTPsync
 310 0036 031E     		subs	r3, r0, #0
 311 0038 0DD1     		bne	.L24
 105:main.c        ****         {
 106:main.c        ****             Display("  Sync ok");
 312              		.loc 1 106 0
 313 003a 124B     		ldr	r3, .L26+8
 314 003c 1800     		movs	r0, r3
 315 003e FFF7FEFF 		bl	Display
 107:main.c        ****             ClearRebootFlag();
 316              		.loc 1 107 0
 317 0042 FFF7FEFF 		bl	ClearRebootFlag
 108:main.c        ****             Delay(TIMEOUT_USER_READ_INFO);
 318              		.loc 1 108 0
 319 0046 FA23     		movs	r3, #250
 320 0048 5B00     		lsls	r3, r3, #1
 321 004a 1800     		movs	r0, r3
 322 004c FFF7FEFF 		bl	Delay
 109:main.c        ****             
 110:main.c        ****             result = TIME_SYNC_OK;
 323              		.loc 1 110 0
 324 0050 0023     		movs	r3, #0
 325 0052 7B60     		str	r3, [r7, #4]
 326 0054 0CE0     		b	.L23
 327              	.L24:
 111:main.c        ****         }
 112:main.c        ****         else
ARM GAS  C:\Users\Petro\AppData\Local\Temp\ccXBAWyA.s 			page 9


 113:main.c        ****         {
 114:main.c        ****             Display("Sync error");
 328              		.loc 1 114 0
 329 0056 0C4B     		ldr	r3, .L26+12
 330 0058 1800     		movs	r0, r3
 331 005a FFF7FEFF 		bl	Display
 115:main.c        ****             SetRebootFlag();
 332              		.loc 1 115 0
 333 005e FFF7FEFF 		bl	SetRebootFlag
 116:main.c        ****             Delay(TIMEOUT_USER_READ_INFO);
 334              		.loc 1 116 0
 335 0062 FA23     		movs	r3, #250
 336 0064 5B00     		lsls	r3, r3, #1
 337 0066 1800     		movs	r0, r3
 338 0068 FFF7FEFF 		bl	Delay
 117:main.c        ****       
 118:main.c        ****             result = TIME_SYNC_ERR;
 339              		.loc 1 118 0
 340 006c 0123     		movs	r3, #1
 341 006e 7B60     		str	r3, [r7, #4]
 342              	.L23:
 119:main.c        ****         }
 120:main.c        ****     }
 121:main.c        ****     
 122:main.c        ****     return result;
 343              		.loc 1 122 0
 344 0070 7B68     		ldr	r3, [r7, #4]
 123:main.c        **** }
 345              		.loc 1 123 0
 346 0072 1800     		movs	r0, r3
 347 0074 BD46     		mov	sp, r7
 348 0076 02B0     		add	sp, sp, #8
 349              		@ sp needed
 350 0078 80BD     		pop	{r7, pc}
 351              	.L27:
 352 007a C046     		.align	2
 353              	.L26:
 354 007c 10000000 		.word	.LC4
 355 0080 1C000000 		.word	.LC6
 356 0084 2C000000 		.word	.LC8
 357 0088 38000000 		.word	.LC10
 358              		.cfi_endproc
 359              	.LFE65:
 360              		.size	TimeSynchronize, .-TimeSynchronize
 361              		.section	.rodata
 362 0043 00       		.align	2
 363              	.LC12:
 364 0044 204E6F20 		.ascii	" No ready\000"
 364      72656164 
 364      7900
 365              		.section	.text.GetFinishStatus,"ax",%progbits
 366              		.align	2
 367              		.global	GetFinishStatus
 368              		.code	16
 369              		.thumb_func
 370              		.type	GetFinishStatus, %function
 371              	GetFinishStatus:
ARM GAS  C:\Users\Petro\AppData\Local\Temp\ccXBAWyA.s 			page 10


 372              	.LFB66:
 124:main.c        **** 
 125:main.c        **** uint32_t GetFinishStatus(void)
 126:main.c        **** {
 373              		.loc 1 126 0
 374              		.cfi_startproc
 375              		@ args = 0, pretend = 0, frame = 8
 376              		@ frame_needed = 1, uses_anonymous_args = 0
 377 0000 80B5     		push	{r7, lr}
 378              		.cfi_def_cfa_offset 8
 379              		.cfi_offset 7, -8
 380              		.cfi_offset 14, -4
 381 0002 82B0     		sub	sp, sp, #8
 382              		.cfi_def_cfa_offset 16
 383 0004 00AF     		add	r7, sp, #0
 384              		.cfi_def_cfa_register 7
 127:main.c        ****     uint32_t result;
 128:main.c        ****     
 129:main.c        ****     if (NetworkStatus() == NETWORK_DISCONN || FinWriteInDB() == NO_WRITE || FinReady() == NO_READY)
 385              		.loc 1 129 0
 386 0006 FFF7FEFF 		bl	NetworkStatus
 387 000a 031E     		subs	r3, r0, #0
 388 000c 07D0     		beq	.L29
 389              		.loc 1 129 0 is_stmt 0 discriminator 1
 390 000e FFF7FEFF 		bl	FinWriteInDB
 391 0012 031E     		subs	r3, r0, #0
 392 0014 03D0     		beq	.L29
 393              		.loc 1 129 0 discriminator 2
 394 0016 FFF7FEFF 		bl	FinReady
 395 001a 031E     		subs	r3, r0, #0
 396 001c 11D1     		bne	.L30
 397              	.L29:
 130:main.c        ****     {
 131:main.c        ****         //LedRedBlink(FREQ_ERR_BLINK);
 132:main.c        ****         SetLedsState(LED_ENABLE, LED_DISABLE);
 398              		.loc 1 132 0 is_stmt 1
 399 001e 0021     		movs	r1, #0
 400 0020 0120     		movs	r0, #1
 401 0022 FFF7FEFF 		bl	SetLedsState
 133:main.c        ****         Display(" No ready");
 402              		.loc 1 133 0
 403 0026 0F4B     		ldr	r3, .L34
 404 0028 1800     		movs	r0, r3
 405 002a FFF7FEFF 		bl	Display
 134:main.c        ****         DisAllowNextSkier();
 406              		.loc 1 134 0
 407 002e FFF7FEFF 		bl	DisAllowNextSkier
 135:main.c        ****         Delay(TIMEOUT_USER_READ_INFO);
 408              		.loc 1 135 0
 409 0032 FA23     		movs	r3, #250
 410 0034 5B00     		lsls	r3, r3, #1
 411 0036 1800     		movs	r0, r3
 412 0038 FFF7FEFF 		bl	Delay
 136:main.c        ****         result = ERROR;
 413              		.loc 1 136 0
 414 003c 0023     		movs	r3, #0
 415 003e 7B60     		str	r3, [r7, #4]
ARM GAS  C:\Users\Petro\AppData\Local\Temp\ccXBAWyA.s 			page 11


 416 0040 01E0     		b	.L31
 417              	.L30:
 137:main.c        ****     }
 138:main.c        ****     else
 139:main.c        ****     {
 140:main.c        ****         result = NO_ERROR;
 418              		.loc 1 140 0
 419 0042 0123     		movs	r3, #1
 420 0044 7B60     		str	r3, [r7, #4]
 421              	.L31:
 141:main.c        ****     }
 142:main.c        ****     
 143:main.c        ****     if(IsRebootFinishFlag() == REBOOT)
 422              		.loc 1 143 0
 423 0046 FFF7FEFF 		bl	IsRebootFinishFlag
 424 004a 0300     		movs	r3, r0
 425 004c FF2B     		cmp	r3, #255
 426 004e 01D1     		bne	.L32
 144:main.c        ****     {
 145:main.c        ****         result = REBOOT;    
 427              		.loc 1 145 0
 428 0050 FF23     		movs	r3, #255
 429 0052 7B60     		str	r3, [r7, #4]
 430              	.L32:
 146:main.c        ****     }
 147:main.c        ****     
 148:main.c        ****     TestMode();
 431              		.loc 1 148 0
 432 0054 FFF7FEFF 		bl	TestMode
 149:main.c        ****     
 150:main.c        ****     return result;
 433              		.loc 1 150 0
 434 0058 7B68     		ldr	r3, [r7, #4]
 151:main.c        ****     
 152:main.c        **** }
 435              		.loc 1 152 0
 436 005a 1800     		movs	r0, r3
 437 005c BD46     		mov	sp, r7
 438 005e 02B0     		add	sp, sp, #8
 439              		@ sp needed
 440 0060 80BD     		pop	{r7, pc}
 441              	.L35:
 442 0062 C046     		.align	2
 443              	.L34:
 444 0064 44000000 		.word	.LC12
 445              		.cfi_endproc
 446              	.LFE66:
 447              		.size	GetFinishStatus, .-GetFinishStatus
 448              		.section	.rodata
 449 004e 0000     		.align	2
 450              	.LC14:
 451 0050 536B6965 		.ascii	"Skier Started\000"
 451      72205374 
 451      61727465 
 451      6400
 452 005e 0000     		.align	2
 453              	.LC16:
ARM GAS  C:\Users\Petro\AppData\Local\Temp\ccXBAWyA.s 			page 12


 454 0060 53746172 		.ascii	"Start ready\000"
 454      74207265 
 454      61647900 
 455              		.section	.text.CheckGate,"ax",%progbits
 456              		.align	2
 457              		.global	CheckGate
 458              		.code	16
 459              		.thumb_func
 460              		.type	CheckGate, %function
 461              	CheckGate:
 462              	.LFB67:
 153:main.c        **** 
 154:main.c        **** uint32_t CheckGate(void)
 155:main.c        **** {
 463              		.loc 1 155 0
 464              		.cfi_startproc
 465              		@ args = 0, pretend = 0, frame = 8
 466              		@ frame_needed = 1, uses_anonymous_args = 0
 467 0000 80B5     		push	{r7, lr}
 468              		.cfi_def_cfa_offset 8
 469              		.cfi_offset 7, -8
 470              		.cfi_offset 14, -4
 471 0002 82B0     		sub	sp, sp, #8
 472              		.cfi_def_cfa_offset 16
 473 0004 00AF     		add	r7, sp, #0
 474              		.cfi_def_cfa_register 7
 156:main.c        ****     uint32_t result;
 157:main.c        ****     
 158:main.c        ****     result = GateIsOpen();
 475              		.loc 1 158 0
 476 0006 FFF7FEFF 		bl	GateIsOpen
 477 000a 0300     		movs	r3, r0
 478 000c 7B60     		str	r3, [r7, #4]
 159:main.c        ****     
 160:main.c        ****     if(result == GATE_OPEN)
 479              		.loc 1 160 0
 480 000e 7B68     		ldr	r3, [r7, #4]
 481 0010 012B     		cmp	r3, #1
 482 0012 0FD1     		bne	.L37
 161:main.c        ****     {
 162:main.c        ****         DisAllowNextSkier();
 483              		.loc 1 162 0
 484 0014 FFF7FEFF 		bl	DisAllowNextSkier
 163:main.c        ****         Display("Skier Started");
 485              		.loc 1 163 0
 486 0018 0E4B     		ldr	r3, .L40
 487 001a 1800     		movs	r0, r3
 488 001c FFF7FEFF 		bl	Display
 164:main.c        ****         SetLedsState(LED_ENABLE, LED_DISABLE);
 489              		.loc 1 164 0
 490 0020 0021     		movs	r1, #0
 491 0022 0120     		movs	r0, #1
 492 0024 FFF7FEFF 		bl	SetLedsState
 165:main.c        ****         Delay(TIMEOUT_USER_READ_INFO);
 493              		.loc 1 165 0
 494 0028 FA23     		movs	r3, #250
 495 002a 5B00     		lsls	r3, r3, #1
ARM GAS  C:\Users\Petro\AppData\Local\Temp\ccXBAWyA.s 			page 13


 496 002c 1800     		movs	r0, r3
 497 002e FFF7FEFF 		bl	Delay
 498 0032 09E0     		b	.L38
 499              	.L37:
 166:main.c        ****     }
 167:main.c        ****     else
 168:main.c        ****     {
 169:main.c        ****         Display("Start ready");
 500              		.loc 1 169 0
 501 0034 084B     		ldr	r3, .L40+4
 502 0036 1800     		movs	r0, r3
 503 0038 FFF7FEFF 		bl	Display
 170:main.c        ****         SetLedsState(LED_DISABLE, LED_ENABLE);
 504              		.loc 1 170 0
 505 003c 0121     		movs	r1, #1
 506 003e 0020     		movs	r0, #0
 507 0040 FFF7FEFF 		bl	SetLedsState
 171:main.c        ****         AllowNextSkier();
 508              		.loc 1 171 0
 509 0044 FFF7FEFF 		bl	AllowNextSkier
 510              	.L38:
 172:main.c        ****     }
 173:main.c        **** 
 174:main.c        ****     return result;
 511              		.loc 1 174 0
 512 0048 7B68     		ldr	r3, [r7, #4]
 175:main.c        ****     
 176:main.c        **** }
 513              		.loc 1 176 0
 514 004a 1800     		movs	r0, r3
 515 004c BD46     		mov	sp, r7
 516 004e 02B0     		add	sp, sp, #8
 517              		@ sp needed
 518 0050 80BD     		pop	{r7, pc}
 519              	.L41:
 520 0052 C046     		.align	2
 521              	.L40:
 522 0054 50000000 		.word	.LC14
 523 0058 60000000 		.word	.LC16
 524              		.cfi_endproc
 525              	.LFE67:
 526              		.size	CheckGate, .-CheckGate
 527              		.section	.rodata
 528              		.align	2
 529              	.LC18:
 530 006c 53617665 		.ascii	"Save result\000"
 530      20726573 
 530      756C7400 
 531              		.align	2
 532              	.LC20:
 533 0078 4E657874 		.ascii	"Next skier\000"
 533      20736B69 
 533      657200
 534              		.section	.text.SaveResult,"ax",%progbits
 535              		.align	2
 536              		.global	SaveResult
 537              		.code	16
ARM GAS  C:\Users\Petro\AppData\Local\Temp\ccXBAWyA.s 			page 14


 538              		.thumb_func
 539              		.type	SaveResult, %function
 540              	SaveResult:
 541              	.LFB68:
 177:main.c        **** 
 178:main.c        **** uint32_t SaveResult(void)
 179:main.c        **** {
 542              		.loc 1 179 0
 543              		.cfi_startproc
 544              		@ args = 0, pretend = 0, frame = 24
 545              		@ frame_needed = 1, uses_anonymous_args = 0
 546 0000 90B5     		push	{r4, r7, lr}
 547              		.cfi_def_cfa_offset 12
 548              		.cfi_offset 4, -12
 549              		.cfi_offset 7, -8
 550              		.cfi_offset 14, -4
 551 0002 87B0     		sub	sp, sp, #28
 552              		.cfi_def_cfa_offset 40
 553 0004 00AF     		add	r7, sp, #0
 554              		.cfi_def_cfa_register 7
 180:main.c        ****     uint32_t result;
 181:main.c        ****     uint64_t startUnixTime;
 182:main.c        ****     uint32_t startRecentMs;
 183:main.c        ****     
 184:main.c        ****     //LedRedBlink(FREQ_INIT_BLINK);
 185:main.c        ****     SetLedsState(LED_ENABLE, LED_DISABLE);
 555              		.loc 1 185 0
 556 0006 0021     		movs	r1, #0
 557 0008 0120     		movs	r0, #1
 558 000a FFF7FEFF 		bl	SetLedsState
 186:main.c        ****     
 187:main.c        ****     Display("Save result");
 559              		.loc 1 187 0
 560 000e 134B     		ldr	r3, .L44
 561 0010 1800     		movs	r0, r3
 562 0012 FFF7FEFF 		bl	Display
 188:main.c        ****     
 189:main.c        ****     GetStartTime(&startUnixTime, &startRecentMs);
 563              		.loc 1 189 0
 564 0016 3A1D     		adds	r2, r7, #4
 565 0018 0823     		movs	r3, #8
 566 001a FB18     		adds	r3, r7, r3
 567 001c 1100     		movs	r1, r2
 568 001e 1800     		movs	r0, r3
 569 0020 FFF7FEFF 		bl	GetStartTime
 190:main.c        ****     SendSkierStart(startUnixTime, startRecentMs);
 570              		.loc 1 190 0
 571 0024 BB68     		ldr	r3, [r7, #8]
 572 0026 FC68     		ldr	r4, [r7, #12]
 573 0028 7A68     		ldr	r2, [r7, #4]
 574 002a 1800     		movs	r0, r3
 575 002c 2100     		movs	r1, r4
 576 002e FFF7FEFF 		bl	SendSkierStart
 191:main.c        ****     Delay(TIMEOUT_USER_READ_INFO);
 577              		.loc 1 191 0
 578 0032 FA23     		movs	r3, #250
 579 0034 5B00     		lsls	r3, r3, #1
ARM GAS  C:\Users\Petro\AppData\Local\Temp\ccXBAWyA.s 			page 15


 580 0036 1800     		movs	r0, r3
 581 0038 FFF7FEFF 		bl	Delay
 192:main.c        ****     
 193:main.c        ****     Display("Next skier");
 582              		.loc 1 193 0
 583 003c 084B     		ldr	r3, .L44+4
 584 003e 1800     		movs	r0, r3
 585 0040 FFF7FEFF 		bl	Display
 194:main.c        ****     Delay(TIMEOUT_NEXT_SKIER);
 586              		.loc 1 194 0
 587 0044 074B     		ldr	r3, .L44+8
 588 0046 1800     		movs	r0, r3
 589 0048 FFF7FEFF 		bl	Delay
 195:main.c        ****     
 196:main.c        ****     result = NO_ERROR;
 590              		.loc 1 196 0
 591 004c 0123     		movs	r3, #1
 592 004e 7B61     		str	r3, [r7, #20]
 197:main.c        ****     
 198:main.c        ****     return result;
 593              		.loc 1 198 0
 594 0050 7B69     		ldr	r3, [r7, #20]
 199:main.c        ****     
 200:main.c        **** }
 595              		.loc 1 200 0
 596 0052 1800     		movs	r0, r3
 597 0054 BD46     		mov	sp, r7
 598 0056 07B0     		add	sp, sp, #28
 599              		@ sp needed
 600 0058 90BD     		pop	{r4, r7, pc}
 601              	.L45:
 602 005a C046     		.align	2
 603              	.L44:
 604 005c 6C000000 		.word	.LC18
 605 0060 78000000 		.word	.LC20
 606 0064 B80B0000 		.word	3000
 607              		.cfi_endproc
 608              	.LFE68:
 609              		.size	SaveResult, .-SaveResult
 610              		.section	.text.Delay,"ax",%progbits
 611              		.align	2
 612              		.global	Delay
 613              		.code	16
 614              		.thumb_func
 615              		.type	Delay, %function
 616              	Delay:
 617              	.LFB69:
 201:main.c        **** 
 202:main.c        **** void Delay(uint32_t delayMs)
 203:main.c        **** {
 618              		.loc 1 203 0
 619              		.cfi_startproc
 620              		@ args = 0, pretend = 0, frame = 8
 621              		@ frame_needed = 1, uses_anonymous_args = 0
 622 0000 80B5     		push	{r7, lr}
 623              		.cfi_def_cfa_offset 8
 624              		.cfi_offset 7, -8
ARM GAS  C:\Users\Petro\AppData\Local\Temp\ccXBAWyA.s 			page 16


 625              		.cfi_offset 14, -4
 626 0002 82B0     		sub	sp, sp, #8
 627              		.cfi_def_cfa_offset 16
 628 0004 00AF     		add	r7, sp, #0
 629              		.cfi_def_cfa_register 7
 630 0006 7860     		str	r0, [r7, #4]
 204:main.c        ****     while(delayMs --)
 631              		.loc 1 204 0
 632 0008 04E0     		b	.L47
 633              	.L48:
 205:main.c        ****     {
 206:main.c        ****         CyDelay(1);
 634              		.loc 1 206 0
 635 000a 0120     		movs	r0, #1
 636 000c FFF7FEFF 		bl	CyDelay
 207:main.c        ****         TaskCheck();
 637              		.loc 1 207 0
 638 0010 FFF7FEFF 		bl	TaskCheck
 639              	.L47:
 204:main.c        ****     while(delayMs --)
 640              		.loc 1 204 0
 641 0014 7B68     		ldr	r3, [r7, #4]
 642 0016 5A1E     		subs	r2, r3, #1
 643 0018 7A60     		str	r2, [r7, #4]
 644 001a 002B     		cmp	r3, #0
 645 001c F5D1     		bne	.L48
 208:main.c        ****     }
 209:main.c        **** }
 646              		.loc 1 209 0
 647 001e C046     		nop
 648 0020 BD46     		mov	sp, r7
 649 0022 02B0     		add	sp, sp, #8
 650              		@ sp needed
 651 0024 80BD     		pop	{r7, pc}
 652              		.cfi_endproc
 653              	.LFE69:
 654              		.size	Delay, .-Delay
 655 0026 C046     		.text
 656              	.Letext0:
 657              		.file 2 "c:\\program files (x86)\\cypress\\psoc creator\\4.1\\psoc creator\\import\\gnu\\arm\\5.4.
 658              		.file 3 "c:\\program files (x86)\\cypress\\psoc creator\\4.1\\psoc creator\\import\\gnu\\arm\\5.4.
 659              		.file 4 "..\\..\\common\\lib\\lib_TaskTimer\\taskAutomat.h"
 660              		.file 5 "appGlobal.h"
 661              		.section	.debug_info,"",%progbits
 662              	.Ldebug_info0:
 663 0000 3A020000 		.4byte	0x23a
 664 0004 0400     		.2byte	0x4
 665 0006 00000000 		.4byte	.Ldebug_abbrev0
 666 000a 04       		.byte	0x4
 667 000b 01       		.uleb128 0x1
 668 000c E4000000 		.4byte	.LASF37
 669 0010 0C       		.byte	0xc
 670 0011 2C020000 		.4byte	.LASF38
 671 0015 A8000000 		.4byte	.LASF39
 672 0019 00000000 		.4byte	.Ldebug_ranges0+0
 673 001d 00000000 		.4byte	0
 674 0021 00000000 		.4byte	.Ldebug_line0
ARM GAS  C:\Users\Petro\AppData\Local\Temp\ccXBAWyA.s 			page 17


 675 0025 02       		.uleb128 0x2
 676 0026 01       		.byte	0x1
 677 0027 06       		.byte	0x6
 678 0028 6B020000 		.4byte	.LASF0
 679 002c 02       		.uleb128 0x2
 680 002d 01       		.byte	0x1
 681 002e 08       		.byte	0x8
 682 002f 6D000000 		.4byte	.LASF1
 683 0033 02       		.uleb128 0x2
 684 0034 02       		.byte	0x2
 685 0035 05       		.byte	0x5
 686 0036 38020000 		.4byte	.LASF2
 687 003a 02       		.uleb128 0x2
 688 003b 02       		.byte	0x2
 689 003c 07       		.byte	0x7
 690 003d 95000000 		.4byte	.LASF3
 691 0041 02       		.uleb128 0x2
 692 0042 04       		.byte	0x4
 693 0043 05       		.byte	0x5
 694 0044 56020000 		.4byte	.LASF4
 695 0048 03       		.uleb128 0x3
 696 0049 8E010000 		.4byte	.LASF7
 697 004d 02       		.byte	0x2
 698 004e 41       		.byte	0x41
 699 004f 53000000 		.4byte	0x53
 700 0053 02       		.uleb128 0x2
 701 0054 04       		.byte	0x4
 702 0055 07       		.byte	0x7
 703 0056 83000000 		.4byte	.LASF5
 704 005a 02       		.uleb128 0x2
 705 005b 08       		.byte	0x8
 706 005c 05       		.byte	0x5
 707 005d 1E020000 		.4byte	.LASF6
 708 0061 03       		.uleb128 0x3
 709 0062 42020000 		.4byte	.LASF8
 710 0066 02       		.byte	0x2
 711 0067 5B       		.byte	0x5b
 712 0068 6C000000 		.4byte	0x6c
 713 006c 02       		.uleb128 0x2
 714 006d 08       		.byte	0x8
 715 006e 07       		.byte	0x7
 716 006f D3010000 		.4byte	.LASF9
 717 0073 04       		.uleb128 0x4
 718 0074 04       		.byte	0x4
 719 0075 05       		.byte	0x5
 720 0076 696E7400 		.ascii	"int\000"
 721 007a 02       		.uleb128 0x2
 722 007b 04       		.byte	0x4
 723 007c 07       		.byte	0x7
 724 007d C6010000 		.4byte	.LASF10
 725 0081 03       		.uleb128 0x3
 726 0082 4D020000 		.4byte	.LASF11
 727 0086 03       		.byte	0x3
 728 0087 30       		.byte	0x30
 729 0088 48000000 		.4byte	0x48
 730 008c 03       		.uleb128 0x3
 731 008d 5E000000 		.4byte	.LASF12
ARM GAS  C:\Users\Petro\AppData\Local\Temp\ccXBAWyA.s 			page 18


 732 0091 03       		.byte	0x3
 733 0092 3C       		.byte	0x3c
 734 0093 61000000 		.4byte	0x61
 735 0097 02       		.uleb128 0x2
 736 0098 04       		.byte	0x4
 737 0099 04       		.byte	0x4
 738 009a 67000000 		.4byte	.LASF13
 739 009e 02       		.uleb128 0x2
 740 009f 08       		.byte	0x8
 741 00a0 04       		.byte	0x4
 742 00a1 7D010000 		.4byte	.LASF14
 743 00a5 02       		.uleb128 0x2
 744 00a6 01       		.byte	0x1
 745 00a7 08       		.byte	0x8
 746 00a8 33020000 		.4byte	.LASF15
 747 00ac 02       		.uleb128 0x2
 748 00ad 08       		.byte	0x8
 749 00ae 04       		.byte	0x4
 750 00af 5F020000 		.4byte	.LASF16
 751 00b3 02       		.uleb128 0x2
 752 00b4 04       		.byte	0x4
 753 00b5 07       		.byte	0x7
 754 00b6 15020000 		.4byte	.LASF17
 755 00ba 05       		.uleb128 0x5
 756 00bb 01       		.byte	0x1
 757 00bc 2C000000 		.4byte	0x2c
 758 00c0 04       		.byte	0x4
 759 00c1 16       		.byte	0x16
 760 00c2 E5000000 		.4byte	0xe5
 761 00c6 06       		.uleb128 0x6
 762 00c7 2C000000 		.4byte	.LASF18
 763 00cb 00       		.byte	0
 764 00cc 06       		.uleb128 0x6
 765 00cd 34000000 		.4byte	.LASF19
 766 00d1 01       		.byte	0x1
 767 00d2 06       		.uleb128 0x6
 768 00d3 3C000000 		.4byte	.LASF20
 769 00d7 02       		.byte	0x2
 770 00d8 06       		.uleb128 0x6
 771 00d9 44000000 		.4byte	.LASF21
 772 00dd 03       		.byte	0x3
 773 00de 06       		.uleb128 0x6
 774 00df 4C000000 		.4byte	.LASF22
 775 00e3 04       		.byte	0x4
 776 00e4 00       		.byte	0
 777 00e5 05       		.uleb128 0x5
 778 00e6 01       		.byte	0x1
 779 00e7 2C000000 		.4byte	0x2c
 780 00eb 05       		.byte	0x5
 781 00ec 18       		.byte	0x18
 782 00ed 0A010000 		.4byte	0x10a
 783 00f1 06       		.uleb128 0x6
 784 00f2 84010000 		.4byte	.LASF23
 785 00f6 00       		.byte	0
 786 00f7 06       		.uleb128 0x6
 787 00f8 00000000 		.4byte	.LASF24
 788 00fc 01       		.byte	0x1
ARM GAS  C:\Users\Petro\AppData\Local\Temp\ccXBAWyA.s 			page 19


 789 00fd 06       		.uleb128 0x6
 790 00fe 72010000 		.4byte	.LASF25
 791 0102 02       		.byte	0x2
 792 0103 06       		.uleb128 0x6
 793 0104 77020000 		.4byte	.LASF26
 794 0108 03       		.byte	0x3
 795 0109 00       		.byte	0
 796 010a 03       		.uleb128 0x3
 797 010b 99010000 		.4byte	.LASF27
 798 010f 05       		.byte	0x5
 799 0110 18       		.byte	0x18
 800 0111 E5000000 		.4byte	0xe5
 801 0115 07       		.uleb128 0x7
 802 0116 C1010000 		.4byte	.LASF28
 803 011a 01       		.byte	0x1
 804 011b 03       		.byte	0x3
 805 011c 73000000 		.4byte	0x73
 806 0120 00000000 		.4byte	.LFB63
 807 0124 B4000000 		.4byte	.LFE63-.LFB63
 808 0128 01       		.uleb128 0x1
 809 0129 9C       		.byte	0x9c
 810 012a 08       		.uleb128 0x8
 811 012b FC010000 		.4byte	.LASF29
 812 012f 01       		.byte	0x1
 813 0130 3D       		.byte	0x3d
 814 0131 00000000 		.4byte	.LFB64
 815 0135 68000000 		.4byte	.LFE64-.LFB64
 816 0139 01       		.uleb128 0x1
 817 013a 9C       		.byte	0x9c
 818 013b 09       		.uleb128 0x9
 819 013c B1010000 		.4byte	.LASF30
 820 0140 01       		.byte	0x1
 821 0141 57       		.byte	0x57
 822 0142 81000000 		.4byte	0x81
 823 0146 00000000 		.4byte	.LFB65
 824 014a 8C000000 		.4byte	.LFE65-.LFB65
 825 014e 01       		.uleb128 0x1
 826 014f 9C       		.byte	0x9c
 827 0150 63010000 		.4byte	0x163
 828 0154 0A       		.uleb128 0xa
 829 0155 F5010000 		.4byte	.LASF32
 830 0159 01       		.byte	0x1
 831 015a 59       		.byte	0x59
 832 015b 81000000 		.4byte	0x81
 833 015f 02       		.uleb128 0x2
 834 0160 91       		.byte	0x91
 835 0161 74       		.sleb128 -12
 836 0162 00       		.byte	0
 837 0163 09       		.uleb128 0x9
 838 0164 1C000000 		.4byte	.LASF31
 839 0168 01       		.byte	0x1
 840 0169 7D       		.byte	0x7d
 841 016a 81000000 		.4byte	0x81
 842 016e 00000000 		.4byte	.LFB66
 843 0172 68000000 		.4byte	.LFE66-.LFB66
 844 0176 01       		.uleb128 0x1
 845 0177 9C       		.byte	0x9c
ARM GAS  C:\Users\Petro\AppData\Local\Temp\ccXBAWyA.s 			page 20


 846 0178 8B010000 		.4byte	0x18b
 847 017c 0A       		.uleb128 0xa
 848 017d F5010000 		.4byte	.LASF32
 849 0181 01       		.byte	0x1
 850 0182 7F       		.byte	0x7f
 851 0183 81000000 		.4byte	0x81
 852 0187 02       		.uleb128 0x2
 853 0188 91       		.byte	0x91
 854 0189 74       		.sleb128 -12
 855 018a 00       		.byte	0
 856 018b 09       		.uleb128 0x9
 857 018c 54000000 		.4byte	.LASF33
 858 0190 01       		.byte	0x1
 859 0191 9A       		.byte	0x9a
 860 0192 81000000 		.4byte	0x81
 861 0196 00000000 		.4byte	.LFB67
 862 019a 5C000000 		.4byte	.LFE67-.LFB67
 863 019e 01       		.uleb128 0x1
 864 019f 9C       		.byte	0x9c
 865 01a0 B3010000 		.4byte	0x1b3
 866 01a4 0A       		.uleb128 0xa
 867 01a5 F5010000 		.4byte	.LASF32
 868 01a9 01       		.byte	0x1
 869 01aa 9C       		.byte	0x9c
 870 01ab 81000000 		.4byte	0x81
 871 01af 02       		.uleb128 0x2
 872 01b0 91       		.byte	0x91
 873 01b1 74       		.sleb128 -12
 874 01b2 00       		.byte	0
 875 01b3 09       		.uleb128 0x9
 876 01b4 EA010000 		.4byte	.LASF34
 877 01b8 01       		.byte	0x1
 878 01b9 B2       		.byte	0xb2
 879 01ba 81000000 		.4byte	0x81
 880 01be 00000000 		.4byte	.LFB68
 881 01c2 68000000 		.4byte	.LFE68-.LFB68
 882 01c6 01       		.uleb128 0x1
 883 01c7 9C       		.byte	0x9c
 884 01c8 F7010000 		.4byte	0x1f7
 885 01cc 0A       		.uleb128 0xa
 886 01cd F5010000 		.4byte	.LASF32
 887 01d1 01       		.byte	0x1
 888 01d2 B4       		.byte	0xb4
 889 01d3 81000000 		.4byte	0x81
 890 01d7 02       		.uleb128 0x2
 891 01d8 91       		.byte	0x91
 892 01d9 6C       		.sleb128 -20
 893 01da 0A       		.uleb128 0xa
 894 01db 07020000 		.4byte	.LASF35
 895 01df 01       		.byte	0x1
 896 01e0 B5       		.byte	0xb5
 897 01e1 8C000000 		.4byte	0x8c
 898 01e5 02       		.uleb128 0x2
 899 01e6 91       		.byte	0x91
 900 01e7 60       		.sleb128 -32
 901 01e8 0A       		.uleb128 0xa
 902 01e9 A3010000 		.4byte	.LASF36
ARM GAS  C:\Users\Petro\AppData\Local\Temp\ccXBAWyA.s 			page 21


 903 01ed 01       		.byte	0x1
 904 01ee B6       		.byte	0xb6
 905 01ef 81000000 		.4byte	0x81
 906 01f3 02       		.uleb128 0x2
 907 01f4 91       		.byte	0x91
 908 01f5 5C       		.sleb128 -36
 909 01f6 00       		.byte	0
 910 01f7 0B       		.uleb128 0xb
 911 01f8 83020000 		.4byte	.LASF40
 912 01fc 01       		.byte	0x1
 913 01fd CA       		.byte	0xca
 914 01fe 00000000 		.4byte	.LFB69
 915 0202 26000000 		.4byte	.LFE69-.LFB69
 916 0206 01       		.uleb128 0x1
 917 0207 9C       		.byte	0x9c
 918 0208 1B020000 		.4byte	0x21b
 919 020c 0C       		.uleb128 0xc
 920 020d 7B000000 		.4byte	.LASF41
 921 0211 01       		.byte	0x1
 922 0212 CA       		.byte	0xca
 923 0213 81000000 		.4byte	0x81
 924 0217 02       		.uleb128 0x2
 925 0218 91       		.byte	0x91
 926 0219 74       		.sleb128 -12
 927 021a 00       		.byte	0
 928 021b 0A       		.uleb128 0xa
 929 021c F5010000 		.4byte	.LASF32
 930 0220 05       		.byte	0x5
 931 0221 1B       		.byte	0x1b
 932 0222 81000000 		.4byte	0x81
 933 0226 05       		.uleb128 0x5
 934 0227 03       		.byte	0x3
 935 0228 00000000 		.4byte	result
 936 022c 0D       		.uleb128 0xd
 937 022d 0F000000 		.4byte	.LASF42
 938 0231 05       		.byte	0x5
 939 0232 19       		.byte	0x19
 940 0233 0A010000 		.4byte	0x10a
 941 0237 05       		.uleb128 0x5
 942 0238 03       		.byte	0x3
 943 0239 00000000 		.4byte	currentState
 944 023d 00       		.byte	0
 945              		.section	.debug_abbrev,"",%progbits
 946              	.Ldebug_abbrev0:
 947 0000 01       		.uleb128 0x1
 948 0001 11       		.uleb128 0x11
 949 0002 01       		.byte	0x1
 950 0003 25       		.uleb128 0x25
 951 0004 0E       		.uleb128 0xe
 952 0005 13       		.uleb128 0x13
 953 0006 0B       		.uleb128 0xb
 954 0007 03       		.uleb128 0x3
 955 0008 0E       		.uleb128 0xe
 956 0009 1B       		.uleb128 0x1b
 957 000a 0E       		.uleb128 0xe
 958 000b 55       		.uleb128 0x55
 959 000c 17       		.uleb128 0x17
ARM GAS  C:\Users\Petro\AppData\Local\Temp\ccXBAWyA.s 			page 22


 960 000d 11       		.uleb128 0x11
 961 000e 01       		.uleb128 0x1
 962 000f 10       		.uleb128 0x10
 963 0010 17       		.uleb128 0x17
 964 0011 00       		.byte	0
 965 0012 00       		.byte	0
 966 0013 02       		.uleb128 0x2
 967 0014 24       		.uleb128 0x24
 968 0015 00       		.byte	0
 969 0016 0B       		.uleb128 0xb
 970 0017 0B       		.uleb128 0xb
 971 0018 3E       		.uleb128 0x3e
 972 0019 0B       		.uleb128 0xb
 973 001a 03       		.uleb128 0x3
 974 001b 0E       		.uleb128 0xe
 975 001c 00       		.byte	0
 976 001d 00       		.byte	0
 977 001e 03       		.uleb128 0x3
 978 001f 16       		.uleb128 0x16
 979 0020 00       		.byte	0
 980 0021 03       		.uleb128 0x3
 981 0022 0E       		.uleb128 0xe
 982 0023 3A       		.uleb128 0x3a
 983 0024 0B       		.uleb128 0xb
 984 0025 3B       		.uleb128 0x3b
 985 0026 0B       		.uleb128 0xb
 986 0027 49       		.uleb128 0x49
 987 0028 13       		.uleb128 0x13
 988 0029 00       		.byte	0
 989 002a 00       		.byte	0
 990 002b 04       		.uleb128 0x4
 991 002c 24       		.uleb128 0x24
 992 002d 00       		.byte	0
 993 002e 0B       		.uleb128 0xb
 994 002f 0B       		.uleb128 0xb
 995 0030 3E       		.uleb128 0x3e
 996 0031 0B       		.uleb128 0xb
 997 0032 03       		.uleb128 0x3
 998 0033 08       		.uleb128 0x8
 999 0034 00       		.byte	0
 1000 0035 00       		.byte	0
 1001 0036 05       		.uleb128 0x5
 1002 0037 04       		.uleb128 0x4
 1003 0038 01       		.byte	0x1
 1004 0039 0B       		.uleb128 0xb
 1005 003a 0B       		.uleb128 0xb
 1006 003b 49       		.uleb128 0x49
 1007 003c 13       		.uleb128 0x13
 1008 003d 3A       		.uleb128 0x3a
 1009 003e 0B       		.uleb128 0xb
 1010 003f 3B       		.uleb128 0x3b
 1011 0040 0B       		.uleb128 0xb
 1012 0041 01       		.uleb128 0x1
 1013 0042 13       		.uleb128 0x13
 1014 0043 00       		.byte	0
 1015 0044 00       		.byte	0
 1016 0045 06       		.uleb128 0x6
ARM GAS  C:\Users\Petro\AppData\Local\Temp\ccXBAWyA.s 			page 23


 1017 0046 28       		.uleb128 0x28
 1018 0047 00       		.byte	0
 1019 0048 03       		.uleb128 0x3
 1020 0049 0E       		.uleb128 0xe
 1021 004a 1C       		.uleb128 0x1c
 1022 004b 0B       		.uleb128 0xb
 1023 004c 00       		.byte	0
 1024 004d 00       		.byte	0
 1025 004e 07       		.uleb128 0x7
 1026 004f 2E       		.uleb128 0x2e
 1027 0050 00       		.byte	0
 1028 0051 3F       		.uleb128 0x3f
 1029 0052 19       		.uleb128 0x19
 1030 0053 03       		.uleb128 0x3
 1031 0054 0E       		.uleb128 0xe
 1032 0055 3A       		.uleb128 0x3a
 1033 0056 0B       		.uleb128 0xb
 1034 0057 3B       		.uleb128 0x3b
 1035 0058 0B       		.uleb128 0xb
 1036 0059 49       		.uleb128 0x49
 1037 005a 13       		.uleb128 0x13
 1038 005b 11       		.uleb128 0x11
 1039 005c 01       		.uleb128 0x1
 1040 005d 12       		.uleb128 0x12
 1041 005e 06       		.uleb128 0x6
 1042 005f 40       		.uleb128 0x40
 1043 0060 18       		.uleb128 0x18
 1044 0061 9642     		.uleb128 0x2116
 1045 0063 19       		.uleb128 0x19
 1046 0064 00       		.byte	0
 1047 0065 00       		.byte	0
 1048 0066 08       		.uleb128 0x8
 1049 0067 2E       		.uleb128 0x2e
 1050 0068 00       		.byte	0
 1051 0069 3F       		.uleb128 0x3f
 1052 006a 19       		.uleb128 0x19
 1053 006b 03       		.uleb128 0x3
 1054 006c 0E       		.uleb128 0xe
 1055 006d 3A       		.uleb128 0x3a
 1056 006e 0B       		.uleb128 0xb
 1057 006f 3B       		.uleb128 0x3b
 1058 0070 0B       		.uleb128 0xb
 1059 0071 27       		.uleb128 0x27
 1060 0072 19       		.uleb128 0x19
 1061 0073 11       		.uleb128 0x11
 1062 0074 01       		.uleb128 0x1
 1063 0075 12       		.uleb128 0x12
 1064 0076 06       		.uleb128 0x6
 1065 0077 40       		.uleb128 0x40
 1066 0078 18       		.uleb128 0x18
 1067 0079 9642     		.uleb128 0x2116
 1068 007b 19       		.uleb128 0x19
 1069 007c 00       		.byte	0
 1070 007d 00       		.byte	0
 1071 007e 09       		.uleb128 0x9
 1072 007f 2E       		.uleb128 0x2e
 1073 0080 01       		.byte	0x1
ARM GAS  C:\Users\Petro\AppData\Local\Temp\ccXBAWyA.s 			page 24


 1074 0081 3F       		.uleb128 0x3f
 1075 0082 19       		.uleb128 0x19
 1076 0083 03       		.uleb128 0x3
 1077 0084 0E       		.uleb128 0xe
 1078 0085 3A       		.uleb128 0x3a
 1079 0086 0B       		.uleb128 0xb
 1080 0087 3B       		.uleb128 0x3b
 1081 0088 0B       		.uleb128 0xb
 1082 0089 27       		.uleb128 0x27
 1083 008a 19       		.uleb128 0x19
 1084 008b 49       		.uleb128 0x49
 1085 008c 13       		.uleb128 0x13
 1086 008d 11       		.uleb128 0x11
 1087 008e 01       		.uleb128 0x1
 1088 008f 12       		.uleb128 0x12
 1089 0090 06       		.uleb128 0x6
 1090 0091 40       		.uleb128 0x40
 1091 0092 18       		.uleb128 0x18
 1092 0093 9642     		.uleb128 0x2116
 1093 0095 19       		.uleb128 0x19
 1094 0096 01       		.uleb128 0x1
 1095 0097 13       		.uleb128 0x13
 1096 0098 00       		.byte	0
 1097 0099 00       		.byte	0
 1098 009a 0A       		.uleb128 0xa
 1099 009b 34       		.uleb128 0x34
 1100 009c 00       		.byte	0
 1101 009d 03       		.uleb128 0x3
 1102 009e 0E       		.uleb128 0xe
 1103 009f 3A       		.uleb128 0x3a
 1104 00a0 0B       		.uleb128 0xb
 1105 00a1 3B       		.uleb128 0x3b
 1106 00a2 0B       		.uleb128 0xb
 1107 00a3 49       		.uleb128 0x49
 1108 00a4 13       		.uleb128 0x13
 1109 00a5 02       		.uleb128 0x2
 1110 00a6 18       		.uleb128 0x18
 1111 00a7 00       		.byte	0
 1112 00a8 00       		.byte	0
 1113 00a9 0B       		.uleb128 0xb
 1114 00aa 2E       		.uleb128 0x2e
 1115 00ab 01       		.byte	0x1
 1116 00ac 3F       		.uleb128 0x3f
 1117 00ad 19       		.uleb128 0x19
 1118 00ae 03       		.uleb128 0x3
 1119 00af 0E       		.uleb128 0xe
 1120 00b0 3A       		.uleb128 0x3a
 1121 00b1 0B       		.uleb128 0xb
 1122 00b2 3B       		.uleb128 0x3b
 1123 00b3 0B       		.uleb128 0xb
 1124 00b4 27       		.uleb128 0x27
 1125 00b5 19       		.uleb128 0x19
 1126 00b6 11       		.uleb128 0x11
 1127 00b7 01       		.uleb128 0x1
 1128 00b8 12       		.uleb128 0x12
 1129 00b9 06       		.uleb128 0x6
 1130 00ba 40       		.uleb128 0x40
ARM GAS  C:\Users\Petro\AppData\Local\Temp\ccXBAWyA.s 			page 25


 1131 00bb 18       		.uleb128 0x18
 1132 00bc 9642     		.uleb128 0x2116
 1133 00be 19       		.uleb128 0x19
 1134 00bf 01       		.uleb128 0x1
 1135 00c0 13       		.uleb128 0x13
 1136 00c1 00       		.byte	0
 1137 00c2 00       		.byte	0
 1138 00c3 0C       		.uleb128 0xc
 1139 00c4 05       		.uleb128 0x5
 1140 00c5 00       		.byte	0
 1141 00c6 03       		.uleb128 0x3
 1142 00c7 0E       		.uleb128 0xe
 1143 00c8 3A       		.uleb128 0x3a
 1144 00c9 0B       		.uleb128 0xb
 1145 00ca 3B       		.uleb128 0x3b
 1146 00cb 0B       		.uleb128 0xb
 1147 00cc 49       		.uleb128 0x49
 1148 00cd 13       		.uleb128 0x13
 1149 00ce 02       		.uleb128 0x2
 1150 00cf 18       		.uleb128 0x18
 1151 00d0 00       		.byte	0
 1152 00d1 00       		.byte	0
 1153 00d2 0D       		.uleb128 0xd
 1154 00d3 34       		.uleb128 0x34
 1155 00d4 00       		.byte	0
 1156 00d5 03       		.uleb128 0x3
 1157 00d6 0E       		.uleb128 0xe
 1158 00d7 3A       		.uleb128 0x3a
 1159 00d8 0B       		.uleb128 0xb
 1160 00d9 3B       		.uleb128 0x3b
 1161 00da 0B       		.uleb128 0xb
 1162 00db 49       		.uleb128 0x49
 1163 00dc 13       		.uleb128 0x13
 1164 00dd 3F       		.uleb128 0x3f
 1165 00de 19       		.uleb128 0x19
 1166 00df 02       		.uleb128 0x2
 1167 00e0 18       		.uleb128 0x18
 1168 00e1 00       		.byte	0
 1169 00e2 00       		.byte	0
 1170 00e3 00       		.byte	0
 1171              		.section	.debug_aranges,"",%progbits
 1172 0000 4C000000 		.4byte	0x4c
 1173 0004 0200     		.2byte	0x2
 1174 0006 00000000 		.4byte	.Ldebug_info0
 1175 000a 04       		.byte	0x4
 1176 000b 00       		.byte	0
 1177 000c 0000     		.2byte	0
 1178 000e 0000     		.2byte	0
 1179 0010 00000000 		.4byte	.LFB63
 1180 0014 B4000000 		.4byte	.LFE63-.LFB63
 1181 0018 00000000 		.4byte	.LFB64
 1182 001c 68000000 		.4byte	.LFE64-.LFB64
 1183 0020 00000000 		.4byte	.LFB65
 1184 0024 8C000000 		.4byte	.LFE65-.LFB65
 1185 0028 00000000 		.4byte	.LFB66
 1186 002c 68000000 		.4byte	.LFE66-.LFB66
 1187 0030 00000000 		.4byte	.LFB67
ARM GAS  C:\Users\Petro\AppData\Local\Temp\ccXBAWyA.s 			page 26


 1188 0034 5C000000 		.4byte	.LFE67-.LFB67
 1189 0038 00000000 		.4byte	.LFB68
 1190 003c 68000000 		.4byte	.LFE68-.LFB68
 1191 0040 00000000 		.4byte	.LFB69
 1192 0044 26000000 		.4byte	.LFE69-.LFB69
 1193 0048 00000000 		.4byte	0
 1194 004c 00000000 		.4byte	0
 1195              		.section	.debug_ranges,"",%progbits
 1196              	.Ldebug_ranges0:
 1197 0000 00000000 		.4byte	.LFB63
 1198 0004 B4000000 		.4byte	.LFE63
 1199 0008 00000000 		.4byte	.LFB64
 1200 000c 68000000 		.4byte	.LFE64
 1201 0010 00000000 		.4byte	.LFB65
 1202 0014 8C000000 		.4byte	.LFE65
 1203 0018 00000000 		.4byte	.LFB66
 1204 001c 68000000 		.4byte	.LFE66
 1205 0020 00000000 		.4byte	.LFB67
 1206 0024 5C000000 		.4byte	.LFE67
 1207 0028 00000000 		.4byte	.LFB68
 1208 002c 68000000 		.4byte	.LFE68
 1209 0030 00000000 		.4byte	.LFB69
 1210 0034 26000000 		.4byte	.LFE69
 1211 0038 00000000 		.4byte	0
 1212 003c 00000000 		.4byte	0
 1213              		.section	.debug_line,"",%progbits
 1214              	.Ldebug_line0:
 1215 0000 3F020000 		.section	.debug_str,"MS",%progbits,1
 1215      02005901 
 1215      00000201 
 1215      FB0E0D00 
 1215      01010101 
 1216              	.LASF24:
 1217 0000 4745545F 		.ascii	"GET_FIN_STATUS\000"
 1217      46494E5F 
 1217      53544154 
 1217      555300
 1218              	.LASF42:
 1219 000f 63757272 		.ascii	"currentState\000"
 1219      656E7453 
 1219      74617465 
 1219      00
 1220              	.LASF31:
 1221 001c 47657446 		.ascii	"GetFinishStatus\000"
 1221      696E6973 
 1221      68537461 
 1221      74757300 
 1222              	.LASF18:
 1223 002c 41435449 		.ascii	"ACTION1\000"
 1223      4F4E3100 
 1224              	.LASF19:
 1225 0034 41435449 		.ascii	"ACTION2\000"
 1225      4F4E3200 
 1226              	.LASF20:
 1227 003c 41435449 		.ascii	"ACTION3\000"
 1227      4F4E3300 
 1228              	.LASF21:
ARM GAS  C:\Users\Petro\AppData\Local\Temp\ccXBAWyA.s 			page 27


 1229 0044 41435449 		.ascii	"ACTION4\000"
 1229      4F4E3400 
 1230              	.LASF22:
 1231 004c 41435449 		.ascii	"ACTION5\000"
 1231      4F4E3500 
 1232              	.LASF33:
 1233 0054 43686563 		.ascii	"CheckGate\000"
 1233      6B476174 
 1233      6500
 1234              	.LASF12:
 1235 005e 75696E74 		.ascii	"uint64_t\000"
 1235      36345F74 
 1235      00
 1236              	.LASF13:
 1237 0067 666C6F61 		.ascii	"float\000"
 1237      7400
 1238              	.LASF1:
 1239 006d 756E7369 		.ascii	"unsigned char\000"
 1239      676E6564 
 1239      20636861 
 1239      7200
 1240              	.LASF41:
 1241 007b 64656C61 		.ascii	"delayMs\000"
 1241      794D7300 
 1242              	.LASF5:
 1243 0083 6C6F6E67 		.ascii	"long unsigned int\000"
 1243      20756E73 
 1243      69676E65 
 1243      6420696E 
 1243      7400
 1244              	.LASF3:
 1245 0095 73686F72 		.ascii	"short unsigned int\000"
 1245      7420756E 
 1245      7369676E 
 1245      65642069 
 1245      6E7400
 1246              	.LASF39:
 1247 00a8 443A5C43 		.ascii	"D:\\Cypress\\system-start-finish\\dev\\FW\\start\\s"
 1247      79707265 
 1247      73735C73 
 1247      79737465 
 1247      6D2D7374 
 1248 00d5 74617274 		.ascii	"tart_v11.cydsn\000"
 1248      5F763131 
 1248      2E637964 
 1248      736E00
 1249              	.LASF37:
 1250 00e4 474E5520 		.ascii	"GNU C11 5.4.1 20160609 (release) [ARM/embedded-5-br"
 1250      43313120 
 1250      352E342E 
 1250      31203230 
 1250      31363036 
 1251 0117 616E6368 		.ascii	"anch revision 237715] -mcpu=cortex-m0 -mthumb -g -O"
 1251      20726576 
 1251      6973696F 
 1251      6E203233 
 1251      37373135 
ARM GAS  C:\Users\Petro\AppData\Local\Temp\ccXBAWyA.s 			page 28


 1252 014a 30202D66 		.ascii	"0 -ffunction-sections -ffat-lto-objects\000"
 1252      66756E63 
 1252      74696F6E 
 1252      2D736563 
 1252      74696F6E 
 1253              	.LASF25:
 1254 0172 43484543 		.ascii	"CHECK_GATE\000"
 1254      4B5F4741 
 1254      544500
 1255              	.LASF14:
 1256 017d 646F7562 		.ascii	"double\000"
 1256      6C6500
 1257              	.LASF23:
 1258 0184 54494D45 		.ascii	"TIME_SYNC\000"
 1258      5F53594E 
 1258      4300
 1259              	.LASF7:
 1260 018e 5F5F7569 		.ascii	"__uint32_t\000"
 1260      6E743332 
 1260      5F7400
 1261              	.LASF27:
 1262 0199 53746174 		.ascii	"StateType\000"
 1262      65547970 
 1262      6500
 1263              	.LASF36:
 1264 01a3 73746172 		.ascii	"startRecentMs\000"
 1264      74526563 
 1264      656E744D 
 1264      7300
 1265              	.LASF30:
 1266 01b1 54696D65 		.ascii	"TimeSynchronize\000"
 1266      53796E63 
 1266      68726F6E 
 1266      697A6500 
 1267              	.LASF28:
 1268 01c1 6D61696E 		.ascii	"main\000"
 1268      00
 1269              	.LASF10:
 1270 01c6 756E7369 		.ascii	"unsigned int\000"
 1270      676E6564 
 1270      20696E74 
 1270      00
 1271              	.LASF9:
 1272 01d3 6C6F6E67 		.ascii	"long long unsigned int\000"
 1272      206C6F6E 
 1272      6720756E 
 1272      7369676E 
 1272      65642069 
 1273              	.LASF34:
 1274 01ea 53617665 		.ascii	"SaveResult\000"
 1274      52657375 
 1274      6C7400
 1275              	.LASF32:
 1276 01f5 72657375 		.ascii	"result\000"
 1276      6C7400
 1277              	.LASF29:
 1278 01fc 53797374 		.ascii	"SystemInit\000"
ARM GAS  C:\Users\Petro\AppData\Local\Temp\ccXBAWyA.s 			page 29


 1278      656D496E 
 1278      697400
 1279              	.LASF35:
 1280 0207 73746172 		.ascii	"startUnixTime\000"
 1280      74556E69 
 1280      7854696D 
 1280      6500
 1281              	.LASF17:
 1282 0215 73697A65 		.ascii	"sizetype\000"
 1282      74797065 
 1282      00
 1283              	.LASF6:
 1284 021e 6C6F6E67 		.ascii	"long long int\000"
 1284      206C6F6E 
 1284      6720696E 
 1284      7400
 1285              	.LASF38:
 1286 022c 6D61696E 		.ascii	"main.c\000"
 1286      2E6300
 1287              	.LASF15:
 1288 0233 63686172 		.ascii	"char\000"
 1288      00
 1289              	.LASF2:
 1290 0238 73686F72 		.ascii	"short int\000"
 1290      7420696E 
 1290      7400
 1291              	.LASF8:
 1292 0242 5F5F7569 		.ascii	"__uint64_t\000"
 1292      6E743634 
 1292      5F7400
 1293              	.LASF11:
 1294 024d 75696E74 		.ascii	"uint32_t\000"
 1294      33325F74 
 1294      00
 1295              	.LASF4:
 1296 0256 6C6F6E67 		.ascii	"long int\000"
 1296      20696E74 
 1296      00
 1297              	.LASF16:
 1298 025f 6C6F6E67 		.ascii	"long double\000"
 1298      20646F75 
 1298      626C6500 
 1299              	.LASF0:
 1300 026b 7369676E 		.ascii	"signed char\000"
 1300      65642063 
 1300      68617200 
 1301              	.LASF26:
 1302 0277 53415645 		.ascii	"SAVE_RESULT\000"
 1302      5F524553 
 1302      554C5400 
 1303              	.LASF40:
 1304 0283 44656C61 		.ascii	"Delay\000"
 1304      7900
 1305              		.ident	"GCC: (GNU Tools for ARM Embedded Processors) 5.4.1 20160609 (release) [ARM/embedded-5-bran
