Archive member included to satisfy reference by file (symbol)

.\CortexM0\ARM_GCC_541\Debug\start_v11.a(CyLib.o)
                              .\CortexM0\ARM_GCC_541\Debug\cyfitter_cfg.o (CySysClkWriteImoFreq)
.\CortexM0\ARM_GCC_541\Debug\start_v11.a(CyLFClk.o)
                              .\CortexM0\ARM_GCC_541\Debug\cyfitter_cfg.o (CySysClkWcoStart)
.\CortexM0\ARM_GCC_541\Debug\start_v11.a(RTC.o)
                              .\CortexM0\ARM_GCC_541\Debug\RTC_WDT.o (RTC_Start)
.\CortexM0\ARM_GCC_541\Debug\start_v11.a(GatePin.o)
                              .\CortexM0\ARM_GCC_541\Debug\gate.o (GatePin_ClearInterrupt)
.\CortexM0\ARM_GCC_541\Debug\start_v11.a(Timer_LED.o)
                              .\CortexM0\ARM_GCC_541\Debug\LED.o (Timer_LED_Init)
.\CortexM0\ARM_GCC_541\Debug\start_v11.a(Int_Timer_Led.o)
                              .\CortexM0\ARM_GCC_541\Debug\LED.o (Int_Timer_Led_StartEx)
.\CortexM0\ARM_GCC_541\Debug\start_v11.a(UART_XB.o)
                              .\CortexM0\ARM_GCC_541\Debug\network.o (UART_XB_Start)
.\CortexM0\ARM_GCC_541\Debug\start_v11.a(UART_XB_SPI_UART.o)
                              .\CortexM0\ARM_GCC_541\Debug\network.o (UART_XB_SpiUartGetRxBufferSize)
.\CortexM0\ARM_GCC_541\Debug\start_v11.a(UART_XB_UART.o)
                              .\CortexM0\ARM_GCC_541\Debug\start_v11.a(UART_XB.o) (UART_XB_UartInit)
.\CortexM0\ARM_GCC_541\Debug\start_v11.a(SwSPI_Master.o)
                              .\CortexM0\ARM_GCC_541\Debug\LCD5110_Graph.o (SwSPI_Master_SendByte)
.\CortexM0\ARM_GCC_541\Debug\start_v11.a(GATE_INT.o)
                              .\CortexM0\ARM_GCC_541\Debug\gate.o (GATE_INT_Disable)
.\CortexM0\ARM_GCC_541\Debug\start_v11.a(debug.o)
                              .\CortexM0\ARM_GCC_541\Debug\RTC_WDT.o (debug_Write)
.\CortexM0\ARM_GCC_541\Debug\start_v11.a(ADC.o)
                              .\CortexM0\ARM_GCC_541\Debug\batt.o (ADC_Start)
.\CortexM0\ARM_GCC_541\Debug\start_v11.a(ADC_INT.o)
                              .\CortexM0\ARM_GCC_541\Debug\start_v11.a(ADC.o) (ADC_ISR)
.\CortexM0\ARM_GCC_541\Debug\start_v11.a(CE.o)
                              .\CortexM0\ARM_GCC_541\Debug\LCD5110_Graph.o (CE_Write)
.\CortexM0\ARM_GCC_541\Debug\start_v11.a(RST.o)
                              .\CortexM0\ARM_GCC_541\Debug\LCD5110_Graph.o (RST_Write)
.\CortexM0\ARM_GCC_541\Debug\start_v11.a(DC.o)
                              .\CortexM0\ARM_GCC_541\Debug\LCD5110_Graph.o (DC_Write)
.\CortexM0\ARM_GCC_541\Debug\start_v11.a(LCD_BL.o)
                              .\CortexM0\ARM_GCC_541\Debug\display.o (LCD_BL_Write)
.\CortexM0\ARM_GCC_541\Debug\start_v11.a(TimerTestMode.o)
                              .\CortexM0\ARM_GCC_541\Debug\testMode.o (TimerTestMode_WriteCompare)
.\CortexM0\ARM_GCC_541\Debug\start_v11.a(Int_timerTestMode.o)
                              .\CortexM0\ARM_GCC_541\Debug\testMode.o (Int_timerTestMode_StartEx)
.\CortexM0\ARM_GCC_541\Debug\start_v11.a(Pin_testMode.o)
                              .\CortexM0\ARM_GCC_541\Debug\testMode.o (Pin_testMode_Write)
.\CortexM0\ARM_GCC_541\Debug\start_v11.a(SW_RunTestMode.o)
                              .\CortexM0\ARM_GCC_541\Debug\testMode.o (SW_RunTestMode_Read)
.\CortexM0\ARM_GCC_541\Debug\start_v11.a(LED_RED_PIN.o)
                              .\CortexM0\ARM_GCC_541\Debug\LED.o (LED_RED_PIN_Write)
.\CortexM0\ARM_GCC_541\Debug\start_v11.a(LED_GREEN_PIN.o)
                              .\CortexM0\ARM_GCC_541\Debug\LED.o (LED_GREEN_PIN_Write)
.\CortexM0\ARM_GCC_541\Debug\start_v11.a(Timer.o)
                              .\CortexM0\ARM_GCC_541\Debug\taskAutomat.o (Timer_Start)
.\CortexM0\ARM_GCC_541\Debug\start_v11.a(isr_timer.o)
                              .\CortexM0\ARM_GCC_541\Debug\taskAutomat.o (isr_timer_StartEx)
.\CortexM0\ARM_GCC_541\Debug\start_v11.a(BtnUp.o)
                              .\CortexM0\ARM_GCC_541\Debug\IDskier.o (BtnUp_Read)
.\CortexM0\ARM_GCC_541\Debug\start_v11.a(BtnDown.o)
                              .\CortexM0\ARM_GCC_541\Debug\IDskier.o (BtnDown_Read)
.\CortexM0\ARM_GCC_541\Debug\start_v11.a(BUTT_DOWN_INT.o)
                              .\CortexM0\ARM_GCC_541\Debug\IDskier.o (BUTT_DOWN_INT_Disable)
.\CortexM0\ARM_GCC_541\Debug\start_v11.a(BUTT_UP_INT.o)
                              .\CortexM0\ARM_GCC_541\Debug\IDskier.o (BUTT_UP_INT_Disable)
.\CortexM0\ARM_GCC_541\Debug\start_v11.a(CyBootAsmGnu.o)
                              .\CortexM0\ARM_GCC_541\Debug\cyfitter_cfg.o (CyDelayCycles)
.\CortexM0\ARM_GCC_541\Debug\start_v11.a(UART_XB_SPI_UART_INT.o)
                              .\CortexM0\ARM_GCC_541\Debug\start_v11.a(UART_XB_UART.o) (UART_XB_SPI_UART_ISR)
c:/program files (x86)/cypress/psoc creator/4.1/psoc creator/import/gnu/arm/5.4.1/bin/../lib/gcc/arm-none-eabi/5.4.1/armv6-m\libgcc.a(_udivsi3.o)
                              .\CortexM0\ARM_GCC_541\Debug\display.o (__aeabi_uidiv)
c:/program files (x86)/cypress/psoc creator/4.1/psoc creator/import/gnu/arm/5.4.1/bin/../lib/gcc/arm-none-eabi/5.4.1/armv6-m\libgcc.a(_divsi3.o)
                              .\CortexM0\ARM_GCC_541\Debug\LCD5110_Graph.o (__aeabi_idiv)
c:/program files (x86)/cypress/psoc creator/4.1/psoc creator/import/gnu/arm/5.4.1/bin/../lib/gcc/arm-none-eabi/5.4.1/armv6-m\libgcc.a(_dvmd_tls.o)
                              c:/program files (x86)/cypress/psoc creator/4.1/psoc creator/import/gnu/arm/5.4.1/bin/../lib/gcc/arm-none-eabi/5.4.1/armv6-m\libgcc.a(_udivsi3.o) (__aeabi_idiv0)
c:/program files (x86)/cypress/psoc creator/4.1/psoc creator/import/gnu/arm/5.4.1/bin/../lib/gcc/arm-none-eabi/5.4.1/armv6-m\libgcc.a(_arm_cmpdf2.o)
                              .\CortexM0\ARM_GCC_541\Debug\LCD5110_Graph.o (__aeabi_dcmplt)
c:/program files (x86)/cypress/psoc creator/4.1/psoc creator/import/gnu/arm/5.4.1/bin/../lib/gcc/arm-none-eabi/5.4.1/armv6-m\libgcc.a(_arm_cmpsf2.o)
                              .\CortexM0\ARM_GCC_541\Debug\display.o (__aeabi_fcmplt)
c:/program files (x86)/cypress/psoc creator/4.1/psoc creator/import/gnu/arm/5.4.1/bin/../lib/gcc/arm-none-eabi/5.4.1/armv6-m\libgcc.a(_aeabi_ldivmod.o)
                              .\CortexM0\ARM_GCC_541\Debug\start_v11.a(ADC.o) (__aeabi_ldivmod)
c:/program files (x86)/cypress/psoc creator/4.1/psoc creator/import/gnu/arm/5.4.1/bin/../lib/gcc/arm-none-eabi/5.4.1/armv6-m\libgcc.a(_aeabi_uldivmod.o)
                              .\CortexM0\ARM_GCC_541\Debug\RTC_WDT.o (__aeabi_uldivmod)
c:/program files (x86)/cypress/psoc creator/4.1/psoc creator/import/gnu/arm/5.4.1/bin/../lib/gcc/arm-none-eabi/5.4.1/armv6-m\libgcc.a(_muldi3.o)
                              .\CortexM0\ARM_GCC_541\Debug\start_v11.a(ADC.o) (__aeabi_lmul)
c:/program files (x86)/cypress/psoc creator/4.1/psoc creator/import/gnu/arm/5.4.1/bin/../lib/gcc/arm-none-eabi/5.4.1/armv6-m\libgcc.a(_udivmoddi4.o)
                              c:/program files (x86)/cypress/psoc creator/4.1/psoc creator/import/gnu/arm/5.4.1/bin/../lib/gcc/arm-none-eabi/5.4.1/armv6-m\libgcc.a(_aeabi_uldivmod.o) (__udivmoddi4)
c:/program files (x86)/cypress/psoc creator/4.1/psoc creator/import/gnu/arm/5.4.1/bin/../lib/gcc/arm-none-eabi/5.4.1/armv6-m\libgcc.a(bpabi.o)
                              c:/program files (x86)/cypress/psoc creator/4.1/psoc creator/import/gnu/arm/5.4.1/bin/../lib/gcc/arm-none-eabi/5.4.1/armv6-m\libgcc.a(_aeabi_ldivmod.o) (__gnu_ldivmod_helper)
c:/program files (x86)/cypress/psoc creator/4.1/psoc creator/import/gnu/arm/5.4.1/bin/../lib/gcc/arm-none-eabi/5.4.1/armv6-m\libgcc.a(divsf3.o)
                              .\CortexM0\ARM_GCC_541\Debug\LCD5110_Graph.o (__aeabi_fdiv)
c:/program files (x86)/cypress/psoc creator/4.1/psoc creator/import/gnu/arm/5.4.1/bin/../lib/gcc/arm-none-eabi/5.4.1/armv6-m\libgcc.a(eqsf2.o)
                              c:/program files (x86)/cypress/psoc creator/4.1/psoc creator/import/gnu/arm/5.4.1/bin/../lib/gcc/arm-none-eabi/5.4.1/armv6-m\libgcc.a(_arm_cmpsf2.o) (__eqsf2)
c:/program files (x86)/cypress/psoc creator/4.1/psoc creator/import/gnu/arm/5.4.1/bin/../lib/gcc/arm-none-eabi/5.4.1/armv6-m\libgcc.a(gesf2.o)
                              c:/program files (x86)/cypress/psoc creator/4.1/psoc creator/import/gnu/arm/5.4.1/bin/../lib/gcc/arm-none-eabi/5.4.1/armv6-m\libgcc.a(_arm_cmpsf2.o) (__gesf2)
c:/program files (x86)/cypress/psoc creator/4.1/psoc creator/import/gnu/arm/5.4.1/bin/../lib/gcc/arm-none-eabi/5.4.1/armv6-m\libgcc.a(lesf2.o)
                              c:/program files (x86)/cypress/psoc creator/4.1/psoc creator/import/gnu/arm/5.4.1/bin/../lib/gcc/arm-none-eabi/5.4.1/armv6-m\libgcc.a(_arm_cmpsf2.o) (__lesf2)
c:/program files (x86)/cypress/psoc creator/4.1/psoc creator/import/gnu/arm/5.4.1/bin/../lib/gcc/arm-none-eabi/5.4.1/armv6-m\libgcc.a(mulsf3.o)
                              .\CortexM0\ARM_GCC_541\Debug\start_v11.a(ADC.o) (__aeabi_fmul)
c:/program files (x86)/cypress/psoc creator/4.1/psoc creator/import/gnu/arm/5.4.1/bin/../lib/gcc/arm-none-eabi/5.4.1/armv6-m\libgcc.a(floatsisf.o)
                              .\CortexM0\ARM_GCC_541\Debug\LCD5110_Graph.o (__aeabi_i2f)
c:/program files (x86)/cypress/psoc creator/4.1/psoc creator/import/gnu/arm/5.4.1/bin/../lib/gcc/arm-none-eabi/5.4.1/armv6-m\libgcc.a(adddf3.o)
                              .\CortexM0\ARM_GCC_541\Debug\LCD5110_Graph.o (__aeabi_dadd)
c:/program files (x86)/cypress/psoc creator/4.1/psoc creator/import/gnu/arm/5.4.1/bin/../lib/gcc/arm-none-eabi/5.4.1/armv6-m\libgcc.a(divdf3.o)
                              .\CortexM0\ARM_GCC_541\Debug\LCD5110_Graph.o (__aeabi_ddiv)
c:/program files (x86)/cypress/psoc creator/4.1/psoc creator/import/gnu/arm/5.4.1/bin/../lib/gcc/arm-none-eabi/5.4.1/armv6-m\libgcc.a(eqdf2.o)
                              c:/program files (x86)/cypress/psoc creator/4.1/psoc creator/import/gnu/arm/5.4.1/bin/../lib/gcc/arm-none-eabi/5.4.1/armv6-m\libgcc.a(_arm_cmpdf2.o) (__eqdf2)
c:/program files (x86)/cypress/psoc creator/4.1/psoc creator/import/gnu/arm/5.4.1/bin/../lib/gcc/arm-none-eabi/5.4.1/armv6-m\libgcc.a(gedf2.o)
                              c:/program files (x86)/cypress/psoc creator/4.1/psoc creator/import/gnu/arm/5.4.1/bin/../lib/gcc/arm-none-eabi/5.4.1/armv6-m\libgcc.a(_arm_cmpdf2.o) (__gedf2)
c:/program files (x86)/cypress/psoc creator/4.1/psoc creator/import/gnu/arm/5.4.1/bin/../lib/gcc/arm-none-eabi/5.4.1/armv6-m\libgcc.a(ledf2.o)
                              c:/program files (x86)/cypress/psoc creator/4.1/psoc creator/import/gnu/arm/5.4.1/bin/../lib/gcc/arm-none-eabi/5.4.1/armv6-m\libgcc.a(_arm_cmpdf2.o) (__ledf2)
c:/program files (x86)/cypress/psoc creator/4.1/psoc creator/import/gnu/arm/5.4.1/bin/../lib/gcc/arm-none-eabi/5.4.1/armv6-m\libgcc.a(subdf3.o)
                              .\CortexM0\ARM_GCC_541\Debug\LCD5110_Graph.o (__aeabi_dsub)
c:/program files (x86)/cypress/psoc creator/4.1/psoc creator/import/gnu/arm/5.4.1/bin/../lib/gcc/arm-none-eabi/5.4.1/armv6-m\libgcc.a(fixdfsi.o)
                              .\CortexM0\ARM_GCC_541\Debug\LCD5110_Graph.o (__aeabi_d2iz)
c:/program files (x86)/cypress/psoc creator/4.1/psoc creator/import/gnu/arm/5.4.1/bin/../lib/gcc/arm-none-eabi/5.4.1/armv6-m\libgcc.a(floatsidf.o)
                              .\CortexM0\ARM_GCC_541\Debug\LCD5110_Graph.o (__aeabi_i2d)
c:/program files (x86)/cypress/psoc creator/4.1/psoc creator/import/gnu/arm/5.4.1/bin/../lib/gcc/arm-none-eabi/5.4.1/armv6-m\libgcc.a(extendsfdf2.o)
                              .\CortexM0\ARM_GCC_541\Debug\display.o (__aeabi_f2d)
c:/program files (x86)/cypress/psoc creator/4.1/psoc creator/import/gnu/arm/5.4.1/bin/../lib/gcc/arm-none-eabi/5.4.1/armv6-m\libgcc.a(_clzsi2.o)
                              c:/program files (x86)/cypress/psoc creator/4.1/psoc creator/import/gnu/arm/5.4.1/bin/../lib/gcc/arm-none-eabi/5.4.1/armv6-m\libgcc.a(divsf3.o) (__clzsi2)
c:/program files (x86)/cypress/psoc creator/4.1/psoc creator/import/gnu/arm/5.4.1/bin/../lib/gcc/arm-none-eabi/5.4.1/armv6-m\libgcc.a(_clzdi2.o)
                              c:/program files (x86)/cypress/psoc creator/4.1/psoc creator/import/gnu/arm/5.4.1/bin/../lib/gcc/arm-none-eabi/5.4.1/armv6-m\libgcc.a(_udivmoddi4.o) (__clzdi2)
c:/program files (x86)/cypress/psoc creator/4.1/psoc creator/import/gnu/arm/5.4.1/bin/../lib/gcc/arm-none-eabi/5.4.1/armv6-m\libgcc.a(_divdi3.o)
                              c:/program files (x86)/cypress/psoc creator/4.1/psoc creator/import/gnu/arm/5.4.1/bin/../lib/gcc/arm-none-eabi/5.4.1/armv6-m\libgcc.a(bpabi.o) (__divdi3)
c:/program files (x86)/cypress/psoc creator/4.1/psoc creator/import/gnu/arm/5.4.1/bin/../lib/gcc/arm-none-eabi/5.4.1/../../../../arm-none-eabi/lib/armv6-m\libg.a(lib_a-errno.o)
                              .\CortexM0\ARM_GCC_541\Debug\Cm0Start.o (__errno)
c:/program files (x86)/cypress/psoc creator/4.1/psoc creator/import/gnu/arm/5.4.1/bin/../lib/gcc/arm-none-eabi/5.4.1/../../../../arm-none-eabi/lib/armv6-m\libg.a(lib_a-exit.o)
                              c:/program files (x86)/cypress/psoc creator/4.1/psoc creator/import/gnu/arm/5.4.1/bin/../lib/gcc/arm-none-eabi/5.4.1/../../../../arm-none-eabi/lib/armv6-m/crt0.o (exit)
c:/program files (x86)/cypress/psoc creator/4.1/psoc creator/import/gnu/arm/5.4.1/bin/../lib/gcc/arm-none-eabi/5.4.1/../../../../arm-none-eabi/lib/armv6-m\libg.a(lib_a-impure.o)
                              c:/program files (x86)/cypress/psoc creator/4.1/psoc creator/import/gnu/arm/5.4.1/bin/../lib/gcc/arm-none-eabi/5.4.1/../../../../arm-none-eabi/lib/armv6-m\libg.a(lib_a-exit.o) (_global_impure_ptr)
c:/program files (x86)/cypress/psoc creator/4.1/psoc creator/import/gnu/arm/5.4.1/bin/../lib/gcc/arm-none-eabi/5.4.1/../../../../arm-none-eabi/lib/armv6-m\libg.a(lib_a-init.o)
                              c:/program files (x86)/cypress/psoc creator/4.1/psoc creator/import/gnu/arm/5.4.1/bin/../lib/gcc/arm-none-eabi/5.4.1/../../../../arm-none-eabi/lib/armv6-m/crt0.o (__libc_init_array)
c:/program files (x86)/cypress/psoc creator/4.1/psoc creator/import/gnu/arm/5.4.1/bin/../lib/gcc/arm-none-eabi/5.4.1/../../../../arm-none-eabi/lib/armv6-m\libg.a(lib_a-memcpy-stub.o)
                              .\CortexM0\ARM_GCC_541\Debug\svt.o (memcpy)
c:/program files (x86)/cypress/psoc creator/4.1/psoc creator/import/gnu/arm/5.4.1/bin/../lib/gcc/arm-none-eabi/5.4.1/../../../../arm-none-eabi/lib/armv6-m\libg.a(lib_a-memset.o)
                              c:/program files (x86)/cypress/psoc creator/4.1/psoc creator/import/gnu/arm/5.4.1/bin/../lib/gcc/arm-none-eabi/5.4.1/../../../../arm-none-eabi/lib/armv6-m/crt0.o (memset)
c:/program files (x86)/cypress/psoc creator/4.1/psoc creator/import/gnu/arm/5.4.1/bin/../lib/gcc/arm-none-eabi/5.4.1/../../../../arm-none-eabi/lib/armv6-m\libg.a(lib_a-rand.o)
                              .\CortexM0\ARM_GCC_541\Debug\testMode.o (rand)
c:/program files (x86)/cypress/psoc creator/4.1/psoc creator/import/gnu/arm/5.4.1/bin/../lib/gcc/arm-none-eabi/5.4.1/../../../../arm-none-eabi/lib/armv6-m\libg.a(lib_a-sprintf.o)
                              .\CortexM0\ARM_GCC_541\Debug\display.o (sprintf)
c:/program files (x86)/cypress/psoc creator/4.1/psoc creator/import/gnu/arm/5.4.1/bin/../lib/gcc/arm-none-eabi/5.4.1/../../../../arm-none-eabi/lib/armv6-m\libg.a(lib_a-strcat.o)
                              .\CortexM0\ARM_GCC_541\Debug\svt.o (strcat)
c:/program files (x86)/cypress/psoc creator/4.1/psoc creator/import/gnu/arm/5.4.1/bin/../lib/gcc/arm-none-eabi/5.4.1/../../../../arm-none-eabi/lib/armv6-m\libg.a(lib_a-strcpy.o)
                              .\CortexM0\ARM_GCC_541\Debug\network.o (strcpy)
c:/program files (x86)/cypress/psoc creator/4.1/psoc creator/import/gnu/arm/5.4.1/bin/../lib/gcc/arm-none-eabi/5.4.1/../../../../arm-none-eabi/lib/armv6-m\libg.a(lib_a-strlen-stub.o)
                              .\CortexM0\ARM_GCC_541\Debug\display.o (strlen)
c:/program files (x86)/cypress/psoc creator/4.1/psoc creator/import/gnu/arm/5.4.1/bin/../lib/gcc/arm-none-eabi/5.4.1/../../../../arm-none-eabi/lib/armv6-m\libg.a(lib_a-strncat.o)
                              .\CortexM0\ARM_GCC_541\Debug\display.o (strncat)
c:/program files (x86)/cypress/psoc creator/4.1/psoc creator/import/gnu/arm/5.4.1/bin/../lib/gcc/arm-none-eabi/5.4.1/../../../../arm-none-eabi/lib/armv6-m\libg.a(lib_a-strncpy.o)
                              .\CortexM0\ARM_GCC_541\Debug\display.o (strncpy)
c:/program files (x86)/cypress/psoc creator/4.1/psoc creator/import/gnu/arm/5.4.1/bin/../lib/gcc/arm-none-eabi/5.4.1/../../../../arm-none-eabi/lib/armv6-m\libg.a(lib_a-svfprintf.o)
                              c:/program files (x86)/cypress/psoc creator/4.1/psoc creator/import/gnu/arm/5.4.1/bin/../lib/gcc/arm-none-eabi/5.4.1/../../../../arm-none-eabi/lib/armv6-m\libg.a(lib_a-sprintf.o) (_svfprintf_r)
c:/program files (x86)/cypress/psoc creator/4.1/psoc creator/import/gnu/arm/5.4.1/bin/../lib/gcc/arm-none-eabi/5.4.1/../../../../arm-none-eabi/lib/armv6-m\libg.a(lib_a-__call_atexit.o)
                              c:/program files (x86)/cypress/psoc creator/4.1/psoc creator/import/gnu/arm/5.4.1/bin/../lib/gcc/arm-none-eabi/5.4.1/../../../../arm-none-eabi/lib/armv6-m\libg.a(lib_a-exit.o) (__call_exitprocs)
c:/program files (x86)/cypress/psoc creator/4.1/psoc creator/import/gnu/arm/5.4.1/bin/../lib/gcc/arm-none-eabi/5.4.1/../../../../arm-none-eabi/lib/armv6-m\libg.a(lib_a-atexit.o)
                              c:/program files (x86)/cypress/psoc creator/4.1/psoc creator/import/gnu/arm/5.4.1/bin/../lib/gcc/arm-none-eabi/5.4.1/../../../../arm-none-eabi/lib/armv6-m\libg.a(lib_a-__call_atexit.o) (atexit)
c:/program files (x86)/cypress/psoc creator/4.1/psoc creator/import/gnu/arm/5.4.1/bin/../lib/gcc/arm-none-eabi/5.4.1/../../../../arm-none-eabi/lib/armv6-m\libg.a(lib_a-dtoa.o)
                              c:/program files (x86)/cypress/psoc creator/4.1/psoc creator/import/gnu/arm/5.4.1/bin/../lib/gcc/arm-none-eabi/5.4.1/../../../../arm-none-eabi/lib/armv6-m\libg.a(lib_a-svfprintf.o) (_dtoa_r)
c:/program files (x86)/cypress/psoc creator/4.1/psoc creator/import/gnu/arm/5.4.1/bin/../lib/gcc/arm-none-eabi/5.4.1/../../../../arm-none-eabi/lib/armv6-m\libg.a(lib_a-fini.o)
                              c:/program files (x86)/cypress/psoc creator/4.1/psoc creator/import/gnu/arm/5.4.1/bin/../lib/gcc/arm-none-eabi/5.4.1/../../../../arm-none-eabi/lib/armv6-m\libg.a(lib_a-__call_atexit.o) (__libc_fini_array)
c:/program files (x86)/cypress/psoc creator/4.1/psoc creator/import/gnu/arm/5.4.1/bin/../lib/gcc/arm-none-eabi/5.4.1/../../../../arm-none-eabi/lib/armv6-m\libg.a(lib_a-locale.o)
                              c:/program files (x86)/cypress/psoc creator/4.1/psoc creator/import/gnu/arm/5.4.1/bin/../lib/gcc/arm-none-eabi/5.4.1/../../../../arm-none-eabi/lib/armv6-m\libg.a(lib_a-svfprintf.o) (_localeconv_r)
c:/program files (x86)/cypress/psoc creator/4.1/psoc creator/import/gnu/arm/5.4.1/bin/../lib/gcc/arm-none-eabi/5.4.1/../../../../arm-none-eabi/lib/armv6-m\libg.a(lib_a-mallocr.o)
                              c:/program files (x86)/cypress/psoc creator/4.1/psoc creator/import/gnu/arm/5.4.1/bin/../lib/gcc/arm-none-eabi/5.4.1/../../../../arm-none-eabi/lib/armv6-m\libg.a(lib_a-svfprintf.o) (_malloc_r)
c:/program files (x86)/cypress/psoc creator/4.1/psoc creator/import/gnu/arm/5.4.1/bin/../lib/gcc/arm-none-eabi/5.4.1/../../../../arm-none-eabi/lib/armv6-m\libg.a(lib_a-memchr-stub.o)
                              c:/program files (x86)/cypress/psoc creator/4.1/psoc creator/import/gnu/arm/5.4.1/bin/../lib/gcc/arm-none-eabi/5.4.1/../../../../arm-none-eabi/lib/armv6-m\libg.a(lib_a-svfprintf.o) (memchr)
c:/program files (x86)/cypress/psoc creator/4.1/psoc creator/import/gnu/arm/5.4.1/bin/../lib/gcc/arm-none-eabi/5.4.1/../../../../arm-none-eabi/lib/armv6-m\libg.a(lib_a-mlock.o)
                              c:/program files (x86)/cypress/psoc creator/4.1/psoc creator/import/gnu/arm/5.4.1/bin/../lib/gcc/arm-none-eabi/5.4.1/../../../../arm-none-eabi/lib/armv6-m\libg.a(lib_a-mallocr.o) (__malloc_lock)
c:/program files (x86)/cypress/psoc creator/4.1/psoc creator/import/gnu/arm/5.4.1/bin/../lib/gcc/arm-none-eabi/5.4.1/../../../../arm-none-eabi/lib/armv6-m\libg.a(lib_a-mprec.o)
                              c:/program files (x86)/cypress/psoc creator/4.1/psoc creator/import/gnu/arm/5.4.1/bin/../lib/gcc/arm-none-eabi/5.4.1/../../../../arm-none-eabi/lib/armv6-m\libg.a(lib_a-dtoa.o) (_Balloc)
c:/program files (x86)/cypress/psoc creator/4.1/psoc creator/import/gnu/arm/5.4.1/bin/../lib/gcc/arm-none-eabi/5.4.1/../../../../arm-none-eabi/lib/armv6-m\libg.a(lib_a-sbrkr.o)
                              c:/program files (x86)/cypress/psoc creator/4.1/psoc creator/import/gnu/arm/5.4.1/bin/../lib/gcc/arm-none-eabi/5.4.1/../../../../arm-none-eabi/lib/armv6-m\libg.a(lib_a-mallocr.o) (_sbrk_r)
c:/program files (x86)/cypress/psoc creator/4.1/psoc creator/import/gnu/arm/5.4.1/bin/../lib/gcc/arm-none-eabi/5.4.1/../../../../arm-none-eabi/lib/armv6-m\libg.a(lib_a-strcmp.o)
                              c:/program files (x86)/cypress/psoc creator/4.1/psoc creator/import/gnu/arm/5.4.1/bin/../lib/gcc/arm-none-eabi/5.4.1/../../../../arm-none-eabi/lib/armv6-m\libg.a(lib_a-locale.o) (strcmp)
c:/program files (x86)/cypress/psoc creator/4.1/psoc creator/import/gnu/arm/5.4.1/bin/../lib/gcc/arm-none-eabi/5.4.1/../../../../arm-none-eabi/lib/armv6-m\libg.a(lib_a-svfiprintf.o)
                              c:/program files (x86)/cypress/psoc creator/4.1/psoc creator/import/gnu/arm/5.4.1/bin/../lib/gcc/arm-none-eabi/5.4.1/../../../../arm-none-eabi/lib/armv6-m\libg.a(lib_a-svfprintf.o) (__ssprint_r)
c:/program files (x86)/cypress/psoc creator/4.1/psoc creator/import/gnu/arm/5.4.1/bin/../lib/gcc/arm-none-eabi/5.4.1/../../../../arm-none-eabi/lib/armv6-m\libg.a(lib_a-__atexit.o)
                              c:/program files (x86)/cypress/psoc creator/4.1/psoc creator/import/gnu/arm/5.4.1/bin/../lib/gcc/arm-none-eabi/5.4.1/../../../../arm-none-eabi/lib/armv6-m\libg.a(lib_a-atexit.o) (__register_exitproc)
c:/program files (x86)/cypress/psoc creator/4.1/psoc creator/import/gnu/arm/5.4.1/bin/../lib/gcc/arm-none-eabi/5.4.1/../../../../arm-none-eabi/lib/armv6-m\libg.a(lib_a-callocr.o)
                              c:/program files (x86)/cypress/psoc creator/4.1/psoc creator/import/gnu/arm/5.4.1/bin/../lib/gcc/arm-none-eabi/5.4.1/../../../../arm-none-eabi/lib/armv6-m\libg.a(lib_a-mprec.o) (_calloc_r)
c:/program files (x86)/cypress/psoc creator/4.1/psoc creator/import/gnu/arm/5.4.1/bin/../lib/gcc/arm-none-eabi/5.4.1/../../../../arm-none-eabi/lib/armv6-m\libg.a(lib_a-freer.o)
                              c:/program files (x86)/cypress/psoc creator/4.1/psoc creator/import/gnu/arm/5.4.1/bin/../lib/gcc/arm-none-eabi/5.4.1/../../../../arm-none-eabi/lib/armv6-m\libg.a(lib_a-mallocr.o) (_free_r)
c:/program files (x86)/cypress/psoc creator/4.1/psoc creator/import/gnu/arm/5.4.1/bin/../lib/gcc/arm-none-eabi/5.4.1/../../../../arm-none-eabi/lib/armv6-m\libg.a(lib_a-memmove.o)
                              c:/program files (x86)/cypress/psoc creator/4.1/psoc creator/import/gnu/arm/5.4.1/bin/../lib/gcc/arm-none-eabi/5.4.1/../../../../arm-none-eabi/lib/armv6-m\libg.a(lib_a-svfiprintf.o) (memmove)
c:/program files (x86)/cypress/psoc creator/4.1/psoc creator/import/gnu/arm/5.4.1/bin/../lib/gcc/arm-none-eabi/5.4.1/../../../../arm-none-eabi/lib/armv6-m\libg.a(lib_a-reallocr.o)
                              c:/program files (x86)/cypress/psoc creator/4.1/psoc creator/import/gnu/arm/5.4.1/bin/../lib/gcc/arm-none-eabi/5.4.1/../../../../arm-none-eabi/lib/armv6-m\libg.a(lib_a-svfiprintf.o) (_realloc_r)
c:/program files (x86)/cypress/psoc creator/4.1/psoc creator/import/gnu/arm/5.4.1/bin/../lib/gcc/arm-none-eabi/5.4.1/../../../../arm-none-eabi/lib/armv6-m\libg.a(lib_a-reent.o)
                              c:/program files (x86)/cypress/psoc creator/4.1/psoc creator/import/gnu/arm/5.4.1/bin/../lib/gcc/arm-none-eabi/5.4.1/../../../../arm-none-eabi/lib/armv6-m\libg.a(lib_a-sbrkr.o) (errno)
c:/program files (x86)/cypress/psoc creator/4.1/psoc creator/import/gnu/arm/5.4.1/bin/../lib/gcc/arm-none-eabi/5.4.1/armv6-m\libgcc.a(muldf3.o)
                              c:/program files (x86)/cypress/psoc creator/4.1/psoc creator/import/gnu/arm/5.4.1/bin/../lib/gcc/arm-none-eabi/5.4.1/../../../../arm-none-eabi/lib/armv6-m\libg.a(lib_a-dtoa.o) (__aeabi_dmul)
c:/program files (x86)/cypress/psoc creator/4.1/psoc creator/import/gnu/arm/5.4.1/bin/../lib/gcc/arm-none-eabi/5.4.1/armv6-m\libgcc.a(unorddf2.o)
                              c:/program files (x86)/cypress/psoc creator/4.1/psoc creator/import/gnu/arm/5.4.1/bin/../lib/gcc/arm-none-eabi/5.4.1/../../../../arm-none-eabi/lib/armv6-m\libg.a(lib_a-svfprintf.o) (__aeabi_dcmpun)
c:/program files (x86)/cypress/psoc creator/4.1/psoc creator/import/gnu/arm/5.4.1/bin/../lib/gcc/arm-none-eabi/5.4.1/armv6-m\libgcc.a(floatunsidf.o)
                              c:/program files (x86)/cypress/psoc creator/4.1/psoc creator/import/gnu/arm/5.4.1/bin/../lib/gcc/arm-none-eabi/5.4.1/../../../../arm-none-eabi/lib/armv6-m\libg.a(lib_a-dtoa.o) (__aeabi_ui2d)

Allocating common symbols
Common symbol       size              file

IDreceivePacket     0x2               .\CortexM0\ARM_GCC_541\Debug\network.o
NtpLenChS           0x1               .\CortexM0\ARM_GCC_541\Debug\ntp.o
RTC_initVar         0x1               .\CortexM0\ARM_GCC_541\Debug\start_v11.a(RTC.o)
LenC                0x1               .\CortexM0\ARM_GCC_541\Debug\svt.o
UART_XB_rxBufferTail
                    0x4               .\CortexM0\ARM_GCC_541\Debug\start_v11.a(UART_XB_SPI_UART.o)
_sleep              0x1               .\CortexM0\ARM_GCC_541\Debug\display.o
UART_XB_rxBufferOverflow
                    0x1               .\CortexM0\ARM_GCC_541\Debug\start_v11.a(UART_XB_SPI_UART.o)
errno               0x4               c:/program files (x86)/cypress/psoc creator/4.1/psoc creator/import/gnu/arm/5.4.1/bin/../lib/gcc/arm-none-eabi/5.4.1/../../../../arm-none-eabi/lib/armv6-m\libg.a(lib_a-reent.o)
currentState        0x1               .\CortexM0\ARM_GCC_541\Debug\RTC_WDT.o
NtpLenMsD1          0x1               .\CortexM0\ARM_GCC_541\Debug\ntp.o
scrbuf              0x1f8             .\CortexM0\ARM_GCC_541\Debug\display.o
flag                0x5               .\CortexM0\ARM_GCC_541\Debug\taskAutomat.o
outData             0x18              .\CortexM0\ARM_GCC_541\Debug\network.o
UART_XB_txBufferHead
                    0x4               .\CortexM0\ARM_GCC_541\Debug\start_v11.a(UART_XB_SPI_UART.o)
recvDataNTP         0x14              .\CortexM0\ARM_GCC_541\Debug\network.o
UART_XB_txBufferInternal
                    0x64              .\CortexM0\ARM_GCC_541\Debug\start_v11.a(UART_XB_SPI_UART.o)
ADC_countsPer10Volt
                    0x4               .\CortexM0\ARM_GCC_541\Debug\start_v11.a(ADC.o)
NtpLenId            0x1               .\CortexM0\ARM_GCC_541\Debug\ntp.o
ntpFlagReadyForReceive
                    0x1               .\CortexM0\ARM_GCC_541\Debug\network.o
LenChS              0x1               .\CortexM0\ARM_GCC_541\Debug\svt.o
inData              0x18              .\CortexM0\ARM_GCC_541\Debug\network.o
LenD1               0x1               .\CortexM0\ARM_GCC_541\Debug\svt.o
LenSeq              0x1               .\CortexM0\ARM_GCC_541\Debug\svt.o
voltage             0x4               .\CortexM0\ARM_GCC_541\Debug\batt.o
ADC_offset          0x2               .\CortexM0\ARM_GCC_541\Debug\start_v11.a(ADC.o)
unixTime            0x10              .\CortexM0\ARM_GCC_541\Debug\network.o
LenD2               0x1               .\CortexM0\ARM_GCC_541\Debug\svt.o
resultReceive       0x4               .\CortexM0\ARM_GCC_541\Debug\network.o
networkFlagReadyForReceive
                    0x1               .\CortexM0\ARM_GCC_541\Debug\network.o
buffNetworkQualyty  0x1               .\CortexM0\ARM_GCC_541\Debug\network.o
cfont               0xc               .\CortexM0\ARM_GCC_541\Debug\display.o
PROTO_STATE         0x1               .\CortexM0\ARM_GCC_541\Debug\svt.o
RTC_currentTimeDate
                    0x10              .\CortexM0\ARM_GCC_541\Debug\start_v11.a(RTC.o)
LED_InitValue       0x1               .\CortexM0\ARM_GCC_541\Debug\LED.o
recvData            0x20              .\CortexM0\ARM_GCC_541\Debug\network.o
networkFlagEndReceivePacket
                    0x1               .\CortexM0\ARM_GCC_541\Debug\network.o
ntpFlagEndReceivePacket
                    0x1               .\CortexM0\ARM_GCC_541\Debug\network.o
RTC_alarmCurStatus  0x4               .\CortexM0\ARM_GCC_541\Debug\start_v11.a(RTC.o)
RTC_dstStatus       0x1               .\CortexM0\ARM_GCC_541\Debug\start_v11.a(RTC.o)
LenD3               0x1               .\CortexM0\ARM_GCC_541\Debug\svt.o
NtpLenD1            0x1               .\CortexM0\ARM_GCC_541\Debug\ntp.o
RTC_unixTime        0x8               .\CortexM0\ARM_GCC_541\Debug\start_v11.a(RTC.o)
_contrast           0x4               .\CortexM0\ARM_GCC_541\Debug\display.o
UART_XB_rxBufferInternal
                    0x65              .\CortexM0\ARM_GCC_541\Debug\start_v11.a(UART_XB_SPI_UART.o)
millisTime          0x8               .\CortexM0\ARM_GCC_541\Debug\network.o
UART_XB_rxBufferHead
                    0x4               .\CortexM0\ARM_GCC_541\Debug\start_v11.a(UART_XB_SPI_UART.o)
UART_XB_txBufferTail
                    0x4               .\CortexM0\ARM_GCC_541\Debug\start_v11.a(UART_XB_SPI_UART.o)
previousData        0x64              .\CortexM0\ARM_GCC_541\Debug\network.o

Memory Configuration

Name             Origin             Length             Attributes
rom              0x00000000         0x00020000         xr
ram              0x20000000         0x00004000         xrw
*default*        0x00000000         0xffffffff

Linker script and memory map

LOAD c:/program files (x86)/cypress/psoc creator/4.1/psoc creator/import/gnu/arm/5.4.1/bin/../lib/gcc/arm-none-eabi/5.4.1/armv6-m/crti.o
LOAD c:/program files (x86)/cypress/psoc creator/4.1/psoc creator/import/gnu/arm/5.4.1/bin/../lib/gcc/arm-none-eabi/5.4.1/armv6-m/crtbegin.o
LOAD c:/program files (x86)/cypress/psoc creator/4.1/psoc creator/import/gnu/arm/5.4.1/bin/../lib/gcc/arm-none-eabi/5.4.1/../../../../arm-none-eabi/lib/armv6-m/crt0.o
START GROUP
LOAD .\CortexM0\ARM_GCC_541\Debug\RTC_WDT.o
LOAD .\CortexM0\ARM_GCC_541\Debug\display.o
LOAD .\CortexM0\ARM_GCC_541\Debug\DefaultFonts.o
LOAD .\CortexM0\ARM_GCC_541\Debug\Graphics.o
LOAD .\CortexM0\ARM_GCC_541\Debug\LCD5110_Graph.o
LOAD .\CortexM0\ARM_GCC_541\Debug\gate.o
LOAD .\CortexM0\ARM_GCC_541\Debug\LED.o
LOAD .\CortexM0\ARM_GCC_541\Debug\crc32.o
LOAD .\CortexM0\ARM_GCC_541\Debug\svt.o
LOAD .\CortexM0\ARM_GCC_541\Debug\ntp.o
LOAD .\CortexM0\ARM_GCC_541\Debug\network.o
LOAD .\CortexM0\ARM_GCC_541\Debug\batt.o
LOAD .\CortexM0\ARM_GCC_541\Debug\testMode.o
LOAD .\CortexM0\ARM_GCC_541\Debug\taskAutomat.o
LOAD .\CortexM0\ARM_GCC_541\Debug\IDskier.o
LOAD .\CortexM0\ARM_GCC_541\Debug\main.o
LOAD .\CortexM0\ARM_GCC_541\Debug\cyfitter_cfg.o
LOAD .\CortexM0\ARM_GCC_541\Debug\cymetadata.o
LOAD .\CortexM0\ARM_GCC_541\Debug\Cm0Start.o
LOAD .\CortexM0\ARM_GCC_541\Debug\start_v11.a
LOAD C:\Program Files (x86)\Cypress\PSoC Creator\4.1\PSoC Creator\psoc\content\cycomponentlibrary\CyComponentLibrary.cylib\CortexM0\ARM_GCC_541\Debug\CyComponentLibrary.a
END GROUP
START GROUP
LOAD c:/program files (x86)/cypress/psoc creator/4.1/psoc creator/import/gnu/arm/5.4.1/bin/../lib/gcc/arm-none-eabi/5.4.1/armv6-m\libgcc.a
LOAD c:/program files (x86)/cypress/psoc creator/4.1/psoc creator/import/gnu/arm/5.4.1/bin/../lib/gcc/arm-none-eabi/5.4.1/../../../../arm-none-eabi/lib/armv6-m\libg.a
LOAD c:/program files (x86)/cypress/psoc creator/4.1/psoc creator/import/gnu/arm/5.4.1/bin/../lib/gcc/arm-none-eabi/5.4.1/../../../../arm-none-eabi/lib/armv6-m\libc.a
END GROUP
LOAD c:/program files (x86)/cypress/psoc creator/4.1/psoc creator/import/gnu/arm/5.4.1/bin/../lib/gcc/arm-none-eabi/5.4.1/armv6-m/crtend.o
LOAD c:/program files (x86)/cypress/psoc creator/4.1/psoc creator/import/gnu/arm/5.4.1/bin/../lib/gcc/arm-none-eabi/5.4.1/armv6-m/crtn.o
START GROUP
LOAD c:/program files (x86)/cypress/psoc creator/4.1/psoc creator/import/gnu/arm/5.4.1/bin/../lib/gcc/arm-none-eabi/5.4.1/armv6-m\libgcc.a
LOAD c:/program files (x86)/cypress/psoc creator/4.1/psoc creator/import/gnu/arm/5.4.1/bin/../lib/gcc/arm-none-eabi/5.4.1/../../../../arm-none-eabi/lib/armv6-m\libc.a
LOAD c:/program files (x86)/cypress/psoc creator/4.1/psoc creator/import/gnu/arm/5.4.1/bin/../lib/gcc/arm-none-eabi/5.4.1/../../../../arm-none-eabi/lib/armv6-m\libnosys.a
END GROUP
                0x00000000                CY_APPL_ORIGIN = 0x0
                0x00000080                CY_FLASH_ROW_SIZE = 0x80
                0x00000001                CY_APPL_NUM = 0x1
                0x00000001                CY_APPL_MAX = 0x1
                0x00000040                CY_METADATA_SIZE = 0x40
                0x00000000                CY_APPL_LOADABLE = 0x0
                0x00000000                CY_CHECKSUM_EXCLUDE_SIZE = ALIGN (0x0, CY_FLASH_ROW_SIZE)
                0x00000000                CY_APP_FOR_STACK_AND_COPIER = 0x0
                [!provide]                PROVIDE (__cy_heap_start, _end)
                0x00000001                PROVIDE (__cy_region_num, ((__cy_regions_end - __cy_regions) / 0x10))
                0x20004000                PROVIDE (__cy_stack, (ORIGIN (ram) + LENGTH (ram)))
                [!provide]                PROVIDE (__cy_heap_end, (__cy_stack - 0x800))

.cybootloader   0x00000000        0x0
 *(.cybootloader)
                0x00000000                appl1_start = CY_APPL_ORIGIN?CY_APPL_ORIGIN:ALIGN (CY_FLASH_ROW_SIZE)
                0x0000ff80                appl2_start = (appl1_start + ALIGN ((((LENGTH (rom) - appl1_start) - (0x2 * CY_FLASH_ROW_SIZE)) / 0x2), CY_FLASH_ROW_SIZE))
                0x00000000                appl_start = (CY_APPL_NUM == 0x1)?appl1_start:appl2_start
                0x00000001                cy_project_type_bootloader = (appl_start == 0x0)?0x1:0x0
                0x00000000                cy_project_type_app_for_stack_and_copier = (CY_APP_FOR_STACK_AND_COPIER == 0x1)?0x1:0x0

.text           0x00000000    0x13638
 CREATE_OBJECT_SYMBOLS
                0x00000000                PROVIDE (__cy_interrupt_vector, RomVectors)
 *(.romvectors)
 .romvectors    0x00000000       0x10 .\CortexM0\ARM_GCC_541\Debug\Cm0Start.o
                0x00000000                RomVectors
                0x00000001                ASSERT ((. != __cy_interrupt_vector), No interrupt vector)
                0x00000001                ASSERT (CY_APPL_ORIGIN?(SIZEOF (.cybootloader) <= CY_APPL_ORIGIN):0x1, Wrong image location)
                0x00000010                PROVIDE (__cy_reset, Reset)
 *(.text.Reset)
 .text.Reset    0x00000010        0x8 .\CortexM0\ARM_GCC_541\Debug\Cm0Start.o
                0x00000010                Reset
                0x00000001                ASSERT ((. != __cy_reset), No reset code)
 *(.psocinit)
 .psocinit      0x00000018      0x320 .\CortexM0\ARM_GCC_541\Debug\cyfitter_cfg.o
                0x000001b4                cyfitter_cfg
                0x00000338                . = MAX (., 0x100)
 *(.text .text.* .gnu.linkonce.t.*)
 .text          0x00000338        0x0 c:/program files (x86)/cypress/psoc creator/4.1/psoc creator/import/gnu/arm/5.4.1/bin/../lib/gcc/arm-none-eabi/5.4.1/armv6-m/crti.o
 .text          0x00000338       0x60 c:/program files (x86)/cypress/psoc creator/4.1/psoc creator/import/gnu/arm/5.4.1/bin/../lib/gcc/arm-none-eabi/5.4.1/armv6-m/crtbegin.o
 .text          0x00000398       0x78 c:/program files (x86)/cypress/psoc creator/4.1/psoc creator/import/gnu/arm/5.4.1/bin/../lib/gcc/arm-none-eabi/5.4.1/../../../../arm-none-eabi/lib/armv6-m/crt0.o
                0x00000398                _start
                0x00000398                _mainCRTStartup
 .text          0x00000410        0x0 .\CortexM0\ARM_GCC_541\Debug\RTC_WDT.o
 .text.RTC_IsBitSet
                0x00000410       0x24 .\CortexM0\ARM_GCC_541\Debug\RTC_WDT.o
 .text.RTC_GetSecond
                0x00000434       0x30 .\CortexM0\ARM_GCC_541\Debug\RTC_WDT.o
 .text.RTC_GetMinutes
                0x00000464       0x34 .\CortexM0\ARM_GCC_541\Debug\RTC_WDT.o
 .text.RTC_GetHours
                0x00000498       0x34 .\CortexM0\ARM_GCC_541\Debug\RTC_WDT.o
 .text.RTC_GetAmPm
                0x000004cc       0x20 .\CortexM0\ARM_GCC_541\Debug\RTC_WDT.o
 .text.CallBackCounter
                0x000004ec       0x3c .\CortexM0\ARM_GCC_541\Debug\RTC_WDT.o
                0x000004ec                CallBackCounter
 .text.RTC_WDT_Init
                0x00000528       0x24 .\CortexM0\ARM_GCC_541\Debug\RTC_WDT.o
                0x00000528                RTC_WDT_Init
 .text.RTCgetTime
                0x0000054c      0x3c0 .\CortexM0\ARM_GCC_541\Debug\RTC_WDT.o
                0x0000054c                RTCgetTime
 .text.RTCGetUnixTime
                0x0000090c       0x14 .\CortexM0\ARM_GCC_541\Debug\RTC_WDT.o
                0x0000090c                RTCGetUnixTime
 .text.RTCgetHours
                0x00000920       0x78 .\CortexM0\ARM_GCC_541\Debug\RTC_WDT.o
                0x00000920                RTCgetHours
 .text.RTCgetMinutes
                0x00000998       0x84 .\CortexM0\ARM_GCC_541\Debug\RTC_WDT.o
                0x00000998                RTCgetMinutes
 .text.RTCgetSecond
                0x00000a1c       0x4c .\CortexM0\ARM_GCC_541\Debug\RTC_WDT.o
                0x00000a1c                RTCgetSecond
 .text.RTCgetMiliecond
                0x00000a68       0x60 .\CortexM0\ARM_GCC_541\Debug\RTC_WDT.o
                0x00000a68                RTCgetMiliecond
 .text.RTCgetRecentMs
                0x00000ac8       0x14 .\CortexM0\ARM_GCC_541\Debug\RTC_WDT.o
                0x00000ac8                RTCgetRecentMs
 .text.RTCSync  0x00000adc       0x34 .\CortexM0\ARM_GCC_541\Debug\RTC_WDT.o
                0x00000adc                RTCSync
 .text          0x00000b10        0x0 .\CortexM0\ARM_GCC_541\Debug\display.o
 .text.RTC_GetSecond
                0x00000b10       0x30 .\CortexM0\ARM_GCC_541\Debug\display.o
 .text.RTC_GetMinutes
                0x00000b40       0x34 .\CortexM0\ARM_GCC_541\Debug\display.o
 .text.RTC_GetHours
                0x00000b74       0x34 .\CortexM0\ARM_GCC_541\Debug\display.o
 .text.DisplayStart
                0x00000ba8       0x40 .\CortexM0\ARM_GCC_541\Debug\display.o
                0x00000ba8                DisplayStart
 .text.Display  0x00000be8       0x84 .\CortexM0\ARM_GCC_541\Debug\display.o
                0x00000be8                Display
 .text.DisplayIndicatorSD
                0x00000c6c       0x4c .\CortexM0\ARM_GCC_541\Debug\display.o
                0x00000c6c                DisplayIndicatorSD
 .text.DisplayIndicatorNetwork
                0x00000cb8       0x68 .\CortexM0\ARM_GCC_541\Debug\display.o
                0x00000cb8                DisplayIndicatorNetwork
 .text.DisplayNetworkQuality
                0x00000d20       0xf8 .\CortexM0\ARM_GCC_541\Debug\display.o
                0x00000d20                DisplayNetworkQuality
 .text.DisplayRealTime
                0x00000e18       0x68 .\CortexM0\ARM_GCC_541\Debug\display.o
                0x00000e18                DisplayRealTime
 .text.DisplayLoading
                0x00000e80       0x10 .\CortexM0\ARM_GCC_541\Debug\display.o
                0x00000e80                DisplayLoading
 .text.DisplayBattVoltage
                0x00000e90      0x158 .\CortexM0\ARM_GCC_541\Debug\display.o
                0x00000e90                DisplayBattVoltage
 .text.DisplayLastSkierTime
                0x00000fe8       0x88 .\CortexM0\ARM_GCC_541\Debug\display.o
                0x00000fe8                DisplayLastSkierTime
 .text.DisplayNumSkierOnWay
                0x00001070       0x40 .\CortexM0\ARM_GCC_541\Debug\display.o
                0x00001070                DisplayNumSkierOnWay
 .text.DisplayTestMode
                0x000010b0       0x4c .\CortexM0\ARM_GCC_541\Debug\display.o
                0x000010b0                DisplayTestMode
 .text.DisplaBacklightOn
                0x000010fc       0x10 .\CortexM0\ARM_GCC_541\Debug\display.o
                0x000010fc                DisplaBacklightOn
 .text.DisplaBacklightOff
                0x0000110c       0x10 .\CortexM0\ARM_GCC_541\Debug\display.o
                0x0000110c                DisplaBacklightOff
 .text.DisplayIDskier
                0x0000111c       0xd0 .\CortexM0\ARM_GCC_541\Debug\display.o
                0x0000111c                DisplayIDskier
 .text          0x000011ec        0x0 .\CortexM0\ARM_GCC_541\Debug\DefaultFonts.o
 .text          0x000011ec        0x0 .\CortexM0\ARM_GCC_541\Debug\Graphics.o
 .text          0x000011ec        0x0 .\CortexM0\ARM_GCC_541\Debug\LCD5110_Graph.o
 .text._convert_float
                0x000011ec       0x3c .\CortexM0\ARM_GCC_541\Debug\LCD5110_Graph.o
                0x000011ec                _convert_float
 .text._LCD_Write
                0x00001228       0x48 .\CortexM0\ARM_GCC_541\Debug\LCD5110_Graph.o
                0x00001228                _LCD_Write
 .text.InitLCD  0x00001270       0xa4 .\CortexM0\ARM_GCC_541\Debug\LCD5110_Graph.o
                0x00001270                InitLCD
 .text.setContrast
                0x00001314       0x54 .\CortexM0\ARM_GCC_541\Debug\LCD5110_Graph.o
                0x00001314                setContrast
 .text.enableSleep
                0x00001368       0x50 .\CortexM0\ARM_GCC_541\Debug\LCD5110_Graph.o
                0x00001368                enableSleep
 .text.disableSleep
                0x000013b8       0x5c .\CortexM0\ARM_GCC_541\Debug\LCD5110_Graph.o
                0x000013b8                disableSleep
 .text.update   0x00001414       0x5c .\CortexM0\ARM_GCC_541\Debug\LCD5110_Graph.o
                0x00001414                update
 .text.clrScr   0x00001470       0x34 .\CortexM0\ARM_GCC_541\Debug\LCD5110_Graph.o
                0x00001470                clrScr
 .text.fillScr  0x000014a4       0x34 .\CortexM0\ARM_GCC_541\Debug\LCD5110_Graph.o
                0x000014a4                fillScr
 .text.invert   0x000014d8       0x30 .\CortexM0\ARM_GCC_541\Debug\LCD5110_Graph.o
                0x000014d8                invert
 .text.setPixel
                0x00001508       0x74 .\CortexM0\ARM_GCC_541\Debug\LCD5110_Graph.o
                0x00001508                setPixel
 .text.clrPixel
                0x0000157c       0x78 .\CortexM0\ARM_GCC_541\Debug\LCD5110_Graph.o
                0x0000157c                clrPixel
 .text.invPixel
                0x000015f4       0xb4 .\CortexM0\ARM_GCC_541\Debug\LCD5110_Graph.o
                0x000015f4                invPixel
 .text.invertText
                0x000016a8       0x30 .\CortexM0\ARM_GCC_541\Debug\LCD5110_Graph.o
                0x000016a8                invertText
 .text.print    0x000016d8       0x94 .\CortexM0\ARM_GCC_541\Debug\LCD5110_Graph.o
                0x000016d8                print
 .text.prints   0x0000176c       0x20 .\CortexM0\ARM_GCC_541\Debug\LCD5110_Graph.o
                0x0000176c                prints
 .text.printNumI
                0x0000178c      0x1a8 .\CortexM0\ARM_GCC_541\Debug\LCD5110_Graph.o
                0x0000178c                printNumI
 .text.printNumF
                0x00001934      0x154 .\CortexM0\ARM_GCC_541\Debug\LCD5110_Graph.o
                0x00001934                printNumF
 .text._print_char
                0x00001a88      0x2a8 .\CortexM0\ARM_GCC_541\Debug\LCD5110_Graph.o
                0x00001a88                _print_char
 .text.setFont  0x00001d30       0x48 .\CortexM0\ARM_GCC_541\Debug\LCD5110_Graph.o
                0x00001d30                setFont
 .text.drawHLine
                0x00001d78       0x98 .\CortexM0\ARM_GCC_541\Debug\LCD5110_Graph.o
                0x00001d78                drawHLine
 .text.clrHLine
                0x00001e10       0x9c .\CortexM0\ARM_GCC_541\Debug\LCD5110_Graph.o
                0x00001e10                clrHLine
 .text.drawVLine
                0x00001eac       0x58 .\CortexM0\ARM_GCC_541\Debug\LCD5110_Graph.o
                0x00001eac                drawVLine
 .text.clrVLine
                0x00001f04       0x58 .\CortexM0\ARM_GCC_541\Debug\LCD5110_Graph.o
                0x00001f04                clrVLine
 .text.drawLine
                0x00001f5c      0x2b8 .\CortexM0\ARM_GCC_541\Debug\LCD5110_Graph.o
                0x00001f5c                drawLine
 .text.clrLine  0x00002214      0x2b8 .\CortexM0\ARM_GCC_541\Debug\LCD5110_Graph.o
                0x00002214                clrLine
 .text.drawRect
                0x000024cc       0x80 .\CortexM0\ARM_GCC_541\Debug\LCD5110_Graph.o
                0x000024cc                drawRect
 .text.clrRect  0x0000254c       0x80 .\CortexM0\ARM_GCC_541\Debug\LCD5110_Graph.o
                0x0000254c                clrRect
 .text.drawRoundRect
                0x000025cc      0x104 .\CortexM0\ARM_GCC_541\Debug\LCD5110_Graph.o
                0x000025cc                drawRoundRect
 .text.clrRoundRect
                0x000026d0      0x104 .\CortexM0\ARM_GCC_541\Debug\LCD5110_Graph.o
                0x000026d0                clrRoundRect
 .text.drawCircle
                0x000027d4      0x1bc .\CortexM0\ARM_GCC_541\Debug\LCD5110_Graph.o
                0x000027d4                drawCircle
 .text.clrCircle
                0x00002990      0x1bc .\CortexM0\ARM_GCC_541\Debug\LCD5110_Graph.o
                0x00002990                clrCircle
 .text.drawBitmap
                0x00002b4c       0xcc .\CortexM0\ARM_GCC_541\Debug\LCD5110_Graph.o
                0x00002b4c                drawBitmap
 .text          0x00002c18        0x0 .\CortexM0\ARM_GCC_541\Debug\gate.o
 .text.GATE_INTERRUPT
                0x00002c18       0x3c .\CortexM0\ARM_GCC_541\Debug\gate.o
                0x00002c18                GATE_INTERRUPT
 .text.GateInit
                0x00002c54       0x28 .\CortexM0\ARM_GCC_541\Debug\gate.o
                0x00002c54                GateInit
 .text.GateIsOpen
                0x00002c7c       0x20 .\CortexM0\ARM_GCC_541\Debug\gate.o
                0x00002c7c                GateIsOpen
 .text.AllowNextSkier
                0x00002c9c       0x14 .\CortexM0\ARM_GCC_541\Debug\gate.o
                0x00002c9c                AllowNextSkier
 .text.DisAllowNextSkier
                0x00002cb0       0x20 .\CortexM0\ARM_GCC_541\Debug\gate.o
                0x00002cb0                DisAllowNextSkier
 .text.GetStartTime
                0x00002cd0       0x30 .\CortexM0\ARM_GCC_541\Debug\gate.o
                0x00002cd0                GetStartTime
 .text          0x00002d00        0x0 .\CortexM0\ARM_GCC_541\Debug\LED.o
 .text.LedInit  0x00002d00       0x2c .\CortexM0\ARM_GCC_541\Debug\LED.o
                0x00002d00                LedInit
 .text.LedHandler
                0x00002d2c       0x20 .\CortexM0\ARM_GCC_541\Debug\LED.o
                0x00002d2c                LedHandler
 .text.LedRedBlink
                0x00002d4c       0x34 .\CortexM0\ARM_GCC_541\Debug\LED.o
                0x00002d4c                LedRedBlink
 .text.SetLedsState
                0x00002d80       0x34 .\CortexM0\ARM_GCC_541\Debug\LED.o
                0x00002d80                SetLedsState
 .text          0x00002db4        0x0 .\CortexM0\ARM_GCC_541\Debug\crc32.o
 .text.crc32_update
                0x00002db4       0x50 .\CortexM0\ARM_GCC_541\Debug\crc32.o
                0x00002db4                crc32_update
 .text.crc32_calc_block
                0x00002e04       0x44 .\CortexM0\ARM_GCC_541\Debug\crc32.o
                0x00002e04                crc32_calc_block
 .text.crc32_calc
                0x00002e48       0x2c .\CortexM0\ARM_GCC_541\Debug\crc32.o
                0x00002e48                crc32_calc
 .text.crc32_init_tab
                0x00002e74       0x6c .\CortexM0\ARM_GCC_541\Debug\crc32.o
 .text          0x00002ee0        0x0 .\CortexM0\ARM_GCC_541\Debug\svt.o
 .text.UnpackData
                0x00002ee0      0x468 .\CortexM0\ARM_GCC_541\Debug\svt.o
                0x00002ee0                UnpackData
 .text.DecodeByte
                0x00003348       0x50 .\CortexM0\ARM_GCC_541\Debug\svt.o
                0x00003348                DecodeByte
 .text.CheckSymb
                0x00003398       0x34 .\CortexM0\ARM_GCC_541\Debug\svt.o
                0x00003398                CheckSymb
 .text.ResetPacket
                0x000033cc       0x40 .\CortexM0\ARM_GCC_541\Debug\svt.o
                0x000033cc                ResetPacket
 .text.PackData
                0x0000340c      0x13c .\CortexM0\ARM_GCC_541\Debug\svt.o
                0x0000340c                PackData
 .text          0x00003548        0x0 .\CortexM0\ARM_GCC_541\Debug\ntp.o
 .text.NtpUnpackData
                0x00003548      0x26c .\CortexM0\ARM_GCC_541\Debug\ntp.o
                0x00003548                NtpUnpackData
 .text.NtpDecodeByte
                0x000037b4       0x50 .\CortexM0\ARM_GCC_541\Debug\ntp.o
                0x000037b4                NtpDecodeByte
 .text.NtpCheckSymb
                0x00003804       0x34 .\CortexM0\ARM_GCC_541\Debug\ntp.o
                0x00003804                NtpCheckSymb
 .text.NtpResetPacket
                0x00003838       0x30 .\CortexM0\ARM_GCC_541\Debug\ntp.o
                0x00003838                NtpResetPacket
 .text          0x00003868        0x0 .\CortexM0\ARM_GCC_541\Debug\network.o
 .text.CallBackNetworkCounter
                0x00003868       0x54 .\CortexM0\ARM_GCC_541\Debug\network.o
                0x00003868                CallBackNetworkCounter
 .text.InitNetwork
                0x000038bc       0x58 .\CortexM0\ARM_GCC_541\Debug\network.o
                0x000038bc                InitNetwork
 .text.CustomInterruptHandler
                0x00003914      0x164 .\CortexM0\ARM_GCC_541\Debug\network.o
                0x00003914                CustomInterruptHandler
 .text.SendData
                0x00003a78       0xfc .\CortexM0\ARM_GCC_541\Debug\network.o
                0x00003a78                SendData
 .text.NetworkStatus
                0x00003b74       0x14 .\CortexM0\ARM_GCC_541\Debug\network.o
                0x00003b74                NetworkStatus
 .text.SendSkierStart
                0x00003b88       0x30 .\CortexM0\ARM_GCC_541\Debug\network.o
                0x00003b88                SendSkierStart
 .text.FinReady
                0x00003bb8       0x14 .\CortexM0\ARM_GCC_541\Debug\network.o
                0x00003bb8                FinReady
 .text.FinWriteInDB
                0x00003bcc       0x28 .\CortexM0\ARM_GCC_541\Debug\network.o
                0x00003bcc                FinWriteInDB
 .text.IsRebootFinishFlag
                0x00003bf4       0x44 .\CortexM0\ARM_GCC_541\Debug\network.o
                0x00003bf4                IsRebootFinishFlag
 .text.SetRebootFlag
                0x00003c38       0x14 .\CortexM0\ARM_GCC_541\Debug\network.o
                0x00003c38                SetRebootFlag
 .text.ClearRebootFlag
                0x00003c4c       0x20 .\CortexM0\ARM_GCC_541\Debug\network.o
                0x00003c4c                ClearRebootFlag
 .text.NetworkReadTestModeStatus
                0x00003c6c       0x14 .\CortexM0\ARM_GCC_541\Debug\network.o
                0x00003c6c                NetworkReadTestModeStatus
 .text.NetworkSendTestModeStatus
                0x00003c80       0x30 .\CortexM0\ARM_GCC_541\Debug\network.o
                0x00003c80                NetworkSendTestModeStatus
 .text.NetworkQuality
                0x00003cb0       0x60 .\CortexM0\ARM_GCC_541\Debug\network.o
                0x00003cb0                NetworkQuality
 .text.NTPsync  0x00003d10      0x274 .\CortexM0\ARM_GCC_541\Debug\network.o
                0x00003d10                NTPsync
 .text.NTPsendTime
                0x00003f84       0x64 .\CortexM0\ARM_GCC_541\Debug\network.o
                0x00003f84                NTPsendTime
 .text          0x00003fe8        0x0 .\CortexM0\ARM_GCC_541\Debug\batt.o
 .text.BattADC_Init
                0x00003fe8       0x18 .\CortexM0\ARM_GCC_541\Debug\batt.o
                0x00003fe8                BattADC_Init
 .text.ReadBattVoltage
                0x00004000       0x34 .\CortexM0\ARM_GCC_541\Debug\batt.o
                0x00004000                ReadBattVoltage
 .text          0x00004034        0x0 .\CortexM0\ARM_GCC_541\Debug\testMode.o
 .text.testModeHandler
                0x00004034       0x30 .\CortexM0\ARM_GCC_541\Debug\testMode.o
                0x00004034                testModeHandler
 .text.TestMode
                0x00004064      0x10c .\CortexM0\ARM_GCC_541\Debug\testMode.o
                0x00004064                TestMode
 .text.TestMode_UpdateNewRandomTime
                0x00004170       0x40 .\CortexM0\ARM_GCC_541\Debug\testMode.o
                0x00004170                TestMode_UpdateNewRandomTime
 .text.ReadSwitchState
                0x000041b0       0x80 .\CortexM0\ARM_GCC_541\Debug\testMode.o
                0x000041b0                ReadSwitchState
 .text.ReadNetworkState
                0x00004230       0x74 .\CortexM0\ARM_GCC_541\Debug\testMode.o
                0x00004230                ReadNetworkState
 .text.AllowNextTestSkier
                0x000042a4       0x14 .\CortexM0\ARM_GCC_541\Debug\testMode.o
                0x000042a4                AllowNextTestSkier
 .text          0x000042b8        0x0 .\CortexM0\ARM_GCC_541\Debug\taskAutomat.o
 .text.TIMER_HANDLER
                0x000042b8       0x94 .\CortexM0\ARM_GCC_541\Debug\taskAutomat.o
                0x000042b8                TIMER_HANDLER
 .text.TaskCheck
                0x0000434c       0x4c .\CortexM0\ARM_GCC_541\Debug\taskAutomat.o
                0x0000434c                TaskCheck
 .text.TaskTimerInit
                0x00004398       0x40 .\CortexM0\ARM_GCC_541\Debug\taskAutomat.o
                0x00004398                TaskTimerInit
 .text.SetTaskTimer
                0x000043d8       0x90 .\CortexM0\ARM_GCC_541\Debug\taskAutomat.o
                0x000043d8                SetTaskTimer
 .text.Action1  0x00004468       0x24 .\CortexM0\ARM_GCC_541\Debug\taskAutomat.o
                0x00004468                Action1
 .text.Action2  0x0000448c       0x3c .\CortexM0\ARM_GCC_541\Debug\taskAutomat.o
                0x0000448c                Action2
 .text.Action3  0x000044c8       0x2c .\CortexM0\ARM_GCC_541\Debug\taskAutomat.o
                0x000044c8                Action3
 .text.Action4  0x000044f4       0x14 .\CortexM0\ARM_GCC_541\Debug\taskAutomat.o
                0x000044f4                Action4
 .text.Action5  0x00004508       0x14 .\CortexM0\ARM_GCC_541\Debug\taskAutomat.o
                0x00004508                Action5
 .text          0x0000451c        0x0 .\CortexM0\ARM_GCC_541\Debug\IDskier.o
 .text.BUTT_UP_INTERRUPT
                0x0000451c       0x1c .\CortexM0\ARM_GCC_541\Debug\IDskier.o
                0x0000451c                BUTT_UP_INTERRUPT
 .text.BUTT_DOWN_INTERRUPT
                0x00004538       0x1c .\CortexM0\ARM_GCC_541\Debug\IDskier.o
                0x00004538                BUTT_DOWN_INTERRUPT
 .text.ButtInit
                0x00004554       0x34 .\CortexM0\ARM_GCC_541\Debug\IDskier.o
                0x00004554                ButtInit
 .text.ButtCheck
                0x00004588       0xc8 .\CortexM0\ARM_GCC_541\Debug\IDskier.o
                0x00004588                ButtCheck
 .text.ReadIdSkier
                0x00004650       0x14 .\CortexM0\ARM_GCC_541\Debug\IDskier.o
                0x00004650                ReadIdSkier
 .text.IncrementIDskier
                0x00004664       0x1c .\CortexM0\ARM_GCC_541\Debug\IDskier.o
                0x00004664                IncrementIDskier
 .text          0x00004680        0x0 .\CortexM0\ARM_GCC_541\Debug\main.o
 .text.main     0x00004680       0xb4 .\CortexM0\ARM_GCC_541\Debug\main.o
                0x00004680                main
 .text.SystemInit
                0x00004734       0x68 .\CortexM0\ARM_GCC_541\Debug\main.o
                0x00004734                SystemInit
 .text.TimeSynchronize
                0x0000479c       0x8c .\CortexM0\ARM_GCC_541\Debug\main.o
                0x0000479c                TimeSynchronize
 .text.GetFinishStatus
                0x00004828       0x68 .\CortexM0\ARM_GCC_541\Debug\main.o
                0x00004828                GetFinishStatus
 .text.CheckGate
                0x00004890       0x60 .\CortexM0\ARM_GCC_541\Debug\main.o
                0x00004890                CheckGate
 .text.SaveResult
                0x000048f0       0x68 .\CortexM0\ARM_GCC_541\Debug\main.o
                0x000048f0                SaveResult
 .text.Delay    0x00004958       0x28 .\CortexM0\ARM_GCC_541\Debug\main.o
                0x00004958                Delay
 .text          0x00004980        0x0 .\CortexM0\ARM_GCC_541\Debug\cyfitter_cfg.o
 .text.CYMEMZERO
                0x00004980       0x20 .\CortexM0\ARM_GCC_541\Debug\cyfitter_cfg.o
 .text.CYCONFIGCPY
                0x000049a0       0x20 .\CortexM0\ARM_GCC_541\Debug\cyfitter_cfg.o
 .text.CYCONFIGCPYCODE
                0x000049c0       0x20 .\CortexM0\ARM_GCC_541\Debug\cyfitter_cfg.o
 .text.cfg_write_bytes32
                0x000049e0       0x84 .\CortexM0\ARM_GCC_541\Debug\cyfitter_cfg.o
 .text.AnalogSetDefault
                0x00004a64       0x44 .\CortexM0\ARM_GCC_541\Debug\cyfitter_cfg.o
 .text.SetAnalogRoutingPumps
                0x00004aa8       0x40 .\CortexM0\ARM_GCC_541\Debug\cyfitter_cfg.o
                0x00004aa8                SetAnalogRoutingPumps
 .text          0x00004ae8        0x0 .\CortexM0\ARM_GCC_541\Debug\cymetadata.o
 .text          0x00004ae8        0x0 .\CortexM0\ARM_GCC_541\Debug\Cm0Start.o
 .text.IntDefaultHandler
                0x00004ae8        0x8 .\CortexM0\ARM_GCC_541\Debug\Cm0Start.o
                0x00004ae8                IntDefaultHandler
 .text._exit    0x00004af0       0x14 .\CortexM0\ARM_GCC_541\Debug\Cm0Start.o
                0x00004af0                _exit
 .text._sbrk    0x00004b04       0x54 .\CortexM0\ARM_GCC_541\Debug\Cm0Start.o
                0x00004b04                _sbrk
 .text.Start_c  0x00004b58       0x98 .\CortexM0\ARM_GCC_541\Debug\Cm0Start.o
                0x00004b58                Start_c
 .text.initialize_psoc
                0x00004bf0       0x70 .\CortexM0\ARM_GCC_541\Debug\Cm0Start.o
                0x00004bf0                initialize_psoc
 .text          0x00004c60        0x0 .\CortexM0\ARM_GCC_541\Debug\start_v11.a(CyLib.o)
 .text.CySysClkImoStart
                0x00004c60       0x1c .\CortexM0\ARM_GCC_541\Debug\start_v11.a(CyLib.o)
                0x00004c60                CySysClkImoStart
 .text.CySysClkImoStop
                0x00004c7c       0x1c .\CortexM0\ARM_GCC_541\Debug\start_v11.a(CyLib.o)
                0x00004c7c                CySysClkImoStop
 .text.CySysClkWriteHfclkDirect
                0x00004c98       0x48 .\CortexM0\ARM_GCC_541\Debug\start_v11.a(CyLib.o)
                0x00004c98                CySysClkWriteHfclkDirect
 .text.CySysClkGetSysclkSource
                0x00004ce0       0x34 .\CortexM0\ARM_GCC_541\Debug\start_v11.a(CyLib.o)
                0x00004ce0                CySysClkGetSysclkSource
 .text.CySysClkWriteSysclkDiv
                0x00004d14       0x48 .\CortexM0\ARM_GCC_541\Debug\start_v11.a(CyLib.o)
                0x00004d14                CySysClkWriteSysclkDiv
 .text.CySysClkWriteImoFreq
                0x00004d5c       0x9c .\CortexM0\ARM_GCC_541\Debug\start_v11.a(CyLib.o)
                0x00004d5c                CySysClkWriteImoFreq
 .text.CySysClkEcoStart
                0x00004df8       0x74 .\CortexM0\ARM_GCC_541\Debug\start_v11.a(CyLib.o)
                0x00004df8                CySysClkEcoStart
 .text.CySysClkEcoStop
                0x00004e6c       0x30 .\CortexM0\ARM_GCC_541\Debug\start_v11.a(CyLib.o)
                0x00004e6c                CySysClkEcoStop
 .text.CySysClkEcoReadStatus
                0x00004e9c       0x20 .\CortexM0\ARM_GCC_541\Debug\start_v11.a(CyLib.o)
                0x00004e9c                CySysClkEcoReadStatus
 .text.CySysClkWriteEcoDiv
                0x00004ebc       0x58 .\CortexM0\ARM_GCC_541\Debug\start_v11.a(CyLib.o)
                0x00004ebc                CySysClkWriteEcoDiv
 .text.CySysLvdEnable
                0x00004f14       0x64 .\CortexM0\ARM_GCC_541\Debug\start_v11.a(CyLib.o)
                0x00004f14                CySysLvdEnable
 .text.CySysLvdDisable
                0x00004f78       0x2c .\CortexM0\ARM_GCC_541\Debug\start_v11.a(CyLib.o)
                0x00004f78                CySysLvdDisable
 .text.CySysLvdGetInterruptSource
                0x00004fa4       0x18 .\CortexM0\ARM_GCC_541\Debug\start_v11.a(CyLib.o)
                0x00004fa4                CySysLvdGetInterruptSource
 .text.CySysLvdClearInterrupt
                0x00004fbc       0x14 .\CortexM0\ARM_GCC_541\Debug\start_v11.a(CyLib.o)
                0x00004fbc                CySysLvdClearInterrupt
 .text.CySysGetResetReason
                0x00004fd0       0x30 .\CortexM0\ARM_GCC_541\Debug\start_v11.a(CyLib.o)
                0x00004fd0                CySysGetResetReason
 .text.CyDisableInts
                0x00005000       0x24 .\CortexM0\ARM_GCC_541\Debug\start_v11.a(CyLib.o)
                0x00005000                CyDisableInts
 .text.CyEnableInts
                0x00005024       0x1c .\CortexM0\ARM_GCC_541\Debug\start_v11.a(CyLib.o)
                0x00005024                CyEnableInts
 .text.CyIntSetSysVector
                0x00005040       0x48 .\CortexM0\ARM_GCC_541\Debug\start_v11.a(CyLib.o)
                0x00005040                CyIntSetSysVector
 .text.CyIntGetSysVector
                0x00005088       0x34 .\CortexM0\ARM_GCC_541\Debug\start_v11.a(CyLib.o)
                0x00005088                CyIntGetSysVector
 .text.CyIntSetVector
                0x000050bc       0x4c .\CortexM0\ARM_GCC_541\Debug\start_v11.a(CyLib.o)
                0x000050bc                CyIntSetVector
 .text.CyIntGetVector
                0x00005108       0x38 .\CortexM0\ARM_GCC_541\Debug\start_v11.a(CyLib.o)
                0x00005108                CyIntGetVector
 .text.CyIntSetPriority
                0x00005140       0xa8 .\CortexM0\ARM_GCC_541\Debug\start_v11.a(CyLib.o)
                0x00005140                CyIntSetPriority
 .text.CyIntGetPriority
                0x000051e8       0x58 .\CortexM0\ARM_GCC_541\Debug\start_v11.a(CyLib.o)
                0x000051e8                CyIntGetPriority
 .text.CyIntEnable
                0x00005240       0x2c .\CortexM0\ARM_GCC_541\Debug\start_v11.a(CyLib.o)
                0x00005240                CyIntEnable
 .text.CyIntGetState
                0x0000526c       0x30 .\CortexM0\ARM_GCC_541\Debug\start_v11.a(CyLib.o)
                0x0000526c                CyIntGetState
 .text.CyIntDisable
                0x0000529c       0x2c .\CortexM0\ARM_GCC_541\Debug\start_v11.a(CyLib.o)
                0x0000529c                CyIntDisable
 .text.CyIntSetPending
                0x000052c8       0x2c .\CortexM0\ARM_GCC_541\Debug\start_v11.a(CyLib.o)
                0x000052c8                CyIntSetPending
 .text.CyIntClearPending
                0x000052f4       0x2c .\CortexM0\ARM_GCC_541\Debug\start_v11.a(CyLib.o)
                0x000052f4                CyIntClearPending
 .text.CyHalt   0x00005320       0x18 .\CortexM0\ARM_GCC_541\Debug\start_v11.a(CyLib.o)
                0x00005320                CyHalt
 .text.CySoftwareReset
                0x00005338       0x24 .\CortexM0\ARM_GCC_541\Debug\start_v11.a(CyLib.o)
                0x00005338                CySoftwareReset
 .text.CyDelay  0x0000535c       0x4c .\CortexM0\ARM_GCC_541\Debug\start_v11.a(CyLib.o)
                0x0000535c                CyDelay
 .text.CyDelayUs
                0x000053a8       0x28 .\CortexM0\ARM_GCC_541\Debug\start_v11.a(CyLib.o)
                0x000053a8                CyDelayUs
 .text.CyDelayFreq
                0x000053d0       0x84 .\CortexM0\ARM_GCC_541\Debug\start_v11.a(CyLib.o)
                0x000053d0                CyDelayFreq
 .text.CySysTickStart
                0x00005454       0x24 .\CortexM0\ARM_GCC_541\Debug\start_v11.a(CyLib.o)
                0x00005454                CySysTickStart
 .text.CySysTickInit
                0x00005478       0x68 .\CortexM0\ARM_GCC_541\Debug\start_v11.a(CyLib.o)
                0x00005478                CySysTickInit
 .text.CySysTickEnable
                0x000054e0       0x20 .\CortexM0\ARM_GCC_541\Debug\start_v11.a(CyLib.o)
                0x000054e0                CySysTickEnable
 .text.CySysTickStop
                0x00005500       0x1c .\CortexM0\ARM_GCC_541\Debug\start_v11.a(CyLib.o)
                0x00005500                CySysTickStop
 .text.CySysTickEnableInterrupt
                0x0000551c       0x1c .\CortexM0\ARM_GCC_541\Debug\start_v11.a(CyLib.o)
                0x0000551c                CySysTickEnableInterrupt
 .text.CySysTickDisableInterrupt
                0x00005538       0x1c .\CortexM0\ARM_GCC_541\Debug\start_v11.a(CyLib.o)
                0x00005538                CySysTickDisableInterrupt
 .text.CySysTickSetReload
                0x00005554       0x20 .\CortexM0\ARM_GCC_541\Debug\start_v11.a(CyLib.o)
                0x00005554                CySysTickSetReload
 .text.CySysTickGetReload
                0x00005574       0x18 .\CortexM0\ARM_GCC_541\Debug\start_v11.a(CyLib.o)
                0x00005574                CySysTickGetReload
 .text.CySysTickGetValue
                0x0000558c       0x18 .\CortexM0\ARM_GCC_541\Debug\start_v11.a(CyLib.o)
                0x0000558c                CySysTickGetValue
 .text.CySysTickSetClockSource
                0x000055a4       0x34 .\CortexM0\ARM_GCC_541\Debug\start_v11.a(CyLib.o)
                0x000055a4                CySysTickSetClockSource
 .text.CySysTickGetCountFlag
                0x000055d8       0x18 .\CortexM0\ARM_GCC_541\Debug\start_v11.a(CyLib.o)
                0x000055d8                CySysTickGetCountFlag
 .text.CySysTickClear
                0x000055f0       0x14 .\CortexM0\ARM_GCC_541\Debug\start_v11.a(CyLib.o)
                0x000055f0                CySysTickClear
 .text.CySysTickSetCallback
                0x00005604       0x2c .\CortexM0\ARM_GCC_541\Debug\start_v11.a(CyLib.o)
                0x00005604                CySysTickSetCallback
 .text.CySysTickGetCallback
                0x00005630       0x1c .\CortexM0\ARM_GCC_541\Debug\start_v11.a(CyLib.o)
                0x00005630                CySysTickGetCallback
 .text.CySysTickServiceCallbacks
                0x0000564c       0x44 .\CortexM0\ARM_GCC_541\Debug\start_v11.a(CyLib.o)
 .text.CyGetUniqueId
                0x00005690       0xc0 .\CortexM0\ARM_GCC_541\Debug\start_v11.a(CyLib.o)
                0x00005690                CyGetUniqueId
 .text          0x00005750        0x0 .\CortexM0\ARM_GCC_541\Debug\start_v11.a(CyLFClk.o)
 .text.CySysClkWcoSetHighPowerMode
                0x00005750       0x4c .\CortexM0\ARM_GCC_541\Debug\start_v11.a(CyLFClk.o)
 .text.CySysClkWcoSetLowPowerMode
                0x0000579c       0x4c .\CortexM0\ARM_GCC_541\Debug\start_v11.a(CyLFClk.o)
 .text.CySysClkIloStart
                0x000057e8       0x1c .\CortexM0\ARM_GCC_541\Debug\start_v11.a(CyLFClk.o)
                0x000057e8                CySysClkIloStart
 .text.CySysClkIloStop
                0x00005804       0x60 .\CortexM0\ARM_GCC_541\Debug\start_v11.a(CyLFClk.o)
                0x00005804                CySysClkIloStop
 .text.CySysClkIloStartMeasurement
                0x00005864       0x6c .\CortexM0\ARM_GCC_541\Debug\start_v11.a(CyLFClk.o)
                0x00005864                CySysClkIloStartMeasurement
 .text.CySysClkIloStopMeasurement
                0x000058d0       0x20 .\CortexM0\ARM_GCC_541\Debug\start_v11.a(CyLFClk.o)
                0x000058d0                CySysClkIloStopMeasurement
 .text.CySysClkIloCompensate
                0x000058f0      0x158 .\CortexM0\ARM_GCC_541\Debug\start_v11.a(CyLFClk.o)
                0x000058f0                CySysClkIloCompensate
 .text.CySysClkIloEnabled
                0x00005a48       0x1c .\CortexM0\ARM_GCC_541\Debug\start_v11.a(CyLFClk.o)
 .text.CySysClkIloTrim
                0x00005a64      0x124 .\CortexM0\ARM_GCC_541\Debug\start_v11.a(CyLFClk.o)
                0x00005a64                CySysClkIloTrim
 .text.CySysClkIloUpdateTrimReg
                0x00005b88       0xfc .\CortexM0\ARM_GCC_541\Debug\start_v11.a(CyLFClk.o)
                0x00005b88                CySysClkIloUpdateTrimReg
 .text.CySysClkIloRestoreFactoryTrim
                0x00005c84       0x4c .\CortexM0\ARM_GCC_541\Debug\start_v11.a(CyLFClk.o)
                0x00005c84                CySysClkIloRestoreFactoryTrim
 .text.CySysClkGetLfclkSource
                0x00005cd0       0x20 .\CortexM0\ARM_GCC_541\Debug\start_v11.a(CyLFClk.o)
 .text.CySysClkSetLfclkSource
                0x00005cf0       0x54 .\CortexM0\ARM_GCC_541\Debug\start_v11.a(CyLFClk.o)
                0x00005cf0                CySysClkSetLfclkSource
 .text.CySysClkWcoStart
                0x00005d44       0x20 .\CortexM0\ARM_GCC_541\Debug\start_v11.a(CyLFClk.o)
                0x00005d44                CySysClkWcoStart
 .text.CySysClkWcoStop
                0x00005d64       0x60 .\CortexM0\ARM_GCC_541\Debug\start_v11.a(CyLFClk.o)
                0x00005d64                CySysClkWcoStop
 .text.CySysClkWcoEnabled
                0x00005dc4       0x1c .\CortexM0\ARM_GCC_541\Debug\start_v11.a(CyLFClk.o)
                0x00005dc4                CySysClkWcoEnabled
 .text.CySysClkWcoSetPowerMode
                0x00005de0       0x40 .\CortexM0\ARM_GCC_541\Debug\start_v11.a(CyLFClk.o)
                0x00005de0                CySysClkWcoSetPowerMode
 .text.CySysClkWcoClockOutSelect
                0x00005e20       0x40 .\CortexM0\ARM_GCC_541\Debug\start_v11.a(CyLFClk.o)
                0x00005e20                CySysClkWcoClockOutSelect
 .text.CySysWdtLock
                0x00005e60       0x34 .\CortexM0\ARM_GCC_541\Debug\start_v11.a(CyLFClk.o)
                0x00005e60                CySysWdtLock
 .text.CySysWdtLocked
                0x00005e94       0x20 .\CortexM0\ARM_GCC_541\Debug\start_v11.a(CyLFClk.o)
 .text.CySysWdtUnlock
                0x00005eb4       0x50 .\CortexM0\ARM_GCC_541\Debug\start_v11.a(CyLFClk.o)
                0x00005eb4                CySysWdtUnlock
 .text.CySysWdtGetEnabledStatus
                0x00005f04       0x34 .\CortexM0\ARM_GCC_541\Debug\start_v11.a(CyLFClk.o)
                0x00005f04                CySysWdtGetEnabledStatus
 .text.CySysWdtSetMode
                0x00005f38       0x5c .\CortexM0\ARM_GCC_541\Debug\start_v11.a(CyLFClk.o)
                0x00005f38                CySysWdtSetMode
 .text.CySysWdtGetMode
                0x00005f94       0x24 .\CortexM0\ARM_GCC_541\Debug\start_v11.a(CyLFClk.o)
                0x00005f94                CySysWdtGetMode
 .text.CySysWdtSetClearOnMatch
                0x00005fb8       0x6c .\CortexM0\ARM_GCC_541\Debug\start_v11.a(CyLFClk.o)
                0x00005fb8                CySysWdtSetClearOnMatch
 .text.CySysWdtGetClearOnMatch
                0x00006024       0x44 .\CortexM0\ARM_GCC_541\Debug\start_v11.a(CyLFClk.o)
                0x00006024                CySysWdtGetClearOnMatch
 .text.CySysWdtEnable
                0x00006068       0x60 .\CortexM0\ARM_GCC_541\Debug\start_v11.a(CyLFClk.o)
                0x00006068                CySysWdtEnable
 .text.CySysWdtDisable
                0x000060c8       0x6c .\CortexM0\ARM_GCC_541\Debug\start_v11.a(CyLFClk.o)
                0x000060c8                CySysWdtDisable
 .text.CySysWdtSetCascade
                0x00006134       0x58 .\CortexM0\ARM_GCC_541\Debug\start_v11.a(CyLFClk.o)
                0x00006134                CySysWdtSetCascade
 .text.CySysWdtGetCascade
                0x0000618c       0x1c .\CortexM0\ARM_GCC_541\Debug\start_v11.a(CyLFClk.o)
                0x0000618c                CySysWdtGetCascade
 .text.CySysWdtSetMatch
                0x000061a8       0x90 .\CortexM0\ARM_GCC_541\Debug\start_v11.a(CyLFClk.o)
                0x000061a8                CySysWdtSetMatch
 .text.CySysWdtSetToggleBit
                0x00006238       0x48 .\CortexM0\ARM_GCC_541\Debug\start_v11.a(CyLFClk.o)
                0x00006238                CySysWdtSetToggleBit
 .text.CySysWdtGetToggleBit
                0x00006280       0x18 .\CortexM0\ARM_GCC_541\Debug\start_v11.a(CyLFClk.o)
                0x00006280                CySysWdtGetToggleBit
 .text.CySysWdtGetMatch
                0x00006298       0x40 .\CortexM0\ARM_GCC_541\Debug\start_v11.a(CyLFClk.o)
                0x00006298                CySysWdtGetMatch
 .text.CySysWdtGetCount
                0x000062d8       0x54 .\CortexM0\ARM_GCC_541\Debug\start_v11.a(CyLFClk.o)
                0x000062d8                CySysWdtGetCount
 .text.CySysWdtGetInterruptSource
                0x0000632c       0x1c .\CortexM0\ARM_GCC_541\Debug\start_v11.a(CyLFClk.o)
                0x0000632c                CySysWdtGetInterruptSource
 .text.CySysWdtClearInterrupt
                0x00006348       0x70 .\CortexM0\ARM_GCC_541\Debug\start_v11.a(CyLFClk.o)
                0x00006348                CySysWdtClearInterrupt
 .text.CySysWdtResetCounters
                0x000063b8       0x34 .\CortexM0\ARM_GCC_541\Debug\start_v11.a(CyLFClk.o)
                0x000063b8                CySysWdtResetCounters
 .text.CySysWdtSetInterruptCallback
                0x000063ec       0x40 .\CortexM0\ARM_GCC_541\Debug\start_v11.a(CyLFClk.o)
                0x000063ec                CySysWdtSetInterruptCallback
 .text.CySysWdtGetInterruptCallback
                0x0000642c       0x34 .\CortexM0\ARM_GCC_541\Debug\start_v11.a(CyLFClk.o)
                0x0000642c                CySysWdtGetInterruptCallback
 .text.CySysWdtEnableCounterIsr
                0x00006460       0x50 .\CortexM0\ARM_GCC_541\Debug\start_v11.a(CyLFClk.o)
                0x00006460                CySysWdtEnableCounterIsr
 .text.CySysWdtDisableCounterIsr
                0x000064b0       0x3c .\CortexM0\ARM_GCC_541\Debug\start_v11.a(CyLFClk.o)
                0x000064b0                CySysWdtDisableCounterIsr
 .text.CySysWdtIsr
                0x000064ec       0xec .\CortexM0\ARM_GCC_541\Debug\start_v11.a(CyLFClk.o)
                0x000064ec                CySysWdtIsr
 .text.CySysWatchdogFeed
                0x000065d8       0x8c .\CortexM0\ARM_GCC_541\Debug\start_v11.a(CyLFClk.o)
                0x000065d8                CySysWatchdogFeed
 .text.CySysClkLfclkPosedgeCatch
                0x00006664       0x98 .\CortexM0\ARM_GCC_541\Debug\start_v11.a(CyLFClk.o)
 .text.CySysClkLfclkPosedgeRestore
                0x000066fc       0x3c .\CortexM0\ARM_GCC_541\Debug\start_v11.a(CyLFClk.o)
 .text.CySysTimerDelay
                0x00006738       0x68 .\CortexM0\ARM_GCC_541\Debug\start_v11.a(CyLFClk.o)
                0x00006738                CySysTimerDelay
 .text.CySysTimerDelayUntilMatch
                0x000067a0       0xb0 .\CortexM0\ARM_GCC_541\Debug\start_v11.a(CyLFClk.o)
                0x000067a0                CySysTimerDelayUntilMatch
 .text          0x00006850        0x0 .\CortexM0\ARM_GCC_541\Debug\start_v11.a(RTC.o)
 .text.RTC_IsBitSet
                0x00006850       0x24 .\CortexM0\ARM_GCC_541\Debug\start_v11.a(RTC.o)
 .text.RTC_LeapYear
                0x00006874       0x44 .\CortexM0\ARM_GCC_541\Debug\start_v11.a(RTC.o)
 .text.RTC_GetSecond
                0x000068b8       0x30 .\CortexM0\ARM_GCC_541\Debug\start_v11.a(RTC.o)
 .text.RTC_GetMinutes
                0x000068e8       0x34 .\CortexM0\ARM_GCC_541\Debug\start_v11.a(RTC.o)
 .text.RTC_GetHours
                0x0000691c       0x34 .\CortexM0\ARM_GCC_541\Debug\start_v11.a(RTC.o)
 .text.RTC_GetAmPm
                0x00006950       0x20 .\CortexM0\ARM_GCC_541\Debug\start_v11.a(RTC.o)
 .text.RTC_GetDay
                0x00006970       0x34 .\CortexM0\ARM_GCC_541\Debug\start_v11.a(RTC.o)
 .text.RTC_GetMonth
                0x000069a4       0x34 .\CortexM0\ARM_GCC_541\Debug\start_v11.a(RTC.o)
 .text.RTC_GetYear
                0x000069d8       0x58 .\CortexM0\ARM_GCC_541\Debug\start_v11.a(RTC.o)
 .text.RTC_GetTimeFormat
                0x00006a30       0x20 .\CortexM0\ARM_GCC_541\Debug\start_v11.a(RTC.o)
 .text.RTC_ConstructTime
                0x00006a50       0xa0 .\CortexM0\ARM_GCC_541\Debug\start_v11.a(RTC.o)
 .text.RTC_ConstructDate
                0x00006af0       0xd8 .\CortexM0\ARM_GCC_541\Debug\start_v11.a(RTC.o)
 .text.RTC_GetDayOfWeek
                0x00006bc8       0x88 .\CortexM0\ARM_GCC_541\Debug\start_v11.a(RTC.o)
 .text.RTC_Start
                0x00006c50       0x1c .\CortexM0\ARM_GCC_541\Debug\start_v11.a(RTC.o)
                0x00006c50                RTC_Start
 .text.RTC_Stop
                0x00006c6c        0xc .\CortexM0\ARM_GCC_541\Debug\start_v11.a(RTC.o)
                0x00006c6c                RTC_Stop
 .text.RTC_Init
                0x00006c78       0x74 .\CortexM0\ARM_GCC_541\Debug\start_v11.a(RTC.o)
                0x00006c78                RTC_Init
 .text.RTC_SetDateAndTime
                0x00006cec       0x74 .\CortexM0\ARM_GCC_541\Debug\start_v11.a(RTC.o)
                0x00006cec                RTC_SetDateAndTime
 .text.RTC_SetUnixTime
                0x00006d60       0x38 .\CortexM0\ARM_GCC_541\Debug\start_v11.a(RTC.o)
                0x00006d60                RTC_SetUnixTime
 .text.RTC_GetUnixTime
                0x00006d98       0x18 .\CortexM0\ARM_GCC_541\Debug\start_v11.a(RTC.o)
                0x00006d98                RTC_GetUnixTime
 .text.RTC_SetPeriod
                0x00006db0       0x28 .\CortexM0\ARM_GCC_541\Debug\start_v11.a(RTC.o)
                0x00006db0                RTC_SetPeriod
 .text.RTC_GetPeriod
                0x00006dd8       0x14 .\CortexM0\ARM_GCC_541\Debug\start_v11.a(RTC.o)
                0x00006dd8                RTC_GetPeriod
 .text.RTC_GetRefOneSec
                0x00006dec       0x14 .\CortexM0\ARM_GCC_541\Debug\start_v11.a(RTC.o)
                0x00006dec                RTC_GetRefOneSec
 .text.RTC_GetDateAndTime
                0x00006e00       0x3c .\CortexM0\ARM_GCC_541\Debug\start_v11.a(RTC.o)
                0x00006e00                RTC_GetDateAndTime
 .text.RTC_GetTime
                0x00006e3c       0x44 .\CortexM0\ARM_GCC_541\Debug\start_v11.a(RTC.o)
                0x00006e3c                RTC_GetTime
 .text.RTC_GetDate
                0x00006e80       0x44 .\CortexM0\ARM_GCC_541\Debug\start_v11.a(RTC.o)
                0x00006e80                RTC_GetDate
 .text.RTC_ReadStatus
                0x00006ec4       0x80 .\CortexM0\ARM_GCC_541\Debug\start_v11.a(RTC.o)
                0x00006ec4                RTC_ReadStatus
 .text.RTC_ConvertBCDToDec
                0x00006f44       0x50 .\CortexM0\ARM_GCC_541\Debug\start_v11.a(RTC.o)
                0x00006f44                RTC_ConvertBCDToDec
 .text.RTC_ConvertDecToBCD
                0x00006f94       0x60 .\CortexM0\ARM_GCC_541\Debug\start_v11.a(RTC.o)
                0x00006f94                RTC_ConvertDecToBCD
 .text.RTC_Update
                0x00006ff4       0x50 .\CortexM0\ARM_GCC_541\Debug\start_v11.a(RTC.o)
                0x00006ff4                RTC_Update
 .text.RTC_DateTimeToUnix
                0x00007044      0x190 .\CortexM0\ARM_GCC_541\Debug\start_v11.a(RTC.o)
                0x00007044                RTC_DateTimeToUnix
 .text.RTC_UnixToDateTime
                0x000071d4      0x298 .\CortexM0\ARM_GCC_541\Debug\start_v11.a(RTC.o)
                0x000071d4                RTC_UnixToDateTime
 .text.RTC_RelativeToFixed
                0x0000746c       0x7c .\CortexM0\ARM_GCC_541\Debug\start_v11.a(RTC.o)
                0x0000746c                RTC_RelativeToFixed
 .text.RTC_DaysInMonth
                0x000074e8       0x3c .\CortexM0\ARM_GCC_541\Debug\start_v11.a(RTC.o)
                0x000074e8                RTC_DaysInMonth
 .text.RTC_DaysBeforeMonth
                0x00007524       0x3c .\CortexM0\ARM_GCC_541\Debug\start_v11.a(RTC.o)
                0x00007524                RTC_DaysBeforeMonth
 .text          0x00007560        0x0 .\CortexM0\ARM_GCC_541\Debug\start_v11.a(GatePin.o)
 .text.GatePin_SetDriveMode
                0x00007560       0x30 .\CortexM0\ARM_GCC_541\Debug\start_v11.a(GatePin.o)
                0x00007560                GatePin_SetDriveMode
 .text.GatePin_Write
                0x00007590       0x50 .\CortexM0\ARM_GCC_541\Debug\start_v11.a(GatePin.o)
                0x00007590                GatePin_Write
 .text.GatePin_Read
                0x000075e0       0x1c .\CortexM0\ARM_GCC_541\Debug\start_v11.a(GatePin.o)
                0x000075e0                GatePin_Read
 .text.GatePin_ReadDataReg
                0x000075fc       0x1c .\CortexM0\ARM_GCC_541\Debug\start_v11.a(GatePin.o)
                0x000075fc                GatePin_ReadDataReg
 .text.GatePin_SetInterruptMode
                0x00007618       0x44 .\CortexM0\ARM_GCC_541\Debug\start_v11.a(GatePin.o)
                0x00007618                GatePin_SetInterruptMode
 .text.GatePin_ClearInterrupt
                0x0000765c       0x30 .\CortexM0\ARM_GCC_541\Debug\start_v11.a(GatePin.o)
                0x0000765c                GatePin_ClearInterrupt
 .text          0x0000768c        0x0 .\CortexM0\ARM_GCC_541\Debug\start_v11.a(Timer_LED.o)
 .text.Timer_LED_Init
                0x0000768c       0x40 .\CortexM0\ARM_GCC_541\Debug\start_v11.a(Timer_LED.o)
                0x0000768c                Timer_LED_Init
 .text.Timer_LED_Enable
                0x000076cc       0x3c .\CortexM0\ARM_GCC_541\Debug\start_v11.a(Timer_LED.o)
                0x000076cc                Timer_LED_Enable
 .text.Timer_LED_Start
                0x00007708       0x24 .\CortexM0\ARM_GCC_541\Debug\start_v11.a(Timer_LED.o)
                0x00007708                Timer_LED_Start
 .text.Timer_LED_Stop
                0x0000772c       0x34 .\CortexM0\ARM_GCC_541\Debug\start_v11.a(Timer_LED.o)
                0x0000772c                Timer_LED_Stop
 .text.Timer_LED_SetMode
                0x00007760       0x48 .\CortexM0\ARM_GCC_541\Debug\start_v11.a(Timer_LED.o)
                0x00007760                Timer_LED_SetMode
 .text.Timer_LED_SetQDMode
                0x000077a8       0x48 .\CortexM0\ARM_GCC_541\Debug\start_v11.a(Timer_LED.o)
                0x000077a8                Timer_LED_SetQDMode
 .text.Timer_LED_SetPrescaler
                0x000077f0       0x48 .\CortexM0\ARM_GCC_541\Debug\start_v11.a(Timer_LED.o)
                0x000077f0                Timer_LED_SetPrescaler
 .text.Timer_LED_SetOneShot
                0x00007838       0x50 .\CortexM0\ARM_GCC_541\Debug\start_v11.a(Timer_LED.o)
                0x00007838                Timer_LED_SetOneShot
 .text.Timer_LED_SetPWMMode
                0x00007888       0x20 .\CortexM0\ARM_GCC_541\Debug\start_v11.a(Timer_LED.o)
                0x00007888                Timer_LED_SetPWMMode
 .text.Timer_LED_SetPWMSyncKill
                0x000078a8       0x4c .\CortexM0\ARM_GCC_541\Debug\start_v11.a(Timer_LED.o)
                0x000078a8                Timer_LED_SetPWMSyncKill
 .text.Timer_LED_SetPWMStopOnKill
                0x000078f4       0x4c .\CortexM0\ARM_GCC_541\Debug\start_v11.a(Timer_LED.o)
                0x000078f4                Timer_LED_SetPWMStopOnKill
 .text.Timer_LED_SetPWMDeadTime
                0x00007940       0x50 .\CortexM0\ARM_GCC_541\Debug\start_v11.a(Timer_LED.o)
                0x00007940                Timer_LED_SetPWMDeadTime
 .text.Timer_LED_SetPWMInvert
                0x00007990       0x48 .\CortexM0\ARM_GCC_541\Debug\start_v11.a(Timer_LED.o)
                0x00007990                Timer_LED_SetPWMInvert
 .text.Timer_LED_WriteCounter
                0x000079d8       0x20 .\CortexM0\ARM_GCC_541\Debug\start_v11.a(Timer_LED.o)
                0x000079d8                Timer_LED_WriteCounter
 .text.Timer_LED_ReadCounter
                0x000079f8       0x18 .\CortexM0\ARM_GCC_541\Debug\start_v11.a(Timer_LED.o)
                0x000079f8                Timer_LED_ReadCounter
 .text.Timer_LED_SetCounterMode
                0x00007a10       0x48 .\CortexM0\ARM_GCC_541\Debug\start_v11.a(Timer_LED.o)
                0x00007a10                Timer_LED_SetCounterMode
 .text.Timer_LED_WritePeriod
                0x00007a58       0x20 .\CortexM0\ARM_GCC_541\Debug\start_v11.a(Timer_LED.o)
                0x00007a58                Timer_LED_WritePeriod
 .text.Timer_LED_ReadPeriod
                0x00007a78       0x18 .\CortexM0\ARM_GCC_541\Debug\start_v11.a(Timer_LED.o)
                0x00007a78                Timer_LED_ReadPeriod
 .text.Timer_LED_SetCompareSwap
                0x00007a90       0x48 .\CortexM0\ARM_GCC_541\Debug\start_v11.a(Timer_LED.o)
                0x00007a90                Timer_LED_SetCompareSwap
 .text.Timer_LED_WritePeriodBuf
                0x00007ad8       0x20 .\CortexM0\ARM_GCC_541\Debug\start_v11.a(Timer_LED.o)
                0x00007ad8                Timer_LED_WritePeriodBuf
 .text.Timer_LED_ReadPeriodBuf
                0x00007af8       0x18 .\CortexM0\ARM_GCC_541\Debug\start_v11.a(Timer_LED.o)
                0x00007af8                Timer_LED_ReadPeriodBuf
 .text.Timer_LED_SetPeriodSwap
                0x00007b10       0x4c .\CortexM0\ARM_GCC_541\Debug\start_v11.a(Timer_LED.o)
                0x00007b10                Timer_LED_SetPeriodSwap
 .text.Timer_LED_WriteCompare
                0x00007b5c       0x20 .\CortexM0\ARM_GCC_541\Debug\start_v11.a(Timer_LED.o)
                0x00007b5c                Timer_LED_WriteCompare
 .text.Timer_LED_ReadCompare
                0x00007b7c       0x18 .\CortexM0\ARM_GCC_541\Debug\start_v11.a(Timer_LED.o)
                0x00007b7c                Timer_LED_ReadCompare
 .text.Timer_LED_WriteCompareBuf
                0x00007b94       0x20 .\CortexM0\ARM_GCC_541\Debug\start_v11.a(Timer_LED.o)
                0x00007b94                Timer_LED_WriteCompareBuf
 .text.Timer_LED_ReadCompareBuf
                0x00007bb4       0x18 .\CortexM0\ARM_GCC_541\Debug\start_v11.a(Timer_LED.o)
                0x00007bb4                Timer_LED_ReadCompareBuf
 .text.Timer_LED_ReadCapture
                0x00007bcc       0x18 .\CortexM0\ARM_GCC_541\Debug\start_v11.a(Timer_LED.o)
                0x00007bcc                Timer_LED_ReadCapture
 .text.Timer_LED_ReadCaptureBuf
                0x00007be4       0x18 .\CortexM0\ARM_GCC_541\Debug\start_v11.a(Timer_LED.o)
                0x00007be4                Timer_LED_ReadCaptureBuf
 .text.Timer_LED_SetCaptureMode
                0x00007bfc       0x44 .\CortexM0\ARM_GCC_541\Debug\start_v11.a(Timer_LED.o)
                0x00007bfc                Timer_LED_SetCaptureMode
 .text.Timer_LED_SetReloadMode
                0x00007c40       0x48 .\CortexM0\ARM_GCC_541\Debug\start_v11.a(Timer_LED.o)
                0x00007c40                Timer_LED_SetReloadMode
 .text.Timer_LED_SetStartMode
                0x00007c88       0x4c .\CortexM0\ARM_GCC_541\Debug\start_v11.a(Timer_LED.o)
                0x00007c88                Timer_LED_SetStartMode
 .text.Timer_LED_SetStopMode
                0x00007cd4       0x48 .\CortexM0\ARM_GCC_541\Debug\start_v11.a(Timer_LED.o)
                0x00007cd4                Timer_LED_SetStopMode
 .text.Timer_LED_SetCountMode
                0x00007d1c       0x48 .\CortexM0\ARM_GCC_541\Debug\start_v11.a(Timer_LED.o)
                0x00007d1c                Timer_LED_SetCountMode
 .text.Timer_LED_TriggerCommand
                0x00007d64       0x3c .\CortexM0\ARM_GCC_541\Debug\start_v11.a(Timer_LED.o)
                0x00007d64                Timer_LED_TriggerCommand
 .text.Timer_LED_ReadStatus
                0x00007da0       0x20 .\CortexM0\ARM_GCC_541\Debug\start_v11.a(Timer_LED.o)
                0x00007da0                Timer_LED_ReadStatus
 .text.Timer_LED_SetInterruptMode
                0x00007dc0       0x1c .\CortexM0\ARM_GCC_541\Debug\start_v11.a(Timer_LED.o)
                0x00007dc0                Timer_LED_SetInterruptMode
 .text.Timer_LED_GetInterruptSourceMasked
                0x00007ddc       0x14 .\CortexM0\ARM_GCC_541\Debug\start_v11.a(Timer_LED.o)
                0x00007ddc                Timer_LED_GetInterruptSourceMasked
 .text.Timer_LED_GetInterruptSource
                0x00007df0       0x14 .\CortexM0\ARM_GCC_541\Debug\start_v11.a(Timer_LED.o)
                0x00007df0                Timer_LED_GetInterruptSource
 .text.Timer_LED_ClearInterrupt
                0x00007e04       0x1c .\CortexM0\ARM_GCC_541\Debug\start_v11.a(Timer_LED.o)
                0x00007e04                Timer_LED_ClearInterrupt
 .text.Timer_LED_SetInterrupt
                0x00007e20       0x1c .\CortexM0\ARM_GCC_541\Debug\start_v11.a(Timer_LED.o)
                0x00007e20                Timer_LED_SetInterrupt
 .text          0x00007e3c        0x0 .\CortexM0\ARM_GCC_541\Debug\start_v11.a(Int_Timer_Led.o)
 .text.Int_Timer_Led_Start
                0x00007e3c       0x24 .\CortexM0\ARM_GCC_541\Debug\start_v11.a(Int_Timer_Led.o)
                0x00007e3c                Int_Timer_Led_Start
 .text.Int_Timer_Led_StartEx
                0x00007e60       0x28 .\CortexM0\ARM_GCC_541\Debug\start_v11.a(Int_Timer_Led.o)
                0x00007e60                Int_Timer_Led_StartEx
 .text.Int_Timer_Led_Stop
                0x00007e88       0x1c .\CortexM0\ARM_GCC_541\Debug\start_v11.a(Int_Timer_Led.o)
                0x00007e88                Int_Timer_Led_Stop
 .text.Int_Timer_Led_Interrupt
                0x00007ea4        0xc .\CortexM0\ARM_GCC_541\Debug\start_v11.a(Int_Timer_Led.o)
                0x00007ea4                Int_Timer_Led_Interrupt
 .text.Int_Timer_Led_SetVector
                0x00007eb0       0x1c .\CortexM0\ARM_GCC_541\Debug\start_v11.a(Int_Timer_Led.o)
                0x00007eb0                Int_Timer_Led_SetVector
 .text.Int_Timer_Led_GetVector
                0x00007ecc       0x14 .\CortexM0\ARM_GCC_541\Debug\start_v11.a(Int_Timer_Led.o)
                0x00007ecc                Int_Timer_Led_GetVector
 .text.Int_Timer_Led_SetPriority
                0x00007ee0       0x50 .\CortexM0\ARM_GCC_541\Debug\start_v11.a(Int_Timer_Led.o)
                0x00007ee0                Int_Timer_Led_SetPriority
 .text.Int_Timer_Led_GetPriority
                0x00007f30       0x2c .\CortexM0\ARM_GCC_541\Debug\start_v11.a(Int_Timer_Led.o)
                0x00007f30                Int_Timer_Led_GetPriority
 .text.Int_Timer_Led_Enable
                0x00007f5c       0x18 .\CortexM0\ARM_GCC_541\Debug\start_v11.a(Int_Timer_Led.o)
                0x00007f5c                Int_Timer_Led_Enable
 .text.Int_Timer_Led_GetState
                0x00007f74       0x20 .\CortexM0\ARM_GCC_541\Debug\start_v11.a(Int_Timer_Led.o)
                0x00007f74                Int_Timer_Led_GetState
 .text.Int_Timer_Led_Disable
                0x00007f94       0x18 .\CortexM0\ARM_GCC_541\Debug\start_v11.a(Int_Timer_Led.o)
                0x00007f94                Int_Timer_Led_Disable
 .text.Int_Timer_Led_SetPending
                0x00007fac       0x18 .\CortexM0\ARM_GCC_541\Debug\start_v11.a(Int_Timer_Led.o)
                0x00007fac                Int_Timer_Led_SetPending
 .text.Int_Timer_Led_ClearPending
                0x00007fc4       0x18 .\CortexM0\ARM_GCC_541\Debug\start_v11.a(Int_Timer_Led.o)
                0x00007fc4                Int_Timer_Led_ClearPending
 .text          0x00007fdc        0x0 .\CortexM0\ARM_GCC_541\Debug\start_v11.a(UART_XB.o)
 .text.UART_XB_Init
                0x00007fdc       0x10 .\CortexM0\ARM_GCC_541\Debug\start_v11.a(UART_XB.o)
                0x00007fdc                UART_XB_Init
 .text.UART_XB_Enable
                0x00007fec       0x24 .\CortexM0\ARM_GCC_541\Debug\start_v11.a(UART_XB.o)
                0x00007fec                UART_XB_Enable
 .text.UART_XB_Start
                0x00008010       0x24 .\CortexM0\ARM_GCC_541\Debug\start_v11.a(UART_XB.o)
                0x00008010                UART_XB_Start
 .text.UART_XB_Stop
                0x00008034       0x34 .\CortexM0\ARM_GCC_541\Debug\start_v11.a(UART_XB.o)
                0x00008034                UART_XB_Stop
 .text.UART_XB_SetRxFifoLevel
                0x00008068       0x34 .\CortexM0\ARM_GCC_541\Debug\start_v11.a(UART_XB.o)
                0x00008068                UART_XB_SetRxFifoLevel
 .text.UART_XB_SetTxFifoLevel
                0x0000809c       0x34 .\CortexM0\ARM_GCC_541\Debug\start_v11.a(UART_XB.o)
                0x0000809c                UART_XB_SetTxFifoLevel
 .text.UART_XB_SetCustomInterruptHandler
                0x000080d0       0x1c .\CortexM0\ARM_GCC_541\Debug\start_v11.a(UART_XB.o)
                0x000080d0                UART_XB_SetCustomInterruptHandler
 .text.UART_XB_ScbEnableIntr
                0x000080ec       0x10 .\CortexM0\ARM_GCC_541\Debug\start_v11.a(UART_XB.o)
 .text.UART_XB_ScbModePostEnable
                0x000080fc       0x10 .\CortexM0\ARM_GCC_541\Debug\start_v11.a(UART_XB.o)
 .text.UART_XB_ScbModeStop
                0x0000810c       0x10 .\CortexM0\ARM_GCC_541\Debug\start_v11.a(UART_XB.o)
 .text          0x0000811c        0x0 .\CortexM0\ARM_GCC_541\Debug\start_v11.a(UART_XB_SPI_UART.o)
 .text.UART_XB_SpiUartReadRxData
                0x0000811c       0x50 .\CortexM0\ARM_GCC_541\Debug\start_v11.a(UART_XB_SPI_UART.o)
                0x0000811c                UART_XB_SpiUartReadRxData
 .text.UART_XB_SpiUartGetRxBufferSize
                0x0000816c       0x40 .\CortexM0\ARM_GCC_541\Debug\start_v11.a(UART_XB_SPI_UART.o)
                0x0000816c                UART_XB_SpiUartGetRxBufferSize
 .text.UART_XB_SpiUartClearRxBuffer
                0x000081ac       0x60 .\CortexM0\ARM_GCC_541\Debug\start_v11.a(UART_XB_SPI_UART.o)
                0x000081ac                UART_XB_SpiUartClearRxBuffer
 .text.UART_XB_SpiUartWriteTxData
                0x0000820c       0x9c .\CortexM0\ARM_GCC_541\Debug\start_v11.a(UART_XB_SPI_UART.o)
                0x0000820c                UART_XB_SpiUartWriteTxData
 .text.UART_XB_SpiUartPutArray
                0x000082a8       0x34 .\CortexM0\ARM_GCC_541\Debug\start_v11.a(UART_XB_SPI_UART.o)
                0x000082a8                UART_XB_SpiUartPutArray
 .text.UART_XB_SpiUartGetTxBufferSize
                0x000082dc       0x40 .\CortexM0\ARM_GCC_541\Debug\start_v11.a(UART_XB_SPI_UART.o)
                0x000082dc                UART_XB_SpiUartGetTxBufferSize
 .text.UART_XB_SpiUartClearTxBuffer
                0x0000831c       0x68 .\CortexM0\ARM_GCC_541\Debug\start_v11.a(UART_XB_SPI_UART.o)
                0x0000831c                UART_XB_SpiUartClearTxBuffer
 .text.UART_XB_SpiUartDisableIntRx
                0x00008384       0x20 .\CortexM0\ARM_GCC_541\Debug\start_v11.a(UART_XB_SPI_UART.o)
                0x00008384                UART_XB_SpiUartDisableIntRx
 .text.UART_XB_SpiUartDisableIntTx
                0x000083a4       0x20 .\CortexM0\ARM_GCC_541\Debug\start_v11.a(UART_XB_SPI_UART.o)
                0x000083a4                UART_XB_SpiUartDisableIntTx
 .text          0x000083c4        0x0 .\CortexM0\ARM_GCC_541\Debug\start_v11.a(UART_XB_UART.o)
 .text.UART_XB_UartInit
                0x000083c4      0x110 .\CortexM0\ARM_GCC_541\Debug\start_v11.a(UART_XB_UART.o)
                0x000083c4                UART_XB_UartInit
 .text.UART_XB_UartPostEnable
                0x000084d4       0x34 .\CortexM0\ARM_GCC_541\Debug\start_v11.a(UART_XB_UART.o)
                0x000084d4                UART_XB_UartPostEnable
 .text.UART_XB_UartStop
                0x00008508       0x38 .\CortexM0\ARM_GCC_541\Debug\start_v11.a(UART_XB_UART.o)
                0x00008508                UART_XB_UartStop
 .text.UART_XB_UartSetRxAddress
                0x00008540       0x34 .\CortexM0\ARM_GCC_541\Debug\start_v11.a(UART_XB_UART.o)
                0x00008540                UART_XB_UartSetRxAddress
 .text.UART_XB_UartSetRxAddressMask
                0x00008574       0x38 .\CortexM0\ARM_GCC_541\Debug\start_v11.a(UART_XB_UART.o)
                0x00008574                UART_XB_UartSetRxAddressMask
 .text.UART_XB_UartGetChar
                0x000085ac       0x40 .\CortexM0\ARM_GCC_541\Debug\start_v11.a(UART_XB_UART.o)
                0x000085ac                UART_XB_UartGetChar
 .text.UART_XB_UartGetByte
                0x000085ec       0x68 .\CortexM0\ARM_GCC_541\Debug\start_v11.a(UART_XB_UART.o)
                0x000085ec                UART_XB_UartGetByte
 .text.UART_XB_UartSetRtsPolarity
                0x00008654       0x3c .\CortexM0\ARM_GCC_541\Debug\start_v11.a(UART_XB_UART.o)
                0x00008654                UART_XB_UartSetRtsPolarity
 .text.UART_XB_UartSetRtsFifoLevel
                0x00008690       0x34 .\CortexM0\ARM_GCC_541\Debug\start_v11.a(UART_XB_UART.o)
                0x00008690                UART_XB_UartSetRtsFifoLevel
 .text.UART_XB_UartPutString
                0x000086c4       0x38 .\CortexM0\ARM_GCC_541\Debug\start_v11.a(UART_XB_UART.o)
                0x000086c4                UART_XB_UartPutString
 .text.UART_XB_UartPutCRLF
                0x000086fc       0x24 .\CortexM0\ARM_GCC_541\Debug\start_v11.a(UART_XB_UART.o)
                0x000086fc                UART_XB_UartPutCRLF
 .text.UART_XB_UartEnableCts
                0x00008720       0x1c .\CortexM0\ARM_GCC_541\Debug\start_v11.a(UART_XB_UART.o)
                0x00008720                UART_XB_UartEnableCts
 .text.UART_XB_UartDisableCts
                0x0000873c       0x20 .\CortexM0\ARM_GCC_541\Debug\start_v11.a(UART_XB_UART.o)
                0x0000873c                UART_XB_UartDisableCts
 .text.UART_XB_UartSetCtsPolarity
                0x0000875c       0x3c .\CortexM0\ARM_GCC_541\Debug\start_v11.a(UART_XB_UART.o)
                0x0000875c                UART_XB_UartSetCtsPolarity
 .text          0x00008798        0x0 .\CortexM0\ARM_GCC_541\Debug\start_v11.a(SwSPI_Master.o)
 .text.SwSPI_Master_Init
                0x00008798       0x34 .\CortexM0\ARM_GCC_541\Debug\start_v11.a(SwSPI_Master.o)
                0x00008798                SwSPI_Master_Init
 .text.SwSPI_Master_ChipSelect
                0x000087cc        0xc .\CortexM0\ARM_GCC_541\Debug\start_v11.a(SwSPI_Master.o)
                0x000087cc                SwSPI_Master_ChipSelect
 .text.SwSPI_Master_ChipDeselect
                0x000087d8        0xc .\CortexM0\ARM_GCC_541\Debug\start_v11.a(SwSPI_Master.o)
                0x000087d8                SwSPI_Master_ChipDeselect
 .text.SwSPI_Master_SendByte
                0x000087e4       0x98 .\CortexM0\ARM_GCC_541\Debug\start_v11.a(SwSPI_Master.o)
                0x000087e4                SwSPI_Master_SendByte
 .text.SwSPI_Master_SendBuff
                0x0000887c       0x50 .\CortexM0\ARM_GCC_541\Debug\start_v11.a(SwSPI_Master.o)
                0x0000887c                SwSPI_Master_SendBuff
 .text.SwSPI_Master_RecvByte
                0x000088cc       0x98 .\CortexM0\ARM_GCC_541\Debug\start_v11.a(SwSPI_Master.o)
                0x000088cc                SwSPI_Master_RecvByte
 .text.SwSPI_Master_RecvBuff
                0x00008964       0x50 .\CortexM0\ARM_GCC_541\Debug\start_v11.a(SwSPI_Master.o)
                0x00008964                SwSPI_Master_RecvBuff
 .text.SwSPI_Master_ReadAndWriteByte
                0x000089b4       0xc8 .\CortexM0\ARM_GCC_541\Debug\start_v11.a(SwSPI_Master.o)
                0x000089b4                SwSPI_Master_ReadAndWriteByte
 .text          0x00008a7c        0x0 .\CortexM0\ARM_GCC_541\Debug\start_v11.a(GATE_INT.o)
 .text.GATE_INT_Start
                0x00008a7c       0x24 .\CortexM0\ARM_GCC_541\Debug\start_v11.a(GATE_INT.o)
                0x00008a7c                GATE_INT_Start
 .text.GATE_INT_StartEx
                0x00008aa0       0x28 .\CortexM0\ARM_GCC_541\Debug\start_v11.a(GATE_INT.o)
                0x00008aa0                GATE_INT_StartEx
 .text.GATE_INT_Stop
                0x00008ac8       0x1c .\CortexM0\ARM_GCC_541\Debug\start_v11.a(GATE_INT.o)
                0x00008ac8                GATE_INT_Stop
 .text.GATE_INT_Interrupt
                0x00008ae4        0xc .\CortexM0\ARM_GCC_541\Debug\start_v11.a(GATE_INT.o)
                0x00008ae4                GATE_INT_Interrupt
 .text.GATE_INT_SetVector
                0x00008af0       0x1c .\CortexM0\ARM_GCC_541\Debug\start_v11.a(GATE_INT.o)
                0x00008af0                GATE_INT_SetVector
 .text.GATE_INT_GetVector
                0x00008b0c       0x14 .\CortexM0\ARM_GCC_541\Debug\start_v11.a(GATE_INT.o)
                0x00008b0c                GATE_INT_GetVector
 .text.GATE_INT_SetPriority
                0x00008b20       0x4c .\CortexM0\ARM_GCC_541\Debug\start_v11.a(GATE_INT.o)
                0x00008b20                GATE_INT_SetPriority
 .text.GATE_INT_GetPriority
                0x00008b6c       0x2c .\CortexM0\ARM_GCC_541\Debug\start_v11.a(GATE_INT.o)
                0x00008b6c                GATE_INT_GetPriority
 .text.GATE_INT_Enable
                0x00008b98       0x14 .\CortexM0\ARM_GCC_541\Debug\start_v11.a(GATE_INT.o)
                0x00008b98                GATE_INT_Enable
 .text.GATE_INT_GetState
                0x00008bac       0x20 .\CortexM0\ARM_GCC_541\Debug\start_v11.a(GATE_INT.o)
                0x00008bac                GATE_INT_GetState
 .text.GATE_INT_Disable
                0x00008bcc       0x14 .\CortexM0\ARM_GCC_541\Debug\start_v11.a(GATE_INT.o)
                0x00008bcc                GATE_INT_Disable
 .text.GATE_INT_SetPending
                0x00008be0       0x14 .\CortexM0\ARM_GCC_541\Debug\start_v11.a(GATE_INT.o)
                0x00008be0                GATE_INT_SetPending
 .text.GATE_INT_ClearPending
                0x00008bf4       0x14 .\CortexM0\ARM_GCC_541\Debug\start_v11.a(GATE_INT.o)
                0x00008bf4                GATE_INT_ClearPending
 .text          0x00008c08        0x0 .\CortexM0\ARM_GCC_541\Debug\start_v11.a(debug.o)
 .text.debug_SetDriveMode
                0x00008c08       0x2c .\CortexM0\ARM_GCC_541\Debug\start_v11.a(debug.o)
                0x00008c08                debug_SetDriveMode
 .text.debug_Write
                0x00008c34       0x4c .\CortexM0\ARM_GCC_541\Debug\start_v11.a(debug.o)
                0x00008c34                debug_Write
 .text.debug_Read
                0x00008c80       0x1c .\CortexM0\ARM_GCC_541\Debug\start_v11.a(debug.o)
                0x00008c80                debug_Read
 .text.debug_ReadDataReg
                0x00008c9c       0x1c .\CortexM0\ARM_GCC_541\Debug\start_v11.a(debug.o)
                0x00008c9c                debug_ReadDataReg
 .text.debug_SetInterruptMode
                0x00008cb8       0x44 .\CortexM0\ARM_GCC_541\Debug\start_v11.a(debug.o)
                0x00008cb8                debug_SetInterruptMode
 .text.debug_ClearInterrupt
                0x00008cfc       0x2c .\CortexM0\ARM_GCC_541\Debug\start_v11.a(debug.o)
                0x00008cfc                debug_ClearInterrupt
 .text          0x00008d28        0x0 .\CortexM0\ARM_GCC_541\Debug\start_v11.a(ADC.o)
 .text.ADC_Start
                0x00008d28       0x24 .\CortexM0\ARM_GCC_541\Debug\start_v11.a(ADC.o)
                0x00008d28                ADC_Start
 .text.ADC_Init
                0x00008d4c      0x1d4 .\CortexM0\ARM_GCC_541\Debug\start_v11.a(ADC.o)
                0x00008d4c                ADC_Init
 .text.ADC_Enable
                0x00008f20       0x38 .\CortexM0\ARM_GCC_541\Debug\start_v11.a(ADC.o)
                0x00008f20                ADC_Enable
 .text.ADC_Stop
                0x00008f58       0x1c .\CortexM0\ARM_GCC_541\Debug\start_v11.a(ADC.o)
                0x00008f58                ADC_Stop
 .text.ADC_StartConvert
                0x00008f74       0x1c .\CortexM0\ARM_GCC_541\Debug\start_v11.a(ADC.o)
                0x00008f74                ADC_StartConvert
 .text.ADC_StopConvert
                0x00008f90       0x20 .\CortexM0\ARM_GCC_541\Debug\start_v11.a(ADC.o)
                0x00008f90                ADC_StopConvert
 .text.ADC_IsEndConversion
                0x00008fb0       0x48 .\CortexM0\ARM_GCC_541\Debug\start_v11.a(ADC.o)
                0x00008fb0                ADC_IsEndConversion
 .text.ADC_GetResult16
                0x00008ff8       0x44 .\CortexM0\ARM_GCC_541\Debug\start_v11.a(ADC.o)
                0x00008ff8                ADC_GetResult16
 .text.ADC_SetChanMask
                0x0000903c       0x20 .\CortexM0\ARM_GCC_541\Debug\start_v11.a(ADC.o)
                0x0000903c                ADC_SetChanMask
 .text.ADC_SetLowLimit
                0x0000905c       0x30 .\CortexM0\ARM_GCC_541\Debug\start_v11.a(ADC.o)
                0x0000905c                ADC_SetLowLimit
 .text.ADC_SetHighLimit
                0x0000908c       0x30 .\CortexM0\ARM_GCC_541\Debug\start_v11.a(ADC.o)
                0x0000908c                ADC_SetHighLimit
 .text.ADC_SetLimitMask
                0x000090bc       0x20 .\CortexM0\ARM_GCC_541\Debug\start_v11.a(ADC.o)
                0x000090bc                ADC_SetLimitMask
 .text.ADC_SetSatMask
                0x000090dc       0x20 .\CortexM0\ARM_GCC_541\Debug\start_v11.a(ADC.o)
                0x000090dc                ADC_SetSatMask
 .text.ADC_SetOffset
                0x000090fc       0x34 .\CortexM0\ARM_GCC_541\Debug\start_v11.a(ADC.o)
                0x000090fc                ADC_SetOffset
 .text.ADC_SetGain
                0x00009130       0x2c .\CortexM0\ARM_GCC_541\Debug\start_v11.a(ADC.o)
                0x00009130                ADC_SetGain
 .text.ADC_CountsTo_mVolts
                0x0000915c       0xa0 .\CortexM0\ARM_GCC_541\Debug\start_v11.a(ADC.o)
                0x0000915c                ADC_CountsTo_mVolts
 .text.ADC_CountsTo_uVolts
                0x000091fc       0x90 .\CortexM0\ARM_GCC_541\Debug\start_v11.a(ADC.o)
                0x000091fc                ADC_CountsTo_uVolts
 .text.ADC_CountsTo_Volts
                0x0000928c       0x80 .\CortexM0\ARM_GCC_541\Debug\start_v11.a(ADC.o)
                0x0000928c                ADC_CountsTo_Volts
 .text          0x0000930c        0x0 .\CortexM0\ARM_GCC_541\Debug\start_v11.a(ADC_INT.o)
 .text.ADC_ISR  0x0000930c       0x20 .\CortexM0\ARM_GCC_541\Debug\start_v11.a(ADC_INT.o)
                0x0000930c                ADC_ISR
 .text          0x0000932c        0x0 .\CortexM0\ARM_GCC_541\Debug\start_v11.a(CE.o)
 .text.CE_SetDriveMode
                0x0000932c       0x30 .\CortexM0\ARM_GCC_541\Debug\start_v11.a(CE.o)
                0x0000932c                CE_SetDriveMode
 .text.CE_Write
                0x0000935c       0x50 .\CortexM0\ARM_GCC_541\Debug\start_v11.a(CE.o)
                0x0000935c                CE_Write
 .text.CE_Read  0x000093ac       0x1c .\CortexM0\ARM_GCC_541\Debug\start_v11.a(CE.o)
                0x000093ac                CE_Read
 .text.CE_ReadDataReg
                0x000093c8       0x1c .\CortexM0\ARM_GCC_541\Debug\start_v11.a(CE.o)
                0x000093c8                CE_ReadDataReg
 .text.CE_SetInterruptMode
                0x000093e4       0x44 .\CortexM0\ARM_GCC_541\Debug\start_v11.a(CE.o)
                0x000093e4                CE_SetInterruptMode
 .text.CE_ClearInterrupt
                0x00009428       0x30 .\CortexM0\ARM_GCC_541\Debug\start_v11.a(CE.o)
                0x00009428                CE_ClearInterrupt
 .text          0x00009458        0x0 .\CortexM0\ARM_GCC_541\Debug\start_v11.a(RST.o)
 .text.RST_SetDriveMode
                0x00009458       0x30 .\CortexM0\ARM_GCC_541\Debug\start_v11.a(RST.o)
                0x00009458                RST_SetDriveMode
 .text.RST_Write
                0x00009488       0x50 .\CortexM0\ARM_GCC_541\Debug\start_v11.a(RST.o)
                0x00009488                RST_Write
 .text.RST_Read
                0x000094d8       0x1c .\CortexM0\ARM_GCC_541\Debug\start_v11.a(RST.o)
                0x000094d8                RST_Read
 .text.RST_ReadDataReg
                0x000094f4       0x1c .\CortexM0\ARM_GCC_541\Debug\start_v11.a(RST.o)
                0x000094f4                RST_ReadDataReg
 .text.RST_SetInterruptMode
                0x00009510       0x44 .\CortexM0\ARM_GCC_541\Debug\start_v11.a(RST.o)
                0x00009510                RST_SetInterruptMode
 .text.RST_ClearInterrupt
                0x00009554       0x30 .\CortexM0\ARM_GCC_541\Debug\start_v11.a(RST.o)
                0x00009554                RST_ClearInterrupt
 .text          0x00009584        0x0 .\CortexM0\ARM_GCC_541\Debug\start_v11.a(DC.o)
 .text.DC_SetDriveMode
                0x00009584       0x30 .\CortexM0\ARM_GCC_541\Debug\start_v11.a(DC.o)
                0x00009584                DC_SetDriveMode
 .text.DC_Write
                0x000095b4       0x50 .\CortexM0\ARM_GCC_541\Debug\start_v11.a(DC.o)
                0x000095b4                DC_Write
 .text.DC_Read  0x00009604       0x1c .\CortexM0\ARM_GCC_541\Debug\start_v11.a(DC.o)
                0x00009604                DC_Read
 .text.DC_ReadDataReg
                0x00009620       0x1c .\CortexM0\ARM_GCC_541\Debug\start_v11.a(DC.o)
                0x00009620                DC_ReadDataReg
 .text.DC_SetInterruptMode
                0x0000963c       0x44 .\CortexM0\ARM_GCC_541\Debug\start_v11.a(DC.o)
                0x0000963c                DC_SetInterruptMode
 .text.DC_ClearInterrupt
                0x00009680       0x30 .\CortexM0\ARM_GCC_541\Debug\start_v11.a(DC.o)
                0x00009680                DC_ClearInterrupt
 .text          0x000096b0        0x0 .\CortexM0\ARM_GCC_541\Debug\start_v11.a(LCD_BL.o)
 .text.LCD_BL_SetDriveMode
                0x000096b0       0x30 .\CortexM0\ARM_GCC_541\Debug\start_v11.a(LCD_BL.o)
                0x000096b0                LCD_BL_SetDriveMode
 .text.LCD_BL_Write
                0x000096e0       0x50 .\CortexM0\ARM_GCC_541\Debug\start_v11.a(LCD_BL.o)
                0x000096e0                LCD_BL_Write
 .text.LCD_BL_Read
                0x00009730       0x1c .\CortexM0\ARM_GCC_541\Debug\start_v11.a(LCD_BL.o)
                0x00009730                LCD_BL_Read
 .text.LCD_BL_ReadDataReg
                0x0000974c       0x1c .\CortexM0\ARM_GCC_541\Debug\start_v11.a(LCD_BL.o)
                0x0000974c                LCD_BL_ReadDataReg
 .text.LCD_BL_SetInterruptMode
                0x00009768       0x44 .\CortexM0\ARM_GCC_541\Debug\start_v11.a(LCD_BL.o)
                0x00009768                LCD_BL_SetInterruptMode
 .text.LCD_BL_ClearInterrupt
                0x000097ac       0x30 .\CortexM0\ARM_GCC_541\Debug\start_v11.a(LCD_BL.o)
                0x000097ac                LCD_BL_ClearInterrupt
 .text          0x000097dc        0x0 .\CortexM0\ARM_GCC_541\Debug\start_v11.a(TimerTestMode.o)
 .text.TimerTestMode_Init
                0x000097dc       0x44 .\CortexM0\ARM_GCC_541\Debug\start_v11.a(TimerTestMode.o)
                0x000097dc                TimerTestMode_Init
 .text.TimerTestMode_Enable
                0x00009820       0x3c .\CortexM0\ARM_GCC_541\Debug\start_v11.a(TimerTestMode.o)
                0x00009820                TimerTestMode_Enable
 .text.TimerTestMode_Start
                0x0000985c       0x24 .\CortexM0\ARM_GCC_541\Debug\start_v11.a(TimerTestMode.o)
                0x0000985c                TimerTestMode_Start
 .text.TimerTestMode_Stop
                0x00009880       0x34 .\CortexM0\ARM_GCC_541\Debug\start_v11.a(TimerTestMode.o)
                0x00009880                TimerTestMode_Stop
 .text.TimerTestMode_SetMode
                0x000098b4       0x48 .\CortexM0\ARM_GCC_541\Debug\start_v11.a(TimerTestMode.o)
                0x000098b4                TimerTestMode_SetMode
 .text.TimerTestMode_SetQDMode
                0x000098fc       0x48 .\CortexM0\ARM_GCC_541\Debug\start_v11.a(TimerTestMode.o)
                0x000098fc                TimerTestMode_SetQDMode
 .text.TimerTestMode_SetPrescaler
                0x00009944       0x48 .\CortexM0\ARM_GCC_541\Debug\start_v11.a(TimerTestMode.o)
                0x00009944                TimerTestMode_SetPrescaler
 .text.TimerTestMode_SetOneShot
                0x0000998c       0x50 .\CortexM0\ARM_GCC_541\Debug\start_v11.a(TimerTestMode.o)
                0x0000998c                TimerTestMode_SetOneShot
 .text.TimerTestMode_SetPWMMode
                0x000099dc       0x20 .\CortexM0\ARM_GCC_541\Debug\start_v11.a(TimerTestMode.o)
                0x000099dc                TimerTestMode_SetPWMMode
 .text.TimerTestMode_SetPWMSyncKill
                0x000099fc       0x4c .\CortexM0\ARM_GCC_541\Debug\start_v11.a(TimerTestMode.o)
                0x000099fc                TimerTestMode_SetPWMSyncKill
 .text.TimerTestMode_SetPWMStopOnKill
                0x00009a48       0x4c .\CortexM0\ARM_GCC_541\Debug\start_v11.a(TimerTestMode.o)
                0x00009a48                TimerTestMode_SetPWMStopOnKill
 .text.TimerTestMode_SetPWMDeadTime
                0x00009a94       0x50 .\CortexM0\ARM_GCC_541\Debug\start_v11.a(TimerTestMode.o)
                0x00009a94                TimerTestMode_SetPWMDeadTime
 .text.TimerTestMode_SetPWMInvert
                0x00009ae4       0x48 .\CortexM0\ARM_GCC_541\Debug\start_v11.a(TimerTestMode.o)
                0x00009ae4                TimerTestMode_SetPWMInvert
 .text.TimerTestMode_WriteCounter
                0x00009b2c       0x20 .\CortexM0\ARM_GCC_541\Debug\start_v11.a(TimerTestMode.o)
                0x00009b2c                TimerTestMode_WriteCounter
 .text.TimerTestMode_ReadCounter
                0x00009b4c       0x18 .\CortexM0\ARM_GCC_541\Debug\start_v11.a(TimerTestMode.o)
                0x00009b4c                TimerTestMode_ReadCounter
 .text.TimerTestMode_SetCounterMode
                0x00009b64       0x48 .\CortexM0\ARM_GCC_541\Debug\start_v11.a(TimerTestMode.o)
                0x00009b64                TimerTestMode_SetCounterMode
 .text.TimerTestMode_WritePeriod
                0x00009bac       0x20 .\CortexM0\ARM_GCC_541\Debug\start_v11.a(TimerTestMode.o)
                0x00009bac                TimerTestMode_WritePeriod
 .text.TimerTestMode_ReadPeriod
                0x00009bcc       0x18 .\CortexM0\ARM_GCC_541\Debug\start_v11.a(TimerTestMode.o)
                0x00009bcc                TimerTestMode_ReadPeriod
 .text.TimerTestMode_SetCompareSwap
                0x00009be4       0x48 .\CortexM0\ARM_GCC_541\Debug\start_v11.a(TimerTestMode.o)
                0x00009be4                TimerTestMode_SetCompareSwap
 .text.TimerTestMode_WritePeriodBuf
                0x00009c2c       0x20 .\CortexM0\ARM_GCC_541\Debug\start_v11.a(TimerTestMode.o)
                0x00009c2c                TimerTestMode_WritePeriodBuf
 .text.TimerTestMode_ReadPeriodBuf
                0x00009c4c       0x18 .\CortexM0\ARM_GCC_541\Debug\start_v11.a(TimerTestMode.o)
                0x00009c4c                TimerTestMode_ReadPeriodBuf
 .text.TimerTestMode_SetPeriodSwap
                0x00009c64       0x4c .\CortexM0\ARM_GCC_541\Debug\start_v11.a(TimerTestMode.o)
                0x00009c64                TimerTestMode_SetPeriodSwap
 .text.TimerTestMode_WriteCompare
                0x00009cb0       0x20 .\CortexM0\ARM_GCC_541\Debug\start_v11.a(TimerTestMode.o)
                0x00009cb0                TimerTestMode_WriteCompare
 .text.TimerTestMode_ReadCompare
                0x00009cd0       0x18 .\CortexM0\ARM_GCC_541\Debug\start_v11.a(TimerTestMode.o)
                0x00009cd0                TimerTestMode_ReadCompare
 .text.TimerTestMode_WriteCompareBuf
                0x00009ce8       0x20 .\CortexM0\ARM_GCC_541\Debug\start_v11.a(TimerTestMode.o)
                0x00009ce8                TimerTestMode_WriteCompareBuf
 .text.TimerTestMode_ReadCompareBuf
                0x00009d08       0x18 .\CortexM0\ARM_GCC_541\Debug\start_v11.a(TimerTestMode.o)
                0x00009d08                TimerTestMode_ReadCompareBuf
 .text.TimerTestMode_ReadCapture
                0x00009d20       0x18 .\CortexM0\ARM_GCC_541\Debug\start_v11.a(TimerTestMode.o)
                0x00009d20                TimerTestMode_ReadCapture
 .text.TimerTestMode_ReadCaptureBuf
                0x00009d38       0x18 .\CortexM0\ARM_GCC_541\Debug\start_v11.a(TimerTestMode.o)
                0x00009d38                TimerTestMode_ReadCaptureBuf
 .text.TimerTestMode_SetCaptureMode
                0x00009d50       0x44 .\CortexM0\ARM_GCC_541\Debug\start_v11.a(TimerTestMode.o)
                0x00009d50                TimerTestMode_SetCaptureMode
 .text.TimerTestMode_SetReloadMode
                0x00009d94       0x48 .\CortexM0\ARM_GCC_541\Debug\start_v11.a(TimerTestMode.o)
                0x00009d94                TimerTestMode_SetReloadMode
 .text.TimerTestMode_SetStartMode
                0x00009ddc       0x4c .\CortexM0\ARM_GCC_541\Debug\start_v11.a(TimerTestMode.o)
                0x00009ddc                TimerTestMode_SetStartMode
 .text.TimerTestMode_SetStopMode
                0x00009e28       0x48 .\CortexM0\ARM_GCC_541\Debug\start_v11.a(TimerTestMode.o)
                0x00009e28                TimerTestMode_SetStopMode
 .text.TimerTestMode_SetCountMode
                0x00009e70       0x48 .\CortexM0\ARM_GCC_541\Debug\start_v11.a(TimerTestMode.o)
                0x00009e70                TimerTestMode_SetCountMode
 .text.TimerTestMode_TriggerCommand
                0x00009eb8       0x3c .\CortexM0\ARM_GCC_541\Debug\start_v11.a(TimerTestMode.o)
                0x00009eb8                TimerTestMode_TriggerCommand
 .text.TimerTestMode_ReadStatus
                0x00009ef4       0x20 .\CortexM0\ARM_GCC_541\Debug\start_v11.a(TimerTestMode.o)
                0x00009ef4                TimerTestMode_ReadStatus
 .text.TimerTestMode_SetInterruptMode
                0x00009f14       0x1c .\CortexM0\ARM_GCC_541\Debug\start_v11.a(TimerTestMode.o)
                0x00009f14                TimerTestMode_SetInterruptMode
 .text.TimerTestMode_GetInterruptSourceMasked
                0x00009f30       0x14 .\CortexM0\ARM_GCC_541\Debug\start_v11.a(TimerTestMode.o)
                0x00009f30                TimerTestMode_GetInterruptSourceMasked
 .text.TimerTestMode_GetInterruptSource
                0x00009f44       0x14 .\CortexM0\ARM_GCC_541\Debug\start_v11.a(TimerTestMode.o)
                0x00009f44                TimerTestMode_GetInterruptSource
 .text.TimerTestMode_ClearInterrupt
                0x00009f58       0x1c .\CortexM0\ARM_GCC_541\Debug\start_v11.a(TimerTestMode.o)
                0x00009f58                TimerTestMode_ClearInterrupt
 .text.TimerTestMode_SetInterrupt
                0x00009f74       0x1c .\CortexM0\ARM_GCC_541\Debug\start_v11.a(TimerTestMode.o)
                0x00009f74                TimerTestMode_SetInterrupt
 .text          0x00009f90        0x0 .\CortexM0\ARM_GCC_541\Debug\start_v11.a(Int_timerTestMode.o)
 .text.Int_timerTestMode_Start
                0x00009f90       0x24 .\CortexM0\ARM_GCC_541\Debug\start_v11.a(Int_timerTestMode.o)
                0x00009f90                Int_timerTestMode_Start
 .text.Int_timerTestMode_StartEx
                0x00009fb4       0x28 .\CortexM0\ARM_GCC_541\Debug\start_v11.a(Int_timerTestMode.o)
                0x00009fb4                Int_timerTestMode_StartEx
 .text.Int_timerTestMode_Stop
                0x00009fdc       0x1c .\CortexM0\ARM_GCC_541\Debug\start_v11.a(Int_timerTestMode.o)
                0x00009fdc                Int_timerTestMode_Stop
 .text.Int_timerTestMode_Interrupt
                0x00009ff8        0xc .\CortexM0\ARM_GCC_541\Debug\start_v11.a(Int_timerTestMode.o)
                0x00009ff8                Int_timerTestMode_Interrupt
 .text.Int_timerTestMode_SetVector
                0x0000a004       0x1c .\CortexM0\ARM_GCC_541\Debug\start_v11.a(Int_timerTestMode.o)
                0x0000a004                Int_timerTestMode_SetVector
 .text.Int_timerTestMode_GetVector
                0x0000a020       0x14 .\CortexM0\ARM_GCC_541\Debug\start_v11.a(Int_timerTestMode.o)
                0x0000a020                Int_timerTestMode_GetVector
 .text.Int_timerTestMode_SetPriority
                0x0000a034       0x50 .\CortexM0\ARM_GCC_541\Debug\start_v11.a(Int_timerTestMode.o)
                0x0000a034                Int_timerTestMode_SetPriority
 .text.Int_timerTestMode_GetPriority
                0x0000a084       0x2c .\CortexM0\ARM_GCC_541\Debug\start_v11.a(Int_timerTestMode.o)
                0x0000a084                Int_timerTestMode_GetPriority
 .text.Int_timerTestMode_Enable
                0x0000a0b0       0x18 .\CortexM0\ARM_GCC_541\Debug\start_v11.a(Int_timerTestMode.o)
                0x0000a0b0                Int_timerTestMode_Enable
 .text.Int_timerTestMode_GetState
                0x0000a0c8       0x20 .\CortexM0\ARM_GCC_541\Debug\start_v11.a(Int_timerTestMode.o)
                0x0000a0c8                Int_timerTestMode_GetState
 .text.Int_timerTestMode_Disable
                0x0000a0e8       0x18 .\CortexM0\ARM_GCC_541\Debug\start_v11.a(Int_timerTestMode.o)
                0x0000a0e8                Int_timerTestMode_Disable
 .text.Int_timerTestMode_SetPending
                0x0000a100       0x18 .\CortexM0\ARM_GCC_541\Debug\start_v11.a(Int_timerTestMode.o)
                0x0000a100                Int_timerTestMode_SetPending
 .text.Int_timerTestMode_ClearPending
                0x0000a118       0x18 .\CortexM0\ARM_GCC_541\Debug\start_v11.a(Int_timerTestMode.o)
                0x0000a118                Int_timerTestMode_ClearPending
 .text          0x0000a130        0x0 .\CortexM0\ARM_GCC_541\Debug\start_v11.a(Pin_testMode.o)
 .text.Pin_testMode_SetDriveMode
                0x0000a130       0x30 .\CortexM0\ARM_GCC_541\Debug\start_v11.a(Pin_testMode.o)
                0x0000a130                Pin_testMode_SetDriveMode
 .text.Pin_testMode_Write
                0x0000a160       0x48 .\CortexM0\ARM_GCC_541\Debug\start_v11.a(Pin_testMode.o)
                0x0000a160                Pin_testMode_Write
 .text.Pin_testMode_Read
                0x0000a1a8       0x1c .\CortexM0\ARM_GCC_541\Debug\start_v11.a(Pin_testMode.o)
                0x0000a1a8                Pin_testMode_Read
 .text.Pin_testMode_ReadDataReg
                0x0000a1c4       0x1c .\CortexM0\ARM_GCC_541\Debug\start_v11.a(Pin_testMode.o)
                0x0000a1c4                Pin_testMode_ReadDataReg
 .text.Pin_testMode_SetInterruptMode
                0x0000a1e0       0x44 .\CortexM0\ARM_GCC_541\Debug\start_v11.a(Pin_testMode.o)
                0x0000a1e0                Pin_testMode_SetInterruptMode
 .text.Pin_testMode_ClearInterrupt
                0x0000a224       0x30 .\CortexM0\ARM_GCC_541\Debug\start_v11.a(Pin_testMode.o)
                0x0000a224                Pin_testMode_ClearInterrupt
 .text          0x0000a254        0x0 .\CortexM0\ARM_GCC_541\Debug\start_v11.a(SW_RunTestMode.o)
 .text.SW_RunTestMode_SetDriveMode
                0x0000a254       0x30 .\CortexM0\ARM_GCC_541\Debug\start_v11.a(SW_RunTestMode.o)
                0x0000a254                SW_RunTestMode_SetDriveMode
 .text.SW_RunTestMode_Write
                0x0000a284       0x50 .\CortexM0\ARM_GCC_541\Debug\start_v11.a(SW_RunTestMode.o)
                0x0000a284                SW_RunTestMode_Write
 .text.SW_RunTestMode_Read
                0x0000a2d4       0x1c .\CortexM0\ARM_GCC_541\Debug\start_v11.a(SW_RunTestMode.o)
                0x0000a2d4                SW_RunTestMode_Read
 .text.SW_RunTestMode_ReadDataReg
                0x0000a2f0       0x1c .\CortexM0\ARM_GCC_541\Debug\start_v11.a(SW_RunTestMode.o)
                0x0000a2f0                SW_RunTestMode_ReadDataReg
 .text.SW_RunTestMode_SetInterruptMode
                0x0000a30c       0x44 .\CortexM0\ARM_GCC_541\Debug\start_v11.a(SW_RunTestMode.o)
                0x0000a30c                SW_RunTestMode_SetInterruptMode
 .text.SW_RunTestMode_ClearInterrupt
                0x0000a350       0x30 .\CortexM0\ARM_GCC_541\Debug\start_v11.a(SW_RunTestMode.o)
                0x0000a350                SW_RunTestMode_ClearInterrupt
 .text          0x0000a380        0x0 .\CortexM0\ARM_GCC_541\Debug\start_v11.a(LED_RED_PIN.o)
 .text.LED_RED_PIN_SetDriveMode
                0x0000a380       0x30 .\CortexM0\ARM_GCC_541\Debug\start_v11.a(LED_RED_PIN.o)
                0x0000a380                LED_RED_PIN_SetDriveMode
 .text.LED_RED_PIN_Write
                0x0000a3b0       0x50 .\CortexM0\ARM_GCC_541\Debug\start_v11.a(LED_RED_PIN.o)
                0x0000a3b0                LED_RED_PIN_Write
 .text.LED_RED_PIN_Read
                0x0000a400       0x1c .\CortexM0\ARM_GCC_541\Debug\start_v11.a(LED_RED_PIN.o)
                0x0000a400                LED_RED_PIN_Read
 .text.LED_RED_PIN_ReadDataReg
                0x0000a41c       0x1c .\CortexM0\ARM_GCC_541\Debug\start_v11.a(LED_RED_PIN.o)
                0x0000a41c                LED_RED_PIN_ReadDataReg
 .text.LED_RED_PIN_SetInterruptMode
                0x0000a438       0x44 .\CortexM0\ARM_GCC_541\Debug\start_v11.a(LED_RED_PIN.o)
                0x0000a438                LED_RED_PIN_SetInterruptMode
 .text.LED_RED_PIN_ClearInterrupt
                0x0000a47c       0x30 .\CortexM0\ARM_GCC_541\Debug\start_v11.a(LED_RED_PIN.o)
                0x0000a47c                LED_RED_PIN_ClearInterrupt
 .text          0x0000a4ac        0x0 .\CortexM0\ARM_GCC_541\Debug\start_v11.a(LED_GREEN_PIN.o)
 .text.LED_GREEN_PIN_SetDriveMode
                0x0000a4ac       0x30 .\CortexM0\ARM_GCC_541\Debug\start_v11.a(LED_GREEN_PIN.o)
                0x0000a4ac                LED_GREEN_PIN_SetDriveMode
 .text.LED_GREEN_PIN_Write
                0x0000a4dc       0x50 .\CortexM0\ARM_GCC_541\Debug\start_v11.a(LED_GREEN_PIN.o)
                0x0000a4dc                LED_GREEN_PIN_Write
 .text.LED_GREEN_PIN_Read
                0x0000a52c       0x1c .\CortexM0\ARM_GCC_541\Debug\start_v11.a(LED_GREEN_PIN.o)
                0x0000a52c                LED_GREEN_PIN_Read
 .text.LED_GREEN_PIN_ReadDataReg
                0x0000a548       0x1c .\CortexM0\ARM_GCC_541\Debug\start_v11.a(LED_GREEN_PIN.o)
                0x0000a548                LED_GREEN_PIN_ReadDataReg
 .text.LED_GREEN_PIN_SetInterruptMode
                0x0000a564       0x44 .\CortexM0\ARM_GCC_541\Debug\start_v11.a(LED_GREEN_PIN.o)
                0x0000a564                LED_GREEN_PIN_SetInterruptMode
 .text.LED_GREEN_PIN_ClearInterrupt
                0x0000a5a8       0x30 .\CortexM0\ARM_GCC_541\Debug\start_v11.a(LED_GREEN_PIN.o)
                0x0000a5a8                LED_GREEN_PIN_ClearInterrupt
 .text          0x0000a5d8        0x0 .\CortexM0\ARM_GCC_541\Debug\start_v11.a(Timer.o)
 .text.Timer_Init
                0x0000a5d8       0x38 .\CortexM0\ARM_GCC_541\Debug\start_v11.a(Timer.o)
                0x0000a5d8                Timer_Init
 .text.Timer_Enable
                0x0000a610       0x3c .\CortexM0\ARM_GCC_541\Debug\start_v11.a(Timer.o)
                0x0000a610                Timer_Enable
 .text.Timer_Start
                0x0000a64c       0x24 .\CortexM0\ARM_GCC_541\Debug\start_v11.a(Timer.o)
                0x0000a64c                Timer_Start
 .text.Timer_Stop
                0x0000a670       0x34 .\CortexM0\ARM_GCC_541\Debug\start_v11.a(Timer.o)
                0x0000a670                Timer_Stop
 .text.Timer_SetMode
                0x0000a6a4       0x48 .\CortexM0\ARM_GCC_541\Debug\start_v11.a(Timer.o)
                0x0000a6a4                Timer_SetMode
 .text.Timer_SetQDMode
                0x0000a6ec       0x48 .\CortexM0\ARM_GCC_541\Debug\start_v11.a(Timer.o)
                0x0000a6ec                Timer_SetQDMode
 .text.Timer_SetPrescaler
                0x0000a734       0x48 .\CortexM0\ARM_GCC_541\Debug\start_v11.a(Timer.o)
                0x0000a734                Timer_SetPrescaler
 .text.Timer_SetOneShot
                0x0000a77c       0x50 .\CortexM0\ARM_GCC_541\Debug\start_v11.a(Timer.o)
                0x0000a77c                Timer_SetOneShot
 .text.Timer_SetPWMMode
                0x0000a7cc       0x20 .\CortexM0\ARM_GCC_541\Debug\start_v11.a(Timer.o)
                0x0000a7cc                Timer_SetPWMMode
 .text.Timer_SetPWMSyncKill
                0x0000a7ec       0x4c .\CortexM0\ARM_GCC_541\Debug\start_v11.a(Timer.o)
                0x0000a7ec                Timer_SetPWMSyncKill
 .text.Timer_SetPWMStopOnKill
                0x0000a838       0x4c .\CortexM0\ARM_GCC_541\Debug\start_v11.a(Timer.o)
                0x0000a838                Timer_SetPWMStopOnKill
 .text.Timer_SetPWMDeadTime
                0x0000a884       0x50 .\CortexM0\ARM_GCC_541\Debug\start_v11.a(Timer.o)
                0x0000a884                Timer_SetPWMDeadTime
 .text.Timer_SetPWMInvert
                0x0000a8d4       0x48 .\CortexM0\ARM_GCC_541\Debug\start_v11.a(Timer.o)
                0x0000a8d4                Timer_SetPWMInvert
 .text.Timer_WriteCounter
                0x0000a91c       0x20 .\CortexM0\ARM_GCC_541\Debug\start_v11.a(Timer.o)
                0x0000a91c                Timer_WriteCounter
 .text.Timer_ReadCounter
                0x0000a93c       0x18 .\CortexM0\ARM_GCC_541\Debug\start_v11.a(Timer.o)
                0x0000a93c                Timer_ReadCounter
 .text.Timer_SetCounterMode
                0x0000a954       0x48 .\CortexM0\ARM_GCC_541\Debug\start_v11.a(Timer.o)
                0x0000a954                Timer_SetCounterMode
 .text.Timer_WritePeriod
                0x0000a99c       0x20 .\CortexM0\ARM_GCC_541\Debug\start_v11.a(Timer.o)
                0x0000a99c                Timer_WritePeriod
 .text.Timer_ReadPeriod
                0x0000a9bc       0x18 .\CortexM0\ARM_GCC_541\Debug\start_v11.a(Timer.o)
                0x0000a9bc                Timer_ReadPeriod
 .text.Timer_SetCompareSwap
                0x0000a9d4       0x48 .\CortexM0\ARM_GCC_541\Debug\start_v11.a(Timer.o)
                0x0000a9d4                Timer_SetCompareSwap
 .text.Timer_WritePeriodBuf
                0x0000aa1c       0x20 .\CortexM0\ARM_GCC_541\Debug\start_v11.a(Timer.o)
                0x0000aa1c                Timer_WritePeriodBuf
 .text.Timer_ReadPeriodBuf
                0x0000aa3c       0x18 .\CortexM0\ARM_GCC_541\Debug\start_v11.a(Timer.o)
                0x0000aa3c                Timer_ReadPeriodBuf
 .text.Timer_SetPeriodSwap
                0x0000aa54       0x4c .\CortexM0\ARM_GCC_541\Debug\start_v11.a(Timer.o)
                0x0000aa54                Timer_SetPeriodSwap
 .text.Timer_WriteCompare
                0x0000aaa0       0x20 .\CortexM0\ARM_GCC_541\Debug\start_v11.a(Timer.o)
                0x0000aaa0                Timer_WriteCompare
 .text.Timer_ReadCompare
                0x0000aac0       0x18 .\CortexM0\ARM_GCC_541\Debug\start_v11.a(Timer.o)
                0x0000aac0                Timer_ReadCompare
 .text.Timer_WriteCompareBuf
                0x0000aad8       0x20 .\CortexM0\ARM_GCC_541\Debug\start_v11.a(Timer.o)
                0x0000aad8                Timer_WriteCompareBuf
 .text.Timer_ReadCompareBuf
                0x0000aaf8       0x18 .\CortexM0\ARM_GCC_541\Debug\start_v11.a(Timer.o)
                0x0000aaf8                Timer_ReadCompareBuf
 .text.Timer_ReadCapture
                0x0000ab10       0x18 .\CortexM0\ARM_GCC_541\Debug\start_v11.a(Timer.o)
                0x0000ab10                Timer_ReadCapture
 .text.Timer_ReadCaptureBuf
                0x0000ab28       0x18 .\CortexM0\ARM_GCC_541\Debug\start_v11.a(Timer.o)
                0x0000ab28                Timer_ReadCaptureBuf
 .text.Timer_SetCaptureMode
                0x0000ab40       0x44 .\CortexM0\ARM_GCC_541\Debug\start_v11.a(Timer.o)
                0x0000ab40                Timer_SetCaptureMode
 .text.Timer_SetReloadMode
                0x0000ab84       0x48 .\CortexM0\ARM_GCC_541\Debug\start_v11.a(Timer.o)
                0x0000ab84                Timer_SetReloadMode
 .text.Timer_SetStartMode
                0x0000abcc       0x4c .\CortexM0\ARM_GCC_541\Debug\start_v11.a(Timer.o)
                0x0000abcc                Timer_SetStartMode
 .text.Timer_SetStopMode
                0x0000ac18       0x48 .\CortexM0\ARM_GCC_541\Debug\start_v11.a(Timer.o)
                0x0000ac18                Timer_SetStopMode
 .text.Timer_SetCountMode
                0x0000ac60       0x48 .\CortexM0\ARM_GCC_541\Debug\start_v11.a(Timer.o)
                0x0000ac60                Timer_SetCountMode
 .text.Timer_TriggerCommand
                0x0000aca8       0x3c .\CortexM0\ARM_GCC_541\Debug\start_v11.a(Timer.o)
                0x0000aca8                Timer_TriggerCommand
 .text.Timer_ReadStatus
                0x0000ace4       0x20 .\CortexM0\ARM_GCC_541\Debug\start_v11.a(Timer.o)
                0x0000ace4                Timer_ReadStatus
 .text.Timer_SetInterruptMode
                0x0000ad04       0x1c .\CortexM0\ARM_GCC_541\Debug\start_v11.a(Timer.o)
                0x0000ad04                Timer_SetInterruptMode
 .text.Timer_GetInterruptSourceMasked
                0x0000ad20       0x14 .\CortexM0\ARM_GCC_541\Debug\start_v11.a(Timer.o)
                0x0000ad20                Timer_GetInterruptSourceMasked
 .text.Timer_GetInterruptSource
                0x0000ad34       0x14 .\CortexM0\ARM_GCC_541\Debug\start_v11.a(Timer.o)
                0x0000ad34                Timer_GetInterruptSource
 .text.Timer_ClearInterrupt
                0x0000ad48       0x1c .\CortexM0\ARM_GCC_541\Debug\start_v11.a(Timer.o)
                0x0000ad48                Timer_ClearInterrupt
 .text.Timer_SetInterrupt
                0x0000ad64       0x1c .\CortexM0\ARM_GCC_541\Debug\start_v11.a(Timer.o)
                0x0000ad64                Timer_SetInterrupt
 .text          0x0000ad80        0x0 .\CortexM0\ARM_GCC_541\Debug\start_v11.a(isr_timer.o)
 .text.isr_timer_Start
                0x0000ad80       0x24 .\CortexM0\ARM_GCC_541\Debug\start_v11.a(isr_timer.o)
                0x0000ad80                isr_timer_Start
 .text.isr_timer_StartEx
                0x0000ada4       0x28 .\CortexM0\ARM_GCC_541\Debug\start_v11.a(isr_timer.o)
                0x0000ada4                isr_timer_StartEx
 .text.isr_timer_Stop
                0x0000adcc       0x1c .\CortexM0\ARM_GCC_541\Debug\start_v11.a(isr_timer.o)
                0x0000adcc                isr_timer_Stop
 .text.isr_timer_Interrupt
                0x0000ade8        0xc .\CortexM0\ARM_GCC_541\Debug\start_v11.a(isr_timer.o)
                0x0000ade8                isr_timer_Interrupt
 .text.isr_timer_SetVector
                0x0000adf4       0x1c .\CortexM0\ARM_GCC_541\Debug\start_v11.a(isr_timer.o)
                0x0000adf4                isr_timer_SetVector
 .text.isr_timer_GetVector
                0x0000ae10       0x14 .\CortexM0\ARM_GCC_541\Debug\start_v11.a(isr_timer.o)
                0x0000ae10                isr_timer_GetVector
 .text.isr_timer_SetPriority
                0x0000ae24       0x4c .\CortexM0\ARM_GCC_541\Debug\start_v11.a(isr_timer.o)
                0x0000ae24                isr_timer_SetPriority
 .text.isr_timer_GetPriority
                0x0000ae70       0x2c .\CortexM0\ARM_GCC_541\Debug\start_v11.a(isr_timer.o)
                0x0000ae70                isr_timer_GetPriority
 .text.isr_timer_Enable
                0x0000ae9c       0x18 .\CortexM0\ARM_GCC_541\Debug\start_v11.a(isr_timer.o)
                0x0000ae9c                isr_timer_Enable
 .text.isr_timer_GetState
                0x0000aeb4       0x20 .\CortexM0\ARM_GCC_541\Debug\start_v11.a(isr_timer.o)
                0x0000aeb4                isr_timer_GetState
 .text.isr_timer_Disable
                0x0000aed4       0x18 .\CortexM0\ARM_GCC_541\Debug\start_v11.a(isr_timer.o)
                0x0000aed4                isr_timer_Disable
 .text.isr_timer_SetPending
                0x0000aeec       0x18 .\CortexM0\ARM_GCC_541\Debug\start_v11.a(isr_timer.o)
                0x0000aeec                isr_timer_SetPending
 .text.isr_timer_ClearPending
                0x0000af04       0x18 .\CortexM0\ARM_GCC_541\Debug\start_v11.a(isr_timer.o)
                0x0000af04                isr_timer_ClearPending
 .text          0x0000af1c        0x0 .\CortexM0\ARM_GCC_541\Debug\start_v11.a(BtnUp.o)
 .text.BtnUp_SetDriveMode
                0x0000af1c       0x30 .\CortexM0\ARM_GCC_541\Debug\start_v11.a(BtnUp.o)
                0x0000af1c                BtnUp_SetDriveMode
 .text.BtnUp_Write
                0x0000af4c       0x50 .\CortexM0\ARM_GCC_541\Debug\start_v11.a(BtnUp.o)
                0x0000af4c                BtnUp_Write
 .text.BtnUp_Read
                0x0000af9c       0x1c .\CortexM0\ARM_GCC_541\Debug\start_v11.a(BtnUp.o)
                0x0000af9c                BtnUp_Read
 .text.BtnUp_ReadDataReg
                0x0000afb8       0x1c .\CortexM0\ARM_GCC_541\Debug\start_v11.a(BtnUp.o)
                0x0000afb8                BtnUp_ReadDataReg
 .text.BtnUp_SetInterruptMode
                0x0000afd4       0x44 .\CortexM0\ARM_GCC_541\Debug\start_v11.a(BtnUp.o)
                0x0000afd4                BtnUp_SetInterruptMode
 .text.BtnUp_ClearInterrupt
                0x0000b018       0x30 .\CortexM0\ARM_GCC_541\Debug\start_v11.a(BtnUp.o)
                0x0000b018                BtnUp_ClearInterrupt
 .text          0x0000b048        0x0 .\CortexM0\ARM_GCC_541\Debug\start_v11.a(BtnDown.o)
 .text.BtnDown_SetDriveMode
                0x0000b048       0x2c .\CortexM0\ARM_GCC_541\Debug\start_v11.a(BtnDown.o)
                0x0000b048                BtnDown_SetDriveMode
 .text.BtnDown_Write
                0x0000b074       0x4c .\CortexM0\ARM_GCC_541\Debug\start_v11.a(BtnDown.o)
                0x0000b074                BtnDown_Write
 .text.BtnDown_Read
                0x0000b0c0       0x1c .\CortexM0\ARM_GCC_541\Debug\start_v11.a(BtnDown.o)
                0x0000b0c0                BtnDown_Read
 .text.BtnDown_ReadDataReg
                0x0000b0dc       0x1c .\CortexM0\ARM_GCC_541\Debug\start_v11.a(BtnDown.o)
                0x0000b0dc                BtnDown_ReadDataReg
 .text.BtnDown_SetInterruptMode
                0x0000b0f8       0x44 .\CortexM0\ARM_GCC_541\Debug\start_v11.a(BtnDown.o)
                0x0000b0f8                BtnDown_SetInterruptMode
 .text.BtnDown_ClearInterrupt
                0x0000b13c       0x2c .\CortexM0\ARM_GCC_541\Debug\start_v11.a(BtnDown.o)
                0x0000b13c                BtnDown_ClearInterrupt
 .text          0x0000b168        0x0 .\CortexM0\ARM_GCC_541\Debug\start_v11.a(BUTT_DOWN_INT.o)
 .text.BUTT_DOWN_INT_Start
                0x0000b168       0x24 .\CortexM0\ARM_GCC_541\Debug\start_v11.a(BUTT_DOWN_INT.o)
                0x0000b168                BUTT_DOWN_INT_Start
 .text.BUTT_DOWN_INT_StartEx
                0x0000b18c       0x28 .\CortexM0\ARM_GCC_541\Debug\start_v11.a(BUTT_DOWN_INT.o)
                0x0000b18c                BUTT_DOWN_INT_StartEx
 .text.BUTT_DOWN_INT_Stop
                0x0000b1b4       0x1c .\CortexM0\ARM_GCC_541\Debug\start_v11.a(BUTT_DOWN_INT.o)
                0x0000b1b4                BUTT_DOWN_INT_Stop
 .text.BUTT_DOWN_INT_Interrupt
                0x0000b1d0        0xc .\CortexM0\ARM_GCC_541\Debug\start_v11.a(BUTT_DOWN_INT.o)
                0x0000b1d0                BUTT_DOWN_INT_Interrupt
 .text.BUTT_DOWN_INT_SetVector
                0x0000b1dc       0x1c .\CortexM0\ARM_GCC_541\Debug\start_v11.a(BUTT_DOWN_INT.o)
                0x0000b1dc                BUTT_DOWN_INT_SetVector
 .text.BUTT_DOWN_INT_GetVector
                0x0000b1f8       0x14 .\CortexM0\ARM_GCC_541\Debug\start_v11.a(BUTT_DOWN_INT.o)
                0x0000b1f8                BUTT_DOWN_INT_GetVector
 .text.BUTT_DOWN_INT_SetPriority
                0x0000b20c       0x50 .\CortexM0\ARM_GCC_541\Debug\start_v11.a(BUTT_DOWN_INT.o)
                0x0000b20c                BUTT_DOWN_INT_SetPriority
 .text.BUTT_DOWN_INT_GetPriority
                0x0000b25c       0x2c .\CortexM0\ARM_GCC_541\Debug\start_v11.a(BUTT_DOWN_INT.o)
                0x0000b25c                BUTT_DOWN_INT_GetPriority
 .text.BUTT_DOWN_INT_Enable
                0x0000b288       0x14 .\CortexM0\ARM_GCC_541\Debug\start_v11.a(BUTT_DOWN_INT.o)
                0x0000b288                BUTT_DOWN_INT_Enable
 .text.BUTT_DOWN_INT_GetState
                0x0000b29c       0x20 .\CortexM0\ARM_GCC_541\Debug\start_v11.a(BUTT_DOWN_INT.o)
                0x0000b29c                BUTT_DOWN_INT_GetState
 .text.BUTT_DOWN_INT_Disable
                0x0000b2bc       0x14 .\CortexM0\ARM_GCC_541\Debug\start_v11.a(BUTT_DOWN_INT.o)
                0x0000b2bc                BUTT_DOWN_INT_Disable
 .text.BUTT_DOWN_INT_SetPending
                0x0000b2d0       0x14 .\CortexM0\ARM_GCC_541\Debug\start_v11.a(BUTT_DOWN_INT.o)
                0x0000b2d0                BUTT_DOWN_INT_SetPending
 .text.BUTT_DOWN_INT_ClearPending
                0x0000b2e4       0x14 .\CortexM0\ARM_GCC_541\Debug\start_v11.a(BUTT_DOWN_INT.o)
                0x0000b2e4                BUTT_DOWN_INT_ClearPending
 .text          0x0000b2f8        0x0 .\CortexM0\ARM_GCC_541\Debug\start_v11.a(BUTT_UP_INT.o)
 .text.BUTT_UP_INT_Start
                0x0000b2f8       0x24 .\CortexM0\ARM_GCC_541\Debug\start_v11.a(BUTT_UP_INT.o)
                0x0000b2f8                BUTT_UP_INT_Start
 .text.BUTT_UP_INT_StartEx
                0x0000b31c       0x28 .\CortexM0\ARM_GCC_541\Debug\start_v11.a(BUTT_UP_INT.o)
                0x0000b31c                BUTT_UP_INT_StartEx
 .text.BUTT_UP_INT_Stop
                0x0000b344       0x1c .\CortexM0\ARM_GCC_541\Debug\start_v11.a(BUTT_UP_INT.o)
                0x0000b344                BUTT_UP_INT_Stop
 .text.BUTT_UP_INT_Interrupt
                0x0000b360        0xc .\CortexM0\ARM_GCC_541\Debug\start_v11.a(BUTT_UP_INT.o)
                0x0000b360                BUTT_UP_INT_Interrupt
 .text.BUTT_UP_INT_SetVector
                0x0000b36c       0x1c .\CortexM0\ARM_GCC_541\Debug\start_v11.a(BUTT_UP_INT.o)
                0x0000b36c                BUTT_UP_INT_SetVector
 .text.BUTT_UP_INT_GetVector
                0x0000b388       0x14 .\CortexM0\ARM_GCC_541\Debug\start_v11.a(BUTT_UP_INT.o)
                0x0000b388                BUTT_UP_INT_GetVector
 .text.BUTT_UP_INT_SetPriority
                0x0000b39c       0x50 .\CortexM0\ARM_GCC_541\Debug\start_v11.a(BUTT_UP_INT.o)
                0x0000b39c                BUTT_UP_INT_SetPriority
 .text.BUTT_UP_INT_GetPriority
                0x0000b3ec       0x2c .\CortexM0\ARM_GCC_541\Debug\start_v11.a(BUTT_UP_INT.o)
                0x0000b3ec                BUTT_UP_INT_GetPriority
 .text.BUTT_UP_INT_Enable
                0x0000b418       0x14 .\CortexM0\ARM_GCC_541\Debug\start_v11.a(BUTT_UP_INT.o)
                0x0000b418                BUTT_UP_INT_Enable
 .text.BUTT_UP_INT_GetState
                0x0000b42c       0x20 .\CortexM0\ARM_GCC_541\Debug\start_v11.a(BUTT_UP_INT.o)
                0x0000b42c                BUTT_UP_INT_GetState
 .text.BUTT_UP_INT_Disable
                0x0000b44c       0x14 .\CortexM0\ARM_GCC_541\Debug\start_v11.a(BUTT_UP_INT.o)
                0x0000b44c                BUTT_UP_INT_Disable
 .text.BUTT_UP_INT_SetPending
                0x0000b460       0x14 .\CortexM0\ARM_GCC_541\Debug\start_v11.a(BUTT_UP_INT.o)
                0x0000b460                BUTT_UP_INT_SetPending
 .text.BUTT_UP_INT_ClearPending
                0x0000b474       0x14 .\CortexM0\ARM_GCC_541\Debug\start_v11.a(BUTT_UP_INT.o)
                0x0000b474                BUTT_UP_INT_ClearPending
 .text          0x0000b488       0x20 .\CortexM0\ARM_GCC_541\Debug\start_v11.a(CyBootAsmGnu.o)
                0x0000b488                CyDelayCycles
                0x0000b49a                CyEnterCriticalSection
                0x0000b4a2                CyExitCriticalSection
 .text          0x0000b4a8        0x0 .\CortexM0\ARM_GCC_541\Debug\start_v11.a(UART_XB_SPI_UART_INT.o)
 .text.UART_XB_SPI_UART_ISR
                0x0000b4a8      0x118 .\CortexM0\ARM_GCC_541\Debug\start_v11.a(UART_XB_SPI_UART_INT.o)
                0x0000b4a8                UART_XB_SPI_UART_ISR
 .text          0x0000b5c0      0x114 c:/program files (x86)/cypress/psoc creator/4.1/psoc creator/import/gnu/arm/5.4.1/bin/../lib/gcc/arm-none-eabi/5.4.1/armv6-m\libgcc.a(_udivsi3.o)
                0x0000b5c0                __aeabi_uidiv
                0x0000b5c0                __udivsi3
                0x0000b6cc                __aeabi_uidivmod
 .text          0x0000b6d4      0x1d4 c:/program files (x86)/cypress/psoc creator/4.1/psoc creator/import/gnu/arm/5.4.1/bin/../lib/gcc/arm-none-eabi/5.4.1/armv6-m\libgcc.a(_divsi3.o)
                0x0000b6d4                __divsi3
                0x0000b6d4                __aeabi_idiv
                0x0000b8a0                __aeabi_idivmod
 .text          0x0000b8a8        0x4 c:/program files (x86)/cypress/psoc creator/4.1/psoc creator/import/gnu/arm/5.4.1/bin/../lib/gcc/arm-none-eabi/5.4.1/armv6-m\libgcc.a(_dvmd_tls.o)
                0x0000b8a8                __aeabi_idiv0
                0x0000b8a8                __aeabi_ldiv0
 .text          0x0000b8ac       0x7c c:/program files (x86)/cypress/psoc creator/4.1/psoc creator/import/gnu/arm/5.4.1/bin/../lib/gcc/arm-none-eabi/5.4.1/armv6-m\libgcc.a(_arm_cmpdf2.o)
                0x0000b8ac                __aeabi_cdrcmple
                0x0000b8bc                __aeabi_cdcmple
                0x0000b8bc                __aeabi_cdcmpeq
                0x0000b8cc                __aeabi_dcmpeq
                0x0000b8d8                __aeabi_dcmplt
                0x0000b8ec                __aeabi_dcmple
                0x0000b900                __aeabi_dcmpgt
                0x0000b914                __aeabi_dcmpge
 .text          0x0000b928       0x74 c:/program files (x86)/cypress/psoc creator/4.1/psoc creator/import/gnu/arm/5.4.1/bin/../lib/gcc/arm-none-eabi/5.4.1/armv6-m\libgcc.a(_arm_cmpsf2.o)
                0x0000b928                __aeabi_cfrcmple
                0x0000b930                __aeabi_cfcmpeq
                0x0000b930                __aeabi_cfcmple
                0x0000b940                __aeabi_fcmpeq
                0x0000b94c                __aeabi_fcmplt
                0x0000b960                __aeabi_fcmple
                0x0000b974                __aeabi_fcmpgt
                0x0000b988                __aeabi_fcmpge
 .text          0x0000b99c       0x48 c:/program files (x86)/cypress/psoc creator/4.1/psoc creator/import/gnu/arm/5.4.1/bin/../lib/gcc/arm-none-eabi/5.4.1/armv6-m\libgcc.a(_aeabi_ldivmod.o)
                0x0000b99c                __aeabi_ldivmod
 .text          0x0000b9e4       0x40 c:/program files (x86)/cypress/psoc creator/4.1/psoc creator/import/gnu/arm/5.4.1/bin/../lib/gcc/arm-none-eabi/5.4.1/armv6-m\libgcc.a(_aeabi_uldivmod.o)
                0x0000b9e4                __aeabi_uldivmod
 .text          0x0000ba24       0x58 c:/program files (x86)/cypress/psoc creator/4.1/psoc creator/import/gnu/arm/5.4.1/bin/../lib/gcc/arm-none-eabi/5.4.1/armv6-m\libgcc.a(_muldi3.o)
                0x0000ba24                __muldi3
                0x0000ba24                __aeabi_lmul
 .text          0x0000ba7c      0x180 c:/program files (x86)/cypress/psoc creator/4.1/psoc creator/import/gnu/arm/5.4.1/bin/../lib/gcc/arm-none-eabi/5.4.1/armv6-m\libgcc.a(_udivmoddi4.o)
                0x0000ba7c                __udivmoddi4
 .text          0x0000bbfc       0x38 c:/program files (x86)/cypress/psoc creator/4.1/psoc creator/import/gnu/arm/5.4.1/bin/../lib/gcc/arm-none-eabi/5.4.1/armv6-m\libgcc.a(bpabi.o)
                0x0000bbfc                __gnu_ldivmod_helper
 .text          0x0000bc34      0x234 c:/program files (x86)/cypress/psoc creator/4.1/psoc creator/import/gnu/arm/5.4.1/bin/../lib/gcc/arm-none-eabi/5.4.1/armv6-m\libgcc.a(divsf3.o)
                0x0000bc34                __aeabi_fdiv
 .text          0x0000be68       0x50 c:/program files (x86)/cypress/psoc creator/4.1/psoc creator/import/gnu/arm/5.4.1/bin/../lib/gcc/arm-none-eabi/5.4.1/armv6-m\libgcc.a(eqsf2.o)
                0x0000be68                __eqsf2
                0x0000be68                __nesf2
 .text          0x0000beb8       0x88 c:/program files (x86)/cypress/psoc creator/4.1/psoc creator/import/gnu/arm/5.4.1/bin/../lib/gcc/arm-none-eabi/5.4.1/armv6-m\libgcc.a(gesf2.o)
                0x0000beb8                __gesf2
                0x0000beb8                __gtsf2
 .text          0x0000bf40       0x88 c:/program files (x86)/cypress/psoc creator/4.1/psoc creator/import/gnu/arm/5.4.1/bin/../lib/gcc/arm-none-eabi/5.4.1/armv6-m\libgcc.a(lesf2.o)
                0x0000bf40                __ltsf2
                0x0000bf40                __lesf2
 .text          0x0000bfc8      0x228 c:/program files (x86)/cypress/psoc creator/4.1/psoc creator/import/gnu/arm/5.4.1/bin/../lib/gcc/arm-none-eabi/5.4.1/armv6-m\libgcc.a(mulsf3.o)
                0x0000bfc8                __aeabi_fmul
 .text          0x0000c1f0       0x90 c:/program files (x86)/cypress/psoc creator/4.1/psoc creator/import/gnu/arm/5.4.1/bin/../lib/gcc/arm-none-eabi/5.4.1/armv6-m\libgcc.a(floatsisf.o)
                0x0000c1f0                __aeabi_i2f
 .text          0x0000c280      0x658 c:/program files (x86)/cypress/psoc creator/4.1/psoc creator/import/gnu/arm/5.4.1/bin/../lib/gcc/arm-none-eabi/5.4.1/armv6-m\libgcc.a(adddf3.o)
                0x0000c280                __aeabi_dadd
 .text          0x0000c8d8      0x62c c:/program files (x86)/cypress/psoc creator/4.1/psoc creator/import/gnu/arm/5.4.1/bin/../lib/gcc/arm-none-eabi/5.4.1/armv6-m\libgcc.a(divdf3.o)
                0x0000c8d8                __aeabi_ddiv
 .text          0x0000cf04       0x80 c:/program files (x86)/cypress/psoc creator/4.1/psoc creator/import/gnu/arm/5.4.1/bin/../lib/gcc/arm-none-eabi/5.4.1/armv6-m\libgcc.a(eqdf2.o)
                0x0000cf04                __nedf2
                0x0000cf04                __eqdf2
 .text          0x0000cf84       0xc8 c:/program files (x86)/cypress/psoc creator/4.1/psoc creator/import/gnu/arm/5.4.1/bin/../lib/gcc/arm-none-eabi/5.4.1/armv6-m\libgcc.a(gedf2.o)
                0x0000cf84                __gedf2
                0x0000cf84                __gtdf2
 .text          0x0000d04c       0xd4 c:/program files (x86)/cypress/psoc creator/4.1/psoc creator/import/gnu/arm/5.4.1/bin/../lib/gcc/arm-none-eabi/5.4.1/armv6-m\libgcc.a(ledf2.o)
                0x0000d04c                __ledf2
                0x0000d04c                __ltdf2
 .text          0x0000d120      0x6a8 c:/program files (x86)/cypress/psoc creator/4.1/psoc creator/import/gnu/arm/5.4.1/bin/../lib/gcc/arm-none-eabi/5.4.1/armv6-m\libgcc.a(subdf3.o)
                0x0000d120                __aeabi_dsub
 .text          0x0000d7c8       0x6c c:/program files (x86)/cypress/psoc creator/4.1/psoc creator/import/gnu/arm/5.4.1/bin/../lib/gcc/arm-none-eabi/5.4.1/armv6-m\libgcc.a(fixdfsi.o)
                0x0000d7c8                __aeabi_d2iz
 .text          0x0000d834       0x84 c:/program files (x86)/cypress/psoc creator/4.1/psoc creator/import/gnu/arm/5.4.1/bin/../lib/gcc/arm-none-eabi/5.4.1/armv6-m\libgcc.a(floatsidf.o)
                0x0000d834                __aeabi_i2d
 .text          0x0000d8b8       0xa8 c:/program files (x86)/cypress/psoc creator/4.1/psoc creator/import/gnu/arm/5.4.1/bin/../lib/gcc/arm-none-eabi/5.4.1/armv6-m\libgcc.a(extendsfdf2.o)
                0x0000d8b8                __aeabi_f2d
 .text          0x0000d960       0x3c c:/program files (x86)/cypress/psoc creator/4.1/psoc creator/import/gnu/arm/5.4.1/bin/../lib/gcc/arm-none-eabi/5.4.1/armv6-m\libgcc.a(_clzsi2.o)
                0x0000d960                __clzsi2
 .text          0x0000d99c       0x18 c:/program files (x86)/cypress/psoc creator/4.1/psoc creator/import/gnu/arm/5.4.1/bin/../lib/gcc/arm-none-eabi/5.4.1/armv6-m\libgcc.a(_clzdi2.o)
                0x0000d99c                __clzdi2
 .text          0x0000d9b4      0x1bc c:/program files (x86)/cypress/psoc creator/4.1/psoc creator/import/gnu/arm/5.4.1/bin/../lib/gcc/arm-none-eabi/5.4.1/armv6-m\libgcc.a(_divdi3.o)
                0x0000d9b4                __divdi3
 .text          0x0000db70        0x0 c:/program files (x86)/cypress/psoc creator/4.1/psoc creator/import/gnu/arm/5.4.1/bin/../lib/gcc/arm-none-eabi/5.4.1/../../../../arm-none-eabi/lib/armv6-m\libg.a(lib_a-errno.o)
 .text.__errno  0x0000db70        0xc c:/program files (x86)/cypress/psoc creator/4.1/psoc creator/import/gnu/arm/5.4.1/bin/../lib/gcc/arm-none-eabi/5.4.1/../../../../arm-none-eabi/lib/armv6-m\libg.a(lib_a-errno.o)
                0x0000db70                __errno
 .text          0x0000db7c        0x0 c:/program files (x86)/cypress/psoc creator/4.1/psoc creator/import/gnu/arm/5.4.1/bin/../lib/gcc/arm-none-eabi/5.4.1/../../../../arm-none-eabi/lib/armv6-m\libg.a(lib_a-exit.o)
 .text.exit     0x0000db7c       0x20 c:/program files (x86)/cypress/psoc creator/4.1/psoc creator/import/gnu/arm/5.4.1/bin/../lib/gcc/arm-none-eabi/5.4.1/../../../../arm-none-eabi/lib/armv6-m\libg.a(lib_a-exit.o)
                0x0000db7c                exit
 .text          0x0000db9c        0x0 c:/program files (x86)/cypress/psoc creator/4.1/psoc creator/import/gnu/arm/5.4.1/bin/../lib/gcc/arm-none-eabi/5.4.1/../../../../arm-none-eabi/lib/armv6-m\libg.a(lib_a-impure.o)
 .text          0x0000db9c        0x0 c:/program files (x86)/cypress/psoc creator/4.1/psoc creator/import/gnu/arm/5.4.1/bin/../lib/gcc/arm-none-eabi/5.4.1/../../../../arm-none-eabi/lib/armv6-m\libg.a(lib_a-init.o)
 .text.__libc_init_array
                0x0000db9c       0x48 c:/program files (x86)/cypress/psoc creator/4.1/psoc creator/import/gnu/arm/5.4.1/bin/../lib/gcc/arm-none-eabi/5.4.1/../../../../arm-none-eabi/lib/armv6-m\libg.a(lib_a-init.o)
                0x0000db9c                __libc_init_array
 .text          0x0000dbe4        0x0 c:/program files (x86)/cypress/psoc creator/4.1/psoc creator/import/gnu/arm/5.4.1/bin/../lib/gcc/arm-none-eabi/5.4.1/../../../../arm-none-eabi/lib/armv6-m\libg.a(lib_a-memcpy-stub.o)
 .text.memcpy   0x0000dbe4       0x7c c:/program files (x86)/cypress/psoc creator/4.1/psoc creator/import/gnu/arm/5.4.1/bin/../lib/gcc/arm-none-eabi/5.4.1/../../../../arm-none-eabi/lib/armv6-m\libg.a(lib_a-memcpy-stub.o)
                0x0000dbe4                memcpy
 .text          0x0000dc60        0x0 c:/program files (x86)/cypress/psoc creator/4.1/psoc creator/import/gnu/arm/5.4.1/bin/../lib/gcc/arm-none-eabi/5.4.1/../../../../arm-none-eabi/lib/armv6-m\libg.a(lib_a-memset.o)
 .text.memset   0x0000dc60       0x8c c:/program files (x86)/cypress/psoc creator/4.1/psoc creator/import/gnu/arm/5.4.1/bin/../lib/gcc/arm-none-eabi/5.4.1/../../../../arm-none-eabi/lib/armv6-m\libg.a(lib_a-memset.o)
                0x0000dc60                memset
 .text          0x0000dcec        0x0 c:/program files (x86)/cypress/psoc creator/4.1/psoc creator/import/gnu/arm/5.4.1/bin/../lib/gcc/arm-none-eabi/5.4.1/../../../../arm-none-eabi/lib/armv6-m\libg.a(lib_a-rand.o)
 .text.srand    0x0000dcec       0x14 c:/program files (x86)/cypress/psoc creator/4.1/psoc creator/import/gnu/arm/5.4.1/bin/../lib/gcc/arm-none-eabi/5.4.1/../../../../arm-none-eabi/lib/armv6-m\libg.a(lib_a-rand.o)
                0x0000dcec                srand
 .text.rand     0x0000dd00       0x34 c:/program files (x86)/cypress/psoc creator/4.1/psoc creator/import/gnu/arm/5.4.1/bin/../lib/gcc/arm-none-eabi/5.4.1/../../../../arm-none-eabi/lib/armv6-m\libg.a(lib_a-rand.o)
                0x0000dd00                rand
 .text          0x0000dd34        0x0 c:/program files (x86)/cypress/psoc creator/4.1/psoc creator/import/gnu/arm/5.4.1/bin/../lib/gcc/arm-none-eabi/5.4.1/../../../../arm-none-eabi/lib/armv6-m\libg.a(lib_a-sprintf.o)
 .text._sprintf_r
                0x0000dd34       0x40 c:/program files (x86)/cypress/psoc creator/4.1/psoc creator/import/gnu/arm/5.4.1/bin/../lib/gcc/arm-none-eabi/5.4.1/../../../../arm-none-eabi/lib/armv6-m\libg.a(lib_a-sprintf.o)
                0x0000dd34                _sprintf_r
 .text.sprintf  0x0000dd74       0x44 c:/program files (x86)/cypress/psoc creator/4.1/psoc creator/import/gnu/arm/5.4.1/bin/../lib/gcc/arm-none-eabi/5.4.1/../../../../arm-none-eabi/lib/armv6-m\libg.a(lib_a-sprintf.o)
                0x0000dd74                sprintf
 .text          0x0000ddb8        0x0 c:/program files (x86)/cypress/psoc creator/4.1/psoc creator/import/gnu/arm/5.4.1/bin/../lib/gcc/arm-none-eabi/5.4.1/../../../../arm-none-eabi/lib/armv6-m\libg.a(lib_a-strcat.o)
 .text.strcat   0x0000ddb8       0x50 c:/program files (x86)/cypress/psoc creator/4.1/psoc creator/import/gnu/arm/5.4.1/bin/../lib/gcc/arm-none-eabi/5.4.1/../../../../arm-none-eabi/lib/armv6-m\libg.a(lib_a-strcat.o)
                0x0000ddb8                strcat
 .text          0x0000de08        0x0 c:/program files (x86)/cypress/psoc creator/4.1/psoc creator/import/gnu/arm/5.4.1/bin/../lib/gcc/arm-none-eabi/5.4.1/../../../../arm-none-eabi/lib/armv6-m\libg.a(lib_a-strcpy.o)
 .text.strcpy   0x0000de08       0x10 c:/program files (x86)/cypress/psoc creator/4.1/psoc creator/import/gnu/arm/5.4.1/bin/../lib/gcc/arm-none-eabi/5.4.1/../../../../arm-none-eabi/lib/armv6-m\libg.a(lib_a-strcpy.o)
                0x0000de08                strcpy
 .text          0x0000de18        0x0 c:/program files (x86)/cypress/psoc creator/4.1/psoc creator/import/gnu/arm/5.4.1/bin/../lib/gcc/arm-none-eabi/5.4.1/../../../../arm-none-eabi/lib/armv6-m\libg.a(lib_a-strlen-stub.o)
 .text.strlen   0x0000de18       0x68 c:/program files (x86)/cypress/psoc creator/4.1/psoc creator/import/gnu/arm/5.4.1/bin/../lib/gcc/arm-none-eabi/5.4.1/../../../../arm-none-eabi/lib/armv6-m\libg.a(lib_a-strlen-stub.o)
                0x0000de18                strlen
 .text          0x0000de80        0x0 c:/program files (x86)/cypress/psoc creator/4.1/psoc creator/import/gnu/arm/5.4.1/bin/../lib/gcc/arm-none-eabi/5.4.1/../../../../arm-none-eabi/lib/armv6-m\libg.a(lib_a-strncat.o)
 .text.strncat  0x0000de80       0x68 c:/program files (x86)/cypress/psoc creator/4.1/psoc creator/import/gnu/arm/5.4.1/bin/../lib/gcc/arm-none-eabi/5.4.1/../../../../arm-none-eabi/lib/armv6-m\libg.a(lib_a-strncat.o)
                0x0000de80                strncat
 .text          0x0000dee8        0x0 c:/program files (x86)/cypress/psoc creator/4.1/psoc creator/import/gnu/arm/5.4.1/bin/../lib/gcc/arm-none-eabi/5.4.1/../../../../arm-none-eabi/lib/armv6-m\libg.a(lib_a-strncpy.o)
 .text.strncpy  0x0000dee8       0x74 c:/program files (x86)/cypress/psoc creator/4.1/psoc creator/import/gnu/arm/5.4.1/bin/../lib/gcc/arm-none-eabi/5.4.1/../../../../arm-none-eabi/lib/armv6-m\libg.a(lib_a-strncpy.o)
                0x0000dee8                strncpy
 .text          0x0000df5c        0x0 c:/program files (x86)/cypress/psoc creator/4.1/psoc creator/import/gnu/arm/5.4.1/bin/../lib/gcc/arm-none-eabi/5.4.1/../../../../arm-none-eabi/lib/armv6-m\libg.a(lib_a-svfprintf.o)
 .text._svfprintf_r
                0x0000df5c     0x1820 c:/program files (x86)/cypress/psoc creator/4.1/psoc creator/import/gnu/arm/5.4.1/bin/../lib/gcc/arm-none-eabi/5.4.1/../../../../arm-none-eabi/lib/armv6-m\libg.a(lib_a-svfprintf.o)
                0x0000df5c                _svfprintf_r
 .text          0x0000f77c        0x0 c:/program files (x86)/cypress/psoc creator/4.1/psoc creator/import/gnu/arm/5.4.1/bin/../lib/gcc/arm-none-eabi/5.4.1/../../../../arm-none-eabi/lib/armv6-m\libg.a(lib_a-__call_atexit.o)
 .text.startup.register_fini
                0x0000f77c       0x18 c:/program files (x86)/cypress/psoc creator/4.1/psoc creator/import/gnu/arm/5.4.1/bin/../lib/gcc/arm-none-eabi/5.4.1/../../../../arm-none-eabi/lib/armv6-m\libg.a(lib_a-__call_atexit.o)
 .text.__call_exitprocs
                0x0000f794       0xfc c:/program files (x86)/cypress/psoc creator/4.1/psoc creator/import/gnu/arm/5.4.1/bin/../lib/gcc/arm-none-eabi/5.4.1/../../../../arm-none-eabi/lib/armv6-m\libg.a(lib_a-__call_atexit.o)
                0x0000f794                __call_exitprocs
 .text          0x0000f890        0x0 c:/program files (x86)/cypress/psoc creator/4.1/psoc creator/import/gnu/arm/5.4.1/bin/../lib/gcc/arm-none-eabi/5.4.1/../../../../arm-none-eabi/lib/armv6-m\libg.a(lib_a-atexit.o)
 .text.atexit   0x0000f890       0x10 c:/program files (x86)/cypress/psoc creator/4.1/psoc creator/import/gnu/arm/5.4.1/bin/../lib/gcc/arm-none-eabi/5.4.1/../../../../arm-none-eabi/lib/armv6-m\libg.a(lib_a-atexit.o)
                0x0000f890                atexit
 .text          0x0000f8a0        0x0 c:/program files (x86)/cypress/psoc creator/4.1/psoc creator/import/gnu/arm/5.4.1/bin/../lib/gcc/arm-none-eabi/5.4.1/../../../../arm-none-eabi/lib/armv6-m\libg.a(lib_a-dtoa.o)
 .text.quorem   0x0000f8a0      0x150 c:/program files (x86)/cypress/psoc creator/4.1/psoc creator/import/gnu/arm/5.4.1/bin/../lib/gcc/arm-none-eabi/5.4.1/../../../../arm-none-eabi/lib/armv6-m\libg.a(lib_a-dtoa.o)
 .text._dtoa_r  0x0000f9f0      0xf54 c:/program files (x86)/cypress/psoc creator/4.1/psoc creator/import/gnu/arm/5.4.1/bin/../lib/gcc/arm-none-eabi/5.4.1/../../../../arm-none-eabi/lib/armv6-m\libg.a(lib_a-dtoa.o)
                0x0000f9f0                _dtoa_r
 .text          0x00010944        0x0 c:/program files (x86)/cypress/psoc creator/4.1/psoc creator/import/gnu/arm/5.4.1/bin/../lib/gcc/arm-none-eabi/5.4.1/../../../../arm-none-eabi/lib/armv6-m\libg.a(lib_a-fini.o)
 .text.__libc_fini_array
                0x00010944       0x34 c:/program files (x86)/cypress/psoc creator/4.1/psoc creator/import/gnu/arm/5.4.1/bin/../lib/gcc/arm-none-eabi/5.4.1/../../../../arm-none-eabi/lib/armv6-m\libg.a(lib_a-fini.o)
                0x00010944                __libc_fini_array
 .text          0x00010978        0x0 c:/program files (x86)/cypress/psoc creator/4.1/psoc creator/import/gnu/arm/5.4.1/bin/../lib/gcc/arm-none-eabi/5.4.1/../../../../arm-none-eabi/lib/armv6-m\libg.a(lib_a-locale.o)
 .text._setlocale_r
                0x00010978       0x44 c:/program files (x86)/cypress/psoc creator/4.1/psoc creator/import/gnu/arm/5.4.1/bin/../lib/gcc/arm-none-eabi/5.4.1/../../../../arm-none-eabi/lib/armv6-m\libg.a(lib_a-locale.o)
                0x00010978                _setlocale_r
 .text.__locale_charset
                0x000109bc        0x8 c:/program files (x86)/cypress/psoc creator/4.1/psoc creator/import/gnu/arm/5.4.1/bin/../lib/gcc/arm-none-eabi/5.4.1/../../../../arm-none-eabi/lib/armv6-m\libg.a(lib_a-locale.o)
                0x000109bc                __locale_charset
 .text.__locale_mb_cur_max
                0x000109c4        0xc c:/program files (x86)/cypress/psoc creator/4.1/psoc creator/import/gnu/arm/5.4.1/bin/../lib/gcc/arm-none-eabi/5.4.1/../../../../arm-none-eabi/lib/armv6-m\libg.a(lib_a-locale.o)
                0x000109c4                __locale_mb_cur_max
 .text.__locale_msgcharset
                0x000109d0        0x8 c:/program files (x86)/cypress/psoc creator/4.1/psoc creator/import/gnu/arm/5.4.1/bin/../lib/gcc/arm-none-eabi/5.4.1/../../../../arm-none-eabi/lib/armv6-m\libg.a(lib_a-locale.o)
                0x000109d0                __locale_msgcharset
 .text.__locale_cjk_lang
                0x000109d8        0x4 c:/program files (x86)/cypress/psoc creator/4.1/psoc creator/import/gnu/arm/5.4.1/bin/../lib/gcc/arm-none-eabi/5.4.1/../../../../arm-none-eabi/lib/armv6-m\libg.a(lib_a-locale.o)
                0x000109d8                __locale_cjk_lang
 .text._localeconv_r
                0x000109dc        0x8 c:/program files (x86)/cypress/psoc creator/4.1/psoc creator/import/gnu/arm/5.4.1/bin/../lib/gcc/arm-none-eabi/5.4.1/../../../../arm-none-eabi/lib/armv6-m\libg.a(lib_a-locale.o)
                0x000109dc                _localeconv_r
 .text.setlocale
                0x000109e4       0x18 c:/program files (x86)/cypress/psoc creator/4.1/psoc creator/import/gnu/arm/5.4.1/bin/../lib/gcc/arm-none-eabi/5.4.1/../../../../arm-none-eabi/lib/armv6-m\libg.a(lib_a-locale.o)
                0x000109e4                setlocale
 .text.localeconv
                0x000109fc        0x8 c:/program files (x86)/cypress/psoc creator/4.1/psoc creator/import/gnu/arm/5.4.1/bin/../lib/gcc/arm-none-eabi/5.4.1/../../../../arm-none-eabi/lib/armv6-m\libg.a(lib_a-locale.o)
                0x000109fc                localeconv
 .text          0x00010a04        0x0 c:/program files (x86)/cypress/psoc creator/4.1/psoc creator/import/gnu/arm/5.4.1/bin/../lib/gcc/arm-none-eabi/5.4.1/../../../../arm-none-eabi/lib/armv6-m\libg.a(lib_a-mallocr.o)
 .text._malloc_r
                0x00010a04      0x554 c:/program files (x86)/cypress/psoc creator/4.1/psoc creator/import/gnu/arm/5.4.1/bin/../lib/gcc/arm-none-eabi/5.4.1/../../../../arm-none-eabi/lib/armv6-m\libg.a(lib_a-mallocr.o)
                0x00010a04                _malloc_r
 .text          0x00010f58        0x0 c:/program files (x86)/cypress/psoc creator/4.1/psoc creator/import/gnu/arm/5.4.1/bin/../lib/gcc/arm-none-eabi/5.4.1/../../../../arm-none-eabi/lib/armv6-m\libg.a(lib_a-memchr-stub.o)
 .text.memchr   0x00010f58       0x90 c:/program files (x86)/cypress/psoc creator/4.1/psoc creator/import/gnu/arm/5.4.1/bin/../lib/gcc/arm-none-eabi/5.4.1/../../../../arm-none-eabi/lib/armv6-m\libg.a(lib_a-memchr-stub.o)
                0x00010f58                memchr
 .text          0x00010fe8        0x0 c:/program files (x86)/cypress/psoc creator/4.1/psoc creator/import/gnu/arm/5.4.1/bin/../lib/gcc/arm-none-eabi/5.4.1/../../../../arm-none-eabi/lib/armv6-m\libg.a(lib_a-mlock.o)
 .text.__malloc_lock
                0x00010fe8        0x4 c:/program files (x86)/cypress/psoc creator/4.1/psoc creator/import/gnu/arm/5.4.1/bin/../lib/gcc/arm-none-eabi/5.4.1/../../../../arm-none-eabi/lib/armv6-m\libg.a(lib_a-mlock.o)
                0x00010fe8                __malloc_lock
 .text.__malloc_unlock
                0x00010fec        0x4 c:/program files (x86)/cypress/psoc creator/4.1/psoc creator/import/gnu/arm/5.4.1/bin/../lib/gcc/arm-none-eabi/5.4.1/../../../../arm-none-eabi/lib/armv6-m\libg.a(lib_a-mlock.o)
                0x00010fec                __malloc_unlock
 .text          0x00010ff0        0x0 c:/program files (x86)/cypress/psoc creator/4.1/psoc creator/import/gnu/arm/5.4.1/bin/../lib/gcc/arm-none-eabi/5.4.1/../../../../arm-none-eabi/lib/armv6-m\libg.a(lib_a-mprec.o)
 .text._Balloc  0x00010ff0       0x50 c:/program files (x86)/cypress/psoc creator/4.1/psoc creator/import/gnu/arm/5.4.1/bin/../lib/gcc/arm-none-eabi/5.4.1/../../../../arm-none-eabi/lib/armv6-m\libg.a(lib_a-mprec.o)
                0x00010ff0                _Balloc
 .text._Bfree   0x00011040       0x14 c:/program files (x86)/cypress/psoc creator/4.1/psoc creator/import/gnu/arm/5.4.1/bin/../lib/gcc/arm-none-eabi/5.4.1/../../../../arm-none-eabi/lib/armv6-m\libg.a(lib_a-mprec.o)
                0x00011040                _Bfree
 .text.__multadd
                0x00011054       0x8c c:/program files (x86)/cypress/psoc creator/4.1/psoc creator/import/gnu/arm/5.4.1/bin/../lib/gcc/arm-none-eabi/5.4.1/../../../../arm-none-eabi/lib/armv6-m\libg.a(lib_a-mprec.o)
                0x00011054                __multadd
 .text.__s2b    0x000110e0       0x90 c:/program files (x86)/cypress/psoc creator/4.1/psoc creator/import/gnu/arm/5.4.1/bin/../lib/gcc/arm-none-eabi/5.4.1/../../../../arm-none-eabi/lib/armv6-m\libg.a(lib_a-mprec.o)
                0x000110e0                __s2b
 .text.__hi0bits
                0x00011170       0x3c c:/program files (x86)/cypress/psoc creator/4.1/psoc creator/import/gnu/arm/5.4.1/bin/../lib/gcc/arm-none-eabi/5.4.1/../../../../arm-none-eabi/lib/armv6-m\libg.a(lib_a-mprec.o)
                0x00011170                __hi0bits
 .text.__lo0bits
                0x000111ac       0x5c c:/program files (x86)/cypress/psoc creator/4.1/psoc creator/import/gnu/arm/5.4.1/bin/../lib/gcc/arm-none-eabi/5.4.1/../../../../arm-none-eabi/lib/armv6-m\libg.a(lib_a-mprec.o)
                0x000111ac                __lo0bits
 .text.__i2b    0x00011208       0x14 c:/program files (x86)/cypress/psoc creator/4.1/psoc creator/import/gnu/arm/5.4.1/bin/../lib/gcc/arm-none-eabi/5.4.1/../../../../arm-none-eabi/lib/armv6-m\libg.a(lib_a-mprec.o)
                0x00011208                __i2b
 .text.__multiply
                0x0001121c      0x15c c:/program files (x86)/cypress/psoc creator/4.1/psoc creator/import/gnu/arm/5.4.1/bin/../lib/gcc/arm-none-eabi/5.4.1/../../../../arm-none-eabi/lib/armv6-m\libg.a(lib_a-mprec.o)
                0x0001121c                __multiply
 .text.__pow5mult
                0x00011378       0xbc c:/program files (x86)/cypress/psoc creator/4.1/psoc creator/import/gnu/arm/5.4.1/bin/../lib/gcc/arm-none-eabi/5.4.1/../../../../arm-none-eabi/lib/armv6-m\libg.a(lib_a-mprec.o)
                0x00011378                __pow5mult
 .text.__lshift
                0x00011434       0xc0 c:/program files (x86)/cypress/psoc creator/4.1/psoc creator/import/gnu/arm/5.4.1/bin/../lib/gcc/arm-none-eabi/5.4.1/../../../../arm-none-eabi/lib/armv6-m\libg.a(lib_a-mprec.o)
                0x00011434                __lshift
 .text.__mcmp   0x000114f4       0x3c c:/program files (x86)/cypress/psoc creator/4.1/psoc creator/import/gnu/arm/5.4.1/bin/../lib/gcc/arm-none-eabi/5.4.1/../../../../arm-none-eabi/lib/armv6-m\libg.a(lib_a-mprec.o)
                0x000114f4                __mcmp
 .text.__mdiff  0x00011530      0x11c c:/program files (x86)/cypress/psoc creator/4.1/psoc creator/import/gnu/arm/5.4.1/bin/../lib/gcc/arm-none-eabi/5.4.1/../../../../arm-none-eabi/lib/armv6-m\libg.a(lib_a-mprec.o)
                0x00011530                __mdiff
 .text.__ulp    0x0001164c       0x4c c:/program files (x86)/cypress/psoc creator/4.1/psoc creator/import/gnu/arm/5.4.1/bin/../lib/gcc/arm-none-eabi/5.4.1/../../../../arm-none-eabi/lib/armv6-m\libg.a(lib_a-mprec.o)
                0x0001164c                __ulp
 .text.__b2d    0x00011698       0xd8 c:/program files (x86)/cypress/psoc creator/4.1/psoc creator/import/gnu/arm/5.4.1/bin/../lib/gcc/arm-none-eabi/5.4.1/../../../../arm-none-eabi/lib/armv6-m\libg.a(lib_a-mprec.o)
                0x00011698                __b2d
 .text.__d2b    0x00011770       0xbc c:/program files (x86)/cypress/psoc creator/4.1/psoc creator/import/gnu/arm/5.4.1/bin/../lib/gcc/arm-none-eabi/5.4.1/../../../../arm-none-eabi/lib/armv6-m\libg.a(lib_a-mprec.o)
                0x00011770                __d2b
 .text.__ratio  0x0001182c       0x74 c:/program files (x86)/cypress/psoc creator/4.1/psoc creator/import/gnu/arm/5.4.1/bin/../lib/gcc/arm-none-eabi/5.4.1/../../../../arm-none-eabi/lib/armv6-m\libg.a(lib_a-mprec.o)
                0x0001182c                __ratio
 .text._mprec_log10
                0x000118a0       0x34 c:/program files (x86)/cypress/psoc creator/4.1/psoc creator/import/gnu/arm/5.4.1/bin/../lib/gcc/arm-none-eabi/5.4.1/../../../../arm-none-eabi/lib/armv6-m\libg.a(lib_a-mprec.o)
                0x000118a0                _mprec_log10
 .text.__copybits
                0x000118d4       0x40 c:/program files (x86)/cypress/psoc creator/4.1/psoc creator/import/gnu/arm/5.4.1/bin/../lib/gcc/arm-none-eabi/5.4.1/../../../../arm-none-eabi/lib/armv6-m\libg.a(lib_a-mprec.o)
                0x000118d4                __copybits
 .text.__any_on
                0x00011914       0x60 c:/program files (x86)/cypress/psoc creator/4.1/psoc creator/import/gnu/arm/5.4.1/bin/../lib/gcc/arm-none-eabi/5.4.1/../../../../arm-none-eabi/lib/armv6-m\libg.a(lib_a-mprec.o)
                0x00011914                __any_on
 .text          0x00011974        0x0 c:/program files (x86)/cypress/psoc creator/4.1/psoc creator/import/gnu/arm/5.4.1/bin/../lib/gcc/arm-none-eabi/5.4.1/../../../../arm-none-eabi/lib/armv6-m\libg.a(lib_a-sbrkr.o)
 .text._sbrk_r  0x00011974       0x24 c:/program files (x86)/cypress/psoc creator/4.1/psoc creator/import/gnu/arm/5.4.1/bin/../lib/gcc/arm-none-eabi/5.4.1/../../../../arm-none-eabi/lib/armv6-m\libg.a(lib_a-sbrkr.o)
                0x00011974                _sbrk_r
 .text          0x00011998       0x88 c:/program files (x86)/cypress/psoc creator/4.1/psoc creator/import/gnu/arm/5.4.1/bin/../lib/gcc/arm-none-eabi/5.4.1/../../../../arm-none-eabi/lib/armv6-m\libg.a(lib_a-strcmp.o)
                0x00011998                strcmp
 .text          0x00011a20        0x0 c:/program files (x86)/cypress/psoc creator/4.1/psoc creator/import/gnu/arm/5.4.1/bin/../lib/gcc/arm-none-eabi/5.4.1/../../../../arm-none-eabi/lib/armv6-m\libg.a(lib_a-svfiprintf.o)
 .text.__ssprint_r
                0x00011a20      0x130 c:/program files (x86)/cypress/psoc creator/4.1/psoc creator/import/gnu/arm/5.4.1/bin/../lib/gcc/arm-none-eabi/5.4.1/../../../../arm-none-eabi/lib/armv6-m\libg.a(lib_a-svfiprintf.o)
                0x00011a20                __ssprint_r
 .text._svfiprintf_r
                0x00011b50      0xc88 c:/program files (x86)/cypress/psoc creator/4.1/psoc creator/import/gnu/arm/5.4.1/bin/../lib/gcc/arm-none-eabi/5.4.1/../../../../arm-none-eabi/lib/armv6-m\libg.a(lib_a-svfiprintf.o)
                0x00011b50                _svfiprintf_r
 .text          0x000127d8        0x0 c:/program files (x86)/cypress/psoc creator/4.1/psoc creator/import/gnu/arm/5.4.1/bin/../lib/gcc/arm-none-eabi/5.4.1/../../../../arm-none-eabi/lib/armv6-m\libg.a(lib_a-__atexit.o)
 .text.__register_exitproc
                0x000127d8       0xd4 c:/program files (x86)/cypress/psoc creator/4.1/psoc creator/import/gnu/arm/5.4.1/bin/../lib/gcc/arm-none-eabi/5.4.1/../../../../arm-none-eabi/lib/armv6-m\libg.a(lib_a-__atexit.o)
                0x000127d8                __register_exitproc
 .text          0x000128ac        0x0 c:/program files (x86)/cypress/psoc creator/4.1/psoc creator/import/gnu/arm/5.4.1/bin/../lib/gcc/arm-none-eabi/5.4.1/../../../../arm-none-eabi/lib/armv6-m\libg.a(lib_a-callocr.o)
 .text._calloc_r
                0x000128ac       0x60 c:/program files (x86)/cypress/psoc creator/4.1/psoc creator/import/gnu/arm/5.4.1/bin/../lib/gcc/arm-none-eabi/5.4.1/../../../../arm-none-eabi/lib/armv6-m\libg.a(lib_a-callocr.o)
                0x000128ac                _calloc_r
 .text          0x0001290c        0x0 c:/program files (x86)/cypress/psoc creator/4.1/psoc creator/import/gnu/arm/5.4.1/bin/../lib/gcc/arm-none-eabi/5.4.1/../../../../arm-none-eabi/lib/armv6-m\libg.a(lib_a-freer.o)
 .text._malloc_trim_r
                0x0001290c       0xa0 c:/program files (x86)/cypress/psoc creator/4.1/psoc creator/import/gnu/arm/5.4.1/bin/../lib/gcc/arm-none-eabi/5.4.1/../../../../arm-none-eabi/lib/armv6-m\libg.a(lib_a-freer.o)
                0x0001290c                _malloc_trim_r
 .text._free_r  0x000129ac      0x1c4 c:/program files (x86)/cypress/psoc creator/4.1/psoc creator/import/gnu/arm/5.4.1/bin/../lib/gcc/arm-none-eabi/5.4.1/../../../../arm-none-eabi/lib/armv6-m\libg.a(lib_a-freer.o)
                0x000129ac                _free_r
 .text          0x00012b70        0x0 c:/program files (x86)/cypress/psoc creator/4.1/psoc creator/import/gnu/arm/5.4.1/bin/../lib/gcc/arm-none-eabi/5.4.1/../../../../arm-none-eabi/lib/armv6-m\libg.a(lib_a-memmove.o)
 .text.memmove  0x00012b70       0x98 c:/program files (x86)/cypress/psoc creator/4.1/psoc creator/import/gnu/arm/5.4.1/bin/../lib/gcc/arm-none-eabi/5.4.1/../../../../arm-none-eabi/lib/armv6-m\libg.a(lib_a-memmove.o)
                0x00012b70                memmove
 .text          0x00012c08        0x0 c:/program files (x86)/cypress/psoc creator/4.1/psoc creator/import/gnu/arm/5.4.1/bin/../lib/gcc/arm-none-eabi/5.4.1/../../../../arm-none-eabi/lib/armv6-m\libg.a(lib_a-reallocr.o)
 .text._realloc_r
                0x00012c08      0x3dc c:/program files (x86)/cypress/psoc creator/4.1/psoc creator/import/gnu/arm/5.4.1/bin/../lib/gcc/arm-none-eabi/5.4.1/../../../../arm-none-eabi/lib/armv6-m\libg.a(lib_a-reallocr.o)
                0x00012c08                _realloc_r
 .text          0x00012fe4        0x0 c:/program files (x86)/cypress/psoc creator/4.1/psoc creator/import/gnu/arm/5.4.1/bin/../lib/gcc/arm-none-eabi/5.4.1/../../../../arm-none-eabi/lib/armv6-m\libg.a(lib_a-reent.o)
 .text.cleanup_glue
                0x00012fe4       0x1c c:/program files (x86)/cypress/psoc creator/4.1/psoc creator/import/gnu/arm/5.4.1/bin/../lib/gcc/arm-none-eabi/5.4.1/../../../../arm-none-eabi/lib/armv6-m\libg.a(lib_a-reent.o)
                0x00012fe4                cleanup_glue
 .text._reclaim_reent
                0x00013000       0x94 c:/program files (x86)/cypress/psoc creator/4.1/psoc creator/import/gnu/arm/5.4.1/bin/../lib/gcc/arm-none-eabi/5.4.1/../../../../arm-none-eabi/lib/armv6-m\libg.a(lib_a-reent.o)
                0x00013000                _reclaim_reent
 .text          0x00013094      0x4f4 c:/program files (x86)/cypress/psoc creator/4.1/psoc creator/import/gnu/arm/5.4.1/bin/../lib/gcc/arm-none-eabi/5.4.1/armv6-m\libgcc.a(muldf3.o)
                0x00013094                __aeabi_dmul
 .text          0x00013588       0x40 c:/program files (x86)/cypress/psoc creator/4.1/psoc creator/import/gnu/arm/5.4.1/bin/../lib/gcc/arm-none-eabi/5.4.1/armv6-m\libgcc.a(unorddf2.o)
                0x00013588                __aeabi_dcmpun
 .text          0x000135c8       0x70 c:/program files (x86)/cypress/psoc creator/4.1/psoc creator/import/gnu/arm/5.4.1/bin/../lib/gcc/arm-none-eabi/5.4.1/armv6-m\libgcc.a(floatunsidf.o)
                0x000135c8                __aeabi_ui2d
 .text          0x00013638        0x0 c:/program files (x86)/cypress/psoc creator/4.1/psoc creator/import/gnu/arm/5.4.1/bin/../lib/gcc/arm-none-eabi/5.4.1/armv6-m/crtend.o
 .text          0x00013638        0x0 c:/program files (x86)/cypress/psoc creator/4.1/psoc creator/import/gnu/arm/5.4.1/bin/../lib/gcc/arm-none-eabi/5.4.1/armv6-m/crtn.o
 *(.plt)
 *(.gnu.warning)
 *(.glue_7t)
 .glue_7t       0x00013638        0x0 linker stubs
 *(.glue_7)
 .glue_7        0x00013638        0x0 linker stubs
 *(.vfp11_veneer)
 .vfp11_veneer  0x00013638        0x0 linker stubs
 *(.bootloader)
 *(.ARM.extab* .gnu.linkonce.armextab.*)
 .ARM.extab     0x00013638        0x0 c:/program files (x86)/cypress/psoc creator/4.1/psoc creator/import/gnu/arm/5.4.1/bin/../lib/gcc/arm-none-eabi/5.4.1/../../../../arm-none-eabi/lib/armv6-m/crt0.o
 .ARM.extab     0x00013638        0x0 c:/program files (x86)/cypress/psoc creator/4.1/psoc creator/import/gnu/arm/5.4.1/bin/../lib/gcc/arm-none-eabi/5.4.1/armv6-m\libgcc.a(_udivmoddi4.o)
 .ARM.extab     0x00013638        0x0 c:/program files (x86)/cypress/psoc creator/4.1/psoc creator/import/gnu/arm/5.4.1/bin/../lib/gcc/arm-none-eabi/5.4.1/armv6-m\libgcc.a(_divdi3.o)
 *(.gcc_except_table)

.v4_bx          0x00013638        0x0
 .v4_bx         0x00013638        0x0 linker stubs

.iplt           0x00013638        0x0
 .iplt          0x00013638        0x0 c:/program files (x86)/cypress/psoc creator/4.1/psoc creator/import/gnu/arm/5.4.1/bin/../lib/gcc/arm-none-eabi/5.4.1/armv6-m/crtbegin.o

.eh_frame_hdr
 *(.eh_frame_hdr)

.eh_frame       0x00013638        0x4
 *(.eh_frame)
 .eh_frame      0x00013638        0x0 c:/program files (x86)/cypress/psoc creator/4.1/psoc creator/import/gnu/arm/5.4.1/bin/../lib/gcc/arm-none-eabi/5.4.1/armv6-m/crtbegin.o
 .eh_frame      0x00013638        0x4 c:/program files (x86)/cypress/psoc creator/4.1/psoc creator/import/gnu/arm/5.4.1/bin/../lib/gcc/arm-none-eabi/5.4.1/armv6-m/crtend.o
                [!provide]                PROVIDE (__exidx_start, .)

.ARM.exidx      0x0001363c        0x8
 *(.ARM.exidx* .gnu.linkonce.armexidx.*)
 .ARM.exidx     0x0001363c        0x8 c:/program files (x86)/cypress/psoc creator/4.1/psoc creator/import/gnu/arm/5.4.1/bin/../lib/gcc/arm-none-eabi/5.4.1/../../../../arm-none-eabi/lib/armv6-m/crt0.o
 .ARM.exidx     0x00013644        0x0 c:/program files (x86)/cypress/psoc creator/4.1/psoc creator/import/gnu/arm/5.4.1/bin/../lib/gcc/arm-none-eabi/5.4.1/armv6-m\libgcc.a(_udivmoddi4.o)
                                  0x8 (size before relaxing)
 .ARM.exidx     0x00013644        0x0 c:/program files (x86)/cypress/psoc creator/4.1/psoc creator/import/gnu/arm/5.4.1/bin/../lib/gcc/arm-none-eabi/5.4.1/armv6-m\libgcc.a(_divdi3.o)
                                  0x8 (size before relaxing)
                0x00013644                __exidx_end = .

.rodata         0x00013648     0x1358
 *(.rodata .rodata.* .gnu.linkonce.r.*)
 .rodata        0x00013648       0x33 .\CortexM0\ARM_GCC_541\Debug\display.o
 *fill*         0x0001367b        0x1 
 .rodata        0x0001367c      0x6c5 .\CortexM0\ARM_GCC_541\Debug\DefaultFonts.o
                0x0001367c                SmallFont
                0x000138bc                MediumNumbers
                0x000139f8                BigNumbers
                0x00013c20                TinyFont
 *fill*         0x00013d41        0x3 
 .rodata        0x00013d44      0x422 .\CortexM0\ARM_GCC_541\Debug\Graphics.o
                0x00013d44                logoCypress
                0x00013f3c                homeSkreenNull
                0x00014134                networkOn
                0x00014150                SDinsert
                0x0001415c                SDnoInsert
 *fill*         0x00014166        0x2 
 .rodata        0x00014168        0x9 .\CortexM0\ARM_GCC_541\Debug\LCD5110_Graph.o
 *fill*         0x00014171        0x3 
 .rodata        0x00014174       0x6a .\CortexM0\ARM_GCC_541\Debug\svt.o
 *fill*         0x000141de        0x2 
 .rodata        0x000141e0       0x20 .\CortexM0\ARM_GCC_541\Debug\ntp.o
 .rodata        0x00014200       0x2d .\CortexM0\ARM_GCC_541\Debug\network.o
 *fill*         0x0001422d        0x3 
 .rodata        0x00014230       0x83 .\CortexM0\ARM_GCC_541\Debug\main.o
 *fill*         0x000142b3        0x1 
 .rodata        0x000142b4       0x78 .\CortexM0\ARM_GCC_541\Debug\cyfitter_cfg.o
 .rodata        0x0001432c       0x2e .\CortexM0\ARM_GCC_541\Debug\start_v11.a(CyLib.o)
                0x0001432c                cyImoFreqMhz2Reg
 *fill*         0x0001435a        0x2 
 .rodata        0x0001435c        0xc .\CortexM0\ARM_GCC_541\Debug\start_v11.a(CyLFClk.o)
 .rodata        0x00014368       0x24 .\CortexM0\ARM_GCC_541\Debug\start_v11.a(RTC.o)
                0x00014368                RTC_daysBeforeMonthTbl
                0x00014380                RTC_daysInMonthTbl
 .rodata        0x0001438c        0x4 .\CortexM0\ARM_GCC_541\Debug\start_v11.a(ADC.o)
 .rodata        0x00014390       0x80 c:/program files (x86)/cypress/psoc creator/4.1/psoc creator/import/gnu/arm/5.4.1/bin/../lib/gcc/arm-none-eabi/5.4.1/armv6-m\libgcc.a(divsf3.o)
 .rodata        0x00014410       0x40 c:/program files (x86)/cypress/psoc creator/4.1/psoc creator/import/gnu/arm/5.4.1/bin/../lib/gcc/arm-none-eabi/5.4.1/armv6-m\libgcc.a(mulsf3.o)
 .rodata        0x00014450       0x40 c:/program files (x86)/cypress/psoc creator/4.1/psoc creator/import/gnu/arm/5.4.1/bin/../lib/gcc/arm-none-eabi/5.4.1/armv6-m\libgcc.a(divdf3.o)
 .rodata.str1.4
                0x00014490        0x2 c:/program files (x86)/cypress/psoc creator/4.1/psoc creator/import/gnu/arm/5.4.1/bin/../lib/gcc/arm-none-eabi/5.4.1/../../../../arm-none-eabi/lib/armv6-m\libg.a(lib_a-impure.o)
 *fill*         0x00014492        0x2 
 .rodata._global_impure_ptr
                0x00014494        0x4 c:/program files (x86)/cypress/psoc creator/4.1/psoc creator/import/gnu/arm/5.4.1/bin/../lib/gcc/arm-none-eabi/5.4.1/../../../../arm-none-eabi/lib/armv6-m\libg.a(lib_a-impure.o)
                0x00014494                _global_impure_ptr
 .rodata._svfprintf_r
                0x00014498      0x164 c:/program files (x86)/cypress/psoc creator/4.1/psoc creator/import/gnu/arm/5.4.1/bin/../lib/gcc/arm-none-eabi/5.4.1/../../../../arm-none-eabi/lib/armv6-m\libg.a(lib_a-svfprintf.o)
 .rodata.blanks.7055
                0x000145fc       0x10 c:/program files (x86)/cypress/psoc creator/4.1/psoc creator/import/gnu/arm/5.4.1/bin/../lib/gcc/arm-none-eabi/5.4.1/../../../../arm-none-eabi/lib/armv6-m\libg.a(lib_a-svfprintf.o)
 .rodata.str1.4
                0x0001460c       0x42 c:/program files (x86)/cypress/psoc creator/4.1/psoc creator/import/gnu/arm/5.4.1/bin/../lib/gcc/arm-none-eabi/5.4.1/../../../../arm-none-eabi/lib/armv6-m\libg.a(lib_a-svfprintf.o)
 *fill*         0x0001464e        0x2 
 .rodata.zeroes.7056
                0x00014650       0x10 c:/program files (x86)/cypress/psoc creator/4.1/psoc creator/import/gnu/arm/5.4.1/bin/../lib/gcc/arm-none-eabi/5.4.1/../../../../arm-none-eabi/lib/armv6-m\libg.a(lib_a-svfprintf.o)
 .rodata.str1.4
                0x00014660       0x10 c:/program files (x86)/cypress/psoc creator/4.1/psoc creator/import/gnu/arm/5.4.1/bin/../lib/gcc/arm-none-eabi/5.4.1/../../../../arm-none-eabi/lib/armv6-m\libg.a(lib_a-dtoa.o)
                                 0x12 (size before relaxing)
 .rodata.str1.4
                0x00014670        0xc c:/program files (x86)/cypress/psoc creator/4.1/psoc creator/import/gnu/arm/5.4.1/bin/../lib/gcc/arm-none-eabi/5.4.1/../../../../arm-none-eabi/lib/armv6-m\libg.a(lib_a-locale.o)
                                 0x12 (size before relaxing)
 *fill*         0x0001467c        0x4 
 .rodata.__mprec_tens
                0x00014680       0xc8 c:/program files (x86)/cypress/psoc creator/4.1/psoc creator/import/gnu/arm/5.4.1/bin/../lib/gcc/arm-none-eabi/5.4.1/../../../../arm-none-eabi/lib/armv6-m\libg.a(lib_a-mprec.o)
                0x00014680                __mprec_tens
 .rodata.__mprec_bigtens
                0x00014748       0x28 c:/program files (x86)/cypress/psoc creator/4.1/psoc creator/import/gnu/arm/5.4.1/bin/../lib/gcc/arm-none-eabi/5.4.1/../../../../arm-none-eabi/lib/armv6-m\libg.a(lib_a-mprec.o)
                0x00014748                __mprec_bigtens
 .rodata.__mprec_tinytens
                0x00014770       0x28 c:/program files (x86)/cypress/psoc creator/4.1/psoc creator/import/gnu/arm/5.4.1/bin/../lib/gcc/arm-none-eabi/5.4.1/../../../../arm-none-eabi/lib/armv6-m\libg.a(lib_a-mprec.o)
                0x00014770                __mprec_tinytens
 .rodata.p05.5396
                0x00014798        0xc c:/program files (x86)/cypress/psoc creator/4.1/psoc creator/import/gnu/arm/5.4.1/bin/../lib/gcc/arm-none-eabi/5.4.1/../../../../arm-none-eabi/lib/armv6-m\libg.a(lib_a-mprec.o)
 .rodata._svfiprintf_r
                0x000147a4      0x164 c:/program files (x86)/cypress/psoc creator/4.1/psoc creator/import/gnu/arm/5.4.1/bin/../lib/gcc/arm-none-eabi/5.4.1/../../../../arm-none-eabi/lib/armv6-m\libg.a(lib_a-svfiprintf.o)
 .rodata.blanks.6999
                0x00014908       0x10 c:/program files (x86)/cypress/psoc creator/4.1/psoc creator/import/gnu/arm/5.4.1/bin/../lib/gcc/arm-none-eabi/5.4.1/../../../../arm-none-eabi/lib/armv6-m\libg.a(lib_a-svfiprintf.o)
 .rodata.str1.4
                0x00014918       0x2f c:/program files (x86)/cypress/psoc creator/4.1/psoc creator/import/gnu/arm/5.4.1/bin/../lib/gcc/arm-none-eabi/5.4.1/../../../../arm-none-eabi/lib/armv6-m\libg.a(lib_a-svfiprintf.o)
 .rodata.zeroes.7000
                0x00014918       0x10 c:/program files (x86)/cypress/psoc creator/4.1/psoc creator/import/gnu/arm/5.4.1/bin/../lib/gcc/arm-none-eabi/5.4.1/../../../../arm-none-eabi/lib/armv6-m\libg.a(lib_a-svfiprintf.o)
 .rodata        0x00014928       0x40 c:/program files (x86)/cypress/psoc creator/4.1/psoc creator/import/gnu/arm/5.4.1/bin/../lib/gcc/arm-none-eabi/5.4.1/armv6-m\libgcc.a(muldf3.o)
                0x00014968                . = ALIGN (0x4)
 *(.init)
 .init          0x00014968        0x4 c:/program files (x86)/cypress/psoc creator/4.1/psoc creator/import/gnu/arm/5.4.1/bin/../lib/gcc/arm-none-eabi/5.4.1/armv6-m/crti.o
                0x00014968                _init
 .init          0x0001496c        0x8 c:/program files (x86)/cypress/psoc creator/4.1/psoc creator/import/gnu/arm/5.4.1/bin/../lib/gcc/arm-none-eabi/5.4.1/armv6-m/crtn.o
                0x00014974                . = ALIGN (0x4)
                0x00014974                __preinit_array_start = .
 *(.preinit_array)
                0x00014974                __preinit_array_end = .
                0x00014974                . = ALIGN (0x4)
                0x00014974                __init_array_start = .
 *(SORT(.init_array.*))
 .init_array.00000
                0x00014974        0x4 c:/program files (x86)/cypress/psoc creator/4.1/psoc creator/import/gnu/arm/5.4.1/bin/../lib/gcc/arm-none-eabi/5.4.1/../../../../arm-none-eabi/lib/armv6-m\libg.a(lib_a-__call_atexit.o)
 *(.init_array)
 .init_array    0x00014978        0x4 c:/program files (x86)/cypress/psoc creator/4.1/psoc creator/import/gnu/arm/5.4.1/bin/../lib/gcc/arm-none-eabi/5.4.1/armv6-m/crtbegin.o
 .init_array    0x0001497c        0x4 .\CortexM0\ARM_GCC_541\Debug\Cm0Start.o
                0x00014980                __init_array_end = .
                0x00014980                . = ALIGN (0x4)
 *(.fini)
 .fini          0x00014980        0x4 c:/program files (x86)/cypress/psoc creator/4.1/psoc creator/import/gnu/arm/5.4.1/bin/../lib/gcc/arm-none-eabi/5.4.1/armv6-m/crti.o
                0x00014980                _fini
 .fini          0x00014984        0x8 c:/program files (x86)/cypress/psoc creator/4.1/psoc creator/import/gnu/arm/5.4.1/bin/../lib/gcc/arm-none-eabi/5.4.1/armv6-m/crtn.o
                0x0001498c                . = ALIGN (0x4)
                0x0001498c                __fini_array_start = .
 *(.fini_array)
 .fini_array    0x0001498c        0x4 c:/program files (x86)/cypress/psoc creator/4.1/psoc creator/import/gnu/arm/5.4.1/bin/../lib/gcc/arm-none-eabi/5.4.1/armv6-m/crtbegin.o
 *(SORT(.fini_array.*))
                0x00014990                __fini_array_end = .
                0x00014990                . = ALIGN (0x4)
 *crtbegin.o(.ctors)
 *(EXCLUDE_FILE(*crtend.o) .ctors)
 *(SORT(.ctors.*))
 *crtend.o(.ctors)
                0x00014990                . = ALIGN (0x4)
 *crtbegin.o(.dtors)
 *(EXCLUDE_FILE(*crtend.o) .dtors)
 *(SORT(.dtors.*))
 *crtend.o(.dtors)
                0x00014990                . = ALIGN (0x4)
                0x00014990                __cy_regions = .
                0x00014990        0x4 LONG 0x149a0 __cy_region_init_ram
                0x00014994        0x4 LONG 0x200000c8 __cy_region_start_data
                0x00014998        0x4 LONG 0x8e0 __cy_region_init_size_ram
                0x0001499c        0x4 LONG 0x9e0 __cy_region_zero_size_ram
                0x000149a0                __cy_regions_end = .
                0x000149a0                . = ALIGN (0x8)
                0x000149a0                _etext = .

.cy_checksum_exclude
                0x000149a0        0x0
 *(.cy_checksum_exclude)

.ramvectors     0x20000000       0xc0
                0x20000000                __cy_region_start_ram = .
 *(.ramvectors)
 .ramvectors    0x20000000       0xc0 .\CortexM0\ARM_GCC_541\Debug\Cm0Start.o
                0x20000000                CyRamVectors

.noinit         0x200000c0        0x4
 *(.noinit)
 .noinit        0x200000c0        0x4 .\CortexM0\ARM_GCC_541\Debug\Cm0Start.o

.data           0x200000c8      0x8e0 load address 0x000149a0
                0x200000c8                __cy_region_start_data = .
 *(.jcr)
 .jcr           0x200000c8        0x0 c:/program files (x86)/cypress/psoc creator/4.1/psoc creator/import/gnu/arm/5.4.1/bin/../lib/gcc/arm-none-eabi/5.4.1/armv6-m/crtbegin.o
 .jcr           0x200000c8        0x4 c:/program files (x86)/cypress/psoc creator/4.1/psoc creator/import/gnu/arm/5.4.1/bin/../lib/gcc/arm-none-eabi/5.4.1/armv6-m/crtend.o
 *(.got.plt)
 *(.got)
 *(.shdata)
 *(.data .data.* .gnu.linkonce.d.*)
 .data          0x200000cc        0x0 c:/program files (x86)/cypress/psoc creator/4.1/psoc creator/import/gnu/arm/5.4.1/bin/../lib/gcc/arm-none-eabi/5.4.1/armv6-m/crti.o
 .data          0x200000cc        0x4 c:/program files (x86)/cypress/psoc creator/4.1/psoc creator/import/gnu/arm/5.4.1/bin/../lib/gcc/arm-none-eabi/5.4.1/armv6-m/crtbegin.o
                0x200000cc                __dso_handle
 .data          0x200000d0        0x0 c:/program files (x86)/cypress/psoc creator/4.1/psoc creator/import/gnu/arm/5.4.1/bin/../lib/gcc/arm-none-eabi/5.4.1/../../../../arm-none-eabi/lib/armv6-m/crt0.o
 .data          0x200000d0        0x0 .\CortexM0\ARM_GCC_541\Debug\RTC_WDT.o
 .data          0x200000d0        0x0 .\CortexM0\ARM_GCC_541\Debug\display.o
 .data          0x200000d0        0x0 .\CortexM0\ARM_GCC_541\Debug\DefaultFonts.o
 .data          0x200000d0        0x0 .\CortexM0\ARM_GCC_541\Debug\Graphics.o
 .data          0x200000d0        0x0 .\CortexM0\ARM_GCC_541\Debug\LCD5110_Graph.o
 .data          0x200000d0        0x0 .\CortexM0\ARM_GCC_541\Debug\gate.o
 .data          0x200000d0        0x0 .\CortexM0\ARM_GCC_541\Debug\LED.o
 .data          0x200000d0        0x0 .\CortexM0\ARM_GCC_541\Debug\crc32.o
 .data          0x200000d0        0x0 .\CortexM0\ARM_GCC_541\Debug\svt.o
 .data          0x200000d0        0x0 .\CortexM0\ARM_GCC_541\Debug\ntp.o
 .data          0x200000d0        0x0 .\CortexM0\ARM_GCC_541\Debug\network.o
 .data          0x200000d0        0x0 .\CortexM0\ARM_GCC_541\Debug\batt.o
 .data          0x200000d0        0x2 .\CortexM0\ARM_GCC_541\Debug\testMode.o
                0x200000d0                switchState
                0x200000d1                networkState
 .data          0x200000d2        0x0 .\CortexM0\ARM_GCC_541\Debug\taskAutomat.o
 .data          0x200000d2        0x1 .\CortexM0\ARM_GCC_541\Debug\IDskier.o
                0x200000d2                stepScroll
 .data          0x200000d3        0x0 .\CortexM0\ARM_GCC_541\Debug\main.o
 .data          0x200000d3        0x0 .\CortexM0\ARM_GCC_541\Debug\cyfitter_cfg.o
 .data          0x200000d3        0x0 .\CortexM0\ARM_GCC_541\Debug\cymetadata.o
 *fill*         0x200000d3        0x1 
 .data          0x200000d4        0x4 .\CortexM0\ARM_GCC_541\Debug\Cm0Start.o
 .data          0x200000d8       0x10 .\CortexM0\ARM_GCC_541\Debug\start_v11.a(CyLib.o)
                0x200000d8                cydelayFreqHz
                0x200000dc                cydelayFreqKhz
                0x200000e0                cydelayFreqMhz
                0x200000e4                cydelay32kMs
 .data          0x200000e8        0x8 .\CortexM0\ARM_GCC_541\Debug\start_v11.a(CyLFClk.o)
 .data          0x200000f0        0x0 .\CortexM0\ARM_GCC_541\Debug\start_v11.a(RTC.o)
 .data          0x200000f0        0x0 .\CortexM0\ARM_GCC_541\Debug\start_v11.a(GatePin.o)
 .data          0x200000f0        0x0 .\CortexM0\ARM_GCC_541\Debug\start_v11.a(Timer_LED.o)
 .data          0x200000f0        0x0 .\CortexM0\ARM_GCC_541\Debug\start_v11.a(Int_Timer_Led.o)
 .data          0x200000f0        0x0 .\CortexM0\ARM_GCC_541\Debug\start_v11.a(UART_XB.o)
 .data          0x200000f0        0x0 .\CortexM0\ARM_GCC_541\Debug\start_v11.a(UART_XB_SPI_UART.o)
 .data          0x200000f0        0x0 .\CortexM0\ARM_GCC_541\Debug\start_v11.a(UART_XB_UART.o)
 .data          0x200000f0        0x0 .\CortexM0\ARM_GCC_541\Debug\start_v11.a(SwSPI_Master.o)
 .data          0x200000f0        0x0 .\CortexM0\ARM_GCC_541\Debug\start_v11.a(GATE_INT.o)
 .data          0x200000f0        0x0 .\CortexM0\ARM_GCC_541\Debug\start_v11.a(debug.o)
 .data          0x200000f0        0x0 .\CortexM0\ARM_GCC_541\Debug\start_v11.a(ADC.o)
 .data          0x200000f0        0x0 .\CortexM0\ARM_GCC_541\Debug\start_v11.a(ADC_INT.o)
 .data          0x200000f0        0x0 .\CortexM0\ARM_GCC_541\Debug\start_v11.a(CE.o)
 .data          0x200000f0        0x0 .\CortexM0\ARM_GCC_541\Debug\start_v11.a(RST.o)
 .data          0x200000f0        0x0 .\CortexM0\ARM_GCC_541\Debug\start_v11.a(DC.o)
 .data          0x200000f0        0x0 .\CortexM0\ARM_GCC_541\Debug\start_v11.a(LCD_BL.o)
 .data          0x200000f0        0x0 .\CortexM0\ARM_GCC_541\Debug\start_v11.a(TimerTestMode.o)
 .data          0x200000f0        0x0 .\CortexM0\ARM_GCC_541\Debug\start_v11.a(Int_timerTestMode.o)
 .data          0x200000f0        0x0 .\CortexM0\ARM_GCC_541\Debug\start_v11.a(Pin_testMode.o)
 .data          0x200000f0        0x0 .\CortexM0\ARM_GCC_541\Debug\start_v11.a(SW_RunTestMode.o)
 .data          0x200000f0        0x0 .\CortexM0\ARM_GCC_541\Debug\start_v11.a(LED_RED_PIN.o)
 .data          0x200000f0        0x0 .\CortexM0\ARM_GCC_541\Debug\start_v11.a(LED_GREEN_PIN.o)
 .data          0x200000f0        0x0 .\CortexM0\ARM_GCC_541\Debug\start_v11.a(Timer.o)
 .data          0x200000f0        0x0 .\CortexM0\ARM_GCC_541\Debug\start_v11.a(isr_timer.o)
 .data          0x200000f0        0x0 .\CortexM0\ARM_GCC_541\Debug\start_v11.a(BtnUp.o)
 .data          0x200000f0        0x0 .\CortexM0\ARM_GCC_541\Debug\start_v11.a(BtnDown.o)
 .data          0x200000f0        0x0 .\CortexM0\ARM_GCC_541\Debug\start_v11.a(BUTT_DOWN_INT.o)
 .data          0x200000f0        0x0 .\CortexM0\ARM_GCC_541\Debug\start_v11.a(BUTT_UP_INT.o)
 .data          0x200000f0        0x0 .\CortexM0\ARM_GCC_541\Debug\start_v11.a(CyBootAsmGnu.o)
 .data          0x200000f0        0x0 .\CortexM0\ARM_GCC_541\Debug\start_v11.a(UART_XB_SPI_UART_INT.o)
 .data          0x200000f0        0x0 c:/program files (x86)/cypress/psoc creator/4.1/psoc creator/import/gnu/arm/5.4.1/bin/../lib/gcc/arm-none-eabi/5.4.1/armv6-m\libgcc.a(_udivsi3.o)
 .data          0x200000f0        0x0 c:/program files (x86)/cypress/psoc creator/4.1/psoc creator/import/gnu/arm/5.4.1/bin/../lib/gcc/arm-none-eabi/5.4.1/armv6-m\libgcc.a(_divsi3.o)
 .data          0x200000f0        0x0 c:/program files (x86)/cypress/psoc creator/4.1/psoc creator/import/gnu/arm/5.4.1/bin/../lib/gcc/arm-none-eabi/5.4.1/armv6-m\libgcc.a(_dvmd_tls.o)
 .data          0x200000f0        0x0 c:/program files (x86)/cypress/psoc creator/4.1/psoc creator/import/gnu/arm/5.4.1/bin/../lib/gcc/arm-none-eabi/5.4.1/armv6-m\libgcc.a(_arm_cmpdf2.o)
 .data          0x200000f0        0x0 c:/program files (x86)/cypress/psoc creator/4.1/psoc creator/import/gnu/arm/5.4.1/bin/../lib/gcc/arm-none-eabi/5.4.1/armv6-m\libgcc.a(_arm_cmpsf2.o)
 .data          0x200000f0        0x0 c:/program files (x86)/cypress/psoc creator/4.1/psoc creator/import/gnu/arm/5.4.1/bin/../lib/gcc/arm-none-eabi/5.4.1/armv6-m\libgcc.a(_aeabi_ldivmod.o)
 .data          0x200000f0        0x0 c:/program files (x86)/cypress/psoc creator/4.1/psoc creator/import/gnu/arm/5.4.1/bin/../lib/gcc/arm-none-eabi/5.4.1/armv6-m\libgcc.a(_aeabi_uldivmod.o)
 .data          0x200000f0        0x0 c:/program files (x86)/cypress/psoc creator/4.1/psoc creator/import/gnu/arm/5.4.1/bin/../lib/gcc/arm-none-eabi/5.4.1/armv6-m\libgcc.a(_muldi3.o)
 .data          0x200000f0        0x0 c:/program files (x86)/cypress/psoc creator/4.1/psoc creator/import/gnu/arm/5.4.1/bin/../lib/gcc/arm-none-eabi/5.4.1/armv6-m\libgcc.a(_udivmoddi4.o)
 .data          0x200000f0        0x0 c:/program files (x86)/cypress/psoc creator/4.1/psoc creator/import/gnu/arm/5.4.1/bin/../lib/gcc/arm-none-eabi/5.4.1/armv6-m\libgcc.a(bpabi.o)
 .data          0x200000f0        0x0 c:/program files (x86)/cypress/psoc creator/4.1/psoc creator/import/gnu/arm/5.4.1/bin/../lib/gcc/arm-none-eabi/5.4.1/armv6-m\libgcc.a(divsf3.o)
 .data          0x200000f0        0x0 c:/program files (x86)/cypress/psoc creator/4.1/psoc creator/import/gnu/arm/5.4.1/bin/../lib/gcc/arm-none-eabi/5.4.1/armv6-m\libgcc.a(eqsf2.o)
 .data          0x200000f0        0x0 c:/program files (x86)/cypress/psoc creator/4.1/psoc creator/import/gnu/arm/5.4.1/bin/../lib/gcc/arm-none-eabi/5.4.1/armv6-m\libgcc.a(gesf2.o)
 .data          0x200000f0        0x0 c:/program files (x86)/cypress/psoc creator/4.1/psoc creator/import/gnu/arm/5.4.1/bin/../lib/gcc/arm-none-eabi/5.4.1/armv6-m\libgcc.a(lesf2.o)
 .data          0x200000f0        0x0 c:/program files (x86)/cypress/psoc creator/4.1/psoc creator/import/gnu/arm/5.4.1/bin/../lib/gcc/arm-none-eabi/5.4.1/armv6-m\libgcc.a(mulsf3.o)
 .data          0x200000f0        0x0 c:/program files (x86)/cypress/psoc creator/4.1/psoc creator/import/gnu/arm/5.4.1/bin/../lib/gcc/arm-none-eabi/5.4.1/armv6-m\libgcc.a(floatsisf.o)
 .data          0x200000f0        0x0 c:/program files (x86)/cypress/psoc creator/4.1/psoc creator/import/gnu/arm/5.4.1/bin/../lib/gcc/arm-none-eabi/5.4.1/armv6-m\libgcc.a(adddf3.o)
 .data          0x200000f0        0x0 c:/program files (x86)/cypress/psoc creator/4.1/psoc creator/import/gnu/arm/5.4.1/bin/../lib/gcc/arm-none-eabi/5.4.1/armv6-m\libgcc.a(divdf3.o)
 .data          0x200000f0        0x0 c:/program files (x86)/cypress/psoc creator/4.1/psoc creator/import/gnu/arm/5.4.1/bin/../lib/gcc/arm-none-eabi/5.4.1/armv6-m\libgcc.a(eqdf2.o)
 .data          0x200000f0        0x0 c:/program files (x86)/cypress/psoc creator/4.1/psoc creator/import/gnu/arm/5.4.1/bin/../lib/gcc/arm-none-eabi/5.4.1/armv6-m\libgcc.a(gedf2.o)
 .data          0x200000f0        0x0 c:/program files (x86)/cypress/psoc creator/4.1/psoc creator/import/gnu/arm/5.4.1/bin/../lib/gcc/arm-none-eabi/5.4.1/armv6-m\libgcc.a(ledf2.o)
 .data          0x200000f0        0x0 c:/program files (x86)/cypress/psoc creator/4.1/psoc creator/import/gnu/arm/5.4.1/bin/../lib/gcc/arm-none-eabi/5.4.1/armv6-m\libgcc.a(subdf3.o)
 .data          0x200000f0        0x0 c:/program files (x86)/cypress/psoc creator/4.1/psoc creator/import/gnu/arm/5.4.1/bin/../lib/gcc/arm-none-eabi/5.4.1/armv6-m\libgcc.a(fixdfsi.o)
 .data          0x200000f0        0x0 c:/program files (x86)/cypress/psoc creator/4.1/psoc creator/import/gnu/arm/5.4.1/bin/../lib/gcc/arm-none-eabi/5.4.1/armv6-m\libgcc.a(floatsidf.o)
 .data          0x200000f0        0x0 c:/program files (x86)/cypress/psoc creator/4.1/psoc creator/import/gnu/arm/5.4.1/bin/../lib/gcc/arm-none-eabi/5.4.1/armv6-m\libgcc.a(extendsfdf2.o)
 .data          0x200000f0        0x0 c:/program files (x86)/cypress/psoc creator/4.1/psoc creator/import/gnu/arm/5.4.1/bin/../lib/gcc/arm-none-eabi/5.4.1/armv6-m\libgcc.a(_clzsi2.o)
 .data          0x200000f0        0x0 c:/program files (x86)/cypress/psoc creator/4.1/psoc creator/import/gnu/arm/5.4.1/bin/../lib/gcc/arm-none-eabi/5.4.1/armv6-m\libgcc.a(_clzdi2.o)
 .data          0x200000f0        0x0 c:/program files (x86)/cypress/psoc creator/4.1/psoc creator/import/gnu/arm/5.4.1/bin/../lib/gcc/arm-none-eabi/5.4.1/armv6-m\libgcc.a(_divdi3.o)
 .data          0x200000f0        0x0 c:/program files (x86)/cypress/psoc creator/4.1/psoc creator/import/gnu/arm/5.4.1/bin/../lib/gcc/arm-none-eabi/5.4.1/../../../../arm-none-eabi/lib/armv6-m\libg.a(lib_a-errno.o)
 .data          0x200000f0        0x0 c:/program files (x86)/cypress/psoc creator/4.1/psoc creator/import/gnu/arm/5.4.1/bin/../lib/gcc/arm-none-eabi/5.4.1/../../../../arm-none-eabi/lib/armv6-m\libg.a(lib_a-exit.o)
 .data          0x200000f0        0x0 c:/program files (x86)/cypress/psoc creator/4.1/psoc creator/import/gnu/arm/5.4.1/bin/../lib/gcc/arm-none-eabi/5.4.1/../../../../arm-none-eabi/lib/armv6-m\libg.a(lib_a-impure.o)
 .data.impure_data
                0x200000f0      0x428 c:/program files (x86)/cypress/psoc creator/4.1/psoc creator/import/gnu/arm/5.4.1/bin/../lib/gcc/arm-none-eabi/5.4.1/../../../../arm-none-eabi/lib/armv6-m\libg.a(lib_a-impure.o)
 .data._impure_ptr
                0x20000518        0x4 c:/program files (x86)/cypress/psoc creator/4.1/psoc creator/import/gnu/arm/5.4.1/bin/../lib/gcc/arm-none-eabi/5.4.1/../../../../arm-none-eabi/lib/armv6-m\libg.a(lib_a-impure.o)
                0x20000518                _impure_ptr
 .data          0x2000051c        0x0 c:/program files (x86)/cypress/psoc creator/4.1/psoc creator/import/gnu/arm/5.4.1/bin/../lib/gcc/arm-none-eabi/5.4.1/../../../../arm-none-eabi/lib/armv6-m\libg.a(lib_a-init.o)
 .data          0x2000051c        0x0 c:/program files (x86)/cypress/psoc creator/4.1/psoc creator/import/gnu/arm/5.4.1/bin/../lib/gcc/arm-none-eabi/5.4.1/../../../../arm-none-eabi/lib/armv6-m\libg.a(lib_a-memcpy-stub.o)
 .data          0x2000051c        0x0 c:/program files (x86)/cypress/psoc creator/4.1/psoc creator/import/gnu/arm/5.4.1/bin/../lib/gcc/arm-none-eabi/5.4.1/../../../../arm-none-eabi/lib/armv6-m\libg.a(lib_a-memset.o)
 .data          0x2000051c        0x0 c:/program files (x86)/cypress/psoc creator/4.1/psoc creator/import/gnu/arm/5.4.1/bin/../lib/gcc/arm-none-eabi/5.4.1/../../../../arm-none-eabi/lib/armv6-m\libg.a(lib_a-rand.o)
 .data          0x2000051c        0x0 c:/program files (x86)/cypress/psoc creator/4.1/psoc creator/import/gnu/arm/5.4.1/bin/../lib/gcc/arm-none-eabi/5.4.1/../../../../arm-none-eabi/lib/armv6-m\libg.a(lib_a-sprintf.o)
 .data          0x2000051c        0x0 c:/program files (x86)/cypress/psoc creator/4.1/psoc creator/import/gnu/arm/5.4.1/bin/../lib/gcc/arm-none-eabi/5.4.1/../../../../arm-none-eabi/lib/armv6-m\libg.a(lib_a-strcat.o)
 .data          0x2000051c        0x0 c:/program files (x86)/cypress/psoc creator/4.1/psoc creator/import/gnu/arm/5.4.1/bin/../lib/gcc/arm-none-eabi/5.4.1/../../../../arm-none-eabi/lib/armv6-m\libg.a(lib_a-strcpy.o)
 .data          0x2000051c        0x0 c:/program files (x86)/cypress/psoc creator/4.1/psoc creator/import/gnu/arm/5.4.1/bin/../lib/gcc/arm-none-eabi/5.4.1/../../../../arm-none-eabi/lib/armv6-m\libg.a(lib_a-strlen-stub.o)
 .data          0x2000051c        0x0 c:/program files (x86)/cypress/psoc creator/4.1/psoc creator/import/gnu/arm/5.4.1/bin/../lib/gcc/arm-none-eabi/5.4.1/../../../../arm-none-eabi/lib/armv6-m\libg.a(lib_a-strncat.o)
 .data          0x2000051c        0x0 c:/program files (x86)/cypress/psoc creator/4.1/psoc creator/import/gnu/arm/5.4.1/bin/../lib/gcc/arm-none-eabi/5.4.1/../../../../arm-none-eabi/lib/armv6-m\libg.a(lib_a-strncpy.o)
 .data          0x2000051c        0x0 c:/program files (x86)/cypress/psoc creator/4.1/psoc creator/import/gnu/arm/5.4.1/bin/../lib/gcc/arm-none-eabi/5.4.1/../../../../arm-none-eabi/lib/armv6-m\libg.a(lib_a-svfprintf.o)
 .data          0x2000051c        0x0 c:/program files (x86)/cypress/psoc creator/4.1/psoc creator/import/gnu/arm/5.4.1/bin/../lib/gcc/arm-none-eabi/5.4.1/../../../../arm-none-eabi/lib/armv6-m\libg.a(lib_a-__call_atexit.o)
 .data          0x2000051c        0x0 c:/program files (x86)/cypress/psoc creator/4.1/psoc creator/import/gnu/arm/5.4.1/bin/../lib/gcc/arm-none-eabi/5.4.1/../../../../arm-none-eabi/lib/armv6-m\libg.a(lib_a-atexit.o)
 .data          0x2000051c        0x0 c:/program files (x86)/cypress/psoc creator/4.1/psoc creator/import/gnu/arm/5.4.1/bin/../lib/gcc/arm-none-eabi/5.4.1/../../../../arm-none-eabi/lib/armv6-m\libg.a(lib_a-dtoa.o)
 .data          0x2000051c        0x0 c:/program files (x86)/cypress/psoc creator/4.1/psoc creator/import/gnu/arm/5.4.1/bin/../lib/gcc/arm-none-eabi/5.4.1/../../../../arm-none-eabi/lib/armv6-m\libg.a(lib_a-fini.o)
 .data          0x2000051c        0x0 c:/program files (x86)/cypress/psoc creator/4.1/psoc creator/import/gnu/arm/5.4.1/bin/../lib/gcc/arm-none-eabi/5.4.1/../../../../arm-none-eabi/lib/armv6-m\libg.a(lib_a-locale.o)
 .data.lc_message_charset
                0x2000051c       0x20 c:/program files (x86)/cypress/psoc creator/4.1/psoc creator/import/gnu/arm/5.4.1/bin/../lib/gcc/arm-none-eabi/5.4.1/../../../../arm-none-eabi/lib/armv6-m\libg.a(lib_a-locale.o)
 .data.lconv    0x2000053c       0x38 c:/program files (x86)/cypress/psoc creator/4.1/psoc creator/import/gnu/arm/5.4.1/bin/../lib/gcc/arm-none-eabi/5.4.1/../../../../arm-none-eabi/lib/armv6-m\libg.a(lib_a-locale.o)
 .data.lc_ctype_charset
                0x20000574       0x20 c:/program files (x86)/cypress/psoc creator/4.1/psoc creator/import/gnu/arm/5.4.1/bin/../lib/gcc/arm-none-eabi/5.4.1/../../../../arm-none-eabi/lib/armv6-m\libg.a(lib_a-locale.o)
 .data.__mb_cur_max
                0x20000594        0x4 c:/program files (x86)/cypress/psoc creator/4.1/psoc creator/import/gnu/arm/5.4.1/bin/../lib/gcc/arm-none-eabi/5.4.1/../../../../arm-none-eabi/lib/armv6-m\libg.a(lib_a-locale.o)
                0x20000594                __mb_cur_max
 .data          0x20000598        0x0 c:/program files (x86)/cypress/psoc creator/4.1/psoc creator/import/gnu/arm/5.4.1/bin/../lib/gcc/arm-none-eabi/5.4.1/../../../../arm-none-eabi/lib/armv6-m\libg.a(lib_a-mallocr.o)
 .data.__malloc_av_
                0x20000598      0x408 c:/program files (x86)/cypress/psoc creator/4.1/psoc creator/import/gnu/arm/5.4.1/bin/../lib/gcc/arm-none-eabi/5.4.1/../../../../arm-none-eabi/lib/armv6-m\libg.a(lib_a-mallocr.o)
                0x20000598                __malloc_av_
 .data.__malloc_trim_threshold
                0x200009a0        0x4 c:/program files (x86)/cypress/psoc creator/4.1/psoc creator/import/gnu/arm/5.4.1/bin/../lib/gcc/arm-none-eabi/5.4.1/../../../../arm-none-eabi/lib/armv6-m\libg.a(lib_a-mallocr.o)
                0x200009a0                __malloc_trim_threshold
 .data.__malloc_sbrk_base
                0x200009a4        0x4 c:/program files (x86)/cypress/psoc creator/4.1/psoc creator/import/gnu/arm/5.4.1/bin/../lib/gcc/arm-none-eabi/5.4.1/../../../../arm-none-eabi/lib/armv6-m\libg.a(lib_a-mallocr.o)
                0x200009a4                __malloc_sbrk_base
 .data          0x200009a8        0x0 c:/program files (x86)/cypress/psoc creator/4.1/psoc creator/import/gnu/arm/5.4.1/bin/../lib/gcc/arm-none-eabi/5.4.1/../../../../arm-none-eabi/lib/armv6-m\libg.a(lib_a-memchr-stub.o)
 .data          0x200009a8        0x0 c:/program files (x86)/cypress/psoc creator/4.1/psoc creator/import/gnu/arm/5.4.1/bin/../lib/gcc/arm-none-eabi/5.4.1/../../../../arm-none-eabi/lib/armv6-m\libg.a(lib_a-mlock.o)
 .data          0x200009a8        0x0 c:/program files (x86)/cypress/psoc creator/4.1/psoc creator/import/gnu/arm/5.4.1/bin/../lib/gcc/arm-none-eabi/5.4.1/../../../../arm-none-eabi/lib/armv6-m\libg.a(lib_a-mprec.o)
 .data          0x200009a8        0x0 c:/program files (x86)/cypress/psoc creator/4.1/psoc creator/import/gnu/arm/5.4.1/bin/../lib/gcc/arm-none-eabi/5.4.1/../../../../arm-none-eabi/lib/armv6-m\libg.a(lib_a-sbrkr.o)
 .data          0x200009a8        0x0 c:/program files (x86)/cypress/psoc creator/4.1/psoc creator/import/gnu/arm/5.4.1/bin/../lib/gcc/arm-none-eabi/5.4.1/../../../../arm-none-eabi/lib/armv6-m\libg.a(lib_a-strcmp.o)
 .data          0x200009a8        0x0 c:/program files (x86)/cypress/psoc creator/4.1/psoc creator/import/gnu/arm/5.4.1/bin/../lib/gcc/arm-none-eabi/5.4.1/../../../../arm-none-eabi/lib/armv6-m\libg.a(lib_a-svfiprintf.o)
 .data          0x200009a8        0x0 c:/program files (x86)/cypress/psoc creator/4.1/psoc creator/import/gnu/arm/5.4.1/bin/../lib/gcc/arm-none-eabi/5.4.1/../../../../arm-none-eabi/lib/armv6-m\libg.a(lib_a-__atexit.o)
 .data          0x200009a8        0x0 c:/program files (x86)/cypress/psoc creator/4.1/psoc creator/import/gnu/arm/5.4.1/bin/../lib/gcc/arm-none-eabi/5.4.1/../../../../arm-none-eabi/lib/armv6-m\libg.a(lib_a-callocr.o)
 .data          0x200009a8        0x0 c:/program files (x86)/cypress/psoc creator/4.1/psoc creator/import/gnu/arm/5.4.1/bin/../lib/gcc/arm-none-eabi/5.4.1/../../../../arm-none-eabi/lib/armv6-m\libg.a(lib_a-freer.o)
 .data          0x200009a8        0x0 c:/program files (x86)/cypress/psoc creator/4.1/psoc creator/import/gnu/arm/5.4.1/bin/../lib/gcc/arm-none-eabi/5.4.1/../../../../arm-none-eabi/lib/armv6-m\libg.a(lib_a-memmove.o)
 .data          0x200009a8        0x0 c:/program files (x86)/cypress/psoc creator/4.1/psoc creator/import/gnu/arm/5.4.1/bin/../lib/gcc/arm-none-eabi/5.4.1/../../../../arm-none-eabi/lib/armv6-m\libg.a(lib_a-reallocr.o)
 .data          0x200009a8        0x0 c:/program files (x86)/cypress/psoc creator/4.1/psoc creator/import/gnu/arm/5.4.1/bin/../lib/gcc/arm-none-eabi/5.4.1/../../../../arm-none-eabi/lib/armv6-m\libg.a(lib_a-reent.o)
 .data          0x200009a8        0x0 c:/program files (x86)/cypress/psoc creator/4.1/psoc creator/import/gnu/arm/5.4.1/bin/../lib/gcc/arm-none-eabi/5.4.1/armv6-m\libgcc.a(muldf3.o)
 .data          0x200009a8        0x0 c:/program files (x86)/cypress/psoc creator/4.1/psoc creator/import/gnu/arm/5.4.1/bin/../lib/gcc/arm-none-eabi/5.4.1/armv6-m\libgcc.a(unorddf2.o)
 .data          0x200009a8        0x0 c:/program files (x86)/cypress/psoc creator/4.1/psoc creator/import/gnu/arm/5.4.1/bin/../lib/gcc/arm-none-eabi/5.4.1/armv6-m\libgcc.a(floatunsidf.o)
 .data          0x200009a8        0x0 c:/program files (x86)/cypress/psoc creator/4.1/psoc creator/import/gnu/arm/5.4.1/bin/../lib/gcc/arm-none-eabi/5.4.1/armv6-m/crtend.o
 .data          0x200009a8        0x0 c:/program files (x86)/cypress/psoc creator/4.1/psoc creator/import/gnu/arm/5.4.1/bin/../lib/gcc/arm-none-eabi/5.4.1/armv6-m/crtn.o
                0x200009a8                . = ALIGN (0x8)
 *(.ram)
                0x200009a8                _edata = .

.igot.plt       0x200009a8        0x0 load address 0x00015280
 .igot.plt      0x200009a8        0x0 c:/program files (x86)/cypress/psoc creator/4.1/psoc creator/import/gnu/arm/5.4.1/bin/../lib/gcc/arm-none-eabi/5.4.1/armv6-m/crtbegin.o

.bss            0x200009a8      0x9e0 load address 0x00015280
                0x200009a8                PROVIDE (__bss_start__, .)
 *(.shbss)
 *(.bss .bss.* .gnu.linkonce.b.*)
 .bss           0x200009a8        0x0 c:/program files (x86)/cypress/psoc creator/4.1/psoc creator/import/gnu/arm/5.4.1/bin/../lib/gcc/arm-none-eabi/5.4.1/armv6-m/crti.o
 .bss           0x200009a8       0x1c c:/program files (x86)/cypress/psoc creator/4.1/psoc creator/import/gnu/arm/5.4.1/bin/../lib/gcc/arm-none-eabi/5.4.1/armv6-m/crtbegin.o
 .bss           0x200009c4        0x0 c:/program files (x86)/cypress/psoc creator/4.1/psoc creator/import/gnu/arm/5.4.1/bin/../lib/gcc/arm-none-eabi/5.4.1/../../../../arm-none-eabi/lib/armv6-m/crt0.o
 *fill*         0x200009c4        0x4 
 .bss           0x200009c8       0x12 .\CortexM0\ARM_GCC_541\Debug\RTC_WDT.o
 *fill*         0x200009da        0x2 
 .bss           0x200009dc       0x64 .\CortexM0\ARM_GCC_541\Debug\display.o
 .bss           0x20000a40        0x0 .\CortexM0\ARM_GCC_541\Debug\DefaultFonts.o
 .bss           0x20000a40        0x4 .\CortexM0\ARM_GCC_541\Debug\Graphics.o
 .bss           0x20000a44        0x0 .\CortexM0\ARM_GCC_541\Debug\LCD5110_Graph.o
 *fill*         0x20000a44        0x4 
 .bss           0x20000a48       0x18 .\CortexM0\ARM_GCC_541\Debug\gate.o
 .bss           0x20000a60        0x4 .\CortexM0\ARM_GCC_541\Debug\LED.o
 .bss           0x20000a64      0x404 .\CortexM0\ARM_GCC_541\Debug\crc32.o
 .bss           0x20000e68        0x0 .\CortexM0\ARM_GCC_541\Debug\svt.o
 .bss           0x20000e68        0x1 .\CortexM0\ARM_GCC_541\Debug\ntp.o
                0x20000e68                NTP_STATE
 *fill*         0x20000e69        0x3 
 .bss           0x20000e6c       0x14 .\CortexM0\ARM_GCC_541\Debug\network.o
                0x20000e7d                onNtpSync
                0x20000e7e                flagStartSendPacket
                0x20000e7f                flagFinSendPacket
 .bss           0x20000e80        0x0 .\CortexM0\ARM_GCC_541\Debug\batt.o
 .bss           0x20000e80        0x8 .\CortexM0\ARM_GCC_541\Debug\testMode.o
                0x20000e84                statusTestMode
 .bss           0x20000e88       0x1c .\CortexM0\ARM_GCC_541\Debug\taskAutomat.o
 .bss           0x20000ea4        0x4 .\CortexM0\ARM_GCC_541\Debug\IDskier.o
                0x20000ea4                idNumSkier
                0x20000ea5                btnUpClick
                0x20000ea6                btnDownClick
                0x20000ea7                scroll
 .bss           0x20000ea8        0x4 .\CortexM0\ARM_GCC_541\Debug\main.o
 .bss           0x20000eac        0x0 .\CortexM0\ARM_GCC_541\Debug\cyfitter_cfg.o
 .bss           0x20000eac        0x0 .\CortexM0\ARM_GCC_541\Debug\cymetadata.o
 .bss           0x20000eac        0x0 .\CortexM0\ARM_GCC_541\Debug\Cm0Start.o
 .bss           0x20000eac       0x18 .\CortexM0\ARM_GCC_541\Debug\start_v11.a(CyLib.o)
                0x20000ec0                CySysTickInitVar
 .bss           0x20000ec4       0x28 .\CortexM0\ARM_GCC_541\Debug\start_v11.a(CyLFClk.o)
 .bss           0x20000eec       0x10 .\CortexM0\ARM_GCC_541\Debug\start_v11.a(RTC.o)
 .bss           0x20000efc        0x0 .\CortexM0\ARM_GCC_541\Debug\start_v11.a(GatePin.o)
 .bss           0x20000efc        0x1 .\CortexM0\ARM_GCC_541\Debug\start_v11.a(Timer_LED.o)
                0x20000efc                Timer_LED_initVar
 .bss           0x20000efd        0x0 .\CortexM0\ARM_GCC_541\Debug\start_v11.a(Int_Timer_Led.o)
 *fill*         0x20000efd        0x3 
 .bss           0x20000f00        0x8 .\CortexM0\ARM_GCC_541\Debug\start_v11.a(UART_XB.o)
                0x20000f00                UART_XB_initVar
                0x20000f02                UART_XB_IntrTxMask
                0x20000f04                UART_XB_customIntrHandler
 .bss           0x20000f08        0x0 .\CortexM0\ARM_GCC_541\Debug\start_v11.a(UART_XB_SPI_UART.o)
 .bss           0x20000f08        0x0 .\CortexM0\ARM_GCC_541\Debug\start_v11.a(UART_XB_UART.o)
 .bss           0x20000f08        0x0 .\CortexM0\ARM_GCC_541\Debug\start_v11.a(SwSPI_Master.o)
 .bss           0x20000f08        0x0 .\CortexM0\ARM_GCC_541\Debug\start_v11.a(GATE_INT.o)
 .bss           0x20000f08        0x0 .\CortexM0\ARM_GCC_541\Debug\start_v11.a(debug.o)
 .bss           0x20000f08        0x1 .\CortexM0\ARM_GCC_541\Debug\start_v11.a(ADC.o)
                0x20000f08                ADC_initVar
 .bss           0x20000f09        0x0 .\CortexM0\ARM_GCC_541\Debug\start_v11.a(ADC_INT.o)
 .bss           0x20000f09        0x0 .\CortexM0\ARM_GCC_541\Debug\start_v11.a(CE.o)
 .bss           0x20000f09        0x0 .\CortexM0\ARM_GCC_541\Debug\start_v11.a(RST.o)
 .bss           0x20000f09        0x0 .\CortexM0\ARM_GCC_541\Debug\start_v11.a(DC.o)
 .bss           0x20000f09        0x0 .\CortexM0\ARM_GCC_541\Debug\start_v11.a(LCD_BL.o)
 .bss           0x20000f09        0x1 .\CortexM0\ARM_GCC_541\Debug\start_v11.a(TimerTestMode.o)
                0x20000f09                TimerTestMode_initVar
 .bss           0x20000f0a        0x0 .\CortexM0\ARM_GCC_541\Debug\start_v11.a(Int_timerTestMode.o)
 .bss           0x20000f0a        0x0 .\CortexM0\ARM_GCC_541\Debug\start_v11.a(Pin_testMode.o)
 .bss           0x20000f0a        0x0 .\CortexM0\ARM_GCC_541\Debug\start_v11.a(SW_RunTestMode.o)
 .bss           0x20000f0a        0x0 .\CortexM0\ARM_GCC_541\Debug\start_v11.a(LED_RED_PIN.o)
 .bss           0x20000f0a        0x0 .\CortexM0\ARM_GCC_541\Debug\start_v11.a(LED_GREEN_PIN.o)
 .bss           0x20000f0a        0x1 .\CortexM0\ARM_GCC_541\Debug\start_v11.a(Timer.o)
                0x20000f0a                Timer_initVar
 .bss           0x20000f0b        0x0 .\CortexM0\ARM_GCC_541\Debug\start_v11.a(isr_timer.o)
 .bss           0x20000f0b        0x0 .\CortexM0\ARM_GCC_541\Debug\start_v11.a(BtnUp.o)
 .bss           0x20000f0b        0x0 .\CortexM0\ARM_GCC_541\Debug\start_v11.a(BtnDown.o)
 .bss           0x20000f0b        0x0 .\CortexM0\ARM_GCC_541\Debug\start_v11.a(BUTT_DOWN_INT.o)
 .bss           0x20000f0b        0x0 .\CortexM0\ARM_GCC_541\Debug\start_v11.a(BUTT_UP_INT.o)
 .bss           0x20000f0b        0x0 .\CortexM0\ARM_GCC_541\Debug\start_v11.a(CyBootAsmGnu.o)
 .bss           0x20000f0b        0x0 .\CortexM0\ARM_GCC_541\Debug\start_v11.a(UART_XB_SPI_UART_INT.o)
 .bss           0x20000f0b        0x0 c:/program files (x86)/cypress/psoc creator/4.1/psoc creator/import/gnu/arm/5.4.1/bin/../lib/gcc/arm-none-eabi/5.4.1/armv6-m\libgcc.a(_udivsi3.o)
 .bss           0x20000f0b        0x0 c:/program files (x86)/cypress/psoc creator/4.1/psoc creator/import/gnu/arm/5.4.1/bin/../lib/gcc/arm-none-eabi/5.4.1/armv6-m\libgcc.a(_divsi3.o)
 .bss           0x20000f0b        0x0 c:/program files (x86)/cypress/psoc creator/4.1/psoc creator/import/gnu/arm/5.4.1/bin/../lib/gcc/arm-none-eabi/5.4.1/armv6-m\libgcc.a(_dvmd_tls.o)
 .bss           0x20000f0b        0x0 c:/program files (x86)/cypress/psoc creator/4.1/psoc creator/import/gnu/arm/5.4.1/bin/../lib/gcc/arm-none-eabi/5.4.1/armv6-m\libgcc.a(_arm_cmpdf2.o)
 .bss           0x20000f0b        0x0 c:/program files (x86)/cypress/psoc creator/4.1/psoc creator/import/gnu/arm/5.4.1/bin/../lib/gcc/arm-none-eabi/5.4.1/armv6-m\libgcc.a(_arm_cmpsf2.o)
 .bss           0x20000f0b        0x0 c:/program files (x86)/cypress/psoc creator/4.1/psoc creator/import/gnu/arm/5.4.1/bin/../lib/gcc/arm-none-eabi/5.4.1/armv6-m\libgcc.a(_aeabi_ldivmod.o)
 .bss           0x20000f0b        0x0 c:/program files (x86)/cypress/psoc creator/4.1/psoc creator/import/gnu/arm/5.4.1/bin/../lib/gcc/arm-none-eabi/5.4.1/armv6-m\libgcc.a(_aeabi_uldivmod.o)
 .bss           0x20000f0b        0x0 c:/program files (x86)/cypress/psoc creator/4.1/psoc creator/import/gnu/arm/5.4.1/bin/../lib/gcc/arm-none-eabi/5.4.1/armv6-m\libgcc.a(_muldi3.o)
 .bss           0x20000f0b        0x0 c:/program files (x86)/cypress/psoc creator/4.1/psoc creator/import/gnu/arm/5.4.1/bin/../lib/gcc/arm-none-eabi/5.4.1/armv6-m\libgcc.a(_udivmoddi4.o)
 .bss           0x20000f0b        0x0 c:/program files (x86)/cypress/psoc creator/4.1/psoc creator/import/gnu/arm/5.4.1/bin/../lib/gcc/arm-none-eabi/5.4.1/armv6-m\libgcc.a(bpabi.o)
 .bss           0x20000f0b        0x0 c:/program files (x86)/cypress/psoc creator/4.1/psoc creator/import/gnu/arm/5.4.1/bin/../lib/gcc/arm-none-eabi/5.4.1/armv6-m\libgcc.a(divsf3.o)
 .bss           0x20000f0b        0x0 c:/program files (x86)/cypress/psoc creator/4.1/psoc creator/import/gnu/arm/5.4.1/bin/../lib/gcc/arm-none-eabi/5.4.1/armv6-m\libgcc.a(eqsf2.o)
 .bss           0x20000f0b        0x0 c:/program files (x86)/cypress/psoc creator/4.1/psoc creator/import/gnu/arm/5.4.1/bin/../lib/gcc/arm-none-eabi/5.4.1/armv6-m\libgcc.a(gesf2.o)
 .bss           0x20000f0b        0x0 c:/program files (x86)/cypress/psoc creator/4.1/psoc creator/import/gnu/arm/5.4.1/bin/../lib/gcc/arm-none-eabi/5.4.1/armv6-m\libgcc.a(lesf2.o)
 .bss           0x20000f0b        0x0 c:/program files (x86)/cypress/psoc creator/4.1/psoc creator/import/gnu/arm/5.4.1/bin/../lib/gcc/arm-none-eabi/5.4.1/armv6-m\libgcc.a(mulsf3.o)
 .bss           0x20000f0b        0x0 c:/program files (x86)/cypress/psoc creator/4.1/psoc creator/import/gnu/arm/5.4.1/bin/../lib/gcc/arm-none-eabi/5.4.1/armv6-m\libgcc.a(floatsisf.o)
 .bss           0x20000f0b        0x0 c:/program files (x86)/cypress/psoc creator/4.1/psoc creator/import/gnu/arm/5.4.1/bin/../lib/gcc/arm-none-eabi/5.4.1/armv6-m\libgcc.a(adddf3.o)
 .bss           0x20000f0b        0x0 c:/program files (x86)/cypress/psoc creator/4.1/psoc creator/import/gnu/arm/5.4.1/bin/../lib/gcc/arm-none-eabi/5.4.1/armv6-m\libgcc.a(divdf3.o)
 .bss           0x20000f0b        0x0 c:/program files (x86)/cypress/psoc creator/4.1/psoc creator/import/gnu/arm/5.4.1/bin/../lib/gcc/arm-none-eabi/5.4.1/armv6-m\libgcc.a(eqdf2.o)
 .bss           0x20000f0b        0x0 c:/program files (x86)/cypress/psoc creator/4.1/psoc creator/import/gnu/arm/5.4.1/bin/../lib/gcc/arm-none-eabi/5.4.1/armv6-m\libgcc.a(gedf2.o)
 .bss           0x20000f0b        0x0 c:/program files (x86)/cypress/psoc creator/4.1/psoc creator/import/gnu/arm/5.4.1/bin/../lib/gcc/arm-none-eabi/5.4.1/armv6-m\libgcc.a(ledf2.o)
 .bss           0x20000f0b        0x0 c:/program files (x86)/cypress/psoc creator/4.1/psoc creator/import/gnu/arm/5.4.1/bin/../lib/gcc/arm-none-eabi/5.4.1/armv6-m\libgcc.a(subdf3.o)
 .bss           0x20000f0b        0x0 c:/program files (x86)/cypress/psoc creator/4.1/psoc creator/import/gnu/arm/5.4.1/bin/../lib/gcc/arm-none-eabi/5.4.1/armv6-m\libgcc.a(fixdfsi.o)
 .bss           0x20000f0b        0x0 c:/program files (x86)/cypress/psoc creator/4.1/psoc creator/import/gnu/arm/5.4.1/bin/../lib/gcc/arm-none-eabi/5.4.1/armv6-m\libgcc.a(floatsidf.o)
 .bss           0x20000f0b        0x0 c:/program files (x86)/cypress/psoc creator/4.1/psoc creator/import/gnu/arm/5.4.1/bin/../lib/gcc/arm-none-eabi/5.4.1/armv6-m\libgcc.a(extendsfdf2.o)
 .bss           0x20000f0b        0x0 c:/program files (x86)/cypress/psoc creator/4.1/psoc creator/import/gnu/arm/5.4.1/bin/../lib/gcc/arm-none-eabi/5.4.1/armv6-m\libgcc.a(_clzsi2.o)
 .bss           0x20000f0b        0x0 c:/program files (x86)/cypress/psoc creator/4.1/psoc creator/import/gnu/arm/5.4.1/bin/../lib/gcc/arm-none-eabi/5.4.1/armv6-m\libgcc.a(_clzdi2.o)
 .bss           0x20000f0b        0x0 c:/program files (x86)/cypress/psoc creator/4.1/psoc creator/import/gnu/arm/5.4.1/bin/../lib/gcc/arm-none-eabi/5.4.1/armv6-m\libgcc.a(_divdi3.o)
 .bss           0x20000f0b        0x0 c:/program files (x86)/cypress/psoc creator/4.1/psoc creator/import/gnu/arm/5.4.1/bin/../lib/gcc/arm-none-eabi/5.4.1/../../../../arm-none-eabi/lib/armv6-m\libg.a(lib_a-errno.o)
 .bss           0x20000f0b        0x0 c:/program files (x86)/cypress/psoc creator/4.1/psoc creator/import/gnu/arm/5.4.1/bin/../lib/gcc/arm-none-eabi/5.4.1/../../../../arm-none-eabi/lib/armv6-m\libg.a(lib_a-exit.o)
 .bss           0x20000f0b        0x0 c:/program files (x86)/cypress/psoc creator/4.1/psoc creator/import/gnu/arm/5.4.1/bin/../lib/gcc/arm-none-eabi/5.4.1/../../../../arm-none-eabi/lib/armv6-m\libg.a(lib_a-impure.o)
 .bss           0x20000f0b        0x0 c:/program files (x86)/cypress/psoc creator/4.1/psoc creator/import/gnu/arm/5.4.1/bin/../lib/gcc/arm-none-eabi/5.4.1/../../../../arm-none-eabi/lib/armv6-m\libg.a(lib_a-init.o)
 .bss           0x20000f0b        0x0 c:/program files (x86)/cypress/psoc creator/4.1/psoc creator/import/gnu/arm/5.4.1/bin/../lib/gcc/arm-none-eabi/5.4.1/../../../../arm-none-eabi/lib/armv6-m\libg.a(lib_a-memcpy-stub.o)
 .bss           0x20000f0b        0x0 c:/program files (x86)/cypress/psoc creator/4.1/psoc creator/import/gnu/arm/5.4.1/bin/../lib/gcc/arm-none-eabi/5.4.1/../../../../arm-none-eabi/lib/armv6-m\libg.a(lib_a-memset.o)
 .bss           0x20000f0b        0x0 c:/program files (x86)/cypress/psoc creator/4.1/psoc creator/import/gnu/arm/5.4.1/bin/../lib/gcc/arm-none-eabi/5.4.1/../../../../arm-none-eabi/lib/armv6-m\libg.a(lib_a-rand.o)
 .bss           0x20000f0b        0x0 c:/program files (x86)/cypress/psoc creator/4.1/psoc creator/import/gnu/arm/5.4.1/bin/../lib/gcc/arm-none-eabi/5.4.1/../../../../arm-none-eabi/lib/armv6-m\libg.a(lib_a-sprintf.o)
 .bss           0x20000f0b        0x0 c:/program files (x86)/cypress/psoc creator/4.1/psoc creator/import/gnu/arm/5.4.1/bin/../lib/gcc/arm-none-eabi/5.4.1/../../../../arm-none-eabi/lib/armv6-m\libg.a(lib_a-strcat.o)
 .bss           0x20000f0b        0x0 c:/program files (x86)/cypress/psoc creator/4.1/psoc creator/import/gnu/arm/5.4.1/bin/../lib/gcc/arm-none-eabi/5.4.1/../../../../arm-none-eabi/lib/armv6-m\libg.a(lib_a-strcpy.o)
 .bss           0x20000f0b        0x0 c:/program files (x86)/cypress/psoc creator/4.1/psoc creator/import/gnu/arm/5.4.1/bin/../lib/gcc/arm-none-eabi/5.4.1/../../../../arm-none-eabi/lib/armv6-m\libg.a(lib_a-strlen-stub.o)
 .bss           0x20000f0b        0x0 c:/program files (x86)/cypress/psoc creator/4.1/psoc creator/import/gnu/arm/5.4.1/bin/../lib/gcc/arm-none-eabi/5.4.1/../../../../arm-none-eabi/lib/armv6-m\libg.a(lib_a-strncat.o)
 .bss           0x20000f0b        0x0 c:/program files (x86)/cypress/psoc creator/4.1/psoc creator/import/gnu/arm/5.4.1/bin/../lib/gcc/arm-none-eabi/5.4.1/../../../../arm-none-eabi/lib/armv6-m\libg.a(lib_a-strncpy.o)
 .bss           0x20000f0b        0x0 c:/program files (x86)/cypress/psoc creator/4.1/psoc creator/import/gnu/arm/5.4.1/bin/../lib/gcc/arm-none-eabi/5.4.1/../../../../arm-none-eabi/lib/armv6-m\libg.a(lib_a-svfprintf.o)
 .bss           0x20000f0b        0x0 c:/program files (x86)/cypress/psoc creator/4.1/psoc creator/import/gnu/arm/5.4.1/bin/../lib/gcc/arm-none-eabi/5.4.1/../../../../arm-none-eabi/lib/armv6-m\libg.a(lib_a-__call_atexit.o)
 .bss           0x20000f0b        0x0 c:/program files (x86)/cypress/psoc creator/4.1/psoc creator/import/gnu/arm/5.4.1/bin/../lib/gcc/arm-none-eabi/5.4.1/../../../../arm-none-eabi/lib/armv6-m\libg.a(lib_a-atexit.o)
 .bss           0x20000f0b        0x0 c:/program files (x86)/cypress/psoc creator/4.1/psoc creator/import/gnu/arm/5.4.1/bin/../lib/gcc/arm-none-eabi/5.4.1/../../../../arm-none-eabi/lib/armv6-m\libg.a(lib_a-dtoa.o)
 .bss           0x20000f0b        0x0 c:/program files (x86)/cypress/psoc creator/4.1/psoc creator/import/gnu/arm/5.4.1/bin/../lib/gcc/arm-none-eabi/5.4.1/../../../../arm-none-eabi/lib/armv6-m\libg.a(lib_a-fini.o)
 .bss           0x20000f0b        0x0 c:/program files (x86)/cypress/psoc creator/4.1/psoc creator/import/gnu/arm/5.4.1/bin/../lib/gcc/arm-none-eabi/5.4.1/../../../../arm-none-eabi/lib/armv6-m\libg.a(lib_a-locale.o)
 *fill*         0x20000f0b        0x1 
 .bss._PathLocale
                0x20000f0c        0x4 c:/program files (x86)/cypress/psoc creator/4.1/psoc creator/import/gnu/arm/5.4.1/bin/../lib/gcc/arm-none-eabi/5.4.1/../../../../arm-none-eabi/lib/armv6-m\libg.a(lib_a-locale.o)
                0x20000f0c                _PathLocale
 .bss.__nlocale_changed
                0x20000f10        0x4 c:/program files (x86)/cypress/psoc creator/4.1/psoc creator/import/gnu/arm/5.4.1/bin/../lib/gcc/arm-none-eabi/5.4.1/../../../../arm-none-eabi/lib/armv6-m\libg.a(lib_a-locale.o)
                0x20000f10                __nlocale_changed
 .bss.__mlocale_changed
                0x20000f14        0x4 c:/program files (x86)/cypress/psoc creator/4.1/psoc creator/import/gnu/arm/5.4.1/bin/../lib/gcc/arm-none-eabi/5.4.1/../../../../arm-none-eabi/lib/armv6-m\libg.a(lib_a-locale.o)
                0x20000f14                __mlocale_changed
 .bss           0x20000f18        0x0 c:/program files (x86)/cypress/psoc creator/4.1/psoc creator/import/gnu/arm/5.4.1/bin/../lib/gcc/arm-none-eabi/5.4.1/../../../../arm-none-eabi/lib/armv6-m\libg.a(lib_a-mallocr.o)
 .bss.__malloc_max_total_mem
                0x20000f18        0x4 c:/program files (x86)/cypress/psoc creator/4.1/psoc creator/import/gnu/arm/5.4.1/bin/../lib/gcc/arm-none-eabi/5.4.1/../../../../arm-none-eabi/lib/armv6-m\libg.a(lib_a-mallocr.o)
                0x20000f18                __malloc_max_total_mem
 .bss.__malloc_max_sbrked_mem
                0x20000f1c        0x4 c:/program files (x86)/cypress/psoc creator/4.1/psoc creator/import/gnu/arm/5.4.1/bin/../lib/gcc/arm-none-eabi/5.4.1/../../../../arm-none-eabi/lib/armv6-m\libg.a(lib_a-mallocr.o)
                0x20000f1c                __malloc_max_sbrked_mem
 .bss.__malloc_top_pad
                0x20000f20        0x4 c:/program files (x86)/cypress/psoc creator/4.1/psoc creator/import/gnu/arm/5.4.1/bin/../lib/gcc/arm-none-eabi/5.4.1/../../../../arm-none-eabi/lib/armv6-m\libg.a(lib_a-mallocr.o)
                0x20000f20                __malloc_top_pad
 .bss.__malloc_current_mallinfo
                0x20000f24       0x28 c:/program files (x86)/cypress/psoc creator/4.1/psoc creator/import/gnu/arm/5.4.1/bin/../lib/gcc/arm-none-eabi/5.4.1/../../../../arm-none-eabi/lib/armv6-m\libg.a(lib_a-mallocr.o)
                0x20000f24                __malloc_current_mallinfo
 .bss           0x20000f4c        0x0 c:/program files (x86)/cypress/psoc creator/4.1/psoc creator/import/gnu/arm/5.4.1/bin/../lib/gcc/arm-none-eabi/5.4.1/../../../../arm-none-eabi/lib/armv6-m\libg.a(lib_a-memchr-stub.o)
 .bss           0x20000f4c        0x0 c:/program files (x86)/cypress/psoc creator/4.1/psoc creator/import/gnu/arm/5.4.1/bin/../lib/gcc/arm-none-eabi/5.4.1/../../../../arm-none-eabi/lib/armv6-m\libg.a(lib_a-mlock.o)
 .bss           0x20000f4c        0x0 c:/program files (x86)/cypress/psoc creator/4.1/psoc creator/import/gnu/arm/5.4.1/bin/../lib/gcc/arm-none-eabi/5.4.1/../../../../arm-none-eabi/lib/armv6-m\libg.a(lib_a-mprec.o)
 .bss           0x20000f4c        0x0 c:/program files (x86)/cypress/psoc creator/4.1/psoc creator/import/gnu/arm/5.4.1/bin/../lib/gcc/arm-none-eabi/5.4.1/../../../../arm-none-eabi/lib/armv6-m\libg.a(lib_a-sbrkr.o)
 .bss           0x20000f4c        0x0 c:/program files (x86)/cypress/psoc creator/4.1/psoc creator/import/gnu/arm/5.4.1/bin/../lib/gcc/arm-none-eabi/5.4.1/../../../../arm-none-eabi/lib/armv6-m\libg.a(lib_a-strcmp.o)
 .bss           0x20000f4c        0x0 c:/program files (x86)/cypress/psoc creator/4.1/psoc creator/import/gnu/arm/5.4.1/bin/../lib/gcc/arm-none-eabi/5.4.1/../../../../arm-none-eabi/lib/armv6-m\libg.a(lib_a-svfiprintf.o)
 .bss           0x20000f4c        0x0 c:/program files (x86)/cypress/psoc creator/4.1/psoc creator/import/gnu/arm/5.4.1/bin/../lib/gcc/arm-none-eabi/5.4.1/../../../../arm-none-eabi/lib/armv6-m\libg.a(lib_a-__atexit.o)
 .bss           0x20000f4c        0x0 c:/program files (x86)/cypress/psoc creator/4.1/psoc creator/import/gnu/arm/5.4.1/bin/../lib/gcc/arm-none-eabi/5.4.1/../../../../arm-none-eabi/lib/armv6-m\libg.a(lib_a-callocr.o)
 .bss           0x20000f4c        0x0 c:/program files (x86)/cypress/psoc creator/4.1/psoc creator/import/gnu/arm/5.4.1/bin/../lib/gcc/arm-none-eabi/5.4.1/../../../../arm-none-eabi/lib/armv6-m\libg.a(lib_a-freer.o)
 .bss           0x20000f4c        0x0 c:/program files (x86)/cypress/psoc creator/4.1/psoc creator/import/gnu/arm/5.4.1/bin/../lib/gcc/arm-none-eabi/5.4.1/../../../../arm-none-eabi/lib/armv6-m\libg.a(lib_a-memmove.o)
 .bss           0x20000f4c        0x0 c:/program files (x86)/cypress/psoc creator/4.1/psoc creator/import/gnu/arm/5.4.1/bin/../lib/gcc/arm-none-eabi/5.4.1/../../../../arm-none-eabi/lib/armv6-m\libg.a(lib_a-reallocr.o)
 .bss           0x20000f4c        0x0 c:/program files (x86)/cypress/psoc creator/4.1/psoc creator/import/gnu/arm/5.4.1/bin/../lib/gcc/arm-none-eabi/5.4.1/../../../../arm-none-eabi/lib/armv6-m\libg.a(lib_a-reent.o)
 .bss           0x20000f4c        0x0 c:/program files (x86)/cypress/psoc creator/4.1/psoc creator/import/gnu/arm/5.4.1/bin/../lib/gcc/arm-none-eabi/5.4.1/armv6-m\libgcc.a(muldf3.o)
 .bss           0x20000f4c        0x0 c:/program files (x86)/cypress/psoc creator/4.1/psoc creator/import/gnu/arm/5.4.1/bin/../lib/gcc/arm-none-eabi/5.4.1/armv6-m\libgcc.a(unorddf2.o)
 .bss           0x20000f4c        0x0 c:/program files (x86)/cypress/psoc creator/4.1/psoc creator/import/gnu/arm/5.4.1/bin/../lib/gcc/arm-none-eabi/5.4.1/armv6-m\libgcc.a(floatunsidf.o)
 .bss           0x20000f4c        0x0 c:/program files (x86)/cypress/psoc creator/4.1/psoc creator/import/gnu/arm/5.4.1/bin/../lib/gcc/arm-none-eabi/5.4.1/armv6-m/crtend.o
 .bss           0x20000f4c        0x0 c:/program files (x86)/cypress/psoc creator/4.1/psoc creator/import/gnu/arm/5.4.1/bin/../lib/gcc/arm-none-eabi/5.4.1/armv6-m/crtn.o
 *(COMMON)
 COMMON         0x20000f4c        0x1 .\CortexM0\ARM_GCC_541\Debug\RTC_WDT.o
                0x20000f4c                currentState
 *fill*         0x20000f4d        0x3 
 COMMON         0x20000f50      0x20c .\CortexM0\ARM_GCC_541\Debug\display.o
                0x20000f50                _sleep
                0x20000f54                scrbuf
                0x2000114c                cfont
                0x20001158                _contrast
 COMMON         0x2000115c        0x1 .\CortexM0\ARM_GCC_541\Debug\LED.o
                0x2000115c                LED_InitValue
 COMMON         0x2000115d        0x7 .\CortexM0\ARM_GCC_541\Debug\svt.o
                0x2000115d                LenC
                0x2000115e                LenChS
                0x2000115f                LenD1
                0x20001160                LenSeq
                0x20001161                LenD2
                0x20001162                PROTO_STATE
                0x20001163                LenD3
 COMMON         0x20001164        0x4 .\CortexM0\ARM_GCC_541\Debug\ntp.o
                0x20001164                NtpLenChS
                0x20001165                NtpLenMsD1
                0x20001166                NtpLenId
                0x20001167                NtpLenD1
 COMMON         0x20001168       0xf8 .\CortexM0\ARM_GCC_541\Debug\network.o
                0x20001168                IDreceivePacket
                0x20001170                outData
                0x20001188                recvDataNTP
                0x2000119c                ntpFlagReadyForReceive
                0x200011a0                inData
                0x200011b8                unixTime
                0x200011c8                resultReceive
                0x200011cc                networkFlagReadyForReceive
                0x200011cd                buffNetworkQualyty
                0x200011d0                recvData
                0x200011f0                networkFlagEndReceivePacket
                0x200011f1                ntpFlagEndReceivePacket
                0x200011f4                millisTime
                0x200011fc                previousData
 COMMON         0x20001260        0x4 .\CortexM0\ARM_GCC_541\Debug\batt.o
                0x20001260                voltage
 COMMON         0x20001264        0x5 .\CortexM0\ARM_GCC_541\Debug\taskAutomat.o
                0x20001264                flag
 *fill*         0x20001269        0x7 
 COMMON         0x20001270       0x28 .\CortexM0\ARM_GCC_541\Debug\start_v11.a(RTC.o)
                0x20001270                RTC_initVar
                0x20001274                RTC_currentTimeDate
                0x20001284                RTC_alarmCurStatus
                0x20001288                RTC_dstStatus
                0x20001290                RTC_unixTime
 COMMON         0x20001298       0xe0 .\CortexM0\ARM_GCC_541\Debug\start_v11.a(UART_XB_SPI_UART.o)
                0x20001298                UART_XB_rxBufferTail
                0x2000129c                UART_XB_rxBufferOverflow
                0x200012a0                UART_XB_txBufferHead
                0x200012a4                UART_XB_txBufferInternal
                0x20001308                UART_XB_rxBufferInternal
                0x20001370                UART_XB_rxBufferHead
                0x20001374                UART_XB_txBufferTail
 COMMON         0x20001378        0x6 .\CortexM0\ARM_GCC_541\Debug\start_v11.a(ADC.o)
                0x20001378                ADC_countsPer10Volt
                0x2000137c                ADC_offset
 *fill*         0x2000137e        0x2 
 COMMON         0x20001380        0x4 c:/program files (x86)/cypress/psoc creator/4.1/psoc creator/import/gnu/arm/5.4.1/bin/../lib/gcc/arm-none-eabi/5.4.1/../../../../arm-none-eabi/lib/armv6-m\libg.a(lib_a-reent.o)
                0x20001380                errno
                0x20001388                . = ALIGN (0x8)
 *fill*         0x20001384        0x4 
 *(.ram.b)
                0x20001388                _end = .
                0x20001388                __end = .
                0x20001388                PROVIDE (end, .)
                0x20001388                PROVIDE (__bss_end__, .)
                0x000149a0                __cy_region_init_ram = LOADADDR (.data)
                0x000008e0                __cy_region_init_size_ram = (_edata - ADDR (.data))
                0x000009e0                __cy_region_zero_size_ram = (_end - _edata)

.heap           0x20001388     0x1000 load address 0x00015280
                0x20001388                . = _end
                0x20002388                . = (. + 0x1000)
 *fill*         0x20001388     0x1000 
                0x20002388                __cy_heap_limit = .

.stack          0x20003800      0x800
                0x20003800                __cy_stack_limit = .
                0x20004000                . = (. + 0x800)
 *fill*         0x20003800      0x800 
                0x00000001                ASSERT ((__cy_stack_limit >= __cy_heap_limit), region RAM overflowed with stack)
                0x00000000                cy_checksum_exclude_size = (CY_APPL_LOADABLE == 0x1)?SIZEOF (.cy_checksum_exclude):0x0
                0x00000001                ASSERT ((cy_checksum_exclude_size <= CY_CHECKSUM_EXCLUDE_SIZE), CY_BOOT: Section .cy_checksum_exclude size exceedes specified limit.)
                0x0001ffc0                cyloadermeta_start = (cy_project_type_bootloader || cy_project_type_app_for_stack_and_copier)?(LENGTH (rom) - CY_METADATA_SIZE):0xf0000000

.cyloadermeta
 *(.cyloadermeta)
                0x0001ffc0                cyloadablemeta_start = cy_project_type_app_for_stack_and_copier?((LENGTH (rom) - CY_FLASH_ROW_SIZE) - CY_METADATA_SIZE):((LENGTH (rom) - (CY_FLASH_ROW_SIZE * (CY_APPL_NUM - 0x1))) - CY_METADATA_SIZE)

.cyloadablemeta
 *(.cyloadablemeta)

.cyflashprotect
                0x90400000       0x80
 *(.cyflashprotect)
 .cyflashprotect
                0x90400000       0x80 .\CortexM0\ARM_GCC_541\Debug\cymetadata.o
                0x90400000                cy_meta_flashprotect

.cymeta         0x90500000        0xc
 *(.cymeta)
 .cymeta        0x90500000        0xc .\CortexM0\ARM_GCC_541\Debug\cymetadata.o
                0x90500000                cy_metadata

.cychipprotect  0x90600000        0x1
 *(.cychipprotect)
 .cychipprotect
                0x90600000        0x1 .\CortexM0\ARM_GCC_541\Debug\cymetadata.o
                0x90600000                cy_meta_chipprotect

.rel.dyn        0x00015280        0x0 load address 0x90600004
 .rel.iplt      0x00015280        0x0 c:/program files (x86)/cypress/psoc creator/4.1/psoc creator/import/gnu/arm/5.4.1/bin/../lib/gcc/arm-none-eabi/5.4.1/armv6-m/crtbegin.o

.stab
 *(.stab)

.stabstr
 *(.stabstr)

.debug
 *(.debug)

.line
 *(.line)

.debug_srcinfo
 *(.debug_srcinfo)

.debug_sfnames
 *(.debug_sfnames)

.debug_aranges  0x00000000     0x17e0
 *(.debug_aranges)
 .debug_aranges
                0x00000000       0x90 .\CortexM0\ARM_GCC_541\Debug\RTC_WDT.o
 .debug_aranges
                0x00000090       0xa0 .\CortexM0\ARM_GCC_541\Debug\display.o
 .debug_aranges
                0x00000130       0x18 .\CortexM0\ARM_GCC_541\Debug\DefaultFonts.o
 .debug_aranges
                0x00000148       0x18 .\CortexM0\ARM_GCC_541\Debug\Graphics.o
 .debug_aranges
                0x00000160      0x120 .\CortexM0\ARM_GCC_541\Debug\LCD5110_Graph.o
 .debug_aranges
                0x00000280       0x48 .\CortexM0\ARM_GCC_541\Debug\gate.o
 .debug_aranges
                0x000002c8       0x38 .\CortexM0\ARM_GCC_541\Debug\LED.o
 .debug_aranges
                0x00000300       0x38 .\CortexM0\ARM_GCC_541\Debug\crc32.o
 .debug_aranges
                0x00000338       0x40 .\CortexM0\ARM_GCC_541\Debug\svt.o
 .debug_aranges
                0x00000378       0x38 .\CortexM0\ARM_GCC_541\Debug\ntp.o
 .debug_aranges
                0x000003b0       0x98 .\CortexM0\ARM_GCC_541\Debug\network.o
 .debug_aranges
                0x00000448       0x28 .\CortexM0\ARM_GCC_541\Debug\batt.o
 .debug_aranges
                0x00000470       0x48 .\CortexM0\ARM_GCC_541\Debug\testMode.o
 .debug_aranges
                0x000004b8       0x60 .\CortexM0\ARM_GCC_541\Debug\taskAutomat.o
 .debug_aranges
                0x00000518       0x48 .\CortexM0\ARM_GCC_541\Debug\IDskier.o
 .debug_aranges
                0x00000560       0x50 .\CortexM0\ARM_GCC_541\Debug\main.o
 .debug_aranges
                0x000005b0       0x58 .\CortexM0\ARM_GCC_541\Debug\cyfitter_cfg.o
 .debug_aranges
                0x00000608       0x18 .\CortexM0\ARM_GCC_541\Debug\cymetadata.o
 .debug_aranges
                0x00000620       0x48 .\CortexM0\ARM_GCC_541\Debug\Cm0Start.o
 .debug_aranges
                0x00000668      0x1a0 .\CortexM0\ARM_GCC_541\Debug\start_v11.a(CyLib.o)
 .debug_aranges
                0x00000808      0x198 .\CortexM0\ARM_GCC_541\Debug\start_v11.a(CyLFClk.o)
 .debug_aranges
                0x000009a0      0x128 .\CortexM0\ARM_GCC_541\Debug\start_v11.a(RTC.o)
 .debug_aranges
                0x00000ac8       0x48 .\CortexM0\ARM_GCC_541\Debug\start_v11.a(GatePin.o)
 .debug_aranges
                0x00000b10      0x158 .\CortexM0\ARM_GCC_541\Debug\start_v11.a(Timer_LED.o)
 .debug_aranges
                0x00000c68       0x80 .\CortexM0\ARM_GCC_541\Debug\start_v11.a(Int_Timer_Led.o)
 .debug_aranges
                0x00000ce8       0x68 .\CortexM0\ARM_GCC_541\Debug\start_v11.a(UART_XB.o)
 .debug_aranges
                0x00000d50       0x60 .\CortexM0\ARM_GCC_541\Debug\start_v11.a(UART_XB_SPI_UART.o)
 .debug_aranges
                0x00000db0       0x88 .\CortexM0\ARM_GCC_541\Debug\start_v11.a(UART_XB_UART.o)
 .debug_aranges
                0x00000e38       0x58 .\CortexM0\ARM_GCC_541\Debug\start_v11.a(SwSPI_Master.o)
 .debug_aranges
                0x00000e90       0x80 .\CortexM0\ARM_GCC_541\Debug\start_v11.a(GATE_INT.o)
 .debug_aranges
                0x00000f10       0x48 .\CortexM0\ARM_GCC_541\Debug\start_v11.a(debug.o)
 .debug_aranges
                0x00000f58       0xa8 .\CortexM0\ARM_GCC_541\Debug\start_v11.a(ADC.o)
 .debug_aranges
                0x00001000       0x20 .\CortexM0\ARM_GCC_541\Debug\start_v11.a(ADC_INT.o)
 .debug_aranges
                0x00001020       0x48 .\CortexM0\ARM_GCC_541\Debug\start_v11.a(CE.o)
 .debug_aranges
                0x00001068       0x48 .\CortexM0\ARM_GCC_541\Debug\start_v11.a(RST.o)
 .debug_aranges
                0x000010b0       0x48 .\CortexM0\ARM_GCC_541\Debug\start_v11.a(DC.o)
 .debug_aranges
                0x000010f8       0x48 .\CortexM0\ARM_GCC_541\Debug\start_v11.a(LCD_BL.o)
 .debug_aranges
                0x00001140      0x158 .\CortexM0\ARM_GCC_541\Debug\start_v11.a(TimerTestMode.o)
 .debug_aranges
                0x00001298       0x80 .\CortexM0\ARM_GCC_541\Debug\start_v11.a(Int_timerTestMode.o)
 .debug_aranges
                0x00001318       0x48 .\CortexM0\ARM_GCC_541\Debug\start_v11.a(Pin_testMode.o)
 .debug_aranges
                0x00001360       0x48 .\CortexM0\ARM_GCC_541\Debug\start_v11.a(SW_RunTestMode.o)
 .debug_aranges
                0x000013a8       0x48 .\CortexM0\ARM_GCC_541\Debug\start_v11.a(LED_RED_PIN.o)
 .debug_aranges
                0x000013f0       0x48 .\CortexM0\ARM_GCC_541\Debug\start_v11.a(LED_GREEN_PIN.o)
 .debug_aranges
                0x00001438      0x158 .\CortexM0\ARM_GCC_541\Debug\start_v11.a(Timer.o)
 .debug_aranges
                0x00001590       0x80 .\CortexM0\ARM_GCC_541\Debug\start_v11.a(isr_timer.o)
 .debug_aranges
                0x00001610       0x48 .\CortexM0\ARM_GCC_541\Debug\start_v11.a(BtnUp.o)
 .debug_aranges
                0x00001658       0x48 .\CortexM0\ARM_GCC_541\Debug\start_v11.a(BtnDown.o)
 .debug_aranges
                0x000016a0       0x80 .\CortexM0\ARM_GCC_541\Debug\start_v11.a(BUTT_DOWN_INT.o)
 .debug_aranges
                0x00001720       0x80 .\CortexM0\ARM_GCC_541\Debug\start_v11.a(BUTT_UP_INT.o)
 .debug_aranges
                0x000017a0       0x20 .\CortexM0\ARM_GCC_541\Debug\start_v11.a(CyBootAsmGnu.o)
 .debug_aranges
                0x000017c0       0x20 .\CortexM0\ARM_GCC_541\Debug\start_v11.a(UART_XB_SPI_UART_INT.o)

.debug_pubnames
 *(.debug_pubnames)

.debug_info     0x00000000     0xa6e0
 *(.debug_info .gnu.linkonce.wi.*)
 .debug_info    0x00000000      0x458 .\CortexM0\ARM_GCC_541\Debug\RTC_WDT.o
 .debug_info    0x00000458      0x528 .\CortexM0\ARM_GCC_541\Debug\display.o
 .debug_info    0x00000980       0xcd .\CortexM0\ARM_GCC_541\Debug\DefaultFonts.o
 .debug_info    0x00000a4d      0x193 .\CortexM0\ARM_GCC_541\Debug\Graphics.o
 .debug_info    0x00000be0      0xf28 .\CortexM0\ARM_GCC_541\Debug\LCD5110_Graph.o
 .debug_info    0x00001b08      0x1ea .\CortexM0\ARM_GCC_541\Debug\gate.o
 .debug_info    0x00001cf2      0x1c6 .\CortexM0\ARM_GCC_541\Debug\LED.o
 .debug_info    0x00001eb8      0x205 .\CortexM0\ARM_GCC_541\Debug\crc32.o
 .debug_info    0x000020bd      0x411 .\CortexM0\ARM_GCC_541\Debug\svt.o
 .debug_info    0x000024ce      0x2c3 .\CortexM0\ARM_GCC_541\Debug\ntp.o
 .debug_info    0x00002791      0x757 .\CortexM0\ARM_GCC_541\Debug\network.o
 .debug_info    0x00002ee8       0xef .\CortexM0\ARM_GCC_541\Debug\batt.o
 .debug_info    0x00002fd7      0x252 .\CortexM0\ARM_GCC_541\Debug\testMode.o
 .debug_info    0x00003229      0x2c0 .\CortexM0\ARM_GCC_541\Debug\taskAutomat.o
 .debug_info    0x000034e9      0x164 .\CortexM0\ARM_GCC_541\Debug\IDskier.o
 .debug_info    0x0000364d      0x23e .\CortexM0\ARM_GCC_541\Debug\main.o
 .debug_info    0x0000388b      0x393 .\CortexM0\ARM_GCC_541\Debug\cyfitter_cfg.o
 .debug_info    0x00003c1e       0xf8 .\CortexM0\ARM_GCC_541\Debug\cymetadata.o
 .debug_info    0x00003d16      0x30c .\CortexM0\ARM_GCC_541\Debug\Cm0Start.o
 .debug_info    0x00004022      0x991 .\CortexM0\ARM_GCC_541\Debug\start_v11.a(CyLib.o)
 .debug_info    0x000049b3      0xab3 .\CortexM0\ARM_GCC_541\Debug\start_v11.a(CyLFClk.o)
 .debug_info    0x00005466      0xa5d .\CortexM0\ARM_GCC_541\Debug\start_v11.a(RTC.o)
 .debug_info    0x00005ec3      0x19a .\CortexM0\ARM_GCC_541\Debug\start_v11.a(GatePin.o)
 .debug_info    0x0000605d      0x6fb .\CortexM0\ARM_GCC_541\Debug\start_v11.a(Timer_LED.o)
 .debug_info    0x00006758      0x24d .\CortexM0\ARM_GCC_541\Debug\start_v11.a(Int_Timer_Led.o)
 .debug_info    0x000069a5      0x208 .\CortexM0\ARM_GCC_541\Debug\start_v11.a(UART_XB.o)
 .debug_info    0x00006bad      0x2fc .\CortexM0\ARM_GCC_541\Debug\start_v11.a(UART_XB_SPI_UART.o)
 .debug_info    0x00006ea9      0x324 .\CortexM0\ARM_GCC_541\Debug\start_v11.a(UART_XB_UART.o)
 .debug_info    0x000071cd      0x293 .\CortexM0\ARM_GCC_541\Debug\start_v11.a(SwSPI_Master.o)
 .debug_info    0x00007460      0x24d .\CortexM0\ARM_GCC_541\Debug\start_v11.a(GATE_INT.o)
 .debug_info    0x000076ad      0x19a .\CortexM0\ARM_GCC_541\Debug\start_v11.a(debug.o)
 .debug_info    0x00007847      0x491 .\CortexM0\ARM_GCC_541\Debug\start_v11.a(ADC.o)
 .debug_info    0x00007cd8       0xcc .\CortexM0\ARM_GCC_541\Debug\start_v11.a(ADC_INT.o)
 .debug_info    0x00007da4      0x19a .\CortexM0\ARM_GCC_541\Debug\start_v11.a(CE.o)
 .debug_info    0x00007f3e      0x19a .\CortexM0\ARM_GCC_541\Debug\start_v11.a(RST.o)
 .debug_info    0x000080d8      0x19a .\CortexM0\ARM_GCC_541\Debug\start_v11.a(DC.o)
 .debug_info    0x00008272      0x19a .\CortexM0\ARM_GCC_541\Debug\start_v11.a(LCD_BL.o)
 .debug_info    0x0000840c      0x6fb .\CortexM0\ARM_GCC_541\Debug\start_v11.a(TimerTestMode.o)
 .debug_info    0x00008b07      0x24d .\CortexM0\ARM_GCC_541\Debug\start_v11.a(Int_timerTestMode.o)
 .debug_info    0x00008d54      0x19a .\CortexM0\ARM_GCC_541\Debug\start_v11.a(Pin_testMode.o)
 .debug_info    0x00008eee      0x19a .\CortexM0\ARM_GCC_541\Debug\start_v11.a(SW_RunTestMode.o)
 .debug_info    0x00009088      0x19a .\CortexM0\ARM_GCC_541\Debug\start_v11.a(LED_RED_PIN.o)
 .debug_info    0x00009222      0x19a .\CortexM0\ARM_GCC_541\Debug\start_v11.a(LED_GREEN_PIN.o)
 .debug_info    0x000093bc      0x6fb .\CortexM0\ARM_GCC_541\Debug\start_v11.a(Timer.o)
 .debug_info    0x00009ab7      0x24d .\CortexM0\ARM_GCC_541\Debug\start_v11.a(isr_timer.o)
 .debug_info    0x00009d04      0x19a .\CortexM0\ARM_GCC_541\Debug\start_v11.a(BtnUp.o)
 .debug_info    0x00009e9e      0x19a .\CortexM0\ARM_GCC_541\Debug\start_v11.a(BtnDown.o)
 .debug_info    0x0000a038      0x24d .\CortexM0\ARM_GCC_541\Debug\start_v11.a(BUTT_DOWN_INT.o)
 .debug_info    0x0000a285      0x24d .\CortexM0\ARM_GCC_541\Debug\start_v11.a(BUTT_UP_INT.o)
 .debug_info    0x0000a4d2       0x8a .\CortexM0\ARM_GCC_541\Debug\start_v11.a(CyBootAsmGnu.o)
 .debug_info    0x0000a55c      0x184 .\CortexM0\ARM_GCC_541\Debug\start_v11.a(UART_XB_SPI_UART_INT.o)

.debug_abbrev   0x00000000     0x352a
 *(.debug_abbrev)
 .debug_abbrev  0x00000000      0x1a9 .\CortexM0\ARM_GCC_541\Debug\RTC_WDT.o
 .debug_abbrev  0x000001a9      0x1b5 .\CortexM0\ARM_GCC_541\Debug\display.o
 .debug_abbrev  0x0000035e       0x45 .\CortexM0\ARM_GCC_541\Debug\DefaultFonts.o
 .debug_abbrev  0x000003a3       0x8d .\CortexM0\ARM_GCC_541\Debug\Graphics.o
 .debug_abbrev  0x00000430      0x1e9 .\CortexM0\ARM_GCC_541\Debug\LCD5110_Graph.o
 .debug_abbrev  0x00000619       0xd5 .\CortexM0\ARM_GCC_541\Debug\gate.o
 .debug_abbrev  0x000006ee       0xbd .\CortexM0\ARM_GCC_541\Debug\LED.o
 .debug_abbrev  0x000007ab       0xc2 .\CortexM0\ARM_GCC_541\Debug\crc32.o
 .debug_abbrev  0x0000086d      0x17b .\CortexM0\ARM_GCC_541\Debug\svt.o
 .debug_abbrev  0x000009e8      0x124 .\CortexM0\ARM_GCC_541\Debug\ntp.o
 .debug_abbrev  0x00000b0c      0x205 .\CortexM0\ARM_GCC_541\Debug\network.o
 .debug_abbrev  0x00000d11       0x8b .\CortexM0\ARM_GCC_541\Debug\batt.o
 .debug_abbrev  0x00000d9c      0x133 .\CortexM0\ARM_GCC_541\Debug\testMode.o
 .debug_abbrev  0x00000ecf      0x133 .\CortexM0\ARM_GCC_541\Debug\taskAutomat.o
 .debug_abbrev  0x00001002       0x92 .\CortexM0\ARM_GCC_541\Debug\IDskier.o
 .debug_abbrev  0x00001094       0xe4 .\CortexM0\ARM_GCC_541\Debug\main.o
 .debug_abbrev  0x00001178      0x1b3 .\CortexM0\ARM_GCC_541\Debug\cyfitter_cfg.o
 .debug_abbrev  0x0000132b       0x5d .\CortexM0\ARM_GCC_541\Debug\cymetadata.o
 .debug_abbrev  0x00001388      0x1c8 .\CortexM0\ARM_GCC_541\Debug\Cm0Start.o
 .debug_abbrev  0x00001550      0x1a7 .\CortexM0\ARM_GCC_541\Debug\start_v11.a(CyLib.o)
 .debug_abbrev  0x000016f7      0x22a .\CortexM0\ARM_GCC_541\Debug\start_v11.a(CyLFClk.o)
 .debug_abbrev  0x00001921      0x212 .\CortexM0\ARM_GCC_541\Debug\start_v11.a(RTC.o)
 .debug_abbrev  0x00001b33       0xaa .\CortexM0\ARM_GCC_541\Debug\start_v11.a(GatePin.o)
 .debug_abbrev  0x00001bdd       0xfc .\CortexM0\ARM_GCC_541\Debug\start_v11.a(Timer_LED.o)
 .debug_abbrev  0x00001cd9      0x16a .\CortexM0\ARM_GCC_541\Debug\start_v11.a(Int_Timer_Led.o)
 .debug_abbrev  0x00001e43       0xc5 .\CortexM0\ARM_GCC_541\Debug\start_v11.a(UART_XB.o)
 .debug_abbrev  0x00001f08      0x149 .\CortexM0\ARM_GCC_541\Debug\start_v11.a(UART_XB_SPI_UART.o)
 .debug_abbrev  0x00002051       0xfd .\CortexM0\ARM_GCC_541\Debug\start_v11.a(UART_XB_UART.o)
 .debug_abbrev  0x0000214e      0x10e .\CortexM0\ARM_GCC_541\Debug\start_v11.a(SwSPI_Master.o)
 .debug_abbrev  0x0000225c      0x16a .\CortexM0\ARM_GCC_541\Debug\start_v11.a(GATE_INT.o)
 .debug_abbrev  0x000023c6       0xaa .\CortexM0\ARM_GCC_541\Debug\start_v11.a(debug.o)
 .debug_abbrev  0x00002470      0x163 .\CortexM0\ARM_GCC_541\Debug\start_v11.a(ADC.o)
 .debug_abbrev  0x000025d3       0x65 .\CortexM0\ARM_GCC_541\Debug\start_v11.a(ADC_INT.o)
 .debug_abbrev  0x00002638       0xaa .\CortexM0\ARM_GCC_541\Debug\start_v11.a(CE.o)
 .debug_abbrev  0x000026e2       0xaa .\CortexM0\ARM_GCC_541\Debug\start_v11.a(RST.o)
 .debug_abbrev  0x0000278c       0xaa .\CortexM0\ARM_GCC_541\Debug\start_v11.a(DC.o)
 .debug_abbrev  0x00002836       0xaa .\CortexM0\ARM_GCC_541\Debug\start_v11.a(LCD_BL.o)
 .debug_abbrev  0x000028e0       0xfc .\CortexM0\ARM_GCC_541\Debug\start_v11.a(TimerTestMode.o)
 .debug_abbrev  0x000029dc      0x16a .\CortexM0\ARM_GCC_541\Debug\start_v11.a(Int_timerTestMode.o)
 .debug_abbrev  0x00002b46       0xaa .\CortexM0\ARM_GCC_541\Debug\start_v11.a(Pin_testMode.o)
 .debug_abbrev  0x00002bf0       0xaa .\CortexM0\ARM_GCC_541\Debug\start_v11.a(SW_RunTestMode.o)
 .debug_abbrev  0x00002c9a       0xaa .\CortexM0\ARM_GCC_541\Debug\start_v11.a(LED_RED_PIN.o)
 .debug_abbrev  0x00002d44       0xaa .\CortexM0\ARM_GCC_541\Debug\start_v11.a(LED_GREEN_PIN.o)
 .debug_abbrev  0x00002dee       0xfc .\CortexM0\ARM_GCC_541\Debug\start_v11.a(Timer.o)
 .debug_abbrev  0x00002eea      0x16a .\CortexM0\ARM_GCC_541\Debug\start_v11.a(isr_timer.o)
 .debug_abbrev  0x00003054       0xaa .\CortexM0\ARM_GCC_541\Debug\start_v11.a(BtnUp.o)
 .debug_abbrev  0x000030fe       0xaa .\CortexM0\ARM_GCC_541\Debug\start_v11.a(BtnDown.o)
 .debug_abbrev  0x000031a8      0x16a .\CortexM0\ARM_GCC_541\Debug\start_v11.a(BUTT_DOWN_INT.o)
 .debug_abbrev  0x00003312      0x16a .\CortexM0\ARM_GCC_541\Debug\start_v11.a(BUTT_UP_INT.o)
 .debug_abbrev  0x0000347c       0x14 .\CortexM0\ARM_GCC_541\Debug\start_v11.a(CyBootAsmGnu.o)
 .debug_abbrev  0x00003490       0x9a .\CortexM0\ARM_GCC_541\Debug\start_v11.a(UART_XB_SPI_UART_INT.o)

.debug_line     0x00000000     0x6439
 *(.debug_line)
 .debug_line    0x00000000      0x2ec .\CortexM0\ARM_GCC_541\Debug\RTC_WDT.o
 .debug_line    0x000002ec      0x39f .\CortexM0\ARM_GCC_541\Debug\display.o
 .debug_line    0x0000068b       0x4a .\CortexM0\ARM_GCC_541\Debug\DefaultFonts.o
 .debug_line    0x000006d5      0x154 .\CortexM0\ARM_GCC_541\Debug\Graphics.o
 .debug_line    0x00000829      0x860 .\CortexM0\ARM_GCC_541\Debug\LCD5110_Graph.o
 .debug_line    0x00001089      0x1c6 .\CortexM0\ARM_GCC_541\Debug\gate.o
 .debug_line    0x0000124f      0x1c0 .\CortexM0\ARM_GCC_541\Debug\LED.o
 .debug_line    0x0000140f      0x1c2 .\CortexM0\ARM_GCC_541\Debug\crc32.o
 .debug_line    0x000015d1      0x25b .\CortexM0\ARM_GCC_541\Debug\svt.o
 .debug_line    0x0000182c      0x201 .\CortexM0\ARM_GCC_541\Debug\ntp.o
 .debug_line    0x00001a2d      0x384 .\CortexM0\ARM_GCC_541\Debug\network.o
 .debug_line    0x00001db1      0x162 .\CortexM0\ARM_GCC_541\Debug\batt.o
 .debug_line    0x00001f13      0x297 .\CortexM0\ARM_GCC_541\Debug\testMode.o
 .debug_line    0x000021aa      0x2d8 .\CortexM0\ARM_GCC_541\Debug\taskAutomat.o
 .debug_line    0x00002482      0x1dc .\CortexM0\ARM_GCC_541\Debug\IDskier.o
 .debug_line    0x0000265e      0x244 .\CortexM0\ARM_GCC_541\Debug\main.o
 .debug_line    0x000028a2      0x1d7 .\CortexM0\ARM_GCC_541\Debug\cyfitter_cfg.o
 .debug_line    0x00002a79      0x141 .\CortexM0\ARM_GCC_541\Debug\cymetadata.o
 .debug_line    0x00002bba      0x1c8 .\CortexM0\ARM_GCC_541\Debug\Cm0Start.o
 .debug_line    0x00002d82      0x4af .\CortexM0\ARM_GCC_541\Debug\start_v11.a(CyLib.o)
 .debug_line    0x00003231      0x721 .\CortexM0\ARM_GCC_541\Debug\start_v11.a(CyLFClk.o)
 .debug_line    0x00003952      0x49a .\CortexM0\ARM_GCC_541\Debug\start_v11.a(RTC.o)
 .debug_line    0x00003dec       0xbf .\CortexM0\ARM_GCC_541\Debug\start_v11.a(GatePin.o)
 .debug_line    0x00003eab      0x373 .\CortexM0\ARM_GCC_541\Debug\start_v11.a(Timer_LED.o)
 .debug_line    0x0000421e      0x15c .\CortexM0\ARM_GCC_541\Debug\start_v11.a(Int_Timer_Led.o)
 .debug_line    0x0000437a      0x11d .\CortexM0\ARM_GCC_541\Debug\start_v11.a(UART_XB.o)
 .debug_line    0x00004497      0x152 .\CortexM0\ARM_GCC_541\Debug\start_v11.a(UART_XB_SPI_UART.o)
 .debug_line    0x000045e9      0x1c5 .\CortexM0\ARM_GCC_541\Debug\start_v11.a(UART_XB_UART.o)
 .debug_line    0x000047ae      0x28e .\CortexM0\ARM_GCC_541\Debug\start_v11.a(SwSPI_Master.o)
 .debug_line    0x00004a3c      0x157 .\CortexM0\ARM_GCC_541\Debug\start_v11.a(GATE_INT.o)
 .debug_line    0x00004b93       0xbd .\CortexM0\ARM_GCC_541\Debug\start_v11.a(debug.o)
 .debug_line    0x00004c50      0x29a .\CortexM0\ARM_GCC_541\Debug\start_v11.a(ADC.o)
 .debug_line    0x00004eea       0x62 .\CortexM0\ARM_GCC_541\Debug\start_v11.a(ADC_INT.o)
 .debug_line    0x00004f4c       0xba .\CortexM0\ARM_GCC_541\Debug\start_v11.a(CE.o)
 .debug_line    0x00005006       0xbb .\CortexM0\ARM_GCC_541\Debug\start_v11.a(RST.o)
 .debug_line    0x000050c1       0xba .\CortexM0\ARM_GCC_541\Debug\start_v11.a(DC.o)
 .debug_line    0x0000517b       0xbe .\CortexM0\ARM_GCC_541\Debug\start_v11.a(LCD_BL.o)
 .debug_line    0x00005239      0x377 .\CortexM0\ARM_GCC_541\Debug\start_v11.a(TimerTestMode.o)
 .debug_line    0x000055b0      0x160 .\CortexM0\ARM_GCC_541\Debug\start_v11.a(Int_timerTestMode.o)
 .debug_line    0x00005710       0xc4 .\CortexM0\ARM_GCC_541\Debug\start_v11.a(Pin_testMode.o)
 .debug_line    0x000057d4       0xc6 .\CortexM0\ARM_GCC_541\Debug\start_v11.a(SW_RunTestMode.o)
 .debug_line    0x0000589a       0xc3 .\CortexM0\ARM_GCC_541\Debug\start_v11.a(LED_RED_PIN.o)
 .debug_line    0x0000595d       0xc5 .\CortexM0\ARM_GCC_541\Debug\start_v11.a(LED_GREEN_PIN.o)
 .debug_line    0x00005a22      0x36f .\CortexM0\ARM_GCC_541\Debug\start_v11.a(Timer.o)
 .debug_line    0x00005d91      0x158 .\CortexM0\ARM_GCC_541\Debug\start_v11.a(isr_timer.o)
 .debug_line    0x00005ee9       0xbd .\CortexM0\ARM_GCC_541\Debug\start_v11.a(BtnUp.o)
 .debug_line    0x00005fa6       0xbf .\CortexM0\ARM_GCC_541\Debug\start_v11.a(BtnDown.o)
 .debug_line    0x00006065      0x15c .\CortexM0\ARM_GCC_541\Debug\start_v11.a(BUTT_DOWN_INT.o)
 .debug_line    0x000061c1      0x15a .\CortexM0\ARM_GCC_541\Debug\start_v11.a(BUTT_UP_INT.o)
 .debug_line    0x0000631b       0x68 .\CortexM0\ARM_GCC_541\Debug\start_v11.a(CyBootAsmGnu.o)
 .debug_line    0x00006383       0xb6 .\CortexM0\ARM_GCC_541\Debug\start_v11.a(UART_XB_SPI_UART_INT.o)

.debug_frame    0x00000000     0x5bd8
 *(.debug_frame)
 .debug_frame   0x00000000      0x220 .\CortexM0\ARM_GCC_541\Debug\RTC_WDT.o
 .debug_frame   0x00000220      0x230 .\CortexM0\ARM_GCC_541\Debug\display.o
 .debug_frame   0x00000450      0x444 .\CortexM0\ARM_GCC_541\Debug\LCD5110_Graph.o
 .debug_frame   0x00000894       0xcc .\CortexM0\ARM_GCC_541\Debug\gate.o
 .debug_frame   0x00000960       0x88 .\CortexM0\ARM_GCC_541\Debug\LED.o
 .debug_frame   0x000009e8       0x90 .\CortexM0\ARM_GCC_541\Debug\crc32.o
 .debug_frame   0x00000a78       0xc4 .\CortexM0\ARM_GCC_541\Debug\svt.o
 .debug_frame   0x00000b3c       0x94 .\CortexM0\ARM_GCC_541\Debug\ntp.o
 .debug_frame   0x00000bd0      0x228 .\CortexM0\ARM_GCC_541\Debug\network.o
 .debug_frame   0x00000df8       0x4c .\CortexM0\ARM_GCC_541\Debug\batt.o
 .debug_frame   0x00000e44       0xbc .\CortexM0\ARM_GCC_541\Debug\testMode.o
 .debug_frame   0x00000f00      0x118 .\CortexM0\ARM_GCC_541\Debug\taskAutomat.o
 .debug_frame   0x00001018       0xb8 .\CortexM0\ARM_GCC_541\Debug\IDskier.o
 .debug_frame   0x000010d0       0xec .\CortexM0\ARM_GCC_541\Debug\main.o
 .debug_frame   0x000011bc      0x108 .\CortexM0\ARM_GCC_541\Debug\cyfitter_cfg.o
 .debug_frame   0x000012c4       0xc8 .\CortexM0\ARM_GCC_541\Debug\Cm0Start.o
 .debug_frame   0x0000138c      0x608 .\CortexM0\ARM_GCC_541\Debug\start_v11.a(CyLib.o)
 .debug_frame   0x00001994      0x5f8 .\CortexM0\ARM_GCC_541\Debug\start_v11.a(CyLFClk.o)
 .debug_frame   0x00001f8c      0x46c .\CortexM0\ARM_GCC_541\Debug\start_v11.a(RTC.o)
 .debug_frame   0x000023f8       0xc8 .\CortexM0\ARM_GCC_541\Debug\start_v11.a(GatePin.o)
 .debug_frame   0x000024c0      0x52c .\CortexM0\ARM_GCC_541\Debug\start_v11.a(Timer_LED.o)
 .debug_frame   0x000029ec      0x190 .\CortexM0\ARM_GCC_541\Debug\start_v11.a(Int_Timer_Led.o)
 .debug_frame   0x00002b7c      0x134 .\CortexM0\ARM_GCC_541\Debug\start_v11.a(UART_XB.o)
 .debug_frame   0x00002cb0      0x128 .\CortexM0\ARM_GCC_541\Debug\start_v11.a(UART_XB_SPI_UART.o)
 .debug_frame   0x00002dd8      0x1bc .\CortexM0\ARM_GCC_541\Debug\start_v11.a(UART_XB_UART.o)
 .debug_frame   0x00002f94      0x108 .\CortexM0\ARM_GCC_541\Debug\start_v11.a(SwSPI_Master.o)
 .debug_frame   0x0000309c      0x190 .\CortexM0\ARM_GCC_541\Debug\start_v11.a(GATE_INT.o)
 .debug_frame   0x0000322c       0xc8 .\CortexM0\ARM_GCC_541\Debug\start_v11.a(debug.o)
 .debug_frame   0x000032f4      0x248 .\CortexM0\ARM_GCC_541\Debug\start_v11.a(ADC.o)
 .debug_frame   0x0000353c       0x30 .\CortexM0\ARM_GCC_541\Debug\start_v11.a(ADC_INT.o)
 .debug_frame   0x0000356c       0xc8 .\CortexM0\ARM_GCC_541\Debug\start_v11.a(CE.o)
 .debug_frame   0x00003634       0xc8 .\CortexM0\ARM_GCC_541\Debug\start_v11.a(RST.o)
 .debug_frame   0x000036fc       0xc8 .\CortexM0\ARM_GCC_541\Debug\start_v11.a(DC.o)
 .debug_frame   0x000037c4       0xc8 .\CortexM0\ARM_GCC_541\Debug\start_v11.a(LCD_BL.o)
 .debug_frame   0x0000388c      0x52c .\CortexM0\ARM_GCC_541\Debug\start_v11.a(TimerTestMode.o)
 .debug_frame   0x00003db8      0x190 .\CortexM0\ARM_GCC_541\Debug\start_v11.a(Int_timerTestMode.o)
 .debug_frame   0x00003f48       0xc8 .\CortexM0\ARM_GCC_541\Debug\start_v11.a(Pin_testMode.o)
 .debug_frame   0x00004010       0xc8 .\CortexM0\ARM_GCC_541\Debug\start_v11.a(SW_RunTestMode.o)
 .debug_frame   0x000040d8       0xc8 .\CortexM0\ARM_GCC_541\Debug\start_v11.a(LED_RED_PIN.o)
 .debug_frame   0x000041a0       0xc8 .\CortexM0\ARM_GCC_541\Debug\start_v11.a(LED_GREEN_PIN.o)
 .debug_frame   0x00004268      0x52c .\CortexM0\ARM_GCC_541\Debug\start_v11.a(Timer.o)
 .debug_frame   0x00004794      0x190 .\CortexM0\ARM_GCC_541\Debug\start_v11.a(isr_timer.o)
 .debug_frame   0x00004924       0xc8 .\CortexM0\ARM_GCC_541\Debug\start_v11.a(BtnUp.o)
 .debug_frame   0x000049ec       0xc8 .\CortexM0\ARM_GCC_541\Debug\start_v11.a(BtnDown.o)
 .debug_frame   0x00004ab4      0x190 .\CortexM0\ARM_GCC_541\Debug\start_v11.a(BUTT_DOWN_INT.o)
 .debug_frame   0x00004c44      0x190 .\CortexM0\ARM_GCC_541\Debug\start_v11.a(BUTT_UP_INT.o)
 .debug_frame   0x00004dd4       0x30 .\CortexM0\ARM_GCC_541\Debug\start_v11.a(UART_XB_SPI_UART_INT.o)
 .debug_frame   0x00004e04       0x20 c:/program files (x86)/cypress/psoc creator/4.1/psoc creator/import/gnu/arm/5.4.1/bin/../lib/gcc/arm-none-eabi/5.4.1/armv6-m\libgcc.a(_udivsi3.o)
 .debug_frame   0x00004e24       0x20 c:/program files (x86)/cypress/psoc creator/4.1/psoc creator/import/gnu/arm/5.4.1/bin/../lib/gcc/arm-none-eabi/5.4.1/armv6-m\libgcc.a(_divsi3.o)
 .debug_frame   0x00004e44       0x34 c:/program files (x86)/cypress/psoc creator/4.1/psoc creator/import/gnu/arm/5.4.1/bin/../lib/gcc/arm-none-eabi/5.4.1/armv6-m\libgcc.a(_muldi3.o)
 .debug_frame   0x00004e78       0x3c c:/program files (x86)/cypress/psoc creator/4.1/psoc creator/import/gnu/arm/5.4.1/bin/../lib/gcc/arm-none-eabi/5.4.1/armv6-m\libgcc.a(_udivmoddi4.o)
 .debug_frame   0x00004eb4       0x30 c:/program files (x86)/cypress/psoc creator/4.1/psoc creator/import/gnu/arm/5.4.1/bin/../lib/gcc/arm-none-eabi/5.4.1/armv6-m\libgcc.a(bpabi.o)
 .debug_frame   0x00004ee4       0x3c c:/program files (x86)/cypress/psoc creator/4.1/psoc creator/import/gnu/arm/5.4.1/bin/../lib/gcc/arm-none-eabi/5.4.1/armv6-m\libgcc.a(divsf3.o)
 .debug_frame   0x00004f20       0x2c c:/program files (x86)/cypress/psoc creator/4.1/psoc creator/import/gnu/arm/5.4.1/bin/../lib/gcc/arm-none-eabi/5.4.1/armv6-m\libgcc.a(eqsf2.o)
 .debug_frame   0x00004f4c       0x30 c:/program files (x86)/cypress/psoc creator/4.1/psoc creator/import/gnu/arm/5.4.1/bin/../lib/gcc/arm-none-eabi/5.4.1/armv6-m\libgcc.a(gesf2.o)
 .debug_frame   0x00004f7c       0x30 c:/program files (x86)/cypress/psoc creator/4.1/psoc creator/import/gnu/arm/5.4.1/bin/../lib/gcc/arm-none-eabi/5.4.1/armv6-m\libgcc.a(lesf2.o)
 .debug_frame   0x00004fac       0x38 c:/program files (x86)/cypress/psoc creator/4.1/psoc creator/import/gnu/arm/5.4.1/bin/../lib/gcc/arm-none-eabi/5.4.1/armv6-m\libgcc.a(mulsf3.o)
 .debug_frame   0x00004fe4       0x2c c:/program files (x86)/cypress/psoc creator/4.1/psoc creator/import/gnu/arm/5.4.1/bin/../lib/gcc/arm-none-eabi/5.4.1/armv6-m\libgcc.a(floatsisf.o)
 .debug_frame   0x00005010       0x3c c:/program files (x86)/cypress/psoc creator/4.1/psoc creator/import/gnu/arm/5.4.1/bin/../lib/gcc/arm-none-eabi/5.4.1/armv6-m\libgcc.a(adddf3.o)
 .debug_frame   0x0000504c       0x3c c:/program files (x86)/cypress/psoc creator/4.1/psoc creator/import/gnu/arm/5.4.1/bin/../lib/gcc/arm-none-eabi/5.4.1/armv6-m\libgcc.a(divdf3.o)
 .debug_frame   0x00005088       0x38 c:/program files (x86)/cypress/psoc creator/4.1/psoc creator/import/gnu/arm/5.4.1/bin/../lib/gcc/arm-none-eabi/5.4.1/armv6-m\libgcc.a(eqdf2.o)
 .debug_frame   0x000050c0       0x38 c:/program files (x86)/cypress/psoc creator/4.1/psoc creator/import/gnu/arm/5.4.1/bin/../lib/gcc/arm-none-eabi/5.4.1/armv6-m\libgcc.a(gedf2.o)
 .debug_frame   0x000050f8       0x38 c:/program files (x86)/cypress/psoc creator/4.1/psoc creator/import/gnu/arm/5.4.1/bin/../lib/gcc/arm-none-eabi/5.4.1/armv6-m\libgcc.a(ledf2.o)
 .debug_frame   0x00005130       0x38 c:/program files (x86)/cypress/psoc creator/4.1/psoc creator/import/gnu/arm/5.4.1/bin/../lib/gcc/arm-none-eabi/5.4.1/armv6-m\libgcc.a(subdf3.o)
 .debug_frame   0x00005168       0x2c c:/program files (x86)/cypress/psoc creator/4.1/psoc creator/import/gnu/arm/5.4.1/bin/../lib/gcc/arm-none-eabi/5.4.1/armv6-m\libgcc.a(fixdfsi.o)
 .debug_frame   0x00005194       0x2c c:/program files (x86)/cypress/psoc creator/4.1/psoc creator/import/gnu/arm/5.4.1/bin/../lib/gcc/arm-none-eabi/5.4.1/armv6-m\libgcc.a(floatsidf.o)
 .debug_frame   0x000051c0       0x2c c:/program files (x86)/cypress/psoc creator/4.1/psoc creator/import/gnu/arm/5.4.1/bin/../lib/gcc/arm-none-eabi/5.4.1/armv6-m\libgcc.a(extendsfdf2.o)
 .debug_frame   0x000051ec       0x3c c:/program files (x86)/cypress/psoc creator/4.1/psoc creator/import/gnu/arm/5.4.1/bin/../lib/gcc/arm-none-eabi/5.4.1/armv6-m\libgcc.a(_divdi3.o)
 .debug_frame   0x00005228       0x20 c:/program files (x86)/cypress/psoc creator/4.1/psoc creator/import/gnu/arm/5.4.1/bin/../lib/gcc/arm-none-eabi/5.4.1/../../../../arm-none-eabi/lib/armv6-m\libg.a(lib_a-errno.o)
 .debug_frame   0x00005248       0x28 c:/program files (x86)/cypress/psoc creator/4.1/psoc creator/import/gnu/arm/5.4.1/bin/../lib/gcc/arm-none-eabi/5.4.1/../../../../arm-none-eabi/lib/armv6-m\libg.a(lib_a-exit.o)
 .debug_frame   0x00005270       0x2c c:/program files (x86)/cypress/psoc creator/4.1/psoc creator/import/gnu/arm/5.4.1/bin/../lib/gcc/arm-none-eabi/5.4.1/../../../../arm-none-eabi/lib/armv6-m\libg.a(lib_a-init.o)
 .debug_frame   0x0000529c       0x2c c:/program files (x86)/cypress/psoc creator/4.1/psoc creator/import/gnu/arm/5.4.1/bin/../lib/gcc/arm-none-eabi/5.4.1/../../../../arm-none-eabi/lib/armv6-m\libg.a(lib_a-memcpy-stub.o)
 .debug_frame   0x000052c8       0x2c c:/program files (x86)/cypress/psoc creator/4.1/psoc creator/import/gnu/arm/5.4.1/bin/../lib/gcc/arm-none-eabi/5.4.1/../../../../arm-none-eabi/lib/armv6-m\libg.a(lib_a-memset.o)
 .debug_frame   0x000052f4       0x38 c:/program files (x86)/cypress/psoc creator/4.1/psoc creator/import/gnu/arm/5.4.1/bin/../lib/gcc/arm-none-eabi/5.4.1/../../../../arm-none-eabi/lib/armv6-m\libg.a(lib_a-rand.o)
 .debug_frame   0x0000532c       0x50 c:/program files (x86)/cypress/psoc creator/4.1/psoc creator/import/gnu/arm/5.4.1/bin/../lib/gcc/arm-none-eabi/5.4.1/../../../../arm-none-eabi/lib/armv6-m\libg.a(lib_a-sprintf.o)
 .debug_frame   0x0000537c       0x2c c:/program files (x86)/cypress/psoc creator/4.1/psoc creator/import/gnu/arm/5.4.1/bin/../lib/gcc/arm-none-eabi/5.4.1/../../../../arm-none-eabi/lib/armv6-m\libg.a(lib_a-strcat.o)
 .debug_frame   0x000053a8       0x20 c:/program files (x86)/cypress/psoc creator/4.1/psoc creator/import/gnu/arm/5.4.1/bin/../lib/gcc/arm-none-eabi/5.4.1/../../../../arm-none-eabi/lib/armv6-m\libg.a(lib_a-strcpy.o)
 .debug_frame   0x000053c8       0x28 c:/program files (x86)/cypress/psoc creator/4.1/psoc creator/import/gnu/arm/5.4.1/bin/../lib/gcc/arm-none-eabi/5.4.1/../../../../arm-none-eabi/lib/armv6-m\libg.a(lib_a-strlen-stub.o)
 .debug_frame   0x000053f0       0x2c c:/program files (x86)/cypress/psoc creator/4.1/psoc creator/import/gnu/arm/5.4.1/bin/../lib/gcc/arm-none-eabi/5.4.1/../../../../arm-none-eabi/lib/armv6-m\libg.a(lib_a-strncat.o)
 .debug_frame   0x0000541c       0x2c c:/program files (x86)/cypress/psoc creator/4.1/psoc creator/import/gnu/arm/5.4.1/bin/../lib/gcc/arm-none-eabi/5.4.1/../../../../arm-none-eabi/lib/armv6-m\libg.a(lib_a-strncpy.o)
 .debug_frame   0x00005448       0x3c c:/program files (x86)/cypress/psoc creator/4.1/psoc creator/import/gnu/arm/5.4.1/bin/../lib/gcc/arm-none-eabi/5.4.1/../../../../arm-none-eabi/lib/armv6-m\libg.a(lib_a-svfprintf.o)
 .debug_frame   0x00005484       0x54 c:/program files (x86)/cypress/psoc creator/4.1/psoc creator/import/gnu/arm/5.4.1/bin/../lib/gcc/arm-none-eabi/5.4.1/../../../../arm-none-eabi/lib/armv6-m\libg.a(lib_a-__call_atexit.o)
 .debug_frame   0x000054d8       0x28 c:/program files (x86)/cypress/psoc creator/4.1/psoc creator/import/gnu/arm/5.4.1/bin/../lib/gcc/arm-none-eabi/5.4.1/../../../../arm-none-eabi/lib/armv6-m\libg.a(lib_a-atexit.o)
 .debug_frame   0x00005500       0x68 c:/program files (x86)/cypress/psoc creator/4.1/psoc creator/import/gnu/arm/5.4.1/bin/../lib/gcc/arm-none-eabi/5.4.1/../../../../arm-none-eabi/lib/armv6-m\libg.a(lib_a-dtoa.o)
 .debug_frame   0x00005568       0x2c c:/program files (x86)/cypress/psoc creator/4.1/psoc creator/import/gnu/arm/5.4.1/bin/../lib/gcc/arm-none-eabi/5.4.1/../../../../arm-none-eabi/lib/armv6-m\libg.a(lib_a-fini.o)
 .debug_frame   0x00005594       0xa4 c:/program files (x86)/cypress/psoc creator/4.1/psoc creator/import/gnu/arm/5.4.1/bin/../lib/gcc/arm-none-eabi/5.4.1/../../../../arm-none-eabi/lib/armv6-m\libg.a(lib_a-locale.o)
 .debug_frame   0x00005638       0x3c c:/program files (x86)/cypress/psoc creator/4.1/psoc creator/import/gnu/arm/5.4.1/bin/../lib/gcc/arm-none-eabi/5.4.1/../../../../arm-none-eabi/lib/armv6-m\libg.a(lib_a-mallocr.o)
 .debug_frame   0x00005674       0x2c c:/program files (x86)/cypress/psoc creator/4.1/psoc creator/import/gnu/arm/5.4.1/bin/../lib/gcc/arm-none-eabi/5.4.1/../../../../arm-none-eabi/lib/armv6-m\libg.a(lib_a-memchr-stub.o)
 .debug_frame   0x000056a0       0x30 c:/program files (x86)/cypress/psoc creator/4.1/psoc creator/import/gnu/arm/5.4.1/bin/../lib/gcc/arm-none-eabi/5.4.1/../../../../arm-none-eabi/lib/armv6-m\libg.a(lib_a-mlock.o)
 .debug_frame   0x000056d0      0x258 c:/program files (x86)/cypress/psoc creator/4.1/psoc creator/import/gnu/arm/5.4.1/bin/../lib/gcc/arm-none-eabi/5.4.1/../../../../arm-none-eabi/lib/armv6-m\libg.a(lib_a-mprec.o)
 .debug_frame   0x00005928       0x2c c:/program files (x86)/cypress/psoc creator/4.1/psoc creator/import/gnu/arm/5.4.1/bin/../lib/gcc/arm-none-eabi/5.4.1/../../../../arm-none-eabi/lib/armv6-m\libg.a(lib_a-sbrkr.o)
 .debug_frame   0x00005954       0x20 c:/program files (x86)/cypress/psoc creator/4.1/psoc creator/import/gnu/arm/5.4.1/bin/../lib/gcc/arm-none-eabi/5.4.1/../../../../arm-none-eabi/lib/armv6-m\libg.a(lib_a-strcmp.o)
 .debug_frame   0x00005974       0x68 c:/program files (x86)/cypress/psoc creator/4.1/psoc creator/import/gnu/arm/5.4.1/bin/../lib/gcc/arm-none-eabi/5.4.1/../../../../arm-none-eabi/lib/armv6-m\libg.a(lib_a-svfiprintf.o)
 .debug_frame   0x000059dc       0x3c c:/program files (x86)/cypress/psoc creator/4.1/psoc creator/import/gnu/arm/5.4.1/bin/../lib/gcc/arm-none-eabi/5.4.1/../../../../arm-none-eabi/lib/armv6-m\libg.a(lib_a-__atexit.o)
 .debug_frame   0x00005a18       0x28 c:/program files (x86)/cypress/psoc creator/4.1/psoc creator/import/gnu/arm/5.4.1/bin/../lib/gcc/arm-none-eabi/5.4.1/../../../../arm-none-eabi/lib/armv6-m\libg.a(lib_a-callocr.o)
 .debug_frame   0x00005a40       0x54 c:/program files (x86)/cypress/psoc creator/4.1/psoc creator/import/gnu/arm/5.4.1/bin/../lib/gcc/arm-none-eabi/5.4.1/../../../../arm-none-eabi/lib/armv6-m\libg.a(lib_a-freer.o)
 .debug_frame   0x00005a94       0x2c c:/program files (x86)/cypress/psoc creator/4.1/psoc creator/import/gnu/arm/5.4.1/bin/../lib/gcc/arm-none-eabi/5.4.1/../../../../arm-none-eabi/lib/armv6-m\libg.a(lib_a-memmove.o)
 .debug_frame   0x00005ac0       0x3c c:/program files (x86)/cypress/psoc creator/4.1/psoc creator/import/gnu/arm/5.4.1/bin/../lib/gcc/arm-none-eabi/5.4.1/../../../../arm-none-eabi/lib/armv6-m\libg.a(lib_a-reallocr.o)
 .debug_frame   0x00005afc       0x48 c:/program files (x86)/cypress/psoc creator/4.1/psoc creator/import/gnu/arm/5.4.1/bin/../lib/gcc/arm-none-eabi/5.4.1/../../../../arm-none-eabi/lib/armv6-m\libg.a(lib_a-reent.o)
 .debug_frame   0x00005b44       0x3c c:/program files (x86)/cypress/psoc creator/4.1/psoc creator/import/gnu/arm/5.4.1/bin/../lib/gcc/arm-none-eabi/5.4.1/armv6-m\libgcc.a(muldf3.o)
 .debug_frame   0x00005b80       0x2c c:/program files (x86)/cypress/psoc creator/4.1/psoc creator/import/gnu/arm/5.4.1/bin/../lib/gcc/arm-none-eabi/5.4.1/armv6-m\libgcc.a(unorddf2.o)
 .debug_frame   0x00005bac       0x2c c:/program files (x86)/cypress/psoc creator/4.1/psoc creator/import/gnu/arm/5.4.1/bin/../lib/gcc/arm-none-eabi/5.4.1/armv6-m\libgcc.a(floatunsidf.o)

.debug_str      0x00000000     0x4792
 *(.debug_str)
 .debug_str     0x00000000      0x2f1 .\CortexM0\ARM_GCC_541\Debug\RTC_WDT.o
                                0x35b (size before relaxing)
 .debug_str     0x000002f1      0x248 .\CortexM0\ARM_GCC_541\Debug\display.o
                                0x452 (size before relaxing)
 .debug_str     0x00000539       0x35 .\CortexM0\ARM_GCC_541\Debug\DefaultFonts.o
                                0x137 (size before relaxing)
 .debug_str     0x0000056e       0x32 .\CortexM0\ARM_GCC_541\Debug\Graphics.o
                                0x236 (size before relaxing)
 .debug_str     0x000005a0      0x1d4 .\CortexM0\ARM_GCC_541\Debug\LCD5110_Graph.o
                                0x3e7 (size before relaxing)
 .debug_str     0x00000774       0x88 .\CortexM0\ARM_GCC_541\Debug\gate.o
                                0x294 (size before relaxing)
 .debug_str     0x000007fc       0x7e .\CortexM0\ARM_GCC_541\Debug\LED.o
                                0x282 (size before relaxing)
 .debug_str     0x0000087a       0x71 .\CortexM0\ARM_GCC_541\Debug\crc32.o
                                0x1f8 (size before relaxing)
 .debug_str     0x000008eb      0x100 .\CortexM0\ARM_GCC_541\Debug\svt.o
                                0x390 (size before relaxing)
 .debug_str     0x000009eb      0x171 .\CortexM0\ARM_GCC_541\Debug\ntp.o
                                0x341 (size before relaxing)
 .debug_str     0x00000b5c      0x343 .\CortexM0\ARM_GCC_541\Debug\network.o
                                0x5e2 (size before relaxing)
 .debug_str     0x00000e9f       0x53 .\CortexM0\ARM_GCC_541\Debug\batt.o
                                0x1d8 (size before relaxing)
 .debug_str     0x00000ef2      0x125 .\CortexM0\ARM_GCC_541\Debug\testMode.o
                                0x325 (size before relaxing)
 .debug_str     0x00001017       0xdb .\CortexM0\ARM_GCC_541\Debug\taskAutomat.o
                                0x2eb (size before relaxing)
 .debug_str     0x000010f2       0xb2 .\CortexM0\ARM_GCC_541\Debug\IDskier.o
                                0x239 (size before relaxing)
 .debug_str     0x000011a4       0x70 .\CortexM0\ARM_GCC_541\Debug\main.o
                                0x289 (size before relaxing)
 .debug_str     0x00001214      0x135 .\CortexM0\ARM_GCC_541\Debug\cyfitter_cfg.o
                                0x2e1 (size before relaxing)
 .debug_str     0x00001349       0x59 .\CortexM0\ARM_GCC_541\Debug\cymetadata.o
                                0x1c2 (size before relaxing)
 .debug_str     0x000013a2      0x114 .\CortexM0\ARM_GCC_541\Debug\Cm0Start.o
                                0x2c8 (size before relaxing)
 .debug_str     0x000014b6      0x4dd .\CortexM0\ARM_GCC_541\Debug\start_v11.a(CyLib.o)
                                0x6b3 (size before relaxing)
 .debug_str     0x00001993      0x715 .\CortexM0\ARM_GCC_541\Debug\start_v11.a(CyLFClk.o)
                                0x8f4 (size before relaxing)
 .debug_str     0x000020a8      0x39b .\CortexM0\ARM_GCC_541\Debug\start_v11.a(RTC.o)
                                0x5c6 (size before relaxing)
 .debug_str     0x00002443       0xb9 .\CortexM0\ARM_GCC_541\Debug\start_v11.a(GatePin.o)
                                0x23e (size before relaxing)
 .debug_str     0x000024fc      0x48e .\CortexM0\ARM_GCC_541\Debug\start_v11.a(Timer_LED.o)
                                0x626 (size before relaxing)
 .debug_str     0x0000298a      0x165 .\CortexM0\ARM_GCC_541\Debug\start_v11.a(Int_Timer_Led.o)
                                0x327 (size before relaxing)
 .debug_str     0x00002aef      0x14a .\CortexM0\ARM_GCC_541\Debug\start_v11.a(UART_XB.o)
                                0x2d9 (size before relaxing)
 .debug_str     0x00002c39      0x202 .\CortexM0\ARM_GCC_541\Debug\start_v11.a(UART_XB_SPI_UART.o)
                                0x395 (size before relaxing)
 .debug_str     0x00002e3b      0x1bc .\CortexM0\ARM_GCC_541\Debug\start_v11.a(UART_XB_UART.o)
                                0x3e0 (size before relaxing)
 .debug_str     0x00002ff7      0x102 .\CortexM0\ARM_GCC_541\Debug\start_v11.a(SwSPI_Master.o)
                                0x2d5 (size before relaxing)
 .debug_str     0x000030f9      0x110 .\CortexM0\ARM_GCC_541\Debug\start_v11.a(GATE_INT.o)
                                0x2e1 (size before relaxing)
 .debug_str     0x00003209       0x87 .\CortexM0\ARM_GCC_541\Debug\start_v11.a(debug.o)
                                0x230 (size before relaxing)
 .debug_str     0x00003290      0x1bb .\CortexM0\ARM_GCC_541\Debug\start_v11.a(ADC.o)
                                0x38d (size before relaxing)
 .debug_str     0x0000344b       0x35 .\CortexM0\ARM_GCC_541\Debug\start_v11.a(ADC_INT.o)
                                0x1b7 (size before relaxing)
 .debug_str     0x00003480       0x72 .\CortexM0\ARM_GCC_541\Debug\start_v11.a(CE.o)
                                0x21b (size before relaxing)
 .debug_str     0x000034f2       0x79 .\CortexM0\ARM_GCC_541\Debug\start_v11.a(RST.o)
                                0x222 (size before relaxing)
 .debug_str     0x0000356b       0x72 .\CortexM0\ARM_GCC_541\Debug\start_v11.a(DC.o)
                                0x21b (size before relaxing)
 .debug_str     0x000035dd       0x8e .\CortexM0\ARM_GCC_541\Debug\start_v11.a(LCD_BL.o)
                                0x237 (size before relaxing)
 .debug_str     0x0000366b      0x477 .\CortexM0\ARM_GCC_541\Debug\start_v11.a(TimerTestMode.o)
                                0x6ce (size before relaxing)
 .debug_str     0x00003ae2      0x18e .\CortexM0\ARM_GCC_541\Debug\start_v11.a(Int_timerTestMode.o)
                                0x35f (size before relaxing)
 .debug_str     0x00003c70       0xb8 .\CortexM0\ARM_GCC_541\Debug\start_v11.a(Pin_testMode.o)
                                0x261 (size before relaxing)
 .debug_str     0x00003d28       0xc6 .\CortexM0\ARM_GCC_541\Debug\start_v11.a(SW_RunTestMode.o)
                                0x26f (size before relaxing)
 .debug_str     0x00003dee       0xb1 .\CortexM0\ARM_GCC_541\Debug\start_v11.a(LED_RED_PIN.o)
                                0x25a (size before relaxing)
 .debug_str     0x00003e9f       0xbf .\CortexM0\ARM_GCC_541\Debug\start_v11.a(LED_GREEN_PIN.o)
                                0x268 (size before relaxing)
 .debug_str     0x00003f5e      0x327 .\CortexM0\ARM_GCC_541\Debug\start_v11.a(Timer.o)
                                0x57e (size before relaxing)
 .debug_str     0x00004285      0x11e .\CortexM0\ARM_GCC_541\Debug\start_v11.a(isr_timer.o)
                                0x2ef (size before relaxing)
 .debug_str     0x000043a3       0x87 .\CortexM0\ARM_GCC_541\Debug\start_v11.a(BtnUp.o)
                                0x230 (size before relaxing)
 .debug_str     0x0000442a       0x95 .\CortexM0\ARM_GCC_541\Debug\start_v11.a(BtnDown.o)
                                0x23e (size before relaxing)
 .debug_str     0x000044bf      0x156 .\CortexM0\ARM_GCC_541\Debug\start_v11.a(BUTT_DOWN_INT.o)
                                0x327 (size before relaxing)
 .debug_str     0x00004615      0x13a .\CortexM0\ARM_GCC_541\Debug\start_v11.a(BUTT_UP_INT.o)
                                0x30b (size before relaxing)
 .debug_str     0x0000474f       0x43 .\CortexM0\ARM_GCC_541\Debug\start_v11.a(UART_XB_SPI_UART_INT.o)
                                0x2a1 (size before relaxing)

.debug_loc
 *(.debug_loc)

.debug_macinfo
 *(.debug_macinfo)

.debug_ranges   0x00000000     0x1488
 *(.debug_ranges)
 .debug_ranges  0x00000000       0x80 .\CortexM0\ARM_GCC_541\Debug\RTC_WDT.o
 .debug_ranges  0x00000080       0x90 .\CortexM0\ARM_GCC_541\Debug\display.o
 .debug_ranges  0x00000110      0x110 .\CortexM0\ARM_GCC_541\Debug\LCD5110_Graph.o
 .debug_ranges  0x00000220       0x38 .\CortexM0\ARM_GCC_541\Debug\gate.o
 .debug_ranges  0x00000258       0x28 .\CortexM0\ARM_GCC_541\Debug\LED.o
 .debug_ranges  0x00000280       0x28 .\CortexM0\ARM_GCC_541\Debug\crc32.o
 .debug_ranges  0x000002a8       0x30 .\CortexM0\ARM_GCC_541\Debug\svt.o
 .debug_ranges  0x000002d8       0x28 .\CortexM0\ARM_GCC_541\Debug\ntp.o
 .debug_ranges  0x00000300       0x88 .\CortexM0\ARM_GCC_541\Debug\network.o
 .debug_ranges  0x00000388       0x18 .\CortexM0\ARM_GCC_541\Debug\batt.o
 .debug_ranges  0x000003a0       0x38 .\CortexM0\ARM_GCC_541\Debug\testMode.o
 .debug_ranges  0x000003d8       0x50 .\CortexM0\ARM_GCC_541\Debug\taskAutomat.o
 .debug_ranges  0x00000428       0x38 .\CortexM0\ARM_GCC_541\Debug\IDskier.o
 .debug_ranges  0x00000460       0x40 .\CortexM0\ARM_GCC_541\Debug\main.o
 .debug_ranges  0x000004a0       0x48 .\CortexM0\ARM_GCC_541\Debug\cyfitter_cfg.o
 .debug_ranges  0x000004e8       0x38 .\CortexM0\ARM_GCC_541\Debug\Cm0Start.o
 .debug_ranges  0x00000520      0x190 .\CortexM0\ARM_GCC_541\Debug\start_v11.a(CyLib.o)
 .debug_ranges  0x000006b0      0x188 .\CortexM0\ARM_GCC_541\Debug\start_v11.a(CyLFClk.o)
 .debug_ranges  0x00000838      0x118 .\CortexM0\ARM_GCC_541\Debug\start_v11.a(RTC.o)
 .debug_ranges  0x00000950       0x38 .\CortexM0\ARM_GCC_541\Debug\start_v11.a(GatePin.o)
 .debug_ranges  0x00000988      0x148 .\CortexM0\ARM_GCC_541\Debug\start_v11.a(Timer_LED.o)
 .debug_ranges  0x00000ad0       0x70 .\CortexM0\ARM_GCC_541\Debug\start_v11.a(Int_Timer_Led.o)
 .debug_ranges  0x00000b40       0x58 .\CortexM0\ARM_GCC_541\Debug\start_v11.a(UART_XB.o)
 .debug_ranges  0x00000b98       0x50 .\CortexM0\ARM_GCC_541\Debug\start_v11.a(UART_XB_SPI_UART.o)
 .debug_ranges  0x00000be8       0x78 .\CortexM0\ARM_GCC_541\Debug\start_v11.a(UART_XB_UART.o)
 .debug_ranges  0x00000c60       0x48 .\CortexM0\ARM_GCC_541\Debug\start_v11.a(SwSPI_Master.o)
 .debug_ranges  0x00000ca8       0x70 .\CortexM0\ARM_GCC_541\Debug\start_v11.a(GATE_INT.o)
 .debug_ranges  0x00000d18       0x38 .\CortexM0\ARM_GCC_541\Debug\start_v11.a(debug.o)
 .debug_ranges  0x00000d50       0x98 .\CortexM0\ARM_GCC_541\Debug\start_v11.a(ADC.o)
 .debug_ranges  0x00000de8       0x10 .\CortexM0\ARM_GCC_541\Debug\start_v11.a(ADC_INT.o)
 .debug_ranges  0x00000df8       0x38 .\CortexM0\ARM_GCC_541\Debug\start_v11.a(CE.o)
 .debug_ranges  0x00000e30       0x38 .\CortexM0\ARM_GCC_541\Debug\start_v11.a(RST.o)
 .debug_ranges  0x00000e68       0x38 .\CortexM0\ARM_GCC_541\Debug\start_v11.a(DC.o)
 .debug_ranges  0x00000ea0       0x38 .\CortexM0\ARM_GCC_541\Debug\start_v11.a(LCD_BL.o)
 .debug_ranges  0x00000ed8      0x148 .\CortexM0\ARM_GCC_541\Debug\start_v11.a(TimerTestMode.o)
 .debug_ranges  0x00001020       0x70 .\CortexM0\ARM_GCC_541\Debug\start_v11.a(Int_timerTestMode.o)
 .debug_ranges  0x00001090       0x38 .\CortexM0\ARM_GCC_541\Debug\start_v11.a(Pin_testMode.o)
 .debug_ranges  0x000010c8       0x38 .\CortexM0\ARM_GCC_541\Debug\start_v11.a(SW_RunTestMode.o)
 .debug_ranges  0x00001100       0x38 .\CortexM0\ARM_GCC_541\Debug\start_v11.a(LED_RED_PIN.o)
 .debug_ranges  0x00001138       0x38 .\CortexM0\ARM_GCC_541\Debug\start_v11.a(LED_GREEN_PIN.o)
 .debug_ranges  0x00001170      0x148 .\CortexM0\ARM_GCC_541\Debug\start_v11.a(Timer.o)
 .debug_ranges  0x000012b8       0x70 .\CortexM0\ARM_GCC_541\Debug\start_v11.a(isr_timer.o)
 .debug_ranges  0x00001328       0x38 .\CortexM0\ARM_GCC_541\Debug\start_v11.a(BtnUp.o)
 .debug_ranges  0x00001360       0x38 .\CortexM0\ARM_GCC_541\Debug\start_v11.a(BtnDown.o)
 .debug_ranges  0x00001398       0x70 .\CortexM0\ARM_GCC_541\Debug\start_v11.a(BUTT_DOWN_INT.o)
 .debug_ranges  0x00001408       0x70 .\CortexM0\ARM_GCC_541\Debug\start_v11.a(BUTT_UP_INT.o)
 .debug_ranges  0x00001478       0x10 .\CortexM0\ARM_GCC_541\Debug\start_v11.a(UART_XB_SPI_UART_INT.o)

.comment        0x00000000       0x6e
 .comment       0x00000000       0x6e .\CortexM0\ARM_GCC_541\Debug\RTC_WDT.o
                                 0x6f (size before relaxing)
 .comment       0x0000006e       0x6f .\CortexM0\ARM_GCC_541\Debug\display.o
 .comment       0x0000006e       0x6f .\CortexM0\ARM_GCC_541\Debug\DefaultFonts.o
 .comment       0x0000006e       0x6f .\CortexM0\ARM_GCC_541\Debug\Graphics.o
 .comment       0x0000006e       0x6f .\CortexM0\ARM_GCC_541\Debug\LCD5110_Graph.o
 .comment       0x0000006e       0x6f .\CortexM0\ARM_GCC_541\Debug\gate.o
 .comment       0x0000006e       0x6f .\CortexM0\ARM_GCC_541\Debug\LED.o
 .comment       0x0000006e       0x6f .\CortexM0\ARM_GCC_541\Debug\crc32.o
 .comment       0x0000006e       0x6f .\CortexM0\ARM_GCC_541\Debug\svt.o
 .comment       0x0000006e       0x6f .\CortexM0\ARM_GCC_541\Debug\ntp.o
 .comment       0x0000006e       0x6f .\CortexM0\ARM_GCC_541\Debug\network.o
 .comment       0x0000006e       0x6f .\CortexM0\ARM_GCC_541\Debug\batt.o
 .comment       0x0000006e       0x6f .\CortexM0\ARM_GCC_541\Debug\testMode.o
 .comment       0x0000006e       0x6f .\CortexM0\ARM_GCC_541\Debug\taskAutomat.o
 .comment       0x0000006e       0x6f .\CortexM0\ARM_GCC_541\Debug\IDskier.o
 .comment       0x0000006e       0x6f .\CortexM0\ARM_GCC_541\Debug\main.o
 .comment       0x0000006e       0x6f .\CortexM0\ARM_GCC_541\Debug\cyfitter_cfg.o
 .comment       0x0000006e       0x6f .\CortexM0\ARM_GCC_541\Debug\cymetadata.o
 .comment       0x0000006e       0x6f .\CortexM0\ARM_GCC_541\Debug\Cm0Start.o
 .comment       0x0000006e       0x6f .\CortexM0\ARM_GCC_541\Debug\start_v11.a(CyLib.o)
 .comment       0x0000006e       0x6f .\CortexM0\ARM_GCC_541\Debug\start_v11.a(CyLFClk.o)
 .comment       0x0000006e       0x6f .\CortexM0\ARM_GCC_541\Debug\start_v11.a(RTC.o)
 .comment       0x0000006e       0x6f .\CortexM0\ARM_GCC_541\Debug\start_v11.a(GatePin.o)
 .comment       0x0000006e       0x6f .\CortexM0\ARM_GCC_541\Debug\start_v11.a(Timer_LED.o)
 .comment       0x0000006e       0x6f .\CortexM0\ARM_GCC_541\Debug\start_v11.a(Int_Timer_Led.o)
 .comment       0x0000006e       0x6f .\CortexM0\ARM_GCC_541\Debug\start_v11.a(UART_XB.o)
 .comment       0x0000006e       0x6f .\CortexM0\ARM_GCC_541\Debug\start_v11.a(UART_XB_SPI_UART.o)
 .comment       0x0000006e       0x6f .\CortexM0\ARM_GCC_541\Debug\start_v11.a(UART_XB_UART.o)
 .comment       0x0000006e       0x6f .\CortexM0\ARM_GCC_541\Debug\start_v11.a(SwSPI_Master.o)
 .comment       0x0000006e       0x6f .\CortexM0\ARM_GCC_541\Debug\start_v11.a(GATE_INT.o)
 .comment       0x0000006e       0x6f .\CortexM0\ARM_GCC_541\Debug\start_v11.a(debug.o)
 .comment       0x0000006e       0x6f .\CortexM0\ARM_GCC_541\Debug\start_v11.a(ADC.o)
 .comment       0x0000006e       0x6f .\CortexM0\ARM_GCC_541\Debug\start_v11.a(ADC_INT.o)
 .comment       0x0000006e       0x6f .\CortexM0\ARM_GCC_541\Debug\start_v11.a(CE.o)
 .comment       0x0000006e       0x6f .\CortexM0\ARM_GCC_541\Debug\start_v11.a(RST.o)
 .comment       0x0000006e       0x6f .\CortexM0\ARM_GCC_541\Debug\start_v11.a(DC.o)
 .comment       0x0000006e       0x6f .\CortexM0\ARM_GCC_541\Debug\start_v11.a(LCD_BL.o)
 .comment       0x0000006e       0x6f .\CortexM0\ARM_GCC_541\Debug\start_v11.a(TimerTestMode.o)
 .comment       0x0000006e       0x6f .\CortexM0\ARM_GCC_541\Debug\start_v11.a(Int_timerTestMode.o)
 .comment       0x0000006e       0x6f .\CortexM0\ARM_GCC_541\Debug\start_v11.a(Pin_testMode.o)
 .comment       0x0000006e       0x6f .\CortexM0\ARM_GCC_541\Debug\start_v11.a(SW_RunTestMode.o)
 .comment       0x0000006e       0x6f .\CortexM0\ARM_GCC_541\Debug\start_v11.a(LED_RED_PIN.o)
 .comment       0x0000006e       0x6f .\CortexM0\ARM_GCC_541\Debug\start_v11.a(LED_GREEN_PIN.o)
 .comment       0x0000006e       0x6f .\CortexM0\ARM_GCC_541\Debug\start_v11.a(Timer.o)
 .comment       0x0000006e       0x6f .\CortexM0\ARM_GCC_541\Debug\start_v11.a(isr_timer.o)
 .comment       0x0000006e       0x6f .\CortexM0\ARM_GCC_541\Debug\start_v11.a(BtnUp.o)
 .comment       0x0000006e       0x6f .\CortexM0\ARM_GCC_541\Debug\start_v11.a(BtnDown.o)
 .comment       0x0000006e       0x6f .\CortexM0\ARM_GCC_541\Debug\start_v11.a(BUTT_DOWN_INT.o)
 .comment       0x0000006e       0x6f .\CortexM0\ARM_GCC_541\Debug\start_v11.a(BUTT_UP_INT.o)
 .comment       0x0000006e       0x6f .\CortexM0\ARM_GCC_541\Debug\start_v11.a(UART_XB_SPI_UART_INT.o)

.debug_weaknames
 *(.debug_weaknames)

.debug_funcnames
 *(.debug_funcnames)

.debug_typenames
 *(.debug_typenames)

.debug_varnames
 *(.debug_varnames)

.note.gnu.arm.ident
 *(.note.gnu.arm.ident)

.ARM.attributes
                0x00000000       0x28
 *(.ARM.attributes)
 .ARM.attributes
                0x00000000       0x1e c:/program files (x86)/cypress/psoc creator/4.1/psoc creator/import/gnu/arm/5.4.1/bin/../lib/gcc/arm-none-eabi/5.4.1/armv6-m/crti.o
 .ARM.attributes
                0x0000001e       0x2c c:/program files (x86)/cypress/psoc creator/4.1/psoc creator/import/gnu/arm/5.4.1/bin/../lib/gcc/arm-none-eabi/5.4.1/armv6-m/crtbegin.o
 .ARM.attributes
                0x0000004a       0x1b c:/program files (x86)/cypress/psoc creator/4.1/psoc creator/import/gnu/arm/5.4.1/bin/../lib/gcc/arm-none-eabi/5.4.1/../../../../arm-none-eabi/lib/armv6-m/crt0.o
 .ARM.attributes
                0x00000065       0x31 .\CortexM0\ARM_GCC_541\Debug\RTC_WDT.o
 .ARM.attributes
                0x00000096       0x31 .\CortexM0\ARM_GCC_541\Debug\display.o
 .ARM.attributes
                0x000000c7       0x31 .\CortexM0\ARM_GCC_541\Debug\DefaultFonts.o
 .ARM.attributes
                0x000000f8       0x31 .\CortexM0\ARM_GCC_541\Debug\Graphics.o
 .ARM.attributes
                0x00000129       0x31 .\CortexM0\ARM_GCC_541\Debug\LCD5110_Graph.o
 .ARM.attributes
                0x0000015a       0x31 .\CortexM0\ARM_GCC_541\Debug\gate.o
 .ARM.attributes
                0x0000018b       0x31 .\CortexM0\ARM_GCC_541\Debug\LED.o
 .ARM.attributes
                0x000001bc       0x31 .\CortexM0\ARM_GCC_541\Debug\crc32.o
 .ARM.attributes
                0x000001ed       0x31 .\CortexM0\ARM_GCC_541\Debug\svt.o
 .ARM.attributes
                0x0000021e       0x31 .\CortexM0\ARM_GCC_541\Debug\ntp.o
 .ARM.attributes
                0x0000024f       0x31 .\CortexM0\ARM_GCC_541\Debug\network.o
 .ARM.attributes
                0x00000280       0x31 .\CortexM0\ARM_GCC_541\Debug\batt.o
 .ARM.attributes
                0x000002b1       0x31 .\CortexM0\ARM_GCC_541\Debug\testMode.o
 .ARM.attributes
                0x000002e2       0x31 .\CortexM0\ARM_GCC_541\Debug\taskAutomat.o
 .ARM.attributes
                0x00000313       0x31 .\CortexM0\ARM_GCC_541\Debug\IDskier.o
 .ARM.attributes
                0x00000344       0x31 .\CortexM0\ARM_GCC_541\Debug\main.o
 .ARM.attributes
                0x00000375       0x31 .\CortexM0\ARM_GCC_541\Debug\cyfitter_cfg.o
 .ARM.attributes
                0x000003a6       0x31 .\CortexM0\ARM_GCC_541\Debug\cymetadata.o
 .ARM.attributes
                0x000003d7       0x31 .\CortexM0\ARM_GCC_541\Debug\Cm0Start.o
 .ARM.attributes
                0x00000408       0x31 .\CortexM0\ARM_GCC_541\Debug\start_v11.a(CyLib.o)
 .ARM.attributes
                0x00000439       0x31 .\CortexM0\ARM_GCC_541\Debug\start_v11.a(CyLFClk.o)
 .ARM.attributes
                0x0000046a       0x31 .\CortexM0\ARM_GCC_541\Debug\start_v11.a(RTC.o)
 .ARM.attributes
                0x0000049b       0x31 .\CortexM0\ARM_GCC_541\Debug\start_v11.a(GatePin.o)
 .ARM.attributes
                0x000004cc       0x31 .\CortexM0\ARM_GCC_541\Debug\start_v11.a(Timer_LED.o)
 .ARM.attributes
                0x000004fd       0x31 .\CortexM0\ARM_GCC_541\Debug\start_v11.a(Int_Timer_Led.o)
 .ARM.attributes
                0x0000052e       0x31 .\CortexM0\ARM_GCC_541\Debug\start_v11.a(UART_XB.o)
 .ARM.attributes
                0x0000055f       0x31 .\CortexM0\ARM_GCC_541\Debug\start_v11.a(UART_XB_SPI_UART.o)
 .ARM.attributes
                0x00000590       0x31 .\CortexM0\ARM_GCC_541\Debug\start_v11.a(UART_XB_UART.o)
 .ARM.attributes
                0x000005c1       0x31 .\CortexM0\ARM_GCC_541\Debug\start_v11.a(SwSPI_Master.o)
 .ARM.attributes
                0x000005f2       0x31 .\CortexM0\ARM_GCC_541\Debug\start_v11.a(GATE_INT.o)
 .ARM.attributes
                0x00000623       0x31 .\CortexM0\ARM_GCC_541\Debug\start_v11.a(debug.o)
 .ARM.attributes
                0x00000654       0x31 .\CortexM0\ARM_GCC_541\Debug\start_v11.a(ADC.o)
 .ARM.attributes
                0x00000685       0x31 .\CortexM0\ARM_GCC_541\Debug\start_v11.a(ADC_INT.o)
 .ARM.attributes
                0x000006b6       0x31 .\CortexM0\ARM_GCC_541\Debug\start_v11.a(CE.o)
 .ARM.attributes
                0x000006e7       0x31 .\CortexM0\ARM_GCC_541\Debug\start_v11.a(RST.o)
 .ARM.attributes
                0x00000718       0x31 .\CortexM0\ARM_GCC_541\Debug\start_v11.a(DC.o)
 .ARM.attributes
                0x00000749       0x31 .\CortexM0\ARM_GCC_541\Debug\start_v11.a(LCD_BL.o)
 .ARM.attributes
                0x0000077a       0x31 .\CortexM0\ARM_GCC_541\Debug\start_v11.a(TimerTestMode.o)
 .ARM.attributes
                0x000007ab       0x31 .\CortexM0\ARM_GCC_541\Debug\start_v11.a(Int_timerTestMode.o)
 .ARM.attributes
                0x000007dc       0x31 .\CortexM0\ARM_GCC_541\Debug\start_v11.a(Pin_testMode.o)
 .ARM.attributes
                0x0000080d       0x31 .\CortexM0\ARM_GCC_541\Debug\start_v11.a(SW_RunTestMode.o)
 .ARM.attributes
                0x0000083e       0x31 .\CortexM0\ARM_GCC_541\Debug\start_v11.a(LED_RED_PIN.o)
 .ARM.attributes
                0x0000086f       0x31 .\CortexM0\ARM_GCC_541\Debug\start_v11.a(LED_GREEN_PIN.o)
 .ARM.attributes
                0x000008a0       0x31 .\CortexM0\ARM_GCC_541\Debug\start_v11.a(Timer.o)
 .ARM.attributes
                0x000008d1       0x31 .\CortexM0\ARM_GCC_541\Debug\start_v11.a(isr_timer.o)
 .ARM.attributes
                0x00000902       0x31 .\CortexM0\ARM_GCC_541\Debug\start_v11.a(BtnUp.o)
 .ARM.attributes
                0x00000933       0x31 .\CortexM0\ARM_GCC_541\Debug\start_v11.a(BtnDown.o)
 .ARM.attributes
                0x00000964       0x31 .\CortexM0\ARM_GCC_541\Debug\start_v11.a(BUTT_DOWN_INT.o)
 .ARM.attributes
                0x00000995       0x31 .\CortexM0\ARM_GCC_541\Debug\start_v11.a(BUTT_UP_INT.o)
 .ARM.attributes
                0x000009c6       0x21 .\CortexM0\ARM_GCC_541\Debug\start_v11.a(CyBootAsmGnu.o)
 .ARM.attributes
                0x000009e7       0x31 .\CortexM0\ARM_GCC_541\Debug\start_v11.a(UART_XB_SPI_UART_INT.o)
 .ARM.attributes
                0x00000a18       0x1e c:/program files (x86)/cypress/psoc creator/4.1/psoc creator/import/gnu/arm/5.4.1/bin/../lib/gcc/arm-none-eabi/5.4.1/armv6-m\libgcc.a(_udivsi3.o)
 .ARM.attributes
                0x00000a36       0x1e c:/program files (x86)/cypress/psoc creator/4.1/psoc creator/import/gnu/arm/5.4.1/bin/../lib/gcc/arm-none-eabi/5.4.1/armv6-m\libgcc.a(_divsi3.o)
 .ARM.attributes
                0x00000a54       0x1e c:/program files (x86)/cypress/psoc creator/4.1/psoc creator/import/gnu/arm/5.4.1/bin/../lib/gcc/arm-none-eabi/5.4.1/armv6-m\libgcc.a(_dvmd_tls.o)
 .ARM.attributes
                0x00000a72       0x1e c:/program files (x86)/cypress/psoc creator/4.1/psoc creator/import/gnu/arm/5.4.1/bin/../lib/gcc/arm-none-eabi/5.4.1/armv6-m\libgcc.a(_arm_cmpdf2.o)
 .ARM.attributes
                0x00000a90       0x1e c:/program files (x86)/cypress/psoc creator/4.1/psoc creator/import/gnu/arm/5.4.1/bin/../lib/gcc/arm-none-eabi/5.4.1/armv6-m\libgcc.a(_arm_cmpsf2.o)
 .ARM.attributes
                0x00000aae       0x1e c:/program files (x86)/cypress/psoc creator/4.1/psoc creator/import/gnu/arm/5.4.1/bin/../lib/gcc/arm-none-eabi/5.4.1/armv6-m\libgcc.a(_aeabi_ldivmod.o)
 .ARM.attributes
                0x00000acc       0x1e c:/program files (x86)/cypress/psoc creator/4.1/psoc creator/import/gnu/arm/5.4.1/bin/../lib/gcc/arm-none-eabi/5.4.1/armv6-m\libgcc.a(_aeabi_uldivmod.o)
 .ARM.attributes
                0x00000aea       0x2c c:/program files (x86)/cypress/psoc creator/4.1/psoc creator/import/gnu/arm/5.4.1/bin/../lib/gcc/arm-none-eabi/5.4.1/armv6-m\libgcc.a(_muldi3.o)
 .ARM.attributes
                0x00000b16       0x2c c:/program files (x86)/cypress/psoc creator/4.1/psoc creator/import/gnu/arm/5.4.1/bin/../lib/gcc/arm-none-eabi/5.4.1/armv6-m\libgcc.a(_udivmoddi4.o)
 .ARM.attributes
                0x00000b42       0x2c c:/program files (x86)/cypress/psoc creator/4.1/psoc creator/import/gnu/arm/5.4.1/bin/../lib/gcc/arm-none-eabi/5.4.1/armv6-m\libgcc.a(bpabi.o)
 .ARM.attributes
                0x00000b6e       0x2c c:/program files (x86)/cypress/psoc creator/4.1/psoc creator/import/gnu/arm/5.4.1/bin/../lib/gcc/arm-none-eabi/5.4.1/armv6-m\libgcc.a(divsf3.o)
 .ARM.attributes
                0x00000b9a       0x2c c:/program files (x86)/cypress/psoc creator/4.1/psoc creator/import/gnu/arm/5.4.1/bin/../lib/gcc/arm-none-eabi/5.4.1/armv6-m\libgcc.a(eqsf2.o)
 .ARM.attributes
                0x00000bc6       0x2c c:/program files (x86)/cypress/psoc creator/4.1/psoc creator/import/gnu/arm/5.4.1/bin/../lib/gcc/arm-none-eabi/5.4.1/armv6-m\libgcc.a(gesf2.o)
 .ARM.attributes
                0x00000bf2       0x2c c:/program files (x86)/cypress/psoc creator/4.1/psoc creator/import/gnu/arm/5.4.1/bin/../lib/gcc/arm-none-eabi/5.4.1/armv6-m\libgcc.a(lesf2.o)
 .ARM.attributes
                0x00000c1e       0x2c c:/program files (x86)/cypress/psoc creator/4.1/psoc creator/import/gnu/arm/5.4.1/bin/../lib/gcc/arm-none-eabi/5.4.1/armv6-m\libgcc.a(mulsf3.o)
 .ARM.attributes
                0x00000c4a       0x2c c:/program files (x86)/cypress/psoc creator/4.1/psoc creator/import/gnu/arm/5.4.1/bin/../lib/gcc/arm-none-eabi/5.4.1/armv6-m\libgcc.a(floatsisf.o)
 .ARM.attributes
                0x00000c76       0x2c c:/program files (x86)/cypress/psoc creator/4.1/psoc creator/import/gnu/arm/5.4.1/bin/../lib/gcc/arm-none-eabi/5.4.1/armv6-m\libgcc.a(adddf3.o)
 .ARM.attributes
                0x00000ca2       0x2c c:/program files (x86)/cypress/psoc creator/4.1/psoc creator/import/gnu/arm/5.4.1/bin/../lib/gcc/arm-none-eabi/5.4.1/armv6-m\libgcc.a(divdf3.o)
 .ARM.attributes
                0x00000cce       0x2c c:/program files (x86)/cypress/psoc creator/4.1/psoc creator/import/gnu/arm/5.4.1/bin/../lib/gcc/arm-none-eabi/5.4.1/armv6-m\libgcc.a(eqdf2.o)
 .ARM.attributes
                0x00000cfa       0x2c c:/program files (x86)/cypress/psoc creator/4.1/psoc creator/import/gnu/arm/5.4.1/bin/../lib/gcc/arm-none-eabi/5.4.1/armv6-m\libgcc.a(gedf2.o)
 .ARM.attributes
                0x00000d26       0x2c c:/program files (x86)/cypress/psoc creator/4.1/psoc creator/import/gnu/arm/5.4.1/bin/../lib/gcc/arm-none-eabi/5.4.1/armv6-m\libgcc.a(ledf2.o)
 .ARM.attributes
                0x00000d52       0x2c c:/program files (x86)/cypress/psoc creator/4.1/psoc creator/import/gnu/arm/5.4.1/bin/../lib/gcc/arm-none-eabi/5.4.1/armv6-m\libgcc.a(subdf3.o)
 .ARM.attributes
                0x00000d7e       0x2c c:/program files (x86)/cypress/psoc creator/4.1/psoc creator/import/gnu/arm/5.4.1/bin/../lib/gcc/arm-none-eabi/5.4.1/armv6-m\libgcc.a(fixdfsi.o)
 .ARM.attributes
                0x00000daa       0x2c c:/program files (x86)/cypress/psoc creator/4.1/psoc creator/import/gnu/arm/5.4.1/bin/../lib/gcc/arm-none-eabi/5.4.1/armv6-m\libgcc.a(floatsidf.o)
 .ARM.attributes
                0x00000dd6       0x2c c:/program files (x86)/cypress/psoc creator/4.1/psoc creator/import/gnu/arm/5.4.1/bin/../lib/gcc/arm-none-eabi/5.4.1/armv6-m\libgcc.a(extendsfdf2.o)
 .ARM.attributes
                0x00000e02       0x1e c:/program files (x86)/cypress/psoc creator/4.1/psoc creator/import/gnu/arm/5.4.1/bin/../lib/gcc/arm-none-eabi/5.4.1/armv6-m\libgcc.a(_clzsi2.o)
 .ARM.attributes
                0x00000e20       0x1e c:/program files (x86)/cypress/psoc creator/4.1/psoc creator/import/gnu/arm/5.4.1/bin/../lib/gcc/arm-none-eabi/5.4.1/armv6-m\libgcc.a(_clzdi2.o)
 .ARM.attributes
                0x00000e3e       0x2c c:/program files (x86)/cypress/psoc creator/4.1/psoc creator/import/gnu/arm/5.4.1/bin/../lib/gcc/arm-none-eabi/5.4.1/armv6-m\libgcc.a(_divdi3.o)
 .ARM.attributes
                0x00000e6a       0x2c c:/program files (x86)/cypress/psoc creator/4.1/psoc creator/import/gnu/arm/5.4.1/bin/../lib/gcc/arm-none-eabi/5.4.1/../../../../arm-none-eabi/lib/armv6-m\libg.a(lib_a-errno.o)
 .ARM.attributes
                0x00000e96       0x2c c:/program files (x86)/cypress/psoc creator/4.1/psoc creator/import/gnu/arm/5.4.1/bin/../lib/gcc/arm-none-eabi/5.4.1/../../../../arm-none-eabi/lib/armv6-m\libg.a(lib_a-exit.o)
 .ARM.attributes
                0x00000ec2       0x2c c:/program files (x86)/cypress/psoc creator/4.1/psoc creator/import/gnu/arm/5.4.1/bin/../lib/gcc/arm-none-eabi/5.4.1/../../../../arm-none-eabi/lib/armv6-m\libg.a(lib_a-impure.o)
 .ARM.attributes
                0x00000eee       0x2c c:/program files (x86)/cypress/psoc creator/4.1/psoc creator/import/gnu/arm/5.4.1/bin/../lib/gcc/arm-none-eabi/5.4.1/../../../../arm-none-eabi/lib/armv6-m\libg.a(lib_a-init.o)
 .ARM.attributes
                0x00000f1a       0x2c c:/program files (x86)/cypress/psoc creator/4.1/psoc creator/import/gnu/arm/5.4.1/bin/../lib/gcc/arm-none-eabi/5.4.1/../../../../arm-none-eabi/lib/armv6-m\libg.a(lib_a-memcpy-stub.o)
 .ARM.attributes
                0x00000f46       0x2c c:/program files (x86)/cypress/psoc creator/4.1/psoc creator/import/gnu/arm/5.4.1/bin/../lib/gcc/arm-none-eabi/5.4.1/../../../../arm-none-eabi/lib/armv6-m\libg.a(lib_a-memset.o)
 .ARM.attributes
                0x00000f72       0x2c c:/program files (x86)/cypress/psoc creator/4.1/psoc creator/import/gnu/arm/5.4.1/bin/../lib/gcc/arm-none-eabi/5.4.1/../../../../arm-none-eabi/lib/armv6-m\libg.a(lib_a-rand.o)
 .ARM.attributes
                0x00000f9e       0x2c c:/program files (x86)/cypress/psoc creator/4.1/psoc creator/import/gnu/arm/5.4.1/bin/../lib/gcc/arm-none-eabi/5.4.1/../../../../arm-none-eabi/lib/armv6-m\libg.a(lib_a-sprintf.o)
 .ARM.attributes
                0x00000fca       0x2c c:/program files (x86)/cypress/psoc creator/4.1/psoc creator/import/gnu/arm/5.4.1/bin/../lib/gcc/arm-none-eabi/5.4.1/../../../../arm-none-eabi/lib/armv6-m\libg.a(lib_a-strcat.o)
 .ARM.attributes
                0x00000ff6       0x2c c:/program files (x86)/cypress/psoc creator/4.1/psoc creator/import/gnu/arm/5.4.1/bin/../lib/gcc/arm-none-eabi/5.4.1/../../../../arm-none-eabi/lib/armv6-m\libg.a(lib_a-strcpy.o)
 .ARM.attributes
                0x00001022       0x2c c:/program files (x86)/cypress/psoc creator/4.1/psoc creator/import/gnu/arm/5.4.1/bin/../lib/gcc/arm-none-eabi/5.4.1/../../../../arm-none-eabi/lib/armv6-m\libg.a(lib_a-strlen-stub.o)
 .ARM.attributes
                0x0000104e       0x2c c:/program files (x86)/cypress/psoc creator/4.1/psoc creator/import/gnu/arm/5.4.1/bin/../lib/gcc/arm-none-eabi/5.4.1/../../../../arm-none-eabi/lib/armv6-m\libg.a(lib_a-strncat.o)
 .ARM.attributes
                0x0000107a       0x2c c:/program files (x86)/cypress/psoc creator/4.1/psoc creator/import/gnu/arm/5.4.1/bin/../lib/gcc/arm-none-eabi/5.4.1/../../../../arm-none-eabi/lib/armv6-m\libg.a(lib_a-strncpy.o)
 .ARM.attributes
                0x000010a6       0x2c c:/program files (x86)/cypress/psoc creator/4.1/psoc creator/import/gnu/arm/5.4.1/bin/../lib/gcc/arm-none-eabi/5.4.1/../../../../arm-none-eabi/lib/armv6-m\libg.a(lib_a-svfprintf.o)
 .ARM.attributes
                0x000010d2       0x2c c:/program files (x86)/cypress/psoc creator/4.1/psoc creator/import/gnu/arm/5.4.1/bin/../lib/gcc/arm-none-eabi/5.4.1/../../../../arm-none-eabi/lib/armv6-m\libg.a(lib_a-__call_atexit.o)
 .ARM.attributes
                0x000010fe       0x2c c:/program files (x86)/cypress/psoc creator/4.1/psoc creator/import/gnu/arm/5.4.1/bin/../lib/gcc/arm-none-eabi/5.4.1/../../../../arm-none-eabi/lib/armv6-m\libg.a(lib_a-atexit.o)
 .ARM.attributes
                0x0000112a       0x2c c:/program files (x86)/cypress/psoc creator/4.1/psoc creator/import/gnu/arm/5.4.1/bin/../lib/gcc/arm-none-eabi/5.4.1/../../../../arm-none-eabi/lib/armv6-m\libg.a(lib_a-dtoa.o)
 .ARM.attributes
                0x00001156       0x2c c:/program files (x86)/cypress/psoc creator/4.1/psoc creator/import/gnu/arm/5.4.1/bin/../lib/gcc/arm-none-eabi/5.4.1/../../../../arm-none-eabi/lib/armv6-m\libg.a(lib_a-fini.o)
 .ARM.attributes
                0x00001182       0x2c c:/program files (x86)/cypress/psoc creator/4.1/psoc creator/import/gnu/arm/5.4.1/bin/../lib/gcc/arm-none-eabi/5.4.1/../../../../arm-none-eabi/lib/armv6-m\libg.a(lib_a-locale.o)
 .ARM.attributes
                0x000011ae       0x2c c:/program files (x86)/cypress/psoc creator/4.1/psoc creator/import/gnu/arm/5.4.1/bin/../lib/gcc/arm-none-eabi/5.4.1/../../../../arm-none-eabi/lib/armv6-m\libg.a(lib_a-mallocr.o)
 .ARM.attributes
                0x000011da       0x2c c:/program files (x86)/cypress/psoc creator/4.1/psoc creator/import/gnu/arm/5.4.1/bin/../lib/gcc/arm-none-eabi/5.4.1/../../../../arm-none-eabi/lib/armv6-m\libg.a(lib_a-memchr-stub.o)
 .ARM.attributes
                0x00001206       0x2c c:/program files (x86)/cypress/psoc creator/4.1/psoc creator/import/gnu/arm/5.4.1/bin/../lib/gcc/arm-none-eabi/5.4.1/../../../../arm-none-eabi/lib/armv6-m\libg.a(lib_a-mlock.o)
 .ARM.attributes
                0x00001232       0x2c c:/program files (x86)/cypress/psoc creator/4.1/psoc creator/import/gnu/arm/5.4.1/bin/../lib/gcc/arm-none-eabi/5.4.1/../../../../arm-none-eabi/lib/armv6-m\libg.a(lib_a-mprec.o)
 .ARM.attributes
                0x0000125e       0x2c c:/program files (x86)/cypress/psoc creator/4.1/psoc creator/import/gnu/arm/5.4.1/bin/../lib/gcc/arm-none-eabi/5.4.1/../../../../arm-none-eabi/lib/armv6-m\libg.a(lib_a-sbrkr.o)
 .ARM.attributes
                0x0000128a       0x1b c:/program files (x86)/cypress/psoc creator/4.1/psoc creator/import/gnu/arm/5.4.1/bin/../lib/gcc/arm-none-eabi/5.4.1/../../../../arm-none-eabi/lib/armv6-m\libg.a(lib_a-strcmp.o)
 .ARM.attributes
                0x000012a5       0x2c c:/program files (x86)/cypress/psoc creator/4.1/psoc creator/import/gnu/arm/5.4.1/bin/../lib/gcc/arm-none-eabi/5.4.1/../../../../arm-none-eabi/lib/armv6-m\libg.a(lib_a-svfiprintf.o)
 .ARM.attributes
                0x000012d1       0x2c c:/program files (x86)/cypress/psoc creator/4.1/psoc creator/import/gnu/arm/5.4.1/bin/../lib/gcc/arm-none-eabi/5.4.1/../../../../arm-none-eabi/lib/armv6-m\libg.a(lib_a-__atexit.o)
 .ARM.attributes
                0x000012fd       0x2c c:/program files (x86)/cypress/psoc creator/4.1/psoc creator/import/gnu/arm/5.4.1/bin/../lib/gcc/arm-none-eabi/5.4.1/../../../../arm-none-eabi/lib/armv6-m\libg.a(lib_a-callocr.o)
 .ARM.attributes
                0x00001329       0x2c c:/program files (x86)/cypress/psoc creator/4.1/psoc creator/import/gnu/arm/5.4.1/bin/../lib/gcc/arm-none-eabi/5.4.1/../../../../arm-none-eabi/lib/armv6-m\libg.a(lib_a-freer.o)
 .ARM.attributes
                0x00001355       0x2c c:/program files (x86)/cypress/psoc creator/4.1/psoc creator/import/gnu/arm/5.4.1/bin/../lib/gcc/arm-none-eabi/5.4.1/../../../../arm-none-eabi/lib/armv6-m\libg.a(lib_a-memmove.o)
 .ARM.attributes
                0x00001381       0x2c c:/program files (x86)/cypress/psoc creator/4.1/psoc creator/import/gnu/arm/5.4.1/bin/../lib/gcc/arm-none-eabi/5.4.1/../../../../arm-none-eabi/lib/armv6-m\libg.a(lib_a-reallocr.o)
 .ARM.attributes
                0x000013ad       0x2c c:/program files (x86)/cypress/psoc creator/4.1/psoc creator/import/gnu/arm/5.4.1/bin/../lib/gcc/arm-none-eabi/5.4.1/../../../../arm-none-eabi/lib/armv6-m\libg.a(lib_a-reent.o)
 .ARM.attributes
                0x000013d9       0x2c c:/program files (x86)/cypress/psoc creator/4.1/psoc creator/import/gnu/arm/5.4.1/bin/../lib/gcc/arm-none-eabi/5.4.1/armv6-m\libgcc.a(muldf3.o)
 .ARM.attributes
                0x00001405       0x2c c:/program files (x86)/cypress/psoc creator/4.1/psoc creator/import/gnu/arm/5.4.1/bin/../lib/gcc/arm-none-eabi/5.4.1/armv6-m\libgcc.a(unorddf2.o)
 .ARM.attributes
                0x00001431       0x2c c:/program files (x86)/cypress/psoc creator/4.1/psoc creator/import/gnu/arm/5.4.1/bin/../lib/gcc/arm-none-eabi/5.4.1/armv6-m\libgcc.a(floatunsidf.o)
 .ARM.attributes
                0x0000145d       0x2c c:/program files (x86)/cypress/psoc creator/4.1/psoc creator/import/gnu/arm/5.4.1/bin/../lib/gcc/arm-none-eabi/5.4.1/armv6-m/crtend.o
 .ARM.attributes
                0x00001489       0x1e c:/program files (x86)/cypress/psoc creator/4.1/psoc creator/import/gnu/arm/5.4.1/bin/../lib/gcc/arm-none-eabi/5.4.1/armv6-m/crtn.o

/DISCARD/
 *(.note.GNU-stack)
OUTPUT(D:\Cypress\system-start-finish\dev\FW\start\start_v11.cydsn\CortexM0\ARM_GCC_541\Debug\start_v11.elf elf32-littlearm)
