ARM GAS  C:\Users\Petro\AppData\Local\Temp\ccybtcEw.s 			page 1


   1              		.syntax unified
   2              		.cpu cortex-m0
   3              		.fpu softvfp
   4              		.eabi_attribute 20, 1
   5              		.eabi_attribute 21, 1
   6              		.eabi_attribute 23, 3
   7              		.eabi_attribute 24, 1
   8              		.eabi_attribute 25, 1
   9              		.eabi_attribute 26, 1
  10              		.eabi_attribute 30, 6
  11              		.eabi_attribute 34, 0
  12              		.eabi_attribute 18, 4
  13              		.thumb
  14              		.syntax unified
  15              		.file	"svt.c"
  16              		.text
  17              	.Ltext0:
  18              		.cfi_sections	.debug_frame
  19              		.comm	PROTO_STATE,1,1
  20              		.comm	LenD1,1,1
  21              		.comm	LenD2,1,1
  22              		.comm	LenD3,1,1
  23              		.comm	LenSeq,1,1
  24              		.comm	LenChS,1,1
  25              		.comm	LenC,1,1
  26              		.section	.rodata
  27              		.align	2
  28              	.LC8:
  29 0000 25303258 		.ascii	"%02X:%08X%08X%04X%04X\000"
  29      3A253038 
  29      58253038 
  29      58253034 
  29      58253034 
  30 0016 0000     		.align	2
  31              	.LC10:
  32 0018 4100     		.ascii	"A\000"
  33 001a 0000     		.align	2
  34              	.LC12:
  35 001c 4600     		.ascii	"F\000"
  36              		.section	.text.UnpackData,"ax",%progbits
  37              		.align	2
  38              		.global	UnpackData
  39              		.code	16
  40              		.thumb_func
  41              		.type	UnpackData, %function
  42              	UnpackData:
  43              	.LFB3:
  44              		.file 1 "lib_Network\\svt.c"
   1:lib_Network/svt.c **** #include "svt.h"
   2:lib_Network/svt.c **** #include "lib_Network\crc32.h"
   3:lib_Network/svt.c **** 
   4:lib_Network/svt.c **** enum PRO_STATES 
   5:lib_Network/svt.c **** {
   6:lib_Network/svt.c **** 	WAIT_STX,
   7:lib_Network/svt.c **** 	READ_SQ,
   8:lib_Network/svt.c **** 	READ_FR1,
   9:lib_Network/svt.c **** 	READ_COM,
ARM GAS  C:\Users\Petro\AppData\Local\Temp\ccybtcEw.s 			page 2


  10:lib_Network/svt.c **** 	READ_FR2,
  11:lib_Network/svt.c **** 	READ_DA1,
  12:lib_Network/svt.c **** 	READ_DA2,
  13:lib_Network/svt.c **** 	READ_DA3,
  14:lib_Network/svt.c **** 	READ_FR3,
  15:lib_Network/svt.c **** 	READ_CHS,
  16:lib_Network/svt.c **** 	READ_ETX
  17:lib_Network/svt.c **** };
  18:lib_Network/svt.c **** 
  19:lib_Network/svt.c **** #define LEN_SEQ 4
  20:lib_Network/svt.c **** #define LEN_COM 2
  21:lib_Network/svt.c **** #define LEN_DA1 16
  22:lib_Network/svt.c **** #define LEN_DA2 4
  23:lib_Network/svt.c **** #define LEN_DA3 4
  24:lib_Network/svt.c **** #define LEN_CHS 8
  25:lib_Network/svt.c **** 
  26:lib_Network/svt.c **** #define HALF_BYTE 4
  27:lib_Network/svt.c **** 
  28:lib_Network/svt.c **** #define STX '<'
  29:lib_Network/svt.c **** #define ETX '>'
  30:lib_Network/svt.c **** #define FR1 '!'
  31:lib_Network/svt.c **** #define FR2 ':'
  32:lib_Network/svt.c **** #define FR3 '@'
  33:lib_Network/svt.c **** 
  34:lib_Network/svt.c **** #define STX_S                   ("<")
  35:lib_Network/svt.c **** #define FRM0                    ("!")
  36:lib_Network/svt.c **** #define FRM1                    ("@")
  37:lib_Network/svt.c **** #define FRM2                    ("#")
  38:lib_Network/svt.c **** #define ETX_S                   (">")
  39:lib_Network/svt.c **** 
  40:lib_Network/svt.c **** uint8_t PROTO_STATE, LenD1, LenD2, LenD3, LenSeq, LenChS, LenC;
  41:lib_Network/svt.c **** 
  42:lib_Network/svt.c **** uint8_t DecodeByte(uint8_t Inp);
  43:lib_Network/svt.c **** uint8_t CheckSymb(uint8_t Inp);
  44:lib_Network/svt.c **** void 	ResetPacket(struct Resp *Data);
  45:lib_Network/svt.c **** 
  46:lib_Network/svt.c **** uint8_t UnpackData(struct Resp *Data, uint8_t InByte)
  47:lib_Network/svt.c **** {
  45              		.loc 1 47 0
  46              		.cfi_startproc
  47              		@ args = 0, pretend = 0, frame = 80
  48              		@ frame_needed = 1, uses_anonymous_args = 0
  49 0000 F0B5     		push	{r4, r5, r6, r7, lr}
  50              		.cfi_def_cfa_offset 20
  51              		.cfi_offset 4, -20
  52              		.cfi_offset 5, -16
  53              		.cfi_offset 6, -12
  54              		.cfi_offset 7, -8
  55              		.cfi_offset 14, -4
  56 0002 4746     		mov	r7, r8
  57 0004 80B4     		push	{r7}
  58              		.cfi_def_cfa_offset 24
  59              		.cfi_offset 8, -24
  60 0006 98B0     		sub	sp, sp, #96
  61              		.cfi_def_cfa_offset 120
  62 0008 04AF     		add	r7, sp, #16
  63              		.cfi_def_cfa 7, 104
ARM GAS  C:\Users\Petro\AppData\Local\Temp\ccybtcEw.s 			page 3


  64 000a F861     		str	r0, [r7, #28]
  65 000c 0A00     		movs	r2, r1
  66 000e 1B23     		movs	r3, #27
  67 0010 FB18     		adds	r3, r7, r3
  68 0012 1A70     		strb	r2, [r3]
  48:lib_Network/svt.c **** 	uint32_t ERR_CODE = 0;
  69              		.loc 1 48 0
  70 0014 0023     		movs	r3, #0
  71 0016 FB64     		str	r3, [r7, #76]
  49:lib_Network/svt.c **** 	InByte = DecodeByte(InByte);
  72              		.loc 1 49 0
  73 0018 1B23     		movs	r3, #27
  74 001a FE18     		adds	r6, r7, r3
  75 001c 1B23     		movs	r3, #27
  76 001e FB18     		adds	r3, r7, r3
  77 0020 1B78     		ldrb	r3, [r3]
  78 0022 1800     		movs	r0, r3
  79 0024 FFF7FEFF 		bl	DecodeByte
  80 0028 0300     		movs	r3, r0
  81 002a 3370     		strb	r3, [r6]
  50:lib_Network/svt.c ****     if (InByte == STX)
  82              		.loc 1 50 0
  83 002c 1B23     		movs	r3, #27
  84 002e FB18     		adds	r3, r7, r3
  85 0030 1B78     		ldrb	r3, [r3]
  86 0032 3C2B     		cmp	r3, #60
  87 0034 19D1     		bne	.L2
  51:lib_Network/svt.c **** 	{
  52:lib_Network/svt.c **** 	    PROTO_STATE = READ_SQ;
  88              		.loc 1 52 0
  89 0036 C44B     		ldr	r3, .L51
  90 0038 0122     		movs	r2, #1
  91 003a 1A70     		strb	r2, [r3]
  53:lib_Network/svt.c **** 		ResetPacket(Data);
  92              		.loc 1 53 0
  93 003c FB69     		ldr	r3, [r7, #28]
  94 003e 1800     		movs	r0, r3
  95 0040 FFF7FEFF 		bl	ResetPacket
  54:lib_Network/svt.c **** 		LenSeq = 0;
  96              		.loc 1 54 0
  97 0044 C14B     		ldr	r3, .L51+4
  98 0046 0022     		movs	r2, #0
  99 0048 1A70     		strb	r2, [r3]
  55:lib_Network/svt.c **** 		LenC = 0;
 100              		.loc 1 55 0
 101 004a C14B     		ldr	r3, .L51+8
 102 004c 0022     		movs	r2, #0
 103 004e 1A70     		strb	r2, [r3]
  56:lib_Network/svt.c **** 		LenChS = 0;
 104              		.loc 1 56 0
 105 0050 C04B     		ldr	r3, .L51+12
 106 0052 0022     		movs	r2, #0
 107 0054 1A70     		strb	r2, [r3]
  57:lib_Network/svt.c **** 		LenD1 = 0;
 108              		.loc 1 57 0
 109 0056 C04B     		ldr	r3, .L51+16
 110 0058 0022     		movs	r2, #0
ARM GAS  C:\Users\Petro\AppData\Local\Temp\ccybtcEw.s 			page 4


 111 005a 1A70     		strb	r2, [r3]
  58:lib_Network/svt.c **** 		LenD2 = 0;
 112              		.loc 1 58 0
 113 005c BF4B     		ldr	r3, .L51+20
 114 005e 0022     		movs	r2, #0
 115 0060 1A70     		strb	r2, [r3]
  59:lib_Network/svt.c ****         LenD3 = 0;
 116              		.loc 1 59 0
 117 0062 BF4B     		ldr	r3, .L51+24
 118 0064 0022     		movs	r2, #0
 119 0066 1A70     		strb	r2, [r3]
 120 0068 EDE1     		b	.L3
 121              	.L2:
  60:lib_Network/svt.c ****     }
  61:lib_Network/svt.c ****     else
  62:lib_Network/svt.c ****     {
  63:lib_Network/svt.c ****     	switch(PROTO_STATE){
 122              		.loc 1 63 0
 123 006a B74B     		ldr	r3, .L51
 124 006c 1B78     		ldrb	r3, [r3]
 125 006e 0A2B     		cmp	r3, #10
 126 0070 00D9     		bls	.LCB71
 127 0072 E4E1     		b	.L4	@long jump
 128              	.LCB71:
 129 0074 9A00     		lsls	r2, r3, #2
 130 0076 BB4B     		ldr	r3, .L51+28
 131 0078 D318     		adds	r3, r2, r3
 132 007a 1B68     		ldr	r3, [r3]
 133 007c 9F46     		mov	pc, r3
 134              		.section	.rodata
 135 001e 0000     		.align	2
 136              	.L6:
 137 0020 3E040000 		.word	.L4
 138 0024 7E000000 		.word	.L5
 139 0028 D8000000 		.word	.L7
 140 002c FE000000 		.word	.L8
 141 0030 5A010000 		.word	.L9
 142 0034 80010000 		.word	.L10
 143 0038 02020000 		.word	.L11
 144 003c 64020000 		.word	.L12
 145 0040 C6020000 		.word	.L13
 146 0044 EC020000 		.word	.L14
 147 0048 68030000 		.word	.L15
 148              		.section	.text.UnpackData
 149              	.L5:
  64:lib_Network/svt.c ****     		case READ_SQ:
  65:lib_Network/svt.c ****     		{
  66:lib_Network/svt.c ****     			if(CheckSymb(InByte))
 150              		.loc 1 66 0
 151 007e 1B23     		movs	r3, #27
 152 0080 FB18     		adds	r3, r7, r3
 153 0082 1B78     		ldrb	r3, [r3]
 154 0084 1800     		movs	r0, r3
 155 0086 FFF7FEFF 		bl	CheckSymb
 156 008a 031E     		subs	r3, r0, #0
 157 008c 1ED0     		beq	.L16
  67:lib_Network/svt.c ****     			{
ARM GAS  C:\Users\Petro\AppData\Local\Temp\ccybtcEw.s 			page 5


  68:lib_Network/svt.c ****     				Data->Seq |= InByte;
 158              		.loc 1 68 0
 159 008e FB69     		ldr	r3, [r7, #28]
 160 0090 1A88     		ldrh	r2, [r3]
 161 0092 1B23     		movs	r3, #27
 162 0094 FB18     		adds	r3, r7, r3
 163 0096 1B78     		ldrb	r3, [r3]
 164 0098 9BB2     		uxth	r3, r3
 165 009a 1343     		orrs	r3, r2
 166 009c 9AB2     		uxth	r2, r3
 167 009e FB69     		ldr	r3, [r7, #28]
 168 00a0 1A80     		strh	r2, [r3]
  69:lib_Network/svt.c ****     				LenSeq++;
 169              		.loc 1 69 0
 170 00a2 AA4B     		ldr	r3, .L51+4
 171 00a4 1B78     		ldrb	r3, [r3]
 172 00a6 0133     		adds	r3, r3, #1
 173 00a8 DAB2     		uxtb	r2, r3
 174 00aa A84B     		ldr	r3, .L51+4
 175 00ac 1A70     		strb	r2, [r3]
  70:lib_Network/svt.c ****     				if (LenSeq == LEN_SEQ)
 176              		.loc 1 70 0
 177 00ae A74B     		ldr	r3, .L51+4
 178 00b0 1B78     		ldrb	r3, [r3]
 179 00b2 042B     		cmp	r3, #4
 180 00b4 03D1     		bne	.L17
  71:lib_Network/svt.c ****     				{
  72:lib_Network/svt.c ****     					PROTO_STATE = READ_FR1;
 181              		.loc 1 72 0
 182 00b6 A44B     		ldr	r3, .L51
 183 00b8 0222     		movs	r2, #2
 184 00ba 1A70     		strb	r2, [r3]
  73:lib_Network/svt.c ****     				}
  74:lib_Network/svt.c ****     				else
  75:lib_Network/svt.c ****     				{
  76:lib_Network/svt.c ****     					Data->Seq = Data->Seq << HALF_BYTE;
  77:lib_Network/svt.c ****     				}
  78:lib_Network/svt.c ****     			}
  79:lib_Network/svt.c ****     			else{
  80:lib_Network/svt.c ****     				PROTO_STATE = WAIT_STX;
  81:lib_Network/svt.c ****     				ERR_CODE = BAD_SEQ;
  82:lib_Network/svt.c ****     			}
  83:lib_Network/svt.c ****     			break;
 185              		.loc 1 83 0
 186 00bc C3E1     		b	.L3
 187              	.L17:
  76:lib_Network/svt.c ****     				}
 188              		.loc 1 76 0
 189 00be FB69     		ldr	r3, [r7, #28]
 190 00c0 1B88     		ldrh	r3, [r3]
 191 00c2 1B01     		lsls	r3, r3, #4
 192 00c4 9AB2     		uxth	r2, r3
 193 00c6 FB69     		ldr	r3, [r7, #28]
 194 00c8 1A80     		strh	r2, [r3]
 195              		.loc 1 83 0
 196 00ca BCE1     		b	.L3
 197              	.L16:
ARM GAS  C:\Users\Petro\AppData\Local\Temp\ccybtcEw.s 			page 6


  80:lib_Network/svt.c ****     				ERR_CODE = BAD_SEQ;
 198              		.loc 1 80 0
 199 00cc 9E4B     		ldr	r3, .L51
 200 00ce 0022     		movs	r2, #0
 201 00d0 1A70     		strb	r2, [r3]
  81:lib_Network/svt.c ****     			}
 202              		.loc 1 81 0
 203 00d2 0123     		movs	r3, #1
 204 00d4 FB64     		str	r3, [r7, #76]
 205              		.loc 1 83 0
 206 00d6 B6E1     		b	.L3
 207              	.L7:
  84:lib_Network/svt.c ****     		}  		
  85:lib_Network/svt.c ****     		case READ_FR1:
  86:lib_Network/svt.c ****     		{
  87:lib_Network/svt.c ****     			if (InByte == FR1)
 208              		.loc 1 87 0
 209 00d8 1B23     		movs	r3, #27
 210 00da FB18     		adds	r3, r7, r3
 211 00dc 1B78     		ldrb	r3, [r3]
 212 00de 212B     		cmp	r3, #33
 213 00e0 03D1     		bne	.L20
  88:lib_Network/svt.c ****     			{
  89:lib_Network/svt.c ****     				PROTO_STATE = READ_COM;
 214              		.loc 1 89 0
 215 00e2 994B     		ldr	r3, .L51
 216 00e4 0322     		movs	r2, #3
 217 00e6 1A70     		strb	r2, [r3]
  90:lib_Network/svt.c ****     			}
  91:lib_Network/svt.c ****     			else
  92:lib_Network/svt.c ****     			{
  93:lib_Network/svt.c ****     				ResetPacket(Data);
  94:lib_Network/svt.c ****     				ERR_CODE = NO_FR1;
  95:lib_Network/svt.c ****     				PROTO_STATE = WAIT_STX;
  96:lib_Network/svt.c ****     			}
  97:lib_Network/svt.c ****     			break;
 218              		.loc 1 97 0
 219 00e8 ADE1     		b	.L3
 220              	.L20:
  93:lib_Network/svt.c ****     				ERR_CODE = NO_FR1;
 221              		.loc 1 93 0
 222 00ea FB69     		ldr	r3, [r7, #28]
 223 00ec 1800     		movs	r0, r3
 224 00ee FFF7FEFF 		bl	ResetPacket
  94:lib_Network/svt.c ****     				PROTO_STATE = WAIT_STX;
 225              		.loc 1 94 0
 226 00f2 0223     		movs	r3, #2
 227 00f4 FB64     		str	r3, [r7, #76]
  95:lib_Network/svt.c ****     			}
 228              		.loc 1 95 0
 229 00f6 944B     		ldr	r3, .L51
 230 00f8 0022     		movs	r2, #0
 231 00fa 1A70     		strb	r2, [r3]
 232              		.loc 1 97 0
 233 00fc A3E1     		b	.L3
 234              	.L8:
  98:lib_Network/svt.c ****     		}
ARM GAS  C:\Users\Petro\AppData\Local\Temp\ccybtcEw.s 			page 7


  99:lib_Network/svt.c ****     		case READ_COM:
 100:lib_Network/svt.c ****     		{
 101:lib_Network/svt.c ****     			//printf("InByte Command: %02X\n", InByte);
 102:lib_Network/svt.c ****     			if(CheckSymb(InByte))
 235              		.loc 1 102 0
 236 00fe 1B23     		movs	r3, #27
 237 0100 FB18     		adds	r3, r7, r3
 238 0102 1B78     		ldrb	r3, [r3]
 239 0104 1800     		movs	r0, r3
 240 0106 FFF7FEFF 		bl	CheckSymb
 241 010a 031E     		subs	r3, r0, #0
 242 010c 1BD0     		beq	.L22
 103:lib_Network/svt.c ****     			{
 104:lib_Network/svt.c ****     				Data->Command |= InByte;
 243              		.loc 1 104 0
 244 010e FB69     		ldr	r3, [r7, #28]
 245 0110 5A68     		ldr	r2, [r3, #4]
 246 0112 1B23     		movs	r3, #27
 247 0114 FB18     		adds	r3, r7, r3
 248 0116 1B78     		ldrb	r3, [r3]
 249 0118 1A43     		orrs	r2, r3
 250 011a FB69     		ldr	r3, [r7, #28]
 251 011c 5A60     		str	r2, [r3, #4]
 105:lib_Network/svt.c ****     				LenC ++;
 252              		.loc 1 105 0
 253 011e 8C4B     		ldr	r3, .L51+8
 254 0120 1B78     		ldrb	r3, [r3]
 255 0122 0133     		adds	r3, r3, #1
 256 0124 DAB2     		uxtb	r2, r3
 257 0126 8A4B     		ldr	r3, .L51+8
 258 0128 1A70     		strb	r2, [r3]
 106:lib_Network/svt.c ****     				//printf("LenC Command: %d\n", LenC);
 107:lib_Network/svt.c ****     				if (LenC == LEN_COM)
 259              		.loc 1 107 0
 260 012a 894B     		ldr	r3, .L51+8
 261 012c 1B78     		ldrb	r3, [r3]
 262 012e 022B     		cmp	r3, #2
 263 0130 03D1     		bne	.L23
 108:lib_Network/svt.c ****     				{
 109:lib_Network/svt.c ****     					PROTO_STATE = READ_FR2;
 264              		.loc 1 109 0
 265 0132 854B     		ldr	r3, .L51
 266 0134 0422     		movs	r2, #4
 267 0136 1A70     		strb	r2, [r3]
 110:lib_Network/svt.c ****     				}
 111:lib_Network/svt.c ****     				else
 112:lib_Network/svt.c ****     				{
 113:lib_Network/svt.c ****     					Data->Command = Data->Command << HALF_BYTE;
 114:lib_Network/svt.c ****     				}
 115:lib_Network/svt.c ****     			}
 116:lib_Network/svt.c ****     			else
 117:lib_Network/svt.c ****     			{
 118:lib_Network/svt.c ****     				ResetPacket(Data);
 119:lib_Network/svt.c ****     				PROTO_STATE = WAIT_STX;
 120:lib_Network/svt.c ****     				ERR_CODE = INV_COMM;
 121:lib_Network/svt.c ****     			}
 122:lib_Network/svt.c ****     			break;
ARM GAS  C:\Users\Petro\AppData\Local\Temp\ccybtcEw.s 			page 8


 268              		.loc 1 122 0
 269 0138 85E1     		b	.L3
 270              	.L23:
 113:lib_Network/svt.c ****     				}
 271              		.loc 1 113 0
 272 013a FB69     		ldr	r3, [r7, #28]
 273 013c 5B68     		ldr	r3, [r3, #4]
 274 013e 1A01     		lsls	r2, r3, #4
 275 0140 FB69     		ldr	r3, [r7, #28]
 276 0142 5A60     		str	r2, [r3, #4]
 277              		.loc 1 122 0
 278 0144 7FE1     		b	.L3
 279              	.L22:
 118:lib_Network/svt.c ****     				PROTO_STATE = WAIT_STX;
 280              		.loc 1 118 0
 281 0146 FB69     		ldr	r3, [r7, #28]
 282 0148 1800     		movs	r0, r3
 283 014a FFF7FEFF 		bl	ResetPacket
 119:lib_Network/svt.c ****     				ERR_CODE = INV_COMM;
 284              		.loc 1 119 0
 285 014e 7E4B     		ldr	r3, .L51
 286 0150 0022     		movs	r2, #0
 287 0152 1A70     		strb	r2, [r3]
 120:lib_Network/svt.c ****     			}
 288              		.loc 1 120 0
 289 0154 0323     		movs	r3, #3
 290 0156 FB64     		str	r3, [r7, #76]
 291              		.loc 1 122 0
 292 0158 75E1     		b	.L3
 293              	.L9:
 123:lib_Network/svt.c ****     		}
 124:lib_Network/svt.c ****     		case READ_FR2:
 125:lib_Network/svt.c ****     		{
 126:lib_Network/svt.c ****     			if (InByte == FR2)
 294              		.loc 1 126 0
 295 015a 1B23     		movs	r3, #27
 296 015c FB18     		adds	r3, r7, r3
 297 015e 1B78     		ldrb	r3, [r3]
 298 0160 3A2B     		cmp	r3, #58
 299 0162 03D1     		bne	.L26
 127:lib_Network/svt.c ****     			{
 128:lib_Network/svt.c ****     				PROTO_STATE = READ_DA1;
 300              		.loc 1 128 0
 301 0164 784B     		ldr	r3, .L51
 302 0166 0522     		movs	r2, #5
 303 0168 1A70     		strb	r2, [r3]
 129:lib_Network/svt.c ****     			}
 130:lib_Network/svt.c ****     			else
 131:lib_Network/svt.c ****     			{
 132:lib_Network/svt.c ****     				ResetPacket(Data);
 133:lib_Network/svt.c ****     				ERR_CODE = NO_FR2;
 134:lib_Network/svt.c ****     				PROTO_STATE = WAIT_STX;
 135:lib_Network/svt.c ****     			}
 136:lib_Network/svt.c ****     			break;
 304              		.loc 1 136 0
 305 016a 6CE1     		b	.L3
 306              	.L26:
ARM GAS  C:\Users\Petro\AppData\Local\Temp\ccybtcEw.s 			page 9


 132:lib_Network/svt.c ****     				ERR_CODE = NO_FR2;
 307              		.loc 1 132 0
 308 016c FB69     		ldr	r3, [r7, #28]
 309 016e 1800     		movs	r0, r3
 310 0170 FFF7FEFF 		bl	ResetPacket
 133:lib_Network/svt.c ****     				PROTO_STATE = WAIT_STX;
 311              		.loc 1 133 0
 312 0174 0423     		movs	r3, #4
 313 0176 FB64     		str	r3, [r7, #76]
 134:lib_Network/svt.c ****     			}
 314              		.loc 1 134 0
 315 0178 734B     		ldr	r3, .L51
 316 017a 0022     		movs	r2, #0
 317 017c 1A70     		strb	r2, [r3]
 318              		.loc 1 136 0
 319 017e 62E1     		b	.L3
 320              	.L10:
 137:lib_Network/svt.c ****     		}
 138:lib_Network/svt.c ****     		case READ_DA1:
 139:lib_Network/svt.c ****     		{
 140:lib_Network/svt.c **** 
 141:lib_Network/svt.c ****     			if(CheckSymb(InByte))
 321              		.loc 1 141 0
 322 0180 1B23     		movs	r3, #27
 323 0182 FB18     		adds	r3, r7, r3
 324 0184 1B78     		ldrb	r3, [r3]
 325 0186 1800     		movs	r0, r3
 326 0188 FFF7FEFF 		bl	CheckSymb
 327 018c 031E     		subs	r3, r0, #0
 328 018e 2ED0     		beq	.L28
 142:lib_Network/svt.c ****     			{
 143:lib_Network/svt.c ****     				Data->Data1 |= InByte;
 329              		.loc 1 143 0
 330 0190 FB69     		ldr	r3, [r7, #28]
 331 0192 9A68     		ldr	r2, [r3, #8]
 332 0194 DB68     		ldr	r3, [r3, #12]
 333 0196 1B21     		movs	r1, #27
 334 0198 7918     		adds	r1, r7, r1
 335 019a 0978     		ldrb	r1, [r1]
 336 019c C9B2     		uxtb	r1, r1
 337 019e 3961     		str	r1, [r7, #16]
 338 01a0 0021     		movs	r1, #0
 339 01a2 7961     		str	r1, [r7, #20]
 340 01a4 3869     		ldr	r0, [r7, #16]
 341 01a6 7969     		ldr	r1, [r7, #20]
 342 01a8 0600     		movs	r6, r0
 343 01aa 1643     		orrs	r6, r2
 344 01ac BE60     		str	r6, [r7, #8]
 345 01ae 1943     		orrs	r1, r3
 346 01b0 F960     		str	r1, [r7, #12]
 347 01b2 FB69     		ldr	r3, [r7, #28]
 348 01b4 B968     		ldr	r1, [r7, #8]
 349 01b6 FA68     		ldr	r2, [r7, #12]
 350 01b8 9960     		str	r1, [r3, #8]
 351 01ba DA60     		str	r2, [r3, #12]
 144:lib_Network/svt.c ****     				LenD1++;
 352              		.loc 1 144 0
ARM GAS  C:\Users\Petro\AppData\Local\Temp\ccybtcEw.s 			page 10


 353 01bc 664B     		ldr	r3, .L51+16
 354 01be 1B78     		ldrb	r3, [r3]
 355 01c0 0133     		adds	r3, r3, #1
 356 01c2 DAB2     		uxtb	r2, r3
 357 01c4 644B     		ldr	r3, .L51+16
 358 01c6 1A70     		strb	r2, [r3]
 145:lib_Network/svt.c ****     				if (LenD1 == LEN_DA1)
 359              		.loc 1 145 0
 360 01c8 634B     		ldr	r3, .L51+16
 361 01ca 1B78     		ldrb	r3, [r3]
 362 01cc 102B     		cmp	r3, #16
 363 01ce 03D1     		bne	.L29
 146:lib_Network/svt.c ****     				{
 147:lib_Network/svt.c ****     					PROTO_STATE = READ_DA2;
 364              		.loc 1 147 0
 365 01d0 5D4B     		ldr	r3, .L51
 366 01d2 0622     		movs	r2, #6
 367 01d4 1A70     		strb	r2, [r3]
 148:lib_Network/svt.c ****     				}
 149:lib_Network/svt.c ****     				else
 150:lib_Network/svt.c ****     				{
 151:lib_Network/svt.c ****     					Data->Data1 = Data->Data1 << HALF_BYTE;
 152:lib_Network/svt.c ****     				}
 153:lib_Network/svt.c ****     			}
 154:lib_Network/svt.c ****     			else{
 155:lib_Network/svt.c ****     				ResetPacket(Data);
 156:lib_Network/svt.c ****     				ERR_CODE = INV_DA1;
 157:lib_Network/svt.c ****     				PROTO_STATE = WAIT_STX;
 158:lib_Network/svt.c ****     			}
 159:lib_Network/svt.c ****     			break;
 368              		.loc 1 159 0
 369 01d6 36E1     		b	.L3
 370              	.L29:
 151:lib_Network/svt.c ****     				}
 371              		.loc 1 151 0
 372 01d8 FB69     		ldr	r3, [r7, #28]
 373 01da 9A68     		ldr	r2, [r3, #8]
 374 01dc DB68     		ldr	r3, [r3, #12]
 375 01de 110F     		lsrs	r1, r2, #28
 376 01e0 1D01     		lsls	r5, r3, #4
 377 01e2 0D43     		orrs	r5, r1
 378 01e4 1401     		lsls	r4, r2, #4
 379 01e6 FB69     		ldr	r3, [r7, #28]
 380 01e8 9C60     		str	r4, [r3, #8]
 381 01ea DD60     		str	r5, [r3, #12]
 382              		.loc 1 159 0
 383 01ec 2BE1     		b	.L3
 384              	.L28:
 155:lib_Network/svt.c ****     				ERR_CODE = INV_DA1;
 385              		.loc 1 155 0
 386 01ee FB69     		ldr	r3, [r7, #28]
 387 01f0 1800     		movs	r0, r3
 388 01f2 FFF7FEFF 		bl	ResetPacket
 156:lib_Network/svt.c ****     				PROTO_STATE = WAIT_STX;
 389              		.loc 1 156 0
 390 01f6 0523     		movs	r3, #5
 391 01f8 FB64     		str	r3, [r7, #76]
ARM GAS  C:\Users\Petro\AppData\Local\Temp\ccybtcEw.s 			page 11


 157:lib_Network/svt.c ****     			}
 392              		.loc 1 157 0
 393 01fa 534B     		ldr	r3, .L51
 394 01fc 0022     		movs	r2, #0
 395 01fe 1A70     		strb	r2, [r3]
 396              		.loc 1 159 0
 397 0200 21E1     		b	.L3
 398              	.L11:
 160:lib_Network/svt.c ****     		}
 161:lib_Network/svt.c ****     		case READ_DA2:
 162:lib_Network/svt.c ****     		{
 163:lib_Network/svt.c ****     			
 164:lib_Network/svt.c **** 
 165:lib_Network/svt.c ****     			if(CheckSymb(InByte))
 399              		.loc 1 165 0
 400 0202 1B23     		movs	r3, #27
 401 0204 FB18     		adds	r3, r7, r3
 402 0206 1B78     		ldrb	r3, [r3]
 403 0208 1800     		movs	r0, r3
 404 020a FFF7FEFF 		bl	CheckSymb
 405 020e 031E     		subs	r3, r0, #0
 406 0210 1ED0     		beq	.L32
 166:lib_Network/svt.c ****     			{
 167:lib_Network/svt.c ****     				Data->Data2 |= InByte;
 407              		.loc 1 167 0
 408 0212 FB69     		ldr	r3, [r7, #28]
 409 0214 1A8A     		ldrh	r2, [r3, #16]
 410 0216 1B23     		movs	r3, #27
 411 0218 FB18     		adds	r3, r7, r3
 412 021a 1B78     		ldrb	r3, [r3]
 413 021c 9BB2     		uxth	r3, r3
 414 021e 1343     		orrs	r3, r2
 415 0220 9AB2     		uxth	r2, r3
 416 0222 FB69     		ldr	r3, [r7, #28]
 417 0224 1A82     		strh	r2, [r3, #16]
 168:lib_Network/svt.c ****     				LenD2++;
 418              		.loc 1 168 0
 419 0226 4D4B     		ldr	r3, .L51+20
 420 0228 1B78     		ldrb	r3, [r3]
 421 022a 0133     		adds	r3, r3, #1
 422 022c DAB2     		uxtb	r2, r3
 423 022e 4B4B     		ldr	r3, .L51+20
 424 0230 1A70     		strb	r2, [r3]
 169:lib_Network/svt.c ****     				if (LenD2 == LEN_DA2)
 425              		.loc 1 169 0
 426 0232 4A4B     		ldr	r3, .L51+20
 427 0234 1B78     		ldrb	r3, [r3]
 428 0236 042B     		cmp	r3, #4
 429 0238 03D1     		bne	.L33
 170:lib_Network/svt.c ****     				{
 171:lib_Network/svt.c ****     					PROTO_STATE = READ_DA3;
 430              		.loc 1 171 0
 431 023a 434B     		ldr	r3, .L51
 432 023c 0722     		movs	r2, #7
 433 023e 1A70     		strb	r2, [r3]
 172:lib_Network/svt.c ****     				}
 173:lib_Network/svt.c ****     				else
ARM GAS  C:\Users\Petro\AppData\Local\Temp\ccybtcEw.s 			page 12


 174:lib_Network/svt.c ****     				{
 175:lib_Network/svt.c ****     					Data->Data2 = Data->Data2 << HALF_BYTE;
 176:lib_Network/svt.c ****     				}
 177:lib_Network/svt.c ****     			}
 178:lib_Network/svt.c ****     			else{
 179:lib_Network/svt.c ****     				ResetPacket(Data);
 180:lib_Network/svt.c ****     				ERR_CODE = INV_DA2;
 181:lib_Network/svt.c ****     				PROTO_STATE = WAIT_STX;
 182:lib_Network/svt.c ****     			}
 183:lib_Network/svt.c ****     			break;
 434              		.loc 1 183 0
 435 0240 01E1     		b	.L3
 436              	.L33:
 175:lib_Network/svt.c ****     				}
 437              		.loc 1 175 0
 438 0242 FB69     		ldr	r3, [r7, #28]
 439 0244 1B8A     		ldrh	r3, [r3, #16]
 440 0246 1B01     		lsls	r3, r3, #4
 441 0248 9AB2     		uxth	r2, r3
 442 024a FB69     		ldr	r3, [r7, #28]
 443 024c 1A82     		strh	r2, [r3, #16]
 444              		.loc 1 183 0
 445 024e FAE0     		b	.L3
 446              	.L32:
 179:lib_Network/svt.c ****     				ERR_CODE = INV_DA2;
 447              		.loc 1 179 0
 448 0250 FB69     		ldr	r3, [r7, #28]
 449 0252 1800     		movs	r0, r3
 450 0254 FFF7FEFF 		bl	ResetPacket
 180:lib_Network/svt.c ****     				PROTO_STATE = WAIT_STX;
 451              		.loc 1 180 0
 452 0258 0623     		movs	r3, #6
 453 025a FB64     		str	r3, [r7, #76]
 181:lib_Network/svt.c ****     			}
 454              		.loc 1 181 0
 455 025c 3A4B     		ldr	r3, .L51
 456 025e 0022     		movs	r2, #0
 457 0260 1A70     		strb	r2, [r3]
 458              		.loc 1 183 0
 459 0262 F0E0     		b	.L3
 460              	.L12:
 184:lib_Network/svt.c ****     		}
 185:lib_Network/svt.c **** 			case READ_DA3:
 186:lib_Network/svt.c ****     		{
 187:lib_Network/svt.c ****     			if(CheckSymb(InByte))
 461              		.loc 1 187 0
 462 0264 1B23     		movs	r3, #27
 463 0266 FB18     		adds	r3, r7, r3
 464 0268 1B78     		ldrb	r3, [r3]
 465 026a 1800     		movs	r0, r3
 466 026c FFF7FEFF 		bl	CheckSymb
 467 0270 031E     		subs	r3, r0, #0
 468 0272 1ED0     		beq	.L36
 188:lib_Network/svt.c ****     			{
 189:lib_Network/svt.c ****     				Data->Data3 |= InByte;
 469              		.loc 1 189 0
 470 0274 FB69     		ldr	r3, [r7, #28]
ARM GAS  C:\Users\Petro\AppData\Local\Temp\ccybtcEw.s 			page 13


 471 0276 5A8A     		ldrh	r2, [r3, #18]
 472 0278 1B23     		movs	r3, #27
 473 027a FB18     		adds	r3, r7, r3
 474 027c 1B78     		ldrb	r3, [r3]
 475 027e 9BB2     		uxth	r3, r3
 476 0280 1343     		orrs	r3, r2
 477 0282 9AB2     		uxth	r2, r3
 478 0284 FB69     		ldr	r3, [r7, #28]
 479 0286 5A82     		strh	r2, [r3, #18]
 190:lib_Network/svt.c ****     				LenD3++;
 480              		.loc 1 190 0
 481 0288 354B     		ldr	r3, .L51+24
 482 028a 1B78     		ldrb	r3, [r3]
 483 028c 0133     		adds	r3, r3, #1
 484 028e DAB2     		uxtb	r2, r3
 485 0290 334B     		ldr	r3, .L51+24
 486 0292 1A70     		strb	r2, [r3]
 191:lib_Network/svt.c ****     				if (LenD3 == LEN_DA3)
 487              		.loc 1 191 0
 488 0294 324B     		ldr	r3, .L51+24
 489 0296 1B78     		ldrb	r3, [r3]
 490 0298 042B     		cmp	r3, #4
 491 029a 03D1     		bne	.L37
 192:lib_Network/svt.c ****     				{
 193:lib_Network/svt.c ****     					PROTO_STATE = READ_FR3;
 492              		.loc 1 193 0
 493 029c 2A4B     		ldr	r3, .L51
 494 029e 0822     		movs	r2, #8
 495 02a0 1A70     		strb	r2, [r3]
 194:lib_Network/svt.c ****     				}
 195:lib_Network/svt.c ****     				else
 196:lib_Network/svt.c ****     				{
 197:lib_Network/svt.c ****     					Data->Data3 = Data->Data3 << HALF_BYTE;
 198:lib_Network/svt.c ****     				}
 199:lib_Network/svt.c ****     			}
 200:lib_Network/svt.c ****     			else{
 201:lib_Network/svt.c ****     				ResetPacket(Data);
 202:lib_Network/svt.c ****     				ERR_CODE = INV_DA3;
 203:lib_Network/svt.c ****     				PROTO_STATE = WAIT_STX;
 204:lib_Network/svt.c ****     			}
 205:lib_Network/svt.c ****     			break;
 496              		.loc 1 205 0
 497 02a2 D0E0     		b	.L3
 498              	.L37:
 197:lib_Network/svt.c ****     				}
 499              		.loc 1 197 0
 500 02a4 FB69     		ldr	r3, [r7, #28]
 501 02a6 5B8A     		ldrh	r3, [r3, #18]
 502 02a8 1B01     		lsls	r3, r3, #4
 503 02aa 9AB2     		uxth	r2, r3
 504 02ac FB69     		ldr	r3, [r7, #28]
 505 02ae 5A82     		strh	r2, [r3, #18]
 506              		.loc 1 205 0
 507 02b0 C9E0     		b	.L3
 508              	.L36:
 201:lib_Network/svt.c ****     				ERR_CODE = INV_DA3;
 509              		.loc 1 201 0
ARM GAS  C:\Users\Petro\AppData\Local\Temp\ccybtcEw.s 			page 14


 510 02b2 FB69     		ldr	r3, [r7, #28]
 511 02b4 1800     		movs	r0, r3
 512 02b6 FFF7FEFF 		bl	ResetPacket
 202:lib_Network/svt.c ****     				PROTO_STATE = WAIT_STX;
 513              		.loc 1 202 0
 514 02ba 0A23     		movs	r3, #10
 515 02bc FB64     		str	r3, [r7, #76]
 203:lib_Network/svt.c ****     			}
 516              		.loc 1 203 0
 517 02be 224B     		ldr	r3, .L51
 518 02c0 0022     		movs	r2, #0
 519 02c2 1A70     		strb	r2, [r3]
 520              		.loc 1 205 0
 521 02c4 BFE0     		b	.L3
 522              	.L13:
 206:lib_Network/svt.c ****     		}
 207:lib_Network/svt.c ****     		case READ_FR3:
 208:lib_Network/svt.c ****     		{
 209:lib_Network/svt.c ****     			if (InByte == FR3)
 523              		.loc 1 209 0
 524 02c6 1B23     		movs	r3, #27
 525 02c8 FB18     		adds	r3, r7, r3
 526 02ca 1B78     		ldrb	r3, [r3]
 527 02cc 402B     		cmp	r3, #64
 528 02ce 03D1     		bne	.L40
 210:lib_Network/svt.c ****     			{
 211:lib_Network/svt.c ****     				PROTO_STATE = READ_CHS;
 529              		.loc 1 211 0
 530 02d0 1D4B     		ldr	r3, .L51
 531 02d2 0922     		movs	r2, #9
 532 02d4 1A70     		strb	r2, [r3]
 212:lib_Network/svt.c ****     			}
 213:lib_Network/svt.c ****     			else
 214:lib_Network/svt.c ****     			{
 215:lib_Network/svt.c ****     				ResetPacket(Data);
 216:lib_Network/svt.c ****     				ERR_CODE = NO_FR3;
 217:lib_Network/svt.c ****     				PROTO_STATE = WAIT_STX;
 218:lib_Network/svt.c ****     			}
 219:lib_Network/svt.c ****     			break;
 533              		.loc 1 219 0
 534 02d6 B6E0     		b	.L3
 535              	.L40:
 215:lib_Network/svt.c ****     				ERR_CODE = NO_FR3;
 536              		.loc 1 215 0
 537 02d8 FB69     		ldr	r3, [r7, #28]
 538 02da 1800     		movs	r0, r3
 539 02dc FFF7FEFF 		bl	ResetPacket
 216:lib_Network/svt.c ****     				PROTO_STATE = WAIT_STX;
 540              		.loc 1 216 0
 541 02e0 0723     		movs	r3, #7
 542 02e2 FB64     		str	r3, [r7, #76]
 217:lib_Network/svt.c ****     			}
 543              		.loc 1 217 0
 544 02e4 184B     		ldr	r3, .L51
 545 02e6 0022     		movs	r2, #0
 546 02e8 1A70     		strb	r2, [r3]
 547              		.loc 1 219 0
ARM GAS  C:\Users\Petro\AppData\Local\Temp\ccybtcEw.s 			page 15


 548 02ea ACE0     		b	.L3
 549              	.L14:
 220:lib_Network/svt.c ****     		}
 221:lib_Network/svt.c ****     		case READ_CHS:
 222:lib_Network/svt.c ****     		{
 223:lib_Network/svt.c ****     			if(CheckSymb(InByte))
 550              		.loc 1 223 0
 551 02ec 1B23     		movs	r3, #27
 552 02ee FB18     		adds	r3, r7, r3
 553 02f0 1B78     		ldrb	r3, [r3]
 554 02f2 1800     		movs	r0, r3
 555 02f4 FFF7FEFF 		bl	CheckSymb
 556 02f8 031E     		subs	r3, r0, #0
 557 02fa 1BD0     		beq	.L42
 224:lib_Network/svt.c ****     			{
 225:lib_Network/svt.c ****     				Data->CheckSum |= InByte;
 558              		.loc 1 225 0
 559 02fc FB69     		ldr	r3, [r7, #28]
 560 02fe 5A69     		ldr	r2, [r3, #20]
 561 0300 1B23     		movs	r3, #27
 562 0302 FB18     		adds	r3, r7, r3
 563 0304 1B78     		ldrb	r3, [r3]
 564 0306 1A43     		orrs	r2, r3
 565 0308 FB69     		ldr	r3, [r7, #28]
 566 030a 5A61     		str	r2, [r3, #20]
 226:lib_Network/svt.c ****     				LenChS++;
 567              		.loc 1 226 0
 568 030c 114B     		ldr	r3, .L51+12
 569 030e 1B78     		ldrb	r3, [r3]
 570 0310 0133     		adds	r3, r3, #1
 571 0312 DAB2     		uxtb	r2, r3
 572 0314 0F4B     		ldr	r3, .L51+12
 573 0316 1A70     		strb	r2, [r3]
 227:lib_Network/svt.c ****     				if (LenChS == LEN_CHS)
 574              		.loc 1 227 0
 575 0318 0E4B     		ldr	r3, .L51+12
 576 031a 1B78     		ldrb	r3, [r3]
 577 031c 082B     		cmp	r3, #8
 578 031e 03D1     		bne	.L43
 228:lib_Network/svt.c ****     				{
 229:lib_Network/svt.c ****     					PROTO_STATE = READ_ETX;
 579              		.loc 1 229 0
 580 0320 094B     		ldr	r3, .L51
 581 0322 0A22     		movs	r2, #10
 582 0324 1A70     		strb	r2, [r3]
 230:lib_Network/svt.c ****     				}
 231:lib_Network/svt.c ****     				else
 232:lib_Network/svt.c ****     				{
 233:lib_Network/svt.c ****     					Data->CheckSum = Data->CheckSum << HALF_BYTE;
 234:lib_Network/svt.c ****     				}
 235:lib_Network/svt.c ****     			}
 236:lib_Network/svt.c ****     			else
 237:lib_Network/svt.c ****     			{
 238:lib_Network/svt.c ****     				ResetPacket(Data);
 239:lib_Network/svt.c ****     				ERR_CODE = INV_CKECKSUM;
 240:lib_Network/svt.c ****     				PROTO_STATE = WAIT_STX;
 241:lib_Network/svt.c ****     			}
ARM GAS  C:\Users\Petro\AppData\Local\Temp\ccybtcEw.s 			page 16


 242:lib_Network/svt.c ****     			break;
 583              		.loc 1 242 0
 584 0326 8EE0     		b	.L3
 585              	.L43:
 233:lib_Network/svt.c ****     				}
 586              		.loc 1 233 0
 587 0328 FB69     		ldr	r3, [r7, #28]
 588 032a 5B69     		ldr	r3, [r3, #20]
 589 032c 1A01     		lsls	r2, r3, #4
 590 032e FB69     		ldr	r3, [r7, #28]
 591 0330 5A61     		str	r2, [r3, #20]
 592              		.loc 1 242 0
 593 0332 88E0     		b	.L3
 594              	.L42:
 238:lib_Network/svt.c ****     				ERR_CODE = INV_CKECKSUM;
 595              		.loc 1 238 0
 596 0334 FB69     		ldr	r3, [r7, #28]
 597 0336 1800     		movs	r0, r3
 598 0338 FFF7FEFF 		bl	ResetPacket
 239:lib_Network/svt.c ****     				PROTO_STATE = WAIT_STX;
 599              		.loc 1 239 0
 600 033c 0823     		movs	r3, #8
 601 033e FB64     		str	r3, [r7, #76]
 240:lib_Network/svt.c ****     			}
 602              		.loc 1 240 0
 603 0340 014B     		ldr	r3, .L51
 604 0342 0022     		movs	r2, #0
 605 0344 1A70     		strb	r2, [r3]
 606              		.loc 1 242 0
 607 0346 7EE0     		b	.L3
 608              	.L52:
 609              		.align	2
 610              	.L51:
 611 0348 00000000 		.word	PROTO_STATE
 612 034c 00000000 		.word	LenSeq
 613 0350 00000000 		.word	LenC
 614 0354 00000000 		.word	LenChS
 615 0358 00000000 		.word	LenD1
 616 035c 00000000 		.word	LenD2
 617 0360 00000000 		.word	LenD3
 618 0364 20000000 		.word	.L6
 619              	.L15:
 243:lib_Network/svt.c ****     		}
 244:lib_Network/svt.c ****     		case READ_ETX:
 245:lib_Network/svt.c ****     		{
 246:lib_Network/svt.c ****     			if (InByte == ETX)
 620              		.loc 1 246 0
 621 0368 1B23     		movs	r3, #27
 622 036a FB18     		adds	r3, r7, r3
 623 036c 1B78     		ldrb	r3, [r3]
 624 036e 3E2B     		cmp	r3, #62
 625 0370 5BD1     		bne	.L46
 626              	.LBB2:
 247:lib_Network/svt.c ****     			{
 248:lib_Network/svt.c ****                     uint32_t _tmpcrc;
 249:lib_Network/svt.c ****                     char _tmpdata[40];
 250:lib_Network/svt.c ****                     sprintf(_tmpdata, "%02X:%08X%08X%04X%04X", Data->Command, 
ARM GAS  C:\Users\Petro\AppData\Local\Temp\ccybtcEw.s 			page 17


 627              		.loc 1 250 0
 628 0372 FB69     		ldr	r3, [r7, #28]
 629 0374 5A68     		ldr	r2, [r3, #4]
 251:lib_Network/svt.c ****                         (uint32_t)((Data->Data1 & 0xFFFFFFFF00000000) >> 32), 
 630              		.loc 1 251 0
 631 0376 FB69     		ldr	r3, [r7, #28]
 632 0378 DC68     		ldr	r4, [r3, #12]
 633 037a 9B68     		ldr	r3, [r3, #8]
 634 037c 2300     		lsrs	r3, r4, #0
 635 037e 3B60     		str	r3, [r7]
 636 0380 0023     		movs	r3, #0
 637 0382 7B60     		str	r3, [r7, #4]
 250:lib_Network/svt.c ****                         (uint32_t)((Data->Data1 & 0xFFFFFFFF00000000) >> 32), 
 638              		.loc 1 250 0
 639 0384 3E68     		ldr	r6, [r7]
 252:lib_Network/svt.c ****                         (uint32_t)(Data->Data1 & 0x00000000FFFFFFFF), 
 640              		.loc 1 252 0
 641 0386 FB69     		ldr	r3, [r7, #28]
 642 0388 DC68     		ldr	r4, [r3, #12]
 643 038a 9B68     		ldr	r3, [r3, #8]
 250:lib_Network/svt.c ****                         (uint32_t)((Data->Data1 & 0xFFFFFFFF00000000) >> 32), 
 644              		.loc 1 250 0
 645 038c 1C00     		movs	r4, r3
 253:lib_Network/svt.c ****                         Data->Data2, Data->Data3);
 646              		.loc 1 253 0
 647 038e FB69     		ldr	r3, [r7, #28]
 648 0390 1B8A     		ldrh	r3, [r3, #16]
 250:lib_Network/svt.c ****                         (uint32_t)((Data->Data1 & 0xFFFFFFFF00000000) >> 32), 
 649              		.loc 1 250 0
 650 0392 1D00     		movs	r5, r3
 651              		.loc 1 253 0
 652 0394 FB69     		ldr	r3, [r7, #28]
 653 0396 5B8A     		ldrh	r3, [r3, #18]
 250:lib_Network/svt.c ****                         (uint32_t)((Data->Data1 & 0xFFFFFFFF00000000) >> 32), 
 654              		.loc 1 250 0
 655 0398 9846     		mov	r8, r3
 656 039a 2F49     		ldr	r1, .L53
 657 039c 0820     		movs	r0, #8
 658 039e 1823     		movs	r3, #24
 659 03a0 9C46     		mov	ip, r3
 660 03a2 BC44     		add	ip, ip, r7
 661 03a4 6044     		add	r0, r0, ip
 662 03a6 4346     		mov	r3, r8
 663 03a8 0293     		str	r3, [sp, #8]
 664 03aa 0195     		str	r5, [sp, #4]
 665 03ac 0094     		str	r4, [sp]
 666 03ae 3300     		movs	r3, r6
 667 03b0 FFF7FEFF 		bl	sprintf
 254:lib_Network/svt.c ****                     _tmpcrc = crc32_reset();
 668              		.loc 1 254 0
 669 03b4 0123     		movs	r3, #1
 670 03b6 5B42     		rsbs	r3, r3, #0
 671 03b8 BB64     		str	r3, [r7, #72]
 255:lib_Network/svt.c ****                     _tmpcrc = crc32_calc_block((uint8_t *)"A", 1, _tmpcrc);
 672              		.loc 1 255 0
 673 03ba BA6C     		ldr	r2, [r7, #72]
 674 03bc 274B     		ldr	r3, .L53+4
ARM GAS  C:\Users\Petro\AppData\Local\Temp\ccybtcEw.s 			page 18


 675 03be 0121     		movs	r1, #1
 676 03c0 1800     		movs	r0, r3
 677 03c2 FFF7FEFF 		bl	crc32_calc_block
 678 03c6 0300     		movs	r3, r0
 679 03c8 BB64     		str	r3, [r7, #72]
 256:lib_Network/svt.c ****                     _tmpcrc = crc32_calc_block((uint8_t *)_tmpdata, strlen(_tmpdata), _tmpcrc);
 680              		.loc 1 256 0
 681 03ca 0823     		movs	r3, #8
 682 03cc 1822     		movs	r2, #24
 683 03ce 9446     		mov	ip, r2
 684 03d0 BC44     		add	ip, ip, r7
 685 03d2 6344     		add	r3, r3, ip
 686 03d4 1800     		movs	r0, r3
 687 03d6 FFF7FEFF 		bl	strlen
 688 03da 0100     		movs	r1, r0
 689 03dc BA6C     		ldr	r2, [r7, #72]
 690 03de 0823     		movs	r3, #8
 691 03e0 1820     		movs	r0, #24
 692 03e2 8446     		mov	ip, r0
 693 03e4 BC44     		add	ip, ip, r7
 694 03e6 6344     		add	r3, r3, ip
 695 03e8 1800     		movs	r0, r3
 696 03ea FFF7FEFF 		bl	crc32_calc_block
 697 03ee 0300     		movs	r3, r0
 698 03f0 BB64     		str	r3, [r7, #72]
 257:lib_Network/svt.c ****     				_tmpcrc = crc32_calc_block((uint8_t *)"F", 1, _tmpcrc);
 699              		.loc 1 257 0
 700 03f2 BA6C     		ldr	r2, [r7, #72]
 701 03f4 1A4B     		ldr	r3, .L53+8
 702 03f6 0121     		movs	r1, #1
 703 03f8 1800     		movs	r0, r3
 704 03fa FFF7FEFF 		bl	crc32_calc_block
 705 03fe 0300     		movs	r3, r0
 706 0400 BB64     		str	r3, [r7, #72]
 258:lib_Network/svt.c ****                     _tmpcrc = crc32_final(_tmpcrc);
 707              		.loc 1 258 0
 708 0402 BB6C     		ldr	r3, [r7, #72]
 709 0404 DB43     		mvns	r3, r3
 710 0406 BB64     		str	r3, [r7, #72]
 259:lib_Network/svt.c ****                     if (_tmpcrc == Data->CheckSum)
 711              		.loc 1 259 0
 712 0408 FB69     		ldr	r3, [r7, #28]
 713 040a 5A69     		ldr	r2, [r3, #20]
 714 040c BB6C     		ldr	r3, [r7, #72]
 715 040e 9A42     		cmp	r2, r3
 716 0410 05D1     		bne	.L47
 260:lib_Network/svt.c ****                     {
 261:lib_Network/svt.c ****                         Data->EndPacket = 1;
 717              		.loc 1 261 0
 718 0412 FB69     		ldr	r3, [r7, #28]
 719 0414 0122     		movs	r2, #1
 720 0416 1A76     		strb	r2, [r3, #24]
 262:lib_Network/svt.c ****     				    ERR_CODE = PARSED_OK;
 721              		.loc 1 262 0
 722 0418 0023     		movs	r3, #0
 723 041a FB64     		str	r3, [r7, #76]
 724 041c 0BE0     		b	.L49
ARM GAS  C:\Users\Petro\AppData\Local\Temp\ccybtcEw.s 			page 19


 725              	.L47:
 263:lib_Network/svt.c ****                     }
 264:lib_Network/svt.c ****                     else
 265:lib_Network/svt.c ****                     {
 266:lib_Network/svt.c ****                         Data->EndPacket = 0;
 726              		.loc 1 266 0
 727 041e FB69     		ldr	r3, [r7, #28]
 728 0420 0022     		movs	r2, #0
 729 0422 1A76     		strb	r2, [r3, #24]
 267:lib_Network/svt.c ****                         ERR_CODE = 10;
 730              		.loc 1 267 0
 731 0424 0A23     		movs	r3, #10
 732 0426 FB64     		str	r3, [r7, #76]
 733 0428 05E0     		b	.L49
 734              	.L46:
 735              	.LBE2:
 268:lib_Network/svt.c ****                     }
 269:lib_Network/svt.c ****     			}
 270:lib_Network/svt.c ****     			else{
 271:lib_Network/svt.c ****     				ERR_CODE = NO_ETX;
 736              		.loc 1 271 0
 737 042a 0923     		movs	r3, #9
 738 042c FB64     		str	r3, [r7, #76]
 272:lib_Network/svt.c ****     				ResetPacket(Data);
 739              		.loc 1 272 0
 740 042e FB69     		ldr	r3, [r7, #28]
 741 0430 1800     		movs	r0, r3
 742 0432 FFF7FEFF 		bl	ResetPacket
 743              	.L49:
 273:lib_Network/svt.c ****     			}
 274:lib_Network/svt.c ****     			PROTO_STATE = WAIT_STX;
 744              		.loc 1 274 0
 745 0436 0B4B     		ldr	r3, .L53+12
 746 0438 0022     		movs	r2, #0
 747 043a 1A70     		strb	r2, [r3]
 275:lib_Network/svt.c ****     			break;
 748              		.loc 1 275 0
 749 043c 03E0     		b	.L3
 750              	.L4:
 276:lib_Network/svt.c ****     		}
 277:lib_Network/svt.c ****             default: 
 278:lib_Network/svt.c ****             {
 279:lib_Network/svt.c ****                 ResetPacket(Data);
 751              		.loc 1 279 0
 752 043e FB69     		ldr	r3, [r7, #28]
 753 0440 1800     		movs	r0, r3
 754 0442 FFF7FEFF 		bl	ResetPacket
 755              	.L3:
 280:lib_Network/svt.c ****             }
 281:lib_Network/svt.c ****     	}
 282:lib_Network/svt.c ****     } 
 283:lib_Network/svt.c ****     return ERR_CODE;
 756              		.loc 1 283 0
 757 0446 FB6C     		ldr	r3, [r7, #76]
 758 0448 DBB2     		uxtb	r3, r3
 284:lib_Network/svt.c **** }
 759              		.loc 1 284 0
ARM GAS  C:\Users\Petro\AppData\Local\Temp\ccybtcEw.s 			page 20


 760 044a 1800     		movs	r0, r3
 761 044c BD46     		mov	sp, r7
 762 044e 14B0     		add	sp, sp, #80
 763              		@ sp needed
 764 0450 04BC     		pop	{r2}
 765 0452 9046     		mov	r8, r2
 766 0454 F0BD     		pop	{r4, r5, r6, r7, pc}
 767              	.L54:
 768 0456 C046     		.align	2
 769              	.L53:
 770 0458 00000000 		.word	.LC8
 771 045c 18000000 		.word	.LC10
 772 0460 1C000000 		.word	.LC12
 773 0464 00000000 		.word	PROTO_STATE
 774              		.cfi_endproc
 775              	.LFE3:
 776              		.size	UnpackData, .-UnpackData
 777              		.section	.text.DecodeByte,"ax",%progbits
 778              		.align	2
 779              		.global	DecodeByte
 780              		.code	16
 781              		.thumb_func
 782              		.type	DecodeByte, %function
 783              	DecodeByte:
 784              	.LFB4:
 285:lib_Network/svt.c **** 
 286:lib_Network/svt.c **** uint8_t DecodeByte(uint8_t Inp)
 287:lib_Network/svt.c **** {
 785              		.loc 1 287 0
 786              		.cfi_startproc
 787              		@ args = 0, pretend = 0, frame = 8
 788              		@ frame_needed = 1, uses_anonymous_args = 0
 789 0000 80B5     		push	{r7, lr}
 790              		.cfi_def_cfa_offset 8
 791              		.cfi_offset 7, -8
 792              		.cfi_offset 14, -4
 793 0002 82B0     		sub	sp, sp, #8
 794              		.cfi_def_cfa_offset 16
 795 0004 00AF     		add	r7, sp, #0
 796              		.cfi_def_cfa_register 7
 797 0006 0200     		movs	r2, r0
 798 0008 FB1D     		adds	r3, r7, #7
 799 000a 1A70     		strb	r2, [r3]
 288:lib_Network/svt.c **** 	if ((Inp >= 'A') && (Inp <= 'F'))
 800              		.loc 1 288 0
 801 000c FB1D     		adds	r3, r7, #7
 802 000e 1B78     		ldrb	r3, [r3]
 803 0010 402B     		cmp	r3, #64
 804 0012 09D9     		bls	.L56
 805              		.loc 1 288 0 is_stmt 0 discriminator 1
 806 0014 FB1D     		adds	r3, r7, #7
 807 0016 1B78     		ldrb	r3, [r3]
 808 0018 462B     		cmp	r3, #70
 809 001a 05D8     		bhi	.L56
 289:lib_Network/svt.c **** 	{
 290:lib_Network/svt.c **** 		Inp -= 0x37;
 810              		.loc 1 290 0 is_stmt 1
ARM GAS  C:\Users\Petro\AppData\Local\Temp\ccybtcEw.s 			page 21


 811 001c FB1D     		adds	r3, r7, #7
 812 001e FA1D     		adds	r2, r7, #7
 813 0020 1278     		ldrb	r2, [r2]
 814 0022 373A     		subs	r2, r2, #55
 815 0024 1A70     		strb	r2, [r3]
 816 0026 0CE0     		b	.L57
 817              	.L56:
 291:lib_Network/svt.c **** 	}
 292:lib_Network/svt.c **** 	else if ((Inp >= '0') && (Inp <= '9')){
 818              		.loc 1 292 0
 819 0028 FB1D     		adds	r3, r7, #7
 820 002a 1B78     		ldrb	r3, [r3]
 821 002c 2F2B     		cmp	r3, #47
 822 002e 08D9     		bls	.L57
 823              		.loc 1 292 0 is_stmt 0 discriminator 1
 824 0030 FB1D     		adds	r3, r7, #7
 825 0032 1B78     		ldrb	r3, [r3]
 826 0034 392B     		cmp	r3, #57
 827 0036 04D8     		bhi	.L57
 293:lib_Network/svt.c **** 		Inp -= 0x30;
 828              		.loc 1 293 0 is_stmt 1
 829 0038 FB1D     		adds	r3, r7, #7
 830 003a FA1D     		adds	r2, r7, #7
 831 003c 1278     		ldrb	r2, [r2]
 832 003e 303A     		subs	r2, r2, #48
 833 0040 1A70     		strb	r2, [r3]
 834              	.L57:
 294:lib_Network/svt.c **** 	}
 295:lib_Network/svt.c **** 	return Inp;
 835              		.loc 1 295 0
 836 0042 FB1D     		adds	r3, r7, #7
 837 0044 1B78     		ldrb	r3, [r3]
 296:lib_Network/svt.c **** }
 838              		.loc 1 296 0
 839 0046 1800     		movs	r0, r3
 840 0048 BD46     		mov	sp, r7
 841 004a 02B0     		add	sp, sp, #8
 842              		@ sp needed
 843 004c 80BD     		pop	{r7, pc}
 844              		.cfi_endproc
 845              	.LFE4:
 846              		.size	DecodeByte, .-DecodeByte
 847 004e C046     		.section	.text.CheckSymb,"ax",%progbits
 848              		.align	2
 849              		.global	CheckSymb
 850              		.code	16
 851              		.thumb_func
 852              		.type	CheckSymb, %function
 853              	CheckSymb:
 854              	.LFB5:
 297:lib_Network/svt.c **** 
 298:lib_Network/svt.c **** uint8_t CheckSymb(uint8_t Inp)
 299:lib_Network/svt.c **** {
 855              		.loc 1 299 0
 856              		.cfi_startproc
 857              		@ args = 0, pretend = 0, frame = 16
 858              		@ frame_needed = 1, uses_anonymous_args = 0
ARM GAS  C:\Users\Petro\AppData\Local\Temp\ccybtcEw.s 			page 22


 859 0000 80B5     		push	{r7, lr}
 860              		.cfi_def_cfa_offset 8
 861              		.cfi_offset 7, -8
 862              		.cfi_offset 14, -4
 863 0002 84B0     		sub	sp, sp, #16
 864              		.cfi_def_cfa_offset 24
 865 0004 00AF     		add	r7, sp, #0
 866              		.cfi_def_cfa_register 7
 867 0006 0200     		movs	r2, r0
 868 0008 FB1D     		adds	r3, r7, #7
 869 000a 1A70     		strb	r2, [r3]
 300:lib_Network/svt.c **** 	uint8_t Val = 1;
 870              		.loc 1 300 0
 871 000c 0F23     		movs	r3, #15
 872 000e FB18     		adds	r3, r7, r3
 873 0010 0122     		movs	r2, #1
 874 0012 1A70     		strb	r2, [r3]
 301:lib_Network/svt.c **** 
 302:lib_Network/svt.c **** 	if ((Inp > 0xF) || (Inp < 0x0))
 875              		.loc 1 302 0
 876 0014 FB1D     		adds	r3, r7, #7
 877 0016 1B78     		ldrb	r3, [r3]
 878 0018 0F2B     		cmp	r3, #15
 879 001a 03D9     		bls	.L60
 303:lib_Network/svt.c **** 	{
 304:lib_Network/svt.c **** 		Val = 0;
 880              		.loc 1 304 0
 881 001c 0F23     		movs	r3, #15
 882 001e FB18     		adds	r3, r7, r3
 883 0020 0022     		movs	r2, #0
 884 0022 1A70     		strb	r2, [r3]
 885              	.L60:
 305:lib_Network/svt.c **** 	}
 306:lib_Network/svt.c **** 	return Val;
 886              		.loc 1 306 0
 887 0024 0F23     		movs	r3, #15
 888 0026 FB18     		adds	r3, r7, r3
 889 0028 1B78     		ldrb	r3, [r3]
 307:lib_Network/svt.c **** }
 890              		.loc 1 307 0
 891 002a 1800     		movs	r0, r3
 892 002c BD46     		mov	sp, r7
 893 002e 04B0     		add	sp, sp, #16
 894              		@ sp needed
 895 0030 80BD     		pop	{r7, pc}
 896              		.cfi_endproc
 897              	.LFE5:
 898              		.size	CheckSymb, .-CheckSymb
 899 0032 C046     		.section	.text.ResetPacket,"ax",%progbits
 900              		.align	2
 901              		.global	ResetPacket
 902              		.code	16
 903              		.thumb_func
 904              		.type	ResetPacket, %function
 905              	ResetPacket:
 906              	.LFB6:
 308:lib_Network/svt.c **** 
ARM GAS  C:\Users\Petro\AppData\Local\Temp\ccybtcEw.s 			page 23


 309:lib_Network/svt.c **** void ResetPacket(struct Resp *Data)
 310:lib_Network/svt.c **** {
 907              		.loc 1 310 0
 908              		.cfi_startproc
 909              		@ args = 0, pretend = 0, frame = 8
 910              		@ frame_needed = 1, uses_anonymous_args = 0
 911 0000 90B5     		push	{r4, r7, lr}
 912              		.cfi_def_cfa_offset 12
 913              		.cfi_offset 4, -12
 914              		.cfi_offset 7, -8
 915              		.cfi_offset 14, -4
 916 0002 83B0     		sub	sp, sp, #12
 917              		.cfi_def_cfa_offset 24
 918 0004 00AF     		add	r7, sp, #0
 919              		.cfi_def_cfa_register 7
 920 0006 7860     		str	r0, [r7, #4]
 311:lib_Network/svt.c **** 	Data->Seq = 0;
 921              		.loc 1 311 0
 922 0008 7B68     		ldr	r3, [r7, #4]
 923 000a 0022     		movs	r2, #0
 924 000c 1A80     		strh	r2, [r3]
 312:lib_Network/svt.c **** 	Data->Command = 0;
 925              		.loc 1 312 0
 926 000e 7B68     		ldr	r3, [r7, #4]
 927 0010 0022     		movs	r2, #0
 928 0012 5A60     		str	r2, [r3, #4]
 313:lib_Network/svt.c **** 	Data->Data1 = 0;
 929              		.loc 1 313 0
 930 0014 7A68     		ldr	r2, [r7, #4]
 931 0016 0023     		movs	r3, #0
 932 0018 0024     		movs	r4, #0
 933 001a 9360     		str	r3, [r2, #8]
 934 001c D460     		str	r4, [r2, #12]
 314:lib_Network/svt.c **** 	Data->Data2 = 0;
 935              		.loc 1 314 0
 936 001e 7B68     		ldr	r3, [r7, #4]
 937 0020 0022     		movs	r2, #0
 938 0022 1A82     		strh	r2, [r3, #16]
 315:lib_Network/svt.c **** 	Data->Data3 = 0;
 939              		.loc 1 315 0
 940 0024 7B68     		ldr	r3, [r7, #4]
 941 0026 0022     		movs	r2, #0
 942 0028 5A82     		strh	r2, [r3, #18]
 316:lib_Network/svt.c **** 	Data->CheckSum = 0;
 943              		.loc 1 316 0
 944 002a 7B68     		ldr	r3, [r7, #4]
 945 002c 0022     		movs	r2, #0
 946 002e 5A61     		str	r2, [r3, #20]
 317:lib_Network/svt.c **** 	Data->EndPacket = 0;
 947              		.loc 1 317 0
 948 0030 7B68     		ldr	r3, [r7, #4]
 949 0032 0022     		movs	r2, #0
 950 0034 1A76     		strb	r2, [r3, #24]
 318:lib_Network/svt.c **** }
 951              		.loc 1 318 0
 952 0036 C046     		nop
 953 0038 BD46     		mov	sp, r7
ARM GAS  C:\Users\Petro\AppData\Local\Temp\ccybtcEw.s 			page 24


 954 003a 03B0     		add	sp, sp, #12
 955              		@ sp needed
 956 003c 90BD     		pop	{r4, r7, pc}
 957              		.cfi_endproc
 958              	.LFE6:
 959              		.size	ResetPacket, .-ResetPacket
 960 003e C046     		.section	.rodata
 961              		.align	2
 962              	.LC14:
 963 004c 25303458 		.ascii	"%04X\000"
 963      00
 964 0051 000000   		.align	2
 965              	.LC18:
 966 0054 25303858 		.ascii	"%08X\000"
 966      00
 967 0059 000000   		.align	2
 968              	.LC20:
 969 005c 3C00     		.ascii	"<\000"
 970 005e 0000     		.align	2
 971              	.LC22:
 972 0060 2100     		.ascii	"!\000"
 973 0062 0000     		.align	2
 974              	.LC24:
 975 0064 4000     		.ascii	"@\000"
 976 0066 0000     		.align	2
 977              	.LC26:
 978 0068 3E00     		.ascii	">\000"
 979              		.section	.text.PackData,"ax",%progbits
 980              		.align	2
 981              		.global	PackData
 982              		.code	16
 983              		.thumb_func
 984              		.type	PackData, %function
 985              	PackData:
 986              	.LFB7:
 319:lib_Network/svt.c **** 
 320:lib_Network/svt.c **** uint8_t PackData(char *buff, uint8_t *data, uint16_t Sequence)
 321:lib_Network/svt.c **** {
 987              		.loc 1 321 0
 988              		.cfi_startproc
 989              		@ args = 0, pretend = 0, frame = 64
 990              		@ frame_needed = 1, uses_anonymous_args = 0
 991 0000 80B5     		push	{r7, lr}
 992              		.cfi_def_cfa_offset 8
 993              		.cfi_offset 7, -8
 994              		.cfi_offset 14, -4
 995 0002 90B0     		sub	sp, sp, #64
 996              		.cfi_def_cfa_offset 72
 997 0004 00AF     		add	r7, sp, #0
 998              		.cfi_def_cfa_register 7
 999 0006 F860     		str	r0, [r7, #12]
 1000 0008 B960     		str	r1, [r7, #8]
 1001 000a BB1D     		adds	r3, r7, #6
 1002 000c 1A80     		strh	r2, [r3]
 322:lib_Network/svt.c ****     uint32_t _crc;
 323:lib_Network/svt.c ****     char *_p;
 324:lib_Network/svt.c ****     char szSeq[20];
ARM GAS  C:\Users\Petro\AppData\Local\Temp\ccybtcEw.s 			page 25


 325:lib_Network/svt.c ****     char szCheckSum[20];
 326:lib_Network/svt.c ****     
 327:lib_Network/svt.c ****     _p = (char *)data;
 1003              		.loc 1 327 0
 1004 000e BB68     		ldr	r3, [r7, #8]
 1005 0010 FB63     		str	r3, [r7, #60]
 328:lib_Network/svt.c **** 
 329:lib_Network/svt.c **** 
 330:lib_Network/svt.c ****     sprintf(szSeq, "%04X", Sequence);
 1006              		.loc 1 330 0
 1007 0012 BB1D     		adds	r3, r7, #6
 1008 0014 1A88     		ldrh	r2, [r3]
 1009 0016 4149     		ldr	r1, .L65
 1010 0018 2423     		movs	r3, #36
 1011 001a FB18     		adds	r3, r7, r3
 1012 001c 1800     		movs	r0, r3
 1013 001e FFF7FEFF 		bl	sprintf
 331:lib_Network/svt.c ****     
 332:lib_Network/svt.c ****     _crc = crc32_reset();
 1014              		.loc 1 332 0
 1015 0022 0123     		movs	r3, #1
 1016 0024 5B42     		rsbs	r3, r3, #0
 1017 0026 BB63     		str	r3, [r7, #56]
 333:lib_Network/svt.c ****     _crc = crc32_calc_block((uint8_t *)"A", 1, _crc);
 1018              		.loc 1 333 0
 1019 0028 BA6B     		ldr	r2, [r7, #56]
 1020 002a 3D4B     		ldr	r3, .L65+4
 1021 002c 0121     		movs	r1, #1
 1022 002e 1800     		movs	r0, r3
 1023 0030 FFF7FEFF 		bl	crc32_calc_block
 1024 0034 0300     		movs	r3, r0
 1025 0036 BB63     		str	r3, [r7, #56]
 334:lib_Network/svt.c ****     _crc = crc32_calc_block((uint8_t *)_p, strlen(_p), _crc);
 1026              		.loc 1 334 0
 1027 0038 FB6B     		ldr	r3, [r7, #60]
 1028 003a 1800     		movs	r0, r3
 1029 003c FFF7FEFF 		bl	strlen
 1030 0040 0100     		movs	r1, r0
 1031 0042 BA6B     		ldr	r2, [r7, #56]
 1032 0044 FB6B     		ldr	r3, [r7, #60]
 1033 0046 1800     		movs	r0, r3
 1034 0048 FFF7FEFF 		bl	crc32_calc_block
 1035 004c 0300     		movs	r3, r0
 1036 004e BB63     		str	r3, [r7, #56]
 335:lib_Network/svt.c ****     _crc = crc32_calc_block((uint8_t *)"F", 1, _crc);
 1037              		.loc 1 335 0
 1038 0050 BA6B     		ldr	r2, [r7, #56]
 1039 0052 344B     		ldr	r3, .L65+8
 1040 0054 0121     		movs	r1, #1
 1041 0056 1800     		movs	r0, r3
 1042 0058 FFF7FEFF 		bl	crc32_calc_block
 1043 005c 0300     		movs	r3, r0
 1044 005e BB63     		str	r3, [r7, #56]
 336:lib_Network/svt.c ****     _crc = crc32_final(_crc);
 1045              		.loc 1 336 0
 1046 0060 BB6B     		ldr	r3, [r7, #56]
 1047 0062 DB43     		mvns	r3, r3
ARM GAS  C:\Users\Petro\AppData\Local\Temp\ccybtcEw.s 			page 26


 1048 0064 BB63     		str	r3, [r7, #56]
 337:lib_Network/svt.c ****     
 338:lib_Network/svt.c ****     sprintf(szCheckSum, "%08X", _crc);
 1049              		.loc 1 338 0
 1050 0066 BA6B     		ldr	r2, [r7, #56]
 1051 0068 2F49     		ldr	r1, .L65+12
 1052 006a 1023     		movs	r3, #16
 1053 006c FB18     		adds	r3, r7, r3
 1054 006e 1800     		movs	r0, r3
 1055 0070 FFF7FEFF 		bl	sprintf
 339:lib_Network/svt.c ****     
 340:lib_Network/svt.c ****     strcpy(buff, STX_S);
 1056              		.loc 1 340 0
 1057 0074 FA68     		ldr	r2, [r7, #12]
 1058 0076 2D4B     		ldr	r3, .L65+16
 1059 0078 1000     		movs	r0, r2
 1060 007a 1900     		movs	r1, r3
 1061 007c 0223     		movs	r3, #2
 1062 007e 1A00     		movs	r2, r3
 1063 0080 FFF7FEFF 		bl	memcpy
 341:lib_Network/svt.c ****     strcat(buff, szSeq);
 1064              		.loc 1 341 0
 1065 0084 2423     		movs	r3, #36
 1066 0086 FA18     		adds	r2, r7, r3
 1067 0088 FB68     		ldr	r3, [r7, #12]
 1068 008a 1100     		movs	r1, r2
 1069 008c 1800     		movs	r0, r3
 1070 008e FFF7FEFF 		bl	strcat
 342:lib_Network/svt.c ****     strcat(buff, FRM0);
 1071              		.loc 1 342 0
 1072 0092 FB68     		ldr	r3, [r7, #12]
 1073 0094 1800     		movs	r0, r3
 1074 0096 FFF7FEFF 		bl	strlen
 1075 009a 0300     		movs	r3, r0
 1076 009c 1A00     		movs	r2, r3
 1077 009e FB68     		ldr	r3, [r7, #12]
 1078 00a0 9A18     		adds	r2, r3, r2
 1079 00a2 234B     		ldr	r3, .L65+20
 1080 00a4 1000     		movs	r0, r2
 1081 00a6 1900     		movs	r1, r3
 1082 00a8 0223     		movs	r3, #2
 1083 00aa 1A00     		movs	r2, r3
 1084 00ac FFF7FEFF 		bl	memcpy
 343:lib_Network/svt.c ****     strcat(buff, _p);
 1085              		.loc 1 343 0
 1086 00b0 FA6B     		ldr	r2, [r7, #60]
 1087 00b2 FB68     		ldr	r3, [r7, #12]
 1088 00b4 1100     		movs	r1, r2
 1089 00b6 1800     		movs	r0, r3
 1090 00b8 FFF7FEFF 		bl	strcat
 344:lib_Network/svt.c ****     strcat(buff, FRM1);    
 1091              		.loc 1 344 0
 1092 00bc FB68     		ldr	r3, [r7, #12]
 1093 00be 1800     		movs	r0, r3
 1094 00c0 FFF7FEFF 		bl	strlen
 1095 00c4 0300     		movs	r3, r0
 1096 00c6 1A00     		movs	r2, r3
ARM GAS  C:\Users\Petro\AppData\Local\Temp\ccybtcEw.s 			page 27


 1097 00c8 FB68     		ldr	r3, [r7, #12]
 1098 00ca 9A18     		adds	r2, r3, r2
 1099 00cc 194B     		ldr	r3, .L65+24
 1100 00ce 1000     		movs	r0, r2
 1101 00d0 1900     		movs	r1, r3
 1102 00d2 0223     		movs	r3, #2
 1103 00d4 1A00     		movs	r2, r3
 1104 00d6 FFF7FEFF 		bl	memcpy
 345:lib_Network/svt.c ****     strcat(buff, szCheckSum);
 1105              		.loc 1 345 0
 1106 00da 1023     		movs	r3, #16
 1107 00dc FA18     		adds	r2, r7, r3
 1108 00de FB68     		ldr	r3, [r7, #12]
 1109 00e0 1100     		movs	r1, r2
 1110 00e2 1800     		movs	r0, r3
 1111 00e4 FFF7FEFF 		bl	strcat
 346:lib_Network/svt.c ****     strcat(buff, ETX_S);
 1112              		.loc 1 346 0
 1113 00e8 FB68     		ldr	r3, [r7, #12]
 1114 00ea 1800     		movs	r0, r3
 1115 00ec FFF7FEFF 		bl	strlen
 1116 00f0 0300     		movs	r3, r0
 1117 00f2 1A00     		movs	r2, r3
 1118 00f4 FB68     		ldr	r3, [r7, #12]
 1119 00f6 9A18     		adds	r2, r3, r2
 1120 00f8 0F4B     		ldr	r3, .L65+28
 1121 00fa 1000     		movs	r0, r2
 1122 00fc 1900     		movs	r1, r3
 1123 00fe 0223     		movs	r3, #2
 1124 0100 1A00     		movs	r2, r3
 1125 0102 FFF7FEFF 		bl	memcpy
 347:lib_Network/svt.c ****     
 348:lib_Network/svt.c ****     return strlen(buff);
 1126              		.loc 1 348 0
 1127 0106 FB68     		ldr	r3, [r7, #12]
 1128 0108 1800     		movs	r0, r3
 1129 010a FFF7FEFF 		bl	strlen
 1130 010e 0300     		movs	r3, r0
 1131 0110 DBB2     		uxtb	r3, r3
 349:lib_Network/svt.c **** }
 1132              		.loc 1 349 0
 1133 0112 1800     		movs	r0, r3
 1134 0114 BD46     		mov	sp, r7
 1135 0116 10B0     		add	sp, sp, #64
 1136              		@ sp needed
 1137 0118 80BD     		pop	{r7, pc}
 1138              	.L66:
 1139 011a C046     		.align	2
 1140              	.L65:
 1141 011c 4C000000 		.word	.LC14
 1142 0120 18000000 		.word	.LC10
 1143 0124 1C000000 		.word	.LC12
 1144 0128 54000000 		.word	.LC18
 1145 012c 5C000000 		.word	.LC20
 1146 0130 60000000 		.word	.LC22
 1147 0134 64000000 		.word	.LC24
 1148 0138 68000000 		.word	.LC26
ARM GAS  C:\Users\Petro\AppData\Local\Temp\ccybtcEw.s 			page 28


 1149              		.cfi_endproc
 1150              	.LFE7:
 1151              		.size	PackData, .-PackData
 1152              		.text
 1153              	.Letext0:
 1154              		.file 2 "c:\\program files (x86)\\cypress\\psoc creator\\4.1\\psoc creator\\import\\gnu\\arm\\5.4.
 1155              		.file 3 "c:\\program files (x86)\\cypress\\psoc creator\\4.1\\psoc creator\\import\\gnu\\arm\\5.4.
 1156              		.file 4 "lib_Network\\svt.h"
 1157              		.section	.debug_info,"",%progbits
 1158              	.Ldebug_info0:
 1159 0000 0D040000 		.4byte	0x40d
 1160 0004 0400     		.2byte	0x4
 1161 0006 00000000 		.4byte	.Ldebug_abbrev0
 1162 000a 04       		.byte	0x4
 1163 000b 01       		.uleb128 0x1
 1164 000c 83010000 		.4byte	.LASF74
 1165 0010 0C       		.byte	0xc
 1166 0011 00030000 		.4byte	.LASF75
 1167 0015 EA000000 		.4byte	.LASF76
 1168 0019 00000000 		.4byte	.Ldebug_ranges0+0
 1169 001d 00000000 		.4byte	0
 1170 0021 00000000 		.4byte	.Ldebug_line0
 1171 0025 02       		.uleb128 0x2
 1172 0026 01       		.byte	0x1
 1173 0027 06       		.byte	0x6
 1174 0028 5B000000 		.4byte	.LASF0
 1175 002c 03       		.uleb128 0x3
 1176 002d 26000000 		.4byte	.LASF3
 1177 0031 02       		.byte	0x2
 1178 0032 1D       		.byte	0x1d
 1179 0033 37000000 		.4byte	0x37
 1180 0037 02       		.uleb128 0x2
 1181 0038 01       		.byte	0x1
 1182 0039 08       		.byte	0x8
 1183 003a C9020000 		.4byte	.LASF1
 1184 003e 02       		.uleb128 0x2
 1185 003f 02       		.byte	0x2
 1186 0040 05       		.byte	0x5
 1187 0041 E2020000 		.4byte	.LASF2
 1188 0045 03       		.uleb128 0x3
 1189 0046 27030000 		.4byte	.LASF4
 1190 004a 02       		.byte	0x2
 1191 004b 2B       		.byte	0x2b
 1192 004c 50000000 		.4byte	0x50
 1193 0050 02       		.uleb128 0x2
 1194 0051 02       		.byte	0x2
 1195 0052 07       		.byte	0x7
 1196 0053 47010000 		.4byte	.LASF5
 1197 0057 02       		.uleb128 0x2
 1198 0058 04       		.byte	0x4
 1199 0059 05       		.byte	0x5
 1200 005a 78000000 		.4byte	.LASF6
 1201 005e 03       		.uleb128 0x3
 1202 005f B2000000 		.4byte	.LASF7
 1203 0063 02       		.byte	0x2
 1204 0064 41       		.byte	0x41
 1205 0065 69000000 		.4byte	0x69
ARM GAS  C:\Users\Petro\AppData\Local\Temp\ccybtcEw.s 			page 29


 1206 0069 02       		.uleb128 0x2
 1207 006a 04       		.byte	0x4
 1208 006b 07       		.byte	0x7
 1209 006c 26010000 		.4byte	.LASF8
 1210 0070 02       		.uleb128 0x2
 1211 0071 08       		.byte	0x8
 1212 0072 05       		.byte	0x5
 1213 0073 4D000000 		.4byte	.LASF9
 1214 0077 03       		.uleb128 0x3
 1215 0078 97020000 		.4byte	.LASF10
 1216 007c 02       		.byte	0x2
 1217 007d 5B       		.byte	0x5b
 1218 007e 82000000 		.4byte	0x82
 1219 0082 02       		.uleb128 0x2
 1220 0083 08       		.byte	0x8
 1221 0084 07       		.byte	0x7
 1222 0085 30000000 		.4byte	.LASF11
 1223 0089 04       		.uleb128 0x4
 1224 008a 04       		.byte	0x4
 1225 008b 05       		.byte	0x5
 1226 008c 696E7400 		.ascii	"int\000"
 1227 0090 02       		.uleb128 0x2
 1228 0091 04       		.byte	0x4
 1229 0092 07       		.byte	0x7
 1230 0093 DD000000 		.4byte	.LASF12
 1231 0097 03       		.uleb128 0x3
 1232 0098 72030000 		.4byte	.LASF13
 1233 009c 03       		.byte	0x3
 1234 009d 18       		.byte	0x18
 1235 009e 2C000000 		.4byte	0x2c
 1236 00a2 03       		.uleb128 0x3
 1237 00a3 81000000 		.4byte	.LASF14
 1238 00a7 03       		.byte	0x3
 1239 00a8 24       		.byte	0x24
 1240 00a9 45000000 		.4byte	0x45
 1241 00ad 03       		.uleb128 0x3
 1242 00ae 19030000 		.4byte	.LASF15
 1243 00b2 03       		.byte	0x3
 1244 00b3 30       		.byte	0x30
 1245 00b4 5E000000 		.4byte	0x5e
 1246 00b8 03       		.uleb128 0x3
 1247 00b9 1D000000 		.4byte	.LASF16
 1248 00bd 03       		.byte	0x3
 1249 00be 3C       		.byte	0x3c
 1250 00bf 77000000 		.4byte	0x77
 1251 00c3 02       		.uleb128 0x2
 1252 00c4 08       		.byte	0x8
 1253 00c5 04       		.byte	0x4
 1254 00c6 61020000 		.4byte	.LASF17
 1255 00ca 02       		.uleb128 0x2
 1256 00cb 04       		.byte	0x4
 1257 00cc 07       		.byte	0x7
 1258 00cd 58020000 		.4byte	.LASF18
 1259 00d1 05       		.uleb128 0x5
 1260 00d2 04       		.byte	0x4
 1261 00d3 D7000000 		.4byte	0xd7
 1262 00d7 02       		.uleb128 0x2
ARM GAS  C:\Users\Petro\AppData\Local\Temp\ccybtcEw.s 			page 30


 1263 00d8 01       		.byte	0x1
 1264 00d9 08       		.byte	0x8
 1265 00da 22030000 		.4byte	.LASF19
 1266 00de 02       		.uleb128 0x2
 1267 00df 04       		.byte	0x4
 1268 00e0 04       		.byte	0x4
 1269 00e1 A2020000 		.4byte	.LASF20
 1270 00e5 02       		.uleb128 0x2
 1271 00e6 08       		.byte	0x8
 1272 00e7 04       		.byte	0x4
 1273 00e8 8A000000 		.4byte	.LASF21
 1274 00ec 06       		.uleb128 0x6
 1275 00ed 77020000 		.4byte	.LASF77
 1276 00f1 20       		.byte	0x20
 1277 00f2 04       		.byte	0x4
 1278 00f3 0D       		.byte	0xd
 1279 00f4 4D010000 		.4byte	0x14d
 1280 00f8 07       		.uleb128 0x7
 1281 00f9 53657100 		.ascii	"Seq\000"
 1282 00fd 04       		.byte	0x4
 1283 00fe 0F       		.byte	0xf
 1284 00ff A2000000 		.4byte	0xa2
 1285 0103 00       		.byte	0
 1286 0104 08       		.uleb128 0x8
 1287 0105 A3000000 		.4byte	.LASF22
 1288 0109 04       		.byte	0x4
 1289 010a 10       		.byte	0x10
 1290 010b 89000000 		.4byte	0x89
 1291 010f 04       		.byte	0x4
 1292 0110 08       		.uleb128 0x8
 1293 0111 5A010000 		.4byte	.LASF23
 1294 0115 04       		.byte	0x4
 1295 0116 11       		.byte	0x11
 1296 0117 B8000000 		.4byte	0xb8
 1297 011b 08       		.byte	0x8
 1298 011c 08       		.uleb128 0x8
 1299 011d 60010000 		.4byte	.LASF24
 1300 0121 04       		.byte	0x4
 1301 0122 12       		.byte	0x12
 1302 0123 A2000000 		.4byte	0xa2
 1303 0127 10       		.byte	0x10
 1304 0128 08       		.uleb128 0x8
 1305 0129 66010000 		.4byte	.LASF25
 1306 012d 04       		.byte	0x4
 1307 012e 13       		.byte	0x13
 1308 012f A2000000 		.4byte	0xa2
 1309 0133 12       		.byte	0x12
 1310 0134 08       		.uleb128 0x8
 1311 0135 A8020000 		.4byte	.LASF26
 1312 0139 04       		.byte	0x4
 1313 013a 14       		.byte	0x14
 1314 013b AD000000 		.4byte	0xad
 1315 013f 14       		.byte	0x14
 1316 0140 08       		.uleb128 0x8
 1317 0141 86030000 		.4byte	.LASF27
 1318 0145 04       		.byte	0x4
 1319 0146 15       		.byte	0x15
ARM GAS  C:\Users\Petro\AppData\Local\Temp\ccybtcEw.s 			page 31


 1320 0147 97000000 		.4byte	0x97
 1321 014b 18       		.byte	0x18
 1322 014c 00       		.byte	0
 1323 014d 09       		.uleb128 0x9
 1324 014e F5020000 		.4byte	.LASF39
 1325 0152 01       		.byte	0x1
 1326 0153 37000000 		.4byte	0x37
 1327 0157 04       		.byte	0x4
 1328 0158 18       		.byte	0x18
 1329 0159 A0010000 		.4byte	0x1a0
 1330 015d 0A       		.uleb128 0xa
 1331 015e 6D020000 		.4byte	.LASF28
 1332 0162 00       		.byte	0
 1333 0163 0A       		.uleb128 0xa
 1334 0164 26020000 		.4byte	.LASF29
 1335 0168 01       		.byte	0x1
 1336 0169 0A       		.uleb128 0xa
 1337 016a AB000000 		.4byte	.LASF30
 1338 016e 02       		.byte	0x2
 1339 016f 0A       		.uleb128 0xa
 1340 0170 14000000 		.4byte	.LASF31
 1341 0174 03       		.byte	0x3
 1342 0175 0A       		.uleb128 0xa
 1343 0176 7F030000 		.4byte	.LASF32
 1344 017a 04       		.byte	0x4
 1345 017b 0A       		.uleb128 0xa
 1346 017c B1020000 		.4byte	.LASF33
 1347 0180 05       		.byte	0x5
 1348 0181 0A       		.uleb128 0xa
 1349 0182 B9020000 		.4byte	.LASF34
 1350 0186 06       		.byte	0x6
 1351 0187 0A       		.uleb128 0xa
 1352 0188 BD000000 		.4byte	.LASF35
 1353 018c 07       		.byte	0x7
 1354 018d 0A       		.uleb128 0xa
 1355 018e 5C030000 		.4byte	.LASF36
 1356 0192 08       		.byte	0x8
 1357 0193 0A       		.uleb128 0xa
 1358 0194 32030000 		.4byte	.LASF37
 1359 0198 09       		.byte	0x9
 1360 0199 0A       		.uleb128 0xa
 1361 019a C1020000 		.4byte	.LASF38
 1362 019e 0A       		.byte	0xa
 1363 019f 00       		.byte	0
 1364 01a0 09       		.uleb128 0x9
 1365 01a1 73010000 		.4byte	.LASF40
 1366 01a5 01       		.byte	0x1
 1367 01a6 37000000 		.4byte	0x37
 1368 01aa 01       		.byte	0x1
 1369 01ab 04       		.byte	0x4
 1370 01ac F3010000 		.4byte	0x1f3
 1371 01b0 0A       		.uleb128 0xa
 1372 01b1 42030000 		.4byte	.LASF41
 1373 01b5 00       		.byte	0
 1374 01b6 0A       		.uleb128 0xa
 1375 01b7 54030000 		.4byte	.LASF42
 1376 01bb 01       		.byte	0x1
ARM GAS  C:\Users\Petro\AppData\Local\Temp\ccybtcEw.s 			page 32


 1377 01bc 0A       		.uleb128 0xa
 1378 01bd 2E020000 		.4byte	.LASF43
 1379 01c1 02       		.byte	0x2
 1380 01c2 0A       		.uleb128 0xa
 1381 01c3 EC020000 		.4byte	.LASF44
 1382 01c7 03       		.byte	0x3
 1383 01c8 0A       		.uleb128 0xa
 1384 01c9 37020000 		.4byte	.LASF45
 1385 01cd 04       		.byte	0x4
 1386 01ce 0A       		.uleb128 0xa
 1387 01cf 7C020000 		.4byte	.LASF46
 1388 01d3 05       		.byte	0x5
 1389 01d4 0A       		.uleb128 0xa
 1390 01d5 85020000 		.4byte	.LASF47
 1391 01d9 06       		.byte	0x6
 1392 01da 0A       		.uleb128 0xa
 1393 01db 8E020000 		.4byte	.LASF48
 1394 01df 07       		.byte	0x7
 1395 01e0 0A       		.uleb128 0xa
 1396 01e1 40020000 		.4byte	.LASF49
 1397 01e5 08       		.byte	0x8
 1398 01e6 0A       		.uleb128 0xa
 1399 01e7 4B030000 		.4byte	.LASF50
 1400 01eb 09       		.byte	0x9
 1401 01ec 0A       		.uleb128 0xa
 1402 01ed 00000000 		.4byte	.LASF51
 1403 01f1 0A       		.byte	0xa
 1404 01f2 00       		.byte	0
 1405 01f3 0B       		.uleb128 0xb
 1406 01f4 09000000 		.4byte	.LASF57
 1407 01f8 01       		.byte	0x1
 1408 01f9 2E       		.byte	0x2e
 1409 01fa 97000000 		.4byte	0x97
 1410 01fe 00000000 		.4byte	.LFB3
 1411 0202 68040000 		.4byte	.LFE3-.LFB3
 1412 0206 01       		.uleb128 0x1
 1413 0207 9C       		.byte	0x9c
 1414 0208 60020000 		.4byte	0x260
 1415 020c 0C       		.uleb128 0xc
 1416 020d 7A030000 		.4byte	.LASF52
 1417 0211 01       		.byte	0x1
 1418 0212 2E       		.byte	0x2e
 1419 0213 60020000 		.4byte	0x260
 1420 0217 03       		.uleb128 0x3
 1421 0218 91       		.byte	0x91
 1422 0219 B47F     		.sleb128 -76
 1423 021b 0C       		.uleb128 0xc
 1424 021c 6C010000 		.4byte	.LASF53
 1425 0220 01       		.byte	0x1
 1426 0221 2E       		.byte	0x2e
 1427 0222 97000000 		.4byte	0x97
 1428 0226 03       		.uleb128 0x3
 1429 0227 91       		.byte	0x91
 1430 0228 B37F     		.sleb128 -77
 1431 022a 0D       		.uleb128 0xd
 1432 022b D4000000 		.4byte	.LASF54
 1433 022f 01       		.byte	0x1
ARM GAS  C:\Users\Petro\AppData\Local\Temp\ccybtcEw.s 			page 33


 1434 0230 30       		.byte	0x30
 1435 0231 AD000000 		.4byte	0xad
 1436 0235 02       		.uleb128 0x2
 1437 0236 91       		.byte	0x91
 1438 0237 64       		.sleb128 -28
 1439 0238 0E       		.uleb128 0xe
 1440 0239 72030000 		.4byte	.LBB2
 1441 023d B8000000 		.4byte	.LBE2-.LBB2
 1442 0241 0D       		.uleb128 0xd
 1443 0242 50020000 		.4byte	.LASF55
 1444 0246 01       		.byte	0x1
 1445 0247 F8       		.byte	0xf8
 1446 0248 AD000000 		.4byte	0xad
 1447 024c 02       		.uleb128 0x2
 1448 024d 91       		.byte	0x91
 1449 024e 60       		.sleb128 -32
 1450 024f 0D       		.uleb128 0xd
 1451 0250 39030000 		.4byte	.LASF56
 1452 0254 01       		.byte	0x1
 1453 0255 F9       		.byte	0xf9
 1454 0256 66020000 		.4byte	0x266
 1455 025a 03       		.uleb128 0x3
 1456 025b 91       		.byte	0x91
 1457 025c B87F     		.sleb128 -72
 1458 025e 00       		.byte	0
 1459 025f 00       		.byte	0
 1460 0260 05       		.uleb128 0x5
 1461 0261 04       		.byte	0x4
 1462 0262 EC000000 		.4byte	0xec
 1463 0266 0F       		.uleb128 0xf
 1464 0267 D7000000 		.4byte	0xd7
 1465 026b 76020000 		.4byte	0x276
 1466 026f 10       		.uleb128 0x10
 1467 0270 CA000000 		.4byte	0xca
 1468 0274 27       		.byte	0x27
 1469 0275 00       		.byte	0
 1470 0276 11       		.uleb128 0x11
 1471 0277 C4000000 		.4byte	.LASF58
 1472 027b 01       		.byte	0x1
 1473 027c 1E01     		.2byte	0x11e
 1474 027e 97000000 		.4byte	0x97
 1475 0282 00000000 		.4byte	.LFB4
 1476 0286 4E000000 		.4byte	.LFE4-.LFB4
 1477 028a 01       		.uleb128 0x1
 1478 028b 9C       		.byte	0x9c
 1479 028c A0020000 		.4byte	0x2a0
 1480 0290 12       		.uleb128 0x12
 1481 0291 496E7000 		.ascii	"Inp\000"
 1482 0295 01       		.byte	0x1
 1483 0296 1E01     		.2byte	0x11e
 1484 0298 97000000 		.4byte	0x97
 1485 029c 02       		.uleb128 0x2
 1486 029d 91       		.byte	0x91
 1487 029e 77       		.sleb128 -9
 1488 029f 00       		.byte	0
 1489 02a0 11       		.uleb128 0x11
 1490 02a1 38010000 		.4byte	.LASF59
ARM GAS  C:\Users\Petro\AppData\Local\Temp\ccybtcEw.s 			page 34


 1491 02a5 01       		.byte	0x1
 1492 02a6 2A01     		.2byte	0x12a
 1493 02a8 97000000 		.4byte	0x97
 1494 02ac 00000000 		.4byte	.LFB5
 1495 02b0 32000000 		.4byte	.LFE5-.LFB5
 1496 02b4 01       		.uleb128 0x1
 1497 02b5 9C       		.byte	0x9c
 1498 02b6 D9020000 		.4byte	0x2d9
 1499 02ba 12       		.uleb128 0x12
 1500 02bb 496E7000 		.ascii	"Inp\000"
 1501 02bf 01       		.byte	0x1
 1502 02c0 2A01     		.2byte	0x12a
 1503 02c2 97000000 		.4byte	0x97
 1504 02c6 02       		.uleb128 0x2
 1505 02c7 91       		.byte	0x91
 1506 02c8 6F       		.sleb128 -17
 1507 02c9 13       		.uleb128 0x13
 1508 02ca 56616C00 		.ascii	"Val\000"
 1509 02ce 01       		.byte	0x1
 1510 02cf 2C01     		.2byte	0x12c
 1511 02d1 97000000 		.4byte	0x97
 1512 02d5 02       		.uleb128 0x2
 1513 02d6 91       		.byte	0x91
 1514 02d7 77       		.sleb128 -9
 1515 02d8 00       		.byte	0
 1516 02d9 14       		.uleb128 0x14
 1517 02da 6C000000 		.4byte	.LASF78
 1518 02de 01       		.byte	0x1
 1519 02df 3501     		.2byte	0x135
 1520 02e1 00000000 		.4byte	.LFB6
 1521 02e5 3E000000 		.4byte	.LFE6-.LFB6
 1522 02e9 01       		.uleb128 0x1
 1523 02ea 9C       		.byte	0x9c
 1524 02eb FF020000 		.4byte	0x2ff
 1525 02ef 15       		.uleb128 0x15
 1526 02f0 7A030000 		.4byte	.LASF52
 1527 02f4 01       		.byte	0x1
 1528 02f5 3501     		.2byte	0x135
 1529 02f7 60020000 		.4byte	0x260
 1530 02fb 02       		.uleb128 0x2
 1531 02fc 91       		.byte	0x91
 1532 02fd 6C       		.sleb128 -20
 1533 02fe 00       		.byte	0
 1534 02ff 16       		.uleb128 0x16
 1535 0300 11020000 		.4byte	.LASF60
 1536 0304 01       		.byte	0x1
 1537 0305 4001     		.2byte	0x140
 1538 0307 97000000 		.4byte	0x97
 1539 030b 00000000 		.4byte	.LFB7
 1540 030f 3C010000 		.4byte	.LFE7-.LFB7
 1541 0313 01       		.uleb128 0x1
 1542 0314 9C       		.byte	0x9c
 1543 0315 83030000 		.4byte	0x383
 1544 0319 15       		.uleb128 0x15
 1545 031a 67000000 		.4byte	.LASF61
 1546 031e 01       		.byte	0x1
 1547 031f 4001     		.2byte	0x140
ARM GAS  C:\Users\Petro\AppData\Local\Temp\ccybtcEw.s 			page 35


 1548 0321 D1000000 		.4byte	0xd1
 1549 0325 02       		.uleb128 0x2
 1550 0326 91       		.byte	0x91
 1551 0327 44       		.sleb128 -60
 1552 0328 15       		.uleb128 0x15
 1553 0329 42010000 		.4byte	.LASF62
 1554 032d 01       		.byte	0x1
 1555 032e 4001     		.2byte	0x140
 1556 0330 83030000 		.4byte	0x383
 1557 0334 02       		.uleb128 0x2
 1558 0335 91       		.byte	0x91
 1559 0336 40       		.sleb128 -64
 1560 0337 15       		.uleb128 0x15
 1561 0338 69030000 		.4byte	.LASF63
 1562 033c 01       		.byte	0x1
 1563 033d 4001     		.2byte	0x140
 1564 033f A2000000 		.4byte	0xa2
 1565 0343 03       		.uleb128 0x3
 1566 0344 91       		.byte	0x91
 1567 0345 BE7F     		.sleb128 -66
 1568 0347 17       		.uleb128 0x17
 1569 0348 CF000000 		.4byte	.LASF64
 1570 034c 01       		.byte	0x1
 1571 034d 4201     		.2byte	0x142
 1572 034f AD000000 		.4byte	0xad
 1573 0353 02       		.uleb128 0x2
 1574 0354 91       		.byte	0x91
 1575 0355 70       		.sleb128 -16
 1576 0356 13       		.uleb128 0x13
 1577 0357 5F7000   		.ascii	"_p\000"
 1578 035a 01       		.byte	0x1
 1579 035b 4301     		.2byte	0x143
 1580 035d D1000000 		.4byte	0xd1
 1581 0361 02       		.uleb128 0x2
 1582 0362 91       		.byte	0x91
 1583 0363 74       		.sleb128 -12
 1584 0364 17       		.uleb128 0x17
 1585 0365 47000000 		.4byte	.LASF65
 1586 0369 01       		.byte	0x1
 1587 036a 4401     		.2byte	0x144
 1588 036c 89030000 		.4byte	0x389
 1589 0370 02       		.uleb128 0x2
 1590 0371 91       		.byte	0x91
 1591 0372 5C       		.sleb128 -36
 1592 0373 17       		.uleb128 0x17
 1593 0374 D7020000 		.4byte	.LASF66
 1594 0378 01       		.byte	0x1
 1595 0379 4501     		.2byte	0x145
 1596 037b 89030000 		.4byte	0x389
 1597 037f 02       		.uleb128 0x2
 1598 0380 91       		.byte	0x91
 1599 0381 48       		.sleb128 -56
 1600 0382 00       		.byte	0
 1601 0383 05       		.uleb128 0x5
 1602 0384 04       		.byte	0x4
 1603 0385 97000000 		.4byte	0x97
 1604 0389 0F       		.uleb128 0xf
ARM GAS  C:\Users\Petro\AppData\Local\Temp\ccybtcEw.s 			page 36


 1605 038a D7000000 		.4byte	0xd7
 1606 038e 99030000 		.4byte	0x399
 1607 0392 10       		.uleb128 0x10
 1608 0393 CA000000 		.4byte	0xca
 1609 0397 13       		.byte	0x13
 1610 0398 00       		.byte	0
 1611 0399 18       		.uleb128 0x18
 1612 039a 1A020000 		.4byte	.LASF67
 1613 039e 01       		.byte	0x1
 1614 039f 28       		.byte	0x28
 1615 03a0 97000000 		.4byte	0x97
 1616 03a4 05       		.uleb128 0x5
 1617 03a5 03       		.byte	0x3
 1618 03a6 00000000 		.4byte	PROTO_STATE
 1619 03aa 18       		.uleb128 0x18
 1620 03ab 91000000 		.4byte	.LASF68
 1621 03af 01       		.byte	0x1
 1622 03b0 28       		.byte	0x28
 1623 03b1 97000000 		.4byte	0x97
 1624 03b5 05       		.uleb128 0x5
 1625 03b6 03       		.byte	0x3
 1626 03b7 00000000 		.4byte	LenD1
 1627 03bb 18       		.uleb128 0x18
 1628 03bc 97000000 		.4byte	.LASF69
 1629 03c0 01       		.byte	0x1
 1630 03c1 28       		.byte	0x28
 1631 03c2 97000000 		.4byte	0x97
 1632 03c6 05       		.uleb128 0x5
 1633 03c7 03       		.byte	0x3
 1634 03c8 00000000 		.4byte	LenD2
 1635 03cc 18       		.uleb128 0x18
 1636 03cd 9D000000 		.4byte	.LASF70
 1637 03d1 01       		.byte	0x1
 1638 03d2 28       		.byte	0x28
 1639 03d3 97000000 		.4byte	0x97
 1640 03d7 05       		.uleb128 0x5
 1641 03d8 03       		.byte	0x3
 1642 03d9 00000000 		.4byte	LenD3
 1643 03dd 18       		.uleb128 0x18
 1644 03de 49020000 		.4byte	.LASF71
 1645 03e2 01       		.byte	0x1
 1646 03e3 28       		.byte	0x28
 1647 03e4 97000000 		.4byte	0x97
 1648 03e8 05       		.uleb128 0x5
 1649 03e9 03       		.byte	0x3
 1650 03ea 00000000 		.4byte	LenSeq
 1651 03ee 18       		.uleb128 0x18
 1652 03ef 12030000 		.4byte	.LASF72
 1653 03f3 01       		.byte	0x1
 1654 03f4 28       		.byte	0x28
 1655 03f5 97000000 		.4byte	0x97
 1656 03f9 05       		.uleb128 0x5
 1657 03fa 03       		.byte	0x3
 1658 03fb 00000000 		.4byte	LenChS
 1659 03ff 18       		.uleb128 0x18
 1660 0400 7E010000 		.4byte	.LASF73
 1661 0404 01       		.byte	0x1
ARM GAS  C:\Users\Petro\AppData\Local\Temp\ccybtcEw.s 			page 37


 1662 0405 28       		.byte	0x28
 1663 0406 97000000 		.4byte	0x97
 1664 040a 05       		.uleb128 0x5
 1665 040b 03       		.byte	0x3
 1666 040c 00000000 		.4byte	LenC
 1667 0410 00       		.byte	0
 1668              		.section	.debug_abbrev,"",%progbits
 1669              	.Ldebug_abbrev0:
 1670 0000 01       		.uleb128 0x1
 1671 0001 11       		.uleb128 0x11
 1672 0002 01       		.byte	0x1
 1673 0003 25       		.uleb128 0x25
 1674 0004 0E       		.uleb128 0xe
 1675 0005 13       		.uleb128 0x13
 1676 0006 0B       		.uleb128 0xb
 1677 0007 03       		.uleb128 0x3
 1678 0008 0E       		.uleb128 0xe
 1679 0009 1B       		.uleb128 0x1b
 1680 000a 0E       		.uleb128 0xe
 1681 000b 55       		.uleb128 0x55
 1682 000c 17       		.uleb128 0x17
 1683 000d 11       		.uleb128 0x11
 1684 000e 01       		.uleb128 0x1
 1685 000f 10       		.uleb128 0x10
 1686 0010 17       		.uleb128 0x17
 1687 0011 00       		.byte	0
 1688 0012 00       		.byte	0
 1689 0013 02       		.uleb128 0x2
 1690 0014 24       		.uleb128 0x24
 1691 0015 00       		.byte	0
 1692 0016 0B       		.uleb128 0xb
 1693 0017 0B       		.uleb128 0xb
 1694 0018 3E       		.uleb128 0x3e
 1695 0019 0B       		.uleb128 0xb
 1696 001a 03       		.uleb128 0x3
 1697 001b 0E       		.uleb128 0xe
 1698 001c 00       		.byte	0
 1699 001d 00       		.byte	0
 1700 001e 03       		.uleb128 0x3
 1701 001f 16       		.uleb128 0x16
 1702 0020 00       		.byte	0
 1703 0021 03       		.uleb128 0x3
 1704 0022 0E       		.uleb128 0xe
 1705 0023 3A       		.uleb128 0x3a
 1706 0024 0B       		.uleb128 0xb
 1707 0025 3B       		.uleb128 0x3b
 1708 0026 0B       		.uleb128 0xb
 1709 0027 49       		.uleb128 0x49
 1710 0028 13       		.uleb128 0x13
 1711 0029 00       		.byte	0
 1712 002a 00       		.byte	0
 1713 002b 04       		.uleb128 0x4
 1714 002c 24       		.uleb128 0x24
 1715 002d 00       		.byte	0
 1716 002e 0B       		.uleb128 0xb
 1717 002f 0B       		.uleb128 0xb
 1718 0030 3E       		.uleb128 0x3e
ARM GAS  C:\Users\Petro\AppData\Local\Temp\ccybtcEw.s 			page 38


 1719 0031 0B       		.uleb128 0xb
 1720 0032 03       		.uleb128 0x3
 1721 0033 08       		.uleb128 0x8
 1722 0034 00       		.byte	0
 1723 0035 00       		.byte	0
 1724 0036 05       		.uleb128 0x5
 1725 0037 0F       		.uleb128 0xf
 1726 0038 00       		.byte	0
 1727 0039 0B       		.uleb128 0xb
 1728 003a 0B       		.uleb128 0xb
 1729 003b 49       		.uleb128 0x49
 1730 003c 13       		.uleb128 0x13
 1731 003d 00       		.byte	0
 1732 003e 00       		.byte	0
 1733 003f 06       		.uleb128 0x6
 1734 0040 13       		.uleb128 0x13
 1735 0041 01       		.byte	0x1
 1736 0042 03       		.uleb128 0x3
 1737 0043 0E       		.uleb128 0xe
 1738 0044 0B       		.uleb128 0xb
 1739 0045 0B       		.uleb128 0xb
 1740 0046 3A       		.uleb128 0x3a
 1741 0047 0B       		.uleb128 0xb
 1742 0048 3B       		.uleb128 0x3b
 1743 0049 0B       		.uleb128 0xb
 1744 004a 01       		.uleb128 0x1
 1745 004b 13       		.uleb128 0x13
 1746 004c 00       		.byte	0
 1747 004d 00       		.byte	0
 1748 004e 07       		.uleb128 0x7
 1749 004f 0D       		.uleb128 0xd
 1750 0050 00       		.byte	0
 1751 0051 03       		.uleb128 0x3
 1752 0052 08       		.uleb128 0x8
 1753 0053 3A       		.uleb128 0x3a
 1754 0054 0B       		.uleb128 0xb
 1755 0055 3B       		.uleb128 0x3b
 1756 0056 0B       		.uleb128 0xb
 1757 0057 49       		.uleb128 0x49
 1758 0058 13       		.uleb128 0x13
 1759 0059 38       		.uleb128 0x38
 1760 005a 0B       		.uleb128 0xb
 1761 005b 00       		.byte	0
 1762 005c 00       		.byte	0
 1763 005d 08       		.uleb128 0x8
 1764 005e 0D       		.uleb128 0xd
 1765 005f 00       		.byte	0
 1766 0060 03       		.uleb128 0x3
 1767 0061 0E       		.uleb128 0xe
 1768 0062 3A       		.uleb128 0x3a
 1769 0063 0B       		.uleb128 0xb
 1770 0064 3B       		.uleb128 0x3b
 1771 0065 0B       		.uleb128 0xb
 1772 0066 49       		.uleb128 0x49
 1773 0067 13       		.uleb128 0x13
 1774 0068 38       		.uleb128 0x38
 1775 0069 0B       		.uleb128 0xb
ARM GAS  C:\Users\Petro\AppData\Local\Temp\ccybtcEw.s 			page 39


 1776 006a 00       		.byte	0
 1777 006b 00       		.byte	0
 1778 006c 09       		.uleb128 0x9
 1779 006d 04       		.uleb128 0x4
 1780 006e 01       		.byte	0x1
 1781 006f 03       		.uleb128 0x3
 1782 0070 0E       		.uleb128 0xe
 1783 0071 0B       		.uleb128 0xb
 1784 0072 0B       		.uleb128 0xb
 1785 0073 49       		.uleb128 0x49
 1786 0074 13       		.uleb128 0x13
 1787 0075 3A       		.uleb128 0x3a
 1788 0076 0B       		.uleb128 0xb
 1789 0077 3B       		.uleb128 0x3b
 1790 0078 0B       		.uleb128 0xb
 1791 0079 01       		.uleb128 0x1
 1792 007a 13       		.uleb128 0x13
 1793 007b 00       		.byte	0
 1794 007c 00       		.byte	0
 1795 007d 0A       		.uleb128 0xa
 1796 007e 28       		.uleb128 0x28
 1797 007f 00       		.byte	0
 1798 0080 03       		.uleb128 0x3
 1799 0081 0E       		.uleb128 0xe
 1800 0082 1C       		.uleb128 0x1c
 1801 0083 0B       		.uleb128 0xb
 1802 0084 00       		.byte	0
 1803 0085 00       		.byte	0
 1804 0086 0B       		.uleb128 0xb
 1805 0087 2E       		.uleb128 0x2e
 1806 0088 01       		.byte	0x1
 1807 0089 3F       		.uleb128 0x3f
 1808 008a 19       		.uleb128 0x19
 1809 008b 03       		.uleb128 0x3
 1810 008c 0E       		.uleb128 0xe
 1811 008d 3A       		.uleb128 0x3a
 1812 008e 0B       		.uleb128 0xb
 1813 008f 3B       		.uleb128 0x3b
 1814 0090 0B       		.uleb128 0xb
 1815 0091 27       		.uleb128 0x27
 1816 0092 19       		.uleb128 0x19
 1817 0093 49       		.uleb128 0x49
 1818 0094 13       		.uleb128 0x13
 1819 0095 11       		.uleb128 0x11
 1820 0096 01       		.uleb128 0x1
 1821 0097 12       		.uleb128 0x12
 1822 0098 06       		.uleb128 0x6
 1823 0099 40       		.uleb128 0x40
 1824 009a 18       		.uleb128 0x18
 1825 009b 9642     		.uleb128 0x2116
 1826 009d 19       		.uleb128 0x19
 1827 009e 01       		.uleb128 0x1
 1828 009f 13       		.uleb128 0x13
 1829 00a0 00       		.byte	0
 1830 00a1 00       		.byte	0
 1831 00a2 0C       		.uleb128 0xc
 1832 00a3 05       		.uleb128 0x5
ARM GAS  C:\Users\Petro\AppData\Local\Temp\ccybtcEw.s 			page 40


 1833 00a4 00       		.byte	0
 1834 00a5 03       		.uleb128 0x3
 1835 00a6 0E       		.uleb128 0xe
 1836 00a7 3A       		.uleb128 0x3a
 1837 00a8 0B       		.uleb128 0xb
 1838 00a9 3B       		.uleb128 0x3b
 1839 00aa 0B       		.uleb128 0xb
 1840 00ab 49       		.uleb128 0x49
 1841 00ac 13       		.uleb128 0x13
 1842 00ad 02       		.uleb128 0x2
 1843 00ae 18       		.uleb128 0x18
 1844 00af 00       		.byte	0
 1845 00b0 00       		.byte	0
 1846 00b1 0D       		.uleb128 0xd
 1847 00b2 34       		.uleb128 0x34
 1848 00b3 00       		.byte	0
 1849 00b4 03       		.uleb128 0x3
 1850 00b5 0E       		.uleb128 0xe
 1851 00b6 3A       		.uleb128 0x3a
 1852 00b7 0B       		.uleb128 0xb
 1853 00b8 3B       		.uleb128 0x3b
 1854 00b9 0B       		.uleb128 0xb
 1855 00ba 49       		.uleb128 0x49
 1856 00bb 13       		.uleb128 0x13
 1857 00bc 02       		.uleb128 0x2
 1858 00bd 18       		.uleb128 0x18
 1859 00be 00       		.byte	0
 1860 00bf 00       		.byte	0
 1861 00c0 0E       		.uleb128 0xe
 1862 00c1 0B       		.uleb128 0xb
 1863 00c2 01       		.byte	0x1
 1864 00c3 11       		.uleb128 0x11
 1865 00c4 01       		.uleb128 0x1
 1866 00c5 12       		.uleb128 0x12
 1867 00c6 06       		.uleb128 0x6
 1868 00c7 00       		.byte	0
 1869 00c8 00       		.byte	0
 1870 00c9 0F       		.uleb128 0xf
 1871 00ca 01       		.uleb128 0x1
 1872 00cb 01       		.byte	0x1
 1873 00cc 49       		.uleb128 0x49
 1874 00cd 13       		.uleb128 0x13
 1875 00ce 01       		.uleb128 0x1
 1876 00cf 13       		.uleb128 0x13
 1877 00d0 00       		.byte	0
 1878 00d1 00       		.byte	0
 1879 00d2 10       		.uleb128 0x10
 1880 00d3 21       		.uleb128 0x21
 1881 00d4 00       		.byte	0
 1882 00d5 49       		.uleb128 0x49
 1883 00d6 13       		.uleb128 0x13
 1884 00d7 2F       		.uleb128 0x2f
 1885 00d8 0B       		.uleb128 0xb
 1886 00d9 00       		.byte	0
 1887 00da 00       		.byte	0
 1888 00db 11       		.uleb128 0x11
 1889 00dc 2E       		.uleb128 0x2e
ARM GAS  C:\Users\Petro\AppData\Local\Temp\ccybtcEw.s 			page 41


 1890 00dd 01       		.byte	0x1
 1891 00de 3F       		.uleb128 0x3f
 1892 00df 19       		.uleb128 0x19
 1893 00e0 03       		.uleb128 0x3
 1894 00e1 0E       		.uleb128 0xe
 1895 00e2 3A       		.uleb128 0x3a
 1896 00e3 0B       		.uleb128 0xb
 1897 00e4 3B       		.uleb128 0x3b
 1898 00e5 05       		.uleb128 0x5
 1899 00e6 27       		.uleb128 0x27
 1900 00e7 19       		.uleb128 0x19
 1901 00e8 49       		.uleb128 0x49
 1902 00e9 13       		.uleb128 0x13
 1903 00ea 11       		.uleb128 0x11
 1904 00eb 01       		.uleb128 0x1
 1905 00ec 12       		.uleb128 0x12
 1906 00ed 06       		.uleb128 0x6
 1907 00ee 40       		.uleb128 0x40
 1908 00ef 18       		.uleb128 0x18
 1909 00f0 9742     		.uleb128 0x2117
 1910 00f2 19       		.uleb128 0x19
 1911 00f3 01       		.uleb128 0x1
 1912 00f4 13       		.uleb128 0x13
 1913 00f5 00       		.byte	0
 1914 00f6 00       		.byte	0
 1915 00f7 12       		.uleb128 0x12
 1916 00f8 05       		.uleb128 0x5
 1917 00f9 00       		.byte	0
 1918 00fa 03       		.uleb128 0x3
 1919 00fb 08       		.uleb128 0x8
 1920 00fc 3A       		.uleb128 0x3a
 1921 00fd 0B       		.uleb128 0xb
 1922 00fe 3B       		.uleb128 0x3b
 1923 00ff 05       		.uleb128 0x5
 1924 0100 49       		.uleb128 0x49
 1925 0101 13       		.uleb128 0x13
 1926 0102 02       		.uleb128 0x2
 1927 0103 18       		.uleb128 0x18
 1928 0104 00       		.byte	0
 1929 0105 00       		.byte	0
 1930 0106 13       		.uleb128 0x13
 1931 0107 34       		.uleb128 0x34
 1932 0108 00       		.byte	0
 1933 0109 03       		.uleb128 0x3
 1934 010a 08       		.uleb128 0x8
 1935 010b 3A       		.uleb128 0x3a
 1936 010c 0B       		.uleb128 0xb
 1937 010d 3B       		.uleb128 0x3b
 1938 010e 05       		.uleb128 0x5
 1939 010f 49       		.uleb128 0x49
 1940 0110 13       		.uleb128 0x13
 1941 0111 02       		.uleb128 0x2
 1942 0112 18       		.uleb128 0x18
 1943 0113 00       		.byte	0
 1944 0114 00       		.byte	0
 1945 0115 14       		.uleb128 0x14
 1946 0116 2E       		.uleb128 0x2e
ARM GAS  C:\Users\Petro\AppData\Local\Temp\ccybtcEw.s 			page 42


 1947 0117 01       		.byte	0x1
 1948 0118 3F       		.uleb128 0x3f
 1949 0119 19       		.uleb128 0x19
 1950 011a 03       		.uleb128 0x3
 1951 011b 0E       		.uleb128 0xe
 1952 011c 3A       		.uleb128 0x3a
 1953 011d 0B       		.uleb128 0xb
 1954 011e 3B       		.uleb128 0x3b
 1955 011f 05       		.uleb128 0x5
 1956 0120 27       		.uleb128 0x27
 1957 0121 19       		.uleb128 0x19
 1958 0122 11       		.uleb128 0x11
 1959 0123 01       		.uleb128 0x1
 1960 0124 12       		.uleb128 0x12
 1961 0125 06       		.uleb128 0x6
 1962 0126 40       		.uleb128 0x40
 1963 0127 18       		.uleb128 0x18
 1964 0128 9742     		.uleb128 0x2117
 1965 012a 19       		.uleb128 0x19
 1966 012b 01       		.uleb128 0x1
 1967 012c 13       		.uleb128 0x13
 1968 012d 00       		.byte	0
 1969 012e 00       		.byte	0
 1970 012f 15       		.uleb128 0x15
 1971 0130 05       		.uleb128 0x5
 1972 0131 00       		.byte	0
 1973 0132 03       		.uleb128 0x3
 1974 0133 0E       		.uleb128 0xe
 1975 0134 3A       		.uleb128 0x3a
 1976 0135 0B       		.uleb128 0xb
 1977 0136 3B       		.uleb128 0x3b
 1978 0137 05       		.uleb128 0x5
 1979 0138 49       		.uleb128 0x49
 1980 0139 13       		.uleb128 0x13
 1981 013a 02       		.uleb128 0x2
 1982 013b 18       		.uleb128 0x18
 1983 013c 00       		.byte	0
 1984 013d 00       		.byte	0
 1985 013e 16       		.uleb128 0x16
 1986 013f 2E       		.uleb128 0x2e
 1987 0140 01       		.byte	0x1
 1988 0141 3F       		.uleb128 0x3f
 1989 0142 19       		.uleb128 0x19
 1990 0143 03       		.uleb128 0x3
 1991 0144 0E       		.uleb128 0xe
 1992 0145 3A       		.uleb128 0x3a
 1993 0146 0B       		.uleb128 0xb
 1994 0147 3B       		.uleb128 0x3b
 1995 0148 05       		.uleb128 0x5
 1996 0149 27       		.uleb128 0x27
 1997 014a 19       		.uleb128 0x19
 1998 014b 49       		.uleb128 0x49
 1999 014c 13       		.uleb128 0x13
 2000 014d 11       		.uleb128 0x11
 2001 014e 01       		.uleb128 0x1
 2002 014f 12       		.uleb128 0x12
 2003 0150 06       		.uleb128 0x6
ARM GAS  C:\Users\Petro\AppData\Local\Temp\ccybtcEw.s 			page 43


 2004 0151 40       		.uleb128 0x40
 2005 0152 18       		.uleb128 0x18
 2006 0153 9642     		.uleb128 0x2116
 2007 0155 19       		.uleb128 0x19
 2008 0156 01       		.uleb128 0x1
 2009 0157 13       		.uleb128 0x13
 2010 0158 00       		.byte	0
 2011 0159 00       		.byte	0
 2012 015a 17       		.uleb128 0x17
 2013 015b 34       		.uleb128 0x34
 2014 015c 00       		.byte	0
 2015 015d 03       		.uleb128 0x3
 2016 015e 0E       		.uleb128 0xe
 2017 015f 3A       		.uleb128 0x3a
 2018 0160 0B       		.uleb128 0xb
 2019 0161 3B       		.uleb128 0x3b
 2020 0162 05       		.uleb128 0x5
 2021 0163 49       		.uleb128 0x49
 2022 0164 13       		.uleb128 0x13
 2023 0165 02       		.uleb128 0x2
 2024 0166 18       		.uleb128 0x18
 2025 0167 00       		.byte	0
 2026 0168 00       		.byte	0
 2027 0169 18       		.uleb128 0x18
 2028 016a 34       		.uleb128 0x34
 2029 016b 00       		.byte	0
 2030 016c 03       		.uleb128 0x3
 2031 016d 0E       		.uleb128 0xe
 2032 016e 3A       		.uleb128 0x3a
 2033 016f 0B       		.uleb128 0xb
 2034 0170 3B       		.uleb128 0x3b
 2035 0171 0B       		.uleb128 0xb
 2036 0172 49       		.uleb128 0x49
 2037 0173 13       		.uleb128 0x13
 2038 0174 3F       		.uleb128 0x3f
 2039 0175 19       		.uleb128 0x19
 2040 0176 02       		.uleb128 0x2
 2041 0177 18       		.uleb128 0x18
 2042 0178 00       		.byte	0
 2043 0179 00       		.byte	0
 2044 017a 00       		.byte	0
 2045              		.section	.debug_aranges,"",%progbits
 2046 0000 3C000000 		.4byte	0x3c
 2047 0004 0200     		.2byte	0x2
 2048 0006 00000000 		.4byte	.Ldebug_info0
 2049 000a 04       		.byte	0x4
 2050 000b 00       		.byte	0
 2051 000c 0000     		.2byte	0
 2052 000e 0000     		.2byte	0
 2053 0010 00000000 		.4byte	.LFB3
 2054 0014 68040000 		.4byte	.LFE3-.LFB3
 2055 0018 00000000 		.4byte	.LFB4
 2056 001c 4E000000 		.4byte	.LFE4-.LFB4
 2057 0020 00000000 		.4byte	.LFB5
 2058 0024 32000000 		.4byte	.LFE5-.LFB5
 2059 0028 00000000 		.4byte	.LFB6
 2060 002c 3E000000 		.4byte	.LFE6-.LFB6
ARM GAS  C:\Users\Petro\AppData\Local\Temp\ccybtcEw.s 			page 44


 2061 0030 00000000 		.4byte	.LFB7
 2062 0034 3C010000 		.4byte	.LFE7-.LFB7
 2063 0038 00000000 		.4byte	0
 2064 003c 00000000 		.4byte	0
 2065              		.section	.debug_ranges,"",%progbits
 2066              	.Ldebug_ranges0:
 2067 0000 00000000 		.4byte	.LFB3
 2068 0004 68040000 		.4byte	.LFE3
 2069 0008 00000000 		.4byte	.LFB4
 2070 000c 4E000000 		.4byte	.LFE4
 2071 0010 00000000 		.4byte	.LFB5
 2072 0014 32000000 		.4byte	.LFE5
 2073 0018 00000000 		.4byte	.LFB6
 2074 001c 3E000000 		.4byte	.LFE6
 2075 0020 00000000 		.4byte	.LFB7
 2076 0024 3C010000 		.4byte	.LFE7
 2077 0028 00000000 		.4byte	0
 2078 002c 00000000 		.4byte	0
 2079              		.section	.debug_line,"",%progbits
 2080              	.Ldebug_line0:
 2081 0000 57020000 		.section	.debug_str,"MS",%progbits,1
 2081      02002E01 
 2081      00000201 
 2081      FB0E0D00 
 2081      01010101 
 2082              	.LASF51:
 2083 0000 52454144 		.ascii	"READ_ETX\000"
 2083      5F455458 
 2083      00
 2084              	.LASF57:
 2085 0009 556E7061 		.ascii	"UnpackData\000"
 2085      636B4461 
 2085      746100
 2086              	.LASF31:
 2087 0014 494E565F 		.ascii	"INV_COMM\000"
 2087      434F4D4D 
 2087      00
 2088              	.LASF16:
 2089 001d 75696E74 		.ascii	"uint64_t\000"
 2089      36345F74 
 2089      00
 2090              	.LASF3:
 2091 0026 5F5F7569 		.ascii	"__uint8_t\000"
 2091      6E74385F 
 2091      7400
 2092              	.LASF11:
 2093 0030 6C6F6E67 		.ascii	"long long unsigned int\000"
 2093      206C6F6E 
 2093      6720756E 
 2093      7369676E 
 2093      65642069 
 2094              	.LASF65:
 2095 0047 737A5365 		.ascii	"szSeq\000"
 2095      7100
 2096              	.LASF9:
 2097 004d 6C6F6E67 		.ascii	"long long int\000"
 2097      206C6F6E 
ARM GAS  C:\Users\Petro\AppData\Local\Temp\ccybtcEw.s 			page 45


 2097      6720696E 
 2097      7400
 2098              	.LASF0:
 2099 005b 7369676E 		.ascii	"signed char\000"
 2099      65642063 
 2099      68617200 
 2100              	.LASF61:
 2101 0067 62756666 		.ascii	"buff\000"
 2101      00
 2102              	.LASF78:
 2103 006c 52657365 		.ascii	"ResetPacket\000"
 2103      74506163 
 2103      6B657400 
 2104              	.LASF6:
 2105 0078 6C6F6E67 		.ascii	"long int\000"
 2105      20696E74 
 2105      00
 2106              	.LASF14:
 2107 0081 75696E74 		.ascii	"uint16_t\000"
 2107      31365F74 
 2107      00
 2108              	.LASF21:
 2109 008a 646F7562 		.ascii	"double\000"
 2109      6C6500
 2110              	.LASF68:
 2111 0091 4C656E44 		.ascii	"LenD1\000"
 2111      3100
 2112              	.LASF69:
 2113 0097 4C656E44 		.ascii	"LenD2\000"
 2113      3200
 2114              	.LASF70:
 2115 009d 4C656E44 		.ascii	"LenD3\000"
 2115      3300
 2116              	.LASF22:
 2117 00a3 436F6D6D 		.ascii	"Command\000"
 2117      616E6400 
 2118              	.LASF30:
 2119 00ab 4E4F5F46 		.ascii	"NO_FR1\000"
 2119      523100
 2120              	.LASF7:
 2121 00b2 5F5F7569 		.ascii	"__uint32_t\000"
 2121      6E743332 
 2121      5F7400
 2122              	.LASF35:
 2123 00bd 4E4F5F46 		.ascii	"NO_FR3\000"
 2123      523300
 2124              	.LASF58:
 2125 00c4 4465636F 		.ascii	"DecodeByte\000"
 2125      64654279 
 2125      746500
 2126              	.LASF64:
 2127 00cf 5F637263 		.ascii	"_crc\000"
 2127      00
 2128              	.LASF54:
 2129 00d4 4552525F 		.ascii	"ERR_CODE\000"
 2129      434F4445 
 2129      00
ARM GAS  C:\Users\Petro\AppData\Local\Temp\ccybtcEw.s 			page 46


 2130              	.LASF12:
 2131 00dd 756E7369 		.ascii	"unsigned int\000"
 2131      676E6564 
 2131      20696E74 
 2131      00
 2132              	.LASF76:
 2133 00ea 443A5C43 		.ascii	"D:\\Cypress\\system-start-finish\\dev\\FW\\start\\s"
 2133      79707265 
 2133      73735C73 
 2133      79737465 
 2133      6D2D7374 
 2134 0117 74617274 		.ascii	"tart_v11.cydsn\000"
 2134      5F763131 
 2134      2E637964 
 2134      736E00
 2135              	.LASF8:
 2136 0126 6C6F6E67 		.ascii	"long unsigned int\000"
 2136      20756E73 
 2136      69676E65 
 2136      6420696E 
 2136      7400
 2137              	.LASF59:
 2138 0138 43686563 		.ascii	"CheckSymb\000"
 2138      6B53796D 
 2138      6200
 2139              	.LASF62:
 2140 0142 64617461 		.ascii	"data\000"
 2140      00
 2141              	.LASF5:
 2142 0147 73686F72 		.ascii	"short unsigned int\000"
 2142      7420756E 
 2142      7369676E 
 2142      65642069 
 2142      6E7400
 2143              	.LASF23:
 2144 015a 44617461 		.ascii	"Data1\000"
 2144      3100
 2145              	.LASF24:
 2146 0160 44617461 		.ascii	"Data2\000"
 2146      3200
 2147              	.LASF25:
 2148 0166 44617461 		.ascii	"Data3\000"
 2148      3300
 2149              	.LASF53:
 2150 016c 496E4279 		.ascii	"InByte\000"
 2150      746500
 2151              	.LASF40:
 2152 0173 50524F5F 		.ascii	"PRO_STATES\000"
 2152      53544154 
 2152      455300
 2153              	.LASF73:
 2154 017e 4C656E43 		.ascii	"LenC\000"
 2154      00
 2155              	.LASF74:
 2156 0183 474E5520 		.ascii	"GNU C11 5.4.1 20160609 (release) [ARM/embedded-5-br"
 2156      43313120 
 2156      352E342E 
ARM GAS  C:\Users\Petro\AppData\Local\Temp\ccybtcEw.s 			page 47


 2156      31203230 
 2156      31363036 
 2157 01b6 616E6368 		.ascii	"anch revision 237715] -mcpu=cortex-m0 -mthumb -g -O"
 2157      20726576 
 2157      6973696F 
 2157      6E203233 
 2157      37373135 
 2158 01e9 30202D66 		.ascii	"0 -ffunction-sections -ffat-lto-objects\000"
 2158      66756E63 
 2158      74696F6E 
 2158      2D736563 
 2158      74696F6E 
 2159              	.LASF60:
 2160 0211 5061636B 		.ascii	"PackData\000"
 2160      44617461 
 2160      00
 2161              	.LASF67:
 2162 021a 50524F54 		.ascii	"PROTO_STATE\000"
 2162      4F5F5354 
 2162      41544500 
 2163              	.LASF29:
 2164 0226 4241445F 		.ascii	"BAD_SEQ\000"
 2164      53455100 
 2165              	.LASF43:
 2166 022e 52454144 		.ascii	"READ_FR1\000"
 2166      5F465231 
 2166      00
 2167              	.LASF45:
 2168 0237 52454144 		.ascii	"READ_FR2\000"
 2168      5F465232 
 2168      00
 2169              	.LASF49:
 2170 0240 52454144 		.ascii	"READ_FR3\000"
 2170      5F465233 
 2170      00
 2171              	.LASF71:
 2172 0249 4C656E53 		.ascii	"LenSeq\000"
 2172      657100
 2173              	.LASF55:
 2174 0250 5F746D70 		.ascii	"_tmpcrc\000"
 2174      63726300 
 2175              	.LASF18:
 2176 0258 73697A65 		.ascii	"sizetype\000"
 2176      74797065 
 2176      00
 2177              	.LASF17:
 2178 0261 6C6F6E67 		.ascii	"long double\000"
 2178      20646F75 
 2178      626C6500 
 2179              	.LASF28:
 2180 026d 50415253 		.ascii	"PARSED_OK\000"
 2180      45445F4F 
 2180      4B00
 2181              	.LASF77:
 2182 0277 52657370 		.ascii	"Resp\000"
 2182      00
 2183              	.LASF46:
ARM GAS  C:\Users\Petro\AppData\Local\Temp\ccybtcEw.s 			page 48


 2184 027c 52454144 		.ascii	"READ_DA1\000"
 2184      5F444131 
 2184      00
 2185              	.LASF47:
 2186 0285 52454144 		.ascii	"READ_DA2\000"
 2186      5F444132 
 2186      00
 2187              	.LASF48:
 2188 028e 52454144 		.ascii	"READ_DA3\000"
 2188      5F444133 
 2188      00
 2189              	.LASF10:
 2190 0297 5F5F7569 		.ascii	"__uint64_t\000"
 2190      6E743634 
 2190      5F7400
 2191              	.LASF20:
 2192 02a2 666C6F61 		.ascii	"float\000"
 2192      7400
 2193              	.LASF26:
 2194 02a8 43686563 		.ascii	"CheckSum\000"
 2194      6B53756D 
 2194      00
 2195              	.LASF33:
 2196 02b1 494E565F 		.ascii	"INV_DA1\000"
 2196      44413100 
 2197              	.LASF34:
 2198 02b9 494E565F 		.ascii	"INV_DA2\000"
 2198      44413200 
 2199              	.LASF38:
 2200 02c1 494E565F 		.ascii	"INV_DA3\000"
 2200      44413300 
 2201              	.LASF1:
 2202 02c9 756E7369 		.ascii	"unsigned char\000"
 2202      676E6564 
 2202      20636861 
 2202      7200
 2203              	.LASF66:
 2204 02d7 737A4368 		.ascii	"szCheckSum\000"
 2204      65636B53 
 2204      756D00
 2205              	.LASF2:
 2206 02e2 73686F72 		.ascii	"short int\000"
 2206      7420696E 
 2206      7400
 2207              	.LASF44:
 2208 02ec 52454144 		.ascii	"READ_COM\000"
 2208      5F434F4D 
 2208      00
 2209              	.LASF39:
 2210 02f5 50524F5F 		.ascii	"PRO_ERRORS\000"
 2210      4552524F 
 2210      525300
 2211              	.LASF75:
 2212 0300 6C69625F 		.ascii	"lib_Network\\svt.c\000"
 2212      4E657477 
 2212      6F726B5C 
 2212      7376742E 
ARM GAS  C:\Users\Petro\AppData\Local\Temp\ccybtcEw.s 			page 49


 2212      6300
 2213              	.LASF72:
 2214 0312 4C656E43 		.ascii	"LenChS\000"
 2214      685300
 2215              	.LASF15:
 2216 0319 75696E74 		.ascii	"uint32_t\000"
 2216      33325F74 
 2216      00
 2217              	.LASF19:
 2218 0322 63686172 		.ascii	"char\000"
 2218      00
 2219              	.LASF4:
 2220 0327 5F5F7569 		.ascii	"__uint16_t\000"
 2220      6E743136 
 2220      5F7400
 2221              	.LASF37:
 2222 0332 4E4F5F45 		.ascii	"NO_ETX\000"
 2222      545800
 2223              	.LASF56:
 2224 0339 5F746D70 		.ascii	"_tmpdata\000"
 2224      64617461 
 2224      00
 2225              	.LASF41:
 2226 0342 57414954 		.ascii	"WAIT_STX\000"
 2226      5F535458 
 2226      00
 2227              	.LASF50:
 2228 034b 52454144 		.ascii	"READ_CHS\000"
 2228      5F434853 
 2228      00
 2229              	.LASF42:
 2230 0354 52454144 		.ascii	"READ_SQ\000"
 2230      5F535100 
 2231              	.LASF36:
 2232 035c 494E565F 		.ascii	"INV_CKECKSUM\000"
 2232      434B4543 
 2232      4B53554D 
 2232      00
 2233              	.LASF63:
 2234 0369 53657175 		.ascii	"Sequence\000"
 2234      656E6365 
 2234      00
 2235              	.LASF13:
 2236 0372 75696E74 		.ascii	"uint8_t\000"
 2236      385F7400 
 2237              	.LASF52:
 2238 037a 44617461 		.ascii	"Data\000"
 2238      00
 2239              	.LASF32:
 2240 037f 4E4F5F46 		.ascii	"NO_FR2\000"
 2240      523200
 2241              	.LASF27:
 2242 0386 456E6450 		.ascii	"EndPacket\000"
 2242      61636B65 
 2242      7400
 2243              		.ident	"GCC: (GNU Tools for ARM Embedded Processors) 5.4.1 20160609 (release) [ARM/embedded-5-bran
