ARM GAS  C:\Users\Petro\AppData\Local\Temp\ccybtcEw.s 			page 1


   1              		.syntax unified
   2              		.cpu cortex-m0
   3              		.fpu softvfp
   4              		.eabi_attribute 20, 1
   5              		.eabi_attribute 21, 1
   6              		.eabi_attribute 23, 3
   7              		.eabi_attribute 24, 1
   8              		.eabi_attribute 25, 1
   9              		.eabi_attribute 26, 1
  10              		.eabi_attribute 30, 6
  11              		.eabi_attribute 34, 0
  12              		.eabi_attribute 18, 4
  13              		.thumb
  14              		.syntax unified
  15              		.file	"svt.c"
  16              		.text
  17              	.Ltext0:
  18              		.cfi_sections	.debug_frame
  19              		.comm	PROTO_STATE,1,1
  20              		.comm	LenD1,1,1
  21              		.comm	LenD2,1,1
  22              		.comm	LenD3,1,1
  23              		.comm	LenSeq,1,1
  24              		.comm	LenChS,1,1
  25              		.comm	LenC,1,1
  26              		.section	.rodata
  27              		.align	2
  28              	.LC8:
  29 0000 25303258 		.ascii	"%02X:%08X%08X%04X%04X\000"
  29      3A253038 
  29      58253038 
  29      58253034 
  29      58253034 
  30 0016 0000     		.align	2
  31              	.LC10:
  32 0018 4100     		.ascii	"A\000"
  33 001a 0000     		.align	2
  34              	.LC12:
  35 001c 4600     		.ascii	"F\000"
  36              		.section	.text.UnpackData,"ax",%progbits
  37              		.align	2
  38              		.global	UnpackData
  39              		.code	16
  40              		.thumb_func
  41              		.type	UnpackData, %function
  42              	UnpackData:
  43              	.LFB3:
  44              		.file 1 "lib_Network\\svt.c"
   1:lib_Network/svt.c **** #include "svt.h"
   2:lib_Network/svt.c **** #include "lib_Network\crc32.h"
   3:lib_Network/svt.c **** 
   4:lib_Network/svt.c **** enum PRO_STATES 
   5:lib_Network/svt.c **** {
   6:lib_Network/svt.c **** 	WAIT_STX,
   7:lib_Network/svt.c **** 	READ_SQ,
   8:lib_Network/svt.c **** 	READ_FR1,
   9:lib_Network/svt.c **** 	READ_COM,
ARM GAS  C:\Users\Petro\AppData\Local\Temp\ccybtcEw.s 			page 2


  10:lib_Network/svt.c **** 	READ_FR2,
  11:lib_Network/svt.c **** 	READ_DA1,
  12:lib_Network/svt.c **** 	READ_DA2,
  13:lib_Network/svt.c **** 	READ_DA3,
  14:lib_Network/svt.c **** 	READ_FR3,
  15:lib_Network/svt.c **** 	READ_CHS,
  16:lib_Network/svt.c **** 	READ_ETX
  17:lib_Network/svt.c **** };
  18:lib_Network/svt.c **** 
  19:lib_Network/svt.c **** #define LEN_SEQ 4
  20:lib_Network/svt.c **** #define LEN_COM 2
  21:lib_Network/svt.c **** #define LEN_DA1 16
  22:lib_Network/svt.c **** #define LEN_DA2 4
  23:lib_Network/svt.c **** #define LEN_DA3 4
  24:lib_Network/svt.c **** #define LEN_CHS 8
  25:lib_Network/svt.c **** 
  26:lib_Network/svt.c **** #define HALF_BYTE 4
  27:lib_Network/svt.c **** 
  28:lib_Network/svt.c **** #define STX '<'
  29:lib_Network/svt.c **** #define ETX '>'
  30:lib_Network/svt.c **** #define FR1 '!'
  31:lib_Network/svt.c **** #define FR2 ':'
  32:lib_Network/svt.c **** #define FR3 '@'
  33:lib_Network/svt.c **** 
  34:lib_Network/svt.c **** #define STX_S                   ("<")
  35:lib_Network/svt.c **** #define FRM0                    ("!")
  36:lib_Network/svt.c **** #define FRM1                    ("@")
  37:lib_Network/svt.c **** #define FRM2                    ("#")
  38:lib_Network/svt.c **** #define ETX_S                   (">")
  39:lib_Network/svt.c **** 
  40:lib_Network/svt.c **** uint8_t PROTO_STATE, LenD1, LenD2, LenD3, LenSeq, LenChS, LenC;
  41:lib_Network/svt.c **** 
  42:lib_Network/svt.c **** uint8_t DecodeByte(uint8_t Inp);
  43:lib_Network/svt.c **** uint8_t CheckSymb(uint8_t Inp);
  44:lib_Network/svt.c **** void 	ResetPacket(struct Resp *Data);
  45:lib_Network/svt.c **** 
  46:lib_Network/svt.c **** uint8_t UnpackData(struct Resp *Data, uint8_t InByte)
  47:lib_Network/svt.c **** {
  45              		.loc 1 47 0
  46              		.cfi_startproc
  47              		@ args = 0, pretend = 0, frame = 80
  48              		@ frame_needed = 1, uses_anonymous_args = 0
  49 0000 F0B5     		push	{r4, r5, r6, r7, lr}
  50              		.cfi_def_cfa_offset 20
  51              		.cfi_offset 4, -20
  52              		.cfi_offset 5, -16
  53              		.cfi_offset 6, -12
  54              		.cfi_offset 7, -8
  55              		.cfi_offset 14, -4
  56 0002 4746     		mov	r7, r8
  57 0004 80B4     		push	{r7}
  58              		.cfi_def_cfa_offset 24
  59              		.cfi_offset 8, -24
  60 0006 98B0     		sub	sp, sp, #96
  61              		.cfi_def_cfa_offset 120
  62 0008 04AF     		add	r7, sp, #16
  63              		.cfi_def_cfa 7, 104
ARM GAS  C:\Users\Petro\AppData\Local\Temp\ccybtcEw.s 			page 3


  64 000a F861     		str	r0, [r7, #28]
  65 000c 0A00     		movs	r2, r1
  66 000e 1B23     		movs	r3, #27
  67 0010 FB18     		adds	r3, r7, r3
  68 0012 1A70     		strb	r2, [r3]
  48:lib_Network/svt.c **** 	uint32_t ERR_CODE = 0;
  69              		.loc 1 48 0
  70 0014 0023     		movs	r3, #0
  71 0016 FB64     		str	r3, [r7, #76]
  49:lib_Network/svt.c **** 	InByte = DecodeByte(InByte);
  72              		.loc 1 49 0
  73 0018 1B23     		movs	r3, #27
  74 001a FE18     		adds	r6, r7, r3
  75 001c 1B23     		movs	r3, #27
  76 001e FB18     		adds	r3, r7, r3
  77 0020 1B78     		ldrb	r3, [r3]
  78 0022 1800     		movs	r0, r3
  79 0024 FFF7FEFF 		bl	DecodeByte
  80 0028 0300     		movs	r3, r0
  81 002a 3370     		strb	r3, [r6]
  50:lib_Network/svt.c ****     if (InByte == STX)
  82              		.loc 1 50 0
  83 002c 1B23     		movs	r3, #27
  84 002e FB18     		adds	r3, r7, r3
  85 0030 1B78     		ldrb	r3, [r3]
  86 0032 3C2B     		cmp	r3, #60
  87 0034 19D1     		bne	.L2
  51:lib_Network/svt.c **** 	{
  52:lib_Network/svt.c **** 	    PROTO_STATE = READ_SQ;
  88              		.loc 1 52 0
  89 0036 C44B     		ldr	r3, .L51
  90 0038 0122     		movs	r2, #1
  91 003a 1A70     		strb	r2, [r3]
  53:lib_Network/svt.c **** 		ResetPacket(Data);
  92              		.loc 1 53 0
  93 003c FB69     		ldr	r3, [r7, #28]
  94 003e 1800     		movs	r0, r3
  95 0040 FFF7FEFF 		bl	ResetPacket
  54:lib_Network/svt.c **** 		LenSeq = 0;
  96              		.loc 1 54 0
  97 0044 C14B     		ldr	r3, .L51+4
  98 0046 0022     		movs	r2, #0
  99 0048 1A70     		strb	r2, [r3]
  55:lib_Network/svt.c **** 		LenC = 0;
 100              		.loc 1 55 0
 101 004a C14B     		ldr	r3, .L51+8
 102 004c 0022     		movs	r2, #0
 103 004e 1A70     		strb	r2, [r3]
  56:lib_Network/svt.c **** 		LenChS = 0;
 104              		.loc 1 56 0
 105 0050 C04B     		ldr	r3, .L51+12
 106 0052 0022     		movs	r2, #0
 107 0054 1A70     		strb	r2, [r3]
  57:lib_Network/svt.c **** 		LenD1 = 0;
 108              		.loc 1 57 0
 109 0056 C04B     		ldr	r3, .L51+16
 110 0058 0022     		movs	r2, #0
ARM GAS  C:\Users\Petro\AppData\Local\Temp\ccybtcEw.s 			page 4


 111 005a 1A70     		strb	r2, [r3]
  58:lib_Network/svt.c **** 		LenD2 = 0;
 112              		.loc 1 58 0
 113 005c BF4B     		ldr	r3, .L51+20
 114 005e 0022     		movs	r2, #0
 115 0060 1A70     		strb	r2, [r3]
  59:lib_Network/svt.c ****         LenD3 = 0;
 116              		.loc 1 59 0
 117 0062 BF4B     		ldr	r3, .L51+24
 118 0064 0022     		movs	r2, #0
 119 0066 1A70     		strb	r2, [r3]
 120 0068 EDE1     		b	.L3
 121              	.L2:
  60:lib_Network/svt.c ****     }
  61:lib_Network/svt.c ****     else
  62:lib_Network/svt.c ****     {
  63:lib_Network/svt.c ****     	switch(PROTO_STATE){
 122              		.loc 1 63 0
 123 006a B74B     		ldr	r3, .L51
 124 006c 1B78     		ldrb	r3, [r3]
 125 006e 0A2B     		cmp	r3, #10
 126 0070 00D9     		bls	.LCB71
 127 0072 E4E1     		b	.L4	@long jump
 128              	.LCB71:
 129 0074 9A00     		lsls	r2, r3, #2
 130 0076 BB4B     		ldr	r3, .L51+28
 131 0078 D318     		adds	r3, r2, r3
 132 007a 1B68     		ldr	r3, [r3]
 133 007c 9F46     		mov	pc, r3
 134              		.section	.rodata
 135 001e 0000     		.align	2
 136              	.L6:
 137 0020 3E040000 		.word	.L4
 138 0024 7E000000 		.word	.L5
 139 0028 D8000000 		.word	.L7
 140 002c FE000000 		.word	.L8
 141 0030 5A010000 		.word	.L9
 142 0034 80010000 		.word	.L10
 143 0038 02020000 		.word	.L11
 144 003c 64020000 		.word	.L12
 145 0040 C6020000 		.word	.L13
 146 0044 EC020000 		.word	.L14
 147 0048 68030000 		.word	.L15
 148              		.section	.text.UnpackData
 149              	.L5:
  64:lib_Network/svt.c ****     		case READ_SQ:
  65:lib_Network/svt.c ****     		{
  66:lib_Network/svt.c ****     			if(CheckSymb(InByte))
 150              		.loc 1 66 0
 151 007e 1B23     		movs	r3, #27
 152 0080 FB18     		adds	r3, r7, r3
 153 0082 1B78     		ldrb	r3, [r3]
 154 0084 1800     		movs	r0, r3
 155 0086 FFF7FEFF 		bl	CheckSymb
 156 008a 031E     		subs	r3, r0, #0
 157 008c 1ED0     		beq	.L16
  67:lib_Network/svt.c ****     			{
ARM GAS  C:\Users\Petro\AppData\Local\Temp\ccybtcEw.s 			page 5


  68:lib_Network/svt.c ****     				Data->Seq |= InByte;
 158              		.loc 1 68 0
 159 008e FB69     		ldr	r3, [r7, #28]
 160 0090 1A88     		ldrh	r2, [r3]
 161 0092 1B23     		movs	r3, #27
 162 0094 FB18     		adds	r3, r7, r3
 163 0096 1B78     		ldrb	r3, [r3]
 164 0098 9BB2     		uxth	r3, r3
 165 009a 1343     		orrs	r3, r2
 166 009c 9AB2     		uxth	r2, r3
 167 009e FB69     		ldr	r3, [r7, #28]
 168 00a0 1A80     		strh	r2, [r3]
  69:lib_Network/svt.c ****     				LenSeq++;
 169              		.loc 1 69 0
 170 00a2 AA4B     		ldr	r3, .L51+4
 171 00a4 1B78     		ldrb	r3, [r3]
 172 00a6 0133     		adds	r3, r3, #1
 173 00a8 DAB2     		uxtb	r2, r3
 174 00aa A84B     		ldr	r3, .L51+4
 175 00ac 1A70     		strb	r2, [r3]
  70:lib_Network/svt.c ****     				if (LenSeq == LEN_SEQ)
 176              		.loc 1 70 0
 177 00ae A74B     		ldr	r3, .L51+4
 178 00b0 1B78     		ldrb	r3, [r3]
 179 00b2 042B     		cmp	r3, #4
 180 00b4 03D1     		bne	.L17
  71:lib_Network/svt.c ****     				{
  72:lib_Network/svt.c ****     					PROTO_STATE = READ_FR1;
 181              		.loc 1 72 0
 182 00b6 A44B     		ldr	r3, .L51
 183 00b8 0222     		movs	r2, #2
 184 00ba 1A70     		strb	r2, [r3]
  73:lib_Network/svt.c ****     				}
  74:lib_Network/svt.c ****     				else
  75:lib_Network/svt.c ****     				{
  76:lib_Network/svt.c ****     					Data->Seq = Data->Seq << HALF_BYTE;
  77:lib_Network/svt.c ****     				}
  78:lib_Network/svt.c ****     			}
  79:lib_Network/svt.c ****     			else{
  80:lib_Network/svt.c ****     				PROTO_STATE = WAIT_STX;
  81:lib_Network/svt.c ****     				ERR_CODE = BAD_SEQ;
  82:lib_Network/svt.c ****     			}
  83:lib_Network/svt.c ****     			break;
 185              		.loc 1 83 0
 186 00bc C3E1     		b	.L3
 187              	.L17:
  76:lib_Network/svt.c ****     				}
 188              		.loc 1 76 0
 189 00be FB69     		ldr	r3, [r7, #28]
 190 00c0 1B88     		ldrh	r3, [r3]
 191 00c2 1B01     		lsls	r3, r3, #4
 192 00c4 9AB2     		uxth	r2, r3
 193 00c6 FB69     		ldr	r3, [r7, #28]
 194 00c8 1A80     		strh	r2, [r3]
 195              		.loc 1 83 0
 196 00ca BCE1     		b	.L3
 197              	.L16:
ARM GAS  C:\Users\Petro\AppData\Local\Temp\ccybtcEw.s 			page 6


  80:lib_Network/svt.c ****     				ERR_CODE = BAD_SEQ;
 198              		.loc 1 80 0
 199 00cc 9E4B     		ldr	r3, .L51
 200 00ce 0022     		movs	r2, #0
 201 00d0 1A70     		strb	r2, [r3]
  81:lib_Network/svt.c ****     			}
 202              		.loc 1 81 0
 203 00d2 0123     		movs	r3, #1
 204 00d4 FB64     		str	r3, [r7, #76]
 205              		.loc 1 83 0
 206 00d6 B6E1     		b	.L3
 207              	.L7:
  84:lib_Network/svt.c ****     		}  		
  85:lib_Network/svt.c ****     		case READ_FR1:
  86:lib_Network/svt.c ****     		{
  87:lib_Network/svt.c ****     			if (InByte == FR1)
 208              		.loc 1 87 0
 209 00d8 1B23     		movs	r3, #27
 210 00da FB18     		adds	r3, r7, r3
 211 00dc 1B78     		ldrb	r3, [r3]
 212 00de 212B     		cmp	r3, #33
 213 00e0 03D1     		bne	.L20
  88:lib_Network/svt.c ****     			{
  89:lib_Network/svt.c ****     				PROTO_STATE = READ_COM;
 214              		.loc 1 89 0
 215 00e2 994B     		ldr	r3, .L51
 216 00e4 0322     		movs	r2, #3
 217 00e6 1A70     		strb	r2, [r3]
  90:lib_Network/svt.c ****     			}
  91:lib_Network/svt.c ****     			else
  92:lib_Network/svt.c ****     			{
  93:lib_Network/svt.c ****     				ResetPacket(Data);
  94:lib_Network/svt.c ****     				ERR_CODE = NO_FR1;
  95:lib_Network/svt.c ****     				PROTO_STATE = WAIT_STX;
  96:lib_Network/svt.c ****     			}
  97:lib_Network/svt.c ****     			break;
 218              		.loc 1 97 0
 219 00e8 ADE1     		b	.L3
 220              	.L20:
  93:lib_Network/svt.c ****     				ERR_CODE = NO_FR1;
 221              		.loc 1 93 0
 222 00ea FB69     		ldr	r3, [r7, #28]
 223 00ec 1800     		movs	r0, r3
 224 00ee FFF7FEFF 		bl	ResetPacket
  94:lib_Network/svt.c ****     				PROTO_STATE = WAIT_STX;
 225              		.loc 1 94 0
 226 00f2 0223     		movs	r3, #2
 227 00f4 FB64     		str	r3, [r7, #76]
  95:lib_Network/svt.c ****     			}
 228              		.loc 1 95 0
 229 00f6 944B     		ldr	r3, .L51
 230 00f8 0022     		movs	r2, #0
 231 00fa 1A70     		strb	r2, [r3]
 232              		.loc 1 97 0
 233 00fc A3E1     		b	.L3
 234              	.L8:
  98:lib_Network/svt.c ****     		}
ARM GAS  C:\Users\Petro\AppData\Local\Temp\ccybtcEw.s 			page 7


  99:lib_Network/svt.c ****     		case READ_COM:
 100:lib_Network/svt.c ****     		{
 101:lib_Network/svt.c ****     			//printf("InByte Command: %02X\n", InByte);
 102:lib_Network/svt.c ****     			if(CheckSymb(InByte))
 235              		.loc 1 102 0
 236 00fe 1B23     		movs	r3, #27
 237 0100 FB18     		adds	r3, r7, r3
 238 0102 1B78     		ldrb	r3, [r3]
 239 0104 1800     		movs	r0, r3
 240 0106 FFF7FEFF 		bl	CheckSymb
 241 010a 031E     		subs	r3, r0, #0
 242 010c 1BD0     		beq	.L22
 103:lib_Network/svt.c ****     			{
 104:lib_Network/svt.c ****     				Data->Command |= InByte;
 243              		.loc 1 104 0
 244 010e FB69     		ldr	r3, [r7, #28]
 245 0110 5A68     		ldr	r2, [r3, #4]
 246 0112 1B23     		movs	r3, #27
 247 0114 FB18     		adds	r3, r7, r3
 248 0116 1B78     		ldrb	r3, [r3]
 249 0118 1A43     		orrs	r2, r3
 250 011a FB69     		ldr	r3, [r7, #28]
 251 011c 5A60     		str	r2, [r3, #4]
 105:lib_Network/svt.c ****     				LenC ++;
 252              		.loc 1 105 0
 253 011e 8C4B     		ldr	r3, .L51+8
 254 0120 1B78     		ldrb	r3, [r3]
 255 0122 0133     		adds	r3, r3, #1
 256 0124 DAB2     		uxtb	r2, r3
 257 0126 8A4B     		ldr	r3, .L51+8
 258 0128 1A70     		strb	r2, [r3]
 106:lib_Network/svt.c ****     				//printf("LenC Command: %d\n", LenC);
 107:lib_Network/svt.c ****     				if (LenC == LEN_COM)
 259              		.loc 1 107 0
 260 012a 894B     		ldr	r3, .L51+8
 261 012c 1B78     		ldrb	r3, [r3]
 262 012e 022B     		cmp	r3, #2
 263 0130 03D1     		bne	.L23
 108:lib_Network/svt.c ****     				{
 109:lib_Network/svt.c ****     					PROTO_STATE = READ_FR2;
 264              		.loc 1 109 0
 265 0132 854B     		ldr	r3, .L51
 266 0134 0422     		movs	r2, #4
 267 0136 1A70     		strb	r2, [r3]
 110:lib_Network/svt.c ****     				}
 111:lib_Network/svt.c ****     				else
 112:lib_Network/svt.c ****     				{
 113:lib_Network/svt.c ****     					Data->Command = Data->Command << HALF_BYTE;
 114:lib_Network/svt.c ****     				}
 115:lib_Network/svt.c ****     			}
 116:lib_Network/svt.c ****     			else
 117:lib_Network/svt.c ****     			{
 118:lib_Network/svt.c ****     				ResetPacket(Data);
 119:lib_Network/svt.c ****     				PROTO_STATE = WAIT_STX;
 120:lib_Network/svt.c ****     				ERR_CODE = INV_COMM;
 121:lib_Network/svt.c ****     			}
 122:lib_Network/svt.c ****     			break;
ARM GAS  C:\Users\Petro\AppData\Local\Temp\ccybtcEw.s 			page 8


 268              		.loc 1 122 0
 269 0138 85E1     		b	.L3
 270              	.L23:
 113:lib_Network/svt.c ****     				}
 271              		.loc 1 113 0
 272 013a FB69     		ldr	r3, [r7, #28]
 273 013c 5B68     		ldr	r3, [r3, #4]
 274 013e 1A01     		lsls	r2, r3, #4
 275 0140 FB69     		ldr	r3, [r7, #28]
 276 0142 5A60     		str	r2, [r3, #4]
 277              		.loc 1 122 0
 278 0144 7FE1     		b	.L3
 279              	.L22:
 118:lib_Network/svt.c ****     				PROTO_STATE = WAIT_STX;
 280              		.loc 1 118 0
 281 0146 FB69     		ldr	r3, [r7, #28]
 282 0148 1800     		movs	r0, r3
 283 014a FFF7FEFF 		bl	ResetPacket
 119:lib_Network/svt.c ****     				ERR_CODE = INV_COMM;
 284              		.loc 1 119 0
 285 014e 7E4B     		ldr	r3, .L51
 286 0150 0022     		movs	r2, #0
 287 0152 1A70     		strb	r2, [r3]
 120:lib_Network/svt.c ****     			}
 288              		.loc 1 120 0
 289 0154 0323     		movs	r3, #3
 290 0156 FB64     		str	r3, [r7, #76]
 291              		.loc 1 122 0
 292 0158 75E1     		b	.L3
 293              	.L9:
 123:lib_Network/svt.c ****     		}
 124:lib_Network/svt.c ****     		case READ_FR2:
 125:lib_Network/svt.c ****     		{
 126:lib_Network/svt.c ****     			if (InByte == FR2)
 294              		.loc 1 126 0
 295 015a 1B23     		movs	r3, #27
 296 015c FB18     		adds	r3, r7, r3
 297 015e 1B78     		ldrb	r3, [r3]
 298 0160 3A2B     		cmp	r3, #58
 299 0162 03D1     		bne	.L26
 127:lib_Network/svt.c ****     			{
 128:lib_Network/svt.c ****     				PROTO_STATE = READ_DA1;
 300              		.loc 1 128 0
 301 0164 784B     		ldr	r3, .L51
 302 0166 0522     		movs	r2, #5
 303 0168 1A70     		strb	r2, [r3]
 129:lib_Network/svt.c ****     			}
 130:lib_Network/svt.c ****     			else
 131:lib_Network/svt.c ****     			{
 132:lib_Network/svt.c ****     				ResetPacket(Data);
 133:lib_Network/svt.c ****     				ERR_CODE = NO_FR2;
 134:lib_Network/svt.c ****     				PROTO_STATE = WAIT_STX;
 135:lib_Network/svt.c ****     			}
 136:lib_Network/svt.c ****     			break;
 304              		.loc 1 136 0
 305 016a 6CE1     		b	.L3
 306              	.L26:
ARM GAS  C:\Users\Petro\AppData\Local\Temp\ccybtcEw.s 			page 9


 132:lib_Network/svt.c ****     				ERR_CODE = NO_FR2;
 307              		.loc 1 132 0
 308 016c FB69     		ldr	r3, [r7, #28]
 309 016e 1800     		movs	r0, r3
 310 0170 FFF7FEFF 		bl	ResetPacket
 133:lib_Network/svt.c ****     				PROTO_STATE = WAIT_STX;
 311              		.loc 1 133 0
 312 0174 0423     		movs	r3, #4
 313 0176 FB64     		str	r3, [r7, #76]
 134:lib_Network/svt.c ****     			}
 314              		.loc 1 134 0
 315 0178 734B     		ldr	r3, .L51
 316 017a 0022     		movs	r2, #0
 317 017c 1A70     		strb	r2, [r3]
 318              		.loc 1 136 0
 319 017e 62E1     		b	.L3
 320              	.L10:
 137:lib_Network/svt.c ****     		}
 138:lib_Network/svt.c ****     		case READ_DA1:
 139:lib_Network/svt.c ****     		{
 140:lib_Network/svt.c **** 
 141:lib_Network/svt.c ****     			if(CheckSymb(InByte))
 321              		.loc 1 141 0
 322 0180 1B23     		movs	r3, #27
 323 0182 FB18     		adds	r3, r7, r3
 324 0184 1B78     		ldrb	r3, [r3]
 325 0186 1800     		movs	r0, r3
 326 0188 FFF7FEFF 		bl	CheckSymb
 327 018c 031E     		subs	r3, r0, #0
 328 018e 2ED0     		beq	.L28
 142:lib_Network/svt.c ****     			{
 143:lib_Network/svt.c ****     				Data->Data1 |= InByte;
 329              		.loc 1 143 0
 330 0190 FB69     		ldr	r3, [r7, #28]
 331 0192 9A68     		ldr	r2, [r3, #8]
 332 0194 DB68     		ldr	r3, [r3, #12]
 333 0196 1B21     		movs	r1, #27
 334 0198 7918     		adds	r1, r7, r1
 335 019a 0978     		ldrb	r1, [r1]
 336 019c C9B2     		uxtb	r1, r1
 337 019e 3961     		str	r1, [r7, #16]
 338 01a0 0021     		movs	r1, #0
 339 01a2 7961     		str	r1, [r7, #20]
 340 01a4 3869     		ldr	r0, [r7, #16]
 341 01a6 7969     		ldr	r1, [r7, #20]
 342 01a8 0600     		movs	r6, r0
 343 01aa 1643     		orrs	r6, r2
 344 01ac BE60     		str	r6, [r7, #8]
 345 01ae 1943     		orrs	r1, r3
 346 01b0 F960     		str	r1, [r7, #12]
 347 01b2 FB69     		ldr	r3, [r7, #28]
 348 01b4 B968     		ldr	r1, [r7, #8]
 349 01b6 FA68     		ldr	r2, [r7, #12]
 350 01b8 9960     		str	r1, [r3, #8]
 351 01ba DA60     		str	r2, [r3, #12]
 144:lib_Network/svt.c ****     				LenD1++;
 352              		.loc 1 144 0
ARM GAS  C:\Users\Petro\AppData\Local\Temp\ccybtcEw.s 			page 10


 353 01bc 664B     		ldr	r3, .L51+16
 354 01be 1B78     		ldrb	r3, [r3]
 355 01c0 0133     		adds	r3, r3, #1
 356 01c2 DAB2     		uxtb	r2, r3
 357 01c4 644B     		ldr	r3, .L51+16
 358 01c6 1A70     		strb	r2, [r3]
 145:lib_Network/svt.c ****     				if (LenD1 == LEN_DA1)
 359              		.loc 1 145 0
 360 01c8 634B     		ldr	r3, .L51+16
 361 01ca 1B78     		ldrb	r3, [r3]
 362 01cc 102B     		cmp	r3, #16
 363 01ce 03D1     		bne	.L29
 146:lib_Network/svt.c ****     				{
 147:lib_Network/svt.c ****     					PROTO_STATE = READ_DA2;
 364              		.loc 1 147 0
 365 01d0 5D4B     		ldr	r3, .L51
 366 01d2 0622     		movs	r2, #6
 367 01d4 1A70     		strb	r2, [r3]
 148:lib_Network/svt.c ****     				}
 149:lib_Network/svt.c ****     				else
 150:lib_Network/svt.c ****     				{
 151:lib_Network/svt.c ****     					Data->Data1 = Data->Data1 << HALF_BYTE;
 152:lib_Network/svt.c ****     				}
 153:lib_Network/svt.c ****     			}
 154:lib_Network/svt.c ****     			else{
 155:lib_Network/svt.c ****     				ResetPacket(Data);
 156:lib_Network/svt.c ****     				ERR_CODE = INV_DA1;
 157:lib_Network/svt.c ****     				PROTO_STATE = WAIT_STX;
 158:lib_Network/svt.c ****     			}
 159:lib_Network/svt.c ****     			break;
 368              		.loc 1 159 0
 369 01d6 36E1     		b	.L3
 370              	.L29:
 151:lib_Network/svt.c ****     				}
 371              		.loc 1 151 0
 372 01d8 FB69     		ldr	r3, [r7, #28]
 373 01da 9A68     		ldr	r2, [r3, #8]
 374 01dc DB68     		ldr	r3, [r3, #12]
 375 01de 110F     		lsrs	r1, r2, #28
 376 01e0 1D01     		lsls	r5, r3, #4
 377 01e2 0D43     		orrs	r5, r1
 378 01e4 1401     		lsls	r4, r2, #4
 379 01e6 FB69     		ldr	r3, [r7, #28]
 380 01e8 9C60     		str	r4, [r3, #8]
 381 01ea DD60     		str	r5, [r3, #12]
 382              		.loc 1 159 0
 383 01ec 2BE1     		b	.L3
 384              	.L28:
 155:lib_Network/svt.c ****     				ERR_CODE = INV_DA1;
 385              		.loc 1 155 0
 386 01ee FB69     		ldr	r3, [r7, #28]
 387 01f0 1800     		movs	r0, r3
 388 01f2 FFF7FEFF 		bl	ResetPacket
 156:lib_Network/svt.c ****     				PROTO_STATE = WAIT_STX;
 389              		.loc 1 156 0
 390 01f6 0523     		movs	r3, #5
 391 01f8 FB64     		str	r3, [r7, #76]
ARM GAS  C:\Users\Petro\AppData\Local\Temp\ccybtcEw.s 			page 11


 157:lib_Network/svt.c ****     			}
 392              		.loc 1 157 0
 393 01fa 534B     		ldr	r3, .L51
 394 01fc 0022     		movs	r2, #0
 395 01fe 1A70     		strb	r2, [r3]
 396              		.loc 1 159 0
 397 0200 21E1     		b	.L3
 398              	.L11:
 160:lib_Network/svt.c ****     		}
 161:lib_Network/svt.c ****     		case READ_DA2:
 162:lib_Network/svt.c ****     		{
 163:lib_Network/svt.c ****     			
 164:lib_Network/svt.c **** 
 165:lib_Network/svt.c ****     			if(CheckSymb(InByte))
 399              		.loc 1 165 0
 400 0202 1B23     		movs	r3, #27
 401 0204 FB18     		adds	r3, r7, r3
 402 0206 1B78     		ldrb	r3, [r3]
 403 0208 1800     		movs	r0, r3
 404 020a FFF7FEFF 		bl	CheckSymb
 405 020e 031E     		subs	r3, r0, #0
 406 0210 1ED0     		beq	.L32
 166:lib_Network/svt.c ****     			{
 167:lib_Network/svt.c ****     				Data->Data2 |= InByte;
 407              		.loc 1 167 0
 408 0212 FB69     		ldr	r3, [r7, #28]
 409 0214 1A8A     		ldrh	r2, [r3, #16]
 410 0216 1B23     		movs	r3, #27
 411 0218 FB18     		adds	r3, r7, r3
 412 021a 1B78     		ldrb	r3, [r3]
 413 021c 9BB2     		uxth	r3, r3
 414 021e 1343     		orrs	r3, r2
 415 0220 9AB2     		uxth	r2, r3
 416 0222 FB69     		ldr	r3, [r7, #28]
 417 0224 1A82     		strh	r2, [r3, #16]
 168:lib_Network/svt.c ****     				LenD2++;
 418              		.loc 1 168 0
 419 0226 4D4B     		ldr	r3, .L51+20
 420 0228 1B78     		ldrb	r3, [r3]
 421 022a 0133     		adds	r3, r3, #1
 422 022c DAB2     		uxtb	r2, r3
 423 022e 4B4B     		ldr	r3, .L51+20
 424 0230 1A70     		strb	r2, [r3]
 169:lib_Network/svt.c ****     				if (LenD2 == LEN_DA2)
 425              		.loc 1 169 0
 426 0232 4A4B     		ldr	r3, .L51+20
 427 0234 1B78     		ldrb	r3, [r3]
 428 0236 042B     		cmp	r3, #4
 429 0238 03D1     		bne	.L33
 170:lib_Network/svt.c ****     				{
 171:lib_Network/svt.c ****     					PROTO_STATE = READ_DA3;
 430              		.loc 1 171 0
 431 023a 434B     		ldr	r3, .L51
 432 023c 0722     		movs	r2, #7
 433 023e 1A70     		strb	r2, [r3]
 172:lib_Network/svt.c ****     				}
 173:lib_Network/svt.c ****     				else
ARM GAS  C:\Users\Petro\AppData\Local\Temp\ccybtcEw.s 			page 12


 174:lib_Network/svt.c ****     				{
 175:lib_Network/svt.c ****     					Data->Data2 = Data->Data2 << HALF_BYTE;
 176:lib_Network/svt.c ****     				}
 177:lib_Network/svt.c ****     			}
 178:lib_Network/svt.c ****     			else{
 179:lib_Network/svt.c ****     				ResetPacket(Data);
 180:lib_Network/svt.c ****     				ERR_CODE = INV_DA2;
 181:lib_Network/svt.c ****     				PROTO_STATE = WAIT_STX;
 182:lib_Network/svt.c ****     			}
 183:lib_Network/svt.c ****     			break;
 434              		.loc 1 183 0
 435 0240 01E1     		b	.L3
 436              	.L33:
 175:lib_Network/svt.c ****     				}
 437              		.loc 1 175 0
 438 0242 FB69     		ldr	r3, [r7, #28]
 439 0244 1B8A     		ldrh	r3, [r3, #16]
 440 0246 1B01     		lsls	r3, r3, #4
 441 0248 9AB2     		uxth	r2, r3
 442 024a FB69     		ldr	r3, [r7, #28]
 443 024c 1A82     		strh	r2, [r3, #16]
 444              		.loc 1 183 0
 445 024e FAE0     		b	.L3
 446              	.L32:
 179:lib_Network/svt.c ****     				ERR_CODE = INV_DA2;
 447              		.loc 1 179 0
 448 0250 FB69     		ldr	r3, [r7, #28]
 449 0252 1800     		movs	r0, r3
 450 0254 FFF7FEFF 		bl	ResetPacket
 180:lib_Network/svt.c ****     				PROTO_STATE = WAIT_STX;
 451              		.loc 1 180 0
 452 0258 0623     		movs	r3, #6
 453 025a FB64     		str	r3, [r7, #76]
 181:lib_Network/svt.c ****     			}
 454              		.loc 1 181 0
 455 025c 3A4B     		ldr	r3, .L51
 456 025e 0022     		movs	r2, #0
 457 0260 1A70     		strb	r2, [r3]
 458              		.loc 1 183 0
 459 0262 F0E0     		b	.L3
 460              	.L12:
 184:lib_Network/svt.c ****     		}
 185:lib_Network/svt.c **** 			case READ_DA3:
 186:lib_Network/svt.c ****     		{
 187:lib_Network/svt.c ****     			if(CheckSymb(InByte))
 461              		.loc 1 187 0
 462 0264 1B23     		movs	r3, #27
 463 0266 FB18     		adds	r3, r7, r3
 464 0268 1B78     		ldrb	r3, [r3]
 465 026a 1800     		movs	r0, r3
 466 026c FFF7FEFF 		bl	CheckSymb
 467 0270 031E     		subs	r3, r0, #0
 468 0272 1ED0     		beq	.L36
 188:lib_Network/svt.c ****     			{
 189:lib_Network/svt.c ****     				Data->Data3 |= InByte;
 469              		.loc 1 189 0
 470 0274 FB69     		ldr	r3, [r7, #28]
ARM GAS  C:\Users\Petro\AppData\Local\Temp\ccybtcEw.s 			page 13


 471 0276 5A8A     		ldrh	r2, [r3, #18]
 472 0278 1B23     		movs	r3, #27
 473 027a FB18     		adds	r3, r7, r3
 474 027c 1B78     		ldrb	r3, [r3]
 475 027e 9BB2     		uxth	r3, r3
 476 0280 1343     		orrs	r3, r2
 477 0282 9AB2     		uxth	r2, r3
 478 0284 FB69     		ldr	r3, [r7, #28]
 479 0286 5A82     		strh	r2, [r3, #18]
 190:lib_Network/svt.c ****     				LenD3++;
 480              		.loc 1 190 0
 481 0288 354B     		ldr	r3, .L51+24
 482 028a 1B78     		ldrb	r3, [r3]
 483 028c 0133     		adds	r3, r3, #1
 484 028e DAB2     		uxtb	r2, r3
 485 0290 334B     		ldr	r3, .L51+24
 486 0292 1A70     		strb	r2, [r3]
 191:lib_Network/svt.c ****     				if (LenD3 == LEN_DA3)
 487              		.loc 1 191 0
 488 0294 324B     		ldr	r3, .L51+24
 489 0296 1B78     		ldrb	r3, [r3]
 490 0298 042B     		cmp	r3, #4
 491 029a 03D1     		bne	.L37
 192:lib_Network/svt.c ****     				{
 193:lib_Network/svt.c ****     					PROTO_STATE = READ_FR3;
 492              		.loc 1 193 0
 493 029c 2A4B     		ldr	r3, .L51
 494 029e 0822     		movs	r2, #8
 495 02a0 1A70     		strb	r2, [r3]
 194:lib_Network/svt.c ****     				}
 195:lib_Network/svt.c ****     				else
 196:lib_Network/svt.c ****     				{
 197:lib_Network/svt.c ****     					Data->Data3 = Data->Data3 << HALF_BYTE;
 198:lib_Network/svt.c ****     				}
 199:lib_Network/svt.c ****     			}
 200:lib_Network/svt.c ****     			else{
 201:lib_Network/svt.c ****     				ResetPacket(Data);
 202:lib_Network/svt.c ****     				ERR_CODE = INV_DA3;
 203:lib_Network/svt.c ****     				PROTO_STATE = WAIT_STX;
 204:lib_Network/svt.c ****     			}
 205:lib_Network/svt.c ****     			break;
 496              		.loc 1 205 0
 497 02a2 D0E0     		b	.L3
 498              	.L37:
 197:lib_Network/svt.c ****     				}
 499              		.loc 1 197 0
 500 02a4 FB69     		ldr	r3, [r7, #28]
 501 02a6 5B8A     		ldrh	r3, [r3, #18]
 502 02a8 1B01     		lsls	r3, r3, #4
 503 02aa 9AB2     		uxth	r2, r3
 504 02ac FB69     		ldr	r3, [r7, #28]
 505 02ae 5A82     		strh	r2, [r3, #18]
 506              		.loc 1 205 0
 507 02b0 C9E0     		b	.L3
 508              	.L36:
 201:lib_Network/svt.c ****     				ERR_CODE = INV_DA3;
 509              		.loc 1 201 0
ARM GAS  C:\Users\Petro\AppData\Local\Temp\ccybtcEw.s 			page 14


 510 02b2 FB69     		ldr	r3, [r7, #28]
 511 02b4 1800     		movs	r0, r3
 512 02b6 FFF7FEFF 		bl	ResetPacket
 202:lib_Network/svt.c ****     				PROTO_STATE = WAIT_STX;
 513              		.loc 1 202 0
 514 02ba 0A23     		movs	r3, #10
 515 02bc FB64     		str	r3, [r7, #76]
 203:lib_Network/svt.c ****     			}
 516              		.loc 1 203 0
 517 02be 224B     		ldr	r3, .L51
 518 02c0 0022     		movs	r2, #0
 519 02c2 1A70     		strb	r2, [r3]
 520              		.loc 1 205 0
 521 02c4 BFE0     		b	.L3
 522              	.L13:
 206:lib_Network/svt.c ****     		}
 207:lib_Network/svt.c ****     		case READ_FR3:
 208:lib_Network/svt.c ****     		{
 209:lib_Network/svt.c ****     			if (InByte == FR3)
 523              		.loc 1 209 0
 524 02c6 1B23     		movs	r3, #27
 525 02c8 FB18     		adds	r3, r7, r3
 526 02ca 1B78     		ldrb	r3, [r3]
 527 02cc 402B     		cmp	r3, #64
 528 02ce 03D1     		bne	.L40
 210:lib_Network/svt.c ****     			{
 211:lib_Network/svt.c ****     				PROTO_STATE = READ_CHS;
 529              		.loc 1 211 0
 530 02d0 1D4B     		ldr	r3, .L51
 531 02d2 0922     		movs	r2, #9
 532 02d4 1A70     		strb	r2, [r3]
 212:lib_Network/svt.c ****     			}
 213:lib_Network/svt.c ****     			else
 214:lib_Network/svt.c ****     			{
 215:lib_Network/svt.c ****     				ResetPacket(Data);
 216:lib_Network/svt.c ****     				ERR_CODE = NO_FR3;
 217:lib_Network/svt.c ****     				PROTO_STATE = WAIT_STX;
 218:lib_Network/svt.c ****     			}
 219:lib_Network/svt.c ****     			break;
 533              		.loc 1 219 0
 534 02d6 B6E0     		b	.L3
 535              	.L40:
 215:lib_Network/svt.c ****     				ERR_CODE = NO_FR3;
 536              		.loc 1 215 0
 537 02d8 FB69     		ldr	r3, [r7, #28]
 538 02da 1800     		movs	r0, r3
 539 02dc FFF7FEFF 		bl	ResetPacket
 216:lib_Network/svt.c ****     				PROTO_STATE = WAIT_STX;
 540              		.loc 1 216 0
 541 02e0 0723     		movs	r3, #7
 542 02e2 FB64     		str	r3, [r7, #76]
 217:lib_Network/svt.c ****     			}
 543              		.loc 1 217 0
 544 02e4 184B     		ldr	r3, .L51
 545 02e6 0022     		movs	r2, #0
 546 02e8 1A70     		strb	r2, [r3]
 547              		.loc 1 219 0
ARM GAS  C:\Users\Petro\AppData\Local\Temp\ccybtcEw.s 			page 15


 548 02ea ACE0     		b	.L3
 549              	.L14:
 220:lib_Network/svt.c ****     		}
 221:lib_Network/svt.c ****     		case READ_CHS:
 222:lib_Network/svt.c ****     		{
 223:lib_Network/svt.c ****     			if(CheckSymb(InByte))
 550              		.loc 1 223 0
 551 02ec 1B23     		movs	r3, #27
 552 02ee FB18     		adds	r3, r7, r3
 553 02f0 1B78     		ldrb	r3, [r3]
 554 02f2 1800     		movs	r0, r3
 555 02f4 FFF7FEFF 		bl	CheckSymb
 556 02f8 031E     		subs	r3, r0, #0
 557 02fa 1BD0     		beq	.L42
 224:lib_Network/svt.c ****     			{
 225:lib_Network/svt.c ****     				Data->CheckSum |= InByte;
 558              		.loc 1 225 0
 559 02fc FB69     		ldr	r3, [r7, #28]
 560 02fe 5A69     		ldr	r2, [r3, #20]
 561 0300 1B23     		movs	r3, #27
 562 0302 FB18     		adds	r3, r7, r3
 563 0304 1B78     		ldrb	r3, [r3]
 564 0306 1A43     		orrs	r2, r3
 565 0308 FB69     		ldr	r3, [r7, #28]
 566 030a 5A61     		str	r2, [r3, #20]
 226:lib_Network/svt.c ****     				LenChS++;
 567              		.loc 1 226 0
 568 030c 114B     		ldr	r3, .L51+12
 569 030e 1B78     		ldrb	r3, [r3]
 570 0310 0133     		adds	r3, r3, #1
 571 0312 DAB2     		uxtb	r2, r3
 572 0314 0F4B     		ldr	r3, .L51+12
 573 0316 1A70     		strb	r2, [r3]
 227:lib_Network/svt.c ****     				if (LenChS == LEN_CHS)
 574              		.loc 1 227 0
 575 0318 0E4B     		ldr	r3, .L51+12
 576 031a 1B78     		ldrb	r3, [r3]
 577 031c 082B     		cmp	r3, #8
 578 031e 03D1     		bne	.L43
 228:lib_Network/svt.c ****     				{
 229:lib_Network/svt.c ****     					PROTO_STATE = READ_ETX;
 579              		.loc 1 229 0
 580 0320 094B     		ldr	r3, .L51
 581 0322 0A22     		movs	r2, #10
 582 0324 1A70     		strb	r2, [r3]
 230:lib_Network/svt.c ****     				}
 231:lib_Network/svt.c ****     				else
 232:lib_Network/svt.c ****     				{
 233:lib_Network/svt.c ****     					Data->CheckSum = Data->CheckSum << HALF_BYTE;
 234:lib_Network/svt.c ****     				}
 235:lib_Network/svt.c ****     			}
 236:lib_Network/svt.c ****     			else
 237:lib_Network/svt.c ****     			{
 238:lib_Network/svt.c ****     				ResetPacket(Data);
 239:lib_Network/svt.c ****     				ERR_CODE = INV_CKECKSUM;
 240:lib_Network/svt.c ****     				PROTO_STATE = WAIT_STX;
 241:lib_Network/svt.c ****     			}
ARM GAS  C:\Users\Petro\AppData\Local\Temp\ccybtcEw.s 			page 16


 242:lib_Network/svt.c ****     			break;
 583              		.loc 1 242 0
 584 0326 8EE0     		b	.L3
 585              	.L43:
 233:lib_Network/svt.c ****     				}
 586              		.loc 1 233 0
 587 0328 FB69     		ldr	r3, [r7, #28]
 588 032a 5B69     		ldr	r3, [r3, #20]
 589 032c 1A01     		lsls	r2, r3, #4
 590 032e FB69     		ldr	r3, [r7, #28]
 591 0330 5A61     		str	r2, [r3, #20]
 592              		.loc 1 242 0
 593 0332 88E0     		b	.L3
 594              	.L42:
 238:lib_Network/svt.c ****     				ERR_CODE = INV_CKECKSUM;
 595              		.loc 1 238 0
 596 0334 FB69     		ldr	r3, [r7, #28]
 597 0336 1800     		movs	r0, r3
 598 0338 FFF7FEFF 		bl	ResetPacket
 239:lib_Network/svt.c ****     				PROTO_STATE = WAIT_STX;
 599              		.loc 1 239 0
 600 033c 0823     		movs	r3, #8
 601 033e FB64     		str	r3, [r7, #76]
 240:lib_Network/svt.c ****     			}
 602              		.loc 1 240 0
 603 0340 014B     		ldr	r3, .L51
 604 0342 0022     		movs	r2, #0
 605 0344 1A70     		strb	r2, [r3]
 606              		.loc 1 242 0
 607 0346 7EE0     		b	.L3
 608              	.L52:
 609              		.align	2
 610              	.L51:
 611 0348 00000000 		.word	PROTO_STATE
 612 034c 00000000 		.word	LenSeq
 613 0350 00000000 		.word	LenC
 614 0354 00000000 		.word	LenChS
 615 0358 00000000 		.word	LenD1
 616 035c 00000000 		.word	LenD2
 617 0360 00000000 		.word	LenD3
 618 0364 20000000 		.word	.L6
 619              	.L15:
 243:lib_Network/svt.c ****     		}
 244:lib_Network/svt.c ****     		case READ_ETX:
 245:lib_Network/svt.c ****     		{
 246:lib_Network/svt.c ****     			if (InByte == ETX)
 620              		.loc 1 246 0
 621 0368 1B23     		movs	r3, #27
 622 036a FB18     		adds	r3, r7, r3
 623 036c 1B78     		ldrb	r3, [r3]
 624 036e 3E2B     		cmp	r3, #62
 625 0370 5BD1     		bne	.L46
 626              	.LBB2:
 247:lib_Network/svt.c ****     			{
 248:lib_Network/svt.c ****                     uint32_t _tmpcrc;
 249:lib_Network/svt.c ****                     char _tmpdata[40];
 250:lib_Network/svt.c ****                     sprintf(_tmpdata, "%02X:%08X%08X%04X%04X", Data->Command, 
ARM GAS  C:\Users\Petro\AppData\Local\Temp\ccybtcEw.s 			page 17


 627              		.loc 1 250 0
 628 0372 FB69     		ldr	r3, [r7, #28]
 629 0374 5A68     		ldr	r2, [r3, #4]
 251:lib_Network/svt.c ****                         (uint32_t)((Data->Data1 & 0xFFFFFFFF00000000) >> 32), 
 630              		.loc 1 251 0
 631 0376 FB69     		ldr	r3, [r7, #28]
 632 0378 DC68     		ldr	r4, [r3, #12]
 633 037a 9B68     		ldr	r3, [r3, #8]
 634 037c 2300     		lsrs	r3, r4, #0
 635 037e 3B60     		str	r3, [r7]
 636 0380 0023     		movs	r3, #0
 637 0382 7B60     		str	r3, [r7, #4]
 250:lib_Network/svt.c ****                         (uint32_t)((Data->Data1 & 0xFFFFFFFF00000000) >> 32), 
 638              		.loc 1 250 0
 639 0384 3E68     		ldr	r6, [r7]
 252:lib_Network/svt.c ****                         (uint32_t)(Data->Data1 & 0x00000000FFFFFFFF), 
 640              		.loc 1 252 0
 641 0386 FB69     		ldr	r3, [r7, #28]
 642 0388 DC68     		ldr	r4, [r3, #12]
 643 038a 9B68     		ldr	r3, [r3, #8]
 250:lib_Network/svt.c ****                         (uint32_t)((Data->Data1 & 0xFFFFFFFF00000000) >> 32), 
 644              		.loc 1 250 0
 645 038c 1C00     		movs	r4, r3
 253:lib_Network/svt.c ****                         Data->Data2, Data->Data3);
 646              		.loc 1 253 0
 647 038e FB69     		ldr	r3, [r7, #28]
 648 0390 1B8A     		ldrh	r3, [r3, #16]
 250:lib_Network/svt.c ****                         (uint32_t)((Data->Data1 & 0xFFFFFFFF00000000) >> 32), 
 649              		.loc 1 250 0
 650 0392 1D00     		movs	r5, r3
 651              		.loc 1 253 0
 652 0394 FB69     		ldr	r3, [r7, #28]
 653 0396 5B8A     		ldrh	r3, [r3, #18]
 250:lib_Network/svt.c ****                         (uint32_t)((Data->Data1 & 0xFFFFFFFF00000000) >> 32), 
 654              		.loc 1 250 0
 655 0398 9846     		mov	r8, r3
 656 039a 2F49     		ldr	r1, .L53
 657 039c 0820     		movs	r0, #8
 658 039e 1823     		movs	r3, #24
 659 03a0 9C46     		mov	ip, r3
 660 03a2 BC44     		add	ip, ip, r7
 661 03a4 6044     		add	r0, r0, ip
 662 03a6 4346     		mov	r3, r8
 663 03a8 0293     		str	r3, [sp, #8]
 664 03aa 0195     		str	r5, [sp, #4]
 665 03ac 0094     		str	r4, [sp]
 666 03ae 3300     		movs	r3, r6
 667 03b0 FFF7FEFF 		bl	sprintf
 254:lib_Network/svt.c ****                     _tmpcrc = crc32_reset();
 668              		.loc 1 254 0
 669 03b4 0123     		movs	r3, #1
 670 03b6 5B42     		rsbs	r3, r3, #0
 671 03b8 BB64     		str	r3, [r7, #72]
 255:lib_Network/svt.c ****                     _tmpcrc = crc32_calc_block((uint8_t *)"A", 1, _tmpcrc);
 672              		.loc 1 255 0
 673 03ba BA6C     		ldr	r2, [r7, #72]
 674 03bc 274B     		ldr	r3, .L53+4
ARM GAS  C:\Users\Petro\AppData\Local\Temp\ccybtcEw.s 			page 18


 675 03be 0121     		movs	r1, #1
 676 03c0 1800     		movs	r0, r3
 677 03c2 FFF7FEFF 		bl	crc32_calc_block
 678 03c6 0300     		movs	r3, r0
 679 03c8 BB64     		str	r3, [r7, #72]
 256:lib_Network/svt.c ****                     _tmpcrc = crc32_calc_block((uint8_t *)_tmpdata, strlen(_tmpdata), _tmpcrc);
 680              		.loc 1 256 0
 681 03ca 0823     		movs	r3, #8
 682 03cc 1822     		movs	r2, #24
 683 03ce 9446     		mov	ip, r2
 684 03d0 BC44     		add	ip, ip, r7
 685 03d2 6344     		add	r3, r3, ip
 686 03d4 1800     		movs	r0, r3
 687 03d6 FFF7FEFF 		bl	strlen
 688 03da 0100     		movs	r1, r0
 689 03dc BA6C     		ldr	r2, [r7, #72]
 690 03de 0823     		movs	r3, #8
 691 03e0 1820     		movs	r0, #24
 692 03e2 8446     		mov	ip, r0
 693 03e4 BC44     		add	ip, ip, r7
 694 03e6 6344     		add	r3, r3, ip
 695 03e8 1800     		movs	r0, r3
 696 03ea FFF7FEFF 		bl	crc32_calc_block
 697 03ee 0300     		movs	r3, r0
 698 03f0 BB64     		str	r3, [r7, #72]
 257:lib_Network/svt.c ****     				_tmpcrc = crc32_calc_block((uint8_t *)"F", 1, _tmpcrc);
 699              		.loc 1 257 0
 700 03f2 BA6C     		ldr	r2, [r7, #72]
 701 03f4 1A4B     		ldr	r3, .L53+8
 702 03f6 0121     		movs	r1, #1
 703 03f8 1800     		movs	r0, r3
 704 03fa FFF7FEFF 		bl	crc32_calc_block
 705 03fe 0300     		movs	r3, r0
 706 0400 BB64     		str	r3, [r7, #72]
 258:lib_Network/svt.c ****                     _tmpcrc = crc32_final(_tmpcrc);
 707              		.loc 1 258 0
 708 0402 BB6C     		ldr	r3, [r7, #72]
 709 0404 DB43     		mvns	r3, r3
 710 0406 BB64     		str	r3, [r7, #72]
 259:lib_Network/svt.c ****                     if (_tmpcrc == Data->CheckSum)
 711              		.loc 1 259 0
 712 0408 FB69     		ldr	r3, [r7, #28]
 713 040a 5A69     		ldr	r2, [r3, #20]
 714 040c BB6C     		ldr	r3, [r7, #72]
 715 040e 9A42     		cmp	r2, r3
 716 0410 05D1     		bne	.L47
 260:lib_Network/svt.c ****                     {
 261:lib_Network/svt.c ****                         Data->EndPacket = 1;
 717              		.loc 1 261 0
 718 0412 FB69     		ldr	r3, [r7, #28]
 719 0414 0122     		movs	r2, #1
 720 0416 1A76     		strb	r2, [r3, #24]
 262:lib_Network/svt.c ****     				    ERR_CODE = PARSED_OK;
 721              		.loc 1 262 0
 722 0418 0023     		movs	r3, #0
 723 041a FB64     		str	r3, [r7, #76]
 724 041c 0BE0     		b	.L49
ARM GAS  C:\Users\Petro\AppData\Local\Temp\ccybtcEw.s 			page 19


 725              	.L47:
 263:lib_Network/svt.c ****                     }
 264:lib_Network/svt.c ****                     else
 265:lib_Network/svt.c ****                     {
 266:lib_Network/svt.c ****                         Data->EndPacket = 0;
 726              		.loc 1 266 0
 727 041e FB69     		ldr	r3, [r7, #28]
 728 0420 0022     		movs	r2, #0
 729 0422 1A76     		strb	r2, [r3, #24]
 267:lib_Network/svt.c ****                         ERR_CODE = 10;
 730              		.loc 1 267 0
 731 0424 0A23     		movs	r3, #10
 732 0426 FB64     		str	r3, [r7, #76]
 733 0428 05E0     		b	.L49
 734              	.L46:
 735              	.LBE2:
 268:lib_Network/svt.c ****                     }
 269:lib_Network/svt.c ****     			}
 270:lib_Network/svt.c ****     			else{
 271:lib_Network/svt.c ****     				ERR_CODE = NO_ETX;
 736              		.loc 1 271 0
 737 042a 0923     		movs	r3, #9
 738 042c FB64     		str	r3, [r7, #76]
 272:lib_Network/svt.c ****     				ResetPacket(Data);
 739              		.loc 1 272 0
 740 042e FB69     		ldr	r3, [r7, #28]
 741 0430 1800     		movs	r0, r3
 742 0432 FFF7FEFF 		bl	ResetPacket
 743              	.L49:
 273:lib_Network/svt.c ****     			}
 274:lib_Network/svt.c ****     			PROTO_STATE = WAIT_STX;
 744              		.loc 1 274 0
 745 0436 0B4B     		ldr	r3, .L53+12
 746 0438 0022     		movs	r2, #0
 747 043a 1A70     		strb	r2, [r3]
 275:lib_Network/svt.c ****     			break;
 748              		.loc 1 275 0
 749 043c 03E0     		b	.L3
 750              	.L4:
 276:lib_Network/svt.c ****     		}
 277:lib_Network/svt.c ****             default: 
 278:lib_Network/svt.c ****             {
 279:lib_Network/svt.c ****                 ResetPacket(Data);
 751              		.loc 1 279 0
 752 043e FB69     		ldr	r3, [r7, #28]
 753 0440 1800     		movs	r0, r3
 754 0442 FFF7FEFF 		bl	ResetPacket
 755              	.L3:
 280:lib_Network/svt.c ****             }
 281:lib_Network/svt.c ****     	}
 282:lib_Network/svt.c ****     } 
 283:lib_Network/svt.c ****     return ERR_CODE;
 756              		.loc 1 283 0
 757 0446 FB6C     		ldr	r3, [r7, #76]
 758 0448 DBB2     		uxtb	r3, r3
 284:lib_Network/svt.c **** }
 759              		.loc 1 284 0
ARM GAS  C:\Users\Petro\AppData\Local\Temp\ccybtcEw.s 			page 20


 760 044a 1800     		movs	r0, r3
 761 044c BD46     		mov	sp, r7
 762 044e 14B0     		add	sp, sp, #80
 763              		@ sp needed
 764 0450 04BC     		pop	{r2}
 765 0452 9046     		mov	r8, r2
 766 0454 F0BD     		pop	{r4, r5, r6, r7, pc}
 767              	.L54:
 768 0456 C046     		.align	2
 769              	.L53:
 770 0458 00000000 		.word	.LC8
 771 045c 18000000 		.word	.LC10
 772 0460 1C000000 		.word	.LC12
 773 0464 00000000 		.word	PROTO_STATE
 774              		.cfi_endproc
 775              	.LFE3:
 776              		.size	UnpackData, .-UnpackData
 777              		.section	.text.DecodeByte,"ax",%progbits
 778              		.align	2
 779              		.global	DecodeByte
 780              		.code	16
 781              		.thumb_func
 782              		.type	DecodeByte, %function
 783              	DecodeByte:
 784              	.LFB4:
 285:lib_Network/svt.c **** 
 286:lib_Network/svt.c **** uint8_t DecodeByte(uint8_t Inp)
 287:lib_Network/svt.c **** {
 785              		.loc 1 287 0
 786              		.cfi_startproc
 787              		@ args = 0, pretend = 0, frame = 8
 788              		@ frame_needed = 1, uses_anonymous_args = 0
 789 0000 80B5     		push	{r7, lr}
 790              		.cfi_def_cfa_offset 8
 791              		.cfi_offset 7, -8
 792              		.cfi_offset 14, -4
 793 0002 82B0     		sub	sp, sp, #8
 794              		.cfi_def_cfa_offset 16
 795 0004 00AF     		add	r7, sp, #0
 796              		.cfi_def_cfa_register 7
 797 0006 0200     		movs	r2, r0
 798 0008 FB1D     		adds	r3, r7, #7
 799 000a 1A70     		strb	r2, [r3]
 288:lib_Network/svt.c **** 	if ((Inp >= 'A') && (Inp <= 'F'))
 800              		.loc 1 288 0
 801 000c FB1D     		adds	r3, r7, #7
 802 000e 1B78     		ldrb	r3, [r3]
 803 0010 402B     		cmp	r3, #64
 804 0012 09D9     		bls	.L56
 805              		.loc 1 288 0 is_stmt 0 discriminator 1
 806 0014 FB1D     		adds	r3, r7, #7
 807 0016 1B78     		ldrb	r3, [r3]
 808 0018 462B     		cmp	r3, #70
 809 001a 05D8     		bhi	.L56
 289:lib_Network/svt.c **** 	{
 290:lib_Network/svt.c **** 		Inp -= 0x37;
 810              		.loc 1 290 0 is_stmt 1
ARM GAS  C:\Users\Petro\AppData\Local\Temp\ccybtcEw.s 			page 21


 811 001c FB1D     		adds	r3, r7, #7
 812 001e FA1D     		adds	r2, r7, #7
 813 0020 1278     		ldrb	r2, [r2]
 814 0022 373A     		subs	r2, r2, #55
 815 0024 1A70     		strb	r2, [r3]
 816 0026 0CE0     		b	.L57
 817              	.L56:
 291:lib_Network/svt.c **** 	}
 292:lib_Network/svt.c **** 	else if ((Inp >= '0') && (Inp <= '9')){
 818              		.loc 1 292 0
 819 0028 FB1D     		adds	r3, r7, #7
 820 002a 1B78     		ldrb	r3, [r3]
 821 002c 2F2B     		cmp	r3, #47
 822 002e 08D9     		bls	.L57
 823              		.loc 1 292 0 is_stmt 0 discriminator 1
 824 0030 FB1D     		adds	r3, r7, #7
 825 0032 1B78     		ldrb	r3, [r3]
 826 0034 392B     		cmp	r3, #57
 827 0036 04D8     		bhi	.L57
 293:lib_Network/svt.c **** 		Inp -= 0x30;
 828              		.loc 1 293 0 is_stmt 1
 829 0038 FB1D     		adds	r3, r7, #7
 830 003a FA1D     		adds	r2, r7, #7
 831 003c 1278     		ldrb	r2, [r2]
 832 003e 303A     		subs	r2, r2, #48
 833 0040 1A70     		strb	r2, [r3]
 834              	.L57:
 294:lib_Network/svt.c **** 	}
 295:lib_Network/svt.c **** 	return Inp;
 835              		.loc 1 295 0
 836 0042 FB1D     		adds	r3, r7, #7
 837 0044 1B78     		ldrb	r3, [r3]
 296:lib_Network/svt.c **** }
 838              		.loc 1 296 0
 839 0046 1800     		movs	r0, r3
 840 0048 BD46     		mov	sp, r7
 841 004a 02B0     		add	sp, sp, #8
 842              		@ sp needed
 843 004c 80BD     		pop	{r7, pc}
 844              		.cfi_endproc
 845              	.LFE4:
 846              		.size	DecodeByte, .-DecodeByte
 847 004e C046     		.section	.text.CheckSymb,"ax",%progbits
 848              		.align	2
 849              		.global	CheckSymb
 850              		.code	16
 851              		.thumb_func
 852              		.type	CheckSymb, %function
 853              	CheckSymb:
 854              	.LFB5:
 297:lib_Network/svt.c **** 
 298:lib_Network/svt.c **** uint8_t CheckSymb(uint8_t Inp)
 299:lib_Network/svt.c **** {
 855              		.loc 1 299 0
 856              		.cfi_startproc
 857              		@ args = 0, pretend = 0, frame = 16
 858              		@ frame_needed = 1, uses_anonymous_args = 0
ARM GAS  C:\Users\Petro\AppData\Local\Temp\ccybtcEw.s 			page 22


 859 0000 80B5     		push	{r7, lr}
 860              		.cfi_def_cfa_offset 8
 861              		.cfi_offset 7, -8
 862              		.cfi_offset 14, -4
 863 0002 84B0     		sub	sp, sp, #16
 864              		.cfi_def_cfa_offset 24
 865 0004 00AF     		add	r7, sp, #0
 866              		.cfi_def_cfa_register 7
 867 0006 0200     		movs	r2, r0
 868 0008 FB1D     		adds	r3, r7, #7
 869 000a 1A70     		strb	r2, [r3]
 300:lib_Network/svt.c **** 	uint8_t Val = 1;
 870              		.loc 1 300 0
 871 000c 0F23     		movs	r3, #15
 872 000e FB18     		adds	r3, r7, r3
 873 0010 0122     		movs	r2, #1
 874 0012 1A70     		strb	r2, [r3]
 301:lib_Network/svt.c **** 
 302:lib_Network/svt.c **** 	if ((Inp > 0xF) || (Inp < 0x0))
 875              		.loc 1 302 0
 876 0014 FB1D     		adds	r3, r7, #7
 877 0016 1B78     		ldrb	r3, [r3]
 878 0018 0F2B     		cmp	r3, #15
 879 001a 03D9     		bls	.L60
 303:lib_Network/svt.c **** 	{
 304:lib_Network/svt.c **** 		Val = 0;
 880              		.loc 1 304 0
 881 001c 0F23     		movs	r3, #15
 882 001e FB18     		adds	r3, r7, r3
 883 0020 0022     		movs	r2, #0
 884 0022 1A70     		strb	r2, [r3]
 885              	.L60:
 305:lib_Network/svt.c **** 	}
 306:lib_Network/svt.c **** 	return Val;
 886              		.loc 1 306 0
 887 0024 0F23     		movs	r3, #15
 888 0026 FB18     		adds	r3, r7, r3
 889 0028 1B78     		ldrb	r3, [r3]
 307:lib_Network/svt.c **** }
 890              		.loc 1 307 0
 891 002a 1800     		movs	r0, r3
 892 002c BD46     		mov	sp, r7
 893 002e 04B0     		add	sp, sp, #16
 894              		@ sp needed
 895 0030 80BD     		pop	{r7, pc}
 896              		.cfi_endproc
 897              	.LFE5:
 898              		.size	CheckSymb, .-CheckSymb
 899 0032 C046     		.section	.text.ResetPacket,"ax",%progbits
 900              		.align	2
 901              		.global	ResetPacket
 902              		.code	16
 903              		.thumb_func
 904              		.type	ResetPacket, %function
 905              	ResetPacket:
 906              	.LFB6:
 308:lib_Network/svt.c **** 
ARM GAS  C:\Users\Petro\AppData\Local\Temp\ccybtcEw.s 			page 23


 309:lib_Network/svt.c **** void ResetPacket(struct Resp *Data)
 310:lib_Network/svt.c **** {
 907              		.loc 1 310 0
 908              		.cfi_startproc
 909              		@ args = 0, pretend = 0, frame = 8
 910              		@ frame_needed = 1, uses_anonymous_args = 0
 911 0000 90B5     		push	{r4, r7, lr}
 912              		.cfi_def_cfa_offset 12
 913              		.cfi_offset 4, -12
 914              		.cfi_offset 7, -8
 915              		.cfi_offset 14, -4
 916 0002 83B0     		sub	sp, sp, #12
 917              		.cfi_def_cfa_offset 24
 918 0004 00AF     		add	r7, sp, #0
 919              		.cfi_def_cfa_register 7
 920 0006 7860     		str	r0, [r7, #4]
 311:lib_Network/svt.c **** 	Data->Seq = 0;
 921              		.loc 1 311 0
 922 0008 7B68     		ldr	r3, [r7, #4]
 923 000a 0022     		movs	r2, #0
 924 000c 1A80     		strh	r2, [r3]
 312:lib_Network/svt.c **** 	Data->Command = 0;
 925              		.loc 1 312 0
 926 000e 7B68     		ldr	r3, [r7, #4]
 927 0010 0022     		movs	r2, #0
 928 0012 5A60     		str	r2, [r3, #4]
 313:lib_Network/svt.c **** 	Data->Data1 = 0;
 929              		.loc 1 313 0
 930 0014 7A68     		ldr	r2, [r7, #4]
 931 0016 0023     		movs	r3, #0
 932 0018 0024     		movs	r4, #0
 933 001a 9360     		str	r3, [r2, #8]
 934 001c D460     		str	r4, [r2, #12]
 314:lib_Network/svt.c **** 	Data->Data2 = 0;
 935              		.loc 1 314 0
 936 001e 7B68     		ldr	r3, [r7, #4]
 937 0020 0022     		movs	r2, #0
 938 0022 1A82     		strh	r2, [r3, #16]
 315:lib_Network/svt.c **** 	Data->Data3 = 0;
 939              		.loc 1 315 0
 940 0024 7B68     		ldr	r3, [r7, #4]
 941 0026 0022     		movs	r2, #0
 942 0028 5A82     		strh	r2, [r3, #18]
 316:lib_Network/svt.c **** 	Data->CheckSum = 0;
 943              		.loc 1 316 0
 944 002a 7B68     		ldr	r3, [r7, #4]
 945 002c 0022     		movs	r2, #0
 946 002e 5A61     		str	r2, [r3, #20]
 317:lib_Network/svt.c **** 	Data->EndPacket = 0;
 947              		.loc 1 317 0
 948 0030 7B68     		ldr	r3, [r7, #4]
 949 0032 0022     		movs	r2, #0
 950 0034 1A76     		strb	r2, [r3, #24]
 318:lib_Network/svt.c **** }
 951              		.loc 1 318 0
 952 0036 C046     		nop
 953 0038 BD46     		mov	sp, r7
ARM GAS  C:\Users\Petro\AppData\Local\Temp\ccybtcEw.s 			page 24


 954 003a 03B0     		add	sp, sp, #12
 955              		@ sp needed
 956 003c 90BD     		pop	{r4, r7, pc}
 957              		.cfi_endproc
 958              	.LFE6:
 959              		.size	ResetPacket, .-ResetPacket
 960 003e C046     		.section	.rodata
 961              		.align	2
 962              	.LC14:
 963 004c 25303458 		.ascii	"%04X\000"
 963      00
 964 0051 000000   		.align	2
 965              	.LC18:
 966 0054 25303858 		.ascii	"%08X\000"
 966      00
 967 0059 000000   		.align	2
 968              	.LC20:
 969 005c 3C00     		.ascii	"<\000"
 970 005e 0000     		.align	2
 971              	.LC22:
 972 0060 2100     		.ascii	"!\000"
 973 0062 0000     		.align	2
 974              	.LC24:
 975 0064 4000     		.ascii	"@\000"
 976 0066 0000     		.align	2
 977              	.LC26:
 978 0068 3E00     		.ascii	">\000"
 979              		.section	.text.PackData,"ax",%progbits
 980              		.align	2
 981              		.global	PackData
 982              		.code	16
 983              		.thumb_func
 984              		.type	PackData, %function
 985              	PackData:
 986              	.LFB7:
 319:lib_Network/svt.c **** 
 320:lib_Network/svt.c **** uint8_t PackData(char *buff, uint8_t *data, uint16_t Sequence)
 321:lib_Network/svt.c **** {
 987              		.loc 1 321 0
 988              		.cfi_startproc
 989              		@ args = 0, pretend = 0, frame = 64
 990              		@ frame_needed = 1, uses_anonymous_args = 0
 991 0000 80B5     		push	{r7, lr}
 992              		.cfi_def_cfa_offset 8
 993              		.cfi_offset 7, -8
 994              		.cfi_offset 14, -4
 995 0002 90B0     		sub	sp, sp, #64
 996              		.cfi_def_cfa_offset 72
 997 0004 00AF     		add	r7, sp, #0
 998              		.cfi_def_cfa_register 7
 999 0006 F860     		str	r0, [r7, #12]
 1000 0008 B960     		str	r1, [r7, #8]
 1001 000a BB1D     		adds	r3, r7, #6
 1002 000c 1A80     		strh	r2, [r3]
 322:lib_Network/svt.c ****     uint32_t _crc;
 323:lib_Network/svt.c ****     char *_p;
 324:lib_Network/svt.c ****     char szSeq[20];
ARM GAS  C:\Users\Petro\AppData\Local\Temp\ccybtcEw.s 			page 25


 325:lib_Network/svt.c ****     char szCheckSum[20];
 326:lib_Network/svt.c ****     
 327:lib_Network/svt.c ****     _p = (char *)data;
 1003              		.loc 1 327 0
 1004 000e BB68     		ldr	r3, [r7, #8]
 1005 0010 FB63     		str	r3, [r7, #60]
 328:lib_Network/svt.c **** 
 329:lib_Network/svt.c **** 
 330:lib_Network/svt.c ****     sprintf(szSeq, "%04X", Sequence);
 1006              		.loc 1 330 0
 1007 0012 BB1D     		adds	r3, r7, #6
 1008 0014 1A88     		ldrh	r2, [r3]
 1009 0016 4149     		ldr	r1, .L65
 1010 0018 2423     		movs	r3, #36
 1011 001a FB18     		adds	r3, r7, r3
 1012 001c 1800     		movs	r0, r3
 1013 001e FFF7FEFF 		bl	sprintf
 331:lib_Network/svt.c ****     
 332:lib_Network/svt.c ****     _crc = crc32_reset();
 1014              		.loc 1 332 0
 1015 0022 0123     		movs	r3, #1
 1016 0024 5B42     		rsbs	r3, r3, #0
 1017 0026 BB63     		str	r3, [r7, #56]
 333:lib_Network/svt.c ****     _crc = crc32_calc_block((uint8_t *)"A", 1, _crc);
 1018              		.loc 1 333 0
 1019 0028 BA6B     		ldr	r2, [r7, #56]
 1020 002a 3D4B     		ldr	r3, .L65+4
 1021 002c 0121     		movs	r1, #1
 1022 002e 1800     		movs	r0, r3
 1023 0030 FFF7FEFF 		bl	crc32_calc_block
 1024 0034 0300     		movs	r3, r0
 1025 0036 BB63     		str	r3, [r7, #56]
 334:lib_Network/svt.c ****     _crc = crc32_calc_block((uint8_t *)_p, strlen(_p), _crc);
 1026              		.loc 1 334 0
 1027 0038 FB6B     		ldr	r3, [r7, #60]
 1028 003a 1800     		movs	r0, r3
 1029 003c FFF7FEFF 		bl	strlen
 1030 0040 0100     		movs	r1, r0
 1031 0042 BA6B     		ldr	r2, [r7, #56]
 1032 0044 FB6B     		ldr	r3, [r7, #60]
 1033 0046 1800     		movs	r0, r3
 1034 0048 FFF7FEFF 		bl	crc32_calc_block
 1035 004c 0300     		movs	r3, r0
 1036 004e BB63     		str	r3, [r7, #56]
 335:lib_Network/svt.c ****     _crc = crc32_calc_block((uint8_t *)"F", 1, _crc);
 1037              		.loc 1 335 0
 1038 0050 BA6B     		ldr	r2, [r7, #56]
 1039 0052 344B     		ldr	r3, .L65+8
 1040 0054 0121     		movs	r1, #1
 1041 0056 1800     		movs	r0, r3
 1042 0058 FFF7FEFF 		bl	crc32_calc_block
 1043 005c 0300     		movs	r3, r0
 1044 005e BB63     		str	r3, [r7, #56]
 336:lib_Network/svt.c ****     _crc = crc32_final(_crc);
 1045              		.loc 1 336 0
 1046 0060 BB6B     		ldr	r3, [r7, #56]
 1047 0062 DB43     		mvns	r3, r3
ARM GAS  C:\Users\Petro\AppData\Local\Temp\ccybtcEw.s 			page 26


 1048 0064 BB63     		str	r3, [r7, #56]
 337:lib_Network/svt.c ****     
 338:lib_Network/svt.c ****     sprintf(szCheckSum, "%08X", _crc);
 1049              		.loc 1 338 0
 1050 0066 BA6B     		ldr	r2, [r7, #56]
 1051 0068 2F49     		ldr	r1, .L65+12
 1052 006a 1023     		movs	r3, #16
 1053 006c FB18     		adds	r3, r7, r3
 1054 006e 1800     		movs	r0, r3
 1055 0070 FFF7FEFF 		bl	sprintf
 339:lib_Network/svt.c ****     
 340:lib_Network/svt.c ****     strcpy(buff, STX_S);
 1056              		.loc 1 340 0
 1057 0074 FA68     		ldr	r2, [r7, #12]
 1058 0076 2D4B     		ldr	r3, .L65+16
 1059 0078 1000     		movs	r0, r2
 1060 007a 1900     		movs	r1, r3
 1061 007c 0223     		movs	r3, #2
 1062 007e 1A00     		movs	r2, r3
 1063 0080 FFF7FEFF 		bl	memcpy
 341:lib_Network/svt.c ****     strcat(buff, szSeq);
 1064              		.loc 1 341 0
 1065 0084 2423     		movs	r3, #36
 1066 0086 FA18     		adds	r2, r7, r3
 1067 0088 FB68     		ldr	r3, [r7, #12]
 1068 008a 1100     		movs	r1, r2
 1069 008c 1800     		movs	r0, r3
 1070 008e FFF7FEFF 		bl	strcat
 342:lib_Network/svt.c ****     strcat(buff, FRM0);
 1071              		.loc 1 342 0
 1072 0092 FB68     		ldr	r3, [r7, #12]
 1073 0094 1800     		movs	r0, r3
 1074 0096 FFF7FEFF 		bl	strlen
 1075 009a 0300     		movs	r3, r0
 1076 009c 1A00     		movs	r2, r3
 1077 009e FB68     		ldr	r3, [r7, #12]
 1078 00a0 9A18     		adds	r2, r3, r2
 1079 00a2 234B     		ldr	r3, .L65+20
 1080 00a4 1000     		movs	r0, r2
 1081 00a6 1900     		movs	r1, r3
 1082 00a8 0223     		movs	r3, #2
 1083 00aa 1A00     		movs	r2, r3
 1084 00ac FFF7FEFF 		bl	memcpy
 343:lib_Network/svt.c ****     strcat(buff, _p);
 1085              		.loc 1 343 0
 1086 00b0 FA6B     		ldr	r2, [r7, #60]
 1087 00b2 FB68     		ldr	r3, [r7, #12]
 1088 00b4 1100     		movs	r1, r2
 1089 00b6 1800     		movs	r0, r3
 1090 00b8 FFF7FEFF 		bl	strcat
 344:lib_Network/svt.c ****     strcat(buff, FRM1);    
 1091              		.loc 1 344 0
 1092 00bc FB68     		ldr	r3, [r7, #12]
 1093 00be 1800     		movs	r0, r3
 1094 00c0 FFF7FEFF 		bl	strlen
 1095 00c4 0300     		movs	r3, r0
 1096 00c6 1A00     		movs	r2, r3
ARM GAS  C:\Users\Petro\AppData\Local\Temp\ccybtcEw.s 			page 27


 1097 00c8 FB68     		ldr	r3, [r7, #12]
 1098 00ca 9A18     		adds	r2, r3, r2
 1099 00cc 194B     		ldr	r3, .L65+24
 1100 00ce 1000     		movs	r0, r2
 1101 00d0 1900     		movs	r1, r3
 1102 00d2 0223     		movs	r3, #2
 1103 00d4 1A00     		movs	r2, r3
 1104 00d6 FFF7FEFF 		bl	memcpy
 345:lib_Network/svt.c ****     strcat(buff, szCheckSum);
 1105              		.loc 1 345 0
 1106 00da 1023     		movs	r3, #16
 1107 00dc FA18     		adds	r2, r7, r3
 1108 00de FB68     		ldr	r3, [r7, #12]
 1109 00e0 1100     		movs	r1, r2
 1110 00e2 1800     		movs	r0, r3
 1111 00e4 FFF7FEFF 		bl	strcat
 346:lib_Network/svt.c ****     strcat(buff, ETX_S);
 1112              		.loc 1 346 0
 1113 00e8 FB68     		ldr	r3, [r7, #12]
 1114 00ea 1800     		movs	r0, r3
 1115 00ec FFF7FEFF 		bl	strlen
 1116 00f0 0300     		movs	r3, r0
 1117 00f2 1A00     		movs	r2, r3
 1118 00f4 FB68     		ldr	r3, [r7, #12]
 1119 00f6 9A18     		adds	r2, r3, r2
 1120 00f8 0F4B     		ldr	r3, .L65+28
 1121 00fa 1000     		movs	r0, r2
 1122 00fc 1900     		movs	r1, r3
 1123 00fe 0223     		movs	r3, #2
 1124 0100 1A00     		movs	r2, r3
 1125 0102 FFF7FEFF 		bl	memcpy
 347:lib_Network/svt.c ****     
 348:lib_Network/svt.c ****     return strlen(buff);
 1126              		.loc 1 348 0
 1127 0106 FB68     		ldr	r3, [r7, #12]
 1128 0108 1800     		movs	r0, r3
 1129 010a FFF7FEFF 		bl	strlen
 1130 010e 0300     		movs	r3, r0
 1131 0110 DBB2     		uxtb	r3, r3
 349:lib_Network/svt.c **** }
 1132              		.loc 1 349 0
 1133 0112 1800     		movs	r0, r3
 1134 0114 BD46     		mov	sp, r7
 1135 0116 10B0     		add	sp, sp, #64
 1136              		@ sp needed
 1137 0118 80BD     		pop	{r7, pc}
 1138              	.L66:
 1139 011a C046     		.align	2
 1140              	.L65:
 1141 011c 4C000000 		.word	.LC14
 1142 0120 18000000 		.word	.LC10
 1143 0124 1C000000 		.word	.LC12
 1144 0128 54000000 		.word	.LC18
 1145 012c 5C000000 		.word	.LC20
 1146 0130 60000000 		.word	.LC22
 1147 0134 64000000 		.word	.LC24
 1148 0138 68000000 		.word	.LC26
ARM GAS  C:\Users\Petro\AppData\Local\Temp\ccybtcEw.s 			page 28


 1149              		.cfi_endproc
 1150              	.LFE7:
 1151              		.size	PackData, .-PackData
 1152              		.text
 1153              	.Letext0:
 1154              		.file 2 "c:\\program files (x86)\\cypress\\psoc creator\\4.1\\psoc creator\\import\\gnu\\arm\\5.4.
 1155              		.file 3 "c:\\program files (x86)\\cypress\\psoc creator\\4.1\\psoc creator\\import\\gnu\\arm\\5.4.
 1156              		.file 4 "lib_Network\\svt.h"