ARM GAS  C:\Users\Petro\AppData\Local\Temp\ccbTbeKH.s 			page 1


   1              		.syntax unified
   2              		.cpu cortex-m0
   3              		.fpu softvfp
   4              		.eabi_attribute 20, 1
   5              		.eabi_attribute 21, 1
   6              		.eabi_attribute 23, 3
   7              		.eabi_attribute 24, 1
   8              		.eabi_attribute 25, 1
   9              		.eabi_attribute 26, 1
  10              		.eabi_attribute 30, 6
  11              		.eabi_attribute 34, 0
  12              		.eabi_attribute 18, 4
  13              		.thumb
  14              		.syntax unified
  15              		.file	"TimerTestMode.c"
  16              		.text
  17              	.Ltext0:
  18              		.cfi_sections	.debug_frame
  19              		.global	TimerTestMode_initVar
  20              		.bss
  21              		.type	TimerTestMode_initVar, %object
  22              		.size	TimerTestMode_initVar, 1
  23              	TimerTestMode_initVar:
  24 0000 00       		.space	1
  25              		.section	.text.TimerTestMode_Init,"ax",%progbits
  26              		.align	2
  27              		.global	TimerTestMode_Init
  28              		.code	16
  29              		.thumb_func
  30              		.type	TimerTestMode_Init, %function
  31              	TimerTestMode_Init:
  32              	.LFB2:
  33              		.file 1 "Generated_Source\\PSoC4\\TimerTestMode.c"
   1:Generated_Source\PSoC4/TimerTestMode.c **** /*******************************************************************************
   2:Generated_Source\PSoC4/TimerTestMode.c **** * File Name: TimerTestMode.c
   3:Generated_Source\PSoC4/TimerTestMode.c **** * Version 2.10
   4:Generated_Source\PSoC4/TimerTestMode.c **** *
   5:Generated_Source\PSoC4/TimerTestMode.c **** * Description:
   6:Generated_Source\PSoC4/TimerTestMode.c **** *  This file provides the source code to the API for the TimerTestMode
   7:Generated_Source\PSoC4/TimerTestMode.c **** *  component
   8:Generated_Source\PSoC4/TimerTestMode.c **** *
   9:Generated_Source\PSoC4/TimerTestMode.c **** * Note:
  10:Generated_Source\PSoC4/TimerTestMode.c **** *  None
  11:Generated_Source\PSoC4/TimerTestMode.c **** *
  12:Generated_Source\PSoC4/TimerTestMode.c **** ********************************************************************************
  13:Generated_Source\PSoC4/TimerTestMode.c **** * Copyright 2013-2015, Cypress Semiconductor Corporation.  All rights reserved.
  14:Generated_Source\PSoC4/TimerTestMode.c **** * You may use this file only in accordance with the license, terms, conditions,
  15:Generated_Source\PSoC4/TimerTestMode.c **** * disclaimers, and limitations in the end user license agreement accompanying
  16:Generated_Source\PSoC4/TimerTestMode.c **** * the software package with which this file was provided.
  17:Generated_Source\PSoC4/TimerTestMode.c **** *******************************************************************************/
  18:Generated_Source\PSoC4/TimerTestMode.c **** 
  19:Generated_Source\PSoC4/TimerTestMode.c **** #include "TimerTestMode.h"
  20:Generated_Source\PSoC4/TimerTestMode.c **** 
  21:Generated_Source\PSoC4/TimerTestMode.c **** uint8 TimerTestMode_initVar = 0u;
  22:Generated_Source\PSoC4/TimerTestMode.c **** 
  23:Generated_Source\PSoC4/TimerTestMode.c **** 
  24:Generated_Source\PSoC4/TimerTestMode.c **** /*******************************************************************************
ARM GAS  C:\Users\Petro\AppData\Local\Temp\ccbTbeKH.s 			page 2


  25:Generated_Source\PSoC4/TimerTestMode.c **** * Function Name: TimerTestMode_Init
  26:Generated_Source\PSoC4/TimerTestMode.c **** ********************************************************************************
  27:Generated_Source\PSoC4/TimerTestMode.c **** *
  28:Generated_Source\PSoC4/TimerTestMode.c **** * Summary:
  29:Generated_Source\PSoC4/TimerTestMode.c **** *  Initialize/Restore default TimerTestMode configuration.
  30:Generated_Source\PSoC4/TimerTestMode.c **** *
  31:Generated_Source\PSoC4/TimerTestMode.c **** * Parameters:
  32:Generated_Source\PSoC4/TimerTestMode.c **** *  None
  33:Generated_Source\PSoC4/TimerTestMode.c **** *
  34:Generated_Source\PSoC4/TimerTestMode.c **** * Return:
  35:Generated_Source\PSoC4/TimerTestMode.c **** *  None
  36:Generated_Source\PSoC4/TimerTestMode.c **** *
  37:Generated_Source\PSoC4/TimerTestMode.c **** *******************************************************************************/
  38:Generated_Source\PSoC4/TimerTestMode.c **** void TimerTestMode_Init(void)
  39:Generated_Source\PSoC4/TimerTestMode.c **** {
  34              		.loc 1 39 0
  35              		.cfi_startproc
  36              		@ args = 0, pretend = 0, frame = 0
  37              		@ frame_needed = 1, uses_anonymous_args = 0
  38 0000 80B5     		push	{r7, lr}
  39              		.cfi_def_cfa_offset 8
  40              		.cfi_offset 7, -8
  41              		.cfi_offset 14, -4
  42 0002 00AF     		add	r7, sp, #0
  43              		.cfi_def_cfa_register 7
  40:Generated_Source\PSoC4/TimerTestMode.c **** 
  41:Generated_Source\PSoC4/TimerTestMode.c ****     /* Set values from customizer to CTRL */
  42:Generated_Source\PSoC4/TimerTestMode.c ****     #if (TimerTestMode__QUAD == TimerTestMode_CONFIG)
  43:Generated_Source\PSoC4/TimerTestMode.c ****         TimerTestMode_CONTROL_REG = TimerTestMode_CTRL_QUAD_BASE_CONFIG;
  44:Generated_Source\PSoC4/TimerTestMode.c ****         
  45:Generated_Source\PSoC4/TimerTestMode.c ****         /* Set values from customizer to CTRL1 */
  46:Generated_Source\PSoC4/TimerTestMode.c ****         TimerTestMode_TRIG_CONTROL1_REG  = TimerTestMode_QUAD_SIGNALS_MODES;
  47:Generated_Source\PSoC4/TimerTestMode.c **** 
  48:Generated_Source\PSoC4/TimerTestMode.c ****         /* Set values from customizer to INTR */
  49:Generated_Source\PSoC4/TimerTestMode.c ****         TimerTestMode_SetInterruptMode(TimerTestMode_QUAD_INTERRUPT_MASK);
  50:Generated_Source\PSoC4/TimerTestMode.c ****         
  51:Generated_Source\PSoC4/TimerTestMode.c ****          /* Set other values */
  52:Generated_Source\PSoC4/TimerTestMode.c ****         TimerTestMode_SetCounterMode(TimerTestMode_COUNT_DOWN);
  53:Generated_Source\PSoC4/TimerTestMode.c ****         TimerTestMode_WritePeriod(TimerTestMode_QUAD_PERIOD_INIT_VALUE);
  54:Generated_Source\PSoC4/TimerTestMode.c ****         TimerTestMode_WriteCounter(TimerTestMode_QUAD_PERIOD_INIT_VALUE);
  55:Generated_Source\PSoC4/TimerTestMode.c ****     #endif  /* (TimerTestMode__QUAD == TimerTestMode_CONFIG) */
  56:Generated_Source\PSoC4/TimerTestMode.c **** 
  57:Generated_Source\PSoC4/TimerTestMode.c ****     #if (TimerTestMode__TIMER == TimerTestMode_CONFIG)
  58:Generated_Source\PSoC4/TimerTestMode.c ****         TimerTestMode_CONTROL_REG = TimerTestMode_CTRL_TIMER_BASE_CONFIG;
  44              		.loc 1 58 0
  45 0004 0B4B     		ldr	r3, .L2
  46 0006 C022     		movs	r2, #192
  47 0008 D200     		lsls	r2, r2, #3
  48 000a 1A60     		str	r2, [r3]
  59:Generated_Source\PSoC4/TimerTestMode.c ****         
  60:Generated_Source\PSoC4/TimerTestMode.c ****         /* Set values from customizer to CTRL1 */
  61:Generated_Source\PSoC4/TimerTestMode.c ****         TimerTestMode_TRIG_CONTROL1_REG  = TimerTestMode_TIMER_SIGNALS_MODES;
  49              		.loc 1 61 0
  50 000c 0A4B     		ldr	r3, .L2+4
  51 000e 0C22     		movs	r2, #12
  52 0010 1A60     		str	r2, [r3]
  62:Generated_Source\PSoC4/TimerTestMode.c ****     
ARM GAS  C:\Users\Petro\AppData\Local\Temp\ccbTbeKH.s 			page 3


  63:Generated_Source\PSoC4/TimerTestMode.c ****         /* Set values from customizer to INTR */
  64:Generated_Source\PSoC4/TimerTestMode.c ****         TimerTestMode_SetInterruptMode(TimerTestMode_TC_INTERRUPT_MASK);
  53              		.loc 1 64 0
  54 0012 0220     		movs	r0, #2
  55 0014 FFF7FEFF 		bl	TimerTestMode_SetInterruptMode
  65:Generated_Source\PSoC4/TimerTestMode.c ****         
  66:Generated_Source\PSoC4/TimerTestMode.c ****         /* Set other values from customizer */
  67:Generated_Source\PSoC4/TimerTestMode.c ****         TimerTestMode_WritePeriod(TimerTestMode_TC_PERIOD_VALUE );
  56              		.loc 1 67 0
  57 0018 084B     		ldr	r3, .L2+8
  58 001a 1800     		movs	r0, r3
  59 001c FFF7FEFF 		bl	TimerTestMode_WritePeriod
  68:Generated_Source\PSoC4/TimerTestMode.c **** 
  69:Generated_Source\PSoC4/TimerTestMode.c ****         #if (TimerTestMode__COMPARE == TimerTestMode_TC_COMP_CAP_MODE)
  70:Generated_Source\PSoC4/TimerTestMode.c ****             TimerTestMode_WriteCompare(TimerTestMode_TC_COMPARE_VALUE);
  60              		.loc 1 70 0
  61 0020 074B     		ldr	r3, .L2+12
  62 0022 1800     		movs	r0, r3
  63 0024 FFF7FEFF 		bl	TimerTestMode_WriteCompare
  71:Generated_Source\PSoC4/TimerTestMode.c **** 
  72:Generated_Source\PSoC4/TimerTestMode.c ****             #if (1u == TimerTestMode_TC_COMPARE_SWAP)
  73:Generated_Source\PSoC4/TimerTestMode.c ****                 TimerTestMode_SetCompareSwap(1u);
  74:Generated_Source\PSoC4/TimerTestMode.c ****                 TimerTestMode_WriteCompareBuf(TimerTestMode_TC_COMPARE_BUF_VALUE);
  75:Generated_Source\PSoC4/TimerTestMode.c ****             #endif  /* (1u == TimerTestMode_TC_COMPARE_SWAP) */
  76:Generated_Source\PSoC4/TimerTestMode.c ****         #endif  /* (TimerTestMode__COMPARE == TimerTestMode_TC_COMP_CAP_MODE) */
  77:Generated_Source\PSoC4/TimerTestMode.c **** 
  78:Generated_Source\PSoC4/TimerTestMode.c ****         /* Initialize counter value */
  79:Generated_Source\PSoC4/TimerTestMode.c ****         #if (TimerTestMode_CY_TCPWM_V2 && TimerTestMode_TIMER_UPDOWN_CNT_USED && !TimerTestMode_CY_
  80:Generated_Source\PSoC4/TimerTestMode.c ****             TimerTestMode_WriteCounter(1u);
  81:Generated_Source\PSoC4/TimerTestMode.c ****         #elif(TimerTestMode__COUNT_DOWN == TimerTestMode_TC_COUNTER_MODE)
  82:Generated_Source\PSoC4/TimerTestMode.c ****             TimerTestMode_WriteCounter(TimerTestMode_TC_PERIOD_VALUE);
  83:Generated_Source\PSoC4/TimerTestMode.c ****         #else
  84:Generated_Source\PSoC4/TimerTestMode.c ****             TimerTestMode_WriteCounter(0u);
  64              		.loc 1 84 0
  65 0028 0020     		movs	r0, #0
  66 002a FFF7FEFF 		bl	TimerTestMode_WriteCounter
  85:Generated_Source\PSoC4/TimerTestMode.c ****         #endif /* (TimerTestMode_CY_TCPWM_V2 && TimerTestMode_TIMER_UPDOWN_CNT_USED && !TimerTestMo
  86:Generated_Source\PSoC4/TimerTestMode.c ****     #endif  /* (TimerTestMode__TIMER == TimerTestMode_CONFIG) */
  87:Generated_Source\PSoC4/TimerTestMode.c **** 
  88:Generated_Source\PSoC4/TimerTestMode.c ****     #if (TimerTestMode__PWM_SEL == TimerTestMode_CONFIG)
  89:Generated_Source\PSoC4/TimerTestMode.c ****         TimerTestMode_CONTROL_REG = TimerTestMode_CTRL_PWM_BASE_CONFIG;
  90:Generated_Source\PSoC4/TimerTestMode.c **** 
  91:Generated_Source\PSoC4/TimerTestMode.c ****         #if (TimerTestMode__PWM_PR == TimerTestMode_PWM_MODE)
  92:Generated_Source\PSoC4/TimerTestMode.c ****             TimerTestMode_CONTROL_REG |= TimerTestMode_CTRL_PWM_RUN_MODE;
  93:Generated_Source\PSoC4/TimerTestMode.c ****             TimerTestMode_WriteCounter(TimerTestMode_PWM_PR_INIT_VALUE);
  94:Generated_Source\PSoC4/TimerTestMode.c ****         #else
  95:Generated_Source\PSoC4/TimerTestMode.c ****             TimerTestMode_CONTROL_REG |= TimerTestMode_CTRL_PWM_ALIGN | TimerTestMode_CTRL_PWM_KILL
  96:Generated_Source\PSoC4/TimerTestMode.c ****             
  97:Generated_Source\PSoC4/TimerTestMode.c ****             /* Initialize counter value */
  98:Generated_Source\PSoC4/TimerTestMode.c ****             #if (TimerTestMode_CY_TCPWM_V2 && TimerTestMode_PWM_UPDOWN_CNT_USED && !TimerTestMode_C
  99:Generated_Source\PSoC4/TimerTestMode.c ****                 TimerTestMode_WriteCounter(1u);
 100:Generated_Source\PSoC4/TimerTestMode.c ****             #elif (TimerTestMode__RIGHT == TimerTestMode_PWM_ALIGN)
 101:Generated_Source\PSoC4/TimerTestMode.c ****                 TimerTestMode_WriteCounter(TimerTestMode_PWM_PERIOD_VALUE);
 102:Generated_Source\PSoC4/TimerTestMode.c ****             #else 
 103:Generated_Source\PSoC4/TimerTestMode.c ****                 TimerTestMode_WriteCounter(0u);
 104:Generated_Source\PSoC4/TimerTestMode.c ****             #endif  /* (TimerTestMode_CY_TCPWM_V2 && TimerTestMode_PWM_UPDOWN_CNT_USED && !TimerTes
 105:Generated_Source\PSoC4/TimerTestMode.c ****         #endif  /* (TimerTestMode__PWM_PR == TimerTestMode_PWM_MODE) */
ARM GAS  C:\Users\Petro\AppData\Local\Temp\ccbTbeKH.s 			page 4


 106:Generated_Source\PSoC4/TimerTestMode.c **** 
 107:Generated_Source\PSoC4/TimerTestMode.c ****         #if (TimerTestMode__PWM_DT == TimerTestMode_PWM_MODE)
 108:Generated_Source\PSoC4/TimerTestMode.c ****             TimerTestMode_CONTROL_REG |= TimerTestMode_CTRL_PWM_DEAD_TIME_CYCLE;
 109:Generated_Source\PSoC4/TimerTestMode.c ****         #endif  /* (TimerTestMode__PWM_DT == TimerTestMode_PWM_MODE) */
 110:Generated_Source\PSoC4/TimerTestMode.c **** 
 111:Generated_Source\PSoC4/TimerTestMode.c ****         #if (TimerTestMode__PWM == TimerTestMode_PWM_MODE)
 112:Generated_Source\PSoC4/TimerTestMode.c ****             TimerTestMode_CONTROL_REG |= TimerTestMode_CTRL_PWM_PRESCALER;
 113:Generated_Source\PSoC4/TimerTestMode.c ****         #endif  /* (TimerTestMode__PWM == TimerTestMode_PWM_MODE) */
 114:Generated_Source\PSoC4/TimerTestMode.c **** 
 115:Generated_Source\PSoC4/TimerTestMode.c ****         /* Set values from customizer to CTRL1 */
 116:Generated_Source\PSoC4/TimerTestMode.c ****         TimerTestMode_TRIG_CONTROL1_REG  = TimerTestMode_PWM_SIGNALS_MODES;
 117:Generated_Source\PSoC4/TimerTestMode.c ****     
 118:Generated_Source\PSoC4/TimerTestMode.c ****         /* Set values from customizer to INTR */
 119:Generated_Source\PSoC4/TimerTestMode.c ****         TimerTestMode_SetInterruptMode(TimerTestMode_PWM_INTERRUPT_MASK);
 120:Generated_Source\PSoC4/TimerTestMode.c **** 
 121:Generated_Source\PSoC4/TimerTestMode.c ****         /* Set values from customizer to CTRL2 */
 122:Generated_Source\PSoC4/TimerTestMode.c ****         #if (TimerTestMode__PWM_PR == TimerTestMode_PWM_MODE)
 123:Generated_Source\PSoC4/TimerTestMode.c ****             TimerTestMode_TRIG_CONTROL2_REG =
 124:Generated_Source\PSoC4/TimerTestMode.c ****                     (TimerTestMode_CC_MATCH_NO_CHANGE    |
 125:Generated_Source\PSoC4/TimerTestMode.c ****                     TimerTestMode_OVERLOW_NO_CHANGE      |
 126:Generated_Source\PSoC4/TimerTestMode.c ****                     TimerTestMode_UNDERFLOW_NO_CHANGE);
 127:Generated_Source\PSoC4/TimerTestMode.c ****         #else
 128:Generated_Source\PSoC4/TimerTestMode.c ****             #if (TimerTestMode__LEFT == TimerTestMode_PWM_ALIGN)
 129:Generated_Source\PSoC4/TimerTestMode.c ****                 TimerTestMode_TRIG_CONTROL2_REG = TimerTestMode_PWM_MODE_LEFT;
 130:Generated_Source\PSoC4/TimerTestMode.c ****             #endif  /* ( TimerTestMode_PWM_LEFT == TimerTestMode_PWM_ALIGN) */
 131:Generated_Source\PSoC4/TimerTestMode.c **** 
 132:Generated_Source\PSoC4/TimerTestMode.c ****             #if (TimerTestMode__RIGHT == TimerTestMode_PWM_ALIGN)
 133:Generated_Source\PSoC4/TimerTestMode.c ****                 TimerTestMode_TRIG_CONTROL2_REG = TimerTestMode_PWM_MODE_RIGHT;
 134:Generated_Source\PSoC4/TimerTestMode.c ****             #endif  /* ( TimerTestMode_PWM_RIGHT == TimerTestMode_PWM_ALIGN) */
 135:Generated_Source\PSoC4/TimerTestMode.c **** 
 136:Generated_Source\PSoC4/TimerTestMode.c ****             #if (TimerTestMode__CENTER == TimerTestMode_PWM_ALIGN)
 137:Generated_Source\PSoC4/TimerTestMode.c ****                 TimerTestMode_TRIG_CONTROL2_REG = TimerTestMode_PWM_MODE_CENTER;
 138:Generated_Source\PSoC4/TimerTestMode.c ****             #endif  /* ( TimerTestMode_PWM_CENTER == TimerTestMode_PWM_ALIGN) */
 139:Generated_Source\PSoC4/TimerTestMode.c **** 
 140:Generated_Source\PSoC4/TimerTestMode.c ****             #if (TimerTestMode__ASYMMETRIC == TimerTestMode_PWM_ALIGN)
 141:Generated_Source\PSoC4/TimerTestMode.c ****                 TimerTestMode_TRIG_CONTROL2_REG = TimerTestMode_PWM_MODE_ASYM;
 142:Generated_Source\PSoC4/TimerTestMode.c ****             #endif  /* (TimerTestMode__ASYMMETRIC == TimerTestMode_PWM_ALIGN) */
 143:Generated_Source\PSoC4/TimerTestMode.c ****         #endif  /* (TimerTestMode__PWM_PR == TimerTestMode_PWM_MODE) */
 144:Generated_Source\PSoC4/TimerTestMode.c **** 
 145:Generated_Source\PSoC4/TimerTestMode.c ****         /* Set other values from customizer */
 146:Generated_Source\PSoC4/TimerTestMode.c ****         TimerTestMode_WritePeriod(TimerTestMode_PWM_PERIOD_VALUE );
 147:Generated_Source\PSoC4/TimerTestMode.c ****         TimerTestMode_WriteCompare(TimerTestMode_PWM_COMPARE_VALUE);
 148:Generated_Source\PSoC4/TimerTestMode.c **** 
 149:Generated_Source\PSoC4/TimerTestMode.c ****         #if (1u == TimerTestMode_PWM_COMPARE_SWAP)
 150:Generated_Source\PSoC4/TimerTestMode.c ****             TimerTestMode_SetCompareSwap(1u);
 151:Generated_Source\PSoC4/TimerTestMode.c ****             TimerTestMode_WriteCompareBuf(TimerTestMode_PWM_COMPARE_BUF_VALUE);
 152:Generated_Source\PSoC4/TimerTestMode.c ****         #endif  /* (1u == TimerTestMode_PWM_COMPARE_SWAP) */
 153:Generated_Source\PSoC4/TimerTestMode.c **** 
 154:Generated_Source\PSoC4/TimerTestMode.c ****         #if (1u == TimerTestMode_PWM_PERIOD_SWAP)
 155:Generated_Source\PSoC4/TimerTestMode.c ****             TimerTestMode_SetPeriodSwap(1u);
 156:Generated_Source\PSoC4/TimerTestMode.c ****             TimerTestMode_WritePeriodBuf(TimerTestMode_PWM_PERIOD_BUF_VALUE);
 157:Generated_Source\PSoC4/TimerTestMode.c ****         #endif  /* (1u == TimerTestMode_PWM_PERIOD_SWAP) */
 158:Generated_Source\PSoC4/TimerTestMode.c ****     #endif  /* (TimerTestMode__PWM_SEL == TimerTestMode_CONFIG) */
 159:Generated_Source\PSoC4/TimerTestMode.c ****     
 160:Generated_Source\PSoC4/TimerTestMode.c **** }
  67              		.loc 1 160 0
  68 002e C046     		nop
ARM GAS  C:\Users\Petro\AppData\Local\Temp\ccbTbeKH.s 			page 5


  69 0030 BD46     		mov	sp, r7
  70              		@ sp needed
  71 0032 80BD     		pop	{r7, pc}
  72              	.L3:
  73              		.align	2
  74              	.L2:
  75 0034 40012040 		.word	1075839296
  76 0038 64012040 		.word	1075839332
  77 003c FFFF0000 		.word	65535
  78 0040 C4090000 		.word	2500
  79              		.cfi_endproc
  80              	.LFE2:
  81              		.size	TimerTestMode_Init, .-TimerTestMode_Init
  82              		.section	.text.TimerTestMode_Enable,"ax",%progbits
  83              		.align	2
  84              		.global	TimerTestMode_Enable
  85              		.code	16
  86              		.thumb_func
  87              		.type	TimerTestMode_Enable, %function
  88              	TimerTestMode_Enable:
  89              	.LFB3:
 161:Generated_Source\PSoC4/TimerTestMode.c **** 
 162:Generated_Source\PSoC4/TimerTestMode.c **** 
 163:Generated_Source\PSoC4/TimerTestMode.c **** /*******************************************************************************
 164:Generated_Source\PSoC4/TimerTestMode.c **** * Function Name: TimerTestMode_Enable
 165:Generated_Source\PSoC4/TimerTestMode.c **** ********************************************************************************
 166:Generated_Source\PSoC4/TimerTestMode.c **** *
 167:Generated_Source\PSoC4/TimerTestMode.c **** * Summary:
 168:Generated_Source\PSoC4/TimerTestMode.c **** *  Enables the TimerTestMode.
 169:Generated_Source\PSoC4/TimerTestMode.c **** *
 170:Generated_Source\PSoC4/TimerTestMode.c **** * Parameters:
 171:Generated_Source\PSoC4/TimerTestMode.c **** *  None
 172:Generated_Source\PSoC4/TimerTestMode.c **** *
 173:Generated_Source\PSoC4/TimerTestMode.c **** * Return:
 174:Generated_Source\PSoC4/TimerTestMode.c **** *  None
 175:Generated_Source\PSoC4/TimerTestMode.c **** *
 176:Generated_Source\PSoC4/TimerTestMode.c **** *******************************************************************************/
 177:Generated_Source\PSoC4/TimerTestMode.c **** void TimerTestMode_Enable(void)
 178:Generated_Source\PSoC4/TimerTestMode.c **** {
  90              		.loc 1 178 0
  91              		.cfi_startproc
  92              		@ args = 0, pretend = 0, frame = 8
  93              		@ frame_needed = 1, uses_anonymous_args = 0
  94 0000 90B5     		push	{r4, r7, lr}
  95              		.cfi_def_cfa_offset 12
  96              		.cfi_offset 4, -12
  97              		.cfi_offset 7, -8
  98              		.cfi_offset 14, -4
  99 0002 83B0     		sub	sp, sp, #12
 100              		.cfi_def_cfa_offset 24
 101 0004 00AF     		add	r7, sp, #0
 102              		.cfi_def_cfa_register 7
 179:Generated_Source\PSoC4/TimerTestMode.c ****     uint8 enableInterrupts;
 180:Generated_Source\PSoC4/TimerTestMode.c **** 
 181:Generated_Source\PSoC4/TimerTestMode.c ****     enableInterrupts = CyEnterCriticalSection();
 103              		.loc 1 181 0
 104 0006 FC1D     		adds	r4, r7, #7
ARM GAS  C:\Users\Petro\AppData\Local\Temp\ccbTbeKH.s 			page 6


 105 0008 FFF7FEFF 		bl	CyEnterCriticalSection
 106 000c 0300     		movs	r3, r0
 107 000e 2370     		strb	r3, [r4]
 182:Generated_Source\PSoC4/TimerTestMode.c ****     TimerTestMode_BLOCK_CONTROL_REG |= TimerTestMode_MASK;
 108              		.loc 1 182 0
 109 0010 094B     		ldr	r3, .L5
 110 0012 094A     		ldr	r2, .L5
 111 0014 1268     		ldr	r2, [r2]
 112 0016 0221     		movs	r1, #2
 113 0018 0A43     		orrs	r2, r1
 114 001a 1A60     		str	r2, [r3]
 183:Generated_Source\PSoC4/TimerTestMode.c ****     CyExitCriticalSection(enableInterrupts);
 115              		.loc 1 183 0
 116 001c FB1D     		adds	r3, r7, #7
 117 001e 1B78     		ldrb	r3, [r3]
 118 0020 1800     		movs	r0, r3
 119 0022 FFF7FEFF 		bl	CyExitCriticalSection
 184:Generated_Source\PSoC4/TimerTestMode.c **** 
 185:Generated_Source\PSoC4/TimerTestMode.c ****     /* Start Timer or PWM if start input is absent */
 186:Generated_Source\PSoC4/TimerTestMode.c ****     #if (TimerTestMode__PWM_SEL == TimerTestMode_CONFIG)
 187:Generated_Source\PSoC4/TimerTestMode.c ****         #if (0u == TimerTestMode_PWM_START_SIGNAL_PRESENT)
 188:Generated_Source\PSoC4/TimerTestMode.c ****             TimerTestMode_TriggerCommand(TimerTestMode_MASK, TimerTestMode_CMD_START);
 189:Generated_Source\PSoC4/TimerTestMode.c ****         #endif /* (0u == TimerTestMode_PWM_START_SIGNAL_PRESENT) */
 190:Generated_Source\PSoC4/TimerTestMode.c ****     #endif /* (TimerTestMode__PWM_SEL == TimerTestMode_CONFIG) */
 191:Generated_Source\PSoC4/TimerTestMode.c **** 
 192:Generated_Source\PSoC4/TimerTestMode.c ****     #if (TimerTestMode__TIMER == TimerTestMode_CONFIG)
 193:Generated_Source\PSoC4/TimerTestMode.c ****         #if (0u == TimerTestMode_TC_START_SIGNAL_PRESENT)
 194:Generated_Source\PSoC4/TimerTestMode.c ****             TimerTestMode_TriggerCommand(TimerTestMode_MASK, TimerTestMode_CMD_START);
 120              		.loc 1 194 0
 121 0026 1821     		movs	r1, #24
 122 0028 0220     		movs	r0, #2
 123 002a FFF7FEFF 		bl	TimerTestMode_TriggerCommand
 195:Generated_Source\PSoC4/TimerTestMode.c ****         #endif /* (0u == TimerTestMode_TC_START_SIGNAL_PRESENT) */
 196:Generated_Source\PSoC4/TimerTestMode.c ****     #endif /* (TimerTestMode__TIMER == TimerTestMode_CONFIG) */
 197:Generated_Source\PSoC4/TimerTestMode.c ****     
 198:Generated_Source\PSoC4/TimerTestMode.c ****     #if (TimerTestMode__QUAD == TimerTestMode_CONFIG)
 199:Generated_Source\PSoC4/TimerTestMode.c ****         #if (0u != TimerTestMode_QUAD_AUTO_START)
 200:Generated_Source\PSoC4/TimerTestMode.c ****             TimerTestMode_TriggerCommand(TimerTestMode_MASK, TimerTestMode_CMD_RELOAD);
 201:Generated_Source\PSoC4/TimerTestMode.c ****         #endif /* (0u != TimerTestMode_QUAD_AUTO_START) */
 202:Generated_Source\PSoC4/TimerTestMode.c ****     #endif  /* (TimerTestMode__QUAD == TimerTestMode_CONFIG) */
 203:Generated_Source\PSoC4/TimerTestMode.c **** }
 124              		.loc 1 203 0
 125 002e C046     		nop
 126 0030 BD46     		mov	sp, r7
 127 0032 03B0     		add	sp, sp, #12
 128              		@ sp needed
 129 0034 90BD     		pop	{r4, r7, pc}
 130              	.L6:
 131 0036 C046     		.align	2
 132              	.L5:
 133 0038 00002040 		.word	1075838976
 134              		.cfi_endproc
 135              	.LFE3:
 136              		.size	TimerTestMode_Enable, .-TimerTestMode_Enable
 137              		.section	.text.TimerTestMode_Start,"ax",%progbits
 138              		.align	2
 139              		.global	TimerTestMode_Start
ARM GAS  C:\Users\Petro\AppData\Local\Temp\ccbTbeKH.s 			page 7


 140              		.code	16
 141              		.thumb_func
 142              		.type	TimerTestMode_Start, %function
 143              	TimerTestMode_Start:
 144              	.LFB4:
 204:Generated_Source\PSoC4/TimerTestMode.c **** 
 205:Generated_Source\PSoC4/TimerTestMode.c **** 
 206:Generated_Source\PSoC4/TimerTestMode.c **** /*******************************************************************************
 207:Generated_Source\PSoC4/TimerTestMode.c **** * Function Name: TimerTestMode_Start
 208:Generated_Source\PSoC4/TimerTestMode.c **** ********************************************************************************
 209:Generated_Source\PSoC4/TimerTestMode.c **** *
 210:Generated_Source\PSoC4/TimerTestMode.c **** * Summary:
 211:Generated_Source\PSoC4/TimerTestMode.c **** *  Initializes the TimerTestMode with default customizer
 212:Generated_Source\PSoC4/TimerTestMode.c **** *  values when called the first time and enables the TimerTestMode.
 213:Generated_Source\PSoC4/TimerTestMode.c **** *  For subsequent calls the configuration is left unchanged and the component is
 214:Generated_Source\PSoC4/TimerTestMode.c **** *  just enabled.
 215:Generated_Source\PSoC4/TimerTestMode.c **** *
 216:Generated_Source\PSoC4/TimerTestMode.c **** * Parameters:
 217:Generated_Source\PSoC4/TimerTestMode.c **** *  None
 218:Generated_Source\PSoC4/TimerTestMode.c **** *
 219:Generated_Source\PSoC4/TimerTestMode.c **** * Return:
 220:Generated_Source\PSoC4/TimerTestMode.c **** *  None
 221:Generated_Source\PSoC4/TimerTestMode.c **** *
 222:Generated_Source\PSoC4/TimerTestMode.c **** * Global variables:
 223:Generated_Source\PSoC4/TimerTestMode.c **** *  TimerTestMode_initVar: global variable is used to indicate initial
 224:Generated_Source\PSoC4/TimerTestMode.c **** *  configuration of this component.  The variable is initialized to zero and set
 225:Generated_Source\PSoC4/TimerTestMode.c **** *  to 1 the first time TimerTestMode_Start() is called. This allows
 226:Generated_Source\PSoC4/TimerTestMode.c **** *  enabling/disabling a component without re-initialization in all subsequent
 227:Generated_Source\PSoC4/TimerTestMode.c **** *  calls to the TimerTestMode_Start() routine.
 228:Generated_Source\PSoC4/TimerTestMode.c **** *
 229:Generated_Source\PSoC4/TimerTestMode.c **** *******************************************************************************/
 230:Generated_Source\PSoC4/TimerTestMode.c **** void TimerTestMode_Start(void)
 231:Generated_Source\PSoC4/TimerTestMode.c **** {
 145              		.loc 1 231 0
 146              		.cfi_startproc
 147              		@ args = 0, pretend = 0, frame = 0
 148              		@ frame_needed = 1, uses_anonymous_args = 0
 149 0000 80B5     		push	{r7, lr}
 150              		.cfi_def_cfa_offset 8
 151              		.cfi_offset 7, -8
 152              		.cfi_offset 14, -4
 153 0002 00AF     		add	r7, sp, #0
 154              		.cfi_def_cfa_register 7
 232:Generated_Source\PSoC4/TimerTestMode.c ****     if (0u == TimerTestMode_initVar)
 155              		.loc 1 232 0
 156 0004 064B     		ldr	r3, .L9
 157 0006 1B78     		ldrb	r3, [r3]
 158 0008 002B     		cmp	r3, #0
 159 000a 04D1     		bne	.L8
 233:Generated_Source\PSoC4/TimerTestMode.c ****     {
 234:Generated_Source\PSoC4/TimerTestMode.c ****         TimerTestMode_Init();
 160              		.loc 1 234 0
 161 000c FFF7FEFF 		bl	TimerTestMode_Init
 235:Generated_Source\PSoC4/TimerTestMode.c ****         TimerTestMode_initVar = 1u;
 162              		.loc 1 235 0
 163 0010 034B     		ldr	r3, .L9
 164 0012 0122     		movs	r2, #1
ARM GAS  C:\Users\Petro\AppData\Local\Temp\ccbTbeKH.s 			page 8


 165 0014 1A70     		strb	r2, [r3]
 166              	.L8:
 236:Generated_Source\PSoC4/TimerTestMode.c ****     }
 237:Generated_Source\PSoC4/TimerTestMode.c **** 
 238:Generated_Source\PSoC4/TimerTestMode.c ****     TimerTestMode_Enable();
 167              		.loc 1 238 0
 168 0016 FFF7FEFF 		bl	TimerTestMode_Enable
 239:Generated_Source\PSoC4/TimerTestMode.c **** }
 169              		.loc 1 239 0
 170 001a C046     		nop
 171 001c BD46     		mov	sp, r7
 172              		@ sp needed
 173 001e 80BD     		pop	{r7, pc}
 174              	.L10:
 175              		.align	2
 176              	.L9:
 177 0020 00000000 		.word	TimerTestMode_initVar
 178              		.cfi_endproc
 179              	.LFE4:
 180              		.size	TimerTestMode_Start, .-TimerTestMode_Start
 181              		.section	.text.TimerTestMode_Stop,"ax",%progbits
 182              		.align	2
 183              		.global	TimerTestMode_Stop
 184              		.code	16
 185              		.thumb_func
 186              		.type	TimerTestMode_Stop, %function
 187              	TimerTestMode_Stop:
 188              	.LFB5:
 240:Generated_Source\PSoC4/TimerTestMode.c **** 
 241:Generated_Source\PSoC4/TimerTestMode.c **** 
 242:Generated_Source\PSoC4/TimerTestMode.c **** /*******************************************************************************
 243:Generated_Source\PSoC4/TimerTestMode.c **** * Function Name: TimerTestMode_Stop
 244:Generated_Source\PSoC4/TimerTestMode.c **** ********************************************************************************
 245:Generated_Source\PSoC4/TimerTestMode.c **** *
 246:Generated_Source\PSoC4/TimerTestMode.c **** * Summary:
 247:Generated_Source\PSoC4/TimerTestMode.c **** *  Disables the TimerTestMode.
 248:Generated_Source\PSoC4/TimerTestMode.c **** *
 249:Generated_Source\PSoC4/TimerTestMode.c **** * Parameters:
 250:Generated_Source\PSoC4/TimerTestMode.c **** *  None
 251:Generated_Source\PSoC4/TimerTestMode.c **** *
 252:Generated_Source\PSoC4/TimerTestMode.c **** * Return:
 253:Generated_Source\PSoC4/TimerTestMode.c **** *  None
 254:Generated_Source\PSoC4/TimerTestMode.c **** *
 255:Generated_Source\PSoC4/TimerTestMode.c **** *******************************************************************************/
 256:Generated_Source\PSoC4/TimerTestMode.c **** void TimerTestMode_Stop(void)
 257:Generated_Source\PSoC4/TimerTestMode.c **** {
 189              		.loc 1 257 0
 190              		.cfi_startproc
 191              		@ args = 0, pretend = 0, frame = 8
 192              		@ frame_needed = 1, uses_anonymous_args = 0
 193 0000 90B5     		push	{r4, r7, lr}
 194              		.cfi_def_cfa_offset 12
 195              		.cfi_offset 4, -12
 196              		.cfi_offset 7, -8
 197              		.cfi_offset 14, -4
 198 0002 83B0     		sub	sp, sp, #12
 199              		.cfi_def_cfa_offset 24
ARM GAS  C:\Users\Petro\AppData\Local\Temp\ccbTbeKH.s 			page 9


 200 0004 00AF     		add	r7, sp, #0
 201              		.cfi_def_cfa_register 7
 258:Generated_Source\PSoC4/TimerTestMode.c ****     uint8 enableInterrupts;
 259:Generated_Source\PSoC4/TimerTestMode.c **** 
 260:Generated_Source\PSoC4/TimerTestMode.c ****     enableInterrupts = CyEnterCriticalSection();
 202              		.loc 1 260 0
 203 0006 FC1D     		adds	r4, r7, #7
 204 0008 FFF7FEFF 		bl	CyEnterCriticalSection
 205 000c 0300     		movs	r3, r0
 206 000e 2370     		strb	r3, [r4]
 261:Generated_Source\PSoC4/TimerTestMode.c **** 
 262:Generated_Source\PSoC4/TimerTestMode.c ****     TimerTestMode_BLOCK_CONTROL_REG &= (uint32)~TimerTestMode_MASK;
 207              		.loc 1 262 0
 208 0010 074B     		ldr	r3, .L12
 209 0012 074A     		ldr	r2, .L12
 210 0014 1268     		ldr	r2, [r2]
 211 0016 0221     		movs	r1, #2
 212 0018 8A43     		bics	r2, r1
 213 001a 1A60     		str	r2, [r3]
 263:Generated_Source\PSoC4/TimerTestMode.c **** 
 264:Generated_Source\PSoC4/TimerTestMode.c ****     CyExitCriticalSection(enableInterrupts);
 214              		.loc 1 264 0
 215 001c FB1D     		adds	r3, r7, #7
 216 001e 1B78     		ldrb	r3, [r3]
 217 0020 1800     		movs	r0, r3
 218 0022 FFF7FEFF 		bl	CyExitCriticalSection
 265:Generated_Source\PSoC4/TimerTestMode.c **** }
 219              		.loc 1 265 0
 220 0026 C046     		nop
 221 0028 BD46     		mov	sp, r7
 222 002a 03B0     		add	sp, sp, #12
 223              		@ sp needed
 224 002c 90BD     		pop	{r4, r7, pc}
 225              	.L13:
 226 002e C046     		.align	2
 227              	.L12:
 228 0030 00002040 		.word	1075838976
 229              		.cfi_endproc
 230              	.LFE5:
 231              		.size	TimerTestMode_Stop, .-TimerTestMode_Stop
 232              		.section	.text.TimerTestMode_SetMode,"ax",%progbits
 233              		.align	2
 234              		.global	TimerTestMode_SetMode
 235              		.code	16
 236              		.thumb_func
 237              		.type	TimerTestMode_SetMode, %function
 238              	TimerTestMode_SetMode:
 239              	.LFB6:
 266:Generated_Source\PSoC4/TimerTestMode.c **** 
 267:Generated_Source\PSoC4/TimerTestMode.c **** 
 268:Generated_Source\PSoC4/TimerTestMode.c **** /*******************************************************************************
 269:Generated_Source\PSoC4/TimerTestMode.c **** * Function Name: TimerTestMode_SetMode
 270:Generated_Source\PSoC4/TimerTestMode.c **** ********************************************************************************
 271:Generated_Source\PSoC4/TimerTestMode.c **** *
 272:Generated_Source\PSoC4/TimerTestMode.c **** * Summary:
 273:Generated_Source\PSoC4/TimerTestMode.c **** *  Sets the operation mode of the TimerTestMode. This function is used when
 274:Generated_Source\PSoC4/TimerTestMode.c **** *  configured as a generic TimerTestMode and the actual mode of operation is
ARM GAS  C:\Users\Petro\AppData\Local\Temp\ccbTbeKH.s 			page 10


 275:Generated_Source\PSoC4/TimerTestMode.c **** *  set at runtime. The mode must be set while the component is disabled.
 276:Generated_Source\PSoC4/TimerTestMode.c **** *
 277:Generated_Source\PSoC4/TimerTestMode.c **** * Parameters:
 278:Generated_Source\PSoC4/TimerTestMode.c **** *  mode: Mode for the TimerTestMode to operate in
 279:Generated_Source\PSoC4/TimerTestMode.c **** *   Values:
 280:Generated_Source\PSoC4/TimerTestMode.c **** *   - TimerTestMode_MODE_TIMER_COMPARE - Timer / Counter with
 281:Generated_Source\PSoC4/TimerTestMode.c **** *                                                 compare capability
 282:Generated_Source\PSoC4/TimerTestMode.c **** *         - TimerTestMode_MODE_TIMER_CAPTURE - Timer / Counter with
 283:Generated_Source\PSoC4/TimerTestMode.c **** *                                                 capture capability
 284:Generated_Source\PSoC4/TimerTestMode.c **** *         - TimerTestMode_MODE_QUAD - Quadrature decoder
 285:Generated_Source\PSoC4/TimerTestMode.c **** *         - TimerTestMode_MODE_PWM - PWM
 286:Generated_Source\PSoC4/TimerTestMode.c **** *         - TimerTestMode_MODE_PWM_DT - PWM with dead time
 287:Generated_Source\PSoC4/TimerTestMode.c **** *         - TimerTestMode_MODE_PWM_PR - PWM with pseudo random capability
 288:Generated_Source\PSoC4/TimerTestMode.c **** *
 289:Generated_Source\PSoC4/TimerTestMode.c **** * Return:
 290:Generated_Source\PSoC4/TimerTestMode.c **** *  None
 291:Generated_Source\PSoC4/TimerTestMode.c **** *
 292:Generated_Source\PSoC4/TimerTestMode.c **** *******************************************************************************/
 293:Generated_Source\PSoC4/TimerTestMode.c **** void TimerTestMode_SetMode(uint32 mode)
 294:Generated_Source\PSoC4/TimerTestMode.c **** {
 240              		.loc 1 294 0
 241              		.cfi_startproc
 242              		@ args = 0, pretend = 0, frame = 16
 243              		@ frame_needed = 1, uses_anonymous_args = 0
 244 0000 90B5     		push	{r4, r7, lr}
 245              		.cfi_def_cfa_offset 12
 246              		.cfi_offset 4, -12
 247              		.cfi_offset 7, -8
 248              		.cfi_offset 14, -4
 249 0002 85B0     		sub	sp, sp, #20
 250              		.cfi_def_cfa_offset 32
 251 0004 00AF     		add	r7, sp, #0
 252              		.cfi_def_cfa_register 7
 253 0006 7860     		str	r0, [r7, #4]
 295:Generated_Source\PSoC4/TimerTestMode.c ****     uint8 enableInterrupts;
 296:Generated_Source\PSoC4/TimerTestMode.c **** 
 297:Generated_Source\PSoC4/TimerTestMode.c ****     enableInterrupts = CyEnterCriticalSection();
 254              		.loc 1 297 0
 255 0008 0F23     		movs	r3, #15
 256 000a FC18     		adds	r4, r7, r3
 257 000c FFF7FEFF 		bl	CyEnterCriticalSection
 258 0010 0300     		movs	r3, r0
 259 0012 2370     		strb	r3, [r4]
 298:Generated_Source\PSoC4/TimerTestMode.c **** 
 299:Generated_Source\PSoC4/TimerTestMode.c ****     TimerTestMode_CONTROL_REG &= (uint32)~TimerTestMode_MODE_MASK;
 260              		.loc 1 299 0
 261 0014 0A4B     		ldr	r3, .L15
 262 0016 0A4A     		ldr	r2, .L15
 263 0018 1268     		ldr	r2, [r2]
 264 001a 0A49     		ldr	r1, .L15+4
 265 001c 0A40     		ands	r2, r1
 266 001e 1A60     		str	r2, [r3]
 300:Generated_Source\PSoC4/TimerTestMode.c ****     TimerTestMode_CONTROL_REG |= mode;
 267              		.loc 1 300 0
 268 0020 074B     		ldr	r3, .L15
 269 0022 074A     		ldr	r2, .L15
 270 0024 1168     		ldr	r1, [r2]
ARM GAS  C:\Users\Petro\AppData\Local\Temp\ccbTbeKH.s 			page 11


 271 0026 7A68     		ldr	r2, [r7, #4]
 272 0028 0A43     		orrs	r2, r1
 273 002a 1A60     		str	r2, [r3]
 301:Generated_Source\PSoC4/TimerTestMode.c **** 
 302:Generated_Source\PSoC4/TimerTestMode.c ****     CyExitCriticalSection(enableInterrupts);
 274              		.loc 1 302 0
 275 002c 0F23     		movs	r3, #15
 276 002e FB18     		adds	r3, r7, r3
 277 0030 1B78     		ldrb	r3, [r3]
 278 0032 1800     		movs	r0, r3
 279 0034 FFF7FEFF 		bl	CyExitCriticalSection
 303:Generated_Source\PSoC4/TimerTestMode.c **** }
 280              		.loc 1 303 0
 281 0038 C046     		nop
 282 003a BD46     		mov	sp, r7
 283 003c 05B0     		add	sp, sp, #20
 284              		@ sp needed
 285 003e 90BD     		pop	{r4, r7, pc}
 286              	.L16:
 287              		.align	2
 288              	.L15:
 289 0040 40012040 		.word	1075839296
 290 0044 FFFFFFF8 		.word	-117440513
 291              		.cfi_endproc
 292              	.LFE6:
 293              		.size	TimerTestMode_SetMode, .-TimerTestMode_SetMode
 294              		.section	.text.TimerTestMode_SetQDMode,"ax",%progbits
 295              		.align	2
 296              		.global	TimerTestMode_SetQDMode
 297              		.code	16
 298              		.thumb_func
 299              		.type	TimerTestMode_SetQDMode, %function
 300              	TimerTestMode_SetQDMode:
 301              	.LFB7:
 304:Generated_Source\PSoC4/TimerTestMode.c **** 
 305:Generated_Source\PSoC4/TimerTestMode.c **** 
 306:Generated_Source\PSoC4/TimerTestMode.c **** /*******************************************************************************
 307:Generated_Source\PSoC4/TimerTestMode.c **** * Function Name: TimerTestMode_SetQDMode
 308:Generated_Source\PSoC4/TimerTestMode.c **** ********************************************************************************
 309:Generated_Source\PSoC4/TimerTestMode.c **** *
 310:Generated_Source\PSoC4/TimerTestMode.c **** * Summary:
 311:Generated_Source\PSoC4/TimerTestMode.c **** *  Sets the the Quadrature Decoder to one of the 3 supported modes.
 312:Generated_Source\PSoC4/TimerTestMode.c **** *  Its functionality is only applicable to Quadrature Decoder operation.
 313:Generated_Source\PSoC4/TimerTestMode.c **** *
 314:Generated_Source\PSoC4/TimerTestMode.c **** * Parameters:
 315:Generated_Source\PSoC4/TimerTestMode.c **** *  qdMode: Quadrature Decoder mode
 316:Generated_Source\PSoC4/TimerTestMode.c **** *   Values:
 317:Generated_Source\PSoC4/TimerTestMode.c **** *         - TimerTestMode_MODE_X1 - Counts on phi 1 rising
 318:Generated_Source\PSoC4/TimerTestMode.c **** *         - TimerTestMode_MODE_X2 - Counts on both edges of phi1 (2x faster)
 319:Generated_Source\PSoC4/TimerTestMode.c **** *         - TimerTestMode_MODE_X4 - Counts on both edges of phi1 and phi2
 320:Generated_Source\PSoC4/TimerTestMode.c **** *                                        (4x faster)
 321:Generated_Source\PSoC4/TimerTestMode.c **** *
 322:Generated_Source\PSoC4/TimerTestMode.c **** * Return:
 323:Generated_Source\PSoC4/TimerTestMode.c **** *  None
 324:Generated_Source\PSoC4/TimerTestMode.c **** *
 325:Generated_Source\PSoC4/TimerTestMode.c **** *******************************************************************************/
 326:Generated_Source\PSoC4/TimerTestMode.c **** void TimerTestMode_SetQDMode(uint32 qdMode)
ARM GAS  C:\Users\Petro\AppData\Local\Temp\ccbTbeKH.s 			page 12


 327:Generated_Source\PSoC4/TimerTestMode.c **** {
 302              		.loc 1 327 0
 303              		.cfi_startproc
 304              		@ args = 0, pretend = 0, frame = 16
 305              		@ frame_needed = 1, uses_anonymous_args = 0
 306 0000 90B5     		push	{r4, r7, lr}
 307              		.cfi_def_cfa_offset 12
 308              		.cfi_offset 4, -12
 309              		.cfi_offset 7, -8
 310              		.cfi_offset 14, -4
 311 0002 85B0     		sub	sp, sp, #20
 312              		.cfi_def_cfa_offset 32
 313 0004 00AF     		add	r7, sp, #0
 314              		.cfi_def_cfa_register 7
 315 0006 7860     		str	r0, [r7, #4]
 328:Generated_Source\PSoC4/TimerTestMode.c ****     uint8 enableInterrupts;
 329:Generated_Source\PSoC4/TimerTestMode.c **** 
 330:Generated_Source\PSoC4/TimerTestMode.c ****     enableInterrupts = CyEnterCriticalSection();
 316              		.loc 1 330 0
 317 0008 0F23     		movs	r3, #15
 318 000a FC18     		adds	r4, r7, r3
 319 000c FFF7FEFF 		bl	CyEnterCriticalSection
 320 0010 0300     		movs	r3, r0
 321 0012 2370     		strb	r3, [r4]
 331:Generated_Source\PSoC4/TimerTestMode.c **** 
 332:Generated_Source\PSoC4/TimerTestMode.c ****     TimerTestMode_CONTROL_REG &= (uint32)~TimerTestMode_QUAD_MODE_MASK;
 322              		.loc 1 332 0
 323 0014 0A4B     		ldr	r3, .L18
 324 0016 0A4A     		ldr	r2, .L18
 325 0018 1268     		ldr	r2, [r2]
 326 001a 0A49     		ldr	r1, .L18+4
 327 001c 0A40     		ands	r2, r1
 328 001e 1A60     		str	r2, [r3]
 333:Generated_Source\PSoC4/TimerTestMode.c ****     TimerTestMode_CONTROL_REG |= qdMode;
 329              		.loc 1 333 0
 330 0020 074B     		ldr	r3, .L18
 331 0022 074A     		ldr	r2, .L18
 332 0024 1168     		ldr	r1, [r2]
 333 0026 7A68     		ldr	r2, [r7, #4]
 334 0028 0A43     		orrs	r2, r1
 335 002a 1A60     		str	r2, [r3]
 334:Generated_Source\PSoC4/TimerTestMode.c **** 
 335:Generated_Source\PSoC4/TimerTestMode.c ****     CyExitCriticalSection(enableInterrupts);
 336              		.loc 1 335 0
 337 002c 0F23     		movs	r3, #15
 338 002e FB18     		adds	r3, r7, r3
 339 0030 1B78     		ldrb	r3, [r3]
 340 0032 1800     		movs	r0, r3
 341 0034 FFF7FEFF 		bl	CyExitCriticalSection
 336:Generated_Source\PSoC4/TimerTestMode.c **** }
 342              		.loc 1 336 0
 343 0038 C046     		nop
 344 003a BD46     		mov	sp, r7
 345 003c 05B0     		add	sp, sp, #20
 346              		@ sp needed
 347 003e 90BD     		pop	{r4, r7, pc}
 348              	.L19:
ARM GAS  C:\Users\Petro\AppData\Local\Temp\ccbTbeKH.s 			page 13


 349              		.align	2
 350              	.L18:
 351 0040 40012040 		.word	1075839296
 352 0044 FFFF8FFF 		.word	-7340033
 353              		.cfi_endproc
 354              	.LFE7:
 355              		.size	TimerTestMode_SetQDMode, .-TimerTestMode_SetQDMode
 356              		.section	.text.TimerTestMode_SetPrescaler,"ax",%progbits
 357              		.align	2
 358              		.global	TimerTestMode_SetPrescaler
 359              		.code	16
 360              		.thumb_func
 361              		.type	TimerTestMode_SetPrescaler, %function
 362              	TimerTestMode_SetPrescaler:
 363              	.LFB8:
 337:Generated_Source\PSoC4/TimerTestMode.c **** 
 338:Generated_Source\PSoC4/TimerTestMode.c **** 
 339:Generated_Source\PSoC4/TimerTestMode.c **** /*******************************************************************************
 340:Generated_Source\PSoC4/TimerTestMode.c **** * Function Name: TimerTestMode_SetPrescaler
 341:Generated_Source\PSoC4/TimerTestMode.c **** ********************************************************************************
 342:Generated_Source\PSoC4/TimerTestMode.c **** *
 343:Generated_Source\PSoC4/TimerTestMode.c **** * Summary:
 344:Generated_Source\PSoC4/TimerTestMode.c **** *  Sets the prescaler value that is applied to the clock input.  Not applicable
 345:Generated_Source\PSoC4/TimerTestMode.c **** *  to a PWM with the dead time mode or Quadrature Decoder mode.
 346:Generated_Source\PSoC4/TimerTestMode.c **** *
 347:Generated_Source\PSoC4/TimerTestMode.c **** * Parameters:
 348:Generated_Source\PSoC4/TimerTestMode.c **** *  prescaler: Prescaler divider value
 349:Generated_Source\PSoC4/TimerTestMode.c **** *   Values:
 350:Generated_Source\PSoC4/TimerTestMode.c **** *         - TimerTestMode_PRESCALE_DIVBY1    - Divide by 1 (no prescaling)
 351:Generated_Source\PSoC4/TimerTestMode.c **** *         - TimerTestMode_PRESCALE_DIVBY2    - Divide by 2
 352:Generated_Source\PSoC4/TimerTestMode.c **** *         - TimerTestMode_PRESCALE_DIVBY4    - Divide by 4
 353:Generated_Source\PSoC4/TimerTestMode.c **** *         - TimerTestMode_PRESCALE_DIVBY8    - Divide by 8
 354:Generated_Source\PSoC4/TimerTestMode.c **** *         - TimerTestMode_PRESCALE_DIVBY16   - Divide by 16
 355:Generated_Source\PSoC4/TimerTestMode.c **** *         - TimerTestMode_PRESCALE_DIVBY32   - Divide by 32
 356:Generated_Source\PSoC4/TimerTestMode.c **** *         - TimerTestMode_PRESCALE_DIVBY64   - Divide by 64
 357:Generated_Source\PSoC4/TimerTestMode.c **** *         - TimerTestMode_PRESCALE_DIVBY128  - Divide by 128
 358:Generated_Source\PSoC4/TimerTestMode.c **** *
 359:Generated_Source\PSoC4/TimerTestMode.c **** * Return:
 360:Generated_Source\PSoC4/TimerTestMode.c **** *  None
 361:Generated_Source\PSoC4/TimerTestMode.c **** *
 362:Generated_Source\PSoC4/TimerTestMode.c **** *******************************************************************************/
 363:Generated_Source\PSoC4/TimerTestMode.c **** void TimerTestMode_SetPrescaler(uint32 prescaler)
 364:Generated_Source\PSoC4/TimerTestMode.c **** {
 364              		.loc 1 364 0
 365              		.cfi_startproc
 366              		@ args = 0, pretend = 0, frame = 16
 367              		@ frame_needed = 1, uses_anonymous_args = 0
 368 0000 90B5     		push	{r4, r7, lr}
 369              		.cfi_def_cfa_offset 12
 370              		.cfi_offset 4, -12
 371              		.cfi_offset 7, -8
 372              		.cfi_offset 14, -4
 373 0002 85B0     		sub	sp, sp, #20
 374              		.cfi_def_cfa_offset 32
 375 0004 00AF     		add	r7, sp, #0
 376              		.cfi_def_cfa_register 7
 377 0006 7860     		str	r0, [r7, #4]
ARM GAS  C:\Users\Petro\AppData\Local\Temp\ccbTbeKH.s 			page 14


 365:Generated_Source\PSoC4/TimerTestMode.c ****     uint8 enableInterrupts;
 366:Generated_Source\PSoC4/TimerTestMode.c **** 
 367:Generated_Source\PSoC4/TimerTestMode.c ****     enableInterrupts = CyEnterCriticalSection();
 378              		.loc 1 367 0
 379 0008 0F23     		movs	r3, #15
 380 000a FC18     		adds	r4, r7, r3
 381 000c FFF7FEFF 		bl	CyEnterCriticalSection
 382 0010 0300     		movs	r3, r0
 383 0012 2370     		strb	r3, [r4]
 368:Generated_Source\PSoC4/TimerTestMode.c **** 
 369:Generated_Source\PSoC4/TimerTestMode.c ****     TimerTestMode_CONTROL_REG &= (uint32)~TimerTestMode_PRESCALER_MASK;
 384              		.loc 1 369 0
 385 0014 0A4B     		ldr	r3, .L21
 386 0016 0A4A     		ldr	r2, .L21
 387 0018 1268     		ldr	r2, [r2]
 388 001a 0A49     		ldr	r1, .L21+4
 389 001c 0A40     		ands	r2, r1
 390 001e 1A60     		str	r2, [r3]
 370:Generated_Source\PSoC4/TimerTestMode.c ****     TimerTestMode_CONTROL_REG |= prescaler;
 391              		.loc 1 370 0
 392 0020 074B     		ldr	r3, .L21
 393 0022 074A     		ldr	r2, .L21
 394 0024 1168     		ldr	r1, [r2]
 395 0026 7A68     		ldr	r2, [r7, #4]
 396 0028 0A43     		orrs	r2, r1
 397 002a 1A60     		str	r2, [r3]
 371:Generated_Source\PSoC4/TimerTestMode.c **** 
 372:Generated_Source\PSoC4/TimerTestMode.c ****     CyExitCriticalSection(enableInterrupts);
 398              		.loc 1 372 0
 399 002c 0F23     		movs	r3, #15
 400 002e FB18     		adds	r3, r7, r3
 401 0030 1B78     		ldrb	r3, [r3]
 402 0032 1800     		movs	r0, r3
 403 0034 FFF7FEFF 		bl	CyExitCriticalSection
 373:Generated_Source\PSoC4/TimerTestMode.c **** }
 404              		.loc 1 373 0
 405 0038 C046     		nop
 406 003a BD46     		mov	sp, r7
 407 003c 05B0     		add	sp, sp, #20
 408              		@ sp needed
 409 003e 90BD     		pop	{r4, r7, pc}
 410              	.L22:
 411              		.align	2
 412              	.L21:
 413 0040 40012040 		.word	1075839296
 414 0044 FF00FFFF 		.word	-65281
 415              		.cfi_endproc
 416              	.LFE8:
 417              		.size	TimerTestMode_SetPrescaler, .-TimerTestMode_SetPrescaler
 418              		.section	.text.TimerTestMode_SetOneShot,"ax",%progbits
 419              		.align	2
 420              		.global	TimerTestMode_SetOneShot
 421              		.code	16
 422              		.thumb_func
 423              		.type	TimerTestMode_SetOneShot, %function
 424              	TimerTestMode_SetOneShot:
 425              	.LFB9:
ARM GAS  C:\Users\Petro\AppData\Local\Temp\ccbTbeKH.s 			page 15


 374:Generated_Source\PSoC4/TimerTestMode.c **** 
 375:Generated_Source\PSoC4/TimerTestMode.c **** 
 376:Generated_Source\PSoC4/TimerTestMode.c **** /*******************************************************************************
 377:Generated_Source\PSoC4/TimerTestMode.c **** * Function Name: TimerTestMode_SetOneShot
 378:Generated_Source\PSoC4/TimerTestMode.c **** ********************************************************************************
 379:Generated_Source\PSoC4/TimerTestMode.c **** *
 380:Generated_Source\PSoC4/TimerTestMode.c **** * Summary:
 381:Generated_Source\PSoC4/TimerTestMode.c **** *  Writes the register that controls whether the TimerTestMode runs
 382:Generated_Source\PSoC4/TimerTestMode.c **** *  continuously or stops when terminal count is reached.  By default the
 383:Generated_Source\PSoC4/TimerTestMode.c **** *  TimerTestMode operates in the continuous mode.
 384:Generated_Source\PSoC4/TimerTestMode.c **** *
 385:Generated_Source\PSoC4/TimerTestMode.c **** * Parameters:
 386:Generated_Source\PSoC4/TimerTestMode.c **** *  oneShotEnable
 387:Generated_Source\PSoC4/TimerTestMode.c **** *   Values:
 388:Generated_Source\PSoC4/TimerTestMode.c **** *     - 0 - Continuous
 389:Generated_Source\PSoC4/TimerTestMode.c **** *     - 1 - Enable One Shot
 390:Generated_Source\PSoC4/TimerTestMode.c **** *
 391:Generated_Source\PSoC4/TimerTestMode.c **** * Return:
 392:Generated_Source\PSoC4/TimerTestMode.c **** *  None
 393:Generated_Source\PSoC4/TimerTestMode.c **** *
 394:Generated_Source\PSoC4/TimerTestMode.c **** *******************************************************************************/
 395:Generated_Source\PSoC4/TimerTestMode.c **** void TimerTestMode_SetOneShot(uint32 oneShotEnable)
 396:Generated_Source\PSoC4/TimerTestMode.c **** {
 426              		.loc 1 396 0
 427              		.cfi_startproc
 428              		@ args = 0, pretend = 0, frame = 16
 429              		@ frame_needed = 1, uses_anonymous_args = 0
 430 0000 90B5     		push	{r4, r7, lr}
 431              		.cfi_def_cfa_offset 12
 432              		.cfi_offset 4, -12
 433              		.cfi_offset 7, -8
 434              		.cfi_offset 14, -4
 435 0002 85B0     		sub	sp, sp, #20
 436              		.cfi_def_cfa_offset 32
 437 0004 00AF     		add	r7, sp, #0
 438              		.cfi_def_cfa_register 7
 439 0006 7860     		str	r0, [r7, #4]
 397:Generated_Source\PSoC4/TimerTestMode.c ****     uint8 enableInterrupts;
 398:Generated_Source\PSoC4/TimerTestMode.c **** 
 399:Generated_Source\PSoC4/TimerTestMode.c ****     enableInterrupts = CyEnterCriticalSection();
 440              		.loc 1 399 0
 441 0008 0F23     		movs	r3, #15
 442 000a FC18     		adds	r4, r7, r3
 443 000c FFF7FEFF 		bl	CyEnterCriticalSection
 444 0010 0300     		movs	r3, r0
 445 0012 2370     		strb	r3, [r4]
 400:Generated_Source\PSoC4/TimerTestMode.c **** 
 401:Generated_Source\PSoC4/TimerTestMode.c ****     TimerTestMode_CONTROL_REG &= (uint32)~TimerTestMode_ONESHOT_MASK;
 446              		.loc 1 401 0
 447 0014 0C4B     		ldr	r3, .L24
 448 0016 0C4A     		ldr	r2, .L24
 449 0018 1268     		ldr	r2, [r2]
 450 001a 0C49     		ldr	r1, .L24+4
 451 001c 0A40     		ands	r2, r1
 452 001e 1A60     		str	r2, [r3]
 402:Generated_Source\PSoC4/TimerTestMode.c ****     TimerTestMode_CONTROL_REG |= ((uint32)((oneShotEnable & TimerTestMode_1BIT_MASK) <<
 453              		.loc 1 402 0
ARM GAS  C:\Users\Petro\AppData\Local\Temp\ccbTbeKH.s 			page 16


 454 0020 094B     		ldr	r3, .L24
 455 0022 094A     		ldr	r2, .L24
 456 0024 1168     		ldr	r1, [r2]
 457 0026 7A68     		ldr	r2, [r7, #4]
 458 0028 9004     		lsls	r0, r2, #18
 459 002a 8022     		movs	r2, #128
 460 002c D202     		lsls	r2, r2, #11
 461 002e 0240     		ands	r2, r0
 462 0030 0A43     		orrs	r2, r1
 463 0032 1A60     		str	r2, [r3]
 403:Generated_Source\PSoC4/TimerTestMode.c ****                                                                TimerTestMode_ONESHOT_SHIFT));
 404:Generated_Source\PSoC4/TimerTestMode.c **** 
 405:Generated_Source\PSoC4/TimerTestMode.c ****     CyExitCriticalSection(enableInterrupts);
 464              		.loc 1 405 0
 465 0034 0F23     		movs	r3, #15
 466 0036 FB18     		adds	r3, r7, r3
 467 0038 1B78     		ldrb	r3, [r3]
 468 003a 1800     		movs	r0, r3
 469 003c FFF7FEFF 		bl	CyExitCriticalSection
 406:Generated_Source\PSoC4/TimerTestMode.c **** }
 470              		.loc 1 406 0
 471 0040 C046     		nop
 472 0042 BD46     		mov	sp, r7
 473 0044 05B0     		add	sp, sp, #20
 474              		@ sp needed
 475 0046 90BD     		pop	{r4, r7, pc}
 476              	.L25:
 477              		.align	2
 478              	.L24:
 479 0048 40012040 		.word	1075839296
 480 004c FFFFFBFF 		.word	-262145
 481              		.cfi_endproc
 482              	.LFE9:
 483              		.size	TimerTestMode_SetOneShot, .-TimerTestMode_SetOneShot
 484              		.section	.text.TimerTestMode_SetPWMMode,"ax",%progbits
 485              		.align	2
 486              		.global	TimerTestMode_SetPWMMode
 487              		.code	16
 488              		.thumb_func
 489              		.type	TimerTestMode_SetPWMMode, %function
 490              	TimerTestMode_SetPWMMode:
 491              	.LFB10:
 407:Generated_Source\PSoC4/TimerTestMode.c **** 
 408:Generated_Source\PSoC4/TimerTestMode.c **** 
 409:Generated_Source\PSoC4/TimerTestMode.c **** /*******************************************************************************
 410:Generated_Source\PSoC4/TimerTestMode.c **** * Function Name: TimerTestMode_SetPWMMode
 411:Generated_Source\PSoC4/TimerTestMode.c **** ********************************************************************************
 412:Generated_Source\PSoC4/TimerTestMode.c **** *
 413:Generated_Source\PSoC4/TimerTestMode.c **** * Summary:
 414:Generated_Source\PSoC4/TimerTestMode.c **** *  Writes the control register that determines what mode of operation the PWM
 415:Generated_Source\PSoC4/TimerTestMode.c **** *  output lines are driven in.  There is a setting for what to do on a
 416:Generated_Source\PSoC4/TimerTestMode.c **** *  comparison match (CC_MATCH), on an overflow (OVERFLOW) and on an underflow
 417:Generated_Source\PSoC4/TimerTestMode.c **** *  (UNDERFLOW).  The value for each of the three must be ORed together to form
 418:Generated_Source\PSoC4/TimerTestMode.c **** *  the mode.
 419:Generated_Source\PSoC4/TimerTestMode.c **** *
 420:Generated_Source\PSoC4/TimerTestMode.c **** * Parameters:
 421:Generated_Source\PSoC4/TimerTestMode.c **** *  modeMask: A combination of three mode settings.  Mask must include a value
ARM GAS  C:\Users\Petro\AppData\Local\Temp\ccbTbeKH.s 			page 17


 422:Generated_Source\PSoC4/TimerTestMode.c **** *  for each of the three or use one of the preconfigured PWM settings.
 423:Generated_Source\PSoC4/TimerTestMode.c **** *   Values:
 424:Generated_Source\PSoC4/TimerTestMode.c **** *     - CC_MATCH_SET        - Set on comparison match
 425:Generated_Source\PSoC4/TimerTestMode.c **** *     - CC_MATCH_CLEAR      - Clear on comparison match
 426:Generated_Source\PSoC4/TimerTestMode.c **** *     - CC_MATCH_INVERT     - Invert on comparison match
 427:Generated_Source\PSoC4/TimerTestMode.c **** *     - CC_MATCH_NO_CHANGE  - No change on comparison match
 428:Generated_Source\PSoC4/TimerTestMode.c **** *     - OVERLOW_SET         - Set on overflow
 429:Generated_Source\PSoC4/TimerTestMode.c **** *     - OVERLOW_CLEAR       - Clear on  overflow
 430:Generated_Source\PSoC4/TimerTestMode.c **** *     - OVERLOW_INVERT      - Invert on overflow
 431:Generated_Source\PSoC4/TimerTestMode.c **** *     - OVERLOW_NO_CHANGE   - No change on overflow
 432:Generated_Source\PSoC4/TimerTestMode.c **** *     - UNDERFLOW_SET       - Set on underflow
 433:Generated_Source\PSoC4/TimerTestMode.c **** *     - UNDERFLOW_CLEAR     - Clear on underflow
 434:Generated_Source\PSoC4/TimerTestMode.c **** *     - UNDERFLOW_INVERT    - Invert on underflow
 435:Generated_Source\PSoC4/TimerTestMode.c **** *     - UNDERFLOW_NO_CHANGE - No change on underflow
 436:Generated_Source\PSoC4/TimerTestMode.c **** *     - PWM_MODE_LEFT       - Setting for left aligned PWM.  Should be combined
 437:Generated_Source\PSoC4/TimerTestMode.c **** *                             with up counting mode
 438:Generated_Source\PSoC4/TimerTestMode.c **** *     - PWM_MODE_RIGHT      - Setting for right aligned PWM.  Should be combined
 439:Generated_Source\PSoC4/TimerTestMode.c **** *                             with down counting mode
 440:Generated_Source\PSoC4/TimerTestMode.c **** *     - PWM_MODE_CENTER     - Setting for center aligned PWM.  Should be
 441:Generated_Source\PSoC4/TimerTestMode.c **** *                             combined with up/down 0 mode
 442:Generated_Source\PSoC4/TimerTestMode.c **** *     - PWM_MODE_ASYM       - Setting for asymmetric PWM.  Should be combined
 443:Generated_Source\PSoC4/TimerTestMode.c **** *                             with up/down 1 mode
 444:Generated_Source\PSoC4/TimerTestMode.c **** *
 445:Generated_Source\PSoC4/TimerTestMode.c **** * Return:
 446:Generated_Source\PSoC4/TimerTestMode.c **** *  None
 447:Generated_Source\PSoC4/TimerTestMode.c **** *
 448:Generated_Source\PSoC4/TimerTestMode.c **** *******************************************************************************/
 449:Generated_Source\PSoC4/TimerTestMode.c **** void TimerTestMode_SetPWMMode(uint32 modeMask)
 450:Generated_Source\PSoC4/TimerTestMode.c **** {
 492              		.loc 1 450 0
 493              		.cfi_startproc
 494              		@ args = 0, pretend = 0, frame = 8
 495              		@ frame_needed = 1, uses_anonymous_args = 0
 496 0000 80B5     		push	{r7, lr}
 497              		.cfi_def_cfa_offset 8
 498              		.cfi_offset 7, -8
 499              		.cfi_offset 14, -4
 500 0002 82B0     		sub	sp, sp, #8
 501              		.cfi_def_cfa_offset 16
 502 0004 00AF     		add	r7, sp, #0
 503              		.cfi_def_cfa_register 7
 504 0006 7860     		str	r0, [r7, #4]
 451:Generated_Source\PSoC4/TimerTestMode.c ****     TimerTestMode_TRIG_CONTROL2_REG = (modeMask & TimerTestMode_6BIT_MASK);
 505              		.loc 1 451 0
 506 0008 044B     		ldr	r3, .L27
 507 000a 7A68     		ldr	r2, [r7, #4]
 508 000c 3F21     		movs	r1, #63
 509 000e 0A40     		ands	r2, r1
 510 0010 1A60     		str	r2, [r3]
 452:Generated_Source\PSoC4/TimerTestMode.c **** }
 511              		.loc 1 452 0
 512 0012 C046     		nop
 513 0014 BD46     		mov	sp, r7
 514 0016 02B0     		add	sp, sp, #8
 515              		@ sp needed
 516 0018 80BD     		pop	{r7, pc}
 517              	.L28:
ARM GAS  C:\Users\Petro\AppData\Local\Temp\ccbTbeKH.s 			page 18


 518 001a C046     		.align	2
 519              	.L27:
 520 001c 68012040 		.word	1075839336
 521              		.cfi_endproc
 522              	.LFE10:
 523              		.size	TimerTestMode_SetPWMMode, .-TimerTestMode_SetPWMMode
 524              		.section	.text.TimerTestMode_SetPWMSyncKill,"ax",%progbits
 525              		.align	2
 526              		.global	TimerTestMode_SetPWMSyncKill
 527              		.code	16
 528              		.thumb_func
 529              		.type	TimerTestMode_SetPWMSyncKill, %function
 530              	TimerTestMode_SetPWMSyncKill:
 531              	.LFB11:
 453:Generated_Source\PSoC4/TimerTestMode.c **** 
 454:Generated_Source\PSoC4/TimerTestMode.c **** 
 455:Generated_Source\PSoC4/TimerTestMode.c **** 
 456:Generated_Source\PSoC4/TimerTestMode.c **** /*******************************************************************************
 457:Generated_Source\PSoC4/TimerTestMode.c **** * Function Name: TimerTestMode_SetPWMSyncKill
 458:Generated_Source\PSoC4/TimerTestMode.c **** ********************************************************************************
 459:Generated_Source\PSoC4/TimerTestMode.c **** *
 460:Generated_Source\PSoC4/TimerTestMode.c **** * Summary:
 461:Generated_Source\PSoC4/TimerTestMode.c **** *  Writes the register that controls whether the PWM kill signal (stop input)
 462:Generated_Source\PSoC4/TimerTestMode.c **** *  causes asynchronous or synchronous kill operation.  By default the kill
 463:Generated_Source\PSoC4/TimerTestMode.c **** *  operation is asynchronous.  This functionality is only applicable to the PWM
 464:Generated_Source\PSoC4/TimerTestMode.c **** *  and PWM with dead time modes.
 465:Generated_Source\PSoC4/TimerTestMode.c **** *
 466:Generated_Source\PSoC4/TimerTestMode.c **** *  For Synchronous mode the kill signal disables both the line and line_n
 467:Generated_Source\PSoC4/TimerTestMode.c **** *  signals until the next terminal count.
 468:Generated_Source\PSoC4/TimerTestMode.c **** *
 469:Generated_Source\PSoC4/TimerTestMode.c **** *  For Asynchronous mode the kill signal disables both the line and line_n
 470:Generated_Source\PSoC4/TimerTestMode.c **** *  signals when the kill signal is present.  This mode should only be used
 471:Generated_Source\PSoC4/TimerTestMode.c **** *  when the kill signal (stop input) is configured in the pass through mode
 472:Generated_Source\PSoC4/TimerTestMode.c **** *  (Level sensitive signal).
 473:Generated_Source\PSoC4/TimerTestMode.c **** 
 474:Generated_Source\PSoC4/TimerTestMode.c **** *
 475:Generated_Source\PSoC4/TimerTestMode.c **** * Parameters:
 476:Generated_Source\PSoC4/TimerTestMode.c **** *  syncKillEnable
 477:Generated_Source\PSoC4/TimerTestMode.c **** *   Values:
 478:Generated_Source\PSoC4/TimerTestMode.c **** *     - 0 - Asynchronous
 479:Generated_Source\PSoC4/TimerTestMode.c **** *     - 1 - Synchronous
 480:Generated_Source\PSoC4/TimerTestMode.c **** *
 481:Generated_Source\PSoC4/TimerTestMode.c **** * Return:
 482:Generated_Source\PSoC4/TimerTestMode.c **** *  None
 483:Generated_Source\PSoC4/TimerTestMode.c **** *
 484:Generated_Source\PSoC4/TimerTestMode.c **** *******************************************************************************/
 485:Generated_Source\PSoC4/TimerTestMode.c **** void TimerTestMode_SetPWMSyncKill(uint32 syncKillEnable)
 486:Generated_Source\PSoC4/TimerTestMode.c **** {
 532              		.loc 1 486 0
 533              		.cfi_startproc
 534              		@ args = 0, pretend = 0, frame = 16
 535              		@ frame_needed = 1, uses_anonymous_args = 0
 536 0000 90B5     		push	{r4, r7, lr}
 537              		.cfi_def_cfa_offset 12
 538              		.cfi_offset 4, -12
 539              		.cfi_offset 7, -8
 540              		.cfi_offset 14, -4
ARM GAS  C:\Users\Petro\AppData\Local\Temp\ccbTbeKH.s 			page 19


 541 0002 85B0     		sub	sp, sp, #20
 542              		.cfi_def_cfa_offset 32
 543 0004 00AF     		add	r7, sp, #0
 544              		.cfi_def_cfa_register 7
 545 0006 7860     		str	r0, [r7, #4]
 487:Generated_Source\PSoC4/TimerTestMode.c ****     uint8 enableInterrupts;
 488:Generated_Source\PSoC4/TimerTestMode.c **** 
 489:Generated_Source\PSoC4/TimerTestMode.c ****     enableInterrupts = CyEnterCriticalSection();
 546              		.loc 1 489 0
 547 0008 0F23     		movs	r3, #15
 548 000a FC18     		adds	r4, r7, r3
 549 000c FFF7FEFF 		bl	CyEnterCriticalSection
 550 0010 0300     		movs	r3, r0
 551 0012 2370     		strb	r3, [r4]
 490:Generated_Source\PSoC4/TimerTestMode.c **** 
 491:Generated_Source\PSoC4/TimerTestMode.c ****     TimerTestMode_CONTROL_REG &= (uint32)~TimerTestMode_PWM_SYNC_KILL_MASK;
 552              		.loc 1 491 0
 553 0014 0C4B     		ldr	r3, .L30
 554 0016 0C4A     		ldr	r2, .L30
 555 0018 1268     		ldr	r2, [r2]
 556 001a 0421     		movs	r1, #4
 557 001c 8A43     		bics	r2, r1
 558 001e 1A60     		str	r2, [r3]
 492:Generated_Source\PSoC4/TimerTestMode.c ****     TimerTestMode_CONTROL_REG |= ((uint32)((syncKillEnable & TimerTestMode_1BIT_MASK)  <<
 559              		.loc 1 492 0
 560 0020 094B     		ldr	r3, .L30
 561 0022 094A     		ldr	r2, .L30
 562 0024 1168     		ldr	r1, [r2]
 563 0026 7A68     		ldr	r2, [r7, #4]
 564 0028 9200     		lsls	r2, r2, #2
 565 002a 0420     		movs	r0, #4
 566 002c 0240     		ands	r2, r0
 567 002e 0A43     		orrs	r2, r1
 568 0030 1A60     		str	r2, [r3]
 493:Generated_Source\PSoC4/TimerTestMode.c ****                                                TimerTestMode_PWM_SYNC_KILL_SHIFT));
 494:Generated_Source\PSoC4/TimerTestMode.c **** 
 495:Generated_Source\PSoC4/TimerTestMode.c ****     CyExitCriticalSection(enableInterrupts);
 569              		.loc 1 495 0
 570 0032 0F23     		movs	r3, #15
 571 0034 FB18     		adds	r3, r7, r3
 572 0036 1B78     		ldrb	r3, [r3]
 573 0038 1800     		movs	r0, r3
 574 003a FFF7FEFF 		bl	CyExitCriticalSection
 496:Generated_Source\PSoC4/TimerTestMode.c **** }
 575              		.loc 1 496 0
 576 003e C046     		nop
 577 0040 BD46     		mov	sp, r7
 578 0042 05B0     		add	sp, sp, #20
 579              		@ sp needed
 580 0044 90BD     		pop	{r4, r7, pc}
 581              	.L31:
 582 0046 C046     		.align	2
 583              	.L30:
 584 0048 40012040 		.word	1075839296
 585              		.cfi_endproc
 586              	.LFE11:
 587              		.size	TimerTestMode_SetPWMSyncKill, .-TimerTestMode_SetPWMSyncKill
ARM GAS  C:\Users\Petro\AppData\Local\Temp\ccbTbeKH.s 			page 20


 588              		.section	.text.TimerTestMode_SetPWMStopOnKill,"ax",%progbits
 589              		.align	2
 590              		.global	TimerTestMode_SetPWMStopOnKill
 591              		.code	16
 592              		.thumb_func
 593              		.type	TimerTestMode_SetPWMStopOnKill, %function
 594              	TimerTestMode_SetPWMStopOnKill:
 595              	.LFB12:
 497:Generated_Source\PSoC4/TimerTestMode.c **** 
 498:Generated_Source\PSoC4/TimerTestMode.c **** 
 499:Generated_Source\PSoC4/TimerTestMode.c **** /*******************************************************************************
 500:Generated_Source\PSoC4/TimerTestMode.c **** * Function Name: TimerTestMode_SetPWMStopOnKill
 501:Generated_Source\PSoC4/TimerTestMode.c **** ********************************************************************************
 502:Generated_Source\PSoC4/TimerTestMode.c **** *
 503:Generated_Source\PSoC4/TimerTestMode.c **** * Summary:
 504:Generated_Source\PSoC4/TimerTestMode.c **** *  Writes the register that controls whether the PWM kill signal (stop input)
 505:Generated_Source\PSoC4/TimerTestMode.c **** *  causes the PWM counter to stop.  By default the kill operation does not stop
 506:Generated_Source\PSoC4/TimerTestMode.c **** *  the counter.  This functionality is only applicable to the three PWM modes.
 507:Generated_Source\PSoC4/TimerTestMode.c **** *
 508:Generated_Source\PSoC4/TimerTestMode.c **** *
 509:Generated_Source\PSoC4/TimerTestMode.c **** * Parameters:
 510:Generated_Source\PSoC4/TimerTestMode.c **** *  stopOnKillEnable
 511:Generated_Source\PSoC4/TimerTestMode.c **** *   Values:
 512:Generated_Source\PSoC4/TimerTestMode.c **** *     - 0 - Don't stop
 513:Generated_Source\PSoC4/TimerTestMode.c **** *     - 1 - Stop
 514:Generated_Source\PSoC4/TimerTestMode.c **** *
 515:Generated_Source\PSoC4/TimerTestMode.c **** * Return:
 516:Generated_Source\PSoC4/TimerTestMode.c **** *  None
 517:Generated_Source\PSoC4/TimerTestMode.c **** *
 518:Generated_Source\PSoC4/TimerTestMode.c **** *******************************************************************************/
 519:Generated_Source\PSoC4/TimerTestMode.c **** void TimerTestMode_SetPWMStopOnKill(uint32 stopOnKillEnable)
 520:Generated_Source\PSoC4/TimerTestMode.c **** {
 596              		.loc 1 520 0
 597              		.cfi_startproc
 598              		@ args = 0, pretend = 0, frame = 16
 599              		@ frame_needed = 1, uses_anonymous_args = 0
 600 0000 90B5     		push	{r4, r7, lr}
 601              		.cfi_def_cfa_offset 12
 602              		.cfi_offset 4, -12
 603              		.cfi_offset 7, -8
 604              		.cfi_offset 14, -4
 605 0002 85B0     		sub	sp, sp, #20
 606              		.cfi_def_cfa_offset 32
 607 0004 00AF     		add	r7, sp, #0
 608              		.cfi_def_cfa_register 7
 609 0006 7860     		str	r0, [r7, #4]
 521:Generated_Source\PSoC4/TimerTestMode.c ****     uint8 enableInterrupts;
 522:Generated_Source\PSoC4/TimerTestMode.c **** 
 523:Generated_Source\PSoC4/TimerTestMode.c ****     enableInterrupts = CyEnterCriticalSection();
 610              		.loc 1 523 0
 611 0008 0F23     		movs	r3, #15
 612 000a FC18     		adds	r4, r7, r3
 613 000c FFF7FEFF 		bl	CyEnterCriticalSection
 614 0010 0300     		movs	r3, r0
 615 0012 2370     		strb	r3, [r4]
 524:Generated_Source\PSoC4/TimerTestMode.c **** 
 525:Generated_Source\PSoC4/TimerTestMode.c ****     TimerTestMode_CONTROL_REG &= (uint32)~TimerTestMode_PWM_STOP_KILL_MASK;
ARM GAS  C:\Users\Petro\AppData\Local\Temp\ccbTbeKH.s 			page 21


 616              		.loc 1 525 0
 617 0014 0C4B     		ldr	r3, .L33
 618 0016 0C4A     		ldr	r2, .L33
 619 0018 1268     		ldr	r2, [r2]
 620 001a 0821     		movs	r1, #8
 621 001c 8A43     		bics	r2, r1
 622 001e 1A60     		str	r2, [r3]
 526:Generated_Source\PSoC4/TimerTestMode.c ****     TimerTestMode_CONTROL_REG |= ((uint32)((stopOnKillEnable & TimerTestMode_1BIT_MASK)  <<
 623              		.loc 1 526 0
 624 0020 094B     		ldr	r3, .L33
 625 0022 094A     		ldr	r2, .L33
 626 0024 1168     		ldr	r1, [r2]
 627 0026 7A68     		ldr	r2, [r7, #4]
 628 0028 D200     		lsls	r2, r2, #3
 629 002a 0820     		movs	r0, #8
 630 002c 0240     		ands	r2, r0
 631 002e 0A43     		orrs	r2, r1
 632 0030 1A60     		str	r2, [r3]
 527:Generated_Source\PSoC4/TimerTestMode.c ****                                                          TimerTestMode_PWM_STOP_KILL_SHIFT));
 528:Generated_Source\PSoC4/TimerTestMode.c **** 
 529:Generated_Source\PSoC4/TimerTestMode.c ****     CyExitCriticalSection(enableInterrupts);
 633              		.loc 1 529 0
 634 0032 0F23     		movs	r3, #15
 635 0034 FB18     		adds	r3, r7, r3
 636 0036 1B78     		ldrb	r3, [r3]
 637 0038 1800     		movs	r0, r3
 638 003a FFF7FEFF 		bl	CyExitCriticalSection
 530:Generated_Source\PSoC4/TimerTestMode.c **** }
 639              		.loc 1 530 0
 640 003e C046     		nop
 641 0040 BD46     		mov	sp, r7
 642 0042 05B0     		add	sp, sp, #20
 643              		@ sp needed
 644 0044 90BD     		pop	{r4, r7, pc}
 645              	.L34:
 646 0046 C046     		.align	2
 647              	.L33:
 648 0048 40012040 		.word	1075839296
 649              		.cfi_endproc
 650              	.LFE12:
 651              		.size	TimerTestMode_SetPWMStopOnKill, .-TimerTestMode_SetPWMStopOnKill
 652              		.section	.text.TimerTestMode_SetPWMDeadTime,"ax",%progbits
 653              		.align	2
 654              		.global	TimerTestMode_SetPWMDeadTime
 655              		.code	16
 656              		.thumb_func
 657              		.type	TimerTestMode_SetPWMDeadTime, %function
 658              	TimerTestMode_SetPWMDeadTime:
 659              	.LFB13:
 531:Generated_Source\PSoC4/TimerTestMode.c **** 
 532:Generated_Source\PSoC4/TimerTestMode.c **** 
 533:Generated_Source\PSoC4/TimerTestMode.c **** /*******************************************************************************
 534:Generated_Source\PSoC4/TimerTestMode.c **** * Function Name: TimerTestMode_SetPWMDeadTime
 535:Generated_Source\PSoC4/TimerTestMode.c **** ********************************************************************************
 536:Generated_Source\PSoC4/TimerTestMode.c **** *
 537:Generated_Source\PSoC4/TimerTestMode.c **** * Summary:
 538:Generated_Source\PSoC4/TimerTestMode.c **** *  Writes the dead time control value.  This value delays the rising edge of
ARM GAS  C:\Users\Petro\AppData\Local\Temp\ccbTbeKH.s 			page 22


 539:Generated_Source\PSoC4/TimerTestMode.c **** *  both the line and line_n signals the designated number of cycles resulting
 540:Generated_Source\PSoC4/TimerTestMode.c **** *  in both signals being inactive for that many cycles.  This functionality is
 541:Generated_Source\PSoC4/TimerTestMode.c **** *  only applicable to the PWM in the dead time mode.
 542:Generated_Source\PSoC4/TimerTestMode.c **** 
 543:Generated_Source\PSoC4/TimerTestMode.c **** *
 544:Generated_Source\PSoC4/TimerTestMode.c **** * Parameters:
 545:Generated_Source\PSoC4/TimerTestMode.c **** *  Dead time to insert
 546:Generated_Source\PSoC4/TimerTestMode.c **** *   Values: 0 to 255
 547:Generated_Source\PSoC4/TimerTestMode.c **** *
 548:Generated_Source\PSoC4/TimerTestMode.c **** * Return:
 549:Generated_Source\PSoC4/TimerTestMode.c **** *  None
 550:Generated_Source\PSoC4/TimerTestMode.c **** *
 551:Generated_Source\PSoC4/TimerTestMode.c **** *******************************************************************************/
 552:Generated_Source\PSoC4/TimerTestMode.c **** void TimerTestMode_SetPWMDeadTime(uint32 deadTime)
 553:Generated_Source\PSoC4/TimerTestMode.c **** {
 660              		.loc 1 553 0
 661              		.cfi_startproc
 662              		@ args = 0, pretend = 0, frame = 16
 663              		@ frame_needed = 1, uses_anonymous_args = 0
 664 0000 90B5     		push	{r4, r7, lr}
 665              		.cfi_def_cfa_offset 12
 666              		.cfi_offset 4, -12
 667              		.cfi_offset 7, -8
 668              		.cfi_offset 14, -4
 669 0002 85B0     		sub	sp, sp, #20
 670              		.cfi_def_cfa_offset 32
 671 0004 00AF     		add	r7, sp, #0
 672              		.cfi_def_cfa_register 7
 673 0006 7860     		str	r0, [r7, #4]
 554:Generated_Source\PSoC4/TimerTestMode.c ****     uint8 enableInterrupts;
 555:Generated_Source\PSoC4/TimerTestMode.c **** 
 556:Generated_Source\PSoC4/TimerTestMode.c ****     enableInterrupts = CyEnterCriticalSection();
 674              		.loc 1 556 0
 675 0008 0F23     		movs	r3, #15
 676 000a FC18     		adds	r4, r7, r3
 677 000c FFF7FEFF 		bl	CyEnterCriticalSection
 678 0010 0300     		movs	r3, r0
 679 0012 2370     		strb	r3, [r4]
 557:Generated_Source\PSoC4/TimerTestMode.c **** 
 558:Generated_Source\PSoC4/TimerTestMode.c ****     TimerTestMode_CONTROL_REG &= (uint32)~TimerTestMode_PRESCALER_MASK;
 680              		.loc 1 558 0
 681 0014 0C4B     		ldr	r3, .L36
 682 0016 0C4A     		ldr	r2, .L36
 683 0018 1268     		ldr	r2, [r2]
 684 001a 0C49     		ldr	r1, .L36+4
 685 001c 0A40     		ands	r2, r1
 686 001e 1A60     		str	r2, [r3]
 559:Generated_Source\PSoC4/TimerTestMode.c ****     TimerTestMode_CONTROL_REG |= ((uint32)((deadTime & TimerTestMode_8BIT_MASK) <<
 687              		.loc 1 559 0
 688 0020 094B     		ldr	r3, .L36
 689 0022 094A     		ldr	r2, .L36
 690 0024 1168     		ldr	r1, [r2]
 691 0026 7A68     		ldr	r2, [r7, #4]
 692 0028 1202     		lsls	r2, r2, #8
 693 002a 1204     		lsls	r2, r2, #16
 694 002c 120C     		lsrs	r2, r2, #16
 695 002e 0A43     		orrs	r2, r1
ARM GAS  C:\Users\Petro\AppData\Local\Temp\ccbTbeKH.s 			page 23


 696 0030 1A60     		str	r2, [r3]
 560:Generated_Source\PSoC4/TimerTestMode.c ****                                                           TimerTestMode_PRESCALER_SHIFT));
 561:Generated_Source\PSoC4/TimerTestMode.c **** 
 562:Generated_Source\PSoC4/TimerTestMode.c ****     CyExitCriticalSection(enableInterrupts);
 697              		.loc 1 562 0
 698 0032 0F23     		movs	r3, #15
 699 0034 FB18     		adds	r3, r7, r3
 700 0036 1B78     		ldrb	r3, [r3]
 701 0038 1800     		movs	r0, r3
 702 003a FFF7FEFF 		bl	CyExitCriticalSection
 563:Generated_Source\PSoC4/TimerTestMode.c **** }
 703              		.loc 1 563 0
 704 003e C046     		nop
 705 0040 BD46     		mov	sp, r7
 706 0042 05B0     		add	sp, sp, #20
 707              		@ sp needed
 708 0044 90BD     		pop	{r4, r7, pc}
 709              	.L37:
 710 0046 C046     		.align	2
 711              	.L36:
 712 0048 40012040 		.word	1075839296
 713 004c FF00FFFF 		.word	-65281
 714              		.cfi_endproc
 715              	.LFE13:
 716              		.size	TimerTestMode_SetPWMDeadTime, .-TimerTestMode_SetPWMDeadTime
 717              		.section	.text.TimerTestMode_SetPWMInvert,"ax",%progbits
 718              		.align	2
 719              		.global	TimerTestMode_SetPWMInvert
 720              		.code	16
 721              		.thumb_func
 722              		.type	TimerTestMode_SetPWMInvert, %function
 723              	TimerTestMode_SetPWMInvert:
 724              	.LFB14:
 564:Generated_Source\PSoC4/TimerTestMode.c **** 
 565:Generated_Source\PSoC4/TimerTestMode.c **** 
 566:Generated_Source\PSoC4/TimerTestMode.c **** /*******************************************************************************
 567:Generated_Source\PSoC4/TimerTestMode.c **** * Function Name: TimerTestMode_SetPWMInvert
 568:Generated_Source\PSoC4/TimerTestMode.c **** ********************************************************************************
 569:Generated_Source\PSoC4/TimerTestMode.c **** *
 570:Generated_Source\PSoC4/TimerTestMode.c **** * Summary:
 571:Generated_Source\PSoC4/TimerTestMode.c **** *  Writes the bits that control whether the line and line_n outputs are
 572:Generated_Source\PSoC4/TimerTestMode.c **** *  inverted from their normal output values.  This functionality is only
 573:Generated_Source\PSoC4/TimerTestMode.c **** *  applicable to the three PWM modes.
 574:Generated_Source\PSoC4/TimerTestMode.c **** *
 575:Generated_Source\PSoC4/TimerTestMode.c **** * Parameters:
 576:Generated_Source\PSoC4/TimerTestMode.c **** *  mask: Mask of outputs to invert.
 577:Generated_Source\PSoC4/TimerTestMode.c **** *   Values:
 578:Generated_Source\PSoC4/TimerTestMode.c **** *         - TimerTestMode_INVERT_LINE   - Inverts the line output
 579:Generated_Source\PSoC4/TimerTestMode.c **** *         - TimerTestMode_INVERT_LINE_N - Inverts the line_n output
 580:Generated_Source\PSoC4/TimerTestMode.c **** *
 581:Generated_Source\PSoC4/TimerTestMode.c **** * Return:
 582:Generated_Source\PSoC4/TimerTestMode.c **** *  None
 583:Generated_Source\PSoC4/TimerTestMode.c **** *
 584:Generated_Source\PSoC4/TimerTestMode.c **** *******************************************************************************/
 585:Generated_Source\PSoC4/TimerTestMode.c **** void TimerTestMode_SetPWMInvert(uint32 mask)
 586:Generated_Source\PSoC4/TimerTestMode.c **** {
 725              		.loc 1 586 0
ARM GAS  C:\Users\Petro\AppData\Local\Temp\ccbTbeKH.s 			page 24


 726              		.cfi_startproc
 727              		@ args = 0, pretend = 0, frame = 16
 728              		@ frame_needed = 1, uses_anonymous_args = 0
 729 0000 90B5     		push	{r4, r7, lr}
 730              		.cfi_def_cfa_offset 12
 731              		.cfi_offset 4, -12
 732              		.cfi_offset 7, -8
 733              		.cfi_offset 14, -4
 734 0002 85B0     		sub	sp, sp, #20
 735              		.cfi_def_cfa_offset 32
 736 0004 00AF     		add	r7, sp, #0
 737              		.cfi_def_cfa_register 7
 738 0006 7860     		str	r0, [r7, #4]
 587:Generated_Source\PSoC4/TimerTestMode.c ****     uint8 enableInterrupts;
 588:Generated_Source\PSoC4/TimerTestMode.c **** 
 589:Generated_Source\PSoC4/TimerTestMode.c ****     enableInterrupts = CyEnterCriticalSection();
 739              		.loc 1 589 0
 740 0008 0F23     		movs	r3, #15
 741 000a FC18     		adds	r4, r7, r3
 742 000c FFF7FEFF 		bl	CyEnterCriticalSection
 743 0010 0300     		movs	r3, r0
 744 0012 2370     		strb	r3, [r4]
 590:Generated_Source\PSoC4/TimerTestMode.c **** 
 591:Generated_Source\PSoC4/TimerTestMode.c ****     TimerTestMode_CONTROL_REG &= (uint32)~TimerTestMode_INV_OUT_MASK;
 745              		.loc 1 591 0
 746 0014 0A4B     		ldr	r3, .L39
 747 0016 0A4A     		ldr	r2, .L39
 748 0018 1268     		ldr	r2, [r2]
 749 001a 0A49     		ldr	r1, .L39+4
 750 001c 0A40     		ands	r2, r1
 751 001e 1A60     		str	r2, [r3]
 592:Generated_Source\PSoC4/TimerTestMode.c ****     TimerTestMode_CONTROL_REG |= mask;
 752              		.loc 1 592 0
 753 0020 074B     		ldr	r3, .L39
 754 0022 074A     		ldr	r2, .L39
 755 0024 1168     		ldr	r1, [r2]
 756 0026 7A68     		ldr	r2, [r7, #4]
 757 0028 0A43     		orrs	r2, r1
 758 002a 1A60     		str	r2, [r3]
 593:Generated_Source\PSoC4/TimerTestMode.c **** 
 594:Generated_Source\PSoC4/TimerTestMode.c ****     CyExitCriticalSection(enableInterrupts);
 759              		.loc 1 594 0
 760 002c 0F23     		movs	r3, #15
 761 002e FB18     		adds	r3, r7, r3
 762 0030 1B78     		ldrb	r3, [r3]
 763 0032 1800     		movs	r0, r3
 764 0034 FFF7FEFF 		bl	CyExitCriticalSection
 595:Generated_Source\PSoC4/TimerTestMode.c **** }
 765              		.loc 1 595 0
 766 0038 C046     		nop
 767 003a BD46     		mov	sp, r7
 768 003c 05B0     		add	sp, sp, #20
 769              		@ sp needed
 770 003e 90BD     		pop	{r4, r7, pc}
 771              	.L40:
 772              		.align	2
 773              	.L39:
ARM GAS  C:\Users\Petro\AppData\Local\Temp\ccbTbeKH.s 			page 25


 774 0040 40012040 		.word	1075839296
 775 0044 FFFFCFFF 		.word	-3145729
 776              		.cfi_endproc
 777              	.LFE14:
 778              		.size	TimerTestMode_SetPWMInvert, .-TimerTestMode_SetPWMInvert
 779              		.section	.text.TimerTestMode_WriteCounter,"ax",%progbits
 780              		.align	2
 781              		.global	TimerTestMode_WriteCounter
 782              		.code	16
 783              		.thumb_func
 784              		.type	TimerTestMode_WriteCounter, %function
 785              	TimerTestMode_WriteCounter:
 786              	.LFB15:
 596:Generated_Source\PSoC4/TimerTestMode.c **** 
 597:Generated_Source\PSoC4/TimerTestMode.c **** 
 598:Generated_Source\PSoC4/TimerTestMode.c **** 
 599:Generated_Source\PSoC4/TimerTestMode.c **** /*******************************************************************************
 600:Generated_Source\PSoC4/TimerTestMode.c **** * Function Name: TimerTestMode_WriteCounter
 601:Generated_Source\PSoC4/TimerTestMode.c **** ********************************************************************************
 602:Generated_Source\PSoC4/TimerTestMode.c **** *
 603:Generated_Source\PSoC4/TimerTestMode.c **** * Summary:
 604:Generated_Source\PSoC4/TimerTestMode.c **** *  Writes a new 16bit counter value directly into the counter register, thus
 605:Generated_Source\PSoC4/TimerTestMode.c **** *  setting the counter (not the period) to the value written. It is not
 606:Generated_Source\PSoC4/TimerTestMode.c **** *  advised to write to this field when the counter is running.
 607:Generated_Source\PSoC4/TimerTestMode.c **** *
 608:Generated_Source\PSoC4/TimerTestMode.c **** * Parameters:
 609:Generated_Source\PSoC4/TimerTestMode.c **** *  count: value to write
 610:Generated_Source\PSoC4/TimerTestMode.c **** *
 611:Generated_Source\PSoC4/TimerTestMode.c **** * Return:
 612:Generated_Source\PSoC4/TimerTestMode.c **** *  None
 613:Generated_Source\PSoC4/TimerTestMode.c **** *
 614:Generated_Source\PSoC4/TimerTestMode.c **** *******************************************************************************/
 615:Generated_Source\PSoC4/TimerTestMode.c **** void TimerTestMode_WriteCounter(uint32 count)
 616:Generated_Source\PSoC4/TimerTestMode.c **** {
 787              		.loc 1 616 0
 788              		.cfi_startproc
 789              		@ args = 0, pretend = 0, frame = 8
 790              		@ frame_needed = 1, uses_anonymous_args = 0
 791 0000 80B5     		push	{r7, lr}
 792              		.cfi_def_cfa_offset 8
 793              		.cfi_offset 7, -8
 794              		.cfi_offset 14, -4
 795 0002 82B0     		sub	sp, sp, #8
 796              		.cfi_def_cfa_offset 16
 797 0004 00AF     		add	r7, sp, #0
 798              		.cfi_def_cfa_register 7
 799 0006 7860     		str	r0, [r7, #4]
 617:Generated_Source\PSoC4/TimerTestMode.c ****     TimerTestMode_COUNTER_REG = (count & TimerTestMode_16BIT_MASK);
 800              		.loc 1 617 0
 801 0008 044B     		ldr	r3, .L42
 802 000a 7A68     		ldr	r2, [r7, #4]
 803 000c 1204     		lsls	r2, r2, #16
 804 000e 120C     		lsrs	r2, r2, #16
 805 0010 1A60     		str	r2, [r3]
 618:Generated_Source\PSoC4/TimerTestMode.c **** }
 806              		.loc 1 618 0
 807 0012 C046     		nop
ARM GAS  C:\Users\Petro\AppData\Local\Temp\ccbTbeKH.s 			page 26


 808 0014 BD46     		mov	sp, r7
 809 0016 02B0     		add	sp, sp, #8
 810              		@ sp needed
 811 0018 80BD     		pop	{r7, pc}
 812              	.L43:
 813 001a C046     		.align	2
 814              	.L42:
 815 001c 48012040 		.word	1075839304
 816              		.cfi_endproc
 817              	.LFE15:
 818              		.size	TimerTestMode_WriteCounter, .-TimerTestMode_WriteCounter
 819              		.section	.text.TimerTestMode_ReadCounter,"ax",%progbits
 820              		.align	2
 821              		.global	TimerTestMode_ReadCounter
 822              		.code	16
 823              		.thumb_func
 824              		.type	TimerTestMode_ReadCounter, %function
 825              	TimerTestMode_ReadCounter:
 826              	.LFB16:
 619:Generated_Source\PSoC4/TimerTestMode.c **** 
 620:Generated_Source\PSoC4/TimerTestMode.c **** 
 621:Generated_Source\PSoC4/TimerTestMode.c **** /*******************************************************************************
 622:Generated_Source\PSoC4/TimerTestMode.c **** * Function Name: TimerTestMode_ReadCounter
 623:Generated_Source\PSoC4/TimerTestMode.c **** ********************************************************************************
 624:Generated_Source\PSoC4/TimerTestMode.c **** *
 625:Generated_Source\PSoC4/TimerTestMode.c **** * Summary:
 626:Generated_Source\PSoC4/TimerTestMode.c **** *  Reads the current counter value.
 627:Generated_Source\PSoC4/TimerTestMode.c **** *
 628:Generated_Source\PSoC4/TimerTestMode.c **** * Parameters:
 629:Generated_Source\PSoC4/TimerTestMode.c **** *  None
 630:Generated_Source\PSoC4/TimerTestMode.c **** *
 631:Generated_Source\PSoC4/TimerTestMode.c **** * Return:
 632:Generated_Source\PSoC4/TimerTestMode.c **** *  Current counter value
 633:Generated_Source\PSoC4/TimerTestMode.c **** *
 634:Generated_Source\PSoC4/TimerTestMode.c **** *******************************************************************************/
 635:Generated_Source\PSoC4/TimerTestMode.c **** uint32 TimerTestMode_ReadCounter(void)
 636:Generated_Source\PSoC4/TimerTestMode.c **** {
 827              		.loc 1 636 0
 828              		.cfi_startproc
 829              		@ args = 0, pretend = 0, frame = 0
 830              		@ frame_needed = 1, uses_anonymous_args = 0
 831 0000 80B5     		push	{r7, lr}
 832              		.cfi_def_cfa_offset 8
 833              		.cfi_offset 7, -8
 834              		.cfi_offset 14, -4
 835 0002 00AF     		add	r7, sp, #0
 836              		.cfi_def_cfa_register 7
 637:Generated_Source\PSoC4/TimerTestMode.c ****     return (TimerTestMode_COUNTER_REG & TimerTestMode_16BIT_MASK);
 837              		.loc 1 637 0
 838 0004 034B     		ldr	r3, .L46
 839 0006 1B68     		ldr	r3, [r3]
 840 0008 1B04     		lsls	r3, r3, #16
 841 000a 1B0C     		lsrs	r3, r3, #16
 638:Generated_Source\PSoC4/TimerTestMode.c **** }
 842              		.loc 1 638 0
 843 000c 1800     		movs	r0, r3
 844 000e BD46     		mov	sp, r7
ARM GAS  C:\Users\Petro\AppData\Local\Temp\ccbTbeKH.s 			page 27


 845              		@ sp needed
 846 0010 80BD     		pop	{r7, pc}
 847              	.L47:
 848 0012 C046     		.align	2
 849              	.L46:
 850 0014 48012040 		.word	1075839304
 851              		.cfi_endproc
 852              	.LFE16:
 853              		.size	TimerTestMode_ReadCounter, .-TimerTestMode_ReadCounter
 854              		.section	.text.TimerTestMode_SetCounterMode,"ax",%progbits
 855              		.align	2
 856              		.global	TimerTestMode_SetCounterMode
 857              		.code	16
 858              		.thumb_func
 859              		.type	TimerTestMode_SetCounterMode, %function
 860              	TimerTestMode_SetCounterMode:
 861              	.LFB17:
 639:Generated_Source\PSoC4/TimerTestMode.c **** 
 640:Generated_Source\PSoC4/TimerTestMode.c **** 
 641:Generated_Source\PSoC4/TimerTestMode.c **** /*******************************************************************************
 642:Generated_Source\PSoC4/TimerTestMode.c **** * Function Name: TimerTestMode_SetCounterMode
 643:Generated_Source\PSoC4/TimerTestMode.c **** ********************************************************************************
 644:Generated_Source\PSoC4/TimerTestMode.c **** *
 645:Generated_Source\PSoC4/TimerTestMode.c **** * Summary:
 646:Generated_Source\PSoC4/TimerTestMode.c **** *  Sets the counter mode.  Applicable to all modes except Quadrature Decoder
 647:Generated_Source\PSoC4/TimerTestMode.c **** *  and the PWM with a pseudo random output.
 648:Generated_Source\PSoC4/TimerTestMode.c **** *
 649:Generated_Source\PSoC4/TimerTestMode.c **** * Parameters:
 650:Generated_Source\PSoC4/TimerTestMode.c **** *  counterMode: Enumerated counter type values
 651:Generated_Source\PSoC4/TimerTestMode.c **** *   Values:
 652:Generated_Source\PSoC4/TimerTestMode.c **** *     - TimerTestMode_COUNT_UP       - Counts up
 653:Generated_Source\PSoC4/TimerTestMode.c **** *     - TimerTestMode_COUNT_DOWN     - Counts down
 654:Generated_Source\PSoC4/TimerTestMode.c **** *     - TimerTestMode_COUNT_UPDOWN0  - Counts up and down. Terminal count
 655:Generated_Source\PSoC4/TimerTestMode.c **** *                                         generated when counter reaches 0
 656:Generated_Source\PSoC4/TimerTestMode.c **** *     - TimerTestMode_COUNT_UPDOWN1  - Counts up and down. Terminal count
 657:Generated_Source\PSoC4/TimerTestMode.c **** *                                         generated both when counter reaches 0
 658:Generated_Source\PSoC4/TimerTestMode.c **** *                                         and period
 659:Generated_Source\PSoC4/TimerTestMode.c **** *
 660:Generated_Source\PSoC4/TimerTestMode.c **** * Return:
 661:Generated_Source\PSoC4/TimerTestMode.c **** *  None
 662:Generated_Source\PSoC4/TimerTestMode.c **** *
 663:Generated_Source\PSoC4/TimerTestMode.c **** *******************************************************************************/
 664:Generated_Source\PSoC4/TimerTestMode.c **** void TimerTestMode_SetCounterMode(uint32 counterMode)
 665:Generated_Source\PSoC4/TimerTestMode.c **** {
 862              		.loc 1 665 0
 863              		.cfi_startproc
 864              		@ args = 0, pretend = 0, frame = 16
 865              		@ frame_needed = 1, uses_anonymous_args = 0
 866 0000 90B5     		push	{r4, r7, lr}
 867              		.cfi_def_cfa_offset 12
 868              		.cfi_offset 4, -12
 869              		.cfi_offset 7, -8
 870              		.cfi_offset 14, -4
 871 0002 85B0     		sub	sp, sp, #20
 872              		.cfi_def_cfa_offset 32
 873 0004 00AF     		add	r7, sp, #0
 874              		.cfi_def_cfa_register 7
ARM GAS  C:\Users\Petro\AppData\Local\Temp\ccbTbeKH.s 			page 28


 875 0006 7860     		str	r0, [r7, #4]
 666:Generated_Source\PSoC4/TimerTestMode.c ****     uint8 enableInterrupts;
 667:Generated_Source\PSoC4/TimerTestMode.c **** 
 668:Generated_Source\PSoC4/TimerTestMode.c ****     enableInterrupts = CyEnterCriticalSection();
 876              		.loc 1 668 0
 877 0008 0F23     		movs	r3, #15
 878 000a FC18     		adds	r4, r7, r3
 879 000c FFF7FEFF 		bl	CyEnterCriticalSection
 880 0010 0300     		movs	r3, r0
 881 0012 2370     		strb	r3, [r4]
 669:Generated_Source\PSoC4/TimerTestMode.c **** 
 670:Generated_Source\PSoC4/TimerTestMode.c ****     TimerTestMode_CONTROL_REG &= (uint32)~TimerTestMode_UPDOWN_MASK;
 882              		.loc 1 670 0
 883 0014 0A4B     		ldr	r3, .L49
 884 0016 0A4A     		ldr	r2, .L49
 885 0018 1268     		ldr	r2, [r2]
 886 001a 0A49     		ldr	r1, .L49+4
 887 001c 0A40     		ands	r2, r1
 888 001e 1A60     		str	r2, [r3]
 671:Generated_Source\PSoC4/TimerTestMode.c ****     TimerTestMode_CONTROL_REG |= counterMode;
 889              		.loc 1 671 0
 890 0020 074B     		ldr	r3, .L49
 891 0022 074A     		ldr	r2, .L49
 892 0024 1168     		ldr	r1, [r2]
 893 0026 7A68     		ldr	r2, [r7, #4]
 894 0028 0A43     		orrs	r2, r1
 895 002a 1A60     		str	r2, [r3]
 672:Generated_Source\PSoC4/TimerTestMode.c **** 
 673:Generated_Source\PSoC4/TimerTestMode.c ****     CyExitCriticalSection(enableInterrupts);
 896              		.loc 1 673 0
 897 002c 0F23     		movs	r3, #15
 898 002e FB18     		adds	r3, r7, r3
 899 0030 1B78     		ldrb	r3, [r3]
 900 0032 1800     		movs	r0, r3
 901 0034 FFF7FEFF 		bl	CyExitCriticalSection
 674:Generated_Source\PSoC4/TimerTestMode.c **** }
 902              		.loc 1 674 0
 903 0038 C046     		nop
 904 003a BD46     		mov	sp, r7
 905 003c 05B0     		add	sp, sp, #20
 906              		@ sp needed
 907 003e 90BD     		pop	{r4, r7, pc}
 908              	.L50:
 909              		.align	2
 910              	.L49:
 911 0040 40012040 		.word	1075839296
 912 0044 FFFFFCFF 		.word	-196609
 913              		.cfi_endproc
 914              	.LFE17:
 915              		.size	TimerTestMode_SetCounterMode, .-TimerTestMode_SetCounterMode
 916              		.section	.text.TimerTestMode_WritePeriod,"ax",%progbits
 917              		.align	2
 918              		.global	TimerTestMode_WritePeriod
 919              		.code	16
 920              		.thumb_func
 921              		.type	TimerTestMode_WritePeriod, %function
 922              	TimerTestMode_WritePeriod:
ARM GAS  C:\Users\Petro\AppData\Local\Temp\ccbTbeKH.s 			page 29


 923              	.LFB18:
 675:Generated_Source\PSoC4/TimerTestMode.c **** 
 676:Generated_Source\PSoC4/TimerTestMode.c **** 
 677:Generated_Source\PSoC4/TimerTestMode.c **** /*******************************************************************************
 678:Generated_Source\PSoC4/TimerTestMode.c **** * Function Name: TimerTestMode_WritePeriod
 679:Generated_Source\PSoC4/TimerTestMode.c **** ********************************************************************************
 680:Generated_Source\PSoC4/TimerTestMode.c **** *
 681:Generated_Source\PSoC4/TimerTestMode.c **** * Summary:
 682:Generated_Source\PSoC4/TimerTestMode.c **** *  Writes the 16 bit period register with the new period value.
 683:Generated_Source\PSoC4/TimerTestMode.c **** *  To cause the counter to count for N cycles this register should be written
 684:Generated_Source\PSoC4/TimerTestMode.c **** *  with N-1 (counts from 0 to period inclusive).
 685:Generated_Source\PSoC4/TimerTestMode.c **** *
 686:Generated_Source\PSoC4/TimerTestMode.c **** * Parameters:
 687:Generated_Source\PSoC4/TimerTestMode.c **** *  period: Period value
 688:Generated_Source\PSoC4/TimerTestMode.c **** *
 689:Generated_Source\PSoC4/TimerTestMode.c **** * Return:
 690:Generated_Source\PSoC4/TimerTestMode.c **** *  None
 691:Generated_Source\PSoC4/TimerTestMode.c **** *
 692:Generated_Source\PSoC4/TimerTestMode.c **** *******************************************************************************/
 693:Generated_Source\PSoC4/TimerTestMode.c **** void TimerTestMode_WritePeriod(uint32 period)
 694:Generated_Source\PSoC4/TimerTestMode.c **** {
 924              		.loc 1 694 0
 925              		.cfi_startproc
 926              		@ args = 0, pretend = 0, frame = 8
 927              		@ frame_needed = 1, uses_anonymous_args = 0
 928 0000 80B5     		push	{r7, lr}
 929              		.cfi_def_cfa_offset 8
 930              		.cfi_offset 7, -8
 931              		.cfi_offset 14, -4
 932 0002 82B0     		sub	sp, sp, #8
 933              		.cfi_def_cfa_offset 16
 934 0004 00AF     		add	r7, sp, #0
 935              		.cfi_def_cfa_register 7
 936 0006 7860     		str	r0, [r7, #4]
 695:Generated_Source\PSoC4/TimerTestMode.c ****     TimerTestMode_PERIOD_REG = (period & TimerTestMode_16BIT_MASK);
 937              		.loc 1 695 0
 938 0008 044B     		ldr	r3, .L52
 939 000a 7A68     		ldr	r2, [r7, #4]
 940 000c 1204     		lsls	r2, r2, #16
 941 000e 120C     		lsrs	r2, r2, #16
 942 0010 1A60     		str	r2, [r3]
 696:Generated_Source\PSoC4/TimerTestMode.c **** }
 943              		.loc 1 696 0
 944 0012 C046     		nop
 945 0014 BD46     		mov	sp, r7
 946 0016 02B0     		add	sp, sp, #8
 947              		@ sp needed
 948 0018 80BD     		pop	{r7, pc}
 949              	.L53:
 950 001a C046     		.align	2
 951              	.L52:
 952 001c 54012040 		.word	1075839316
 953              		.cfi_endproc
 954              	.LFE18:
 955              		.size	TimerTestMode_WritePeriod, .-TimerTestMode_WritePeriod
 956              		.section	.text.TimerTestMode_ReadPeriod,"ax",%progbits
 957              		.align	2
ARM GAS  C:\Users\Petro\AppData\Local\Temp\ccbTbeKH.s 			page 30


 958              		.global	TimerTestMode_ReadPeriod
 959              		.code	16
 960              		.thumb_func
 961              		.type	TimerTestMode_ReadPeriod, %function
 962              	TimerTestMode_ReadPeriod:
 963              	.LFB19:
 697:Generated_Source\PSoC4/TimerTestMode.c **** 
 698:Generated_Source\PSoC4/TimerTestMode.c **** 
 699:Generated_Source\PSoC4/TimerTestMode.c **** /*******************************************************************************
 700:Generated_Source\PSoC4/TimerTestMode.c **** * Function Name: TimerTestMode_ReadPeriod
 701:Generated_Source\PSoC4/TimerTestMode.c **** ********************************************************************************
 702:Generated_Source\PSoC4/TimerTestMode.c **** *
 703:Generated_Source\PSoC4/TimerTestMode.c **** * Summary:
 704:Generated_Source\PSoC4/TimerTestMode.c **** *  Reads the 16 bit period register.
 705:Generated_Source\PSoC4/TimerTestMode.c **** *
 706:Generated_Source\PSoC4/TimerTestMode.c **** * Parameters:
 707:Generated_Source\PSoC4/TimerTestMode.c **** *  None
 708:Generated_Source\PSoC4/TimerTestMode.c **** *
 709:Generated_Source\PSoC4/TimerTestMode.c **** * Return:
 710:Generated_Source\PSoC4/TimerTestMode.c **** *  Period value
 711:Generated_Source\PSoC4/TimerTestMode.c **** *
 712:Generated_Source\PSoC4/TimerTestMode.c **** *******************************************************************************/
 713:Generated_Source\PSoC4/TimerTestMode.c **** uint32 TimerTestMode_ReadPeriod(void)
 714:Generated_Source\PSoC4/TimerTestMode.c **** {
 964              		.loc 1 714 0
 965              		.cfi_startproc
 966              		@ args = 0, pretend = 0, frame = 0
 967              		@ frame_needed = 1, uses_anonymous_args = 0
 968 0000 80B5     		push	{r7, lr}
 969              		.cfi_def_cfa_offset 8
 970              		.cfi_offset 7, -8
 971              		.cfi_offset 14, -4
 972 0002 00AF     		add	r7, sp, #0
 973              		.cfi_def_cfa_register 7
 715:Generated_Source\PSoC4/TimerTestMode.c ****     return (TimerTestMode_PERIOD_REG & TimerTestMode_16BIT_MASK);
 974              		.loc 1 715 0
 975 0004 034B     		ldr	r3, .L56
 976 0006 1B68     		ldr	r3, [r3]
 977 0008 1B04     		lsls	r3, r3, #16
 978 000a 1B0C     		lsrs	r3, r3, #16
 716:Generated_Source\PSoC4/TimerTestMode.c **** }
 979              		.loc 1 716 0
 980 000c 1800     		movs	r0, r3
 981 000e BD46     		mov	sp, r7
 982              		@ sp needed
 983 0010 80BD     		pop	{r7, pc}
 984              	.L57:
 985 0012 C046     		.align	2
 986              	.L56:
 987 0014 54012040 		.word	1075839316
 988              		.cfi_endproc
 989              	.LFE19:
 990              		.size	TimerTestMode_ReadPeriod, .-TimerTestMode_ReadPeriod
 991              		.section	.text.TimerTestMode_SetCompareSwap,"ax",%progbits
 992              		.align	2
 993              		.global	TimerTestMode_SetCompareSwap
 994              		.code	16
ARM GAS  C:\Users\Petro\AppData\Local\Temp\ccbTbeKH.s 			page 31


 995              		.thumb_func
 996              		.type	TimerTestMode_SetCompareSwap, %function
 997              	TimerTestMode_SetCompareSwap:
 998              	.LFB20:
 717:Generated_Source\PSoC4/TimerTestMode.c **** 
 718:Generated_Source\PSoC4/TimerTestMode.c **** 
 719:Generated_Source\PSoC4/TimerTestMode.c **** /*******************************************************************************
 720:Generated_Source\PSoC4/TimerTestMode.c **** * Function Name: TimerTestMode_SetCompareSwap
 721:Generated_Source\PSoC4/TimerTestMode.c **** ********************************************************************************
 722:Generated_Source\PSoC4/TimerTestMode.c **** *
 723:Generated_Source\PSoC4/TimerTestMode.c **** * Summary:
 724:Generated_Source\PSoC4/TimerTestMode.c **** *  Writes the register that controls whether the compare registers are
 725:Generated_Source\PSoC4/TimerTestMode.c **** *  swapped. When enabled in the Timer/Counter mode(without capture) the swap
 726:Generated_Source\PSoC4/TimerTestMode.c **** *  occurs at a TC event. In the PWM mode the swap occurs at the next TC event
 727:Generated_Source\PSoC4/TimerTestMode.c **** *  following a hardware switch event.
 728:Generated_Source\PSoC4/TimerTestMode.c **** *
 729:Generated_Source\PSoC4/TimerTestMode.c **** * Parameters:
 730:Generated_Source\PSoC4/TimerTestMode.c **** *  swapEnable
 731:Generated_Source\PSoC4/TimerTestMode.c **** *   Values:
 732:Generated_Source\PSoC4/TimerTestMode.c **** *     - 0 - Disable swap
 733:Generated_Source\PSoC4/TimerTestMode.c **** *     - 1 - Enable swap
 734:Generated_Source\PSoC4/TimerTestMode.c **** *
 735:Generated_Source\PSoC4/TimerTestMode.c **** * Return:
 736:Generated_Source\PSoC4/TimerTestMode.c **** *  None
 737:Generated_Source\PSoC4/TimerTestMode.c **** *
 738:Generated_Source\PSoC4/TimerTestMode.c **** *******************************************************************************/
 739:Generated_Source\PSoC4/TimerTestMode.c **** void TimerTestMode_SetCompareSwap(uint32 swapEnable)
 740:Generated_Source\PSoC4/TimerTestMode.c **** {
 999              		.loc 1 740 0
 1000              		.cfi_startproc
 1001              		@ args = 0, pretend = 0, frame = 16
 1002              		@ frame_needed = 1, uses_anonymous_args = 0
 1003 0000 90B5     		push	{r4, r7, lr}
 1004              		.cfi_def_cfa_offset 12
 1005              		.cfi_offset 4, -12
 1006              		.cfi_offset 7, -8
 1007              		.cfi_offset 14, -4
 1008 0002 85B0     		sub	sp, sp, #20
 1009              		.cfi_def_cfa_offset 32
 1010 0004 00AF     		add	r7, sp, #0
 1011              		.cfi_def_cfa_register 7
 1012 0006 7860     		str	r0, [r7, #4]
 741:Generated_Source\PSoC4/TimerTestMode.c ****     uint8 enableInterrupts;
 742:Generated_Source\PSoC4/TimerTestMode.c **** 
 743:Generated_Source\PSoC4/TimerTestMode.c ****     enableInterrupts = CyEnterCriticalSection();
 1013              		.loc 1 743 0
 1014 0008 0F23     		movs	r3, #15
 1015 000a FC18     		adds	r4, r7, r3
 1016 000c FFF7FEFF 		bl	CyEnterCriticalSection
 1017 0010 0300     		movs	r3, r0
 1018 0012 2370     		strb	r3, [r4]
 744:Generated_Source\PSoC4/TimerTestMode.c **** 
 745:Generated_Source\PSoC4/TimerTestMode.c ****     TimerTestMode_CONTROL_REG &= (uint32)~TimerTestMode_RELOAD_CC_MASK;
 1019              		.loc 1 745 0
 1020 0014 0B4B     		ldr	r3, .L59
 1021 0016 0B4A     		ldr	r2, .L59
 1022 0018 1268     		ldr	r2, [r2]
ARM GAS  C:\Users\Petro\AppData\Local\Temp\ccbTbeKH.s 			page 32


 1023 001a 0121     		movs	r1, #1
 1024 001c 8A43     		bics	r2, r1
 1025 001e 1A60     		str	r2, [r3]
 746:Generated_Source\PSoC4/TimerTestMode.c ****     TimerTestMode_CONTROL_REG |= (swapEnable & TimerTestMode_1BIT_MASK);
 1026              		.loc 1 746 0
 1027 0020 084B     		ldr	r3, .L59
 1028 0022 084A     		ldr	r2, .L59
 1029 0024 1168     		ldr	r1, [r2]
 1030 0026 7A68     		ldr	r2, [r7, #4]
 1031 0028 0120     		movs	r0, #1
 1032 002a 0240     		ands	r2, r0
 1033 002c 0A43     		orrs	r2, r1
 1034 002e 1A60     		str	r2, [r3]
 747:Generated_Source\PSoC4/TimerTestMode.c **** 
 748:Generated_Source\PSoC4/TimerTestMode.c ****     CyExitCriticalSection(enableInterrupts);
 1035              		.loc 1 748 0
 1036 0030 0F23     		movs	r3, #15
 1037 0032 FB18     		adds	r3, r7, r3
 1038 0034 1B78     		ldrb	r3, [r3]
 1039 0036 1800     		movs	r0, r3
 1040 0038 FFF7FEFF 		bl	CyExitCriticalSection
 749:Generated_Source\PSoC4/TimerTestMode.c **** }
 1041              		.loc 1 749 0
 1042 003c C046     		nop
 1043 003e BD46     		mov	sp, r7
 1044 0040 05B0     		add	sp, sp, #20
 1045              		@ sp needed
 1046 0042 90BD     		pop	{r4, r7, pc}
 1047              	.L60:
 1048              		.align	2
 1049              	.L59:
 1050 0044 40012040 		.word	1075839296
 1051              		.cfi_endproc
 1052              	.LFE20:
 1053              		.size	TimerTestMode_SetCompareSwap, .-TimerTestMode_SetCompareSwap
 1054              		.section	.text.TimerTestMode_WritePeriodBuf,"ax",%progbits
 1055              		.align	2
 1056              		.global	TimerTestMode_WritePeriodBuf
 1057              		.code	16
 1058              		.thumb_func
 1059              		.type	TimerTestMode_WritePeriodBuf, %function
 1060              	TimerTestMode_WritePeriodBuf:
 1061              	.LFB21:
 750:Generated_Source\PSoC4/TimerTestMode.c **** 
 751:Generated_Source\PSoC4/TimerTestMode.c **** 
 752:Generated_Source\PSoC4/TimerTestMode.c **** /*******************************************************************************
 753:Generated_Source\PSoC4/TimerTestMode.c **** * Function Name: TimerTestMode_WritePeriodBuf
 754:Generated_Source\PSoC4/TimerTestMode.c **** ********************************************************************************
 755:Generated_Source\PSoC4/TimerTestMode.c **** *
 756:Generated_Source\PSoC4/TimerTestMode.c **** * Summary:
 757:Generated_Source\PSoC4/TimerTestMode.c **** *  Writes the 16 bit period buf register with the new period value.
 758:Generated_Source\PSoC4/TimerTestMode.c **** *
 759:Generated_Source\PSoC4/TimerTestMode.c **** * Parameters:
 760:Generated_Source\PSoC4/TimerTestMode.c **** *  periodBuf: Period value
 761:Generated_Source\PSoC4/TimerTestMode.c **** *
 762:Generated_Source\PSoC4/TimerTestMode.c **** * Return:
 763:Generated_Source\PSoC4/TimerTestMode.c **** *  None
ARM GAS  C:\Users\Petro\AppData\Local\Temp\ccbTbeKH.s 			page 33


 764:Generated_Source\PSoC4/TimerTestMode.c **** *
 765:Generated_Source\PSoC4/TimerTestMode.c **** *******************************************************************************/
 766:Generated_Source\PSoC4/TimerTestMode.c **** void TimerTestMode_WritePeriodBuf(uint32 periodBuf)
 767:Generated_Source\PSoC4/TimerTestMode.c **** {
 1062              		.loc 1 767 0
 1063              		.cfi_startproc
 1064              		@ args = 0, pretend = 0, frame = 8
 1065              		@ frame_needed = 1, uses_anonymous_args = 0
 1066 0000 80B5     		push	{r7, lr}
 1067              		.cfi_def_cfa_offset 8
 1068              		.cfi_offset 7, -8
 1069              		.cfi_offset 14, -4
 1070 0002 82B0     		sub	sp, sp, #8
 1071              		.cfi_def_cfa_offset 16
 1072 0004 00AF     		add	r7, sp, #0
 1073              		.cfi_def_cfa_register 7
 1074 0006 7860     		str	r0, [r7, #4]
 768:Generated_Source\PSoC4/TimerTestMode.c ****     TimerTestMode_PERIOD_BUF_REG = (periodBuf & TimerTestMode_16BIT_MASK);
 1075              		.loc 1 768 0
 1076 0008 044B     		ldr	r3, .L62
 1077 000a 7A68     		ldr	r2, [r7, #4]
 1078 000c 1204     		lsls	r2, r2, #16
 1079 000e 120C     		lsrs	r2, r2, #16
 1080 0010 1A60     		str	r2, [r3]
 769:Generated_Source\PSoC4/TimerTestMode.c **** }
 1081              		.loc 1 769 0
 1082 0012 C046     		nop
 1083 0014 BD46     		mov	sp, r7
 1084 0016 02B0     		add	sp, sp, #8
 1085              		@ sp needed
 1086 0018 80BD     		pop	{r7, pc}
 1087              	.L63:
 1088 001a C046     		.align	2
 1089              	.L62:
 1090 001c 58012040 		.word	1075839320
 1091              		.cfi_endproc
 1092              	.LFE21:
 1093              		.size	TimerTestMode_WritePeriodBuf, .-TimerTestMode_WritePeriodBuf
 1094              		.section	.text.TimerTestMode_ReadPeriodBuf,"ax",%progbits
 1095              		.align	2
 1096              		.global	TimerTestMode_ReadPeriodBuf
 1097              		.code	16
 1098              		.thumb_func
 1099              		.type	TimerTestMode_ReadPeriodBuf, %function
 1100              	TimerTestMode_ReadPeriodBuf:
 1101              	.LFB22:
 770:Generated_Source\PSoC4/TimerTestMode.c **** 
 771:Generated_Source\PSoC4/TimerTestMode.c **** 
 772:Generated_Source\PSoC4/TimerTestMode.c **** /*******************************************************************************
 773:Generated_Source\PSoC4/TimerTestMode.c **** * Function Name: TimerTestMode_ReadPeriodBuf
 774:Generated_Source\PSoC4/TimerTestMode.c **** ********************************************************************************
 775:Generated_Source\PSoC4/TimerTestMode.c **** *
 776:Generated_Source\PSoC4/TimerTestMode.c **** * Summary:
 777:Generated_Source\PSoC4/TimerTestMode.c **** *  Reads the 16 bit period buf register.
 778:Generated_Source\PSoC4/TimerTestMode.c **** *
 779:Generated_Source\PSoC4/TimerTestMode.c **** * Parameters:
 780:Generated_Source\PSoC4/TimerTestMode.c **** *  None
ARM GAS  C:\Users\Petro\AppData\Local\Temp\ccbTbeKH.s 			page 34


 781:Generated_Source\PSoC4/TimerTestMode.c **** *
 782:Generated_Source\PSoC4/TimerTestMode.c **** * Return:
 783:Generated_Source\PSoC4/TimerTestMode.c **** *  Period value
 784:Generated_Source\PSoC4/TimerTestMode.c **** *
 785:Generated_Source\PSoC4/TimerTestMode.c **** *******************************************************************************/
 786:Generated_Source\PSoC4/TimerTestMode.c **** uint32 TimerTestMode_ReadPeriodBuf(void)
 787:Generated_Source\PSoC4/TimerTestMode.c **** {
 1102              		.loc 1 787 0
 1103              		.cfi_startproc
 1104              		@ args = 0, pretend = 0, frame = 0
 1105              		@ frame_needed = 1, uses_anonymous_args = 0
 1106 0000 80B5     		push	{r7, lr}
 1107              		.cfi_def_cfa_offset 8
 1108              		.cfi_offset 7, -8
 1109              		.cfi_offset 14, -4
 1110 0002 00AF     		add	r7, sp, #0
 1111              		.cfi_def_cfa_register 7
 788:Generated_Source\PSoC4/TimerTestMode.c ****     return (TimerTestMode_PERIOD_BUF_REG & TimerTestMode_16BIT_MASK);
 1112              		.loc 1 788 0
 1113 0004 034B     		ldr	r3, .L66
 1114 0006 1B68     		ldr	r3, [r3]
 1115 0008 1B04     		lsls	r3, r3, #16
 1116 000a 1B0C     		lsrs	r3, r3, #16
 789:Generated_Source\PSoC4/TimerTestMode.c **** }
 1117              		.loc 1 789 0
 1118 000c 1800     		movs	r0, r3
 1119 000e BD46     		mov	sp, r7
 1120              		@ sp needed
 1121 0010 80BD     		pop	{r7, pc}
 1122              	.L67:
 1123 0012 C046     		.align	2
 1124              	.L66:
 1125 0014 58012040 		.word	1075839320
 1126              		.cfi_endproc
 1127              	.LFE22:
 1128              		.size	TimerTestMode_ReadPeriodBuf, .-TimerTestMode_ReadPeriodBuf
 1129              		.section	.text.TimerTestMode_SetPeriodSwap,"ax",%progbits
 1130              		.align	2
 1131              		.global	TimerTestMode_SetPeriodSwap
 1132              		.code	16
 1133              		.thumb_func
 1134              		.type	TimerTestMode_SetPeriodSwap, %function
 1135              	TimerTestMode_SetPeriodSwap:
 1136              	.LFB23:
 790:Generated_Source\PSoC4/TimerTestMode.c **** 
 791:Generated_Source\PSoC4/TimerTestMode.c **** 
 792:Generated_Source\PSoC4/TimerTestMode.c **** /*******************************************************************************
 793:Generated_Source\PSoC4/TimerTestMode.c **** * Function Name: TimerTestMode_SetPeriodSwap
 794:Generated_Source\PSoC4/TimerTestMode.c **** ********************************************************************************
 795:Generated_Source\PSoC4/TimerTestMode.c **** *
 796:Generated_Source\PSoC4/TimerTestMode.c **** * Summary:
 797:Generated_Source\PSoC4/TimerTestMode.c **** *  Writes the register that controls whether the period registers are
 798:Generated_Source\PSoC4/TimerTestMode.c **** *  swapped. When enabled in Timer/Counter mode the swap occurs at a TC event.
 799:Generated_Source\PSoC4/TimerTestMode.c **** *  In the PWM mode the swap occurs at the next TC event following a hardware
 800:Generated_Source\PSoC4/TimerTestMode.c **** *  switch event.
 801:Generated_Source\PSoC4/TimerTestMode.c **** *
 802:Generated_Source\PSoC4/TimerTestMode.c **** * Parameters:
ARM GAS  C:\Users\Petro\AppData\Local\Temp\ccbTbeKH.s 			page 35


 803:Generated_Source\PSoC4/TimerTestMode.c **** *  swapEnable
 804:Generated_Source\PSoC4/TimerTestMode.c **** *   Values:
 805:Generated_Source\PSoC4/TimerTestMode.c **** *     - 0 - Disable swap
 806:Generated_Source\PSoC4/TimerTestMode.c **** *     - 1 - Enable swap
 807:Generated_Source\PSoC4/TimerTestMode.c **** *
 808:Generated_Source\PSoC4/TimerTestMode.c **** * Return:
 809:Generated_Source\PSoC4/TimerTestMode.c **** *  None
 810:Generated_Source\PSoC4/TimerTestMode.c **** *
 811:Generated_Source\PSoC4/TimerTestMode.c **** *******************************************************************************/
 812:Generated_Source\PSoC4/TimerTestMode.c **** void TimerTestMode_SetPeriodSwap(uint32 swapEnable)
 813:Generated_Source\PSoC4/TimerTestMode.c **** {
 1137              		.loc 1 813 0
 1138              		.cfi_startproc
 1139              		@ args = 0, pretend = 0, frame = 16
 1140              		@ frame_needed = 1, uses_anonymous_args = 0
 1141 0000 90B5     		push	{r4, r7, lr}
 1142              		.cfi_def_cfa_offset 12
 1143              		.cfi_offset 4, -12
 1144              		.cfi_offset 7, -8
 1145              		.cfi_offset 14, -4
 1146 0002 85B0     		sub	sp, sp, #20
 1147              		.cfi_def_cfa_offset 32
 1148 0004 00AF     		add	r7, sp, #0
 1149              		.cfi_def_cfa_register 7
 1150 0006 7860     		str	r0, [r7, #4]
 814:Generated_Source\PSoC4/TimerTestMode.c ****     uint8 enableInterrupts;
 815:Generated_Source\PSoC4/TimerTestMode.c **** 
 816:Generated_Source\PSoC4/TimerTestMode.c ****     enableInterrupts = CyEnterCriticalSection();
 1151              		.loc 1 816 0
 1152 0008 0F23     		movs	r3, #15
 1153 000a FC18     		adds	r4, r7, r3
 1154 000c FFF7FEFF 		bl	CyEnterCriticalSection
 1155 0010 0300     		movs	r3, r0
 1156 0012 2370     		strb	r3, [r4]
 817:Generated_Source\PSoC4/TimerTestMode.c **** 
 818:Generated_Source\PSoC4/TimerTestMode.c ****     TimerTestMode_CONTROL_REG &= (uint32)~TimerTestMode_RELOAD_PERIOD_MASK;
 1157              		.loc 1 818 0
 1158 0014 0C4B     		ldr	r3, .L69
 1159 0016 0C4A     		ldr	r2, .L69
 1160 0018 1268     		ldr	r2, [r2]
 1161 001a 0221     		movs	r1, #2
 1162 001c 8A43     		bics	r2, r1
 1163 001e 1A60     		str	r2, [r3]
 819:Generated_Source\PSoC4/TimerTestMode.c ****     TimerTestMode_CONTROL_REG |= ((uint32)((swapEnable & TimerTestMode_1BIT_MASK) <<
 1164              		.loc 1 819 0
 1165 0020 094B     		ldr	r3, .L69
 1166 0022 094A     		ldr	r2, .L69
 1167 0024 1168     		ldr	r1, [r2]
 1168 0026 7A68     		ldr	r2, [r7, #4]
 1169 0028 5200     		lsls	r2, r2, #1
 1170 002a 0220     		movs	r0, #2
 1171 002c 0240     		ands	r2, r0
 1172 002e 0A43     		orrs	r2, r1
 1173 0030 1A60     		str	r2, [r3]
 820:Generated_Source\PSoC4/TimerTestMode.c ****                                                             TimerTestMode_RELOAD_PERIOD_SHIFT));
 821:Generated_Source\PSoC4/TimerTestMode.c **** 
 822:Generated_Source\PSoC4/TimerTestMode.c ****     CyExitCriticalSection(enableInterrupts);
ARM GAS  C:\Users\Petro\AppData\Local\Temp\ccbTbeKH.s 			page 36


 1174              		.loc 1 822 0
 1175 0032 0F23     		movs	r3, #15
 1176 0034 FB18     		adds	r3, r7, r3
 1177 0036 1B78     		ldrb	r3, [r3]
 1178 0038 1800     		movs	r0, r3
 1179 003a FFF7FEFF 		bl	CyExitCriticalSection
 823:Generated_Source\PSoC4/TimerTestMode.c **** }
 1180              		.loc 1 823 0
 1181 003e C046     		nop
 1182 0040 BD46     		mov	sp, r7
 1183 0042 05B0     		add	sp, sp, #20
 1184              		@ sp needed
 1185 0044 90BD     		pop	{r4, r7, pc}
 1186              	.L70:
 1187 0046 C046     		.align	2
 1188              	.L69:
 1189 0048 40012040 		.word	1075839296
 1190              		.cfi_endproc
 1191              	.LFE23:
 1192              		.size	TimerTestMode_SetPeriodSwap, .-TimerTestMode_SetPeriodSwap
 1193              		.section	.text.TimerTestMode_WriteCompare,"ax",%progbits
 1194              		.align	2
 1195              		.global	TimerTestMode_WriteCompare
 1196              		.code	16
 1197              		.thumb_func
 1198              		.type	TimerTestMode_WriteCompare, %function
 1199              	TimerTestMode_WriteCompare:
 1200              	.LFB24:
 824:Generated_Source\PSoC4/TimerTestMode.c **** 
 825:Generated_Source\PSoC4/TimerTestMode.c **** 
 826:Generated_Source\PSoC4/TimerTestMode.c **** /*******************************************************************************
 827:Generated_Source\PSoC4/TimerTestMode.c **** * Function Name: TimerTestMode_WriteCompare
 828:Generated_Source\PSoC4/TimerTestMode.c **** ********************************************************************************
 829:Generated_Source\PSoC4/TimerTestMode.c **** *
 830:Generated_Source\PSoC4/TimerTestMode.c **** * Summary:
 831:Generated_Source\PSoC4/TimerTestMode.c **** *  Writes the 16 bit compare register with the new compare value. Not
 832:Generated_Source\PSoC4/TimerTestMode.c **** *  applicable for Timer/Counter with Capture or in Quadrature Decoder modes.
 833:Generated_Source\PSoC4/TimerTestMode.c **** *
 834:Generated_Source\PSoC4/TimerTestMode.c **** * Parameters:
 835:Generated_Source\PSoC4/TimerTestMode.c **** *  compare: Compare value
 836:Generated_Source\PSoC4/TimerTestMode.c **** *
 837:Generated_Source\PSoC4/TimerTestMode.c **** * Return:
 838:Generated_Source\PSoC4/TimerTestMode.c **** *  None
 839:Generated_Source\PSoC4/TimerTestMode.c **** *
 840:Generated_Source\PSoC4/TimerTestMode.c **** * Note:
 841:Generated_Source\PSoC4/TimerTestMode.c **** *  It is not recommended to use the value equal to "0" or equal to 
 842:Generated_Source\PSoC4/TimerTestMode.c **** *  "period value" in Center or Asymmetric align PWM modes on the 
 843:Generated_Source\PSoC4/TimerTestMode.c **** *  PSoC 4100/PSoC 4200 devices.
 844:Generated_Source\PSoC4/TimerTestMode.c **** *  PSoC 4000 devices write the 16 bit compare register with the decremented 
 845:Generated_Source\PSoC4/TimerTestMode.c **** *  compare value in the Up counting mode (except 0x0u), and the incremented 
 846:Generated_Source\PSoC4/TimerTestMode.c **** *  compare value in the Down counting mode (except 0xFFFFu).
 847:Generated_Source\PSoC4/TimerTestMode.c **** *
 848:Generated_Source\PSoC4/TimerTestMode.c **** *******************************************************************************/
 849:Generated_Source\PSoC4/TimerTestMode.c **** void TimerTestMode_WriteCompare(uint32 compare)
 850:Generated_Source\PSoC4/TimerTestMode.c **** {
 1201              		.loc 1 850 0
 1202              		.cfi_startproc
ARM GAS  C:\Users\Petro\AppData\Local\Temp\ccbTbeKH.s 			page 37


 1203              		@ args = 0, pretend = 0, frame = 8
 1204              		@ frame_needed = 1, uses_anonymous_args = 0
 1205 0000 80B5     		push	{r7, lr}
 1206              		.cfi_def_cfa_offset 8
 1207              		.cfi_offset 7, -8
 1208              		.cfi_offset 14, -4
 1209 0002 82B0     		sub	sp, sp, #8
 1210              		.cfi_def_cfa_offset 16
 1211 0004 00AF     		add	r7, sp, #0
 1212              		.cfi_def_cfa_register 7
 1213 0006 7860     		str	r0, [r7, #4]
 851:Generated_Source\PSoC4/TimerTestMode.c ****     #if (TimerTestMode_CY_TCPWM_4000)
 852:Generated_Source\PSoC4/TimerTestMode.c ****         uint32 currentMode;
 853:Generated_Source\PSoC4/TimerTestMode.c ****     #endif /* (TimerTestMode_CY_TCPWM_4000) */
 854:Generated_Source\PSoC4/TimerTestMode.c **** 
 855:Generated_Source\PSoC4/TimerTestMode.c ****     #if (TimerTestMode_CY_TCPWM_4000)
 856:Generated_Source\PSoC4/TimerTestMode.c ****         currentMode = ((TimerTestMode_CONTROL_REG & TimerTestMode_UPDOWN_MASK) >> TimerTestMode_UPD
 857:Generated_Source\PSoC4/TimerTestMode.c **** 
 858:Generated_Source\PSoC4/TimerTestMode.c ****         if (((uint32)TimerTestMode__COUNT_DOWN == currentMode) && (0xFFFFu != compare))
 859:Generated_Source\PSoC4/TimerTestMode.c ****         {
 860:Generated_Source\PSoC4/TimerTestMode.c ****             compare++;
 861:Generated_Source\PSoC4/TimerTestMode.c ****         }
 862:Generated_Source\PSoC4/TimerTestMode.c ****         else if (((uint32)TimerTestMode__COUNT_UP == currentMode) && (0u != compare))
 863:Generated_Source\PSoC4/TimerTestMode.c ****         {
 864:Generated_Source\PSoC4/TimerTestMode.c ****             compare--;
 865:Generated_Source\PSoC4/TimerTestMode.c ****         }
 866:Generated_Source\PSoC4/TimerTestMode.c ****         else
 867:Generated_Source\PSoC4/TimerTestMode.c ****         {
 868:Generated_Source\PSoC4/TimerTestMode.c ****         }
 869:Generated_Source\PSoC4/TimerTestMode.c ****         
 870:Generated_Source\PSoC4/TimerTestMode.c ****     
 871:Generated_Source\PSoC4/TimerTestMode.c ****     #endif /* (TimerTestMode_CY_TCPWM_4000) */
 872:Generated_Source\PSoC4/TimerTestMode.c ****     
 873:Generated_Source\PSoC4/TimerTestMode.c ****     TimerTestMode_COMP_CAP_REG = (compare & TimerTestMode_16BIT_MASK);
 1214              		.loc 1 873 0
 1215 0008 044B     		ldr	r3, .L72
 1216 000a 7A68     		ldr	r2, [r7, #4]
 1217 000c 1204     		lsls	r2, r2, #16
 1218 000e 120C     		lsrs	r2, r2, #16
 1219 0010 1A60     		str	r2, [r3]
 874:Generated_Source\PSoC4/TimerTestMode.c **** }
 1220              		.loc 1 874 0
 1221 0012 C046     		nop
 1222 0014 BD46     		mov	sp, r7
 1223 0016 02B0     		add	sp, sp, #8
 1224              		@ sp needed
 1225 0018 80BD     		pop	{r7, pc}
 1226              	.L73:
 1227 001a C046     		.align	2
 1228              	.L72:
 1229 001c 4C012040 		.word	1075839308
 1230              		.cfi_endproc
 1231              	.LFE24:
 1232              		.size	TimerTestMode_WriteCompare, .-TimerTestMode_WriteCompare
 1233              		.section	.text.TimerTestMode_ReadCompare,"ax",%progbits
 1234              		.align	2
 1235              		.global	TimerTestMode_ReadCompare
ARM GAS  C:\Users\Petro\AppData\Local\Temp\ccbTbeKH.s 			page 38


 1236              		.code	16
 1237              		.thumb_func
 1238              		.type	TimerTestMode_ReadCompare, %function
 1239              	TimerTestMode_ReadCompare:
 1240              	.LFB25:
 875:Generated_Source\PSoC4/TimerTestMode.c **** 
 876:Generated_Source\PSoC4/TimerTestMode.c **** 
 877:Generated_Source\PSoC4/TimerTestMode.c **** /*******************************************************************************
 878:Generated_Source\PSoC4/TimerTestMode.c **** * Function Name: TimerTestMode_ReadCompare
 879:Generated_Source\PSoC4/TimerTestMode.c **** ********************************************************************************
 880:Generated_Source\PSoC4/TimerTestMode.c **** *
 881:Generated_Source\PSoC4/TimerTestMode.c **** * Summary:
 882:Generated_Source\PSoC4/TimerTestMode.c **** *  Reads the compare register. Not applicable for Timer/Counter with Capture
 883:Generated_Source\PSoC4/TimerTestMode.c **** *  or in Quadrature Decoder modes.
 884:Generated_Source\PSoC4/TimerTestMode.c **** *  PSoC 4000 devices read the incremented compare register value in the 
 885:Generated_Source\PSoC4/TimerTestMode.c **** *  Up counting mode (except 0xFFFFu), and the decremented value in the 
 886:Generated_Source\PSoC4/TimerTestMode.c **** *  Down counting mode (except 0x0u).
 887:Generated_Source\PSoC4/TimerTestMode.c **** *
 888:Generated_Source\PSoC4/TimerTestMode.c **** * Parameters:
 889:Generated_Source\PSoC4/TimerTestMode.c **** *  None
 890:Generated_Source\PSoC4/TimerTestMode.c **** *
 891:Generated_Source\PSoC4/TimerTestMode.c **** * Return:
 892:Generated_Source\PSoC4/TimerTestMode.c **** *  Compare value
 893:Generated_Source\PSoC4/TimerTestMode.c **** *
 894:Generated_Source\PSoC4/TimerTestMode.c **** * Note:
 895:Generated_Source\PSoC4/TimerTestMode.c **** *  PSoC 4000 devices read the incremented compare register value in the 
 896:Generated_Source\PSoC4/TimerTestMode.c **** *  Up counting mode (except 0xFFFFu), and the decremented value in the 
 897:Generated_Source\PSoC4/TimerTestMode.c **** *  Down counting mode (except 0x0u).
 898:Generated_Source\PSoC4/TimerTestMode.c **** *
 899:Generated_Source\PSoC4/TimerTestMode.c **** *******************************************************************************/
 900:Generated_Source\PSoC4/TimerTestMode.c **** uint32 TimerTestMode_ReadCompare(void)
 901:Generated_Source\PSoC4/TimerTestMode.c **** {
 1241              		.loc 1 901 0
 1242              		.cfi_startproc
 1243              		@ args = 0, pretend = 0, frame = 0
 1244              		@ frame_needed = 1, uses_anonymous_args = 0
 1245 0000 80B5     		push	{r7, lr}
 1246              		.cfi_def_cfa_offset 8
 1247              		.cfi_offset 7, -8
 1248              		.cfi_offset 14, -4
 1249 0002 00AF     		add	r7, sp, #0
 1250              		.cfi_def_cfa_register 7
 902:Generated_Source\PSoC4/TimerTestMode.c ****     #if (TimerTestMode_CY_TCPWM_4000)
 903:Generated_Source\PSoC4/TimerTestMode.c ****         uint32 currentMode;
 904:Generated_Source\PSoC4/TimerTestMode.c ****         uint32 regVal;
 905:Generated_Source\PSoC4/TimerTestMode.c ****     #endif /* (TimerTestMode_CY_TCPWM_4000) */
 906:Generated_Source\PSoC4/TimerTestMode.c **** 
 907:Generated_Source\PSoC4/TimerTestMode.c ****     #if (TimerTestMode_CY_TCPWM_4000)
 908:Generated_Source\PSoC4/TimerTestMode.c ****         currentMode = ((TimerTestMode_CONTROL_REG & TimerTestMode_UPDOWN_MASK) >> TimerTestMode_UPD
 909:Generated_Source\PSoC4/TimerTestMode.c ****         
 910:Generated_Source\PSoC4/TimerTestMode.c ****         regVal = TimerTestMode_COMP_CAP_REG;
 911:Generated_Source\PSoC4/TimerTestMode.c ****         
 912:Generated_Source\PSoC4/TimerTestMode.c ****         if (((uint32)TimerTestMode__COUNT_DOWN == currentMode) && (0u != regVal))
 913:Generated_Source\PSoC4/TimerTestMode.c ****         {
 914:Generated_Source\PSoC4/TimerTestMode.c ****             regVal--;
 915:Generated_Source\PSoC4/TimerTestMode.c ****         }
 916:Generated_Source\PSoC4/TimerTestMode.c ****         else if (((uint32)TimerTestMode__COUNT_UP == currentMode) && (0xFFFFu != regVal))
ARM GAS  C:\Users\Petro\AppData\Local\Temp\ccbTbeKH.s 			page 39


 917:Generated_Source\PSoC4/TimerTestMode.c ****         {
 918:Generated_Source\PSoC4/TimerTestMode.c ****             regVal++;
 919:Generated_Source\PSoC4/TimerTestMode.c ****         }
 920:Generated_Source\PSoC4/TimerTestMode.c ****         else
 921:Generated_Source\PSoC4/TimerTestMode.c ****         {
 922:Generated_Source\PSoC4/TimerTestMode.c ****         }
 923:Generated_Source\PSoC4/TimerTestMode.c **** 
 924:Generated_Source\PSoC4/TimerTestMode.c ****         return (regVal & TimerTestMode_16BIT_MASK);
 925:Generated_Source\PSoC4/TimerTestMode.c ****     #else
 926:Generated_Source\PSoC4/TimerTestMode.c ****         return (TimerTestMode_COMP_CAP_REG & TimerTestMode_16BIT_MASK);
 1251              		.loc 1 926 0
 1252 0004 034B     		ldr	r3, .L76
 1253 0006 1B68     		ldr	r3, [r3]
 1254 0008 1B04     		lsls	r3, r3, #16
 1255 000a 1B0C     		lsrs	r3, r3, #16
 927:Generated_Source\PSoC4/TimerTestMode.c ****     #endif /* (TimerTestMode_CY_TCPWM_4000) */
 928:Generated_Source\PSoC4/TimerTestMode.c **** }
 1256              		.loc 1 928 0
 1257 000c 1800     		movs	r0, r3
 1258 000e BD46     		mov	sp, r7
 1259              		@ sp needed
 1260 0010 80BD     		pop	{r7, pc}
 1261              	.L77:
 1262 0012 C046     		.align	2
 1263              	.L76:
 1264 0014 4C012040 		.word	1075839308
 1265              		.cfi_endproc
 1266              	.LFE25:
 1267              		.size	TimerTestMode_ReadCompare, .-TimerTestMode_ReadCompare
 1268              		.section	.text.TimerTestMode_WriteCompareBuf,"ax",%progbits
 1269              		.align	2
 1270              		.global	TimerTestMode_WriteCompareBuf
 1271              		.code	16
 1272              		.thumb_func
 1273              		.type	TimerTestMode_WriteCompareBuf, %function
 1274              	TimerTestMode_WriteCompareBuf:
 1275              	.LFB26:
 929:Generated_Source\PSoC4/TimerTestMode.c **** 
 930:Generated_Source\PSoC4/TimerTestMode.c **** 
 931:Generated_Source\PSoC4/TimerTestMode.c **** /*******************************************************************************
 932:Generated_Source\PSoC4/TimerTestMode.c **** * Function Name: TimerTestMode_WriteCompareBuf
 933:Generated_Source\PSoC4/TimerTestMode.c **** ********************************************************************************
 934:Generated_Source\PSoC4/TimerTestMode.c **** *
 935:Generated_Source\PSoC4/TimerTestMode.c **** * Summary:
 936:Generated_Source\PSoC4/TimerTestMode.c **** *  Writes the 16 bit compare buffer register with the new compare value. Not
 937:Generated_Source\PSoC4/TimerTestMode.c **** *  applicable for Timer/Counter with Capture or in Quadrature Decoder modes.
 938:Generated_Source\PSoC4/TimerTestMode.c **** *
 939:Generated_Source\PSoC4/TimerTestMode.c **** * Parameters:
 940:Generated_Source\PSoC4/TimerTestMode.c **** *  compareBuf: Compare value
 941:Generated_Source\PSoC4/TimerTestMode.c **** *
 942:Generated_Source\PSoC4/TimerTestMode.c **** * Return:
 943:Generated_Source\PSoC4/TimerTestMode.c **** *  None
 944:Generated_Source\PSoC4/TimerTestMode.c **** *
 945:Generated_Source\PSoC4/TimerTestMode.c **** * Note:
 946:Generated_Source\PSoC4/TimerTestMode.c **** *  It is not recommended to use the value equal to "0" or equal to 
 947:Generated_Source\PSoC4/TimerTestMode.c **** *  "period value" in Center or Asymmetric align PWM modes on the 
 948:Generated_Source\PSoC4/TimerTestMode.c **** *  PSoC 4100/PSoC 4200 devices.
ARM GAS  C:\Users\Petro\AppData\Local\Temp\ccbTbeKH.s 			page 40


 949:Generated_Source\PSoC4/TimerTestMode.c **** *  PSoC 4000 devices write the 16 bit compare register with the decremented 
 950:Generated_Source\PSoC4/TimerTestMode.c **** *  compare value in the Up counting mode (except 0x0u), and the incremented 
 951:Generated_Source\PSoC4/TimerTestMode.c **** *  compare value in the Down counting mode (except 0xFFFFu).
 952:Generated_Source\PSoC4/TimerTestMode.c **** *
 953:Generated_Source\PSoC4/TimerTestMode.c **** *******************************************************************************/
 954:Generated_Source\PSoC4/TimerTestMode.c **** void TimerTestMode_WriteCompareBuf(uint32 compareBuf)
 955:Generated_Source\PSoC4/TimerTestMode.c **** {
 1276              		.loc 1 955 0
 1277              		.cfi_startproc
 1278              		@ args = 0, pretend = 0, frame = 8
 1279              		@ frame_needed = 1, uses_anonymous_args = 0
 1280 0000 80B5     		push	{r7, lr}
 1281              		.cfi_def_cfa_offset 8
 1282              		.cfi_offset 7, -8
 1283              		.cfi_offset 14, -4
 1284 0002 82B0     		sub	sp, sp, #8
 1285              		.cfi_def_cfa_offset 16
 1286 0004 00AF     		add	r7, sp, #0
 1287              		.cfi_def_cfa_register 7
 1288 0006 7860     		str	r0, [r7, #4]
 956:Generated_Source\PSoC4/TimerTestMode.c ****     #if (TimerTestMode_CY_TCPWM_4000)
 957:Generated_Source\PSoC4/TimerTestMode.c ****         uint32 currentMode;
 958:Generated_Source\PSoC4/TimerTestMode.c ****     #endif /* (TimerTestMode_CY_TCPWM_4000) */
 959:Generated_Source\PSoC4/TimerTestMode.c **** 
 960:Generated_Source\PSoC4/TimerTestMode.c ****     #if (TimerTestMode_CY_TCPWM_4000)
 961:Generated_Source\PSoC4/TimerTestMode.c ****         currentMode = ((TimerTestMode_CONTROL_REG & TimerTestMode_UPDOWN_MASK) >> TimerTestMode_UPD
 962:Generated_Source\PSoC4/TimerTestMode.c **** 
 963:Generated_Source\PSoC4/TimerTestMode.c ****         if (((uint32)TimerTestMode__COUNT_DOWN == currentMode) && (0xFFFFu != compareBuf))
 964:Generated_Source\PSoC4/TimerTestMode.c ****         {
 965:Generated_Source\PSoC4/TimerTestMode.c ****             compareBuf++;
 966:Generated_Source\PSoC4/TimerTestMode.c ****         }
 967:Generated_Source\PSoC4/TimerTestMode.c ****         else if (((uint32)TimerTestMode__COUNT_UP == currentMode) && (0u != compareBuf))
 968:Generated_Source\PSoC4/TimerTestMode.c ****         {
 969:Generated_Source\PSoC4/TimerTestMode.c ****             compareBuf --;
 970:Generated_Source\PSoC4/TimerTestMode.c ****         }
 971:Generated_Source\PSoC4/TimerTestMode.c ****         else
 972:Generated_Source\PSoC4/TimerTestMode.c ****         {
 973:Generated_Source\PSoC4/TimerTestMode.c ****         }
 974:Generated_Source\PSoC4/TimerTestMode.c ****     #endif /* (TimerTestMode_CY_TCPWM_4000) */
 975:Generated_Source\PSoC4/TimerTestMode.c ****     
 976:Generated_Source\PSoC4/TimerTestMode.c ****     TimerTestMode_COMP_CAP_BUF_REG = (compareBuf & TimerTestMode_16BIT_MASK);
 1289              		.loc 1 976 0
 1290 0008 044B     		ldr	r3, .L79
 1291 000a 7A68     		ldr	r2, [r7, #4]
 1292 000c 1204     		lsls	r2, r2, #16
 1293 000e 120C     		lsrs	r2, r2, #16
 1294 0010 1A60     		str	r2, [r3]
 977:Generated_Source\PSoC4/TimerTestMode.c **** }
 1295              		.loc 1 977 0
 1296 0012 C046     		nop
 1297 0014 BD46     		mov	sp, r7
 1298 0016 02B0     		add	sp, sp, #8
 1299              		@ sp needed
 1300 0018 80BD     		pop	{r7, pc}
 1301              	.L80:
 1302 001a C046     		.align	2
 1303              	.L79:
ARM GAS  C:\Users\Petro\AppData\Local\Temp\ccbTbeKH.s 			page 41


 1304 001c 50012040 		.word	1075839312
 1305              		.cfi_endproc
 1306              	.LFE26:
 1307              		.size	TimerTestMode_WriteCompareBuf, .-TimerTestMode_WriteCompareBuf
 1308              		.section	.text.TimerTestMode_ReadCompareBuf,"ax",%progbits
 1309              		.align	2
 1310              		.global	TimerTestMode_ReadCompareBuf
 1311              		.code	16
 1312              		.thumb_func
 1313              		.type	TimerTestMode_ReadCompareBuf, %function
 1314              	TimerTestMode_ReadCompareBuf:
 1315              	.LFB27:
 978:Generated_Source\PSoC4/TimerTestMode.c **** 
 979:Generated_Source\PSoC4/TimerTestMode.c **** 
 980:Generated_Source\PSoC4/TimerTestMode.c **** /*******************************************************************************
 981:Generated_Source\PSoC4/TimerTestMode.c **** * Function Name: TimerTestMode_ReadCompareBuf
 982:Generated_Source\PSoC4/TimerTestMode.c **** ********************************************************************************
 983:Generated_Source\PSoC4/TimerTestMode.c **** *
 984:Generated_Source\PSoC4/TimerTestMode.c **** * Summary:
 985:Generated_Source\PSoC4/TimerTestMode.c **** *  Reads the compare buffer register. Not applicable for Timer/Counter with
 986:Generated_Source\PSoC4/TimerTestMode.c **** *  Capture or in Quadrature Decoder modes.
 987:Generated_Source\PSoC4/TimerTestMode.c **** *
 988:Generated_Source\PSoC4/TimerTestMode.c **** * Parameters:
 989:Generated_Source\PSoC4/TimerTestMode.c **** *  None
 990:Generated_Source\PSoC4/TimerTestMode.c **** *
 991:Generated_Source\PSoC4/TimerTestMode.c **** * Return:
 992:Generated_Source\PSoC4/TimerTestMode.c **** *  Compare buffer value
 993:Generated_Source\PSoC4/TimerTestMode.c **** *
 994:Generated_Source\PSoC4/TimerTestMode.c **** * Note:
 995:Generated_Source\PSoC4/TimerTestMode.c **** *  PSoC 4000 devices read the incremented compare register value in the 
 996:Generated_Source\PSoC4/TimerTestMode.c **** *  Up counting mode (except 0xFFFFu), and the decremented value in the 
 997:Generated_Source\PSoC4/TimerTestMode.c **** *  Down counting mode (except 0x0u).
 998:Generated_Source\PSoC4/TimerTestMode.c **** *
 999:Generated_Source\PSoC4/TimerTestMode.c **** *******************************************************************************/
1000:Generated_Source\PSoC4/TimerTestMode.c **** uint32 TimerTestMode_ReadCompareBuf(void)
1001:Generated_Source\PSoC4/TimerTestMode.c **** {
 1316              		.loc 1 1001 0
 1317              		.cfi_startproc
 1318              		@ args = 0, pretend = 0, frame = 0
 1319              		@ frame_needed = 1, uses_anonymous_args = 0
 1320 0000 80B5     		push	{r7, lr}
 1321              		.cfi_def_cfa_offset 8
 1322              		.cfi_offset 7, -8
 1323              		.cfi_offset 14, -4
 1324 0002 00AF     		add	r7, sp, #0
 1325              		.cfi_def_cfa_register 7
1002:Generated_Source\PSoC4/TimerTestMode.c ****     #if (TimerTestMode_CY_TCPWM_4000)
1003:Generated_Source\PSoC4/TimerTestMode.c ****         uint32 currentMode;
1004:Generated_Source\PSoC4/TimerTestMode.c ****         uint32 regVal;
1005:Generated_Source\PSoC4/TimerTestMode.c ****     #endif /* (TimerTestMode_CY_TCPWM_4000) */
1006:Generated_Source\PSoC4/TimerTestMode.c **** 
1007:Generated_Source\PSoC4/TimerTestMode.c ****     #if (TimerTestMode_CY_TCPWM_4000)
1008:Generated_Source\PSoC4/TimerTestMode.c ****         currentMode = ((TimerTestMode_CONTROL_REG & TimerTestMode_UPDOWN_MASK) >> TimerTestMode_UPD
1009:Generated_Source\PSoC4/TimerTestMode.c **** 
1010:Generated_Source\PSoC4/TimerTestMode.c ****         regVal = TimerTestMode_COMP_CAP_BUF_REG;
1011:Generated_Source\PSoC4/TimerTestMode.c ****         
1012:Generated_Source\PSoC4/TimerTestMode.c ****         if (((uint32)TimerTestMode__COUNT_DOWN == currentMode) && (0u != regVal))
ARM GAS  C:\Users\Petro\AppData\Local\Temp\ccbTbeKH.s 			page 42


1013:Generated_Source\PSoC4/TimerTestMode.c ****         {
1014:Generated_Source\PSoC4/TimerTestMode.c ****             regVal--;
1015:Generated_Source\PSoC4/TimerTestMode.c ****         }
1016:Generated_Source\PSoC4/TimerTestMode.c ****         else if (((uint32)TimerTestMode__COUNT_UP == currentMode) && (0xFFFFu != regVal))
1017:Generated_Source\PSoC4/TimerTestMode.c ****         {
1018:Generated_Source\PSoC4/TimerTestMode.c ****             regVal++;
1019:Generated_Source\PSoC4/TimerTestMode.c ****         }
1020:Generated_Source\PSoC4/TimerTestMode.c ****         else
1021:Generated_Source\PSoC4/TimerTestMode.c ****         {
1022:Generated_Source\PSoC4/TimerTestMode.c ****         }
1023:Generated_Source\PSoC4/TimerTestMode.c **** 
1024:Generated_Source\PSoC4/TimerTestMode.c ****         return (regVal & TimerTestMode_16BIT_MASK);
1025:Generated_Source\PSoC4/TimerTestMode.c ****     #else
1026:Generated_Source\PSoC4/TimerTestMode.c ****         return (TimerTestMode_COMP_CAP_BUF_REG & TimerTestMode_16BIT_MASK);
 1326              		.loc 1 1026 0
 1327 0004 034B     		ldr	r3, .L83
 1328 0006 1B68     		ldr	r3, [r3]
 1329 0008 1B04     		lsls	r3, r3, #16
 1330 000a 1B0C     		lsrs	r3, r3, #16
1027:Generated_Source\PSoC4/TimerTestMode.c ****     #endif /* (TimerTestMode_CY_TCPWM_4000) */
1028:Generated_Source\PSoC4/TimerTestMode.c **** }
 1331              		.loc 1 1028 0
 1332 000c 1800     		movs	r0, r3
 1333 000e BD46     		mov	sp, r7
 1334              		@ sp needed
 1335 0010 80BD     		pop	{r7, pc}
 1336              	.L84:
 1337 0012 C046     		.align	2
 1338              	.L83:
 1339 0014 50012040 		.word	1075839312
 1340              		.cfi_endproc
 1341              	.LFE27:
 1342              		.size	TimerTestMode_ReadCompareBuf, .-TimerTestMode_ReadCompareBuf
 1343              		.section	.text.TimerTestMode_ReadCapture,"ax",%progbits
 1344              		.align	2
 1345              		.global	TimerTestMode_ReadCapture
 1346              		.code	16
 1347              		.thumb_func
 1348              		.type	TimerTestMode_ReadCapture, %function
 1349              	TimerTestMode_ReadCapture:
 1350              	.LFB28:
1029:Generated_Source\PSoC4/TimerTestMode.c **** 
1030:Generated_Source\PSoC4/TimerTestMode.c **** 
1031:Generated_Source\PSoC4/TimerTestMode.c **** /*******************************************************************************
1032:Generated_Source\PSoC4/TimerTestMode.c **** * Function Name: TimerTestMode_ReadCapture
1033:Generated_Source\PSoC4/TimerTestMode.c **** ********************************************************************************
1034:Generated_Source\PSoC4/TimerTestMode.c **** *
1035:Generated_Source\PSoC4/TimerTestMode.c **** * Summary:
1036:Generated_Source\PSoC4/TimerTestMode.c **** *  Reads the captured counter value. This API is applicable only for
1037:Generated_Source\PSoC4/TimerTestMode.c **** *  Timer/Counter with the capture mode and Quadrature Decoder modes.
1038:Generated_Source\PSoC4/TimerTestMode.c **** *
1039:Generated_Source\PSoC4/TimerTestMode.c **** * Parameters:
1040:Generated_Source\PSoC4/TimerTestMode.c **** *  None
1041:Generated_Source\PSoC4/TimerTestMode.c **** *
1042:Generated_Source\PSoC4/TimerTestMode.c **** * Return:
1043:Generated_Source\PSoC4/TimerTestMode.c **** *  Capture value
1044:Generated_Source\PSoC4/TimerTestMode.c **** *
ARM GAS  C:\Users\Petro\AppData\Local\Temp\ccbTbeKH.s 			page 43


1045:Generated_Source\PSoC4/TimerTestMode.c **** *******************************************************************************/
1046:Generated_Source\PSoC4/TimerTestMode.c **** uint32 TimerTestMode_ReadCapture(void)
1047:Generated_Source\PSoC4/TimerTestMode.c **** {
 1351              		.loc 1 1047 0
 1352              		.cfi_startproc
 1353              		@ args = 0, pretend = 0, frame = 0
 1354              		@ frame_needed = 1, uses_anonymous_args = 0
 1355 0000 80B5     		push	{r7, lr}
 1356              		.cfi_def_cfa_offset 8
 1357              		.cfi_offset 7, -8
 1358              		.cfi_offset 14, -4
 1359 0002 00AF     		add	r7, sp, #0
 1360              		.cfi_def_cfa_register 7
1048:Generated_Source\PSoC4/TimerTestMode.c ****     return (TimerTestMode_COMP_CAP_REG & TimerTestMode_16BIT_MASK);
 1361              		.loc 1 1048 0
 1362 0004 034B     		ldr	r3, .L87
 1363 0006 1B68     		ldr	r3, [r3]
 1364 0008 1B04     		lsls	r3, r3, #16
 1365 000a 1B0C     		lsrs	r3, r3, #16
1049:Generated_Source\PSoC4/TimerTestMode.c **** }
 1366              		.loc 1 1049 0
 1367 000c 1800     		movs	r0, r3
 1368 000e BD46     		mov	sp, r7
 1369              		@ sp needed
 1370 0010 80BD     		pop	{r7, pc}
 1371              	.L88:
 1372 0012 C046     		.align	2
 1373              	.L87:
 1374 0014 4C012040 		.word	1075839308
 1375              		.cfi_endproc
 1376              	.LFE28:
 1377              		.size	TimerTestMode_ReadCapture, .-TimerTestMode_ReadCapture
 1378              		.section	.text.TimerTestMode_ReadCaptureBuf,"ax",%progbits
 1379              		.align	2
 1380              		.global	TimerTestMode_ReadCaptureBuf
 1381              		.code	16
 1382              		.thumb_func
 1383              		.type	TimerTestMode_ReadCaptureBuf, %function
 1384              	TimerTestMode_ReadCaptureBuf:
 1385              	.LFB29:
1050:Generated_Source\PSoC4/TimerTestMode.c **** 
1051:Generated_Source\PSoC4/TimerTestMode.c **** 
1052:Generated_Source\PSoC4/TimerTestMode.c **** /*******************************************************************************
1053:Generated_Source\PSoC4/TimerTestMode.c **** * Function Name: TimerTestMode_ReadCaptureBuf
1054:Generated_Source\PSoC4/TimerTestMode.c **** ********************************************************************************
1055:Generated_Source\PSoC4/TimerTestMode.c **** *
1056:Generated_Source\PSoC4/TimerTestMode.c **** * Summary:
1057:Generated_Source\PSoC4/TimerTestMode.c **** *  Reads the capture buffer register. This API is applicable only for
1058:Generated_Source\PSoC4/TimerTestMode.c **** *  Timer/Counter with the capture mode and Quadrature Decoder modes.
1059:Generated_Source\PSoC4/TimerTestMode.c **** *
1060:Generated_Source\PSoC4/TimerTestMode.c **** * Parameters:
1061:Generated_Source\PSoC4/TimerTestMode.c **** *  None
1062:Generated_Source\PSoC4/TimerTestMode.c **** *
1063:Generated_Source\PSoC4/TimerTestMode.c **** * Return:
1064:Generated_Source\PSoC4/TimerTestMode.c **** *  Capture buffer value
1065:Generated_Source\PSoC4/TimerTestMode.c **** *
1066:Generated_Source\PSoC4/TimerTestMode.c **** *******************************************************************************/
ARM GAS  C:\Users\Petro\AppData\Local\Temp\ccbTbeKH.s 			page 44


1067:Generated_Source\PSoC4/TimerTestMode.c **** uint32 TimerTestMode_ReadCaptureBuf(void)
1068:Generated_Source\PSoC4/TimerTestMode.c **** {
 1386              		.loc 1 1068 0
 1387              		.cfi_startproc
 1388              		@ args = 0, pretend = 0, frame = 0
 1389              		@ frame_needed = 1, uses_anonymous_args = 0
 1390 0000 80B5     		push	{r7, lr}
 1391              		.cfi_def_cfa_offset 8
 1392              		.cfi_offset 7, -8
 1393              		.cfi_offset 14, -4
 1394 0002 00AF     		add	r7, sp, #0
 1395              		.cfi_def_cfa_register 7
1069:Generated_Source\PSoC4/TimerTestMode.c ****     return (TimerTestMode_COMP_CAP_BUF_REG & TimerTestMode_16BIT_MASK);
 1396              		.loc 1 1069 0
 1397 0004 034B     		ldr	r3, .L91
 1398 0006 1B68     		ldr	r3, [r3]
 1399 0008 1B04     		lsls	r3, r3, #16
 1400 000a 1B0C     		lsrs	r3, r3, #16
1070:Generated_Source\PSoC4/TimerTestMode.c **** }
 1401              		.loc 1 1070 0
 1402 000c 1800     		movs	r0, r3
 1403 000e BD46     		mov	sp, r7
 1404              		@ sp needed
 1405 0010 80BD     		pop	{r7, pc}
 1406              	.L92:
 1407 0012 C046     		.align	2
 1408              	.L91:
 1409 0014 50012040 		.word	1075839312
 1410              		.cfi_endproc
 1411              	.LFE29:
 1412              		.size	TimerTestMode_ReadCaptureBuf, .-TimerTestMode_ReadCaptureBuf
 1413              		.section	.text.TimerTestMode_SetCaptureMode,"ax",%progbits
 1414              		.align	2
 1415              		.global	TimerTestMode_SetCaptureMode
 1416              		.code	16
 1417              		.thumb_func
 1418              		.type	TimerTestMode_SetCaptureMode, %function
 1419              	TimerTestMode_SetCaptureMode:
 1420              	.LFB30:
1071:Generated_Source\PSoC4/TimerTestMode.c **** 
1072:Generated_Source\PSoC4/TimerTestMode.c **** 
1073:Generated_Source\PSoC4/TimerTestMode.c **** /*******************************************************************************
1074:Generated_Source\PSoC4/TimerTestMode.c **** * Function Name: TimerTestMode_SetCaptureMode
1075:Generated_Source\PSoC4/TimerTestMode.c **** ********************************************************************************
1076:Generated_Source\PSoC4/TimerTestMode.c **** *
1077:Generated_Source\PSoC4/TimerTestMode.c **** * Summary:
1078:Generated_Source\PSoC4/TimerTestMode.c **** *  Sets the capture trigger mode. For PWM mode this is the switch input.
1079:Generated_Source\PSoC4/TimerTestMode.c **** *  This input is not applicable to the Timer/Counter without Capture and
1080:Generated_Source\PSoC4/TimerTestMode.c **** *  Quadrature Decoder modes.
1081:Generated_Source\PSoC4/TimerTestMode.c **** *
1082:Generated_Source\PSoC4/TimerTestMode.c **** * Parameters:
1083:Generated_Source\PSoC4/TimerTestMode.c **** *  triggerMode: Enumerated trigger mode value
1084:Generated_Source\PSoC4/TimerTestMode.c **** *   Values:
1085:Generated_Source\PSoC4/TimerTestMode.c **** *     - TimerTestMode_TRIG_LEVEL     - Level
1086:Generated_Source\PSoC4/TimerTestMode.c **** *     - TimerTestMode_TRIG_RISING    - Rising edge
1087:Generated_Source\PSoC4/TimerTestMode.c **** *     - TimerTestMode_TRIG_FALLING   - Falling edge
1088:Generated_Source\PSoC4/TimerTestMode.c **** *     - TimerTestMode_TRIG_BOTH      - Both rising and falling edge
ARM GAS  C:\Users\Petro\AppData\Local\Temp\ccbTbeKH.s 			page 45


1089:Generated_Source\PSoC4/TimerTestMode.c **** *
1090:Generated_Source\PSoC4/TimerTestMode.c **** * Return:
1091:Generated_Source\PSoC4/TimerTestMode.c **** *  None
1092:Generated_Source\PSoC4/TimerTestMode.c **** *
1093:Generated_Source\PSoC4/TimerTestMode.c **** *******************************************************************************/
1094:Generated_Source\PSoC4/TimerTestMode.c **** void TimerTestMode_SetCaptureMode(uint32 triggerMode)
1095:Generated_Source\PSoC4/TimerTestMode.c **** {
 1421              		.loc 1 1095 0
 1422              		.cfi_startproc
 1423              		@ args = 0, pretend = 0, frame = 16
 1424              		@ frame_needed = 1, uses_anonymous_args = 0
 1425 0000 90B5     		push	{r4, r7, lr}
 1426              		.cfi_def_cfa_offset 12
 1427              		.cfi_offset 4, -12
 1428              		.cfi_offset 7, -8
 1429              		.cfi_offset 14, -4
 1430 0002 85B0     		sub	sp, sp, #20
 1431              		.cfi_def_cfa_offset 32
 1432 0004 00AF     		add	r7, sp, #0
 1433              		.cfi_def_cfa_register 7
 1434 0006 7860     		str	r0, [r7, #4]
1096:Generated_Source\PSoC4/TimerTestMode.c ****     uint8 enableInterrupts;
1097:Generated_Source\PSoC4/TimerTestMode.c **** 
1098:Generated_Source\PSoC4/TimerTestMode.c ****     enableInterrupts = CyEnterCriticalSection();
 1435              		.loc 1 1098 0
 1436 0008 0F23     		movs	r3, #15
 1437 000a FC18     		adds	r4, r7, r3
 1438 000c FFF7FEFF 		bl	CyEnterCriticalSection
 1439 0010 0300     		movs	r3, r0
 1440 0012 2370     		strb	r3, [r4]
1099:Generated_Source\PSoC4/TimerTestMode.c **** 
1100:Generated_Source\PSoC4/TimerTestMode.c ****     TimerTestMode_TRIG_CONTROL1_REG &= (uint32)~TimerTestMode_CAPTURE_MASK;
 1441              		.loc 1 1100 0
 1442 0014 0A4B     		ldr	r3, .L94
 1443 0016 0A4A     		ldr	r2, .L94
 1444 0018 1268     		ldr	r2, [r2]
 1445 001a 0321     		movs	r1, #3
 1446 001c 8A43     		bics	r2, r1
 1447 001e 1A60     		str	r2, [r3]
1101:Generated_Source\PSoC4/TimerTestMode.c ****     TimerTestMode_TRIG_CONTROL1_REG |= triggerMode;
 1448              		.loc 1 1101 0
 1449 0020 074B     		ldr	r3, .L94
 1450 0022 074A     		ldr	r2, .L94
 1451 0024 1168     		ldr	r1, [r2]
 1452 0026 7A68     		ldr	r2, [r7, #4]
 1453 0028 0A43     		orrs	r2, r1
 1454 002a 1A60     		str	r2, [r3]
1102:Generated_Source\PSoC4/TimerTestMode.c **** 
1103:Generated_Source\PSoC4/TimerTestMode.c ****     CyExitCriticalSection(enableInterrupts);
 1455              		.loc 1 1103 0
 1456 002c 0F23     		movs	r3, #15
 1457 002e FB18     		adds	r3, r7, r3
 1458 0030 1B78     		ldrb	r3, [r3]
 1459 0032 1800     		movs	r0, r3
 1460 0034 FFF7FEFF 		bl	CyExitCriticalSection
1104:Generated_Source\PSoC4/TimerTestMode.c **** }
 1461              		.loc 1 1104 0
ARM GAS  C:\Users\Petro\AppData\Local\Temp\ccbTbeKH.s 			page 46


 1462 0038 C046     		nop
 1463 003a BD46     		mov	sp, r7
 1464 003c 05B0     		add	sp, sp, #20
 1465              		@ sp needed
 1466 003e 90BD     		pop	{r4, r7, pc}
 1467              	.L95:
 1468              		.align	2
 1469              	.L94:
 1470 0040 64012040 		.word	1075839332
 1471              		.cfi_endproc
 1472              	.LFE30:
 1473              		.size	TimerTestMode_SetCaptureMode, .-TimerTestMode_SetCaptureMode
 1474              		.section	.text.TimerTestMode_SetReloadMode,"ax",%progbits
 1475              		.align	2
 1476              		.global	TimerTestMode_SetReloadMode
 1477              		.code	16
 1478              		.thumb_func
 1479              		.type	TimerTestMode_SetReloadMode, %function
 1480              	TimerTestMode_SetReloadMode:
 1481              	.LFB31:
1105:Generated_Source\PSoC4/TimerTestMode.c **** 
1106:Generated_Source\PSoC4/TimerTestMode.c **** 
1107:Generated_Source\PSoC4/TimerTestMode.c **** /*******************************************************************************
1108:Generated_Source\PSoC4/TimerTestMode.c **** * Function Name: TimerTestMode_SetReloadMode
1109:Generated_Source\PSoC4/TimerTestMode.c **** ********************************************************************************
1110:Generated_Source\PSoC4/TimerTestMode.c **** *
1111:Generated_Source\PSoC4/TimerTestMode.c **** * Summary:
1112:Generated_Source\PSoC4/TimerTestMode.c **** *  Sets the reload trigger mode. For Quadrature Decoder mode this is the index
1113:Generated_Source\PSoC4/TimerTestMode.c **** *  input.
1114:Generated_Source\PSoC4/TimerTestMode.c **** *
1115:Generated_Source\PSoC4/TimerTestMode.c **** * Parameters:
1116:Generated_Source\PSoC4/TimerTestMode.c **** *  triggerMode: Enumerated trigger mode value
1117:Generated_Source\PSoC4/TimerTestMode.c **** *   Values:
1118:Generated_Source\PSoC4/TimerTestMode.c **** *     - TimerTestMode_TRIG_LEVEL     - Level
1119:Generated_Source\PSoC4/TimerTestMode.c **** *     - TimerTestMode_TRIG_RISING    - Rising edge
1120:Generated_Source\PSoC4/TimerTestMode.c **** *     - TimerTestMode_TRIG_FALLING   - Falling edge
1121:Generated_Source\PSoC4/TimerTestMode.c **** *     - TimerTestMode_TRIG_BOTH      - Both rising and falling edge
1122:Generated_Source\PSoC4/TimerTestMode.c **** *
1123:Generated_Source\PSoC4/TimerTestMode.c **** * Return:
1124:Generated_Source\PSoC4/TimerTestMode.c **** *  None
1125:Generated_Source\PSoC4/TimerTestMode.c **** *
1126:Generated_Source\PSoC4/TimerTestMode.c **** *******************************************************************************/
1127:Generated_Source\PSoC4/TimerTestMode.c **** void TimerTestMode_SetReloadMode(uint32 triggerMode)
1128:Generated_Source\PSoC4/TimerTestMode.c **** {
 1482              		.loc 1 1128 0
 1483              		.cfi_startproc
 1484              		@ args = 0, pretend = 0, frame = 16
 1485              		@ frame_needed = 1, uses_anonymous_args = 0
 1486 0000 90B5     		push	{r4, r7, lr}
 1487              		.cfi_def_cfa_offset 12
 1488              		.cfi_offset 4, -12
 1489              		.cfi_offset 7, -8
 1490              		.cfi_offset 14, -4
 1491 0002 85B0     		sub	sp, sp, #20
 1492              		.cfi_def_cfa_offset 32
 1493 0004 00AF     		add	r7, sp, #0
 1494              		.cfi_def_cfa_register 7
ARM GAS  C:\Users\Petro\AppData\Local\Temp\ccbTbeKH.s 			page 47


 1495 0006 7860     		str	r0, [r7, #4]
1129:Generated_Source\PSoC4/TimerTestMode.c ****     uint8 enableInterrupts;
1130:Generated_Source\PSoC4/TimerTestMode.c **** 
1131:Generated_Source\PSoC4/TimerTestMode.c ****     enableInterrupts = CyEnterCriticalSection();
 1496              		.loc 1 1131 0
 1497 0008 0F23     		movs	r3, #15
 1498 000a FC18     		adds	r4, r7, r3
 1499 000c FFF7FEFF 		bl	CyEnterCriticalSection
 1500 0010 0300     		movs	r3, r0
 1501 0012 2370     		strb	r3, [r4]
1132:Generated_Source\PSoC4/TimerTestMode.c **** 
1133:Generated_Source\PSoC4/TimerTestMode.c ****     TimerTestMode_TRIG_CONTROL1_REG &= (uint32)~TimerTestMode_RELOAD_MASK;
 1502              		.loc 1 1133 0
 1503 0014 0B4B     		ldr	r3, .L97
 1504 0016 0B4A     		ldr	r2, .L97
 1505 0018 1268     		ldr	r2, [r2]
 1506 001a 3021     		movs	r1, #48
 1507 001c 8A43     		bics	r2, r1
 1508 001e 1A60     		str	r2, [r3]
1134:Generated_Source\PSoC4/TimerTestMode.c ****     TimerTestMode_TRIG_CONTROL1_REG |= ((uint32)(triggerMode << TimerTestMode_RELOAD_SHIFT));
 1509              		.loc 1 1134 0
 1510 0020 084B     		ldr	r3, .L97
 1511 0022 084A     		ldr	r2, .L97
 1512 0024 1168     		ldr	r1, [r2]
 1513 0026 7A68     		ldr	r2, [r7, #4]
 1514 0028 1201     		lsls	r2, r2, #4
 1515 002a 0A43     		orrs	r2, r1
 1516 002c 1A60     		str	r2, [r3]
1135:Generated_Source\PSoC4/TimerTestMode.c **** 
1136:Generated_Source\PSoC4/TimerTestMode.c ****     CyExitCriticalSection(enableInterrupts);
 1517              		.loc 1 1136 0
 1518 002e 0F23     		movs	r3, #15
 1519 0030 FB18     		adds	r3, r7, r3
 1520 0032 1B78     		ldrb	r3, [r3]
 1521 0034 1800     		movs	r0, r3
 1522 0036 FFF7FEFF 		bl	CyExitCriticalSection
1137:Generated_Source\PSoC4/TimerTestMode.c **** }
 1523              		.loc 1 1137 0
 1524 003a C046     		nop
 1525 003c BD46     		mov	sp, r7
 1526 003e 05B0     		add	sp, sp, #20
 1527              		@ sp needed
 1528 0040 90BD     		pop	{r4, r7, pc}
 1529              	.L98:
 1530 0042 C046     		.align	2
 1531              	.L97:
 1532 0044 64012040 		.word	1075839332
 1533              		.cfi_endproc
 1534              	.LFE31:
 1535              		.size	TimerTestMode_SetReloadMode, .-TimerTestMode_SetReloadMode
 1536              		.section	.text.TimerTestMode_SetStartMode,"ax",%progbits
 1537              		.align	2
 1538              		.global	TimerTestMode_SetStartMode
 1539              		.code	16
 1540              		.thumb_func
 1541              		.type	TimerTestMode_SetStartMode, %function
 1542              	TimerTestMode_SetStartMode:
ARM GAS  C:\Users\Petro\AppData\Local\Temp\ccbTbeKH.s 			page 48


 1543              	.LFB32:
1138:Generated_Source\PSoC4/TimerTestMode.c **** 
1139:Generated_Source\PSoC4/TimerTestMode.c **** 
1140:Generated_Source\PSoC4/TimerTestMode.c **** /*******************************************************************************
1141:Generated_Source\PSoC4/TimerTestMode.c **** * Function Name: TimerTestMode_SetStartMode
1142:Generated_Source\PSoC4/TimerTestMode.c **** ********************************************************************************
1143:Generated_Source\PSoC4/TimerTestMode.c **** *
1144:Generated_Source\PSoC4/TimerTestMode.c **** * Summary:
1145:Generated_Source\PSoC4/TimerTestMode.c **** *  Sets the start trigger mode. For Quadrature Decoder mode this is the
1146:Generated_Source\PSoC4/TimerTestMode.c **** *  phiB input.
1147:Generated_Source\PSoC4/TimerTestMode.c **** *
1148:Generated_Source\PSoC4/TimerTestMode.c **** * Parameters:
1149:Generated_Source\PSoC4/TimerTestMode.c **** *  triggerMode: Enumerated trigger mode value
1150:Generated_Source\PSoC4/TimerTestMode.c **** *   Values:
1151:Generated_Source\PSoC4/TimerTestMode.c **** *     - TimerTestMode_TRIG_LEVEL     - Level
1152:Generated_Source\PSoC4/TimerTestMode.c **** *     - TimerTestMode_TRIG_RISING    - Rising edge
1153:Generated_Source\PSoC4/TimerTestMode.c **** *     - TimerTestMode_TRIG_FALLING   - Falling edge
1154:Generated_Source\PSoC4/TimerTestMode.c **** *     - TimerTestMode_TRIG_BOTH      - Both rising and falling edge
1155:Generated_Source\PSoC4/TimerTestMode.c **** *
1156:Generated_Source\PSoC4/TimerTestMode.c **** * Return:
1157:Generated_Source\PSoC4/TimerTestMode.c **** *  None
1158:Generated_Source\PSoC4/TimerTestMode.c **** *
1159:Generated_Source\PSoC4/TimerTestMode.c **** *******************************************************************************/
1160:Generated_Source\PSoC4/TimerTestMode.c **** void TimerTestMode_SetStartMode(uint32 triggerMode)
1161:Generated_Source\PSoC4/TimerTestMode.c **** {
 1544              		.loc 1 1161 0
 1545              		.cfi_startproc
 1546              		@ args = 0, pretend = 0, frame = 16
 1547              		@ frame_needed = 1, uses_anonymous_args = 0
 1548 0000 90B5     		push	{r4, r7, lr}
 1549              		.cfi_def_cfa_offset 12
 1550              		.cfi_offset 4, -12
 1551              		.cfi_offset 7, -8
 1552              		.cfi_offset 14, -4
 1553 0002 85B0     		sub	sp, sp, #20
 1554              		.cfi_def_cfa_offset 32
 1555 0004 00AF     		add	r7, sp, #0
 1556              		.cfi_def_cfa_register 7
 1557 0006 7860     		str	r0, [r7, #4]
1162:Generated_Source\PSoC4/TimerTestMode.c ****     uint8 enableInterrupts;
1163:Generated_Source\PSoC4/TimerTestMode.c **** 
1164:Generated_Source\PSoC4/TimerTestMode.c ****     enableInterrupts = CyEnterCriticalSection();
 1558              		.loc 1 1164 0
 1559 0008 0F23     		movs	r3, #15
 1560 000a FC18     		adds	r4, r7, r3
 1561 000c FFF7FEFF 		bl	CyEnterCriticalSection
 1562 0010 0300     		movs	r3, r0
 1563 0012 2370     		strb	r3, [r4]
1165:Generated_Source\PSoC4/TimerTestMode.c **** 
1166:Generated_Source\PSoC4/TimerTestMode.c ****     TimerTestMode_TRIG_CONTROL1_REG &= (uint32)~TimerTestMode_START_MASK;
 1564              		.loc 1 1166 0
 1565 0014 0B4B     		ldr	r3, .L100
 1566 0016 0B4A     		ldr	r2, .L100
 1567 0018 1268     		ldr	r2, [r2]
 1568 001a 0B49     		ldr	r1, .L100+4
 1569 001c 0A40     		ands	r2, r1
 1570 001e 1A60     		str	r2, [r3]
ARM GAS  C:\Users\Petro\AppData\Local\Temp\ccbTbeKH.s 			page 49


1167:Generated_Source\PSoC4/TimerTestMode.c ****     TimerTestMode_TRIG_CONTROL1_REG |= ((uint32)(triggerMode << TimerTestMode_START_SHIFT));
 1571              		.loc 1 1167 0
 1572 0020 084B     		ldr	r3, .L100
 1573 0022 084A     		ldr	r2, .L100
 1574 0024 1168     		ldr	r1, [r2]
 1575 0026 7A68     		ldr	r2, [r7, #4]
 1576 0028 1202     		lsls	r2, r2, #8
 1577 002a 0A43     		orrs	r2, r1
 1578 002c 1A60     		str	r2, [r3]
1168:Generated_Source\PSoC4/TimerTestMode.c **** 
1169:Generated_Source\PSoC4/TimerTestMode.c ****     CyExitCriticalSection(enableInterrupts);
 1579              		.loc 1 1169 0
 1580 002e 0F23     		movs	r3, #15
 1581 0030 FB18     		adds	r3, r7, r3
 1582 0032 1B78     		ldrb	r3, [r3]
 1583 0034 1800     		movs	r0, r3
 1584 0036 FFF7FEFF 		bl	CyExitCriticalSection
1170:Generated_Source\PSoC4/TimerTestMode.c **** }
 1585              		.loc 1 1170 0
 1586 003a C046     		nop
 1587 003c BD46     		mov	sp, r7
 1588 003e 05B0     		add	sp, sp, #20
 1589              		@ sp needed
 1590 0040 90BD     		pop	{r4, r7, pc}
 1591              	.L101:
 1592 0042 C046     		.align	2
 1593              	.L100:
 1594 0044 64012040 		.word	1075839332
 1595 0048 FFFCFFFF 		.word	-769
 1596              		.cfi_endproc
 1597              	.LFE32:
 1598              		.size	TimerTestMode_SetStartMode, .-TimerTestMode_SetStartMode
 1599              		.section	.text.TimerTestMode_SetStopMode,"ax",%progbits
 1600              		.align	2
 1601              		.global	TimerTestMode_SetStopMode
 1602              		.code	16
 1603              		.thumb_func
 1604              		.type	TimerTestMode_SetStopMode, %function
 1605              	TimerTestMode_SetStopMode:
 1606              	.LFB33:
1171:Generated_Source\PSoC4/TimerTestMode.c **** 
1172:Generated_Source\PSoC4/TimerTestMode.c **** 
1173:Generated_Source\PSoC4/TimerTestMode.c **** /*******************************************************************************
1174:Generated_Source\PSoC4/TimerTestMode.c **** * Function Name: TimerTestMode_SetStopMode
1175:Generated_Source\PSoC4/TimerTestMode.c **** ********************************************************************************
1176:Generated_Source\PSoC4/TimerTestMode.c **** *
1177:Generated_Source\PSoC4/TimerTestMode.c **** * Summary:
1178:Generated_Source\PSoC4/TimerTestMode.c **** *  Sets the stop trigger mode. For PWM mode this is the kill input.
1179:Generated_Source\PSoC4/TimerTestMode.c **** *
1180:Generated_Source\PSoC4/TimerTestMode.c **** * Parameters:
1181:Generated_Source\PSoC4/TimerTestMode.c **** *  triggerMode: Enumerated trigger mode value
1182:Generated_Source\PSoC4/TimerTestMode.c **** *   Values:
1183:Generated_Source\PSoC4/TimerTestMode.c **** *     - TimerTestMode_TRIG_LEVEL     - Level
1184:Generated_Source\PSoC4/TimerTestMode.c **** *     - TimerTestMode_TRIG_RISING    - Rising edge
1185:Generated_Source\PSoC4/TimerTestMode.c **** *     - TimerTestMode_TRIG_FALLING   - Falling edge
1186:Generated_Source\PSoC4/TimerTestMode.c **** *     - TimerTestMode_TRIG_BOTH      - Both rising and falling edge
1187:Generated_Source\PSoC4/TimerTestMode.c **** *
ARM GAS  C:\Users\Petro\AppData\Local\Temp\ccbTbeKH.s 			page 50


1188:Generated_Source\PSoC4/TimerTestMode.c **** * Return:
1189:Generated_Source\PSoC4/TimerTestMode.c **** *  None
1190:Generated_Source\PSoC4/TimerTestMode.c **** *
1191:Generated_Source\PSoC4/TimerTestMode.c **** *******************************************************************************/
1192:Generated_Source\PSoC4/TimerTestMode.c **** void TimerTestMode_SetStopMode(uint32 triggerMode)
1193:Generated_Source\PSoC4/TimerTestMode.c **** {
 1607              		.loc 1 1193 0
 1608              		.cfi_startproc
 1609              		@ args = 0, pretend = 0, frame = 16
 1610              		@ frame_needed = 1, uses_anonymous_args = 0
 1611 0000 90B5     		push	{r4, r7, lr}
 1612              		.cfi_def_cfa_offset 12
 1613              		.cfi_offset 4, -12
 1614              		.cfi_offset 7, -8
 1615              		.cfi_offset 14, -4
 1616 0002 85B0     		sub	sp, sp, #20
 1617              		.cfi_def_cfa_offset 32
 1618 0004 00AF     		add	r7, sp, #0
 1619              		.cfi_def_cfa_register 7
 1620 0006 7860     		str	r0, [r7, #4]
1194:Generated_Source\PSoC4/TimerTestMode.c ****     uint8 enableInterrupts;
1195:Generated_Source\PSoC4/TimerTestMode.c **** 
1196:Generated_Source\PSoC4/TimerTestMode.c ****     enableInterrupts = CyEnterCriticalSection();
 1621              		.loc 1 1196 0
 1622 0008 0F23     		movs	r3, #15
 1623 000a FC18     		adds	r4, r7, r3
 1624 000c FFF7FEFF 		bl	CyEnterCriticalSection
 1625 0010 0300     		movs	r3, r0
 1626 0012 2370     		strb	r3, [r4]
1197:Generated_Source\PSoC4/TimerTestMode.c **** 
1198:Generated_Source\PSoC4/TimerTestMode.c ****     TimerTestMode_TRIG_CONTROL1_REG &= (uint32)~TimerTestMode_STOP_MASK;
 1627              		.loc 1 1198 0
 1628 0014 0B4B     		ldr	r3, .L103
 1629 0016 0B4A     		ldr	r2, .L103
 1630 0018 1268     		ldr	r2, [r2]
 1631 001a C021     		movs	r1, #192
 1632 001c 8A43     		bics	r2, r1
 1633 001e 1A60     		str	r2, [r3]
1199:Generated_Source\PSoC4/TimerTestMode.c ****     TimerTestMode_TRIG_CONTROL1_REG |= ((uint32)(triggerMode << TimerTestMode_STOP_SHIFT));
 1634              		.loc 1 1199 0
 1635 0020 084B     		ldr	r3, .L103
 1636 0022 084A     		ldr	r2, .L103
 1637 0024 1168     		ldr	r1, [r2]
 1638 0026 7A68     		ldr	r2, [r7, #4]
 1639 0028 9201     		lsls	r2, r2, #6
 1640 002a 0A43     		orrs	r2, r1
 1641 002c 1A60     		str	r2, [r3]
1200:Generated_Source\PSoC4/TimerTestMode.c **** 
1201:Generated_Source\PSoC4/TimerTestMode.c ****     CyExitCriticalSection(enableInterrupts);
 1642              		.loc 1 1201 0
 1643 002e 0F23     		movs	r3, #15
 1644 0030 FB18     		adds	r3, r7, r3
 1645 0032 1B78     		ldrb	r3, [r3]
 1646 0034 1800     		movs	r0, r3
 1647 0036 FFF7FEFF 		bl	CyExitCriticalSection
1202:Generated_Source\PSoC4/TimerTestMode.c **** }
 1648              		.loc 1 1202 0
ARM GAS  C:\Users\Petro\AppData\Local\Temp\ccbTbeKH.s 			page 51


 1649 003a C046     		nop
 1650 003c BD46     		mov	sp, r7
 1651 003e 05B0     		add	sp, sp, #20
 1652              		@ sp needed
 1653 0040 90BD     		pop	{r4, r7, pc}
 1654              	.L104:
 1655 0042 C046     		.align	2
 1656              	.L103:
 1657 0044 64012040 		.word	1075839332
 1658              		.cfi_endproc
 1659              	.LFE33:
 1660              		.size	TimerTestMode_SetStopMode, .-TimerTestMode_SetStopMode
 1661              		.section	.text.TimerTestMode_SetCountMode,"ax",%progbits
 1662              		.align	2
 1663              		.global	TimerTestMode_SetCountMode
 1664              		.code	16
 1665              		.thumb_func
 1666              		.type	TimerTestMode_SetCountMode, %function
 1667              	TimerTestMode_SetCountMode:
 1668              	.LFB34:
1203:Generated_Source\PSoC4/TimerTestMode.c **** 
1204:Generated_Source\PSoC4/TimerTestMode.c **** 
1205:Generated_Source\PSoC4/TimerTestMode.c **** /*******************************************************************************
1206:Generated_Source\PSoC4/TimerTestMode.c **** * Function Name: TimerTestMode_SetCountMode
1207:Generated_Source\PSoC4/TimerTestMode.c **** ********************************************************************************
1208:Generated_Source\PSoC4/TimerTestMode.c **** *
1209:Generated_Source\PSoC4/TimerTestMode.c **** * Summary:
1210:Generated_Source\PSoC4/TimerTestMode.c **** *  Sets the count trigger mode. For Quadrature Decoder mode this is the phiA
1211:Generated_Source\PSoC4/TimerTestMode.c **** *  input.
1212:Generated_Source\PSoC4/TimerTestMode.c **** *
1213:Generated_Source\PSoC4/TimerTestMode.c **** * Parameters:
1214:Generated_Source\PSoC4/TimerTestMode.c **** *  triggerMode: Enumerated trigger mode value
1215:Generated_Source\PSoC4/TimerTestMode.c **** *   Values:
1216:Generated_Source\PSoC4/TimerTestMode.c **** *     - TimerTestMode_TRIG_LEVEL     - Level
1217:Generated_Source\PSoC4/TimerTestMode.c **** *     - TimerTestMode_TRIG_RISING    - Rising edge
1218:Generated_Source\PSoC4/TimerTestMode.c **** *     - TimerTestMode_TRIG_FALLING   - Falling edge
1219:Generated_Source\PSoC4/TimerTestMode.c **** *     - TimerTestMode_TRIG_BOTH      - Both rising and falling edge
1220:Generated_Source\PSoC4/TimerTestMode.c **** *
1221:Generated_Source\PSoC4/TimerTestMode.c **** * Return:
1222:Generated_Source\PSoC4/TimerTestMode.c **** *  None
1223:Generated_Source\PSoC4/TimerTestMode.c **** *
1224:Generated_Source\PSoC4/TimerTestMode.c **** *******************************************************************************/
1225:Generated_Source\PSoC4/TimerTestMode.c **** void TimerTestMode_SetCountMode(uint32 triggerMode)
1226:Generated_Source\PSoC4/TimerTestMode.c **** {
 1669              		.loc 1 1226 0
 1670              		.cfi_startproc
 1671              		@ args = 0, pretend = 0, frame = 16
 1672              		@ frame_needed = 1, uses_anonymous_args = 0
 1673 0000 90B5     		push	{r4, r7, lr}
 1674              		.cfi_def_cfa_offset 12
 1675              		.cfi_offset 4, -12
 1676              		.cfi_offset 7, -8
 1677              		.cfi_offset 14, -4
 1678 0002 85B0     		sub	sp, sp, #20
 1679              		.cfi_def_cfa_offset 32
 1680 0004 00AF     		add	r7, sp, #0
 1681              		.cfi_def_cfa_register 7
ARM GAS  C:\Users\Petro\AppData\Local\Temp\ccbTbeKH.s 			page 52


 1682 0006 7860     		str	r0, [r7, #4]
1227:Generated_Source\PSoC4/TimerTestMode.c ****     uint8 enableInterrupts;
1228:Generated_Source\PSoC4/TimerTestMode.c **** 
1229:Generated_Source\PSoC4/TimerTestMode.c ****     enableInterrupts = CyEnterCriticalSection();
 1683              		.loc 1 1229 0
 1684 0008 0F23     		movs	r3, #15
 1685 000a FC18     		adds	r4, r7, r3
 1686 000c FFF7FEFF 		bl	CyEnterCriticalSection
 1687 0010 0300     		movs	r3, r0
 1688 0012 2370     		strb	r3, [r4]
1230:Generated_Source\PSoC4/TimerTestMode.c **** 
1231:Generated_Source\PSoC4/TimerTestMode.c ****     TimerTestMode_TRIG_CONTROL1_REG &= (uint32)~TimerTestMode_COUNT_MASK;
 1689              		.loc 1 1231 0
 1690 0014 0B4B     		ldr	r3, .L106
 1691 0016 0B4A     		ldr	r2, .L106
 1692 0018 1268     		ldr	r2, [r2]
 1693 001a 0C21     		movs	r1, #12
 1694 001c 8A43     		bics	r2, r1
 1695 001e 1A60     		str	r2, [r3]
1232:Generated_Source\PSoC4/TimerTestMode.c ****     TimerTestMode_TRIG_CONTROL1_REG |= ((uint32)(triggerMode << TimerTestMode_COUNT_SHIFT));
 1696              		.loc 1 1232 0
 1697 0020 084B     		ldr	r3, .L106
 1698 0022 084A     		ldr	r2, .L106
 1699 0024 1168     		ldr	r1, [r2]
 1700 0026 7A68     		ldr	r2, [r7, #4]
 1701 0028 9200     		lsls	r2, r2, #2
 1702 002a 0A43     		orrs	r2, r1
 1703 002c 1A60     		str	r2, [r3]
1233:Generated_Source\PSoC4/TimerTestMode.c **** 
1234:Generated_Source\PSoC4/TimerTestMode.c ****     CyExitCriticalSection(enableInterrupts);
 1704              		.loc 1 1234 0
 1705 002e 0F23     		movs	r3, #15
 1706 0030 FB18     		adds	r3, r7, r3
 1707 0032 1B78     		ldrb	r3, [r3]
 1708 0034 1800     		movs	r0, r3
 1709 0036 FFF7FEFF 		bl	CyExitCriticalSection
1235:Generated_Source\PSoC4/TimerTestMode.c **** }
 1710              		.loc 1 1235 0
 1711 003a C046     		nop
 1712 003c BD46     		mov	sp, r7
 1713 003e 05B0     		add	sp, sp, #20
 1714              		@ sp needed
 1715 0040 90BD     		pop	{r4, r7, pc}
 1716              	.L107:
 1717 0042 C046     		.align	2
 1718              	.L106:
 1719 0044 64012040 		.word	1075839332
 1720              		.cfi_endproc
 1721              	.LFE34:
 1722              		.size	TimerTestMode_SetCountMode, .-TimerTestMode_SetCountMode
 1723              		.section	.text.TimerTestMode_TriggerCommand,"ax",%progbits
 1724              		.align	2
 1725              		.global	TimerTestMode_TriggerCommand
 1726              		.code	16
 1727              		.thumb_func
 1728              		.type	TimerTestMode_TriggerCommand, %function
 1729              	TimerTestMode_TriggerCommand:
ARM GAS  C:\Users\Petro\AppData\Local\Temp\ccbTbeKH.s 			page 53


 1730              	.LFB35:
1236:Generated_Source\PSoC4/TimerTestMode.c **** 
1237:Generated_Source\PSoC4/TimerTestMode.c **** 
1238:Generated_Source\PSoC4/TimerTestMode.c **** /*******************************************************************************
1239:Generated_Source\PSoC4/TimerTestMode.c **** * Function Name: TimerTestMode_TriggerCommand
1240:Generated_Source\PSoC4/TimerTestMode.c **** ********************************************************************************
1241:Generated_Source\PSoC4/TimerTestMode.c **** *
1242:Generated_Source\PSoC4/TimerTestMode.c **** * Summary:
1243:Generated_Source\PSoC4/TimerTestMode.c **** *  Triggers the designated command to occur on the designated TCPWM instances.
1244:Generated_Source\PSoC4/TimerTestMode.c **** *  The mask can be used to apply this command simultaneously to more than one
1245:Generated_Source\PSoC4/TimerTestMode.c **** *  instance.  This allows multiple TCPWM instances to be synchronized.
1246:Generated_Source\PSoC4/TimerTestMode.c **** *
1247:Generated_Source\PSoC4/TimerTestMode.c **** * Parameters:
1248:Generated_Source\PSoC4/TimerTestMode.c **** *  mask: A combination of mask bits for each instance of the TCPWM that the
1249:Generated_Source\PSoC4/TimerTestMode.c **** *        command should apply to.  This function from one instance can be used
1250:Generated_Source\PSoC4/TimerTestMode.c **** *        to apply the command to any of the instances in the design.
1251:Generated_Source\PSoC4/TimerTestMode.c **** *        The mask value for a specific instance is available with the MASK
1252:Generated_Source\PSoC4/TimerTestMode.c **** *        define.
1253:Generated_Source\PSoC4/TimerTestMode.c **** *  command: Enumerated command values. Capture command only applicable for
1254:Generated_Source\PSoC4/TimerTestMode.c **** *           Timer/Counter with Capture and PWM modes.
1255:Generated_Source\PSoC4/TimerTestMode.c **** *   Values:
1256:Generated_Source\PSoC4/TimerTestMode.c **** *     - TimerTestMode_CMD_CAPTURE    - Trigger Capture/Switch command
1257:Generated_Source\PSoC4/TimerTestMode.c **** *     - TimerTestMode_CMD_RELOAD     - Trigger Reload/Index command
1258:Generated_Source\PSoC4/TimerTestMode.c **** *     - TimerTestMode_CMD_STOP       - Trigger Stop/Kill command
1259:Generated_Source\PSoC4/TimerTestMode.c **** *     - TimerTestMode_CMD_START      - Trigger Start/phiB command
1260:Generated_Source\PSoC4/TimerTestMode.c **** *
1261:Generated_Source\PSoC4/TimerTestMode.c **** * Return:
1262:Generated_Source\PSoC4/TimerTestMode.c **** *  None
1263:Generated_Source\PSoC4/TimerTestMode.c **** *
1264:Generated_Source\PSoC4/TimerTestMode.c **** *******************************************************************************/
1265:Generated_Source\PSoC4/TimerTestMode.c **** void TimerTestMode_TriggerCommand(uint32 mask, uint32 command)
1266:Generated_Source\PSoC4/TimerTestMode.c **** {
 1731              		.loc 1 1266 0
 1732              		.cfi_startproc
 1733              		@ args = 0, pretend = 0, frame = 16
 1734              		@ frame_needed = 1, uses_anonymous_args = 0
 1735 0000 90B5     		push	{r4, r7, lr}
 1736              		.cfi_def_cfa_offset 12
 1737              		.cfi_offset 4, -12
 1738              		.cfi_offset 7, -8
 1739              		.cfi_offset 14, -4
 1740 0002 85B0     		sub	sp, sp, #20
 1741              		.cfi_def_cfa_offset 32
 1742 0004 00AF     		add	r7, sp, #0
 1743              		.cfi_def_cfa_register 7
 1744 0006 7860     		str	r0, [r7, #4]
 1745 0008 3960     		str	r1, [r7]
1267:Generated_Source\PSoC4/TimerTestMode.c ****     uint8 enableInterrupts;
1268:Generated_Source\PSoC4/TimerTestMode.c **** 
1269:Generated_Source\PSoC4/TimerTestMode.c ****     enableInterrupts = CyEnterCriticalSection();
 1746              		.loc 1 1269 0
 1747 000a 0F23     		movs	r3, #15
 1748 000c FC18     		adds	r4, r7, r3
 1749 000e FFF7FEFF 		bl	CyEnterCriticalSection
 1750 0012 0300     		movs	r3, r0
 1751 0014 2370     		strb	r3, [r4]
1270:Generated_Source\PSoC4/TimerTestMode.c **** 
ARM GAS  C:\Users\Petro\AppData\Local\Temp\ccbTbeKH.s 			page 54


1271:Generated_Source\PSoC4/TimerTestMode.c ****     TimerTestMode_COMMAND_REG = ((uint32)(mask << command));
 1752              		.loc 1 1271 0
 1753 0016 084B     		ldr	r3, .L109
 1754 0018 7968     		ldr	r1, [r7, #4]
 1755 001a 3A68     		ldr	r2, [r7]
 1756 001c 9140     		lsls	r1, r1, r2
 1757 001e 0A00     		movs	r2, r1
 1758 0020 1A60     		str	r2, [r3]
1272:Generated_Source\PSoC4/TimerTestMode.c **** 
1273:Generated_Source\PSoC4/TimerTestMode.c ****     CyExitCriticalSection(enableInterrupts);
 1759              		.loc 1 1273 0
 1760 0022 0F23     		movs	r3, #15
 1761 0024 FB18     		adds	r3, r7, r3
 1762 0026 1B78     		ldrb	r3, [r3]
 1763 0028 1800     		movs	r0, r3
 1764 002a FFF7FEFF 		bl	CyExitCriticalSection
1274:Generated_Source\PSoC4/TimerTestMode.c **** }
 1765              		.loc 1 1274 0
 1766 002e C046     		nop
 1767 0030 BD46     		mov	sp, r7
 1768 0032 05B0     		add	sp, sp, #20
 1769              		@ sp needed
 1770 0034 90BD     		pop	{r4, r7, pc}
 1771              	.L110:
 1772 0036 C046     		.align	2
 1773              	.L109:
 1774 0038 08002040 		.word	1075838984
 1775              		.cfi_endproc
 1776              	.LFE35:
 1777              		.size	TimerTestMode_TriggerCommand, .-TimerTestMode_TriggerCommand
 1778              		.section	.text.TimerTestMode_ReadStatus,"ax",%progbits
 1779              		.align	2
 1780              		.global	TimerTestMode_ReadStatus
 1781              		.code	16
 1782              		.thumb_func
 1783              		.type	TimerTestMode_ReadStatus, %function
 1784              	TimerTestMode_ReadStatus:
 1785              	.LFB36:
1275:Generated_Source\PSoC4/TimerTestMode.c **** 
1276:Generated_Source\PSoC4/TimerTestMode.c **** 
1277:Generated_Source\PSoC4/TimerTestMode.c **** /*******************************************************************************
1278:Generated_Source\PSoC4/TimerTestMode.c **** * Function Name: TimerTestMode_ReadStatus
1279:Generated_Source\PSoC4/TimerTestMode.c **** ********************************************************************************
1280:Generated_Source\PSoC4/TimerTestMode.c **** *
1281:Generated_Source\PSoC4/TimerTestMode.c **** * Summary:
1282:Generated_Source\PSoC4/TimerTestMode.c **** *  Reads the status of the TimerTestMode.
1283:Generated_Source\PSoC4/TimerTestMode.c **** *
1284:Generated_Source\PSoC4/TimerTestMode.c **** * Parameters:
1285:Generated_Source\PSoC4/TimerTestMode.c **** *  None
1286:Generated_Source\PSoC4/TimerTestMode.c **** *
1287:Generated_Source\PSoC4/TimerTestMode.c **** * Return:
1288:Generated_Source\PSoC4/TimerTestMode.c **** *  Status
1289:Generated_Source\PSoC4/TimerTestMode.c **** *   Values:
1290:Generated_Source\PSoC4/TimerTestMode.c **** *     - TimerTestMode_STATUS_DOWN    - Set if counting down
1291:Generated_Source\PSoC4/TimerTestMode.c **** *     - TimerTestMode_STATUS_RUNNING - Set if counter is running
1292:Generated_Source\PSoC4/TimerTestMode.c **** *
1293:Generated_Source\PSoC4/TimerTestMode.c **** *******************************************************************************/
ARM GAS  C:\Users\Petro\AppData\Local\Temp\ccbTbeKH.s 			page 55


1294:Generated_Source\PSoC4/TimerTestMode.c **** uint32 TimerTestMode_ReadStatus(void)
1295:Generated_Source\PSoC4/TimerTestMode.c **** {
 1786              		.loc 1 1295 0
 1787              		.cfi_startproc
 1788              		@ args = 0, pretend = 0, frame = 0
 1789              		@ frame_needed = 1, uses_anonymous_args = 0
 1790 0000 80B5     		push	{r7, lr}
 1791              		.cfi_def_cfa_offset 8
 1792              		.cfi_offset 7, -8
 1793              		.cfi_offset 14, -4
 1794 0002 00AF     		add	r7, sp, #0
 1795              		.cfi_def_cfa_register 7
1296:Generated_Source\PSoC4/TimerTestMode.c ****     return ((TimerTestMode_STATUS_REG >> TimerTestMode_RUNNING_STATUS_SHIFT) |
 1796              		.loc 1 1296 0
 1797 0004 054B     		ldr	r3, .L113
 1798 0006 1B68     		ldr	r3, [r3]
 1799 0008 9A0F     		lsrs	r2, r3, #30
1297:Generated_Source\PSoC4/TimerTestMode.c ****             (TimerTestMode_STATUS_REG & TimerTestMode_STATUS_DOWN));
 1800              		.loc 1 1297 0
 1801 000a 044B     		ldr	r3, .L113
 1802 000c 1B68     		ldr	r3, [r3]
 1803 000e 0121     		movs	r1, #1
 1804 0010 0B40     		ands	r3, r1
1296:Generated_Source\PSoC4/TimerTestMode.c ****     return ((TimerTestMode_STATUS_REG >> TimerTestMode_RUNNING_STATUS_SHIFT) |
 1805              		.loc 1 1296 0
 1806 0012 1343     		orrs	r3, r2
1298:Generated_Source\PSoC4/TimerTestMode.c **** }
 1807              		.loc 1 1298 0
 1808 0014 1800     		movs	r0, r3
 1809 0016 BD46     		mov	sp, r7
 1810              		@ sp needed
 1811 0018 80BD     		pop	{r7, pc}
 1812              	.L114:
 1813 001a C046     		.align	2
 1814              	.L113:
 1815 001c 44012040 		.word	1075839300
 1816              		.cfi_endproc
 1817              	.LFE36:
 1818              		.size	TimerTestMode_ReadStatus, .-TimerTestMode_ReadStatus
 1819              		.section	.text.TimerTestMode_SetInterruptMode,"ax",%progbits
 1820              		.align	2
 1821              		.global	TimerTestMode_SetInterruptMode
 1822              		.code	16
 1823              		.thumb_func
 1824              		.type	TimerTestMode_SetInterruptMode, %function
 1825              	TimerTestMode_SetInterruptMode:
 1826              	.LFB37:
1299:Generated_Source\PSoC4/TimerTestMode.c **** 
1300:Generated_Source\PSoC4/TimerTestMode.c **** 
1301:Generated_Source\PSoC4/TimerTestMode.c **** /*******************************************************************************
1302:Generated_Source\PSoC4/TimerTestMode.c **** * Function Name: TimerTestMode_SetInterruptMode
1303:Generated_Source\PSoC4/TimerTestMode.c **** ********************************************************************************
1304:Generated_Source\PSoC4/TimerTestMode.c **** *
1305:Generated_Source\PSoC4/TimerTestMode.c **** * Summary:
1306:Generated_Source\PSoC4/TimerTestMode.c **** *  Sets the interrupt mask to control which interrupt
1307:Generated_Source\PSoC4/TimerTestMode.c **** *  requests generate the interrupt signal.
1308:Generated_Source\PSoC4/TimerTestMode.c **** *
ARM GAS  C:\Users\Petro\AppData\Local\Temp\ccbTbeKH.s 			page 56


1309:Generated_Source\PSoC4/TimerTestMode.c **** * Parameters:
1310:Generated_Source\PSoC4/TimerTestMode.c **** *   interruptMask: Mask of bits to be enabled
1311:Generated_Source\PSoC4/TimerTestMode.c **** *   Values:
1312:Generated_Source\PSoC4/TimerTestMode.c **** *     - TimerTestMode_INTR_MASK_TC       - Terminal count mask
1313:Generated_Source\PSoC4/TimerTestMode.c **** *     - TimerTestMode_INTR_MASK_CC_MATCH - Compare count / capture mask
1314:Generated_Source\PSoC4/TimerTestMode.c **** *
1315:Generated_Source\PSoC4/TimerTestMode.c **** * Return:
1316:Generated_Source\PSoC4/TimerTestMode.c **** *  None
1317:Generated_Source\PSoC4/TimerTestMode.c **** *
1318:Generated_Source\PSoC4/TimerTestMode.c **** *******************************************************************************/
1319:Generated_Source\PSoC4/TimerTestMode.c **** void TimerTestMode_SetInterruptMode(uint32 interruptMask)
1320:Generated_Source\PSoC4/TimerTestMode.c **** {
 1827              		.loc 1 1320 0
 1828              		.cfi_startproc
 1829              		@ args = 0, pretend = 0, frame = 8
 1830              		@ frame_needed = 1, uses_anonymous_args = 0
 1831 0000 80B5     		push	{r7, lr}
 1832              		.cfi_def_cfa_offset 8
 1833              		.cfi_offset 7, -8
 1834              		.cfi_offset 14, -4
 1835 0002 82B0     		sub	sp, sp, #8
 1836              		.cfi_def_cfa_offset 16
 1837 0004 00AF     		add	r7, sp, #0
 1838              		.cfi_def_cfa_register 7
 1839 0006 7860     		str	r0, [r7, #4]
1321:Generated_Source\PSoC4/TimerTestMode.c ****     TimerTestMode_INTERRUPT_MASK_REG =  interruptMask;
 1840              		.loc 1 1321 0
 1841 0008 034B     		ldr	r3, .L116
 1842 000a 7A68     		ldr	r2, [r7, #4]
 1843 000c 1A60     		str	r2, [r3]
1322:Generated_Source\PSoC4/TimerTestMode.c **** }
 1844              		.loc 1 1322 0
 1845 000e C046     		nop
 1846 0010 BD46     		mov	sp, r7
 1847 0012 02B0     		add	sp, sp, #8
 1848              		@ sp needed
 1849 0014 80BD     		pop	{r7, pc}
 1850              	.L117:
 1851 0016 C046     		.align	2
 1852              	.L116:
 1853 0018 78012040 		.word	1075839352
 1854              		.cfi_endproc
 1855              	.LFE37:
 1856              		.size	TimerTestMode_SetInterruptMode, .-TimerTestMode_SetInterruptMode
 1857              		.section	.text.TimerTestMode_GetInterruptSourceMasked,"ax",%progbits
 1858              		.align	2
 1859              		.global	TimerTestMode_GetInterruptSourceMasked
 1860              		.code	16
 1861              		.thumb_func
 1862              		.type	TimerTestMode_GetInterruptSourceMasked, %function
 1863              	TimerTestMode_GetInterruptSourceMasked:
 1864              	.LFB38:
1323:Generated_Source\PSoC4/TimerTestMode.c **** 
1324:Generated_Source\PSoC4/TimerTestMode.c **** 
1325:Generated_Source\PSoC4/TimerTestMode.c **** /*******************************************************************************
1326:Generated_Source\PSoC4/TimerTestMode.c **** * Function Name: TimerTestMode_GetInterruptSourceMasked
1327:Generated_Source\PSoC4/TimerTestMode.c **** ********************************************************************************
ARM GAS  C:\Users\Petro\AppData\Local\Temp\ccbTbeKH.s 			page 57


1328:Generated_Source\PSoC4/TimerTestMode.c **** *
1329:Generated_Source\PSoC4/TimerTestMode.c **** * Summary:
1330:Generated_Source\PSoC4/TimerTestMode.c **** *  Gets the interrupt requests masked by the interrupt mask.
1331:Generated_Source\PSoC4/TimerTestMode.c **** *
1332:Generated_Source\PSoC4/TimerTestMode.c **** * Parameters:
1333:Generated_Source\PSoC4/TimerTestMode.c **** *   None
1334:Generated_Source\PSoC4/TimerTestMode.c **** *
1335:Generated_Source\PSoC4/TimerTestMode.c **** * Return:
1336:Generated_Source\PSoC4/TimerTestMode.c **** *  Masked interrupt source
1337:Generated_Source\PSoC4/TimerTestMode.c **** *   Values:
1338:Generated_Source\PSoC4/TimerTestMode.c **** *     - TimerTestMode_INTR_MASK_TC       - Terminal count mask
1339:Generated_Source\PSoC4/TimerTestMode.c **** *     - TimerTestMode_INTR_MASK_CC_MATCH - Compare count / capture mask
1340:Generated_Source\PSoC4/TimerTestMode.c **** *
1341:Generated_Source\PSoC4/TimerTestMode.c **** *******************************************************************************/
1342:Generated_Source\PSoC4/TimerTestMode.c **** uint32 TimerTestMode_GetInterruptSourceMasked(void)
1343:Generated_Source\PSoC4/TimerTestMode.c **** {
 1865              		.loc 1 1343 0
 1866              		.cfi_startproc
 1867              		@ args = 0, pretend = 0, frame = 0
 1868              		@ frame_needed = 1, uses_anonymous_args = 0
 1869 0000 80B5     		push	{r7, lr}
 1870              		.cfi_def_cfa_offset 8
 1871              		.cfi_offset 7, -8
 1872              		.cfi_offset 14, -4
 1873 0002 00AF     		add	r7, sp, #0
 1874              		.cfi_def_cfa_register 7
1344:Generated_Source\PSoC4/TimerTestMode.c ****     return (TimerTestMode_INTERRUPT_MASKED_REG);
 1875              		.loc 1 1344 0
 1876 0004 024B     		ldr	r3, .L120
 1877 0006 1B68     		ldr	r3, [r3]
1345:Generated_Source\PSoC4/TimerTestMode.c **** }
 1878              		.loc 1 1345 0
 1879 0008 1800     		movs	r0, r3
 1880 000a BD46     		mov	sp, r7
 1881              		@ sp needed
 1882 000c 80BD     		pop	{r7, pc}
 1883              	.L121:
 1884 000e C046     		.align	2
 1885              	.L120:
 1886 0010 7C012040 		.word	1075839356
 1887              		.cfi_endproc
 1888              	.LFE38:
 1889              		.size	TimerTestMode_GetInterruptSourceMasked, .-TimerTestMode_GetInterruptSourceMasked
 1890              		.section	.text.TimerTestMode_GetInterruptSource,"ax",%progbits
 1891              		.align	2
 1892              		.global	TimerTestMode_GetInterruptSource
 1893              		.code	16
 1894              		.thumb_func
 1895              		.type	TimerTestMode_GetInterruptSource, %function
 1896              	TimerTestMode_GetInterruptSource:
 1897              	.LFB39:
1346:Generated_Source\PSoC4/TimerTestMode.c **** 
1347:Generated_Source\PSoC4/TimerTestMode.c **** 
1348:Generated_Source\PSoC4/TimerTestMode.c **** /*******************************************************************************
1349:Generated_Source\PSoC4/TimerTestMode.c **** * Function Name: TimerTestMode_GetInterruptSource
1350:Generated_Source\PSoC4/TimerTestMode.c **** ********************************************************************************
1351:Generated_Source\PSoC4/TimerTestMode.c **** *
ARM GAS  C:\Users\Petro\AppData\Local\Temp\ccbTbeKH.s 			page 58


1352:Generated_Source\PSoC4/TimerTestMode.c **** * Summary:
1353:Generated_Source\PSoC4/TimerTestMode.c **** *  Gets the interrupt requests (without masking).
1354:Generated_Source\PSoC4/TimerTestMode.c **** *
1355:Generated_Source\PSoC4/TimerTestMode.c **** * Parameters:
1356:Generated_Source\PSoC4/TimerTestMode.c **** *  None
1357:Generated_Source\PSoC4/TimerTestMode.c **** *
1358:Generated_Source\PSoC4/TimerTestMode.c **** * Return:
1359:Generated_Source\PSoC4/TimerTestMode.c **** *  Interrupt request value
1360:Generated_Source\PSoC4/TimerTestMode.c **** *   Values:
1361:Generated_Source\PSoC4/TimerTestMode.c **** *     - TimerTestMode_INTR_MASK_TC       - Terminal count mask
1362:Generated_Source\PSoC4/TimerTestMode.c **** *     - TimerTestMode_INTR_MASK_CC_MATCH - Compare count / capture mask
1363:Generated_Source\PSoC4/TimerTestMode.c **** *
1364:Generated_Source\PSoC4/TimerTestMode.c **** *******************************************************************************/
1365:Generated_Source\PSoC4/TimerTestMode.c **** uint32 TimerTestMode_GetInterruptSource(void)
1366:Generated_Source\PSoC4/TimerTestMode.c **** {
 1898              		.loc 1 1366 0
 1899              		.cfi_startproc
 1900              		@ args = 0, pretend = 0, frame = 0
 1901              		@ frame_needed = 1, uses_anonymous_args = 0
 1902 0000 80B5     		push	{r7, lr}
 1903              		.cfi_def_cfa_offset 8
 1904              		.cfi_offset 7, -8
 1905              		.cfi_offset 14, -4
 1906 0002 00AF     		add	r7, sp, #0
 1907              		.cfi_def_cfa_register 7
1367:Generated_Source\PSoC4/TimerTestMode.c ****     return (TimerTestMode_INTERRUPT_REQ_REG);
 1908              		.loc 1 1367 0
 1909 0004 024B     		ldr	r3, .L124
 1910 0006 1B68     		ldr	r3, [r3]
1368:Generated_Source\PSoC4/TimerTestMode.c **** }
 1911              		.loc 1 1368 0
 1912 0008 1800     		movs	r0, r3
 1913 000a BD46     		mov	sp, r7
 1914              		@ sp needed
 1915 000c 80BD     		pop	{r7, pc}
 1916              	.L125:
 1917 000e C046     		.align	2
 1918              	.L124:
 1919 0010 70012040 		.word	1075839344
 1920              		.cfi_endproc
 1921              	.LFE39:
 1922              		.size	TimerTestMode_GetInterruptSource, .-TimerTestMode_GetInterruptSource
 1923              		.section	.text.TimerTestMode_ClearInterrupt,"ax",%progbits
 1924              		.align	2
 1925              		.global	TimerTestMode_ClearInterrupt
 1926              		.code	16
 1927              		.thumb_func
 1928              		.type	TimerTestMode_ClearInterrupt, %function
 1929              	TimerTestMode_ClearInterrupt:
 1930              	.LFB40:
1369:Generated_Source\PSoC4/TimerTestMode.c **** 
1370:Generated_Source\PSoC4/TimerTestMode.c **** 
1371:Generated_Source\PSoC4/TimerTestMode.c **** /*******************************************************************************
1372:Generated_Source\PSoC4/TimerTestMode.c **** * Function Name: TimerTestMode_ClearInterrupt
1373:Generated_Source\PSoC4/TimerTestMode.c **** ********************************************************************************
1374:Generated_Source\PSoC4/TimerTestMode.c **** *
1375:Generated_Source\PSoC4/TimerTestMode.c **** * Summary:
ARM GAS  C:\Users\Petro\AppData\Local\Temp\ccbTbeKH.s 			page 59


1376:Generated_Source\PSoC4/TimerTestMode.c **** *  Clears the interrupt request.
1377:Generated_Source\PSoC4/TimerTestMode.c **** *
1378:Generated_Source\PSoC4/TimerTestMode.c **** * Parameters:
1379:Generated_Source\PSoC4/TimerTestMode.c **** *   interruptMask: Mask of interrupts to clear
1380:Generated_Source\PSoC4/TimerTestMode.c **** *   Values:
1381:Generated_Source\PSoC4/TimerTestMode.c **** *     - TimerTestMode_INTR_MASK_TC       - Terminal count mask
1382:Generated_Source\PSoC4/TimerTestMode.c **** *     - TimerTestMode_INTR_MASK_CC_MATCH - Compare count / capture mask
1383:Generated_Source\PSoC4/TimerTestMode.c **** *
1384:Generated_Source\PSoC4/TimerTestMode.c **** * Return:
1385:Generated_Source\PSoC4/TimerTestMode.c **** *  None
1386:Generated_Source\PSoC4/TimerTestMode.c **** *
1387:Generated_Source\PSoC4/TimerTestMode.c **** *******************************************************************************/
1388:Generated_Source\PSoC4/TimerTestMode.c **** void TimerTestMode_ClearInterrupt(uint32 interruptMask)
1389:Generated_Source\PSoC4/TimerTestMode.c **** {
 1931              		.loc 1 1389 0
 1932              		.cfi_startproc
 1933              		@ args = 0, pretend = 0, frame = 8
 1934              		@ frame_needed = 1, uses_anonymous_args = 0
 1935 0000 80B5     		push	{r7, lr}
 1936              		.cfi_def_cfa_offset 8
 1937              		.cfi_offset 7, -8
 1938              		.cfi_offset 14, -4
 1939 0002 82B0     		sub	sp, sp, #8
 1940              		.cfi_def_cfa_offset 16
 1941 0004 00AF     		add	r7, sp, #0
 1942              		.cfi_def_cfa_register 7
 1943 0006 7860     		str	r0, [r7, #4]
1390:Generated_Source\PSoC4/TimerTestMode.c ****     TimerTestMode_INTERRUPT_REQ_REG = interruptMask;
 1944              		.loc 1 1390 0
 1945 0008 034B     		ldr	r3, .L127
 1946 000a 7A68     		ldr	r2, [r7, #4]
 1947 000c 1A60     		str	r2, [r3]
1391:Generated_Source\PSoC4/TimerTestMode.c **** }
 1948              		.loc 1 1391 0
 1949 000e C046     		nop
 1950 0010 BD46     		mov	sp, r7
 1951 0012 02B0     		add	sp, sp, #8
 1952              		@ sp needed
 1953 0014 80BD     		pop	{r7, pc}
 1954              	.L128:
 1955 0016 C046     		.align	2
 1956              	.L127:
 1957 0018 70012040 		.word	1075839344
 1958              		.cfi_endproc
 1959              	.LFE40:
 1960              		.size	TimerTestMode_ClearInterrupt, .-TimerTestMode_ClearInterrupt
 1961              		.section	.text.TimerTestMode_SetInterrupt,"ax",%progbits
 1962              		.align	2
 1963              		.global	TimerTestMode_SetInterrupt
 1964              		.code	16
 1965              		.thumb_func
 1966              		.type	TimerTestMode_SetInterrupt, %function
 1967              	TimerTestMode_SetInterrupt:
 1968              	.LFB41:
1392:Generated_Source\PSoC4/TimerTestMode.c **** 
1393:Generated_Source\PSoC4/TimerTestMode.c **** 
1394:Generated_Source\PSoC4/TimerTestMode.c **** /*******************************************************************************
ARM GAS  C:\Users\Petro\AppData\Local\Temp\ccbTbeKH.s 			page 60


1395:Generated_Source\PSoC4/TimerTestMode.c **** * Function Name: TimerTestMode_SetInterrupt
1396:Generated_Source\PSoC4/TimerTestMode.c **** ********************************************************************************
1397:Generated_Source\PSoC4/TimerTestMode.c **** *
1398:Generated_Source\PSoC4/TimerTestMode.c **** * Summary:
1399:Generated_Source\PSoC4/TimerTestMode.c **** *  Sets a software interrupt request.
1400:Generated_Source\PSoC4/TimerTestMode.c **** *
1401:Generated_Source\PSoC4/TimerTestMode.c **** * Parameters:
1402:Generated_Source\PSoC4/TimerTestMode.c **** *   interruptMask: Mask of interrupts to set
1403:Generated_Source\PSoC4/TimerTestMode.c **** *   Values:
1404:Generated_Source\PSoC4/TimerTestMode.c **** *     - TimerTestMode_INTR_MASK_TC       - Terminal count mask
1405:Generated_Source\PSoC4/TimerTestMode.c **** *     - TimerTestMode_INTR_MASK_CC_MATCH - Compare count / capture mask
1406:Generated_Source\PSoC4/TimerTestMode.c **** *
1407:Generated_Source\PSoC4/TimerTestMode.c **** * Return:
1408:Generated_Source\PSoC4/TimerTestMode.c **** *  None
1409:Generated_Source\PSoC4/TimerTestMode.c **** *
1410:Generated_Source\PSoC4/TimerTestMode.c **** *******************************************************************************/
1411:Generated_Source\PSoC4/TimerTestMode.c **** void TimerTestMode_SetInterrupt(uint32 interruptMask)
1412:Generated_Source\PSoC4/TimerTestMode.c **** {
 1969              		.loc 1 1412 0
 1970              		.cfi_startproc
 1971              		@ args = 0, pretend = 0, frame = 8
 1972              		@ frame_needed = 1, uses_anonymous_args = 0
 1973 0000 80B5     		push	{r7, lr}
 1974              		.cfi_def_cfa_offset 8
 1975              		.cfi_offset 7, -8
 1976              		.cfi_offset 14, -4
 1977 0002 82B0     		sub	sp, sp, #8
 1978              		.cfi_def_cfa_offset 16
 1979 0004 00AF     		add	r7, sp, #0
 1980              		.cfi_def_cfa_register 7
 1981 0006 7860     		str	r0, [r7, #4]
1413:Generated_Source\PSoC4/TimerTestMode.c ****     TimerTestMode_INTERRUPT_SET_REG = interruptMask;
 1982              		.loc 1 1413 0
 1983 0008 034B     		ldr	r3, .L130
 1984 000a 7A68     		ldr	r2, [r7, #4]
 1985 000c 1A60     		str	r2, [r3]
1414:Generated_Source\PSoC4/TimerTestMode.c **** }
 1986              		.loc 1 1414 0
 1987 000e C046     		nop
 1988 0010 BD46     		mov	sp, r7
 1989 0012 02B0     		add	sp, sp, #8
 1990              		@ sp needed
 1991 0014 80BD     		pop	{r7, pc}
 1992              	.L131:
 1993 0016 C046     		.align	2
 1994              	.L130:
 1995 0018 74012040 		.word	1075839348
 1996              		.cfi_endproc
 1997              	.LFE41:
 1998              		.size	TimerTestMode_SetInterrupt, .-TimerTestMode_SetInterrupt
 1999              		.text
 2000              	.Letext0:
 2001              		.file 2 "Generated_Source\\PSoC4\\cytypes.h"
 2002              		.section	.debug_info,"",%progbits
 2003              	.Ldebug_info0:
 2004 0000 F7060000 		.4byte	0x6f7
 2005 0004 0400     		.2byte	0x4
ARM GAS  C:\Users\Petro\AppData\Local\Temp\ccbTbeKH.s 			page 61


 2006 0006 00000000 		.4byte	.Ldebug_abbrev0
 2007 000a 04       		.byte	0x4
 2008 000b 01       		.uleb128 0x1
 2009 000c D9020000 		.4byte	.LASF77
 2010 0010 0C       		.byte	0xc
 2011 0011 4A010000 		.4byte	.LASF78
 2012 0015 AA010000 		.4byte	.LASF79
 2013 0019 00000000 		.4byte	.Ldebug_ranges0+0
 2014 001d 00000000 		.4byte	0
 2015 0021 00000000 		.4byte	.Ldebug_line0
 2016 0025 02       		.uleb128 0x2
 2017 0026 01       		.byte	0x1
 2018 0027 06       		.byte	0x6
 2019 0028 AC000000 		.4byte	.LASF0
 2020 002c 02       		.uleb128 0x2
 2021 002d 01       		.byte	0x1
 2022 002e 08       		.byte	0x8
 2023 002f B6040000 		.4byte	.LASF1
 2024 0033 02       		.uleb128 0x2
 2025 0034 02       		.byte	0x2
 2026 0035 05       		.byte	0x5
 2027 0036 0B050000 		.4byte	.LASF2
 2028 003a 02       		.uleb128 0x2
 2029 003b 02       		.byte	0x2
 2030 003c 07       		.byte	0x7
 2031 003d 1D020000 		.4byte	.LASF3
 2032 0041 02       		.uleb128 0x2
 2033 0042 04       		.byte	0x4
 2034 0043 05       		.byte	0x5
 2035 0044 02010000 		.4byte	.LASF4
 2036 0048 02       		.uleb128 0x2
 2037 0049 04       		.byte	0x4
 2038 004a 07       		.byte	0x7
 2039 004b E6010000 		.4byte	.LASF5
 2040 004f 02       		.uleb128 0x2
 2041 0050 08       		.byte	0x8
 2042 0051 05       		.byte	0x5
 2043 0052 9E000000 		.4byte	.LASF6
 2044 0056 02       		.uleb128 0x2
 2045 0057 08       		.byte	0x8
 2046 0058 07       		.byte	0x7
 2047 0059 45000000 		.4byte	.LASF7
 2048 005d 03       		.uleb128 0x3
 2049 005e 04       		.byte	0x4
 2050 005f 05       		.byte	0x5
 2051 0060 696E7400 		.ascii	"int\000"
 2052 0064 02       		.uleb128 0x2
 2053 0065 04       		.byte	0x4
 2054 0066 07       		.byte	0x7
 2055 0067 7A010000 		.4byte	.LASF8
 2056 006b 04       		.uleb128 0x4
 2057 006c 0B010000 		.4byte	.LASF9
 2058 0070 02       		.byte	0x2
 2059 0071 9801     		.2byte	0x198
 2060 0073 2C000000 		.4byte	0x2c
 2061 0077 04       		.uleb128 0x4
 2062 0078 32010000 		.4byte	.LASF10
ARM GAS  C:\Users\Petro\AppData\Local\Temp\ccbTbeKH.s 			page 62


 2063 007c 02       		.byte	0x2
 2064 007d 9A01     		.2byte	0x19a
 2065 007f 48000000 		.4byte	0x48
 2066 0083 02       		.uleb128 0x2
 2067 0084 04       		.byte	0x4
 2068 0085 04       		.byte	0x4
 2069 0086 46040000 		.4byte	.LASF11
 2070 008a 02       		.uleb128 0x2
 2071 008b 08       		.byte	0x8
 2072 008c 04       		.byte	0x4
 2073 008d 11010000 		.4byte	.LASF12
 2074 0091 02       		.uleb128 0x2
 2075 0092 01       		.byte	0x1
 2076 0093 08       		.byte	0x8
 2077 0094 A9050000 		.4byte	.LASF13
 2078 0098 04       		.uleb128 0x4
 2079 0099 85030000 		.4byte	.LASF14
 2080 009d 02       		.byte	0x2
 2081 009e 4402     		.2byte	0x244
 2082 00a0 A4000000 		.4byte	0xa4
 2083 00a4 05       		.uleb128 0x5
 2084 00a5 77000000 		.4byte	0x77
 2085 00a9 02       		.uleb128 0x2
 2086 00aa 08       		.byte	0x8
 2087 00ab 04       		.byte	0x4
 2088 00ac D0030000 		.4byte	.LASF15
 2089 00b0 02       		.uleb128 0x2
 2090 00b1 04       		.byte	0x4
 2091 00b2 07       		.byte	0x7
 2092 00b3 A8030000 		.4byte	.LASF16
 2093 00b7 06       		.uleb128 0x6
 2094 00b8 94060000 		.4byte	.LASF17
 2095 00bc 01       		.byte	0x1
 2096 00bd 26       		.byte	0x26
 2097 00be 00000000 		.4byte	.LFB2
 2098 00c2 44000000 		.4byte	.LFE2-.LFB2
 2099 00c6 01       		.uleb128 0x1
 2100 00c7 9C       		.byte	0x9c
 2101 00c8 07       		.uleb128 0x7
 2102 00c9 3E050000 		.4byte	.LASF19
 2103 00cd 01       		.byte	0x1
 2104 00ce B1       		.byte	0xb1
 2105 00cf 00000000 		.4byte	.LFB3
 2106 00d3 3C000000 		.4byte	.LFE3-.LFB3
 2107 00d7 01       		.uleb128 0x1
 2108 00d8 9C       		.byte	0x9c
 2109 00d9 EC000000 		.4byte	0xec
 2110 00dd 08       		.uleb128 0x8
 2111 00de 4E060000 		.4byte	.LASF21
 2112 00e2 01       		.byte	0x1
 2113 00e3 B3       		.byte	0xb3
 2114 00e4 6B000000 		.4byte	0x6b
 2115 00e8 02       		.uleb128 0x2
 2116 00e9 91       		.byte	0x91
 2117 00ea 6F       		.sleb128 -17
 2118 00eb 00       		.byte	0
 2119 00ec 06       		.uleb128 0x6
ARM GAS  C:\Users\Petro\AppData\Local\Temp\ccbTbeKH.s 			page 63


 2120 00ed D3000000 		.4byte	.LASF18
 2121 00f1 01       		.byte	0x1
 2122 00f2 E6       		.byte	0xe6
 2123 00f3 00000000 		.4byte	.LFB4
 2124 00f7 24000000 		.4byte	.LFE4-.LFB4
 2125 00fb 01       		.uleb128 0x1
 2126 00fc 9C       		.byte	0x9c
 2127 00fd 09       		.uleb128 0x9
 2128 00fe F9030000 		.4byte	.LASF20
 2129 0102 01       		.byte	0x1
 2130 0103 0001     		.2byte	0x100
 2131 0105 00000000 		.4byte	.LFB5
 2132 0109 34000000 		.4byte	.LFE5-.LFB5
 2133 010d 01       		.uleb128 0x1
 2134 010e 9C       		.byte	0x9c
 2135 010f 23010000 		.4byte	0x123
 2136 0113 0A       		.uleb128 0xa
 2137 0114 4E060000 		.4byte	.LASF21
 2138 0118 01       		.byte	0x1
 2139 0119 0201     		.2byte	0x102
 2140 011b 6B000000 		.4byte	0x6b
 2141 011f 02       		.uleb128 0x2
 2142 0120 91       		.byte	0x91
 2143 0121 6F       		.sleb128 -17
 2144 0122 00       		.byte	0
 2145 0123 09       		.uleb128 0x9
 2146 0124 38060000 		.4byte	.LASF22
 2147 0128 01       		.byte	0x1
 2148 0129 2501     		.2byte	0x125
 2149 012b 00000000 		.4byte	.LFB6
 2150 012f 48000000 		.4byte	.LFE6-.LFB6
 2151 0133 01       		.uleb128 0x1
 2152 0134 9C       		.byte	0x9c
 2153 0135 58010000 		.4byte	0x158
 2154 0139 0B       		.uleb128 0xb
 2155 013a AE050000 		.4byte	.LASF24
 2156 013e 01       		.byte	0x1
 2157 013f 2501     		.2byte	0x125
 2158 0141 77000000 		.4byte	0x77
 2159 0145 02       		.uleb128 0x2
 2160 0146 91       		.byte	0x91
 2161 0147 64       		.sleb128 -28
 2162 0148 0A       		.uleb128 0xa
 2163 0149 4E060000 		.4byte	.LASF21
 2164 014d 01       		.byte	0x1
 2165 014e 2701     		.2byte	0x127
 2166 0150 6B000000 		.4byte	0x6b
 2167 0154 02       		.uleb128 0x2
 2168 0155 91       		.byte	0x91
 2169 0156 6F       		.sleb128 -17
 2170 0157 00       		.byte	0
 2171 0158 09       		.uleb128 0x9
 2172 0159 2E040000 		.4byte	.LASF23
 2173 015d 01       		.byte	0x1
 2174 015e 4601     		.2byte	0x146
 2175 0160 00000000 		.4byte	.LFB7
 2176 0164 48000000 		.4byte	.LFE7-.LFB7
ARM GAS  C:\Users\Petro\AppData\Local\Temp\ccbTbeKH.s 			page 64


 2177 0168 01       		.uleb128 0x1
 2178 0169 9C       		.byte	0x9c
 2179 016a 8D010000 		.4byte	0x18d
 2180 016e 0B       		.uleb128 0xb
 2181 016f 76000000 		.4byte	.LASF25
 2182 0173 01       		.byte	0x1
 2183 0174 4601     		.2byte	0x146
 2184 0176 77000000 		.4byte	0x77
 2185 017a 02       		.uleb128 0x2
 2186 017b 91       		.byte	0x91
 2187 017c 64       		.sleb128 -28
 2188 017d 0A       		.uleb128 0xa
 2189 017e 4E060000 		.4byte	.LASF21
 2190 0182 01       		.byte	0x1
 2191 0183 4801     		.2byte	0x148
 2192 0185 6B000000 		.4byte	0x6b
 2193 0189 02       		.uleb128 0x2
 2194 018a 91       		.byte	0x91
 2195 018b 6F       		.sleb128 -17
 2196 018c 00       		.byte	0
 2197 018d 09       		.uleb128 0x9
 2198 018e 87010000 		.4byte	.LASF26
 2199 0192 01       		.byte	0x1
 2200 0193 6B01     		.2byte	0x16b
 2201 0195 00000000 		.4byte	.LFB8
 2202 0199 48000000 		.4byte	.LFE8-.LFB8
 2203 019d 01       		.uleb128 0x1
 2204 019e 9C       		.byte	0x9c
 2205 019f C2010000 		.4byte	0x1c2
 2206 01a3 0B       		.uleb128 0xb
 2207 01a4 4C040000 		.4byte	.LASF27
 2208 01a8 01       		.byte	0x1
 2209 01a9 6B01     		.2byte	0x16b
 2210 01ab 77000000 		.4byte	0x77
 2211 01af 02       		.uleb128 0x2
 2212 01b0 91       		.byte	0x91
 2213 01b1 64       		.sleb128 -28
 2214 01b2 0A       		.uleb128 0xa
 2215 01b3 4E060000 		.4byte	.LASF21
 2216 01b7 01       		.byte	0x1
 2217 01b8 6D01     		.2byte	0x16d
 2218 01ba 6B000000 		.4byte	0x6b
 2219 01be 02       		.uleb128 0x2
 2220 01bf 91       		.byte	0x91
 2221 01c0 6F       		.sleb128 -17
 2222 01c1 00       		.byte	0
 2223 01c2 09       		.uleb128 0x9
 2224 01c3 30020000 		.4byte	.LASF28
 2225 01c7 01       		.byte	0x1
 2226 01c8 8B01     		.2byte	0x18b
 2227 01ca 00000000 		.4byte	.LFB9
 2228 01ce 50000000 		.4byte	.LFE9-.LFB9
 2229 01d2 01       		.uleb128 0x1
 2230 01d3 9C       		.byte	0x9c
 2231 01d4 F7010000 		.4byte	0x1f7
 2232 01d8 0B       		.uleb128 0xb
 2233 01d9 49020000 		.4byte	.LASF29
ARM GAS  C:\Users\Petro\AppData\Local\Temp\ccbTbeKH.s 			page 65


 2234 01dd 01       		.byte	0x1
 2235 01de 8B01     		.2byte	0x18b
 2236 01e0 77000000 		.4byte	0x77
 2237 01e4 02       		.uleb128 0x2
 2238 01e5 91       		.byte	0x91
 2239 01e6 64       		.sleb128 -28
 2240 01e7 0A       		.uleb128 0xa
 2241 01e8 4E060000 		.4byte	.LASF21
 2242 01ec 01       		.byte	0x1
 2243 01ed 8D01     		.2byte	0x18d
 2244 01ef 6B000000 		.4byte	0x6b
 2245 01f3 02       		.uleb128 0x2
 2246 01f4 91       		.byte	0x91
 2247 01f5 6F       		.sleb128 -17
 2248 01f6 00       		.byte	0
 2249 01f7 0C       		.uleb128 0xc
 2250 01f8 DA050000 		.4byte	.LASF30
 2251 01fc 01       		.byte	0x1
 2252 01fd C101     		.2byte	0x1c1
 2253 01ff 00000000 		.4byte	.LFB10
 2254 0203 20000000 		.4byte	.LFE10-.LFB10
 2255 0207 01       		.uleb128 0x1
 2256 0208 9C       		.byte	0x9c
 2257 0209 1D020000 		.4byte	0x21d
 2258 020d 0B       		.uleb128 0xb
 2259 020e F8010000 		.4byte	.LASF31
 2260 0212 01       		.byte	0x1
 2261 0213 C101     		.2byte	0x1c1
 2262 0215 77000000 		.4byte	0x77
 2263 0219 02       		.uleb128 0x2
 2264 021a 91       		.byte	0x91
 2265 021b 74       		.sleb128 -12
 2266 021c 00       		.byte	0
 2267 021d 09       		.uleb128 0x9
 2268 021e DC030000 		.4byte	.LASF32
 2269 0222 01       		.byte	0x1
 2270 0223 E501     		.2byte	0x1e5
 2271 0225 00000000 		.4byte	.LFB11
 2272 0229 4C000000 		.4byte	.LFE11-.LFB11
 2273 022d 01       		.uleb128 0x1
 2274 022e 9C       		.byte	0x9c
 2275 022f 52020000 		.4byte	0x252
 2276 0233 0B       		.uleb128 0xb
 2277 0234 7A060000 		.4byte	.LASF33
 2278 0238 01       		.byte	0x1
 2279 0239 E501     		.2byte	0x1e5
 2280 023b 77000000 		.4byte	0x77
 2281 023f 02       		.uleb128 0x2
 2282 0240 91       		.byte	0x91
 2283 0241 64       		.sleb128 -28
 2284 0242 0A       		.uleb128 0xa
 2285 0243 4E060000 		.4byte	.LASF21
 2286 0247 01       		.byte	0x1
 2287 0248 E701     		.2byte	0x1e7
 2288 024a 6B000000 		.4byte	0x6b
 2289 024e 02       		.uleb128 0x2
 2290 024f 91       		.byte	0x91
ARM GAS  C:\Users\Petro\AppData\Local\Temp\ccbTbeKH.s 			page 66


 2291 0250 6F       		.sleb128 -17
 2292 0251 00       		.byte	0
 2293 0252 09       		.uleb128 0x9
 2294 0253 B1030000 		.4byte	.LASF34
 2295 0257 01       		.byte	0x1
 2296 0258 0702     		.2byte	0x207
 2297 025a 00000000 		.4byte	.LFB12
 2298 025e 4C000000 		.4byte	.LFE12-.LFB12
 2299 0262 01       		.uleb128 0x1
 2300 0263 9C       		.byte	0x9c
 2301 0264 87020000 		.4byte	0x287
 2302 0268 0B       		.uleb128 0xb
 2303 0269 DD040000 		.4byte	.LASF35
 2304 026d 01       		.byte	0x1
 2305 026e 0702     		.2byte	0x207
 2306 0270 77000000 		.4byte	0x77
 2307 0274 02       		.uleb128 0x2
 2308 0275 91       		.byte	0x91
 2309 0276 64       		.sleb128 -28
 2310 0277 0A       		.uleb128 0xa
 2311 0278 4E060000 		.4byte	.LASF21
 2312 027c 01       		.byte	0x1
 2313 027d 0902     		.2byte	0x209
 2314 027f 6B000000 		.4byte	0x6b
 2315 0283 02       		.uleb128 0x2
 2316 0284 91       		.byte	0x91
 2317 0285 6F       		.sleb128 -17
 2318 0286 00       		.byte	0
 2319 0287 09       		.uleb128 0x9
 2320 0288 F3050000 		.4byte	.LASF36
 2321 028c 01       		.byte	0x1
 2322 028d 2802     		.2byte	0x228
 2323 028f 00000000 		.4byte	.LFB13
 2324 0293 50000000 		.4byte	.LFE13-.LFB13
 2325 0297 01       		.uleb128 0x1
 2326 0298 9C       		.byte	0x9c
 2327 0299 BC020000 		.4byte	0x2bc
 2328 029d 0B       		.uleb128 0xb
 2329 029e 71010000 		.4byte	.LASF37
 2330 02a2 01       		.byte	0x1
 2331 02a3 2802     		.2byte	0x228
 2332 02a5 77000000 		.4byte	0x77
 2333 02a9 02       		.uleb128 0x2
 2334 02aa 91       		.byte	0x91
 2335 02ab 64       		.sleb128 -28
 2336 02ac 0A       		.uleb128 0xa
 2337 02ad 4E060000 		.4byte	.LASF21
 2338 02b1 01       		.byte	0x1
 2339 02b2 2A02     		.2byte	0x22a
 2340 02b4 6B000000 		.4byte	0x6b
 2341 02b8 02       		.uleb128 0x2
 2342 02b9 91       		.byte	0x91
 2343 02ba 6F       		.sleb128 -17
 2344 02bb 00       		.byte	0
 2345 02bc 09       		.uleb128 0x9
 2346 02bd B8000000 		.4byte	.LASF38
 2347 02c1 01       		.byte	0x1
ARM GAS  C:\Users\Petro\AppData\Local\Temp\ccbTbeKH.s 			page 67


 2348 02c2 4902     		.2byte	0x249
 2349 02c4 00000000 		.4byte	.LFB14
 2350 02c8 48000000 		.4byte	.LFE14-.LFB14
 2351 02cc 01       		.uleb128 0x1
 2352 02cd 9C       		.byte	0x9c
 2353 02ce F1020000 		.4byte	0x2f1
 2354 02d2 0B       		.uleb128 0xb
 2355 02d3 45010000 		.4byte	.LASF39
 2356 02d7 01       		.byte	0x1
 2357 02d8 4902     		.2byte	0x249
 2358 02da 77000000 		.4byte	0x77
 2359 02de 02       		.uleb128 0x2
 2360 02df 91       		.byte	0x91
 2361 02e0 64       		.sleb128 -28
 2362 02e1 0A       		.uleb128 0xa
 2363 02e2 4E060000 		.4byte	.LASF21
 2364 02e6 01       		.byte	0x1
 2365 02e7 4B02     		.2byte	0x24b
 2366 02e9 6B000000 		.4byte	0x6b
 2367 02ed 02       		.uleb128 0x2
 2368 02ee 91       		.byte	0x91
 2369 02ef 6F       		.sleb128 -17
 2370 02f0 00       		.byte	0
 2371 02f1 0C       		.uleb128 0xc
 2372 02f2 06000000 		.4byte	.LASF40
 2373 02f6 01       		.byte	0x1
 2374 02f7 6702     		.2byte	0x267
 2375 02f9 00000000 		.4byte	.LFB15
 2376 02fd 20000000 		.4byte	.LFE15-.LFB15
 2377 0301 01       		.uleb128 0x1
 2378 0302 9C       		.byte	0x9c
 2379 0303 17030000 		.4byte	0x317
 2380 0307 0B       		.uleb128 0xb
 2381 0308 00000000 		.4byte	.LASF41
 2382 030c 01       		.byte	0x1
 2383 030d 6702     		.2byte	0x267
 2384 030f 77000000 		.4byte	0x77
 2385 0313 02       		.uleb128 0x2
 2386 0314 91       		.byte	0x91
 2387 0315 74       		.sleb128 -12
 2388 0316 00       		.byte	0
 2389 0317 0D       		.uleb128 0xd
 2390 0318 18010000 		.4byte	.LASF46
 2391 031c 01       		.byte	0x1
 2392 031d 7B02     		.2byte	0x27b
 2393 031f 77000000 		.4byte	0x77
 2394 0323 00000000 		.4byte	.LFB16
 2395 0327 18000000 		.4byte	.LFE16-.LFB16
 2396 032b 01       		.uleb128 0x1
 2397 032c 9C       		.byte	0x9c
 2398 032d 09       		.uleb128 0x9
 2399 032e 8B030000 		.4byte	.LASF42
 2400 0332 01       		.byte	0x1
 2401 0333 9802     		.2byte	0x298
 2402 0335 00000000 		.4byte	.LFB17
 2403 0339 48000000 		.4byte	.LFE17-.LFB17
 2404 033d 01       		.uleb128 0x1
ARM GAS  C:\Users\Petro\AppData\Local\Temp\ccbTbeKH.s 			page 68


 2405 033e 9C       		.byte	0x9c
 2406 033f 62030000 		.4byte	0x362
 2407 0343 0B       		.uleb128 0xb
 2408 0344 B3050000 		.4byte	.LASF43
 2409 0348 01       		.byte	0x1
 2410 0349 9802     		.2byte	0x298
 2411 034b 77000000 		.4byte	0x77
 2412 034f 02       		.uleb128 0x2
 2413 0350 91       		.byte	0x91
 2414 0351 64       		.sleb128 -28
 2415 0352 0A       		.uleb128 0xa
 2416 0353 4E060000 		.4byte	.LASF21
 2417 0357 01       		.byte	0x1
 2418 0358 9A02     		.2byte	0x29a
 2419 035a 6B000000 		.4byte	0x6b
 2420 035e 02       		.uleb128 0x2
 2421 035f 91       		.byte	0x91
 2422 0360 6F       		.sleb128 -17
 2423 0361 00       		.byte	0
 2424 0362 0C       		.uleb128 0xc
 2425 0363 14040000 		.4byte	.LASF44
 2426 0367 01       		.byte	0x1
 2427 0368 B502     		.2byte	0x2b5
 2428 036a 00000000 		.4byte	.LFB18
 2429 036e 20000000 		.4byte	.LFE18-.LFB18
 2430 0372 01       		.uleb128 0x1
 2431 0373 9C       		.byte	0x9c
 2432 0374 88030000 		.4byte	0x388
 2433 0378 0B       		.uleb128 0xb
 2434 0379 3E000000 		.4byte	.LASF45
 2435 037d 01       		.byte	0x1
 2436 037e B502     		.2byte	0x2b5
 2437 0380 77000000 		.4byte	0x77
 2438 0384 02       		.uleb128 0x2
 2439 0385 91       		.byte	0x91
 2440 0386 74       		.sleb128 -12
 2441 0387 00       		.byte	0
 2442 0388 0D       		.uleb128 0xd
 2443 0389 C4040000 		.4byte	.LASF47
 2444 038d 01       		.byte	0x1
 2445 038e C902     		.2byte	0x2c9
 2446 0390 77000000 		.4byte	0x77
 2447 0394 00000000 		.4byte	.LFB19
 2448 0398 18000000 		.4byte	.LFE19-.LFB19
 2449 039c 01       		.uleb128 0x1
 2450 039d 9C       		.byte	0x9c
 2451 039e 09       		.uleb128 0x9
 2452 039f 87020000 		.4byte	.LASF48
 2453 03a3 01       		.byte	0x1
 2454 03a4 E302     		.2byte	0x2e3
 2455 03a6 00000000 		.4byte	.LFB20
 2456 03aa 48000000 		.4byte	.LFE20-.LFB20
 2457 03ae 01       		.uleb128 0x1
 2458 03af 9C       		.byte	0x9c
 2459 03b0 D3030000 		.4byte	0x3d3
 2460 03b4 0B       		.uleb128 0xb
 2461 03b5 89060000 		.4byte	.LASF49
ARM GAS  C:\Users\Petro\AppData\Local\Temp\ccbTbeKH.s 			page 69


 2462 03b9 01       		.byte	0x1
 2463 03ba E302     		.2byte	0x2e3
 2464 03bc 77000000 		.4byte	0x77
 2465 03c0 02       		.uleb128 0x2
 2466 03c1 91       		.byte	0x91
 2467 03c2 64       		.sleb128 -28
 2468 03c3 0A       		.uleb128 0xa
 2469 03c4 4E060000 		.4byte	.LASF21
 2470 03c8 01       		.byte	0x1
 2471 03c9 E502     		.2byte	0x2e5
 2472 03cb 6B000000 		.4byte	0x6b
 2473 03cf 02       		.uleb128 0x2
 2474 03d0 91       		.byte	0x91
 2475 03d1 6F       		.sleb128 -17
 2476 03d2 00       		.byte	0
 2477 03d3 0C       		.uleb128 0xc
 2478 03d4 A7060000 		.4byte	.LASF50
 2479 03d8 01       		.byte	0x1
 2480 03d9 FE02     		.2byte	0x2fe
 2481 03db 00000000 		.4byte	.LFB21
 2482 03df 20000000 		.4byte	.LFE21-.LFB21
 2483 03e3 01       		.uleb128 0x1
 2484 03e4 9C       		.byte	0x9c
 2485 03e5 F9030000 		.4byte	0x3f9
 2486 03e9 0B       		.uleb128 0xb
 2487 03ea C4060000 		.4byte	.LASF51
 2488 03ee 01       		.byte	0x1
 2489 03ef FE02     		.2byte	0x2fe
 2490 03f1 77000000 		.4byte	0x77
 2491 03f5 02       		.uleb128 0x2
 2492 03f6 91       		.byte	0x91
 2493 03f7 74       		.sleb128 -12
 2494 03f8 00       		.byte	0
 2495 03f9 0D       		.uleb128 0xd
 2496 03fa 01020000 		.4byte	.LASF52
 2497 03fe 01       		.byte	0x1
 2498 03ff 1203     		.2byte	0x312
 2499 0401 77000000 		.4byte	0x77
 2500 0405 00000000 		.4byte	.LFB22
 2501 0409 18000000 		.4byte	.LFE22-.LFB22
 2502 040d 01       		.uleb128 0x1
 2503 040e 9C       		.byte	0x9c
 2504 040f 09       		.uleb128 0x9
 2505 0410 A4020000 		.4byte	.LASF53
 2506 0414 01       		.byte	0x1
 2507 0415 2C03     		.2byte	0x32c
 2508 0417 00000000 		.4byte	.LFB23
 2509 041b 4C000000 		.4byte	.LFE23-.LFB23
 2510 041f 01       		.uleb128 0x1
 2511 0420 9C       		.byte	0x9c
 2512 0421 44040000 		.4byte	0x444
 2513 0425 0B       		.uleb128 0xb
 2514 0426 89060000 		.4byte	.LASF49
 2515 042a 01       		.byte	0x1
 2516 042b 2C03     		.2byte	0x32c
 2517 042d 77000000 		.4byte	0x77
 2518 0431 02       		.uleb128 0x2
ARM GAS  C:\Users\Petro\AppData\Local\Temp\ccbTbeKH.s 			page 70


 2519 0432 91       		.byte	0x91
 2520 0433 64       		.sleb128 -28
 2521 0434 0A       		.uleb128 0xa
 2522 0435 4E060000 		.4byte	.LASF21
 2523 0439 01       		.byte	0x1
 2524 043a 2E03     		.2byte	0x32e
 2525 043c 6B000000 		.4byte	0x6b
 2526 0440 02       		.uleb128 0x2
 2527 0441 91       		.byte	0x91
 2528 0442 6F       		.sleb128 -17
 2529 0443 00       		.byte	0
 2530 0444 0C       		.uleb128 0xc
 2531 0445 5F060000 		.4byte	.LASF54
 2532 0449 01       		.byte	0x1
 2533 044a 5103     		.2byte	0x351
 2534 044c 00000000 		.4byte	.LFB24
 2535 0450 20000000 		.4byte	.LFE24-.LFB24
 2536 0454 01       		.uleb128 0x1
 2537 0455 9C       		.byte	0x9c
 2538 0456 6A040000 		.4byte	0x46a
 2539 045a 0B       		.uleb128 0xb
 2540 045b 0C040000 		.4byte	.LASF55
 2541 045f 01       		.byte	0x1
 2542 0460 5103     		.2byte	0x351
 2543 0462 77000000 		.4byte	0x77
 2544 0466 02       		.uleb128 0x2
 2545 0467 91       		.byte	0x91
 2546 0468 74       		.sleb128 -12
 2547 0469 00       		.byte	0
 2548 046a 0D       		.uleb128 0xd
 2549 046b 5C000000 		.4byte	.LASF56
 2550 046f 01       		.byte	0x1
 2551 0470 8403     		.2byte	0x384
 2552 0472 77000000 		.4byte	0x77
 2553 0476 00000000 		.4byte	.LFB25
 2554 047a 18000000 		.4byte	.LFE25-.LFB25
 2555 047e 01       		.uleb128 0x1
 2556 047f 9C       		.byte	0x9c
 2557 0480 0C       		.uleb128 0xc
 2558 0481 67030000 		.4byte	.LASF57
 2559 0485 01       		.byte	0x1
 2560 0486 BA03     		.2byte	0x3ba
 2561 0488 00000000 		.4byte	.LFB26
 2562 048c 20000000 		.4byte	.LFE26-.LFB26
 2563 0490 01       		.uleb128 0x1
 2564 0491 9C       		.byte	0x9c
 2565 0492 A6040000 		.4byte	0x4a6
 2566 0496 0B       		.uleb128 0xb
 2567 0497 10060000 		.4byte	.LASF58
 2568 049b 01       		.byte	0x1
 2569 049c BA03     		.2byte	0x3ba
 2570 049e 77000000 		.4byte	0x77
 2571 04a2 02       		.uleb128 0x2
 2572 04a3 91       		.byte	0x91
 2573 04a4 74       		.sleb128 -12
 2574 04a5 00       		.byte	0
 2575 04a6 0D       		.uleb128 0xd
ARM GAS  C:\Users\Petro\AppData\Local\Temp\ccbTbeKH.s 			page 71


 2576 04a7 6D050000 		.4byte	.LASF59
 2577 04ab 01       		.byte	0x1
 2578 04ac E803     		.2byte	0x3e8
 2579 04ae 77000000 		.4byte	0x77
 2580 04b2 00000000 		.4byte	.LFB27
 2581 04b6 18000000 		.4byte	.LFE27-.LFB27
 2582 04ba 01       		.uleb128 0x1
 2583 04bb 9C       		.byte	0x9c
 2584 04bc 0D       		.uleb128 0xd
 2585 04bd 53050000 		.4byte	.LASF60
 2586 04c1 01       		.byte	0x1
 2587 04c2 1604     		.2byte	0x416
 2588 04c4 77000000 		.4byte	0x77
 2589 04c8 00000000 		.4byte	.LFB28
 2590 04cc 18000000 		.4byte	.LFE28-.LFB28
 2591 04d0 01       		.uleb128 0x1
 2592 04d1 9C       		.byte	0x9c
 2593 04d2 0D       		.uleb128 0xd
 2594 04d3 21000000 		.4byte	.LASF61
 2595 04d7 01       		.byte	0x1
 2596 04d8 2B04     		.2byte	0x42b
 2597 04da 77000000 		.4byte	0x77
 2598 04de 00000000 		.4byte	.LFB29
 2599 04e2 18000000 		.4byte	.LFE29-.LFB29
 2600 04e6 01       		.uleb128 0x1
 2601 04e7 9C       		.byte	0x9c
 2602 04e8 09       		.uleb128 0x9
 2603 04e9 1B060000 		.4byte	.LASF62
 2604 04ed 01       		.byte	0x1
 2605 04ee 4604     		.2byte	0x446
 2606 04f0 00000000 		.4byte	.LFB30
 2607 04f4 44000000 		.4byte	.LFE30-.LFB30
 2608 04f8 01       		.uleb128 0x1
 2609 04f9 9C       		.byte	0x9c
 2610 04fa 1D050000 		.4byte	0x51d
 2611 04fe 0B       		.uleb128 0xb
 2612 04ff 39010000 		.4byte	.LASF63
 2613 0503 01       		.byte	0x1
 2614 0504 4604     		.2byte	0x446
 2615 0506 77000000 		.4byte	0x77
 2616 050a 02       		.uleb128 0x2
 2617 050b 91       		.byte	0x91
 2618 050c 64       		.sleb128 -28
 2619 050d 0A       		.uleb128 0xa
 2620 050e 4E060000 		.4byte	.LASF21
 2621 0512 01       		.byte	0x1
 2622 0513 4804     		.2byte	0x448
 2623 0515 6B000000 		.4byte	0x6b
 2624 0519 02       		.uleb128 0x2
 2625 051a 91       		.byte	0x91
 2626 051b 6F       		.sleb128 -17
 2627 051c 00       		.byte	0
 2628 051d 09       		.uleb128 0x9
 2629 051e 7D040000 		.4byte	.LASF64
 2630 0522 01       		.byte	0x1
 2631 0523 6704     		.2byte	0x467
 2632 0525 00000000 		.4byte	.LFB31
ARM GAS  C:\Users\Petro\AppData\Local\Temp\ccbTbeKH.s 			page 72


 2633 0529 48000000 		.4byte	.LFE31-.LFB31
 2634 052d 01       		.uleb128 0x1
 2635 052e 9C       		.byte	0x9c
 2636 052f 52050000 		.4byte	0x552
 2637 0533 0B       		.uleb128 0xb
 2638 0534 39010000 		.4byte	.LASF63
 2639 0538 01       		.byte	0x1
 2640 0539 6704     		.2byte	0x467
 2641 053b 77000000 		.4byte	0x77
 2642 053f 02       		.uleb128 0x2
 2643 0540 91       		.byte	0x91
 2644 0541 64       		.sleb128 -28
 2645 0542 0A       		.uleb128 0xa
 2646 0543 4E060000 		.4byte	.LASF21
 2647 0547 01       		.byte	0x1
 2648 0548 6904     		.2byte	0x469
 2649 054a 6B000000 		.4byte	0x6b
 2650 054e 02       		.uleb128 0x2
 2651 054f 91       		.byte	0x91
 2652 0550 6F       		.sleb128 -17
 2653 0551 00       		.byte	0
 2654 0552 09       		.uleb128 0x9
 2655 0553 E7000000 		.4byte	.LASF65
 2656 0557 01       		.byte	0x1
 2657 0558 8804     		.2byte	0x488
 2658 055a 00000000 		.4byte	.LFB32
 2659 055e 4C000000 		.4byte	.LFE32-.LFB32
 2660 0562 01       		.uleb128 0x1
 2661 0563 9C       		.byte	0x9c
 2662 0564 87050000 		.4byte	0x587
 2663 0568 0B       		.uleb128 0xb
 2664 0569 39010000 		.4byte	.LASF63
 2665 056d 01       		.byte	0x1
 2666 056e 8804     		.2byte	0x488
 2667 0570 77000000 		.4byte	0x77
 2668 0574 02       		.uleb128 0x2
 2669 0575 91       		.byte	0x91
 2670 0576 64       		.sleb128 -28
 2671 0577 0A       		.uleb128 0xa
 2672 0578 4E060000 		.4byte	.LASF21
 2673 057c 01       		.byte	0x1
 2674 057d 8A04     		.2byte	0x48a
 2675 057f 6B000000 		.4byte	0x6b
 2676 0583 02       		.uleb128 0x2
 2677 0584 91       		.byte	0x91
 2678 0585 6F       		.sleb128 -17
 2679 0586 00       		.byte	0
 2680 0587 09       		.uleb128 0x9
 2681 0588 57020000 		.4byte	.LASF66
 2682 058c 01       		.byte	0x1
 2683 058d A804     		.2byte	0x4a8
 2684 058f 00000000 		.4byte	.LFB33
 2685 0593 48000000 		.4byte	.LFE33-.LFB33
 2686 0597 01       		.uleb128 0x1
 2687 0598 9C       		.byte	0x9c
 2688 0599 BC050000 		.4byte	0x5bc
 2689 059d 0B       		.uleb128 0xb
ARM GAS  C:\Users\Petro\AppData\Local\Temp\ccbTbeKH.s 			page 73


 2690 059e 39010000 		.4byte	.LASF63
 2691 05a2 01       		.byte	0x1
 2692 05a3 A804     		.2byte	0x4a8
 2693 05a5 77000000 		.4byte	0x77
 2694 05a9 02       		.uleb128 0x2
 2695 05aa 91       		.byte	0x91
 2696 05ab 64       		.sleb128 -28
 2697 05ac 0A       		.uleb128 0xa
 2698 05ad 4E060000 		.4byte	.LASF21
 2699 05b1 01       		.byte	0x1
 2700 05b2 AA04     		.2byte	0x4aa
 2701 05b4 6B000000 		.4byte	0x6b
 2702 05b8 02       		.uleb128 0x2
 2703 05b9 91       		.byte	0x91
 2704 05ba 6F       		.sleb128 -17
 2705 05bb 00       		.byte	0
 2706 05bc 09       		.uleb128 0x9
 2707 05bd BF050000 		.4byte	.LASF67
 2708 05c1 01       		.byte	0x1
 2709 05c2 C904     		.2byte	0x4c9
 2710 05c4 00000000 		.4byte	.LFB34
 2711 05c8 48000000 		.4byte	.LFE34-.LFB34
 2712 05cc 01       		.uleb128 0x1
 2713 05cd 9C       		.byte	0x9c
 2714 05ce F1050000 		.4byte	0x5f1
 2715 05d2 0B       		.uleb128 0xb
 2716 05d3 39010000 		.4byte	.LASF63
 2717 05d7 01       		.byte	0x1
 2718 05d8 C904     		.2byte	0x4c9
 2719 05da 77000000 		.4byte	0x77
 2720 05de 02       		.uleb128 0x2
 2721 05df 91       		.byte	0x91
 2722 05e0 64       		.sleb128 -28
 2723 05e1 0A       		.uleb128 0xa
 2724 05e2 4E060000 		.4byte	.LASF21
 2725 05e6 01       		.byte	0x1
 2726 05e7 CB04     		.2byte	0x4cb
 2727 05e9 6B000000 		.4byte	0x6b
 2728 05ed 02       		.uleb128 0x2
 2729 05ee 91       		.byte	0x91
 2730 05ef 6F       		.sleb128 -17
 2731 05f0 00       		.byte	0
 2732 05f1 09       		.uleb128 0x9
 2733 05f2 99040000 		.4byte	.LASF68
 2734 05f6 01       		.byte	0x1
 2735 05f7 F104     		.2byte	0x4f1
 2736 05f9 00000000 		.4byte	.LFB35
 2737 05fd 3C000000 		.4byte	.LFE35-.LFB35
 2738 0601 01       		.uleb128 0x1
 2739 0602 9C       		.byte	0x9c
 2740 0603 35060000 		.4byte	0x635
 2741 0607 0B       		.uleb128 0xb
 2742 0608 45010000 		.4byte	.LASF39
 2743 060c 01       		.byte	0x1
 2744 060d F104     		.2byte	0x4f1
 2745 060f 77000000 		.4byte	0x77
 2746 0613 02       		.uleb128 0x2
ARM GAS  C:\Users\Petro\AppData\Local\Temp\ccbTbeKH.s 			page 74


 2747 0614 91       		.byte	0x91
 2748 0615 64       		.sleb128 -28
 2749 0616 0B       		.uleb128 0xb
 2750 0617 A2010000 		.4byte	.LASF69
 2751 061b 01       		.byte	0x1
 2752 061c F104     		.2byte	0x4f1
 2753 061e 77000000 		.4byte	0x77
 2754 0622 02       		.uleb128 0x2
 2755 0623 91       		.byte	0x91
 2756 0624 60       		.sleb128 -32
 2757 0625 0A       		.uleb128 0xa
 2758 0626 4E060000 		.4byte	.LASF21
 2759 062a 01       		.byte	0x1
 2760 062b F304     		.2byte	0x4f3
 2761 062d 6B000000 		.4byte	0x6b
 2762 0631 02       		.uleb128 0x2
 2763 0632 91       		.byte	0x91
 2764 0633 6F       		.sleb128 -17
 2765 0634 00       		.byte	0
 2766 0635 0D       		.uleb128 0xd
 2767 0636 C0020000 		.4byte	.LASF70
 2768 063a 01       		.byte	0x1
 2769 063b 0E05     		.2byte	0x50e
 2770 063d 77000000 		.4byte	0x77
 2771 0641 00000000 		.4byte	.LFB36
 2772 0645 20000000 		.4byte	.LFE36-.LFB36
 2773 0649 01       		.uleb128 0x1
 2774 064a 9C       		.byte	0x9c
 2775 064b 0C       		.uleb128 0xc
 2776 064c 8A050000 		.4byte	.LASF71
 2777 0650 01       		.byte	0x1
 2778 0651 2705     		.2byte	0x527
 2779 0653 00000000 		.4byte	.LFB37
 2780 0657 1C000000 		.4byte	.LFE37-.LFB37
 2781 065b 01       		.uleb128 0x1
 2782 065c 9C       		.byte	0x9c
 2783 065d 71060000 		.4byte	0x671
 2784 0661 0B       		.uleb128 0xb
 2785 0662 15050000 		.4byte	.LASF72
 2786 0666 01       		.byte	0x1
 2787 0667 2705     		.2byte	0x527
 2788 0669 77000000 		.4byte	0x77
 2789 066d 02       		.uleb128 0x2
 2790 066e 91       		.byte	0x91
 2791 066f 74       		.sleb128 -12
 2792 0670 00       		.byte	0
 2793 0671 0D       		.uleb128 0xd
 2794 0672 56040000 		.4byte	.LASF73
 2795 0676 01       		.byte	0x1
 2796 0677 3E05     		.2byte	0x53e
 2797 0679 77000000 		.4byte	0x77
 2798 067d 00000000 		.4byte	.LFB38
 2799 0681 14000000 		.4byte	.LFE38-.LFB38
 2800 0685 01       		.uleb128 0x1
 2801 0686 9C       		.byte	0x9c
 2802 0687 0D       		.uleb128 0xd
 2803 0688 7D000000 		.4byte	.LASF74
ARM GAS  C:\Users\Petro\AppData\Local\Temp\ccbTbeKH.s 			page 75


 2804 068c 01       		.byte	0x1
 2805 068d 5505     		.2byte	0x555
 2806 068f 77000000 		.4byte	0x77
 2807 0693 00000000 		.4byte	.LFB39
 2808 0697 14000000 		.4byte	.LFE39-.LFB39
 2809 069b 01       		.uleb128 0x1
 2810 069c 9C       		.byte	0x9c
 2811 069d 0C       		.uleb128 0xc
 2812 069e EE040000 		.4byte	.LASF75
 2813 06a2 01       		.byte	0x1
 2814 06a3 6C05     		.2byte	0x56c
 2815 06a5 00000000 		.4byte	.LFB40
 2816 06a9 1C000000 		.4byte	.LFE40-.LFB40
 2817 06ad 01       		.uleb128 0x1
 2818 06ae 9C       		.byte	0x9c
 2819 06af C3060000 		.4byte	0x6c3
 2820 06b3 0B       		.uleb128 0xb
 2821 06b4 15050000 		.4byte	.LASF72
 2822 06b8 01       		.byte	0x1
 2823 06b9 6C05     		.2byte	0x56c
 2824 06bb 77000000 		.4byte	0x77
 2825 06bf 02       		.uleb128 0x2
 2826 06c0 91       		.byte	0x91
 2827 06c1 74       		.sleb128 -12
 2828 06c2 00       		.byte	0
 2829 06c3 0C       		.uleb128 0xc
 2830 06c4 23050000 		.4byte	.LASF76
 2831 06c8 01       		.byte	0x1
 2832 06c9 8305     		.2byte	0x583
 2833 06cb 00000000 		.4byte	.LFB41
 2834 06cf 1C000000 		.4byte	.LFE41-.LFB41
 2835 06d3 01       		.uleb128 0x1
 2836 06d4 9C       		.byte	0x9c
 2837 06d5 E9060000 		.4byte	0x6e9
 2838 06d9 0B       		.uleb128 0xb
 2839 06da 15050000 		.4byte	.LASF72
 2840 06de 01       		.byte	0x1
 2841 06df 8305     		.2byte	0x583
 2842 06e1 77000000 		.4byte	0x77
 2843 06e5 02       		.uleb128 0x2
 2844 06e6 91       		.byte	0x91
 2845 06e7 74       		.sleb128 -12
 2846 06e8 00       		.byte	0
 2847 06e9 0E       		.uleb128 0xe
 2848 06ea 71020000 		.4byte	.LASF80
 2849 06ee 01       		.byte	0x1
 2850 06ef 15       		.byte	0x15
 2851 06f0 6B000000 		.4byte	0x6b
 2852 06f4 05       		.uleb128 0x5
 2853 06f5 03       		.byte	0x3
 2854 06f6 00000000 		.4byte	TimerTestMode_initVar
 2855 06fa 00       		.byte	0
 2856              		.section	.debug_abbrev,"",%progbits
 2857              	.Ldebug_abbrev0:
 2858 0000 01       		.uleb128 0x1
 2859 0001 11       		.uleb128 0x11
 2860 0002 01       		.byte	0x1
ARM GAS  C:\Users\Petro\AppData\Local\Temp\ccbTbeKH.s 			page 76


 2861 0003 25       		.uleb128 0x25
 2862 0004 0E       		.uleb128 0xe
 2863 0005 13       		.uleb128 0x13
 2864 0006 0B       		.uleb128 0xb
 2865 0007 03       		.uleb128 0x3
 2866 0008 0E       		.uleb128 0xe
 2867 0009 1B       		.uleb128 0x1b
 2868 000a 0E       		.uleb128 0xe
 2869 000b 55       		.uleb128 0x55
 2870 000c 17       		.uleb128 0x17
 2871 000d 11       		.uleb128 0x11
 2872 000e 01       		.uleb128 0x1
 2873 000f 10       		.uleb128 0x10
 2874 0010 17       		.uleb128 0x17
 2875 0011 00       		.byte	0
 2876 0012 00       		.byte	0
 2877 0013 02       		.uleb128 0x2
 2878 0014 24       		.uleb128 0x24
 2879 0015 00       		.byte	0
 2880 0016 0B       		.uleb128 0xb
 2881 0017 0B       		.uleb128 0xb
 2882 0018 3E       		.uleb128 0x3e
 2883 0019 0B       		.uleb128 0xb
 2884 001a 03       		.uleb128 0x3
 2885 001b 0E       		.uleb128 0xe
 2886 001c 00       		.byte	0
 2887 001d 00       		.byte	0
 2888 001e 03       		.uleb128 0x3
 2889 001f 24       		.uleb128 0x24
 2890 0020 00       		.byte	0
 2891 0021 0B       		.uleb128 0xb
 2892 0022 0B       		.uleb128 0xb
 2893 0023 3E       		.uleb128 0x3e
 2894 0024 0B       		.uleb128 0xb
 2895 0025 03       		.uleb128 0x3
 2896 0026 08       		.uleb128 0x8
 2897 0027 00       		.byte	0
 2898 0028 00       		.byte	0
 2899 0029 04       		.uleb128 0x4
 2900 002a 16       		.uleb128 0x16
 2901 002b 00       		.byte	0
 2902 002c 03       		.uleb128 0x3
 2903 002d 0E       		.uleb128 0xe
 2904 002e 3A       		.uleb128 0x3a
 2905 002f 0B       		.uleb128 0xb
 2906 0030 3B       		.uleb128 0x3b
 2907 0031 05       		.uleb128 0x5
 2908 0032 49       		.uleb128 0x49
 2909 0033 13       		.uleb128 0x13
 2910 0034 00       		.byte	0
 2911 0035 00       		.byte	0
 2912 0036 05       		.uleb128 0x5
 2913 0037 35       		.uleb128 0x35
 2914 0038 00       		.byte	0
 2915 0039 49       		.uleb128 0x49
 2916 003a 13       		.uleb128 0x13
 2917 003b 00       		.byte	0
ARM GAS  C:\Users\Petro\AppData\Local\Temp\ccbTbeKH.s 			page 77


 2918 003c 00       		.byte	0
 2919 003d 06       		.uleb128 0x6
 2920 003e 2E       		.uleb128 0x2e
 2921 003f 00       		.byte	0
 2922 0040 3F       		.uleb128 0x3f
 2923 0041 19       		.uleb128 0x19
 2924 0042 03       		.uleb128 0x3
 2925 0043 0E       		.uleb128 0xe
 2926 0044 3A       		.uleb128 0x3a
 2927 0045 0B       		.uleb128 0xb
 2928 0046 3B       		.uleb128 0x3b
 2929 0047 0B       		.uleb128 0xb
 2930 0048 27       		.uleb128 0x27
 2931 0049 19       		.uleb128 0x19
 2932 004a 11       		.uleb128 0x11
 2933 004b 01       		.uleb128 0x1
 2934 004c 12       		.uleb128 0x12
 2935 004d 06       		.uleb128 0x6
 2936 004e 40       		.uleb128 0x40
 2937 004f 18       		.uleb128 0x18
 2938 0050 9642     		.uleb128 0x2116
 2939 0052 19       		.uleb128 0x19
 2940 0053 00       		.byte	0
 2941 0054 00       		.byte	0
 2942 0055 07       		.uleb128 0x7
 2943 0056 2E       		.uleb128 0x2e
 2944 0057 01       		.byte	0x1
 2945 0058 3F       		.uleb128 0x3f
 2946 0059 19       		.uleb128 0x19
 2947 005a 03       		.uleb128 0x3
 2948 005b 0E       		.uleb128 0xe
 2949 005c 3A       		.uleb128 0x3a
 2950 005d 0B       		.uleb128 0xb
 2951 005e 3B       		.uleb128 0x3b
 2952 005f 0B       		.uleb128 0xb
 2953 0060 27       		.uleb128 0x27
 2954 0061 19       		.uleb128 0x19
 2955 0062 11       		.uleb128 0x11
 2956 0063 01       		.uleb128 0x1
 2957 0064 12       		.uleb128 0x12
 2958 0065 06       		.uleb128 0x6
 2959 0066 40       		.uleb128 0x40
 2960 0067 18       		.uleb128 0x18
 2961 0068 9642     		.uleb128 0x2116
 2962 006a 19       		.uleb128 0x19
 2963 006b 01       		.uleb128 0x1
 2964 006c 13       		.uleb128 0x13
 2965 006d 00       		.byte	0
 2966 006e 00       		.byte	0
 2967 006f 08       		.uleb128 0x8
 2968 0070 34       		.uleb128 0x34
 2969 0071 00       		.byte	0
 2970 0072 03       		.uleb128 0x3
 2971 0073 0E       		.uleb128 0xe
 2972 0074 3A       		.uleb128 0x3a
 2973 0075 0B       		.uleb128 0xb
 2974 0076 3B       		.uleb128 0x3b
ARM GAS  C:\Users\Petro\AppData\Local\Temp\ccbTbeKH.s 			page 78


 2975 0077 0B       		.uleb128 0xb
 2976 0078 49       		.uleb128 0x49
 2977 0079 13       		.uleb128 0x13
 2978 007a 02       		.uleb128 0x2
 2979 007b 18       		.uleb128 0x18
 2980 007c 00       		.byte	0
 2981 007d 00       		.byte	0
 2982 007e 09       		.uleb128 0x9
 2983 007f 2E       		.uleb128 0x2e
 2984 0080 01       		.byte	0x1
 2985 0081 3F       		.uleb128 0x3f
 2986 0082 19       		.uleb128 0x19
 2987 0083 03       		.uleb128 0x3
 2988 0084 0E       		.uleb128 0xe
 2989 0085 3A       		.uleb128 0x3a
 2990 0086 0B       		.uleb128 0xb
 2991 0087 3B       		.uleb128 0x3b
 2992 0088 05       		.uleb128 0x5
 2993 0089 27       		.uleb128 0x27
 2994 008a 19       		.uleb128 0x19
 2995 008b 11       		.uleb128 0x11
 2996 008c 01       		.uleb128 0x1
 2997 008d 12       		.uleb128 0x12
 2998 008e 06       		.uleb128 0x6
 2999 008f 40       		.uleb128 0x40
 3000 0090 18       		.uleb128 0x18
 3001 0091 9642     		.uleb128 0x2116
 3002 0093 19       		.uleb128 0x19
 3003 0094 01       		.uleb128 0x1
 3004 0095 13       		.uleb128 0x13
 3005 0096 00       		.byte	0
 3006 0097 00       		.byte	0
 3007 0098 0A       		.uleb128 0xa
 3008 0099 34       		.uleb128 0x34
 3009 009a 00       		.byte	0
 3010 009b 03       		.uleb128 0x3
 3011 009c 0E       		.uleb128 0xe
 3012 009d 3A       		.uleb128 0x3a
 3013 009e 0B       		.uleb128 0xb
 3014 009f 3B       		.uleb128 0x3b
 3015 00a0 05       		.uleb128 0x5
 3016 00a1 49       		.uleb128 0x49
 3017 00a2 13       		.uleb128 0x13
 3018 00a3 02       		.uleb128 0x2
 3019 00a4 18       		.uleb128 0x18
 3020 00a5 00       		.byte	0
 3021 00a6 00       		.byte	0
 3022 00a7 0B       		.uleb128 0xb
 3023 00a8 05       		.uleb128 0x5
 3024 00a9 00       		.byte	0
 3025 00aa 03       		.uleb128 0x3
 3026 00ab 0E       		.uleb128 0xe
 3027 00ac 3A       		.uleb128 0x3a
 3028 00ad 0B       		.uleb128 0xb
 3029 00ae 3B       		.uleb128 0x3b
 3030 00af 05       		.uleb128 0x5
 3031 00b0 49       		.uleb128 0x49
ARM GAS  C:\Users\Petro\AppData\Local\Temp\ccbTbeKH.s 			page 79


 3032 00b1 13       		.uleb128 0x13
 3033 00b2 02       		.uleb128 0x2
 3034 00b3 18       		.uleb128 0x18
 3035 00b4 00       		.byte	0
 3036 00b5 00       		.byte	0
 3037 00b6 0C       		.uleb128 0xc
 3038 00b7 2E       		.uleb128 0x2e
 3039 00b8 01       		.byte	0x1
 3040 00b9 3F       		.uleb128 0x3f
 3041 00ba 19       		.uleb128 0x19
 3042 00bb 03       		.uleb128 0x3
 3043 00bc 0E       		.uleb128 0xe
 3044 00bd 3A       		.uleb128 0x3a
 3045 00be 0B       		.uleb128 0xb
 3046 00bf 3B       		.uleb128 0x3b
 3047 00c0 05       		.uleb128 0x5
 3048 00c1 27       		.uleb128 0x27
 3049 00c2 19       		.uleb128 0x19
 3050 00c3 11       		.uleb128 0x11
 3051 00c4 01       		.uleb128 0x1
 3052 00c5 12       		.uleb128 0x12
 3053 00c6 06       		.uleb128 0x6
 3054 00c7 40       		.uleb128 0x40
 3055 00c8 18       		.uleb128 0x18
 3056 00c9 9742     		.uleb128 0x2117
 3057 00cb 19       		.uleb128 0x19
 3058 00cc 01       		.uleb128 0x1
 3059 00cd 13       		.uleb128 0x13
 3060 00ce 00       		.byte	0
 3061 00cf 00       		.byte	0
 3062 00d0 0D       		.uleb128 0xd
 3063 00d1 2E       		.uleb128 0x2e
 3064 00d2 00       		.byte	0
 3065 00d3 3F       		.uleb128 0x3f
 3066 00d4 19       		.uleb128 0x19
 3067 00d5 03       		.uleb128 0x3
 3068 00d6 0E       		.uleb128 0xe
 3069 00d7 3A       		.uleb128 0x3a
 3070 00d8 0B       		.uleb128 0xb
 3071 00d9 3B       		.uleb128 0x3b
 3072 00da 05       		.uleb128 0x5
 3073 00db 27       		.uleb128 0x27
 3074 00dc 19       		.uleb128 0x19
 3075 00dd 49       		.uleb128 0x49
 3076 00de 13       		.uleb128 0x13
 3077 00df 11       		.uleb128 0x11
 3078 00e0 01       		.uleb128 0x1
 3079 00e1 12       		.uleb128 0x12
 3080 00e2 06       		.uleb128 0x6
 3081 00e3 40       		.uleb128 0x40
 3082 00e4 18       		.uleb128 0x18
 3083 00e5 9742     		.uleb128 0x2117
 3084 00e7 19       		.uleb128 0x19
 3085 00e8 00       		.byte	0
 3086 00e9 00       		.byte	0
 3087 00ea 0E       		.uleb128 0xe
 3088 00eb 34       		.uleb128 0x34
ARM GAS  C:\Users\Petro\AppData\Local\Temp\ccbTbeKH.s 			page 80


 3089 00ec 00       		.byte	0
 3090 00ed 03       		.uleb128 0x3
 3091 00ee 0E       		.uleb128 0xe
 3092 00ef 3A       		.uleb128 0x3a
 3093 00f0 0B       		.uleb128 0xb
 3094 00f1 3B       		.uleb128 0x3b
 3095 00f2 0B       		.uleb128 0xb
 3096 00f3 49       		.uleb128 0x49
 3097 00f4 13       		.uleb128 0x13
 3098 00f5 3F       		.uleb128 0x3f
 3099 00f6 19       		.uleb128 0x19
 3100 00f7 02       		.uleb128 0x2
 3101 00f8 18       		.uleb128 0x18
 3102 00f9 00       		.byte	0
 3103 00fa 00       		.byte	0
 3104 00fb 00       		.byte	0
 3105              		.section	.debug_aranges,"",%progbits
 3106 0000 54010000 		.4byte	0x154
 3107 0004 0200     		.2byte	0x2
 3108 0006 00000000 		.4byte	.Ldebug_info0
 3109 000a 04       		.byte	0x4
 3110 000b 00       		.byte	0
 3111 000c 0000     		.2byte	0
 3112 000e 0000     		.2byte	0
 3113 0010 00000000 		.4byte	.LFB2
 3114 0014 44000000 		.4byte	.LFE2-.LFB2
 3115 0018 00000000 		.4byte	.LFB3
 3116 001c 3C000000 		.4byte	.LFE3-.LFB3
 3117 0020 00000000 		.4byte	.LFB4
 3118 0024 24000000 		.4byte	.LFE4-.LFB4
 3119 0028 00000000 		.4byte	.LFB5
 3120 002c 34000000 		.4byte	.LFE5-.LFB5
 3121 0030 00000000 		.4byte	.LFB6
 3122 0034 48000000 		.4byte	.LFE6-.LFB6
 3123 0038 00000000 		.4byte	.LFB7
 3124 003c 48000000 		.4byte	.LFE7-.LFB7
 3125 0040 00000000 		.4byte	.LFB8
 3126 0044 48000000 		.4byte	.LFE8-.LFB8
 3127 0048 00000000 		.4byte	.LFB9
 3128 004c 50000000 		.4byte	.LFE9-.LFB9
 3129 0050 00000000 		.4byte	.LFB10
 3130 0054 20000000 		.4byte	.LFE10-.LFB10
 3131 0058 00000000 		.4byte	.LFB11
 3132 005c 4C000000 		.4byte	.LFE11-.LFB11
 3133 0060 00000000 		.4byte	.LFB12
 3134 0064 4C000000 		.4byte	.LFE12-.LFB12
 3135 0068 00000000 		.4byte	.LFB13
 3136 006c 50000000 		.4byte	.LFE13-.LFB13
 3137 0070 00000000 		.4byte	.LFB14
 3138 0074 48000000 		.4byte	.LFE14-.LFB14
 3139 0078 00000000 		.4byte	.LFB15
 3140 007c 20000000 		.4byte	.LFE15-.LFB15
 3141 0080 00000000 		.4byte	.LFB16
 3142 0084 18000000 		.4byte	.LFE16-.LFB16
 3143 0088 00000000 		.4byte	.LFB17
 3144 008c 48000000 		.4byte	.LFE17-.LFB17
 3145 0090 00000000 		.4byte	.LFB18
ARM GAS  C:\Users\Petro\AppData\Local\Temp\ccbTbeKH.s 			page 81


 3146 0094 20000000 		.4byte	.LFE18-.LFB18
 3147 0098 00000000 		.4byte	.LFB19
 3148 009c 18000000 		.4byte	.LFE19-.LFB19
 3149 00a0 00000000 		.4byte	.LFB20
 3150 00a4 48000000 		.4byte	.LFE20-.LFB20
 3151 00a8 00000000 		.4byte	.LFB21
 3152 00ac 20000000 		.4byte	.LFE21-.LFB21
 3153 00b0 00000000 		.4byte	.LFB22
 3154 00b4 18000000 		.4byte	.LFE22-.LFB22
 3155 00b8 00000000 		.4byte	.LFB23
 3156 00bc 4C000000 		.4byte	.LFE23-.LFB23
 3157 00c0 00000000 		.4byte	.LFB24
 3158 00c4 20000000 		.4byte	.LFE24-.LFB24
 3159 00c8 00000000 		.4byte	.LFB25
 3160 00cc 18000000 		.4byte	.LFE25-.LFB25
 3161 00d0 00000000 		.4byte	.LFB26
 3162 00d4 20000000 		.4byte	.LFE26-.LFB26
 3163 00d8 00000000 		.4byte	.LFB27
 3164 00dc 18000000 		.4byte	.LFE27-.LFB27
 3165 00e0 00000000 		.4byte	.LFB28
 3166 00e4 18000000 		.4byte	.LFE28-.LFB28
 3167 00e8 00000000 		.4byte	.LFB29
 3168 00ec 18000000 		.4byte	.LFE29-.LFB29
 3169 00f0 00000000 		.4byte	.LFB30
 3170 00f4 44000000 		.4byte	.LFE30-.LFB30
 3171 00f8 00000000 		.4byte	.LFB31
 3172 00fc 48000000 		.4byte	.LFE31-.LFB31
 3173 0100 00000000 		.4byte	.LFB32
 3174 0104 4C000000 		.4byte	.LFE32-.LFB32
 3175 0108 00000000 		.4byte	.LFB33
 3176 010c 48000000 		.4byte	.LFE33-.LFB33
 3177 0110 00000000 		.4byte	.LFB34
 3178 0114 48000000 		.4byte	.LFE34-.LFB34
 3179 0118 00000000 		.4byte	.LFB35
 3180 011c 3C000000 		.4byte	.LFE35-.LFB35
 3181 0120 00000000 		.4byte	.LFB36
 3182 0124 20000000 		.4byte	.LFE36-.LFB36
 3183 0128 00000000 		.4byte	.LFB37
 3184 012c 1C000000 		.4byte	.LFE37-.LFB37
 3185 0130 00000000 		.4byte	.LFB38
 3186 0134 14000000 		.4byte	.LFE38-.LFB38
 3187 0138 00000000 		.4byte	.LFB39
 3188 013c 14000000 		.4byte	.LFE39-.LFB39
 3189 0140 00000000 		.4byte	.LFB40
 3190 0144 1C000000 		.4byte	.LFE40-.LFB40
 3191 0148 00000000 		.4byte	.LFB41
 3192 014c 1C000000 		.4byte	.LFE41-.LFB41
 3193 0150 00000000 		.4byte	0
 3194 0154 00000000 		.4byte	0
 3195              		.section	.debug_ranges,"",%progbits
 3196              	.Ldebug_ranges0:
 3197 0000 00000000 		.4byte	.LFB2
 3198 0004 44000000 		.4byte	.LFE2
 3199 0008 00000000 		.4byte	.LFB3
 3200 000c 3C000000 		.4byte	.LFE3
 3201 0010 00000000 		.4byte	.LFB4
 3202 0014 24000000 		.4byte	.LFE4
ARM GAS  C:\Users\Petro\AppData\Local\Temp\ccbTbeKH.s 			page 82


 3203 0018 00000000 		.4byte	.LFB5
 3204 001c 34000000 		.4byte	.LFE5
 3205 0020 00000000 		.4byte	.LFB6
 3206 0024 48000000 		.4byte	.LFE6
 3207 0028 00000000 		.4byte	.LFB7
 3208 002c 48000000 		.4byte	.LFE7
 3209 0030 00000000 		.4byte	.LFB8
 3210 0034 48000000 		.4byte	.LFE8
 3211 0038 00000000 		.4byte	.LFB9
 3212 003c 50000000 		.4byte	.LFE9
 3213 0040 00000000 		.4byte	.LFB10
 3214 0044 20000000 		.4byte	.LFE10
 3215 0048 00000000 		.4byte	.LFB11
 3216 004c 4C000000 		.4byte	.LFE11
 3217 0050 00000000 		.4byte	.LFB12
 3218 0054 4C000000 		.4byte	.LFE12
 3219 0058 00000000 		.4byte	.LFB13
 3220 005c 50000000 		.4byte	.LFE13
 3221 0060 00000000 		.4byte	.LFB14
 3222 0064 48000000 		.4byte	.LFE14
 3223 0068 00000000 		.4byte	.LFB15
 3224 006c 20000000 		.4byte	.LFE15
 3225 0070 00000000 		.4byte	.LFB16
 3226 0074 18000000 		.4byte	.LFE16
 3227 0078 00000000 		.4byte	.LFB17
 3228 007c 48000000 		.4byte	.LFE17
 3229 0080 00000000 		.4byte	.LFB18
 3230 0084 20000000 		.4byte	.LFE18
 3231 0088 00000000 		.4byte	.LFB19
 3232 008c 18000000 		.4byte	.LFE19
 3233 0090 00000000 		.4byte	.LFB20
 3234 0094 48000000 		.4byte	.LFE20
 3235 0098 00000000 		.4byte	.LFB21
 3236 009c 20000000 		.4byte	.LFE21
 3237 00a0 00000000 		.4byte	.LFB22
 3238 00a4 18000000 		.4byte	.LFE22
 3239 00a8 00000000 		.4byte	.LFB23
 3240 00ac 4C000000 		.4byte	.LFE23
 3241 00b0 00000000 		.4byte	.LFB24
 3242 00b4 20000000 		.4byte	.LFE24
 3243 00b8 00000000 		.4byte	.LFB25
 3244 00bc 18000000 		.4byte	.LFE25
 3245 00c0 00000000 		.4byte	.LFB26
 3246 00c4 20000000 		.4byte	.LFE26
 3247 00c8 00000000 		.4byte	.LFB27
 3248 00cc 18000000 		.4byte	.LFE27
 3249 00d0 00000000 		.4byte	.LFB28
 3250 00d4 18000000 		.4byte	.LFE28
 3251 00d8 00000000 		.4byte	.LFB29
 3252 00dc 18000000 		.4byte	.LFE29
 3253 00e0 00000000 		.4byte	.LFB30
 3254 00e4 44000000 		.4byte	.LFE30
 3255 00e8 00000000 		.4byte	.LFB31
 3256 00ec 48000000 		.4byte	.LFE31
 3257 00f0 00000000 		.4byte	.LFB32
 3258 00f4 4C000000 		.4byte	.LFE32
 3259 00f8 00000000 		.4byte	.LFB33
ARM GAS  C:\Users\Petro\AppData\Local\Temp\ccbTbeKH.s 			page 83


 3260 00fc 48000000 		.4byte	.LFE33
 3261 0100 00000000 		.4byte	.LFB34
 3262 0104 48000000 		.4byte	.LFE34
 3263 0108 00000000 		.4byte	.LFB35
 3264 010c 3C000000 		.4byte	.LFE35
 3265 0110 00000000 		.4byte	.LFB36
 3266 0114 20000000 		.4byte	.LFE36
 3267 0118 00000000 		.4byte	.LFB37
 3268 011c 1C000000 		.4byte	.LFE37
 3269 0120 00000000 		.4byte	.LFB38
 3270 0124 14000000 		.4byte	.LFE38
 3271 0128 00000000 		.4byte	.LFB39
 3272 012c 14000000 		.4byte	.LFE39
 3273 0130 00000000 		.4byte	.LFB40
 3274 0134 1C000000 		.4byte	.LFE40
 3275 0138 00000000 		.4byte	.LFB41
 3276 013c 1C000000 		.4byte	.LFE41
 3277 0140 00000000 		.4byte	0
 3278 0144 00000000 		.4byte	0
 3279              		.section	.debug_line,"",%progbits
 3280              	.Ldebug_line0:
 3281 0000 73030000 		.section	.debug_str,"MS",%progbits,1
 3281      02004A00 
 3281      00000201 
 3281      FB0E0D00 
 3281      01010101 
 3282              	.LASF41:
 3283 0000 636F756E 		.ascii	"count\000"
 3283      7400
 3284              	.LASF40:
 3285 0006 54696D65 		.ascii	"TimerTestMode_WriteCounter\000"
 3285      72546573 
 3285      744D6F64 
 3285      655F5772 
 3285      69746543 
 3286              	.LASF61:
 3287 0021 54696D65 		.ascii	"TimerTestMode_ReadCaptureBuf\000"
 3287      72546573 
 3287      744D6F64 
 3287      655F5265 
 3287      61644361 
 3288              	.LASF45:
 3289 003e 70657269 		.ascii	"period\000"
 3289      6F6400
 3290              	.LASF7:
 3291 0045 6C6F6E67 		.ascii	"long long unsigned int\000"
 3291      206C6F6E 
 3291      6720756E 
 3291      7369676E 
 3291      65642069 
 3292              	.LASF56:
 3293 005c 54696D65 		.ascii	"TimerTestMode_ReadCompare\000"
 3293      72546573 
 3293      744D6F64 
 3293      655F5265 
 3293      6164436F 
 3294              	.LASF25:
ARM GAS  C:\Users\Petro\AppData\Local\Temp\ccbTbeKH.s 			page 84


 3295 0076 71644D6F 		.ascii	"qdMode\000"
 3295      646500
 3296              	.LASF74:
 3297 007d 54696D65 		.ascii	"TimerTestMode_GetInterruptSource\000"
 3297      72546573 
 3297      744D6F64 
 3297      655F4765 
 3297      74496E74 
 3298              	.LASF6:
 3299 009e 6C6F6E67 		.ascii	"long long int\000"
 3299      206C6F6E 
 3299      6720696E 
 3299      7400
 3300              	.LASF0:
 3301 00ac 7369676E 		.ascii	"signed char\000"
 3301      65642063 
 3301      68617200 
 3302              	.LASF38:
 3303 00b8 54696D65 		.ascii	"TimerTestMode_SetPWMInvert\000"
 3303      72546573 
 3303      744D6F64 
 3303      655F5365 
 3303      7450574D 
 3304              	.LASF18:
 3305 00d3 54696D65 		.ascii	"TimerTestMode_Start\000"
 3305      72546573 
 3305      744D6F64 
 3305      655F5374 
 3305      61727400 
 3306              	.LASF65:
 3307 00e7 54696D65 		.ascii	"TimerTestMode_SetStartMode\000"
 3307      72546573 
 3307      744D6F64 
 3307      655F5365 
 3307      74537461 
 3308              	.LASF4:
 3309 0102 6C6F6E67 		.ascii	"long int\000"
 3309      20696E74 
 3309      00
 3310              	.LASF9:
 3311 010b 75696E74 		.ascii	"uint8\000"
 3311      3800
 3312              	.LASF12:
 3313 0111 646F7562 		.ascii	"double\000"
 3313      6C6500
 3314              	.LASF46:
 3315 0118 54696D65 		.ascii	"TimerTestMode_ReadCounter\000"
 3315      72546573 
 3315      744D6F64 
 3315      655F5265 
 3315      6164436F 
 3316              	.LASF10:
 3317 0132 75696E74 		.ascii	"uint32\000"
 3317      333200
 3318              	.LASF63:
 3319 0139 74726967 		.ascii	"triggerMode\000"
 3319      6765724D 
ARM GAS  C:\Users\Petro\AppData\Local\Temp\ccbTbeKH.s 			page 85


 3319      6F646500 
 3320              	.LASF39:
 3321 0145 6D61736B 		.ascii	"mask\000"
 3321      00
 3322              	.LASF78:
 3323 014a 47656E65 		.ascii	"Generated_Source\\PSoC4\\TimerTestMode.c\000"
 3323      72617465 
 3323      645F536F 
 3323      75726365 
 3323      5C50536F 
 3324              	.LASF37:
 3325 0171 64656164 		.ascii	"deadTime\000"
 3325      54696D65 
 3325      00
 3326              	.LASF8:
 3327 017a 756E7369 		.ascii	"unsigned int\000"
 3327      676E6564 
 3327      20696E74 
 3327      00
 3328              	.LASF26:
 3329 0187 54696D65 		.ascii	"TimerTestMode_SetPrescaler\000"
 3329      72546573 
 3329      744D6F64 
 3329      655F5365 
 3329      74507265 
 3330              	.LASF69:
 3331 01a2 636F6D6D 		.ascii	"command\000"
 3331      616E6400 
 3332              	.LASF79:
 3333 01aa 443A5C43 		.ascii	"D:\\Cypress\\system-start-finish\\dev\\FW\\start\\s"
 3333      79707265 
 3333      73735C73 
 3333      79737465 
 3333      6D2D7374 
 3334 01d7 74617274 		.ascii	"tart_v11.cydsn\000"
 3334      5F763131 
 3334      2E637964 
 3334      736E00
 3335              	.LASF5:
 3336 01e6 6C6F6E67 		.ascii	"long unsigned int\000"
 3336      20756E73 
 3336      69676E65 
 3336      6420696E 
 3336      7400
 3337              	.LASF31:
 3338 01f8 6D6F6465 		.ascii	"modeMask\000"
 3338      4D61736B 
 3338      00
 3339              	.LASF52:
 3340 0201 54696D65 		.ascii	"TimerTestMode_ReadPeriodBuf\000"
 3340      72546573 
 3340      744D6F64 
 3340      655F5265 
 3340      61645065 
 3341              	.LASF3:
 3342 021d 73686F72 		.ascii	"short unsigned int\000"
 3342      7420756E 
ARM GAS  C:\Users\Petro\AppData\Local\Temp\ccbTbeKH.s 			page 86


 3342      7369676E 
 3342      65642069 
 3342      6E7400
 3343              	.LASF28:
 3344 0230 54696D65 		.ascii	"TimerTestMode_SetOneShot\000"
 3344      72546573 
 3344      744D6F64 
 3344      655F5365 
 3344      744F6E65 
 3345              	.LASF29:
 3346 0249 6F6E6553 		.ascii	"oneShotEnable\000"
 3346      686F7445 
 3346      6E61626C 
 3346      6500
 3347              	.LASF66:
 3348 0257 54696D65 		.ascii	"TimerTestMode_SetStopMode\000"
 3348      72546573 
 3348      744D6F64 
 3348      655F5365 
 3348      7453746F 
 3349              	.LASF80:
 3350 0271 54696D65 		.ascii	"TimerTestMode_initVar\000"
 3350      72546573 
 3350      744D6F64 
 3350      655F696E 
 3350      69745661 
 3351              	.LASF48:
 3352 0287 54696D65 		.ascii	"TimerTestMode_SetCompareSwap\000"
 3352      72546573 
 3352      744D6F64 
 3352      655F5365 
 3352      74436F6D 
 3353              	.LASF53:
 3354 02a4 54696D65 		.ascii	"TimerTestMode_SetPeriodSwap\000"
 3354      72546573 
 3354      744D6F64 
 3354      655F5365 
 3354      74506572 
 3355              	.LASF70:
 3356 02c0 54696D65 		.ascii	"TimerTestMode_ReadStatus\000"
 3356      72546573 
 3356      744D6F64 
 3356      655F5265 
 3356      61645374 
 3357              	.LASF77:
 3358 02d9 474E5520 		.ascii	"GNU C11 5.4.1 20160609 (release) [ARM/embedded-5-br"
 3358      43313120 
 3358      352E342E 
 3358      31203230 
 3358      31363036 
 3359 030c 616E6368 		.ascii	"anch revision 237715] -mcpu=cortex-m0 -mthumb -g -O"
 3359      20726576 
 3359      6973696F 
 3359      6E203233 
 3359      37373135 
 3360 033f 30202D66 		.ascii	"0 -ffunction-sections -ffat-lto-objects\000"
 3360      66756E63 
ARM GAS  C:\Users\Petro\AppData\Local\Temp\ccbTbeKH.s 			page 87


 3360      74696F6E 
 3360      2D736563 
 3360      74696F6E 
 3361              	.LASF57:
 3362 0367 54696D65 		.ascii	"TimerTestMode_WriteCompareBuf\000"
 3362      72546573 
 3362      744D6F64 
 3362      655F5772 
 3362      69746543 
 3363              	.LASF14:
 3364 0385 72656733 		.ascii	"reg32\000"
 3364      3200
 3365              	.LASF42:
 3366 038b 54696D65 		.ascii	"TimerTestMode_SetCounterMode\000"
 3366      72546573 
 3366      744D6F64 
 3366      655F5365 
 3366      74436F75 
 3367              	.LASF16:
 3368 03a8 73697A65 		.ascii	"sizetype\000"
 3368      74797065 
 3368      00
 3369              	.LASF34:
 3370 03b1 54696D65 		.ascii	"TimerTestMode_SetPWMStopOnKill\000"
 3370      72546573 
 3370      744D6F64 
 3370      655F5365 
 3370      7450574D 
 3371              	.LASF15:
 3372 03d0 6C6F6E67 		.ascii	"long double\000"
 3372      20646F75 
 3372      626C6500 
 3373              	.LASF32:
 3374 03dc 54696D65 		.ascii	"TimerTestMode_SetPWMSyncKill\000"
 3374      72546573 
 3374      744D6F64 
 3374      655F5365 
 3374      7450574D 
 3375              	.LASF20:
 3376 03f9 54696D65 		.ascii	"TimerTestMode_Stop\000"
 3376      72546573 
 3376      744D6F64 
 3376      655F5374 
 3376      6F7000
 3377              	.LASF55:
 3378 040c 636F6D70 		.ascii	"compare\000"
 3378      61726500 
 3379              	.LASF44:
 3380 0414 54696D65 		.ascii	"TimerTestMode_WritePeriod\000"
 3380      72546573 
 3380      744D6F64 
 3380      655F5772 
 3380      69746550 
 3381              	.LASF23:
 3382 042e 54696D65 		.ascii	"TimerTestMode_SetQDMode\000"
 3382      72546573 
 3382      744D6F64 
ARM GAS  C:\Users\Petro\AppData\Local\Temp\ccbTbeKH.s 			page 88


 3382      655F5365 
 3382      7451444D 
 3383              	.LASF11:
 3384 0446 666C6F61 		.ascii	"float\000"
 3384      7400
 3385              	.LASF27:
 3386 044c 70726573 		.ascii	"prescaler\000"
 3386      63616C65 
 3386      7200
 3387              	.LASF73:
 3388 0456 54696D65 		.ascii	"TimerTestMode_GetInterruptSourceMasked\000"
 3388      72546573 
 3388      744D6F64 
 3388      655F4765 
 3388      74496E74 
 3389              	.LASF64:
 3390 047d 54696D65 		.ascii	"TimerTestMode_SetReloadMode\000"
 3390      72546573 
 3390      744D6F64 
 3390      655F5365 
 3390      7452656C 
 3391              	.LASF68:
 3392 0499 54696D65 		.ascii	"TimerTestMode_TriggerCommand\000"
 3392      72546573 
 3392      744D6F64 
 3392      655F5472 
 3392      69676765 
 3393              	.LASF1:
 3394 04b6 756E7369 		.ascii	"unsigned char\000"
 3394      676E6564 
 3394      20636861 
 3394      7200
 3395              	.LASF47:
 3396 04c4 54696D65 		.ascii	"TimerTestMode_ReadPeriod\000"
 3396      72546573 
 3396      744D6F64 
 3396      655F5265 
 3396      61645065 
 3397              	.LASF35:
 3398 04dd 73746F70 		.ascii	"stopOnKillEnable\000"
 3398      4F6E4B69 
 3398      6C6C456E 
 3398      61626C65 
 3398      00
 3399              	.LASF75:
 3400 04ee 54696D65 		.ascii	"TimerTestMode_ClearInterrupt\000"
 3400      72546573 
 3400      744D6F64 
 3400      655F436C 
 3400      65617249 
 3401              	.LASF2:
 3402 050b 73686F72 		.ascii	"short int\000"
 3402      7420696E 
 3402      7400
 3403              	.LASF72:
 3404 0515 696E7465 		.ascii	"interruptMask\000"
 3404      72727570 
ARM GAS  C:\Users\Petro\AppData\Local\Temp\ccbTbeKH.s 			page 89


 3404      744D6173 
 3404      6B00
 3405              	.LASF76:
 3406 0523 54696D65 		.ascii	"TimerTestMode_SetInterrupt\000"
 3406      72546573 
 3406      744D6F64 
 3406      655F5365 
 3406      74496E74 
 3407              	.LASF19:
 3408 053e 54696D65 		.ascii	"TimerTestMode_Enable\000"
 3408      72546573 
 3408      744D6F64 
 3408      655F456E 
 3408      61626C65 
 3409              	.LASF60:
 3410 0553 54696D65 		.ascii	"TimerTestMode_ReadCapture\000"
 3410      72546573 
 3410      744D6F64 
 3410      655F5265 
 3410      61644361 
 3411              	.LASF59:
 3412 056d 54696D65 		.ascii	"TimerTestMode_ReadCompareBuf\000"
 3412      72546573 
 3412      744D6F64 
 3412      655F5265 
 3412      6164436F 
 3413              	.LASF71:
 3414 058a 54696D65 		.ascii	"TimerTestMode_SetInterruptMode\000"
 3414      72546573 
 3414      744D6F64 
 3414      655F5365 
 3414      74496E74 
 3415              	.LASF13:
 3416 05a9 63686172 		.ascii	"char\000"
 3416      00
 3417              	.LASF24:
 3418 05ae 6D6F6465 		.ascii	"mode\000"
 3418      00
 3419              	.LASF43:
 3420 05b3 636F756E 		.ascii	"counterMode\000"
 3420      7465724D 
 3420      6F646500 
 3421              	.LASF67:
 3422 05bf 54696D65 		.ascii	"TimerTestMode_SetCountMode\000"
 3422      72546573 
 3422      744D6F64 
 3422      655F5365 
 3422      74436F75 
 3423              	.LASF30:
 3424 05da 54696D65 		.ascii	"TimerTestMode_SetPWMMode\000"
 3424      72546573 
 3424      744D6F64 
 3424      655F5365 
 3424      7450574D 
 3425              	.LASF36:
 3426 05f3 54696D65 		.ascii	"TimerTestMode_SetPWMDeadTime\000"
 3426      72546573 
ARM GAS  C:\Users\Petro\AppData\Local\Temp\ccbTbeKH.s 			page 90


 3426      744D6F64 
 3426      655F5365 
 3426      7450574D 
 3427              	.LASF58:
 3428 0610 636F6D70 		.ascii	"compareBuf\000"
 3428      61726542 
 3428      756600
 3429              	.LASF62:
 3430 061b 54696D65 		.ascii	"TimerTestMode_SetCaptureMode\000"
 3430      72546573 
 3430      744D6F64 
 3430      655F5365 
 3430      74436170 
 3431              	.LASF22:
 3432 0638 54696D65 		.ascii	"TimerTestMode_SetMode\000"
 3432      72546573 
 3432      744D6F64 
 3432      655F5365 
 3432      744D6F64 
 3433              	.LASF21:
 3434 064e 656E6162 		.ascii	"enableInterrupts\000"
 3434      6C65496E 
 3434      74657272 
 3434      75707473 
 3434      00
 3435              	.LASF54:
 3436 065f 54696D65 		.ascii	"TimerTestMode_WriteCompare\000"
 3436      72546573 
 3436      744D6F64 
 3436      655F5772 
 3436      69746543 
 3437              	.LASF33:
 3438 067a 73796E63 		.ascii	"syncKillEnable\000"
 3438      4B696C6C 
 3438      456E6162 
 3438      6C6500
 3439              	.LASF49:
 3440 0689 73776170 		.ascii	"swapEnable\000"
 3440      456E6162 
 3440      6C6500
 3441              	.LASF17:
 3442 0694 54696D65 		.ascii	"TimerTestMode_Init\000"
 3442      72546573 
 3442      744D6F64 
 3442      655F496E 
 3442      697400
 3443              	.LASF50:
 3444 06a7 54696D65 		.ascii	"TimerTestMode_WritePeriodBuf\000"
 3444      72546573 
 3444      744D6F64 
 3444      655F5772 
 3444      69746550 
 3445              	.LASF51:
 3446 06c4 70657269 		.ascii	"periodBuf\000"
 3446      6F644275 
 3446      6600
 3447              		.ident	"GCC: (GNU Tools for ARM Embedded Processors) 5.4.1 20160609 (release) [ARM/embedded-5-bran
ARM GAS  C:\Users\Petro\AppData\Local\Temp\ccbTbeKH.s 			page 91


