ARM GAS  C:\Users\Petro\AppData\Local\Temp\ccy3L2Gg.s 			page 1


   1              		.syntax unified
   2              		.cpu cortex-m0
   3              		.fpu softvfp
   4              		.eabi_attribute 20, 1
   5              		.eabi_attribute 21, 1
   6              		.eabi_attribute 23, 3
   7              		.eabi_attribute 24, 1
   8              		.eabi_attribute 25, 1
   9              		.eabi_attribute 26, 1
  10              		.eabi_attribute 30, 6
  11              		.eabi_attribute 34, 0
  12              		.eabi_attribute 18, 4
  13              		.thumb
  14              		.syntax unified
  15              		.file	"UART_XB_UART.c"
  16              		.text
  17              	.Ltext0:
  18              		.cfi_sections	.debug_frame
  19              		.section	.text.UART_XB_UartInit,"ax",%progbits
  20              		.align	2
  21              		.global	UART_XB_UartInit
  22              		.code	16
  23              		.thumb_func
  24              		.type	UART_XB_UartInit, %function
  25              	UART_XB_UartInit:
  26              	.LFB2:
  27              		.file 1 "Generated_Source\\PSoC4\\UART_XB_UART.c"
   1:Generated_Source\PSoC4/UART_XB_UART.c **** /***************************************************************************//**
   2:Generated_Source\PSoC4/UART_XB_UART.c **** * \file UART_XB_UART.c
   3:Generated_Source\PSoC4/UART_XB_UART.c **** * \version 3.20
   4:Generated_Source\PSoC4/UART_XB_UART.c **** *
   5:Generated_Source\PSoC4/UART_XB_UART.c **** * \brief
   6:Generated_Source\PSoC4/UART_XB_UART.c **** *  This file provides the source code to the API for the SCB Component in
   7:Generated_Source\PSoC4/UART_XB_UART.c **** *  UART mode.
   8:Generated_Source\PSoC4/UART_XB_UART.c **** *
   9:Generated_Source\PSoC4/UART_XB_UART.c **** * Note:
  10:Generated_Source\PSoC4/UART_XB_UART.c **** *
  11:Generated_Source\PSoC4/UART_XB_UART.c **** *******************************************************************************
  12:Generated_Source\PSoC4/UART_XB_UART.c **** * \copyright
  13:Generated_Source\PSoC4/UART_XB_UART.c **** * Copyright 2013-2016, Cypress Semiconductor Corporation.  All rights reserved.
  14:Generated_Source\PSoC4/UART_XB_UART.c **** * You may use this file only in accordance with the license, terms, conditions,
  15:Generated_Source\PSoC4/UART_XB_UART.c **** * disclaimers, and limitations in the end user license agreement accompanying
  16:Generated_Source\PSoC4/UART_XB_UART.c **** * the software package with which this file was provided.
  17:Generated_Source\PSoC4/UART_XB_UART.c **** *******************************************************************************/
  18:Generated_Source\PSoC4/UART_XB_UART.c **** 
  19:Generated_Source\PSoC4/UART_XB_UART.c **** #include "UART_XB_PVT.h"
  20:Generated_Source\PSoC4/UART_XB_UART.c **** #include "UART_XB_SPI_UART_PVT.h"
  21:Generated_Source\PSoC4/UART_XB_UART.c **** #include "cyapicallbacks.h"
  22:Generated_Source\PSoC4/UART_XB_UART.c **** 
  23:Generated_Source\PSoC4/UART_XB_UART.c **** #if (UART_XB_UART_WAKE_ENABLE_CONST && UART_XB_UART_RX_WAKEUP_IRQ)
  24:Generated_Source\PSoC4/UART_XB_UART.c ****     /**
  25:Generated_Source\PSoC4/UART_XB_UART.c ****     * \addtogroup group_globals
  26:Generated_Source\PSoC4/UART_XB_UART.c ****     * \{
  27:Generated_Source\PSoC4/UART_XB_UART.c ****     */
  28:Generated_Source\PSoC4/UART_XB_UART.c ****     /** This global variable determines whether to enable Skip Start
  29:Generated_Source\PSoC4/UART_XB_UART.c ****     * functionality when UART_XB_Sleep() function is called:
  30:Generated_Source\PSoC4/UART_XB_UART.c ****     * 0 – disable, other values – enable. Default value is 1.
ARM GAS  C:\Users\Petro\AppData\Local\Temp\ccy3L2Gg.s 			page 2


  31:Generated_Source\PSoC4/UART_XB_UART.c ****     * It is only available when Enable wakeup from Deep Sleep Mode is enabled.
  32:Generated_Source\PSoC4/UART_XB_UART.c ****     */
  33:Generated_Source\PSoC4/UART_XB_UART.c ****     uint8 UART_XB_skipStart = 1u;
  34:Generated_Source\PSoC4/UART_XB_UART.c ****     /** \} globals */
  35:Generated_Source\PSoC4/UART_XB_UART.c **** #endif /* (UART_XB_UART_WAKE_ENABLE_CONST && UART_XB_UART_RX_WAKEUP_IRQ) */
  36:Generated_Source\PSoC4/UART_XB_UART.c **** 
  37:Generated_Source\PSoC4/UART_XB_UART.c **** #if(UART_XB_SCB_MODE_UNCONFIG_CONST_CFG)
  38:Generated_Source\PSoC4/UART_XB_UART.c **** 
  39:Generated_Source\PSoC4/UART_XB_UART.c ****     /***************************************
  40:Generated_Source\PSoC4/UART_XB_UART.c ****     *  Configuration Structure Initialization
  41:Generated_Source\PSoC4/UART_XB_UART.c ****     ***************************************/
  42:Generated_Source\PSoC4/UART_XB_UART.c **** 
  43:Generated_Source\PSoC4/UART_XB_UART.c ****     const UART_XB_UART_INIT_STRUCT UART_XB_configUart =
  44:Generated_Source\PSoC4/UART_XB_UART.c ****     {
  45:Generated_Source\PSoC4/UART_XB_UART.c ****         UART_XB_UART_SUB_MODE,
  46:Generated_Source\PSoC4/UART_XB_UART.c ****         UART_XB_UART_DIRECTION,
  47:Generated_Source\PSoC4/UART_XB_UART.c ****         UART_XB_UART_DATA_BITS_NUM,
  48:Generated_Source\PSoC4/UART_XB_UART.c ****         UART_XB_UART_PARITY_TYPE,
  49:Generated_Source\PSoC4/UART_XB_UART.c ****         UART_XB_UART_STOP_BITS_NUM,
  50:Generated_Source\PSoC4/UART_XB_UART.c ****         UART_XB_UART_OVS_FACTOR,
  51:Generated_Source\PSoC4/UART_XB_UART.c ****         UART_XB_UART_IRDA_LOW_POWER,
  52:Generated_Source\PSoC4/UART_XB_UART.c ****         UART_XB_UART_MEDIAN_FILTER_ENABLE,
  53:Generated_Source\PSoC4/UART_XB_UART.c ****         UART_XB_UART_RETRY_ON_NACK,
  54:Generated_Source\PSoC4/UART_XB_UART.c ****         UART_XB_UART_IRDA_POLARITY,
  55:Generated_Source\PSoC4/UART_XB_UART.c ****         UART_XB_UART_DROP_ON_PARITY_ERR,
  56:Generated_Source\PSoC4/UART_XB_UART.c ****         UART_XB_UART_DROP_ON_FRAME_ERR,
  57:Generated_Source\PSoC4/UART_XB_UART.c ****         UART_XB_UART_WAKE_ENABLE,
  58:Generated_Source\PSoC4/UART_XB_UART.c ****         0u,
  59:Generated_Source\PSoC4/UART_XB_UART.c ****         NULL,
  60:Generated_Source\PSoC4/UART_XB_UART.c ****         0u,
  61:Generated_Source\PSoC4/UART_XB_UART.c ****         NULL,
  62:Generated_Source\PSoC4/UART_XB_UART.c ****         UART_XB_UART_MP_MODE_ENABLE,
  63:Generated_Source\PSoC4/UART_XB_UART.c ****         UART_XB_UART_MP_ACCEPT_ADDRESS,
  64:Generated_Source\PSoC4/UART_XB_UART.c ****         UART_XB_UART_MP_RX_ADDRESS,
  65:Generated_Source\PSoC4/UART_XB_UART.c ****         UART_XB_UART_MP_RX_ADDRESS_MASK,
  66:Generated_Source\PSoC4/UART_XB_UART.c ****         (uint32) UART_XB_SCB_IRQ_INTERNAL,
  67:Generated_Source\PSoC4/UART_XB_UART.c ****         UART_XB_UART_INTR_RX_MASK,
  68:Generated_Source\PSoC4/UART_XB_UART.c ****         UART_XB_UART_RX_TRIGGER_LEVEL,
  69:Generated_Source\PSoC4/UART_XB_UART.c ****         UART_XB_UART_INTR_TX_MASK,
  70:Generated_Source\PSoC4/UART_XB_UART.c ****         UART_XB_UART_TX_TRIGGER_LEVEL,
  71:Generated_Source\PSoC4/UART_XB_UART.c ****         (uint8) UART_XB_UART_BYTE_MODE_ENABLE,
  72:Generated_Source\PSoC4/UART_XB_UART.c ****         (uint8) UART_XB_UART_CTS_ENABLE,
  73:Generated_Source\PSoC4/UART_XB_UART.c ****         (uint8) UART_XB_UART_CTS_POLARITY,
  74:Generated_Source\PSoC4/UART_XB_UART.c ****         (uint8) UART_XB_UART_RTS_POLARITY,
  75:Generated_Source\PSoC4/UART_XB_UART.c ****         (uint8) UART_XB_UART_RTS_FIFO_LEVEL
  76:Generated_Source\PSoC4/UART_XB_UART.c ****     };
  77:Generated_Source\PSoC4/UART_XB_UART.c **** 
  78:Generated_Source\PSoC4/UART_XB_UART.c **** 
  79:Generated_Source\PSoC4/UART_XB_UART.c ****     /*******************************************************************************
  80:Generated_Source\PSoC4/UART_XB_UART.c ****     * Function Name: UART_XB_UartInit
  81:Generated_Source\PSoC4/UART_XB_UART.c ****     ****************************************************************************//**
  82:Generated_Source\PSoC4/UART_XB_UART.c ****     *
  83:Generated_Source\PSoC4/UART_XB_UART.c ****     *  Configures the UART_XB for UART operation.
  84:Generated_Source\PSoC4/UART_XB_UART.c ****     *
  85:Generated_Source\PSoC4/UART_XB_UART.c ****     *  This function is intended specifically to be used when the UART_XB
  86:Generated_Source\PSoC4/UART_XB_UART.c ****     *  configuration is set to “Unconfigured UART_XB” in the customizer.
  87:Generated_Source\PSoC4/UART_XB_UART.c ****     *  After initializing the UART_XB in UART mode using this function,
ARM GAS  C:\Users\Petro\AppData\Local\Temp\ccy3L2Gg.s 			page 3


  88:Generated_Source\PSoC4/UART_XB_UART.c ****     *  the component can be enabled using the UART_XB_Start() or
  89:Generated_Source\PSoC4/UART_XB_UART.c ****     * UART_XB_Enable() function.
  90:Generated_Source\PSoC4/UART_XB_UART.c ****     *  This function uses a pointer to a structure that provides the configuration
  91:Generated_Source\PSoC4/UART_XB_UART.c ****     *  settings. This structure contains the same information that would otherwise
  92:Generated_Source\PSoC4/UART_XB_UART.c ****     *  be provided by the customizer settings.
  93:Generated_Source\PSoC4/UART_XB_UART.c ****     *
  94:Generated_Source\PSoC4/UART_XB_UART.c ****     *  \param config: pointer to a structure that contains the following list of
  95:Generated_Source\PSoC4/UART_XB_UART.c ****     *   fields. These fields match the selections available in the customizer.
  96:Generated_Source\PSoC4/UART_XB_UART.c ****     *   Refer to the customizer for further description of the settings.
  97:Generated_Source\PSoC4/UART_XB_UART.c ****     *
  98:Generated_Source\PSoC4/UART_XB_UART.c ****     *******************************************************************************/
  99:Generated_Source\PSoC4/UART_XB_UART.c ****     void UART_XB_UartInit(const UART_XB_UART_INIT_STRUCT *config)
 100:Generated_Source\PSoC4/UART_XB_UART.c ****     {
 101:Generated_Source\PSoC4/UART_XB_UART.c ****         uint32 pinsConfig;
 102:Generated_Source\PSoC4/UART_XB_UART.c **** 
 103:Generated_Source\PSoC4/UART_XB_UART.c ****         if (NULL == config)
 104:Generated_Source\PSoC4/UART_XB_UART.c ****         {
 105:Generated_Source\PSoC4/UART_XB_UART.c ****             CYASSERT(0u != 0u); /* Halt execution due to bad function parameter */
 106:Generated_Source\PSoC4/UART_XB_UART.c ****         }
 107:Generated_Source\PSoC4/UART_XB_UART.c ****         else
 108:Generated_Source\PSoC4/UART_XB_UART.c ****         {
 109:Generated_Source\PSoC4/UART_XB_UART.c ****             /* Get direction to configure UART pins: TX, RX or TX+RX */
 110:Generated_Source\PSoC4/UART_XB_UART.c ****             pinsConfig  = config->direction;
 111:Generated_Source\PSoC4/UART_XB_UART.c **** 
 112:Generated_Source\PSoC4/UART_XB_UART.c ****         #if !(UART_XB_CY_SCBIP_V0 || UART_XB_CY_SCBIP_V1)
 113:Generated_Source\PSoC4/UART_XB_UART.c ****             /* Add RTS and CTS pins to configure */
 114:Generated_Source\PSoC4/UART_XB_UART.c ****             pinsConfig |= (0u != config->rtsRxFifoLevel) ? (UART_XB_UART_RTS_PIN_ENABLE) : (0u);
 115:Generated_Source\PSoC4/UART_XB_UART.c ****             pinsConfig |= (0u != config->enableCts)      ? (UART_XB_UART_CTS_PIN_ENABLE) : (0u);
 116:Generated_Source\PSoC4/UART_XB_UART.c ****         #endif /* !(UART_XB_CY_SCBIP_V0 || UART_XB_CY_SCBIP_V1) */
 117:Generated_Source\PSoC4/UART_XB_UART.c **** 
 118:Generated_Source\PSoC4/UART_XB_UART.c ****             /* Configure pins */
 119:Generated_Source\PSoC4/UART_XB_UART.c ****             UART_XB_SetPins(UART_XB_SCB_MODE_UART, config->mode, pinsConfig);
 120:Generated_Source\PSoC4/UART_XB_UART.c **** 
 121:Generated_Source\PSoC4/UART_XB_UART.c ****             /* Store internal configuration */
 122:Generated_Source\PSoC4/UART_XB_UART.c ****             UART_XB_scbMode       = (uint8) UART_XB_SCB_MODE_UART;
 123:Generated_Source\PSoC4/UART_XB_UART.c ****             UART_XB_scbEnableWake = (uint8) config->enableWake;
 124:Generated_Source\PSoC4/UART_XB_UART.c ****             UART_XB_scbEnableIntr = (uint8) config->enableInterrupt;
 125:Generated_Source\PSoC4/UART_XB_UART.c **** 
 126:Generated_Source\PSoC4/UART_XB_UART.c ****             /* Set RX direction internal variables */
 127:Generated_Source\PSoC4/UART_XB_UART.c ****             UART_XB_rxBuffer      =         config->rxBuffer;
 128:Generated_Source\PSoC4/UART_XB_UART.c ****             UART_XB_rxDataBits    = (uint8) config->dataBits;
 129:Generated_Source\PSoC4/UART_XB_UART.c ****             UART_XB_rxBufferSize  = (uint8) config->rxBufferSize;
 130:Generated_Source\PSoC4/UART_XB_UART.c **** 
 131:Generated_Source\PSoC4/UART_XB_UART.c ****             /* Set TX direction internal variables */
 132:Generated_Source\PSoC4/UART_XB_UART.c ****             UART_XB_txBuffer      =         config->txBuffer;
 133:Generated_Source\PSoC4/UART_XB_UART.c ****             UART_XB_txDataBits    = (uint8) config->dataBits;
 134:Generated_Source\PSoC4/UART_XB_UART.c ****             UART_XB_txBufferSize  = (uint8) config->txBufferSize;
 135:Generated_Source\PSoC4/UART_XB_UART.c **** 
 136:Generated_Source\PSoC4/UART_XB_UART.c ****             /* Configure UART interface */
 137:Generated_Source\PSoC4/UART_XB_UART.c ****             if(UART_XB_UART_MODE_IRDA == config->mode)
 138:Generated_Source\PSoC4/UART_XB_UART.c ****             {
 139:Generated_Source\PSoC4/UART_XB_UART.c ****                 /* OVS settings: IrDA */
 140:Generated_Source\PSoC4/UART_XB_UART.c ****                 UART_XB_CTRL_REG  = ((0u != config->enableIrdaLowPower) ?
 141:Generated_Source\PSoC4/UART_XB_UART.c ****                                                 (UART_XB_UART_GET_CTRL_OVS_IRDA_LP(config->oversamp
 142:Generated_Source\PSoC4/UART_XB_UART.c ****                                                 (UART_XB_CTRL_OVS_IRDA_OVS16));
 143:Generated_Source\PSoC4/UART_XB_UART.c ****             }
 144:Generated_Source\PSoC4/UART_XB_UART.c ****             else
ARM GAS  C:\Users\Petro\AppData\Local\Temp\ccy3L2Gg.s 			page 4


 145:Generated_Source\PSoC4/UART_XB_UART.c ****             {
 146:Generated_Source\PSoC4/UART_XB_UART.c ****                 /* OVS settings: UART and SmartCard */
 147:Generated_Source\PSoC4/UART_XB_UART.c ****                 UART_XB_CTRL_REG  = UART_XB_GET_CTRL_OVS(config->oversample);
 148:Generated_Source\PSoC4/UART_XB_UART.c ****             }
 149:Generated_Source\PSoC4/UART_XB_UART.c **** 
 150:Generated_Source\PSoC4/UART_XB_UART.c ****             UART_XB_CTRL_REG     |= UART_XB_GET_CTRL_BYTE_MODE  (config->enableByteMode)      |
 151:Generated_Source\PSoC4/UART_XB_UART.c ****                                              UART_XB_GET_CTRL_ADDR_ACCEPT(config->multiprocAcceptAd
 152:Generated_Source\PSoC4/UART_XB_UART.c ****                                              UART_XB_CTRL_UART;
 153:Generated_Source\PSoC4/UART_XB_UART.c **** 
 154:Generated_Source\PSoC4/UART_XB_UART.c ****             /* Configure sub-mode: UART, SmartCard or IrDA */
 155:Generated_Source\PSoC4/UART_XB_UART.c ****             UART_XB_UART_CTRL_REG = UART_XB_GET_UART_CTRL_MODE(config->mode);
 156:Generated_Source\PSoC4/UART_XB_UART.c **** 
 157:Generated_Source\PSoC4/UART_XB_UART.c ****             /* Configure RX direction */
 158:Generated_Source\PSoC4/UART_XB_UART.c ****             UART_XB_UART_RX_CTRL_REG = UART_XB_GET_UART_RX_CTRL_MODE(config->stopBits)             
 159:Generated_Source\PSoC4/UART_XB_UART.c ****                                         UART_XB_GET_UART_RX_CTRL_POLARITY(config->enableInvertedRx)
 160:Generated_Source\PSoC4/UART_XB_UART.c ****                                         UART_XB_GET_UART_RX_CTRL_MP_MODE(config->enableMultiproc)  
 161:Generated_Source\PSoC4/UART_XB_UART.c ****                                         UART_XB_GET_UART_RX_CTRL_DROP_ON_PARITY_ERR(config->dropOnP
 162:Generated_Source\PSoC4/UART_XB_UART.c ****                                         UART_XB_GET_UART_RX_CTRL_DROP_ON_FRAME_ERR(config->dropOnFr
 163:Generated_Source\PSoC4/UART_XB_UART.c **** 
 164:Generated_Source\PSoC4/UART_XB_UART.c ****             if(UART_XB_UART_PARITY_NONE != config->parity)
 165:Generated_Source\PSoC4/UART_XB_UART.c ****             {
 166:Generated_Source\PSoC4/UART_XB_UART.c ****                UART_XB_UART_RX_CTRL_REG |= UART_XB_GET_UART_RX_CTRL_PARITY(config->parity) |
 167:Generated_Source\PSoC4/UART_XB_UART.c ****                                                     UART_XB_UART_RX_CTRL_PARITY_ENABLED;
 168:Generated_Source\PSoC4/UART_XB_UART.c ****             }
 169:Generated_Source\PSoC4/UART_XB_UART.c **** 
 170:Generated_Source\PSoC4/UART_XB_UART.c ****             UART_XB_RX_CTRL_REG      = UART_XB_GET_RX_CTRL_DATA_WIDTH(config->dataBits)       |
 171:Generated_Source\PSoC4/UART_XB_UART.c ****                                                 UART_XB_GET_RX_CTRL_MEDIAN(config->enableMedianFilt
 172:Generated_Source\PSoC4/UART_XB_UART.c ****                                                 UART_XB_GET_UART_RX_CTRL_ENABLED(config->direction)
 173:Generated_Source\PSoC4/UART_XB_UART.c **** 
 174:Generated_Source\PSoC4/UART_XB_UART.c ****             UART_XB_RX_FIFO_CTRL_REG = UART_XB_GET_RX_FIFO_CTRL_TRIGGER_LEVEL(config->rxTriggerLeve
 175:Generated_Source\PSoC4/UART_XB_UART.c **** 
 176:Generated_Source\PSoC4/UART_XB_UART.c ****             /* Configure MP address */
 177:Generated_Source\PSoC4/UART_XB_UART.c ****             UART_XB_RX_MATCH_REG     = UART_XB_GET_RX_MATCH_ADDR(config->multiprocAddr) |
 178:Generated_Source\PSoC4/UART_XB_UART.c ****                                                 UART_XB_GET_RX_MATCH_MASK(config->multiprocAddrMask
 179:Generated_Source\PSoC4/UART_XB_UART.c **** 
 180:Generated_Source\PSoC4/UART_XB_UART.c ****             /* Configure RX direction */
 181:Generated_Source\PSoC4/UART_XB_UART.c ****             UART_XB_UART_TX_CTRL_REG = UART_XB_GET_UART_TX_CTRL_MODE(config->stopBits) |
 182:Generated_Source\PSoC4/UART_XB_UART.c ****                                                 UART_XB_GET_UART_TX_CTRL_RETRY_NACK(config->enableR
 183:Generated_Source\PSoC4/UART_XB_UART.c **** 
 184:Generated_Source\PSoC4/UART_XB_UART.c ****             if(UART_XB_UART_PARITY_NONE != config->parity)
 185:Generated_Source\PSoC4/UART_XB_UART.c ****             {
 186:Generated_Source\PSoC4/UART_XB_UART.c ****                UART_XB_UART_TX_CTRL_REG |= UART_XB_GET_UART_TX_CTRL_PARITY(config->parity) |
 187:Generated_Source\PSoC4/UART_XB_UART.c ****                                                     UART_XB_UART_TX_CTRL_PARITY_ENABLED;
 188:Generated_Source\PSoC4/UART_XB_UART.c ****             }
 189:Generated_Source\PSoC4/UART_XB_UART.c **** 
 190:Generated_Source\PSoC4/UART_XB_UART.c ****             UART_XB_TX_CTRL_REG      = UART_XB_GET_TX_CTRL_DATA_WIDTH(config->dataBits)    |
 191:Generated_Source\PSoC4/UART_XB_UART.c ****                                                 UART_XB_GET_UART_TX_CTRL_ENABLED(config->direction)
 192:Generated_Source\PSoC4/UART_XB_UART.c **** 
 193:Generated_Source\PSoC4/UART_XB_UART.c ****             UART_XB_TX_FIFO_CTRL_REG = UART_XB_GET_TX_FIFO_CTRL_TRIGGER_LEVEL(config->txTriggerLeve
 194:Generated_Source\PSoC4/UART_XB_UART.c **** 
 195:Generated_Source\PSoC4/UART_XB_UART.c ****         #if !(UART_XB_CY_SCBIP_V0 || UART_XB_CY_SCBIP_V1)
 196:Generated_Source\PSoC4/UART_XB_UART.c ****             UART_XB_UART_FLOW_CTRL_REG = UART_XB_GET_UART_FLOW_CTRL_CTS_ENABLE(config->enableCts) |
 197:Generated_Source\PSoC4/UART_XB_UART.c ****                                             UART_XB_GET_UART_FLOW_CTRL_CTS_POLARITY (config->ctsPol
 198:Generated_Source\PSoC4/UART_XB_UART.c ****                                             UART_XB_GET_UART_FLOW_CTRL_RTS_POLARITY (config->rtsPol
 199:Generated_Source\PSoC4/UART_XB_UART.c ****                                             UART_XB_GET_UART_FLOW_CTRL_TRIGGER_LEVEL(config->rtsRxF
 200:Generated_Source\PSoC4/UART_XB_UART.c ****         #endif /* !(UART_XB_CY_SCBIP_V0 || UART_XB_CY_SCBIP_V1) */
 201:Generated_Source\PSoC4/UART_XB_UART.c **** 
ARM GAS  C:\Users\Petro\AppData\Local\Temp\ccy3L2Gg.s 			page 5


 202:Generated_Source\PSoC4/UART_XB_UART.c ****             /* Configure interrupt with UART handler but do not enable it */
 203:Generated_Source\PSoC4/UART_XB_UART.c ****             CyIntDisable    (UART_XB_ISR_NUMBER);
 204:Generated_Source\PSoC4/UART_XB_UART.c ****             CyIntSetPriority(UART_XB_ISR_NUMBER, UART_XB_ISR_PRIORITY);
 205:Generated_Source\PSoC4/UART_XB_UART.c ****             (void) CyIntSetVector(UART_XB_ISR_NUMBER, &UART_XB_SPI_UART_ISR);
 206:Generated_Source\PSoC4/UART_XB_UART.c **** 
 207:Generated_Source\PSoC4/UART_XB_UART.c ****             /* Configure WAKE interrupt */
 208:Generated_Source\PSoC4/UART_XB_UART.c ****         #if(UART_XB_UART_RX_WAKEUP_IRQ)
 209:Generated_Source\PSoC4/UART_XB_UART.c ****             CyIntDisable    (UART_XB_RX_WAKE_ISR_NUMBER);
 210:Generated_Source\PSoC4/UART_XB_UART.c ****             CyIntSetPriority(UART_XB_RX_WAKE_ISR_NUMBER, UART_XB_RX_WAKE_ISR_PRIORITY);
 211:Generated_Source\PSoC4/UART_XB_UART.c ****             (void) CyIntSetVector(UART_XB_RX_WAKE_ISR_NUMBER, &UART_XB_UART_WAKEUP_ISR);
 212:Generated_Source\PSoC4/UART_XB_UART.c ****         #endif /* (UART_XB_UART_RX_WAKEUP_IRQ) */
 213:Generated_Source\PSoC4/UART_XB_UART.c **** 
 214:Generated_Source\PSoC4/UART_XB_UART.c ****             /* Configure interrupt sources */
 215:Generated_Source\PSoC4/UART_XB_UART.c ****             UART_XB_INTR_I2C_EC_MASK_REG = UART_XB_NO_INTR_SOURCES;
 216:Generated_Source\PSoC4/UART_XB_UART.c ****             UART_XB_INTR_SPI_EC_MASK_REG = UART_XB_NO_INTR_SOURCES;
 217:Generated_Source\PSoC4/UART_XB_UART.c ****             UART_XB_INTR_SLAVE_MASK_REG  = UART_XB_NO_INTR_SOURCES;
 218:Generated_Source\PSoC4/UART_XB_UART.c ****             UART_XB_INTR_MASTER_MASK_REG = UART_XB_NO_INTR_SOURCES;
 219:Generated_Source\PSoC4/UART_XB_UART.c ****             UART_XB_INTR_RX_MASK_REG     = config->rxInterruptMask;
 220:Generated_Source\PSoC4/UART_XB_UART.c ****             UART_XB_INTR_TX_MASK_REG     = config->txInterruptMask;
 221:Generated_Source\PSoC4/UART_XB_UART.c ****         
 222:Generated_Source\PSoC4/UART_XB_UART.c ****             /* Configure TX interrupt sources to restore. */
 223:Generated_Source\PSoC4/UART_XB_UART.c ****             UART_XB_IntrTxMask = LO16(UART_XB_INTR_TX_MASK_REG);
 224:Generated_Source\PSoC4/UART_XB_UART.c **** 
 225:Generated_Source\PSoC4/UART_XB_UART.c ****             /* Clear RX buffer indexes */
 226:Generated_Source\PSoC4/UART_XB_UART.c ****             UART_XB_rxBufferHead     = 0u;
 227:Generated_Source\PSoC4/UART_XB_UART.c ****             UART_XB_rxBufferTail     = 0u;
 228:Generated_Source\PSoC4/UART_XB_UART.c ****             UART_XB_rxBufferOverflow = 0u;
 229:Generated_Source\PSoC4/UART_XB_UART.c **** 
 230:Generated_Source\PSoC4/UART_XB_UART.c ****             /* Clear TX buffer indexes */
 231:Generated_Source\PSoC4/UART_XB_UART.c ****             UART_XB_txBufferHead = 0u;
 232:Generated_Source\PSoC4/UART_XB_UART.c ****             UART_XB_txBufferTail = 0u;
 233:Generated_Source\PSoC4/UART_XB_UART.c ****         }
 234:Generated_Source\PSoC4/UART_XB_UART.c ****     }
 235:Generated_Source\PSoC4/UART_XB_UART.c **** 
 236:Generated_Source\PSoC4/UART_XB_UART.c **** #else
 237:Generated_Source\PSoC4/UART_XB_UART.c **** 
 238:Generated_Source\PSoC4/UART_XB_UART.c ****     /*******************************************************************************
 239:Generated_Source\PSoC4/UART_XB_UART.c ****     * Function Name: UART_XB_UartInit
 240:Generated_Source\PSoC4/UART_XB_UART.c ****     ****************************************************************************//**
 241:Generated_Source\PSoC4/UART_XB_UART.c ****     *
 242:Generated_Source\PSoC4/UART_XB_UART.c ****     *  Configures the SCB for the UART operation.
 243:Generated_Source\PSoC4/UART_XB_UART.c ****     *
 244:Generated_Source\PSoC4/UART_XB_UART.c ****     *******************************************************************************/
 245:Generated_Source\PSoC4/UART_XB_UART.c ****     void UART_XB_UartInit(void)
 246:Generated_Source\PSoC4/UART_XB_UART.c ****     {
  28              		.loc 1 246 0
  29              		.cfi_startproc
  30              		@ args = 0, pretend = 0, frame = 0
  31              		@ frame_needed = 1, uses_anonymous_args = 0
  32 0000 80B5     		push	{r7, lr}
  33              		.cfi_def_cfa_offset 8
  34              		.cfi_offset 7, -8
  35              		.cfi_offset 14, -4
  36 0002 00AF     		add	r7, sp, #0
  37              		.cfi_def_cfa_register 7
 247:Generated_Source\PSoC4/UART_XB_UART.c ****         /* Configure UART interface */
 248:Generated_Source\PSoC4/UART_XB_UART.c ****         UART_XB_CTRL_REG = UART_XB_UART_DEFAULT_CTRL;
ARM GAS  C:\Users\Petro\AppData\Local\Temp\ccy3L2Gg.s 			page 6


  38              		.loc 1 248 0
  39 0004 294B     		ldr	r3, .L2
  40 0006 2A4A     		ldr	r2, .L2+4
  41 0008 1A60     		str	r2, [r3]
 249:Generated_Source\PSoC4/UART_XB_UART.c **** 
 250:Generated_Source\PSoC4/UART_XB_UART.c ****         /* Configure sub-mode: UART, SmartCard or IrDA */
 251:Generated_Source\PSoC4/UART_XB_UART.c ****         UART_XB_UART_CTRL_REG = UART_XB_UART_DEFAULT_UART_CTRL;
  42              		.loc 1 251 0
  43 000a 2A4B     		ldr	r3, .L2+8
  44 000c 0022     		movs	r2, #0
  45 000e 1A60     		str	r2, [r3]
 252:Generated_Source\PSoC4/UART_XB_UART.c **** 
 253:Generated_Source\PSoC4/UART_XB_UART.c ****         /* Configure RX direction */
 254:Generated_Source\PSoC4/UART_XB_UART.c ****         UART_XB_UART_RX_CTRL_REG = UART_XB_UART_DEFAULT_UART_RX_CTRL;
  46              		.loc 1 254 0
  47 0010 294B     		ldr	r3, .L2+12
  48 0012 3122     		movs	r2, #49
  49 0014 1A60     		str	r2, [r3]
 255:Generated_Source\PSoC4/UART_XB_UART.c ****         UART_XB_RX_CTRL_REG      = UART_XB_UART_DEFAULT_RX_CTRL;
  50              		.loc 1 255 0
  51 0016 294B     		ldr	r3, .L2+16
  52 0018 294A     		ldr	r2, .L2+20
  53 001a 1A60     		str	r2, [r3]
 256:Generated_Source\PSoC4/UART_XB_UART.c ****         UART_XB_RX_FIFO_CTRL_REG = UART_XB_UART_DEFAULT_RX_FIFO_CTRL;
  54              		.loc 1 256 0
  55 001c 294B     		ldr	r3, .L2+24
  56 001e 0722     		movs	r2, #7
  57 0020 1A60     		str	r2, [r3]
 257:Generated_Source\PSoC4/UART_XB_UART.c ****         UART_XB_RX_MATCH_REG     = UART_XB_UART_DEFAULT_RX_MATCH_REG;
  58              		.loc 1 257 0
  59 0022 294B     		ldr	r3, .L2+28
  60 0024 0022     		movs	r2, #0
  61 0026 1A60     		str	r2, [r3]
 258:Generated_Source\PSoC4/UART_XB_UART.c **** 
 259:Generated_Source\PSoC4/UART_XB_UART.c ****         /* Configure TX direction */
 260:Generated_Source\PSoC4/UART_XB_UART.c ****         UART_XB_UART_TX_CTRL_REG = UART_XB_UART_DEFAULT_UART_TX_CTRL;
  62              		.loc 1 260 0
  63 0028 284B     		ldr	r3, .L2+32
  64 002a 3122     		movs	r2, #49
  65 002c 1A60     		str	r2, [r3]
 261:Generated_Source\PSoC4/UART_XB_UART.c ****         UART_XB_TX_CTRL_REG      = UART_XB_UART_DEFAULT_TX_CTRL;
  66              		.loc 1 261 0
  67 002e 284B     		ldr	r3, .L2+36
  68 0030 234A     		ldr	r2, .L2+20
  69 0032 1A60     		str	r2, [r3]
 262:Generated_Source\PSoC4/UART_XB_UART.c ****         UART_XB_TX_FIFO_CTRL_REG = UART_XB_UART_DEFAULT_TX_FIFO_CTRL;
  70              		.loc 1 262 0
  71 0034 274B     		ldr	r3, .L2+40
  72 0036 0022     		movs	r2, #0
  73 0038 1A60     		str	r2, [r3]
 263:Generated_Source\PSoC4/UART_XB_UART.c **** 
 264:Generated_Source\PSoC4/UART_XB_UART.c ****     #if !(UART_XB_CY_SCBIP_V0 || UART_XB_CY_SCBIP_V1)
 265:Generated_Source\PSoC4/UART_XB_UART.c ****         UART_XB_UART_FLOW_CTRL_REG = UART_XB_UART_DEFAULT_FLOW_CTRL;
  74              		.loc 1 265 0
  75 003a 274B     		ldr	r3, .L2+44
  76 003c 0422     		movs	r2, #4
  77 003e 1A60     		str	r2, [r3]
ARM GAS  C:\Users\Petro\AppData\Local\Temp\ccy3L2Gg.s 			page 7


 266:Generated_Source\PSoC4/UART_XB_UART.c ****     #endif /* !(UART_XB_CY_SCBIP_V0 || UART_XB_CY_SCBIP_V1) */
 267:Generated_Source\PSoC4/UART_XB_UART.c **** 
 268:Generated_Source\PSoC4/UART_XB_UART.c ****         /* Configure interrupt with UART handler but do not enable it */
 269:Generated_Source\PSoC4/UART_XB_UART.c ****     #if(UART_XB_SCB_IRQ_INTERNAL)
 270:Generated_Source\PSoC4/UART_XB_UART.c ****         CyIntDisable    (UART_XB_ISR_NUMBER);
  78              		.loc 1 270 0
  79 0040 0920     		movs	r0, #9
  80 0042 FFF7FEFF 		bl	CyIntDisable
 271:Generated_Source\PSoC4/UART_XB_UART.c ****         CyIntSetPriority(UART_XB_ISR_NUMBER, UART_XB_ISR_PRIORITY);
  81              		.loc 1 271 0
  82 0046 0021     		movs	r1, #0
  83 0048 0920     		movs	r0, #9
  84 004a FFF7FEFF 		bl	CyIntSetPriority
 272:Generated_Source\PSoC4/UART_XB_UART.c ****         (void) CyIntSetVector(UART_XB_ISR_NUMBER, &UART_XB_SPI_UART_ISR);
  85              		.loc 1 272 0
  86 004e 234B     		ldr	r3, .L2+48
  87 0050 1900     		movs	r1, r3
  88 0052 0920     		movs	r0, #9
  89 0054 FFF7FEFF 		bl	CyIntSetVector
 273:Generated_Source\PSoC4/UART_XB_UART.c ****     #endif /* (UART_XB_SCB_IRQ_INTERNAL) */
 274:Generated_Source\PSoC4/UART_XB_UART.c **** 
 275:Generated_Source\PSoC4/UART_XB_UART.c ****         /* Configure WAKE interrupt */
 276:Generated_Source\PSoC4/UART_XB_UART.c ****     #if(UART_XB_UART_RX_WAKEUP_IRQ)
 277:Generated_Source\PSoC4/UART_XB_UART.c ****         CyIntDisable    (UART_XB_RX_WAKE_ISR_NUMBER);
 278:Generated_Source\PSoC4/UART_XB_UART.c ****         CyIntSetPriority(UART_XB_RX_WAKE_ISR_NUMBER, UART_XB_RX_WAKE_ISR_PRIORITY);
 279:Generated_Source\PSoC4/UART_XB_UART.c ****         (void) CyIntSetVector(UART_XB_RX_WAKE_ISR_NUMBER, &UART_XB_UART_WAKEUP_ISR);
 280:Generated_Source\PSoC4/UART_XB_UART.c ****     #endif /* (UART_XB_UART_RX_WAKEUP_IRQ) */
 281:Generated_Source\PSoC4/UART_XB_UART.c **** 
 282:Generated_Source\PSoC4/UART_XB_UART.c ****         /* Configure interrupt sources */
 283:Generated_Source\PSoC4/UART_XB_UART.c ****         UART_XB_INTR_I2C_EC_MASK_REG = UART_XB_UART_DEFAULT_INTR_I2C_EC_MASK;
  90              		.loc 1 283 0
  91 0058 214B     		ldr	r3, .L2+52
  92 005a 0022     		movs	r2, #0
  93 005c 1A60     		str	r2, [r3]
 284:Generated_Source\PSoC4/UART_XB_UART.c ****         UART_XB_INTR_SPI_EC_MASK_REG = UART_XB_UART_DEFAULT_INTR_SPI_EC_MASK;
  94              		.loc 1 284 0
  95 005e 214B     		ldr	r3, .L2+56
  96 0060 0022     		movs	r2, #0
  97 0062 1A60     		str	r2, [r3]
 285:Generated_Source\PSoC4/UART_XB_UART.c ****         UART_XB_INTR_SLAVE_MASK_REG  = UART_XB_UART_DEFAULT_INTR_SLAVE_MASK;
  98              		.loc 1 285 0
  99 0064 204B     		ldr	r3, .L2+60
 100 0066 0022     		movs	r2, #0
 101 0068 1A60     		str	r2, [r3]
 286:Generated_Source\PSoC4/UART_XB_UART.c ****         UART_XB_INTR_MASTER_MASK_REG = UART_XB_UART_DEFAULT_INTR_MASTER_MASK;
 102              		.loc 1 286 0
 103 006a 204B     		ldr	r3, .L2+64
 104 006c 0022     		movs	r2, #0
 105 006e 1A60     		str	r2, [r3]
 287:Generated_Source\PSoC4/UART_XB_UART.c ****         UART_XB_INTR_RX_MASK_REG     = UART_XB_UART_DEFAULT_INTR_RX_MASK;
 106              		.loc 1 287 0
 107 0070 1F4B     		ldr	r3, .L2+68
 108 0072 0422     		movs	r2, #4
 109 0074 1A60     		str	r2, [r3]
 288:Generated_Source\PSoC4/UART_XB_UART.c ****         UART_XB_INTR_TX_MASK_REG     = UART_XB_UART_DEFAULT_INTR_TX_MASK;
 110              		.loc 1 288 0
 111 0076 1F4B     		ldr	r3, .L2+72
ARM GAS  C:\Users\Petro\AppData\Local\Temp\ccy3L2Gg.s 			page 8


 112 0078 0022     		movs	r2, #0
 113 007a 1A60     		str	r2, [r3]
 289:Generated_Source\PSoC4/UART_XB_UART.c ****     
 290:Generated_Source\PSoC4/UART_XB_UART.c ****         /* Configure TX interrupt sources to restore. */
 291:Generated_Source\PSoC4/UART_XB_UART.c ****         UART_XB_IntrTxMask = LO16(UART_XB_INTR_TX_MASK_REG);
 114              		.loc 1 291 0
 115 007c 1D4B     		ldr	r3, .L2+72
 116 007e 1B68     		ldr	r3, [r3]
 117 0080 9AB2     		uxth	r2, r3
 118 0082 1D4B     		ldr	r3, .L2+76
 119 0084 1A80     		strh	r2, [r3]
 292:Generated_Source\PSoC4/UART_XB_UART.c **** 
 293:Generated_Source\PSoC4/UART_XB_UART.c ****     #if(UART_XB_INTERNAL_RX_SW_BUFFER_CONST)
 294:Generated_Source\PSoC4/UART_XB_UART.c ****         UART_XB_rxBufferHead     = 0u;
 120              		.loc 1 294 0
 121 0086 1D4B     		ldr	r3, .L2+80
 122 0088 0022     		movs	r2, #0
 123 008a 1A60     		str	r2, [r3]
 295:Generated_Source\PSoC4/UART_XB_UART.c ****         UART_XB_rxBufferTail     = 0u;
 124              		.loc 1 295 0
 125 008c 1C4B     		ldr	r3, .L2+84
 126 008e 0022     		movs	r2, #0
 127 0090 1A60     		str	r2, [r3]
 296:Generated_Source\PSoC4/UART_XB_UART.c ****         UART_XB_rxBufferOverflow = 0u;
 128              		.loc 1 296 0
 129 0092 1C4B     		ldr	r3, .L2+88
 130 0094 0022     		movs	r2, #0
 131 0096 1A70     		strb	r2, [r3]
 297:Generated_Source\PSoC4/UART_XB_UART.c ****     #endif /* (UART_XB_INTERNAL_RX_SW_BUFFER_CONST) */
 298:Generated_Source\PSoC4/UART_XB_UART.c **** 
 299:Generated_Source\PSoC4/UART_XB_UART.c ****     #if(UART_XB_INTERNAL_TX_SW_BUFFER_CONST)
 300:Generated_Source\PSoC4/UART_XB_UART.c ****         UART_XB_txBufferHead = 0u;
 132              		.loc 1 300 0
 133 0098 1B4B     		ldr	r3, .L2+92
 134 009a 0022     		movs	r2, #0
 135 009c 1A60     		str	r2, [r3]
 301:Generated_Source\PSoC4/UART_XB_UART.c ****         UART_XB_txBufferTail = 0u;
 136              		.loc 1 301 0
 137 009e 1B4B     		ldr	r3, .L2+96
 138 00a0 0022     		movs	r2, #0
 139 00a2 1A60     		str	r2, [r3]
 302:Generated_Source\PSoC4/UART_XB_UART.c ****     #endif /* (UART_XB_INTERNAL_TX_SW_BUFFER_CONST) */
 303:Generated_Source\PSoC4/UART_XB_UART.c ****     }
 140              		.loc 1 303 0
 141 00a4 C046     		nop
 142 00a6 BD46     		mov	sp, r7
 143              		@ sp needed
 144 00a8 80BD     		pop	{r7, pc}
 145              	.L3:
 146 00aa C046     		.align	2
 147              	.L2:
 148 00ac 00002440 		.word	1076101120
 149 00b0 0B080002 		.word	33556491
 150 00b4 40002440 		.word	1076101184
 151 00b8 48002440 		.word	1076101192
 152 00bc 00032440 		.word	1076101888
 153 00c0 07000080 		.word	-2147483641
ARM GAS  C:\Users\Petro\AppData\Local\Temp\ccy3L2Gg.s 			page 9


 154 00c4 04032440 		.word	1076101892
 155 00c8 10032440 		.word	1076101904
 156 00cc 44002440 		.word	1076101188
 157 00d0 00022440 		.word	1076101632
 158 00d4 04022440 		.word	1076101636
 159 00d8 50002440 		.word	1076101200
 160 00dc 00000000 		.word	UART_XB_SPI_UART_ISR
 161 00e0 880E2440 		.word	1076104840
 162 00e4 C80E2440 		.word	1076104904
 163 00e8 480F2440 		.word	1076105032
 164 00ec 080F2440 		.word	1076104968
 165 00f0 C80F2440 		.word	1076105160
 166 00f4 880F2440 		.word	1076105096
 167 00f8 00000000 		.word	UART_XB_IntrTxMask
 168 00fc 00000000 		.word	UART_XB_rxBufferHead
 169 0100 00000000 		.word	UART_XB_rxBufferTail
 170 0104 00000000 		.word	UART_XB_rxBufferOverflow
 171 0108 00000000 		.word	UART_XB_txBufferHead
 172 010c 00000000 		.word	UART_XB_txBufferTail
 173              		.cfi_endproc
 174              	.LFE2:
 175              		.size	UART_XB_UartInit, .-UART_XB_UartInit
 176              		.section	.text.UART_XB_UartPostEnable,"ax",%progbits
 177              		.align	2
 178              		.global	UART_XB_UartPostEnable
 179              		.code	16
 180              		.thumb_func
 181              		.type	UART_XB_UartPostEnable, %function
 182              	UART_XB_UartPostEnable:
 183              	.LFB3:
 304:Generated_Source\PSoC4/UART_XB_UART.c **** #endif /* (UART_XB_SCB_MODE_UNCONFIG_CONST_CFG) */
 305:Generated_Source\PSoC4/UART_XB_UART.c **** 
 306:Generated_Source\PSoC4/UART_XB_UART.c **** 
 307:Generated_Source\PSoC4/UART_XB_UART.c **** /*******************************************************************************
 308:Generated_Source\PSoC4/UART_XB_UART.c **** * Function Name: UART_XB_UartPostEnable
 309:Generated_Source\PSoC4/UART_XB_UART.c **** ****************************************************************************//**
 310:Generated_Source\PSoC4/UART_XB_UART.c **** *
 311:Generated_Source\PSoC4/UART_XB_UART.c **** *  Restores HSIOM settings for the UART output pins (TX and/or RTS) to be
 312:Generated_Source\PSoC4/UART_XB_UART.c **** *  controlled by the SCB UART.
 313:Generated_Source\PSoC4/UART_XB_UART.c **** *
 314:Generated_Source\PSoC4/UART_XB_UART.c **** *******************************************************************************/
 315:Generated_Source\PSoC4/UART_XB_UART.c **** void UART_XB_UartPostEnable(void)
 316:Generated_Source\PSoC4/UART_XB_UART.c **** {
 184              		.loc 1 316 0
 185              		.cfi_startproc
 186              		@ args = 0, pretend = 0, frame = 0
 187              		@ frame_needed = 1, uses_anonymous_args = 0
 188 0000 80B5     		push	{r7, lr}
 189              		.cfi_def_cfa_offset 8
 190              		.cfi_offset 7, -8
 191              		.cfi_offset 14, -4
 192 0002 00AF     		add	r7, sp, #0
 193              		.cfi_def_cfa_register 7
 317:Generated_Source\PSoC4/UART_XB_UART.c **** #if (UART_XB_SCB_MODE_UNCONFIG_CONST_CFG)
 318:Generated_Source\PSoC4/UART_XB_UART.c ****     #if (UART_XB_TX_SCL_MISO_PIN)
 319:Generated_Source\PSoC4/UART_XB_UART.c ****         if (UART_XB_CHECK_TX_SCL_MISO_PIN_USED)
 320:Generated_Source\PSoC4/UART_XB_UART.c ****         {
ARM GAS  C:\Users\Petro\AppData\Local\Temp\ccy3L2Gg.s 			page 10


 321:Generated_Source\PSoC4/UART_XB_UART.c ****             /* Set SCB UART to drive the output pin */
 322:Generated_Source\PSoC4/UART_XB_UART.c ****             UART_XB_SET_HSIOM_SEL(UART_XB_TX_SCL_MISO_HSIOM_REG, UART_XB_TX_SCL_MISO_HSIOM_MASK,
 323:Generated_Source\PSoC4/UART_XB_UART.c ****                                            UART_XB_TX_SCL_MISO_HSIOM_POS, UART_XB_TX_SCL_MISO_HSIOM
 324:Generated_Source\PSoC4/UART_XB_UART.c ****         }
 325:Generated_Source\PSoC4/UART_XB_UART.c ****     #endif /* (UART_XB_TX_SCL_MISO_PIN_PIN) */
 326:Generated_Source\PSoC4/UART_XB_UART.c **** 
 327:Generated_Source\PSoC4/UART_XB_UART.c ****     #if !(UART_XB_CY_SCBIP_V0 || UART_XB_CY_SCBIP_V1)
 328:Generated_Source\PSoC4/UART_XB_UART.c ****         #if (UART_XB_RTS_SS0_PIN)
 329:Generated_Source\PSoC4/UART_XB_UART.c ****             if (UART_XB_CHECK_RTS_SS0_PIN_USED)
 330:Generated_Source\PSoC4/UART_XB_UART.c ****             {
 331:Generated_Source\PSoC4/UART_XB_UART.c ****                 /* Set SCB UART to drive the output pin */
 332:Generated_Source\PSoC4/UART_XB_UART.c ****                 UART_XB_SET_HSIOM_SEL(UART_XB_RTS_SS0_HSIOM_REG, UART_XB_RTS_SS0_HSIOM_MASK,
 333:Generated_Source\PSoC4/UART_XB_UART.c ****                                                UART_XB_RTS_SS0_HSIOM_POS, UART_XB_RTS_SS0_HSIOM_SEL
 334:Generated_Source\PSoC4/UART_XB_UART.c ****             }
 335:Generated_Source\PSoC4/UART_XB_UART.c ****         #endif /* (UART_XB_RTS_SS0_PIN) */
 336:Generated_Source\PSoC4/UART_XB_UART.c ****     #endif /* !(UART_XB_CY_SCBIP_V0 || UART_XB_CY_SCBIP_V1) */
 337:Generated_Source\PSoC4/UART_XB_UART.c **** 
 338:Generated_Source\PSoC4/UART_XB_UART.c **** #else
 339:Generated_Source\PSoC4/UART_XB_UART.c ****     #if (UART_XB_UART_TX_PIN)
 340:Generated_Source\PSoC4/UART_XB_UART.c ****          /* Set SCB UART to drive the output pin */
 341:Generated_Source\PSoC4/UART_XB_UART.c ****         UART_XB_SET_HSIOM_SEL(UART_XB_TX_HSIOM_REG, UART_XB_TX_HSIOM_MASK,
 194              		.loc 1 341 0
 195 0004 074B     		ldr	r3, .L5
 196 0006 074A     		ldr	r2, .L5
 197 0008 1268     		ldr	r2, [r2]
 198 000a 0749     		ldr	r1, .L5+4
 199 000c 0A40     		ands	r2, r1
 200 000e 9021     		movs	r1, #144
 201 0010 0904     		lsls	r1, r1, #16
 202 0012 0A43     		orrs	r2, r1
 203 0014 1A60     		str	r2, [r3]
 342:Generated_Source\PSoC4/UART_XB_UART.c ****                                        UART_XB_TX_HSIOM_POS, UART_XB_TX_HSIOM_SEL_UART);
 343:Generated_Source\PSoC4/UART_XB_UART.c ****     #endif /* (UART_XB_UART_TX_PIN) */
 344:Generated_Source\PSoC4/UART_XB_UART.c **** 
 345:Generated_Source\PSoC4/UART_XB_UART.c ****     #if (UART_XB_UART_RTS_PIN)
 346:Generated_Source\PSoC4/UART_XB_UART.c ****         /* Set SCB UART to drive the output pin */
 347:Generated_Source\PSoC4/UART_XB_UART.c ****         UART_XB_SET_HSIOM_SEL(UART_XB_RTS_HSIOM_REG, UART_XB_RTS_HSIOM_MASK,
 348:Generated_Source\PSoC4/UART_XB_UART.c ****                                        UART_XB_RTS_HSIOM_POS, UART_XB_RTS_HSIOM_SEL_UART);
 349:Generated_Source\PSoC4/UART_XB_UART.c ****     #endif /* (UART_XB_UART_RTS_PIN) */
 350:Generated_Source\PSoC4/UART_XB_UART.c **** #endif /* (UART_XB_SCB_MODE_UNCONFIG_CONST_CFG) */
 351:Generated_Source\PSoC4/UART_XB_UART.c **** 
 352:Generated_Source\PSoC4/UART_XB_UART.c ****     /* Restore TX interrupt sources. */
 353:Generated_Source\PSoC4/UART_XB_UART.c ****     UART_XB_SetTxInterruptMode(UART_XB_IntrTxMask);
 204              		.loc 1 353 0
 205 0016 054B     		ldr	r3, .L5+8
 206 0018 054A     		ldr	r2, .L5+12
 207 001a 1288     		ldrh	r2, [r2]
 208 001c 1A60     		str	r2, [r3]
 354:Generated_Source\PSoC4/UART_XB_UART.c **** }
 209              		.loc 1 354 0
 210 001e C046     		nop
 211 0020 BD46     		mov	sp, r7
 212              		@ sp needed
 213 0022 80BD     		pop	{r7, pc}
 214              	.L6:
 215              		.align	2
 216              	.L5:
ARM GAS  C:\Users\Petro\AppData\Local\Temp\ccy3L2Gg.s 			page 11


 217 0024 00000240 		.word	1073872896
 218 0028 FFFF0FFF 		.word	-15728641
 219 002c 880F2440 		.word	1076105096
 220 0030 00000000 		.word	UART_XB_IntrTxMask
 221              		.cfi_endproc
 222              	.LFE3:
 223              		.size	UART_XB_UartPostEnable, .-UART_XB_UartPostEnable
 224              		.section	.text.UART_XB_UartStop,"ax",%progbits
 225              		.align	2
 226              		.global	UART_XB_UartStop
 227              		.code	16
 228              		.thumb_func
 229              		.type	UART_XB_UartStop, %function
 230              	UART_XB_UartStop:
 231              	.LFB4:
 355:Generated_Source\PSoC4/UART_XB_UART.c **** 
 356:Generated_Source\PSoC4/UART_XB_UART.c **** 
 357:Generated_Source\PSoC4/UART_XB_UART.c **** /*******************************************************************************
 358:Generated_Source\PSoC4/UART_XB_UART.c **** * Function Name: UART_XB_UartStop
 359:Generated_Source\PSoC4/UART_XB_UART.c **** ****************************************************************************//**
 360:Generated_Source\PSoC4/UART_XB_UART.c **** *
 361:Generated_Source\PSoC4/UART_XB_UART.c **** *  Changes the HSIOM settings for the UART output pins (TX and/or RTS) to keep
 362:Generated_Source\PSoC4/UART_XB_UART.c **** *  them inactive after the block is disabled. The output pins are controlled by
 363:Generated_Source\PSoC4/UART_XB_UART.c **** *  the GPIO data register. Also, the function disables the skip start feature
 364:Generated_Source\PSoC4/UART_XB_UART.c **** *  to not cause it to trigger after the component is enabled.
 365:Generated_Source\PSoC4/UART_XB_UART.c **** *
 366:Generated_Source\PSoC4/UART_XB_UART.c **** *******************************************************************************/
 367:Generated_Source\PSoC4/UART_XB_UART.c **** void UART_XB_UartStop(void)
 368:Generated_Source\PSoC4/UART_XB_UART.c **** {
 232              		.loc 1 368 0
 233              		.cfi_startproc
 234              		@ args = 0, pretend = 0, frame = 0
 235              		@ frame_needed = 1, uses_anonymous_args = 0
 236 0000 80B5     		push	{r7, lr}
 237              		.cfi_def_cfa_offset 8
 238              		.cfi_offset 7, -8
 239              		.cfi_offset 14, -4
 240 0002 00AF     		add	r7, sp, #0
 241              		.cfi_def_cfa_register 7
 369:Generated_Source\PSoC4/UART_XB_UART.c **** #if(UART_XB_SCB_MODE_UNCONFIG_CONST_CFG)
 370:Generated_Source\PSoC4/UART_XB_UART.c ****     #if (UART_XB_TX_SCL_MISO_PIN)
 371:Generated_Source\PSoC4/UART_XB_UART.c ****         if (UART_XB_CHECK_TX_SCL_MISO_PIN_USED)
 372:Generated_Source\PSoC4/UART_XB_UART.c ****         {
 373:Generated_Source\PSoC4/UART_XB_UART.c ****             /* Set GPIO to drive output pin */
 374:Generated_Source\PSoC4/UART_XB_UART.c ****             UART_XB_SET_HSIOM_SEL(UART_XB_TX_SCL_MISO_HSIOM_REG, UART_XB_TX_SCL_MISO_HSIOM_MASK,
 375:Generated_Source\PSoC4/UART_XB_UART.c ****                                            UART_XB_TX_SCL_MISO_HSIOM_POS, UART_XB_TX_SCL_MISO_HSIOM
 376:Generated_Source\PSoC4/UART_XB_UART.c ****         }
 377:Generated_Source\PSoC4/UART_XB_UART.c ****     #endif /* (UART_XB_TX_SCL_MISO_PIN_PIN) */
 378:Generated_Source\PSoC4/UART_XB_UART.c **** 
 379:Generated_Source\PSoC4/UART_XB_UART.c ****     #if !(UART_XB_CY_SCBIP_V0 || UART_XB_CY_SCBIP_V1)
 380:Generated_Source\PSoC4/UART_XB_UART.c ****         #if (UART_XB_RTS_SS0_PIN)
 381:Generated_Source\PSoC4/UART_XB_UART.c ****             if (UART_XB_CHECK_RTS_SS0_PIN_USED)
 382:Generated_Source\PSoC4/UART_XB_UART.c ****             {
 383:Generated_Source\PSoC4/UART_XB_UART.c ****                 /* Set output pin state after block is disabled */
 384:Generated_Source\PSoC4/UART_XB_UART.c ****                 UART_XB_uart_rts_spi_ss0_Write(UART_XB_GET_UART_RTS_INACTIVE);
 385:Generated_Source\PSoC4/UART_XB_UART.c **** 
 386:Generated_Source\PSoC4/UART_XB_UART.c ****                 /* Set GPIO to drive output pin */
ARM GAS  C:\Users\Petro\AppData\Local\Temp\ccy3L2Gg.s 			page 12


 387:Generated_Source\PSoC4/UART_XB_UART.c ****                 UART_XB_SET_HSIOM_SEL(UART_XB_RTS_SS0_HSIOM_REG, UART_XB_RTS_SS0_HSIOM_MASK,
 388:Generated_Source\PSoC4/UART_XB_UART.c ****                                                UART_XB_RTS_SS0_HSIOM_POS, UART_XB_RTS_SS0_HSIOM_SEL
 389:Generated_Source\PSoC4/UART_XB_UART.c ****             }
 390:Generated_Source\PSoC4/UART_XB_UART.c ****         #endif /* (UART_XB_RTS_SS0_PIN) */
 391:Generated_Source\PSoC4/UART_XB_UART.c ****     #endif /* !(UART_XB_CY_SCBIP_V0 || UART_XB_CY_SCBIP_V1) */
 392:Generated_Source\PSoC4/UART_XB_UART.c **** 
 393:Generated_Source\PSoC4/UART_XB_UART.c **** #else
 394:Generated_Source\PSoC4/UART_XB_UART.c ****     #if (UART_XB_UART_TX_PIN)
 395:Generated_Source\PSoC4/UART_XB_UART.c ****         /* Set GPIO to drive output pin */
 396:Generated_Source\PSoC4/UART_XB_UART.c ****         UART_XB_SET_HSIOM_SEL(UART_XB_TX_HSIOM_REG, UART_XB_TX_HSIOM_MASK,
 242              		.loc 1 396 0
 243 0004 084B     		ldr	r3, .L8
 244 0006 084A     		ldr	r2, .L8
 245 0008 1268     		ldr	r2, [r2]
 246 000a 0849     		ldr	r1, .L8+4
 247 000c 0A40     		ands	r2, r1
 248 000e 1A60     		str	r2, [r3]
 397:Generated_Source\PSoC4/UART_XB_UART.c ****                                        UART_XB_TX_HSIOM_POS, UART_XB_TX_HSIOM_SEL_GPIO);
 398:Generated_Source\PSoC4/UART_XB_UART.c ****     #endif /* (UART_XB_UART_TX_PIN) */
 399:Generated_Source\PSoC4/UART_XB_UART.c **** 
 400:Generated_Source\PSoC4/UART_XB_UART.c ****     #if (UART_XB_UART_RTS_PIN)
 401:Generated_Source\PSoC4/UART_XB_UART.c ****         /* Set output pin state after block is disabled */
 402:Generated_Source\PSoC4/UART_XB_UART.c ****         UART_XB_rts_Write(UART_XB_GET_UART_RTS_INACTIVE);
 403:Generated_Source\PSoC4/UART_XB_UART.c **** 
 404:Generated_Source\PSoC4/UART_XB_UART.c ****         /* Set GPIO to drive output pin */
 405:Generated_Source\PSoC4/UART_XB_UART.c ****         UART_XB_SET_HSIOM_SEL(UART_XB_RTS_HSIOM_REG, UART_XB_RTS_HSIOM_MASK,
 406:Generated_Source\PSoC4/UART_XB_UART.c ****                                        UART_XB_RTS_HSIOM_POS, UART_XB_RTS_HSIOM_SEL_GPIO);
 407:Generated_Source\PSoC4/UART_XB_UART.c ****     #endif /* (UART_XB_UART_RTS_PIN) */
 408:Generated_Source\PSoC4/UART_XB_UART.c **** 
 409:Generated_Source\PSoC4/UART_XB_UART.c **** #endif /* (UART_XB_SCB_MODE_UNCONFIG_CONST_CFG) */
 410:Generated_Source\PSoC4/UART_XB_UART.c **** 
 411:Generated_Source\PSoC4/UART_XB_UART.c **** #if (UART_XB_UART_WAKE_ENABLE_CONST)
 412:Generated_Source\PSoC4/UART_XB_UART.c ****     /* Disable skip start feature used for wakeup */
 413:Generated_Source\PSoC4/UART_XB_UART.c ****     UART_XB_UART_RX_CTRL_REG &= (uint32) ~UART_XB_UART_RX_CTRL_SKIP_START;
 414:Generated_Source\PSoC4/UART_XB_UART.c **** #endif /* (UART_XB_UART_WAKE_ENABLE_CONST) */
 415:Generated_Source\PSoC4/UART_XB_UART.c **** 
 416:Generated_Source\PSoC4/UART_XB_UART.c ****     /* Store TX interrupt sources (exclude level triggered). */
 417:Generated_Source\PSoC4/UART_XB_UART.c ****     UART_XB_IntrTxMask = LO16(UART_XB_GetTxInterruptMode() & UART_XB_INTR_UART_TX_RESTORE);
 249              		.loc 1 417 0
 250 0010 074B     		ldr	r3, .L8+8
 251 0012 1B68     		ldr	r3, [r3]
 252 0014 9AB2     		uxth	r2, r3
 253 0016 E423     		movs	r3, #228
 254 0018 DB00     		lsls	r3, r3, #3
 255 001a 1340     		ands	r3, r2
 256 001c 9AB2     		uxth	r2, r3
 257 001e 054B     		ldr	r3, .L8+12
 258 0020 1A80     		strh	r2, [r3]
 418:Generated_Source\PSoC4/UART_XB_UART.c **** }
 259              		.loc 1 418 0
 260 0022 C046     		nop
 261 0024 BD46     		mov	sp, r7
 262              		@ sp needed
 263 0026 80BD     		pop	{r7, pc}
 264              	.L9:
 265              		.align	2
 266              	.L8:
ARM GAS  C:\Users\Petro\AppData\Local\Temp\ccy3L2Gg.s 			page 13


 267 0028 00000240 		.word	1073872896
 268 002c FFFF0FFF 		.word	-15728641
 269 0030 880F2440 		.word	1076105096
 270 0034 00000000 		.word	UART_XB_IntrTxMask
 271              		.cfi_endproc
 272              	.LFE4:
 273              		.size	UART_XB_UartStop, .-UART_XB_UartStop
 274              		.section	.text.UART_XB_UartSetRxAddress,"ax",%progbits
 275              		.align	2
 276              		.global	UART_XB_UartSetRxAddress
 277              		.code	16
 278              		.thumb_func
 279              		.type	UART_XB_UartSetRxAddress, %function
 280              	UART_XB_UartSetRxAddress:
 281              	.LFB5:
 419:Generated_Source\PSoC4/UART_XB_UART.c **** 
 420:Generated_Source\PSoC4/UART_XB_UART.c **** 
 421:Generated_Source\PSoC4/UART_XB_UART.c **** /*******************************************************************************
 422:Generated_Source\PSoC4/UART_XB_UART.c **** * Function Name: UART_XB_UartSetRxAddress
 423:Generated_Source\PSoC4/UART_XB_UART.c **** ****************************************************************************//**
 424:Generated_Source\PSoC4/UART_XB_UART.c **** *
 425:Generated_Source\PSoC4/UART_XB_UART.c **** *  Sets the hardware detectable receiver address for the UART in the
 426:Generated_Source\PSoC4/UART_XB_UART.c **** *  Multiprocessor mode.
 427:Generated_Source\PSoC4/UART_XB_UART.c **** *
 428:Generated_Source\PSoC4/UART_XB_UART.c **** *  \param address: Address for hardware address detection.
 429:Generated_Source\PSoC4/UART_XB_UART.c **** *
 430:Generated_Source\PSoC4/UART_XB_UART.c **** *******************************************************************************/
 431:Generated_Source\PSoC4/UART_XB_UART.c **** void UART_XB_UartSetRxAddress(uint32 address)
 432:Generated_Source\PSoC4/UART_XB_UART.c **** {
 282              		.loc 1 432 0
 283              		.cfi_startproc
 284              		@ args = 0, pretend = 0, frame = 16
 285              		@ frame_needed = 1, uses_anonymous_args = 0
 286 0000 80B5     		push	{r7, lr}
 287              		.cfi_def_cfa_offset 8
 288              		.cfi_offset 7, -8
 289              		.cfi_offset 14, -4
 290 0002 84B0     		sub	sp, sp, #16
 291              		.cfi_def_cfa_offset 24
 292 0004 00AF     		add	r7, sp, #0
 293              		.cfi_def_cfa_register 7
 294 0006 7860     		str	r0, [r7, #4]
 433:Generated_Source\PSoC4/UART_XB_UART.c ****      uint32 matchReg;
 434:Generated_Source\PSoC4/UART_XB_UART.c **** 
 435:Generated_Source\PSoC4/UART_XB_UART.c ****     matchReg = UART_XB_RX_MATCH_REG;
 295              		.loc 1 435 0
 296 0008 094B     		ldr	r3, .L11
 297 000a 1B68     		ldr	r3, [r3]
 298 000c FB60     		str	r3, [r7, #12]
 436:Generated_Source\PSoC4/UART_XB_UART.c **** 
 437:Generated_Source\PSoC4/UART_XB_UART.c ****     matchReg &= ((uint32) ~UART_XB_RX_MATCH_ADDR_MASK); /* Clear address bits */
 299              		.loc 1 437 0
 300 000e FB68     		ldr	r3, [r7, #12]
 301 0010 FF22     		movs	r2, #255
 302 0012 9343     		bics	r3, r2
 303 0014 FB60     		str	r3, [r7, #12]
 438:Generated_Source\PSoC4/UART_XB_UART.c ****     matchReg |= ((uint32)  (address & UART_XB_RX_MATCH_ADDR_MASK)); /* Set address  */
ARM GAS  C:\Users\Petro\AppData\Local\Temp\ccy3L2Gg.s 			page 14


 304              		.loc 1 438 0
 305 0016 7B68     		ldr	r3, [r7, #4]
 306 0018 FF22     		movs	r2, #255
 307 001a 1340     		ands	r3, r2
 308 001c FA68     		ldr	r2, [r7, #12]
 309 001e 1343     		orrs	r3, r2
 310 0020 FB60     		str	r3, [r7, #12]
 439:Generated_Source\PSoC4/UART_XB_UART.c **** 
 440:Generated_Source\PSoC4/UART_XB_UART.c ****     UART_XB_RX_MATCH_REG = matchReg;
 311              		.loc 1 440 0
 312 0022 034B     		ldr	r3, .L11
 313 0024 FA68     		ldr	r2, [r7, #12]
 314 0026 1A60     		str	r2, [r3]
 441:Generated_Source\PSoC4/UART_XB_UART.c **** }
 315              		.loc 1 441 0
 316 0028 C046     		nop
 317 002a BD46     		mov	sp, r7
 318 002c 04B0     		add	sp, sp, #16
 319              		@ sp needed
 320 002e 80BD     		pop	{r7, pc}
 321              	.L12:
 322              		.align	2
 323              	.L11:
 324 0030 10032440 		.word	1076101904
 325              		.cfi_endproc
 326              	.LFE5:
 327              		.size	UART_XB_UartSetRxAddress, .-UART_XB_UartSetRxAddress
 328              		.section	.text.UART_XB_UartSetRxAddressMask,"ax",%progbits
 329              		.align	2
 330              		.global	UART_XB_UartSetRxAddressMask
 331              		.code	16
 332              		.thumb_func
 333              		.type	UART_XB_UartSetRxAddressMask, %function
 334              	UART_XB_UartSetRxAddressMask:
 335              	.LFB6:
 442:Generated_Source\PSoC4/UART_XB_UART.c **** 
 443:Generated_Source\PSoC4/UART_XB_UART.c **** 
 444:Generated_Source\PSoC4/UART_XB_UART.c **** /*******************************************************************************
 445:Generated_Source\PSoC4/UART_XB_UART.c **** * Function Name: UART_XB_UartSetRxAddressMask
 446:Generated_Source\PSoC4/UART_XB_UART.c **** ****************************************************************************//**
 447:Generated_Source\PSoC4/UART_XB_UART.c **** *
 448:Generated_Source\PSoC4/UART_XB_UART.c **** *  Sets the hardware address mask for the UART in the Multiprocessor mode.
 449:Generated_Source\PSoC4/UART_XB_UART.c **** *
 450:Generated_Source\PSoC4/UART_XB_UART.c **** *  \param addressMask: Address mask.
 451:Generated_Source\PSoC4/UART_XB_UART.c **** *   - Bit value 0 – excludes bit from address comparison.
 452:Generated_Source\PSoC4/UART_XB_UART.c **** *   - Bit value 1 – the bit needs to match with the corresponding bit
 453:Generated_Source\PSoC4/UART_XB_UART.c **** *     of the address.
 454:Generated_Source\PSoC4/UART_XB_UART.c **** *
 455:Generated_Source\PSoC4/UART_XB_UART.c **** *******************************************************************************/
 456:Generated_Source\PSoC4/UART_XB_UART.c **** void UART_XB_UartSetRxAddressMask(uint32 addressMask)
 457:Generated_Source\PSoC4/UART_XB_UART.c **** {
 336              		.loc 1 457 0
 337              		.cfi_startproc
 338              		@ args = 0, pretend = 0, frame = 16
 339              		@ frame_needed = 1, uses_anonymous_args = 0
 340 0000 80B5     		push	{r7, lr}
 341              		.cfi_def_cfa_offset 8
ARM GAS  C:\Users\Petro\AppData\Local\Temp\ccy3L2Gg.s 			page 15


 342              		.cfi_offset 7, -8
 343              		.cfi_offset 14, -4
 344 0002 84B0     		sub	sp, sp, #16
 345              		.cfi_def_cfa_offset 24
 346 0004 00AF     		add	r7, sp, #0
 347              		.cfi_def_cfa_register 7
 348 0006 7860     		str	r0, [r7, #4]
 458:Generated_Source\PSoC4/UART_XB_UART.c ****     uint32 matchReg;
 459:Generated_Source\PSoC4/UART_XB_UART.c **** 
 460:Generated_Source\PSoC4/UART_XB_UART.c ****     matchReg = UART_XB_RX_MATCH_REG;
 349              		.loc 1 460 0
 350 0008 094B     		ldr	r3, .L14
 351 000a 1B68     		ldr	r3, [r3]
 352 000c FB60     		str	r3, [r7, #12]
 461:Generated_Source\PSoC4/UART_XB_UART.c **** 
 462:Generated_Source\PSoC4/UART_XB_UART.c ****     matchReg &= ((uint32) ~UART_XB_RX_MATCH_MASK_MASK); /* Clear address mask bits */
 353              		.loc 1 462 0
 354 000e FB68     		ldr	r3, [r7, #12]
 355 0010 084A     		ldr	r2, .L14+4
 356 0012 1340     		ands	r3, r2
 357 0014 FB60     		str	r3, [r7, #12]
 463:Generated_Source\PSoC4/UART_XB_UART.c ****     matchReg |= ((uint32) (addressMask << UART_XB_RX_MATCH_MASK_POS));
 358              		.loc 1 463 0
 359 0016 7B68     		ldr	r3, [r7, #4]
 360 0018 1B04     		lsls	r3, r3, #16
 361 001a FA68     		ldr	r2, [r7, #12]
 362 001c 1343     		orrs	r3, r2
 363 001e FB60     		str	r3, [r7, #12]
 464:Generated_Source\PSoC4/UART_XB_UART.c **** 
 465:Generated_Source\PSoC4/UART_XB_UART.c ****     UART_XB_RX_MATCH_REG = matchReg;
 364              		.loc 1 465 0
 365 0020 034B     		ldr	r3, .L14
 366 0022 FA68     		ldr	r2, [r7, #12]
 367 0024 1A60     		str	r2, [r3]
 466:Generated_Source\PSoC4/UART_XB_UART.c **** }
 368              		.loc 1 466 0
 369 0026 C046     		nop
 370 0028 BD46     		mov	sp, r7
 371 002a 04B0     		add	sp, sp, #16
 372              		@ sp needed
 373 002c 80BD     		pop	{r7, pc}
 374              	.L15:
 375 002e C046     		.align	2
 376              	.L14:
 377 0030 10032440 		.word	1076101904
 378 0034 FFFF00FF 		.word	-16711681
 379              		.cfi_endproc
 380              	.LFE6:
 381              		.size	UART_XB_UartSetRxAddressMask, .-UART_XB_UartSetRxAddressMask
 382              		.section	.text.UART_XB_UartGetChar,"ax",%progbits
 383              		.align	2
 384              		.global	UART_XB_UartGetChar
 385              		.code	16
 386              		.thumb_func
 387              		.type	UART_XB_UartGetChar, %function
 388              	UART_XB_UartGetChar:
 389              	.LFB7:
ARM GAS  C:\Users\Petro\AppData\Local\Temp\ccy3L2Gg.s 			page 16


 467:Generated_Source\PSoC4/UART_XB_UART.c **** 
 468:Generated_Source\PSoC4/UART_XB_UART.c **** 
 469:Generated_Source\PSoC4/UART_XB_UART.c **** #if(UART_XB_UART_RX_DIRECTION)
 470:Generated_Source\PSoC4/UART_XB_UART.c ****     /*******************************************************************************
 471:Generated_Source\PSoC4/UART_XB_UART.c ****     * Function Name: UART_XB_UartGetChar
 472:Generated_Source\PSoC4/UART_XB_UART.c ****     ****************************************************************************//**
 473:Generated_Source\PSoC4/UART_XB_UART.c ****     *
 474:Generated_Source\PSoC4/UART_XB_UART.c ****     *  Retrieves next data element from receive buffer.
 475:Generated_Source\PSoC4/UART_XB_UART.c ****     *  This function is designed for ASCII characters and returns a char where
 476:Generated_Source\PSoC4/UART_XB_UART.c ****     *  1 to 255 are valid characters and 0 indicates an error occurred or no data
 477:Generated_Source\PSoC4/UART_XB_UART.c ****     *  is present.
 478:Generated_Source\PSoC4/UART_XB_UART.c ****     *  - RX software buffer is disabled: Returns data element retrieved from RX
 479:Generated_Source\PSoC4/UART_XB_UART.c ****     *    FIFO.
 480:Generated_Source\PSoC4/UART_XB_UART.c ****     *  - RX software buffer is enabled: Returns data element from the software
 481:Generated_Source\PSoC4/UART_XB_UART.c ****     *    receive buffer.
 482:Generated_Source\PSoC4/UART_XB_UART.c ****     *
 483:Generated_Source\PSoC4/UART_XB_UART.c ****     *  \return
 484:Generated_Source\PSoC4/UART_XB_UART.c ****     *   Next data element from the receive buffer. ASCII character values from
 485:Generated_Source\PSoC4/UART_XB_UART.c ****     *   1 to 255 are valid. A returned zero signifies an error condition or no
 486:Generated_Source\PSoC4/UART_XB_UART.c ****     *   data available.
 487:Generated_Source\PSoC4/UART_XB_UART.c ****     *
 488:Generated_Source\PSoC4/UART_XB_UART.c ****     *  \sideeffect
 489:Generated_Source\PSoC4/UART_XB_UART.c ****     *   The errors bits may not correspond with reading characters due to
 490:Generated_Source\PSoC4/UART_XB_UART.c ****     *   RX FIFO and software buffer usage.
 491:Generated_Source\PSoC4/UART_XB_UART.c ****     *   RX software buffer is enabled: The internal software buffer overflow
 492:Generated_Source\PSoC4/UART_XB_UART.c ****     *   is not treated as an error condition.
 493:Generated_Source\PSoC4/UART_XB_UART.c ****     *   Check UART_XB_rxBufferOverflow to capture that error condition.
 494:Generated_Source\PSoC4/UART_XB_UART.c ****     *
 495:Generated_Source\PSoC4/UART_XB_UART.c ****     *******************************************************************************/
 496:Generated_Source\PSoC4/UART_XB_UART.c ****     uint32 UART_XB_UartGetChar(void)
 497:Generated_Source\PSoC4/UART_XB_UART.c ****     {
 390              		.loc 1 497 0
 391              		.cfi_startproc
 392              		@ args = 0, pretend = 0, frame = 8
 393              		@ frame_needed = 1, uses_anonymous_args = 0
 394 0000 80B5     		push	{r7, lr}
 395              		.cfi_def_cfa_offset 8
 396              		.cfi_offset 7, -8
 397              		.cfi_offset 14, -4
 398 0002 82B0     		sub	sp, sp, #8
 399              		.cfi_def_cfa_offset 16
 400 0004 00AF     		add	r7, sp, #0
 401              		.cfi_def_cfa_register 7
 498:Generated_Source\PSoC4/UART_XB_UART.c ****         uint32 rxData = 0u;
 402              		.loc 1 498 0
 403 0006 0023     		movs	r3, #0
 404 0008 7B60     		str	r3, [r7, #4]
 499:Generated_Source\PSoC4/UART_XB_UART.c **** 
 500:Generated_Source\PSoC4/UART_XB_UART.c ****         /* Reads data only if there is data to read */
 501:Generated_Source\PSoC4/UART_XB_UART.c ****         if (0u != UART_XB_SpiUartGetRxBufferSize())
 405              		.loc 1 501 0
 406 000a FFF7FEFF 		bl	UART_XB_SpiUartGetRxBufferSize
 407 000e 031E     		subs	r3, r0, #0
 408 0010 03D0     		beq	.L17
 502:Generated_Source\PSoC4/UART_XB_UART.c ****         {
 503:Generated_Source\PSoC4/UART_XB_UART.c ****             rxData = UART_XB_SpiUartReadRxData();
 409              		.loc 1 503 0
ARM GAS  C:\Users\Petro\AppData\Local\Temp\ccy3L2Gg.s 			page 17


 410 0012 FFF7FEFF 		bl	UART_XB_SpiUartReadRxData
 411 0016 0300     		movs	r3, r0
 412 0018 7B60     		str	r3, [r7, #4]
 413              	.L17:
 504:Generated_Source\PSoC4/UART_XB_UART.c ****         }
 505:Generated_Source\PSoC4/UART_XB_UART.c **** 
 506:Generated_Source\PSoC4/UART_XB_UART.c ****         if (UART_XB_CHECK_INTR_RX(UART_XB_INTR_RX_ERR))
 414              		.loc 1 506 0
 415 001a 084B     		ldr	r3, .L20
 416 001c 1A68     		ldr	r2, [r3]
 417 001e D823     		movs	r3, #216
 418 0020 9B00     		lsls	r3, r3, #2
 419 0022 1340     		ands	r3, r2
 420 0024 05D0     		beq	.L18
 507:Generated_Source\PSoC4/UART_XB_UART.c ****         {
 508:Generated_Source\PSoC4/UART_XB_UART.c ****             rxData = 0u; /* Error occurred: returns zero */
 421              		.loc 1 508 0
 422 0026 0023     		movs	r3, #0
 423 0028 7B60     		str	r3, [r7, #4]
 509:Generated_Source\PSoC4/UART_XB_UART.c ****             UART_XB_ClearRxInterruptSource(UART_XB_INTR_RX_ERR);
 424              		.loc 1 509 0
 425 002a 044B     		ldr	r3, .L20
 426 002c D822     		movs	r2, #216
 427 002e 9200     		lsls	r2, r2, #2
 428 0030 1A60     		str	r2, [r3]
 429              	.L18:
 510:Generated_Source\PSoC4/UART_XB_UART.c ****         }
 511:Generated_Source\PSoC4/UART_XB_UART.c **** 
 512:Generated_Source\PSoC4/UART_XB_UART.c ****         return (rxData);
 430              		.loc 1 512 0
 431 0032 7B68     		ldr	r3, [r7, #4]
 513:Generated_Source\PSoC4/UART_XB_UART.c ****     }
 432              		.loc 1 513 0
 433 0034 1800     		movs	r0, r3
 434 0036 BD46     		mov	sp, r7
 435 0038 02B0     		add	sp, sp, #8
 436              		@ sp needed
 437 003a 80BD     		pop	{r7, pc}
 438              	.L21:
 439              		.align	2
 440              	.L20:
 441 003c C00F2440 		.word	1076105152
 442              		.cfi_endproc
 443              	.LFE7:
 444              		.size	UART_XB_UartGetChar, .-UART_XB_UartGetChar
 445              		.section	.text.UART_XB_UartGetByte,"ax",%progbits
 446              		.align	2
 447              		.global	UART_XB_UartGetByte
 448              		.code	16
 449              		.thumb_func
 450              		.type	UART_XB_UartGetByte, %function
 451              	UART_XB_UartGetByte:
 452              	.LFB8:
 514:Generated_Source\PSoC4/UART_XB_UART.c **** 
 515:Generated_Source\PSoC4/UART_XB_UART.c **** 
 516:Generated_Source\PSoC4/UART_XB_UART.c ****     /*******************************************************************************
 517:Generated_Source\PSoC4/UART_XB_UART.c ****     * Function Name: UART_XB_UartGetByte
ARM GAS  C:\Users\Petro\AppData\Local\Temp\ccy3L2Gg.s 			page 18


 518:Generated_Source\PSoC4/UART_XB_UART.c ****     ****************************************************************************//**
 519:Generated_Source\PSoC4/UART_XB_UART.c ****     *
 520:Generated_Source\PSoC4/UART_XB_UART.c ****     *  Retrieves the next data element from the receive buffer, returns the
 521:Generated_Source\PSoC4/UART_XB_UART.c ****     *  received byte and error condition.
 522:Generated_Source\PSoC4/UART_XB_UART.c ****     *   - The RX software buffer is disabled: returns the data element retrieved
 523:Generated_Source\PSoC4/UART_XB_UART.c ****     *     from the RX FIFO. Undefined data will be returned if the RX FIFO is
 524:Generated_Source\PSoC4/UART_XB_UART.c ****     *     empty.
 525:Generated_Source\PSoC4/UART_XB_UART.c ****     *   - The RX software buffer is enabled: returns data element from the
 526:Generated_Source\PSoC4/UART_XB_UART.c ****     *     software receive buffer.
 527:Generated_Source\PSoC4/UART_XB_UART.c ****     *
 528:Generated_Source\PSoC4/UART_XB_UART.c ****     *  \return
 529:Generated_Source\PSoC4/UART_XB_UART.c ****     *   Bits 7-0 contain the next data element from the receive buffer and
 530:Generated_Source\PSoC4/UART_XB_UART.c ****     *   other bits contain the error condition.
 531:Generated_Source\PSoC4/UART_XB_UART.c ****     *   - UART_XB_UART_RX_OVERFLOW - Attempt to write to a full
 532:Generated_Source\PSoC4/UART_XB_UART.c ****     *     receiver FIFO.
 533:Generated_Source\PSoC4/UART_XB_UART.c ****     *   - UART_XB_UART_RX_UNDERFLOW	Attempt to read from an empty
 534:Generated_Source\PSoC4/UART_XB_UART.c ****     *     receiver FIFO.
 535:Generated_Source\PSoC4/UART_XB_UART.c ****     *   - UART_XB_UART_RX_FRAME_ERROR - UART framing error detected.
 536:Generated_Source\PSoC4/UART_XB_UART.c ****     *   - UART_XB_UART_RX_PARITY_ERROR - UART parity error detected.
 537:Generated_Source\PSoC4/UART_XB_UART.c ****     *
 538:Generated_Source\PSoC4/UART_XB_UART.c ****     *  \sideeffect
 539:Generated_Source\PSoC4/UART_XB_UART.c ****     *   The errors bits may not correspond with reading characters due to
 540:Generated_Source\PSoC4/UART_XB_UART.c ****     *   RX FIFO and software buffer usage.
 541:Generated_Source\PSoC4/UART_XB_UART.c ****     *   RX software buffer is enabled: The internal software buffer overflow
 542:Generated_Source\PSoC4/UART_XB_UART.c ****     *   is not treated as an error condition.
 543:Generated_Source\PSoC4/UART_XB_UART.c ****     *   Check UART_XB_rxBufferOverflow to capture that error condition.
 544:Generated_Source\PSoC4/UART_XB_UART.c ****     *
 545:Generated_Source\PSoC4/UART_XB_UART.c ****     *******************************************************************************/
 546:Generated_Source\PSoC4/UART_XB_UART.c ****     uint32 UART_XB_UartGetByte(void)
 547:Generated_Source\PSoC4/UART_XB_UART.c ****     {
 453              		.loc 1 547 0
 454              		.cfi_startproc
 455              		@ args = 0, pretend = 0, frame = 8
 456              		@ frame_needed = 1, uses_anonymous_args = 0
 457 0000 80B5     		push	{r7, lr}
 458              		.cfi_def_cfa_offset 8
 459              		.cfi_offset 7, -8
 460              		.cfi_offset 14, -4
 461 0002 82B0     		sub	sp, sp, #8
 462              		.cfi_def_cfa_offset 16
 463 0004 00AF     		add	r7, sp, #0
 464              		.cfi_def_cfa_register 7
 548:Generated_Source\PSoC4/UART_XB_UART.c ****         uint32 rxData;
 549:Generated_Source\PSoC4/UART_XB_UART.c ****         uint32 tmpStatus;
 550:Generated_Source\PSoC4/UART_XB_UART.c **** 
 551:Generated_Source\PSoC4/UART_XB_UART.c ****         #if (UART_XB_CHECK_RX_SW_BUFFER)
 552:Generated_Source\PSoC4/UART_XB_UART.c ****         {
 553:Generated_Source\PSoC4/UART_XB_UART.c ****             UART_XB_DisableInt();
 465              		.loc 1 553 0
 466 0006 0920     		movs	r0, #9
 467 0008 FFF7FEFF 		bl	CyIntDisable
 554:Generated_Source\PSoC4/UART_XB_UART.c ****         }
 555:Generated_Source\PSoC4/UART_XB_UART.c ****         #endif
 556:Generated_Source\PSoC4/UART_XB_UART.c **** 
 557:Generated_Source\PSoC4/UART_XB_UART.c ****         if (0u != UART_XB_SpiUartGetRxBufferSize())
 468              		.loc 1 557 0
 469 000c FFF7FEFF 		bl	UART_XB_SpiUartGetRxBufferSize
ARM GAS  C:\Users\Petro\AppData\Local\Temp\ccy3L2Gg.s 			page 19


 470 0010 031E     		subs	r3, r0, #0
 471 0012 07D0     		beq	.L23
 558:Generated_Source\PSoC4/UART_XB_UART.c ****         {
 559:Generated_Source\PSoC4/UART_XB_UART.c ****             /* Enables interrupt to receive more bytes: at least one byte is in
 560:Generated_Source\PSoC4/UART_XB_UART.c ****             * buffer.
 561:Generated_Source\PSoC4/UART_XB_UART.c ****             */
 562:Generated_Source\PSoC4/UART_XB_UART.c ****             #if (UART_XB_CHECK_RX_SW_BUFFER)
 563:Generated_Source\PSoC4/UART_XB_UART.c ****             {
 564:Generated_Source\PSoC4/UART_XB_UART.c ****                 UART_XB_EnableInt();
 472              		.loc 1 564 0
 473 0014 0920     		movs	r0, #9
 474 0016 FFF7FEFF 		bl	CyIntEnable
 565:Generated_Source\PSoC4/UART_XB_UART.c ****             }
 566:Generated_Source\PSoC4/UART_XB_UART.c ****             #endif
 567:Generated_Source\PSoC4/UART_XB_UART.c **** 
 568:Generated_Source\PSoC4/UART_XB_UART.c ****             /* Get received byte */
 569:Generated_Source\PSoC4/UART_XB_UART.c ****             rxData = UART_XB_SpiUartReadRxData();
 475              		.loc 1 569 0
 476 001a FFF7FEFF 		bl	UART_XB_SpiUartReadRxData
 477 001e 0300     		movs	r3, r0
 478 0020 7B60     		str	r3, [r7, #4]
 479 0022 08E0     		b	.L24
 480              	.L23:
 570:Generated_Source\PSoC4/UART_XB_UART.c ****         }
 571:Generated_Source\PSoC4/UART_XB_UART.c ****         else
 572:Generated_Source\PSoC4/UART_XB_UART.c ****         {
 573:Generated_Source\PSoC4/UART_XB_UART.c ****             /* Reads a byte directly from RX FIFO: underflow is raised in the
 574:Generated_Source\PSoC4/UART_XB_UART.c ****             * case of empty. Otherwise the first received byte will be read.
 575:Generated_Source\PSoC4/UART_XB_UART.c ****             */
 576:Generated_Source\PSoC4/UART_XB_UART.c ****             rxData = UART_XB_RX_FIFO_RD_REG;
 481              		.loc 1 576 0
 482 0024 0E4B     		ldr	r3, .L26
 483 0026 1B68     		ldr	r3, [r3]
 484 0028 7B60     		str	r3, [r7, #4]
 577:Generated_Source\PSoC4/UART_XB_UART.c **** 
 578:Generated_Source\PSoC4/UART_XB_UART.c **** 
 579:Generated_Source\PSoC4/UART_XB_UART.c ****             /* Enables interrupt to receive more bytes. */
 580:Generated_Source\PSoC4/UART_XB_UART.c ****             #if (UART_XB_CHECK_RX_SW_BUFFER)
 581:Generated_Source\PSoC4/UART_XB_UART.c ****             {
 582:Generated_Source\PSoC4/UART_XB_UART.c **** 
 583:Generated_Source\PSoC4/UART_XB_UART.c ****                 /* The byte has been read from RX FIFO. Clear RX interrupt to
 584:Generated_Source\PSoC4/UART_XB_UART.c ****                 * not involve interrupt handler when RX FIFO is empty.
 585:Generated_Source\PSoC4/UART_XB_UART.c ****                 */
 586:Generated_Source\PSoC4/UART_XB_UART.c ****                 UART_XB_ClearRxInterruptSource(UART_XB_INTR_RX_NOT_EMPTY);
 485              		.loc 1 586 0
 486 002a 0E4B     		ldr	r3, .L26+4
 487 002c 0422     		movs	r2, #4
 488 002e 1A60     		str	r2, [r3]
 587:Generated_Source\PSoC4/UART_XB_UART.c **** 
 588:Generated_Source\PSoC4/UART_XB_UART.c ****                 UART_XB_EnableInt();
 489              		.loc 1 588 0
 490 0030 0920     		movs	r0, #9
 491 0032 FFF7FEFF 		bl	CyIntEnable
 492              	.L24:
 589:Generated_Source\PSoC4/UART_XB_UART.c ****             }
 590:Generated_Source\PSoC4/UART_XB_UART.c ****             #endif
 591:Generated_Source\PSoC4/UART_XB_UART.c ****         }
ARM GAS  C:\Users\Petro\AppData\Local\Temp\ccy3L2Gg.s 			page 20


 592:Generated_Source\PSoC4/UART_XB_UART.c **** 
 593:Generated_Source\PSoC4/UART_XB_UART.c ****         /* Get and clear RX error mask */
 594:Generated_Source\PSoC4/UART_XB_UART.c ****         tmpStatus = (UART_XB_GetRxInterruptSource() & UART_XB_INTR_RX_ERR);
 493              		.loc 1 594 0
 494 0036 0B4B     		ldr	r3, .L26+4
 495 0038 1A68     		ldr	r2, [r3]
 496 003a D823     		movs	r3, #216
 497 003c 9B00     		lsls	r3, r3, #2
 498 003e 1340     		ands	r3, r2
 499 0040 3B60     		str	r3, [r7]
 595:Generated_Source\PSoC4/UART_XB_UART.c ****         UART_XB_ClearRxInterruptSource(UART_XB_INTR_RX_ERR);
 500              		.loc 1 595 0
 501 0042 084B     		ldr	r3, .L26+4
 502 0044 D822     		movs	r2, #216
 503 0046 9200     		lsls	r2, r2, #2
 504 0048 1A60     		str	r2, [r3]
 596:Generated_Source\PSoC4/UART_XB_UART.c **** 
 597:Generated_Source\PSoC4/UART_XB_UART.c ****         /* Puts together data and error status:
 598:Generated_Source\PSoC4/UART_XB_UART.c ****         * MP mode and accept address: 9th bit is set to notify mark.
 599:Generated_Source\PSoC4/UART_XB_UART.c ****         */
 600:Generated_Source\PSoC4/UART_XB_UART.c ****         rxData |= ((uint32) (tmpStatus << 8u));
 505              		.loc 1 600 0
 506 004a 3B68     		ldr	r3, [r7]
 507 004c 1B02     		lsls	r3, r3, #8
 508 004e 7A68     		ldr	r2, [r7, #4]
 509 0050 1343     		orrs	r3, r2
 510 0052 7B60     		str	r3, [r7, #4]
 601:Generated_Source\PSoC4/UART_XB_UART.c **** 
 602:Generated_Source\PSoC4/UART_XB_UART.c ****         return (rxData);
 511              		.loc 1 602 0
 512 0054 7B68     		ldr	r3, [r7, #4]
 603:Generated_Source\PSoC4/UART_XB_UART.c ****     }
 513              		.loc 1 603 0
 514 0056 1800     		movs	r0, r3
 515 0058 BD46     		mov	sp, r7
 516 005a 02B0     		add	sp, sp, #8
 517              		@ sp needed
 518 005c 80BD     		pop	{r7, pc}
 519              	.L27:
 520 005e C046     		.align	2
 521              	.L26:
 522 0060 40032440 		.word	1076101952
 523 0064 C00F2440 		.word	1076105152
 524              		.cfi_endproc
 525              	.LFE8:
 526              		.size	UART_XB_UartGetByte, .-UART_XB_UartGetByte
 527              		.section	.text.UART_XB_UartSetRtsPolarity,"ax",%progbits
 528              		.align	2
 529              		.global	UART_XB_UartSetRtsPolarity
 530              		.code	16
 531              		.thumb_func
 532              		.type	UART_XB_UartSetRtsPolarity, %function
 533              	UART_XB_UartSetRtsPolarity:
 534              	.LFB9:
 604:Generated_Source\PSoC4/UART_XB_UART.c **** 
 605:Generated_Source\PSoC4/UART_XB_UART.c **** 
 606:Generated_Source\PSoC4/UART_XB_UART.c ****     #if !(UART_XB_CY_SCBIP_V0 || UART_XB_CY_SCBIP_V1)
ARM GAS  C:\Users\Petro\AppData\Local\Temp\ccy3L2Gg.s 			page 21


 607:Generated_Source\PSoC4/UART_XB_UART.c ****         /*******************************************************************************
 608:Generated_Source\PSoC4/UART_XB_UART.c ****         * Function Name: UART_XB_UartSetRtsPolarity
 609:Generated_Source\PSoC4/UART_XB_UART.c ****         ****************************************************************************//**
 610:Generated_Source\PSoC4/UART_XB_UART.c ****         *
 611:Generated_Source\PSoC4/UART_XB_UART.c ****         *  Sets active polarity of RTS output signal.
 612:Generated_Source\PSoC4/UART_XB_UART.c ****         *  Only available for PSoC 4100 BLE / PSoC 4200 BLE / PSoC 4100M / PSoC 4200M /
 613:Generated_Source\PSoC4/UART_XB_UART.c ****         *  PSoC 4200L / PSoC 4000S / PSoC 4100S / PSoC Analog Coprocessor devices.
 614:Generated_Source\PSoC4/UART_XB_UART.c ****         *
 615:Generated_Source\PSoC4/UART_XB_UART.c ****         *  \param polarity: Active polarity of RTS output signal.
 616:Generated_Source\PSoC4/UART_XB_UART.c ****         *   - UART_XB_UART_RTS_ACTIVE_LOW  - RTS signal is active low.
 617:Generated_Source\PSoC4/UART_XB_UART.c ****         *   - UART_XB_UART_RTS_ACTIVE_HIGH - RTS signal is active high.
 618:Generated_Source\PSoC4/UART_XB_UART.c ****         *
 619:Generated_Source\PSoC4/UART_XB_UART.c ****         *******************************************************************************/
 620:Generated_Source\PSoC4/UART_XB_UART.c ****         void UART_XB_UartSetRtsPolarity(uint32 polarity)
 621:Generated_Source\PSoC4/UART_XB_UART.c ****         {
 535              		.loc 1 621 0
 536              		.cfi_startproc
 537              		@ args = 0, pretend = 0, frame = 8
 538              		@ frame_needed = 1, uses_anonymous_args = 0
 539 0000 80B5     		push	{r7, lr}
 540              		.cfi_def_cfa_offset 8
 541              		.cfi_offset 7, -8
 542              		.cfi_offset 14, -4
 543 0002 82B0     		sub	sp, sp, #8
 544              		.cfi_def_cfa_offset 16
 545 0004 00AF     		add	r7, sp, #0
 546              		.cfi_def_cfa_register 7
 547 0006 7860     		str	r0, [r7, #4]
 622:Generated_Source\PSoC4/UART_XB_UART.c ****             if(0u != polarity)
 548              		.loc 1 622 0
 549 0008 7B68     		ldr	r3, [r7, #4]
 550 000a 002B     		cmp	r3, #0
 551 000c 07D0     		beq	.L29
 623:Generated_Source\PSoC4/UART_XB_UART.c ****             {
 624:Generated_Source\PSoC4/UART_XB_UART.c ****                 UART_XB_UART_FLOW_CTRL_REG |= (uint32)  UART_XB_UART_FLOW_CTRL_RTS_POLARITY;
 552              		.loc 1 624 0
 553 000e 094B     		ldr	r3, .L32
 554 0010 084A     		ldr	r2, .L32
 555 0012 1268     		ldr	r2, [r2]
 556 0014 8021     		movs	r1, #128
 557 0016 4902     		lsls	r1, r1, #9
 558 0018 0A43     		orrs	r2, r1
 559 001a 1A60     		str	r2, [r3]
 625:Generated_Source\PSoC4/UART_XB_UART.c ****             }
 626:Generated_Source\PSoC4/UART_XB_UART.c ****             else
 627:Generated_Source\PSoC4/UART_XB_UART.c ****             {
 628:Generated_Source\PSoC4/UART_XB_UART.c ****                 UART_XB_UART_FLOW_CTRL_REG &= (uint32) ~UART_XB_UART_FLOW_CTRL_RTS_POLARITY;
 629:Generated_Source\PSoC4/UART_XB_UART.c ****             }
 630:Generated_Source\PSoC4/UART_XB_UART.c ****         }
 560              		.loc 1 630 0
 561 001c 05E0     		b	.L31
 562              	.L29:
 628:Generated_Source\PSoC4/UART_XB_UART.c ****             }
 563              		.loc 1 628 0
 564 001e 054B     		ldr	r3, .L32
 565 0020 044A     		ldr	r2, .L32
 566 0022 1268     		ldr	r2, [r2]
ARM GAS  C:\Users\Petro\AppData\Local\Temp\ccy3L2Gg.s 			page 22


 567 0024 0449     		ldr	r1, .L32+4
 568 0026 0A40     		ands	r2, r1
 569 0028 1A60     		str	r2, [r3]
 570              	.L31:
 571              		.loc 1 630 0
 572 002a C046     		nop
 573 002c BD46     		mov	sp, r7
 574 002e 02B0     		add	sp, sp, #8
 575              		@ sp needed
 576 0030 80BD     		pop	{r7, pc}
 577              	.L33:
 578 0032 C046     		.align	2
 579              	.L32:
 580 0034 50002440 		.word	1076101200
 581 0038 FFFFFEFF 		.word	-65537
 582              		.cfi_endproc
 583              	.LFE9:
 584              		.size	UART_XB_UartSetRtsPolarity, .-UART_XB_UartSetRtsPolarity
 585              		.section	.text.UART_XB_UartSetRtsFifoLevel,"ax",%progbits
 586              		.align	2
 587              		.global	UART_XB_UartSetRtsFifoLevel
 588              		.code	16
 589              		.thumb_func
 590              		.type	UART_XB_UartSetRtsFifoLevel, %function
 591              	UART_XB_UartSetRtsFifoLevel:
 592              	.LFB10:
 631:Generated_Source\PSoC4/UART_XB_UART.c **** 
 632:Generated_Source\PSoC4/UART_XB_UART.c **** 
 633:Generated_Source\PSoC4/UART_XB_UART.c ****         /*******************************************************************************
 634:Generated_Source\PSoC4/UART_XB_UART.c ****         * Function Name: UART_XB_UartSetRtsFifoLevel
 635:Generated_Source\PSoC4/UART_XB_UART.c ****         ****************************************************************************//**
 636:Generated_Source\PSoC4/UART_XB_UART.c ****         *
 637:Generated_Source\PSoC4/UART_XB_UART.c ****         *  Sets level in the RX FIFO for RTS signal activation.
 638:Generated_Source\PSoC4/UART_XB_UART.c ****         *  While the RX FIFO has fewer entries than the RX FIFO level the RTS signal
 639:Generated_Source\PSoC4/UART_XB_UART.c ****         *  remains active, otherwise the RTS signal becomes inactive.
 640:Generated_Source\PSoC4/UART_XB_UART.c ****         *  Only available for PSoC 4100 BLE / PSoC 4200 BLE / PSoC 4100M / PSoC 4200M /
 641:Generated_Source\PSoC4/UART_XB_UART.c ****         *  PSoC 4200L / PSoC 4000S / PSoC 4100S / PSoC Analog Coprocessor devices.
 642:Generated_Source\PSoC4/UART_XB_UART.c ****         *
 643:Generated_Source\PSoC4/UART_XB_UART.c ****         *  \param level: Level in the RX FIFO for RTS signal activation.
 644:Generated_Source\PSoC4/UART_XB_UART.c ****         *   The range of valid level values is between 0 and RX FIFO depth - 1.
 645:Generated_Source\PSoC4/UART_XB_UART.c ****         *   Setting level value to 0 disables RTS signal activation.
 646:Generated_Source\PSoC4/UART_XB_UART.c ****         *
 647:Generated_Source\PSoC4/UART_XB_UART.c ****         *******************************************************************************/
 648:Generated_Source\PSoC4/UART_XB_UART.c ****         void UART_XB_UartSetRtsFifoLevel(uint32 level)
 649:Generated_Source\PSoC4/UART_XB_UART.c ****         {
 593              		.loc 1 649 0
 594              		.cfi_startproc
 595              		@ args = 0, pretend = 0, frame = 16
 596              		@ frame_needed = 1, uses_anonymous_args = 0
 597 0000 80B5     		push	{r7, lr}
 598              		.cfi_def_cfa_offset 8
 599              		.cfi_offset 7, -8
 600              		.cfi_offset 14, -4
 601 0002 84B0     		sub	sp, sp, #16
 602              		.cfi_def_cfa_offset 24
 603 0004 00AF     		add	r7, sp, #0
 604              		.cfi_def_cfa_register 7
ARM GAS  C:\Users\Petro\AppData\Local\Temp\ccy3L2Gg.s 			page 23


 605 0006 7860     		str	r0, [r7, #4]
 650:Generated_Source\PSoC4/UART_XB_UART.c ****             uint32 uartFlowCtrl;
 651:Generated_Source\PSoC4/UART_XB_UART.c **** 
 652:Generated_Source\PSoC4/UART_XB_UART.c ****             uartFlowCtrl = UART_XB_UART_FLOW_CTRL_REG;
 606              		.loc 1 652 0
 607 0008 094B     		ldr	r3, .L35
 608 000a 1B68     		ldr	r3, [r3]
 609 000c FB60     		str	r3, [r7, #12]
 653:Generated_Source\PSoC4/UART_XB_UART.c **** 
 654:Generated_Source\PSoC4/UART_XB_UART.c ****             uartFlowCtrl &= ((uint32) ~UART_XB_UART_FLOW_CTRL_TRIGGER_LEVEL_MASK); /* Clear level m
 610              		.loc 1 654 0
 611 000e FB68     		ldr	r3, [r7, #12]
 612 0010 0F22     		movs	r2, #15
 613 0012 9343     		bics	r3, r2
 614 0014 FB60     		str	r3, [r7, #12]
 655:Generated_Source\PSoC4/UART_XB_UART.c ****             uartFlowCtrl |= ((uint32) (UART_XB_UART_FLOW_CTRL_TRIGGER_LEVEL_MASK & level));
 615              		.loc 1 655 0
 616 0016 7B68     		ldr	r3, [r7, #4]
 617 0018 0F22     		movs	r2, #15
 618 001a 1340     		ands	r3, r2
 619 001c FA68     		ldr	r2, [r7, #12]
 620 001e 1343     		orrs	r3, r2
 621 0020 FB60     		str	r3, [r7, #12]
 656:Generated_Source\PSoC4/UART_XB_UART.c **** 
 657:Generated_Source\PSoC4/UART_XB_UART.c ****             UART_XB_UART_FLOW_CTRL_REG = uartFlowCtrl;
 622              		.loc 1 657 0
 623 0022 034B     		ldr	r3, .L35
 624 0024 FA68     		ldr	r2, [r7, #12]
 625 0026 1A60     		str	r2, [r3]
 658:Generated_Source\PSoC4/UART_XB_UART.c ****         }
 626              		.loc 1 658 0
 627 0028 C046     		nop
 628 002a BD46     		mov	sp, r7
 629 002c 04B0     		add	sp, sp, #16
 630              		@ sp needed
 631 002e 80BD     		pop	{r7, pc}
 632              	.L36:
 633              		.align	2
 634              	.L35:
 635 0030 50002440 		.word	1076101200
 636              		.cfi_endproc
 637              	.LFE10:
 638              		.size	UART_XB_UartSetRtsFifoLevel, .-UART_XB_UartSetRtsFifoLevel
 639              		.section	.text.UART_XB_UartPutString,"ax",%progbits
 640              		.align	2
 641              		.global	UART_XB_UartPutString
 642              		.code	16
 643              		.thumb_func
 644              		.type	UART_XB_UartPutString, %function
 645              	UART_XB_UartPutString:
 646              	.LFB11:
 659:Generated_Source\PSoC4/UART_XB_UART.c ****     #endif /* !(UART_XB_CY_SCBIP_V0 || UART_XB_CY_SCBIP_V1) */
 660:Generated_Source\PSoC4/UART_XB_UART.c **** 
 661:Generated_Source\PSoC4/UART_XB_UART.c **** #endif /* (UART_XB_UART_RX_DIRECTION) */
 662:Generated_Source\PSoC4/UART_XB_UART.c **** 
 663:Generated_Source\PSoC4/UART_XB_UART.c **** 
 664:Generated_Source\PSoC4/UART_XB_UART.c **** #if(UART_XB_UART_TX_DIRECTION)
ARM GAS  C:\Users\Petro\AppData\Local\Temp\ccy3L2Gg.s 			page 24


 665:Generated_Source\PSoC4/UART_XB_UART.c ****     /*******************************************************************************
 666:Generated_Source\PSoC4/UART_XB_UART.c ****     * Function Name: UART_XB_UartPutString
 667:Generated_Source\PSoC4/UART_XB_UART.c ****     ****************************************************************************//**
 668:Generated_Source\PSoC4/UART_XB_UART.c ****     *
 669:Generated_Source\PSoC4/UART_XB_UART.c ****     *  Places a NULL terminated string in the transmit buffer to be sent at the
 670:Generated_Source\PSoC4/UART_XB_UART.c ****     *  next available bus time.
 671:Generated_Source\PSoC4/UART_XB_UART.c ****     *  This function is blocking and waits until there is a space available to put
 672:Generated_Source\PSoC4/UART_XB_UART.c ****     *  requested data in transmit buffer.
 673:Generated_Source\PSoC4/UART_XB_UART.c ****     *
 674:Generated_Source\PSoC4/UART_XB_UART.c ****     *  \param string: pointer to the null terminated string array to be placed in the
 675:Generated_Source\PSoC4/UART_XB_UART.c ****     *   transmit buffer.
 676:Generated_Source\PSoC4/UART_XB_UART.c ****     *
 677:Generated_Source\PSoC4/UART_XB_UART.c ****     *******************************************************************************/
 678:Generated_Source\PSoC4/UART_XB_UART.c ****     void UART_XB_UartPutString(const char8 string[])
 679:Generated_Source\PSoC4/UART_XB_UART.c ****     {
 647              		.loc 1 679 0
 648              		.cfi_startproc
 649              		@ args = 0, pretend = 0, frame = 16
 650              		@ frame_needed = 1, uses_anonymous_args = 0
 651 0000 80B5     		push	{r7, lr}
 652              		.cfi_def_cfa_offset 8
 653              		.cfi_offset 7, -8
 654              		.cfi_offset 14, -4
 655 0002 84B0     		sub	sp, sp, #16
 656              		.cfi_def_cfa_offset 24
 657 0004 00AF     		add	r7, sp, #0
 658              		.cfi_def_cfa_register 7
 659 0006 7860     		str	r0, [r7, #4]
 680:Generated_Source\PSoC4/UART_XB_UART.c ****         uint32 bufIndex;
 681:Generated_Source\PSoC4/UART_XB_UART.c **** 
 682:Generated_Source\PSoC4/UART_XB_UART.c ****         bufIndex = 0u;
 660              		.loc 1 682 0
 661 0008 0023     		movs	r3, #0
 662 000a FB60     		str	r3, [r7, #12]
 683:Generated_Source\PSoC4/UART_XB_UART.c **** 
 684:Generated_Source\PSoC4/UART_XB_UART.c ****         /* Blocks the control flow until all data has been sent */
 685:Generated_Source\PSoC4/UART_XB_UART.c ****         while(string[bufIndex] != ((char8) 0))
 663              		.loc 1 685 0
 664 000c 09E0     		b	.L38
 665              	.L39:
 686:Generated_Source\PSoC4/UART_XB_UART.c ****         {
 687:Generated_Source\PSoC4/UART_XB_UART.c ****             UART_XB_UartPutChar((uint32) string[bufIndex]);
 666              		.loc 1 687 0
 667 000e 7A68     		ldr	r2, [r7, #4]
 668 0010 FB68     		ldr	r3, [r7, #12]
 669 0012 D318     		adds	r3, r2, r3
 670 0014 1B78     		ldrb	r3, [r3]
 671 0016 1800     		movs	r0, r3
 672 0018 FFF7FEFF 		bl	UART_XB_SpiUartWriteTxData
 688:Generated_Source\PSoC4/UART_XB_UART.c ****             bufIndex++;
 673              		.loc 1 688 0
 674 001c FB68     		ldr	r3, [r7, #12]
 675 001e 0133     		adds	r3, r3, #1
 676 0020 FB60     		str	r3, [r7, #12]
 677              	.L38:
 685:Generated_Source\PSoC4/UART_XB_UART.c ****         {
 678              		.loc 1 685 0
ARM GAS  C:\Users\Petro\AppData\Local\Temp\ccy3L2Gg.s 			page 25


 679 0022 7A68     		ldr	r2, [r7, #4]
 680 0024 FB68     		ldr	r3, [r7, #12]
 681 0026 D318     		adds	r3, r2, r3
 682 0028 1B78     		ldrb	r3, [r3]
 683 002a 002B     		cmp	r3, #0
 684 002c EFD1     		bne	.L39
 689:Generated_Source\PSoC4/UART_XB_UART.c ****         }
 690:Generated_Source\PSoC4/UART_XB_UART.c ****     }
 685              		.loc 1 690 0
 686 002e C046     		nop
 687 0030 BD46     		mov	sp, r7
 688 0032 04B0     		add	sp, sp, #16
 689              		@ sp needed
 690 0034 80BD     		pop	{r7, pc}
 691              		.cfi_endproc
 692              	.LFE11:
 693              		.size	UART_XB_UartPutString, .-UART_XB_UartPutString
 694 0036 C046     		.section	.text.UART_XB_UartPutCRLF,"ax",%progbits
 695              		.align	2
 696              		.global	UART_XB_UartPutCRLF
 697              		.code	16
 698              		.thumb_func
 699              		.type	UART_XB_UartPutCRLF, %function
 700              	UART_XB_UartPutCRLF:
 701              	.LFB12:
 691:Generated_Source\PSoC4/UART_XB_UART.c **** 
 692:Generated_Source\PSoC4/UART_XB_UART.c **** 
 693:Generated_Source\PSoC4/UART_XB_UART.c ****     /*******************************************************************************
 694:Generated_Source\PSoC4/UART_XB_UART.c ****     * Function Name: UART_XB_UartPutCRLF
 695:Generated_Source\PSoC4/UART_XB_UART.c ****     ****************************************************************************//**
 696:Generated_Source\PSoC4/UART_XB_UART.c ****     *
 697:Generated_Source\PSoC4/UART_XB_UART.c ****     *  Places byte of data followed by a carriage return (0x0D) and line feed
 698:Generated_Source\PSoC4/UART_XB_UART.c ****     *  (0x0A) in the transmit buffer.
 699:Generated_Source\PSoC4/UART_XB_UART.c ****     *  This function is blocking and waits until there is a space available to put
 700:Generated_Source\PSoC4/UART_XB_UART.c ****     *  all requested data in transmit buffer.
 701:Generated_Source\PSoC4/UART_XB_UART.c ****     *
 702:Generated_Source\PSoC4/UART_XB_UART.c ****     *  \param txDataByte: the data to be transmitted.
 703:Generated_Source\PSoC4/UART_XB_UART.c ****     *
 704:Generated_Source\PSoC4/UART_XB_UART.c ****     *******************************************************************************/
 705:Generated_Source\PSoC4/UART_XB_UART.c ****     void UART_XB_UartPutCRLF(uint32 txDataByte)
 706:Generated_Source\PSoC4/UART_XB_UART.c ****     {
 702              		.loc 1 706 0
 703              		.cfi_startproc
 704              		@ args = 0, pretend = 0, frame = 8
 705              		@ frame_needed = 1, uses_anonymous_args = 0
 706 0000 80B5     		push	{r7, lr}
 707              		.cfi_def_cfa_offset 8
 708              		.cfi_offset 7, -8
 709              		.cfi_offset 14, -4
 710 0002 82B0     		sub	sp, sp, #8
 711              		.cfi_def_cfa_offset 16
 712 0004 00AF     		add	r7, sp, #0
 713              		.cfi_def_cfa_register 7
 714 0006 7860     		str	r0, [r7, #4]
 707:Generated_Source\PSoC4/UART_XB_UART.c ****         UART_XB_UartPutChar(txDataByte);  /* Blocks control flow until all data has been sent */
 715              		.loc 1 707 0
 716 0008 7B68     		ldr	r3, [r7, #4]
ARM GAS  C:\Users\Petro\AppData\Local\Temp\ccy3L2Gg.s 			page 26


 717 000a 1800     		movs	r0, r3
 718 000c FFF7FEFF 		bl	UART_XB_SpiUartWriteTxData
 708:Generated_Source\PSoC4/UART_XB_UART.c ****         UART_XB_UartPutChar(0x0Du);       /* Blocks control flow until all data has been sent */
 719              		.loc 1 708 0
 720 0010 0D20     		movs	r0, #13
 721 0012 FFF7FEFF 		bl	UART_XB_SpiUartWriteTxData
 709:Generated_Source\PSoC4/UART_XB_UART.c ****         UART_XB_UartPutChar(0x0Au);       /* Blocks control flow until all data has been sent */
 722              		.loc 1 709 0
 723 0016 0A20     		movs	r0, #10
 724 0018 FFF7FEFF 		bl	UART_XB_SpiUartWriteTxData
 710:Generated_Source\PSoC4/UART_XB_UART.c ****     }
 725              		.loc 1 710 0
 726 001c C046     		nop
 727 001e BD46     		mov	sp, r7
 728 0020 02B0     		add	sp, sp, #8
 729              		@ sp needed
 730 0022 80BD     		pop	{r7, pc}
 731              		.cfi_endproc
 732              	.LFE12:
 733              		.size	UART_XB_UartPutCRLF, .-UART_XB_UartPutCRLF
 734              		.section	.text.UART_XB_UartEnableCts,"ax",%progbits
 735              		.align	2
 736              		.global	UART_XB_UartEnableCts
 737              		.code	16
 738              		.thumb_func
 739              		.type	UART_XB_UartEnableCts, %function
 740              	UART_XB_UartEnableCts:
 741              	.LFB13:
 711:Generated_Source\PSoC4/UART_XB_UART.c **** 
 712:Generated_Source\PSoC4/UART_XB_UART.c **** 
 713:Generated_Source\PSoC4/UART_XB_UART.c ****     #if !(UART_XB_CY_SCBIP_V0 || UART_XB_CY_SCBIP_V1)
 714:Generated_Source\PSoC4/UART_XB_UART.c ****         /*******************************************************************************
 715:Generated_Source\PSoC4/UART_XB_UART.c ****         * Function Name: UART_XBSCB_UartEnableCts
 716:Generated_Source\PSoC4/UART_XB_UART.c ****         ****************************************************************************//**
 717:Generated_Source\PSoC4/UART_XB_UART.c ****         *
 718:Generated_Source\PSoC4/UART_XB_UART.c ****         *  Enables usage of CTS input signal by the UART transmitter.
 719:Generated_Source\PSoC4/UART_XB_UART.c ****         *  Only available for PSoC 4100 BLE / PSoC 4200 BLE / PSoC 4100M / PSoC 4200M /
 720:Generated_Source\PSoC4/UART_XB_UART.c ****         *  PSoC 4200L / PSoC 4000S / PSoC 4100S / PSoC Analog Coprocessor devices.
 721:Generated_Source\PSoC4/UART_XB_UART.c ****         *
 722:Generated_Source\PSoC4/UART_XB_UART.c ****         *******************************************************************************/
 723:Generated_Source\PSoC4/UART_XB_UART.c ****         void UART_XB_UartEnableCts(void)
 724:Generated_Source\PSoC4/UART_XB_UART.c ****         {
 742              		.loc 1 724 0
 743              		.cfi_startproc
 744              		@ args = 0, pretend = 0, frame = 0
 745              		@ frame_needed = 1, uses_anonymous_args = 0
 746 0000 80B5     		push	{r7, lr}
 747              		.cfi_def_cfa_offset 8
 748              		.cfi_offset 7, -8
 749              		.cfi_offset 14, -4
 750 0002 00AF     		add	r7, sp, #0
 751              		.cfi_def_cfa_register 7
 725:Generated_Source\PSoC4/UART_XB_UART.c ****             UART_XB_UART_FLOW_CTRL_REG |= (uint32)  UART_XB_UART_FLOW_CTRL_CTS_ENABLE;
 752              		.loc 1 725 0
 753 0004 044B     		ldr	r3, .L42
 754 0006 044A     		ldr	r2, .L42
 755 0008 1268     		ldr	r2, [r2]
ARM GAS  C:\Users\Petro\AppData\Local\Temp\ccy3L2Gg.s 			page 27


 756 000a 8021     		movs	r1, #128
 757 000c 8904     		lsls	r1, r1, #18
 758 000e 0A43     		orrs	r2, r1
 759 0010 1A60     		str	r2, [r3]
 726:Generated_Source\PSoC4/UART_XB_UART.c ****         }
 760              		.loc 1 726 0
 761 0012 C046     		nop
 762 0014 BD46     		mov	sp, r7
 763              		@ sp needed
 764 0016 80BD     		pop	{r7, pc}
 765              	.L43:
 766              		.align	2
 767              	.L42:
 768 0018 50002440 		.word	1076101200
 769              		.cfi_endproc
 770              	.LFE13:
 771              		.size	UART_XB_UartEnableCts, .-UART_XB_UartEnableCts
 772              		.section	.text.UART_XB_UartDisableCts,"ax",%progbits
 773              		.align	2
 774              		.global	UART_XB_UartDisableCts
 775              		.code	16
 776              		.thumb_func
 777              		.type	UART_XB_UartDisableCts, %function
 778              	UART_XB_UartDisableCts:
 779              	.LFB14:
 727:Generated_Source\PSoC4/UART_XB_UART.c **** 
 728:Generated_Source\PSoC4/UART_XB_UART.c **** 
 729:Generated_Source\PSoC4/UART_XB_UART.c ****         /*******************************************************************************
 730:Generated_Source\PSoC4/UART_XB_UART.c ****         * Function Name: UART_XB_UartDisableCts
 731:Generated_Source\PSoC4/UART_XB_UART.c ****         ****************************************************************************//**
 732:Generated_Source\PSoC4/UART_XB_UART.c ****         *
 733:Generated_Source\PSoC4/UART_XB_UART.c ****         *  Disables usage of CTS input signal by the UART transmitter.
 734:Generated_Source\PSoC4/UART_XB_UART.c ****         *  Only available for PSoC 4100 BLE / PSoC 4200 BLE / PSoC 4100M / PSoC 4200M /
 735:Generated_Source\PSoC4/UART_XB_UART.c ****         *  PSoC 4200L / PSoC 4000S / PSoC 4100S / PSoC Analog Coprocessor devices.
 736:Generated_Source\PSoC4/UART_XB_UART.c ****         *
 737:Generated_Source\PSoC4/UART_XB_UART.c ****         *******************************************************************************/
 738:Generated_Source\PSoC4/UART_XB_UART.c ****         void UART_XB_UartDisableCts(void)
 739:Generated_Source\PSoC4/UART_XB_UART.c ****         {
 780              		.loc 1 739 0
 781              		.cfi_startproc
 782              		@ args = 0, pretend = 0, frame = 0
 783              		@ frame_needed = 1, uses_anonymous_args = 0
 784 0000 80B5     		push	{r7, lr}
 785              		.cfi_def_cfa_offset 8
 786              		.cfi_offset 7, -8
 787              		.cfi_offset 14, -4
 788 0002 00AF     		add	r7, sp, #0
 789              		.cfi_def_cfa_register 7
 740:Generated_Source\PSoC4/UART_XB_UART.c ****             UART_XB_UART_FLOW_CTRL_REG &= (uint32) ~UART_XB_UART_FLOW_CTRL_CTS_ENABLE;
 790              		.loc 1 740 0
 791 0004 044B     		ldr	r3, .L45
 792 0006 044A     		ldr	r2, .L45
 793 0008 1268     		ldr	r2, [r2]
 794 000a 0449     		ldr	r1, .L45+4
 795 000c 0A40     		ands	r2, r1
 796 000e 1A60     		str	r2, [r3]
 741:Generated_Source\PSoC4/UART_XB_UART.c ****         }
ARM GAS  C:\Users\Petro\AppData\Local\Temp\ccy3L2Gg.s 			page 28


 797              		.loc 1 741 0
 798 0010 C046     		nop
 799 0012 BD46     		mov	sp, r7
 800              		@ sp needed
 801 0014 80BD     		pop	{r7, pc}
 802              	.L46:
 803 0016 C046     		.align	2
 804              	.L45:
 805 0018 50002440 		.word	1076101200
 806 001c FFFFFFFD 		.word	-33554433
 807              		.cfi_endproc
 808              	.LFE14:
 809              		.size	UART_XB_UartDisableCts, .-UART_XB_UartDisableCts
 810              		.section	.text.UART_XB_UartSetCtsPolarity,"ax",%progbits
 811              		.align	2
 812              		.global	UART_XB_UartSetCtsPolarity
 813              		.code	16
 814              		.thumb_func
 815              		.type	UART_XB_UartSetCtsPolarity, %function
 816              	UART_XB_UartSetCtsPolarity:
 817              	.LFB15:
 742:Generated_Source\PSoC4/UART_XB_UART.c **** 
 743:Generated_Source\PSoC4/UART_XB_UART.c **** 
 744:Generated_Source\PSoC4/UART_XB_UART.c ****         /*******************************************************************************
 745:Generated_Source\PSoC4/UART_XB_UART.c ****         * Function Name: UART_XB_UartSetCtsPolarity
 746:Generated_Source\PSoC4/UART_XB_UART.c ****         ****************************************************************************//**
 747:Generated_Source\PSoC4/UART_XB_UART.c ****         *
 748:Generated_Source\PSoC4/UART_XB_UART.c ****         *  Sets active polarity of CTS input signal.
 749:Generated_Source\PSoC4/UART_XB_UART.c ****         *  Only available for PSoC 4100 BLE / PSoC 4200 BLE / PSoC 4100M / PSoC 4200M /
 750:Generated_Source\PSoC4/UART_XB_UART.c ****         *  PSoC 4200L / PSoC 4000S / PSoC 4100S / PSoC Analog Coprocessor devices.
 751:Generated_Source\PSoC4/UART_XB_UART.c ****         *
 752:Generated_Source\PSoC4/UART_XB_UART.c ****         *  \param polarity: Active polarity of CTS output signal.
 753:Generated_Source\PSoC4/UART_XB_UART.c ****         *   - UART_XB_UART_CTS_ACTIVE_LOW  - CTS signal is active low.
 754:Generated_Source\PSoC4/UART_XB_UART.c ****         *   - UART_XB_UART_CTS_ACTIVE_HIGH - CTS signal is active high.
 755:Generated_Source\PSoC4/UART_XB_UART.c ****         *
 756:Generated_Source\PSoC4/UART_XB_UART.c ****         *******************************************************************************/
 757:Generated_Source\PSoC4/UART_XB_UART.c ****         void UART_XB_UartSetCtsPolarity(uint32 polarity)
 758:Generated_Source\PSoC4/UART_XB_UART.c ****         {
 818              		.loc 1 758 0
 819              		.cfi_startproc
 820              		@ args = 0, pretend = 0, frame = 8
 821              		@ frame_needed = 1, uses_anonymous_args = 0
 822 0000 80B5     		push	{r7, lr}
 823              		.cfi_def_cfa_offset 8
 824              		.cfi_offset 7, -8
 825              		.cfi_offset 14, -4
 826 0002 82B0     		sub	sp, sp, #8
 827              		.cfi_def_cfa_offset 16
 828 0004 00AF     		add	r7, sp, #0
 829              		.cfi_def_cfa_register 7
 830 0006 7860     		str	r0, [r7, #4]
 759:Generated_Source\PSoC4/UART_XB_UART.c ****             if (0u != polarity)
 831              		.loc 1 759 0
 832 0008 7B68     		ldr	r3, [r7, #4]
 833 000a 002B     		cmp	r3, #0
 834 000c 07D0     		beq	.L48
 760:Generated_Source\PSoC4/UART_XB_UART.c ****             {
ARM GAS  C:\Users\Petro\AppData\Local\Temp\ccy3L2Gg.s 			page 29


 761:Generated_Source\PSoC4/UART_XB_UART.c ****                 UART_XB_UART_FLOW_CTRL_REG |= (uint32)  UART_XB_UART_FLOW_CTRL_CTS_POLARITY;
 835              		.loc 1 761 0
 836 000e 094B     		ldr	r3, .L51
 837 0010 084A     		ldr	r2, .L51
 838 0012 1268     		ldr	r2, [r2]
 839 0014 8021     		movs	r1, #128
 840 0016 4904     		lsls	r1, r1, #17
 841 0018 0A43     		orrs	r2, r1
 842 001a 1A60     		str	r2, [r3]
 762:Generated_Source\PSoC4/UART_XB_UART.c ****             }
 763:Generated_Source\PSoC4/UART_XB_UART.c ****             else
 764:Generated_Source\PSoC4/UART_XB_UART.c ****             {
 765:Generated_Source\PSoC4/UART_XB_UART.c ****                 UART_XB_UART_FLOW_CTRL_REG &= (uint32) ~UART_XB_UART_FLOW_CTRL_CTS_POLARITY;
 766:Generated_Source\PSoC4/UART_XB_UART.c ****             }
 767:Generated_Source\PSoC4/UART_XB_UART.c ****         }
 843              		.loc 1 767 0
 844 001c 05E0     		b	.L50
 845              	.L48:
 765:Generated_Source\PSoC4/UART_XB_UART.c ****             }
 846              		.loc 1 765 0
 847 001e 054B     		ldr	r3, .L51
 848 0020 044A     		ldr	r2, .L51
 849 0022 1268     		ldr	r2, [r2]
 850 0024 0449     		ldr	r1, .L51+4
 851 0026 0A40     		ands	r2, r1
 852 0028 1A60     		str	r2, [r3]
 853              	.L50:
 854              		.loc 1 767 0
 855 002a C046     		nop
 856 002c BD46     		mov	sp, r7
 857 002e 02B0     		add	sp, sp, #8
 858              		@ sp needed
 859 0030 80BD     		pop	{r7, pc}
 860              	.L52:
 861 0032 C046     		.align	2
 862              	.L51:
 863 0034 50002440 		.word	1076101200
 864 0038 FFFFFFFE 		.word	-16777217
 865              		.cfi_endproc
 866              	.LFE15:
 867              		.size	UART_XB_UartSetCtsPolarity, .-UART_XB_UartSetCtsPolarity
 868              		.text
 869              	.Letext0:
 870              		.file 2 "Generated_Source\\PSoC4/cytypes.h"
 871              		.file 3 "Generated_Source\\PSoC4\\UART_XB_PVT.h"
 872              		.file 4 "Generated_Source\\PSoC4\\UART_XB_SPI_UART_PVT.h"