ARM GAS  C:\Users\Petro\AppData\Local\Temp\ccPmcWXF.s 			page 1


   1              		.syntax unified
   2              		.cpu cortex-m0
   3              		.fpu softvfp
   4              		.eabi_attribute 20, 1
   5              		.eabi_attribute 21, 1
   6              		.eabi_attribute 23, 3
   7              		.eabi_attribute 24, 1
   8              		.eabi_attribute 25, 1
   9              		.eabi_attribute 26, 1
  10              		.eabi_attribute 30, 6
  11              		.eabi_attribute 34, 0
  12              		.eabi_attribute 18, 4
  13              		.thumb
  14              		.syntax unified
  15              		.file	"UART_XB_SPI_UART_INT.c"
  16              		.text
  17              	.Ltext0:
  18              		.cfi_sections	.debug_frame
  19              		.section	.text.UART_XB_SPI_UART_ISR,"ax",%progbits
  20              		.align	2
  21              		.global	UART_XB_SPI_UART_ISR
  22              		.code	16
  23              		.thumb_func
  24              		.type	UART_XB_SPI_UART_ISR, %function
  25              	UART_XB_SPI_UART_ISR:
  26              	.LFB2:
  27              		.file 1 "Generated_Source\\PSoC4\\UART_XB_SPI_UART_INT.c"
   1:Generated_Source\PSoC4/UART_XB_SPI_UART_INT.c **** /***************************************************************************//**
   2:Generated_Source\PSoC4/UART_XB_SPI_UART_INT.c **** * \file UART_XB_SPI_UART_INT.c
   3:Generated_Source\PSoC4/UART_XB_SPI_UART_INT.c **** * \version 3.20
   4:Generated_Source\PSoC4/UART_XB_SPI_UART_INT.c **** *
   5:Generated_Source\PSoC4/UART_XB_SPI_UART_INT.c **** * \brief
   6:Generated_Source\PSoC4/UART_XB_SPI_UART_INT.c **** *  This file provides the source code to the Interrupt Service Routine for
   7:Generated_Source\PSoC4/UART_XB_SPI_UART_INT.c **** *  the SCB Component in SPI and UART modes.
   8:Generated_Source\PSoC4/UART_XB_SPI_UART_INT.c **** *
   9:Generated_Source\PSoC4/UART_XB_SPI_UART_INT.c **** * Note:
  10:Generated_Source\PSoC4/UART_XB_SPI_UART_INT.c **** *
  11:Generated_Source\PSoC4/UART_XB_SPI_UART_INT.c **** ********************************************************************************
  12:Generated_Source\PSoC4/UART_XB_SPI_UART_INT.c **** * \copyright
  13:Generated_Source\PSoC4/UART_XB_SPI_UART_INT.c **** * Copyright 2013-2016, Cypress Semiconductor Corporation.  All rights reserved.
  14:Generated_Source\PSoC4/UART_XB_SPI_UART_INT.c **** * You may use this file only in accordance with the license, terms, conditions,
  15:Generated_Source\PSoC4/UART_XB_SPI_UART_INT.c **** * disclaimers, and limitations in the end user license agreement accompanying
  16:Generated_Source\PSoC4/UART_XB_SPI_UART_INT.c **** * the software package with which this file was provided.
  17:Generated_Source\PSoC4/UART_XB_SPI_UART_INT.c **** *******************************************************************************/
  18:Generated_Source\PSoC4/UART_XB_SPI_UART_INT.c **** 
  19:Generated_Source\PSoC4/UART_XB_SPI_UART_INT.c **** #include "UART_XB_PVT.h"
  20:Generated_Source\PSoC4/UART_XB_SPI_UART_INT.c **** #include "UART_XB_SPI_UART_PVT.h"
  21:Generated_Source\PSoC4/UART_XB_SPI_UART_INT.c **** #include "cyapicallbacks.h"
  22:Generated_Source\PSoC4/UART_XB_SPI_UART_INT.c **** 
  23:Generated_Source\PSoC4/UART_XB_SPI_UART_INT.c **** #if (UART_XB_SCB_IRQ_INTERNAL)
  24:Generated_Source\PSoC4/UART_XB_SPI_UART_INT.c **** /*******************************************************************************
  25:Generated_Source\PSoC4/UART_XB_SPI_UART_INT.c **** * Function Name: UART_XB_SPI_UART_ISR
  26:Generated_Source\PSoC4/UART_XB_SPI_UART_INT.c **** ****************************************************************************//**
  27:Generated_Source\PSoC4/UART_XB_SPI_UART_INT.c **** *
  28:Generated_Source\PSoC4/UART_XB_SPI_UART_INT.c **** *  Handles the Interrupt Service Routine for the SCB SPI or UART modes.
  29:Generated_Source\PSoC4/UART_XB_SPI_UART_INT.c **** *
  30:Generated_Source\PSoC4/UART_XB_SPI_UART_INT.c **** *******************************************************************************/
ARM GAS  C:\Users\Petro\AppData\Local\Temp\ccPmcWXF.s 			page 2


  31:Generated_Source\PSoC4/UART_XB_SPI_UART_INT.c **** CY_ISR(UART_XB_SPI_UART_ISR)
  32:Generated_Source\PSoC4/UART_XB_SPI_UART_INT.c **** {
  28              		.loc 1 32 0
  29              		.cfi_startproc
  30              		@ args = 0, pretend = 0, frame = 8
  31              		@ frame_needed = 1, uses_anonymous_args = 0
  32 0000 80B5     		push	{r7, lr}
  33              		.cfi_def_cfa_offset 8
  34              		.cfi_offset 7, -8
  35              		.cfi_offset 14, -4
  36 0002 82B0     		sub	sp, sp, #8
  37              		.cfi_def_cfa_offset 16
  38 0004 00AF     		add	r7, sp, #0
  39              		.cfi_def_cfa_register 7
  33:Generated_Source\PSoC4/UART_XB_SPI_UART_INT.c **** #if (UART_XB_INTERNAL_RX_SW_BUFFER_CONST)
  34:Generated_Source\PSoC4/UART_XB_SPI_UART_INT.c ****     uint32 locHead;
  35:Generated_Source\PSoC4/UART_XB_SPI_UART_INT.c **** #endif /* (UART_XB_INTERNAL_RX_SW_BUFFER_CONST) */
  36:Generated_Source\PSoC4/UART_XB_SPI_UART_INT.c **** 
  37:Generated_Source\PSoC4/UART_XB_SPI_UART_INT.c **** #if (UART_XB_INTERNAL_TX_SW_BUFFER_CONST)
  38:Generated_Source\PSoC4/UART_XB_SPI_UART_INT.c ****     uint32 locTail;
  39:Generated_Source\PSoC4/UART_XB_SPI_UART_INT.c **** #endif /* (UART_XB_INTERNAL_TX_SW_BUFFER_CONST) */
  40:Generated_Source\PSoC4/UART_XB_SPI_UART_INT.c **** 
  41:Generated_Source\PSoC4/UART_XB_SPI_UART_INT.c **** #ifdef UART_XB_SPI_UART_ISR_ENTRY_CALLBACK
  42:Generated_Source\PSoC4/UART_XB_SPI_UART_INT.c ****     UART_XB_SPI_UART_ISR_EntryCallback();
  43:Generated_Source\PSoC4/UART_XB_SPI_UART_INT.c **** #endif /* UART_XB_SPI_UART_ISR_ENTRY_CALLBACK */
  44:Generated_Source\PSoC4/UART_XB_SPI_UART_INT.c **** 
  45:Generated_Source\PSoC4/UART_XB_SPI_UART_INT.c ****     if (NULL != UART_XB_customIntrHandler)
  40              		.loc 1 45 0
  41 0006 334B     		ldr	r3, .L16
  42 0008 1B68     		ldr	r3, [r3]
  43 000a 002B     		cmp	r3, #0
  44 000c 02D0     		beq	.L2
  46:Generated_Source\PSoC4/UART_XB_SPI_UART_INT.c ****     {
  47:Generated_Source\PSoC4/UART_XB_SPI_UART_INT.c ****         UART_XB_customIntrHandler();
  45              		.loc 1 47 0
  46 000e 314B     		ldr	r3, .L16
  47 0010 1B68     		ldr	r3, [r3]
  48 0012 9847     		blx	r3
  49              	.L2:
  48:Generated_Source\PSoC4/UART_XB_SPI_UART_INT.c ****     }
  49:Generated_Source\PSoC4/UART_XB_SPI_UART_INT.c **** 
  50:Generated_Source\PSoC4/UART_XB_SPI_UART_INT.c ****     #if(UART_XB_CHECK_SPI_WAKE_ENABLE)
  51:Generated_Source\PSoC4/UART_XB_SPI_UART_INT.c ****     {
  52:Generated_Source\PSoC4/UART_XB_SPI_UART_INT.c ****         /* Clear SPI wakeup source */
  53:Generated_Source\PSoC4/UART_XB_SPI_UART_INT.c ****         UART_XB_ClearSpiExtClkInterruptSource(UART_XB_INTR_SPI_EC_WAKE_UP);
  54:Generated_Source\PSoC4/UART_XB_SPI_UART_INT.c ****     }
  55:Generated_Source\PSoC4/UART_XB_SPI_UART_INT.c ****     #endif
  56:Generated_Source\PSoC4/UART_XB_SPI_UART_INT.c **** 
  57:Generated_Source\PSoC4/UART_XB_SPI_UART_INT.c ****     #if (UART_XB_CHECK_RX_SW_BUFFER)
  58:Generated_Source\PSoC4/UART_XB_SPI_UART_INT.c ****     {
  59:Generated_Source\PSoC4/UART_XB_SPI_UART_INT.c ****         if (UART_XB_CHECK_INTR_RX_MASKED(UART_XB_INTR_RX_NOT_EMPTY))
  50              		.loc 1 59 0
  51 0014 304B     		ldr	r3, .L16+4
  52 0016 1B68     		ldr	r3, [r3]
  53 0018 0422     		movs	r2, #4
  54 001a 1340     		ands	r3, r2
  55 001c 26D0     		beq	.L3
ARM GAS  C:\Users\Petro\AppData\Local\Temp\ccPmcWXF.s 			page 3


  56              	.L7:
  60:Generated_Source\PSoC4/UART_XB_SPI_UART_INT.c ****         {
  61:Generated_Source\PSoC4/UART_XB_SPI_UART_INT.c ****             do
  62:Generated_Source\PSoC4/UART_XB_SPI_UART_INT.c ****             {
  63:Generated_Source\PSoC4/UART_XB_SPI_UART_INT.c ****                 /* Move local head index */
  64:Generated_Source\PSoC4/UART_XB_SPI_UART_INT.c ****                 locHead = (UART_XB_rxBufferHead + 1u);
  57              		.loc 1 64 0
  58 001e 2F4B     		ldr	r3, .L16+8
  59 0020 1B68     		ldr	r3, [r3]
  60 0022 0133     		adds	r3, r3, #1
  61 0024 7B60     		str	r3, [r7, #4]
  65:Generated_Source\PSoC4/UART_XB_SPI_UART_INT.c **** 
  66:Generated_Source\PSoC4/UART_XB_SPI_UART_INT.c ****                 /* Adjust local head index */
  67:Generated_Source\PSoC4/UART_XB_SPI_UART_INT.c ****                 if (UART_XB_INTERNAL_RX_BUFFER_SIZE == locHead)
  62              		.loc 1 67 0
  63 0026 7B68     		ldr	r3, [r7, #4]
  64 0028 652B     		cmp	r3, #101
  65 002a 01D1     		bne	.L4
  68:Generated_Source\PSoC4/UART_XB_SPI_UART_INT.c ****                 {
  69:Generated_Source\PSoC4/UART_XB_SPI_UART_INT.c ****                     locHead = 0u;
  66              		.loc 1 69 0
  67 002c 0023     		movs	r3, #0
  68 002e 7B60     		str	r3, [r7, #4]
  69              	.L4:
  70:Generated_Source\PSoC4/UART_XB_SPI_UART_INT.c ****                 }
  71:Generated_Source\PSoC4/UART_XB_SPI_UART_INT.c **** 
  72:Generated_Source\PSoC4/UART_XB_SPI_UART_INT.c ****                 if (locHead == UART_XB_rxBufferTail)
  70              		.loc 1 72 0
  71 0030 2B4B     		ldr	r3, .L16+12
  72 0032 1B68     		ldr	r3, [r3]
  73 0034 7A68     		ldr	r2, [r7, #4]
  74 0036 9A42     		cmp	r2, r3
  75 0038 05D1     		bne	.L5
  73:Generated_Source\PSoC4/UART_XB_SPI_UART_INT.c ****                 {
  74:Generated_Source\PSoC4/UART_XB_SPI_UART_INT.c ****                     #if (UART_XB_CHECK_UART_RTS_CONTROL_FLOW)
  75:Generated_Source\PSoC4/UART_XB_SPI_UART_INT.c ****                     {
  76:Generated_Source\PSoC4/UART_XB_SPI_UART_INT.c ****                         /* There is no space in the software buffer - disable the
  77:Generated_Source\PSoC4/UART_XB_SPI_UART_INT.c ****                         * RX Not Empty interrupt source. The data elements are
  78:Generated_Source\PSoC4/UART_XB_SPI_UART_INT.c ****                         * still being received into the RX FIFO until the RTS signal
  79:Generated_Source\PSoC4/UART_XB_SPI_UART_INT.c ****                         * stops the transmitter. After the data element is read from the
  80:Generated_Source\PSoC4/UART_XB_SPI_UART_INT.c ****                         * buffer, the RX Not Empty interrupt source is enabled to
  81:Generated_Source\PSoC4/UART_XB_SPI_UART_INT.c ****                         * move the next data element in the software buffer.
  82:Generated_Source\PSoC4/UART_XB_SPI_UART_INT.c ****                         */
  83:Generated_Source\PSoC4/UART_XB_SPI_UART_INT.c ****                         UART_XB_INTR_RX_MASK_REG &= ~UART_XB_INTR_RX_NOT_EMPTY;
  84:Generated_Source\PSoC4/UART_XB_SPI_UART_INT.c ****                         break;
  85:Generated_Source\PSoC4/UART_XB_SPI_UART_INT.c ****                     }
  86:Generated_Source\PSoC4/UART_XB_SPI_UART_INT.c ****                     #else
  87:Generated_Source\PSoC4/UART_XB_SPI_UART_INT.c ****                     {
  88:Generated_Source\PSoC4/UART_XB_SPI_UART_INT.c ****                         /* Overflow: through away received data element */
  89:Generated_Source\PSoC4/UART_XB_SPI_UART_INT.c ****                         (void) UART_XB_RX_FIFO_RD_REG;
  76              		.loc 1 89 0
  77 003a 2A4B     		ldr	r3, .L16+16
  78 003c 1B68     		ldr	r3, [r3]
  90:Generated_Source\PSoC4/UART_XB_SPI_UART_INT.c ****                         UART_XB_rxBufferOverflow = (uint8) UART_XB_INTR_RX_OVERFLOW;
  79              		.loc 1 90 0
  80 003e 2A4B     		ldr	r3, .L16+20
  81 0040 2022     		movs	r2, #32
ARM GAS  C:\Users\Petro\AppData\Local\Temp\ccPmcWXF.s 			page 4


  82 0042 1A70     		strb	r2, [r3]
  83 0044 0AE0     		b	.L6
  84              	.L5:
  91:Generated_Source\PSoC4/UART_XB_SPI_UART_INT.c ****                     }
  92:Generated_Source\PSoC4/UART_XB_SPI_UART_INT.c ****                     #endif
  93:Generated_Source\PSoC4/UART_XB_SPI_UART_INT.c ****                 }
  94:Generated_Source\PSoC4/UART_XB_SPI_UART_INT.c ****                 else
  95:Generated_Source\PSoC4/UART_XB_SPI_UART_INT.c ****                 {
  96:Generated_Source\PSoC4/UART_XB_SPI_UART_INT.c ****                     /* Store received data */
  97:Generated_Source\PSoC4/UART_XB_SPI_UART_INT.c ****                     UART_XB_PutWordInRxBuffer(locHead, UART_XB_RX_FIFO_RD_REG);
  85              		.loc 1 97 0
  86 0046 274B     		ldr	r3, .L16+16
  87 0048 1B68     		ldr	r3, [r3]
  88 004a D9B2     		uxtb	r1, r3
  89 004c 274A     		ldr	r2, .L16+24
  90 004e 7B68     		ldr	r3, [r7, #4]
  91 0050 D318     		adds	r3, r2, r3
  92 0052 0A1C     		adds	r2, r1, #0
  93 0054 1A70     		strb	r2, [r3]
  98:Generated_Source\PSoC4/UART_XB_SPI_UART_INT.c **** 
  99:Generated_Source\PSoC4/UART_XB_SPI_UART_INT.c ****                     /* Move head index */
 100:Generated_Source\PSoC4/UART_XB_SPI_UART_INT.c ****                     UART_XB_rxBufferHead = locHead;
  94              		.loc 1 100 0
  95 0056 214B     		ldr	r3, .L16+8
  96 0058 7A68     		ldr	r2, [r7, #4]
  97 005a 1A60     		str	r2, [r3]
  98              	.L6:
 101:Generated_Source\PSoC4/UART_XB_SPI_UART_INT.c ****                 }
 102:Generated_Source\PSoC4/UART_XB_SPI_UART_INT.c ****             }
 103:Generated_Source\PSoC4/UART_XB_SPI_UART_INT.c ****             while(0u != UART_XB_GET_RX_FIFO_ENTRIES);
  99              		.loc 1 103 0
 100 005c 244B     		ldr	r3, .L16+28
 101 005e 1B68     		ldr	r3, [r3]
 102 0060 1F22     		movs	r2, #31
 103 0062 1340     		ands	r3, r2
 104 0064 DBD1     		bne	.L7
 104:Generated_Source\PSoC4/UART_XB_SPI_UART_INT.c **** 
 105:Generated_Source\PSoC4/UART_XB_SPI_UART_INT.c ****             UART_XB_ClearRxInterruptSource(UART_XB_INTR_RX_NOT_EMPTY);
 105              		.loc 1 105 0
 106 0066 234B     		ldr	r3, .L16+32
 107 0068 0422     		movs	r2, #4
 108 006a 1A60     		str	r2, [r3]
 109              	.L3:
 106:Generated_Source\PSoC4/UART_XB_SPI_UART_INT.c ****         }
 107:Generated_Source\PSoC4/UART_XB_SPI_UART_INT.c ****     }
 108:Generated_Source\PSoC4/UART_XB_SPI_UART_INT.c ****     #endif
 109:Generated_Source\PSoC4/UART_XB_SPI_UART_INT.c **** 
 110:Generated_Source\PSoC4/UART_XB_SPI_UART_INT.c **** 
 111:Generated_Source\PSoC4/UART_XB_SPI_UART_INT.c ****     #if (UART_XB_CHECK_TX_SW_BUFFER)
 112:Generated_Source\PSoC4/UART_XB_SPI_UART_INT.c ****     {
 113:Generated_Source\PSoC4/UART_XB_SPI_UART_INT.c ****         if (UART_XB_CHECK_INTR_TX_MASKED(UART_XB_INTR_TX_NOT_FULL))
 110              		.loc 1 113 0
 111 006c 224B     		ldr	r3, .L16+36
 112 006e 1B68     		ldr	r3, [r3]
 113 0070 0222     		movs	r2, #2
 114 0072 1340     		ands	r3, r2
 115 0074 29D0     		beq	.L15
ARM GAS  C:\Users\Petro\AppData\Local\Temp\ccPmcWXF.s 			page 5


 116              	.L13:
 114:Generated_Source\PSoC4/UART_XB_SPI_UART_INT.c ****         {
 115:Generated_Source\PSoC4/UART_XB_SPI_UART_INT.c ****             do
 116:Generated_Source\PSoC4/UART_XB_SPI_UART_INT.c ****             {
 117:Generated_Source\PSoC4/UART_XB_SPI_UART_INT.c ****                 /* Check for room in TX software buffer */
 118:Generated_Source\PSoC4/UART_XB_SPI_UART_INT.c ****                 if (UART_XB_txBufferHead != UART_XB_txBufferTail)
 117              		.loc 1 118 0
 118 0076 214B     		ldr	r3, .L16+40
 119 0078 1A68     		ldr	r2, [r3]
 120 007a 214B     		ldr	r3, .L16+44
 121 007c 1B68     		ldr	r3, [r3]
 122 007e 9A42     		cmp	r2, r3
 123 0080 13D0     		beq	.L9
 119:Generated_Source\PSoC4/UART_XB_SPI_UART_INT.c ****                 {
 120:Generated_Source\PSoC4/UART_XB_SPI_UART_INT.c ****                     /* Move local tail index */
 121:Generated_Source\PSoC4/UART_XB_SPI_UART_INT.c ****                     locTail = (UART_XB_txBufferTail + 1u);
 124              		.loc 1 121 0
 125 0082 1F4B     		ldr	r3, .L16+44
 126 0084 1B68     		ldr	r3, [r3]
 127 0086 0133     		adds	r3, r3, #1
 128 0088 3B60     		str	r3, [r7]
 122:Generated_Source\PSoC4/UART_XB_SPI_UART_INT.c **** 
 123:Generated_Source\PSoC4/UART_XB_SPI_UART_INT.c ****                     /* Adjust local tail index */
 124:Generated_Source\PSoC4/UART_XB_SPI_UART_INT.c ****                     if (UART_XB_TX_BUFFER_SIZE == locTail)
 129              		.loc 1 124 0
 130 008a 3B68     		ldr	r3, [r7]
 131 008c 642B     		cmp	r3, #100
 132 008e 01D1     		bne	.L10
 125:Generated_Source\PSoC4/UART_XB_SPI_UART_INT.c ****                     {
 126:Generated_Source\PSoC4/UART_XB_SPI_UART_INT.c ****                         locTail = 0u;
 133              		.loc 1 126 0
 134 0090 0023     		movs	r3, #0
 135 0092 3B60     		str	r3, [r7]
 136              	.L10:
 127:Generated_Source\PSoC4/UART_XB_SPI_UART_INT.c ****                     }
 128:Generated_Source\PSoC4/UART_XB_SPI_UART_INT.c **** 
 129:Generated_Source\PSoC4/UART_XB_SPI_UART_INT.c ****                     /* Put data into TX FIFO */
 130:Generated_Source\PSoC4/UART_XB_SPI_UART_INT.c ****                     UART_XB_TX_FIFO_WR_REG = UART_XB_GetWordFromTxBuffer(locTail);
 137              		.loc 1 130 0
 138 0094 1B4B     		ldr	r3, .L16+48
 139 0096 1C49     		ldr	r1, .L16+52
 140 0098 3A68     		ldr	r2, [r7]
 141 009a 8A18     		adds	r2, r1, r2
 142 009c 1278     		ldrb	r2, [r2]
 143 009e D2B2     		uxtb	r2, r2
 144 00a0 1A60     		str	r2, [r3]
 131:Generated_Source\PSoC4/UART_XB_SPI_UART_INT.c **** 
 132:Generated_Source\PSoC4/UART_XB_SPI_UART_INT.c ****                     /* Move tail index */
 133:Generated_Source\PSoC4/UART_XB_SPI_UART_INT.c ****                     UART_XB_txBufferTail = locTail;
 145              		.loc 1 133 0
 146 00a2 174B     		ldr	r3, .L16+44
 147 00a4 3A68     		ldr	r2, [r7]
 148 00a6 1A60     		str	r2, [r3]
 149 00a8 06E0     		b	.L14
 150              	.L9:
 134:Generated_Source\PSoC4/UART_XB_SPI_UART_INT.c ****                 }
 135:Generated_Source\PSoC4/UART_XB_SPI_UART_INT.c ****                 else
ARM GAS  C:\Users\Petro\AppData\Local\Temp\ccPmcWXF.s 			page 6


 136:Generated_Source\PSoC4/UART_XB_SPI_UART_INT.c ****                 {
 137:Generated_Source\PSoC4/UART_XB_SPI_UART_INT.c ****                     /* TX software buffer is empty: complete transfer */
 138:Generated_Source\PSoC4/UART_XB_SPI_UART_INT.c ****                     UART_XB_DISABLE_INTR_TX(UART_XB_INTR_TX_NOT_FULL);
 151              		.loc 1 138 0
 152 00aa 184B     		ldr	r3, .L16+56
 153 00ac 174A     		ldr	r2, .L16+56
 154 00ae 1268     		ldr	r2, [r2]
 155 00b0 0221     		movs	r1, #2
 156 00b2 8A43     		bics	r2, r1
 157 00b4 1A60     		str	r2, [r3]
 139:Generated_Source\PSoC4/UART_XB_SPI_UART_INT.c ****                     break;
 158              		.loc 1 139 0
 159 00b6 05E0     		b	.L12
 160              	.L14:
 140:Generated_Source\PSoC4/UART_XB_SPI_UART_INT.c ****                 }
 141:Generated_Source\PSoC4/UART_XB_SPI_UART_INT.c ****             }
 142:Generated_Source\PSoC4/UART_XB_SPI_UART_INT.c ****             while (UART_XB_SPI_UART_FIFO_SIZE != UART_XB_GET_TX_FIFO_ENTRIES);
 161              		.loc 1 142 0
 162 00b8 154B     		ldr	r3, .L16+60
 163 00ba 1B68     		ldr	r3, [r3]
 164 00bc 1F22     		movs	r2, #31
 165 00be 1340     		ands	r3, r2
 166 00c0 102B     		cmp	r3, #16
 167 00c2 D8D1     		bne	.L13
 168              	.L12:
 143:Generated_Source\PSoC4/UART_XB_SPI_UART_INT.c **** 
 144:Generated_Source\PSoC4/UART_XB_SPI_UART_INT.c ****             UART_XB_ClearTxInterruptSource(UART_XB_INTR_TX_NOT_FULL);
 169              		.loc 1 144 0
 170 00c4 134B     		ldr	r3, .L16+64
 171 00c6 0222     		movs	r2, #2
 172 00c8 1A60     		str	r2, [r3]
 173              	.L15:
 145:Generated_Source\PSoC4/UART_XB_SPI_UART_INT.c ****         }
 146:Generated_Source\PSoC4/UART_XB_SPI_UART_INT.c ****     }
 147:Generated_Source\PSoC4/UART_XB_SPI_UART_INT.c ****     #endif
 148:Generated_Source\PSoC4/UART_XB_SPI_UART_INT.c **** 
 149:Generated_Source\PSoC4/UART_XB_SPI_UART_INT.c **** #ifdef UART_XB_SPI_UART_ISR_EXIT_CALLBACK
 150:Generated_Source\PSoC4/UART_XB_SPI_UART_INT.c ****     UART_XB_SPI_UART_ISR_ExitCallback();
 151:Generated_Source\PSoC4/UART_XB_SPI_UART_INT.c **** #endif /* UART_XB_SPI_UART_ISR_EXIT_CALLBACK */
 152:Generated_Source\PSoC4/UART_XB_SPI_UART_INT.c **** 
 153:Generated_Source\PSoC4/UART_XB_SPI_UART_INT.c **** }
 174              		.loc 1 153 0
 175 00ca C046     		nop
 176 00cc BD46     		mov	sp, r7
 177 00ce 02B0     		add	sp, sp, #8
 178              		@ sp needed
 179 00d0 80BD     		pop	{r7, pc}
 180              	.L17:
 181 00d2 C046     		.align	2
 182              	.L16:
 183 00d4 00000000 		.word	UART_XB_customIntrHandler
 184 00d8 CC0F2440 		.word	1076105164
 185 00dc 00000000 		.word	UART_XB_rxBufferHead
 186 00e0 00000000 		.word	UART_XB_rxBufferTail
 187 00e4 40032440 		.word	1076101952
 188 00e8 00000000 		.word	UART_XB_rxBufferOverflow
 189 00ec 00000000 		.word	UART_XB_rxBufferInternal
ARM GAS  C:\Users\Petro\AppData\Local\Temp\ccPmcWXF.s 			page 7


 190 00f0 08032440 		.word	1076101896
 191 00f4 C00F2440 		.word	1076105152
 192 00f8 8C0F2440 		.word	1076105100
 193 00fc 00000000 		.word	UART_XB_txBufferHead
 194 0100 00000000 		.word	UART_XB_txBufferTail
 195 0104 40022440 		.word	1076101696
 196 0108 00000000 		.word	UART_XB_txBufferInternal
 197 010c 880F2440 		.word	1076105096
 198 0110 08022440 		.word	1076101640
 199 0114 800F2440 		.word	1076105088
 200              		.cfi_endproc
 201              	.LFE2:
 202              		.size	UART_XB_SPI_UART_ISR, .-UART_XB_SPI_UART_ISR
 203              		.text
 204              	.Letext0:
 205              		.file 2 "Generated_Source\\PSoC4/cytypes.h"
 206              		.file 3 "Generated_Source\\PSoC4\\UART_XB_PVT.h"
 207              		.file 4 "Generated_Source\\PSoC4\\UART_XB_SPI_UART_PVT.h"