ARM GAS  C:\Users\Petro\AppData\Local\Temp\ccHyM4Id.s 			page 1


   1              		.syntax unified
   2              		.cpu cortex-m0
   3              		.fpu softvfp
   4              		.eabi_attribute 20, 1
   5              		.eabi_attribute 21, 1
   6              		.eabi_attribute 23, 3
   7              		.eabi_attribute 24, 1
   8              		.eabi_attribute 25, 1
   9              		.eabi_attribute 26, 1
  10              		.eabi_attribute 30, 6
  11              		.eabi_attribute 34, 0
  12              		.eabi_attribute 18, 4
  13              		.thumb
  14              		.syntax unified
  15              		.file	"UART_XB_SPI_UART.c"
  16              		.text
  17              	.Ltext0:
  18              		.cfi_sections	.debug_frame
  19              		.comm	UART_XB_rxBufferHead,4,4
  20              		.comm	UART_XB_rxBufferTail,4,4
  21              		.comm	UART_XB_rxBufferOverflow,1,1
  22              		.comm	UART_XB_txBufferHead,4,4
  23              		.comm	UART_XB_txBufferTail,4,4
  24              		.comm	UART_XB_rxBufferInternal,101,4
  25              		.comm	UART_XB_txBufferInternal,100,4
  26              		.section	.text.UART_XB_SpiUartReadRxData,"ax",%progbits
  27              		.align	2
  28              		.global	UART_XB_SpiUartReadRxData
  29              		.code	16
  30              		.thumb_func
  31              		.type	UART_XB_SpiUartReadRxData, %function
  32              	UART_XB_SpiUartReadRxData:
  33              	.LFB2:
  34              		.file 1 "Generated_Source\\PSoC4\\UART_XB_SPI_UART.c"
   1:Generated_Source\PSoC4/UART_XB_SPI_UART.c **** /***************************************************************************//**
   2:Generated_Source\PSoC4/UART_XB_SPI_UART.c **** * \file UART_XB_SPI_UART.c
   3:Generated_Source\PSoC4/UART_XB_SPI_UART.c **** * \version 3.20
   4:Generated_Source\PSoC4/UART_XB_SPI_UART.c **** *
   5:Generated_Source\PSoC4/UART_XB_SPI_UART.c **** * \brief
   6:Generated_Source\PSoC4/UART_XB_SPI_UART.c **** *  This file provides the source code to the API for the SCB Component in
   7:Generated_Source\PSoC4/UART_XB_SPI_UART.c **** *  SPI and UART modes.
   8:Generated_Source\PSoC4/UART_XB_SPI_UART.c **** *
   9:Generated_Source\PSoC4/UART_XB_SPI_UART.c **** * Note:
  10:Generated_Source\PSoC4/UART_XB_SPI_UART.c **** *
  11:Generated_Source\PSoC4/UART_XB_SPI_UART.c **** *******************************************************************************
  12:Generated_Source\PSoC4/UART_XB_SPI_UART.c **** * \copyright
  13:Generated_Source\PSoC4/UART_XB_SPI_UART.c **** * Copyright 2013-2016, Cypress Semiconductor Corporation.  All rights reserved.
  14:Generated_Source\PSoC4/UART_XB_SPI_UART.c **** * You may use this file only in accordance with the license, terms, conditions,
  15:Generated_Source\PSoC4/UART_XB_SPI_UART.c **** * disclaimers, and limitations in the end user license agreement accompanying
  16:Generated_Source\PSoC4/UART_XB_SPI_UART.c **** * the software package with which this file was provided.
  17:Generated_Source\PSoC4/UART_XB_SPI_UART.c **** *******************************************************************************/
  18:Generated_Source\PSoC4/UART_XB_SPI_UART.c **** 
  19:Generated_Source\PSoC4/UART_XB_SPI_UART.c **** #include "UART_XB_PVT.h"
  20:Generated_Source\PSoC4/UART_XB_SPI_UART.c **** #include "UART_XB_SPI_UART_PVT.h"
  21:Generated_Source\PSoC4/UART_XB_SPI_UART.c **** 
  22:Generated_Source\PSoC4/UART_XB_SPI_UART.c **** /***************************************
  23:Generated_Source\PSoC4/UART_XB_SPI_UART.c **** *        SPI/UART Private Vars
ARM GAS  C:\Users\Petro\AppData\Local\Temp\ccHyM4Id.s 			page 2


  24:Generated_Source\PSoC4/UART_XB_SPI_UART.c **** ***************************************/
  25:Generated_Source\PSoC4/UART_XB_SPI_UART.c **** 
  26:Generated_Source\PSoC4/UART_XB_SPI_UART.c **** #if(UART_XB_INTERNAL_RX_SW_BUFFER_CONST)
  27:Generated_Source\PSoC4/UART_XB_SPI_UART.c ****     /* Start index to put data into the software receive buffer.*/
  28:Generated_Source\PSoC4/UART_XB_SPI_UART.c ****     volatile uint32 UART_XB_rxBufferHead;
  29:Generated_Source\PSoC4/UART_XB_SPI_UART.c ****     /* Start index to get data from the software receive buffer.*/
  30:Generated_Source\PSoC4/UART_XB_SPI_UART.c ****     volatile uint32 UART_XB_rxBufferTail;
  31:Generated_Source\PSoC4/UART_XB_SPI_UART.c ****     /**
  32:Generated_Source\PSoC4/UART_XB_SPI_UART.c ****     * \addtogroup group_globals
  33:Generated_Source\PSoC4/UART_XB_SPI_UART.c ****     * \{
  34:Generated_Source\PSoC4/UART_XB_SPI_UART.c ****     */
  35:Generated_Source\PSoC4/UART_XB_SPI_UART.c ****     /** Sets when internal software receive buffer overflow
  36:Generated_Source\PSoC4/UART_XB_SPI_UART.c ****     *  was occurred.
  37:Generated_Source\PSoC4/UART_XB_SPI_UART.c ****     */
  38:Generated_Source\PSoC4/UART_XB_SPI_UART.c ****     volatile uint8  UART_XB_rxBufferOverflow;
  39:Generated_Source\PSoC4/UART_XB_SPI_UART.c ****     /** \} globals */
  40:Generated_Source\PSoC4/UART_XB_SPI_UART.c **** #endif /* (UART_XB_INTERNAL_RX_SW_BUFFER_CONST) */
  41:Generated_Source\PSoC4/UART_XB_SPI_UART.c **** 
  42:Generated_Source\PSoC4/UART_XB_SPI_UART.c **** #if(UART_XB_INTERNAL_TX_SW_BUFFER_CONST)
  43:Generated_Source\PSoC4/UART_XB_SPI_UART.c ****     /* Start index to put data into the software transmit buffer.*/
  44:Generated_Source\PSoC4/UART_XB_SPI_UART.c ****     volatile uint32 UART_XB_txBufferHead;
  45:Generated_Source\PSoC4/UART_XB_SPI_UART.c ****     /* Start index to get data from the software transmit buffer.*/
  46:Generated_Source\PSoC4/UART_XB_SPI_UART.c ****     volatile uint32 UART_XB_txBufferTail;
  47:Generated_Source\PSoC4/UART_XB_SPI_UART.c **** #endif /* (UART_XB_INTERNAL_TX_SW_BUFFER_CONST) */
  48:Generated_Source\PSoC4/UART_XB_SPI_UART.c **** 
  49:Generated_Source\PSoC4/UART_XB_SPI_UART.c **** #if(UART_XB_INTERNAL_RX_SW_BUFFER)
  50:Generated_Source\PSoC4/UART_XB_SPI_UART.c ****     /* Add one element to the buffer to receive full packet. One byte in receive buffer is always e
  51:Generated_Source\PSoC4/UART_XB_SPI_UART.c ****     volatile uint8 UART_XB_rxBufferInternal[UART_XB_INTERNAL_RX_BUFFER_SIZE];
  52:Generated_Source\PSoC4/UART_XB_SPI_UART.c **** #endif /* (UART_XB_INTERNAL_RX_SW_BUFFER) */
  53:Generated_Source\PSoC4/UART_XB_SPI_UART.c **** 
  54:Generated_Source\PSoC4/UART_XB_SPI_UART.c **** #if(UART_XB_INTERNAL_TX_SW_BUFFER)
  55:Generated_Source\PSoC4/UART_XB_SPI_UART.c ****     volatile uint8 UART_XB_txBufferInternal[UART_XB_TX_BUFFER_SIZE];
  56:Generated_Source\PSoC4/UART_XB_SPI_UART.c **** #endif /* (UART_XB_INTERNAL_TX_SW_BUFFER) */
  57:Generated_Source\PSoC4/UART_XB_SPI_UART.c **** 
  58:Generated_Source\PSoC4/UART_XB_SPI_UART.c **** 
  59:Generated_Source\PSoC4/UART_XB_SPI_UART.c **** #if(UART_XB_RX_DIRECTION)
  60:Generated_Source\PSoC4/UART_XB_SPI_UART.c ****     /*******************************************************************************
  61:Generated_Source\PSoC4/UART_XB_SPI_UART.c ****     * Function Name: UART_XB_SpiUartReadRxData
  62:Generated_Source\PSoC4/UART_XB_SPI_UART.c ****     ****************************************************************************//**
  63:Generated_Source\PSoC4/UART_XB_SPI_UART.c ****     *
  64:Generated_Source\PSoC4/UART_XB_SPI_UART.c ****     *  Retrieves the next data element from the receive buffer.
  65:Generated_Source\PSoC4/UART_XB_SPI_UART.c ****     *   - RX software buffer is disabled: Returns data element retrieved from
  66:Generated_Source\PSoC4/UART_XB_SPI_UART.c ****     *     RX FIFO. Undefined data will be returned if the RX FIFO is empty.
  67:Generated_Source\PSoC4/UART_XB_SPI_UART.c ****     *   - RX software buffer is enabled: Returns data element from the software
  68:Generated_Source\PSoC4/UART_XB_SPI_UART.c ****     *     receive buffer. Zero value is returned if the software receive buffer
  69:Generated_Source\PSoC4/UART_XB_SPI_UART.c ****     *     is empty.
  70:Generated_Source\PSoC4/UART_XB_SPI_UART.c ****     *
  71:Generated_Source\PSoC4/UART_XB_SPI_UART.c ****     * \return
  72:Generated_Source\PSoC4/UART_XB_SPI_UART.c ****     *  Next data element from the receive buffer. 
  73:Generated_Source\PSoC4/UART_XB_SPI_UART.c ****     *  The amount of data bits to be received depends on RX data bits selection 
  74:Generated_Source\PSoC4/UART_XB_SPI_UART.c ****     *  (the data bit counting starts from LSB of return value).
  75:Generated_Source\PSoC4/UART_XB_SPI_UART.c ****     *
  76:Generated_Source\PSoC4/UART_XB_SPI_UART.c ****     * \globalvars
  77:Generated_Source\PSoC4/UART_XB_SPI_UART.c ****     *  UART_XB_rxBufferHead - the start index to put data into the 
  78:Generated_Source\PSoC4/UART_XB_SPI_UART.c ****     *  software receive buffer.
  79:Generated_Source\PSoC4/UART_XB_SPI_UART.c ****     *  UART_XB_rxBufferTail - the start index to get data from the 
  80:Generated_Source\PSoC4/UART_XB_SPI_UART.c ****     *  software receive buffer.
ARM GAS  C:\Users\Petro\AppData\Local\Temp\ccHyM4Id.s 			page 3


  81:Generated_Source\PSoC4/UART_XB_SPI_UART.c ****     *
  82:Generated_Source\PSoC4/UART_XB_SPI_UART.c ****     *******************************************************************************/
  83:Generated_Source\PSoC4/UART_XB_SPI_UART.c ****     uint32 UART_XB_SpiUartReadRxData(void)
  84:Generated_Source\PSoC4/UART_XB_SPI_UART.c ****     {
  35              		.loc 1 84 0
  36              		.cfi_startproc
  37              		@ args = 0, pretend = 0, frame = 8
  38              		@ frame_needed = 1, uses_anonymous_args = 0
  39 0000 80B5     		push	{r7, lr}
  40              		.cfi_def_cfa_offset 8
  41              		.cfi_offset 7, -8
  42              		.cfi_offset 14, -4
  43 0002 82B0     		sub	sp, sp, #8
  44              		.cfi_def_cfa_offset 16
  45 0004 00AF     		add	r7, sp, #0
  46              		.cfi_def_cfa_register 7
  85:Generated_Source\PSoC4/UART_XB_SPI_UART.c ****         uint32 rxData = 0u;
  47              		.loc 1 85 0
  48 0006 0023     		movs	r3, #0
  49 0008 7B60     		str	r3, [r7, #4]
  86:Generated_Source\PSoC4/UART_XB_SPI_UART.c **** 
  87:Generated_Source\PSoC4/UART_XB_SPI_UART.c ****     #if (UART_XB_INTERNAL_RX_SW_BUFFER_CONST)
  88:Generated_Source\PSoC4/UART_XB_SPI_UART.c ****         uint32 locTail;
  89:Generated_Source\PSoC4/UART_XB_SPI_UART.c ****     #endif /* (UART_XB_INTERNAL_RX_SW_BUFFER_CONST) */
  90:Generated_Source\PSoC4/UART_XB_SPI_UART.c **** 
  91:Generated_Source\PSoC4/UART_XB_SPI_UART.c ****         #if (UART_XB_CHECK_RX_SW_BUFFER)
  92:Generated_Source\PSoC4/UART_XB_SPI_UART.c ****         {
  93:Generated_Source\PSoC4/UART_XB_SPI_UART.c ****             if (UART_XB_rxBufferHead != UART_XB_rxBufferTail)
  50              		.loc 1 93 0
  51 000a 0E4B     		ldr	r3, .L5
  52 000c 1A68     		ldr	r2, [r3]
  53 000e 0E4B     		ldr	r3, .L5+4
  54 0010 1B68     		ldr	r3, [r3]
  55 0012 9A42     		cmp	r2, r3
  56 0014 11D0     		beq	.L2
  94:Generated_Source\PSoC4/UART_XB_SPI_UART.c ****             {
  95:Generated_Source\PSoC4/UART_XB_SPI_UART.c ****                 /* There is data in RX software buffer */
  96:Generated_Source\PSoC4/UART_XB_SPI_UART.c **** 
  97:Generated_Source\PSoC4/UART_XB_SPI_UART.c ****                 /* Calculate index to read from */
  98:Generated_Source\PSoC4/UART_XB_SPI_UART.c ****                 locTail = (UART_XB_rxBufferTail + 1u);
  57              		.loc 1 98 0
  58 0016 0C4B     		ldr	r3, .L5+4
  59 0018 1B68     		ldr	r3, [r3]
  60 001a 0133     		adds	r3, r3, #1
  61 001c 3B60     		str	r3, [r7]
  99:Generated_Source\PSoC4/UART_XB_SPI_UART.c **** 
 100:Generated_Source\PSoC4/UART_XB_SPI_UART.c ****                 if (UART_XB_INTERNAL_RX_BUFFER_SIZE == locTail)
  62              		.loc 1 100 0
  63 001e 3B68     		ldr	r3, [r7]
  64 0020 652B     		cmp	r3, #101
  65 0022 01D1     		bne	.L3
 101:Generated_Source\PSoC4/UART_XB_SPI_UART.c ****                 {
 102:Generated_Source\PSoC4/UART_XB_SPI_UART.c ****                     locTail = 0u;
  66              		.loc 1 102 0
  67 0024 0023     		movs	r3, #0
  68 0026 3B60     		str	r3, [r7]
  69              	.L3:
ARM GAS  C:\Users\Petro\AppData\Local\Temp\ccHyM4Id.s 			page 4


 103:Generated_Source\PSoC4/UART_XB_SPI_UART.c ****                 }
 104:Generated_Source\PSoC4/UART_XB_SPI_UART.c **** 
 105:Generated_Source\PSoC4/UART_XB_SPI_UART.c ****                 /* Get data from RX software buffer */
 106:Generated_Source\PSoC4/UART_XB_SPI_UART.c ****                 rxData = UART_XB_GetWordFromRxBuffer(locTail);
  70              		.loc 1 106 0
  71 0028 084A     		ldr	r2, .L5+8
  72 002a 3B68     		ldr	r3, [r7]
  73 002c D318     		adds	r3, r2, r3
  74 002e 1B78     		ldrb	r3, [r3]
  75 0030 DBB2     		uxtb	r3, r3
  76 0032 7B60     		str	r3, [r7, #4]
 107:Generated_Source\PSoC4/UART_XB_SPI_UART.c **** 
 108:Generated_Source\PSoC4/UART_XB_SPI_UART.c ****                 /* Change index in the buffer */
 109:Generated_Source\PSoC4/UART_XB_SPI_UART.c ****                 UART_XB_rxBufferTail = locTail;
  77              		.loc 1 109 0
  78 0034 044B     		ldr	r3, .L5+4
  79 0036 3A68     		ldr	r2, [r7]
  80 0038 1A60     		str	r2, [r3]
  81              	.L2:
 110:Generated_Source\PSoC4/UART_XB_SPI_UART.c **** 
 111:Generated_Source\PSoC4/UART_XB_SPI_UART.c ****                 #if (UART_XB_CHECK_UART_RTS_CONTROL_FLOW)
 112:Generated_Source\PSoC4/UART_XB_SPI_UART.c ****                 {
 113:Generated_Source\PSoC4/UART_XB_SPI_UART.c ****                     /* Check if RX Not Empty is disabled in the interrupt */
 114:Generated_Source\PSoC4/UART_XB_SPI_UART.c ****                     if (0u == (UART_XB_INTR_RX_MASK_REG & UART_XB_INTR_RX_NOT_EMPTY))
 115:Generated_Source\PSoC4/UART_XB_SPI_UART.c ****                     {
 116:Generated_Source\PSoC4/UART_XB_SPI_UART.c ****                         /* Enable RX Not Empty interrupt source to continue
 117:Generated_Source\PSoC4/UART_XB_SPI_UART.c ****                         * receiving data into software buffer.
 118:Generated_Source\PSoC4/UART_XB_SPI_UART.c ****                         */
 119:Generated_Source\PSoC4/UART_XB_SPI_UART.c ****                         UART_XB_INTR_RX_MASK_REG |= UART_XB_INTR_RX_NOT_EMPTY;
 120:Generated_Source\PSoC4/UART_XB_SPI_UART.c ****                     }
 121:Generated_Source\PSoC4/UART_XB_SPI_UART.c ****                 }
 122:Generated_Source\PSoC4/UART_XB_SPI_UART.c ****                 #endif
 123:Generated_Source\PSoC4/UART_XB_SPI_UART.c **** 
 124:Generated_Source\PSoC4/UART_XB_SPI_UART.c ****             }
 125:Generated_Source\PSoC4/UART_XB_SPI_UART.c ****         }
 126:Generated_Source\PSoC4/UART_XB_SPI_UART.c ****         #else
 127:Generated_Source\PSoC4/UART_XB_SPI_UART.c ****         {
 128:Generated_Source\PSoC4/UART_XB_SPI_UART.c ****             /* Read data from RX FIFO */
 129:Generated_Source\PSoC4/UART_XB_SPI_UART.c ****             rxData = UART_XB_RX_FIFO_RD_REG;
 130:Generated_Source\PSoC4/UART_XB_SPI_UART.c ****         }
 131:Generated_Source\PSoC4/UART_XB_SPI_UART.c ****         #endif
 132:Generated_Source\PSoC4/UART_XB_SPI_UART.c **** 
 133:Generated_Source\PSoC4/UART_XB_SPI_UART.c ****         return (rxData);
  82              		.loc 1 133 0
  83 003a 7B68     		ldr	r3, [r7, #4]
 134:Generated_Source\PSoC4/UART_XB_SPI_UART.c ****     }
  84              		.loc 1 134 0
  85 003c 1800     		movs	r0, r3
  86 003e BD46     		mov	sp, r7
  87 0040 02B0     		add	sp, sp, #8
  88              		@ sp needed
  89 0042 80BD     		pop	{r7, pc}
  90              	.L6:
  91              		.align	2
  92              	.L5:
  93 0044 00000000 		.word	UART_XB_rxBufferHead
  94 0048 00000000 		.word	UART_XB_rxBufferTail
ARM GAS  C:\Users\Petro\AppData\Local\Temp\ccHyM4Id.s 			page 5


  95 004c 00000000 		.word	UART_XB_rxBufferInternal
  96              		.cfi_endproc
  97              	.LFE2:
  98              		.size	UART_XB_SpiUartReadRxData, .-UART_XB_SpiUartReadRxData
  99              		.section	.text.UART_XB_SpiUartGetRxBufferSize,"ax",%progbits
 100              		.align	2
 101              		.global	UART_XB_SpiUartGetRxBufferSize
 102              		.code	16
 103              		.thumb_func
 104              		.type	UART_XB_SpiUartGetRxBufferSize, %function
 105              	UART_XB_SpiUartGetRxBufferSize:
 106              	.LFB3:
 135:Generated_Source\PSoC4/UART_XB_SPI_UART.c **** 
 136:Generated_Source\PSoC4/UART_XB_SPI_UART.c **** 
 137:Generated_Source\PSoC4/UART_XB_SPI_UART.c ****     /*******************************************************************************
 138:Generated_Source\PSoC4/UART_XB_SPI_UART.c ****     * Function Name: UART_XB_SpiUartGetRxBufferSize
 139:Generated_Source\PSoC4/UART_XB_SPI_UART.c ****     ****************************************************************************//**
 140:Generated_Source\PSoC4/UART_XB_SPI_UART.c ****     *
 141:Generated_Source\PSoC4/UART_XB_SPI_UART.c ****     *  Returns the number of received data elements in the receive buffer.
 142:Generated_Source\PSoC4/UART_XB_SPI_UART.c ****     *   - RX software buffer disabled: returns the number of used entries in
 143:Generated_Source\PSoC4/UART_XB_SPI_UART.c ****     *     RX FIFO.
 144:Generated_Source\PSoC4/UART_XB_SPI_UART.c ****     *   - RX software buffer enabled: returns the number of elements which were
 145:Generated_Source\PSoC4/UART_XB_SPI_UART.c ****     *     placed in the receive buffer. This does not include the hardware RX FIFO.
 146:Generated_Source\PSoC4/UART_XB_SPI_UART.c ****     *
 147:Generated_Source\PSoC4/UART_XB_SPI_UART.c ****     * \return
 148:Generated_Source\PSoC4/UART_XB_SPI_UART.c ****     *  Number of received data elements.
 149:Generated_Source\PSoC4/UART_XB_SPI_UART.c ****     *
 150:Generated_Source\PSoC4/UART_XB_SPI_UART.c ****     * \globalvars
 151:Generated_Source\PSoC4/UART_XB_SPI_UART.c ****     *  UART_XB_rxBufferHead - the start index to put data into the 
 152:Generated_Source\PSoC4/UART_XB_SPI_UART.c ****     *  software receive buffer.
 153:Generated_Source\PSoC4/UART_XB_SPI_UART.c ****     *  UART_XB_rxBufferTail - the start index to get data from the 
 154:Generated_Source\PSoC4/UART_XB_SPI_UART.c ****     *  software receive buffer.
 155:Generated_Source\PSoC4/UART_XB_SPI_UART.c ****     *
 156:Generated_Source\PSoC4/UART_XB_SPI_UART.c ****     *******************************************************************************/
 157:Generated_Source\PSoC4/UART_XB_SPI_UART.c ****     uint32 UART_XB_SpiUartGetRxBufferSize(void)
 158:Generated_Source\PSoC4/UART_XB_SPI_UART.c ****     {
 107              		.loc 1 158 0
 108              		.cfi_startproc
 109              		@ args = 0, pretend = 0, frame = 8
 110              		@ frame_needed = 1, uses_anonymous_args = 0
 111 0000 80B5     		push	{r7, lr}
 112              		.cfi_def_cfa_offset 8
 113              		.cfi_offset 7, -8
 114              		.cfi_offset 14, -4
 115 0002 82B0     		sub	sp, sp, #8
 116              		.cfi_def_cfa_offset 16
 117 0004 00AF     		add	r7, sp, #0
 118              		.cfi_def_cfa_register 7
 159:Generated_Source\PSoC4/UART_XB_SPI_UART.c ****         uint32 size;
 160:Generated_Source\PSoC4/UART_XB_SPI_UART.c ****     #if (UART_XB_INTERNAL_RX_SW_BUFFER_CONST)
 161:Generated_Source\PSoC4/UART_XB_SPI_UART.c ****         uint32 locHead;
 162:Generated_Source\PSoC4/UART_XB_SPI_UART.c ****     #endif /* (UART_XB_INTERNAL_RX_SW_BUFFER_CONST) */
 163:Generated_Source\PSoC4/UART_XB_SPI_UART.c **** 
 164:Generated_Source\PSoC4/UART_XB_SPI_UART.c ****         #if (UART_XB_CHECK_RX_SW_BUFFER)
 165:Generated_Source\PSoC4/UART_XB_SPI_UART.c ****         {
 166:Generated_Source\PSoC4/UART_XB_SPI_UART.c ****             locHead = UART_XB_rxBufferHead;
 119              		.loc 1 166 0
ARM GAS  C:\Users\Petro\AppData\Local\Temp\ccHyM4Id.s 			page 6


 120 0006 0C4B     		ldr	r3, .L11
 121 0008 1B68     		ldr	r3, [r3]
 122 000a 3B60     		str	r3, [r7]
 167:Generated_Source\PSoC4/UART_XB_SPI_UART.c **** 
 168:Generated_Source\PSoC4/UART_XB_SPI_UART.c ****             if(locHead >= UART_XB_rxBufferTail)
 123              		.loc 1 168 0
 124 000c 0B4B     		ldr	r3, .L11+4
 125 000e 1B68     		ldr	r3, [r3]
 126 0010 3A68     		ldr	r2, [r7]
 127 0012 9A42     		cmp	r2, r3
 128 0014 05D3     		bcc	.L8
 169:Generated_Source\PSoC4/UART_XB_SPI_UART.c ****             {
 170:Generated_Source\PSoC4/UART_XB_SPI_UART.c ****                 size = (locHead - UART_XB_rxBufferTail);
 129              		.loc 1 170 0
 130 0016 094B     		ldr	r3, .L11+4
 131 0018 1B68     		ldr	r3, [r3]
 132 001a 3A68     		ldr	r2, [r7]
 133 001c D31A     		subs	r3, r2, r3
 134 001e 7B60     		str	r3, [r7, #4]
 135 0020 05E0     		b	.L9
 136              	.L8:
 171:Generated_Source\PSoC4/UART_XB_SPI_UART.c ****             }
 172:Generated_Source\PSoC4/UART_XB_SPI_UART.c ****             else
 173:Generated_Source\PSoC4/UART_XB_SPI_UART.c ****             {
 174:Generated_Source\PSoC4/UART_XB_SPI_UART.c ****                 size = (locHead + (UART_XB_INTERNAL_RX_BUFFER_SIZE - UART_XB_rxBufferTail));
 137              		.loc 1 174 0
 138 0022 064B     		ldr	r3, .L11+4
 139 0024 1B68     		ldr	r3, [r3]
 140 0026 3A68     		ldr	r2, [r7]
 141 0028 D31A     		subs	r3, r2, r3
 142 002a 6533     		adds	r3, r3, #101
 143 002c 7B60     		str	r3, [r7, #4]
 144              	.L9:
 175:Generated_Source\PSoC4/UART_XB_SPI_UART.c ****             }
 176:Generated_Source\PSoC4/UART_XB_SPI_UART.c ****         }
 177:Generated_Source\PSoC4/UART_XB_SPI_UART.c ****         #else
 178:Generated_Source\PSoC4/UART_XB_SPI_UART.c ****         {
 179:Generated_Source\PSoC4/UART_XB_SPI_UART.c ****             size = UART_XB_GET_RX_FIFO_ENTRIES;
 180:Generated_Source\PSoC4/UART_XB_SPI_UART.c ****         }
 181:Generated_Source\PSoC4/UART_XB_SPI_UART.c ****         #endif
 182:Generated_Source\PSoC4/UART_XB_SPI_UART.c **** 
 183:Generated_Source\PSoC4/UART_XB_SPI_UART.c ****         return (size);
 145              		.loc 1 183 0
 146 002e 7B68     		ldr	r3, [r7, #4]
 184:Generated_Source\PSoC4/UART_XB_SPI_UART.c ****     }
 147              		.loc 1 184 0
 148 0030 1800     		movs	r0, r3
 149 0032 BD46     		mov	sp, r7
 150 0034 02B0     		add	sp, sp, #8
 151              		@ sp needed
 152 0036 80BD     		pop	{r7, pc}
 153              	.L12:
 154              		.align	2
 155              	.L11:
 156 0038 00000000 		.word	UART_XB_rxBufferHead
 157 003c 00000000 		.word	UART_XB_rxBufferTail
 158              		.cfi_endproc
ARM GAS  C:\Users\Petro\AppData\Local\Temp\ccHyM4Id.s 			page 7


 159              	.LFE3:
 160              		.size	UART_XB_SpiUartGetRxBufferSize, .-UART_XB_SpiUartGetRxBufferSize
 161              		.section	.text.UART_XB_SpiUartClearRxBuffer,"ax",%progbits
 162              		.align	2
 163              		.global	UART_XB_SpiUartClearRxBuffer
 164              		.code	16
 165              		.thumb_func
 166              		.type	UART_XB_SpiUartClearRxBuffer, %function
 167              	UART_XB_SpiUartClearRxBuffer:
 168              	.LFB4:
 185:Generated_Source\PSoC4/UART_XB_SPI_UART.c **** 
 186:Generated_Source\PSoC4/UART_XB_SPI_UART.c **** 
 187:Generated_Source\PSoC4/UART_XB_SPI_UART.c ****     /*******************************************************************************
 188:Generated_Source\PSoC4/UART_XB_SPI_UART.c ****     * Function Name: UART_XB_SpiUartClearRxBuffer
 189:Generated_Source\PSoC4/UART_XB_SPI_UART.c ****     ****************************************************************************//**
 190:Generated_Source\PSoC4/UART_XB_SPI_UART.c ****     *
 191:Generated_Source\PSoC4/UART_XB_SPI_UART.c ****     *  Clears the receive buffer and RX FIFO.
 192:Generated_Source\PSoC4/UART_XB_SPI_UART.c ****     *
 193:Generated_Source\PSoC4/UART_XB_SPI_UART.c ****     * \globalvars
 194:Generated_Source\PSoC4/UART_XB_SPI_UART.c ****     *  UART_XB_rxBufferHead - the start index to put data into the 
 195:Generated_Source\PSoC4/UART_XB_SPI_UART.c ****     *  software receive buffer.
 196:Generated_Source\PSoC4/UART_XB_SPI_UART.c ****     *  UART_XB_rxBufferTail - the start index to get data from the 
 197:Generated_Source\PSoC4/UART_XB_SPI_UART.c ****     *  software receive buffer.
 198:Generated_Source\PSoC4/UART_XB_SPI_UART.c ****     *
 199:Generated_Source\PSoC4/UART_XB_SPI_UART.c ****     *******************************************************************************/
 200:Generated_Source\PSoC4/UART_XB_SPI_UART.c ****     void UART_XB_SpiUartClearRxBuffer(void)
 201:Generated_Source\PSoC4/UART_XB_SPI_UART.c ****     {
 169              		.loc 1 201 0
 170              		.cfi_startproc
 171              		@ args = 0, pretend = 0, frame = 0
 172              		@ frame_needed = 1, uses_anonymous_args = 0
 173 0000 80B5     		push	{r7, lr}
 174              		.cfi_def_cfa_offset 8
 175              		.cfi_offset 7, -8
 176              		.cfi_offset 14, -4
 177 0002 00AF     		add	r7, sp, #0
 178              		.cfi_def_cfa_register 7
 202:Generated_Source\PSoC4/UART_XB_SPI_UART.c ****         #if (UART_XB_CHECK_RX_SW_BUFFER)
 203:Generated_Source\PSoC4/UART_XB_SPI_UART.c ****         {
 204:Generated_Source\PSoC4/UART_XB_SPI_UART.c ****             /* Lock from component interruption */
 205:Generated_Source\PSoC4/UART_XB_SPI_UART.c ****             UART_XB_DisableInt();
 179              		.loc 1 205 0
 180 0004 0920     		movs	r0, #9
 181 0006 FFF7FEFF 		bl	CyIntDisable
 206:Generated_Source\PSoC4/UART_XB_SPI_UART.c **** 
 207:Generated_Source\PSoC4/UART_XB_SPI_UART.c ****             /* Flush RX software buffer */
 208:Generated_Source\PSoC4/UART_XB_SPI_UART.c ****             UART_XB_rxBufferHead = UART_XB_rxBufferTail;
 182              		.loc 1 208 0
 183 000a 0E4B     		ldr	r3, .L14
 184 000c 1A68     		ldr	r2, [r3]
 185 000e 0E4B     		ldr	r3, .L14+4
 186 0010 1A60     		str	r2, [r3]
 209:Generated_Source\PSoC4/UART_XB_SPI_UART.c ****             UART_XB_rxBufferOverflow = 0u;
 187              		.loc 1 209 0
 188 0012 0E4B     		ldr	r3, .L14+8
 189 0014 0022     		movs	r2, #0
 190 0016 1A70     		strb	r2, [r3]
ARM GAS  C:\Users\Petro\AppData\Local\Temp\ccHyM4Id.s 			page 8


 210:Generated_Source\PSoC4/UART_XB_SPI_UART.c **** 
 211:Generated_Source\PSoC4/UART_XB_SPI_UART.c ****             UART_XB_CLEAR_RX_FIFO;
 191              		.loc 1 211 0
 192 0018 0D4B     		ldr	r3, .L14+12
 193 001a 0D4A     		ldr	r2, .L14+12
 194 001c 1268     		ldr	r2, [r2]
 195 001e 8021     		movs	r1, #128
 196 0020 4902     		lsls	r1, r1, #9
 197 0022 0A43     		orrs	r2, r1
 198 0024 1A60     		str	r2, [r3]
 199 0026 0A4B     		ldr	r3, .L14+12
 200 0028 094A     		ldr	r2, .L14+12
 201 002a 1268     		ldr	r2, [r2]
 202 002c 0949     		ldr	r1, .L14+16
 203 002e 0A40     		ands	r2, r1
 204 0030 1A60     		str	r2, [r3]
 212:Generated_Source\PSoC4/UART_XB_SPI_UART.c ****             UART_XB_ClearRxInterruptSource(UART_XB_INTR_RX_ALL);
 205              		.loc 1 212 0
 206 0032 094B     		ldr	r3, .L14+20
 207 0034 094A     		ldr	r2, .L14+24
 208 0036 1A60     		str	r2, [r3]
 213:Generated_Source\PSoC4/UART_XB_SPI_UART.c **** 
 214:Generated_Source\PSoC4/UART_XB_SPI_UART.c ****             #if (UART_XB_CHECK_UART_RTS_CONTROL_FLOW)
 215:Generated_Source\PSoC4/UART_XB_SPI_UART.c ****             {
 216:Generated_Source\PSoC4/UART_XB_SPI_UART.c ****                 /* Enable RX Not Empty interrupt source to continue receiving
 217:Generated_Source\PSoC4/UART_XB_SPI_UART.c ****                 * data into software buffer.
 218:Generated_Source\PSoC4/UART_XB_SPI_UART.c ****                 */
 219:Generated_Source\PSoC4/UART_XB_SPI_UART.c ****                 UART_XB_INTR_RX_MASK_REG |= UART_XB_INTR_RX_NOT_EMPTY;
 220:Generated_Source\PSoC4/UART_XB_SPI_UART.c ****             }
 221:Generated_Source\PSoC4/UART_XB_SPI_UART.c ****             #endif
 222:Generated_Source\PSoC4/UART_XB_SPI_UART.c ****             
 223:Generated_Source\PSoC4/UART_XB_SPI_UART.c ****             /* Release lock */
 224:Generated_Source\PSoC4/UART_XB_SPI_UART.c ****             UART_XB_EnableInt();
 209              		.loc 1 224 0
 210 0038 0920     		movs	r0, #9
 211 003a FFF7FEFF 		bl	CyIntEnable
 225:Generated_Source\PSoC4/UART_XB_SPI_UART.c ****         }
 226:Generated_Source\PSoC4/UART_XB_SPI_UART.c ****         #else
 227:Generated_Source\PSoC4/UART_XB_SPI_UART.c ****         {
 228:Generated_Source\PSoC4/UART_XB_SPI_UART.c ****             UART_XB_CLEAR_RX_FIFO;
 229:Generated_Source\PSoC4/UART_XB_SPI_UART.c ****         }
 230:Generated_Source\PSoC4/UART_XB_SPI_UART.c ****         #endif
 231:Generated_Source\PSoC4/UART_XB_SPI_UART.c ****     }
 212              		.loc 1 231 0
 213 003e C046     		nop
 214 0040 BD46     		mov	sp, r7
 215              		@ sp needed
 216 0042 80BD     		pop	{r7, pc}
 217              	.L15:
 218              		.align	2
 219              	.L14:
 220 0044 00000000 		.word	UART_XB_rxBufferTail
 221 0048 00000000 		.word	UART_XB_rxBufferHead
 222 004c 00000000 		.word	UART_XB_rxBufferOverflow
 223 0050 04032440 		.word	1076101892
 224 0054 FFFFFEFF 		.word	-65537
 225 0058 C00F2440 		.word	1076105152
ARM GAS  C:\Users\Petro\AppData\Local\Temp\ccHyM4Id.s 			page 9


 226 005c ED0F0000 		.word	4077
 227              		.cfi_endproc
 228              	.LFE4:
 229              		.size	UART_XB_SpiUartClearRxBuffer, .-UART_XB_SpiUartClearRxBuffer
 230              		.section	.text.UART_XB_SpiUartWriteTxData,"ax",%progbits
 231              		.align	2
 232              		.global	UART_XB_SpiUartWriteTxData
 233              		.code	16
 234              		.thumb_func
 235              		.type	UART_XB_SpiUartWriteTxData, %function
 236              	UART_XB_SpiUartWriteTxData:
 237              	.LFB5:
 232:Generated_Source\PSoC4/UART_XB_SPI_UART.c **** 
 233:Generated_Source\PSoC4/UART_XB_SPI_UART.c **** #endif /* (UART_XB_RX_DIRECTION) */
 234:Generated_Source\PSoC4/UART_XB_SPI_UART.c **** 
 235:Generated_Source\PSoC4/UART_XB_SPI_UART.c **** 
 236:Generated_Source\PSoC4/UART_XB_SPI_UART.c **** #if(UART_XB_TX_DIRECTION)
 237:Generated_Source\PSoC4/UART_XB_SPI_UART.c ****     /*******************************************************************************
 238:Generated_Source\PSoC4/UART_XB_SPI_UART.c ****     * Function Name: UART_XB_SpiUartWriteTxData
 239:Generated_Source\PSoC4/UART_XB_SPI_UART.c ****     ****************************************************************************//**
 240:Generated_Source\PSoC4/UART_XB_SPI_UART.c ****     *
 241:Generated_Source\PSoC4/UART_XB_SPI_UART.c ****     *  Places a data entry into the transmit buffer to be sent at the next available
 242:Generated_Source\PSoC4/UART_XB_SPI_UART.c ****     *  bus time.
 243:Generated_Source\PSoC4/UART_XB_SPI_UART.c ****     *  This function is blocking and waits until there is space available to put the
 244:Generated_Source\PSoC4/UART_XB_SPI_UART.c ****     *  requested data in the transmit buffer.
 245:Generated_Source\PSoC4/UART_XB_SPI_UART.c ****     *
 246:Generated_Source\PSoC4/UART_XB_SPI_UART.c ****     *  \param txDataByte: the data to be transmitted.
 247:Generated_Source\PSoC4/UART_XB_SPI_UART.c ****     *   The amount of data bits to be transmitted depends on TX data bits selection 
 248:Generated_Source\PSoC4/UART_XB_SPI_UART.c ****     *   (the data bit counting starts from LSB of txDataByte).
 249:Generated_Source\PSoC4/UART_XB_SPI_UART.c ****     *
 250:Generated_Source\PSoC4/UART_XB_SPI_UART.c ****     * \globalvars
 251:Generated_Source\PSoC4/UART_XB_SPI_UART.c ****     *  UART_XB_txBufferHead - the start index to put data into the 
 252:Generated_Source\PSoC4/UART_XB_SPI_UART.c ****     *  software transmit buffer.
 253:Generated_Source\PSoC4/UART_XB_SPI_UART.c ****     *  UART_XB_txBufferTail - start index to get data from the software
 254:Generated_Source\PSoC4/UART_XB_SPI_UART.c ****     *  transmit buffer.
 255:Generated_Source\PSoC4/UART_XB_SPI_UART.c ****     *
 256:Generated_Source\PSoC4/UART_XB_SPI_UART.c ****     *******************************************************************************/
 257:Generated_Source\PSoC4/UART_XB_SPI_UART.c ****     void UART_XB_SpiUartWriteTxData(uint32 txData)
 258:Generated_Source\PSoC4/UART_XB_SPI_UART.c ****     {
 238              		.loc 1 258 0
 239              		.cfi_startproc
 240              		@ args = 0, pretend = 0, frame = 16
 241              		@ frame_needed = 1, uses_anonymous_args = 0
 242 0000 80B5     		push	{r7, lr}
 243              		.cfi_def_cfa_offset 8
 244              		.cfi_offset 7, -8
 245              		.cfi_offset 14, -4
 246 0002 84B0     		sub	sp, sp, #16
 247              		.cfi_def_cfa_offset 24
 248 0004 00AF     		add	r7, sp, #0
 249              		.cfi_def_cfa_register 7
 250 0006 7860     		str	r0, [r7, #4]
 259:Generated_Source\PSoC4/UART_XB_SPI_UART.c ****     #if (UART_XB_INTERNAL_TX_SW_BUFFER_CONST)
 260:Generated_Source\PSoC4/UART_XB_SPI_UART.c ****         uint32 locHead;
 261:Generated_Source\PSoC4/UART_XB_SPI_UART.c ****     #endif /* (UART_XB_INTERNAL_TX_SW_BUFFER_CONST) */
 262:Generated_Source\PSoC4/UART_XB_SPI_UART.c **** 
 263:Generated_Source\PSoC4/UART_XB_SPI_UART.c ****         #if (UART_XB_CHECK_TX_SW_BUFFER)
ARM GAS  C:\Users\Petro\AppData\Local\Temp\ccHyM4Id.s 			page 10


 264:Generated_Source\PSoC4/UART_XB_SPI_UART.c ****         {
 265:Generated_Source\PSoC4/UART_XB_SPI_UART.c ****             /* Put data directly into the TX FIFO */
 266:Generated_Source\PSoC4/UART_XB_SPI_UART.c ****             if ((UART_XB_txBufferHead == UART_XB_txBufferTail) &&
 251              		.loc 1 266 0
 252 0008 1D4B     		ldr	r3, .L23
 253 000a 1A68     		ldr	r2, [r3]
 254 000c 1D4B     		ldr	r3, .L23+4
 255 000e 1B68     		ldr	r3, [r3]
 256 0010 9A42     		cmp	r2, r3
 257 0012 09D1     		bne	.L17
 267:Generated_Source\PSoC4/UART_XB_SPI_UART.c ****                 (UART_XB_SPI_UART_FIFO_SIZE != UART_XB_GET_TX_FIFO_ENTRIES))
 258              		.loc 1 267 0 discriminator 1
 259 0014 1C4B     		ldr	r3, .L23+8
 260 0016 1B68     		ldr	r3, [r3]
 261 0018 1F22     		movs	r2, #31
 262 001a 1340     		ands	r3, r2
 266:Generated_Source\PSoC4/UART_XB_SPI_UART.c ****                 (UART_XB_SPI_UART_FIFO_SIZE != UART_XB_GET_TX_FIFO_ENTRIES))
 263              		.loc 1 266 0 discriminator 1
 264 001c 102B     		cmp	r3, #16
 265 001e 03D0     		beq	.L17
 268:Generated_Source\PSoC4/UART_XB_SPI_UART.c ****             {
 269:Generated_Source\PSoC4/UART_XB_SPI_UART.c ****                 /* TX software buffer is empty: put data directly in TX FIFO */
 270:Generated_Source\PSoC4/UART_XB_SPI_UART.c ****                 UART_XB_TX_FIFO_WR_REG = txData;
 266              		.loc 1 270 0
 267 0020 1A4B     		ldr	r3, .L23+12
 268 0022 7A68     		ldr	r2, [r7, #4]
 269 0024 1A60     		str	r2, [r3]
 271:Generated_Source\PSoC4/UART_XB_SPI_UART.c ****             }
 272:Generated_Source\PSoC4/UART_XB_SPI_UART.c ****             /* Put data into TX software buffer */
 273:Generated_Source\PSoC4/UART_XB_SPI_UART.c ****             else
 274:Generated_Source\PSoC4/UART_XB_SPI_UART.c ****             {
 275:Generated_Source\PSoC4/UART_XB_SPI_UART.c ****                 /* Head index to put data */
 276:Generated_Source\PSoC4/UART_XB_SPI_UART.c ****                 locHead = (UART_XB_txBufferHead + 1u);
 277:Generated_Source\PSoC4/UART_XB_SPI_UART.c **** 
 278:Generated_Source\PSoC4/UART_XB_SPI_UART.c ****                 /* Adjust TX software buffer index */
 279:Generated_Source\PSoC4/UART_XB_SPI_UART.c ****                 if (UART_XB_TX_BUFFER_SIZE == locHead)
 280:Generated_Source\PSoC4/UART_XB_SPI_UART.c ****                 {
 281:Generated_Source\PSoC4/UART_XB_SPI_UART.c ****                     locHead = 0u;
 282:Generated_Source\PSoC4/UART_XB_SPI_UART.c ****                 }
 283:Generated_Source\PSoC4/UART_XB_SPI_UART.c **** 
 284:Generated_Source\PSoC4/UART_XB_SPI_UART.c ****                 /* Wait for space in TX software buffer */
 285:Generated_Source\PSoC4/UART_XB_SPI_UART.c ****                 while (locHead == UART_XB_txBufferTail)
 286:Generated_Source\PSoC4/UART_XB_SPI_UART.c ****                 {
 287:Generated_Source\PSoC4/UART_XB_SPI_UART.c ****                 }
 288:Generated_Source\PSoC4/UART_XB_SPI_UART.c **** 
 289:Generated_Source\PSoC4/UART_XB_SPI_UART.c ****                 /* TX software buffer has at least one room */
 290:Generated_Source\PSoC4/UART_XB_SPI_UART.c **** 
 291:Generated_Source\PSoC4/UART_XB_SPI_UART.c ****                 /* Clear old status of INTR_TX_NOT_FULL. It sets at the end of transfer when TX FIF
 292:Generated_Source\PSoC4/UART_XB_SPI_UART.c ****                 UART_XB_ClearTxInterruptSource(UART_XB_INTR_TX_NOT_FULL);
 293:Generated_Source\PSoC4/UART_XB_SPI_UART.c **** 
 294:Generated_Source\PSoC4/UART_XB_SPI_UART.c ****                 UART_XB_PutWordInTxBuffer(locHead, txData);
 295:Generated_Source\PSoC4/UART_XB_SPI_UART.c **** 
 296:Generated_Source\PSoC4/UART_XB_SPI_UART.c ****                 UART_XB_txBufferHead = locHead;
 297:Generated_Source\PSoC4/UART_XB_SPI_UART.c **** 
 298:Generated_Source\PSoC4/UART_XB_SPI_UART.c ****                 /* Check if TX Not Full is disabled in interrupt */
 299:Generated_Source\PSoC4/UART_XB_SPI_UART.c ****                 if (0u == (UART_XB_INTR_TX_MASK_REG & UART_XB_INTR_TX_NOT_FULL))
 300:Generated_Source\PSoC4/UART_XB_SPI_UART.c ****                 {
ARM GAS  C:\Users\Petro\AppData\Local\Temp\ccHyM4Id.s 			page 11


 301:Generated_Source\PSoC4/UART_XB_SPI_UART.c ****                     /* Enable TX Not Full interrupt source to transmit from software buffer */
 302:Generated_Source\PSoC4/UART_XB_SPI_UART.c ****                     UART_XB_INTR_TX_MASK_REG |= (uint32) UART_XB_INTR_TX_NOT_FULL;
 303:Generated_Source\PSoC4/UART_XB_SPI_UART.c ****                 }
 304:Generated_Source\PSoC4/UART_XB_SPI_UART.c ****             }
 305:Generated_Source\PSoC4/UART_XB_SPI_UART.c ****         }
 306:Generated_Source\PSoC4/UART_XB_SPI_UART.c ****         #else
 307:Generated_Source\PSoC4/UART_XB_SPI_UART.c ****         {
 308:Generated_Source\PSoC4/UART_XB_SPI_UART.c ****             /* Wait until TX FIFO has space to put data element */
 309:Generated_Source\PSoC4/UART_XB_SPI_UART.c ****             while (UART_XB_SPI_UART_FIFO_SIZE == UART_XB_GET_TX_FIFO_ENTRIES)
 310:Generated_Source\PSoC4/UART_XB_SPI_UART.c ****             {
 311:Generated_Source\PSoC4/UART_XB_SPI_UART.c ****             }
 312:Generated_Source\PSoC4/UART_XB_SPI_UART.c **** 
 313:Generated_Source\PSoC4/UART_XB_SPI_UART.c ****             UART_XB_TX_FIFO_WR_REG = txData;
 314:Generated_Source\PSoC4/UART_XB_SPI_UART.c ****         }
 315:Generated_Source\PSoC4/UART_XB_SPI_UART.c ****         #endif
 316:Generated_Source\PSoC4/UART_XB_SPI_UART.c ****     }
 270              		.loc 1 316 0
 271 0026 26E0     		b	.L21
 272              	.L17:
 276:Generated_Source\PSoC4/UART_XB_SPI_UART.c **** 
 273              		.loc 1 276 0
 274 0028 154B     		ldr	r3, .L23
 275 002a 1B68     		ldr	r3, [r3]
 276 002c 0133     		adds	r3, r3, #1
 277 002e FB60     		str	r3, [r7, #12]
 279:Generated_Source\PSoC4/UART_XB_SPI_UART.c ****                 {
 278              		.loc 1 279 0
 279 0030 FB68     		ldr	r3, [r7, #12]
 280 0032 642B     		cmp	r3, #100
 281 0034 01D1     		bne	.L22
 281:Generated_Source\PSoC4/UART_XB_SPI_UART.c ****                 }
 282              		.loc 1 281 0
 283 0036 0023     		movs	r3, #0
 284 0038 FB60     		str	r3, [r7, #12]
 285              	.L22:
 285:Generated_Source\PSoC4/UART_XB_SPI_UART.c ****                 {
 286              		.loc 1 285 0
 287 003a C046     		nop
 288              	.L20:
 285:Generated_Source\PSoC4/UART_XB_SPI_UART.c ****                 {
 289              		.loc 1 285 0 is_stmt 0 discriminator 1
 290 003c 114B     		ldr	r3, .L23+4
 291 003e 1B68     		ldr	r3, [r3]
 292 0040 FA68     		ldr	r2, [r7, #12]
 293 0042 9A42     		cmp	r2, r3
 294 0044 FAD0     		beq	.L20
 292:Generated_Source\PSoC4/UART_XB_SPI_UART.c **** 
 295              		.loc 1 292 0 is_stmt 1
 296 0046 124B     		ldr	r3, .L23+16
 297 0048 0222     		movs	r2, #2
 298 004a 1A60     		str	r2, [r3]
 294:Generated_Source\PSoC4/UART_XB_SPI_UART.c **** 
 299              		.loc 1 294 0
 300 004c 7B68     		ldr	r3, [r7, #4]
 301 004e D9B2     		uxtb	r1, r3
 302 0050 104A     		ldr	r2, .L23+20
 303 0052 FB68     		ldr	r3, [r7, #12]
ARM GAS  C:\Users\Petro\AppData\Local\Temp\ccHyM4Id.s 			page 12


 304 0054 D318     		adds	r3, r2, r3
 305 0056 0A1C     		adds	r2, r1, #0
 306 0058 1A70     		strb	r2, [r3]
 296:Generated_Source\PSoC4/UART_XB_SPI_UART.c **** 
 307              		.loc 1 296 0
 308 005a 094B     		ldr	r3, .L23
 309 005c FA68     		ldr	r2, [r7, #12]
 310 005e 1A60     		str	r2, [r3]
 299:Generated_Source\PSoC4/UART_XB_SPI_UART.c ****                 {
 311              		.loc 1 299 0
 312 0060 0D4B     		ldr	r3, .L23+24
 313 0062 1B68     		ldr	r3, [r3]
 314 0064 0222     		movs	r2, #2
 315 0066 1340     		ands	r3, r2
 316 0068 05D1     		bne	.L21
 302:Generated_Source\PSoC4/UART_XB_SPI_UART.c ****                 }
 317              		.loc 1 302 0
 318 006a 0B4B     		ldr	r3, .L23+24
 319 006c 0A4A     		ldr	r2, .L23+24
 320 006e 1268     		ldr	r2, [r2]
 321 0070 0221     		movs	r1, #2
 322 0072 0A43     		orrs	r2, r1
 323 0074 1A60     		str	r2, [r3]
 324              	.L21:
 325              		.loc 1 316 0
 326 0076 C046     		nop
 327 0078 BD46     		mov	sp, r7
 328 007a 04B0     		add	sp, sp, #16
 329              		@ sp needed
 330 007c 80BD     		pop	{r7, pc}
 331              	.L24:
 332 007e C046     		.align	2
 333              	.L23:
 334 0080 00000000 		.word	UART_XB_txBufferHead
 335 0084 00000000 		.word	UART_XB_txBufferTail
 336 0088 08022440 		.word	1076101640
 337 008c 40022440 		.word	1076101696
 338 0090 800F2440 		.word	1076105088
 339 0094 00000000 		.word	UART_XB_txBufferInternal
 340 0098 880F2440 		.word	1076105096
 341              		.cfi_endproc
 342              	.LFE5:
 343              		.size	UART_XB_SpiUartWriteTxData, .-UART_XB_SpiUartWriteTxData
 344              		.section	.text.UART_XB_SpiUartPutArray,"ax",%progbits
 345              		.align	2
 346              		.global	UART_XB_SpiUartPutArray
 347              		.code	16
 348              		.thumb_func
 349              		.type	UART_XB_SpiUartPutArray, %function
 350              	UART_XB_SpiUartPutArray:
 351              	.LFB6:
 317:Generated_Source\PSoC4/UART_XB_SPI_UART.c **** 
 318:Generated_Source\PSoC4/UART_XB_SPI_UART.c **** 
 319:Generated_Source\PSoC4/UART_XB_SPI_UART.c ****     /*******************************************************************************
 320:Generated_Source\PSoC4/UART_XB_SPI_UART.c ****     * Function Name: UART_XB_SpiUartPutArray
 321:Generated_Source\PSoC4/UART_XB_SPI_UART.c ****     ****************************************************************************//**
 322:Generated_Source\PSoC4/UART_XB_SPI_UART.c ****     *
ARM GAS  C:\Users\Petro\AppData\Local\Temp\ccHyM4Id.s 			page 13


 323:Generated_Source\PSoC4/UART_XB_SPI_UART.c ****     *  Places an array of data into the transmit buffer to be sent.
 324:Generated_Source\PSoC4/UART_XB_SPI_UART.c ****     *  This function is blocking and waits until there is a space available to put
 325:Generated_Source\PSoC4/UART_XB_SPI_UART.c ****     *  all the requested data in the transmit buffer. The array size can be greater
 326:Generated_Source\PSoC4/UART_XB_SPI_UART.c ****     *  than transmit buffer size.
 327:Generated_Source\PSoC4/UART_XB_SPI_UART.c ****     *
 328:Generated_Source\PSoC4/UART_XB_SPI_UART.c ****     * \param wrBuf: pointer to an array of data to be placed in transmit buffer. 
 329:Generated_Source\PSoC4/UART_XB_SPI_UART.c ****     *  The width of the data to be transmitted depends on TX data width selection 
 330:Generated_Source\PSoC4/UART_XB_SPI_UART.c ****     *  (the data bit counting starts from LSB for each array element).
 331:Generated_Source\PSoC4/UART_XB_SPI_UART.c ****     * \param count: number of data elements to be placed in the transmit buffer.
 332:Generated_Source\PSoC4/UART_XB_SPI_UART.c ****     *
 333:Generated_Source\PSoC4/UART_XB_SPI_UART.c ****     * \globalvars
 334:Generated_Source\PSoC4/UART_XB_SPI_UART.c ****     *  UART_XB_txBufferHead - the start index to put data into the 
 335:Generated_Source\PSoC4/UART_XB_SPI_UART.c ****     *  software transmit buffer.
 336:Generated_Source\PSoC4/UART_XB_SPI_UART.c ****     *  UART_XB_txBufferTail - start index to get data from the software
 337:Generated_Source\PSoC4/UART_XB_SPI_UART.c ****     *  transmit buffer.
 338:Generated_Source\PSoC4/UART_XB_SPI_UART.c ****     *
 339:Generated_Source\PSoC4/UART_XB_SPI_UART.c ****     *******************************************************************************/
 340:Generated_Source\PSoC4/UART_XB_SPI_UART.c ****     void UART_XB_SpiUartPutArray(const uint8 wrBuf[], uint32 count)
 341:Generated_Source\PSoC4/UART_XB_SPI_UART.c ****     {
 352              		.loc 1 341 0
 353              		.cfi_startproc
 354              		@ args = 0, pretend = 0, frame = 16
 355              		@ frame_needed = 1, uses_anonymous_args = 0
 356 0000 80B5     		push	{r7, lr}
 357              		.cfi_def_cfa_offset 8
 358              		.cfi_offset 7, -8
 359              		.cfi_offset 14, -4
 360 0002 84B0     		sub	sp, sp, #16
 361              		.cfi_def_cfa_offset 24
 362 0004 00AF     		add	r7, sp, #0
 363              		.cfi_def_cfa_register 7
 364 0006 7860     		str	r0, [r7, #4]
 365 0008 3960     		str	r1, [r7]
 342:Generated_Source\PSoC4/UART_XB_SPI_UART.c ****         uint32 i;
 343:Generated_Source\PSoC4/UART_XB_SPI_UART.c **** 
 344:Generated_Source\PSoC4/UART_XB_SPI_UART.c ****         for (i=0u; i < count; i++)
 366              		.loc 1 344 0
 367 000a 0023     		movs	r3, #0
 368 000c FB60     		str	r3, [r7, #12]
 369 000e 09E0     		b	.L26
 370              	.L27:
 345:Generated_Source\PSoC4/UART_XB_SPI_UART.c ****         {
 346:Generated_Source\PSoC4/UART_XB_SPI_UART.c ****             UART_XB_SpiUartWriteTxData((uint32) wrBuf[i]);
 371              		.loc 1 346 0 discriminator 3
 372 0010 7A68     		ldr	r2, [r7, #4]
 373 0012 FB68     		ldr	r3, [r7, #12]
 374 0014 D318     		adds	r3, r2, r3
 375 0016 1B78     		ldrb	r3, [r3]
 376 0018 1800     		movs	r0, r3
 377 001a FFF7FEFF 		bl	UART_XB_SpiUartWriteTxData
 344:Generated_Source\PSoC4/UART_XB_SPI_UART.c ****         {
 378              		.loc 1 344 0 discriminator 3
 379 001e FB68     		ldr	r3, [r7, #12]
 380 0020 0133     		adds	r3, r3, #1
 381 0022 FB60     		str	r3, [r7, #12]
 382              	.L26:
 344:Generated_Source\PSoC4/UART_XB_SPI_UART.c ****         {
ARM GAS  C:\Users\Petro\AppData\Local\Temp\ccHyM4Id.s 			page 14


 383              		.loc 1 344 0 is_stmt 0 discriminator 1
 384 0024 FA68     		ldr	r2, [r7, #12]
 385 0026 3B68     		ldr	r3, [r7]
 386 0028 9A42     		cmp	r2, r3
 387 002a F1D3     		bcc	.L27
 347:Generated_Source\PSoC4/UART_XB_SPI_UART.c ****         }
 348:Generated_Source\PSoC4/UART_XB_SPI_UART.c ****     }
 388              		.loc 1 348 0 is_stmt 1
 389 002c C046     		nop
 390 002e BD46     		mov	sp, r7
 391 0030 04B0     		add	sp, sp, #16
 392              		@ sp needed
 393 0032 80BD     		pop	{r7, pc}
 394              		.cfi_endproc
 395              	.LFE6:
 396              		.size	UART_XB_SpiUartPutArray, .-UART_XB_SpiUartPutArray
 397              		.section	.text.UART_XB_SpiUartGetTxBufferSize,"ax",%progbits
 398              		.align	2
 399              		.global	UART_XB_SpiUartGetTxBufferSize
 400              		.code	16
 401              		.thumb_func
 402              		.type	UART_XB_SpiUartGetTxBufferSize, %function
 403              	UART_XB_SpiUartGetTxBufferSize:
 404              	.LFB7:
 349:Generated_Source\PSoC4/UART_XB_SPI_UART.c **** 
 350:Generated_Source\PSoC4/UART_XB_SPI_UART.c **** 
 351:Generated_Source\PSoC4/UART_XB_SPI_UART.c ****     /*******************************************************************************
 352:Generated_Source\PSoC4/UART_XB_SPI_UART.c ****     * Function Name: UART_XB_SpiUartGetTxBufferSize
 353:Generated_Source\PSoC4/UART_XB_SPI_UART.c ****     ****************************************************************************//**
 354:Generated_Source\PSoC4/UART_XB_SPI_UART.c ****     *
 355:Generated_Source\PSoC4/UART_XB_SPI_UART.c ****     *  Returns the number of elements currently in the transmit buffer.
 356:Generated_Source\PSoC4/UART_XB_SPI_UART.c ****     *   - TX software buffer is disabled: returns the number of used entries in
 357:Generated_Source\PSoC4/UART_XB_SPI_UART.c ****     *     TX FIFO.
 358:Generated_Source\PSoC4/UART_XB_SPI_UART.c ****     *   - TX software buffer is enabled: returns the number of elements currently
 359:Generated_Source\PSoC4/UART_XB_SPI_UART.c ****     *     used in the transmit buffer. This number does not include used entries in
 360:Generated_Source\PSoC4/UART_XB_SPI_UART.c ****     *     the TX FIFO. The transmit buffer size is zero until the TX FIFO is
 361:Generated_Source\PSoC4/UART_XB_SPI_UART.c ****     *     not full.
 362:Generated_Source\PSoC4/UART_XB_SPI_UART.c ****     *
 363:Generated_Source\PSoC4/UART_XB_SPI_UART.c ****     * \return
 364:Generated_Source\PSoC4/UART_XB_SPI_UART.c ****     *  Number of data elements ready to transmit.
 365:Generated_Source\PSoC4/UART_XB_SPI_UART.c ****     *
 366:Generated_Source\PSoC4/UART_XB_SPI_UART.c ****     * \globalvars
 367:Generated_Source\PSoC4/UART_XB_SPI_UART.c ****     *  UART_XB_txBufferHead - the start index to put data into the 
 368:Generated_Source\PSoC4/UART_XB_SPI_UART.c ****     *  software transmit buffer.
 369:Generated_Source\PSoC4/UART_XB_SPI_UART.c ****     *  UART_XB_txBufferTail - start index to get data from the software
 370:Generated_Source\PSoC4/UART_XB_SPI_UART.c ****     *  transmit buffer.
 371:Generated_Source\PSoC4/UART_XB_SPI_UART.c ****     *
 372:Generated_Source\PSoC4/UART_XB_SPI_UART.c ****     *******************************************************************************/
 373:Generated_Source\PSoC4/UART_XB_SPI_UART.c ****     uint32 UART_XB_SpiUartGetTxBufferSize(void)
 374:Generated_Source\PSoC4/UART_XB_SPI_UART.c ****     {
 405              		.loc 1 374 0
 406              		.cfi_startproc
 407              		@ args = 0, pretend = 0, frame = 8
 408              		@ frame_needed = 1, uses_anonymous_args = 0
 409 0000 80B5     		push	{r7, lr}
 410              		.cfi_def_cfa_offset 8
 411              		.cfi_offset 7, -8
ARM GAS  C:\Users\Petro\AppData\Local\Temp\ccHyM4Id.s 			page 15


 412              		.cfi_offset 14, -4
 413 0002 82B0     		sub	sp, sp, #8
 414              		.cfi_def_cfa_offset 16
 415 0004 00AF     		add	r7, sp, #0
 416              		.cfi_def_cfa_register 7
 375:Generated_Source\PSoC4/UART_XB_SPI_UART.c ****         uint32 size;
 376:Generated_Source\PSoC4/UART_XB_SPI_UART.c ****     #if (UART_XB_INTERNAL_TX_SW_BUFFER_CONST)
 377:Generated_Source\PSoC4/UART_XB_SPI_UART.c ****         uint32 locTail;
 378:Generated_Source\PSoC4/UART_XB_SPI_UART.c ****     #endif /* (UART_XB_INTERNAL_TX_SW_BUFFER_CONST) */
 379:Generated_Source\PSoC4/UART_XB_SPI_UART.c **** 
 380:Generated_Source\PSoC4/UART_XB_SPI_UART.c ****         #if (UART_XB_CHECK_TX_SW_BUFFER)
 381:Generated_Source\PSoC4/UART_XB_SPI_UART.c ****         {
 382:Generated_Source\PSoC4/UART_XB_SPI_UART.c ****             /* Get current Tail index */
 383:Generated_Source\PSoC4/UART_XB_SPI_UART.c ****             locTail = UART_XB_txBufferTail;
 417              		.loc 1 383 0
 418 0006 0C4B     		ldr	r3, .L32
 419 0008 1B68     		ldr	r3, [r3]
 420 000a 3B60     		str	r3, [r7]
 384:Generated_Source\PSoC4/UART_XB_SPI_UART.c **** 
 385:Generated_Source\PSoC4/UART_XB_SPI_UART.c ****             if (UART_XB_txBufferHead >= locTail)
 421              		.loc 1 385 0
 422 000c 0B4B     		ldr	r3, .L32+4
 423 000e 1A68     		ldr	r2, [r3]
 424 0010 3B68     		ldr	r3, [r7]
 425 0012 9A42     		cmp	r2, r3
 426 0014 05D3     		bcc	.L29
 386:Generated_Source\PSoC4/UART_XB_SPI_UART.c ****             {
 387:Generated_Source\PSoC4/UART_XB_SPI_UART.c ****                 size = (UART_XB_txBufferHead - locTail);
 427              		.loc 1 387 0
 428 0016 094B     		ldr	r3, .L32+4
 429 0018 1A68     		ldr	r2, [r3]
 430 001a 3B68     		ldr	r3, [r7]
 431 001c D31A     		subs	r3, r2, r3
 432 001e 7B60     		str	r3, [r7, #4]
 433 0020 05E0     		b	.L30
 434              	.L29:
 388:Generated_Source\PSoC4/UART_XB_SPI_UART.c ****             }
 389:Generated_Source\PSoC4/UART_XB_SPI_UART.c ****             else
 390:Generated_Source\PSoC4/UART_XB_SPI_UART.c ****             {
 391:Generated_Source\PSoC4/UART_XB_SPI_UART.c ****                 size = (UART_XB_txBufferHead + (UART_XB_TX_BUFFER_SIZE - locTail));
 435              		.loc 1 391 0
 436 0022 064B     		ldr	r3, .L32+4
 437 0024 1A68     		ldr	r2, [r3]
 438 0026 3B68     		ldr	r3, [r7]
 439 0028 D31A     		subs	r3, r2, r3
 440 002a 6433     		adds	r3, r3, #100
 441 002c 7B60     		str	r3, [r7, #4]
 442              	.L30:
 392:Generated_Source\PSoC4/UART_XB_SPI_UART.c ****             }
 393:Generated_Source\PSoC4/UART_XB_SPI_UART.c ****         }
 394:Generated_Source\PSoC4/UART_XB_SPI_UART.c ****         #else
 395:Generated_Source\PSoC4/UART_XB_SPI_UART.c ****         {
 396:Generated_Source\PSoC4/UART_XB_SPI_UART.c ****             size = UART_XB_GET_TX_FIFO_ENTRIES;
 397:Generated_Source\PSoC4/UART_XB_SPI_UART.c ****         }
 398:Generated_Source\PSoC4/UART_XB_SPI_UART.c ****         #endif
 399:Generated_Source\PSoC4/UART_XB_SPI_UART.c **** 
 400:Generated_Source\PSoC4/UART_XB_SPI_UART.c ****         return (size);
ARM GAS  C:\Users\Petro\AppData\Local\Temp\ccHyM4Id.s 			page 16


 443              		.loc 1 400 0
 444 002e 7B68     		ldr	r3, [r7, #4]
 401:Generated_Source\PSoC4/UART_XB_SPI_UART.c ****     }
 445              		.loc 1 401 0
 446 0030 1800     		movs	r0, r3
 447 0032 BD46     		mov	sp, r7
 448 0034 02B0     		add	sp, sp, #8
 449              		@ sp needed
 450 0036 80BD     		pop	{r7, pc}
 451              	.L33:
 452              		.align	2
 453              	.L32:
 454 0038 00000000 		.word	UART_XB_txBufferTail
 455 003c 00000000 		.word	UART_XB_txBufferHead
 456              		.cfi_endproc
 457              	.LFE7:
 458              		.size	UART_XB_SpiUartGetTxBufferSize, .-UART_XB_SpiUartGetTxBufferSize
 459              		.section	.text.UART_XB_SpiUartClearTxBuffer,"ax",%progbits
 460              		.align	2
 461              		.global	UART_XB_SpiUartClearTxBuffer
 462              		.code	16
 463              		.thumb_func
 464              		.type	UART_XB_SpiUartClearTxBuffer, %function
 465              	UART_XB_SpiUartClearTxBuffer:
 466              	.LFB8:
 402:Generated_Source\PSoC4/UART_XB_SPI_UART.c **** 
 403:Generated_Source\PSoC4/UART_XB_SPI_UART.c **** 
 404:Generated_Source\PSoC4/UART_XB_SPI_UART.c ****     /*******************************************************************************
 405:Generated_Source\PSoC4/UART_XB_SPI_UART.c ****     * Function Name: UART_XB_SpiUartClearTxBuffer
 406:Generated_Source\PSoC4/UART_XB_SPI_UART.c ****     ****************************************************************************//**
 407:Generated_Source\PSoC4/UART_XB_SPI_UART.c ****     *
 408:Generated_Source\PSoC4/UART_XB_SPI_UART.c ****     *  Clears the transmit buffer and TX FIFO.
 409:Generated_Source\PSoC4/UART_XB_SPI_UART.c ****     *
 410:Generated_Source\PSoC4/UART_XB_SPI_UART.c ****     * \globalvars
 411:Generated_Source\PSoC4/UART_XB_SPI_UART.c ****     *  UART_XB_txBufferHead - the start index to put data into the 
 412:Generated_Source\PSoC4/UART_XB_SPI_UART.c ****     *  software transmit buffer.
 413:Generated_Source\PSoC4/UART_XB_SPI_UART.c ****     *  UART_XB_txBufferTail - start index to get data from the software
 414:Generated_Source\PSoC4/UART_XB_SPI_UART.c ****     *  transmit buffer.
 415:Generated_Source\PSoC4/UART_XB_SPI_UART.c ****     *
 416:Generated_Source\PSoC4/UART_XB_SPI_UART.c ****     *******************************************************************************/
 417:Generated_Source\PSoC4/UART_XB_SPI_UART.c ****     void UART_XB_SpiUartClearTxBuffer(void)
 418:Generated_Source\PSoC4/UART_XB_SPI_UART.c ****     {
 467              		.loc 1 418 0
 468              		.cfi_startproc
 469              		@ args = 0, pretend = 0, frame = 0
 470              		@ frame_needed = 1, uses_anonymous_args = 0
 471 0000 80B5     		push	{r7, lr}
 472              		.cfi_def_cfa_offset 8
 473              		.cfi_offset 7, -8
 474              		.cfi_offset 14, -4
 475 0002 00AF     		add	r7, sp, #0
 476              		.cfi_def_cfa_register 7
 419:Generated_Source\PSoC4/UART_XB_SPI_UART.c ****         #if (UART_XB_CHECK_TX_SW_BUFFER)
 420:Generated_Source\PSoC4/UART_XB_SPI_UART.c ****         {
 421:Generated_Source\PSoC4/UART_XB_SPI_UART.c ****             /* Lock from component interruption */
 422:Generated_Source\PSoC4/UART_XB_SPI_UART.c ****             UART_XB_DisableInt();
 477              		.loc 1 422 0
ARM GAS  C:\Users\Petro\AppData\Local\Temp\ccHyM4Id.s 			page 17


 478 0004 0920     		movs	r0, #9
 479 0006 FFF7FEFF 		bl	CyIntDisable
 423:Generated_Source\PSoC4/UART_XB_SPI_UART.c **** 
 424:Generated_Source\PSoC4/UART_XB_SPI_UART.c ****             /* Flush TX software buffer */
 425:Generated_Source\PSoC4/UART_XB_SPI_UART.c ****             UART_XB_txBufferHead = UART_XB_txBufferTail;
 480              		.loc 1 425 0
 481 000a 104B     		ldr	r3, .L35
 482 000c 1A68     		ldr	r2, [r3]
 483 000e 104B     		ldr	r3, .L35+4
 484 0010 1A60     		str	r2, [r3]
 426:Generated_Source\PSoC4/UART_XB_SPI_UART.c **** 
 427:Generated_Source\PSoC4/UART_XB_SPI_UART.c ****             UART_XB_INTR_TX_MASK_REG &= (uint32) ~UART_XB_INTR_TX_NOT_FULL;
 485              		.loc 1 427 0
 486 0012 104B     		ldr	r3, .L35+8
 487 0014 0F4A     		ldr	r2, .L35+8
 488 0016 1268     		ldr	r2, [r2]
 489 0018 0221     		movs	r1, #2
 490 001a 8A43     		bics	r2, r1
 491 001c 1A60     		str	r2, [r3]
 428:Generated_Source\PSoC4/UART_XB_SPI_UART.c ****             UART_XB_CLEAR_TX_FIFO;
 492              		.loc 1 428 0
 493 001e 0E4B     		ldr	r3, .L35+12
 494 0020 0D4A     		ldr	r2, .L35+12
 495 0022 1268     		ldr	r2, [r2]
 496 0024 8021     		movs	r1, #128
 497 0026 4902     		lsls	r1, r1, #9
 498 0028 0A43     		orrs	r2, r1
 499 002a 1A60     		str	r2, [r3]
 500 002c 0A4B     		ldr	r3, .L35+12
 501 002e 0A4A     		ldr	r2, .L35+12
 502 0030 1268     		ldr	r2, [r2]
 503 0032 0A49     		ldr	r1, .L35+16
 504 0034 0A40     		ands	r2, r1
 505 0036 1A60     		str	r2, [r3]
 429:Generated_Source\PSoC4/UART_XB_SPI_UART.c ****             UART_XB_ClearTxInterruptSource(UART_XB_INTR_TX_ALL);
 506              		.loc 1 429 0
 507 0038 094B     		ldr	r3, .L35+20
 508 003a 0A4A     		ldr	r2, .L35+24
 509 003c 1A60     		str	r2, [r3]
 430:Generated_Source\PSoC4/UART_XB_SPI_UART.c **** 
 431:Generated_Source\PSoC4/UART_XB_SPI_UART.c ****             /* Release lock */
 432:Generated_Source\PSoC4/UART_XB_SPI_UART.c ****             UART_XB_EnableInt();
 510              		.loc 1 432 0
 511 003e 0920     		movs	r0, #9
 512 0040 FFF7FEFF 		bl	CyIntEnable
 433:Generated_Source\PSoC4/UART_XB_SPI_UART.c ****         }
 434:Generated_Source\PSoC4/UART_XB_SPI_UART.c ****         #else
 435:Generated_Source\PSoC4/UART_XB_SPI_UART.c ****         {
 436:Generated_Source\PSoC4/UART_XB_SPI_UART.c ****             UART_XB_CLEAR_TX_FIFO;
 437:Generated_Source\PSoC4/UART_XB_SPI_UART.c ****         }
 438:Generated_Source\PSoC4/UART_XB_SPI_UART.c ****         #endif
 439:Generated_Source\PSoC4/UART_XB_SPI_UART.c ****     }
 513              		.loc 1 439 0
 514 0044 C046     		nop
 515 0046 BD46     		mov	sp, r7
 516              		@ sp needed
 517 0048 80BD     		pop	{r7, pc}
ARM GAS  C:\Users\Petro\AppData\Local\Temp\ccHyM4Id.s 			page 18


 518              	.L36:
 519 004a C046     		.align	2
 520              	.L35:
 521 004c 00000000 		.word	UART_XB_txBufferTail
 522 0050 00000000 		.word	UART_XB_txBufferHead
 523 0054 880F2440 		.word	1076105096
 524 0058 04022440 		.word	1076101636
 525 005c FFFFFEFF 		.word	-65537
 526 0060 800F2440 		.word	1076105088
 527 0064 F3070000 		.word	2035
 528              		.cfi_endproc
 529              	.LFE8:
 530              		.size	UART_XB_SpiUartClearTxBuffer, .-UART_XB_SpiUartClearTxBuffer
 531              		.section	.text.UART_XB_SpiUartDisableIntRx,"ax",%progbits
 532              		.align	2
 533              		.global	UART_XB_SpiUartDisableIntRx
 534              		.code	16
 535              		.thumb_func
 536              		.type	UART_XB_SpiUartDisableIntRx, %function
 537              	UART_XB_SpiUartDisableIntRx:
 538              	.LFB9:
 440:Generated_Source\PSoC4/UART_XB_SPI_UART.c **** 
 441:Generated_Source\PSoC4/UART_XB_SPI_UART.c **** #endif /* (UART_XB_TX_DIRECTION) */
 442:Generated_Source\PSoC4/UART_XB_SPI_UART.c **** 
 443:Generated_Source\PSoC4/UART_XB_SPI_UART.c **** 
 444:Generated_Source\PSoC4/UART_XB_SPI_UART.c **** /*******************************************************************************
 445:Generated_Source\PSoC4/UART_XB_SPI_UART.c **** * Function Name: UART_XB_SpiUartDisableIntRx
 446:Generated_Source\PSoC4/UART_XB_SPI_UART.c **** ****************************************************************************//**
 447:Generated_Source\PSoC4/UART_XB_SPI_UART.c **** *
 448:Generated_Source\PSoC4/UART_XB_SPI_UART.c **** *  Disables the RX interrupt sources.
 449:Generated_Source\PSoC4/UART_XB_SPI_UART.c **** *
 450:Generated_Source\PSoC4/UART_XB_SPI_UART.c **** *  \return
 451:Generated_Source\PSoC4/UART_XB_SPI_UART.c **** *   Returns the RX interrupt sources enabled before the function call.
 452:Generated_Source\PSoC4/UART_XB_SPI_UART.c **** *
 453:Generated_Source\PSoC4/UART_XB_SPI_UART.c **** *******************************************************************************/
 454:Generated_Source\PSoC4/UART_XB_SPI_UART.c **** uint32 UART_XB_SpiUartDisableIntRx(void)
 455:Generated_Source\PSoC4/UART_XB_SPI_UART.c **** {
 539              		.loc 1 455 0
 540              		.cfi_startproc
 541              		@ args = 0, pretend = 0, frame = 8
 542              		@ frame_needed = 1, uses_anonymous_args = 0
 543 0000 80B5     		push	{r7, lr}
 544              		.cfi_def_cfa_offset 8
 545              		.cfi_offset 7, -8
 546              		.cfi_offset 14, -4
 547 0002 82B0     		sub	sp, sp, #8
 548              		.cfi_def_cfa_offset 16
 549 0004 00AF     		add	r7, sp, #0
 550              		.cfi_def_cfa_register 7
 456:Generated_Source\PSoC4/UART_XB_SPI_UART.c ****     uint32 intSource;
 457:Generated_Source\PSoC4/UART_XB_SPI_UART.c **** 
 458:Generated_Source\PSoC4/UART_XB_SPI_UART.c ****     intSource = UART_XB_GetRxInterruptMode();
 551              		.loc 1 458 0
 552 0006 054B     		ldr	r3, .L39
 553 0008 1B68     		ldr	r3, [r3]
 554 000a 7B60     		str	r3, [r7, #4]
 459:Generated_Source\PSoC4/UART_XB_SPI_UART.c **** 
ARM GAS  C:\Users\Petro\AppData\Local\Temp\ccHyM4Id.s 			page 19


 460:Generated_Source\PSoC4/UART_XB_SPI_UART.c ****     UART_XB_SetRxInterruptMode(UART_XB_NO_INTR_SOURCES);
 555              		.loc 1 460 0
 556 000c 034B     		ldr	r3, .L39
 557 000e 0022     		movs	r2, #0
 558 0010 1A60     		str	r2, [r3]
 461:Generated_Source\PSoC4/UART_XB_SPI_UART.c **** 
 462:Generated_Source\PSoC4/UART_XB_SPI_UART.c ****     return (intSource);
 559              		.loc 1 462 0
 560 0012 7B68     		ldr	r3, [r7, #4]
 463:Generated_Source\PSoC4/UART_XB_SPI_UART.c **** }
 561              		.loc 1 463 0
 562 0014 1800     		movs	r0, r3
 563 0016 BD46     		mov	sp, r7
 564 0018 02B0     		add	sp, sp, #8
 565              		@ sp needed
 566 001a 80BD     		pop	{r7, pc}
 567              	.L40:
 568              		.align	2
 569              	.L39:
 570 001c C80F2440 		.word	1076105160
 571              		.cfi_endproc
 572              	.LFE9:
 573              		.size	UART_XB_SpiUartDisableIntRx, .-UART_XB_SpiUartDisableIntRx
 574              		.section	.text.UART_XB_SpiUartDisableIntTx,"ax",%progbits
 575              		.align	2
 576              		.global	UART_XB_SpiUartDisableIntTx
 577              		.code	16
 578              		.thumb_func
 579              		.type	UART_XB_SpiUartDisableIntTx, %function
 580              	UART_XB_SpiUartDisableIntTx:
 581              	.LFB10:
 464:Generated_Source\PSoC4/UART_XB_SPI_UART.c **** 
 465:Generated_Source\PSoC4/UART_XB_SPI_UART.c **** 
 466:Generated_Source\PSoC4/UART_XB_SPI_UART.c **** /*******************************************************************************
 467:Generated_Source\PSoC4/UART_XB_SPI_UART.c **** * Function Name: UART_XB_SpiUartDisableIntTx
 468:Generated_Source\PSoC4/UART_XB_SPI_UART.c **** ****************************************************************************//**
 469:Generated_Source\PSoC4/UART_XB_SPI_UART.c **** *
 470:Generated_Source\PSoC4/UART_XB_SPI_UART.c **** *  Disables TX interrupt sources.
 471:Generated_Source\PSoC4/UART_XB_SPI_UART.c **** *
 472:Generated_Source\PSoC4/UART_XB_SPI_UART.c **** *  \return
 473:Generated_Source\PSoC4/UART_XB_SPI_UART.c **** *   Returns TX interrupt sources enabled before function call.
 474:Generated_Source\PSoC4/UART_XB_SPI_UART.c **** *
 475:Generated_Source\PSoC4/UART_XB_SPI_UART.c **** *******************************************************************************/
 476:Generated_Source\PSoC4/UART_XB_SPI_UART.c **** uint32 UART_XB_SpiUartDisableIntTx(void)
 477:Generated_Source\PSoC4/UART_XB_SPI_UART.c **** {
 582              		.loc 1 477 0
 583              		.cfi_startproc
 584              		@ args = 0, pretend = 0, frame = 8
 585              		@ frame_needed = 1, uses_anonymous_args = 0
 586 0000 80B5     		push	{r7, lr}
 587              		.cfi_def_cfa_offset 8
 588              		.cfi_offset 7, -8
 589              		.cfi_offset 14, -4
 590 0002 82B0     		sub	sp, sp, #8
 591              		.cfi_def_cfa_offset 16
 592 0004 00AF     		add	r7, sp, #0
 593              		.cfi_def_cfa_register 7
ARM GAS  C:\Users\Petro\AppData\Local\Temp\ccHyM4Id.s 			page 20


 478:Generated_Source\PSoC4/UART_XB_SPI_UART.c ****     uint32 intSourceMask;
 479:Generated_Source\PSoC4/UART_XB_SPI_UART.c **** 
 480:Generated_Source\PSoC4/UART_XB_SPI_UART.c ****     intSourceMask = UART_XB_GetTxInterruptMode();
 594              		.loc 1 480 0
 595 0006 054B     		ldr	r3, .L43
 596 0008 1B68     		ldr	r3, [r3]
 597 000a 7B60     		str	r3, [r7, #4]
 481:Generated_Source\PSoC4/UART_XB_SPI_UART.c **** 
 482:Generated_Source\PSoC4/UART_XB_SPI_UART.c ****     UART_XB_SetTxInterruptMode(UART_XB_NO_INTR_SOURCES);
 598              		.loc 1 482 0
 599 000c 034B     		ldr	r3, .L43
 600 000e 0022     		movs	r2, #0
 601 0010 1A60     		str	r2, [r3]
 483:Generated_Source\PSoC4/UART_XB_SPI_UART.c **** 
 484:Generated_Source\PSoC4/UART_XB_SPI_UART.c ****     return (intSourceMask);
 602              		.loc 1 484 0
 603 0012 7B68     		ldr	r3, [r7, #4]
 485:Generated_Source\PSoC4/UART_XB_SPI_UART.c **** }
 604              		.loc 1 485 0
 605 0014 1800     		movs	r0, r3
 606 0016 BD46     		mov	sp, r7
 607 0018 02B0     		add	sp, sp, #8
 608              		@ sp needed
 609 001a 80BD     		pop	{r7, pc}
 610              	.L44:
 611              		.align	2
 612              	.L43:
 613 001c 880F2440 		.word	1076105096
 614              		.cfi_endproc
 615              	.LFE10:
 616              		.size	UART_XB_SpiUartDisableIntTx, .-UART_XB_SpiUartDisableIntTx
 617              		.text
 618              	.Letext0:
 619              		.file 2 "Generated_Source\\PSoC4/cytypes.h"