ARM GAS  C:\Users\Petro\AppData\Local\Temp\ccWSp1ai.s 			page 1


   1              		.syntax unified
   2              		.cpu cortex-m0
   3              		.fpu softvfp
   4              		.eabi_attribute 20, 1
   5              		.eabi_attribute 21, 1
   6              		.eabi_attribute 23, 3
   7              		.eabi_attribute 24, 1
   8              		.eabi_attribute 25, 1
   9              		.eabi_attribute 26, 1
  10              		.eabi_attribute 30, 4
  11              		.eabi_attribute 34, 0
  12              		.eabi_attribute 18, 4
  13              		.thumb
  14              		.syntax unified
  15              		.file	"ble.c"
  16              		.text
  17              	.Ltext0:
  18              		.cfi_sections	.debug_frame
  19              		.section	.text.CyBle_ChangeAdLocalName,"ax",%progbits
  20              		.align	1
  21              		.code	16
  22              		.thumb_func
  23              		.type	CyBle_ChangeAdLocalName, %function
  24              	CyBle_ChangeAdLocalName:
  25              	.LFB11:
  26              		.file 1 "Generated_Source\\PSoC4\\ble.c"
   1:Generated_Source\PSoC4/ble.c **** /***************************************************************************//**
   2:Generated_Source\PSoC4/ble.c **** * \file CYBLE.c
   3:Generated_Source\PSoC4/ble.c **** * \version 3.30
   4:Generated_Source\PSoC4/ble.c **** * 
   5:Generated_Source\PSoC4/ble.c **** * \brief
   6:Generated_Source\PSoC4/ble.c **** *  This file contains the source code for the Common APIs of the BLE Component.
   7:Generated_Source\PSoC4/ble.c **** * 
   8:Generated_Source\PSoC4/ble.c **** ********************************************************************************
   9:Generated_Source\PSoC4/ble.c **** * \copyright
  10:Generated_Source\PSoC4/ble.c **** * Copyright 2014-2016, Cypress Semiconductor Corporation.  All rights reserved.
  11:Generated_Source\PSoC4/ble.c **** * You may use this file only in accordance with the license, terms, conditions,
  12:Generated_Source\PSoC4/ble.c **** * disclaimers, and limitations in the end user license agreement accompanying
  13:Generated_Source\PSoC4/ble.c **** * the software package with which this file was provided.
  14:Generated_Source\PSoC4/ble.c **** *******************************************************************************/
  15:Generated_Source\PSoC4/ble.c **** 
  16:Generated_Source\PSoC4/ble.c **** #include "ble_eventHandler.h"
  17:Generated_Source\PSoC4/ble.c **** #include "ble_HAL_PVT.h"
  18:Generated_Source\PSoC4/ble.c **** #include <stdlib.h>
  19:Generated_Source\PSoC4/ble.c **** 
  20:Generated_Source\PSoC4/ble.c **** 
  21:Generated_Source\PSoC4/ble.c **** /***************************************
  22:Generated_Source\PSoC4/ble.c **** * Function Prototypes
  23:Generated_Source\PSoC4/ble.c **** ***************************************/
  24:Generated_Source\PSoC4/ble.c **** 
  25:Generated_Source\PSoC4/ble.c **** #if(CYBLE_GATT_ROLE_SERVER)
  26:Generated_Source\PSoC4/ble.c ****     #if(CYBLE_GAP_ROLE_PERIPHERAL)
  27:Generated_Source\PSoC4/ble.c ****         static void CyBle_ChangeAdLocalName(const char8 name[], uint8 dest);
  28:Generated_Source\PSoC4/ble.c ****     #endif /* (CYBLE_GAP_ROLE_PERIPHERAL) */
  29:Generated_Source\PSoC4/ble.c **** #endif /* (CYBLE_GATT_ROLE_SERVER) */
  30:Generated_Source\PSoC4/ble.c ****     
  31:Generated_Source\PSoC4/ble.c **** 
ARM GAS  C:\Users\Petro\AppData\Local\Temp\ccWSp1ai.s 			page 2


  32:Generated_Source\PSoC4/ble.c **** /***************************************
  33:Generated_Source\PSoC4/ble.c **** * Global Variables
  34:Generated_Source\PSoC4/ble.c **** ***************************************/
  35:Generated_Source\PSoC4/ble.c **** 
  36:Generated_Source\PSoC4/ble.c **** /* Indicates whether the BLE has been initialized. The variable is initialized to
  37:Generated_Source\PSoC4/ble.c ****    0 and set to 1 the first time CyBle_Start() is called. This allows the component
  38:Generated_Source\PSoC4/ble.c ****    to restart without reinitialization after the first call to the CyBle_Start() 
  39:Generated_Source\PSoC4/ble.c ****    routine. If reinitialization of the component is required, the variable should 
  40:Generated_Source\PSoC4/ble.c ****    be set to 0 before the CyBle_Start() routine is called. Alternatively, the BLE
  41:Generated_Source\PSoC4/ble.c ****    can be reinitialized by calling the CyBle_Init() function.
  42:Generated_Source\PSoC4/ble.c **** */
  43:Generated_Source\PSoC4/ble.c **** uint8  cyBle_initVar = 0u;
  44:Generated_Source\PSoC4/ble.c **** 
  45:Generated_Source\PSoC4/ble.c **** /* Allocate RAM memory for stack. This buffer could be reused by application when 
  46:Generated_Source\PSoC4/ble.c ****    BLE component is stopped. For export mode buffer is allocated in heap.
  47:Generated_Source\PSoC4/ble.c **** */
  48:Generated_Source\PSoC4/ble.c **** #if(CYBLE_SHARING_MODE_EXPORT)
  49:Generated_Source\PSoC4/ble.c ****     
  50:Generated_Source\PSoC4/ble.c **** uint8 *cyBle_stackMemoryRam = NULL;
  51:Generated_Source\PSoC4/ble.c **** 
  52:Generated_Source\PSoC4/ble.c **** #else
  53:Generated_Source\PSoC4/ble.c **** 
  54:Generated_Source\PSoC4/ble.c **** CYBLE_CYALIGNED_BEGIN CY_NOINIT uint8 cyBle_stackMemoryRam[CYBLE_STACK_RAM_SIZE] CYBLE_CYALIGNED_EN
  55:Generated_Source\PSoC4/ble.c **** 
  56:Generated_Source\PSoC4/ble.c **** #endif  /* CYBLE_SHARING_MODE_EXPORT */
  57:Generated_Source\PSoC4/ble.c **** 
  58:Generated_Source\PSoC4/ble.c **** #if(CYBLE_GAP_ROLE_PERIPHERAL || CYBLE_GAP_ROLE_BROADCASTER)
  59:Generated_Source\PSoC4/ble.c **** 
  60:Generated_Source\PSoC4/ble.c **** CYBLE_GAPP_DISC_PARAM_T cyBle_discoveryParam =
  61:Generated_Source\PSoC4/ble.c **** {
  62:Generated_Source\PSoC4/ble.c ****     0x0020u,    /* uint16 advertising_interval_min */
  63:Generated_Source\PSoC4/ble.c ****     0x0030u,    /* uint16 advertising_interval_max */
  64:Generated_Source\PSoC4/ble.c ****     CYBLE_GAPP_CONNECTABLE_UNDIRECTED_ADV, /* uint8 advertising_type */
  65:Generated_Source\PSoC4/ble.c ****     0x00u,      /* uint8 own_addr_type */
  66:Generated_Source\PSoC4/ble.c ****     0x00u,      /* uint8 direct_addr_type */
  67:Generated_Source\PSoC4/ble.c ****     {0x00u, 0x00u, 0x00u, 0x50u, 0xA0u, 0x00u}, /* uint8* direct_addr */
  68:Generated_Source\PSoC4/ble.c ****     0x07u,      /* uint8 advertising_channel_map */
  69:Generated_Source\PSoC4/ble.c ****     0x00u,      /* uint8 advertising_filter_policy */
  70:Generated_Source\PSoC4/ble.c **** };
  71:Generated_Source\PSoC4/ble.c **** 
  72:Generated_Source\PSoC4/ble.c **** CYBLE_GAPP_DISC_DATA_T cyBle_discoveryData =
  73:Generated_Source\PSoC4/ble.c **** {
  74:Generated_Source\PSoC4/ble.c ****     { 0x02u, 0x01u, 0x06u, 0x09u, 0x09u, 0x53u, 0x46u,
  75:Generated_Source\PSoC4/ble.c ****     0x73u, 0x79u, 0x73u, 0x74u, 0x65u, 0x6Du, 0x11u, 0x07u,
  76:Generated_Source\PSoC4/ble.c ****     0xF0u, 0x34u, 0x9Bu, 0x5Fu, 0x80u, 0x00u, 0x00u, 0x80u,
  77:Generated_Source\PSoC4/ble.c ****     0x00u, 0x10u, 0x00u, 0x00u, 0x00u, 0x00u, 0x00u, 0x00u }, /* uint8 advertising_data[CYBLE_MAX_A
  78:Generated_Source\PSoC4/ble.c ****     0x1Fu,      /* uint8 adv_data_length */
  79:Generated_Source\PSoC4/ble.c **** };
  80:Generated_Source\PSoC4/ble.c **** 
  81:Generated_Source\PSoC4/ble.c **** CYBLE_GAPP_SCAN_RSP_DATA_T cyBle_scanRspData =
  82:Generated_Source\PSoC4/ble.c **** {
  83:Generated_Source\PSoC4/ble.c ****     { 0x00u, 0x00u, 0x00u, 0x00u, 0x00u, 0x00u, 0x00u,
  84:Generated_Source\PSoC4/ble.c ****     0x00u, 0x00u, 0x00u, 0x00u, 0x00u, 0x00u, 0x00u, 0x00u,
  85:Generated_Source\PSoC4/ble.c ****     0x00u, 0x00u, 0x00u, 0x00u, 0x00u, 0x00u, 0x00u, 0x00u,
  86:Generated_Source\PSoC4/ble.c ****     0x00u, 0x00u, 0x00u, 0x00u, 0x00u, 0x00u, 0x00u, 0x00u }, /* uint8 scan_rsp_data[CYBLE_MAX_SCAN
  87:Generated_Source\PSoC4/ble.c ****     0x00u,      /* uint8 scan_rsp_data_length */
  88:Generated_Source\PSoC4/ble.c **** };
ARM GAS  C:\Users\Petro\AppData\Local\Temp\ccWSp1ai.s 			page 3


  89:Generated_Source\PSoC4/ble.c **** 
  90:Generated_Source\PSoC4/ble.c **** /* This variable of type CYBLE_GAPP_DISC_MODE_INFO_T is present only when 
  91:Generated_Source\PSoC4/ble.c ****    the BLE component is configured for Peripheral GAP role or Central and 
  92:Generated_Source\PSoC4/ble.c ****    Peripheral GAP role. It contains the Advertisement settings and also the 
  93:Generated_Source\PSoC4/ble.c ****    Advertisement and Scan response data parameters entered in the customizer.
  94:Generated_Source\PSoC4/ble.c ****    This variable can be used by advanced users to change Advertisement settings,
  95:Generated_Source\PSoC4/ble.c ****    Advertisement or Scan response data in runtime. 
  96:Generated_Source\PSoC4/ble.c **** */
  97:Generated_Source\PSoC4/ble.c **** CYBLE_GAPP_DISC_MODE_INFO_T cyBle_discoveryModeInfo =
  98:Generated_Source\PSoC4/ble.c **** {
  99:Generated_Source\PSoC4/ble.c ****     0x02u,      /* uint8 discMode */
 100:Generated_Source\PSoC4/ble.c ****     &cyBle_discoveryParam,
 101:Generated_Source\PSoC4/ble.c ****     &cyBle_discoveryData,
 102:Generated_Source\PSoC4/ble.c ****     &cyBle_scanRspData,
 103:Generated_Source\PSoC4/ble.c ****     0x0000u,    /* uint16 advTo */
 104:Generated_Source\PSoC4/ble.c **** };
 105:Generated_Source\PSoC4/ble.c **** 
 106:Generated_Source\PSoC4/ble.c **** 
 107:Generated_Source\PSoC4/ble.c **** #endif /* CYBLE_GAP_ROLE_PERIPHERAL || CYBLE_GAP_ROLE_BROADCASTER */
 108:Generated_Source\PSoC4/ble.c **** 
 109:Generated_Source\PSoC4/ble.c **** #if(CYBLE_GAP_ROLE_CENTRAL)
 110:Generated_Source\PSoC4/ble.c ****     
 111:Generated_Source\PSoC4/ble.c **** CYBLE_GAPC_CONN_PARAM_T cyBle_connectionParameters;
 112:Generated_Source\PSoC4/ble.c **** 
 113:Generated_Source\PSoC4/ble.c **** /* Connecting timeout is set to 30 seconds in CyBle_Init function. 
 114:Generated_Source\PSoC4/ble.c ****    Not zero value starts timer in CyBle_GapcConnectDevice API.
 115:Generated_Source\PSoC4/ble.c **** */
 116:Generated_Source\PSoC4/ble.c **** uint16 cyBle_connectingTimeout;
 117:Generated_Source\PSoC4/ble.c ****     
 118:Generated_Source\PSoC4/ble.c **** #endif /* CYBLE_GAP_ROLE_CENTRAL */
 119:Generated_Source\PSoC4/ble.c **** 
 120:Generated_Source\PSoC4/ble.c **** #if(CYBLE_GAP_ROLE_CENTRAL || CYBLE_GAP_ROLE_OBSERVER)
 121:Generated_Source\PSoC4/ble.c ****     
 122:Generated_Source\PSoC4/ble.c **** 
 123:Generated_Source\PSoC4/ble.c ****     
 124:Generated_Source\PSoC4/ble.c **** #endif /* CYBLE_GAP_ROLE_CENTRAL || CYBLE_GAP_ROLE_OBSERVER */
 125:Generated_Source\PSoC4/ble.c **** 
 126:Generated_Source\PSoC4/ble.c **** #if((CYBLE_GAP_ROLE_PERIPHERAL || CYBLE_GAP_ROLE_CENTRAL) && (CYBLE_BONDING_REQUIREMENT == CYBLE_BO
 127:Generated_Source\PSoC4/ble.c **** 
 128:Generated_Source\PSoC4/ble.c **** uint8 cyBle_peerBonding;
 129:Generated_Source\PSoC4/ble.c **** uint8 cyBle_pendingFlashWrite;
 130:Generated_Source\PSoC4/ble.c ****     
 131:Generated_Source\PSoC4/ble.c **** #if(CYBLE_GATT_DB_CCCD_COUNT != 0u)
 132:Generated_Source\PSoC4/ble.c ****     static uint8 cyBle_pendingFlashClearCccdHandle;
 133:Generated_Source\PSoC4/ble.c **** #endif /* CYBLE_GATT_DB_CCCD_COUNT != 0u */
 134:Generated_Source\PSoC4/ble.c ****     
 135:Generated_Source\PSoC4/ble.c **** #endif  /* (CYBLE_BONDING_REQUIREMENT == CYBLE_BONDING_YES) */
 136:Generated_Source\PSoC4/ble.c **** 
 137:Generated_Source\PSoC4/ble.c **** CYBLE_CALLBACK_T CyBle_ApplCallback;
 138:Generated_Source\PSoC4/ble.c **** CYBLE_GAP_BD_ADDR_T cyBle_deviceAddress = {{0x00u, 0x00u, 0x00u, 0x50u, 0xA0u, 0x00u}, 0x00u };
 139:Generated_Source\PSoC4/ble.c **** CYBLE_GAP_BD_ADDR_T * cyBle_sflashDeviceAddress = CYBLE_SFLASH_DEVICE_ADDRESS_PTR;
 140:Generated_Source\PSoC4/ble.c **** 
 141:Generated_Source\PSoC4/ble.c **** 
 142:Generated_Source\PSoC4/ble.c **** /******************************************************************************
 143:Generated_Source\PSoC4/ble.c **** * Function Name: CyBle_Init
 144:Generated_Source\PSoC4/ble.c **** ***************************************************************************//**
 145:Generated_Source\PSoC4/ble.c **** *
ARM GAS  C:\Users\Petro\AppData\Local\Temp\ccWSp1ai.s 			page 4


 146:Generated_Source\PSoC4/ble.c **** *   Initializes the component with the parameters set in the customizer.
 147:Generated_Source\PSoC4/ble.c **** * 
 148:Generated_Source\PSoC4/ble.c **** *  \return
 149:Generated_Source\PSoC4/ble.c **** *   None
 150:Generated_Source\PSoC4/ble.c **** * 
 151:Generated_Source\PSoC4/ble.c **** ******************************************************************************/
 152:Generated_Source\PSoC4/ble.c **** void CyBle_Init(void)
 153:Generated_Source\PSoC4/ble.c **** {
 154:Generated_Source\PSoC4/ble.c ****     cyBle_eventHandlerFlag = 0u;
 155:Generated_Source\PSoC4/ble.c ****     cyBle_busyStatus = CYBLE_STACK_STATE_FREE;
 156:Generated_Source\PSoC4/ble.c **** 
 157:Generated_Source\PSoC4/ble.c ****     #if(CYBLE_GAP_ROLE_PERIPHERAL || CYBLE_GAP_ROLE_BROADCASTER) 
 158:Generated_Source\PSoC4/ble.c ****         cyBle_advertisingIntervalType = CYBLE_ADVERTISING_FAST; 
 159:Generated_Source\PSoC4/ble.c ****     #endif /* (CYBLE_GAP_ROLE_PERIPHERAL || CYBLE_GAP_ROLE_BROADCASTER)  */
 160:Generated_Source\PSoC4/ble.c ****     #if(CYBLE_GAP_ROLE_CENTRAL || CYBLE_GAP_ROLE_OBSERVER)
 161:Generated_Source\PSoC4/ble.c ****         cyBle_scanningIntervalType = CYBLE_SCANNING_FAST; 
 162:Generated_Source\PSoC4/ble.c ****     #endif /* (CYBLE_GAP_ROLE_CENTRAL || CYBLE_GAP_ROLE_OBSERVER) */
 163:Generated_Source\PSoC4/ble.c ****         
 164:Generated_Source\PSoC4/ble.c ****     /* Init default connection parameters. 
 165:Generated_Source\PSoC4/ble.c ****        Application may change it before initiating a connection */
 166:Generated_Source\PSoC4/ble.c ****     #if(CYBLE_GAP_ROLE_CENTRAL)
 167:Generated_Source\PSoC4/ble.c ****         cyBle_connectionParameters.scanIntv = cyBle_discoveryInfo.scanIntv;
 168:Generated_Source\PSoC4/ble.c ****         cyBle_connectionParameters.scanWindow = cyBle_discoveryInfo.scanWindow;
 169:Generated_Source\PSoC4/ble.c ****         cyBle_connectionParameters.ownAddrType = cyBle_discoveryInfo.ownAddrType;
 170:Generated_Source\PSoC4/ble.c ****         cyBle_connectionParameters.initiatorFilterPolicy = cyBle_discoveryInfo.scanFilterPolicy;
 171:Generated_Source\PSoC4/ble.c ****         cyBle_connectionParameters.connIntvMin = CYBLE_GAPC_CONNECTION_INTERVAL_MIN;
 172:Generated_Source\PSoC4/ble.c ****         cyBle_connectionParameters.connIntvMax = CYBLE_GAPC_CONNECTION_INTERVAL_MAX;
 173:Generated_Source\PSoC4/ble.c ****         cyBle_connectionParameters.connLatency = CYBLE_GAPC_CONNECTION_SLAVE_LATENCY;
 174:Generated_Source\PSoC4/ble.c ****         cyBle_connectionParameters.supervisionTO = CYBLE_GAPC_CONNECTION_TIME_OUT;
 175:Generated_Source\PSoC4/ble.c ****         cyBle_connectionParameters.minCeLength = 0x0000u;
 176:Generated_Source\PSoC4/ble.c ****         cyBle_connectionParameters.maxCeLength = 0xFFFFu;
 177:Generated_Source\PSoC4/ble.c ****         
 178:Generated_Source\PSoC4/ble.c ****         cyBle_connectingTimeout = CYBLE_GAPC_CONNECTING_TIMEOUT;
 179:Generated_Source\PSoC4/ble.c ****     #endif /* CYBLE_GAP_ROLE_CENTRAL */
 180:Generated_Source\PSoC4/ble.c **** 
 181:Generated_Source\PSoC4/ble.c ****     CyBle_ServiceInit();
 182:Generated_Source\PSoC4/ble.c **** 
 183:Generated_Source\PSoC4/ble.c ****     #if((CYBLE_GAP_ROLE_PERIPHERAL || CYBLE_GAP_ROLE_CENTRAL) && (CYBLE_BONDING_REQUIREMENT == CYBL
 184:Generated_Source\PSoC4/ble.c ****         cyBle_pendingFlashWrite = 0u;
 185:Generated_Source\PSoC4/ble.c ****         cyBle_peerBonding = CYBLE_GAP_BONDING_NONE;
 186:Generated_Source\PSoC4/ble.c ****     #endif  /* (CYBLE_BONDING_REQUIREMENT == CYBLE_BONDING_YES) */
 187:Generated_Source\PSoC4/ble.c **** 
 188:Generated_Source\PSoC4/ble.c **** }
 189:Generated_Source\PSoC4/ble.c **** 
 190:Generated_Source\PSoC4/ble.c **** 
 191:Generated_Source\PSoC4/ble.c **** /******************************************************************************
 192:Generated_Source\PSoC4/ble.c **** * Function Name: CyBle_ServiceInit
 193:Generated_Source\PSoC4/ble.c **** ***************************************************************************//**
 194:Generated_Source\PSoC4/ble.c **** * 
 195:Generated_Source\PSoC4/ble.c **** *  Initializes all included services.
 196:Generated_Source\PSoC4/ble.c **** * 
 197:Generated_Source\PSoC4/ble.c **** * \return
 198:Generated_Source\PSoC4/ble.c **** *  None
 199:Generated_Source\PSoC4/ble.c **** * 
 200:Generated_Source\PSoC4/ble.c **** ******************************************************************************/
 201:Generated_Source\PSoC4/ble.c **** void CyBle_ServiceInit(void)
 202:Generated_Source\PSoC4/ble.c **** {
ARM GAS  C:\Users\Petro\AppData\Local\Temp\ccWSp1ai.s 			page 5


 203:Generated_Source\PSoC4/ble.c ****     #if(CYBLE_GATT_ROLE_CLIENT)
 204:Generated_Source\PSoC4/ble.c ****         /* Check service range before clearing to support partial discovery */
 205:Generated_Source\PSoC4/ble.c ****         if(cyBle_serverInfo[CYBLE_SRVI_GAP].range.startHandle == CYBLE_GATT_INVALID_ATTR_HANDLE_VAL
 206:Generated_Source\PSoC4/ble.c ****         {
 207:Generated_Source\PSoC4/ble.c ****             (void)memset(&cyBle_gapc, 0, sizeof(cyBle_gapc));
 208:Generated_Source\PSoC4/ble.c ****         }
 209:Generated_Source\PSoC4/ble.c ****         if(cyBle_serverInfo[CYBLE_SRVI_GATT].range.startHandle == CYBLE_GATT_INVALID_ATTR_HANDLE_VA
 210:Generated_Source\PSoC4/ble.c ****         {
 211:Generated_Source\PSoC4/ble.c ****             (void)memset(&cyBle_gattc, 0, sizeof(cyBle_gattc));
 212:Generated_Source\PSoC4/ble.c ****         }
 213:Generated_Source\PSoC4/ble.c ****     #endif /* CYBLE_GATT_ROLE_CLIENT */
 214:Generated_Source\PSoC4/ble.c **** 
 215:Generated_Source\PSoC4/ble.c ****    	#ifdef CYBLE_AIOS
 216:Generated_Source\PSoC4/ble.c ****         CyBle_AiosInit();
 217:Generated_Source\PSoC4/ble.c ****     #endif /* CYBLE_AIOS */
 218:Generated_Source\PSoC4/ble.c **** 
 219:Generated_Source\PSoC4/ble.c **** 	#ifdef CYBLE_ANCS
 220:Generated_Source\PSoC4/ble.c ****         CyBle_AncsInit();
 221:Generated_Source\PSoC4/ble.c ****     #endif /* CYBLE_ANCS */
 222:Generated_Source\PSoC4/ble.c **** 	
 223:Generated_Source\PSoC4/ble.c ****     #ifdef CYBLE_ANS
 224:Generated_Source\PSoC4/ble.c ****         CyBle_AnsInit();
 225:Generated_Source\PSoC4/ble.c ****     #endif /* CYBLE_ANS */
 226:Generated_Source\PSoC4/ble.c ****     
 227:Generated_Source\PSoC4/ble.c ****     #ifdef CYBLE_BAS
 228:Generated_Source\PSoC4/ble.c ****         CyBle_BasInit();
 229:Generated_Source\PSoC4/ble.c ****     #endif /* CYBLE_BAS */
 230:Generated_Source\PSoC4/ble.c ****     
 231:Generated_Source\PSoC4/ble.c ****     #ifdef CYBLE_BCS
 232:Generated_Source\PSoC4/ble.c ****         CyBle_BcsInit();
 233:Generated_Source\PSoC4/ble.c ****     #endif /* CYBLE_BCS */
 234:Generated_Source\PSoC4/ble.c **** 
 235:Generated_Source\PSoC4/ble.c ****     #ifdef CYBLE_BLS
 236:Generated_Source\PSoC4/ble.c ****         CyBle_BlsInit();
 237:Generated_Source\PSoC4/ble.c ****     #endif /* CYBLE_BLS */
 238:Generated_Source\PSoC4/ble.c ****     
 239:Generated_Source\PSoC4/ble.c ****     #ifdef CYBLE_BMS
 240:Generated_Source\PSoC4/ble.c ****         CyBle_BmsInit();
 241:Generated_Source\PSoC4/ble.c ****     #endif /* CYBLE_BMS */
 242:Generated_Source\PSoC4/ble.c ****     
 243:Generated_Source\PSoC4/ble.c ****     #ifdef CYBLE_CGMS
 244:Generated_Source\PSoC4/ble.c ****         CyBle_CgmsInit();
 245:Generated_Source\PSoC4/ble.c ****     #endif /* CYBLE_CGMS */
 246:Generated_Source\PSoC4/ble.c **** 
 247:Generated_Source\PSoC4/ble.c ****     #ifdef CYBLE_CPS
 248:Generated_Source\PSoC4/ble.c ****         CyBle_CpsInit();
 249:Generated_Source\PSoC4/ble.c ****     #endif /* CYBLE_CPS */
 250:Generated_Source\PSoC4/ble.c **** 
 251:Generated_Source\PSoC4/ble.c ****     #ifdef CYBLE_CSCS
 252:Generated_Source\PSoC4/ble.c ****         CyBle_CscsInit();
 253:Generated_Source\PSoC4/ble.c ****     #endif /* CYBLE_CSCS */
 254:Generated_Source\PSoC4/ble.c ****     
 255:Generated_Source\PSoC4/ble.c ****     #ifdef CYBLE_CTS
 256:Generated_Source\PSoC4/ble.c ****         CyBle_CtsInit();
 257:Generated_Source\PSoC4/ble.c ****     #endif /* CYBLE_CTS */
 258:Generated_Source\PSoC4/ble.c **** 
 259:Generated_Source\PSoC4/ble.c ****     #ifdef CYBLE_CUSTOM
ARM GAS  C:\Users\Petro\AppData\Local\Temp\ccWSp1ai.s 			page 6


 260:Generated_Source\PSoC4/ble.c ****         CyBle_CustomInit();
 261:Generated_Source\PSoC4/ble.c ****     #endif /* CYBLE_CUSTOM */
 262:Generated_Source\PSoC4/ble.c **** 
 263:Generated_Source\PSoC4/ble.c ****     #ifdef CYBLE_DIS
 264:Generated_Source\PSoC4/ble.c ****         CyBle_DisInit();
 265:Generated_Source\PSoC4/ble.c ****     #endif /* CYBLE_DIS */
 266:Generated_Source\PSoC4/ble.c **** 
 267:Generated_Source\PSoC4/ble.c ****     #ifdef CYBLE_ESS
 268:Generated_Source\PSoC4/ble.c ****         CyBle_EssInit();
 269:Generated_Source\PSoC4/ble.c ****     #endif /* CYBLE_ESS */
 270:Generated_Source\PSoC4/ble.c ****     
 271:Generated_Source\PSoC4/ble.c ****     #ifdef CYBLE_GLS
 272:Generated_Source\PSoC4/ble.c ****         CyBle_GlsInit();
 273:Generated_Source\PSoC4/ble.c ****     #endif /* CYBLE_GLS */
 274:Generated_Source\PSoC4/ble.c ****     
 275:Generated_Source\PSoC4/ble.c ****     #ifdef CYBLE_HIDS
 276:Generated_Source\PSoC4/ble.c ****         CyBle_HidsInit();
 277:Generated_Source\PSoC4/ble.c ****     #endif /* CYBLE_HIDS */
 278:Generated_Source\PSoC4/ble.c **** 
 279:Generated_Source\PSoC4/ble.c ****     #ifdef CYBLE_HPS
 280:Generated_Source\PSoC4/ble.c ****         CyBle_HpsInit();
 281:Generated_Source\PSoC4/ble.c ****     #endif /* CYBLE_HPS */
 282:Generated_Source\PSoC4/ble.c **** 
 283:Generated_Source\PSoC4/ble.c ****     #ifdef CYBLE_HRS
 284:Generated_Source\PSoC4/ble.c ****         CyBle_HrsInit();
 285:Generated_Source\PSoC4/ble.c ****     #endif /* CYBLE_HRS */
 286:Generated_Source\PSoC4/ble.c ****     
 287:Generated_Source\PSoC4/ble.c ****     #ifdef CYBLE_HTS
 288:Generated_Source\PSoC4/ble.c ****         CyBle_HtsInit();
 289:Generated_Source\PSoC4/ble.c ****     #endif /* CYBLE_RSCS */
 290:Generated_Source\PSoC4/ble.c **** 
 291:Generated_Source\PSoC4/ble.c ****     #ifdef CYBLE_IAS
 292:Generated_Source\PSoC4/ble.c ****         CyBle_IasInit();
 293:Generated_Source\PSoC4/ble.c ****     #endif /* CYBLE_IAS */
 294:Generated_Source\PSoC4/ble.c **** 
 295:Generated_Source\PSoC4/ble.c ****     #ifdef CYBLE_IPS
 296:Generated_Source\PSoC4/ble.c ****         CyBle_IpsInit();
 297:Generated_Source\PSoC4/ble.c ****     #endif /* CYBLE_IPS */
 298:Generated_Source\PSoC4/ble.c ****     
 299:Generated_Source\PSoC4/ble.c ****     #ifdef CYBLE_LLS
 300:Generated_Source\PSoC4/ble.c ****         CyBle_LlsInit();
 301:Generated_Source\PSoC4/ble.c ****     #endif /* CYBLE_LLS */
 302:Generated_Source\PSoC4/ble.c **** 
 303:Generated_Source\PSoC4/ble.c ****     #ifdef CYBLE_LNS
 304:Generated_Source\PSoC4/ble.c ****         CyBle_LnsInit();
 305:Generated_Source\PSoC4/ble.c ****     #endif /* CYBLE_LNS */
 306:Generated_Source\PSoC4/ble.c ****     
 307:Generated_Source\PSoC4/ble.c ****     #ifdef CYBLE_NDCS
 308:Generated_Source\PSoC4/ble.c ****         CyBle_NdcsInit();
 309:Generated_Source\PSoC4/ble.c ****     #endif /* CYBLE_NDCS */
 310:Generated_Source\PSoC4/ble.c ****     
 311:Generated_Source\PSoC4/ble.c ****     #ifdef CYBLE_PASS
 312:Generated_Source\PSoC4/ble.c ****         CyBle_PassInit();
 313:Generated_Source\PSoC4/ble.c ****     #endif /* CYBLE_PASS */
 314:Generated_Source\PSoC4/ble.c ****     
 315:Generated_Source\PSoC4/ble.c ****     #ifdef CYBLE_PLXS
 316:Generated_Source\PSoC4/ble.c ****         CyBle_PlxsInit();
ARM GAS  C:\Users\Petro\AppData\Local\Temp\ccWSp1ai.s 			page 7


 317:Generated_Source\PSoC4/ble.c ****     #endif /* CYBLE_PLXS */
 318:Generated_Source\PSoC4/ble.c ****     
 319:Generated_Source\PSoC4/ble.c ****     #ifdef CYBLE_RSCS
 320:Generated_Source\PSoC4/ble.c ****         CyBle_RscsInit();
 321:Generated_Source\PSoC4/ble.c ****     #endif /* CYBLE_RSCS */
 322:Generated_Source\PSoC4/ble.c **** 
 323:Generated_Source\PSoC4/ble.c ****     #ifdef CYBLE_RTUS
 324:Generated_Source\PSoC4/ble.c ****         CyBle_RtusInit();
 325:Generated_Source\PSoC4/ble.c ****     #endif /* CYBLE_RTUS */
 326:Generated_Source\PSoC4/ble.c **** 
 327:Generated_Source\PSoC4/ble.c ****     #ifdef CYBLE_SCPS
 328:Generated_Source\PSoC4/ble.c ****         CyBle_ScpsInit();
 329:Generated_Source\PSoC4/ble.c ****     #endif /* CYBLE_SCPS */
 330:Generated_Source\PSoC4/ble.c ****     
 331:Generated_Source\PSoC4/ble.c ****     #ifdef CYBLE_TPS
 332:Generated_Source\PSoC4/ble.c ****         CyBle_TpsInit();
 333:Generated_Source\PSoC4/ble.c ****     #endif /* CYBLE_TPS */
 334:Generated_Source\PSoC4/ble.c ****     
 335:Generated_Source\PSoC4/ble.c ****     #ifdef CYBLE_UDS
 336:Generated_Source\PSoC4/ble.c ****         CyBle_UdsInit();
 337:Generated_Source\PSoC4/ble.c ****     #endif /* CYBLE_UDS */
 338:Generated_Source\PSoC4/ble.c **** 
 339:Generated_Source\PSoC4/ble.c ****     #ifdef CYBLE_WPTS
 340:Generated_Source\PSoC4/ble.c ****         CyBle_WptsInit();
 341:Generated_Source\PSoC4/ble.c ****     #endif /* CYBLE_WPTS */
 342:Generated_Source\PSoC4/ble.c **** 
 343:Generated_Source\PSoC4/ble.c ****     #ifdef CYBLE_WSS
 344:Generated_Source\PSoC4/ble.c ****         CyBle_WssInit();
 345:Generated_Source\PSoC4/ble.c ****     #endif /* CYBLE_WSS */
 346:Generated_Source\PSoC4/ble.c **** }
 347:Generated_Source\PSoC4/ble.c **** 
 348:Generated_Source\PSoC4/ble.c **** 
 349:Generated_Source\PSoC4/ble.c **** /******************************************************************************
 350:Generated_Source\PSoC4/ble.c **** * Function Name: CyBle_Start
 351:Generated_Source\PSoC4/ble.c **** ***************************************************************************//**
 352:Generated_Source\PSoC4/ble.c **** * 
 353:Generated_Source\PSoC4/ble.c **** *  This function initializes the BLE Stack, which consists of the BLE Stack 
 354:Generated_Source\PSoC4/ble.c **** *  Manager, BLE Controller, and BLE Host modules. It takes care of initializing
 355:Generated_Source\PSoC4/ble.c **** *  the Profile layer, schedulers, Timer and other platform related
 356:Generated_Source\PSoC4/ble.c **** *  resources required for the BLE component. It also registers the callback 
 357:Generated_Source\PSoC4/ble.c **** *  function for BLE events that will be registered in the BLE stack.
 358:Generated_Source\PSoC4/ble.c **** * 
 359:Generated_Source\PSoC4/ble.c **** *  Note that this function does not reset the BLE Stack.
 360:Generated_Source\PSoC4/ble.c **** * 
 361:Generated_Source\PSoC4/ble.c **** *  For HCI-Mode of operation, this function will not initialize the BLE Host 
 362:Generated_Source\PSoC4/ble.c **** *  module.
 363:Generated_Source\PSoC4/ble.c **** * 
 364:Generated_Source\PSoC4/ble.c **** *  Calling this function results in the generation of CYBLE_EVT_STACK_ON event
 365:Generated_Source\PSoC4/ble.c **** *  on successful initialization of the BLE Stack.
 366:Generated_Source\PSoC4/ble.c **** * 
 367:Generated_Source\PSoC4/ble.c **** *  \param callbackFunc: Event callback function to receive events from BLE stack.
 368:Generated_Source\PSoC4/ble.c **** *   CYBLE_CALLBACK_T is a function pointer type.
 369:Generated_Source\PSoC4/ble.c **** * 
 370:Generated_Source\PSoC4/ble.c **** * \return
 371:Generated_Source\PSoC4/ble.c **** *  CYBLE_API_RESULT_T : Return value indicates if the function succeeded or 
 372:Generated_Source\PSoC4/ble.c **** *  failed. Following are the possible error codes.
 373:Generated_Source\PSoC4/ble.c **** * 
ARM GAS  C:\Users\Petro\AppData\Local\Temp\ccWSp1ai.s 			page 8


 374:Generated_Source\PSoC4/ble.c **** *   <table>
 375:Generated_Source\PSoC4/ble.c **** *  	  <tr>
 376:Generated_Source\PSoC4/ble.c **** *       <th>Error codes</th>
 377:Generated_Source\PSoC4/ble.c **** *       <th>Description</th>
 378:Generated_Source\PSoC4/ble.c **** *     </tr>
 379:Generated_Source\PSoC4/ble.c **** *     <tr>
 380:Generated_Source\PSoC4/ble.c **** *       <td>CYBLE_ERROR_OK</td>
 381:Generated_Source\PSoC4/ble.c **** *       <td>On successful operation.</td>
 382:Generated_Source\PSoC4/ble.c **** *     </tr>
 383:Generated_Source\PSoC4/ble.c **** *     <tr>
 384:Generated_Source\PSoC4/ble.c **** *       <td>CYBLE_ERROR_INVALID_PARAMETER</td>
 385:Generated_Source\PSoC4/ble.c **** *       <td>On passing a NULL pointer to the function. 
 386:Generated_Source\PSoC4/ble.c **** *		</td>
 387:Generated_Source\PSoC4/ble.c **** *     </tr>
 388:Generated_Source\PSoC4/ble.c **** *     <tr>
 389:Generated_Source\PSoC4/ble.c **** *       <td>CYBLE_ERROR_REPEATED_ATTEMPTS</td>
 390:Generated_Source\PSoC4/ble.c **** *       <td>On invoking this function more than once without calling CyBle_Shutdown() 
 391:Generated_Source\PSoC4/ble.c **** *           function between calls to this function.</td>
 392:Generated_Source\PSoC4/ble.c **** *     </tr>
 393:Generated_Source\PSoC4/ble.c **** *     <tr>
 394:Generated_Source\PSoC4/ble.c **** *       <td>CYBLE_ERROR_MEMORY_ALLOCATION_FAILED</td>
 395:Generated_Source\PSoC4/ble.c **** *       <td>There is insufficient memory available.</td>
 396:Generated_Source\PSoC4/ble.c **** *     </tr>
 397:Generated_Source\PSoC4/ble.c **** *   </table>
 398:Generated_Source\PSoC4/ble.c **** * 
 399:Generated_Source\PSoC4/ble.c **** *  \globalvars
 400:Generated_Source\PSoC4/ble.c **** *   The CyBle_initVar variable is used to indicate initial
 401:Generated_Source\PSoC4/ble.c **** *   configuration of this component. The variable is initialized to zero (0u)
 402:Generated_Source\PSoC4/ble.c **** *   and set to one (1u) the first time CyBle_Start() is called. This
 403:Generated_Source\PSoC4/ble.c **** *   allows for component initialization without re-initialization in all
 404:Generated_Source\PSoC4/ble.c **** *   subsequent calls to the CyBle_Start() routine.
 405:Generated_Source\PSoC4/ble.c **** * 
 406:Generated_Source\PSoC4/ble.c **** ******************************************************************************/
 407:Generated_Source\PSoC4/ble.c **** CYBLE_API_RESULT_T CyBle_Start(CYBLE_CALLBACK_T callbackFunc)
 408:Generated_Source\PSoC4/ble.c **** {
 409:Generated_Source\PSoC4/ble.c ****     CYBLE_API_RESULT_T apiResult = CYBLE_ERROR_OK;
 410:Generated_Source\PSoC4/ble.c ****     
 411:Generated_Source\PSoC4/ble.c ****     #if(CYBLE_MODE_PROFILE)
 412:Generated_Source\PSoC4/ble.c ****     
 413:Generated_Source\PSoC4/ble.c ****     CYBLE_STK_APP_DATA_BUFF_T cyBle_stackDataBuff[CYBLE_STACK_APP_MIN_POOL] = 
 414:Generated_Source\PSoC4/ble.c ****     {
 415:Generated_Source\PSoC4/ble.c ****         {CYBLE_GATT_MTU_PLUS_L2CAP_MEM_EXT, CYBLE_GATT_MTU_BUFF_COUNT + CYBLE_GATT_MAX_ATTR_BUFF_CO
 416:Generated_Source\PSoC4/ble.c ****         {CYBLE_L2CAP_PSM_PLUS_L2CAP_MEM_EXT, CYBLE_L2CAP_PSM_COUNT},
 417:Generated_Source\PSoC4/ble.c ****         {CYBLE_L2CAP_CBFC_PLUS_L2CAP_MEM_EXT, 2u * CYBLE_L2CAP_LOGICAL_CHANNEL_COUNT},
 418:Generated_Source\PSoC4/ble.c ****         {CYBLE_L2CAP_MTU_PLUS_L2CAP_MEM_EXT, CYBLE_L2CAP_LOGICAL_CHANNEL_COUNT},
 419:Generated_Source\PSoC4/ble.c ****         {CYBLE_L2CAP_MPS_PLUS_L2CAP_MEM_EXT, CYBLE_L2CAP_LOGICAL_CHANNEL_COUNT * (CYBLE_L2CAP_MTU_M
 420:Generated_Source\PSoC4/ble.c ****     }; 
 421:Generated_Source\PSoC4/ble.c **** 
 422:Generated_Source\PSoC4/ble.c ****     #endif /* CYBLE_MODE_PROFILE */
 423:Generated_Source\PSoC4/ble.c ****     
 424:Generated_Source\PSoC4/ble.c ****     /* If not initialized then initialize all the required hardware and software */
 425:Generated_Source\PSoC4/ble.c ****     if(cyBle_initVar == 0u)
 426:Generated_Source\PSoC4/ble.c ****     {
 427:Generated_Source\PSoC4/ble.c ****         CyBle_Init();
 428:Generated_Source\PSoC4/ble.c ****         cyBle_initVar = 1u;
 429:Generated_Source\PSoC4/ble.c ****     }
 430:Generated_Source\PSoC4/ble.c ****     
ARM GAS  C:\Users\Petro\AppData\Local\Temp\ccWSp1ai.s 			page 9


 431:Generated_Source\PSoC4/ble.c ****     if(callbackFunc != NULL)
 432:Generated_Source\PSoC4/ble.c ****     {
 433:Generated_Source\PSoC4/ble.c ****         CyBle_ApplCallback = callbackFunc;
 434:Generated_Source\PSoC4/ble.c ****         
 435:Generated_Source\PSoC4/ble.c ****     #if(CYBLE_SHARING_MODE_EXPORT)
 436:Generated_Source\PSoC4/ble.c ****         if(cyBle_stackMemoryRam == NULL)
 437:Generated_Source\PSoC4/ble.c ****         {
 438:Generated_Source\PSoC4/ble.c ****             cyBle_stackMemoryRam = (uint8 *)malloc(CYBLE_STACK_RAM_SIZE);
 439:Generated_Source\PSoC4/ble.c ****             if(cyBle_stackMemoryRam == NULL)
 440:Generated_Source\PSoC4/ble.c ****             {
 441:Generated_Source\PSoC4/ble.c ****                 apiResult = CYBLE_ERROR_MEMORY_ALLOCATION_FAILED;
 442:Generated_Source\PSoC4/ble.c ****             }
 443:Generated_Source\PSoC4/ble.c ****         }
 444:Generated_Source\PSoC4/ble.c ****     #endif /* CYBLE_SHARING_MODE_EXPORT */
 445:Generated_Source\PSoC4/ble.c ****         if(apiResult == CYBLE_ERROR_OK)
 446:Generated_Source\PSoC4/ble.c ****         {
 447:Generated_Source\PSoC4/ble.c ****             CYBLE_DLE_CONFIG_PARAM_T dleConfigParams;
 448:Generated_Source\PSoC4/ble.c ****             CYBLE_PRIVACY_1_2_CONFIG_PARAM_T privacyConfigParams;
 449:Generated_Source\PSoC4/ble.c ****             CYBLE_STACK_CONFIG_PARAM_T stackConfig;
 450:Generated_Source\PSoC4/ble.c ****             uint16 featureHeapReq;
 451:Generated_Source\PSoC4/ble.c ****             
 452:Generated_Source\PSoC4/ble.c ****             stackConfig.privacyConfig = &privacyConfigParams;
 453:Generated_Source\PSoC4/ble.c ****             stackConfig.dleConfig = &dleConfigParams;
 454:Generated_Source\PSoC4/ble.c ****             
 455:Generated_Source\PSoC4/ble.c ****             /* Configure default BLE 4.1 features and enabled 4.2 features */
 456:Generated_Source\PSoC4/ble.c ****             stackConfig.feature_mask = CYBLE_DLE_FEATURE | CYBLE_LL_PRIVACY_FEATURE | 
 457:Generated_Source\PSoC4/ble.c ****                                        CYBLE_SECURE_CONN_FEATURE;
 458:Generated_Source\PSoC4/ble.c **** 
 459:Generated_Source\PSoC4/ble.c ****             /* Configure DLE */
 460:Generated_Source\PSoC4/ble.c ****             dleConfigParams.dleMaxTxCapability = CYBLE_LL_MAX_TX_PAYLOAD_SIZE;
 461:Generated_Source\PSoC4/ble.c ****             dleConfigParams.dleMaxRxCapability = CYBLE_LL_MAX_RX_PAYLOAD_SIZE;
 462:Generated_Source\PSoC4/ble.c ****             dleConfigParams.dleNumTxBuffer = CYBLE_LL_DEFAULT_NUM_ACL_TX_PACKETS;
 463:Generated_Source\PSoC4/ble.c ****         #if(CYBLE_DLE_FEATURE_ENABLED)
 464:Generated_Source\PSoC4/ble.c ****             CyBle_EnableDleFeature();              /* Enable DLE code in stack */
 465:Generated_Source\PSoC4/ble.c ****         #endif /* CYBLE_DLE_FEATURE_ENABLED */
 466:Generated_Source\PSoC4/ble.c ****         
 467:Generated_Source\PSoC4/ble.c ****             /* Configure LL Privacy */
 468:Generated_Source\PSoC4/ble.c ****             privacyConfigParams.resolvingListSize = CYBLE_MAX_RESOLVABLE_DEVICES;
 469:Generated_Source\PSoC4/ble.c ****         #if(CYBLE_LL_PRIVACY_FEATURE_ENABLED)
 470:Generated_Source\PSoC4/ble.c ****             CyBle_EnablePrivacyFeature();          /* Enable LL Privacy code in stack */
 471:Generated_Source\PSoC4/ble.c ****         #endif /* CYBLE_LL_PRIVACY_FEATURE_ENABLED */
 472:Generated_Source\PSoC4/ble.c **** 
 473:Generated_Source\PSoC4/ble.c ****             apiResult = CyBle_StackSetFeatureConfig(&stackConfig, &featureHeapReq);
 474:Generated_Source\PSoC4/ble.c ****             }
 475:Generated_Source\PSoC4/ble.c ****     
 476:Generated_Source\PSoC4/ble.c ****         if(apiResult == CYBLE_ERROR_OK)
 477:Generated_Source\PSoC4/ble.c ****         {
 478:Generated_Source\PSoC4/ble.c ****         
 479:Generated_Source\PSoC4/ble.c ****         #if(CYBLE_MODE_PROFILE)
 480:Generated_Source\PSoC4/ble.c ****             #if(CYBLE_BONDING_REQUIREMENT == CYBLE_BONDING_YES)
 481:Generated_Source\PSoC4/ble.c ****                 apiResult = CyBle_StackInit(&CyBle_EventHandler, cyBle_stackMemoryRam, 
 482:Generated_Source\PSoC4/ble.c ****                     CYBLE_STACK_RAM_SIZE - CYBLE_GATT_PREPARE_WRITE_BUFF_LEN, cyBle_stackDataBuff, 
 483:Generated_Source\PSoC4/ble.c ****                     CYBLE_STACK_APP_MIN_POOL, cyBle_flashStorage.stackFlashptr, CYBLE_STACK_FLASH_S
 484:Generated_Source\PSoC4/ble.c ****             #else
 485:Generated_Source\PSoC4/ble.c ****                 apiResult = CyBle_StackInit(&CyBle_EventHandler, cyBle_stackMemoryRam, 
 486:Generated_Source\PSoC4/ble.c ****                     CYBLE_STACK_RAM_SIZE - CYBLE_GATT_PREPARE_WRITE_BUFF_LEN, cyBle_stackDataBuff, 
 487:Generated_Source\PSoC4/ble.c ****                     CYBLE_STACK_APP_MIN_POOL, NULL, 0u);
ARM GAS  C:\Users\Petro\AppData\Local\Temp\ccWSp1ai.s 			page 10


 488:Generated_Source\PSoC4/ble.c ****             #endif  /* CYBLE_BONDING_REQUIREMENT == CYBLE_BONDING_YES */
 489:Generated_Source\PSoC4/ble.c ****         #else /* HCI mode */
 490:Generated_Source\PSoC4/ble.c ****             /* The following will perform preparation to use HCI over UART or over
 491:Generated_Source\PSoC4/ble.c ****                software. But the following fucntions will not initialize the HCI
 492:Generated_Source\PSoC4/ble.c ****                Transport. This will be done as part of Stack initialization, so
 493:Generated_Source\PSoC4/ble.c ****                the functions should be called prior CyBle_StackInit().
 494:Generated_Source\PSoC4/ble.c ****             */
 495:Generated_Source\PSoC4/ble.c ****             #if (CYBLE_HCI_TYPE == CYBLE_HCI_OVER_UART)
 496:Generated_Source\PSoC4/ble.c ****                 CyBle_HciUartTransportEnable();
 497:Generated_Source\PSoC4/ble.c ****             #else
 498:Generated_Source\PSoC4/ble.c ****                 CyBle_HciSoftTransportEnable();
 499:Generated_Source\PSoC4/ble.c ****             #endif /* (CYBLE_HCI_TYPE == CYBLE_HCI_OVER_UART) */
 500:Generated_Source\PSoC4/ble.c ****             /* This will initialize BLE stack for HCI mode operation */
 501:Generated_Source\PSoC4/ble.c ****             apiResult = CyBle_StackInit(&CyBle_EventHandler, cyBle_stackMemoryRam, CYBLE_STACK_RAM_
 502:Generated_Source\PSoC4/ble.c ****                 NULL, 0u, NULL, 0u);
 503:Generated_Source\PSoC4/ble.c ****         #endif /* CYBLE_MODE_PROFILE */
 504:Generated_Source\PSoC4/ble.c **** 
 505:Generated_Source\PSoC4/ble.c ****             if(apiResult == CYBLE_ERROR_OK)
 506:Generated_Source\PSoC4/ble.c ****             {
 507:Generated_Source\PSoC4/ble.c ****                 CyBle_SetState(CYBLE_STATE_INITIALIZING);
 508:Generated_Source\PSoC4/ble.c ****                 
 509:Generated_Source\PSoC4/ble.c ****             #if (CYBLE_GATT_ROLE_CLIENT)
 510:Generated_Source\PSoC4/ble.c ****                 CyBle_SetClientState(CYBLE_CLIENT_STATE_DISCONNECTED);
 511:Generated_Source\PSoC4/ble.c ****             #endif /* CYBLE_GATT_ROLE_CLIENT */
 512:Generated_Source\PSoC4/ble.c ****                 
 513:Generated_Source\PSoC4/ble.c ****             #if(CYBLE_GATT_ROLE_SERVER)
 514:Generated_Source\PSoC4/ble.c ****                 apiResult = CyBle_GattsDbRegister(cyBle_gattDB, CYBLE_GATT_DB_INDEX_COUNT, CYBLE_GA
 515:Generated_Source\PSoC4/ble.c ****             #endif /* CYBLE_GATT_ROLE_SERVER */
 516:Generated_Source\PSoC4/ble.c ****             }
 517:Generated_Source\PSoC4/ble.c ****         }
 518:Generated_Source\PSoC4/ble.c ****     }
 519:Generated_Source\PSoC4/ble.c ****     else
 520:Generated_Source\PSoC4/ble.c ****     {
 521:Generated_Source\PSoC4/ble.c ****         apiResult = CYBLE_ERROR_INVALID_PARAMETER;
 522:Generated_Source\PSoC4/ble.c ****     }
 523:Generated_Source\PSoC4/ble.c **** 
 524:Generated_Source\PSoC4/ble.c ****     return (apiResult);
 525:Generated_Source\PSoC4/ble.c **** }
 526:Generated_Source\PSoC4/ble.c **** 
 527:Generated_Source\PSoC4/ble.c **** 
 528:Generated_Source\PSoC4/ble.c **** /******************************************************************************
 529:Generated_Source\PSoC4/ble.c **** * Function Name: CyBle_Stop
 530:Generated_Source\PSoC4/ble.c **** ***************************************************************************//**
 531:Generated_Source\PSoC4/ble.c **** * 
 532:Generated_Source\PSoC4/ble.c **** *  This function stops any ongoing operation in the BLE Stack and forces the 
 533:Generated_Source\PSoC4/ble.c **** *  BLE Stack to shut down. The only function that can be called after calling
 534:Generated_Source\PSoC4/ble.c **** *  this function is CyBle_Start(). 
 535:Generated_Source\PSoC4/ble.c **** * 
 536:Generated_Source\PSoC4/ble.c **** * \return
 537:Generated_Source\PSoC4/ble.c **** *  None
 538:Generated_Source\PSoC4/ble.c **** * 
 539:Generated_Source\PSoC4/ble.c **** ******************************************************************************/
 540:Generated_Source\PSoC4/ble.c **** void CyBle_Stop(void)
 541:Generated_Source\PSoC4/ble.c **** {
 542:Generated_Source\PSoC4/ble.c ****     CyBle_Shutdown();                         /* Stop all ongoing activities */
 543:Generated_Source\PSoC4/ble.c ****     CyBle_SetState(CYBLE_STATE_STOPPED);
 544:Generated_Source\PSoC4/ble.c ****     #if(CYBLE_SHARING_MODE_EXPORT)
ARM GAS  C:\Users\Petro\AppData\Local\Temp\ccWSp1ai.s 			page 11


 545:Generated_Source\PSoC4/ble.c ****         if(cyBle_stackMemoryRam != NULL)
 546:Generated_Source\PSoC4/ble.c ****         {
 547:Generated_Source\PSoC4/ble.c ****             free(cyBle_stackMemoryRam);
 548:Generated_Source\PSoC4/ble.c ****         }
 549:Generated_Source\PSoC4/ble.c ****     #endif /* CYBLE_SHARING_MODE_EXPORT */
 550:Generated_Source\PSoC4/ble.c **** }
 551:Generated_Source\PSoC4/ble.c **** 
 552:Generated_Source\PSoC4/ble.c **** 
 553:Generated_Source\PSoC4/ble.c **** #if((CYBLE_GAP_ROLE_PERIPHERAL || CYBLE_GAP_ROLE_CENTRAL) && (CYBLE_BONDING_REQUIREMENT == CYBLE_BO
 554:Generated_Source\PSoC4/ble.c **** 
 555:Generated_Source\PSoC4/ble.c ****     
 556:Generated_Source\PSoC4/ble.c **** /******************************************************************************
 557:Generated_Source\PSoC4/ble.c **** * Function Name: CyBle_StoreBondingData
 558:Generated_Source\PSoC4/ble.c **** ***************************************************************************//**
 559:Generated_Source\PSoC4/ble.c **** * 
 560:Generated_Source\PSoC4/ble.c **** *  This function writes the new bonding data from RAM to the dedicated Flash 
 561:Generated_Source\PSoC4/ble.c **** *  location as defined by the component. It performs data comparing between RAM
 562:Generated_Source\PSoC4/ble.c **** *  and Flash before writing to Flash. If there is no change between RAM and Flash
 563:Generated_Source\PSoC4/ble.c **** *  data, then no write is performed. It writes only one flash row in one call.
 564:Generated_Source\PSoC4/ble.c **** *  Application should keep calling this function till API return CYBLE_ERROR_OK. 
 565:Generated_Source\PSoC4/ble.c **** *  This function is available only when Bonding requirement is selected in
 566:Generated_Source\PSoC4/ble.c **** *  Security settings.    
 567:Generated_Source\PSoC4/ble.c **** * 
 568:Generated_Source\PSoC4/ble.c **** *  \param isForceWrite:  If value is set to 0, then stack will check if flash write 
 569:Generated_Source\PSoC4/ble.c **** *                 is permissible. 
 570:Generated_Source\PSoC4/ble.c **** *  
 571:Generated_Source\PSoC4/ble.c **** * \return
 572:Generated_Source\PSoC4/ble.c **** *  Return value is of type CYBLE_API_RESULT_T.
 573:Generated_Source\PSoC4/ble.c **** *
 574:Generated_Source\PSoC4/ble.c **** *   Errors codes                         | Description
 575:Generated_Source\PSoC4/ble.c **** *   ----------------------------------   | ------------------------------------
 576:Generated_Source\PSoC4/ble.c **** *   CYBLE_ERROR_OK                       | On successful operation
 577:Generated_Source\PSoC4/ble.c **** *   CYBLE_ERROR_FLASH_WRITE_NOT_PERMITED | Flash Write is not complete
 578:Generated_Source\PSoC4/ble.c **** *   CYBLE_ERROR_INVALID_PARAMETER        | Invalid input parameter  
 579:Generated_Source\PSoC4/ble.c **** *   CYBLE_ERROR_FLASH_WRITE              | Error in flash Write	
 580:Generated_Source\PSoC4/ble.c ****     
 581:Generated_Source\PSoC4/ble.c **** *  \sideeffect
 582:Generated_Source\PSoC4/ble.c **** *   For BLE devices with 128K of Flash memory this API will automatically 
 583:Generated_Source\PSoC4/ble.c **** *   modify the clock settings for the device.
 584:Generated_Source\PSoC4/ble.c **** *   Writing to flash requires changes to be done to the IMO (set to 48 MHz)
 585:Generated_Source\PSoC4/ble.c **** *   and HFCLK (source set to IMO) settings. The configuration is restored before
 586:Generated_Source\PSoC4/ble.c **** *   returning. This will impact the operation of most of the hardware in the
 587:Generated_Source\PSoC4/ble.c **** *   device.
 588:Generated_Source\PSoC4/ble.c **** * 
 589:Generated_Source\PSoC4/ble.c **** *  \globalvars
 590:Generated_Source\PSoC4/ble.c **** *   The cyBle_pendingFlashWrite variable is used to detect status
 591:Generated_Source\PSoC4/ble.c **** *   of pending write to flash operation for stack data and CCCD.
 592:Generated_Source\PSoC4/ble.c **** *   This API automatically clears pending bits after write operation complete.
 593:Generated_Source\PSoC4/ble.c **** *     
 594:Generated_Source\PSoC4/ble.c **** ******************************************************************************/
 595:Generated_Source\PSoC4/ble.c **** CYBLE_API_RESULT_T CyBle_StoreBondingData(uint8 isForceWrite)
 596:Generated_Source\PSoC4/ble.c **** {
 597:Generated_Source\PSoC4/ble.c ****     CYBLE_API_RESULT_T apiResult = CYBLE_ERROR_OK;
 598:Generated_Source\PSoC4/ble.c ****     
 599:Generated_Source\PSoC4/ble.c ****     /* Store Stack data */
 600:Generated_Source\PSoC4/ble.c ****     if((cyBle_pendingFlashWrite & CYBLE_PENDING_STACK_FLASH_WRITE_BIT) != 0u)
 601:Generated_Source\PSoC4/ble.c ****     {
ARM GAS  C:\Users\Petro\AppData\Local\Temp\ccWSp1ai.s 			page 12


 602:Generated_Source\PSoC4/ble.c ****         apiResult = CyBle_StoreStackData(isForceWrite);
 603:Generated_Source\PSoC4/ble.c ****         if(apiResult == CYBLE_ERROR_OK)
 604:Generated_Source\PSoC4/ble.c ****         {
 605:Generated_Source\PSoC4/ble.c ****             cyBle_pendingFlashWrite &= (uint8)~CYBLE_PENDING_STACK_FLASH_WRITE_BIT;
 606:Generated_Source\PSoC4/ble.c ****             /* Change apiResult if there are more pending data to store */
 607:Generated_Source\PSoC4/ble.c ****             if((cyBle_pendingFlashWrite & CYBLE_PENDING_CCCD_FLASH_WRITE_BIT) != 0u)
 608:Generated_Source\PSoC4/ble.c ****             {
 609:Generated_Source\PSoC4/ble.c ****                 apiResult = CYBLE_ERROR_FLASH_WRITE_NOT_PERMITED;
 610:Generated_Source\PSoC4/ble.c ****             }
 611:Generated_Source\PSoC4/ble.c ****         }
 612:Generated_Source\PSoC4/ble.c ****     }
 613:Generated_Source\PSoC4/ble.c **** #if(CYBLE_GATT_DB_CCCD_COUNT != 0u)
 614:Generated_Source\PSoC4/ble.c ****     /* Store CCCD values */
 615:Generated_Source\PSoC4/ble.c ****     if( ((apiResult == CYBLE_ERROR_OK) || (isForceWrite != 0u)) && 
 616:Generated_Source\PSoC4/ble.c ****         ((cyBle_pendingFlashWrite & CYBLE_PENDING_CCCD_FLASH_WRITE_BIT) != 0u) &&
 617:Generated_Source\PSoC4/ble.c ****         (cyBle_connHandle.bdHandle <= CYBLE_GAP_MAX_BONDED_DEVICE))
 618:Generated_Source\PSoC4/ble.c ****     {
 619:Generated_Source\PSoC4/ble.c ****         apiResult = CyBle_StoreAppData(cyBle_attValuesCCCD, cyBle_flashStorage.attValuesCCCDFlashMe
 620:Generated_Source\PSoC4/ble.c ****                         cyBle_connHandle.bdHandle], CYBLE_GATT_DB_CCCD_COUNT, isForceWrite);
 621:Generated_Source\PSoC4/ble.c ****         if(apiResult == CYBLE_ERROR_OK)
 622:Generated_Source\PSoC4/ble.c ****         {
 623:Generated_Source\PSoC4/ble.c ****             cyBle_pendingFlashWrite &= (uint8)~CYBLE_PENDING_CCCD_FLASH_WRITE_BIT;
 624:Generated_Source\PSoC4/ble.c ****         }
 625:Generated_Source\PSoC4/ble.c ****     }
 626:Generated_Source\PSoC4/ble.c ****     /* Clear requested CCCD values */
 627:Generated_Source\PSoC4/ble.c ****     if( ((apiResult == CYBLE_ERROR_OK) || (isForceWrite != 0u)) && 
 628:Generated_Source\PSoC4/ble.c ****         ((cyBle_pendingFlashWrite & CYBLE_PENDING_CCCD_FLASH_CLEAR_MASK) != 0u) )
 629:Generated_Source\PSoC4/ble.c ****     {
 630:Generated_Source\PSoC4/ble.c ****         if((cyBle_pendingFlashWrite & CYBLE_PENDING_CCCD_FLASH_CLEAR_ALL_BIT) != 0u)
 631:Generated_Source\PSoC4/ble.c ****         {
 632:Generated_Source\PSoC4/ble.c ****             /* Remove cccd values for all bonded devices */
 633:Generated_Source\PSoC4/ble.c ****             uint8 defaultValuesCCCD[CYBLE_GAP_MAX_BONDED_DEVICE + 1u][CYBLE_GATT_DB_CCCD_COUNT];
 634:Generated_Source\PSoC4/ble.c ****             
 635:Generated_Source\PSoC4/ble.c ****             (void)memset(defaultValuesCCCD, 0, sizeof(defaultValuesCCCD));
 636:Generated_Source\PSoC4/ble.c **** 
 637:Generated_Source\PSoC4/ble.c ****             apiResult = CyBle_StoreAppData((uint8 *)defaultValuesCCCD, 
 638:Generated_Source\PSoC4/ble.c ****                 (const uint8 *)cyBle_flashStorage.attValuesCCCDFlashMemory, sizeof(defaultValuesCCC
 639:Generated_Source\PSoC4/ble.c ****             if(apiResult == CYBLE_ERROR_OK)
 640:Generated_Source\PSoC4/ble.c ****             {
 641:Generated_Source\PSoC4/ble.c ****                 cyBle_pendingFlashWrite &= (uint8)~CYBLE_PENDING_CCCD_FLASH_CLEAR_ALL_BIT;
 642:Generated_Source\PSoC4/ble.c ****             }
 643:Generated_Source\PSoC4/ble.c ****         }
 644:Generated_Source\PSoC4/ble.c ****         else /* Remove cccd values for particular device */
 645:Generated_Source\PSoC4/ble.c ****         {
 646:Generated_Source\PSoC4/ble.c ****             uint8 defaultValuesCCCD[CYBLE_GATT_DB_CCCD_COUNT] = {0u};
 647:Generated_Source\PSoC4/ble.c ****             
 648:Generated_Source\PSoC4/ble.c ****             apiResult = CyBle_StoreAppData(defaultValuesCCCD, cyBle_flashStorage.attValuesCCCDFlash
 649:Generated_Source\PSoC4/ble.c ****                                     cyBle_pendingFlashClearCccdHandle], CYBLE_GATT_DB_CCCD_COUNT, i
 650:Generated_Source\PSoC4/ble.c ****             if(apiResult == CYBLE_ERROR_OK)
 651:Generated_Source\PSoC4/ble.c ****             {
 652:Generated_Source\PSoC4/ble.c ****                 cyBle_pendingFlashWrite &= (uint8)~CYBLE_PENDING_CCCD_FLASH_CLEAR_BIT;
 653:Generated_Source\PSoC4/ble.c ****             }
 654:Generated_Source\PSoC4/ble.c ****         }
 655:Generated_Source\PSoC4/ble.c ****     }
 656:Generated_Source\PSoC4/ble.c **** #endif /* CYBLE_GATT_DB_CCCD_COUNT != 0u */
 657:Generated_Source\PSoC4/ble.c ****     return(apiResult);
 658:Generated_Source\PSoC4/ble.c **** }
ARM GAS  C:\Users\Petro\AppData\Local\Temp\ccWSp1ai.s 			page 13


 659:Generated_Source\PSoC4/ble.c **** 
 660:Generated_Source\PSoC4/ble.c **** 
 661:Generated_Source\PSoC4/ble.c **** /******************************************************************************
 662:Generated_Source\PSoC4/ble.c **** * Function Name: CyBle_GapRemoveBondedDevice
 663:Generated_Source\PSoC4/ble.c **** ***************************************************************************//**
 664:Generated_Source\PSoC4/ble.c **** * 
 665:Generated_Source\PSoC4/ble.c **** *  This function marks the device untrusted. It removes the bonding information
 666:Generated_Source\PSoC4/ble.c **** *  of the device including CCCD values. This function removes device from the
 667:Generated_Source\PSoC4/ble.c **** *  white list also when autopopulate white list with bonded devices option is
 668:Generated_Source\PSoC4/ble.c **** *  enabled.
 669:Generated_Source\PSoC4/ble.c **** * 
 670:Generated_Source\PSoC4/ble.c **** *  This function is available only when Bonding requirement is selected in
 671:Generated_Source\PSoC4/ble.c **** *  Security settings.    
 672:Generated_Source\PSoC4/ble.c **** *
 673:Generated_Source\PSoC4/ble.c **** *  \param bdAddr: Pointer to peer device address, of type CYBLE_GAP_BD_ADDR_T.
 674:Generated_Source\PSoC4/ble.c **** *                 If device address is set to 0, then all devices shall be
 675:Generated_Source\PSoC4/ble.c **** *                 removed from trusted list and white list.
 676:Generated_Source\PSoC4/ble.c **** *
 677:Generated_Source\PSoC4/ble.c **** * \return
 678:Generated_Source\PSoC4/ble.c **** *  CYBLE_API_RESULT_T : Return value indicates if the function succeeded or
 679:Generated_Source\PSoC4/ble.c **** *  failed. Following are the possible error codes.
 680:Generated_Source\PSoC4/ble.c **** *
 681:Generated_Source\PSoC4/ble.c **** *   Errors codes                     | Description
 682:Generated_Source\PSoC4/ble.c **** *   ---------------------------------| ------------------------------------
 683:Generated_Source\PSoC4/ble.c **** *   CYBLE_ERROR_OK                   | On successful operation.
 684:Generated_Source\PSoC4/ble.c **** *   CYBLE_ERROR_INVALID_PARAMETER    | On specifying NULL as input parameter for 'bdAddr'.
 685:Generated_Source\PSoC4/ble.c **** *   CYBLE_ERROR_INVALID_OPERATION    | Whitelist is already in use or there is pending write to fla
 686:Generated_Source\PSoC4/ble.c **** *   CYBLE_ERROR_NO_DEVICE_ENTITY     | Device does not exist in the bond list.
 687:Generated_Source\PSoC4/ble.c **** *
 688:Generated_Source\PSoC4/ble.c **** *  \globalvars
 689:Generated_Source\PSoC4/ble.c **** *   The bdHandle is set in cyBle_pendingFlashWrite variable to indicate that
 690:Generated_Source\PSoC4/ble.c **** *   data should be stored to flash by CyBle_StoreBondingData afterwards. 
 691:Generated_Source\PSoC4/ble.c **** *     
 692:Generated_Source\PSoC4/ble.c **** ******************************************************************************/
 693:Generated_Source\PSoC4/ble.c **** CYBLE_API_RESULT_T CyBle_GapRemoveBondedDevice(CYBLE_GAP_BD_ADDR_T* bdAddr)
 694:Generated_Source\PSoC4/ble.c **** {
 695:Generated_Source\PSoC4/ble.c ****     CYBLE_API_RESULT_T apiResult = CYBLE_ERROR_OK;
 696:Generated_Source\PSoC4/ble.c ****     
 697:Generated_Source\PSoC4/ble.c ****     if(cyBle_pendingFlashWrite == 0u)
 698:Generated_Source\PSoC4/ble.c ****     {
 699:Generated_Source\PSoC4/ble.c ****         
 700:Generated_Source\PSoC4/ble.c ****     #if(CYBLE_GATT_DB_CCCD_COUNT != 0u)
 701:Generated_Source\PSoC4/ble.c ****         /* Request to clear CCCD values which will be done by CyBle_StoreBondingData API */
 702:Generated_Source\PSoC4/ble.c ****         uint8 bDevHandle;
 703:Generated_Source\PSoC4/ble.c ****         CYBLE_GAP_BD_ADDR_T invalidBdAddr = {{0u,0u,0u,0u,0u,0u}, 0u};
 704:Generated_Source\PSoC4/ble.c **** 
 705:Generated_Source\PSoC4/ble.c ****         if(memcmp(((uint8 *) &(bdAddr->bdAddr)), ((uint8 *) &(invalidBdAddr.bdAddr)), CYBLE_GAP_BD_
 706:Generated_Source\PSoC4/ble.c **** 	    {
 707:Generated_Source\PSoC4/ble.c ****             /* Request to remove all bonded devices by cyBle_StoreBondingData API */
 708:Generated_Source\PSoC4/ble.c ****             cyBle_pendingFlashWrite |= CYBLE_PENDING_CCCD_FLASH_CLEAR_ALL_BIT;
 709:Generated_Source\PSoC4/ble.c ****         }
 710:Generated_Source\PSoC4/ble.c ****         else
 711:Generated_Source\PSoC4/ble.c ****         {
 712:Generated_Source\PSoC4/ble.c ****             /* Get the BD handle from Address */
 713:Generated_Source\PSoC4/ble.c ****             apiResult = CyBle_GapGetPeerBdHandle(&bDevHandle, bdAddr);
 714:Generated_Source\PSoC4/ble.c ****             if(apiResult == CYBLE_ERROR_OK)
 715:Generated_Source\PSoC4/ble.c ****             {
ARM GAS  C:\Users\Petro\AppData\Local\Temp\ccWSp1ai.s 			page 14


 716:Generated_Source\PSoC4/ble.c ****                 /* Store BD handle to clear cccd values by CyBle_StoreBondingData API */
 717:Generated_Source\PSoC4/ble.c ****                 cyBle_pendingFlashWrite |= CYBLE_PENDING_CCCD_FLASH_CLEAR_BIT;
 718:Generated_Source\PSoC4/ble.c ****                 cyBle_pendingFlashClearCccdHandle = bDevHandle;
 719:Generated_Source\PSoC4/ble.c ****             }
 720:Generated_Source\PSoC4/ble.c ****         }
 721:Generated_Source\PSoC4/ble.c ****     #endif /* CYBLE_GATT_DB_CCCD_COUNT != 0u */
 722:Generated_Source\PSoC4/ble.c ****         if(apiResult == CYBLE_ERROR_OK)
 723:Generated_Source\PSoC4/ble.c ****         {
 724:Generated_Source\PSoC4/ble.c ****             apiResult = CyBle_GapRemoveDeviceFromWhiteList(bdAddr);
 725:Generated_Source\PSoC4/ble.c ****         }
 726:Generated_Source\PSoC4/ble.c ****     }
 727:Generated_Source\PSoC4/ble.c ****     else
 728:Generated_Source\PSoC4/ble.c ****     {
 729:Generated_Source\PSoC4/ble.c ****         apiResult = CYBLE_ERROR_INVALID_OPERATION;
 730:Generated_Source\PSoC4/ble.c ****     }
 731:Generated_Source\PSoC4/ble.c ****     
 732:Generated_Source\PSoC4/ble.c ****     return(apiResult);
 733:Generated_Source\PSoC4/ble.c **** }
 734:Generated_Source\PSoC4/ble.c **** 
 735:Generated_Source\PSoC4/ble.c **** 
 736:Generated_Source\PSoC4/ble.c **** #endif /* (CYBLE_GAP_ROLE_PERIPHERAL || CYBLE_GAP_ROLE_CENTRAL) && (CYBLE_BONDING_REQUIREMENT == CY
 737:Generated_Source\PSoC4/ble.c **** 
 738:Generated_Source\PSoC4/ble.c **** 
 739:Generated_Source\PSoC4/ble.c **** #if(CYBLE_GAP_ROLE_PERIPHERAL || CYBLE_GAP_ROLE_BROADCASTER)
 740:Generated_Source\PSoC4/ble.c **** 
 741:Generated_Source\PSoC4/ble.c ****     /******************************************************************************
 742:Generated_Source\PSoC4/ble.c ****     *  Function Name: CyBle_GappStartAdvertisement
 743:Generated_Source\PSoC4/ble.c ****     ***************************************************************************//**
 744:Generated_Source\PSoC4/ble.c ****     *     
 745:Generated_Source\PSoC4/ble.c ****     *  This function is used to start the advertisement using the advertisement data 
 746:Generated_Source\PSoC4/ble.c ****     *  set in the component customizer's GUI. After invoking this API, the device 
 747:Generated_Source\PSoC4/ble.c ****     *  will be available for connection by the devices configured for GAP central 
 748:Generated_Source\PSoC4/ble.c ****     *  role. It is only included if the device is configured for GAP Peripheral or 
 749:Generated_Source\PSoC4/ble.c ****     *  GAP Peripheral + Central role.
 750:Generated_Source\PSoC4/ble.c ****     *  
 751:Generated_Source\PSoC4/ble.c ****     *  On start of advertisement, GAP Peripheral receives the
 752:Generated_Source\PSoC4/ble.c ****     *  CYBLE_EVT_GAPP_ADVERTISEMENT_START_STOP event. The following events are 
 753:Generated_Source\PSoC4/ble.c ****     *  possible on invoking this function:
 754:Generated_Source\PSoC4/ble.c ****     *  
 755:Generated_Source\PSoC4/ble.c ****     *  * CYBLE_EVT_GAP_DEVICE_CONNECTED - If the device connects to a GAP Central and 
 756:Generated_Source\PSoC4/ble.c ****     *    Link Layer Privacy is disabled in component customizer.
 757:Generated_Source\PSoC4/ble.c ****     *  * CYBLE_EVT_GAP_ENHANCE_CONN_COMPLETE - If the device connects to a GAP Central and 
 758:Generated_Source\PSoC4/ble.c ****     *    Link Layer Privacy is enabled in component customizer.
 759:Generated_Source\PSoC4/ble.c ****     *  * CYBLE_EVT_TIMEOUT: If no device in GAP Central mode connects to this 
 760:Generated_Source\PSoC4/ble.c ****     *                       device within the specified timeout limit. Stack 
 761:Generated_Source\PSoC4/ble.c ****     *                       automatically initiate stop advertising when Slow 
 762:Generated_Source\PSoC4/ble.c ****     *                       advertising was initiated, or starts Slow advertising
 763:Generated_Source\PSoC4/ble.c ****     *                       after Fast advertising timeout occur.
 764:Generated_Source\PSoC4/ble.c ****     *  * CYBLE_EVT_GAPP_ADVERTISEMENT_START_STOP: If device started or stopped
 765:Generated_Source\PSoC4/ble.c ****     *                                               advertising. Use CyBle_GetState()
 766:Generated_Source\PSoC4/ble.c ****     *                                               to determine the state. Sequential 
 767:Generated_Source\PSoC4/ble.c ****     *                                               advertising could be started when
 768:Generated_Source\PSoC4/ble.c ****     *                                               CYBLE_STATE_DISCONNECTED state is
 769:Generated_Source\PSoC4/ble.c ****     *                                               returned.
 770:Generated_Source\PSoC4/ble.c ****     * 
 771:Generated_Source\PSoC4/ble.c ****     *  \param advertisingIntervalType: Fast or slow advertising interval with timings
 772:Generated_Source\PSoC4/ble.c ****     *                                 entered in Advertising settings section of the
ARM GAS  C:\Users\Petro\AppData\Local\Temp\ccWSp1ai.s 			page 15


 773:Generated_Source\PSoC4/ble.c ****     *                                 customizer.
 774:Generated_Source\PSoC4/ble.c ****     *  * CYBLE_ADVERTISING_FAST   0x00u
 775:Generated_Source\PSoC4/ble.c ****     *  * CYBLE_ADVERTISING_SLOW   0x01u
 776:Generated_Source\PSoC4/ble.c ****     *  * CYBLE_ADVERTISING_CUSTOM 0x02u
 777:Generated_Source\PSoC4/ble.c ****     * 
 778:Generated_Source\PSoC4/ble.c ****     * \return
 779:Generated_Source\PSoC4/ble.c ****     *  CYBLE_API_RESULT_T : Return value indicates if the function succeeded or
 780:Generated_Source\PSoC4/ble.c ****     *  failed. Following are the possible error codes.
 781:Generated_Source\PSoC4/ble.c ****     * 
 782:Generated_Source\PSoC4/ble.c ****     *   Errors codes                      |  Description
 783:Generated_Source\PSoC4/ble.c ****     *   --------------------------------- |  --------------------------------
 784:Generated_Source\PSoC4/ble.c ****     *   CYBLE_ERROR_OK                    |  On successful operation.
 785:Generated_Source\PSoC4/ble.c ****     *   CYBLE_ERROR_INVALID_PARAMETER     |  On passing an invalid parameter.
 786:Generated_Source\PSoC4/ble.c ****     *   CYBLE_ERROR_INVALID_STATE         |  On calling this API not in Disconnected state.
 787:Generated_Source\PSoC4/ble.c ****     *
 788:Generated_Source\PSoC4/ble.c ****     * 
 789:Generated_Source\PSoC4/ble.c ****     *******************************************************************************/
 790:Generated_Source\PSoC4/ble.c ****     CYBLE_API_RESULT_T CyBle_GappStartAdvertisement(uint8 advertisingIntervalType)
 791:Generated_Source\PSoC4/ble.c ****     {
 792:Generated_Source\PSoC4/ble.c ****         CYBLE_API_RESULT_T apiResult;
 793:Generated_Source\PSoC4/ble.c ****         
 794:Generated_Source\PSoC4/ble.c ****         if(advertisingIntervalType > CYBLE_ADVERTISING_CUSTOM)
 795:Generated_Source\PSoC4/ble.c ****         {
 796:Generated_Source\PSoC4/ble.c ****             apiResult = CYBLE_ERROR_INVALID_PARAMETER;
 797:Generated_Source\PSoC4/ble.c ****         }
 798:Generated_Source\PSoC4/ble.c ****         else if((CYBLE_STATE_DISCONNECTED == CyBle_GetState()) && ((cyBle_eventHandlerFlag & CYBLE_
 799:Generated_Source\PSoC4/ble.c ****         {   
 800:Generated_Source\PSoC4/ble.c ****             if(advertisingIntervalType == CYBLE_ADVERTISING_FAST)
 801:Generated_Source\PSoC4/ble.c ****             {
 802:Generated_Source\PSoC4/ble.c ****                 cyBle_discoveryModeInfo.advTo = CYBLE_FAST_ADV_TIMEOUT;
 803:Generated_Source\PSoC4/ble.c ****                 cyBle_discoveryModeInfo.advParam->advIntvMin = CYBLE_FAST_ADV_INT_MIN;
 804:Generated_Source\PSoC4/ble.c ****                 cyBle_discoveryModeInfo.advParam->advIntvMax = CYBLE_FAST_ADV_INT_MAX;
 805:Generated_Source\PSoC4/ble.c ****             }
 806:Generated_Source\PSoC4/ble.c ****             else if(advertisingIntervalType == CYBLE_ADVERTISING_SLOW)
 807:Generated_Source\PSoC4/ble.c ****             {
 808:Generated_Source\PSoC4/ble.c ****                 cyBle_discoveryModeInfo.advTo = CYBLE_SLOW_ADV_TIMEOUT;
 809:Generated_Source\PSoC4/ble.c ****                 cyBle_discoveryModeInfo.advParam->advIntvMin = CYBLE_SLOW_ADV_INT_MIN;
 810:Generated_Source\PSoC4/ble.c ****                 cyBle_discoveryModeInfo.advParam->advIntvMax = CYBLE_SLOW_ADV_INT_MAX;
 811:Generated_Source\PSoC4/ble.c ****             }       
 812:Generated_Source\PSoC4/ble.c ****             else /* Do not update advertising intervals */
 813:Generated_Source\PSoC4/ble.c ****             {
 814:Generated_Source\PSoC4/ble.c ****             }
 815:Generated_Source\PSoC4/ble.c ****             cyBle_advertisingIntervalType = advertisingIntervalType;
 816:Generated_Source\PSoC4/ble.c ****             apiResult = CyBle_GappEnterDiscoveryMode(&cyBle_discoveryModeInfo);
 817:Generated_Source\PSoC4/ble.c ****         
 818:Generated_Source\PSoC4/ble.c ****             if(apiResult == CYBLE_ERROR_OK)
 819:Generated_Source\PSoC4/ble.c ****             {
 820:Generated_Source\PSoC4/ble.c ****                 cyBle_eventHandlerFlag |= CYBLE_START_FLAG;
 821:Generated_Source\PSoC4/ble.c ****             }
 822:Generated_Source\PSoC4/ble.c ****         }
 823:Generated_Source\PSoC4/ble.c ****         else
 824:Generated_Source\PSoC4/ble.c ****         {
 825:Generated_Source\PSoC4/ble.c ****             apiResult = CYBLE_ERROR_INVALID_STATE;
 826:Generated_Source\PSoC4/ble.c ****         }
 827:Generated_Source\PSoC4/ble.c **** 
 828:Generated_Source\PSoC4/ble.c ****         return (apiResult);
 829:Generated_Source\PSoC4/ble.c ****     }
ARM GAS  C:\Users\Petro\AppData\Local\Temp\ccWSp1ai.s 			page 16


 830:Generated_Source\PSoC4/ble.c **** 
 831:Generated_Source\PSoC4/ble.c ****     
 832:Generated_Source\PSoC4/ble.c ****     /******************************************************************************
 833:Generated_Source\PSoC4/ble.c ****     * Function Name: CyBle_GappStopAdvertisement
 834:Generated_Source\PSoC4/ble.c ****     ***************************************************************************//**
 835:Generated_Source\PSoC4/ble.c ****     * 
 836:Generated_Source\PSoC4/ble.c ****     *   This function can be used to exit from discovery mode. After the execution 
 837:Generated_Source\PSoC4/ble.c ****     *   of this function, there will no longer be any advertisements. On stopping 
 838:Generated_Source\PSoC4/ble.c ****     *   advertising, GAP Peripheral receives CYBLE_EVT_GAPP_ADVERTISEMENT_START_STOP
 839:Generated_Source\PSoC4/ble.c ****     *   event. It is expected that the application layer tracks the function call 
 840:Generated_Source\PSoC4/ble.c ****     *   performed before occurrence of this event as this event can occur on making 
 841:Generated_Source\PSoC4/ble.c ****     *   a call to Cy_BleGappStartAdvertisement(), CyBle_GappEnterDiscoveryMode(), 
 842:Generated_Source\PSoC4/ble.c ****     *   or CyBle_GappStartAdvertisement() functions as well.
 843:Generated_Source\PSoC4/ble.c ****     *   
 844:Generated_Source\PSoC4/ble.c ****     *   The following event occurs on invoking this function:
 845:Generated_Source\PSoC4/ble.c ****     *   * CYBLE_EVT_GAPP_ADVERTISEMENT_START_STOP
 846:Generated_Source\PSoC4/ble.c ****     * 
 847:Generated_Source\PSoC4/ble.c ****     *  \return
 848:Generated_Source\PSoC4/ble.c ****     *   None
 849:Generated_Source\PSoC4/ble.c ****     * 
 850:Generated_Source\PSoC4/ble.c ****     *******************************************************************************/
 851:Generated_Source\PSoC4/ble.c ****     void CyBle_GappStopAdvertisement(void)
 852:Generated_Source\PSoC4/ble.c ****     {
 853:Generated_Source\PSoC4/ble.c ****         CyBle_GappExitDiscoveryMode();
 854:Generated_Source\PSoC4/ble.c ****         cyBle_eventHandlerFlag |= CYBLE_STOP_FLAG;
 855:Generated_Source\PSoC4/ble.c ****     }
 856:Generated_Source\PSoC4/ble.c ****     
 857:Generated_Source\PSoC4/ble.c ****     
 858:Generated_Source\PSoC4/ble.c ****     /******************************************************************************
 859:Generated_Source\PSoC4/ble.c ****     * Function Name: CyBle_ChangeAdDeviceAddress
 860:Generated_Source\PSoC4/ble.c ****     ***************************************************************************//**
 861:Generated_Source\PSoC4/ble.c ****     * 
 862:Generated_Source\PSoC4/ble.c ****     *  This API is used to set the Bluetooth device address into the advertisement 
 863:Generated_Source\PSoC4/ble.c ****     *  or scan response data structure.
 864:Generated_Source\PSoC4/ble.c ****     * 
 865:Generated_Source\PSoC4/ble.c ****     *  \param bdAddr: Bluetooth Device address. The variable is of type CYBLE_GAP_BD_ADDR_T
 866:Generated_Source\PSoC4/ble.c ****     *  \param dest: 0 - selects advertisement structure, not zero value selects scan 
 867:Generated_Source\PSoC4/ble.c ****     *               response structure.
 868:Generated_Source\PSoC4/ble.c ****     * 
 869:Generated_Source\PSoC4/ble.c ****     * \return
 870:Generated_Source\PSoC4/ble.c ****     *  None
 871:Generated_Source\PSoC4/ble.c ****     *  
 872:Generated_Source\PSoC4/ble.c ****     *******************************************************************************/
 873:Generated_Source\PSoC4/ble.c ****     void CyBle_ChangeAdDeviceAddress(const CYBLE_GAP_BD_ADDR_T* bdAddr, uint8 dest)
 874:Generated_Source\PSoC4/ble.c ****     {
 875:Generated_Source\PSoC4/ble.c ****         uint8 i;
 876:Generated_Source\PSoC4/ble.c ****         uint8 *destBuffer = NULL;
 877:Generated_Source\PSoC4/ble.c ****         
 878:Generated_Source\PSoC4/ble.c ****         if(dest == 0u)      /* Destination - advertising structure */
 879:Generated_Source\PSoC4/ble.c ****         {
 880:Generated_Source\PSoC4/ble.c ****             #ifdef CYBLE_ADV_PKT_INDEX_BLUETOOTH_DEVICE_ADDRESS
 881:Generated_Source\PSoC4/ble.c ****                 destBuffer = &cyBle_discoveryData.advData[CYBLE_ADV_PKT_INDEX_BLUETOOTH_DEVICE_ADDR
 882:Generated_Source\PSoC4/ble.c ****             #endif /* CYBLE_ADV_PKT_INDEX_BLUETOOTH_DEVICE_ADDRESS */
 883:Generated_Source\PSoC4/ble.c ****         }
 884:Generated_Source\PSoC4/ble.c ****         else                /* Destination - scan response structure */
 885:Generated_Source\PSoC4/ble.c ****         {
 886:Generated_Source\PSoC4/ble.c ****             #ifdef CYBLE_SCN_PKT_INDEX_BLUETOOTH_DEVICE_ADDRESS
ARM GAS  C:\Users\Petro\AppData\Local\Temp\ccWSp1ai.s 			page 17


 887:Generated_Source\PSoC4/ble.c ****                 destBuffer = &cyBle_scanRspData.scanRspData[CYBLE_SCN_PKT_INDEX_BLUETOOTH_DEVICE_AD
 888:Generated_Source\PSoC4/ble.c ****             #endif /* CYBLE_SCN_PKT_INDEX_BLUETOOTH_DEVICE_ADDRESS */    
 889:Generated_Source\PSoC4/ble.c ****         }
 890:Generated_Source\PSoC4/ble.c ****         
 891:Generated_Source\PSoC4/ble.c ****         if(destBuffer != NULL)
 892:Generated_Source\PSoC4/ble.c ****         {
 893:Generated_Source\PSoC4/ble.c ****             /* Update Device Address type */
 894:Generated_Source\PSoC4/ble.c ****             destBuffer[0u] = bdAddr->type;
 895:Generated_Source\PSoC4/ble.c ****             
 896:Generated_Source\PSoC4/ble.c ****             for(i = 0u; i < CYBLE_GAP_BD_ADDR_SIZE; i++)
 897:Generated_Source\PSoC4/ble.c ****             {
 898:Generated_Source\PSoC4/ble.c ****                 destBuffer[i + 1u] = bdAddr->bdAddr[i];
 899:Generated_Source\PSoC4/ble.c ****             }
 900:Generated_Source\PSoC4/ble.c ****         }
 901:Generated_Source\PSoC4/ble.c ****     }
 902:Generated_Source\PSoC4/ble.c ****   
 903:Generated_Source\PSoC4/ble.c **** #endif /* CYBLE_GAP_ROLE_PERIPHERAL || CYBLE_GAP_ROLE_BROADCASTER */
 904:Generated_Source\PSoC4/ble.c **** 
 905:Generated_Source\PSoC4/ble.c **** 
 906:Generated_Source\PSoC4/ble.c **** #if(CYBLE_GAP_ROLE_CENTRAL || CYBLE_GAP_ROLE_OBSERVER)
 907:Generated_Source\PSoC4/ble.c **** 
 908:Generated_Source\PSoC4/ble.c ****     /******************************************************************************
 909:Generated_Source\PSoC4/ble.c ****     * Function Name: CyBle_GapcStartScan
 910:Generated_Source\PSoC4/ble.c ****     ***************************************************************************//**
 911:Generated_Source\PSoC4/ble.c ****     * 
 912:Generated_Source\PSoC4/ble.c ****     *   This function is used for discovering GAP peripheral devices that are 
 913:Generated_Source\PSoC4/ble.c ****     *   available for connection. It performs the scanning routine using the 
 914:Generated_Source\PSoC4/ble.c ****     *   parameters entered in the component's customizer.
 915:Generated_Source\PSoC4/ble.c ****     *   
 916:Generated_Source\PSoC4/ble.c ****     *   As soon as the discovery operation starts, CYBLE_EVT_GAPC_SCAN_START_STOP 
 917:Generated_Source\PSoC4/ble.c ****     *   event is generated. The CYBLE_EVT_GAPC_SCAN_PROGRESS_RESULT event is 
 918:Generated_Source\PSoC4/ble.c ****     *   generated when a GAP peripheral device is located. There are three discovery
 919:Generated_Source\PSoC4/ble.c ****     *   procedures can be selected in the customizer's GUI:
 920:Generated_Source\PSoC4/ble.c ****     *   
 921:Generated_Source\PSoC4/ble.c ****     *   * Observation procedure: A device performing the observer role receives only
 922:Generated_Source\PSoC4/ble.c ****     *                            advertisement data from devices irrespective of 
 923:Generated_Source\PSoC4/ble.c ****     *                            their discoverable mode settings. Advertisement 
 924:Generated_Source\PSoC4/ble.c ****     *                            data received is provided by the event,      
 925:Generated_Source\PSoC4/ble.c ****     *                            CYBLE_EVT_GAPC_SCAN_PROGRESS_RESULT. This procedure
 926:Generated_Source\PSoC4/ble.c ****     *                            requires the scanType sub parameter to be passive
 927:Generated_Source\PSoC4/ble.c ****     *                            scanning. 
 928:Generated_Source\PSoC4/ble.c ****     *   
 929:Generated_Source\PSoC4/ble.c ****     *   * Limited Discovery procedure: A device performing the limited discovery
 930:Generated_Source\PSoC4/ble.c ****     *                                  procedure receives advertisement data and 
 931:Generated_Source\PSoC4/ble.c ****     *                                  scan# response data from devices in the 
 932:Generated_Source\PSoC4/ble.c ****     *                                  limited discoverable mode only. Received data
 933:Generated_Source\PSoC4/ble.c ****     *                                  is provided by the event, 
 934:Generated_Source\PSoC4/ble.c ****     *                                  CYBLE_EVT_GAPC_SCAN_PROGRESS_RESULT. This 
 935:Generated_Source\PSoC4/ble.c ****     *                                  procedure requires the scanType sub-parameter 
 936:Generated_Source\PSoC4/ble.c ****     *                                  to be active scanning.
 937:Generated_Source\PSoC4/ble.c ****     *   
 938:Generated_Source\PSoC4/ble.c ****     *   * General Discovery procedure: A device performing the general discovery 
 939:Generated_Source\PSoC4/ble.c ****     *                                  procedure receives the advertisement data and
 940:Generated_Source\PSoC4/ble.c ****     *                                  scan response data from devices in both 
 941:Generated_Source\PSoC4/ble.c ****     *                                  limited discoverable mode and the general 
 942:Generated_Source\PSoC4/ble.c ****     *                                  discoverable mode. Received data is provided
 943:Generated_Source\PSoC4/ble.c ****     *                                  by the event,
ARM GAS  C:\Users\Petro\AppData\Local\Temp\ccWSp1ai.s 			page 18


 944:Generated_Source\PSoC4/ble.c ****     *                                  CYBLE_EVT_GAPC_SCAN_PROGRESS_RESULT. This 
 945:Generated_Source\PSoC4/ble.c ****     *                                  procedure requires the scanType sub-parameter
 946:Generated_Source\PSoC4/ble.c ****     *                                  to be active scanning.
 947:Generated_Source\PSoC4/ble.c ****     *   
 948:Generated_Source\PSoC4/ble.c ****     *   Every Advertisement / Scan response packet received results in a new event, 
 949:Generated_Source\PSoC4/ble.c ****     *   CYBLE_EVT_GAPC_SCAN_PROGRESS_RESULT.
 950:Generated_Source\PSoC4/ble.c ****     *   If 'scanTo' sub-parameter is a non-zero value, then upon commencement of 
 951:Generated_Source\PSoC4/ble.c ****     *   discovery procedure and elapsed time = 'scanTo', CYBLE_EVT_TIMEOUT event
 952:Generated_Source\PSoC4/ble.c ****     *   is generated with the event parameter indicating CYBLE_GAP_SCAN_TO.
 953:Generated_Source\PSoC4/ble.c ****     *   Possible generated events are:
 954:Generated_Source\PSoC4/ble.c ****     *   * CYBLE_EVT_GAPC_SCAN_START_STOP: If a device started or stopped scanning. 
 955:Generated_Source\PSoC4/ble.c ****     *                                     Use CyBle_GetState() to determine the 
 956:Generated_Source\PSoC4/ble.c ****     *                                     state. Sequential scanning could be 
 957:Generated_Source\PSoC4/ble.c ****     *                                     started when CYBLE_STATE_DISCONNECTED 
 958:Generated_Source\PSoC4/ble.c ****     *                                     state is returned. 
 959:Generated_Source\PSoC4/ble.c ****     *   * CYBLE_EVT_GAPC_SCAN_PROGRESS_RESULT 
 960:Generated_Source\PSoC4/ble.c ****     *   * CYBLE_EVT_TIMEOUT (CYBLE_GAP_SCAN_TO)
 961:Generated_Source\PSoC4/ble.c ****     * 
 962:Generated_Source\PSoC4/ble.c ****     *   \param scanningIntervalType:  Fast or slow scanning interval with
 963:Generated_Source\PSoC4/ble.c ****     *       timings entered in Scan settings section of the customizer.
 964:Generated_Source\PSoC4/ble.c ****     * 	  * CYBLE_SCANNING_FAST   0x00u
 965:Generated_Source\PSoC4/ble.c ****     * 	  * CYBLE_SCANNING_SLOW   0x01u
 966:Generated_Source\PSoC4/ble.c ****     * 	  * CYBLE_SCANNING_CUSTOM 0x02u
 967:Generated_Source\PSoC4/ble.c ****     * 
 968:Generated_Source\PSoC4/ble.c ****     * \return
 969:Generated_Source\PSoC4/ble.c ****     *  CYBLE_API_RESULT_T : Return value indicates if the function succeeded or
 970:Generated_Source\PSoC4/ble.c ****     *  failed. Following are the possible error codes.
 971:Generated_Source\PSoC4/ble.c ****     *
 972:Generated_Source\PSoC4/ble.c ****     *   Errors codes                       | Description
 973:Generated_Source\PSoC4/ble.c ****     *   ---------------------------------- | -----------------------------------
 974:Generated_Source\PSoC4/ble.c ****     *   CYBLE_ERROR_OK                     | On successful operation.
 975:Generated_Source\PSoC4/ble.c ****     *   CYBLE_ERROR_STACK_INTERNAL         | An error occurred in the BLE stack.
 976:Generated_Source\PSoC4/ble.c ****     *   CYBLE_ERROR_INVALID_PARAMETER      | On passing an invalid parameter.
 977:Generated_Source\PSoC4/ble.c ****     *  
 978:Generated_Source\PSoC4/ble.c ****     *******************************************************************************/
 979:Generated_Source\PSoC4/ble.c ****     CYBLE_API_RESULT_T CyBle_GapcStartScan(uint8 scanningIntervalType)
 980:Generated_Source\PSoC4/ble.c ****     {
 981:Generated_Source\PSoC4/ble.c ****         CYBLE_API_RESULT_T apiResult;
 982:Generated_Source\PSoC4/ble.c **** 
 983:Generated_Source\PSoC4/ble.c ****         if(scanningIntervalType > CYBLE_SCANNING_CUSTOM)
 984:Generated_Source\PSoC4/ble.c ****         {
 985:Generated_Source\PSoC4/ble.c ****             apiResult = CYBLE_ERROR_INVALID_PARAMETER;
 986:Generated_Source\PSoC4/ble.c ****         }
 987:Generated_Source\PSoC4/ble.c ****         else
 988:Generated_Source\PSoC4/ble.c ****         {
 989:Generated_Source\PSoC4/ble.c ****             if(scanningIntervalType == CYBLE_SCANNING_FAST)
 990:Generated_Source\PSoC4/ble.c ****             {
 991:Generated_Source\PSoC4/ble.c ****                 cyBle_discoveryInfo.scanTo = CYBLE_FAST_SCAN_TIMEOUT;
 992:Generated_Source\PSoC4/ble.c ****                 cyBle_discoveryInfo.scanIntv = CYBLE_FAST_SCAN_INTERVAL;
 993:Generated_Source\PSoC4/ble.c ****                 cyBle_discoveryInfo.scanWindow = CYBLE_FAST_SCAN_WINDOW;
 994:Generated_Source\PSoC4/ble.c ****             }
 995:Generated_Source\PSoC4/ble.c ****             else if(scanningIntervalType == CYBLE_SCANNING_SLOW)
 996:Generated_Source\PSoC4/ble.c ****             {
 997:Generated_Source\PSoC4/ble.c ****                 cyBle_discoveryInfo.scanTo = CYBLE_SLOW_SCAN_TIMEOUT;
 998:Generated_Source\PSoC4/ble.c ****                 cyBle_discoveryInfo.scanIntv = CYBLE_SLOW_SCAN_INTERVAL;
 999:Generated_Source\PSoC4/ble.c ****                 cyBle_discoveryInfo.scanWindow = CYBLE_SLOW_SCAN_WINDOW;
1000:Generated_Source\PSoC4/ble.c ****             }       
ARM GAS  C:\Users\Petro\AppData\Local\Temp\ccWSp1ai.s 			page 19


1001:Generated_Source\PSoC4/ble.c ****             else /* Do not update scanning intervals */
1002:Generated_Source\PSoC4/ble.c ****             {
1003:Generated_Source\PSoC4/ble.c ****             }
1004:Generated_Source\PSoC4/ble.c ****             
1005:Generated_Source\PSoC4/ble.c ****             cyBle_scanningIntervalType = scanningIntervalType;
1006:Generated_Source\PSoC4/ble.c ****             apiResult = CyBle_GapcStartDiscovery(&cyBle_discoveryInfo);
1007:Generated_Source\PSoC4/ble.c ****         
1008:Generated_Source\PSoC4/ble.c ****             if(apiResult == CYBLE_ERROR_OK)
1009:Generated_Source\PSoC4/ble.c ****             {
1010:Generated_Source\PSoC4/ble.c ****                 cyBle_eventHandlerFlag |= CYBLE_START_FLAG;
1011:Generated_Source\PSoC4/ble.c ****             }
1012:Generated_Source\PSoC4/ble.c ****         }
1013:Generated_Source\PSoC4/ble.c ****        
1014:Generated_Source\PSoC4/ble.c ****         return (apiResult);
1015:Generated_Source\PSoC4/ble.c ****     }
1016:Generated_Source\PSoC4/ble.c ****     
1017:Generated_Source\PSoC4/ble.c ****     
1018:Generated_Source\PSoC4/ble.c ****     /******************************************************************************
1019:Generated_Source\PSoC4/ble.c ****     * Function Name: CyBle_GapcStopScan
1020:Generated_Source\PSoC4/ble.c ****     ***************************************************************************//**
1021:Generated_Source\PSoC4/ble.c ****     * 
1022:Generated_Source\PSoC4/ble.c ****     *   This function used to stop the discovery of devices. On stopping discovery
1023:Generated_Source\PSoC4/ble.c ****     *   operation, CYBLE_EVT_GAPC_SCAN_START_STOP event is generated. Application
1024:Generated_Source\PSoC4/ble.c ****     *   layer needs to keep track of the function call made before receiving this
1025:Generated_Source\PSoC4/ble.c ****     *   event to associate this event with either the start or stop discovery
1026:Generated_Source\PSoC4/ble.c ****     *   function.
1027:Generated_Source\PSoC4/ble.c ****     * 
1028:Generated_Source\PSoC4/ble.c ****     *   Possible events generated are:
1029:Generated_Source\PSoC4/ble.c ****     *    * CYBLE_EVT_GAPC_SCAN_START_STOP
1030:Generated_Source\PSoC4/ble.c ****     * 
1031:Generated_Source\PSoC4/ble.c ****     *  \return
1032:Generated_Source\PSoC4/ble.c ****     *   None
1033:Generated_Source\PSoC4/ble.c ****     * 
1034:Generated_Source\PSoC4/ble.c ****     *******************************************************************************/
1035:Generated_Source\PSoC4/ble.c ****     void CyBle_GapcStopScan(void)
1036:Generated_Source\PSoC4/ble.c ****     {
1037:Generated_Source\PSoC4/ble.c ****         CyBle_GapcStopDiscovery();
1038:Generated_Source\PSoC4/ble.c ****         
1039:Generated_Source\PSoC4/ble.c ****         cyBle_eventHandlerFlag |= CYBLE_STOP_FLAG;
1040:Generated_Source\PSoC4/ble.c ****     }
1041:Generated_Source\PSoC4/ble.c **** 
1042:Generated_Source\PSoC4/ble.c ****     
1043:Generated_Source\PSoC4/ble.c **** #endif /* CYBLE_GAP_ROLE_CENTRAL || CYBLE_GAP_ROLE_OBSERVER */
1044:Generated_Source\PSoC4/ble.c **** 
1045:Generated_Source\PSoC4/ble.c **** 
1046:Generated_Source\PSoC4/ble.c **** #if(CYBLE_GAP_ROLE_CENTRAL)
1047:Generated_Source\PSoC4/ble.c **** 
1048:Generated_Source\PSoC4/ble.c ****     /******************************************************************************
1049:Generated_Source\PSoC4/ble.c ****     * Function Name: CyBle_GapcConnectDevice
1050:Generated_Source\PSoC4/ble.c ****     ***************************************************************************//**
1051:Generated_Source\PSoC4/ble.c ****     * 
1052:Generated_Source\PSoC4/ble.c ****     *  This function is used to send a connection request to the remote device with
1053:Generated_Source\PSoC4/ble.c ****     *  the connection parameters set in the component customizer. This function needs
1054:Generated_Source\PSoC4/ble.c ****     *  to be called only once after the target device is discovered by 
1055:Generated_Source\PSoC4/ble.c ****     *  CyBle_GapcStartScan() and further scanning has stopped. Scanning is 
1056:Generated_Source\PSoC4/ble.c ****     *  successfully stopped on invoking CyBle_GapcStopScan() and then receiving the
1057:Generated_Source\PSoC4/ble.c ****     *  event CYBLE_EVT_GAPC_SCAN_START_STOP with sub-parameter 'success' = 0x01u.
ARM GAS  C:\Users\Petro\AppData\Local\Temp\ccWSp1ai.s 			page 20


1058:Generated_Source\PSoC4/ble.c ****     *  
1059:Generated_Source\PSoC4/ble.c ****     *  On successful connection, the following events are generated at the GAP 
1060:Generated_Source\PSoC4/ble.c ****     *  Central device (as well as the GAP Peripheral device), in the following order.
1061:Generated_Source\PSoC4/ble.c ****     *  * CYBLE_EVT_GATT_CONNECT_IND
1062:Generated_Source\PSoC4/ble.c ****     *  * CYBLE_EVT_GAP_DEVICE_CONNECTED - If the device connects to a GAP Central and 
1063:Generated_Source\PSoC4/ble.c ****     *    Link Layer Privacy is disabled in component customizer.
1064:Generated_Source\PSoC4/ble.c ****     *  * CYBLE_EVT_GAP_ENHANCE_CONN_COMPLETE - If the device connects to a GAP Central and 
1065:Generated_Source\PSoC4/ble.c ****     *    Link Layer Privacy is enabled in component customizer.
1066:Generated_Source\PSoC4/ble.c ****     *  * CYBLE_EVT_GAP_DEVICE_CONNECTED
1067:Generated_Source\PSoC4/ble.c ****     *  
1068:Generated_Source\PSoC4/ble.c ****     *  A procedure is considered to have timed out if a connection response packet is 
1069:Generated_Source\PSoC4/ble.c ****     *  not received within time set by cyBle_connectingTimeout global variable
1070:Generated_Source\PSoC4/ble.c ****     *  (30 seconds by default). CYBLE_EVT_TIMEOUT event with CYBLE_GENERIC_TO parameter
1071:Generated_Source\PSoC4/ble.c ****     *  will indicate about connection procedure timeout. Connection will automatically
1072:Generated_Source\PSoC4/ble.c ****     *  be canceled and state will be changed to CYBLE_STATE_DISCONNECTED.
1073:Generated_Source\PSoC4/ble.c ****     * 
1074:Generated_Source\PSoC4/ble.c ****     *  \param address: The device address of the remote device to connect to. 
1075:Generated_Source\PSoC4/ble.c ****     *  
1076:Generated_Source\PSoC4/ble.c ****     * \return
1077:Generated_Source\PSoC4/ble.c ****     *  CYBLE_API_RESULT_T : Return value indicates if the function succeeded or 
1078:Generated_Source\PSoC4/ble.c ****     *  failed. Following are the possible error codes.
1079:Generated_Source\PSoC4/ble.c ****     *
1080:Generated_Source\PSoC4/ble.c ****     *   Errors codes                       | Description
1081:Generated_Source\PSoC4/ble.c ****     *   ------------                       | -----------
1082:Generated_Source\PSoC4/ble.c ****     *   CYBLE_ERROR_OK                     | On successful operation.
1083:Generated_Source\PSoC4/ble.c ****     *   CYBLE_ERROR_STACK_INTERNAL         | On error occurred in the BLE stack.
1084:Generated_Source\PSoC4/ble.c ****     *   CYBLE_ERROR_INVALID_PARAMETER      | On passing an invalid parameter.
1085:Generated_Source\PSoC4/ble.c ****     *   CYBLE_ERROR_INVALID_STATE          | On calling this API not in Disconnected state.
1086:Generated_Source\PSoC4/ble.c ****     *  
1087:Generated_Source\PSoC4/ble.c ****     ******************************************************************************/
1088:Generated_Source\PSoC4/ble.c ****     CYBLE_API_RESULT_T CyBle_GapcConnectDevice(const CYBLE_GAP_BD_ADDR_T * address)
1089:Generated_Source\PSoC4/ble.c ****     {
1090:Generated_Source\PSoC4/ble.c ****         CYBLE_API_RESULT_T apiResult;
1091:Generated_Source\PSoC4/ble.c ****         uint8 i;
1092:Generated_Source\PSoC4/ble.c **** 
1093:Generated_Source\PSoC4/ble.c ****         if(CyBle_GetState() != CYBLE_STATE_DISCONNECTED)
1094:Generated_Source\PSoC4/ble.c ****         {
1095:Generated_Source\PSoC4/ble.c ****             apiResult = CYBLE_ERROR_INVALID_STATE;
1096:Generated_Source\PSoC4/ble.c ****         }
1097:Generated_Source\PSoC4/ble.c ****         else if(address == NULL)
1098:Generated_Source\PSoC4/ble.c ****         {
1099:Generated_Source\PSoC4/ble.c ****             apiResult = CYBLE_ERROR_INVALID_PARAMETER;
1100:Generated_Source\PSoC4/ble.c ****         }
1101:Generated_Source\PSoC4/ble.c ****         else
1102:Generated_Source\PSoC4/ble.c ****         {
1103:Generated_Source\PSoC4/ble.c ****             for(i = 0u; i < CYBLE_GAP_BD_ADDR_SIZE; i++)
1104:Generated_Source\PSoC4/ble.c ****             {
1105:Generated_Source\PSoC4/ble.c ****                 cyBle_connectionParameters.peerBdAddr[i] = address->bdAddr[i];
1106:Generated_Source\PSoC4/ble.c ****             }
1107:Generated_Source\PSoC4/ble.c ****             cyBle_connectionParameters.peerAddrType = address -> type;
1108:Generated_Source\PSoC4/ble.c ****             apiResult = CyBle_GapcInitConnection(&cyBle_connectionParameters);
1109:Generated_Source\PSoC4/ble.c ****             
1110:Generated_Source\PSoC4/ble.c ****             if(apiResult == CYBLE_ERROR_OK)
1111:Generated_Source\PSoC4/ble.c ****             {
1112:Generated_Source\PSoC4/ble.c ****                 CyBle_SetState(CYBLE_STATE_CONNECTING);
1113:Generated_Source\PSoC4/ble.c ****                 if(cyBle_connectingTimeout != 0u)
1114:Generated_Source\PSoC4/ble.c ****                 {
ARM GAS  C:\Users\Petro\AppData\Local\Temp\ccWSp1ai.s 			page 21


1115:Generated_Source\PSoC4/ble.c ****                     (void)CyBle_StartTimer(cyBle_connectingTimeout);
1116:Generated_Source\PSoC4/ble.c ****                 }
1117:Generated_Source\PSoC4/ble.c ****             }
1118:Generated_Source\PSoC4/ble.c ****         }
1119:Generated_Source\PSoC4/ble.c ****         return (apiResult);
1120:Generated_Source\PSoC4/ble.c ****     }
1121:Generated_Source\PSoC4/ble.c ****     
1122:Generated_Source\PSoC4/ble.c **** 
1123:Generated_Source\PSoC4/ble.c ****     /******************************************************************************
1124:Generated_Source\PSoC4/ble.c ****     * Function Name: CyBle_GapcCancelDeviceConnection
1125:Generated_Source\PSoC4/ble.c ****     ***************************************************************************//**
1126:Generated_Source\PSoC4/ble.c ****     * 
1127:Generated_Source\PSoC4/ble.c ****     *  This function cancels a previously initiated connection with the remote 
1128:Generated_Source\PSoC4/ble.c ****     *  device. It is a blocking function. No event is generated on calling this 
1129:Generated_Source\PSoC4/ble.c ****     *  function. If the devices are already connected then this function should not
1130:Generated_Source\PSoC4/ble.c ****     *  be used. If you intend to disconnect from an existing connection, the function
1131:Generated_Source\PSoC4/ble.c ****     *  CyBle_GapDisconnect() should be used.
1132:Generated_Source\PSoC4/ble.c ****     * 
1133:Generated_Source\PSoC4/ble.c ****     * \return
1134:Generated_Source\PSoC4/ble.c ****     *  CYBLE_API_RESULT_T : Return value indicates if the function succeeded or 
1135:Generated_Source\PSoC4/ble.c ****     *  failed. Following are the possible error codes.
1136:Generated_Source\PSoC4/ble.c ****     *
1137:Generated_Source\PSoC4/ble.c ****     *   Errors codes                       | Description
1138:Generated_Source\PSoC4/ble.c ****     *   ---------------------------------- | --------------------------------------
1139:Generated_Source\PSoC4/ble.c ****     *   CYBLE_ERROR_OK                     | On successful operation.
1140:Generated_Source\PSoC4/ble.c ****     *   CYBLE_ERROR_STACK_INTERNAL         | An error occurred in the BLE stack.
1141:Generated_Source\PSoC4/ble.c ****     *   CYBLE_ERROR_INVALID_STATE          | On calling this API not in Connecting state.
1142:Generated_Source\PSoC4/ble.c ****     *  
1143:Generated_Source\PSoC4/ble.c ****     *******************************************************************************/
1144:Generated_Source\PSoC4/ble.c ****     CYBLE_API_RESULT_T CyBle_GapcCancelDeviceConnection(void)
1145:Generated_Source\PSoC4/ble.c ****     {
1146:Generated_Source\PSoC4/ble.c ****         CYBLE_API_RESULT_T apiResult;
1147:Generated_Source\PSoC4/ble.c ****         
1148:Generated_Source\PSoC4/ble.c ****         if(CyBle_GetState() != CYBLE_STATE_CONNECTING)
1149:Generated_Source\PSoC4/ble.c ****         {
1150:Generated_Source\PSoC4/ble.c ****             apiResult = CYBLE_ERROR_INVALID_STATE;
1151:Generated_Source\PSoC4/ble.c ****         }
1152:Generated_Source\PSoC4/ble.c ****         else 
1153:Generated_Source\PSoC4/ble.c ****         {
1154:Generated_Source\PSoC4/ble.c ****             apiResult = CyBle_GapcCancelConnection();
1155:Generated_Source\PSoC4/ble.c ****             
1156:Generated_Source\PSoC4/ble.c ****             if(cyBle_connectingTimeout != 0u)
1157:Generated_Source\PSoC4/ble.c ****             {
1158:Generated_Source\PSoC4/ble.c ****                 (void)CyBle_StopTimer();
1159:Generated_Source\PSoC4/ble.c ****             }
1160:Generated_Source\PSoC4/ble.c **** 
1161:Generated_Source\PSoC4/ble.c ****             if(apiResult == CYBLE_ERROR_OK)
1162:Generated_Source\PSoC4/ble.c ****             {
1163:Generated_Source\PSoC4/ble.c ****                 CyBle_SetState(CYBLE_STATE_DISCONNECTED);
1164:Generated_Source\PSoC4/ble.c ****             }
1165:Generated_Source\PSoC4/ble.c ****         }
1166:Generated_Source\PSoC4/ble.c ****         return (apiResult);
1167:Generated_Source\PSoC4/ble.c ****     }    
1168:Generated_Source\PSoC4/ble.c **** 
1169:Generated_Source\PSoC4/ble.c ****     
1170:Generated_Source\PSoC4/ble.c **** #endif /* CYBLE_GAP_ROLE_CENTRAL */
1171:Generated_Source\PSoC4/ble.c **** 
ARM GAS  C:\Users\Petro\AppData\Local\Temp\ccWSp1ai.s 			page 22


1172:Generated_Source\PSoC4/ble.c **** 
1173:Generated_Source\PSoC4/ble.c **** #if(CYBLE_GATT_ROLE_SERVER)
1174:Generated_Source\PSoC4/ble.c **** 
1175:Generated_Source\PSoC4/ble.c **** #if(CYBLE_GAP_ROLE_PERIPHERAL)
1176:Generated_Source\PSoC4/ble.c **** 
1177:Generated_Source\PSoC4/ble.c ****         /******************************************************************************
1178:Generated_Source\PSoC4/ble.c ****         * Function Name: CyBle_ChangeAdLocalName
1179:Generated_Source\PSoC4/ble.c ****         ***************************************************************************//**
1180:Generated_Source\PSoC4/ble.c ****         *  This API is used to set the local device name in the advertisement or scan 
1181:Generated_Source\PSoC4/ble.c ****         *  response data structure.
1182:Generated_Source\PSoC4/ble.c ****         * 
1183:Generated_Source\PSoC4/ble.c ****         *  \param name: The local device name string to be set in advertisement data 
1184:Generated_Source\PSoC4/ble.c ****         *            structure.
1185:Generated_Source\PSoC4/ble.c ****         *  \param dest: 0 - advertisement structure, not zero value selects scan response
1186:Generated_Source\PSoC4/ble.c ****         *              structure.
1187:Generated_Source\PSoC4/ble.c ****         * 
1188:Generated_Source\PSoC4/ble.c ****         * \return
1189:Generated_Source\PSoC4/ble.c ****         *  None
1190:Generated_Source\PSoC4/ble.c ****         *  
1191:Generated_Source\PSoC4/ble.c ****         *******************************************************************************/
1192:Generated_Source\PSoC4/ble.c ****         static void CyBle_ChangeAdLocalName(const char8 name[], uint8 dest)
1193:Generated_Source\PSoC4/ble.c ****         {
  27              		.loc 1 1193 0
  28              		.cfi_startproc
  29              		@ args = 0, pretend = 0, frame = 0
  30              		@ frame_needed = 0, uses_anonymous_args = 0
  31              	.LVL0:
  32 0000 70B5     		push	{r4, r5, r6, lr}
  33              		.cfi_def_cfa_offset 16
  34              		.cfi_offset 4, -16
  35              		.cfi_offset 5, -12
  36              		.cfi_offset 6, -8
  37              		.cfi_offset 14, -4
1194:Generated_Source\PSoC4/ble.c ****             uint8 i;
1195:Generated_Source\PSoC4/ble.c ****             uint8 flag = 0u;
1196:Generated_Source\PSoC4/ble.c ****             uint8 adLength = 0u;
1197:Generated_Source\PSoC4/ble.c ****             uint8 byteCounter = 0u;
1198:Generated_Source\PSoC4/ble.c ****             uint8 *destBuffer;
1199:Generated_Source\PSoC4/ble.c ****             uint8 maxLength;
1200:Generated_Source\PSoC4/ble.c ****             
1201:Generated_Source\PSoC4/ble.c ****             if(dest == 0u)      /* Destination - advertising structure */
  38              		.loc 1 1201 0
  39 0002 0029     		cmp	r1, #0
  40 0004 05D1     		bne	.L2
  41              	.LVL1:
1202:Generated_Source\PSoC4/ble.c ****             {
1203:Generated_Source\PSoC4/ble.c ****                 destBuffer = cyBle_discoveryData.advData;
1204:Generated_Source\PSoC4/ble.c ****                 maxLength = cyBle_discoveryData.advDataLen;
  42              		.loc 1 1204 0
  43 0006 1949     		ldr	r1, .L20
  44              	.LVL2:
  45              	.L16:
1205:Generated_Source\PSoC4/ble.c ****             }
1206:Generated_Source\PSoC4/ble.c ****             else                /* Destination - scan response structure */
1207:Generated_Source\PSoC4/ble.c ****             {
1208:Generated_Source\PSoC4/ble.c ****                 destBuffer = cyBle_scanRspData.scanRspData;
1209:Generated_Source\PSoC4/ble.c ****                 maxLength = cyBle_scanRspData.scanRspDataLen;
ARM GAS  C:\Users\Petro\AppData\Local\Temp\ccWSp1ai.s 			page 23


1210:Generated_Source\PSoC4/ble.c ****             }
1211:Generated_Source\PSoC4/ble.c ****             
1212:Generated_Source\PSoC4/ble.c ****             while((byteCounter < maxLength) && (flag == 0u))
1213:Generated_Source\PSoC4/ble.c ****             {
1214:Generated_Source\PSoC4/ble.c ****                 adLength = destBuffer[byteCounter];
1215:Generated_Source\PSoC4/ble.c ****                 
1216:Generated_Source\PSoC4/ble.c ****                 if(0u != adLength)
1217:Generated_Source\PSoC4/ble.c ****                 {
1218:Generated_Source\PSoC4/ble.c ****                     /* Increment byte counter so it can point to AD type */
1219:Generated_Source\PSoC4/ble.c ****                     byteCounter++;
1220:Generated_Source\PSoC4/ble.c ****                     
1221:Generated_Source\PSoC4/ble.c ****                     if((destBuffer[byteCounter] == CYBLE_SHORT_LOCAL_NAME) || 
1222:Generated_Source\PSoC4/ble.c ****                        (destBuffer[byteCounter] == CYBLE_COMPLETE_LOCAL_NAME))
1223:Generated_Source\PSoC4/ble.c ****                     {
1224:Generated_Source\PSoC4/ble.c ****                         /* Start of the Local Name AD type was fount. Set flag and exit the loop. *
1225:Generated_Source\PSoC4/ble.c ****                         flag = 1u;
  46              		.loc 1 1225 0
  47 0008 0023     		movs	r3, #0
1204:Generated_Source\PSoC4/ble.c ****             }
  48              		.loc 1 1204 0
  49 000a CE7F     		ldrb	r6, [r1, #31]
  50              	.LVL3:
  51              		.loc 1 1225 0
  52 000c 1A00     		movs	r2, r3
  53 000e 1C00     		movs	r4, r3
  54 0010 0EE0     		b	.L3
  55              	.LVL4:
  56              	.L2:
1209:Generated_Source\PSoC4/ble.c ****             }
  57              		.loc 1 1209 0
  58 0012 1749     		ldr	r1, .L20+4
  59              	.LVL5:
  60 0014 F8E7     		b	.L16
  61              	.LVL6:
  62              	.L18:
1212:Generated_Source\PSoC4/ble.c ****             {
  63              		.loc 1 1212 0 discriminator 1
  64 0016 002C     		cmp	r4, #0
  65 0018 11D1     		bne	.L10
1214:Generated_Source\PSoC4/ble.c ****                 
  66              		.loc 1 1214 0
  67 001a CA5C     		ldrb	r2, [r1, r3]
  68              	.LVL7:
1216:Generated_Source\PSoC4/ble.c ****                 {
  69              		.loc 1 1216 0
  70 001c 002A     		cmp	r2, #0
  71 001e 23D0     		beq	.L1
1219:Generated_Source\PSoC4/ble.c ****                     
  72              		.loc 1 1219 0
  73 0020 0133     		adds	r3, r3, #1
  74              	.LVL8:
  75 0022 DBB2     		uxtb	r3, r3
  76              	.LVL9:
1221:Generated_Source\PSoC4/ble.c ****                        (destBuffer[byteCounter] == CYBLE_COMPLETE_LOCAL_NAME))
  77              		.loc 1 1221 0
  78 0024 CD5C     		ldrb	r5, [r1, r3]
  79 0026 083D     		subs	r5, r5, #8
ARM GAS  C:\Users\Petro\AppData\Local\Temp\ccWSp1ai.s 			page 24


  80 0028 012D     		cmp	r5, #1
  81 002a 04D9     		bls	.L14
1226:Generated_Source\PSoC4/ble.c ****                     }
1227:Generated_Source\PSoC4/ble.c ****                     else
1228:Generated_Source\PSoC4/ble.c ****                     {
1229:Generated_Source\PSoC4/ble.c ****                         byteCounter += adLength;
  82              		.loc 1 1229 0
  83 002c D318     		adds	r3, r2, r3
  84              	.LVL10:
  85 002e DBB2     		uxtb	r3, r3
  86              	.LVL11:
  87              	.L3:
1212:Generated_Source\PSoC4/ble.c ****             {
  88              		.loc 1 1212 0
  89 0030 B342     		cmp	r3, r6
  90 0032 F0D3     		bcc	.L18
  91 0034 01E0     		b	.L7
  92              	.L14:
1225:Generated_Source\PSoC4/ble.c ****                     }
  93              		.loc 1 1225 0
  94 0036 0124     		movs	r4, #1
  95              	.LVL12:
  96 0038 FAE7     		b	.L3
  97              	.LVL13:
  98              	.L7:
1230:Generated_Source\PSoC4/ble.c ****                     }
1231:Generated_Source\PSoC4/ble.c ****                 }
1232:Generated_Source\PSoC4/ble.c ****                 else
1233:Generated_Source\PSoC4/ble.c ****                 {
1234:Generated_Source\PSoC4/ble.c ****                     /* The end of advertisement data structure was encountered though exit the loop
1235:Generated_Source\PSoC4/ble.c ****                     break;
1236:Generated_Source\PSoC4/ble.c ****                 }
1237:Generated_Source\PSoC4/ble.c ****             }
1238:Generated_Source\PSoC4/ble.c ****             
1239:Generated_Source\PSoC4/ble.c ****             if(0u != flag)
  99              		.loc 1 1239 0
 100 003a 002C     		cmp	r4, #0
 101 003c 14D0     		beq	.L1
 102              	.L10:
1240:Generated_Source\PSoC4/ble.c ****             {
1241:Generated_Source\PSoC4/ble.c ****                 /* Reuse "adLength" to hold location of the last character of local name in 
1242:Generated_Source\PSoC4/ble.c ****                    AD structure. */
1243:Generated_Source\PSoC4/ble.c ****                 adLength += byteCounter;
 103              		.loc 1 1243 0
 104 003e D218     		adds	r2, r2, r3
 105              	.LVL14:
1244:Generated_Source\PSoC4/ble.c ****                 
1245:Generated_Source\PSoC4/ble.c ****                 /* Increment byte counter to point to start of the local Name string */
1246:Generated_Source\PSoC4/ble.c ****                 byteCounter++;
 106              		.loc 1 1246 0
 107 0040 0133     		adds	r3, r3, #1
 108              	.LVL15:
 109 0042 DBB2     		uxtb	r3, r3
1243:Generated_Source\PSoC4/ble.c ****                 
 110              		.loc 1 1243 0
 111 0044 D4B2     		uxtb	r4, r2
 112              	.LVL16:
ARM GAS  C:\Users\Petro\AppData\Local\Temp\ccWSp1ai.s 			page 25


1247:Generated_Source\PSoC4/ble.c ****                 
1248:Generated_Source\PSoC4/ble.c ****                 for(i = byteCounter; ((i < (adLength)) && (CYBLE_NULL_CHARCTER != name[i - byteCoun
 113              		.loc 1 1248 0
 114 0046 1A00     		movs	r2, r3
 115 0048 06E0     		b	.L9
 116              	.LVL17:
 117              	.L19:
 118              		.loc 1 1248 0 is_stmt 0 discriminator 3
 119 004a D51A     		subs	r5, r2, r3
 120 004c 455D     		ldrb	r5, [r0, r5]
 121 004e 002D     		cmp	r5, #0
 122 0050 05D0     		beq	.L13
1249:Generated_Source\PSoC4/ble.c ****                 {
1250:Generated_Source\PSoC4/ble.c ****                     destBuffer[i] = (uint8)name[i - byteCounter];
 123              		.loc 1 1250 0 is_stmt 1 discriminator 4
 124 0052 8D54     		strb	r5, [r1, r2]
1248:Generated_Source\PSoC4/ble.c ****                 {
 125              		.loc 1 1248 0 discriminator 4
 126 0054 0132     		adds	r2, r2, #1
 127              	.LVL18:
 128 0056 D2B2     		uxtb	r2, r2
 129              	.LVL19:
 130              	.L9:
1248:Generated_Source\PSoC4/ble.c ****                 {
 131              		.loc 1 1248 0 is_stmt 0 discriminator 1
 132 0058 A242     		cmp	r2, r4
 133 005a F6D3     		bcc	.L19
 134 005c 04E0     		b	.L1
 135              	.L13:
1251:Generated_Source\PSoC4/ble.c ****                 }
1252:Generated_Source\PSoC4/ble.c ****                 
1253:Generated_Source\PSoC4/ble.c ****                 /* This loop handles the case when new local name is shorted than old one.
1254:Generated_Source\PSoC4/ble.c ****                    In this case all remaining characters should be null characters. */
1255:Generated_Source\PSoC4/ble.c ****                 while(adLength > i)
1256:Generated_Source\PSoC4/ble.c ****                 {
1257:Generated_Source\PSoC4/ble.c ****                     /* Terminate string */
1258:Generated_Source\PSoC4/ble.c ****                     destBuffer[i] = (uint8)CYBLE_NULL_CHARCTER;
 136              		.loc 1 1258 0 is_stmt 1
 137 005e 8D54     		strb	r5, [r1, r2]
1259:Generated_Source\PSoC4/ble.c ****                     i++;
 138              		.loc 1 1259 0
 139 0060 0132     		adds	r2, r2, #1
 140              	.LVL20:
 141 0062 D2B2     		uxtb	r2, r2
 142              	.LVL21:
1255:Generated_Source\PSoC4/ble.c ****                 {
 143              		.loc 1 1255 0
 144 0064 9442     		cmp	r4, r2
 145 0066 FAD8     		bhi	.L13
 146              	.LVL22:
 147              	.L1:
1260:Generated_Source\PSoC4/ble.c ****                 }
1261:Generated_Source\PSoC4/ble.c ****             }
1262:Generated_Source\PSoC4/ble.c ****         }
 148              		.loc 1 1262 0
 149              		@ sp needed
 150              	.LVL23:
ARM GAS  C:\Users\Petro\AppData\Local\Temp\ccWSp1ai.s 			page 26


 151 0068 70BD     		pop	{r4, r5, r6, pc}
 152              	.L21:
 153 006a C046     		.align	2
 154              	.L20:
 155 006c 00000000 		.word	.LANCHOR0
 156 0070 00000000 		.word	.LANCHOR1
 157              		.cfi_endproc
 158              	.LFE11:
 159              		.size	CyBle_ChangeAdLocalName, .-CyBle_ChangeAdLocalName
 160              		.section	.text.CyBle_Init,"ax",%progbits
 161              		.align	1
 162              		.global	CyBle_Init
 163              		.code	16
 164              		.thumb_func
 165              		.type	CyBle_Init, %function
 166              	CyBle_Init:
 167              	.LFB2:
 153:Generated_Source\PSoC4/ble.c ****     cyBle_eventHandlerFlag = 0u;
 168              		.loc 1 153 0
 169              		.cfi_startproc
 170              		@ args = 0, pretend = 0, frame = 0
 171              		@ frame_needed = 0, uses_anonymous_args = 0
 172 0000 10B5     		push	{r4, lr}
 173              		.cfi_def_cfa_offset 8
 174              		.cfi_offset 4, -8
 175              		.cfi_offset 14, -4
 154:Generated_Source\PSoC4/ble.c ****     cyBle_busyStatus = CYBLE_STACK_STATE_FREE;
 176              		.loc 1 154 0
 177 0002 0024     		movs	r4, #0
 178 0004 064B     		ldr	r3, .L23
 188:Generated_Source\PSoC4/ble.c **** 
 179              		.loc 1 188 0
 180              		@ sp needed
 154:Generated_Source\PSoC4/ble.c ****     cyBle_busyStatus = CYBLE_STACK_STATE_FREE;
 181              		.loc 1 154 0
 182 0006 1C70     		strb	r4, [r3]
 155:Generated_Source\PSoC4/ble.c **** 
 183              		.loc 1 155 0
 184 0008 064B     		ldr	r3, .L23+4
 185 000a 1C70     		strb	r4, [r3]
 158:Generated_Source\PSoC4/ble.c ****     #endif /* (CYBLE_GAP_ROLE_PERIPHERAL || CYBLE_GAP_ROLE_BROADCASTER)  */
 186              		.loc 1 158 0
 187 000c 064B     		ldr	r3, .L23+8
 188 000e 1C70     		strb	r4, [r3]
 189              	.LBB4:
 190              	.LBB5:
 260:Generated_Source\PSoC4/ble.c ****     #endif /* CYBLE_CUSTOM */
 191              		.loc 1 260 0
 192 0010 FFF7FEFF 		bl	CyBle_CustomInit
 193              	.LVL24:
 194              	.LBE5:
 195              	.LBE4:
 184:Generated_Source\PSoC4/ble.c ****         cyBle_peerBonding = CYBLE_GAP_BONDING_NONE;
 196              		.loc 1 184 0
 197 0014 054B     		ldr	r3, .L23+12
 198 0016 1C70     		strb	r4, [r3]
 185:Generated_Source\PSoC4/ble.c ****     #endif  /* (CYBLE_BONDING_REQUIREMENT == CYBLE_BONDING_YES) */
ARM GAS  C:\Users\Petro\AppData\Local\Temp\ccWSp1ai.s 			page 27


 199              		.loc 1 185 0
 200 0018 054B     		ldr	r3, .L23+16
 201 001a 1C70     		strb	r4, [r3]
 188:Generated_Source\PSoC4/ble.c **** 
 202              		.loc 1 188 0
 203 001c 10BD     		pop	{r4, pc}
 204              	.L24:
 205 001e C046     		.align	2
 206              	.L23:
 207 0020 00000000 		.word	cyBle_eventHandlerFlag
 208 0024 00000000 		.word	cyBle_busyStatus
 209 0028 00000000 		.word	cyBle_advertisingIntervalType
 210 002c 00000000 		.word	cyBle_pendingFlashWrite
 211 0030 00000000 		.word	cyBle_peerBonding
 212              		.cfi_endproc
 213              	.LFE2:
 214              		.size	CyBle_Init, .-CyBle_Init
 215              		.section	.text.CyBle_ServiceInit,"ax",%progbits
 216              		.align	1
 217              		.global	CyBle_ServiceInit
 218              		.code	16
 219              		.thumb_func
 220              		.type	CyBle_ServiceInit, %function
 221              	CyBle_ServiceInit:
 222              	.LFB3:
 202:Generated_Source\PSoC4/ble.c ****     #if(CYBLE_GATT_ROLE_CLIENT)
 223              		.loc 1 202 0
 224              		.cfi_startproc
 225              		@ args = 0, pretend = 0, frame = 0
 226              		@ frame_needed = 0, uses_anonymous_args = 0
 227 0000 10B5     		push	{r4, lr}
 228              		.cfi_def_cfa_offset 8
 229              		.cfi_offset 4, -8
 230              		.cfi_offset 14, -4
 260:Generated_Source\PSoC4/ble.c ****     #endif /* CYBLE_CUSTOM */
 231              		.loc 1 260 0
 232 0002 FFF7FEFF 		bl	CyBle_CustomInit
 233              	.LVL25:
 346:Generated_Source\PSoC4/ble.c **** 
 234              		.loc 1 346 0
 235              		@ sp needed
 236 0006 10BD     		pop	{r4, pc}
 237              		.cfi_endproc
 238              	.LFE3:
 239              		.size	CyBle_ServiceInit, .-CyBle_ServiceInit
 240              		.section	.text.CyBle_Start,"ax",%progbits
 241              		.align	1
 242              		.global	CyBle_Start
 243              		.code	16
 244              		.thumb_func
 245              		.type	CyBle_Start, %function
 246              	CyBle_Start:
 247              	.LFB4:
 408:Generated_Source\PSoC4/ble.c ****     CYBLE_API_RESULT_T apiResult = CYBLE_ERROR_OK;
 248              		.loc 1 408 0
 249              		.cfi_startproc
 250              		@ args = 0, pretend = 0, frame = 48
ARM GAS  C:\Users\Petro\AppData\Local\Temp\ccWSp1ai.s 			page 28


 251              		@ frame_needed = 0, uses_anonymous_args = 0
 252              	.LVL26:
 253 0000 30B5     		push	{r4, r5, lr}
 254              		.cfi_def_cfa_offset 12
 255              		.cfi_offset 4, -12
 256              		.cfi_offset 5, -8
 257              		.cfi_offset 14, -4
 258 0002 91B0     		sub	sp, sp, #68
 259              		.cfi_def_cfa_offset 80
 408:Generated_Source\PSoC4/ble.c ****     CYBLE_API_RESULT_T apiResult = CYBLE_ERROR_OK;
 260              		.loc 1 408 0
 261 0004 0500     		movs	r5, r0
 413:Generated_Source\PSoC4/ble.c ****     {
 262              		.loc 1 413 0
 263 0006 1422     		movs	r2, #20
 264 0008 1E49     		ldr	r1, .L30
 265 000a 0BA8     		add	r0, sp, #44
 266              	.LVL27:
 267 000c FFF7FEFF 		bl	memcpy
 268              	.LVL28:
 425:Generated_Source\PSoC4/ble.c ****     {
 269              		.loc 1 425 0
 270 0010 1D4C     		ldr	r4, .L30+4
 271 0012 0134     		adds	r4, r4, #1
 272 0014 E37F     		ldrb	r3, [r4, #31]
 273 0016 002B     		cmp	r3, #0
 274 0018 03D1     		bne	.L27
 427:Generated_Source\PSoC4/ble.c ****         cyBle_initVar = 1u;
 275              		.loc 1 427 0
 276 001a FFF7FEFF 		bl	CyBle_Init
 277              	.LVL29:
 428:Generated_Source\PSoC4/ble.c ****     }
 278              		.loc 1 428 0
 279 001e 0123     		movs	r3, #1
 280 0020 E377     		strb	r3, [r4, #31]
 281              	.L27:
 521:Generated_Source\PSoC4/ble.c ****     }
 282              		.loc 1 521 0
 283 0022 0120     		movs	r0, #1
 431:Generated_Source\PSoC4/ble.c ****     {
 284              		.loc 1 431 0
 285 0024 002D     		cmp	r5, #0
 286 0026 2BD0     		beq	.L28
 287              	.LBB6:
 456:Generated_Source\PSoC4/ble.c ****                                        CYBLE_SECURE_CONN_FEATURE;
 288              		.loc 1 456 0
 289 0028 0021     		movs	r1, #0
 460:Generated_Source\PSoC4/ble.c ****             dleConfigParams.dleMaxRxCapability = CYBLE_LL_MAX_RX_PAYLOAD_SIZE;
 290              		.loc 1 460 0
 291 002a 1B24     		movs	r4, #27
 292              	.LBE6:
 433:Generated_Source\PSoC4/ble.c ****         
 293              		.loc 1 433 0
 294 002c 174B     		ldr	r3, .L30+8
 295              	.LBB7:
 452:Generated_Source\PSoC4/ble.c ****             stackConfig.dleConfig = &dleConfigParams;
 296              		.loc 1 452 0
ARM GAS  C:\Users\Petro\AppData\Local\Temp\ccWSp1ai.s 			page 29


 297 002e 08A8     		add	r0, sp, #32
 298 0030 05AA     		add	r2, sp, #20
 299              	.LBE7:
 433:Generated_Source\PSoC4/ble.c ****         
 300              		.loc 1 433 0
 301 0032 1D60     		str	r5, [r3]
 302              	.LBB8:
 456:Generated_Source\PSoC4/ble.c ****                                        CYBLE_SECURE_CONN_FEATURE;
 303              		.loc 1 456 0
 304 0034 0181     		strh	r1, [r0, #8]
 453:Generated_Source\PSoC4/ble.c ****             
 305              		.loc 1 453 0
 306 0036 06AB     		add	r3, sp, #24
 468:Generated_Source\PSoC4/ble.c ****         #if(CYBLE_LL_PRIVACY_FEATURE_ENABLED)
 307              		.loc 1 468 0
 308 0038 1170     		strb	r1, [r2]
 473:Generated_Source\PSoC4/ble.c ****             }
 309              		.loc 1 473 0
 310 003a 1631     		adds	r1, r1, #22
 460:Generated_Source\PSoC4/ble.c ****             dleConfigParams.dleMaxRxCapability = CYBLE_LL_MAX_RX_PAYLOAD_SIZE;
 311              		.loc 1 460 0
 312 003c 1C80     		strh	r4, [r3]
 461:Generated_Source\PSoC4/ble.c ****             dleConfigParams.dleNumTxBuffer = CYBLE_LL_DEFAULT_NUM_ACL_TX_PACKETS;
 313              		.loc 1 461 0
 314 003e 5C80     		strh	r4, [r3, #2]
 473:Generated_Source\PSoC4/ble.c ****             }
 315              		.loc 1 473 0
 316 0040 6944     		add	r1, r1, sp
 462:Generated_Source\PSoC4/ble.c ****         #if(CYBLE_DLE_FEATURE_ENABLED)
 317              		.loc 1 462 0
 318 0042 173C     		subs	r4, r4, #23
 452:Generated_Source\PSoC4/ble.c ****             stackConfig.dleConfig = &dleConfigParams;
 319              		.loc 1 452 0
 320 0044 4260     		str	r2, [r0, #4]
 453:Generated_Source\PSoC4/ble.c ****             
 321              		.loc 1 453 0
 322 0046 0893     		str	r3, [sp, #32]
 462:Generated_Source\PSoC4/ble.c ****         #if(CYBLE_DLE_FEATURE_ENABLED)
 323              		.loc 1 462 0
 324 0048 1C71     		strb	r4, [r3, #4]
 473:Generated_Source\PSoC4/ble.c ****             }
 325              		.loc 1 473 0
 326 004a FFF7FEFF 		bl	CyBle_StackSetFeatureConfig
 327              	.LVL30:
 328              	.LBE8:
 476:Generated_Source\PSoC4/ble.c ****         {
 329              		.loc 1 476 0
 330 004e 0028     		cmp	r0, #0
 331 0050 16D1     		bne	.L28
 481:Generated_Source\PSoC4/ble.c ****                     CYBLE_STACK_RAM_SIZE - CYBLE_GATT_PREPARE_WRITE_BUFF_LEN, cyBle_stackDataBuff, 
 332              		.loc 1 481 0
 333 0052 0F4B     		ldr	r3, .L30+12
 334 0054 AE22     		movs	r2, #174
 335 0056 0293     		str	r3, [sp, #8]
 336 0058 0E4B     		ldr	r3, .L30+16
 337 005a 1201     		lsls	r2, r2, #4
 338 005c 0193     		str	r3, [sp, #4]
ARM GAS  C:\Users\Petro\AppData\Local\Temp\ccWSp1ai.s 			page 30


 339 005e 0523     		movs	r3, #5
 340 0060 0D49     		ldr	r1, .L30+20
 341 0062 0093     		str	r3, [sp]
 342 0064 0D48     		ldr	r0, .L30+24
 343              	.LVL31:
 344 0066 0BAB     		add	r3, sp, #44
 345 0068 FFF7FEFF 		bl	CyBle_StackInit
 346              	.LVL32:
 505:Generated_Source\PSoC4/ble.c ****             {
 347              		.loc 1 505 0
 348 006c 0028     		cmp	r0, #0
 349 006e 07D1     		bne	.L28
 507:Generated_Source\PSoC4/ble.c ****                 
 350              		.loc 1 507 0
 351 0070 0122     		movs	r2, #1
 352 0072 0B4B     		ldr	r3, .L30+28
 514:Generated_Source\PSoC4/ble.c ****             #endif /* CYBLE_GATT_ROLE_SERVER */
 353              		.loc 1 514 0
 354 0074 2621     		movs	r1, #38
 507:Generated_Source\PSoC4/ble.c ****                 
 355              		.loc 1 507 0
 356 0076 1A70     		strb	r2, [r3]
 514:Generated_Source\PSoC4/ble.c ****             #endif /* CYBLE_GATT_ROLE_SERVER */
 357              		.loc 1 514 0
 358 0078 0A48     		ldr	r0, .L30+32
 359              	.LVL33:
 360 007a 0E32     		adds	r2, r2, #14
 361 007c FFF7FEFF 		bl	CyBle_GattsDbRegister
 362              	.LVL34:
 363              	.L28:
 525:Generated_Source\PSoC4/ble.c **** 
 364              		.loc 1 525 0
 365 0080 11B0     		add	sp, sp, #68
 366              		@ sp needed
 367              	.LVL35:
 368 0082 30BD     		pop	{r4, r5, pc}
 369              	.L31:
 370              		.align	2
 371              	.L30:
 372 0084 00000000 		.word	.LANCHOR2
 373 0088 00000000 		.word	.LANCHOR1
 374 008c 00000000 		.word	CyBle_ApplCallback
 375 0090 79020000 		.word	633
 376 0094 00000000 		.word	cyBle_flashStorage
 377 0098 00000000 		.word	.LANCHOR3
 378 009c 00000000 		.word	CyBle_EventHandler
 379 00a0 00000000 		.word	cyBle_state
 380 00a4 00000000 		.word	cyBle_gattDB
 381              		.cfi_endproc
 382              	.LFE4:
 383              		.size	CyBle_Start, .-CyBle_Start
 384              		.section	.text.CyBle_Stop,"ax",%progbits
 385              		.align	1
 386              		.global	CyBle_Stop
 387              		.code	16
 388              		.thumb_func
 389              		.type	CyBle_Stop, %function
ARM GAS  C:\Users\Petro\AppData\Local\Temp\ccWSp1ai.s 			page 31


 390              	CyBle_Stop:
 391              	.LFB5:
 541:Generated_Source\PSoC4/ble.c ****     CyBle_Shutdown();                         /* Stop all ongoing activities */
 392              		.loc 1 541 0
 393              		.cfi_startproc
 394              		@ args = 0, pretend = 0, frame = 0
 395              		@ frame_needed = 0, uses_anonymous_args = 0
 396 0000 10B5     		push	{r4, lr}
 397              		.cfi_def_cfa_offset 8
 398              		.cfi_offset 4, -8
 399              		.cfi_offset 14, -4
 542:Generated_Source\PSoC4/ble.c ****     CyBle_SetState(CYBLE_STATE_STOPPED);
 400              		.loc 1 542 0
 401 0002 FFF7FEFF 		bl	CyBle_Shutdown
 402              	.LVL36:
 543:Generated_Source\PSoC4/ble.c ****     #if(CYBLE_SHARING_MODE_EXPORT)
 403              		.loc 1 543 0
 404 0006 0022     		movs	r2, #0
 405 0008 014B     		ldr	r3, .L33
 550:Generated_Source\PSoC4/ble.c **** 
 406              		.loc 1 550 0
 407              		@ sp needed
 543:Generated_Source\PSoC4/ble.c ****     #if(CYBLE_SHARING_MODE_EXPORT)
 408              		.loc 1 543 0
 409 000a 1A70     		strb	r2, [r3]
 550:Generated_Source\PSoC4/ble.c **** 
 410              		.loc 1 550 0
 411 000c 10BD     		pop	{r4, pc}
 412              	.L34:
 413 000e C046     		.align	2
 414              	.L33:
 415 0010 00000000 		.word	cyBle_state
 416              		.cfi_endproc
 417              	.LFE5:
 418              		.size	CyBle_Stop, .-CyBle_Stop
 419              		.section	.text.CyBle_StoreBondingData,"ax",%progbits
 420              		.align	1
 421              		.global	CyBle_StoreBondingData
 422              		.code	16
 423              		.thumb_func
 424              		.type	CyBle_StoreBondingData, %function
 425              	CyBle_StoreBondingData:
 426              	.LFB6:
 596:Generated_Source\PSoC4/ble.c ****     CYBLE_API_RESULT_T apiResult = CYBLE_ERROR_OK;
 427              		.loc 1 596 0
 428              		.cfi_startproc
 429              		@ args = 0, pretend = 0, frame = 64
 430              		@ frame_needed = 0, uses_anonymous_args = 0
 431              	.LVL37:
 432 0000 F0B5     		push	{r4, r5, r6, r7, lr}
 433              		.cfi_def_cfa_offset 20
 434              		.cfi_offset 4, -20
 435              		.cfi_offset 5, -16
 436              		.cfi_offset 6, -12
 437              		.cfi_offset 7, -8
 438              		.cfi_offset 14, -4
 600:Generated_Source\PSoC4/ble.c ****     {
ARM GAS  C:\Users\Petro\AppData\Local\Temp\ccWSp1ai.s 			page 32


 439              		.loc 1 600 0
 440 0002 0126     		movs	r6, #1
 441 0004 304C     		ldr	r4, .L64
 596:Generated_Source\PSoC4/ble.c ****     CYBLE_API_RESULT_T apiResult = CYBLE_ERROR_OK;
 442              		.loc 1 596 0
 443 0006 91B0     		sub	sp, sp, #68
 444              		.cfi_def_cfa_offset 88
 600:Generated_Source\PSoC4/ble.c ****     {
 445              		.loc 1 600 0
 446 0008 2378     		ldrb	r3, [r4]
 596:Generated_Source\PSoC4/ble.c ****     CYBLE_API_RESULT_T apiResult = CYBLE_ERROR_OK;
 447              		.loc 1 596 0
 448 000a 0500     		movs	r5, r0
 600:Generated_Source\PSoC4/ble.c ****     {
 449              		.loc 1 600 0
 450 000c 3342     		tst	r3, r6
 451 000e 57D0     		beq	.L36
 602:Generated_Source\PSoC4/ble.c ****         if(apiResult == CYBLE_ERROR_OK)
 452              		.loc 1 602 0
 453 0010 FFF7FEFF 		bl	CyBle_StoreStackData
 454              	.LVL38:
 603:Generated_Source\PSoC4/ble.c ****         {
 455              		.loc 1 603 0
 456 0014 0028     		cmp	r0, #0
 457 0016 06D1     		bne	.L37
 605:Generated_Source\PSoC4/ble.c ****             /* Change apiResult if there are more pending data to store */
 458              		.loc 1 605 0
 459 0018 2378     		ldrb	r3, [r4]
 460 001a 1A00     		movs	r2, r3
 461 001c B243     		bics	r2, r6
 462 001e 2270     		strb	r2, [r4]
 607:Generated_Source\PSoC4/ble.c ****             {
 463              		.loc 1 607 0
 464 0020 9B07     		lsls	r3, r3, #30
 465 0022 4DD5     		bpl	.L36
 609:Generated_Source\PSoC4/ble.c ****             }
 466              		.loc 1 609 0
 467 0024 2820     		movs	r0, #40
 468              	.LVL39:
 469              	.L37:
 615:Generated_Source\PSoC4/ble.c ****         ((cyBle_pendingFlashWrite & CYBLE_PENDING_CCCD_FLASH_WRITE_BIT) != 0u) &&
 470              		.loc 1 615 0
 471 0026 002D     		cmp	r5, #0
 472 0028 4CD0     		beq	.L52
 473              	.LVL40:
 474              	.L45:
 615:Generated_Source\PSoC4/ble.c ****         ((cyBle_pendingFlashWrite & CYBLE_PENDING_CCCD_FLASH_WRITE_BIT) != 0u) &&
 475              		.loc 1 615 0 is_stmt 0 discriminator 3
 476 002a 0226     		movs	r6, #2
 477 002c 2378     		ldrb	r3, [r4]
 478 002e 3342     		tst	r3, r6
 479 0030 13D0     		beq	.L38
 617:Generated_Source\PSoC4/ble.c ****     {
 480              		.loc 1 617 0 is_stmt 1
 481 0032 264B     		ldr	r3, .L64+4
 482 0034 1978     		ldrb	r1, [r3]
 616:Generated_Source\PSoC4/ble.c ****         (cyBle_connHandle.bdHandle <= CYBLE_GAP_MAX_BONDED_DEVICE))
ARM GAS  C:\Users\Petro\AppData\Local\Temp\ccWSp1ai.s 			page 33


 483              		.loc 1 616 0
 484 0036 0429     		cmp	r1, #4
 485 0038 0FD8     		bhi	.L38
 619:Generated_Source\PSoC4/ble.c ****                         cyBle_connHandle.bdHandle], CYBLE_GATT_DB_CCCD_COUNT, isForceWrite);
 486              		.loc 1 619 0
 487 003a 0C22     		movs	r2, #12
 488 003c 5143     		muls	r1, r2
 489 003e 244B     		ldr	r3, .L64+8
 490 0040 2448     		ldr	r0, .L64+12
 491 0042 5918     		adds	r1, r3, r1
 492 0044 244B     		ldr	r3, .L64+16
 493 0046 C918     		adds	r1, r1, r3
 494 0048 2B00     		movs	r3, r5
 495 004a FFF7FEFF 		bl	CyBle_StoreAppData
 496              	.LVL41:
 621:Generated_Source\PSoC4/ble.c ****         {
 497              		.loc 1 621 0
 498 004e 0028     		cmp	r0, #0
 499 0050 05D1     		bne	.L39
 623:Generated_Source\PSoC4/ble.c ****         }
 500              		.loc 1 623 0
 501 0052 2378     		ldrb	r3, [r4]
 502 0054 B343     		bics	r3, r6
 503 0056 2370     		strb	r3, [r4]
 504              	.LVL42:
 505 0058 03E0     		b	.L40
 506              	.LVL43:
 507              	.L38:
 627:Generated_Source\PSoC4/ble.c ****         ((cyBle_pendingFlashWrite & CYBLE_PENDING_CCCD_FLASH_CLEAR_MASK) != 0u) )
 508              		.loc 1 627 0
 509 005a 0028     		cmp	r0, #0
 510 005c 01D0     		beq	.L40
 511              	.LVL44:
 512              	.L39:
 627:Generated_Source\PSoC4/ble.c ****         ((cyBle_pendingFlashWrite & CYBLE_PENDING_CCCD_FLASH_CLEAR_MASK) != 0u) )
 513              		.loc 1 627 0 is_stmt 0 discriminator 2
 514 005e 002D     		cmp	r5, #0
 515 0060 30D0     		beq	.L52
 516              	.LVL45:
 517              	.L40:
 627:Generated_Source\PSoC4/ble.c ****         ((cyBle_pendingFlashWrite & CYBLE_PENDING_CCCD_FLASH_CLEAR_MASK) != 0u) )
 518              		.loc 1 627 0 discriminator 3
 519 0062 0C26     		movs	r6, #12
 628:Generated_Source\PSoC4/ble.c ****     {
 520              		.loc 1 628 0 is_stmt 1 discriminator 3
 521 0064 2178     		ldrb	r1, [r4]
 627:Generated_Source\PSoC4/ble.c ****         ((cyBle_pendingFlashWrite & CYBLE_PENDING_CCCD_FLASH_CLEAR_MASK) != 0u) )
 522              		.loc 1 627 0 discriminator 3
 523 0066 3142     		tst	r1, r6
 524 0068 2CD0     		beq	.L52
 630:Generated_Source\PSoC4/ble.c ****         {
 525              		.loc 1 630 0
 526 006a 0827     		movs	r7, #8
 527 006c 3940     		ands	r1, r7
 528 006e 0FD0     		beq	.L42
 529              	.LBB9:
 635:Generated_Source\PSoC4/ble.c **** 
ARM GAS  C:\Users\Petro\AppData\Local\Temp\ccWSp1ai.s 			page 34


 530              		.loc 1 635 0
 531 0070 3C22     		movs	r2, #60
 532 0072 0021     		movs	r1, #0
 533 0074 01A8     		add	r0, sp, #4
 534 0076 FFF7FEFF 		bl	memset
 535              	.LVL46:
 637:Generated_Source\PSoC4/ble.c ****                 (const uint8 *)cyBle_flashStorage.attValuesCCCDFlashMemory, sizeof(defaultValuesCCC
 536              		.loc 1 637 0
 537 007a 2B00     		movs	r3, r5
 538 007c 3C22     		movs	r2, #60
 539 007e 1749     		ldr	r1, .L64+20
 540 0080 01A8     		add	r0, sp, #4
 541 0082 FFF7FEFF 		bl	CyBle_StoreAppData
 542              	.LVL47:
 639:Generated_Source\PSoC4/ble.c ****             {
 543              		.loc 1 639 0
 544 0086 0028     		cmp	r0, #0
 545 0088 1CD1     		bne	.L52
 641:Generated_Source\PSoC4/ble.c ****             }
 546              		.loc 1 641 0
 547 008a 2378     		ldrb	r3, [r4]
 548 008c BB43     		bics	r3, r7
 549 008e 15E0     		b	.L63
 550              	.LVL48:
 551              	.L42:
 552              	.LBE9:
 553              	.LBB10:
 646:Generated_Source\PSoC4/ble.c ****             
 554              		.loc 1 646 0
 555 0090 3200     		movs	r2, r6
 556 0092 01A8     		add	r0, sp, #4
 557 0094 FFF7FEFF 		bl	memset
 558              	.LVL49:
 648:Generated_Source\PSoC4/ble.c ****                                     cyBle_pendingFlashClearCccdHandle], CYBLE_GATT_DB_CCCD_COUNT, i
 559              		.loc 1 648 0
 560 0098 114B     		ldr	r3, .L64+24
 561 009a 3200     		movs	r2, r6
 562 009c 0233     		adds	r3, r3, #2
 563 009e D97F     		ldrb	r1, [r3, #31]
 564 00a0 0B4B     		ldr	r3, .L64+8
 565 00a2 7143     		muls	r1, r6
 566 00a4 5918     		adds	r1, r3, r1
 567 00a6 0C4B     		ldr	r3, .L64+16
 568 00a8 01A8     		add	r0, sp, #4
 569 00aa C918     		adds	r1, r1, r3
 570 00ac 2B00     		movs	r3, r5
 571 00ae FFF7FEFF 		bl	CyBle_StoreAppData
 572              	.LVL50:
 650:Generated_Source\PSoC4/ble.c ****             {
 573              		.loc 1 650 0
 574 00b2 0028     		cmp	r0, #0
 575 00b4 06D1     		bne	.L52
 652:Generated_Source\PSoC4/ble.c ****             }
 576              		.loc 1 652 0
 577 00b6 0422     		movs	r2, #4
 578 00b8 2378     		ldrb	r3, [r4]
 579 00ba 9343     		bics	r3, r2
ARM GAS  C:\Users\Petro\AppData\Local\Temp\ccWSp1ai.s 			page 35


 580              	.LVL51:
 581              	.L63:
 582 00bc 2370     		strb	r3, [r4]
 583 00be 01E0     		b	.L52
 584              	.L36:
 585              	.LVL52:
 586              	.LBE10:
 596:Generated_Source\PSoC4/ble.c ****     CYBLE_API_RESULT_T apiResult = CYBLE_ERROR_OK;
 587              		.loc 1 596 0
 588 00c0 0020     		movs	r0, #0
 589 00c2 B2E7     		b	.L45
 590              	.LVL53:
 591              	.L52:
 658:Generated_Source\PSoC4/ble.c **** 
 592              		.loc 1 658 0
 593 00c4 11B0     		add	sp, sp, #68
 594              		@ sp needed
 595 00c6 F0BD     		pop	{r4, r5, r6, r7, pc}
 596              	.L65:
 597              		.align	2
 598              	.L64:
 599 00c8 00000000 		.word	cyBle_pendingFlashWrite
 600 00cc 00000000 		.word	cyBle_connHandle
 601 00d0 00000000 		.word	cyBle_flashStorage
 602 00d4 00000000 		.word	cyBle_attValuesCCCD
 603 00d8 79020000 		.word	633
 604 00dc 79020000 		.word	cyBle_flashStorage+633
 605 00e0 00000000 		.word	.LANCHOR1
 606              		.cfi_endproc
 607              	.LFE6:
 608              		.size	CyBle_StoreBondingData, .-CyBle_StoreBondingData
 609              		.section	.text.CyBle_GapRemoveBondedDevice,"ax",%progbits
 610              		.align	1
 611              		.global	CyBle_GapRemoveBondedDevice
 612              		.code	16
 613              		.thumb_func
 614              		.type	CyBle_GapRemoveBondedDevice, %function
 615              	CyBle_GapRemoveBondedDevice:
 616              	.LFB7:
 694:Generated_Source\PSoC4/ble.c ****     CYBLE_API_RESULT_T apiResult = CYBLE_ERROR_OK;
 617              		.loc 1 694 0
 618              		.cfi_startproc
 619              		@ args = 0, pretend = 0, frame = 16
 620              		@ frame_needed = 0, uses_anonymous_args = 0
 621              	.LVL54:
 622 0000 7FB5     		push	{r0, r1, r2, r3, r4, r5, r6, lr}
 623              		.cfi_def_cfa_offset 32
 624              		.cfi_offset 0, -32
 625              		.cfi_offset 1, -28
 626              		.cfi_offset 2, -24
 627              		.cfi_offset 3, -20
 628              		.cfi_offset 4, -16
 629              		.cfi_offset 5, -12
 630              		.cfi_offset 6, -8
 631              		.cfi_offset 14, -4
 697:Generated_Source\PSoC4/ble.c ****     {
 632              		.loc 1 697 0
ARM GAS  C:\Users\Petro\AppData\Local\Temp\ccWSp1ai.s 			page 36


 633 0002 144C     		ldr	r4, .L73
 694:Generated_Source\PSoC4/ble.c ****     CYBLE_API_RESULT_T apiResult = CYBLE_ERROR_OK;
 634              		.loc 1 694 0
 635 0004 0500     		movs	r5, r0
 697:Generated_Source\PSoC4/ble.c ****     {
 636              		.loc 1 697 0
 637 0006 2178     		ldrb	r1, [r4]
 729:Generated_Source\PSoC4/ble.c ****     }
 638              		.loc 1 729 0
 639 0008 0220     		movs	r0, #2
 640              	.LVL55:
 697:Generated_Source\PSoC4/ble.c ****     {
 641              		.loc 1 697 0
 642 000a 0029     		cmp	r1, #0
 643 000c 20D1     		bne	.L72
 644              	.LBB11:
 703:Generated_Source\PSoC4/ble.c **** 
 645              		.loc 1 703 0
 646 000e 0722     		movs	r2, #7
 647 0010 02A8     		add	r0, sp, #8
 648 0012 FFF7FEFF 		bl	memset
 649              	.LVL56:
 705:Generated_Source\PSoC4/ble.c **** 	    {
 650              		.loc 1 705 0
 651 0016 0622     		movs	r2, #6
 652 0018 02A9     		add	r1, sp, #8
 653 001a 2800     		movs	r0, r5
 654 001c FFF7FEFF 		bl	memcmp
 655              	.LVL57:
 656 0020 0028     		cmp	r0, #0
 657 0022 02D1     		bne	.L68
 708:Generated_Source\PSoC4/ble.c ****         }
 658              		.loc 1 708 0
 659 0024 0823     		movs	r3, #8
 660 0026 2370     		strb	r3, [r4]
 661 0028 0FE0     		b	.L69
 662              	.L68:
 713:Generated_Source\PSoC4/ble.c ****             if(apiResult == CYBLE_ERROR_OK)
 663              		.loc 1 713 0
 664 002a 6B46     		mov	r3, sp
 665 002c DE1D     		adds	r6, r3, #7
 666 002e 2900     		movs	r1, r5
 667 0030 3000     		movs	r0, r6
 668 0032 FFF7FEFF 		bl	CyBle_GapGetPeerBdHandle
 669              	.LVL58:
 714:Generated_Source\PSoC4/ble.c ****             {
 670              		.loc 1 714 0
 671 0036 0028     		cmp	r0, #0
 672 0038 0AD1     		bne	.L72
 717:Generated_Source\PSoC4/ble.c ****                 cyBle_pendingFlashClearCccdHandle = bDevHandle;
 673              		.loc 1 717 0
 674 003a 0422     		movs	r2, #4
 675 003c 2378     		ldrb	r3, [r4]
 676 003e 1343     		orrs	r3, r2
 677 0040 2370     		strb	r3, [r4]
 718:Generated_Source\PSoC4/ble.c ****             }
 678              		.loc 1 718 0
ARM GAS  C:\Users\Petro\AppData\Local\Temp\ccWSp1ai.s 			page 37


 679 0042 054B     		ldr	r3, .L73+4
 680 0044 3278     		ldrb	r2, [r6]
 681 0046 0233     		adds	r3, r3, #2
 682 0048 DA77     		strb	r2, [r3, #31]
 683              	.LVL59:
 684              	.L69:
 724:Generated_Source\PSoC4/ble.c ****         }
 685              		.loc 1 724 0
 686 004a 2800     		movs	r0, r5
 687 004c FFF7FEFF 		bl	CyBle_GapRemoveDeviceFromWhiteList
 688              	.LVL60:
 689              	.L72:
 690              	.LBE11:
 733:Generated_Source\PSoC4/ble.c **** 
 691              		.loc 1 733 0
 692 0050 04B0     		add	sp, sp, #16
 693              		@ sp needed
 694              	.LVL61:
 695 0052 70BD     		pop	{r4, r5, r6, pc}
 696              	.L74:
 697              		.align	2
 698              	.L73:
 699 0054 00000000 		.word	cyBle_pendingFlashWrite
 700 0058 00000000 		.word	.LANCHOR1
 701              		.cfi_endproc
 702              	.LFE7:
 703              		.size	CyBle_GapRemoveBondedDevice, .-CyBle_GapRemoveBondedDevice
 704              		.section	.text.CyBle_GappStartAdvertisement,"ax",%progbits
 705              		.align	1
 706              		.global	CyBle_GappStartAdvertisement
 707              		.code	16
 708              		.thumb_func
 709              		.type	CyBle_GappStartAdvertisement, %function
 710              	CyBle_GappStartAdvertisement:
 711              	.LFB8:
 791:Generated_Source\PSoC4/ble.c ****         CYBLE_API_RESULT_T apiResult;
 712              		.loc 1 791 0
 713              		.cfi_startproc
 714              		@ args = 0, pretend = 0, frame = 0
 715              		@ frame_needed = 0, uses_anonymous_args = 0
 716              	.LVL62:
 717 0000 0200     		movs	r2, r0
 718 0002 10B5     		push	{r4, lr}
 719              		.cfi_def_cfa_offset 8
 720              		.cfi_offset 4, -8
 721              		.cfi_offset 14, -4
 796:Generated_Source\PSoC4/ble.c ****         }
 722              		.loc 1 796 0
 723 0004 0120     		movs	r0, #1
 724              	.LVL63:
 794:Generated_Source\PSoC4/ble.c ****         {
 725              		.loc 1 794 0
 726 0006 022A     		cmp	r2, #2
 727 0008 2AD8     		bhi	.L76
 798:Generated_Source\PSoC4/ble.c ****         {   
 728              		.loc 1 798 0
 729 000a 164B     		ldr	r3, .L83
ARM GAS  C:\Users\Petro\AppData\Local\Temp\ccWSp1ai.s 			page 38


 730 000c 1B78     		ldrb	r3, [r3]
 731 000e 042B     		cmp	r3, #4
 732 0010 24D1     		bne	.L81
 798:Generated_Source\PSoC4/ble.c ****         {   
 733              		.loc 1 798 0 is_stmt 0 discriminator 1
 734 0012 154C     		ldr	r4, .L83+4
 735 0014 2178     		ldrb	r1, [r4]
 736 0016 1942     		tst	r1, r3
 737 0018 20D1     		bne	.L81
 738 001a 144B     		ldr	r3, .L83+8
 800:Generated_Source\PSoC4/ble.c ****             {
 739              		.loc 1 800 0 is_stmt 1
 740 001c 002A     		cmp	r2, #0
 741 001e 05D1     		bne	.L77
 803:Generated_Source\PSoC4/ble.c ****                 cyBle_discoveryModeInfo.advParam->advIntvMax = CYBLE_FAST_ADV_INT_MAX;
 742              		.loc 1 803 0
 743 0020 596A     		ldr	r1, [r3, #36]
 744 0022 1F30     		adds	r0, r0, #31
 802:Generated_Source\PSoC4/ble.c ****                 cyBle_discoveryModeInfo.advParam->advIntvMin = CYBLE_FAST_ADV_INT_MIN;
 745              		.loc 1 802 0
 746 0024 1A86     		strh	r2, [r3, #48]
 803:Generated_Source\PSoC4/ble.c ****                 cyBle_discoveryModeInfo.advParam->advIntvMax = CYBLE_FAST_ADV_INT_MAX;
 747              		.loc 1 803 0
 748 0026 0880     		strh	r0, [r1]
 804:Generated_Source\PSoC4/ble.c ****             }
 749              		.loc 1 804 0
 750 0028 1030     		adds	r0, r0, #16
 751 002a 09E0     		b	.L82
 752              	.L77:
 806:Generated_Source\PSoC4/ble.c ****             {
 753              		.loc 1 806 0
 754 002c 012A     		cmp	r2, #1
 755 002e 08D1     		bne	.L78
 808:Generated_Source\PSoC4/ble.c ****                 cyBle_discoveryModeInfo.advParam->advIntvMin = CYBLE_SLOW_ADV_INT_MIN;
 756              		.loc 1 808 0
 757 0030 9621     		movs	r1, #150
 809:Generated_Source\PSoC4/ble.c ****                 cyBle_discoveryModeInfo.advParam->advIntvMax = CYBLE_SLOW_ADV_INT_MAX;
 758              		.loc 1 809 0
 759 0032 C820     		movs	r0, #200
 808:Generated_Source\PSoC4/ble.c ****                 cyBle_discoveryModeInfo.advParam->advIntvMin = CYBLE_SLOW_ADV_INT_MIN;
 760              		.loc 1 808 0
 761 0034 1986     		strh	r1, [r3, #48]
 809:Generated_Source\PSoC4/ble.c ****                 cyBle_discoveryModeInfo.advParam->advIntvMax = CYBLE_SLOW_ADV_INT_MAX;
 762              		.loc 1 809 0
 763 0036 596A     		ldr	r1, [r3, #36]
 764 0038 C000     		lsls	r0, r0, #3
 765 003a 0880     		strh	r0, [r1]
 810:Generated_Source\PSoC4/ble.c ****             }       
 766              		.loc 1 810 0
 767 003c 8020     		movs	r0, #128
 768 003e C001     		lsls	r0, r0, #7
 769              	.L82:
 770 0040 4880     		strh	r0, [r1, #2]
 771              	.L78:
 815:Generated_Source\PSoC4/ble.c ****             apiResult = CyBle_GappEnterDiscoveryMode(&cyBle_discoveryModeInfo);
 772              		.loc 1 815 0
 773 0042 0B49     		ldr	r1, .L83+12
ARM GAS  C:\Users\Petro\AppData\Local\Temp\ccWSp1ai.s 			page 39


 816:Generated_Source\PSoC4/ble.c ****         
 774              		.loc 1 816 0
 775 0044 2033     		adds	r3, r3, #32
 776 0046 1800     		movs	r0, r3
 815:Generated_Source\PSoC4/ble.c ****             apiResult = CyBle_GappEnterDiscoveryMode(&cyBle_discoveryModeInfo);
 777              		.loc 1 815 0
 778 0048 0A70     		strb	r2, [r1]
 816:Generated_Source\PSoC4/ble.c ****         
 779              		.loc 1 816 0
 780 004a FFF7FEFF 		bl	CyBle_GappEnterDiscoveryMode
 781              	.LVL64:
 818:Generated_Source\PSoC4/ble.c ****             {
 782              		.loc 1 818 0
 783 004e 0028     		cmp	r0, #0
 784 0050 06D1     		bne	.L76
 820:Generated_Source\PSoC4/ble.c ****             }
 785              		.loc 1 820 0
 786 0052 0422     		movs	r2, #4
 787 0054 2378     		ldrb	r3, [r4]
 788 0056 1343     		orrs	r3, r2
 789 0058 2370     		strb	r3, [r4]
 790 005a 01E0     		b	.L76
 791              	.LVL65:
 792              	.L81:
 825:Generated_Source\PSoC4/ble.c ****         }
 793              		.loc 1 825 0
 794 005c 0420     		movs	r0, #4
 795 005e FF30     		adds	r0, r0, #255
 796              	.L76:
 797              	.LVL66:
 829:Generated_Source\PSoC4/ble.c **** 
 798              		.loc 1 829 0
 799              		@ sp needed
 800 0060 10BD     		pop	{r4, pc}
 801              	.L84:
 802 0062 C046     		.align	2
 803              	.L83:
 804 0064 00000000 		.word	cyBle_state
 805 0068 00000000 		.word	cyBle_eventHandlerFlag
 806 006c 00000000 		.word	.LANCHOR0
 807 0070 00000000 		.word	cyBle_advertisingIntervalType
 808              		.cfi_endproc
 809              	.LFE8:
 810              		.size	CyBle_GappStartAdvertisement, .-CyBle_GappStartAdvertisement
 811              		.section	.text.CyBle_GappStopAdvertisement,"ax",%progbits
 812              		.align	1
 813              		.global	CyBle_GappStopAdvertisement
 814              		.code	16
 815              		.thumb_func
 816              		.type	CyBle_GappStopAdvertisement, %function
 817              	CyBle_GappStopAdvertisement:
 818              	.LFB9:
 852:Generated_Source\PSoC4/ble.c ****         CyBle_GappExitDiscoveryMode();
 819              		.loc 1 852 0
 820              		.cfi_startproc
 821              		@ args = 0, pretend = 0, frame = 0
 822              		@ frame_needed = 0, uses_anonymous_args = 0
ARM GAS  C:\Users\Petro\AppData\Local\Temp\ccWSp1ai.s 			page 40


 823 0000 10B5     		push	{r4, lr}
 824              		.cfi_def_cfa_offset 8
 825              		.cfi_offset 4, -8
 826              		.cfi_offset 14, -4
 853:Generated_Source\PSoC4/ble.c ****         cyBle_eventHandlerFlag |= CYBLE_STOP_FLAG;
 827              		.loc 1 853 0
 828 0002 FFF7FEFF 		bl	CyBle_GappExitDiscoveryMode
 829              	.LVL67:
 854:Generated_Source\PSoC4/ble.c ****     }
 830              		.loc 1 854 0
 831 0006 0821     		movs	r1, #8
 832 0008 024A     		ldr	r2, .L86
 855:Generated_Source\PSoC4/ble.c ****     
 833              		.loc 1 855 0
 834              		@ sp needed
 854:Generated_Source\PSoC4/ble.c ****     }
 835              		.loc 1 854 0
 836 000a 1378     		ldrb	r3, [r2]
 837 000c 0B43     		orrs	r3, r1
 838 000e 1370     		strb	r3, [r2]
 855:Generated_Source\PSoC4/ble.c ****     
 839              		.loc 1 855 0
 840 0010 10BD     		pop	{r4, pc}
 841              	.L87:
 842 0012 C046     		.align	2
 843              	.L86:
 844 0014 00000000 		.word	cyBle_eventHandlerFlag
 845              		.cfi_endproc
 846              	.LFE9:
 847              		.size	CyBle_GappStopAdvertisement, .-CyBle_GappStopAdvertisement
 848              		.section	.text.CyBle_ChangeAdDeviceAddress,"ax",%progbits
 849              		.align	1
 850              		.global	CyBle_ChangeAdDeviceAddress
 851              		.code	16
 852              		.thumb_func
 853              		.type	CyBle_ChangeAdDeviceAddress, %function
 854              	CyBle_ChangeAdDeviceAddress:
 855              	.LFB10:
 874:Generated_Source\PSoC4/ble.c ****         uint8 i;
 856              		.loc 1 874 0
 857              		.cfi_startproc
 858              		@ args = 0, pretend = 0, frame = 0
 859              		@ frame_needed = 0, uses_anonymous_args = 0
 860              		@ link register save eliminated.
 861              	.LVL68:
 901:Generated_Source\PSoC4/ble.c ****   
 862              		.loc 1 901 0
 863              		@ sp needed
 864 0000 7047     		bx	lr
 865              		.cfi_endproc
 866              	.LFE10:
 867              		.size	CyBle_ChangeAdDeviceAddress, .-CyBle_ChangeAdDeviceAddress
 868              		.section	.text.CyBle_GapSetLocalName,"ax",%progbits
 869              		.align	1
 870              		.global	CyBle_GapSetLocalName
 871              		.code	16
 872              		.thumb_func
ARM GAS  C:\Users\Petro\AppData\Local\Temp\ccWSp1ai.s 			page 41


 873              		.type	CyBle_GapSetLocalName, %function
 874              	CyBle_GapSetLocalName:
 875              	.LFB12:
1263:Generated_Source\PSoC4/ble.c ****         
1264:Generated_Source\PSoC4/ble.c **** #endif /* (CYBLE_GAP_ROLE_PERIPHERAL) */  
1265:Generated_Source\PSoC4/ble.c ****     
1266:Generated_Source\PSoC4/ble.c ****     
1267:Generated_Source\PSoC4/ble.c ****     /******************************************************************************
1268:Generated_Source\PSoC4/ble.c ****     * Function Name: CyBle_GapSetLocalName
1269:Generated_Source\PSoC4/ble.c ****     ***************************************************************************//**
1270:Generated_Source\PSoC4/ble.c ****     *  This API is used to set the local device name - a Characteristic of the 
1271:Generated_Source\PSoC4/ble.c ****     *  GAP Service. If the characteristic length entered in the component customizer
1272:Generated_Source\PSoC4/ble.c ****     *  is shorter than the string specified by the "name" parameter, the local device
1273:Generated_Source\PSoC4/ble.c ****     *  name will be cut to the length specified in the customizer.
1274:Generated_Source\PSoC4/ble.c ****     * 
1275:Generated_Source\PSoC4/ble.c ****     *  \param name: The local device name string. The name string to be written as
1276:Generated_Source\PSoC4/ble.c ****     *              the local device name. It represents a UTF-8 encoded User
1277:Generated_Source\PSoC4/ble.c ****     *              Friendly Descriptive Name for the device. The length of the local
1278:Generated_Source\PSoC4/ble.c ****     *              device string is entered into the component customizer and it can
1279:Generated_Source\PSoC4/ble.c ****     *              be set to a value from 0 to 248 bytes. If the name contained in
1280:Generated_Source\PSoC4/ble.c ****     *              the parameter is shorter than the length from the customizer, the
1281:Generated_Source\PSoC4/ble.c ****     *              end of the name is indicated by a NULL octet (0x00).
1282:Generated_Source\PSoC4/ble.c ****     * 
1283:Generated_Source\PSoC4/ble.c ****     * \return
1284:Generated_Source\PSoC4/ble.c ****     *  CYBLE_API_RESULT_T : Return value indicates if the function succeeded or 
1285:Generated_Source\PSoC4/ble.c ****     *  failed. Following are the possible error codes.
1286:Generated_Source\PSoC4/ble.c ****     *
1287:Generated_Source\PSoC4/ble.c ****     *   Errors codes                       | Description
1288:Generated_Source\PSoC4/ble.c ****     *   ------------                       | -----------
1289:Generated_Source\PSoC4/ble.c ****     *   CYBLE_ERROR_OK                     | Function completed successfully.
1290:Generated_Source\PSoC4/ble.c ****     *   CYBLE_ERROR_INVALID_PARAMETER      | On specifying NULL as input parameter
1291:Generated_Source\PSoC4/ble.c ****     *  
1292:Generated_Source\PSoC4/ble.c ****     *******************************************************************************/
1293:Generated_Source\PSoC4/ble.c ****     CYBLE_API_RESULT_T CyBle_GapSetLocalName(const char8 name[])
1294:Generated_Source\PSoC4/ble.c ****     {
 876              		.loc 1 1294 0
 877              		.cfi_startproc
 878              		@ args = 0, pretend = 0, frame = 0
 879              		@ frame_needed = 0, uses_anonymous_args = 0
 880              	.LVL69:
 881 0000 10B5     		push	{r4, lr}
 882              		.cfi_def_cfa_offset 8
 883              		.cfi_offset 4, -8
 884              		.cfi_offset 14, -4
 885              		.loc 1 1294 0
 886 0002 0400     		movs	r4, r0
1295:Generated_Source\PSoC4/ble.c ****         CYBLE_API_RESULT_T apiResult = CYBLE_ERROR_OK;
1296:Generated_Source\PSoC4/ble.c ****         uint8 i;
1297:Generated_Source\PSoC4/ble.c ****         char8 *ptr;
1298:Generated_Source\PSoC4/ble.c ****         uint8 charLen;
1299:Generated_Source\PSoC4/ble.c **** 
1300:Generated_Source\PSoC4/ble.c ****         if(NULL != name)
1301:Generated_Source\PSoC4/ble.c ****         {
1302:Generated_Source\PSoC4/ble.c ****             /* Get the pointer to the Device Name characteristic  */
1303:Generated_Source\PSoC4/ble.c ****             ptr = (char8 *) CYBLE_GATT_DB_ATTR_GET_ATTR_GEN_PTR(cyBle_gaps.deviceNameCharHandle);
1304:Generated_Source\PSoC4/ble.c **** 
1305:Generated_Source\PSoC4/ble.c ****             /* First need to get the maximum length of the characteristic data in the GATT
ARM GAS  C:\Users\Petro\AppData\Local\Temp\ccWSp1ai.s 			page 42


1306:Generated_Source\PSoC4/ble.c ****                 database to make sure there is enough place for the data. The length
1307:Generated_Source\PSoC4/ble.c ****                 can't be longer than 248, so only the LSB of 16 bit of length is to
1308:Generated_Source\PSoC4/ble.c ****                 be used. */
1309:Generated_Source\PSoC4/ble.c ****             charLen = (uint8)CYBLE_GATT_DB_ATTR_GET_ATTR_GEN_MAX_LEN(cyBle_gaps.deviceNameCharHandl
1310:Generated_Source\PSoC4/ble.c **** 
1311:Generated_Source\PSoC4/ble.c ****             /* Copy name into characteristic */
1312:Generated_Source\PSoC4/ble.c ****             for(i = 0u; ((i < charLen) && (CYBLE_NULL_CHARCTER != name[i])); i++)
1313:Generated_Source\PSoC4/ble.c ****             {
1314:Generated_Source\PSoC4/ble.c ****                 ptr[i] = name[i];
1315:Generated_Source\PSoC4/ble.c ****             }
1316:Generated_Source\PSoC4/ble.c **** 
1317:Generated_Source\PSoC4/ble.c ****             if(i < charLen)
1318:Generated_Source\PSoC4/ble.c ****             {
1319:Generated_Source\PSoC4/ble.c ****                 /* Terminate string */
1320:Generated_Source\PSoC4/ble.c ****                 ptr[i] = CYBLE_NULL_CHARCTER;
1321:Generated_Source\PSoC4/ble.c ****             }
1322:Generated_Source\PSoC4/ble.c ****             
1323:Generated_Source\PSoC4/ble.c ****             /* Set new actual length */
1324:Generated_Source\PSoC4/ble.c ****             
1325:Generated_Source\PSoC4/ble.c ****             /* Update device name in advertising and scan response structure */
1326:Generated_Source\PSoC4/ble.c ****             #if(CYBLE_GAP_ROLE_PERIPHERAL)
1327:Generated_Source\PSoC4/ble.c ****                 CyBle_ChangeAdLocalName(name, 0u);
1328:Generated_Source\PSoC4/ble.c ****                 CyBle_ChangeAdLocalName(name, 1u);
1329:Generated_Source\PSoC4/ble.c ****             #endif /* (CYBLE_GAP_ROLE_PERIPHERAL) */
1330:Generated_Source\PSoC4/ble.c ****         }
1331:Generated_Source\PSoC4/ble.c ****         else
1332:Generated_Source\PSoC4/ble.c ****         {
1333:Generated_Source\PSoC4/ble.c ****             apiResult = CYBLE_ERROR_INVALID_PARAMETER;
 887              		.loc 1 1333 0
 888 0004 0120     		movs	r0, #1
 889              	.LVL70:
1300:Generated_Source\PSoC4/ble.c ****         {
 890              		.loc 1 1300 0
 891 0006 002C     		cmp	r4, #0
 892 0008 1CD0     		beq	.L90
1303:Generated_Source\PSoC4/ble.c **** 
 893              		.loc 1 1303 0
 894 000a 1422     		movs	r2, #20
 895 000c 0E4B     		ldr	r3, .L95
 896 000e 5B88     		ldrh	r3, [r3, #2]
 897 0010 013B     		subs	r3, r3, #1
 898 0012 5343     		muls	r3, r2
 899 0014 0D4A     		ldr	r2, .L95+4
 900 0016 D318     		adds	r3, r2, r3
 901 0018 1A69     		ldr	r2, [r3, #16]
1309:Generated_Source\PSoC4/ble.c **** 
 902              		.loc 1 1309 0
 903 001a 187B     		ldrb	r0, [r3, #12]
1312:Generated_Source\PSoC4/ble.c ****             {
 904              		.loc 1 1312 0
 905 001c 0023     		movs	r3, #0
1303:Generated_Source\PSoC4/ble.c **** 
 906              		.loc 1 1303 0
 907 001e 5168     		ldr	r1, [r2, #4]
 908              	.LVL71:
 909              	.L91:
1312:Generated_Source\PSoC4/ble.c ****             {
ARM GAS  C:\Users\Petro\AppData\Local\Temp\ccWSp1ai.s 			page 43


 910              		.loc 1 1312 0 discriminator 1
 911 0020 DAB2     		uxtb	r2, r3
 912 0022 9042     		cmp	r0, r2
 913 0024 05D9     		bls	.L92
1312:Generated_Source\PSoC4/ble.c ****             {
 914              		.loc 1 1312 0 is_stmt 0 discriminator 3
 915 0026 E25C     		ldrb	r2, [r4, r3]
1314:Generated_Source\PSoC4/ble.c ****             }
 916              		.loc 1 1314 0 is_stmt 1 discriminator 3
 917 0028 CA54     		strb	r2, [r1, r3]
1312:Generated_Source\PSoC4/ble.c ****             {
 918              		.loc 1 1312 0 discriminator 3
 919 002a 002A     		cmp	r2, #0
 920 002c 01D0     		beq	.L92
 921              	.LVL72:
 922 002e 0133     		adds	r3, r3, #1
 923              	.LVL73:
 924 0030 F6E7     		b	.L91
 925              	.LVL74:
 926              	.L92:
1327:Generated_Source\PSoC4/ble.c ****                 CyBle_ChangeAdLocalName(name, 1u);
 927              		.loc 1 1327 0
 928 0032 0021     		movs	r1, #0
 929              	.LVL75:
 930 0034 2000     		movs	r0, r4
 931              	.LVL76:
 932 0036 FFF7FEFF 		bl	CyBle_ChangeAdLocalName
 933              	.LVL77:
1328:Generated_Source\PSoC4/ble.c ****             #endif /* (CYBLE_GAP_ROLE_PERIPHERAL) */
 934              		.loc 1 1328 0
 935 003a 2000     		movs	r0, r4
 936 003c 0121     		movs	r1, #1
 937 003e FFF7FEFF 		bl	CyBle_ChangeAdLocalName
 938              	.LVL78:
1295:Generated_Source\PSoC4/ble.c ****         uint8 i;
 939              		.loc 1 1295 0
 940 0042 0020     		movs	r0, #0
 941              	.L90:
 942              	.LVL79:
1334:Generated_Source\PSoC4/ble.c ****         }
1335:Generated_Source\PSoC4/ble.c ****         
1336:Generated_Source\PSoC4/ble.c ****         return(apiResult);
1337:Generated_Source\PSoC4/ble.c ****     }
 943              		.loc 1 1337 0
 944              		@ sp needed
 945              	.LVL80:
 946 0044 10BD     		pop	{r4, pc}
 947              	.L96:
 948 0046 C046     		.align	2
 949              	.L95:
 950 0048 00000000 		.word	cyBle_gaps
 951 004c 00000000 		.word	cyBle_gattDB
 952              		.cfi_endproc
 953              	.LFE12:
 954              		.size	CyBle_GapSetLocalName, .-CyBle_GapSetLocalName
 955              		.section	.text.CyBle_GapGetLocalName,"ax",%progbits
 956              		.align	1
ARM GAS  C:\Users\Petro\AppData\Local\Temp\ccWSp1ai.s 			page 44


 957              		.global	CyBle_GapGetLocalName
 958              		.code	16
 959              		.thumb_func
 960              		.type	CyBle_GapGetLocalName, %function
 961              	CyBle_GapGetLocalName:
 962              	.LFB13:
1338:Generated_Source\PSoC4/ble.c **** 
1339:Generated_Source\PSoC4/ble.c **** 
1340:Generated_Source\PSoC4/ble.c ****     /******************************************************************************
1341:Generated_Source\PSoC4/ble.c ****     * Function Name: CyBle_GapGetLocalName
1342:Generated_Source\PSoC4/ble.c ****     ***************************************************************************//**
1343:Generated_Source\PSoC4/ble.c ****     *  
1344:Generated_Source\PSoC4/ble.c ****     *  This API is used to read the local device name - a Characteristic of the 
1345:Generated_Source\PSoC4/ble.c ****     *  GAP Service.
1346:Generated_Source\PSoC4/ble.c ****     * 
1347:Generated_Source\PSoC4/ble.c ****     * \param name: The local device name string. Used to read the local name to the
1348:Generated_Source\PSoC4/ble.c ****     *             given string array. It represents a UTF-8 encoded User Friendly 
1349:Generated_Source\PSoC4/ble.c ****     *             Descriptive Name for the device. The length of the local device
1350:Generated_Source\PSoC4/ble.c ****     *             string is entered into the component customizer and it can be set
1351:Generated_Source\PSoC4/ble.c ****     *             to a value from 0 to 248 bytes. If the name contained in the
1352:Generated_Source\PSoC4/ble.c ****     *             parameter is shorter than the length from the customizer, the end
1353:Generated_Source\PSoC4/ble.c ****     *             of the name is indicated by a NULL octet (0x00).
1354:Generated_Source\PSoC4/ble.c ****     * 
1355:Generated_Source\PSoC4/ble.c ****     * \return
1356:Generated_Source\PSoC4/ble.c ****     *  CYBLE_API_RESULT_T : Return value indicates if the function succeeded or 
1357:Generated_Source\PSoC4/ble.c ****     *  failed. Following are the possible error codes.
1358:Generated_Source\PSoC4/ble.c ****     *
1359:Generated_Source\PSoC4/ble.c ****     *   Errors codes                       | Description
1360:Generated_Source\PSoC4/ble.c ****     *   ------------                       | -----------
1361:Generated_Source\PSoC4/ble.c ****     *   CYBLE_ERROR_OK                     | Function completed successfully.
1362:Generated_Source\PSoC4/ble.c ****     *   CYBLE_ERROR_INVALID_PARAMETER      | On specifying NULL as input parameter
1363:Generated_Source\PSoC4/ble.c ****     *
1364:Generated_Source\PSoC4/ble.c ****     *******************************************************************************/
1365:Generated_Source\PSoC4/ble.c ****     CYBLE_API_RESULT_T CyBle_GapGetLocalName(char8 name[])
1366:Generated_Source\PSoC4/ble.c ****     {
 963              		.loc 1 1366 0
 964              		.cfi_startproc
 965              		@ args = 0, pretend = 0, frame = 0
 966              		@ frame_needed = 0, uses_anonymous_args = 0
 967              	.LVL81:
 968 0000 0100     		movs	r1, r0
 969 0002 10B5     		push	{r4, lr}
 970              		.cfi_def_cfa_offset 8
 971              		.cfi_offset 4, -8
 972              		.cfi_offset 14, -4
1367:Generated_Source\PSoC4/ble.c ****         CYBLE_API_RESULT_T apiResult = CYBLE_ERROR_OK;
1368:Generated_Source\PSoC4/ble.c ****         uint8 charLen;
1369:Generated_Source\PSoC4/ble.c ****         uint8 i;
1370:Generated_Source\PSoC4/ble.c ****         char8 *ptr;
1371:Generated_Source\PSoC4/ble.c **** 
1372:Generated_Source\PSoC4/ble.c ****         if(NULL != name)
1373:Generated_Source\PSoC4/ble.c ****         {
1374:Generated_Source\PSoC4/ble.c ****             /* Get the pointer to the Device Name characteristic  */
1375:Generated_Source\PSoC4/ble.c ****             ptr = (char8 *) CYBLE_GATT_DB_ATTR_GET_ATTR_GEN_PTR(cyBle_gaps.deviceNameCharHandle);
1376:Generated_Source\PSoC4/ble.c **** 
1377:Generated_Source\PSoC4/ble.c ****             /* First need to get the length of the characteristic data in the GATT
1378:Generated_Source\PSoC4/ble.c ****                 database to make sure there is enough place for the data. The length
ARM GAS  C:\Users\Petro\AppData\Local\Temp\ccWSp1ai.s 			page 45


1379:Generated_Source\PSoC4/ble.c ****                 can't be longer than 248, so only the LSB of 16 bit of length is to
1380:Generated_Source\PSoC4/ble.c ****                 be used. */
1381:Generated_Source\PSoC4/ble.c ****             charLen = (uint8)CYBLE_GATT_DB_ATTR_GET_ATTR_GEN_LEN(cyBle_gaps.deviceNameCharHandle);
1382:Generated_Source\PSoC4/ble.c **** 
1383:Generated_Source\PSoC4/ble.c ****             /* Copy name from characteristic */
1384:Generated_Source\PSoC4/ble.c ****             for(i = 0u; ((i < charLen) && (CYBLE_NULL_CHARCTER != ptr[i])); i++)
1385:Generated_Source\PSoC4/ble.c ****             {
1386:Generated_Source\PSoC4/ble.c ****                 name[i] = ptr[i];
1387:Generated_Source\PSoC4/ble.c ****             }
1388:Generated_Source\PSoC4/ble.c **** 
1389:Generated_Source\PSoC4/ble.c ****             /* Terminate string */
1390:Generated_Source\PSoC4/ble.c ****             name[i] = CYBLE_NULL_CHARCTER;
1391:Generated_Source\PSoC4/ble.c ****         }
1392:Generated_Source\PSoC4/ble.c ****         else
1393:Generated_Source\PSoC4/ble.c ****         {
1394:Generated_Source\PSoC4/ble.c ****             apiResult = CYBLE_ERROR_INVALID_PARAMETER;
 973              		.loc 1 1394 0
 974 0004 0120     		movs	r0, #1
 975              	.LVL82:
1372:Generated_Source\PSoC4/ble.c ****         {
 976              		.loc 1 1372 0
 977 0006 0029     		cmp	r1, #0
 978 0008 18D0     		beq	.L98
1375:Generated_Source\PSoC4/ble.c **** 
 979              		.loc 1 1375 0
 980 000a 1422     		movs	r2, #20
 981 000c 0C4B     		ldr	r3, .L104
 982 000e 5B88     		ldrh	r3, [r3, #2]
 983 0010 013B     		subs	r3, r3, #1
 984 0012 5343     		muls	r3, r2
 985 0014 0B4A     		ldr	r2, .L104+4
 986 0016 D318     		adds	r3, r2, r3
 987 0018 1B69     		ldr	r3, [r3, #16]
 988 001a 5868     		ldr	r0, [r3, #4]
 989              	.LVL83:
1381:Generated_Source\PSoC4/ble.c **** 
 990              		.loc 1 1381 0
 991 001c 1C78     		ldrb	r4, [r3]
 992              	.LVL84:
1384:Generated_Source\PSoC4/ble.c ****             {
 993              		.loc 1 1384 0
 994 001e 0023     		movs	r3, #0
 995              	.LVL85:
 996              	.L99:
1384:Generated_Source\PSoC4/ble.c ****             {
 997              		.loc 1 1384 0 is_stmt 0 discriminator 1
 998 0020 DAB2     		uxtb	r2, r3
 999 0022 A242     		cmp	r2, r4
 1000 0024 04D3     		bcc	.L100
 1001              	.L102:
1390:Generated_Source\PSoC4/ble.c ****         }
 1002              		.loc 1 1390 0 is_stmt 1
 1003 0026 0022     		movs	r2, #0
 1004 0028 DBB2     		uxtb	r3, r3
 1005 002a CA54     		strb	r2, [r1, r3]
1367:Generated_Source\PSoC4/ble.c ****         uint8 charLen;
 1006              		.loc 1 1367 0
ARM GAS  C:\Users\Petro\AppData\Local\Temp\ccWSp1ai.s 			page 46


 1007 002c 1000     		movs	r0, r2
 1008              	.LVL86:
 1009 002e 05E0     		b	.L98
 1010              	.LVL87:
 1011              	.L100:
1384:Generated_Source\PSoC4/ble.c ****             {
 1012              		.loc 1 1384 0 discriminator 3
 1013 0030 C25C     		ldrb	r2, [r0, r3]
 1014 0032 002A     		cmp	r2, #0
 1015 0034 F7D0     		beq	.L102
1386:Generated_Source\PSoC4/ble.c ****             }
 1016              		.loc 1 1386 0 discriminator 4
 1017 0036 CA54     		strb	r2, [r1, r3]
 1018              	.LVL88:
 1019 0038 0133     		adds	r3, r3, #1
 1020              	.LVL89:
 1021 003a F1E7     		b	.L99
 1022              	.LVL90:
 1023              	.L98:
1395:Generated_Source\PSoC4/ble.c ****         }
1396:Generated_Source\PSoC4/ble.c ****         
1397:Generated_Source\PSoC4/ble.c ****         return(apiResult);
1398:Generated_Source\PSoC4/ble.c ****     }
 1024              		.loc 1 1398 0
 1025              		@ sp needed
 1026 003c 10BD     		pop	{r4, pc}
 1027              	.L105:
 1028 003e C046     		.align	2
 1029              	.L104:
 1030 0040 00000000 		.word	cyBle_gaps
 1031 0044 00000000 		.word	cyBle_gattDB
 1032              		.cfi_endproc
 1033              	.LFE13:
 1034              		.size	CyBle_GapGetLocalName, .-CyBle_GapGetLocalName
 1035              		.section	.text.CyBle_Get16ByPtr,"ax",%progbits
 1036              		.align	1
 1037              		.global	CyBle_Get16ByPtr
 1038              		.code	16
 1039              		.thumb_func
 1040              		.type	CyBle_Get16ByPtr, %function
 1041              	CyBle_Get16ByPtr:
 1042              	.LFB14:
1399:Generated_Source\PSoC4/ble.c **** 
1400:Generated_Source\PSoC4/ble.c **** #endif /* (CYBLE_GATT_ROLE_SERVER) */
1401:Generated_Source\PSoC4/ble.c **** 
1402:Generated_Source\PSoC4/ble.c **** 
1403:Generated_Source\PSoC4/ble.c **** /******************************************************************************
1404:Generated_Source\PSoC4/ble.c **** * Function Name: CyBle_Get16ByPtr
1405:Generated_Source\PSoC4/ble.c **** ***************************************************************************//**
1406:Generated_Source\PSoC4/ble.c **** * 
1407:Generated_Source\PSoC4/ble.c **** *  Returns the two-bytes value by using a pointer to the LSB.
1408:Generated_Source\PSoC4/ble.c **** * 
1409:Generated_Source\PSoC4/ble.c **** *  \param ptr: Pointer to the LSB of two-bytes data (little endian).
1410:Generated_Source\PSoC4/ble.c **** * 
1411:Generated_Source\PSoC4/ble.c **** *  \return
1412:Generated_Source\PSoC4/ble.c **** *  uint16: Two-bytes data.
1413:Generated_Source\PSoC4/ble.c **** * 
ARM GAS  C:\Users\Petro\AppData\Local\Temp\ccWSp1ai.s 			page 47


1414:Generated_Source\PSoC4/ble.c **** ******************************************************************************/
1415:Generated_Source\PSoC4/ble.c **** uint16 CyBle_Get16ByPtr(const uint8 ptr[])
1416:Generated_Source\PSoC4/ble.c **** {
 1043              		.loc 1 1416 0
 1044              		.cfi_startproc
 1045              		@ args = 0, pretend = 0, frame = 0
 1046              		@ frame_needed = 0, uses_anonymous_args = 0
 1047              		@ link register save eliminated.
 1048              	.LVL91:
1417:Generated_Source\PSoC4/ble.c ****     return ((uint16) ptr[0u] | ((uint16) (((uint16) ptr[1u]) << 8u)));
 1049              		.loc 1 1417 0
 1050 0000 0378     		ldrb	r3, [r0]
 1051 0002 4078     		ldrb	r0, [r0, #1]
 1052              	.LVL92:
1418:Generated_Source\PSoC4/ble.c **** }
 1053              		.loc 1 1418 0
 1054              		@ sp needed
1417:Generated_Source\PSoC4/ble.c ****     return ((uint16) ptr[0u] | ((uint16) (((uint16) ptr[1u]) << 8u)));
 1055              		.loc 1 1417 0
 1056 0004 0002     		lsls	r0, r0, #8
 1057 0006 1843     		orrs	r0, r3
 1058              		.loc 1 1418 0
 1059 0008 7047     		bx	lr
 1060              		.cfi_endproc
 1061              	.LFE14:
 1062              		.size	CyBle_Get16ByPtr, .-CyBle_Get16ByPtr
 1063              		.section	.text.CyBle_Set16ByPtr,"ax",%progbits
 1064              		.align	1
 1065              		.global	CyBle_Set16ByPtr
 1066              		.code	16
 1067              		.thumb_func
 1068              		.type	CyBle_Set16ByPtr, %function
 1069              	CyBle_Set16ByPtr:
 1070              	.LFB15:
1419:Generated_Source\PSoC4/ble.c **** 
1420:Generated_Source\PSoC4/ble.c **** 
1421:Generated_Source\PSoC4/ble.c **** /******************************************************************************
1422:Generated_Source\PSoC4/ble.c **** * Function Name: CyBle_Set16ByPtr
1423:Generated_Source\PSoC4/ble.c **** ***************************************************************************//**
1424:Generated_Source\PSoC4/ble.c **** * 
1425:Generated_Source\PSoC4/ble.c **** *  Sets the two-bytes value by using a pointer to the LSB.
1426:Generated_Source\PSoC4/ble.c **** * 
1427:Generated_Source\PSoC4/ble.c **** *  \param ptr:    Pointer to the LSB of two-bytes data (little endian).
1428:Generated_Source\PSoC4/ble.c **** *  \param value:  Two-bytes data to be written.
1429:Generated_Source\PSoC4/ble.c **** * 
1430:Generated_Source\PSoC4/ble.c **** *  \return
1431:Generated_Source\PSoC4/ble.c **** *  None
1432:Generated_Source\PSoC4/ble.c **** * 
1433:Generated_Source\PSoC4/ble.c **** ******************************************************************************/
1434:Generated_Source\PSoC4/ble.c **** void CyBle_Set16ByPtr(uint8 ptr[], uint16 value)
1435:Generated_Source\PSoC4/ble.c **** {
 1071              		.loc 1 1435 0
 1072              		.cfi_startproc
 1073              		@ args = 0, pretend = 0, frame = 0
 1074              		@ frame_needed = 0, uses_anonymous_args = 0
 1075              		@ link register save eliminated.
 1076              	.LVL93:
ARM GAS  C:\Users\Petro\AppData\Local\Temp\ccWSp1ai.s 			page 48


1436:Generated_Source\PSoC4/ble.c ****     ptr[0u] = (uint8) value;
 1077              		.loc 1 1436 0
 1078 0000 0170     		strb	r1, [r0]
1437:Generated_Source\PSoC4/ble.c ****     ptr[1u] = (uint8) (value >> 8u);
 1079              		.loc 1 1437 0
 1080 0002 090A     		lsrs	r1, r1, #8
 1081              	.LVL94:
 1082 0004 4170     		strb	r1, [r0, #1]
1438:Generated_Source\PSoC4/ble.c **** }
 1083              		.loc 1 1438 0
 1084              		@ sp needed
 1085 0006 7047     		bx	lr
 1086              		.cfi_endproc
 1087              	.LFE15:
 1088              		.size	CyBle_Set16ByPtr, .-CyBle_Set16ByPtr
 1089              		.global	cyBle_sflashDeviceAddress
 1090              		.global	cyBle_deviceAddress
 1091              		.comm	CyBle_ApplCallback,4,4
 1092              		.comm	cyBle_pendingFlashWrite,1,1
 1093              		.comm	cyBle_peerBonding,1,1
 1094              		.global	cyBle_discoveryModeInfo
 1095              		.global	cyBle_scanRspData
 1096              		.global	cyBle_discoveryData
 1097              		.global	cyBle_discoveryParam
 1098              		.global	cyBle_stackMemoryRam
 1099              		.global	cyBle_initVar
 1100              		.section	.rodata
 1101              		.align	1
 1102              		.set	.LANCHOR2,. + 0
 1103              	.LC0:
 1104 0000 2400     		.short	36
 1105 0002 03       		.byte	3
 1106 0003 00       		.space	1
 1107 0004 3000     		.short	48
 1108 0006 01       		.byte	1
 1109 0007 00       		.space	1
 1110 0008 2800     		.short	40
 1111 000a 02       		.byte	2
 1112 000b 00       		.space	1
 1113 000c 2400     		.short	36
 1114 000e 01       		.byte	1
 1115 000f 00       		.space	1
 1116 0010 2400     		.short	36
 1117 0012 01       		.byte	1
 1118 0013 00       		.space	1
 1119              		.data
 1120              		.align	2
 1121              		.set	.LANCHOR0,. + 0
 1122              		.type	cyBle_discoveryData, %object
 1123              		.size	cyBle_discoveryData, 32
 1124              	cyBle_discoveryData:
 1125 0000 02       		.byte	2
 1126 0001 01       		.byte	1
 1127 0002 06       		.byte	6
 1128 0003 09       		.byte	9
 1129 0004 09       		.byte	9
 1130 0005 53       		.byte	83
ARM GAS  C:\Users\Petro\AppData\Local\Temp\ccWSp1ai.s 			page 49


 1131 0006 46       		.byte	70
 1132 0007 73       		.byte	115
 1133 0008 79       		.byte	121
 1134 0009 73       		.byte	115
 1135 000a 74       		.byte	116
 1136 000b 65       		.byte	101
 1137 000c 6D       		.byte	109
 1138 000d 11       		.byte	17
 1139 000e 07       		.byte	7
 1140 000f F0       		.byte	-16
 1141 0010 34       		.byte	52
 1142 0011 9B       		.byte	-101
 1143 0012 5F       		.byte	95
 1144 0013 80       		.byte	-128
 1145 0014 00       		.byte	0
 1146 0015 00       		.byte	0
 1147 0016 80       		.byte	-128
 1148 0017 00       		.byte	0
 1149 0018 10       		.byte	16
 1150 0019 00       		.byte	0
 1151 001a 00       		.byte	0
 1152 001b 00       		.byte	0
 1153 001c 00       		.byte	0
 1154 001d 00       		.byte	0
 1155 001e 00       		.byte	0
 1156 001f 1F       		.byte	31
 1157              		.type	cyBle_discoveryModeInfo, %object
 1158              		.size	cyBle_discoveryModeInfo, 20
 1159              	cyBle_discoveryModeInfo:
 1160 0020 02       		.byte	2
 1161 0021 000000   		.space	3
 1162 0024 00000000 		.word	cyBle_discoveryParam
 1163 0028 00000000 		.word	cyBle_discoveryData
 1164 002c 00000000 		.word	cyBle_scanRspData
 1165 0030 0000     		.short	0
 1166 0032 0000     		.space	2
 1167              		.type	cyBle_sflashDeviceAddress, %object
 1168              		.size	cyBle_sflashDeviceAddress, 4
 1169              	cyBle_sflashDeviceAddress:
 1170 0034 00F2FF0F 		.word	268431872
 1171              		.type	cyBle_deviceAddress, %object
 1172              		.size	cyBle_deviceAddress, 7
 1173              	cyBle_deviceAddress:
 1174 0038 00       		.byte	0
 1175 0039 00       		.byte	0
 1176 003a 00       		.byte	0
 1177 003b 50       		.byte	80
 1178 003c A0       		.byte	-96
 1179 003d 00       		.byte	0
 1180 003e 00       		.byte	0
 1181 003f 00       		.space	1
 1182              		.type	cyBle_discoveryParam, %object
 1183              		.size	cyBle_discoveryParam, 16
 1184              	cyBle_discoveryParam:
 1185 0040 2000     		.short	32
 1186 0042 3000     		.short	48
 1187 0044 00       		.byte	0
ARM GAS  C:\Users\Petro\AppData\Local\Temp\ccWSp1ai.s 			page 50


 1188 0045 00       		.byte	0
 1189 0046 00       		.byte	0
 1190 0047 00       		.byte	0
 1191 0048 00       		.byte	0
 1192 0049 00       		.byte	0
 1193 004a 50       		.byte	80
 1194 004b A0       		.byte	-96
 1195 004c 00       		.byte	0
 1196 004d 07       		.byte	7
 1197 004e 00       		.byte	0
 1198 004f 00       		.space	1
 1199              		.section	.noinit,"aw",%progbits
 1200              		.align	3
 1201              		.set	.LANCHOR3,. + 0
 1202              		.type	cyBle_stackMemoryRam, %object
 1203              		.size	cyBle_stackMemoryRam, 2784
 1204              	cyBle_stackMemoryRam:
 1205 0000 00000000 		.space	2784
 1205      00000000 
 1205      00000000 
 1205      00000000 
 1205      00000000 
 1206              		.bss
 1207              		.set	.LANCHOR1,. + 0
 1208              		.type	cyBle_scanRspData, %object
 1209              		.size	cyBle_scanRspData, 32
 1210              	cyBle_scanRspData:
 1211 0000 00000000 		.space	32
 1211      00000000 
 1211      00000000 
 1211      00000000 
 1211      00000000 
 1212              		.type	cyBle_initVar, %object
 1213              		.size	cyBle_initVar, 1
 1214              	cyBle_initVar:
 1215 0020 00       		.space	1
 1216              		.type	cyBle_pendingFlashClearCccdHandle, %object
 1217              		.size	cyBle_pendingFlashClearCccdHandle, 1
 1218              	cyBle_pendingFlashClearCccdHandle:
 1219 0021 00       		.space	1
 1220              		.text
 1221              	.Letext0:
 1222              		.file 2 "Generated_Source\\PSoC4\\cytypes.h"
 1223              		.file 3 "Generated_Source\\PSoC4\\ble_Stack.h"
 1224              		.file 4 "Generated_Source\\PSoC4\\ble_StackGap.h"
 1225              		.file 5 "Generated_Source\\PSoC4\\ble_StackGatt.h"
 1226              		.file 6 "Generated_Source\\PSoC4\\ble_StackGattDb.h"
 1227              		.file 7 "Generated_Source\\PSoC4\\ble.h"
 1228              		.file 8 "Generated_Source\\PSoC4\\ble_gatt.h"
 1229              		.file 9 "Generated_Source\\PSoC4\\ble_eventHandler.h"
 1230              		.file 10 "Generated_Source\\PSoC4\\ble_custom.h"
 1231              		.file 11 "Generated_Source\\PSoC4\\ble_StackHostMain.h"
 1232              		.file 12 "c:\\program files (x86)\\cypress\\psoc creator\\4.1\\psoc creator\\import\\gnu\\arm\\5.4