ARM GAS  C:\Users\Petro\AppData\Local\Temp\cc0ZbO7Y.s 			page 1


   1              		.syntax unified
   2              		.cpu cortex-m0
   3              		.fpu softvfp
   4              		.eabi_attribute 20, 1
   5              		.eabi_attribute 21, 1
   6              		.eabi_attribute 23, 3
   7              		.eabi_attribute 24, 1
   8              		.eabi_attribute 25, 1
   9              		.eabi_attribute 26, 1
  10              		.eabi_attribute 30, 4
  11              		.eabi_attribute 34, 0
  12              		.eabi_attribute 18, 4
  13              		.thumb
  14              		.syntax unified
  15              		.file	"ble_HAL_PVT.c"
  16              		.text
  17              	.Ltext0:
  18              		.cfi_sections	.debug_frame
  19              		.section	.text.CyBLE_Nvram_Write,"ax",%progbits
  20              		.align	1
  21              		.global	CyBLE_Nvram_Write
  22              		.code	16
  23              		.thumb_func
  24              		.type	CyBLE_Nvram_Write, %function
  25              	CyBLE_Nvram_Write:
  26              	.LFB2:
  27              		.file 1 "Generated_Source\\PSoC4\\ble_HAL_PVT.c"
   1:Generated_Source\PSoC4/ble_HAL_PVT.c **** /***************************************************************************//**
   2:Generated_Source\PSoC4/ble_HAL_PVT.c **** * \file CYBLE_HAL_PVT.c
   3:Generated_Source\PSoC4/ble_HAL_PVT.c **** * \version 3.30
   4:Generated_Source\PSoC4/ble_HAL_PVT.c **** *
   5:Generated_Source\PSoC4/ble_HAL_PVT.c **** * \brief
   6:Generated_Source\PSoC4/ble_HAL_PVT.c **** *  This file contains the source code for the HAL section of the BLE component
   7:Generated_Source\PSoC4/ble_HAL_PVT.c **** *
   8:Generated_Source\PSoC4/ble_HAL_PVT.c **** ********************************************************************************
   9:Generated_Source\PSoC4/ble_HAL_PVT.c **** * \copyright
  10:Generated_Source\PSoC4/ble_HAL_PVT.c **** * Copyright 2014-2016, Cypress Semiconductor Corporation.  All rights reserved.
  11:Generated_Source\PSoC4/ble_HAL_PVT.c **** * You may use this file only in accordance with the license, terms, conditions,
  12:Generated_Source\PSoC4/ble_HAL_PVT.c **** * disclaimers, and limitations in the end user license agreement accompanying
  13:Generated_Source\PSoC4/ble_HAL_PVT.c **** * the software package with which this file was provided.
  14:Generated_Source\PSoC4/ble_HAL_PVT.c **** *******************************************************************************/
  15:Generated_Source\PSoC4/ble_HAL_PVT.c **** 
  16:Generated_Source\PSoC4/ble_HAL_PVT.c **** #include "ble_HAL_PVT.h"
  17:Generated_Source\PSoC4/ble_HAL_PVT.c **** 
  18:Generated_Source\PSoC4/ble_HAL_PVT.c **** 
  19:Generated_Source\PSoC4/ble_HAL_PVT.c **** #if(CYBLE_MODE == CYBLE_HCI)
  20:Generated_Source\PSoC4/ble_HAL_PVT.c **** 
  21:Generated_Source\PSoC4/ble_HAL_PVT.c **** 
  22:Generated_Source\PSoC4/ble_HAL_PVT.c **** /*******************************************************************************
  23:Generated_Source\PSoC4/ble_HAL_PVT.c **** * Function Name: CyBLE_Uart_Start
  24:Generated_Source\PSoC4/ble_HAL_PVT.c **** ****************************************************************************//**
  25:Generated_Source\PSoC4/ble_HAL_PVT.c **** *
  26:Generated_Source\PSoC4/ble_HAL_PVT.c **** *  Enables the platform UART Tx and RX interrupts and then enables the UART
  27:Generated_Source\PSoC4/ble_HAL_PVT.c **** *  component.
  28:Generated_Source\PSoC4/ble_HAL_PVT.c **** *
  29:Generated_Source\PSoC4/ble_HAL_PVT.c **** * \return
  30:Generated_Source\PSoC4/ble_HAL_PVT.c **** *  None
ARM GAS  C:\Users\Petro\AppData\Local\Temp\cc0ZbO7Y.s 			page 2


  31:Generated_Source\PSoC4/ble_HAL_PVT.c **** *
  32:Generated_Source\PSoC4/ble_HAL_PVT.c **** *******************************************************************************/
  33:Generated_Source\PSoC4/ble_HAL_PVT.c **** void CyBLE_Uart_Start (void)
  34:Generated_Source\PSoC4/ble_HAL_PVT.c **** {
  35:Generated_Source\PSoC4/ble_HAL_PVT.c ****     #if (CYBLE_HCI_TYPE == CYBLE_HCI_OVER_UART)
  36:Generated_Source\PSoC4/ble_HAL_PVT.c ****         /* Setup ISR */
  37:Generated_Source\PSoC4/ble_HAL_PVT.c ****         ble_uart_isr_StartEx(&CyBLE_Uart_Interrupt);
  38:Generated_Source\PSoC4/ble_HAL_PVT.c **** 
  39:Generated_Source\PSoC4/ble_HAL_PVT.c ****         ble_HAL_Uart_Start();
  40:Generated_Source\PSoC4/ble_HAL_PVT.c ****     #endif /* (CYBLE_HCI_TYPE == CYBLE_HCI_OVER_UART) */
  41:Generated_Source\PSoC4/ble_HAL_PVT.c **** }
  42:Generated_Source\PSoC4/ble_HAL_PVT.c **** 
  43:Generated_Source\PSoC4/ble_HAL_PVT.c **** 
  44:Generated_Source\PSoC4/ble_HAL_PVT.c **** /*******************************************************************************
  45:Generated_Source\PSoC4/ble_HAL_PVT.c **** * Function Name: CyBLE_Uart_Stop
  46:Generated_Source\PSoC4/ble_HAL_PVT.c **** ****************************************************************************//**
  47:Generated_Source\PSoC4/ble_HAL_PVT.c **** *
  48:Generated_Source\PSoC4/ble_HAL_PVT.c **** *  Disables the UART, clears all pending interrupts and disables the UART Tx
  49:Generated_Source\PSoC4/ble_HAL_PVT.c **** *  and RX interrupts. This will also empty out the FIFOs.
  50:Generated_Source\PSoC4/ble_HAL_PVT.c **** *
  51:Generated_Source\PSoC4/ble_HAL_PVT.c **** * \return
  52:Generated_Source\PSoC4/ble_HAL_PVT.c **** *  None
  53:Generated_Source\PSoC4/ble_HAL_PVT.c **** *
  54:Generated_Source\PSoC4/ble_HAL_PVT.c **** *******************************************************************************/
  55:Generated_Source\PSoC4/ble_HAL_PVT.c **** void CyBLE_Uart_Stop (void)
  56:Generated_Source\PSoC4/ble_HAL_PVT.c **** {
  57:Generated_Source\PSoC4/ble_HAL_PVT.c ****     #if (CYBLE_HCI_TYPE == CYBLE_HCI_OVER_UART)
  58:Generated_Source\PSoC4/ble_HAL_PVT.c ****         /* Stop interrupt and UART */
  59:Generated_Source\PSoC4/ble_HAL_PVT.c ****         ble_uart_isr_Stop();
  60:Generated_Source\PSoC4/ble_HAL_PVT.c **** 
  61:Generated_Source\PSoC4/ble_HAL_PVT.c ****         ble_HAL_Uart_Stop();
  62:Generated_Source\PSoC4/ble_HAL_PVT.c ****     #endif /* (CYBLE_HCI_TYPE == CYBLE_HCI_OVER_UART) */
  63:Generated_Source\PSoC4/ble_HAL_PVT.c **** }
  64:Generated_Source\PSoC4/ble_HAL_PVT.c **** 
  65:Generated_Source\PSoC4/ble_HAL_PVT.c **** 
  66:Generated_Source\PSoC4/ble_HAL_PVT.c **** /*******************************************************************************
  67:Generated_Source\PSoC4/ble_HAL_PVT.c **** * Function Name: CyBLE_Uart_Transmit
  68:Generated_Source\PSoC4/ble_HAL_PVT.c **** ****************************************************************************//**
  69:Generated_Source\PSoC4/ble_HAL_PVT.c **** *
  70:Generated_Source\PSoC4/ble_HAL_PVT.c **** *  Sends the data to Uart Tx FIFO. The API handles data length up to the 
  71:Generated_Source\PSoC4/ble_HAL_PVT.c **** *  supported Tx FIFO length of the uart hardware module.
  72:Generated_Source\PSoC4/ble_HAL_PVT.c **** *
  73:Generated_Source\PSoC4/ble_HAL_PVT.c **** *  \param data: Pointer to the data to send through the UART
  74:Generated_Source\PSoC4/ble_HAL_PVT.c **** *  \param length: the length of data to transmit in bytes
  75:Generated_Source\PSoC4/ble_HAL_PVT.c **** *
  76:Generated_Source\PSoC4/ble_HAL_PVT.c **** * \return
  77:Generated_Source\PSoC4/ble_HAL_PVT.c **** *  None
  78:Generated_Source\PSoC4/ble_HAL_PVT.c **** *
  79:Generated_Source\PSoC4/ble_HAL_PVT.c **** *******************************************************************************/
  80:Generated_Source\PSoC4/ble_HAL_PVT.c **** void CyBLE_Uart_Transmit (const uint8 *dataBuf, uint8 length)
  81:Generated_Source\PSoC4/ble_HAL_PVT.c **** {
  82:Generated_Source\PSoC4/ble_HAL_PVT.c ****     #if (CYBLE_HCI_TYPE == CYBLE_HCI_OVER_UART)
  83:Generated_Source\PSoC4/ble_HAL_PVT.c ****         ble_HAL_Uart_SpiUartPutArray(dataBuf, (uint32)length);
  84:Generated_Source\PSoC4/ble_HAL_PVT.c ****     #endif /* (CYBLE_HCI_TYPE == CYBLE_HCI_OVER_UART) */
  85:Generated_Source\PSoC4/ble_HAL_PVT.c **** }
  86:Generated_Source\PSoC4/ble_HAL_PVT.c **** 
  87:Generated_Source\PSoC4/ble_HAL_PVT.c **** /*******************************************************************************
ARM GAS  C:\Users\Petro\AppData\Local\Temp\cc0ZbO7Y.s 			page 3


  88:Generated_Source\PSoC4/ble_HAL_PVT.c **** * Function Name: CyBLE_Uart_Isr_Enable
  89:Generated_Source\PSoC4/ble_HAL_PVT.c **** ****************************************************************************//**
  90:Generated_Source\PSoC4/ble_HAL_PVT.c **** *
  91:Generated_Source\PSoC4/ble_HAL_PVT.c **** *   Enables the UART interrupt to the interrupt controller. 
  92:Generated_Source\PSoC4/ble_HAL_PVT.c **** *   Do not call this function unless CyBLE_Uart_Start() has been called or the
  93:Generated_Source\PSoC4/ble_HAL_PVT.c **** *   functionality of the SysInt_Init() function, which sets the vector and the
  94:Generated_Source\PSoC4/ble_HAL_PVT.c **** *   priority, has been called.
  95:Generated_Source\PSoC4/ble_HAL_PVT.c **** *
  96:Generated_Source\PSoC4/ble_HAL_PVT.c **** *******************************************************************************/
  97:Generated_Source\PSoC4/ble_HAL_PVT.c **** void CyBLE_Uart_Isr_Enable(void)
  98:Generated_Source\PSoC4/ble_HAL_PVT.c **** {
  99:Generated_Source\PSoC4/ble_HAL_PVT.c ****     #if (CYBLE_HCI_TYPE == CYBLE_HCI_OVER_UART)
 100:Generated_Source\PSoC4/ble_HAL_PVT.c ****         ble_uart_isr_Enable();
 101:Generated_Source\PSoC4/ble_HAL_PVT.c ****     #endif /* (CYBLE_HCI_TYPE == CYBLE_HCI_OVER_UART) */
 102:Generated_Source\PSoC4/ble_HAL_PVT.c **** }
 103:Generated_Source\PSoC4/ble_HAL_PVT.c **** 
 104:Generated_Source\PSoC4/ble_HAL_PVT.c **** 
 105:Generated_Source\PSoC4/ble_HAL_PVT.c **** /*******************************************************************************
 106:Generated_Source\PSoC4/ble_HAL_PVT.c **** * Function Name: CyBLE_Uart_Isr_Disable
 107:Generated_Source\PSoC4/ble_HAL_PVT.c **** ****************************************************************************//**
 108:Generated_Source\PSoC4/ble_HAL_PVT.c **** *
 109:Generated_Source\PSoC4/ble_HAL_PVT.c **** *   Disables the UART Interrupt in the interrupt controller.
 110:Generated_Source\PSoC4/ble_HAL_PVT.c **** *
 111:Generated_Source\PSoC4/ble_HAL_PVT.c **** *******************************************************************************/
 112:Generated_Source\PSoC4/ble_HAL_PVT.c **** void CyBLE_Uart_Isr_Disable(void)
 113:Generated_Source\PSoC4/ble_HAL_PVT.c **** {
 114:Generated_Source\PSoC4/ble_HAL_PVT.c ****     #if (CYBLE_HCI_TYPE == CYBLE_HCI_OVER_UART)
 115:Generated_Source\PSoC4/ble_HAL_PVT.c ****         ble_uart_isr_Disable();
 116:Generated_Source\PSoC4/ble_HAL_PVT.c ****     #endif /* (CYBLE_HCI_TYPE == CYBLE_HCI_OVER_UART) */
 117:Generated_Source\PSoC4/ble_HAL_PVT.c **** }
 118:Generated_Source\PSoC4/ble_HAL_PVT.c **** 
 119:Generated_Source\PSoC4/ble_HAL_PVT.c **** #endif /* (CYBLE_MODE == CYBLE_HCI) */
 120:Generated_Source\PSoC4/ble_HAL_PVT.c **** 
 121:Generated_Source\PSoC4/ble_HAL_PVT.c **** 
 122:Generated_Source\PSoC4/ble_HAL_PVT.c **** /*******************************************************************************
 123:Generated_Source\PSoC4/ble_HAL_PVT.c **** * Function Name: CyBLE_Nvram_Write
 124:Generated_Source\PSoC4/ble_HAL_PVT.c **** ****************************************************************************//**
 125:Generated_Source\PSoC4/ble_HAL_PVT.c **** *
 126:Generated_Source\PSoC4/ble_HAL_PVT.c **** *  This API writes the data to the NVRAM store. It will check the appropriate
 127:Generated_Source\PSoC4/ble_HAL_PVT.c **** *  alignment of a start address and also perform an address range check based
 128:Generated_Source\PSoC4/ble_HAL_PVT.c **** *  on the length before performing the write operation.
 129:Generated_Source\PSoC4/ble_HAL_PVT.c **** *  This function performs memory compare and writes only row where there are new
 130:Generated_Source\PSoC4/ble_HAL_PVT.c **** *  data to write.
 131:Generated_Source\PSoC4/ble_HAL_PVT.c **** *
 132:Generated_Source\PSoC4/ble_HAL_PVT.c **** *  \param buffer:   Pointer to the buffer containing the data to be stored.
 133:Generated_Source\PSoC4/ble_HAL_PVT.c **** *  \param varFlash: Pointer to the array or variable in the flash.
 134:Generated_Source\PSoC4/ble_HAL_PVT.c **** *  \param length:    The length of the data in bytes.
 135:Generated_Source\PSoC4/ble_HAL_PVT.c **** *
 136:Generated_Source\PSoC4/ble_HAL_PVT.c **** * \return
 137:Generated_Source\PSoC4/ble_HAL_PVT.c **** *  CYRET_SUCCESS    a successful write
 138:Generated_Source\PSoC4/ble_HAL_PVT.c **** *  CYRET_BAD_PARAM  A request to write outside the flash boundary.
 139:Generated_Source\PSoC4/ble_HAL_PVT.c **** *  CYRET_UNKNOWN    Other errors in writing the flash
 140:Generated_Source\PSoC4/ble_HAL_PVT.c **** *
 141:Generated_Source\PSoC4/ble_HAL_PVT.c **** * \sideeffect
 142:Generated_Source\PSoC4/ble_HAL_PVT.c **** *  For BLE devices with 128K of Flash memory this API will automatically 
 143:Generated_Source\PSoC4/ble_HAL_PVT.c **** *  modify the clock settings for the device.
 144:Generated_Source\PSoC4/ble_HAL_PVT.c **** *  Writing to flash requires changes to be done to the IMO (set to 48 MHz)
ARM GAS  C:\Users\Petro\AppData\Local\Temp\cc0ZbO7Y.s 			page 4


 145:Generated_Source\PSoC4/ble_HAL_PVT.c **** *  and HFCLK (source set to IMO) settings. The configuration is restored before
 146:Generated_Source\PSoC4/ble_HAL_PVT.c **** *  returning. This will impact the operation of most of the hardware in the
 147:Generated_Source\PSoC4/ble_HAL_PVT.c **** *  device.
 148:Generated_Source\PSoC4/ble_HAL_PVT.c **** *
 149:Generated_Source\PSoC4/ble_HAL_PVT.c **** *******************************************************************************/
 150:Generated_Source\PSoC4/ble_HAL_PVT.c **** cystatus CyBLE_Nvram_Write (const uint8 buffer[], const uint8 varFlash[], uint16 length)
 151:Generated_Source\PSoC4/ble_HAL_PVT.c **** {
  28              		.loc 1 151 0
  29              		.cfi_startproc
  30              		@ args = 0, pretend = 0, frame = 144
  31              		@ frame_needed = 0, uses_anonymous_args = 0
  32              	.LVL0:
  33 0000 F0B5     		push	{r4, r5, r6, r7, lr}
  34              		.cfi_def_cfa_offset 20
  35              		.cfi_offset 4, -20
  36              		.cfi_offset 5, -16
  37              		.cfi_offset 6, -12
  38              		.cfi_offset 7, -8
  39              		.cfi_offset 14, -4
 152:Generated_Source\PSoC4/ble_HAL_PVT.c ****     uint8 writeBuffer[CY_FLASH_SIZEOF_ROW];
 153:Generated_Source\PSoC4/ble_HAL_PVT.c ****     uint32 rowId;
 154:Generated_Source\PSoC4/ble_HAL_PVT.c ****     uint32 dstIndex;
 155:Generated_Source\PSoC4/ble_HAL_PVT.c ****     uint32 srcIndex = 0u;
 156:Generated_Source\PSoC4/ble_HAL_PVT.c ****     cystatus rc = CYRET_SUCCESS;
 157:Generated_Source\PSoC4/ble_HAL_PVT.c ****     uint32 eeOffset;
 158:Generated_Source\PSoC4/ble_HAL_PVT.c ****     uint32 byteOffset;
 159:Generated_Source\PSoC4/ble_HAL_PVT.c ****     uint32 rowsNotEqual;
 160:Generated_Source\PSoC4/ble_HAL_PVT.c **** 
 161:Generated_Source\PSoC4/ble_HAL_PVT.c ****     eeOffset = (uint32)varFlash;
 162:Generated_Source\PSoC4/ble_HAL_PVT.c **** 
 163:Generated_Source\PSoC4/ble_HAL_PVT.c ****     /* Make sure, that varFlash[] points to Flash */
 164:Generated_Source\PSoC4/ble_HAL_PVT.c ****     if ((eeOffset + length) < CYBLE_HAL_FLASH_END_ADDR)
  40              		.loc 1 164 0
  41 0002 1F4B     		ldr	r3, .L19
 151:Generated_Source\PSoC4/ble_HAL_PVT.c ****     uint8 writeBuffer[CY_FLASH_SIZEOF_ROW];
  42              		.loc 1 151 0
  43 0004 A5B0     		sub	sp, sp, #148
  44              		.cfi_def_cfa_offset 168
 151:Generated_Source\PSoC4/ble_HAL_PVT.c ****     uint8 writeBuffer[CY_FLASH_SIZEOF_ROW];
  45              		.loc 1 151 0
  46 0006 0092     		str	r2, [sp]
  47              		.loc 1 164 0
  48 0008 8A18     		adds	r2, r1, r2
  49              	.LVL1:
 151:Generated_Source\PSoC4/ble_HAL_PVT.c ****     uint8 writeBuffer[CY_FLASH_SIZEOF_ROW];
  50              		.loc 1 151 0
  51 000a 0390     		str	r0, [sp, #12]
  52 000c 0F00     		movs	r7, r1
 165:Generated_Source\PSoC4/ble_HAL_PVT.c ****     {
 166:Generated_Source\PSoC4/ble_HAL_PVT.c ****         rowId = eeOffset / CY_FLASH_SIZEOF_ROW;
 167:Generated_Source\PSoC4/ble_HAL_PVT.c ****         byteOffset = CY_FLASH_SIZEOF_ROW * rowId;
 168:Generated_Source\PSoC4/ble_HAL_PVT.c **** 
 169:Generated_Source\PSoC4/ble_HAL_PVT.c ****         while ((srcIndex < length) && (rc == CYRET_SUCCESS))
 170:Generated_Source\PSoC4/ble_HAL_PVT.c ****         {
 171:Generated_Source\PSoC4/ble_HAL_PVT.c ****             rowsNotEqual = 0u;
 172:Generated_Source\PSoC4/ble_HAL_PVT.c ****             /* Copy data to the write buffer either from the source buffer or from the flash */
 173:Generated_Source\PSoC4/ble_HAL_PVT.c ****             for (dstIndex = 0u; dstIndex < CY_FLASH_SIZEOF_ROW; dstIndex++)
ARM GAS  C:\Users\Petro\AppData\Local\Temp\cc0ZbO7Y.s 			page 5


 174:Generated_Source\PSoC4/ble_HAL_PVT.c ****             {
 175:Generated_Source\PSoC4/ble_HAL_PVT.c ****                 if ((byteOffset >= eeOffset) && (srcIndex < length))
 176:Generated_Source\PSoC4/ble_HAL_PVT.c ****                 {
 177:Generated_Source\PSoC4/ble_HAL_PVT.c ****                     writeBuffer[dstIndex] = buffer[srcIndex];
 178:Generated_Source\PSoC4/ble_HAL_PVT.c ****                     /* Detect that row programming is required */
 179:Generated_Source\PSoC4/ble_HAL_PVT.c ****                     if(CY_GET_XTND_REG8(CYDEV_FLASH_BASE + byteOffset) != buffer[srcIndex])
 180:Generated_Source\PSoC4/ble_HAL_PVT.c ****                     {
 181:Generated_Source\PSoC4/ble_HAL_PVT.c ****                         rowsNotEqual = 1u;  
 182:Generated_Source\PSoC4/ble_HAL_PVT.c ****                     }
 183:Generated_Source\PSoC4/ble_HAL_PVT.c ****                     srcIndex++;
 184:Generated_Source\PSoC4/ble_HAL_PVT.c ****                 }
 185:Generated_Source\PSoC4/ble_HAL_PVT.c ****                 else
 186:Generated_Source\PSoC4/ble_HAL_PVT.c ****                 {
 187:Generated_Source\PSoC4/ble_HAL_PVT.c ****                     writeBuffer[dstIndex] = CY_GET_XTND_REG8(CYDEV_FLASH_BASE + byteOffset);
 188:Generated_Source\PSoC4/ble_HAL_PVT.c ****                 }
 189:Generated_Source\PSoC4/ble_HAL_PVT.c ****                 byteOffset++;
 190:Generated_Source\PSoC4/ble_HAL_PVT.c ****             }
 191:Generated_Source\PSoC4/ble_HAL_PVT.c **** 
 192:Generated_Source\PSoC4/ble_HAL_PVT.c ****             if(rowsNotEqual != 0u)
 193:Generated_Source\PSoC4/ble_HAL_PVT.c ****             {
 194:Generated_Source\PSoC4/ble_HAL_PVT.c ****                 /* Write flash row */
 195:Generated_Source\PSoC4/ble_HAL_PVT.c ****                 rc = CySysFlashWriteRow(rowId, writeBuffer);
 196:Generated_Source\PSoC4/ble_HAL_PVT.c ****             }
 197:Generated_Source\PSoC4/ble_HAL_PVT.c **** 
 198:Generated_Source\PSoC4/ble_HAL_PVT.c ****             /* Go to the next row */
 199:Generated_Source\PSoC4/ble_HAL_PVT.c ****             rowId++;
 200:Generated_Source\PSoC4/ble_HAL_PVT.c ****         }
 201:Generated_Source\PSoC4/ble_HAL_PVT.c ****     }
 202:Generated_Source\PSoC4/ble_HAL_PVT.c ****     else
 203:Generated_Source\PSoC4/ble_HAL_PVT.c ****     {
 204:Generated_Source\PSoC4/ble_HAL_PVT.c ****         rc = CYRET_BAD_PARAM;
  53              		.loc 1 204 0
  54 000e 0120     		movs	r0, #1
  55              	.LVL2:
 164:Generated_Source\PSoC4/ble_HAL_PVT.c ****     {
  56              		.loc 1 164 0
  57 0010 9A42     		cmp	r2, r3
  58 0012 33D8     		bhi	.L10
 156:Generated_Source\PSoC4/ble_HAL_PVT.c ****     uint32 eeOffset;
  59              		.loc 1 156 0
  60 0014 0020     		movs	r0, #0
 155:Generated_Source\PSoC4/ble_HAL_PVT.c ****     cystatus rc = CYRET_SUCCESS;
  61              		.loc 1 155 0
  62 0016 0500     		movs	r5, r0
 166:Generated_Source\PSoC4/ble_HAL_PVT.c ****         byteOffset = CY_FLASH_SIZEOF_ROW * rowId;
  63              		.loc 1 166 0
  64 0018 CE09     		lsrs	r6, r1, #7
  65              	.LVL3:
 167:Generated_Source\PSoC4/ble_HAL_PVT.c **** 
  66              		.loc 1 167 0
  67 001a F301     		lsls	r3, r6, #7
  68              	.LVL4:
  69 001c 04AC     		add	r4, sp, #16
  70 001e E41A     		subs	r4, r4, r3
  71              	.LVL5:
  72              	.L3:
 169:Generated_Source\PSoC4/ble_HAL_PVT.c ****         {
ARM GAS  C:\Users\Petro\AppData\Local\Temp\cc0ZbO7Y.s 			page 6


  73              		.loc 1 169 0
  74 0020 009A     		ldr	r2, [sp]
  75 0022 9542     		cmp	r5, r2
  76 0024 04D3     		bcc	.L9
  77              	.L11:
 205:Generated_Source\PSoC4/ble_HAL_PVT.c ****     }
 206:Generated_Source\PSoC4/ble_HAL_PVT.c **** 
 207:Generated_Source\PSoC4/ble_HAL_PVT.c ****     /* Mask return codes from flash, if they are not supported */
 208:Generated_Source\PSoC4/ble_HAL_PVT.c ****     if ((CYRET_SUCCESS != rc) && (CYRET_BAD_PARAM != rc))
  78              		.loc 1 208 0
  79 0026 0128     		cmp	r0, #1
  80 0028 28D9     		bls	.L10
 209:Generated_Source\PSoC4/ble_HAL_PVT.c ****     {
 210:Generated_Source\PSoC4/ble_HAL_PVT.c ****         rc = CYRET_UNKNOWN;
  81              		.loc 1 210 0
  82 002a 0120     		movs	r0, #1
  83              	.LVL6:
  84 002c 4042     		rsbs	r0, r0, #0
  85 002e 25E0     		b	.L10
  86              	.LVL7:
  87              	.L9:
 169:Generated_Source\PSoC4/ble_HAL_PVT.c ****         {
  88              		.loc 1 169 0 discriminator 1
  89 0030 0028     		cmp	r0, #0
  90 0032 F8D1     		bne	.L11
  91 0034 1A00     		movs	r2, r3
  92 0036 8032     		adds	r2, r2, #128
  93 0038 0192     		str	r2, [sp, #4]
 169:Generated_Source\PSoC4/ble_HAL_PVT.c ****         {
  94              		.loc 1 169 0 is_stmt 0
  95 003a 0290     		str	r0, [sp, #8]
  96              	.L7:
  97              	.LVL8:
 175:Generated_Source\PSoC4/ble_HAL_PVT.c ****                 {
  98              		.loc 1 175 0 is_stmt 1
  99 003c 9F42     		cmp	r7, r3
 100 003e 0CD8     		bhi	.L4
 175:Generated_Source\PSoC4/ble_HAL_PVT.c ****                 {
 101              		.loc 1 175 0 is_stmt 0 discriminator 1
 102 0040 0099     		ldr	r1, [sp]
 103 0042 A942     		cmp	r1, r5
 104 0044 09D9     		bls	.L4
 177:Generated_Source\PSoC4/ble_HAL_PVT.c ****                     /* Detect that row programming is required */
 105              		.loc 1 177 0 is_stmt 1
 106 0046 0399     		ldr	r1, [sp, #12]
 179:Generated_Source\PSoC4/ble_HAL_PVT.c ****                     {
 107              		.loc 1 179 0
 108 0048 1A78     		ldrb	r2, [r3]
 177:Generated_Source\PSoC4/ble_HAL_PVT.c ****                     /* Detect that row programming is required */
 109              		.loc 1 177 0
 110 004a 495D     		ldrb	r1, [r1, r5]
 111 004c E154     		strb	r1, [r4, r3]
 179:Generated_Source\PSoC4/ble_HAL_PVT.c ****                     {
 112              		.loc 1 179 0
 113 004e 9142     		cmp	r1, r2
 114 0050 01D0     		beq	.L5
 181:Generated_Source\PSoC4/ble_HAL_PVT.c ****                     }
ARM GAS  C:\Users\Petro\AppData\Local\Temp\cc0ZbO7Y.s 			page 7


 115              		.loc 1 181 0
 116 0052 0122     		movs	r2, #1
 117 0054 0292     		str	r2, [sp, #8]
 118              	.LVL9:
 119              	.L5:
 183:Generated_Source\PSoC4/ble_HAL_PVT.c ****                 }
 120              		.loc 1 183 0
 121 0056 0135     		adds	r5, r5, #1
 122              	.LVL10:
 123 0058 01E0     		b	.L6
 124              	.L4:
 187:Generated_Source\PSoC4/ble_HAL_PVT.c ****                 }
 125              		.loc 1 187 0
 126 005a 1978     		ldrb	r1, [r3]
 127 005c E154     		strb	r1, [r4, r3]
 128              	.L6:
 173:Generated_Source\PSoC4/ble_HAL_PVT.c ****             {
 129              		.loc 1 173 0 discriminator 2
 130 005e 019A     		ldr	r2, [sp, #4]
 189:Generated_Source\PSoC4/ble_HAL_PVT.c ****             }
 131              		.loc 1 189 0 discriminator 2
 132 0060 0133     		adds	r3, r3, #1
 133              	.LVL11:
 173:Generated_Source\PSoC4/ble_HAL_PVT.c ****             {
 134              		.loc 1 173 0 discriminator 2
 135 0062 9A42     		cmp	r2, r3
 136 0064 EAD1     		bne	.L7
 192:Generated_Source\PSoC4/ble_HAL_PVT.c ****             {
 137              		.loc 1 192 0
 138 0066 029B     		ldr	r3, [sp, #8]
 139              	.LVL12:
 140 0068 002B     		cmp	r3, #0
 141 006a 03D0     		beq	.L8
 195:Generated_Source\PSoC4/ble_HAL_PVT.c ****             }
 142              		.loc 1 195 0
 143 006c 04A9     		add	r1, sp, #16
 144 006e 3000     		movs	r0, r6
 145              	.LVL13:
 146 0070 FFF7FEFF 		bl	CySysFlashWriteRow
 147              	.LVL14:
 148              	.L8:
 199:Generated_Source\PSoC4/ble_HAL_PVT.c ****         }
 149              		.loc 1 199 0
 150 0074 0136     		adds	r6, r6, #1
 151              	.LVL15:
 152 0076 803C     		subs	r4, r4, #128
 153 0078 019B     		ldr	r3, [sp, #4]
 154 007a D1E7     		b	.L3
 155              	.LVL16:
 156              	.L10:
 211:Generated_Source\PSoC4/ble_HAL_PVT.c ****     }
 212:Generated_Source\PSoC4/ble_HAL_PVT.c ****     
 213:Generated_Source\PSoC4/ble_HAL_PVT.c ****     return (rc);
 214:Generated_Source\PSoC4/ble_HAL_PVT.c **** }
 157              		.loc 1 214 0
 158 007c 25B0     		add	sp, sp, #148
 159              		@ sp needed
ARM GAS  C:\Users\Petro\AppData\Local\Temp\cc0ZbO7Y.s 			page 8


 160              	.LVL17:
 161 007e F0BD     		pop	{r4, r5, r6, r7, pc}
 162              	.L20:
 163              		.align	2
 164              	.L19:
 165 0080 FFFF0100 		.word	131071
 166              		.cfi_endproc
 167              	.LFE2:
 168              		.size	CyBLE_Nvram_Write, .-CyBLE_Nvram_Write
 169              		.section	.text.CyBLE_Nvram_Erase,"ax",%progbits
 170              		.align	1
 171              		.global	CyBLE_Nvram_Erase
 172              		.code	16
 173              		.thumb_func
 174              		.type	CyBLE_Nvram_Erase, %function
 175              	CyBLE_Nvram_Erase:
 176              	.LFB3:
 215:Generated_Source\PSoC4/ble_HAL_PVT.c **** 
 216:Generated_Source\PSoC4/ble_HAL_PVT.c **** /*******************************************************************************
 217:Generated_Source\PSoC4/ble_HAL_PVT.c **** * Function Name: CyBLE_Nvram_Erase
 218:Generated_Source\PSoC4/ble_HAL_PVT.c **** ****************************************************************************//**
 219:Generated_Source\PSoC4/ble_HAL_PVT.c **** *
 220:Generated_Source\PSoC4/ble_HAL_PVT.c **** *  This API erases the data from the NVRAM store. This API will perform an 
 221:Generated_Source\PSoC4/ble_HAL_PVT.c **** *  address range check based on the length before performing erase operation.
 222:Generated_Source\PSoC4/ble_HAL_PVT.c **** *
 223:Generated_Source\PSoC4/ble_HAL_PVT.c **** *  \param varFlash: the pointer to the array or variable in the flash.
 224:Generated_Source\PSoC4/ble_HAL_PVT.c **** *  \param length:    the length of the data in bytes.
 225:Generated_Source\PSoC4/ble_HAL_PVT.c **** *
 226:Generated_Source\PSoC4/ble_HAL_PVT.c **** * \return
 227:Generated_Source\PSoC4/ble_HAL_PVT.c **** *  CYRET_SUCCESS    a successful write
 228:Generated_Source\PSoC4/ble_HAL_PVT.c **** *  CYRET_BAD_PARAM  A request to write outside the flash boundary.
 229:Generated_Source\PSoC4/ble_HAL_PVT.c **** *  CYRET_UNKNOWN    Other errors in writing the flash
 230:Generated_Source\PSoC4/ble_HAL_PVT.c **** *
 231:Generated_Source\PSoC4/ble_HAL_PVT.c **** *******************************************************************************/
 232:Generated_Source\PSoC4/ble_HAL_PVT.c **** cystatus CyBLE_Nvram_Erase (const uint8 *varFlash, uint16 length)
 233:Generated_Source\PSoC4/ble_HAL_PVT.c **** {
 177              		.loc 1 233 0
 178              		.cfi_startproc
 179              		@ args = 0, pretend = 0, frame = 128
 180              		@ frame_needed = 0, uses_anonymous_args = 0
 181              	.LVL18:
 182 0000 70B5     		push	{r4, r5, r6, lr}
 183              		.cfi_def_cfa_offset 16
 184              		.cfi_offset 4, -16
 185              		.cfi_offset 5, -12
 186              		.cfi_offset 6, -8
 187              		.cfi_offset 14, -4
 188 0002 A0B0     		sub	sp, sp, #128
 189              		.cfi_def_cfa_offset 144
 190              		.loc 1 233 0
 191 0004 0500     		movs	r5, r0
 192 0006 0C00     		movs	r4, r1
 234:Generated_Source\PSoC4/ble_HAL_PVT.c ****     const uint8 *tempFlash;
 235:Generated_Source\PSoC4/ble_HAL_PVT.c ****     uint8 flashBuffer[CY_FLASH_SIZEOF_ROW] = {0u};
 193              		.loc 1 235 0
 194 0008 8022     		movs	r2, #128
 195 000a 0021     		movs	r1, #0
ARM GAS  C:\Users\Petro\AppData\Local\Temp\cc0ZbO7Y.s 			page 9


 196              	.LVL19:
 197 000c 6846     		mov	r0, sp
 198              	.LVL20:
 199 000e FFF7FEFF 		bl	memset
 200              	.LVL21:
 236:Generated_Source\PSoC4/ble_HAL_PVT.c ****     uint16 lengthFlash;
 237:Generated_Source\PSoC4/ble_HAL_PVT.c ****     uint16 lengthRemaining;
 238:Generated_Source\PSoC4/ble_HAL_PVT.c ****     cystatus rc = CYRET_UNKNOWN;
 201              		.loc 1 238 0
 202 0012 0120     		movs	r0, #1
 203 0014 4042     		rsbs	r0, r0, #0
 204              	.LVL22:
 205              	.L22:
 239:Generated_Source\PSoC4/ble_HAL_PVT.c **** 
 240:Generated_Source\PSoC4/ble_HAL_PVT.c ****     tempFlash = varFlash;
 241:Generated_Source\PSoC4/ble_HAL_PVT.c ****     lengthRemaining = length;
 242:Generated_Source\PSoC4/ble_HAL_PVT.c **** 
 243:Generated_Source\PSoC4/ble_HAL_PVT.c ****     while(lengthRemaining > 0u)
 206              		.loc 1 243 0
 207 0016 002C     		cmp	r4, #0
 208 0018 0ED0     		beq	.L24
 244:Generated_Source\PSoC4/ble_HAL_PVT.c ****     {
 245:Generated_Source\PSoC4/ble_HAL_PVT.c ****         if(lengthRemaining < CY_FLASH_SIZEOF_ROW)
 246:Generated_Source\PSoC4/ble_HAL_PVT.c ****         {
 247:Generated_Source\PSoC4/ble_HAL_PVT.c ****             lengthFlash = lengthRemaining;
 248:Generated_Source\PSoC4/ble_HAL_PVT.c ****         }
 249:Generated_Source\PSoC4/ble_HAL_PVT.c ****         else
 250:Generated_Source\PSoC4/ble_HAL_PVT.c ****         {
 251:Generated_Source\PSoC4/ble_HAL_PVT.c ****             lengthFlash = CY_FLASH_SIZEOF_ROW;
 209              		.loc 1 251 0
 210 001a 8026     		movs	r6, #128
 245:Generated_Source\PSoC4/ble_HAL_PVT.c ****         {
 211              		.loc 1 245 0
 212 001c 7F2C     		cmp	r4, #127
 213 001e 00D8     		bhi	.L23
 214 0020 2600     		movs	r6, r4
 215              	.L23:
 216              	.LVL23:
 252:Generated_Source\PSoC4/ble_HAL_PVT.c ****         }
 253:Generated_Source\PSoC4/ble_HAL_PVT.c ****         rc = CyBLE_Nvram_Write(flashBuffer, tempFlash, lengthFlash);
 217              		.loc 1 253 0
 218 0022 3200     		movs	r2, r6
 219 0024 2900     		movs	r1, r5
 220 0026 6846     		mov	r0, sp
 221              	.LVL24:
 222 0028 FFF7FEFF 		bl	CyBLE_Nvram_Write
 223              	.LVL25:
 254:Generated_Source\PSoC4/ble_HAL_PVT.c ****         if(rc != CYRET_SUCCESS)
 224              		.loc 1 254 0
 225 002c 0028     		cmp	r0, #0
 226 002e 03D1     		bne	.L24
 255:Generated_Source\PSoC4/ble_HAL_PVT.c ****         {
 256:Generated_Source\PSoC4/ble_HAL_PVT.c ****             break;
 257:Generated_Source\PSoC4/ble_HAL_PVT.c ****         }
 258:Generated_Source\PSoC4/ble_HAL_PVT.c ****         tempFlash += CY_FLASH_SIZEOF_ROW;
 259:Generated_Source\PSoC4/ble_HAL_PVT.c ****         lengthRemaining -= lengthFlash;
 227              		.loc 1 259 0
ARM GAS  C:\Users\Petro\AppData\Local\Temp\cc0ZbO7Y.s 			page 10


 228 0030 A41B     		subs	r4, r4, r6
 229              	.LVL26:
 258:Generated_Source\PSoC4/ble_HAL_PVT.c ****         lengthRemaining -= lengthFlash;
 230              		.loc 1 258 0
 231 0032 8035     		adds	r5, r5, #128
 232              	.LVL27:
 233              		.loc 1 259 0
 234 0034 A4B2     		uxth	r4, r4
 235              	.LVL28:
 236 0036 EEE7     		b	.L22
 237              	.LVL29:
 238              	.L24:
 260:Generated_Source\PSoC4/ble_HAL_PVT.c ****     }
 261:Generated_Source\PSoC4/ble_HAL_PVT.c **** 
 262:Generated_Source\PSoC4/ble_HAL_PVT.c ****     return rc;
 263:Generated_Source\PSoC4/ble_HAL_PVT.c **** }
 239              		.loc 1 263 0
 240 0038 20B0     		add	sp, sp, #128
 241              		@ sp needed
 242              	.LVL30:
 243              	.LVL31:
 244 003a 70BD     		pop	{r4, r5, r6, pc}
 245              		.cfi_endproc
 246              	.LFE3:
 247              		.size	CyBLE_Nvram_Erase, .-CyBLE_Nvram_Erase
 248              		.section	.text.CyBLE_Bless_LlRegRead,"ax",%progbits
 249              		.align	1
 250              		.global	CyBLE_Bless_LlRegRead
 251              		.code	16
 252              		.thumb_func
 253              		.type	CyBLE_Bless_LlRegRead, %function
 254              	CyBLE_Bless_LlRegRead:
 255              	.LFB58:
 256              		.cfi_startproc
 257              		@ args = 0, pretend = 0, frame = 0
 258              		@ frame_needed = 0, uses_anonymous_args = 0
 259              		@ link register save eliminated.
 260 0000 0368     		ldr	r3, [r0]
 261              		@ sp needed
 262 0002 0B80     		strh	r3, [r1]
 263 0004 7047     		bx	lr
 264              		.cfi_endproc
 265              	.LFE58:
 266              		.size	CyBLE_Bless_LlRegRead, .-CyBLE_Bless_LlRegRead
 267              		.section	.text.CyBLE_Bless_LlRegWrite,"ax",%progbits
 268              		.align	1
 269              		.global	CyBLE_Bless_LlRegWrite
 270              		.code	16
 271              		.thumb_func
 272              		.type	CyBLE_Bless_LlRegWrite, %function
 273              	CyBLE_Bless_LlRegWrite:
 274              	.LFB56:
 275              		.cfi_startproc
 276              		@ args = 0, pretend = 0, frame = 0
 277              		@ frame_needed = 0, uses_anonymous_args = 0
 278              		@ link register save eliminated.
 279 0000 0160     		str	r1, [r0]
ARM GAS  C:\Users\Petro\AppData\Local\Temp\cc0ZbO7Y.s 			page 11


 280              		@ sp needed
 281 0002 7047     		bx	lr
 282              		.cfi_endproc
 283              	.LFE56:
 284              		.size	CyBLE_Bless_LlRegWrite, .-CyBLE_Bless_LlRegWrite
 285              		.section	.text.CyBLE_Bless_RfRegRead,"ax",%progbits
 286              		.align	1
 287              		.global	CyBLE_Bless_RfRegRead
 288              		.code	16
 289              		.thumb_func
 290              		.type	CyBLE_Bless_RfRegRead, %function
 291              	CyBLE_Bless_RfRegRead:
 292              	.LFB6:
 264:Generated_Source\PSoC4/ble_HAL_PVT.c **** 
 265:Generated_Source\PSoC4/ble_HAL_PVT.c **** 
 266:Generated_Source\PSoC4/ble_HAL_PVT.c **** /*******************************************************************************
 267:Generated_Source\PSoC4/ble_HAL_PVT.c **** * Function Name: CyBLE_Bless_LlRegRead
 268:Generated_Source\PSoC4/ble_HAL_PVT.c **** ****************************************************************************//**
 269:Generated_Source\PSoC4/ble_HAL_PVT.c **** *
 270:Generated_Source\PSoC4/ble_HAL_PVT.c **** *  This API reads the content of the BLESS Link Layer register from the stack.
 271:Generated_Source\PSoC4/ble_HAL_PVT.c **** *
 272:Generated_Source\PSoC4/ble_HAL_PVT.c **** *  \param blessAddr: the pointer to the BLESS link layer address.
 273:Generated_Source\PSoC4/ble_HAL_PVT.c **** *  \param regValue: the pointer to the buffer space to copy the read value.
 274:Generated_Source\PSoC4/ble_HAL_PVT.c **** *
 275:Generated_Source\PSoC4/ble_HAL_PVT.c **** * \return
 276:Generated_Source\PSoC4/ble_HAL_PVT.c **** *  None
 277:Generated_Source\PSoC4/ble_HAL_PVT.c **** *
 278:Generated_Source\PSoC4/ble_HAL_PVT.c **** *******************************************************************************/
 279:Generated_Source\PSoC4/ble_HAL_PVT.c **** void CyBLE_Bless_LlRegRead (const reg32 *blessAddr, uint16 *regValue)
 280:Generated_Source\PSoC4/ble_HAL_PVT.c **** {
 281:Generated_Source\PSoC4/ble_HAL_PVT.c ****     *regValue = (uint16)CY_GET_REG32(blessAddr);
 282:Generated_Source\PSoC4/ble_HAL_PVT.c **** }
 283:Generated_Source\PSoC4/ble_HAL_PVT.c **** 
 284:Generated_Source\PSoC4/ble_HAL_PVT.c **** 
 285:Generated_Source\PSoC4/ble_HAL_PVT.c **** /*******************************************************************************
 286:Generated_Source\PSoC4/ble_HAL_PVT.c **** * Function Name: CyBLE_Bless_LlRegWrite
 287:Generated_Source\PSoC4/ble_HAL_PVT.c **** ****************************************************************************//**
 288:Generated_Source\PSoC4/ble_HAL_PVT.c **** *
 289:Generated_Source\PSoC4/ble_HAL_PVT.c **** *  This API writes to the BLESS Link Layer register from the stack.
 290:Generated_Source\PSoC4/ble_HAL_PVT.c **** *
 291:Generated_Source\PSoC4/ble_HAL_PVT.c **** *  \param blessAddr: the pointer to the BLESS link layer address.
 292:Generated_Source\PSoC4/ble_HAL_PVT.c **** *  \param regValue: the pointer to the value to be written to the BLESS LL reg.
 293:Generated_Source\PSoC4/ble_HAL_PVT.c **** *
 294:Generated_Source\PSoC4/ble_HAL_PVT.c **** * \return
 295:Generated_Source\PSoC4/ble_HAL_PVT.c **** *  None
 296:Generated_Source\PSoC4/ble_HAL_PVT.c **** *
 297:Generated_Source\PSoC4/ble_HAL_PVT.c **** *******************************************************************************/
 298:Generated_Source\PSoC4/ble_HAL_PVT.c **** void CyBLE_Bless_LlRegWrite (reg32 *blessAddr, const uint16 regValue)
 299:Generated_Source\PSoC4/ble_HAL_PVT.c **** {
 300:Generated_Source\PSoC4/ble_HAL_PVT.c ****     CY_SET_REG32(blessAddr, regValue);
 301:Generated_Source\PSoC4/ble_HAL_PVT.c **** }
 302:Generated_Source\PSoC4/ble_HAL_PVT.c **** 
 303:Generated_Source\PSoC4/ble_HAL_PVT.c **** 
 304:Generated_Source\PSoC4/ble_HAL_PVT.c **** /*******************************************************************************
 305:Generated_Source\PSoC4/ble_HAL_PVT.c **** * Function Name: CyBLE_Bless_RfRegRead
 306:Generated_Source\PSoC4/ble_HAL_PVT.c **** ****************************************************************************//**
 307:Generated_Source\PSoC4/ble_HAL_PVT.c **** *
ARM GAS  C:\Users\Petro\AppData\Local\Temp\cc0ZbO7Y.s 			page 12


 308:Generated_Source\PSoC4/ble_HAL_PVT.c **** *  This API reads the content of the BLESS RF register from the stack.
 309:Generated_Source\PSoC4/ble_HAL_PVT.c **** *
 310:Generated_Source\PSoC4/ble_HAL_PVT.c **** *  \param blessAddr: the pointer to BLESS RF register address.
 311:Generated_Source\PSoC4/ble_HAL_PVT.c **** *  \param regValue: the pointer to the buffer space to copy the read value.
 312:Generated_Source\PSoC4/ble_HAL_PVT.c **** *
 313:Generated_Source\PSoC4/ble_HAL_PVT.c **** * \return
 314:Generated_Source\PSoC4/ble_HAL_PVT.c **** *  None
 315:Generated_Source\PSoC4/ble_HAL_PVT.c **** *
 316:Generated_Source\PSoC4/ble_HAL_PVT.c **** *******************************************************************************/
 317:Generated_Source\PSoC4/ble_HAL_PVT.c **** void CyBLE_Bless_RfRegRead (const reg32 *blessAddr, uint16 *regValue)
 318:Generated_Source\PSoC4/ble_HAL_PVT.c **** {
 293              		.loc 1 318 0
 294              		.cfi_startproc
 295              		@ args = 0, pretend = 0, frame = 0
 296              		@ frame_needed = 0, uses_anonymous_args = 0
 297              		@ link register save eliminated.
 298              	.LVL32:
 319:Generated_Source\PSoC4/ble_HAL_PVT.c ****     *regValue = (uint16)CY_GET_REG32(blessAddr);
 299              		.loc 1 319 0
 300 0000 0368     		ldr	r3, [r0]
 320:Generated_Source\PSoC4/ble_HAL_PVT.c **** }
 301              		.loc 1 320 0
 302              		@ sp needed
 319:Generated_Source\PSoC4/ble_HAL_PVT.c ****     *regValue = (uint16)CY_GET_REG32(blessAddr);
 303              		.loc 1 319 0
 304 0002 0B80     		strh	r3, [r1]
 305              		.loc 1 320 0
 306 0004 7047     		bx	lr
 307              		.cfi_endproc
 308              	.LFE6:
 309              		.size	CyBLE_Bless_RfRegRead, .-CyBLE_Bless_RfRegRead
 310              		.section	.text.CyBLE_Bless_RfRegWrite,"ax",%progbits
 311              		.align	1
 312              		.global	CyBLE_Bless_RfRegWrite
 313              		.code	16
 314              		.thumb_func
 315              		.type	CyBLE_Bless_RfRegWrite, %function
 316              	CyBLE_Bless_RfRegWrite:
 317              	.LFB7:
 321:Generated_Source\PSoC4/ble_HAL_PVT.c **** 
 322:Generated_Source\PSoC4/ble_HAL_PVT.c **** 
 323:Generated_Source\PSoC4/ble_HAL_PVT.c **** /*******************************************************************************
 324:Generated_Source\PSoC4/ble_HAL_PVT.c **** * Function Name: CyBLE_Bless_RfRegWrite
 325:Generated_Source\PSoC4/ble_HAL_PVT.c **** ****************************************************************************//**
 326:Generated_Source\PSoC4/ble_HAL_PVT.c **** *
 327:Generated_Source\PSoC4/ble_HAL_PVT.c **** *  This API writes to the BLESS RF register from the stack.
 328:Generated_Source\PSoC4/ble_HAL_PVT.c **** *
 329:Generated_Source\PSoC4/ble_HAL_PVT.c **** *  \param blessAddr: the pointer to the BLESS RF address.
 330:Generated_Source\PSoC4/ble_HAL_PVT.c **** *  \param regValue: the pointer to the value to be written to the BLESS RF reg.
 331:Generated_Source\PSoC4/ble_HAL_PVT.c **** *
 332:Generated_Source\PSoC4/ble_HAL_PVT.c **** * \return
 333:Generated_Source\PSoC4/ble_HAL_PVT.c **** *  None
 334:Generated_Source\PSoC4/ble_HAL_PVT.c **** *
 335:Generated_Source\PSoC4/ble_HAL_PVT.c **** *******************************************************************************/
 336:Generated_Source\PSoC4/ble_HAL_PVT.c **** void CyBLE_Bless_RfRegWrite (reg32 *blessAddr, const uint16 regValue)
 337:Generated_Source\PSoC4/ble_HAL_PVT.c **** {
 318              		.loc 1 337 0
ARM GAS  C:\Users\Petro\AppData\Local\Temp\cc0ZbO7Y.s 			page 13


 319              		.cfi_startproc
 320              		@ args = 0, pretend = 0, frame = 0
 321              		@ frame_needed = 0, uses_anonymous_args = 0
 322              		@ link register save eliminated.
 323              	.LVL33:
 338:Generated_Source\PSoC4/ble_HAL_PVT.c ****      CY_SET_REG32(blessAddr, regValue);
 324              		.loc 1 338 0
 325 0000 0160     		str	r1, [r0]
 339:Generated_Source\PSoC4/ble_HAL_PVT.c **** }
 326              		.loc 1 339 0
 327              		@ sp needed
 328 0002 7047     		bx	lr
 329              		.cfi_endproc
 330              	.LFE7:
 331              		.size	CyBLE_Bless_RfRegWrite, .-CyBLE_Bless_RfRegWrite
 332              		.section	.text.CyBLE_BlessDeviceConfig,"ax",%progbits
 333              		.align	1
 334              		.global	CyBLE_BlessDeviceConfig
 335              		.code	16
 336              		.thumb_func
 337              		.type	CyBLE_BlessDeviceConfig, %function
 338              	CyBLE_BlessDeviceConfig:
 339              	.LFB8:
 340:Generated_Source\PSoC4/ble_HAL_PVT.c **** 
 341:Generated_Source\PSoC4/ble_HAL_PVT.c **** /*******************************************************************************
 342:Generated_Source\PSoC4/ble_HAL_PVT.c **** * Function Name: CyBLE_BlessDeviceConfig
 343:Generated_Source\PSoC4/ble_HAL_PVT.c **** ****************************************************************************//**
 344:Generated_Source\PSoC4/ble_HAL_PVT.c **** *
 345:Generated_Source\PSoC4/ble_HAL_PVT.c **** *  This function configures BLESS registers by trimmed values stored in SFLASH.
 346:Generated_Source\PSoC4/ble_HAL_PVT.c **** *
 347:Generated_Source\PSoC4/ble_HAL_PVT.c **** * \return
 348:Generated_Source\PSoC4/ble_HAL_PVT.c **** *  None
 349:Generated_Source\PSoC4/ble_HAL_PVT.c **** *
 350:Generated_Source\PSoC4/ble_HAL_PVT.c **** *******************************************************************************/
 351:Generated_Source\PSoC4/ble_HAL_PVT.c **** void CyBLE_BlessDeviceConfig(void)
 352:Generated_Source\PSoC4/ble_HAL_PVT.c **** {
 340              		.loc 1 352 0
 341              		.cfi_startproc
 342              		@ args = 0, pretend = 0, frame = 0
 343              		@ frame_needed = 0, uses_anonymous_args = 0
 344              		@ link register save eliminated.
 353:Generated_Source\PSoC4/ble_HAL_PVT.c **** #if (CYIPBLOCK_m0s8bless_VERSION < 3)
 354:Generated_Source\PSoC4/ble_HAL_PVT.c ****     
 355:Generated_Source\PSoC4/ble_HAL_PVT.c ****     uint32 trimRegValue;
 356:Generated_Source\PSoC4/ble_HAL_PVT.c ****     uint32 ldo;
 357:Generated_Source\PSoC4/ble_HAL_PVT.c ****     uint16 trimRef34Val;
 358:Generated_Source\PSoC4/ble_HAL_PVT.c ****     uint16 trimRef38Val;    
 359:Generated_Source\PSoC4/ble_HAL_PVT.c ****     uint32 siliconRev;
 360:Generated_Source\PSoC4/ble_HAL_PVT.c **** 
 361:Generated_Source\PSoC4/ble_HAL_PVT.c ****     trimRegValue = ((uint32)CYBLE_SFLASH_BLESS_BB_BUMP2_HIGH_REG << 8u) | CYBLE_SFLASH_BLESS_BB_BUM
 345              		.loc 1 361 0
 346 0000 2B4B     		ldr	r3, .L39
 362:Generated_Source\PSoC4/ble_HAL_PVT.c ****     ldo = ((uint32)CYBLE_SFLASH_BLESS_LDO_HIGH_REG << 8u) | CYBLE_SFLASH_BLESS_LDO_LOW_REG;
 347              		.loc 1 362 0
 348 0002 2C4A     		ldr	r2, .L39+4
 361:Generated_Source\PSoC4/ble_HAL_PVT.c ****     ldo = ((uint32)CYBLE_SFLASH_BLESS_LDO_HIGH_REG << 8u) | CYBLE_SFLASH_BLESS_LDO_LOW_REG;
 349              		.loc 1 361 0
ARM GAS  C:\Users\Petro\AppData\Local\Temp\cc0ZbO7Y.s 			page 14


 350 0004 1978     		ldrb	r1, [r3]
 351 0006 2C4B     		ldr	r3, .L39+8
 352 0008 0902     		lsls	r1, r1, #8
 353 000a 1B78     		ldrb	r3, [r3]
 354 000c 1943     		orrs	r1, r3
 355              	.LVL34:
 356              		.loc 1 362 0
 357 000e 2B4B     		ldr	r3, .L39+12
 358 0010 1B78     		ldrb	r3, [r3]
 359 0012 1278     		ldrb	r2, [r2]
 360 0014 1B02     		lsls	r3, r3, #8
 361 0016 1343     		orrs	r3, r2
 362              	.LVL35:
 363:Generated_Source\PSoC4/ble_HAL_PVT.c **** 
 364:Generated_Source\PSoC4/ble_HAL_PVT.c ****     if ((ldo == CYBLE_SFLASH_BLERD_LDO_REG_VAL1) && (trimRegValue == CYBLE_SFLASH_BLERD_BB_BUMP2_RE
 363              		.loc 1 364 0
 364 0018 294A     		ldr	r2, .L39+16
 365 001a 9342     		cmp	r3, r2
 366 001c 04D1     		bne	.L32
 367              		.loc 1 364 0 is_stmt 0 discriminator 1
 368 001e 0729     		cmp	r1, #7
 369 0020 09D1     		bne	.L33
 365:Generated_Source\PSoC4/ble_HAL_PVT.c ****     {
 366:Generated_Source\PSoC4/ble_HAL_PVT.c ****         ldo = CYBLE_BLERD_LDO_REG_VAL_FINAL;
 370              		.loc 1 366 0 is_stmt 1
 371 0022 284B     		ldr	r3, .L39+20
 372              	.LVL36:
 367:Generated_Source\PSoC4/ble_HAL_PVT.c ****         trimRegValue = CYBLE_BLERD_BB_BUMP2_REG_VAL_FINAL;
 373              		.loc 1 367 0
 374 0024 0339     		subs	r1, r1, #3
 375              	.LVL37:
 376 0026 06E0     		b	.L33
 377              	.LVL38:
 378              	.L32:
 368:Generated_Source\PSoC4/ble_HAL_PVT.c ****     }
 369:Generated_Source\PSoC4/ble_HAL_PVT.c ****     else if ((ldo == CYBLE_SFLASH_BLERD_LDO_REG_VAL2) && (trimRegValue == CYBLE_BLERD_BB_BUMP2_REG_
 379              		.loc 1 369 0
 380 0028 D422     		movs	r2, #212
 381 002a 1201     		lsls	r2, r2, #4
 382 002c 9342     		cmp	r3, r2
 383 002e 02D1     		bne	.L33
 384              		.loc 1 369 0 is_stmt 0 discriminator 1
 385 0030 0429     		cmp	r1, #4
 386 0032 00D1     		bne	.L33
 370:Generated_Source\PSoC4/ble_HAL_PVT.c ****     {
 371:Generated_Source\PSoC4/ble_HAL_PVT.c ****         ldo = CYBLE_BLERD_LDO_REG_VAL_FINAL;
 387              		.loc 1 371 0 is_stmt 1
 388 0034 234B     		ldr	r3, .L39+20
 389              	.LVL39:
 390              	.L33:
 372:Generated_Source\PSoC4/ble_HAL_PVT.c ****     }
 373:Generated_Source\PSoC4/ble_HAL_PVT.c ****     else
 374:Generated_Source\PSoC4/ble_HAL_PVT.c ****     {
 375:Generated_Source\PSoC4/ble_HAL_PVT.c ****     }
 376:Generated_Source\PSoC4/ble_HAL_PVT.c **** 
 377:Generated_Source\PSoC4/ble_HAL_PVT.c ****     CYBLE_BLE_BLERD_LDO_REG = ldo;
 391              		.loc 1 377 0
ARM GAS  C:\Users\Petro\AppData\Local\Temp\cc0ZbO7Y.s 			page 15


 392 0036 244A     		ldr	r2, .L39+24
 393 0038 1360     		str	r3, [r2]
 378:Generated_Source\PSoC4/ble_HAL_PVT.c ****     CYBLE_BLE_BLERD_BB_BUMP2_REG = trimRegValue;
 394              		.loc 1 378 0
 395 003a 244B     		ldr	r3, .L39+28
 396              	.LVL40:
 379:Generated_Source\PSoC4/ble_HAL_PVT.c **** 
 380:Generated_Source\PSoC4/ble_HAL_PVT.c ****     /* Edit only XTAL fast charge bit */
 381:Generated_Source\PSoC4/ble_HAL_PVT.c ****     trimRegValue = ((uint32)CYBLE_SFLASH_BLESS_BB_XO_HIGH_REG << 8u) | CYBLE_SFLASH_BLESS_BB_XO_LOW
 397              		.loc 1 381 0
 398 003c 244A     		ldr	r2, .L39+32
 399              	.LVL41:
 378:Generated_Source\PSoC4/ble_HAL_PVT.c ****     CYBLE_BLE_BLERD_BB_BUMP2_REG = trimRegValue;
 400              		.loc 1 378 0
 401 003e 1960     		str	r1, [r3]
 402              	.LVL42:
 403              		.loc 1 381 0
 404 0040 244B     		ldr	r3, .L39+36
 405 0042 1B78     		ldrb	r3, [r3]
 406 0044 1278     		ldrb	r2, [r2]
 407 0046 1B02     		lsls	r3, r3, #8
 408 0048 1343     		orrs	r3, r2
 409              	.LVL43:
 382:Generated_Source\PSoC4/ble_HAL_PVT.c **** 
 383:Generated_Source\PSoC4/ble_HAL_PVT.c ****     if ((trimRegValue == CYBLE_SFLASH_BLERD_BB_XO_REG_VAL1) || (trimRegValue == CYBLE_SFLASH_BLERD_
 410              		.loc 1 383 0
 411 004a 234A     		ldr	r2, .L39+40
 412 004c 1342     		tst	r3, r2
 413 004e 00D1     		bne	.L34
 384:Generated_Source\PSoC4/ble_HAL_PVT.c ****     {
 385:Generated_Source\PSoC4/ble_HAL_PVT.c ****         trimRegValue = CYBLE_BLERD_BB_XO_REG_VAL_FINAL;
 414              		.loc 1 385 0
 415 0050 224B     		ldr	r3, .L39+44
 416              	.LVL44:
 417              	.L34:
 386:Generated_Source\PSoC4/ble_HAL_PVT.c ****     }
 387:Generated_Source\PSoC4/ble_HAL_PVT.c ****     
 388:Generated_Source\PSoC4/ble_HAL_PVT.c ****     CYBLE_BLE_BLERD_BB_XO_REG = trimRegValue;
 418              		.loc 1 388 0
 419 0052 234A     		ldr	r2, .L39+48
 389:Generated_Source\PSoC4/ble_HAL_PVT.c ****     
 390:Generated_Source\PSoC4/ble_HAL_PVT.c ****     trimRegValue = ((uint32)CYBLE_SFLASH_BLESS_SY_BUMP1_HIGH_REG << 8u) | CYBLE_SFLASH_BLESS_SY_BUM
 420              		.loc 1 390 0
 421 0054 2349     		ldr	r1, .L39+52
 388:Generated_Source\PSoC4/ble_HAL_PVT.c ****     
 422              		.loc 1 388 0
 423 0056 1360     		str	r3, [r2]
 424              		.loc 1 390 0
 425 0058 234A     		ldr	r2, .L39+56
 426 005a 0B78     		ldrb	r3, [r1]
 427              	.LVL45:
 428 005c 1278     		ldrb	r2, [r2]
 429 005e 1B02     		lsls	r3, r3, #8
 430 0060 1343     		orrs	r3, r2
 431              	.LVL46:
 391:Generated_Source\PSoC4/ble_HAL_PVT.c **** 
 392:Generated_Source\PSoC4/ble_HAL_PVT.c ****     if ((trimRegValue == CYBLE_SFLASH_BLERD_SY_BUMP1_REG_VAL1) || 
ARM GAS  C:\Users\Petro\AppData\Local\Temp\cc0ZbO7Y.s 			page 16


 432              		.loc 1 392 0
 433 0062 224A     		ldr	r2, .L39+60
 434 0064 9342     		cmp	r3, r2
 435 0066 04D0     		beq	.L38
 436              		.loc 1 392 0 is_stmt 0 discriminator 1
 437 0068 214A     		ldr	r2, .L39+64
 438 006a 9342     		cmp	r3, r2
 439 006c 01D0     		beq	.L38
 393:Generated_Source\PSoC4/ble_HAL_PVT.c ****         (trimRegValue == CYBLE_SFLASH_BLERD_SY_BUMP1_REG_VAL2) ||  
 440              		.loc 1 393 0 is_stmt 1
 441 006e 052B     		cmp	r3, #5
 442 0070 00D1     		bne	.L35
 443              	.L38:
 394:Generated_Source\PSoC4/ble_HAL_PVT.c ****         (trimRegValue == CYBLE_SFLASH_BLERD_SY_BUMP1_REG_VAL3))
 395:Generated_Source\PSoC4/ble_HAL_PVT.c ****     {
 396:Generated_Source\PSoC4/ble_HAL_PVT.c ****         trimRegValue = CYBLE_BLERD_SY_BUMP1_REG_VAL_FINAL;
 444              		.loc 1 396 0
 445 0072 204B     		ldr	r3, .L39+68
 446              	.LVL47:
 447              	.L35:
 397:Generated_Source\PSoC4/ble_HAL_PVT.c ****     }
 398:Generated_Source\PSoC4/ble_HAL_PVT.c ****     CYBLE_BLE_BLERD_SY_BUMP1_REG = trimRegValue;
 448              		.loc 1 398 0
 449 0074 204A     		ldr	r2, .L39+72
 450 0076 1360     		str	r3, [r2]
 399:Generated_Source\PSoC4/ble_HAL_PVT.c **** 
 400:Generated_Source\PSoC4/ble_HAL_PVT.c ****     /* Following code is for F02FN trimming */
 401:Generated_Source\PSoC4/ble_HAL_PVT.c ****     siliconRev = (CYBLE_BLE_SILICON_REV_REG >> 4u);
 451              		.loc 1 401 0
 452 0078 204B     		ldr	r3, .L39+76
 453              	.LVL48:
 402:Generated_Source\PSoC4/ble_HAL_PVT.c ****     
 403:Generated_Source\PSoC4/ble_HAL_PVT.c ****     if((CYBLE_BLE_FAMILY_ID_REG == CYBLE_PSOC4A_BLE256DMA_FID) && (siliconRev >= 0x02u) &&
 454              		.loc 1 403 0
 455 007a 214A     		ldr	r2, .L39+80
 456              	.LVL49:
 401:Generated_Source\PSoC4/ble_HAL_PVT.c ****     
 457              		.loc 1 401 0
 458 007c 1B68     		ldr	r3, [r3]
 459              	.LVL50:
 460              		.loc 1 403 0
 461 007e 1268     		ldr	r2, [r2]
 462 0080 AA2A     		cmp	r2, #170
 463 0082 14D1     		bne	.L31
 464              		.loc 1 403 0 is_stmt 0 discriminator 1
 465 0084 1F2B     		cmp	r3, #31
 466 0086 12D9     		bls	.L31
 404:Generated_Source\PSoC4/ble_HAL_PVT.c ****         (CYBLE_SFLASH_BLESS_SY_BUMP1_HIGH_REG == 0x0Eu))
 467              		.loc 1 404 0 is_stmt 1 discriminator 2
 468 0088 0B78     		ldrb	r3, [r1]
 469              	.LVL51:
 403:Generated_Source\PSoC4/ble_HAL_PVT.c ****         (CYBLE_SFLASH_BLESS_SY_BUMP1_HIGH_REG == 0x0Eu))
 470              		.loc 1 403 0 discriminator 2
 471 008a 0E2B     		cmp	r3, #14
 472 008c 0FD1     		bne	.L31
 405:Generated_Source\PSoC4/ble_HAL_PVT.c **** 	{
 406:Generated_Source\PSoC4/ble_HAL_PVT.c **** 		trimRef34Val = ((uint16)(((uint16) CYBLE_BLE_BLESS_REG34_TRIM_HIGH_REG) << 8u)) |
ARM GAS  C:\Users\Petro\AppData\Local\Temp\cc0ZbO7Y.s 			page 17


 473              		.loc 1 406 0
 474 008e 1D4B     		ldr	r3, .L39+84
 407:Generated_Source\PSoC4/ble_HAL_PVT.c ****                         ((uint16)CYBLE_BLE_BLESS_REG34_TRIM_LOW_REG);
 475              		.loc 1 407 0
 476 0090 1D4A     		ldr	r2, .L39+88
 406:Generated_Source\PSoC4/ble_HAL_PVT.c ****                         ((uint16)CYBLE_BLE_BLESS_REG34_TRIM_LOW_REG);
 477              		.loc 1 406 0
 478 0092 1B78     		ldrb	r3, [r3]
 479              		.loc 1 407 0
 480 0094 1278     		ldrb	r2, [r2]
 481              	.LVL52:
 408:Generated_Source\PSoC4/ble_HAL_PVT.c **** 		CYBLE_BLERD_SY_BUMP2_REG = trimRef34Val;
 482              		.loc 1 408 0
 483 0096 1B02     		lsls	r3, r3, #8
 484              	.LVL53:
 485 0098 1343     		orrs	r3, r2
 486 009a 1C4A     		ldr	r2, .L39+92
 487 009c 1360     		str	r3, [r2]
 488              	.LVL54:
 409:Generated_Source\PSoC4/ble_HAL_PVT.c **** 	
 410:Generated_Source\PSoC4/ble_HAL_PVT.c **** 		trimRef38Val = ((uint16)(((uint16)CYBLE_BLE_BLESS_REG38_TRIM_HIGH_REG) << 8u)) |
 489              		.loc 1 410 0
 490 009e 1C4B     		ldr	r3, .L39+96
 411:Generated_Source\PSoC4/ble_HAL_PVT.c ****             ((uint16) CYBLE_BLE_BLESS_REG38_TRIM_LOW_REG);
 491              		.loc 1 411 0
 492 00a0 1C4A     		ldr	r2, .L39+100
 410:Generated_Source\PSoC4/ble_HAL_PVT.c ****             ((uint16) CYBLE_BLE_BLESS_REG38_TRIM_LOW_REG);
 493              		.loc 1 410 0
 494 00a2 1B78     		ldrb	r3, [r3]
 495              		.loc 1 411 0
 496 00a4 1278     		ldrb	r2, [r2]
 497              	.LVL55:
 412:Generated_Source\PSoC4/ble_HAL_PVT.c **** 		CYBLE_BLERD_RX_BUMP2_REG = trimRef38Val;
 498              		.loc 1 412 0
 499 00a6 1B02     		lsls	r3, r3, #8
 500              	.LVL56:
 501 00a8 1343     		orrs	r3, r2
 502 00aa 1B4A     		ldr	r2, .L39+104
 503 00ac 1360     		str	r3, [r2]
 504              	.L31:
 413:Generated_Source\PSoC4/ble_HAL_PVT.c **** 	}
 414:Generated_Source\PSoC4/ble_HAL_PVT.c **** #endif /* (CYIPBLOCK_m0s8bless_VERSION < 3) */
 415:Generated_Source\PSoC4/ble_HAL_PVT.c **** }
 505              		.loc 1 415 0
 506              		@ sp needed
 507 00ae 7047     		bx	lr
 508              	.L40:
 509              		.align	2
 510              	.L39:
 511 00b0 D9F0FF0F 		.word	268431577
 512 00b4 DEF0FF0F 		.word	268431582
 513 00b8 D8F0FF0F 		.word	268431576
 514 00bc DFF0FF0F 		.word	268431583
 515 00c0 580B0000 		.word	2904
 516 00c4 580D0000 		.word	3416
 517 00c8 6C002E40 		.word	1076756588
 518 00cc 74002E40 		.word	1076756596
ARM GAS  C:\Users\Petro\AppData\Local\Temp\cc0ZbO7Y.s 			page 18


 519 00d0 DAF0FF0F 		.word	268431578
 520 00d4 DBF0FF0F 		.word	268431579
 521 00d8 FFDFFFFF 		.word	-8193
 522 00dc 02200000 		.word	8194
 523 00e0 78002E40 		.word	1076756600
 524 00e4 DDF0FF0F 		.word	268431581
 525 00e8 DCF0FF0F 		.word	268431580
 526 00ec 0F0F0000 		.word	3855
 527 00f0 05050000 		.word	1285
 528 00f4 050F0000 		.word	3845
 529 00f8 80002E40 		.word	1076756608
 530 00fc EC0F00F0 		.word	-268431380
 531 0100 E00F00F0 		.word	-268431392
 532 0104 6DF2FF0F 		.word	268431981
 533 0108 6CF2FF0F 		.word	268431980
 534 010c 84002E40 		.word	1076756612
 535 0110 6FF2FF0F 		.word	268431983
 536 0114 6EF2FF0F 		.word	268431982
 537 0118 94002E40 		.word	1076756628
 538              		.cfi_endproc
 539              	.LFE8:
 540              		.size	CyBLE_BlessDeviceConfig, .-CyBLE_BlessDeviceConfig
 541              		.section	.text.CyBleHal_DelayUs,"ax",%progbits
 542              		.align	1
 543              		.global	CyBleHal_DelayUs
 544              		.code	16
 545              		.thumb_func
 546              		.type	CyBleHal_DelayUs, %function
 547              	CyBleHal_DelayUs:
 548              	.LFB9:
 416:Generated_Source\PSoC4/ble_HAL_PVT.c **** 
 417:Generated_Source\PSoC4/ble_HAL_PVT.c **** 
 418:Generated_Source\PSoC4/ble_HAL_PVT.c **** /* Interface to CyDelayUs function */
 419:Generated_Source\PSoC4/ble_HAL_PVT.c **** void CyBleHal_DelayUs(uint16 delayVal)
 420:Generated_Source\PSoC4/ble_HAL_PVT.c **** {
 549              		.loc 1 420 0
 550              		.cfi_startproc
 551              		@ args = 0, pretend = 0, frame = 0
 552              		@ frame_needed = 0, uses_anonymous_args = 0
 553              	.LVL57:
 554 0000 10B5     		push	{r4, lr}
 555              		.cfi_def_cfa_offset 8
 556              		.cfi_offset 4, -8
 557              		.cfi_offset 14, -4
 421:Generated_Source\PSoC4/ble_HAL_PVT.c ****     CyDelayUs(delayVal);
 558              		.loc 1 421 0
 559 0002 FFF7FEFF 		bl	CyDelayUs
 560              	.LVL58:
 422:Generated_Source\PSoC4/ble_HAL_PVT.c **** }
 561              		.loc 1 422 0
 562              		@ sp needed
 563 0006 10BD     		pop	{r4, pc}
 564              		.cfi_endproc
 565              	.LFE9:
 566              		.size	CyBleHal_DelayUs, .-CyBleHal_DelayUs
 567              		.section	.text.CyBleHal_DelayMs,"ax",%progbits
 568              		.align	1
ARM GAS  C:\Users\Petro\AppData\Local\Temp\cc0ZbO7Y.s 			page 19


 569              		.global	CyBleHal_DelayMs
 570              		.code	16
 571              		.thumb_func
 572              		.type	CyBleHal_DelayMs, %function
 573              	CyBleHal_DelayMs:
 574              	.LFB10:
 423:Generated_Source\PSoC4/ble_HAL_PVT.c **** 
 424:Generated_Source\PSoC4/ble_HAL_PVT.c **** /* Interface to CyDelay function */
 425:Generated_Source\PSoC4/ble_HAL_PVT.c **** void CyBleHal_DelayMs(uint32 delayVal)
 426:Generated_Source\PSoC4/ble_HAL_PVT.c **** {
 575              		.loc 1 426 0
 576              		.cfi_startproc
 577              		@ args = 0, pretend = 0, frame = 0
 578              		@ frame_needed = 0, uses_anonymous_args = 0
 579              	.LVL59:
 580 0000 10B5     		push	{r4, lr}
 581              		.cfi_def_cfa_offset 8
 582              		.cfi_offset 4, -8
 583              		.cfi_offset 14, -4
 427:Generated_Source\PSoC4/ble_HAL_PVT.c ****     CyDelay(delayVal);
 584              		.loc 1 427 0
 585 0002 FFF7FEFF 		bl	CyDelay
 586              	.LVL60:
 428:Generated_Source\PSoC4/ble_HAL_PVT.c **** }
 587              		.loc 1 428 0
 588              		@ sp needed
 589 0006 10BD     		pop	{r4, pc}
 590              		.cfi_endproc
 591              	.LFE10:
 592              		.size	CyBleHal_DelayMs, .-CyBleHal_DelayMs
 593              		.section	.text.CyBleHal_EnableGlobalInterrupts,"ax",%progbits
 594              		.align	1
 595              		.global	CyBleHal_EnableGlobalInterrupts
 596              		.code	16
 597              		.thumb_func
 598              		.type	CyBleHal_EnableGlobalInterrupts, %function
 599              	CyBleHal_EnableGlobalInterrupts:
 600              	.LFB11:
 429:Generated_Source\PSoC4/ble_HAL_PVT.c **** 
 430:Generated_Source\PSoC4/ble_HAL_PVT.c **** /* Interface to ble_bless_isr_Enable function */
 431:Generated_Source\PSoC4/ble_HAL_PVT.c **** void CyBleHal_EnableGlobalInterrupts(void)
 432:Generated_Source\PSoC4/ble_HAL_PVT.c **** {
 601              		.loc 1 432 0
 602              		.cfi_startproc
 603              		@ args = 0, pretend = 0, frame = 0
 604              		@ frame_needed = 0, uses_anonymous_args = 0
 605 0000 10B5     		push	{r4, lr}
 606              		.cfi_def_cfa_offset 8
 607              		.cfi_offset 4, -8
 608              		.cfi_offset 14, -4
 433:Generated_Source\PSoC4/ble_HAL_PVT.c ****     ble_bless_isr_Enable();
 609              		.loc 1 433 0
 610 0002 FFF7FEFF 		bl	ble_bless_isr_Enable
 611              	.LVL61:
 434:Generated_Source\PSoC4/ble_HAL_PVT.c **** }
 612              		.loc 1 434 0
 613              		@ sp needed
ARM GAS  C:\Users\Petro\AppData\Local\Temp\cc0ZbO7Y.s 			page 20


 614 0006 10BD     		pop	{r4, pc}
 615              		.cfi_endproc
 616              	.LFE11:
 617              		.size	CyBleHal_EnableGlobalInterrupts, .-CyBleHal_EnableGlobalInterrupts
 618              		.section	.text.CyBleHal_DisableGlobalInterrupts,"ax",%progbits
 619              		.align	1
 620              		.global	CyBleHal_DisableGlobalInterrupts
 621              		.code	16
 622              		.thumb_func
 623              		.type	CyBleHal_DisableGlobalInterrupts, %function
 624              	CyBleHal_DisableGlobalInterrupts:
 625              	.LFB12:
 435:Generated_Source\PSoC4/ble_HAL_PVT.c **** 
 436:Generated_Source\PSoC4/ble_HAL_PVT.c **** /* Interface to ble_bless_isr_Disable function */
 437:Generated_Source\PSoC4/ble_HAL_PVT.c **** void CyBleHal_DisableGlobalInterrupts(void)
 438:Generated_Source\PSoC4/ble_HAL_PVT.c **** {
 626              		.loc 1 438 0
 627              		.cfi_startproc
 628              		@ args = 0, pretend = 0, frame = 0
 629              		@ frame_needed = 0, uses_anonymous_args = 0
 630 0000 10B5     		push	{r4, lr}
 631              		.cfi_def_cfa_offset 8
 632              		.cfi_offset 4, -8
 633              		.cfi_offset 14, -4
 439:Generated_Source\PSoC4/ble_HAL_PVT.c ****     ble_bless_isr_Disable();
 634              		.loc 1 439 0
 635 0002 FFF7FEFF 		bl	ble_bless_isr_Disable
 636              	.LVL62:
 440:Generated_Source\PSoC4/ble_HAL_PVT.c **** }
 637              		.loc 1 440 0
 638              		@ sp needed
 639 0006 10BD     		pop	{r4, pc}
 640              		.cfi_endproc
 641              	.LFE12:
 642              		.size	CyBleHal_DisableGlobalInterrupts, .-CyBleHal_DisableGlobalInterrupts
 643              		.section	.text.CyBle_HalInit,"ax",%progbits
 644              		.align	1
 645              		.global	CyBle_HalInit
 646              		.code	16
 647              		.thumb_func
 648              		.type	CyBle_HalInit, %function
 649              	CyBle_HalInit:
 650              	.LFB13:
 441:Generated_Source\PSoC4/ble_HAL_PVT.c **** 
 442:Generated_Source\PSoC4/ble_HAL_PVT.c **** /*******************************************************************************
 443:Generated_Source\PSoC4/ble_HAL_PVT.c **** * Function Name: CyBle_HalInit
 444:Generated_Source\PSoC4/ble_HAL_PVT.c **** ****************************************************************************//**
 445:Generated_Source\PSoC4/ble_HAL_PVT.c **** *
 446:Generated_Source\PSoC4/ble_HAL_PVT.c **** *  Initializes the BLESS interrupt.
 447:Generated_Source\PSoC4/ble_HAL_PVT.c **** *
 448:Generated_Source\PSoC4/ble_HAL_PVT.c **** * \return
 449:Generated_Source\PSoC4/ble_HAL_PVT.c **** *  None
 450:Generated_Source\PSoC4/ble_HAL_PVT.c **** *
 451:Generated_Source\PSoC4/ble_HAL_PVT.c **** *******************************************************************************/
 452:Generated_Source\PSoC4/ble_HAL_PVT.c **** void CyBle_HalInit(void)
 453:Generated_Source\PSoC4/ble_HAL_PVT.c **** {
 651              		.loc 1 453 0
ARM GAS  C:\Users\Petro\AppData\Local\Temp\cc0ZbO7Y.s 			page 21


 652              		.cfi_startproc
 653              		@ args = 0, pretend = 0, frame = 0
 654              		@ frame_needed = 0, uses_anonymous_args = 0
 655 0000 10B5     		push	{r4, lr}
 656              		.cfi_def_cfa_offset 8
 657              		.cfi_offset 4, -8
 658              		.cfi_offset 14, -4
 454:Generated_Source\PSoC4/ble_HAL_PVT.c ****     /* For all we know the interrupt is active. */
 455:Generated_Source\PSoC4/ble_HAL_PVT.c ****     ble_bless_isr_Disable();
 659              		.loc 1 455 0
 660 0002 FFF7FEFF 		bl	ble_bless_isr_Disable
 661              	.LVL63:
 456:Generated_Source\PSoC4/ble_HAL_PVT.c **** 
 457:Generated_Source\PSoC4/ble_HAL_PVT.c ****     /* Set the ISR to point to the BLE_bless_isr Interrupt. */
 458:Generated_Source\PSoC4/ble_HAL_PVT.c ****     ble_bless_isr_SetVector(&CyBLE_Bless_Interrupt);
 662              		.loc 1 458 0
 663 0006 0348     		ldr	r0, .L46
 664 0008 FFF7FEFF 		bl	ble_bless_isr_SetVector
 665              	.LVL64:
 459:Generated_Source\PSoC4/ble_HAL_PVT.c **** 
 460:Generated_Source\PSoC4/ble_HAL_PVT.c ****     /* Set the priority. */
 461:Generated_Source\PSoC4/ble_HAL_PVT.c ****     ble_bless_isr_SetPriority((uint8)ble_bless_isr_INTC_PRIOR_NUMBER);
 666              		.loc 1 461 0
 667 000c 0020     		movs	r0, #0
 668 000e FFF7FEFF 		bl	ble_bless_isr_SetPriority
 669              	.LVL65:
 462:Generated_Source\PSoC4/ble_HAL_PVT.c **** }
 670              		.loc 1 462 0
 671              		@ sp needed
 672 0012 10BD     		pop	{r4, pc}
 673              	.L47:
 674              		.align	2
 675              	.L46:
 676 0014 00000000 		.word	CyBLE_Bless_Interrupt
 677              		.cfi_endproc
 678              	.LFE13:
 679              		.size	CyBle_HalInit, .-CyBle_HalInit
 680              		.section	.text.CYBLE_BlessStart,"ax",%progbits
 681              		.align	1
 682              		.global	CYBLE_BlessStart
 683              		.code	16
 684              		.thumb_func
 685              		.type	CYBLE_BlessStart, %function
 686              	CYBLE_BlessStart:
 687              	.LFB14:
 463:Generated_Source\PSoC4/ble_HAL_PVT.c **** 
 464:Generated_Source\PSoC4/ble_HAL_PVT.c **** 
 465:Generated_Source\PSoC4/ble_HAL_PVT.c **** /*******************************************************************************
 466:Generated_Source\PSoC4/ble_HAL_PVT.c **** * Function Name: CYBLE_BlessStart
 467:Generated_Source\PSoC4/ble_HAL_PVT.c **** ****************************************************************************//**
 468:Generated_Source\PSoC4/ble_HAL_PVT.c **** *
 469:Generated_Source\PSoC4/ble_HAL_PVT.c **** *  Start Interrupt Controller API.
 470:Generated_Source\PSoC4/ble_HAL_PVT.c **** *
 471:Generated_Source\PSoC4/ble_HAL_PVT.c **** * \return
 472:Generated_Source\PSoC4/ble_HAL_PVT.c **** *  None
 473:Generated_Source\PSoC4/ble_HAL_PVT.c **** *
 474:Generated_Source\PSoC4/ble_HAL_PVT.c **** *******************************************************************************/
ARM GAS  C:\Users\Petro\AppData\Local\Temp\cc0ZbO7Y.s 			page 22


 475:Generated_Source\PSoC4/ble_HAL_PVT.c **** void CYBLE_BlessStart(void)
 476:Generated_Source\PSoC4/ble_HAL_PVT.c **** {
 688              		.loc 1 476 0
 689              		.cfi_startproc
 690              		@ args = 0, pretend = 0, frame = 0
 691              		@ frame_needed = 0, uses_anonymous_args = 0
 692 0000 10B5     		push	{r4, lr}
 693              		.cfi_def_cfa_offset 8
 694              		.cfi_offset 4, -8
 695              		.cfi_offset 14, -4
 477:Generated_Source\PSoC4/ble_HAL_PVT.c **** #if((CYBLE_M0S8BLESS_VERSION_3) && (CYBLE_EXT_PA_ENABLED))
 478:Generated_Source\PSoC4/ble_HAL_PVT.c ****     CYBLE_EXT_PA_LNA_CTRL_REG |= CYBLE_EXT_PA_LNA_ENABLE | CYBLE_EXT_OUT_EN_DRIVE_VAL; 
 479:Generated_Source\PSoC4/ble_HAL_PVT.c **** #endif  /* (CYBLE_M0S8BLESS_VERSION_3) */
 480:Generated_Source\PSoC4/ble_HAL_PVT.c **** 
 481:Generated_Source\PSoC4/ble_HAL_PVT.c ****     ble_bless_isr_StartEx(&CyBLE_Bless_Interrupt);
 696              		.loc 1 481 0
 697 0002 0248     		ldr	r0, .L49
 698 0004 FFF7FEFF 		bl	ble_bless_isr_StartEx
 699              	.LVL66:
 482:Generated_Source\PSoC4/ble_HAL_PVT.c **** }
 700              		.loc 1 482 0
 701              		@ sp needed
 702 0008 10BD     		pop	{r4, pc}
 703              	.L50:
 704 000a C046     		.align	2
 705              	.L49:
 706 000c 00000000 		.word	CyBLE_Bless_Interrupt
 707              		.cfi_endproc
 708              	.LFE14:
 709              		.size	CYBLE_BlessStart, .-CYBLE_BlessStart
 710              		.section	.text.CyBLE_GetIpBlockVersion,"ax",%progbits
 711              		.align	1
 712              		.global	CyBLE_GetIpBlockVersion
 713              		.code	16
 714              		.thumb_func
 715              		.type	CyBLE_GetIpBlockVersion, %function
 716              	CyBLE_GetIpBlockVersion:
 717              	.LFB15:
 483:Generated_Source\PSoC4/ble_HAL_PVT.c **** 
 484:Generated_Source\PSoC4/ble_HAL_PVT.c **** 
 485:Generated_Source\PSoC4/ble_HAL_PVT.c **** /*******************************************************************************
 486:Generated_Source\PSoC4/ble_HAL_PVT.c **** * Function Name: CyBLE_GetIpBlockVersion
 487:Generated_Source\PSoC4/ble_HAL_PVT.c **** ****************************************************************************//**
 488:Generated_Source\PSoC4/ble_HAL_PVT.c **** *
 489:Generated_Source\PSoC4/ble_HAL_PVT.c **** * This API returns the version of m0s8bless ip block.
 490:Generated_Source\PSoC4/ble_HAL_PVT.c **** *
 491:Generated_Source\PSoC4/ble_HAL_PVT.c **** * \return
 492:Generated_Source\PSoC4/ble_HAL_PVT.c **** * uint32 bits:
 493:Generated_Source\PSoC4/ble_HAL_PVT.c **** * 7:0 - ip version ( 1 - BLE_ver1, 2 - BLE_ver2, 3 - BLE_ver3 )
 494:Generated_Source\PSoC4/ble_HAL_PVT.c **** * 15:8 - flash size ( 0 - 128k, 1 - 256k )
 495:Generated_Source\PSoC4/ble_HAL_PVT.c **** * 16 - PSVP device
 496:Generated_Source\PSoC4/ble_HAL_PVT.c **** * 31:17 - reserved for future usage
 497:Generated_Source\PSoC4/ble_HAL_PVT.c **** *
 498:Generated_Source\PSoC4/ble_HAL_PVT.c **** *******************************************************************************/
 499:Generated_Source\PSoC4/ble_HAL_PVT.c **** uint32 CyBLE_GetIpBlockVersion(void)
 500:Generated_Source\PSoC4/ble_HAL_PVT.c **** {
 718              		.loc 1 500 0
ARM GAS  C:\Users\Petro\AppData\Local\Temp\cc0ZbO7Y.s 			page 23


 719              		.cfi_startproc
 720              		@ args = 0, pretend = 0, frame = 0
 721              		@ frame_needed = 0, uses_anonymous_args = 0
 722              		@ link register save eliminated.
 501:Generated_Source\PSoC4/ble_HAL_PVT.c ****     return(((uint32)CYBLE_M0S8BLESS_VERSION) | ((uint32)((uint32)CYBLE_FLASH_SIZE) << 8u) |
 502:Generated_Source\PSoC4/ble_HAL_PVT.c ****         ((uint32)(((uint32)CYBLE_PSVP_DEVICE)) << 16u));
 503:Generated_Source\PSoC4/ble_HAL_PVT.c **** }
 723              		.loc 1 503 0
 724 0000 0220     		movs	r0, #2
 725              		@ sp needed
 726 0002 FF30     		adds	r0, r0, #255
 727 0004 7047     		bx	lr
 728              		.cfi_endproc
 729              	.LFE15:
 730              		.size	CyBLE_GetIpBlockVersion, .-CyBLE_GetIpBlockVersion
 731              		.section	.text.CyBle_Hal_pairing_local_public_key_handler,"ax",%progbits
 732              		.align	1
 733              		.global	CyBle_Hal_pairing_local_public_key_handler
 734              		.code	16
 735              		.thumb_func
 736              		.type	CyBle_Hal_pairing_local_public_key_handler, %function
 737              	CyBle_Hal_pairing_local_public_key_handler:
 738              	.LFB54:
 739              		.cfi_startproc
 740              		@ args = 0, pretend = 0, frame = 0
 741              		@ frame_needed = 0, uses_anonymous_args = 0
 742              		@ link register save eliminated.
 743 0000 2B20     		movs	r0, #43
 744              		@ sp needed
 745 0002 7047     		bx	lr
 746              		.cfi_endproc
 747              	.LFE54:
 748              		.size	CyBle_Hal_pairing_local_public_key_handler, .-CyBle_Hal_pairing_local_public_key_handler
 749              		.section	.text.CyBle_Hal_pairing_remote_key_handler,"ax",%progbits
 750              		.align	1
 751              		.global	CyBle_Hal_pairing_remote_key_handler
 752              		.code	16
 753              		.thumb_func
 754              		.type	CyBle_Hal_pairing_remote_key_handler, %function
 755              	CyBle_Hal_pairing_remote_key_handler:
 756              	.LFB52:
 757              		.cfi_startproc
 758              		@ args = 0, pretend = 0, frame = 0
 759              		@ frame_needed = 0, uses_anonymous_args = 0
 760              		@ link register save eliminated.
 761 0000 2B20     		movs	r0, #43
 762              		@ sp needed
 763 0002 7047     		bx	lr
 764              		.cfi_endproc
 765              	.LFE52:
 766              		.size	CyBle_Hal_pairing_remote_key_handler, .-CyBle_Hal_pairing_remote_key_handler
 767              		.section	.text.CyBle_Hal_pairing_dhkey_handler,"ax",%progbits
 768              		.align	1
 769              		.global	CyBle_Hal_pairing_dhkey_handler
 770              		.code	16
 771              		.thumb_func
 772              		.type	CyBle_Hal_pairing_dhkey_handler, %function
ARM GAS  C:\Users\Petro\AppData\Local\Temp\cc0ZbO7Y.s 			page 24


 773              	CyBle_Hal_pairing_dhkey_handler:
 774              	.LFB50:
 775              		.cfi_startproc
 776              		@ args = 0, pretend = 0, frame = 0
 777              		@ frame_needed = 0, uses_anonymous_args = 0
 778              		@ link register save eliminated.
 779 0000 2B20     		movs	r0, #43
 780              		@ sp needed
 781 0002 7047     		bx	lr
 782              		.cfi_endproc
 783              	.LFE50:
 784              		.size	CyBle_Hal_pairing_dhkey_handler, .-CyBle_Hal_pairing_dhkey_handler
 785              		.section	.text.CyBle_Hal_pairing_dhkey_check_handler,"ax",%progbits
 786              		.align	1
 787              		.global	CyBle_Hal_pairing_dhkey_check_handler
 788              		.code	16
 789              		.thumb_func
 790              		.type	CyBle_Hal_pairing_dhkey_check_handler, %function
 791              	CyBle_Hal_pairing_dhkey_check_handler:
 792              	.LFB48:
 793              		.cfi_startproc
 794              		@ args = 0, pretend = 0, frame = 0
 795              		@ frame_needed = 0, uses_anonymous_args = 0
 796              		@ link register save eliminated.
 797 0000 2B20     		movs	r0, #43
 798              		@ sp needed
 799 0002 7047     		bx	lr
 800              		.cfi_endproc
 801              	.LFE48:
 802              		.size	CyBle_Hal_pairing_dhkey_check_handler, .-CyBle_Hal_pairing_dhkey_check_handler
 803              		.section	.text.CyBle_Hal_pairing_keypress_notification_handler,"ax",%progbits
 804              		.align	1
 805              		.global	CyBle_Hal_pairing_keypress_notification_handler
 806              		.code	16
 807              		.thumb_func
 808              		.type	CyBle_Hal_pairing_keypress_notification_handler, %function
 809              	CyBle_Hal_pairing_keypress_notification_handler:
 810              	.LFB46:
 811              		.cfi_startproc
 812              		@ args = 0, pretend = 0, frame = 0
 813              		@ frame_needed = 0, uses_anonymous_args = 0
 814              		@ link register save eliminated.
 815 0000 2B20     		movs	r0, #43
 816              		@ sp needed
 817 0002 7047     		bx	lr
 818              		.cfi_endproc
 819              	.LFE46:
 820              		.size	CyBle_Hal_pairing_keypress_notification_handler, .-CyBle_Hal_pairing_keypress_notification_h
 821              		.section	.text.CyBle_Hal_pairing_rand_handler,"ax",%progbits
 822              		.align	1
 823              		.global	CyBle_Hal_pairing_rand_handler
 824              		.code	16
 825              		.thumb_func
 826              		.type	CyBle_Hal_pairing_rand_handler, %function
 827              	CyBle_Hal_pairing_rand_handler:
 828              	.LFB44:
 829              		.cfi_startproc
ARM GAS  C:\Users\Petro\AppData\Local\Temp\cc0ZbO7Y.s 			page 25


 830              		@ args = 0, pretend = 0, frame = 0
 831              		@ frame_needed = 0, uses_anonymous_args = 0
 832              		@ link register save eliminated.
 833 0000 2B20     		movs	r0, #43
 834              		@ sp needed
 835 0002 7047     		bx	lr
 836              		.cfi_endproc
 837              	.LFE44:
 838              		.size	CyBle_Hal_pairing_rand_handler, .-CyBle_Hal_pairing_rand_handler
 839              		.section	.text.CyBle_Hal_pairing_confirm_handler,"ax",%progbits
 840              		.align	1
 841              		.global	CyBle_Hal_pairing_confirm_handler
 842              		.code	16
 843              		.thumb_func
 844              		.type	CyBle_Hal_pairing_confirm_handler, %function
 845              	CyBle_Hal_pairing_confirm_handler:
 846              	.LFB42:
 847              		.cfi_startproc
 848              		@ args = 0, pretend = 0, frame = 0
 849              		@ frame_needed = 0, uses_anonymous_args = 0
 850              		@ link register save eliminated.
 851 0000 2B20     		movs	r0, #43
 852              		@ sp needed
 853 0002 7047     		bx	lr
 854              		.cfi_endproc
 855              	.LFE42:
 856              		.size	CyBle_Hal_pairing_confirm_handler, .-CyBle_Hal_pairing_confirm_handler
 857              		.section	.text.CyBle_Hal_pairing_lr_confirming_handler,"ax",%progbits
 858              		.align	1
 859              		.global	CyBle_Hal_pairing_lr_confirming_handler
 860              		.code	16
 861              		.thumb_func
 862              		.type	CyBle_Hal_pairing_lr_confirming_handler, %function
 863              	CyBle_Hal_pairing_lr_confirming_handler:
 864              	.LFB40:
 865              		.cfi_startproc
 866              		@ args = 0, pretend = 0, frame = 0
 867              		@ frame_needed = 0, uses_anonymous_args = 0
 868              		@ link register save eliminated.
 869 0000 2B20     		movs	r0, #43
 870              		@ sp needed
 871 0002 7047     		bx	lr
 872              		.cfi_endproc
 873              	.LFE40:
 874              		.size	CyBle_Hal_pairing_lr_confirming_handler, .-CyBle_Hal_pairing_lr_confirming_handler
 875              		.section	.text.CyBle_Hal_pairing_sc_tbx_dhkey_generate_complete,"ax",%progbits
 876              		.align	1
 877              		.global	CyBle_Hal_pairing_sc_tbx_dhkey_generate_complete
 878              		.code	16
 879              		.thumb_func
 880              		.type	CyBle_Hal_pairing_sc_tbx_dhkey_generate_complete, %function
 881              	CyBle_Hal_pairing_sc_tbx_dhkey_generate_complete:
 882              	.LFB24:
 504:Generated_Source\PSoC4/ble_HAL_PVT.c **** 
 505:Generated_Source\PSoC4/ble_HAL_PVT.c **** /* Mapping functions for stack size optimization */
 506:Generated_Source\PSoC4/ble_HAL_PVT.c **** #if(CYBLE_MODE_PROFILE)
 507:Generated_Source\PSoC4/ble_HAL_PVT.c ****     
ARM GAS  C:\Users\Petro\AppData\Local\Temp\cc0ZbO7Y.s 			page 26


 508:Generated_Source\PSoC4/ble_HAL_PVT.c **** #if(CYBLE_SECURE_CONN_FEATURE_ENABLED)
 509:Generated_Source\PSoC4/ble_HAL_PVT.c ****     
 510:Generated_Source\PSoC4/ble_HAL_PVT.c ****     CYBLE_API_RESULT_T CyBle_Hal_pairing_local_public_key_handler(void *param)
 511:Generated_Source\PSoC4/ble_HAL_PVT.c ****     {
 512:Generated_Source\PSoC4/ble_HAL_PVT.c ****         return (CyBle_Hal_mapping_pairing_local_public_key_handler(param));
 513:Generated_Source\PSoC4/ble_HAL_PVT.c ****     }
 514:Generated_Source\PSoC4/ble_HAL_PVT.c ****      
 515:Generated_Source\PSoC4/ble_HAL_PVT.c ****     CYBLE_API_RESULT_T CyBle_Hal_pairing_remote_key_handler(void *param)
 516:Generated_Source\PSoC4/ble_HAL_PVT.c ****     {
 517:Generated_Source\PSoC4/ble_HAL_PVT.c ****         return (CyBle_Hal_mapping_pairing_remote_key_handler(param));
 518:Generated_Source\PSoC4/ble_HAL_PVT.c ****     }
 519:Generated_Source\PSoC4/ble_HAL_PVT.c ****      
 520:Generated_Source\PSoC4/ble_HAL_PVT.c ****     CYBLE_API_RESULT_T CyBle_Hal_pairing_dhkey_handler(void *param)
 521:Generated_Source\PSoC4/ble_HAL_PVT.c ****     {
 522:Generated_Source\PSoC4/ble_HAL_PVT.c ****         return (CyBle_Hal_mapping_pairing_dhkey_handler(param));
 523:Generated_Source\PSoC4/ble_HAL_PVT.c ****     }
 524:Generated_Source\PSoC4/ble_HAL_PVT.c **** 
 525:Generated_Source\PSoC4/ble_HAL_PVT.c ****     CYBLE_API_RESULT_T CyBle_Hal_pairing_dhkey_check_handler(void *param)
 526:Generated_Source\PSoC4/ble_HAL_PVT.c ****     {
 527:Generated_Source\PSoC4/ble_HAL_PVT.c ****         return (CyBle_Hal_mapping_pairing_dhkey_check_handler(param));
 528:Generated_Source\PSoC4/ble_HAL_PVT.c ****     }
 529:Generated_Source\PSoC4/ble_HAL_PVT.c **** 
 530:Generated_Source\PSoC4/ble_HAL_PVT.c ****     CYBLE_API_RESULT_T CyBle_Hal_pairing_keypress_notification_handler(void *param)
 531:Generated_Source\PSoC4/ble_HAL_PVT.c ****     {
 532:Generated_Source\PSoC4/ble_HAL_PVT.c ****         return (CyBle_Hal_mapping_pairing_keypress_notification_handler(param));
 533:Generated_Source\PSoC4/ble_HAL_PVT.c ****     }
 534:Generated_Source\PSoC4/ble_HAL_PVT.c **** 
 535:Generated_Source\PSoC4/ble_HAL_PVT.c ****     CYBLE_API_RESULT_T CyBle_Hal_pairing_rand_handler(void *param)
 536:Generated_Source\PSoC4/ble_HAL_PVT.c ****     {
 537:Generated_Source\PSoC4/ble_HAL_PVT.c ****         return (CyBle_Hal_mapping_pairing_rand_handler(param));
 538:Generated_Source\PSoC4/ble_HAL_PVT.c ****     }
 539:Generated_Source\PSoC4/ble_HAL_PVT.c **** 
 540:Generated_Source\PSoC4/ble_HAL_PVT.c ****     CYBLE_API_RESULT_T CyBle_Hal_pairing_confirm_handler(void *param)
 541:Generated_Source\PSoC4/ble_HAL_PVT.c ****     {
 542:Generated_Source\PSoC4/ble_HAL_PVT.c ****         return (CyBle_Hal_mapping_pairing_confirm_handler(param));
 543:Generated_Source\PSoC4/ble_HAL_PVT.c ****     }
 544:Generated_Source\PSoC4/ble_HAL_PVT.c **** 
 545:Generated_Source\PSoC4/ble_HAL_PVT.c ****     CYBLE_API_RESULT_T CyBle_Hal_pairing_lr_confirming_handler(void *param)
 546:Generated_Source\PSoC4/ble_HAL_PVT.c ****     {
 547:Generated_Source\PSoC4/ble_HAL_PVT.c ****         return (CyBle_Hal_mapping_pairing_lr_confirming_handler(param));
 548:Generated_Source\PSoC4/ble_HAL_PVT.c ****     }
 549:Generated_Source\PSoC4/ble_HAL_PVT.c ****     
 550:Generated_Source\PSoC4/ble_HAL_PVT.c ****     CYBLE_API_RESULT_T CyBle_Hal_pairing_sc_tbx_dhkey_generate_complete(void* param)
 551:Generated_Source\PSoC4/ble_HAL_PVT.c ****     {
 552:Generated_Source\PSoC4/ble_HAL_PVT.c ****         CyBle_Hal_mapping_tbx_dhkey_generate_complete(param);
 553:Generated_Source\PSoC4/ble_HAL_PVT.c ****         return (CYBLE_ERROR_OK);
 554:Generated_Source\PSoC4/ble_HAL_PVT.c ****     }
 555:Generated_Source\PSoC4/ble_HAL_PVT.c **** 
 556:Generated_Source\PSoC4/ble_HAL_PVT.c ****     CYBLE_API_RESULT_T CyBle_Hal_pairing_sc_tbx_local_pubkey_generate_complete(void)
 557:Generated_Source\PSoC4/ble_HAL_PVT.c ****     {
 558:Generated_Source\PSoC4/ble_HAL_PVT.c ****         CyBle_Hal_mapping_tbx_local_pubkey_generate_complete();
 559:Generated_Source\PSoC4/ble_HAL_PVT.c ****         return (CYBLE_ERROR_OK);
 560:Generated_Source\PSoC4/ble_HAL_PVT.c ****     }
 561:Generated_Source\PSoC4/ble_HAL_PVT.c **** 
 562:Generated_Source\PSoC4/ble_HAL_PVT.c ****     CYBLE_API_RESULT_T CyBle_Hal_pairing_sc_tbx_generate_local_P256_public_key(uint8 param)
 563:Generated_Source\PSoC4/ble_HAL_PVT.c ****     {
 564:Generated_Source\PSoC4/ble_HAL_PVT.c ****         return (CyBle_Hal_mapping_tbx_generate_local_P256_public_key(param));
ARM GAS  C:\Users\Petro\AppData\Local\Temp\cc0ZbO7Y.s 			page 27


 565:Generated_Source\PSoC4/ble_HAL_PVT.c ****     }
 566:Generated_Source\PSoC4/ble_HAL_PVT.c **** 
 567:Generated_Source\PSoC4/ble_HAL_PVT.c ****     CYBLE_API_RESULT_T CyBle_Hal_pairing_sc_tbx_generate_DHkey(void  * param1, void  * param2)
 568:Generated_Source\PSoC4/ble_HAL_PVT.c ****     {
 569:Generated_Source\PSoC4/ble_HAL_PVT.c ****         return (CyBle_Hal_mapping_tbx_generate_DHkey(param1, param2));
 570:Generated_Source\PSoC4/ble_HAL_PVT.c ****     }
 571:Generated_Source\PSoC4/ble_HAL_PVT.c **** 
 572:Generated_Source\PSoC4/ble_HAL_PVT.c ****     void CyBle_Hal_smp_sc_cmac_complete(void)
 573:Generated_Source\PSoC4/ble_HAL_PVT.c ****     {
 574:Generated_Source\PSoC4/ble_HAL_PVT.c ****        CyBle_Hal_Mapping_smp_sc_cmac_complete();
 575:Generated_Source\PSoC4/ble_HAL_PVT.c ****     }
 576:Generated_Source\PSoC4/ble_HAL_PVT.c **** 
 577:Generated_Source\PSoC4/ble_HAL_PVT.c ****     CYBLE_API_RESULT_T CyBle_Hal_se_smp_sc_user_passkey_handler(void *param1, void *param2)
 578:Generated_Source\PSoC4/ble_HAL_PVT.c ****     {
 579:Generated_Source\PSoC4/ble_HAL_PVT.c ****         return (CyBle_Hal_mapping_se_smp_sc_user_passkey_handler(param1, param2));
 580:Generated_Source\PSoC4/ble_HAL_PVT.c ****     }
 581:Generated_Source\PSoC4/ble_HAL_PVT.c **** 
 582:Generated_Source\PSoC4/ble_HAL_PVT.c ****     void CyBle_Hal_EccPointMult(void)
 583:Generated_Source\PSoC4/ble_HAL_PVT.c ****     {
 584:Generated_Source\PSoC4/ble_HAL_PVT.c ****         CyBle_Hal_Mapping_EccPointMult();
 585:Generated_Source\PSoC4/ble_HAL_PVT.c ****     }
 586:Generated_Source\PSoC4/ble_HAL_PVT.c ****     
 587:Generated_Source\PSoC4/ble_HAL_PVT.c **** #else     /* If feature is not required, return error. */
 588:Generated_Source\PSoC4/ble_HAL_PVT.c ****     
 589:Generated_Source\PSoC4/ble_HAL_PVT.c ****     CYBLE_API_RESULT_T CyBle_Hal_pairing_local_public_key_handler(void *param CYBLE_UNUSED_ATTR)
 590:Generated_Source\PSoC4/ble_HAL_PVT.c ****     {
 591:Generated_Source\PSoC4/ble_HAL_PVT.c ****         return (CYBLE_ERROR_UNSUPPORTED_FEATURE_OR_PARAMETER_VALUE);
 592:Generated_Source\PSoC4/ble_HAL_PVT.c ****     }
 593:Generated_Source\PSoC4/ble_HAL_PVT.c ****      
 594:Generated_Source\PSoC4/ble_HAL_PVT.c ****     CYBLE_API_RESULT_T CyBle_Hal_pairing_remote_key_handler(void *param CYBLE_UNUSED_ATTR)
 595:Generated_Source\PSoC4/ble_HAL_PVT.c ****     {
 596:Generated_Source\PSoC4/ble_HAL_PVT.c ****         return (CYBLE_ERROR_UNSUPPORTED_FEATURE_OR_PARAMETER_VALUE);
 597:Generated_Source\PSoC4/ble_HAL_PVT.c ****     }
 598:Generated_Source\PSoC4/ble_HAL_PVT.c ****      
 599:Generated_Source\PSoC4/ble_HAL_PVT.c ****     CYBLE_API_RESULT_T CyBle_Hal_pairing_dhkey_handler(void *param CYBLE_UNUSED_ATTR)
 600:Generated_Source\PSoC4/ble_HAL_PVT.c ****     {
 601:Generated_Source\PSoC4/ble_HAL_PVT.c ****         return (CYBLE_ERROR_UNSUPPORTED_FEATURE_OR_PARAMETER_VALUE);
 602:Generated_Source\PSoC4/ble_HAL_PVT.c ****     }
 603:Generated_Source\PSoC4/ble_HAL_PVT.c **** 
 604:Generated_Source\PSoC4/ble_HAL_PVT.c ****     CYBLE_API_RESULT_T CyBle_Hal_pairing_dhkey_check_handler(void *param CYBLE_UNUSED_ATTR)
 605:Generated_Source\PSoC4/ble_HAL_PVT.c ****     {
 606:Generated_Source\PSoC4/ble_HAL_PVT.c ****         return (CYBLE_ERROR_UNSUPPORTED_FEATURE_OR_PARAMETER_VALUE);
 607:Generated_Source\PSoC4/ble_HAL_PVT.c ****     }
 608:Generated_Source\PSoC4/ble_HAL_PVT.c **** 
 609:Generated_Source\PSoC4/ble_HAL_PVT.c ****     CYBLE_API_RESULT_T CyBle_Hal_pairing_keypress_notification_handler(void *param CYBLE_UNUSED_ATT
 610:Generated_Source\PSoC4/ble_HAL_PVT.c ****     {
 611:Generated_Source\PSoC4/ble_HAL_PVT.c ****         return (CYBLE_ERROR_UNSUPPORTED_FEATURE_OR_PARAMETER_VALUE);
 612:Generated_Source\PSoC4/ble_HAL_PVT.c ****     }
 613:Generated_Source\PSoC4/ble_HAL_PVT.c **** 
 614:Generated_Source\PSoC4/ble_HAL_PVT.c ****     CYBLE_API_RESULT_T CyBle_Hal_pairing_rand_handler(void *param CYBLE_UNUSED_ATTR)
 615:Generated_Source\PSoC4/ble_HAL_PVT.c ****     {
 616:Generated_Source\PSoC4/ble_HAL_PVT.c ****         return (CYBLE_ERROR_UNSUPPORTED_FEATURE_OR_PARAMETER_VALUE);
 617:Generated_Source\PSoC4/ble_HAL_PVT.c ****     }
 618:Generated_Source\PSoC4/ble_HAL_PVT.c ****     
 619:Generated_Source\PSoC4/ble_HAL_PVT.c ****     CYBLE_API_RESULT_T CyBle_Hal_pairing_confirm_handler(void *param CYBLE_UNUSED_ATTR)
 620:Generated_Source\PSoC4/ble_HAL_PVT.c ****     {
 621:Generated_Source\PSoC4/ble_HAL_PVT.c ****         return (CYBLE_ERROR_UNSUPPORTED_FEATURE_OR_PARAMETER_VALUE);
ARM GAS  C:\Users\Petro\AppData\Local\Temp\cc0ZbO7Y.s 			page 28


 622:Generated_Source\PSoC4/ble_HAL_PVT.c ****     }
 623:Generated_Source\PSoC4/ble_HAL_PVT.c **** 
 624:Generated_Source\PSoC4/ble_HAL_PVT.c ****     CYBLE_API_RESULT_T CyBle_Hal_pairing_lr_confirming_handler(void *param CYBLE_UNUSED_ATTR)
 625:Generated_Source\PSoC4/ble_HAL_PVT.c ****     {
 626:Generated_Source\PSoC4/ble_HAL_PVT.c ****         return (CYBLE_ERROR_UNSUPPORTED_FEATURE_OR_PARAMETER_VALUE);
 627:Generated_Source\PSoC4/ble_HAL_PVT.c ****     }
 628:Generated_Source\PSoC4/ble_HAL_PVT.c ****     
 629:Generated_Source\PSoC4/ble_HAL_PVT.c ****     CYBLE_API_RESULT_T CyBle_Hal_pairing_sc_tbx_dhkey_generate_complete(void* param CYBLE_UNUSED_AT
 630:Generated_Source\PSoC4/ble_HAL_PVT.c ****     {
 883              		.loc 1 630 0
 884              		.cfi_startproc
 885              		@ args = 0, pretend = 0, frame = 0
 886              		@ frame_needed = 0, uses_anonymous_args = 0
 887              		@ link register save eliminated.
 888              	.LVL67:
 631:Generated_Source\PSoC4/ble_HAL_PVT.c ****         return (CYBLE_ERROR_UNSUPPORTED_FEATURE_OR_PARAMETER_VALUE);
 632:Generated_Source\PSoC4/ble_HAL_PVT.c ****     }
 889              		.loc 1 632 0
 890 0000 2B20     		movs	r0, #43
 891              	.LVL68:
 892              		@ sp needed
 893 0002 7047     		bx	lr
 894              		.cfi_endproc
 895              	.LFE24:
 896              		.size	CyBle_Hal_pairing_sc_tbx_dhkey_generate_complete, .-CyBle_Hal_pairing_sc_tbx_dhkey_generate_
 897              		.section	.text.CyBle_Hal_pairing_sc_tbx_local_pubkey_generate_complete,"ax",%progbits
 898              		.align	1
 899              		.global	CyBle_Hal_pairing_sc_tbx_local_pubkey_generate_complete
 900              		.code	16
 901              		.thumb_func
 902              		.type	CyBle_Hal_pairing_sc_tbx_local_pubkey_generate_complete, %function
 903              	CyBle_Hal_pairing_sc_tbx_local_pubkey_generate_complete:
 904              	.LFB25:
 633:Generated_Source\PSoC4/ble_HAL_PVT.c **** 
 634:Generated_Source\PSoC4/ble_HAL_PVT.c ****     CYBLE_API_RESULT_T CyBle_Hal_pairing_sc_tbx_local_pubkey_generate_complete(void)
 635:Generated_Source\PSoC4/ble_HAL_PVT.c ****     {
 905              		.loc 1 635 0
 906              		.cfi_startproc
 907              		@ args = 0, pretend = 0, frame = 0
 908              		@ frame_needed = 0, uses_anonymous_args = 0
 909              		@ link register save eliminated.
 636:Generated_Source\PSoC4/ble_HAL_PVT.c ****         return (CYBLE_ERROR_UNSUPPORTED_FEATURE_OR_PARAMETER_VALUE);
 637:Generated_Source\PSoC4/ble_HAL_PVT.c ****     }
 910              		.loc 1 637 0
 911 0000 2B20     		movs	r0, #43
 912              		@ sp needed
 913 0002 7047     		bx	lr
 914              		.cfi_endproc
 915              	.LFE25:
 916              		.size	CyBle_Hal_pairing_sc_tbx_local_pubkey_generate_complete, .-CyBle_Hal_pairing_sc_tbx_local_pu
 917              		.section	.text.CyBle_Hal_pairing_sc_tbx_generate_local_P256_public_key,"ax",%progbits
 918              		.align	1
 919              		.global	CyBle_Hal_pairing_sc_tbx_generate_local_P256_public_key
 920              		.code	16
 921              		.thumb_func
 922              		.type	CyBle_Hal_pairing_sc_tbx_generate_local_P256_public_key, %function
 923              	CyBle_Hal_pairing_sc_tbx_generate_local_P256_public_key:
ARM GAS  C:\Users\Petro\AppData\Local\Temp\cc0ZbO7Y.s 			page 29


 924              	.LFB26:
 638:Generated_Source\PSoC4/ble_HAL_PVT.c **** 
 639:Generated_Source\PSoC4/ble_HAL_PVT.c ****     CYBLE_API_RESULT_T CyBle_Hal_pairing_sc_tbx_generate_local_P256_public_key(uint8 param CYBLE_UN
 640:Generated_Source\PSoC4/ble_HAL_PVT.c ****     {
 925              		.loc 1 640 0
 926              		.cfi_startproc
 927              		@ args = 0, pretend = 0, frame = 0
 928              		@ frame_needed = 0, uses_anonymous_args = 0
 929              		@ link register save eliminated.
 930              	.LVL69:
 641:Generated_Source\PSoC4/ble_HAL_PVT.c ****         return (CYBLE_ERROR_UNSUPPORTED_FEATURE_OR_PARAMETER_VALUE);
 642:Generated_Source\PSoC4/ble_HAL_PVT.c ****     }
 931              		.loc 1 642 0
 932 0000 2B20     		movs	r0, #43
 933              	.LVL70:
 934              		@ sp needed
 935 0002 7047     		bx	lr
 936              		.cfi_endproc
 937              	.LFE26:
 938              		.size	CyBle_Hal_pairing_sc_tbx_generate_local_P256_public_key, .-CyBle_Hal_pairing_sc_tbx_generate
 939              		.section	.text.CyBle_Hal_pairing_sc_tbx_generate_DHkey,"ax",%progbits
 940              		.align	1
 941              		.global	CyBle_Hal_pairing_sc_tbx_generate_DHkey
 942              		.code	16
 943              		.thumb_func
 944              		.type	CyBle_Hal_pairing_sc_tbx_generate_DHkey, %function
 945              	CyBle_Hal_pairing_sc_tbx_generate_DHkey:
 946              	.LFB38:
 947              		.cfi_startproc
 948              		@ args = 0, pretend = 0, frame = 0
 949              		@ frame_needed = 0, uses_anonymous_args = 0
 950              		@ link register save eliminated.
 951 0000 2B20     		movs	r0, #43
 952              		@ sp needed
 953 0002 7047     		bx	lr
 954              		.cfi_endproc
 955              	.LFE38:
 956              		.size	CyBle_Hal_pairing_sc_tbx_generate_DHkey, .-CyBle_Hal_pairing_sc_tbx_generate_DHkey
 957              		.section	.text.CyBle_Hal_smp_sc_cmac_complete,"ax",%progbits
 958              		.align	1
 959              		.global	CyBle_Hal_smp_sc_cmac_complete
 960              		.code	16
 961              		.thumb_func
 962              		.type	CyBle_Hal_smp_sc_cmac_complete, %function
 963              	CyBle_Hal_smp_sc_cmac_complete:
 964              	.LFB36:
 965              		.cfi_startproc
 966              		@ args = 0, pretend = 0, frame = 0
 967              		@ frame_needed = 0, uses_anonymous_args = 0
 968              		@ link register save eliminated.
 969              		@ sp needed
 970 0000 7047     		bx	lr
 971              		.cfi_endproc
 972              	.LFE36:
 973              		.size	CyBle_Hal_smp_sc_cmac_complete, .-CyBle_Hal_smp_sc_cmac_complete
 974              		.section	.text.CyBle_Hal_se_smp_sc_user_passkey_handler,"ax",%progbits
 975              		.align	1
ARM GAS  C:\Users\Petro\AppData\Local\Temp\cc0ZbO7Y.s 			page 30


 976              		.global	CyBle_Hal_se_smp_sc_user_passkey_handler
 977              		.code	16
 978              		.thumb_func
 979              		.type	CyBle_Hal_se_smp_sc_user_passkey_handler, %function
 980              	CyBle_Hal_se_smp_sc_user_passkey_handler:
 981              	.LFB29:
 643:Generated_Source\PSoC4/ble_HAL_PVT.c **** 
 644:Generated_Source\PSoC4/ble_HAL_PVT.c ****     CYBLE_API_RESULT_T CyBle_Hal_pairing_sc_tbx_generate_DHkey(void  * param1 CYBLE_UNUSED_ATTR,
 645:Generated_Source\PSoC4/ble_HAL_PVT.c ****                                                                void  * param2 CYBLE_UNUSED_ATTR)
 646:Generated_Source\PSoC4/ble_HAL_PVT.c ****     {
 647:Generated_Source\PSoC4/ble_HAL_PVT.c ****         return (CYBLE_ERROR_UNSUPPORTED_FEATURE_OR_PARAMETER_VALUE);
 648:Generated_Source\PSoC4/ble_HAL_PVT.c ****     }
 649:Generated_Source\PSoC4/ble_HAL_PVT.c **** 
 650:Generated_Source\PSoC4/ble_HAL_PVT.c ****     void CyBle_Hal_smp_sc_cmac_complete(void)
 651:Generated_Source\PSoC4/ble_HAL_PVT.c ****     {
 652:Generated_Source\PSoC4/ble_HAL_PVT.c ****     }
 653:Generated_Source\PSoC4/ble_HAL_PVT.c **** 
 654:Generated_Source\PSoC4/ble_HAL_PVT.c ****     CYBLE_API_RESULT_T CyBle_Hal_se_smp_sc_user_passkey_handler(void  * param1 CYBLE_UNUSED_ATTR,
 655:Generated_Source\PSoC4/ble_HAL_PVT.c ****                                                                 void  * param2 CYBLE_UNUSED_ATTR)
 656:Generated_Source\PSoC4/ble_HAL_PVT.c ****     {
 982              		.loc 1 656 0
 983              		.cfi_startproc
 984              		@ args = 0, pretend = 0, frame = 0
 985              		@ frame_needed = 0, uses_anonymous_args = 0
 986              		@ link register save eliminated.
 987              	.LVL71:
 657:Generated_Source\PSoC4/ble_HAL_PVT.c ****         return (CYBLE_ERROR_UNSUPPORTED_FEATURE_OR_PARAMETER_VALUE);
 658:Generated_Source\PSoC4/ble_HAL_PVT.c ****     }
 988              		.loc 1 658 0
 989 0000 2B20     		movs	r0, #43
 990              	.LVL72:
 991              		@ sp needed
 992 0002 7047     		bx	lr
 993              		.cfi_endproc
 994              	.LFE29:
 995              		.size	CyBle_Hal_se_smp_sc_user_passkey_handler, .-CyBle_Hal_se_smp_sc_user_passkey_handler
 996              		.section	.text.CyBle_Hal_EccPointMult,"ax",%progbits
 997              		.align	1
 998              		.global	CyBle_Hal_EccPointMult
 999              		.code	16
 1000              		.thumb_func
 1001              		.type	CyBle_Hal_EccPointMult, %function
 1002              	CyBle_Hal_EccPointMult:
 1003              	.LFB30:
 659:Generated_Source\PSoC4/ble_HAL_PVT.c **** 
 660:Generated_Source\PSoC4/ble_HAL_PVT.c ****     void CyBle_Hal_EccPointMult(void)
 661:Generated_Source\PSoC4/ble_HAL_PVT.c ****     {
 1004              		.loc 1 661 0
 1005              		.cfi_startproc
 1006              		@ args = 0, pretend = 0, frame = 0
 1007              		@ frame_needed = 0, uses_anonymous_args = 0
 1008              		@ link register save eliminated.
 662:Generated_Source\PSoC4/ble_HAL_PVT.c ****     }
 1009              		.loc 1 662 0
 1010              		@ sp needed
 1011 0000 7047     		bx	lr
 1012              		.cfi_endproc
ARM GAS  C:\Users\Petro\AppData\Local\Temp\cc0ZbO7Y.s 			page 31


 1013              	.LFE30:
 1014              		.size	CyBle_Hal_EccPointMult, .-CyBle_Hal_EccPointMult
 1015              		.section	.text.BLE_CMP_FTR_API_lec_hci_handle_read_local_P256_public_key_command,"ax",%progbits
 1016              		.align	1
 1017              		.global	BLE_CMP_FTR_API_lec_hci_handle_read_local_P256_public_key_command
 1018              		.code	16
 1019              		.thumb_func
 1020              		.type	BLE_CMP_FTR_API_lec_hci_handle_read_local_P256_public_key_command, %function
 1021              	BLE_CMP_FTR_API_lec_hci_handle_read_local_P256_public_key_command:
 1022              	.LFB34:
 1023              		.cfi_startproc
 1024              		@ args = 0, pretend = 0, frame = 0
 1025              		@ frame_needed = 0, uses_anonymous_args = 0
 1026              		@ link register save eliminated.
 1027 0000 0120     		movs	r0, #1
 1028              		@ sp needed
 1029 0002 7047     		bx	lr
 1030              		.cfi_endproc
 1031              	.LFE34:
 1032              		.size	BLE_CMP_FTR_API_lec_hci_handle_read_local_P256_public_key_command, .-BLE_CMP_FTR_API_lec_hci
 1033              		.section	.text.BLE_CMP_FTR_API_lec_hci_handle_generate_DHkey_command,"ax",%progbits
 1034              		.align	1
 1035              		.global	BLE_CMP_FTR_API_lec_hci_handle_generate_DHkey_command
 1036              		.code	16
 1037              		.thumb_func
 1038              		.type	BLE_CMP_FTR_API_lec_hci_handle_generate_DHkey_command, %function
 1039              	BLE_CMP_FTR_API_lec_hci_handle_generate_DHkey_command:
 1040              	.LFB32:
 663:Generated_Source\PSoC4/ble_HAL_PVT.c ****     
 664:Generated_Source\PSoC4/ble_HAL_PVT.c **** #endif /* (CYBLE_SECURE_CONN_FEATURE_ENABLED) */
 665:Generated_Source\PSoC4/ble_HAL_PVT.c **** 
 666:Generated_Source\PSoC4/ble_HAL_PVT.c **** #endif /* CYBLE_MODE_PROFILE */
 667:Generated_Source\PSoC4/ble_HAL_PVT.c **** 
 668:Generated_Source\PSoC4/ble_HAL_PVT.c **** #if(CYBLE_SECURE_CONN_FEATURE_ENABLED)
 669:Generated_Source\PSoC4/ble_HAL_PVT.c ****     
 670:Generated_Source\PSoC4/ble_HAL_PVT.c ****     uint16 BLE_CMP_FTR_API_lec_hci_handle_read_local_P256_public_key_command(void *param)
 671:Generated_Source\PSoC4/ble_HAL_PVT.c ****     {
 672:Generated_Source\PSoC4/ble_HAL_PVT.c ****         return (BLE_STK_FTR_API_lec_hci_handle_read_local_P256_public_key_command(param));
 673:Generated_Source\PSoC4/ble_HAL_PVT.c ****     }
 674:Generated_Source\PSoC4/ble_HAL_PVT.c ****     
 675:Generated_Source\PSoC4/ble_HAL_PVT.c ****     uint16 BLE_CMP_FTR_API_lec_hci_handle_generate_DHkey_command(void *param)
 676:Generated_Source\PSoC4/ble_HAL_PVT.c ****     {
 677:Generated_Source\PSoC4/ble_HAL_PVT.c ****         return (BLE_STK_FTR_API_lec_hci_handle_generate_DHkey_command(param));
 678:Generated_Source\PSoC4/ble_HAL_PVT.c ****     }
 679:Generated_Source\PSoC4/ble_HAL_PVT.c **** 
 680:Generated_Source\PSoC4/ble_HAL_PVT.c **** #else     /* If feature is not required, return error. */
 681:Generated_Source\PSoC4/ble_HAL_PVT.c ****     
 682:Generated_Source\PSoC4/ble_HAL_PVT.c ****     uint16 BLE_CMP_FTR_API_lec_hci_handle_read_local_P256_public_key_command(void *param CYBLE_UNUS
 683:Generated_Source\PSoC4/ble_HAL_PVT.c ****     {
 684:Generated_Source\PSoC4/ble_HAL_PVT.c ****         return (CYBLE_UNKNOWN_HCI_COMMAND_ERROR);
 685:Generated_Source\PSoC4/ble_HAL_PVT.c ****     }
 686:Generated_Source\PSoC4/ble_HAL_PVT.c ****     
 687:Generated_Source\PSoC4/ble_HAL_PVT.c ****     uint16 BLE_CMP_FTR_API_lec_hci_handle_generate_DHkey_command(void *param CYBLE_UNUSED_ATTR)
 688:Generated_Source\PSoC4/ble_HAL_PVT.c ****     {
 1041              		.loc 1 688 0
 1042              		.cfi_startproc
 1043              		@ args = 0, pretend = 0, frame = 0
ARM GAS  C:\Users\Petro\AppData\Local\Temp\cc0ZbO7Y.s 			page 32


 1044              		@ frame_needed = 0, uses_anonymous_args = 0
 1045              		@ link register save eliminated.
 1046              	.LVL73:
 689:Generated_Source\PSoC4/ble_HAL_PVT.c ****         return (CYBLE_UNKNOWN_HCI_COMMAND_ERROR);
 690:Generated_Source\PSoC4/ble_HAL_PVT.c ****     }
 1047              		.loc 1 690 0
 1048 0000 0120     		movs	r0, #1
 1049              	.LVL74:
 1050              		@ sp needed
 1051 0002 7047     		bx	lr
 1052              		.cfi_endproc
 1053              	.LFE32:
 1054              		.size	BLE_CMP_FTR_API_lec_hci_handle_generate_DHkey_command, .-BLE_CMP_FTR_API_lec_hci_handle_gene
 1055              		.text
 1056              	.Letext0:
 1057              		.file 2 "Generated_Source\\PSoC4\\cytypes.h"
 1058              		.file 3 "Generated_Source\\PSoC4\\ble_Stack.h"
 1059              		.file 4 "Generated_Source\\PSoC4\\CyFlash.h"
 1060              		.file 5 "Generated_Source\\PSoC4\\CyLib.h"
 1061              		.file 6 "Generated_Source\\PSoC4\\ble_bless_isr.h"