ARM GAS  C:\Users\Petro\AppData\Local\Temp\ccv8ePIG.s 			page 1


   1              		.syntax unified
   2              		.cpu cortex-m0
   3              		.fpu softvfp
   4              		.eabi_attribute 20, 1
   5              		.eabi_attribute 21, 1
   6              		.eabi_attribute 23, 3
   7              		.eabi_attribute 24, 1
   8              		.eabi_attribute 25, 1
   9              		.eabi_attribute 26, 1
  10              		.eabi_attribute 30, 4
  11              		.eabi_attribute 34, 0
  12              		.eabi_attribute 18, 4
  13              		.thumb
  14              		.syntax unified
  15              		.file	"bluetooth.c"
  16              		.text
  17              	.Ltext0:
  18              		.cfi_sections	.debug_frame
  19              		.section	.text.updateData,"ax",%progbits
  20              		.align	1
  21              		.global	updateData
  22              		.code	16
  23              		.thumb_func
  24              		.type	updateData, %function
  25              	updateData:
  26              	.LFB64:
  27              		.file 1 "..\\..\\common\\lib\\lib_BLE\\bluetooth.c"
   1:..\..\common\lib\lib_BLE/bluetooth.c **** #include <..\..\common\lib\lib_BLE/bluetooth.h>
   2:..\..\common\lib\lib_BLE/bluetooth.c **** #include "lib_Network\network.h"
   3:..\..\common\lib\lib_BLE/bluetooth.c **** #include "stdio.h"
   4:..\..\common\lib\lib_BLE/bluetooth.c **** #include "project.h"
   5:..\..\common\lib\lib_BLE/bluetooth.c **** 
   6:..\..\common\lib\lib_BLE/bluetooth.c **** #define LENGHT_DATA_BUFFER 4
   7:..\..\common\lib\lib_BLE/bluetooth.c **** #define LENGHT_STATUS_BUFFER 7
   8:..\..\common\lib\lib_BLE/bluetooth.c **** 
   9:..\..\common\lib\lib_BLE/bluetooth.c **** int notifycaiton;
  10:..\..\common\lib\lib_BLE/bluetooth.c **** uint32_t bleUnixTime = 0;
  11:..\..\common\lib\lib_BLE/bluetooth.c **** uint8_t adminIsOnly = 0;
  12:..\..\common\lib\lib_BLE/bluetooth.c **** 
  13:..\..\common\lib\lib_BLE/bluetooth.c **** uint16_t sendIdSkier = 0;
  14:..\..\common\lib\lib_BLE/bluetooth.c **** uint16_t sendBufferStart[LENGHT_DATA_BUFFER];
  15:..\..\common\lib\lib_BLE/bluetooth.c **** uint16_t sendBufferFinish[LENGHT_DATA_BUFFER];
  16:..\..\common\lib\lib_BLE/bluetooth.c **** uint16_t sendBufferResult[LENGHT_DATA_BUFFER];
  17:..\..\common\lib\lib_BLE/bluetooth.c **** uint8_t sendBufferStatus[LENGHT_STATUS_BUFFER];
  18:..\..\common\lib\lib_BLE/bluetooth.c **** 
  19:..\..\common\lib\lib_BLE/bluetooth.c **** char uartBuffer[30];
  20:..\..\common\lib\lib_BLE/bluetooth.c **** 
  21:..\..\common\lib\lib_BLE/bluetooth.c **** void updateData(void);
  22:..\..\common\lib\lib_BLE/bluetooth.c **** 
  23:..\..\common\lib\lib_BLE/bluetooth.c **** 
  24:..\..\common\lib\lib_BLE/bluetooth.c **** void BleCallBack(uint32 event, void* eventParam)
  25:..\..\common\lib\lib_BLE/bluetooth.c **** {
  26:..\..\common\lib\lib_BLE/bluetooth.c ****     CYBLE_GATTS_WRITE_REQ_PARAM_T *wrReqParam;
  27:..\..\common\lib\lib_BLE/bluetooth.c **** 
  28:..\..\common\lib\lib_BLE/bluetooth.c ****     switch(event)
  29:..\..\common\lib\lib_BLE/bluetooth.c ****     {
  30:..\..\common\lib\lib_BLE/bluetooth.c ****         /* if there is a disconnect or the stack just turned on from a reset then start the adverti
ARM GAS  C:\Users\Petro\AppData\Local\Temp\ccv8ePIG.s 			page 2


  31:..\..\common\lib\lib_BLE/bluetooth.c ****         case CYBLE_EVT_STACK_ON:
  32:..\..\common\lib\lib_BLE/bluetooth.c ****         case CYBLE_EVT_GAP_DEVICE_DISCONNECTED:
  33:..\..\common\lib\lib_BLE/bluetooth.c ****             notifycaiton = 0;
  34:..\..\common\lib\lib_BLE/bluetooth.c ****             CyBle_GappStartAdvertisement(CYBLE_ADVERTISING_FAST);
  35:..\..\common\lib\lib_BLE/bluetooth.c ****             pwm_Start();
  36:..\..\common\lib\lib_BLE/bluetooth.c ****         break;
  37:..\..\common\lib\lib_BLE/bluetooth.c ****         
  38:..\..\common\lib\lib_BLE/bluetooth.c ****         /* when a connection is made*/    
  39:..\..\common\lib\lib_BLE/bluetooth.c ****         case CYBLE_EVT_GATT_CONNECT_IND:
  40:..\..\common\lib\lib_BLE/bluetooth.c ****             pwm_Stop();
  41:..\..\common\lib\lib_BLE/bluetooth.c ****             updateData();
  42:..\..\common\lib\lib_BLE/bluetooth.c **** 		break;
  43:..\..\common\lib\lib_BLE/bluetooth.c **** 
  44:..\..\common\lib\lib_BLE/bluetooth.c ****         /* handle a write request */
  45:..\..\common\lib\lib_BLE/bluetooth.c ****         case CYBLE_EVT_GATTS_WRITE_REQ:
  46:..\..\common\lib\lib_BLE/bluetooth.c ****             wrReqParam = (CYBLE_GATTS_WRITE_REQ_PARAM_T *) eventParam;	
  47:..\..\common\lib\lib_BLE/bluetooth.c ****             
  48:..\..\common\lib\lib_BLE/bluetooth.c ****             /* request write the unixTime value */
  49:..\..\common\lib\lib_BLE/bluetooth.c ****             if(wrReqParam->handleValPair.attrHandle == CYBLE_SFSYSTEMSERVICE_UNIXTIME_CHAR_HANDLE)
  50:..\..\common\lib\lib_BLE/bluetooth.c ****             {
  51:..\..\common\lib\lib_BLE/bluetooth.c ****                 /* only update the value and write the response if the requested write is allowed *
  52:..\..\common\lib\lib_BLE/bluetooth.c ****                 if(CYBLE_GATT_ERR_NONE == CyBle_GattsWriteAttributeValue(&wrReqParam->handleValPair
  53:..\..\common\lib\lib_BLE/bluetooth.c ****                 {
  54:..\..\common\lib\lib_BLE/bluetooth.c ****                     int i;
  55:..\..\common\lib\lib_BLE/bluetooth.c ****                     bleUnixTime = 0;
  56:..\..\common\lib\lib_BLE/bluetooth.c ****                     for(i=3;i>=0;i--)
  57:..\..\common\lib\lib_BLE/bluetooth.c ****                     {
  58:..\..\common\lib\lib_BLE/bluetooth.c ****                         uint8_t tmpData;
  59:..\..\common\lib\lib_BLE/bluetooth.c ****                         tmpData = wrReqParam->handleValPair.value.val[i];
  60:..\..\common\lib\lib_BLE/bluetooth.c ****                         bleUnixTime = (bleUnixTime << 8) | tmpData;
  61:..\..\common\lib\lib_BLE/bluetooth.c ****                     }
  62:..\..\common\lib\lib_BLE/bluetooth.c ****                     
  63:..\..\common\lib\lib_BLE/bluetooth.c ****                     /*+2 hour - ukraine*/
  64:..\..\common\lib\lib_BLE/bluetooth.c ****                     bleUnixTime += 7200;
  65:..\..\common\lib\lib_BLE/bluetooth.c ****                     #ifdef DEBUG_BLE
  66:..\..\common\lib\lib_BLE/bluetooth.c ****                         sprintf(uartBuffer,"unix: %d",bleUnixTime);
  67:..\..\common\lib\lib_BLE/bluetooth.c ****                         SW_UART_DEBUG_PutString(uartBuffer);
  68:..\..\common\lib\lib_BLE/bluetooth.c ****                     #endif
  69:..\..\common\lib\lib_BLE/bluetooth.c ****                   
  70:..\..\common\lib\lib_BLE/bluetooth.c ****                     CyBle_GattsWriteRsp(cyBle_connHandle);
  71:..\..\common\lib\lib_BLE/bluetooth.c ****                 }
  72:..\..\common\lib\lib_BLE/bluetooth.c ****             }
  73:..\..\common\lib\lib_BLE/bluetooth.c ****             
  74:..\..\common\lib\lib_BLE/bluetooth.c **** //            /* request write the Admin only value */
  75:..\..\common\lib\lib_BLE/bluetooth.c ****             if(wrReqParam->handleValPair.attrHandle == CYBLE_SFSYSTEMSERVICE_ADMINONLY_CHAR_HANDLE)
  76:..\..\common\lib\lib_BLE/bluetooth.c ****             {
  77:..\..\common\lib\lib_BLE/bluetooth.c ****                 /* only update the value and write the response if the requested write is allowed *
  78:..\..\common\lib\lib_BLE/bluetooth.c ****                 if(CYBLE_GATT_ERR_NONE == CyBle_GattsWriteAttributeValue(&wrReqParam->handleValPair
  79:..\..\common\lib\lib_BLE/bluetooth.c ****                 {
  80:..\..\common\lib\lib_BLE/bluetooth.c ****                     adminIsOnly = wrReqParam->handleValPair.value.val[0];
  81:..\..\common\lib\lib_BLE/bluetooth.c ****                     CyBle_GattsWriteRsp(cyBle_connHandle);
  82:..\..\common\lib\lib_BLE/bluetooth.c ****                 }
  83:..\..\common\lib\lib_BLE/bluetooth.c ****             }
  84:..\..\common\lib\lib_BLE/bluetooth.c ****             
  85:..\..\common\lib\lib_BLE/bluetooth.c ****             /* request to update the  notification */
  86:..\..\common\lib\lib_BLE/bluetooth.c ****             if(wrReqParam->handleValPair.attrHandle == CYBLE_SFSYSTEMSERVICE_ID_ID_CCCD_DESC_HANDLE
  87:..\..\common\lib\lib_BLE/bluetooth.c ****             wrReqParam->handleValPair.attrHandle == CYBLE_SFSYSTEMSERVICE_TIME_START_TIMESTARTCCCD_
ARM GAS  C:\Users\Petro\AppData\Local\Temp\ccv8ePIG.s 			page 3


  88:..\..\common\lib\lib_BLE/bluetooth.c ****             wrReqParam->handleValPair.attrHandle == CYBLE_SFSYSTEMSERVICE_TIME_FINISH_TIMEFINISHCCC
  89:..\..\common\lib\lib_BLE/bluetooth.c ****             wrReqParam->handleValPair.attrHandle == CYBLE_SFSYSTEMSERVICE_TIME_RESULT_TIMERESULTCCC
  90:..\..\common\lib\lib_BLE/bluetooth.c ****             wrReqParam->handleValPair.attrHandle == CYBLE_SFSYSTEMSERVICE_SYSTEM_STATUS_STATUSCCCD_
  91:..\..\common\lib\lib_BLE/bluetooth.c ****             {
  92:..\..\common\lib\lib_BLE/bluetooth.c ****                 CyBle_GattsWriteAttributeValue(&wrReqParam->handleValPair, 0, &cyBle_connHandle, CY
  93:..\..\common\lib\lib_BLE/bluetooth.c ****                 notifycaiton = wrReqParam->handleValPair.value.val[0] & 0x01;
  94:..\..\common\lib\lib_BLE/bluetooth.c ****                 CyBle_GattsWriteRsp(cyBle_connHandle);
  95:..\..\common\lib\lib_BLE/bluetooth.c ****             }
  96:..\..\common\lib\lib_BLE/bluetooth.c **** 			break;  
  97:..\..\common\lib\lib_BLE/bluetooth.c ****         
  98:..\..\common\lib\lib_BLE/bluetooth.c ****         default:
  99:..\..\common\lib\lib_BLE/bluetooth.c ****             break;
 100:..\..\common\lib\lib_BLE/bluetooth.c ****     }
 101:..\..\common\lib\lib_BLE/bluetooth.c **** } 
 102:..\..\common\lib\lib_BLE/bluetooth.c **** 
 103:..\..\common\lib\lib_BLE/bluetooth.c **** /***************************************************************
 104:..\..\common\lib\lib_BLE/bluetooth.c ****  * Function to update the id skier state in the GATT database
 105:..\..\common\lib\lib_BLE/bluetooth.c ****  **************************************************************/
 106:..\..\common\lib\lib_BLE/bluetooth.c **** void updateData(void)
 107:..\..\common\lib\lib_BLE/bluetooth.c **** {
  28              		.loc 1 107 0
  29              		.cfi_startproc
  30              		@ args = 0, pretend = 0, frame = 16
  31              		@ frame_needed = 0, uses_anonymous_args = 0
  32 0000 7FB5     		push	{r0, r1, r2, r3, r4, r5, r6, lr}
  33              		.cfi_def_cfa_offset 32
  34              		.cfi_offset 0, -32
  35              		.cfi_offset 1, -28
  36              		.cfi_offset 2, -24
  37              		.cfi_offset 3, -20
  38              		.cfi_offset 4, -16
  39              		.cfi_offset 5, -12
  40              		.cfi_offset 6, -8
  41              		.cfi_offset 14, -4
 108:..\..\common\lib\lib_BLE/bluetooth.c ****     CYBLE_GATTS_HANDLE_VALUE_NTF_T 	tempHandle;
 109:..\..\common\lib\lib_BLE/bluetooth.c ****     
 110:..\..\common\lib\lib_BLE/bluetooth.c ****     if(CyBle_GetState() != CYBLE_STATE_CONNECTED)
  42              		.loc 1 110 0
  43 0002 454B     		ldr	r3, .L24
  44 0004 1B78     		ldrb	r3, [r3]
  45 0006 022B     		cmp	r3, #2
  46 0008 00D0     		beq	.LCB17
  47 000a 83E0     		b	.L1	@long jump
  48              	.LCB17:
  49              	.LBB6:
  50              	.LBB7:
 111:..\..\common\lib\lib_BLE/bluetooth.c ****         return;
 112:..\..\common\lib\lib_BLE/bluetooth.c ****     
 113:..\..\common\lib\lib_BLE/bluetooth.c ****     tempHandle.attrHandle = CYBLE_SFSYSTEMSERVICE_ID_CHAR_HANDLE;
  51              		.loc 1 113 0
  52 000c 0E22     		movs	r2, #14
  53 000e 01AC     		add	r4, sp, #4
 114:..\..\common\lib\lib_BLE/bluetooth.c ****   	tempHandle.value.val = (uint8 *) &sendIdSkier;
 115:..\..\common\lib\lib_BLE/bluetooth.c ****     tempHandle.value.len = 2;
  54              		.loc 1 115 0
  55 0010 A380     		strh	r3, [r4, #4]
 116:..\..\common\lib\lib_BLE/bluetooth.c ****     CyBle_GattsWriteAttributeValue(&tempHandle,0,&cyBle_connHandle,CYBLE_GATT_DB_LOCALLY_INITIATED 
ARM GAS  C:\Users\Petro\AppData\Local\Temp\ccv8ePIG.s 			page 4


  56              		.loc 1 116 0
  57 0012 0023     		movs	r3, #0
 113:..\..\common\lib\lib_BLE/bluetooth.c ****   	tempHandle.value.val = (uint8 *) &sendIdSkier;
  58              		.loc 1 113 0
  59 0014 2281     		strh	r2, [r4, #8]
  60              		.loc 1 116 0
  61 0016 414D     		ldr	r5, .L24+4
 114:..\..\common\lib\lib_BLE/bluetooth.c ****   	tempHandle.value.val = (uint8 *) &sendIdSkier;
  62              		.loc 1 114 0
  63 0018 414A     		ldr	r2, .L24+8
  64              		.loc 1 116 0
  65 001a 1900     		movs	r1, r3
 114:..\..\common\lib\lib_BLE/bluetooth.c ****   	tempHandle.value.val = (uint8 *) &sendIdSkier;
  66              		.loc 1 114 0
  67 001c 0192     		str	r2, [sp, #4]
  68              		.loc 1 116 0
  69 001e 2000     		movs	r0, r4
  70 0020 2A00     		movs	r2, r5
  71 0022 FFF7FEFF 		bl	CyBle_GattsWriteAttributeValue
  72              	.LVL0:
 117:..\..\common\lib\lib_BLE/bluetooth.c ****     if (notifycaiton  )
  73              		.loc 1 117 0
  74 0026 3F4E     		ldr	r6, .L24+12
  75 0028 3368     		ldr	r3, [r6]
  76 002a 002B     		cmp	r3, #0
  77 002c 06D0     		beq	.L3
 118:..\..\common\lib\lib_BLE/bluetooth.c ****         CyBle_GattsNotification(cyBle_connHandle,&tempHandle);
  78              		.loc 1 118 0
  79 002e 6878     		ldrb	r0, [r5, #1]
  80 0030 2B78     		ldrb	r3, [r5]
  81 0032 0002     		lsls	r0, r0, #8
  82 0034 1843     		orrs	r0, r3
  83 0036 2100     		movs	r1, r4
  84 0038 FFF7FEFF 		bl	CyBle_GattsNotification
  85              	.LVL1:
  86              	.L3:
 119:..\..\common\lib\lib_BLE/bluetooth.c ****         
 120:..\..\common\lib\lib_BLE/bluetooth.c ****     CyDelay(50);
  87              		.loc 1 120 0
  88 003c 3220     		movs	r0, #50
  89 003e FFF7FEFF 		bl	CyDelay
  90              	.LVL2:
 121:..\..\common\lib\lib_BLE/bluetooth.c ****     CyBle_ProcessEvents();
  91              		.loc 1 121 0
  92 0042 FFF7FEFF 		bl	CyBle_ProcessEvents
  93              	.LVL3:
 122:..\..\common\lib\lib_BLE/bluetooth.c ****         
 123:..\..\common\lib\lib_BLE/bluetooth.c ****     tempHandle.attrHandle = CYBLE_SFSYSTEMSERVICE_TIME_START_CHAR_HANDLE;
  94              		.loc 1 123 0
  95 0046 1223     		movs	r3, #18
  96 0048 2381     		strh	r3, [r4, #8]
 124:..\..\common\lib\lib_BLE/bluetooth.c ****   	tempHandle.value.val = (uint8 *) &sendBufferStart;
  97              		.loc 1 124 0
  98 004a 374B     		ldr	r3, .L24+16
 125:..\..\common\lib\lib_BLE/bluetooth.c ****     tempHandle.value.len = 8;
 126:..\..\common\lib\lib_BLE/bluetooth.c ****     CyBle_GattsWriteAttributeValue(&tempHandle,0,&cyBle_connHandle,CYBLE_GATT_DB_LOCALLY_INITIATED 
  99              		.loc 1 126 0
ARM GAS  C:\Users\Petro\AppData\Local\Temp\ccv8ePIG.s 			page 5


 100 004c 2A00     		movs	r2, r5
 124:..\..\common\lib\lib_BLE/bluetooth.c ****   	tempHandle.value.val = (uint8 *) &sendBufferStart;
 101              		.loc 1 124 0
 102 004e 0193     		str	r3, [sp, #4]
 125:..\..\common\lib\lib_BLE/bluetooth.c ****     tempHandle.value.len = 8;
 103              		.loc 1 125 0
 104 0050 0823     		movs	r3, #8
 105 0052 A380     		strh	r3, [r4, #4]
 106              		.loc 1 126 0
 107 0054 0023     		movs	r3, #0
 108 0056 2000     		movs	r0, r4
 109 0058 1900     		movs	r1, r3
 110 005a FFF7FEFF 		bl	CyBle_GattsWriteAttributeValue
 111              	.LVL4:
 127:..\..\common\lib\lib_BLE/bluetooth.c ****     if (notifycaiton  )
 112              		.loc 1 127 0
 113 005e 3368     		ldr	r3, [r6]
 114 0060 002B     		cmp	r3, #0
 115 0062 06D0     		beq	.L4
 128:..\..\common\lib\lib_BLE/bluetooth.c ****         CyBle_GattsNotification(cyBle_connHandle,&tempHandle);
 116              		.loc 1 128 0
 117 0064 6878     		ldrb	r0, [r5, #1]
 118 0066 2B78     		ldrb	r3, [r5]
 119 0068 0002     		lsls	r0, r0, #8
 120 006a 1843     		orrs	r0, r3
 121 006c 2100     		movs	r1, r4
 122 006e FFF7FEFF 		bl	CyBle_GattsNotification
 123              	.LVL5:
 124              	.L4:
 129:..\..\common\lib\lib_BLE/bluetooth.c ****         
 130:..\..\common\lib\lib_BLE/bluetooth.c ****     CyDelay(50);
 125              		.loc 1 130 0
 126 0072 3220     		movs	r0, #50
 127 0074 FFF7FEFF 		bl	CyDelay
 128              	.LVL6:
 131:..\..\common\lib\lib_BLE/bluetooth.c ****     CyBle_ProcessEvents();
 129              		.loc 1 131 0
 130 0078 FFF7FEFF 		bl	CyBle_ProcessEvents
 131              	.LVL7:
 132:..\..\common\lib\lib_BLE/bluetooth.c ****     
 133:..\..\common\lib\lib_BLE/bluetooth.c ****     tempHandle.attrHandle = CYBLE_SFSYSTEMSERVICE_TIME_FINISH_CHAR_HANDLE;
 132              		.loc 1 133 0
 133 007c 1623     		movs	r3, #22
 134 007e 2381     		strh	r3, [r4, #8]
 134:..\..\common\lib\lib_BLE/bluetooth.c ****   	tempHandle.value.val = (uint8 *) &sendBufferFinish;
 135              		.loc 1 134 0
 136 0080 2A4B     		ldr	r3, .L24+20
 135:..\..\common\lib\lib_BLE/bluetooth.c ****     tempHandle.value.len = 8;
 136:..\..\common\lib\lib_BLE/bluetooth.c ****     CyBle_GattsWriteAttributeValue(&tempHandle,0,&cyBle_connHandle,CYBLE_GATT_DB_LOCALLY_INITIATED 
 137              		.loc 1 136 0
 138 0082 2A00     		movs	r2, r5
 134:..\..\common\lib\lib_BLE/bluetooth.c ****   	tempHandle.value.val = (uint8 *) &sendBufferFinish;
 139              		.loc 1 134 0
 140 0084 0193     		str	r3, [sp, #4]
 135:..\..\common\lib\lib_BLE/bluetooth.c ****     tempHandle.value.len = 8;
 141              		.loc 1 135 0
 142 0086 0823     		movs	r3, #8
ARM GAS  C:\Users\Petro\AppData\Local\Temp\ccv8ePIG.s 			page 6


 143 0088 A380     		strh	r3, [r4, #4]
 144              		.loc 1 136 0
 145 008a 0023     		movs	r3, #0
 146 008c 2000     		movs	r0, r4
 147 008e 1900     		movs	r1, r3
 148 0090 FFF7FEFF 		bl	CyBle_GattsWriteAttributeValue
 149              	.LVL8:
 137:..\..\common\lib\lib_BLE/bluetooth.c ****     if (notifycaiton  )
 150              		.loc 1 137 0
 151 0094 3368     		ldr	r3, [r6]
 152 0096 002B     		cmp	r3, #0
 153 0098 06D0     		beq	.L5
 138:..\..\common\lib\lib_BLE/bluetooth.c ****         CyBle_GattsNotification(cyBle_connHandle,&tempHandle); 
 154              		.loc 1 138 0
 155 009a 6878     		ldrb	r0, [r5, #1]
 156 009c 2B78     		ldrb	r3, [r5]
 157 009e 0002     		lsls	r0, r0, #8
 158 00a0 1843     		orrs	r0, r3
 159 00a2 2100     		movs	r1, r4
 160 00a4 FFF7FEFF 		bl	CyBle_GattsNotification
 161              	.LVL9:
 162              	.L5:
 139:..\..\common\lib\lib_BLE/bluetooth.c ****         
 140:..\..\common\lib\lib_BLE/bluetooth.c ****     CyDelay(50);
 163              		.loc 1 140 0
 164 00a8 3220     		movs	r0, #50
 165 00aa FFF7FEFF 		bl	CyDelay
 166              	.LVL10:
 141:..\..\common\lib\lib_BLE/bluetooth.c ****     CyBle_ProcessEvents();
 167              		.loc 1 141 0
 168 00ae FFF7FEFF 		bl	CyBle_ProcessEvents
 169              	.LVL11:
 142:..\..\common\lib\lib_BLE/bluetooth.c ****     
 143:..\..\common\lib\lib_BLE/bluetooth.c ****     tempHandle.attrHandle = CYBLE_SFSYSTEMSERVICE_TIME_RESULT_CHAR_HANDLE;
 170              		.loc 1 143 0
 171 00b2 1A23     		movs	r3, #26
 172 00b4 2381     		strh	r3, [r4, #8]
 144:..\..\common\lib\lib_BLE/bluetooth.c ****   	tempHandle.value.val = (uint8 *) &sendBufferResult;
 173              		.loc 1 144 0
 174 00b6 1E4B     		ldr	r3, .L24+24
 145:..\..\common\lib\lib_BLE/bluetooth.c ****     tempHandle.value.len = 8;
 146:..\..\common\lib\lib_BLE/bluetooth.c ****     CyBle_GattsWriteAttributeValue(&tempHandle,0,&cyBle_connHandle,CYBLE_GATT_DB_LOCALLY_INITIATED 
 175              		.loc 1 146 0
 176 00b8 2A00     		movs	r2, r5
 144:..\..\common\lib\lib_BLE/bluetooth.c ****   	tempHandle.value.val = (uint8 *) &sendBufferResult;
 177              		.loc 1 144 0
 178 00ba 0193     		str	r3, [sp, #4]
 145:..\..\common\lib\lib_BLE/bluetooth.c ****     tempHandle.value.len = 8;
 179              		.loc 1 145 0
 180 00bc 0823     		movs	r3, #8
 181 00be A380     		strh	r3, [r4, #4]
 182              		.loc 1 146 0
 183 00c0 0023     		movs	r3, #0
 184 00c2 2000     		movs	r0, r4
 185 00c4 1900     		movs	r1, r3
 186 00c6 FFF7FEFF 		bl	CyBle_GattsWriteAttributeValue
 187              	.LVL12:
ARM GAS  C:\Users\Petro\AppData\Local\Temp\ccv8ePIG.s 			page 7


 147:..\..\common\lib\lib_BLE/bluetooth.c ****     if (notifycaiton  )
 188              		.loc 1 147 0
 189 00ca 3368     		ldr	r3, [r6]
 190 00cc 002B     		cmp	r3, #0
 191 00ce 06D0     		beq	.L6
 148:..\..\common\lib\lib_BLE/bluetooth.c ****         CyBle_GattsNotification(cyBle_connHandle,&tempHandle);
 192              		.loc 1 148 0
 193 00d0 6878     		ldrb	r0, [r5, #1]
 194 00d2 2B78     		ldrb	r3, [r5]
 195 00d4 0002     		lsls	r0, r0, #8
 196 00d6 1843     		orrs	r0, r3
 197 00d8 2100     		movs	r1, r4
 198 00da FFF7FEFF 		bl	CyBle_GattsNotification
 199              	.LVL13:
 200              	.L6:
 149:..\..\common\lib\lib_BLE/bluetooth.c ****         
 150:..\..\common\lib\lib_BLE/bluetooth.c ****     CyDelay(50);
 201              		.loc 1 150 0
 202 00de 3220     		movs	r0, #50
 203 00e0 FFF7FEFF 		bl	CyDelay
 204              	.LVL14:
 151:..\..\common\lib\lib_BLE/bluetooth.c ****     CyBle_ProcessEvents();
 205              		.loc 1 151 0
 206 00e4 FFF7FEFF 		bl	CyBle_ProcessEvents
 207              	.LVL15:
 152:..\..\common\lib\lib_BLE/bluetooth.c ****         
 153:..\..\common\lib\lib_BLE/bluetooth.c ****     tempHandle.attrHandle = CYBLE_SFSYSTEMSERVICE_SYSTEM_STATUS_CHAR_HANDLE;
 208              		.loc 1 153 0
 209 00e8 1E23     		movs	r3, #30
 210 00ea 2381     		strh	r3, [r4, #8]
 154:..\..\common\lib\lib_BLE/bluetooth.c ****   	tempHandle.value.val = (uint8 *) &sendBufferStatus;
 211              		.loc 1 154 0
 212 00ec 114B     		ldr	r3, .L24+28
 155:..\..\common\lib\lib_BLE/bluetooth.c ****     tempHandle.value.len = 7;
 156:..\..\common\lib\lib_BLE/bluetooth.c ****     CyBle_GattsWriteAttributeValue(&tempHandle,0,&cyBle_connHandle,CYBLE_GATT_DB_LOCALLY_INITIATED 
 213              		.loc 1 156 0
 214 00ee 2A00     		movs	r2, r5
 154:..\..\common\lib\lib_BLE/bluetooth.c ****   	tempHandle.value.val = (uint8 *) &sendBufferStatus;
 215              		.loc 1 154 0
 216 00f0 0193     		str	r3, [sp, #4]
 155:..\..\common\lib\lib_BLE/bluetooth.c ****     tempHandle.value.len = 7;
 217              		.loc 1 155 0
 218 00f2 0723     		movs	r3, #7
 219 00f4 A380     		strh	r3, [r4, #4]
 220              		.loc 1 156 0
 221 00f6 0023     		movs	r3, #0
 222 00f8 2000     		movs	r0, r4
 223 00fa 1900     		movs	r1, r3
 224 00fc FFF7FEFF 		bl	CyBle_GattsWriteAttributeValue
 225              	.LVL16:
 157:..\..\common\lib\lib_BLE/bluetooth.c ****     if (notifycaiton  )
 226              		.loc 1 157 0
 227 0100 3368     		ldr	r3, [r6]
 228 0102 002B     		cmp	r3, #0
 229 0104 06D0     		beq	.L1
 158:..\..\common\lib\lib_BLE/bluetooth.c ****         CyBle_GattsNotification(cyBle_connHandle,&tempHandle);
 230              		.loc 1 158 0
ARM GAS  C:\Users\Petro\AppData\Local\Temp\ccv8ePIG.s 			page 8


 231 0106 6878     		ldrb	r0, [r5, #1]
 232 0108 2B78     		ldrb	r3, [r5]
 233 010a 0002     		lsls	r0, r0, #8
 234 010c 1843     		orrs	r0, r3
 235 010e 2100     		movs	r1, r4
 236 0110 FFF7FEFF 		bl	CyBle_GattsNotification
 237              	.LVL17:
 238              	.L1:
 239              	.LBE7:
 240              	.LBE6:
 159:..\..\common\lib\lib_BLE/bluetooth.c **** }
 241              		.loc 1 159 0
 242              		@ sp needed
 243 0114 7FBD     		pop	{r0, r1, r2, r3, r4, r5, r6, pc}
 244              	.L25:
 245 0116 C046     		.align	2
 246              	.L24:
 247 0118 00000000 		.word	cyBle_state
 248 011c 00000000 		.word	cyBle_connHandle
 249 0120 00000000 		.word	.LANCHOR0
 250 0124 00000000 		.word	notifycaiton
 251 0128 00000000 		.word	sendBufferStart
 252 012c 00000000 		.word	sendBufferFinish
 253 0130 00000000 		.word	sendBufferResult
 254 0134 00000000 		.word	sendBufferStatus
 255              		.cfi_endproc
 256              	.LFE64:
 257              		.size	updateData, .-updateData
 258              		.section	.text.BleCallBack,"ax",%progbits
 259              		.align	1
 260              		.global	BleCallBack
 261              		.code	16
 262              		.thumb_func
 263              		.type	BleCallBack, %function
 264              	BleCallBack:
 265              	.LFB63:
  25:..\..\common\lib\lib_BLE/bluetooth.c ****     CYBLE_GATTS_WRITE_REQ_PARAM_T *wrReqParam;
 266              		.loc 1 25 0
 267              		.cfi_startproc
 268              		@ args = 0, pretend = 0, frame = 0
 269              		@ frame_needed = 0, uses_anonymous_args = 0
 270              	.LVL18:
 271 0000 70B5     		push	{r4, r5, r6, lr}
 272              		.cfi_def_cfa_offset 16
 273              		.cfi_offset 4, -16
 274              		.cfi_offset 5, -12
 275              		.cfi_offset 6, -8
 276              		.cfi_offset 14, -4
  25:..\..\common\lib\lib_BLE/bluetooth.c ****     CYBLE_GATTS_WRITE_REQ_PARAM_T *wrReqParam;
 277              		.loc 1 25 0
 278 0002 0C00     		movs	r4, r1
  28:..\..\common\lib\lib_BLE/bluetooth.c ****     {
 279              		.loc 1 28 0
 280 0004 2828     		cmp	r0, #40
 281 0006 08D0     		beq	.L28
 282 0008 02D8     		bhi	.L29
 283 000a 0128     		cmp	r0, #1
ARM GAS  C:\Users\Petro\AppData\Local\Temp\ccv8ePIG.s 			page 9


 284 000c 05D0     		beq	.L28
 285 000e 67E0     		b	.L26
 286              	.L29:
 287 0010 4128     		cmp	r0, #65
 288 0012 0AD0     		beq	.L30
 289 0014 4C28     		cmp	r0, #76
 290 0016 0DD0     		beq	.L31
 291 0018 62E0     		b	.L26
 292              	.L28:
  33:..\..\common\lib\lib_BLE/bluetooth.c ****             CyBle_GappStartAdvertisement(CYBLE_ADVERTISING_FAST);
 293              		.loc 1 33 0
 294 001a 0020     		movs	r0, #0
 295              	.LVL19:
 296 001c 314B     		ldr	r3, .L46
 297 001e 1860     		str	r0, [r3]
  34:..\..\common\lib\lib_BLE/bluetooth.c ****             pwm_Start();
 298              		.loc 1 34 0
 299 0020 FFF7FEFF 		bl	CyBle_GappStartAdvertisement
 300              	.LVL20:
  35:..\..\common\lib\lib_BLE/bluetooth.c ****         break;
 301              		.loc 1 35 0
 302 0024 FFF7FEFF 		bl	pwm_Start
 303              	.LVL21:
  36:..\..\common\lib\lib_BLE/bluetooth.c ****         
 304              		.loc 1 36 0
 305 0028 5AE0     		b	.L26
 306              	.LVL22:
 307              	.L30:
  40:..\..\common\lib\lib_BLE/bluetooth.c ****             updateData();
 308              		.loc 1 40 0
 309 002a FFF7FEFF 		bl	pwm_Stop
 310              	.LVL23:
  41:..\..\common\lib\lib_BLE/bluetooth.c **** 		break;
 311              		.loc 1 41 0
 312 002e FFF7FEFF 		bl	updateData
 313              	.LVL24:
  42:..\..\common\lib\lib_BLE/bluetooth.c **** 
 314              		.loc 1 42 0
 315 0032 55E0     		b	.L26
 316              	.LVL25:
 317              	.L31:
 318              	.LBB12:
 319              	.LBB13:
  49:..\..\common\lib\lib_BLE/bluetooth.c ****             {
 320              		.loc 1 49 0
 321 0034 8B89     		ldrh	r3, [r1, #12]
 322 0036 222B     		cmp	r3, #34
 323 0038 20D1     		bne	.L33
  52:..\..\common\lib\lib_BLE/bluetooth.c ****                 {
 324              		.loc 1 52 0
 325 003a 2B4D     		ldr	r5, .L46+4
 326 003c 081D     		adds	r0, r1, #4
 327              	.LVL26:
 328 003e 2A00     		movs	r2, r5
 329 0040 1E33     		adds	r3, r3, #30
 330 0042 0021     		movs	r1, #0
 331              	.LVL27:
ARM GAS  C:\Users\Petro\AppData\Local\Temp\ccv8ePIG.s 			page 10


 332 0044 FFF7FEFF 		bl	CyBle_GattsWriteAttributeValue
 333              	.LVL28:
 334 0048 2A00     		movs	r2, r5
 335 004a 0028     		cmp	r0, #0
 336 004c 16D1     		bne	.L33
 337              	.LBB14:
 338              	.LBB15:
  59:..\..\common\lib\lib_BLE/bluetooth.c ****                         bleUnixTime = (bleUnixTime << 8) | tmpData;
 339              		.loc 1 59 0
 340 004e 6168     		ldr	r1, [r4, #4]
 341              	.LBE15:
  55:..\..\common\lib\lib_BLE/bluetooth.c ****                     for(i=3;i>=0;i--)
 342              		.loc 1 55 0
 343 0050 264B     		ldr	r3, .L46+8
 344 0052 4D1E     		subs	r5, r1, #1
 345 0054 5860     		str	r0, [r3, #4]
 346              	.LVL29:
 347 0056 C81C     		adds	r0, r1, #3
 348              	.LVL30:
 349              	.L35:
 350              	.LBB16:
  60:..\..\common\lib\lib_BLE/bluetooth.c ****                     }
 351              		.loc 1 60 0
 352 0058 5968     		ldr	r1, [r3, #4]
 353 005a 0138     		subs	r0, r0, #1
 354              	.LVL31:
 355 005c 0E02     		lsls	r6, r1, #8
 356 005e 4178     		ldrb	r1, [r0, #1]
 357 0060 3143     		orrs	r1, r6
 358 0062 5960     		str	r1, [r3, #4]
 359              	.LVL32:
 360              	.LBE16:
  56:..\..\common\lib\lib_BLE/bluetooth.c ****                     {
 361              		.loc 1 56 0
 362 0064 8542     		cmp	r5, r0
 363 0066 F7D1     		bne	.L35
  64:..\..\common\lib\lib_BLE/bluetooth.c ****                     #ifdef DEBUG_BLE
 364              		.loc 1 64 0
 365 0068 E120     		movs	r0, #225
 366 006a 4001     		lsls	r0, r0, #5
 367 006c 0918     		adds	r1, r1, r0
  70:..\..\common\lib\lib_BLE/bluetooth.c ****                 }
 368              		.loc 1 70 0
 369 006e 5078     		ldrb	r0, [r2, #1]
  64:..\..\common\lib\lib_BLE/bluetooth.c ****                     #ifdef DEBUG_BLE
 370              		.loc 1 64 0
 371 0070 5960     		str	r1, [r3, #4]
  70:..\..\common\lib\lib_BLE/bluetooth.c ****                 }
 372              		.loc 1 70 0
 373 0072 1378     		ldrb	r3, [r2]
 374 0074 0002     		lsls	r0, r0, #8
 375 0076 1843     		orrs	r0, r3
 376 0078 FFF7FEFF 		bl	CyBle_GattsWriteRsp
 377              	.LVL33:
 378              	.L33:
 379              	.LBE14:
  75:..\..\common\lib\lib_BLE/bluetooth.c ****             {
ARM GAS  C:\Users\Petro\AppData\Local\Temp\ccv8ePIG.s 			page 11


 380              		.loc 1 75 0
 381 007c A389     		ldrh	r3, [r4, #12]
 382 007e 252B     		cmp	r3, #37
 383 0080 12D1     		bne	.L37
  78:..\..\common\lib\lib_BLE/bluetooth.c ****                 {
 384              		.loc 1 78 0
 385 0082 194D     		ldr	r5, .L46+4
 386 0084 201D     		adds	r0, r4, #4
 387 0086 1B33     		adds	r3, r3, #27
 388 0088 2A00     		movs	r2, r5
 389 008a 0021     		movs	r1, #0
 390 008c FFF7FEFF 		bl	CyBle_GattsWriteAttributeValue
 391              	.LVL34:
 392 0090 0028     		cmp	r0, #0
 393 0092 09D1     		bne	.L37
  80:..\..\common\lib\lib_BLE/bluetooth.c ****                     CyBle_GattsWriteRsp(cyBle_connHandle);
 394              		.loc 1 80 0
 395 0094 6368     		ldr	r3, [r4, #4]
  81:..\..\common\lib\lib_BLE/bluetooth.c ****                 }
 396              		.loc 1 81 0
 397 0096 6878     		ldrb	r0, [r5, #1]
  80:..\..\common\lib\lib_BLE/bluetooth.c ****                     CyBle_GattsWriteRsp(cyBle_connHandle);
 398              		.loc 1 80 0
 399 0098 1A78     		ldrb	r2, [r3]
 400 009a 144B     		ldr	r3, .L46+8
  81:..\..\common\lib\lib_BLE/bluetooth.c ****                 }
 401              		.loc 1 81 0
 402 009c 0002     		lsls	r0, r0, #8
  80:..\..\common\lib\lib_BLE/bluetooth.c ****                     CyBle_GattsWriteRsp(cyBle_connHandle);
 403              		.loc 1 80 0
 404 009e 1A72     		strb	r2, [r3, #8]
  81:..\..\common\lib\lib_BLE/bluetooth.c ****                 }
 405              		.loc 1 81 0
 406 00a0 2B78     		ldrb	r3, [r5]
 407 00a2 1843     		orrs	r0, r3
 408 00a4 FFF7FEFF 		bl	CyBle_GattsWriteRsp
 409              	.LVL35:
 410              	.L37:
  86:..\..\common\lib\lib_BLE/bluetooth.c ****             wrReqParam->handleValPair.attrHandle == CYBLE_SFSYSTEMSERVICE_TIME_START_TIMESTARTCCCD_
 411              		.loc 1 86 0
 412 00a8 A389     		ldrh	r3, [r4, #12]
 413 00aa 103B     		subs	r3, r3, #16
 414 00ac 9BB2     		uxth	r3, r3
 415 00ae 102B     		cmp	r3, #16
 416 00b0 16D8     		bhi	.L26
 417 00b2 0125     		movs	r5, #1
 418 00b4 0E4A     		ldr	r2, .L46+12
 419 00b6 2900     		movs	r1, r5
 420 00b8 DA40     		lsrs	r2, r2, r3
 421 00ba 9143     		bics	r1, r2
 422 00bc 10D1     		bne	.L26
  92:..\..\common\lib\lib_BLE/bluetooth.c ****                 notifycaiton = wrReqParam->handleValPair.value.val[0] & 0x01;
 423              		.loc 1 92 0
 424 00be 0A4E     		ldr	r6, .L46+4
 425 00c0 4023     		movs	r3, #64
 426 00c2 201D     		adds	r0, r4, #4
 427 00c4 3200     		movs	r2, r6
ARM GAS  C:\Users\Petro\AppData\Local\Temp\ccv8ePIG.s 			page 12


 428 00c6 FFF7FEFF 		bl	CyBle_GattsWriteAttributeValue
 429              	.LVL36:
  93:..\..\common\lib\lib_BLE/bluetooth.c ****                 CyBle_GattsWriteRsp(cyBle_connHandle);
 430              		.loc 1 93 0
 431 00ca 6368     		ldr	r3, [r4, #4]
  94:..\..\common\lib\lib_BLE/bluetooth.c ****             }
 432              		.loc 1 94 0
 433 00cc 7078     		ldrb	r0, [r6, #1]
  93:..\..\common\lib\lib_BLE/bluetooth.c ****                 CyBle_GattsWriteRsp(cyBle_connHandle);
 434              		.loc 1 93 0
 435 00ce 1B78     		ldrb	r3, [r3]
  94:..\..\common\lib\lib_BLE/bluetooth.c ****             }
 436              		.loc 1 94 0
 437 00d0 0002     		lsls	r0, r0, #8
  93:..\..\common\lib\lib_BLE/bluetooth.c ****                 CyBle_GattsWriteRsp(cyBle_connHandle);
 438              		.loc 1 93 0
 439 00d2 1D40     		ands	r5, r3
 440 00d4 034B     		ldr	r3, .L46
 441 00d6 1D60     		str	r5, [r3]
  94:..\..\common\lib\lib_BLE/bluetooth.c ****             }
 442              		.loc 1 94 0
 443 00d8 3378     		ldrb	r3, [r6]
 444 00da 1843     		orrs	r0, r3
 445 00dc FFF7FEFF 		bl	CyBle_GattsWriteRsp
 446              	.LVL37:
 447              	.L26:
 448              	.LBE13:
 449              	.LBE12:
 101:..\..\common\lib\lib_BLE/bluetooth.c **** 
 450              		.loc 1 101 0
 451              		@ sp needed
 452              	.LVL38:
 453 00e0 70BD     		pop	{r4, r5, r6, pc}
 454              	.L47:
 455 00e2 C046     		.align	2
 456              	.L46:
 457 00e4 00000000 		.word	notifycaiton
 458 00e8 00000000 		.word	cyBle_connHandle
 459 00ec 00000000 		.word	.LANCHOR0
 460 00f0 11110100 		.word	69905
 461              		.cfi_endproc
 462              	.LFE63:
 463              		.size	BleCallBack, .-BleCallBack
 464              		.section	.text.updateStatusData,"ax",%progbits
 465              		.align	1
 466              		.global	updateStatusData
 467              		.code	16
 468              		.thumb_func
 469              		.type	updateStatusData, %function
 470              	updateStatusData:
 471              	.LFB65:
 160:..\..\common\lib\lib_BLE/bluetooth.c **** 
 161:..\..\common\lib\lib_BLE/bluetooth.c **** 
 162:..\..\common\lib\lib_BLE/bluetooth.c **** /***************************************************************
 163:..\..\common\lib\lib_BLE/bluetooth.c ****  * Function to update the id skier state in the GATT database
 164:..\..\common\lib\lib_BLE/bluetooth.c ****  **************************************************************/
 165:..\..\common\lib\lib_BLE/bluetooth.c **** void updateStatusData(void)
ARM GAS  C:\Users\Petro\AppData\Local\Temp\ccv8ePIG.s 			page 13


 166:..\..\common\lib\lib_BLE/bluetooth.c **** {
 472              		.loc 1 166 0
 473              		.cfi_startproc
 474              		@ args = 0, pretend = 0, frame = 16
 475              		@ frame_needed = 0, uses_anonymous_args = 0
 476 0000 30B5     		push	{r4, r5, lr}
 477              		.cfi_def_cfa_offset 12
 478              		.cfi_offset 4, -12
 479              		.cfi_offset 5, -8
 480              		.cfi_offset 14, -4
 167:..\..\common\lib\lib_BLE/bluetooth.c ****     CYBLE_GATTS_HANDLE_VALUE_NTF_T 	tempHandle;
 168:..\..\common\lib\lib_BLE/bluetooth.c ****     
 169:..\..\common\lib\lib_BLE/bluetooth.c ****     if(CyBle_GetState() != CYBLE_STATE_CONNECTED)
 481              		.loc 1 169 0
 482 0002 104B     		ldr	r3, .L54
 166:..\..\common\lib\lib_BLE/bluetooth.c ****     CYBLE_GATTS_HANDLE_VALUE_NTF_T 	tempHandle;
 483              		.loc 1 166 0
 484 0004 85B0     		sub	sp, sp, #20
 485              		.cfi_def_cfa_offset 32
 486              		.loc 1 169 0
 487 0006 1B78     		ldrb	r3, [r3]
 488 0008 022B     		cmp	r3, #2
 489 000a 18D1     		bne	.L48
 490              	.LBB19:
 491              	.LBB20:
 170:..\..\common\lib\lib_BLE/bluetooth.c ****         return;
 171:..\..\common\lib\lib_BLE/bluetooth.c ****            
 172:..\..\common\lib\lib_BLE/bluetooth.c ****     tempHandle.attrHandle = CYBLE_SFSYSTEMSERVICE_SYSTEM_STATUS_CHAR_HANDLE;
 492              		.loc 1 172 0
 493 000c 01AC     		add	r4, sp, #4
 494 000e 1C33     		adds	r3, r3, #28
 495 0010 2381     		strh	r3, [r4, #8]
 173:..\..\common\lib\lib_BLE/bluetooth.c ****   	tempHandle.value.val = (uint8 *) &sendBufferStatus;
 496              		.loc 1 173 0
 497 0012 0D4B     		ldr	r3, .L54+4
 174:..\..\common\lib\lib_BLE/bluetooth.c ****     tempHandle.value.len = 7;
 175:..\..\common\lib\lib_BLE/bluetooth.c ****     CyBle_GattsWriteAttributeValue(&tempHandle,0,&cyBle_connHandle,CYBLE_GATT_DB_LOCALLY_INITIATED 
 498              		.loc 1 175 0
 499 0014 0D4D     		ldr	r5, .L54+8
 173:..\..\common\lib\lib_BLE/bluetooth.c ****   	tempHandle.value.val = (uint8 *) &sendBufferStatus;
 500              		.loc 1 173 0
 501 0016 0193     		str	r3, [sp, #4]
 174:..\..\common\lib\lib_BLE/bluetooth.c ****     tempHandle.value.len = 7;
 502              		.loc 1 174 0
 503 0018 0723     		movs	r3, #7
 504 001a A380     		strh	r3, [r4, #4]
 505              		.loc 1 175 0
 506 001c 0023     		movs	r3, #0
 507 001e 2A00     		movs	r2, r5
 508 0020 1900     		movs	r1, r3
 509 0022 2000     		movs	r0, r4
 510 0024 FFF7FEFF 		bl	CyBle_GattsWriteAttributeValue
 511              	.LVL39:
 176:..\..\common\lib\lib_BLE/bluetooth.c ****     if (notifycaiton  )
 512              		.loc 1 176 0
 513 0028 094B     		ldr	r3, .L54+12
 514 002a 1B68     		ldr	r3, [r3]
ARM GAS  C:\Users\Petro\AppData\Local\Temp\ccv8ePIG.s 			page 14


 515 002c 002B     		cmp	r3, #0
 516 002e 06D0     		beq	.L48
 177:..\..\common\lib\lib_BLE/bluetooth.c ****         CyBle_GattsNotification(cyBle_connHandle,&tempHandle);
 517              		.loc 1 177 0
 518 0030 6878     		ldrb	r0, [r5, #1]
 519 0032 2B78     		ldrb	r3, [r5]
 520 0034 0002     		lsls	r0, r0, #8
 521 0036 1843     		orrs	r0, r3
 522 0038 2100     		movs	r1, r4
 523 003a FFF7FEFF 		bl	CyBle_GattsNotification
 524              	.LVL40:
 525              	.L48:
 526              	.LBE20:
 527              	.LBE19:
 178:..\..\common\lib\lib_BLE/bluetooth.c **** }
 528              		.loc 1 178 0
 529 003e 05B0     		add	sp, sp, #20
 530              		@ sp needed
 531 0040 30BD     		pop	{r4, r5, pc}
 532              	.L55:
 533 0042 C046     		.align	2
 534              	.L54:
 535 0044 00000000 		.word	cyBle_state
 536 0048 00000000 		.word	sendBufferStatus
 537 004c 00000000 		.word	cyBle_connHandle
 538 0050 00000000 		.word	notifycaiton
 539              		.cfi_endproc
 540              	.LFE65:
 541              		.size	updateStatusData, .-updateStatusData
 542              		.section	.text.BLE_start,"ax",%progbits
 543              		.align	1
 544              		.global	BLE_start
 545              		.code	16
 546              		.thumb_func
 547              		.type	BLE_start, %function
 548              	BLE_start:
 549              	.LFB66:
 179:..\..\common\lib\lib_BLE/bluetooth.c **** 
 180:..\..\common\lib\lib_BLE/bluetooth.c **** void BLE_start(void)
 181:..\..\common\lib\lib_BLE/bluetooth.c **** {
 550              		.loc 1 181 0
 551              		.cfi_startproc
 552              		@ args = 0, pretend = 0, frame = 0
 553              		@ frame_needed = 0, uses_anonymous_args = 0
 554 0000 10B5     		push	{r4, lr}
 555              		.cfi_def_cfa_offset 8
 556              		.cfi_offset 4, -8
 557              		.cfi_offset 14, -4
 182:..\..\common\lib\lib_BLE/bluetooth.c ****     CyBle_Start(BleCallBack);
 558              		.loc 1 182 0
 559 0002 0248     		ldr	r0, .L57
 560 0004 FFF7FEFF 		bl	CyBle_Start
 561              	.LVL41:
 183:..\..\common\lib\lib_BLE/bluetooth.c ****     
 184:..\..\common\lib\lib_BLE/bluetooth.c ****     #ifdef DEBUG_BLE
 185:..\..\common\lib\lib_BLE/bluetooth.c ****         SW_UART_DEBUG_Start();
 186:..\..\common\lib\lib_BLE/bluetooth.c ****         SW_UART_DEBUG_PutString("Im ready\n\r");
ARM GAS  C:\Users\Petro\AppData\Local\Temp\ccv8ePIG.s 			page 15


 187:..\..\common\lib\lib_BLE/bluetooth.c ****     #endif
 188:..\..\common\lib\lib_BLE/bluetooth.c **** }
 562              		.loc 1 188 0
 563              		@ sp needed
 564 0008 10BD     		pop	{r4, pc}
 565              	.L58:
 566 000a C046     		.align	2
 567              	.L57:
 568 000c 00000000 		.word	BleCallBack
 569              		.cfi_endproc
 570              	.LFE66:
 571              		.size	BLE_start, .-BLE_start
 572              		.section	.text.BLE_processEvents,"ax",%progbits
 573              		.align	1
 574              		.global	BLE_processEvents
 575              		.code	16
 576              		.thumb_func
 577              		.type	BLE_processEvents, %function
 578              	BLE_processEvents:
 579              	.LFB67:
 189:..\..\common\lib\lib_BLE/bluetooth.c **** 
 190:..\..\common\lib\lib_BLE/bluetooth.c **** 
 191:..\..\common\lib\lib_BLE/bluetooth.c **** void BLE_processEvents(void)
 192:..\..\common\lib\lib_BLE/bluetooth.c **** {
 580              		.loc 1 192 0
 581              		.cfi_startproc
 582              		@ args = 0, pretend = 0, frame = 0
 583              		@ frame_needed = 0, uses_anonymous_args = 0
 584 0000 10B5     		push	{r4, lr}
 585              		.cfi_def_cfa_offset 8
 586              		.cfi_offset 4, -8
 587              		.cfi_offset 14, -4
 193:..\..\common\lib\lib_BLE/bluetooth.c ****     CyBle_ProcessEvents();
 588              		.loc 1 193 0
 589 0002 FFF7FEFF 		bl	CyBle_ProcessEvents
 590              	.LVL42:
 194:..\..\common\lib\lib_BLE/bluetooth.c ****     CyBle_EnterLPM(CYBLE_BLESS_DEEPSLEEP);
 591              		.loc 1 194 0
 592 0006 0320     		movs	r0, #3
 593 0008 FFF7FEFF 		bl	CyBle_EnterLPM
 594              	.LVL43:
 195:..\..\common\lib\lib_BLE/bluetooth.c **** }
 595              		.loc 1 195 0
 596              		@ sp needed
 597 000c 10BD     		pop	{r4, pc}
 598              		.cfi_endproc
 599              	.LFE67:
 600              		.size	BLE_processEvents, .-BLE_processEvents
 601              		.section	.text.BLE_getUnixTime,"ax",%progbits
 602              		.align	1
 603              		.global	BLE_getUnixTime
 604              		.code	16
 605              		.thumb_func
 606              		.type	BLE_getUnixTime, %function
 607              	BLE_getUnixTime:
 608              	.LFB68:
 196:..\..\common\lib\lib_BLE/bluetooth.c **** 
ARM GAS  C:\Users\Petro\AppData\Local\Temp\ccv8ePIG.s 			page 16


 197:..\..\common\lib\lib_BLE/bluetooth.c **** 
 198:..\..\common\lib\lib_BLE/bluetooth.c **** uint32_t BLE_getUnixTime(void)
 199:..\..\common\lib\lib_BLE/bluetooth.c **** {
 609              		.loc 1 199 0
 610              		.cfi_startproc
 611              		@ args = 0, pretend = 0, frame = 0
 612              		@ frame_needed = 0, uses_anonymous_args = 0
 613              		@ link register save eliminated.
 200:..\..\common\lib\lib_BLE/bluetooth.c ****     return bleUnixTime;
 614              		.loc 1 200 0
 615 0000 014B     		ldr	r3, .L61
 201:..\..\common\lib\lib_BLE/bluetooth.c **** }
 616              		.loc 1 201 0
 617              		@ sp needed
 200:..\..\common\lib\lib_BLE/bluetooth.c ****     return bleUnixTime;
 618              		.loc 1 200 0
 619 0002 5868     		ldr	r0, [r3, #4]
 620              		.loc 1 201 0
 621 0004 7047     		bx	lr
 622              	.L62:
 623 0006 C046     		.align	2
 624              	.L61:
 625 0008 00000000 		.word	.LANCHOR0
 626              		.cfi_endproc
 627              	.LFE68:
 628              		.size	BLE_getUnixTime, .-BLE_getUnixTime
 629              		.section	.text.BLE_getFlagAdminOnly,"ax",%progbits
 630              		.align	1
 631              		.global	BLE_getFlagAdminOnly
 632              		.code	16
 633              		.thumb_func
 634              		.type	BLE_getFlagAdminOnly, %function
 635              	BLE_getFlagAdminOnly:
 636              	.LFB69:
 202:..\..\common\lib\lib_BLE/bluetooth.c **** 
 203:..\..\common\lib\lib_BLE/bluetooth.c **** uint8_t BLE_getFlagAdminOnly(void)
 204:..\..\common\lib\lib_BLE/bluetooth.c **** {
 637              		.loc 1 204 0
 638              		.cfi_startproc
 639              		@ args = 0, pretend = 0, frame = 0
 640              		@ frame_needed = 0, uses_anonymous_args = 0
 641              		@ link register save eliminated.
 205:..\..\common\lib\lib_BLE/bluetooth.c **** //    if((CyBle_GetState() != CYBLE_STATE_CONNECTED) || statusBLE == 0)
 206:..\..\common\lib\lib_BLE/bluetooth.c **** //        return 0;
 207:..\..\common\lib\lib_BLE/bluetooth.c ****     
 208:..\..\common\lib\lib_BLE/bluetooth.c ****     if(adminIsOnly == 0)
 642              		.loc 1 208 0
 643 0000 034B     		ldr	r3, .L68
 644 0002 187A     		ldrb	r0, [r3, #8]
 645 0004 0028     		cmp	r0, #0
 646 0006 02D0     		beq	.L64
 209:..\..\common\lib\lib_BLE/bluetooth.c ****     {
 210:..\..\common\lib\lib_BLE/bluetooth.c ****         #ifdef DEBUG_BLE
 211:..\..\common\lib\lib_BLE/bluetooth.c ****         SW_UART_DEBUG_PutString("admin only 0\n\r");
 212:..\..\common\lib\lib_BLE/bluetooth.c ****         #endif
 213:..\..\common\lib\lib_BLE/bluetooth.c ****         return 0;
 214:..\..\common\lib\lib_BLE/bluetooth.c ****     }
ARM GAS  C:\Users\Petro\AppData\Local\Temp\ccv8ePIG.s 			page 17


 215:..\..\common\lib\lib_BLE/bluetooth.c ****     else
 216:..\..\common\lib\lib_BLE/bluetooth.c ****     {
 217:..\..\common\lib\lib_BLE/bluetooth.c ****         adminIsOnly = 0;
 647              		.loc 1 217 0
 648 0008 0022     		movs	r2, #0
 218:..\..\common\lib\lib_BLE/bluetooth.c ****         #ifdef DEBUG_BLE
 219:..\..\common\lib\lib_BLE/bluetooth.c ****         SW_UART_DEBUG_PutString("admin only 1\n\r");
 220:..\..\common\lib\lib_BLE/bluetooth.c ****         #endif
 221:..\..\common\lib\lib_BLE/bluetooth.c ****         return 1;
 649              		.loc 1 221 0
 650 000a 0120     		movs	r0, #1
 217:..\..\common\lib\lib_BLE/bluetooth.c ****         #ifdef DEBUG_BLE
 651              		.loc 1 217 0
 652 000c 1A72     		strb	r2, [r3, #8]
 653              	.L64:
 222:..\..\common\lib\lib_BLE/bluetooth.c ****     }
 223:..\..\common\lib\lib_BLE/bluetooth.c **** }
 654              		.loc 1 223 0
 655              		@ sp needed
 656 000e 7047     		bx	lr
 657              	.L69:
 658              		.align	2
 659              	.L68:
 660 0010 00000000 		.word	.LANCHOR0
 661              		.cfi_endproc
 662              	.LFE69:
 663              		.size	BLE_getFlagAdminOnly, .-BLE_getFlagAdminOnly
 664              		.global	__aeabi_uldivmod
 665              		.global	__aeabi_uidiv
 666              		.global	__aeabi_uidivmod
 667              		.section	.text.BLE_sendOneSkierTimeResult,"ax",%progbits
 668              		.align	1
 669              		.global	BLE_sendOneSkierTimeResult
 670              		.code	16
 671              		.thumb_func
 672              		.type	BLE_sendOneSkierTimeResult, %function
 673              	BLE_sendOneSkierTimeResult:
 674              	.LFB70:
 224:..\..\common\lib\lib_BLE/bluetooth.c **** 
 225:..\..\common\lib\lib_BLE/bluetooth.c **** void BLE_sendOneSkierTimeResult(skierDB_El *data,
 226:..\..\common\lib\lib_BLE/bluetooth.c ****                             uint8_t numSkierOnWay, uint8_t maxSkierOnWay)
 227:..\..\common\lib\lib_BLE/bluetooth.c **** {   
 675              		.loc 1 227 0
 676              		.cfi_startproc
 677              		@ args = 0, pretend = 0, frame = 24
 678              		@ frame_needed = 0, uses_anonymous_args = 0
 679              	.LVL44:
 228:..\..\common\lib\lib_BLE/bluetooth.c ****     RTC_DATE_TIME time;
 229:..\..\common\lib\lib_BLE/bluetooth.c ****     
 230:..\..\common\lib\lib_BLE/bluetooth.c ****     /*read unix time*/
 231:..\..\common\lib\lib_BLE/bluetooth.c ****     RTC_UnixToDateTime(&time, data->unixStartSkier, RTC_24_HOURS_FORMAT);
 680              		.loc 1 231 0
 681 0000 0023     		movs	r3, #0
 227:..\..\common\lib\lib_BLE/bluetooth.c ****     RTC_DATE_TIME time;
 682              		.loc 1 227 0
 683 0002 F0B5     		push	{r4, r5, r6, r7, lr}
 684              		.cfi_def_cfa_offset 20
ARM GAS  C:\Users\Petro\AppData\Local\Temp\ccv8ePIG.s 			page 18


 685              		.cfi_offset 4, -20
 686              		.cfi_offset 5, -16
 687              		.cfi_offset 6, -12
 688              		.cfi_offset 7, -8
 689              		.cfi_offset 14, -4
 690 0004 89B0     		sub	sp, sp, #36
 691              		.cfi_def_cfa_offset 56
 692              		.loc 1 231 0
 693 0006 0093     		str	r3, [sp]
 227:..\..\common\lib\lib_BLE/bluetooth.c ****     RTC_DATE_TIME time;
 694              		.loc 1 227 0
 695 0008 0600     		movs	r6, r0
 696 000a 0392     		str	r2, [sp, #12]
 697              		.loc 1 231 0
 698 000c 8268     		ldr	r2, [r0, #8]
 699 000e C368     		ldr	r3, [r0, #12]
 700              	.LVL45:
 701 0010 04A8     		add	r0, sp, #16
 702              	.LVL46:
 227:..\..\common\lib\lib_BLE/bluetooth.c ****     RTC_DATE_TIME time;
 703              		.loc 1 227 0
 704 0012 0291     		str	r1, [sp, #8]
 705              		.loc 1 231 0
 706 0014 FFF7FEFF 		bl	RTC_UnixToDateTime
 707              	.LVL47:
 708              	.LBB33:
 709              	.LBB34:
 710              		.file 2 "Generated_Source\\PSoC4/RTC.h"
   1:Generated_Source\PSoC4/RTC.h **** /***************************************************************************//**
   2:Generated_Source\PSoC4/RTC.h **** * \file Name: RTC.h
   3:Generated_Source\PSoC4/RTC.h **** * \version 1.20
   4:Generated_Source\PSoC4/RTC.h **** *
   5:Generated_Source\PSoC4/RTC.h **** *  This file provides constants and parameter values for the RTC_P4 Component.
   6:Generated_Source\PSoC4/RTC.h **** *
   7:Generated_Source\PSoC4/RTC.h **** ********************************************************************************
   8:Generated_Source\PSoC4/RTC.h **** * Copyright 2015-2017, Cypress Semiconductor Corporation.  All rights reserved.
   9:Generated_Source\PSoC4/RTC.h **** * You may use this file only in accordance with the license, terms, conditions,
  10:Generated_Source\PSoC4/RTC.h **** * disclaimers, and limitations in the end user license agreement accompanying
  11:Generated_Source\PSoC4/RTC.h **** * the software package with which this file was provided.
  12:Generated_Source\PSoC4/RTC.h **** *******************************************************************************/
  13:Generated_Source\PSoC4/RTC.h **** 
  14:Generated_Source\PSoC4/RTC.h **** #if !defined(CY_RTC_P4_RTC_H)
  15:Generated_Source\PSoC4/RTC.h **** #define CY_RTC_P4_RTC_H
  16:Generated_Source\PSoC4/RTC.h **** 
  17:Generated_Source\PSoC4/RTC.h **** #include <cytypes.h>
  18:Generated_Source\PSoC4/RTC.h **** #include <CyLib.h>
  19:Generated_Source\PSoC4/RTC.h **** 
  20:Generated_Source\PSoC4/RTC.h **** 
  21:Generated_Source\PSoC4/RTC.h **** /*******************************************************************************
  22:Generated_Source\PSoC4/RTC.h **** *    Data types definition
  23:Generated_Source\PSoC4/RTC.h **** *******************************************************************************/
  24:Generated_Source\PSoC4/RTC.h **** /**
  25:Generated_Source\PSoC4/RTC.h **** * \addtogroup group_enums
  26:Generated_Source\PSoC4/RTC.h **** * \{
  27:Generated_Source\PSoC4/RTC.h **** */
  28:Generated_Source\PSoC4/RTC.h **** /** Daylight saving Time format enumeration */
  29:Generated_Source\PSoC4/RTC.h **** typedef enum
ARM GAS  C:\Users\Petro\AppData\Local\Temp\ccv8ePIG.s 			page 19


  30:Generated_Source\PSoC4/RTC.h **** {
  31:Generated_Source\PSoC4/RTC.h ****     RTC_DST_DATE_RELATIVE = 0u,  /**< Relative DST format */
  32:Generated_Source\PSoC4/RTC.h ****     RTC_DST_DATE_FIXED = 1u      /**< Fixed DST format */
  33:Generated_Source\PSoC4/RTC.h **** }RTC_DST_DATETYPE_ENUM;
  34:Generated_Source\PSoC4/RTC.h **** /** \} group_enums */
  35:Generated_Source\PSoC4/RTC.h **** 
  36:Generated_Source\PSoC4/RTC.h **** /**
  37:Generated_Source\PSoC4/RTC.h **** * \addtogroup group_structures
  38:Generated_Source\PSoC4/RTC.h **** * \{
  39:Generated_Source\PSoC4/RTC.h **** */
  40:Generated_Source\PSoC4/RTC.h **** 
  41:Generated_Source\PSoC4/RTC.h **** /** RTC_DATE_TIME structure is the data structure that is used to 
  42:Generated_Source\PSoC4/RTC.h **** * save the current time and date (RTC_currentTimeDate), and Alarm time and date 
  43:Generated_Source\PSoC4/RTC.h **** *(RTC_alarmCfgTimeDate)
  44:Generated_Source\PSoC4/RTC.h **** *
  45:Generated_Source\PSoC4/RTC.h **** */
  46:Generated_Source\PSoC4/RTC.h **** typedef struct
  47:Generated_Source\PSoC4/RTC.h **** {
  48:Generated_Source\PSoC4/RTC.h ****     uint32 time;        /**< Time in the format used in API*/
  49:Generated_Source\PSoC4/RTC.h ****     uint32 date;        /**< Date in the format used in API*/
  50:Generated_Source\PSoC4/RTC.h ****     uint32 dayOfWeek;   /**< Day of the week, see \ref group_rtc_day_of_the_week */
  51:Generated_Source\PSoC4/RTC.h ****     uint32 status;      /**< RTC status, see \ref group_rtc_status */
  52:Generated_Source\PSoC4/RTC.h **** }RTC_DATE_TIME;
  53:Generated_Source\PSoC4/RTC.h **** 
  54:Generated_Source\PSoC4/RTC.h **** /*
  55:Generated_Source\PSoC4/RTC.h **** * RTC_DST_TIME structure is the data structure that is used to 
  56:Generated_Source\PSoC4/RTC.h **** * save time and date values for Daylight Savings Time Start and Stop 
  57:Generated_Source\PSoC4/RTC.h **** * (RTC_dstTimeDateStart and RTC_dstTimeDateStop)
  58:Generated_Source\PSoC4/RTC.h **** */
  59:Generated_Source\PSoC4/RTC.h **** typedef struct
  60:Generated_Source\PSoC4/RTC.h **** {
  61:Generated_Source\PSoC4/RTC.h ****     uint32 hour;          /**< Hour value */
  62:Generated_Source\PSoC4/RTC.h ****     uint32 dayOfWeek;     /**< Day of the week, see \ref group_rtc_day_of_the_week */
  63:Generated_Source\PSoC4/RTC.h ****     uint32 dayOfMonth;    /**< Day of the month */
  64:Generated_Source\PSoC4/RTC.h ****     uint32 weekOfMonth;   /**< Week of the month, see \ref group_rtc_dst_week_of_month */
  65:Generated_Source\PSoC4/RTC.h ****     uint32 month;         /**< Month value, see \ref group_rtc_month */
  66:Generated_Source\PSoC4/RTC.h ****     uint8  timeFormat;    /**< The DST operation mode, see \ref 
  67:Generated_Source\PSoC4/RTC.h ****                                RTC_DST_DATETYPE_ENUM */
  68:Generated_Source\PSoC4/RTC.h **** }RTC_DST_TIME;
  69:Generated_Source\PSoC4/RTC.h **** /** \} group_structures */
  70:Generated_Source\PSoC4/RTC.h **** 
  71:Generated_Source\PSoC4/RTC.h **** /*******************************************************************************
  72:Generated_Source\PSoC4/RTC.h **** *    Enumerated Types and Parameters
  73:Generated_Source\PSoC4/RTC.h **** *******************************************************************************/
  74:Generated_Source\PSoC4/RTC.h **** /* Time Format setting constants */
  75:Generated_Source\PSoC4/RTC.h **** #define RTC__HOUR_12 1
  76:Generated_Source\PSoC4/RTC.h **** #define RTC__HOUR_24 0
  77:Generated_Source\PSoC4/RTC.h **** 
  78:Generated_Source\PSoC4/RTC.h **** /*  Date Format setting constants */
  79:Generated_Source\PSoC4/RTC.h **** #define RTC__MM_DD_YYYY 0
  80:Generated_Source\PSoC4/RTC.h **** #define RTC__DD_MM_YYYY 1
  81:Generated_Source\PSoC4/RTC.h **** #define RTC__YYYY_MM_DD 2
  82:Generated_Source\PSoC4/RTC.h **** 
  83:Generated_Source\PSoC4/RTC.h **** /* Date Type setting constants */
  84:Generated_Source\PSoC4/RTC.h **** #define RTC__RELATIVE 0
  85:Generated_Source\PSoC4/RTC.h **** #define RTC__FIXED 1
  86:Generated_Source\PSoC4/RTC.h **** 
ARM GAS  C:\Users\Petro\AppData\Local\Temp\ccv8ePIG.s 			page 20


  87:Generated_Source\PSoC4/RTC.h **** /* DST Hour setting constants */
  88:Generated_Source\PSoC4/RTC.h **** #define RTC__H0000 0
  89:Generated_Source\PSoC4/RTC.h **** #define RTC__H0100 1
  90:Generated_Source\PSoC4/RTC.h **** #define RTC__H0200 2
  91:Generated_Source\PSoC4/RTC.h **** #define RTC__H0300 3
  92:Generated_Source\PSoC4/RTC.h **** #define RTC__H0400 4
  93:Generated_Source\PSoC4/RTC.h **** #define RTC__H0500 5
  94:Generated_Source\PSoC4/RTC.h **** #define RTC__H0600 6
  95:Generated_Source\PSoC4/RTC.h **** #define RTC__H0700 7
  96:Generated_Source\PSoC4/RTC.h **** #define RTC__H0800 8
  97:Generated_Source\PSoC4/RTC.h **** #define RTC__H0900 9
  98:Generated_Source\PSoC4/RTC.h **** #define RTC__H1000 10
  99:Generated_Source\PSoC4/RTC.h **** #define RTC__H1100 11
 100:Generated_Source\PSoC4/RTC.h **** #define RTC__H1200 12
 101:Generated_Source\PSoC4/RTC.h **** #define RTC__H1300 13
 102:Generated_Source\PSoC4/RTC.h **** #define RTC__H1400 14
 103:Generated_Source\PSoC4/RTC.h **** #define RTC__H1500 15
 104:Generated_Source\PSoC4/RTC.h **** #define RTC__H1600 16
 105:Generated_Source\PSoC4/RTC.h **** #define RTC__H1700 17
 106:Generated_Source\PSoC4/RTC.h **** #define RTC__H1800 18
 107:Generated_Source\PSoC4/RTC.h **** #define RTC__H1900 19
 108:Generated_Source\PSoC4/RTC.h **** #define RTC__H2000 20
 109:Generated_Source\PSoC4/RTC.h **** #define RTC__H2100 21
 110:Generated_Source\PSoC4/RTC.h **** #define RTC__H2200 22
 111:Generated_Source\PSoC4/RTC.h **** #define RTC__H2300 23
 112:Generated_Source\PSoC4/RTC.h **** 
 113:Generated_Source\PSoC4/RTC.h **** /* DST DayOfWeek setting constants */
 114:Generated_Source\PSoC4/RTC.h **** #define RTC__SUNDAY 1
 115:Generated_Source\PSoC4/RTC.h **** #define RTC__MONDAY 2
 116:Generated_Source\PSoC4/RTC.h **** #define RTC__TUESDAY 3
 117:Generated_Source\PSoC4/RTC.h **** #define RTC__WEDNESDAY 4
 118:Generated_Source\PSoC4/RTC.h **** #define RTC__THURSDAY 5
 119:Generated_Source\PSoC4/RTC.h **** #define RTC__FRIDAY 6
 120:Generated_Source\PSoC4/RTC.h **** #define RTC__SATURDAY 7
 121:Generated_Source\PSoC4/RTC.h **** 
 122:Generated_Source\PSoC4/RTC.h **** /* DST Month setting constants */
 123:Generated_Source\PSoC4/RTC.h **** #define RTC__JAN 1
 124:Generated_Source\PSoC4/RTC.h **** #define RTC__FEB 2
 125:Generated_Source\PSoC4/RTC.h **** #define RTC__MAR 3
 126:Generated_Source\PSoC4/RTC.h **** #define RTC__APR 4
 127:Generated_Source\PSoC4/RTC.h **** #define RTC__MAY 5
 128:Generated_Source\PSoC4/RTC.h **** #define RTC__JUN 6
 129:Generated_Source\PSoC4/RTC.h **** #define RTC__JUL 7
 130:Generated_Source\PSoC4/RTC.h **** #define RTC__AUG 8
 131:Generated_Source\PSoC4/RTC.h **** #define RTC__SEP 9
 132:Generated_Source\PSoC4/RTC.h **** #define RTC__OCT 10
 133:Generated_Source\PSoC4/RTC.h **** #define RTC__NOV 11
 134:Generated_Source\PSoC4/RTC.h **** #define RTC__DEC 12
 135:Generated_Source\PSoC4/RTC.h **** 
 136:Generated_Source\PSoC4/RTC.h **** /* DST WeekOfMonth setting constants */
 137:Generated_Source\PSoC4/RTC.h **** #define RTC__FIRST 1
 138:Generated_Source\PSoC4/RTC.h **** #define RTC__SECOND 2
 139:Generated_Source\PSoC4/RTC.h **** #define RTC__THIRD 3
 140:Generated_Source\PSoC4/RTC.h **** #define RTC__FOURTH 4
 141:Generated_Source\PSoC4/RTC.h **** #define RTC__FIFTH 5
 142:Generated_Source\PSoC4/RTC.h **** #define RTC__LAST 6
 143:Generated_Source\PSoC4/RTC.h **** 
ARM GAS  C:\Users\Petro\AppData\Local\Temp\ccv8ePIG.s 			page 21


 144:Generated_Source\PSoC4/RTC.h **** 
 145:Generated_Source\PSoC4/RTC.h **** #define RTC_INITIAL_DATA_FORMAT     (0u)
 146:Generated_Source\PSoC4/RTC.h **** #define RTC_INITIAL_TIME_FORMAT     (0u)
 147:Generated_Source\PSoC4/RTC.h **** #define RTC_INITIAL_UPDATE_MODE     (0u)
 148:Generated_Source\PSoC4/RTC.h **** #define RTC_INITIAL_SECOND          (0u)
 149:Generated_Source\PSoC4/RTC.h **** #define RTC_INITIAL_MINUTE          (16u)
 150:Generated_Source\PSoC4/RTC.h **** #define RTC_INITIAL_HOUR            (10u)
 151:Generated_Source\PSoC4/RTC.h **** #define RTC_INITIAL_DAY             (9u)
 152:Generated_Source\PSoC4/RTC.h **** #define RTC_INITIAL_MONTH           (8u)
 153:Generated_Source\PSoC4/RTC.h **** #define RTC_INITIAL_YEAR            (2016u)
 154:Generated_Source\PSoC4/RTC.h **** 
 155:Generated_Source\PSoC4/RTC.h **** #define RTC_INITIAL_ALARM_STATUS    (0u)
 156:Generated_Source\PSoC4/RTC.h **** 
 157:Generated_Source\PSoC4/RTC.h **** #define RTC_INITIAL_DST_STATUS      (0u)
 158:Generated_Source\PSoC4/RTC.h **** #define RTC_INITIAL_DST_DATE_TYPE   (0u)
 159:Generated_Source\PSoC4/RTC.h **** #define RTC_INITIAL_DST_START_MONTH (3uL)
 160:Generated_Source\PSoC4/RTC.h **** #define RTC_INITIAL_DST_START_WOM   (6uL)
 161:Generated_Source\PSoC4/RTC.h **** #define RTC_INITIAL_DST_START_DOM   (22uL)
 162:Generated_Source\PSoC4/RTC.h **** #define RTC_INITIAL_DST_START_DOW   (1uL)
 163:Generated_Source\PSoC4/RTC.h **** #define RTC_INITIAL_DST_START_HRS   (0uL)
 164:Generated_Source\PSoC4/RTC.h **** #define RTC_INITIAL_DST_STOP_MONTH  (10uL)
 165:Generated_Source\PSoC4/RTC.h **** #define RTC_INITIAL_DST_STOP_DOM    (22uL)
 166:Generated_Source\PSoC4/RTC.h **** #define RTC_INITIAL_DST_STOP_DOW    (1uL)
 167:Generated_Source\PSoC4/RTC.h **** #define RTC_INITIAL_DST_STOP_WOM    (6uL)
 168:Generated_Source\PSoC4/RTC.h **** #define RTC_INITIAL_DST_STOP_HRS    (0uL)
 169:Generated_Source\PSoC4/RTC.h **** 
 170:Generated_Source\PSoC4/RTC.h **** /**
 171:Generated_Source\PSoC4/RTC.h **** * \addtogroup group_constants
 172:Generated_Source\PSoC4/RTC.h **** * \{
 173:Generated_Source\PSoC4/RTC.h **** */
 174:Generated_Source\PSoC4/RTC.h **** 
 175:Generated_Source\PSoC4/RTC.h **** /**
 176:Generated_Source\PSoC4/RTC.h **** * \defgroup group_rtc_day_of_the_week Day of the week definitions
 177:Generated_Source\PSoC4/RTC.h **** * \{
 178:Generated_Source\PSoC4/RTC.h **** * Definitions of days in the week
 179:Generated_Source\PSoC4/RTC.h **** */
 180:Generated_Source\PSoC4/RTC.h **** #define RTC_SUNDAY     (RTC__SUNDAY)       /**< Sequential number of Sunday in the week */
 181:Generated_Source\PSoC4/RTC.h **** #define RTC_MONDAY     (RTC__MONDAY)       /**< Sequential number of Monday in the week */
 182:Generated_Source\PSoC4/RTC.h **** #define RTC_TUESDAY    (RTC__TUESDAY)      /**< Sequential number of Tuesday in the week */
 183:Generated_Source\PSoC4/RTC.h **** #define RTC_WEDNESDAY  (RTC__WEDNESDAY)    /**< Sequential number of Wednesday in the week */
 184:Generated_Source\PSoC4/RTC.h **** #define RTC_THURSDAY   (RTC__THURSDAY)     /**< Sequential number of Thursday in the week */
 185:Generated_Source\PSoC4/RTC.h **** #define RTC_FRIDAY     (RTC__FRIDAY)       /**< Sequential number of Friday in the week */
 186:Generated_Source\PSoC4/RTC.h **** #define RTC_SATURDAY   (RTC__SATURDAY)     /**< Sequential number of Saturday in the week */
 187:Generated_Source\PSoC4/RTC.h **** /** \} group_rtc_day_of_the_week */
 188:Generated_Source\PSoC4/RTC.h **** 
 189:Generated_Source\PSoC4/RTC.h **** /**
 190:Generated_Source\PSoC4/RTC.h **** * \defgroup group_rtc_dst_week_of_month DST Week of month setting constants definitions
 191:Generated_Source\PSoC4/RTC.h **** * \{
 192:Generated_Source\PSoC4/RTC.h **** * Week of month setting constants definitions for Daylight Saving Time feature
 193:Generated_Source\PSoC4/RTC.h **** */
 194:Generated_Source\PSoC4/RTC.h **** #define RTC_FIRST      (RTC__FIRST)   /**< First week in the month */
 195:Generated_Source\PSoC4/RTC.h **** #define RTC_SECOND     (RTC__SECOND)  /**< Second week in the month  */
 196:Generated_Source\PSoC4/RTC.h **** #define RTC_THIRD      (RTC__THIRD)   /**< Third week in the month  */
 197:Generated_Source\PSoC4/RTC.h **** #define RTC_FOURTH     (RTC__FOURTH)  /**< Fourth week in the month  */
 198:Generated_Source\PSoC4/RTC.h **** #define RTC_FIFTH      (RTC__FIFTH)   /**< Fifth week in the month  */
 199:Generated_Source\PSoC4/RTC.h **** #define RTC_LAST       (RTC__LAST)    /**< Last week in the month  */
 200:Generated_Source\PSoC4/RTC.h **** /** \} group_rtc_dst_week_of_month */
ARM GAS  C:\Users\Petro\AppData\Local\Temp\ccv8ePIG.s 			page 22


 201:Generated_Source\PSoC4/RTC.h **** 
 202:Generated_Source\PSoC4/RTC.h **** /**
 203:Generated_Source\PSoC4/RTC.h **** * \defgroup group_rtc_month Month definitions
 204:Generated_Source\PSoC4/RTC.h **** * \{
 205:Generated_Source\PSoC4/RTC.h **** * Constants definition for Months
 206:Generated_Source\PSoC4/RTC.h **** */
 207:Generated_Source\PSoC4/RTC.h **** #define RTC_JANUARY    (RTC__JAN)    /**< Sequential number of January in the year */
 208:Generated_Source\PSoC4/RTC.h **** #define RTC_FEBRUARY   (RTC__FEB)    /**< Sequential number of February in the year */
 209:Generated_Source\PSoC4/RTC.h **** #define RTC_MARCH      (RTC__MAR)    /**< Sequential number of March in the year */
 210:Generated_Source\PSoC4/RTC.h **** #define RTC_APRIL      (RTC__APR)    /**< Sequential number of April in the year */
 211:Generated_Source\PSoC4/RTC.h **** #define RTC_MAY        (RTC__MAY)    /**< Sequential number of May in the year */
 212:Generated_Source\PSoC4/RTC.h **** #define RTC_JUNE       (RTC__JUN)    /**< Sequential number of June in the year */
 213:Generated_Source\PSoC4/RTC.h **** #define RTC_JULY       (RTC__JUL)    /**< Sequential number of July in the year */
 214:Generated_Source\PSoC4/RTC.h **** #define RTC_AUGUST     (RTC__AUG)    /**< Sequential number of August in the year */
 215:Generated_Source\PSoC4/RTC.h **** #define RTC_SEPTEMBER  (RTC__SEP)    /**< Sequential number of September in the year */
 216:Generated_Source\PSoC4/RTC.h **** #define RTC_OCTOBER    (RTC__OCT)    /**< Sequential number of October in the year */
 217:Generated_Source\PSoC4/RTC.h **** #define RTC_NOVEMBER   (RTC__NOV)    /**< Sequential number of November in the year */
 218:Generated_Source\PSoC4/RTC.h **** #define RTC_DECEMBER   (RTC__DEC)    /**< Sequential number of December in the year */
 219:Generated_Source\PSoC4/RTC.h **** /** \} group_rtc_month */
 220:Generated_Source\PSoC4/RTC.h **** 
 221:Generated_Source\PSoC4/RTC.h **** /**
 222:Generated_Source\PSoC4/RTC.h **** * \defgroup group_rtc_am_pm AM/PM status definitions
 223:Generated_Source\PSoC4/RTC.h **** * \{
 224:Generated_Source\PSoC4/RTC.h **** * Definitions for 12 hour format for indicating the AM/PM period of day
 225:Generated_Source\PSoC4/RTC.h **** */
 226:Generated_Source\PSoC4/RTC.h **** #define RTC_AM                 (0u)    /**< AM period of day */
 227:Generated_Source\PSoC4/RTC.h **** #define RTC_PM                 (1u)    /**< PM period of day */
 228:Generated_Source\PSoC4/RTC.h **** /** \} group_rtc_am_pm */
 229:Generated_Source\PSoC4/RTC.h **** 
 230:Generated_Source\PSoC4/RTC.h **** /**
 231:Generated_Source\PSoC4/RTC.h **** * \defgroup group_rtc_hour_format Hour format definitions
 232:Generated_Source\PSoC4/RTC.h **** * \{
 233:Generated_Source\PSoC4/RTC.h **** * Definitions for hour format
 234:Generated_Source\PSoC4/RTC.h **** */
 235:Generated_Source\PSoC4/RTC.h **** #define RTC_12_HOURS_FORMAT    (RTC__HOUR_12) /**< The 24 hour format */
 236:Generated_Source\PSoC4/RTC.h **** #define RTC_24_HOURS_FORMAT    (RTC__HOUR_24) /**< The 12 hour (AM/PM) format */
 237:Generated_Source\PSoC4/RTC.h **** /** \} group_rtc_hour_format */
 238:Generated_Source\PSoC4/RTC.h **** 
 239:Generated_Source\PSoC4/RTC.h **** /**
 240:Generated_Source\PSoC4/RTC.h **** * \defgroup group_rtc_days_in_month Number of days in month definitions
 241:Generated_Source\PSoC4/RTC.h **** * \{
 242:Generated_Source\PSoC4/RTC.h **** * Definition of days in current month
 243:Generated_Source\PSoC4/RTC.h **** */
 244:Generated_Source\PSoC4/RTC.h **** #define RTC_DAYS_IN_JANUARY     (31u)    /**< Number of days in January  */
 245:Generated_Source\PSoC4/RTC.h **** #define RTC_DAYS_IN_FEBRUARY    (28u)    /**< Number of days in February */
 246:Generated_Source\PSoC4/RTC.h **** #define RTC_DAYS_IN_MARCH       (31u)    /**< Number of days in March */
 247:Generated_Source\PSoC4/RTC.h **** #define RTC_DAYS_IN_APRIL       (30u)    /**< Number of days in April */
 248:Generated_Source\PSoC4/RTC.h **** #define RTC_DAYS_IN_MAY         (31u)    /**< Number of days in May */
 249:Generated_Source\PSoC4/RTC.h **** #define RTC_DAYS_IN_JUNE        (30u)    /**< Number of days in June */
 250:Generated_Source\PSoC4/RTC.h **** #define RTC_DAYS_IN_JULY        (31u)    /**< Number of days in July */
 251:Generated_Source\PSoC4/RTC.h **** #define RTC_DAYS_IN_AUGUST      (31u)    /**< Number of days in August */
 252:Generated_Source\PSoC4/RTC.h **** #define RTC_DAYS_IN_SEPTEMBER   (30u)    /**< Number of days in September */
 253:Generated_Source\PSoC4/RTC.h **** #define RTC_DAYS_IN_OCTOBER     (31u)    /**< Number of days in October */
 254:Generated_Source\PSoC4/RTC.h **** #define RTC_DAYS_IN_NOVEMBER    (30u)    /**< Number of days in November */
 255:Generated_Source\PSoC4/RTC.h **** #define RTC_DAYS_IN_DECEMBER    (31u)    /**< Number of days in December */
 256:Generated_Source\PSoC4/RTC.h **** /** \} group_rtc_days_in_month */
 257:Generated_Source\PSoC4/RTC.h **** 
ARM GAS  C:\Users\Petro\AppData\Local\Temp\ccv8ePIG.s 			page 23


 258:Generated_Source\PSoC4/RTC.h **** /**
 259:Generated_Source\PSoC4/RTC.h **** * \defgroup group_rtc_status Definitions of the RTC status values
 260:Generated_Source\PSoC4/RTC.h **** * \{
 261:Generated_Source\PSoC4/RTC.h **** * Definitions for status software register, which has flags for DST (DST),
 262:Generated_Source\PSoC4/RTC.h **** * Leap Year (LY), AM/PM (AM_PM).
 263:Generated_Source\PSoC4/RTC.h **** */
 264:Generated_Source\PSoC4/RTC.h **** 
 265:Generated_Source\PSoC4/RTC.h **** /** Status of Daylight Saving Time. This bit
 266:Generated_Source\PSoC4/RTC.h **** * goes high when the current time and date match the DST time and date and the 
 267:Generated_Source\PSoC4/RTC.h **** * time is incremented. This bit goes low after the DST interval and the time is 
 268:Generated_Source\PSoC4/RTC.h **** * decremented.
 269:Generated_Source\PSoC4/RTC.h **** */
 270:Generated_Source\PSoC4/RTC.h **** #define RTC_STATUS_DST     (1uL << RTC_STATUS_DST_OFFSET)
 271:Generated_Source\PSoC4/RTC.h **** 
 272:Generated_Source\PSoC4/RTC.h **** /** Status of Leap Year. This bit goes high when the current year is a leap year */
 273:Generated_Source\PSoC4/RTC.h **** #define RTC_STATUS_LY      (1uL << RTC_STATUS_LY_OFFSET)
 274:Generated_Source\PSoC4/RTC.h **** 
 275:Generated_Source\PSoC4/RTC.h **** /** Status of Current Time. This bit is low from midnight to noon and high from 
 276:Generated_Source\PSoC4/RTC.h **** *  noon to midnight. */
 277:Generated_Source\PSoC4/RTC.h **** #define RTC_STATUS_AM_PM   (1uL << RTC_STATUS_AM_PM_OFFSET)
 278:Generated_Source\PSoC4/RTC.h **** /** \} group_rtc_status */
 279:Generated_Source\PSoC4/RTC.h **** 
 280:Generated_Source\PSoC4/RTC.h **** /**
 281:Generated_Source\PSoC4/RTC.h **** * \defgroup group_rtc_alarm_mask Definitions for Alarm Mask software register
 282:Generated_Source\PSoC4/RTC.h **** * \{
 283:Generated_Source\PSoC4/RTC.h **** * Definitions for Alarm Mask software register. These masks allow 
 284:Generated_Source\PSoC4/RTC.h **** * matching the alarm value register with the current value register.
 285:Generated_Source\PSoC4/RTC.h **** */
 286:Generated_Source\PSoC4/RTC.h **** 
 287:Generated_Source\PSoC4/RTC.h **** /** The second alarm mask allows matching the alarm second register with the 
 288:Generated_Source\PSoC4/RTC.h **** *   current second register.
 289:Generated_Source\PSoC4/RTC.h **** */
 290:Generated_Source\PSoC4/RTC.h **** #define RTC_ALARM_SEC_MASK         (0x00000001uL)
 291:Generated_Source\PSoC4/RTC.h **** 
 292:Generated_Source\PSoC4/RTC.h **** /** The minute alarm mask allows matching the alarm minute register with the 
 293:Generated_Source\PSoC4/RTC.h **** *   current minute register.
 294:Generated_Source\PSoC4/RTC.h **** */
 295:Generated_Source\PSoC4/RTC.h **** #define RTC_ALARM_MIN_MASK         (0x00000002uL)
 296:Generated_Source\PSoC4/RTC.h **** 
 297:Generated_Source\PSoC4/RTC.h **** /** The hour alarm mask allows matching the alarm hour register with the 
 298:Generated_Source\PSoC4/RTC.h **** *   current hour register.
 299:Generated_Source\PSoC4/RTC.h **** */
 300:Generated_Source\PSoC4/RTC.h **** #define RTC_ALARM_HOUR_MASK        (0x00000004uL)
 301:Generated_Source\PSoC4/RTC.h **** 
 302:Generated_Source\PSoC4/RTC.h **** /** The day of the week alarm mask allows matching the alarm hour register with 
 303:Generated_Source\PSoC4/RTC.h **** *   the current day of the week register.
 304:Generated_Source\PSoC4/RTC.h **** */
 305:Generated_Source\PSoC4/RTC.h **** #define RTC_ALARM_DAYOFWEEK_MASK   (0x00000008uL)
 306:Generated_Source\PSoC4/RTC.h **** 
 307:Generated_Source\PSoC4/RTC.h **** /** The day of the Month alarm mask allows matching the alarm hour register with 
 308:Generated_Source\PSoC4/RTC.h **** *   the current day of the Month register.
 309:Generated_Source\PSoC4/RTC.h **** */
 310:Generated_Source\PSoC4/RTC.h **** #define RTC_ALARM_DAYOFMONTH_MASK  (0x00000010uL)
 311:Generated_Source\PSoC4/RTC.h **** 
 312:Generated_Source\PSoC4/RTC.h **** /** The month alarm mask allows matching the alarm hour register with the
 313:Generated_Source\PSoC4/RTC.h **** *   current month register.
 314:Generated_Source\PSoC4/RTC.h **** */
ARM GAS  C:\Users\Petro\AppData\Local\Temp\ccv8ePIG.s 			page 24


 315:Generated_Source\PSoC4/RTC.h **** #define RTC_ALARM_MONTH_MASK       (0x00000020uL)
 316:Generated_Source\PSoC4/RTC.h **** 
 317:Generated_Source\PSoC4/RTC.h **** /** The year alarm mask allows matching the alarm hour register with the
 318:Generated_Source\PSoC4/RTC.h **** *   current year register.
 319:Generated_Source\PSoC4/RTC.h **** */
 320:Generated_Source\PSoC4/RTC.h **** #define RTC_ALARM_YEAR_MASK        (0x00000040uL)
 321:Generated_Source\PSoC4/RTC.h **** 
 322:Generated_Source\PSoC4/RTC.h **** /** \} group_rtc_alarm_mask */
 323:Generated_Source\PSoC4/RTC.h **** /** \} group_constants */
 324:Generated_Source\PSoC4/RTC.h **** 
 325:Generated_Source\PSoC4/RTC.h **** #define RTC_DAYS_PER_WEEK       (7u)
 326:Generated_Source\PSoC4/RTC.h **** 
 327:Generated_Source\PSoC4/RTC.h **** #define RTC_MONTHS_PER_YEAR     (12uL)
 328:Generated_Source\PSoC4/RTC.h **** 
 329:Generated_Source\PSoC4/RTC.h **** #define RTC_HOURS_PER_DAY       (24uL)
 330:Generated_Source\PSoC4/RTC.h **** #define RTC_HOURS_PER_HALF_DAY  (12uL)
 331:Generated_Source\PSoC4/RTC.h **** 
 332:Generated_Source\PSoC4/RTC.h **** #define RTC_SECONDS_PER_MINUTE  (60uL)
 333:Generated_Source\PSoC4/RTC.h **** #define RTC_SECONDS_PER_HOUR    (3600uL)
 334:Generated_Source\PSoC4/RTC.h **** #define RTC_SECONDS_PER_DAY     (24uL * 3600uL)
 335:Generated_Source\PSoC4/RTC.h **** 
 336:Generated_Source\PSoC4/RTC.h **** #define RTC_SECONDS_PER_LEAP_YEAR    (366uL * 24uL * 3600uL)
 337:Generated_Source\PSoC4/RTC.h **** #define RTC_SECONDS_PER_NONLEAP_YEAR (365uL * 24uL * 3600uL)
 338:Generated_Source\PSoC4/RTC.h **** 
 339:Generated_Source\PSoC4/RTC.h **** #define RTC_UNIX_TIME_PM        ((12uL * 3600uL) + 1uL)
 340:Generated_Source\PSoC4/RTC.h **** 
 341:Generated_Source\PSoC4/RTC.h **** /* Unix time begins in 1970 year */
 342:Generated_Source\PSoC4/RTC.h **** #define RTC_YEAR_0             (1970u)
 343:Generated_Source\PSoC4/RTC.h **** 
 344:Generated_Source\PSoC4/RTC.h **** /* Definition of date register fields */
 345:Generated_Source\PSoC4/RTC.h **** #if(RTC_INITIAL_DATA_FORMAT == RTC__MM_DD_YYYY)
 346:Generated_Source\PSoC4/RTC.h ****     #define RTC_10_MONTH_OFFSET   (28u)
 347:Generated_Source\PSoC4/RTC.h ****     #define RTC_MONTH_OFFSET      (24u)
 348:Generated_Source\PSoC4/RTC.h ****     #define RTC_10_DAY_OFFSET     (20u)
 349:Generated_Source\PSoC4/RTC.h ****     #define RTC_DAY_OFFSET        (16u)
 350:Generated_Source\PSoC4/RTC.h ****     #define RTC_1000_YEAR_OFFSET  (12u)
 351:Generated_Source\PSoC4/RTC.h ****     #define RTC_100_YEAR_OFFSET   (8u)
 352:Generated_Source\PSoC4/RTC.h ****     #define RTC_10_YEAR_OFFSET    (4u)
 353:Generated_Source\PSoC4/RTC.h ****     #define RTC_YEAR_OFFSET       (0u)
 354:Generated_Source\PSoC4/RTC.h **** #elif(RTC_INITIAL_DATA_FORMAT == RTC__DD_MM_YYYY)
 355:Generated_Source\PSoC4/RTC.h ****     #define RTC_10_MONTH_OFFSET   (20u)
 356:Generated_Source\PSoC4/RTC.h ****     #define RTC_MONTH_OFFSET      (16u)
 357:Generated_Source\PSoC4/RTC.h ****     #define RTC_10_DAY_OFFSET     (28u)
 358:Generated_Source\PSoC4/RTC.h ****     #define RTC_DAY_OFFSET        (24u)
 359:Generated_Source\PSoC4/RTC.h ****     #define RTC_1000_YEAR_OFFSET  (12u)
 360:Generated_Source\PSoC4/RTC.h ****     #define RTC_100_YEAR_OFFSET   (8u)
 361:Generated_Source\PSoC4/RTC.h ****     #define RTC_10_YEAR_OFFSET    (4u)
 362:Generated_Source\PSoC4/RTC.h ****     #define RTC_YEAR_OFFSET       (0u)
 363:Generated_Source\PSoC4/RTC.h **** #else
 364:Generated_Source\PSoC4/RTC.h ****     #define RTC_10_MONTH_OFFSET   (12u)
 365:Generated_Source\PSoC4/RTC.h ****     #define RTC_MONTH_OFFSET      (8u)
 366:Generated_Source\PSoC4/RTC.h ****     #define RTC_10_DAY_OFFSET     (4u)
 367:Generated_Source\PSoC4/RTC.h ****     #define RTC_DAY_OFFSET        (0u)
 368:Generated_Source\PSoC4/RTC.h ****     #define RTC_1000_YEAR_OFFSET  (28u)
 369:Generated_Source\PSoC4/RTC.h ****     #define RTC_100_YEAR_OFFSET   (24u)
 370:Generated_Source\PSoC4/RTC.h ****     #define RTC_10_YEAR_OFFSET    (20u)
 371:Generated_Source\PSoC4/RTC.h ****     #define RTC_YEAR_OFFSET       (16u)
ARM GAS  C:\Users\Petro\AppData\Local\Temp\ccv8ePIG.s 			page 25


 372:Generated_Source\PSoC4/RTC.h **** #endif /* (RTC_INITIAL_DATA_FORMAT == RTC__MM_DD_YYYY) */
 373:Generated_Source\PSoC4/RTC.h **** 
 374:Generated_Source\PSoC4/RTC.h **** #define RTC_10_MONTH_MASK          (0x00000001uL << RTC_10_MONTH_OFFSET)
 375:Generated_Source\PSoC4/RTC.h **** #define RTC_MONTH_MASK             (0x0000000FuL << RTC_MONTH_OFFSET)
 376:Generated_Source\PSoC4/RTC.h **** #define RTC_10_DAY_MASK            (0x00000003uL << RTC_10_DAY_OFFSET)
 377:Generated_Source\PSoC4/RTC.h **** #define RTC_DAY_MASK               (0x0000000FuL << RTC_DAY_OFFSET)
 378:Generated_Source\PSoC4/RTC.h **** #define RTC_1000_YEAR_MASK         (0x00000003uL << RTC_1000_YEAR_OFFSET)
 379:Generated_Source\PSoC4/RTC.h **** #define RTC_100_YEAR_MASK          (0x0000000FuL << RTC_100_YEAR_OFFSET)
 380:Generated_Source\PSoC4/RTC.h **** #define RTC_10_YEAR_MASK           (0x0000000FuL << RTC_10_YEAR_OFFSET)
 381:Generated_Source\PSoC4/RTC.h **** #define RTC_YEAR_MASK              (0x0000000FuL << RTC_YEAR_OFFSET)
 382:Generated_Source\PSoC4/RTC.h **** 
 383:Generated_Source\PSoC4/RTC.h **** #define  RTC_MONTH_FULL_MASK       (RTC_10_MONTH_MASK  | RTC_MONTH_MASK)
 384:Generated_Source\PSoC4/RTC.h **** #define  RTC_DAY_FULL_MASK         (RTC_10_DAY_MASK    | RTC_DAY_MASK)
 385:Generated_Source\PSoC4/RTC.h **** #define  RTC_YEAR_FULL_MASK        (RTC_1000_YEAR_MASK | RTC_100_YEAR_MASK |\
 386:Generated_Source\PSoC4/RTC.h ****                                                  RTC_10_YEAR_MASK   | RTC_YEAR_MASK)
 387:Generated_Source\PSoC4/RTC.h **** 
 388:Generated_Source\PSoC4/RTC.h **** /* Definition of time register fields */
 389:Generated_Source\PSoC4/RTC.h **** #define RTC_TIME_FORMAT_OFFSET     (23u)
 390:Generated_Source\PSoC4/RTC.h **** #define RTC_PERIOD_OF_DAY_OFFSET   (22u)
 391:Generated_Source\PSoC4/RTC.h **** #define RTC_10_HOURS_OFFSET        (20u)
 392:Generated_Source\PSoC4/RTC.h **** #define RTC_HOURS_OFFSET           (16u)
 393:Generated_Source\PSoC4/RTC.h **** #define RTC_10_MINUTES_OFFSET      (12u)
 394:Generated_Source\PSoC4/RTC.h **** #define RTC_MINUTES_OFFSET         (8u)
 395:Generated_Source\PSoC4/RTC.h **** #define RTC_10_SECONDS_OFFSET      (4u)
 396:Generated_Source\PSoC4/RTC.h **** #define RTC_SECONDS_OFFSET         (0u)
 397:Generated_Source\PSoC4/RTC.h **** 
 398:Generated_Source\PSoC4/RTC.h **** #define RTC_TIME_FORMAT_MASK       (0x00000001uL << RTC_TIME_FORMAT_OFFSET)
 399:Generated_Source\PSoC4/RTC.h **** #define RTC_PERIOD_OF_DAY_MASK     (0x00000001uL << RTC_PERIOD_OF_DAY_OFFSET)
 400:Generated_Source\PSoC4/RTC.h **** #define RTC_10_HOURS_MASK          (0x00000003uL << RTC_10_HOURS_OFFSET)
 401:Generated_Source\PSoC4/RTC.h **** #define RTC_HOURS_MASK             (0x0000000FuL << RTC_HOURS_OFFSET)
 402:Generated_Source\PSoC4/RTC.h **** #define RTC_10_MINUTES_MASK        (0x00000007uL << RTC_10_MINUTES_OFFSET)
 403:Generated_Source\PSoC4/RTC.h **** #define RTC_MINUTES_MASK           (0x0000000FuL << RTC_MINUTES_OFFSET)
 404:Generated_Source\PSoC4/RTC.h **** #define RTC_10_SECONDS_MASK        (0x00000007uL << RTC_10_SECONDS_OFFSET)
 405:Generated_Source\PSoC4/RTC.h **** #define RTC_SECONDS_MASK           (0x0000000FuL << RTC_SECONDS_OFFSET)
 406:Generated_Source\PSoC4/RTC.h **** 
 407:Generated_Source\PSoC4/RTC.h **** #define RTC_HOURS_FULL_MASK        (RTC_10_HOURS_MASK   | RTC_HOURS_MASK)
 408:Generated_Source\PSoC4/RTC.h **** #define RTC_MINUTES_FULL_MASK      (RTC_10_MINUTES_MASK | RTC_MINUTES_MASK)
 409:Generated_Source\PSoC4/RTC.h **** #define RTC_SECONDS_FULL_MASK      (RTC_10_SECONDS_MASK | RTC_SECONDS_MASK)
 410:Generated_Source\PSoC4/RTC.h **** 
 411:Generated_Source\PSoC4/RTC.h **** #define RTC_STATUS_DST_OFFSET      (1u)
 412:Generated_Source\PSoC4/RTC.h **** #define RTC_STATUS_ALARM_OFFSET    (2u)
 413:Generated_Source\PSoC4/RTC.h **** #define RTC_STATUS_LY_OFFSET       (3u)
 414:Generated_Source\PSoC4/RTC.h **** #define RTC_STATUS_AM_PM_OFFSET    (4u)
 415:Generated_Source\PSoC4/RTC.h **** 
 416:Generated_Source\PSoC4/RTC.h **** /* Number of bits per one BCD digit */
 417:Generated_Source\PSoC4/RTC.h **** #define RTC_BCD_NUMBER_SIZE        (4u)
 418:Generated_Source\PSoC4/RTC.h **** #define RTC_BCD_ONE_DIGIT_MASK     (0x0000000FuL)
 419:Generated_Source\PSoC4/RTC.h **** 
 420:Generated_Source\PSoC4/RTC.h **** 
 421:Generated_Source\PSoC4/RTC.h **** /*******************************************************************************
 422:Generated_Source\PSoC4/RTC.h **** *    External Variables
 423:Generated_Source\PSoC4/RTC.h **** *******************************************************************************/
 424:Generated_Source\PSoC4/RTC.h **** /**
 425:Generated_Source\PSoC4/RTC.h **** * \addtogroup group_globals
 426:Generated_Source\PSoC4/RTC.h **** * \{
 427:Generated_Source\PSoC4/RTC.h **** */
 428:Generated_Source\PSoC4/RTC.h **** 
ARM GAS  C:\Users\Petro\AppData\Local\Temp\ccv8ePIG.s 			page 26


 429:Generated_Source\PSoC4/RTC.h **** /**
 430:Generated_Source\PSoC4/RTC.h **** * Indicates whether the RTC has been initialized; The variable is initialized to
 431:Generated_Source\PSoC4/RTC.h **** * 0 and set to 1 the first time RTC_Start() is called. This allows the component
 432:Generated_Source\PSoC4/RTC.h **** * to restart without reinitialization after the first call to the RTC_Start() 
 433:Generated_Source\PSoC4/RTC.h **** * routine.
 434:Generated_Source\PSoC4/RTC.h **** */
 435:Generated_Source\PSoC4/RTC.h **** extern uint8  RTC_initVar;
 436:Generated_Source\PSoC4/RTC.h **** 
 437:Generated_Source\PSoC4/RTC.h **** /** The DST start/stop status */
 438:Generated_Source\PSoC4/RTC.h **** extern uint8  RTC_dstStatus;
 439:Generated_Source\PSoC4/RTC.h **** 
 440:Generated_Source\PSoC4/RTC.h **** /**
 441:Generated_Source\PSoC4/RTC.h **** * The uint64 variable represents the standard Unix time (number of seconds 
 442:Generated_Source\PSoC4/RTC.h **** * elapsed from January 1, 1970 00:00 hours UTC) in 64-bit 
 443:Generated_Source\PSoC4/RTC.h **** */
 444:Generated_Source\PSoC4/RTC.h **** extern volatile uint64 RTC_unixTime;
 445:Generated_Source\PSoC4/RTC.h **** 
 446:Generated_Source\PSoC4/RTC.h **** /** The values for the time and date of the DST start */
 447:Generated_Source\PSoC4/RTC.h **** extern RTC_DST_TIME RTC_dstStartTime;
 448:Generated_Source\PSoC4/RTC.h **** 
 449:Generated_Source\PSoC4/RTC.h **** /** The values for the time and date of the DST stop */
 450:Generated_Source\PSoC4/RTC.h **** extern RTC_DST_TIME RTC_dstStopTime;
 451:Generated_Source\PSoC4/RTC.h **** 
 452:Generated_Source\PSoC4/RTC.h **** /**
 453:Generated_Source\PSoC4/RTC.h **** * The last updated time and date values are stored in this structure (update 
 454:Generated_Source\PSoC4/RTC.h **** * happens in Get time/date APIs)
 455:Generated_Source\PSoC4/RTC.h **** */
 456:Generated_Source\PSoC4/RTC.h **** extern RTC_DATE_TIME RTC_currentTimeDate;
 457:Generated_Source\PSoC4/RTC.h **** 
 458:Generated_Source\PSoC4/RTC.h **** /** The alarm time and date values are stored in this variable */
 459:Generated_Source\PSoC4/RTC.h **** extern RTC_DATE_TIME RTC_alarmCfgTimeDate;
 460:Generated_Source\PSoC4/RTC.h **** 
 461:Generated_Source\PSoC4/RTC.h **** /**
 462:Generated_Source\PSoC4/RTC.h **** * This variable is used to mask alarm events; mask seconds alarm, mask minutes 
 463:Generated_Source\PSoC4/RTC.h **** * alarm, and so on. It will have bit masks for each time item masking that item 
 464:Generated_Source\PSoC4/RTC.h **** * for alarm generation
 465:Generated_Source\PSoC4/RTC.h **** */
 466:Generated_Source\PSoC4/RTC.h **** extern uint32  RTC_alarmCfgMask;
 467:Generated_Source\PSoC4/RTC.h **** 
 468:Generated_Source\PSoC4/RTC.h **** /**
 469:Generated_Source\PSoC4/RTC.h **** * This variable is used to indicate current active alarm status per time item 
 470:Generated_Source\PSoC4/RTC.h **** * used in the alarm; whether seconds alarm is active, minute's alarm is active, 
 471:Generated_Source\PSoC4/RTC.h **** * and so on. It will have bit masks for each time item (seconds, minutes, hours,
 472:Generated_Source\PSoC4/RTC.h **** * day, and so on) showing the status
 473:Generated_Source\PSoC4/RTC.h **** */
 474:Generated_Source\PSoC4/RTC.h **** extern uint32 RTC_alarmCurStatus;
 475:Generated_Source\PSoC4/RTC.h **** 
 476:Generated_Source\PSoC4/RTC.h **** /** \} group_globals */
 477:Generated_Source\PSoC4/RTC.h **** 
 478:Generated_Source\PSoC4/RTC.h **** extern void (*RTC_alarmCallbackPtr)(void);
 479:Generated_Source\PSoC4/RTC.h **** 
 480:Generated_Source\PSoC4/RTC.h **** extern const uint16 RTC_daysBeforeMonthTbl[RTC_MONTHS_PER_YEAR];
 481:Generated_Source\PSoC4/RTC.h **** extern const uint8  RTC_daysInMonthTbl[RTC_MONTHS_PER_YEAR];
 482:Generated_Source\PSoC4/RTC.h **** 
 483:Generated_Source\PSoC4/RTC.h **** 
 484:Generated_Source\PSoC4/RTC.h **** /*******************************************************************************
 485:Generated_Source\PSoC4/RTC.h **** *    Function Prototypes
ARM GAS  C:\Users\Petro\AppData\Local\Temp\ccv8ePIG.s 			page 27


 486:Generated_Source\PSoC4/RTC.h **** *******************************************************************************/
 487:Generated_Source\PSoC4/RTC.h **** /**
 488:Generated_Source\PSoC4/RTC.h **** * \addtogroup group_general
 489:Generated_Source\PSoC4/RTC.h **** * \{
 490:Generated_Source\PSoC4/RTC.h **** */
 491:Generated_Source\PSoC4/RTC.h **** void   RTC_Start(void);
 492:Generated_Source\PSoC4/RTC.h **** void   RTC_Stop(void);
 493:Generated_Source\PSoC4/RTC.h **** void   RTC_Init(void);
 494:Generated_Source\PSoC4/RTC.h **** void   RTC_SetUnixTime(uint64 unixTime);
 495:Generated_Source\PSoC4/RTC.h **** uint64 RTC_GetUnixTime(void);
 496:Generated_Source\PSoC4/RTC.h **** void   RTC_SetPeriod(uint32 ticks, uint32 refOneSecTicks);
 497:Generated_Source\PSoC4/RTC.h **** uint32 RTC_GetPeriod(void);
 498:Generated_Source\PSoC4/RTC.h **** uint32 RTC_GetRefOneSec(void);
 499:Generated_Source\PSoC4/RTC.h **** void   RTC_SetDateAndTime(uint32 inputTime, uint32 inputDate);
 500:Generated_Source\PSoC4/RTC.h **** void   RTC_GetDateAndTime(RTC_DATE_TIME* dateTime);
 501:Generated_Source\PSoC4/RTC.h **** uint32 RTC_GetTime(void);
 502:Generated_Source\PSoC4/RTC.h **** uint32 RTC_GetDate(void);
 503:Generated_Source\PSoC4/RTC.h **** void   RTC_SetAlarmDateAndTime(const RTC_DATE_TIME* alarmTime);
 504:Generated_Source\PSoC4/RTC.h **** void   RTC_GetAlarmDateAndTime(RTC_DATE_TIME* alarmTimeDate);
 505:Generated_Source\PSoC4/RTC.h **** void   RTC_SetAlarmMask(uint32 mask);
 506:Generated_Source\PSoC4/RTC.h **** uint32 RTC_GetAlarmMask(void);
 507:Generated_Source\PSoC4/RTC.h **** uint32 RTC_ReadStatus(void);
 508:Generated_Source\PSoC4/RTC.h **** uint32 RTC_GetAlarmStatus(void);
 509:Generated_Source\PSoC4/RTC.h **** void   RTC_ClearAlarmStatus(void);
 510:Generated_Source\PSoC4/RTC.h **** void   RTC_SetDSTStartTime(const RTC_DST_TIME* dstStartTime,
 511:Generated_Source\PSoC4/RTC.h ****                                               RTC_DST_DATETYPE_ENUM type);
 512:Generated_Source\PSoC4/RTC.h **** void   RTC_SetDSTStopTime(const RTC_DST_TIME* dstStopTime,
 513:Generated_Source\PSoC4/RTC.h ****                                              RTC_DST_DATETYPE_ENUM type);
 514:Generated_Source\PSoC4/RTC.h **** uint32 RTC_ConvertBCDToDec(uint32 bcdNum);
 515:Generated_Source\PSoC4/RTC.h **** uint32 RTC_ConvertDecToBCD(uint32 decNum);
 516:Generated_Source\PSoC4/RTC.h **** void   RTC_Update(void);
 517:Generated_Source\PSoC4/RTC.h **** void*  RTC_SetAlarmHandler(void (*CallbackFunction)(void));
 518:Generated_Source\PSoC4/RTC.h **** 
 519:Generated_Source\PSoC4/RTC.h **** static uint32 RTC_ConstructDate(uint32 month, uint32 day, uint32 year);
 520:Generated_Source\PSoC4/RTC.h **** static uint32 RTC_ConstructTime(uint32 timeFormat, uint32 stateAmPm, uint32 hour, uint32 min, uint3
 521:Generated_Source\PSoC4/RTC.h **** /** \} group_general */
 522:Generated_Source\PSoC4/RTC.h **** 
 523:Generated_Source\PSoC4/RTC.h **** static uint32 RTC_GetTimeFormat(uint32 inputTime);
 524:Generated_Source\PSoC4/RTC.h **** static uint32 RTC_SetTimeFormat(uint32 inputTime, uint32 timeFormat);
 525:Generated_Source\PSoC4/RTC.h **** 
 526:Generated_Source\PSoC4/RTC.h **** /**
 527:Generated_Source\PSoC4/RTC.h **** * \addtogroup group_general
 528:Generated_Source\PSoC4/RTC.h **** * \{
 529:Generated_Source\PSoC4/RTC.h **** */
 530:Generated_Source\PSoC4/RTC.h **** static uint32 RTC_LeapYear(uint32 year);
 531:Generated_Source\PSoC4/RTC.h **** static uint32 RTC_IsBitSet(uint32 var, uint32 mask);
 532:Generated_Source\PSoC4/RTC.h **** static uint32 RTC_GetSecond(uint32 inputTime);
 533:Generated_Source\PSoC4/RTC.h **** static uint32 RTC_GetMinutes(uint32 inputTime);
 534:Generated_Source\PSoC4/RTC.h **** static uint32 RTC_GetHours(uint32 inputTime);
 535:Generated_Source\PSoC4/RTC.h **** static uint32 RTC_GetAmPm(uint32 inputTime);
 536:Generated_Source\PSoC4/RTC.h **** static uint32 RTC_GetDay(uint32 date);
 537:Generated_Source\PSoC4/RTC.h **** static uint32 RTC_GetMonth(uint32 date);
 538:Generated_Source\PSoC4/RTC.h **** static uint32 RTC_GetYear(uint32 date);
 539:Generated_Source\PSoC4/RTC.h **** /** \} group_general */
 540:Generated_Source\PSoC4/RTC.h **** 
 541:Generated_Source\PSoC4/RTC.h **** static uint32 RTC_SetSecond(uint32 inputTime, uint32 inputSecond);
 542:Generated_Source\PSoC4/RTC.h **** static uint32 RTC_SetMinutes(uint32 inputTime, uint32 inputMinute);
ARM GAS  C:\Users\Petro\AppData\Local\Temp\ccv8ePIG.s 			page 28


 543:Generated_Source\PSoC4/RTC.h **** static uint32 RTC_SetHours(uint32 inputTime, uint32 inputHours);
 544:Generated_Source\PSoC4/RTC.h **** static uint32 RTC_SetAmPm(uint32 inputTime, uint32 periodOfDay);
 545:Generated_Source\PSoC4/RTC.h **** static uint32 RTC_SetDay(uint32 inputDate, uint32 inputDay);
 546:Generated_Source\PSoC4/RTC.h **** static uint32 RTC_SetMonth(uint32 inputDate, uint32 inputMonth);
 547:Generated_Source\PSoC4/RTC.h **** static uint32 RTC_SetYear(uint32 inputDate, uint32 inputYear);
 548:Generated_Source\PSoC4/RTC.h **** 
 549:Generated_Source\PSoC4/RTC.h **** uint64 RTC_ConstructUnixAlarmTime(const RTC_DATE_TIME* alarmTime, uint8 alarmCfgMask);
 550:Generated_Source\PSoC4/RTC.h **** uint64 RTC_GetDstUnixTime(const RTC_DST_TIME* dstTime);
 551:Generated_Source\PSoC4/RTC.h **** uint64 RTC_GetNexAlarmTime(uint64 curUnixTime, uint8 alarmCfgMask);
 552:Generated_Source\PSoC4/RTC.h **** 
 553:Generated_Source\PSoC4/RTC.h **** static uint32 RTC_GetNextMinSec(uint32 curVal);
 554:Generated_Source\PSoC4/RTC.h **** static uint32 RTC_GetNextHour(uint32 curVal);
 555:Generated_Source\PSoC4/RTC.h **** static uint32 RTC_GetNextDay(uint32 curYear, uint32 curMonth, uint32 curDay, uint32 alarmCfgMask);
 556:Generated_Source\PSoC4/RTC.h **** static uint32 RTC_GetNextMonth(uint32 curMonth);
 557:Generated_Source\PSoC4/RTC.h **** static uint32 RTC_GetNextYear(uint32 curYear);
 558:Generated_Source\PSoC4/RTC.h **** static uint32 RTC_GetDayOfWeek(uint32 day, uint32 month, uint32 year);
 559:Generated_Source\PSoC4/RTC.h **** static uint32 RTC_DaysBeforeMonth(uint32 month, uint32 year);
 560:Generated_Source\PSoC4/RTC.h **** 
 561:Generated_Source\PSoC4/RTC.h **** uint32 RTC_DaysInMonth(uint32 month, uint32 year);
 562:Generated_Source\PSoC4/RTC.h **** 
 563:Generated_Source\PSoC4/RTC.h **** /**
 564:Generated_Source\PSoC4/RTC.h **** * \addtogroup group_general
 565:Generated_Source\PSoC4/RTC.h **** * \{
 566:Generated_Source\PSoC4/RTC.h **** */
 567:Generated_Source\PSoC4/RTC.h **** void   RTC_UnixToDateTime(RTC_DATE_TIME* dateTime, uint64 unixTime, uint32 timeFormat);
 568:Generated_Source\PSoC4/RTC.h **** uint64 RTC_DateTimeToUnix(uint32 inputDate, uint32 inputTime);
 569:Generated_Source\PSoC4/RTC.h **** 
 570:Generated_Source\PSoC4/RTC.h **** #if defined(CYDEV_RTC_SOURCE_WDT)
 571:Generated_Source\PSoC4/RTC.h ****     #if((0u != CYDEV_WDT_GENERATE_ISR) && (0u == RTC_INITIAL_UPDATE_MODE))
 572:Generated_Source\PSoC4/RTC.h ****         static void RTC_CySysRtcSetCallback(uint32 wdtNumber);
 573:Generated_Source\PSoC4/RTC.h ****         static void RTC_CySysRtcResetCallback(uint32 wdtNumber);
 574:Generated_Source\PSoC4/RTC.h ****     #endif /* ((0u != CYDEV_WDT_GENERATE_ISR) && (0u == RTC_INITIAL_UPDATE_MODE)) */
 575:Generated_Source\PSoC4/RTC.h **** #endif /* (CYDEV_RTC_SOURCE_WDT) */
 576:Generated_Source\PSoC4/RTC.h **** 
 577:Generated_Source\PSoC4/RTC.h **** /** \} group_general */
 578:Generated_Source\PSoC4/RTC.h **** 
 579:Generated_Source\PSoC4/RTC.h **** uint32 RTC_RelativeToFixed(uint32 dayOfWeek, uint32 weekOfMonth, uint32 month, uint32 year);
 580:Generated_Source\PSoC4/RTC.h **** 
 581:Generated_Source\PSoC4/RTC.h **** 
 582:Generated_Source\PSoC4/RTC.h **** 
 583:Generated_Source\PSoC4/RTC.h **** /*******************************************************************************
 584:Generated_Source\PSoC4/RTC.h **** * Function Name: RTC_IsBitSet
 585:Generated_Source\PSoC4/RTC.h **** ****************************************************************************//**
 586:Generated_Source\PSoC4/RTC.h **** *
 587:Generated_Source\PSoC4/RTC.h **** * Checks the state of a bit passed through parameter.
 588:Generated_Source\PSoC4/RTC.h **** *
 589:Generated_Source\PSoC4/RTC.h **** * \param var
 590:Generated_Source\PSoC4/RTC.h **** * The variable to be checked.
 591:Generated_Source\PSoC4/RTC.h **** *
 592:Generated_Source\PSoC4/RTC.h **** * \param mask
 593:Generated_Source\PSoC4/RTC.h **** * The mask for a bit to be checked.
 594:Generated_Source\PSoC4/RTC.h **** *
 595:Generated_Source\PSoC4/RTC.h **** * \return
 596:Generated_Source\PSoC4/RTC.h **** *  0u - Bit is not set. <br> 1u - Bit is set.
 597:Generated_Source\PSoC4/RTC.h **** *
 598:Generated_Source\PSoC4/RTC.h **** *******************************************************************************/
 599:Generated_Source\PSoC4/RTC.h **** static CY_INLINE uint32 RTC_IsBitSet(uint32 var, uint32 mask)
ARM GAS  C:\Users\Petro\AppData\Local\Temp\ccv8ePIG.s 			page 29


 600:Generated_Source\PSoC4/RTC.h **** {
 601:Generated_Source\PSoC4/RTC.h ****     return ((mask == (var & mask)) ? 1Lu : 0Lu);
 602:Generated_Source\PSoC4/RTC.h **** }
 603:Generated_Source\PSoC4/RTC.h **** 
 604:Generated_Source\PSoC4/RTC.h **** 
 605:Generated_Source\PSoC4/RTC.h **** /*******************************************************************************
 606:Generated_Source\PSoC4/RTC.h **** * Function Name: RTC_LeapYear
 607:Generated_Source\PSoC4/RTC.h **** ****************************************************************************//**
 608:Generated_Source\PSoC4/RTC.h **** *
 609:Generated_Source\PSoC4/RTC.h **** * Checks whether the year passed through the parameter is leap or no.
 610:Generated_Source\PSoC4/RTC.h **** *
 611:Generated_Source\PSoC4/RTC.h **** * \param year
 612:Generated_Source\PSoC4/RTC.h **** * The year to be checked.
 613:Generated_Source\PSoC4/RTC.h **** *
 614:Generated_Source\PSoC4/RTC.h **** * \return
 615:Generated_Source\PSoC4/RTC.h **** * 0u - The year is not leap <br> 1u - The year is leap.
 616:Generated_Source\PSoC4/RTC.h **** *
 617:Generated_Source\PSoC4/RTC.h **** *******************************************************************************/
 618:Generated_Source\PSoC4/RTC.h **** static CY_INLINE uint32 RTC_LeapYear(uint32 year)
 619:Generated_Source\PSoC4/RTC.h **** {
 620:Generated_Source\PSoC4/RTC.h ****     uint32 retVal;
 621:Generated_Source\PSoC4/RTC.h **** 
 622:Generated_Source\PSoC4/RTC.h ****     if(((0u == (year % 4Lu)) && (0u != (year % 100Lu))) || (0u == (year % 400Lu)))
 623:Generated_Source\PSoC4/RTC.h ****     {
 624:Generated_Source\PSoC4/RTC.h ****         retVal = 1uL;
 625:Generated_Source\PSoC4/RTC.h ****     }
 626:Generated_Source\PSoC4/RTC.h ****     else
 627:Generated_Source\PSoC4/RTC.h ****     {
 628:Generated_Source\PSoC4/RTC.h ****         retVal = 0uL;
 629:Generated_Source\PSoC4/RTC.h ****     }
 630:Generated_Source\PSoC4/RTC.h **** 
 631:Generated_Source\PSoC4/RTC.h ****     return(retVal);
 632:Generated_Source\PSoC4/RTC.h **** }
 633:Generated_Source\PSoC4/RTC.h **** 
 634:Generated_Source\PSoC4/RTC.h **** 
 635:Generated_Source\PSoC4/RTC.h **** /*******************************************************************************
 636:Generated_Source\PSoC4/RTC.h **** * Function Name: RTC_GetSecond
 637:Generated_Source\PSoC4/RTC.h **** ****************************************************************************//**
 638:Generated_Source\PSoC4/RTC.h **** *
 639:Generated_Source\PSoC4/RTC.h **** * Returns the seconds value from the time value that is passed as a/the 
 640:Generated_Source\PSoC4/RTC.h **** * parameter.
 641:Generated_Source\PSoC4/RTC.h **** *
 642:Generated_Source\PSoC4/RTC.h **** * \param inputTime
 643:Generated_Source\PSoC4/RTC.h **** * The time value.
 644:Generated_Source\PSoC4/RTC.h **** *
 645:Generated_Source\PSoC4/RTC.h **** * \return
 646:Generated_Source\PSoC4/RTC.h **** * The seconds value.
 647:Generated_Source\PSoC4/RTC.h **** *
 648:Generated_Source\PSoC4/RTC.h **** *******************************************************************************/
 649:Generated_Source\PSoC4/RTC.h **** static CY_INLINE uint32 RTC_GetSecond(uint32 inputTime)
 650:Generated_Source\PSoC4/RTC.h **** {
 651:Generated_Source\PSoC4/RTC.h ****     uint32 retVal;
 652:Generated_Source\PSoC4/RTC.h **** 
 653:Generated_Source\PSoC4/RTC.h ****     retVal  = ((inputTime & RTC_10_SECONDS_MASK) >> RTC_10_SECONDS_OFFSET) * 10u;
 654:Generated_Source\PSoC4/RTC.h ****     retVal += (inputTime & RTC_SECONDS_MASK) >> RTC_SECONDS_OFFSET;
 655:Generated_Source\PSoC4/RTC.h **** 
 656:Generated_Source\PSoC4/RTC.h ****     return (retVal);
ARM GAS  C:\Users\Petro\AppData\Local\Temp\ccv8ePIG.s 			page 30


 657:Generated_Source\PSoC4/RTC.h **** }
 658:Generated_Source\PSoC4/RTC.h **** 
 659:Generated_Source\PSoC4/RTC.h **** 
 660:Generated_Source\PSoC4/RTC.h **** /*******************************************************************************
 661:Generated_Source\PSoC4/RTC.h **** * Function Name: RTC_GetMinutes
 662:Generated_Source\PSoC4/RTC.h **** ****************************************************************************//**
 663:Generated_Source\PSoC4/RTC.h **** *
 664:Generated_Source\PSoC4/RTC.h **** * Returns the minutes value from the time value that is passed as a/the 
 665:Generated_Source\PSoC4/RTC.h **** * parameter.
 666:Generated_Source\PSoC4/RTC.h **** *
 667:Generated_Source\PSoC4/RTC.h **** * \param inputTime
 668:Generated_Source\PSoC4/RTC.h **** * The time value.
 669:Generated_Source\PSoC4/RTC.h **** *
 670:Generated_Source\PSoC4/RTC.h **** * \return
 671:Generated_Source\PSoC4/RTC.h **** * The minutes value.
 672:Generated_Source\PSoC4/RTC.h **** *
 673:Generated_Source\PSoC4/RTC.h **** *******************************************************************************/
 674:Generated_Source\PSoC4/RTC.h **** static CY_INLINE uint32 RTC_GetMinutes(uint32 inputTime)
 675:Generated_Source\PSoC4/RTC.h **** {
 676:Generated_Source\PSoC4/RTC.h ****     uint32 retVal;
 677:Generated_Source\PSoC4/RTC.h **** 
 678:Generated_Source\PSoC4/RTC.h ****     retVal  = ((inputTime & RTC_10_MINUTES_MASK) >> RTC_10_MINUTES_OFFSET) * 10u;
 679:Generated_Source\PSoC4/RTC.h ****     retVal += (inputTime & RTC_MINUTES_MASK) >> RTC_MINUTES_OFFSET;
 680:Generated_Source\PSoC4/RTC.h **** 
 681:Generated_Source\PSoC4/RTC.h ****     return (retVal);
 682:Generated_Source\PSoC4/RTC.h **** }
 683:Generated_Source\PSoC4/RTC.h **** 
 684:Generated_Source\PSoC4/RTC.h **** 
 685:Generated_Source\PSoC4/RTC.h **** /*******************************************************************************
 686:Generated_Source\PSoC4/RTC.h **** * Function Name: RTC_GetHours
 687:Generated_Source\PSoC4/RTC.h **** ****************************************************************************//**
 688:Generated_Source\PSoC4/RTC.h **** *
 689:Generated_Source\PSoC4/RTC.h **** * Returns the hours value from the time value that is passed as a/the parameter.
 690:Generated_Source\PSoC4/RTC.h **** *
 691:Generated_Source\PSoC4/RTC.h **** * \param inputTime
 692:Generated_Source\PSoC4/RTC.h **** * The time value.
 693:Generated_Source\PSoC4/RTC.h **** *
 694:Generated_Source\PSoC4/RTC.h **** * \return
 695:Generated_Source\PSoC4/RTC.h **** * The hours value.
 696:Generated_Source\PSoC4/RTC.h **** *
 697:Generated_Source\PSoC4/RTC.h **** *******************************************************************************/
 698:Generated_Source\PSoC4/RTC.h **** static CY_INLINE uint32 RTC_GetHours(uint32 inputTime)
 699:Generated_Source\PSoC4/RTC.h **** {
 700:Generated_Source\PSoC4/RTC.h ****     uint32 retVal;
 701:Generated_Source\PSoC4/RTC.h **** 
 702:Generated_Source\PSoC4/RTC.h ****     retVal  = ((inputTime & RTC_10_HOURS_MASK) >> RTC_10_HOURS_OFFSET) * 10u;
 711              		.loc 2 702 0
 712 0018 0321     		movs	r1, #3
 713 001a 0A24     		movs	r4, #10
 714              	.LBE34:
 715              	.LBE33:
 232:..\..\common\lib\lib_BLE/bluetooth.c ****     sendBufferStart[BLE_SEND_HOUR] = RTC_GetHours(time.time);
 716              		.loc 1 232 0
 717 001c 049B     		ldr	r3, [sp, #16]
 718              	.LVL48:
 719 001e 0F27     		movs	r7, #15
 720              	.LBB36:
ARM GAS  C:\Users\Petro\AppData\Local\Temp\ccv8ePIG.s 			page 31


 721              	.LBB35:
 722              		.loc 2 702 0
 723 0020 1A0D     		lsrs	r2, r3, #20
 724 0022 0A40     		ands	r2, r1
 725 0024 6243     		muls	r2, r4
 726 0026 1000     		movs	r0, r2
 727              	.LVL49:
 728              	.LBE35:
 729              	.LBE36:
 730              	.LBB37:
 731              	.LBB38:
 678:Generated_Source\PSoC4/RTC.h ****     retVal += (inputTime & RTC_MINUTES_MASK) >> RTC_MINUTES_OFFSET;
 732              		.loc 2 678 0
 733 0028 0725     		movs	r5, #7
 734              	.LBE38:
 735              	.LBE37:
 736              		.loc 1 232 0
 737 002a 1A0C     		lsrs	r2, r3, #16
 738 002c 3149     		ldr	r1, .L71
 739 002e 3A40     		ands	r2, r7
 740 0030 1218     		adds	r2, r2, r0
 741 0032 0A80     		strh	r2, [r1]
 742              	.LVL50:
 743              	.LBB40:
 744              	.LBB39:
 678:Generated_Source\PSoC4/RTC.h ****     retVal += (inputTime & RTC_MINUTES_MASK) >> RTC_MINUTES_OFFSET;
 745              		.loc 2 678 0
 746 0034 1A0B     		lsrs	r2, r3, #12
 747 0036 2A40     		ands	r2, r5
 748 0038 6243     		muls	r2, r4
 749 003a 1000     		movs	r0, r2
 750              	.LVL51:
 751              	.LBE39:
 752              	.LBE40:
 233:..\..\common\lib\lib_BLE/bluetooth.c ****     sendBufferStart[BLE_SEND_MIN] = RTC_GetMinutes(time.time);
 753              		.loc 1 233 0
 754 003c 1A0A     		lsrs	r2, r3, #8
 755 003e 3A40     		ands	r2, r7
 756 0040 1218     		adds	r2, r2, r0
 757 0042 4A80     		strh	r2, [r1, #2]
 758              	.LVL52:
 759              	.LBB41:
 760              	.LBB42:
 653:Generated_Source\PSoC4/RTC.h ****     retVal += (inputTime & RTC_SECONDS_MASK) >> RTC_SECONDS_OFFSET;
 761              		.loc 2 653 0
 762 0044 1A09     		lsrs	r2, r3, #4
 763 0046 2A40     		ands	r2, r5
 764 0048 6243     		muls	r2, r4
 765              	.LVL53:
 766              	.LBE42:
 767              	.LBE41:
 234:..\..\common\lib\lib_BLE/bluetooth.c ****     sendBufferStart[BLE_SEND_SEC] = RTC_GetSecond(time.time);
 768              		.loc 1 234 0
 769 004a 3B40     		ands	r3, r7
 770 004c 9B18     		adds	r3, r3, r2
 771 004e 8B80     		strh	r3, [r1, #4]
 235:..\..\common\lib\lib_BLE/bluetooth.c ****     sendBufferStart[BLE_SEND_MS] = data->millsStartSkier;
ARM GAS  C:\Users\Petro\AppData\Local\Temp\ccv8ePIG.s 			page 32


 772              		.loc 1 235 0
 773 0050 338A     		ldrh	r3, [r6, #16]
 236:..\..\common\lib\lib_BLE/bluetooth.c ****     
 237:..\..\common\lib\lib_BLE/bluetooth.c ****     RTC_UnixToDateTime(&time, data->unixFinishSkier, RTC_24_HOURS_FORMAT);
 774              		.loc 1 237 0
 775 0052 04A8     		add	r0, sp, #16
 235:..\..\common\lib\lib_BLE/bluetooth.c ****     sendBufferStart[BLE_SEND_MS] = data->millsStartSkier;
 776              		.loc 1 235 0
 777 0054 CB80     		strh	r3, [r1, #6]
 778              		.loc 1 237 0
 779 0056 0023     		movs	r3, #0
 780 0058 0093     		str	r3, [sp]
 781 005a B269     		ldr	r2, [r6, #24]
 782 005c F369     		ldr	r3, [r6, #28]
 783 005e FFF7FEFF 		bl	RTC_UnixToDateTime
 784              	.LVL54:
 785              	.LBB43:
 786              	.LBB44:
 787              		.loc 2 702 0
 788 0062 0323     		movs	r3, #3
 789              	.LBE44:
 790              	.LBE43:
 238:..\..\common\lib\lib_BLE/bluetooth.c ****     sendBufferFinish[BLE_SEND_HOUR] = RTC_GetHours(time.time);
 791              		.loc 1 238 0
 792 0064 0499     		ldr	r1, [sp, #16]
 793              	.LVL55:
 794              	.LBB46:
 795              	.LBB45:
 796              		.loc 2 702 0
 797 0066 0A0D     		lsrs	r2, r1, #20
 798 0068 1A40     		ands	r2, r3
 799 006a 6243     		muls	r2, r4
 800 006c 1000     		movs	r0, r2
 801              	.LVL56:
 802              	.LBE45:
 803              	.LBE46:
 804              		.loc 1 238 0
 805 006e 0A0C     		lsrs	r2, r1, #16
 806 0070 214B     		ldr	r3, .L71+4
 807 0072 3A40     		ands	r2, r7
 808 0074 1218     		adds	r2, r2, r0
 809 0076 1A80     		strh	r2, [r3]
 810              	.LVL57:
 811              	.LBB47:
 812              	.LBB48:
 678:Generated_Source\PSoC4/RTC.h ****     retVal += (inputTime & RTC_MINUTES_MASK) >> RTC_MINUTES_OFFSET;
 813              		.loc 2 678 0
 814 0078 0A0B     		lsrs	r2, r1, #12
 815 007a 2A40     		ands	r2, r5
 816 007c 6243     		muls	r2, r4
 817 007e 1000     		movs	r0, r2
 818              	.LVL58:
 819              	.LBE48:
 820              	.LBE47:
 239:..\..\common\lib\lib_BLE/bluetooth.c ****     sendBufferFinish[BLE_SEND_MIN] = RTC_GetMinutes(time.time);
 821              		.loc 1 239 0
 822 0080 0A0A     		lsrs	r2, r1, #8
ARM GAS  C:\Users\Petro\AppData\Local\Temp\ccv8ePIG.s 			page 33


 823 0082 3A40     		ands	r2, r7
 824 0084 1218     		adds	r2, r2, r0
 825 0086 5A80     		strh	r2, [r3, #2]
 826              	.LVL59:
 827              	.LBB49:
 828              	.LBB50:
 653:Generated_Source\PSoC4/RTC.h ****     retVal += (inputTime & RTC_SECONDS_MASK) >> RTC_SECONDS_OFFSET;
 829              		.loc 2 653 0
 830 0088 0A09     		lsrs	r2, r1, #4
 831 008a 1540     		ands	r5, r2
 832 008c 6543     		muls	r5, r4
 833              	.LVL60:
 834              	.LBE50:
 835              	.LBE49:
 240:..\..\common\lib\lib_BLE/bluetooth.c ****     sendBufferFinish[BLE_SEND_SEC] = RTC_GetSecond(time.time);
 836              		.loc 1 240 0
 837 008e 0F40     		ands	r7, r1
 838 0090 7F19     		adds	r7, r7, r5
 839 0092 9F80     		strh	r7, [r3, #4]
 241:..\..\common\lib\lib_BLE/bluetooth.c ****     sendBufferFinish[BLE_SEND_MS] = data->millsFinishSkier;
 840              		.loc 1 241 0
 841 0094 328C     		ldrh	r2, [r6, #32]
 242:..\..\common\lib\lib_BLE/bluetooth.c ****     
 243:..\..\common\lib\lib_BLE/bluetooth.c ****     uint16_t minResult = (data->secondsWay)/60;
 842              		.loc 1 243 0
 843 0096 B56A     		ldr	r5, [r6, #40]
 241:..\..\common\lib\lib_BLE/bluetooth.c ****     sendBufferFinish[BLE_SEND_MS] = data->millsFinishSkier;
 844              		.loc 1 241 0
 845 0098 DA80     		strh	r2, [r3, #6]
 846              		.loc 1 243 0
 847 009a F16A     		ldr	r1, [r6, #44]
 848 009c 3C22     		movs	r2, #60
 849 009e 0023     		movs	r3, #0
 850 00a0 2800     		movs	r0, r5
 851 00a2 FFF7FEFF 		bl	__aeabi_uldivmod
 852              	.LVL61:
 244:..\..\common\lib\lib_BLE/bluetooth.c ****     sendBufferResult[BLE_SEND_HOUR] = 0;
 853              		.loc 1 244 0
 854 00a6 0022     		movs	r2, #0
 855 00a8 144B     		ldr	r3, .L71+8
 243:..\..\common\lib\lib_BLE/bluetooth.c ****     sendBufferResult[BLE_SEND_HOUR] = 0;
 856              		.loc 1 243 0
 857 00aa 80B2     		uxth	r0, r0
 858              	.LVL62:
 859              		.loc 1 244 0
 860 00ac 1A80     		strh	r2, [r3]
 245:..\..\common\lib\lib_BLE/bluetooth.c ****     sendBufferResult[BLE_SEND_MIN] = minResult;
 246:..\..\common\lib\lib_BLE/bluetooth.c ****     sendBufferResult[BLE_SEND_SEC] = (data->secondsWay) - minResult*60;
 861              		.loc 1 246 0
 862 00ae 3C22     		movs	r2, #60
 245:..\..\common\lib\lib_BLE/bluetooth.c ****     sendBufferResult[BLE_SEND_MIN] = minResult;
 863              		.loc 1 245 0
 864 00b0 5880     		strh	r0, [r3, #2]
 865              		.loc 1 246 0
 866 00b2 5043     		muls	r0, r2
 867              	.LVL63:
 868 00b4 2D1A     		subs	r5, r5, r0
ARM GAS  C:\Users\Petro\AppData\Local\Temp\ccv8ePIG.s 			page 34


 869 00b6 9D80     		strh	r5, [r3, #4]
 247:..\..\common\lib\lib_BLE/bluetooth.c ****     sendBufferResult[BLE_SEND_MS] = data->millsWay;
 870              		.loc 1 247 0
 871 00b8 328E     		ldrh	r2, [r6, #48]
 248:..\..\common\lib\lib_BLE/bluetooth.c ****     
 249:..\..\common\lib\lib_BLE/bluetooth.c ****     sendIdSkier = data->idSkier;
 250:..\..\common\lib\lib_BLE/bluetooth.c ****     
 251:..\..\common\lib\lib_BLE/bluetooth.c ****     sendBufferStatus[3] = numSkierOnWay/10;
 872              		.loc 1 251 0
 873 00ba 2100     		movs	r1, r4
 247:..\..\common\lib\lib_BLE/bluetooth.c ****     sendBufferResult[BLE_SEND_MS] = data->millsWay;
 874              		.loc 1 247 0
 875 00bc DA80     		strh	r2, [r3, #6]
 249:..\..\common\lib\lib_BLE/bluetooth.c ****     
 876              		.loc 1 249 0
 877 00be 3278     		ldrb	r2, [r6]
 878 00c0 0F4B     		ldr	r3, .L71+12
 879              		.loc 1 251 0
 880 00c2 0298     		ldr	r0, [sp, #8]
 249:..\..\common\lib\lib_BLE/bluetooth.c ****     
 881              		.loc 1 249 0
 882 00c4 1A80     		strh	r2, [r3]
 883              		.loc 1 251 0
 884 00c6 FFF7FEFF 		bl	__aeabi_uidiv
 885              	.LVL64:
 886 00ca 0E4D     		ldr	r5, .L71+16
 252:..\..\common\lib\lib_BLE/bluetooth.c ****     sendBufferStatus[4] = numSkierOnWay%10;
 887              		.loc 1 252 0
 888 00cc 2100     		movs	r1, r4
 251:..\..\common\lib\lib_BLE/bluetooth.c ****     sendBufferStatus[4] = numSkierOnWay%10;
 889              		.loc 1 251 0
 890 00ce E870     		strb	r0, [r5, #3]
 891              		.loc 1 252 0
 892 00d0 0298     		ldr	r0, [sp, #8]
 893 00d2 FFF7FEFF 		bl	__aeabi_uidivmod
 894              	.LVL65:
 253:..\..\common\lib\lib_BLE/bluetooth.c ****     sendBufferStatus[5] = maxSkierOnWay/10;
 895              		.loc 1 253 0
 896 00d6 0398     		ldr	r0, [sp, #12]
 252:..\..\common\lib\lib_BLE/bluetooth.c ****     sendBufferStatus[4] = numSkierOnWay%10;
 897              		.loc 1 252 0
 898 00d8 2971     		strb	r1, [r5, #4]
 899              		.loc 1 253 0
 900 00da 2100     		movs	r1, r4
 901 00dc FFF7FEFF 		bl	__aeabi_uidiv
 902              	.LVL66:
 254:..\..\common\lib\lib_BLE/bluetooth.c ****     sendBufferStatus[6] = maxSkierOnWay%10;
 903              		.loc 1 254 0
 904 00e0 2100     		movs	r1, r4
 253:..\..\common\lib\lib_BLE/bluetooth.c ****     sendBufferStatus[5] = maxSkierOnWay/10;
 905              		.loc 1 253 0
 906 00e2 6871     		strb	r0, [r5, #5]
 907              		.loc 1 254 0
 908 00e4 0398     		ldr	r0, [sp, #12]
 909 00e6 FFF7FEFF 		bl	__aeabi_uidivmod
 910              	.LVL67:
 911 00ea A971     		strb	r1, [r5, #6]
ARM GAS  C:\Users\Petro\AppData\Local\Temp\ccv8ePIG.s 			page 35


 255:..\..\common\lib\lib_BLE/bluetooth.c **** 
 256:..\..\common\lib\lib_BLE/bluetooth.c ****     updateData();
 912              		.loc 1 256 0
 913 00ec FFF7FEFF 		bl	updateData
 914              	.LVL68:
 257:..\..\common\lib\lib_BLE/bluetooth.c **** 
 258:..\..\common\lib\lib_BLE/bluetooth.c **** }
 915              		.loc 1 258 0
 916 00f0 09B0     		add	sp, sp, #36
 917              		@ sp needed
 918              	.LVL69:
 919 00f2 F0BD     		pop	{r4, r5, r6, r7, pc}
 920              	.L72:
 921              		.align	2
 922              	.L71:
 923 00f4 00000000 		.word	sendBufferStart
 924 00f8 00000000 		.word	sendBufferFinish
 925 00fc 00000000 		.word	sendBufferResult
 926 0100 00000000 		.word	.LANCHOR0
 927 0104 00000000 		.word	sendBufferStatus
 928              		.cfi_endproc
 929              	.LFE70:
 930              		.size	BLE_sendOneSkierTimeResult, .-BLE_sendOneSkierTimeResult
 931              		.section	.text.BLE_sendOneSkierTimeStart,"ax",%progbits
 932              		.align	1
 933              		.global	BLE_sendOneSkierTimeStart
 934              		.code	16
 935              		.thumb_func
 936              		.type	BLE_sendOneSkierTimeStart, %function
 937              	BLE_sendOneSkierTimeStart:
 938              	.LFB71:
 259:..\..\common\lib\lib_BLE/bluetooth.c **** 
 260:..\..\common\lib\lib_BLE/bluetooth.c **** void BLE_sendOneSkierTimeStart(uint64_t unixTime, uint16_t mills, uint8_t idSkier,
 261:..\..\common\lib\lib_BLE/bluetooth.c ****                                     uint8_t numSkierOnWay, uint8_t maxSkierOnWay)
 262:..\..\common\lib\lib_BLE/bluetooth.c **** {
 939              		.loc 1 262 0
 940              		.cfi_startproc
 941              		@ args = 8, pretend = 0, frame = 32
 942              		@ frame_needed = 0, uses_anonymous_args = 0
 943              	.LVL70:
 944 0000 F0B5     		push	{r4, r5, r6, r7, lr}
 945              		.cfi_def_cfa_offset 20
 946              		.cfi_offset 4, -20
 947              		.cfi_offset 5, -16
 948              		.cfi_offset 6, -12
 949              		.cfi_offset 7, -8
 950              		.cfi_offset 14, -4
 263:..\..\common\lib\lib_BLE/bluetooth.c ****     RTC_DATE_TIME time;
 264:..\..\common\lib\lib_BLE/bluetooth.c ****     
 265:..\..\common\lib\lib_BLE/bluetooth.c ****     /*read unix time*/
 266:..\..\common\lib\lib_BLE/bluetooth.c ****     RTC_UnixToDateTime(&time, unixTime, RTC_24_HOURS_FORMAT);
 951              		.loc 1 266 0
 952 0002 0024     		movs	r4, #0
 953              	.LBB57:
 954              	.LBB58:
 955              		.loc 2 702 0
 956 0004 0A25     		movs	r5, #10
ARM GAS  C:\Users\Petro\AppData\Local\Temp\ccv8ePIG.s 			page 36


 957              	.LBE58:
 958              	.LBE57:
 262:..\..\common\lib\lib_BLE/bluetooth.c ****     RTC_DATE_TIME time;
 959              		.loc 1 262 0
 960 0006 8BB0     		sub	sp, sp, #44
 961              		.cfi_def_cfa_offset 64
 262:..\..\common\lib\lib_BLE/bluetooth.c ****     RTC_DATE_TIME time;
 962              		.loc 1 262 0
 963 0008 0593     		str	r3, [sp, #20]
 964 000a 10AB     		add	r3, sp, #64
 965              	.LVL71:
 966 000c 1F78     		ldrb	r7, [r3]
 967 000e 11AB     		add	r3, sp, #68
 968              	.LVL72:
 969 0010 1B78     		ldrb	r3, [r3]
 970              	.LVL73:
 971 0012 0492     		str	r2, [sp, #16]
 972 0014 0393     		str	r3, [sp, #12]
 973              		.loc 1 266 0
 974 0016 0094     		str	r4, [sp]
 975 0018 0200     		movs	r2, r0
 976              	.LVL74:
 977 001a 0B00     		movs	r3, r1
 978 001c 06A8     		add	r0, sp, #24
 979              	.LVL75:
 980 001e FFF7FEFF 		bl	RTC_UnixToDateTime
 981              	.LVL76:
 267:..\..\common\lib\lib_BLE/bluetooth.c ****     sendBufferStart[0] = RTC_GetHours(time.time);
 982              		.loc 1 267 0
 983 0022 069E     		ldr	r6, [sp, #24]
 984              	.LVL77:
 985 0024 0F21     		movs	r1, #15
 986              	.LBB60:
 987              	.LBB59:
 988              		.loc 2 702 0
 989 0026 B302     		lsls	r3, r6, #10
 990 0028 9B0F     		lsrs	r3, r3, #30
 991 002a 6B43     		muls	r3, r5
 992 002c 1A00     		movs	r2, r3
 993              	.LVL78:
 994              	.LBE59:
 995              	.LBE60:
 996              		.loc 1 267 0
 997 002e 330C     		lsrs	r3, r6, #16
 998 0030 1E48     		ldr	r0, .L74
 999 0032 0B40     		ands	r3, r1
 1000 0034 9B18     		adds	r3, r3, r2
 1001 0036 0380     		strh	r3, [r0]
 1002              	.LVL79:
 1003              	.LBB61:
 1004              	.LBB62:
 678:Generated_Source\PSoC4/RTC.h ****     retVal += (inputTime & RTC_MINUTES_MASK) >> RTC_MINUTES_OFFSET;
 1005              		.loc 2 678 0
 1006 0038 0723     		movs	r3, #7
 1007 003a 320B     		lsrs	r2, r6, #12
 1008 003c 1A40     		ands	r2, r3
 1009              	.LBE62:
ARM GAS  C:\Users\Petro\AppData\Local\Temp\ccv8ePIG.s 			page 37


 1010              	.LBE61:
 268:..\..\common\lib\lib_BLE/bluetooth.c ****     sendBufferStart[1] = RTC_GetMinutes(time.time);
 1011              		.loc 1 268 0
 1012 003e 330A     		lsrs	r3, r6, #8
 1013 0040 0B40     		ands	r3, r1
 1014 0042 9C46     		mov	ip, r3
 1015              	.LBB64:
 1016              	.LBB65:
 653:Generated_Source\PSoC4/RTC.h ****     retVal += (inputTime & RTC_SECONDS_MASK) >> RTC_SECONDS_OFFSET;
 1017              		.loc 2 653 0
 1018 0044 0723     		movs	r3, #7
 1019              	.LBE65:
 1020              	.LBE64:
 1021              	.LBB67:
 1022              	.LBB63:
 678:Generated_Source\PSoC4/RTC.h ****     retVal += (inputTime & RTC_MINUTES_MASK) >> RTC_MINUTES_OFFSET;
 1023              		.loc 2 678 0
 1024 0046 6A43     		muls	r2, r5
 1025              	.LVL80:
 1026              	.LBE63:
 1027              	.LBE67:
 1028              		.loc 1 268 0
 1029 0048 6244     		add	r2, r2, ip
 1030 004a 4280     		strh	r2, [r0, #2]
 1031              	.LVL81:
 1032              	.LBB68:
 1033              	.LBB66:
 653:Generated_Source\PSoC4/RTC.h ****     retVal += (inputTime & RTC_SECONDS_MASK) >> RTC_SECONDS_OFFSET;
 1034              		.loc 2 653 0
 1035 004c 3209     		lsrs	r2, r6, #4
 1036 004e 1340     		ands	r3, r2
 1037 0050 6B43     		muls	r3, r5
 1038              	.LVL82:
 1039              	.LBE66:
 1040              	.LBE68:
 269:..\..\common\lib\lib_BLE/bluetooth.c ****     sendBufferStart[2] = RTC_GetSecond(time.time);
 1041              		.loc 1 269 0
 1042 0052 3140     		ands	r1, r6
 1043 0054 C918     		adds	r1, r1, r3
 270:..\..\common\lib\lib_BLE/bluetooth.c ****     sendBufferStart[3] = mills;
 1044              		.loc 1 270 0
 1045 0056 6B46     		mov	r3, sp
 271:..\..\common\lib\lib_BLE/bluetooth.c ****     
 272:..\..\common\lib\lib_BLE/bluetooth.c ****     int i;
 273:..\..\common\lib\lib_BLE/bluetooth.c ****     for(i=0;i<4;i++)
 274:..\..\common\lib\lib_BLE/bluetooth.c ****     {
 275:..\..\common\lib\lib_BLE/bluetooth.c ****         sendBufferFinish[i] = 0;
 1046              		.loc 1 275 0
 1047 0058 154A     		ldr	r2, .L74+4
 270:..\..\common\lib\lib_BLE/bluetooth.c ****     sendBufferStart[3] = mills;
 1048              		.loc 1 270 0
 1049 005a 1B8A     		ldrh	r3, [r3, #16]
 1050              		.loc 1 275 0
 1051 005c 1480     		strh	r4, [r2]
 1052 005e 5480     		strh	r4, [r2, #2]
 1053 0060 9480     		strh	r4, [r2, #4]
 1054 0062 D480     		strh	r4, [r2, #6]
ARM GAS  C:\Users\Petro\AppData\Local\Temp\ccv8ePIG.s 			page 38


 276:..\..\common\lib\lib_BLE/bluetooth.c ****         sendBufferResult[i] = 0;
 277:..\..\common\lib\lib_BLE/bluetooth.c ****     }
 278:..\..\common\lib\lib_BLE/bluetooth.c ****     
 279:..\..\common\lib\lib_BLE/bluetooth.c ****     sendIdSkier = idSkier;
 1055              		.loc 1 279 0
 1056 0064 6A46     		mov	r2, sp
 270:..\..\common\lib\lib_BLE/bluetooth.c ****     
 1057              		.loc 1 270 0
 1058 0066 C380     		strh	r3, [r0, #6]
 1059              	.LVL83:
 276:..\..\common\lib\lib_BLE/bluetooth.c ****         sendBufferResult[i] = 0;
 1060              		.loc 1 276 0
 1061 0068 124B     		ldr	r3, .L74+8
 1062              		.loc 1 279 0
 1063 006a 928A     		ldrh	r2, [r2, #20]
 276:..\..\common\lib\lib_BLE/bluetooth.c ****         sendBufferResult[i] = 0;
 1064              		.loc 1 276 0
 1065 006c 1C80     		strh	r4, [r3]
 1066              	.LVL84:
 1067 006e 5C80     		strh	r4, [r3, #2]
 1068              	.LVL85:
 1069 0070 9C80     		strh	r4, [r3, #4]
 1070              	.LVL86:
 1071 0072 DC80     		strh	r4, [r3, #6]
 1072              	.LVL87:
 1073              		.loc 1 279 0
 1074 0074 104B     		ldr	r3, .L74+12
 269:..\..\common\lib\lib_BLE/bluetooth.c ****     sendBufferStart[3] = mills;
 1075              		.loc 1 269 0
 1076 0076 8180     		strh	r1, [r0, #4]
 1077              		.loc 1 279 0
 1078 0078 1A80     		strh	r2, [r3]
 280:..\..\common\lib\lib_BLE/bluetooth.c ****     
 281:..\..\common\lib\lib_BLE/bluetooth.c ****     sendBufferStatus[3] = numSkierOnWay/10;
 1079              		.loc 1 281 0
 1080 007a 2900     		movs	r1, r5
 1081 007c 3800     		movs	r0, r7
 1082 007e FFF7FEFF 		bl	__aeabi_uidiv
 1083              	.LVL88:
 1084 0082 0E4C     		ldr	r4, .L74+16
 282:..\..\common\lib\lib_BLE/bluetooth.c ****     sendBufferStatus[4] = numSkierOnWay%10;
 1085              		.loc 1 282 0
 1086 0084 2900     		movs	r1, r5
 281:..\..\common\lib\lib_BLE/bluetooth.c ****     sendBufferStatus[4] = numSkierOnWay%10;
 1087              		.loc 1 281 0
 1088 0086 E070     		strb	r0, [r4, #3]
 1089              		.loc 1 282 0
 1090 0088 3800     		movs	r0, r7
 1091 008a FFF7FEFF 		bl	__aeabi_uidivmod
 1092              	.LVL89:
 283:..\..\common\lib\lib_BLE/bluetooth.c ****     sendBufferStatus[5] = maxSkierOnWay/10;
 1093              		.loc 1 283 0
 1094 008e 0398     		ldr	r0, [sp, #12]
 282:..\..\common\lib\lib_BLE/bluetooth.c ****     sendBufferStatus[4] = numSkierOnWay%10;
 1095              		.loc 1 282 0
 1096 0090 2171     		strb	r1, [r4, #4]
 1097              		.loc 1 283 0
ARM GAS  C:\Users\Petro\AppData\Local\Temp\ccv8ePIG.s 			page 39


 1098 0092 2900     		movs	r1, r5
 1099 0094 FFF7FEFF 		bl	__aeabi_uidiv
 1100              	.LVL90:
 284:..\..\common\lib\lib_BLE/bluetooth.c ****     sendBufferStatus[6] = maxSkierOnWay%10;
 1101              		.loc 1 284 0
 1102 0098 2900     		movs	r1, r5
 283:..\..\common\lib\lib_BLE/bluetooth.c ****     sendBufferStatus[5] = maxSkierOnWay/10;
 1103              		.loc 1 283 0
 1104 009a 6071     		strb	r0, [r4, #5]
 1105              		.loc 1 284 0
 1106 009c 0398     		ldr	r0, [sp, #12]
 1107 009e FFF7FEFF 		bl	__aeabi_uidivmod
 1108              	.LVL91:
 1109 00a2 A171     		strb	r1, [r4, #6]
 285:..\..\common\lib\lib_BLE/bluetooth.c ****     
 286:..\..\common\lib\lib_BLE/bluetooth.c ****     updateData();
 1110              		.loc 1 286 0
 1111 00a4 FFF7FEFF 		bl	updateData
 1112              	.LVL92:
 287:..\..\common\lib\lib_BLE/bluetooth.c **** }
 1113              		.loc 1 287 0
 1114 00a8 0BB0     		add	sp, sp, #44
 1115              		@ sp needed
 1116 00aa F0BD     		pop	{r4, r5, r6, r7, pc}
 1117              	.L75:
 1118              		.align	2
 1119              	.L74:
 1120 00ac 00000000 		.word	sendBufferStart
 1121 00b0 00000000 		.word	sendBufferFinish
 1122 00b4 00000000 		.word	sendBufferResult
 1123 00b8 00000000 		.word	.LANCHOR0
 1124 00bc 00000000 		.word	sendBufferStatus
 1125              		.cfi_endproc
 1126              	.LFE71:
 1127              		.size	BLE_sendOneSkierTimeStart, .-BLE_sendOneSkierTimeStart
 1128              		.section	.text.BLE_sendOneSkierTimeAll,"ax",%progbits
 1129              		.align	1
 1130              		.global	BLE_sendOneSkierTimeAll
 1131              		.code	16
 1132              		.thumb_func
 1133              		.type	BLE_sendOneSkierTimeAll, %function
 1134              	BLE_sendOneSkierTimeAll:
 1135              	.LFB72:
 288:..\..\common\lib\lib_BLE/bluetooth.c **** 
 289:..\..\common\lib\lib_BLE/bluetooth.c **** 
 290:..\..\common\lib\lib_BLE/bluetooth.c **** void BLE_sendOneSkierTimeAll(uint16_t IdSkier,uint16_t sendStartTime[],uint16_t sendFinishTime[],
 291:..\..\common\lib\lib_BLE/bluetooth.c ****                           uint16_t sendResultTime[])
 292:..\..\common\lib\lib_BLE/bluetooth.c **** {
 1136              		.loc 1 292 0
 1137              		.cfi_startproc
 1138              		@ args = 0, pretend = 0, frame = 0
 1139              		@ frame_needed = 0, uses_anonymous_args = 0
 1140              	.LVL93:
 1141 0000 10B5     		push	{r4, lr}
 1142              		.cfi_def_cfa_offset 8
 1143              		.cfi_offset 4, -8
 1144              		.cfi_offset 14, -4
ARM GAS  C:\Users\Petro\AppData\Local\Temp\ccv8ePIG.s 			page 40


 293:..\..\common\lib\lib_BLE/bluetooth.c ****     sendIdSkier = IdSkier;
 1145              		.loc 1 293 0
 1146 0002 104C     		ldr	r4, .L77
 294:..\..\common\lib\lib_BLE/bluetooth.c ****   
 295:..\..\common\lib\lib_BLE/bluetooth.c ****     sendBufferStart[0] = sendStartTime[0];
 296:..\..\common\lib\lib_BLE/bluetooth.c ****     sendBufferStart[1] = sendStartTime[1];
 297:..\..\common\lib\lib_BLE/bluetooth.c ****     sendBufferStart[2] = sendStartTime[2];
 298:..\..\common\lib\lib_BLE/bluetooth.c ****     sendBufferStart[3] = sendStartTime[3];
 299:..\..\common\lib\lib_BLE/bluetooth.c ****     
 300:..\..\common\lib\lib_BLE/bluetooth.c ****     sendBufferFinish[0] = sendFinishTime[0];
 301:..\..\common\lib\lib_BLE/bluetooth.c ****     sendBufferFinish[1] = sendFinishTime[1];
 302:..\..\common\lib\lib_BLE/bluetooth.c ****     sendBufferFinish[2] = sendFinishTime[2];
 303:..\..\common\lib\lib_BLE/bluetooth.c ****     sendBufferFinish[3] = sendFinishTime[3];
 304:..\..\common\lib\lib_BLE/bluetooth.c ****     
 305:..\..\common\lib\lib_BLE/bluetooth.c ****     sendBufferResult[0] = sendResultTime[0];
 306:..\..\common\lib\lib_BLE/bluetooth.c ****     sendBufferResult[1] = sendResultTime[1];
 307:..\..\common\lib\lib_BLE/bluetooth.c ****     sendBufferResult[2] = sendResultTime[2];
 308:..\..\common\lib\lib_BLE/bluetooth.c ****     sendBufferResult[3] = sendResultTime[3];
 309:..\..\common\lib\lib_BLE/bluetooth.c ****       
 310:..\..\common\lib\lib_BLE/bluetooth.c ****     updateData();
 311:..\..\common\lib\lib_BLE/bluetooth.c **** }
 1147              		.loc 1 311 0
 1148              		@ sp needed
 293:..\..\common\lib\lib_BLE/bluetooth.c ****     sendIdSkier = IdSkier;
 1149              		.loc 1 293 0
 1150 0004 2080     		strh	r0, [r4]
 295:..\..\common\lib\lib_BLE/bluetooth.c ****     sendBufferStart[1] = sendStartTime[1];
 1151              		.loc 1 295 0
 1152 0006 0C88     		ldrh	r4, [r1]
 1153 0008 0F48     		ldr	r0, .L77+4
 1154              	.LVL94:
 1155 000a 0480     		strh	r4, [r0]
 296:..\..\common\lib\lib_BLE/bluetooth.c ****     sendBufferStart[2] = sendStartTime[2];
 1156              		.loc 1 296 0
 1157 000c 4C88     		ldrh	r4, [r1, #2]
 1158 000e 4480     		strh	r4, [r0, #2]
 297:..\..\common\lib\lib_BLE/bluetooth.c ****     sendBufferStart[3] = sendStartTime[3];
 1159              		.loc 1 297 0
 1160 0010 8C88     		ldrh	r4, [r1, #4]
 1161 0012 8480     		strh	r4, [r0, #4]
 298:..\..\common\lib\lib_BLE/bluetooth.c ****     
 1162              		.loc 1 298 0
 1163 0014 C988     		ldrh	r1, [r1, #6]
 1164              	.LVL95:
 1165 0016 C180     		strh	r1, [r0, #6]
 300:..\..\common\lib\lib_BLE/bluetooth.c ****     sendBufferFinish[1] = sendFinishTime[1];
 1166              		.loc 1 300 0
 1167 0018 1088     		ldrh	r0, [r2]
 1168 001a 0C49     		ldr	r1, .L77+8
 1169 001c 0880     		strh	r0, [r1]
 301:..\..\common\lib\lib_BLE/bluetooth.c ****     sendBufferFinish[2] = sendFinishTime[2];
 1170              		.loc 1 301 0
 1171 001e 5088     		ldrh	r0, [r2, #2]
 1172 0020 4880     		strh	r0, [r1, #2]
 302:..\..\common\lib\lib_BLE/bluetooth.c ****     sendBufferFinish[3] = sendFinishTime[3];
 1173              		.loc 1 302 0
 1174 0022 9088     		ldrh	r0, [r2, #4]
ARM GAS  C:\Users\Petro\AppData\Local\Temp\ccv8ePIG.s 			page 41


 1175 0024 8880     		strh	r0, [r1, #4]
 303:..\..\common\lib\lib_BLE/bluetooth.c ****     
 1176              		.loc 1 303 0
 1177 0026 D288     		ldrh	r2, [r2, #6]
 1178              	.LVL96:
 1179 0028 CA80     		strh	r2, [r1, #6]
 305:..\..\common\lib\lib_BLE/bluetooth.c ****     sendBufferResult[1] = sendResultTime[1];
 1180              		.loc 1 305 0
 1181 002a 1988     		ldrh	r1, [r3]
 1182 002c 084A     		ldr	r2, .L77+12
 1183 002e 1180     		strh	r1, [r2]
 306:..\..\common\lib\lib_BLE/bluetooth.c ****     sendBufferResult[2] = sendResultTime[2];
 1184              		.loc 1 306 0
 1185 0030 5988     		ldrh	r1, [r3, #2]
 1186 0032 5180     		strh	r1, [r2, #2]
 307:..\..\common\lib\lib_BLE/bluetooth.c ****     sendBufferResult[3] = sendResultTime[3];
 1187              		.loc 1 307 0
 1188 0034 9988     		ldrh	r1, [r3, #4]
 1189 0036 9180     		strh	r1, [r2, #4]
 308:..\..\common\lib\lib_BLE/bluetooth.c ****       
 1190              		.loc 1 308 0
 1191 0038 DB88     		ldrh	r3, [r3, #6]
 1192              	.LVL97:
 1193 003a D380     		strh	r3, [r2, #6]
 310:..\..\common\lib\lib_BLE/bluetooth.c **** }
 1194              		.loc 1 310 0
 1195 003c FFF7FEFF 		bl	updateData
 1196              	.LVL98:
 1197              		.loc 1 311 0
 1198 0040 10BD     		pop	{r4, pc}
 1199              	.L78:
 1200 0042 C046     		.align	2
 1201              	.L77:
 1202 0044 00000000 		.word	.LANCHOR0
 1203 0048 00000000 		.word	sendBufferStart
 1204 004c 00000000 		.word	sendBufferFinish
 1205 0050 00000000 		.word	sendBufferResult
 1206              		.cfi_endproc
 1207              	.LFE72:
 1208              		.size	BLE_sendOneSkierTimeAll, .-BLE_sendOneSkierTimeAll
 1209              		.section	.text.BLE_sendSystemStatus,"ax",%progbits
 1210              		.align	1
 1211              		.global	BLE_sendSystemStatus
 1212              		.code	16
 1213              		.thumb_func
 1214              		.type	BLE_sendSystemStatus, %function
 1215              	BLE_sendSystemStatus:
 1216              	.LFB73:
 312:..\..\common\lib\lib_BLE/bluetooth.c **** 
 313:..\..\common\lib\lib_BLE/bluetooth.c **** void BLE_sendSystemStatus(BLEStatusFlag systemStatus)
 314:..\..\common\lib\lib_BLE/bluetooth.c **** {
 1217              		.loc 1 314 0
 1218              		.cfi_startproc
 1219              		@ args = 0, pretend = 0, frame = 0
 1220              		@ frame_needed = 0, uses_anonymous_args = 0
 1221              	.LVL99:
 1222 0000 70B5     		push	{r4, r5, r6, lr}
ARM GAS  C:\Users\Petro\AppData\Local\Temp\ccv8ePIG.s 			page 42


 1223              		.cfi_def_cfa_offset 16
 1224              		.cfi_offset 4, -16
 1225              		.cfi_offset 5, -12
 1226              		.cfi_offset 6, -8
 1227              		.cfi_offset 14, -4
 315:..\..\common\lib\lib_BLE/bluetooth.c ****     static uint8_t oldSystemStatus;
 316:..\..\common\lib\lib_BLE/bluetooth.c ****     
 317:..\..\common\lib\lib_BLE/bluetooth.c ****     if(systemStatus == STATUS_OK)
 318:..\..\common\lib\lib_BLE/bluetooth.c ****         sendBufferStatus[BLE_SEND_SYSTEM_STATUS] = 1;
 1228              		.loc 1 318 0
 1229 0002 0123     		movs	r3, #1
 1230 0004 074C     		ldr	r4, .L84
 317:..\..\common\lib\lib_BLE/bluetooth.c ****         sendBufferStatus[BLE_SEND_SYSTEM_STATUS] = 1;
 1231              		.loc 1 317 0
 1232 0006 0028     		cmp	r0, #0
 1233 0008 00D0     		beq	.L83
 319:..\..\common\lib\lib_BLE/bluetooth.c ****     else
 320:..\..\common\lib\lib_BLE/bluetooth.c ****         sendBufferStatus[BLE_SEND_SYSTEM_STATUS] = 0;
 1234              		.loc 1 320 0
 1235 000a 0023     		movs	r3, #0
 1236              	.L83:
 321:..\..\common\lib\lib_BLE/bluetooth.c ****     
 322:..\..\common\lib\lib_BLE/bluetooth.c ****     /*if new status, status update*/
 323:..\..\common\lib\lib_BLE/bluetooth.c ****     if(oldSystemStatus != sendBufferStatus[BLE_SEND_SYSTEM_STATUS])
 1237              		.loc 1 323 0
 1238 000c 064D     		ldr	r5, .L84+4
 320:..\..\common\lib\lib_BLE/bluetooth.c ****     
 1239              		.loc 1 320 0
 1240 000e 2370     		strb	r3, [r4]
 1241              		.loc 1 323 0
 1242 0010 2278     		ldrb	r2, [r4]
 1243 0012 6B7A     		ldrb	r3, [r5, #9]
 1244 0014 9A42     		cmp	r2, r3
 1245 0016 03D0     		beq	.L79
 324:..\..\common\lib\lib_BLE/bluetooth.c ****     {
 325:..\..\common\lib\lib_BLE/bluetooth.c ****         updateStatusData();
 1246              		.loc 1 325 0
 1247 0018 FFF7FEFF 		bl	updateStatusData
 1248              	.LVL100:
 326:..\..\common\lib\lib_BLE/bluetooth.c ****         oldSystemStatus =  sendBufferStatus[BLE_SEND_SYSTEM_STATUS];
 1249              		.loc 1 326 0
 1250 001c 2378     		ldrb	r3, [r4]
 1251 001e 6B72     		strb	r3, [r5, #9]
 1252              	.L79:
 327:..\..\common\lib\lib_BLE/bluetooth.c ****     }
 328:..\..\common\lib\lib_BLE/bluetooth.c **** }
 1253              		.loc 1 328 0
 1254              		@ sp needed
 1255 0020 70BD     		pop	{r4, r5, r6, pc}
 1256              	.L85:
 1257 0022 C046     		.align	2
 1258              	.L84:
 1259 0024 00000000 		.word	sendBufferStatus
 1260 0028 00000000 		.word	.LANCHOR0
 1261              		.cfi_endproc
 1262              	.LFE73:
 1263              		.size	BLE_sendSystemStatus, .-BLE_sendSystemStatus
ARM GAS  C:\Users\Petro\AppData\Local\Temp\ccv8ePIG.s 			page 43


 1264              		.section	.text.BLE_sendSDcardStatus,"ax",%progbits
 1265              		.align	1
 1266              		.global	BLE_sendSDcardStatus
 1267              		.code	16
 1268              		.thumb_func
 1269              		.type	BLE_sendSDcardStatus, %function
 1270              	BLE_sendSDcardStatus:
 1271              	.LFB74:
 329:..\..\common\lib\lib_BLE/bluetooth.c **** 
 330:..\..\common\lib\lib_BLE/bluetooth.c **** void BLE_sendSDcardStatus(BLEStatusFlag SDStatus)
 331:..\..\common\lib\lib_BLE/bluetooth.c **** {
 1272              		.loc 1 331 0
 1273              		.cfi_startproc
 1274              		@ args = 0, pretend = 0, frame = 0
 1275              		@ frame_needed = 0, uses_anonymous_args = 0
 1276              	.LVL101:
 1277 0000 70B5     		push	{r4, r5, r6, lr}
 1278              		.cfi_def_cfa_offset 16
 1279              		.cfi_offset 4, -16
 1280              		.cfi_offset 5, -12
 1281              		.cfi_offset 6, -8
 1282              		.cfi_offset 14, -4
 332:..\..\common\lib\lib_BLE/bluetooth.c ****     static uint8_t oldSDStatus ;
 333:..\..\common\lib\lib_BLE/bluetooth.c ****     
 334:..\..\common\lib\lib_BLE/bluetooth.c ****     if(SDStatus == STATUS_OK)
 335:..\..\common\lib\lib_BLE/bluetooth.c ****         sendBufferStatus[BLE_SEND_SD_STATUS] = 1;
 1283              		.loc 1 335 0
 1284 0002 0123     		movs	r3, #1
 1285 0004 074C     		ldr	r4, .L91
 334:..\..\common\lib\lib_BLE/bluetooth.c ****         sendBufferStatus[BLE_SEND_SD_STATUS] = 1;
 1286              		.loc 1 334 0
 1287 0006 0028     		cmp	r0, #0
 1288 0008 00D0     		beq	.L90
 336:..\..\common\lib\lib_BLE/bluetooth.c ****     else
 337:..\..\common\lib\lib_BLE/bluetooth.c ****         sendBufferStatus[BLE_SEND_SD_STATUS] = 0;
 1289              		.loc 1 337 0
 1290 000a 0023     		movs	r3, #0
 1291              	.L90:
 338:..\..\common\lib\lib_BLE/bluetooth.c ****     
 339:..\..\common\lib\lib_BLE/bluetooth.c ****     /*if new status, status update*/
 340:..\..\common\lib\lib_BLE/bluetooth.c ****     if(oldSDStatus != sendBufferStatus[BLE_SEND_SD_STATUS])
 1292              		.loc 1 340 0
 1293 000c 064D     		ldr	r5, .L91+4
 337:..\..\common\lib\lib_BLE/bluetooth.c ****     
 1294              		.loc 1 337 0
 1295 000e A370     		strb	r3, [r4, #2]
 1296              		.loc 1 340 0
 1297 0010 A278     		ldrb	r2, [r4, #2]
 1298 0012 AB7A     		ldrb	r3, [r5, #10]
 1299 0014 9A42     		cmp	r2, r3
 1300 0016 03D0     		beq	.L86
 341:..\..\common\lib\lib_BLE/bluetooth.c ****     {
 342:..\..\common\lib\lib_BLE/bluetooth.c ****         updateStatusData();
 1301              		.loc 1 342 0
 1302 0018 FFF7FEFF 		bl	updateStatusData
 1303              	.LVL102:
 343:..\..\common\lib\lib_BLE/bluetooth.c ****         oldSDStatus =  sendBufferStatus[BLE_SEND_SD_STATUS];
ARM GAS  C:\Users\Petro\AppData\Local\Temp\ccv8ePIG.s 			page 44


 1304              		.loc 1 343 0
 1305 001c A378     		ldrb	r3, [r4, #2]
 1306 001e AB72     		strb	r3, [r5, #10]
 1307              	.L86:
 344:..\..\common\lib\lib_BLE/bluetooth.c ****     }
 345:..\..\common\lib\lib_BLE/bluetooth.c **** }
 1308              		.loc 1 345 0
 1309              		@ sp needed
 1310 0020 70BD     		pop	{r4, r5, r6, pc}
 1311              	.L92:
 1312 0022 C046     		.align	2
 1313              	.L91:
 1314 0024 00000000 		.word	sendBufferStatus
 1315 0028 00000000 		.word	.LANCHOR0
 1316              		.cfi_endproc
 1317              	.LFE74:
 1318              		.size	BLE_sendSDcardStatus, .-BLE_sendSDcardStatus
 1319              		.section	.text.BLE_sendNetworkStatus,"ax",%progbits
 1320              		.align	1
 1321              		.global	BLE_sendNetworkStatus
 1322              		.code	16
 1323              		.thumb_func
 1324              		.type	BLE_sendNetworkStatus, %function
 1325              	BLE_sendNetworkStatus:
 1326              	.LFB75:
 346:..\..\common\lib\lib_BLE/bluetooth.c **** 
 347:..\..\common\lib\lib_BLE/bluetooth.c **** void BLE_sendNetworkStatus(BLEStatusFlag NerworkStatus)
 348:..\..\common\lib\lib_BLE/bluetooth.c **** {
 1327              		.loc 1 348 0
 1328              		.cfi_startproc
 1329              		@ args = 0, pretend = 0, frame = 0
 1330              		@ frame_needed = 0, uses_anonymous_args = 0
 1331              	.LVL103:
 1332 0000 70B5     		push	{r4, r5, r6, lr}
 1333              		.cfi_def_cfa_offset 16
 1334              		.cfi_offset 4, -16
 1335              		.cfi_offset 5, -12
 1336              		.cfi_offset 6, -8
 1337              		.cfi_offset 14, -4
 349:..\..\common\lib\lib_BLE/bluetooth.c ****     static uint8_t oldNetworkStatus ;
 350:..\..\common\lib\lib_BLE/bluetooth.c ****     
 351:..\..\common\lib\lib_BLE/bluetooth.c ****     if(NerworkStatus == STATUS_OK)
 352:..\..\common\lib\lib_BLE/bluetooth.c ****         sendBufferStatus[BLE_SEND_NETWORK_STATUS] = 1; 
 1338              		.loc 1 352 0
 1339 0002 0123     		movs	r3, #1
 1340 0004 074C     		ldr	r4, .L98
 351:..\..\common\lib\lib_BLE/bluetooth.c ****         sendBufferStatus[BLE_SEND_NETWORK_STATUS] = 1; 
 1341              		.loc 1 351 0
 1342 0006 0028     		cmp	r0, #0
 1343 0008 00D0     		beq	.L97
 353:..\..\common\lib\lib_BLE/bluetooth.c ****     else
 354:..\..\common\lib\lib_BLE/bluetooth.c ****         sendBufferStatus[BLE_SEND_NETWORK_STATUS] = 0;    
 1344              		.loc 1 354 0
 1345 000a 0023     		movs	r3, #0
 1346              	.L97:
 355:..\..\common\lib\lib_BLE/bluetooth.c ****     
 356:..\..\common\lib\lib_BLE/bluetooth.c ****     /*if new status, status update*/
ARM GAS  C:\Users\Petro\AppData\Local\Temp\ccv8ePIG.s 			page 45


 357:..\..\common\lib\lib_BLE/bluetooth.c ****     if(oldNetworkStatus != sendBufferStatus[BLE_SEND_NETWORK_STATUS])
 1347              		.loc 1 357 0
 1348 000c 064D     		ldr	r5, .L98+4
 354:..\..\common\lib\lib_BLE/bluetooth.c ****     
 1349              		.loc 1 354 0
 1350 000e 6370     		strb	r3, [r4, #1]
 1351              		.loc 1 357 0
 1352 0010 6278     		ldrb	r2, [r4, #1]
 1353 0012 EB7A     		ldrb	r3, [r5, #11]
 1354 0014 9A42     		cmp	r2, r3
 1355 0016 03D0     		beq	.L93
 358:..\..\common\lib\lib_BLE/bluetooth.c ****     {
 359:..\..\common\lib\lib_BLE/bluetooth.c ****         updateStatusData();
 1356              		.loc 1 359 0
 1357 0018 FFF7FEFF 		bl	updateStatusData
 1358              	.LVL104:
 360:..\..\common\lib\lib_BLE/bluetooth.c ****         oldNetworkStatus =  sendBufferStatus[BLE_SEND_NETWORK_STATUS];
 1359              		.loc 1 360 0
 1360 001c 6378     		ldrb	r3, [r4, #1]
 1361 001e EB72     		strb	r3, [r5, #11]
 1362              	.L93:
 361:..\..\common\lib\lib_BLE/bluetooth.c ****     }
 362:..\..\common\lib\lib_BLE/bluetooth.c **** }
 1363              		.loc 1 362 0
 1364              		@ sp needed
 1365 0020 70BD     		pop	{r4, r5, r6, pc}
 1366              	.L99:
 1367 0022 C046     		.align	2
 1368              	.L98:
 1369 0024 00000000 		.word	sendBufferStatus
 1370 0028 00000000 		.word	.LANCHOR0
 1371              		.cfi_endproc
 1372              	.LFE75:
 1373              		.size	BLE_sendNetworkStatus, .-BLE_sendNetworkStatus
 1374              		.comm	uartBuffer,30,1
 1375              		.comm	sendBufferStatus,7,1
 1376              		.comm	sendBufferResult,8,2
 1377              		.comm	sendBufferFinish,8,2
 1378              		.comm	sendBufferStart,8,2
 1379              		.global	sendIdSkier
 1380              		.global	adminIsOnly
 1381              		.global	bleUnixTime
 1382              		.comm	notifycaiton,4,4
 1383              		.bss
 1384              		.align	2
 1385              		.set	.LANCHOR0,. + 0
 1386              		.type	sendIdSkier, %object
 1387              		.size	sendIdSkier, 2
 1388              	sendIdSkier:
 1389 0000 0000     		.space	2
 1390 0002 0000     		.space	2
 1391              		.type	bleUnixTime, %object
 1392              		.size	bleUnixTime, 4
 1393              	bleUnixTime:
 1394 0004 00000000 		.space	4
 1395              		.type	adminIsOnly, %object
 1396              		.size	adminIsOnly, 1
ARM GAS  C:\Users\Petro\AppData\Local\Temp\ccv8ePIG.s 			page 46


 1397              	adminIsOnly:
 1398 0008 00       		.space	1
 1399              		.type	oldSystemStatus.9805, %object
 1400              		.size	oldSystemStatus.9805, 1
 1401              	oldSystemStatus.9805:
 1402 0009 00       		.space	1
 1403              		.type	oldSDStatus.9809, %object
 1404              		.size	oldSDStatus.9809, 1
 1405              	oldSDStatus.9809:
 1406 000a 00       		.space	1
 1407              		.type	oldNetworkStatus.9813, %object
 1408              		.size	oldNetworkStatus.9813, 1
 1409              	oldNetworkStatus.9813:
 1410 000b 00       		.space	1
 1411              		.text
 1412              	.Letext0:
 1413              		.file 3 "c:\\program files (x86)\\cypress\\psoc creator\\4.1\\psoc creator\\import\\gnu\\arm\\5.4.
 1414              		.file 4 "c:\\program files (x86)\\cypress\\psoc creator\\4.1\\psoc creator\\import\\gnu\\arm\\5.4.
 1415              		.file 5 "Generated_Source\\PSoC4/cytypes.h"
 1416              		.file 6 "Generated_Source\\PSoC4/ble_Stack.h"
 1417              		.file 7 "Generated_Source\\PSoC4/ble_StackGatt.h"
 1418              		.file 8 "Generated_Source\\PSoC4/ble_StackGattServer.h"
 1419              		.file 9 "Generated_Source\\PSoC4/ble_eventHandler.h"
 1420              		.file 10 "./..\\..\\common\\lib\\lib_DB\\database.h"
 1421              		.file 11 "./..\\..\\common\\lib\\lib_BLE/bluetooth.h"
 1422              		.file 12 "Generated_Source\\PSoC4/ble_StackGattDb.h"
 1423              		.file 13 "Generated_Source\\PSoC4/CyLib.h"
 1424              		.file 14 "Generated_Source\\PSoC4/ble.h"
 1425              		.file 15 "Generated_Source\\PSoC4/pwm.h"