ARM GAS  C:\Users\Petro\AppData\Local\Temp\ccdNVsFI.s 			page 1


   1              		.syntax unified
   2              		.cpu cortex-m0
   3              		.fpu softvfp
   4              		.eabi_attribute 20, 1
   5              		.eabi_attribute 21, 1
   6              		.eabi_attribute 23, 3
   7              		.eabi_attribute 24, 1
   8              		.eabi_attribute 25, 1
   9              		.eabi_attribute 26, 1
  10              		.eabi_attribute 30, 4
  11              		.eabi_attribute 34, 0
  12              		.eabi_attribute 18, 4
  13              		.thumb
  14              		.syntax unified
  15              		.file	"CyFlash.c"
  16              		.text
  17              	.Ltext0:
  18              		.cfi_sections	.debug_frame
  19              		.section	.text.CySysFlashClockBackup,"ax",%progbits
  20              		.align	1
  21              		.code	16
  22              		.thumb_func
  23              		.type	CySysFlashClockBackup, %function
  24              	CySysFlashClockBackup:
  25              	.LFB5:
  26              		.file 1 "Generated_Source\\PSoC4\\CyFlash.c"
   1:Generated_Source\PSoC4/CyFlash.c **** /***************************************************************************//**
   2:Generated_Source\PSoC4/CyFlash.c **** * \file CyFlash.c
   3:Generated_Source\PSoC4/CyFlash.c **** * \version 5.60
   4:Generated_Source\PSoC4/CyFlash.c **** *
   5:Generated_Source\PSoC4/CyFlash.c **** * \brief Provides an API for the FLASH.
   6:Generated_Source\PSoC4/CyFlash.c **** *
   7:Generated_Source\PSoC4/CyFlash.c **** * \note This code is endian agnostic.
   8:Generated_Source\PSoC4/CyFlash.c **** *
   9:Generated_Source\PSoC4/CyFlash.c **** * \note Documentation of the API's in this file is located in the System
  10:Generated_Source\PSoC4/CyFlash.c **** * Reference Guide provided with PSoC Creator.
  11:Generated_Source\PSoC4/CyFlash.c **** *
  12:Generated_Source\PSoC4/CyFlash.c **** ********************************************************************************
  13:Generated_Source\PSoC4/CyFlash.c **** * \copyright
  14:Generated_Source\PSoC4/CyFlash.c **** * Copyright 2010-2017, Cypress Semiconductor Corporation.  All rights reserved.
  15:Generated_Source\PSoC4/CyFlash.c **** * You may use this file only in accordance with the license, terms, conditions,
  16:Generated_Source\PSoC4/CyFlash.c **** * disclaimers, and limitations in the end user license agreement accompanying
  17:Generated_Source\PSoC4/CyFlash.c **** * the software package with which this file was provided.
  18:Generated_Source\PSoC4/CyFlash.c **** *******************************************************************************/
  19:Generated_Source\PSoC4/CyFlash.c **** 
  20:Generated_Source\PSoC4/CyFlash.c **** #include "CyFlash.h"
  21:Generated_Source\PSoC4/CyFlash.c **** 
  22:Generated_Source\PSoC4/CyFlash.c **** 
  23:Generated_Source\PSoC4/CyFlash.c **** /*******************************************************************************
  24:Generated_Source\PSoC4/CyFlash.c **** * Cypress identified a defect with the Flash write functionality of the
  25:Generated_Source\PSoC4/CyFlash.c **** * PSoC 4000, PSoC 4000U, PSoC 4100, and PSoC 4200 devices. The 
  26:Generated_Source\PSoC4/CyFlash.c **** * CySysFlashWriteRow() function now checks the data to be written and, if 
  27:Generated_Source\PSoC4/CyFlash.c **** * necessary, modifies it to have a non-zero checksum. After writing to Flash, 
  28:Generated_Source\PSoC4/CyFlash.c **** * the modified data is replaced (Flash program) with 
  29:Generated_Source\PSoC4/CyFlash.c **** * the correct (original) data.
  30:Generated_Source\PSoC4/CyFlash.c **** *******************************************************************************/
  31:Generated_Source\PSoC4/CyFlash.c **** #define CY_FLASH_CHECKSUM_WORKAROUND    (CY_PSOC4_4000 || CY_PSOC4_4100 || CY_PSOC4_4200 || CY_PSOC
ARM GAS  C:\Users\Petro\AppData\Local\Temp\ccdNVsFI.s 			page 2


  32:Generated_Source\PSoC4/CyFlash.c **** 
  33:Generated_Source\PSoC4/CyFlash.c **** #if (CY_IP_FM || ((!CY_PSOC4_4000) && CY_IP_SPCIF_SYNCHRONOUS) || (!CY_IP_FM) && CY_PSOC4_4000)
  34:Generated_Source\PSoC4/CyFlash.c ****     static CY_SYS_FLASH_CLOCK_BACKUP_STRUCT cySysFlashBackup;
  35:Generated_Source\PSoC4/CyFlash.c **** #endif /* (CY_IP_FM || ((!CY_PSOC4_4000) && CY_IP_SPCIF_SYNCHRONOUS) || (!CY_IP_FM) && CY_PSOC4_400
  36:Generated_Source\PSoC4/CyFlash.c **** 
  37:Generated_Source\PSoC4/CyFlash.c **** static cystatus CySysFlashClockBackup(void);
  38:Generated_Source\PSoC4/CyFlash.c **** static cystatus CySysFlashClockRestore(void);
  39:Generated_Source\PSoC4/CyFlash.c **** #if(CY_IP_SPCIF_SYNCHRONOUS)
  40:Generated_Source\PSoC4/CyFlash.c ****     static cystatus CySysFlashClockConfig(void);
  41:Generated_Source\PSoC4/CyFlash.c **** #endif  /* (CY_IP_SPCIF_SYNCHRONOUS) */
  42:Generated_Source\PSoC4/CyFlash.c **** 
  43:Generated_Source\PSoC4/CyFlash.c **** 
  44:Generated_Source\PSoC4/CyFlash.c **** /*******************************************************************************
  45:Generated_Source\PSoC4/CyFlash.c **** * Function Name: CySysFlashWriteRow
  46:Generated_Source\PSoC4/CyFlash.c **** ****************************************************************************//**
  47:Generated_Source\PSoC4/CyFlash.c **** *
  48:Generated_Source\PSoC4/CyFlash.c **** * Erases a row of Flash and programs it with the new data.
  49:Generated_Source\PSoC4/CyFlash.c **** *
  50:Generated_Source\PSoC4/CyFlash.c **** * The IMO must be enabled before calling this function. The operation of the
  51:Generated_Source\PSoC4/CyFlash.c **** * flash writing hardware is dependent on the IMO.
  52:Generated_Source\PSoC4/CyFlash.c **** *
  53:Generated_Source\PSoC4/CyFlash.c **** * For PSoC 4000, PSoC 4100 BLE and PSoC 4200 BLE devices (PSoC 4100 BLE and
  54:Generated_Source\PSoC4/CyFlash.c **** * PSoC 4200 BLE devices with 256K of Flash memory are not affected), this API
  55:Generated_Source\PSoC4/CyFlash.c **** * will automatically modify the clock settings for the device. Writing to
  56:Generated_Source\PSoC4/CyFlash.c **** * flash requires that changes be made to the IMO and HFCLK settings. The
  57:Generated_Source\PSoC4/CyFlash.c **** * configuration is restored before returning. This will impact the operation
  58:Generated_Source\PSoC4/CyFlash.c **** * of most of the hardware in the device.
  59:Generated_Source\PSoC4/CyFlash.c **** *
  60:Generated_Source\PSoC4/CyFlash.c **** * For PSoC 4000 devices this API will automatically modify the clock settings
  61:Generated_Source\PSoC4/CyFlash.c **** * for the device. Writing to flash requires that changes be made to the IMO
  62:Generated_Source\PSoC4/CyFlash.c **** * and HFCLK settings. The configuration is restored before returning. HFCLK
  63:Generated_Source\PSoC4/CyFlash.c **** * will have several frequency changes during the operation of this API between
  64:Generated_Source\PSoC4/CyFlash.c **** * a minimum frequency of the current IMO frequency divided by 8 and a maximum
  65:Generated_Source\PSoC4/CyFlash.c **** * frequency of 12 MHz. This will impact the operation of most of the hardware
  66:Generated_Source\PSoC4/CyFlash.c **** * in the device.
  67:Generated_Source\PSoC4/CyFlash.c **** *
  68:Generated_Source\PSoC4/CyFlash.c **** * \param rowNum The flash row number. The number of the flash rows is defined by
  69:Generated_Source\PSoC4/CyFlash.c **** * the \ref CY_FLASH_NUMBER_ROWS macro for the selected device. Refer to the
  70:Generated_Source\PSoC4/CyFlash.c **** * device datasheet for the details.
  71:Generated_Source\PSoC4/CyFlash.c **** * \note The target flash array is calculated based on the specified flash row.
  72:Generated_Source\PSoC4/CyFlash.c **** *
  73:Generated_Source\PSoC4/CyFlash.c **** * \param rowData Array of bytes to write. The size of the array must be equal to
  74:Generated_Source\PSoC4/CyFlash.c **** * the flash row size. The flash row size for the selected device is defined by
  75:Generated_Source\PSoC4/CyFlash.c **** * the \ref CY_FLASH_SIZEOF_ROW macro. Refer to the device datasheet for the
  76:Generated_Source\PSoC4/CyFlash.c **** * details.
  77:Generated_Source\PSoC4/CyFlash.c **** *
  78:Generated_Source\PSoC4/CyFlash.c **** * \return \ref group_flash_status_codes
  79:Generated_Source\PSoC4/CyFlash.c **** *
  80:Generated_Source\PSoC4/CyFlash.c **** *******************************************************************************/
  81:Generated_Source\PSoC4/CyFlash.c **** uint32 CySysFlashWriteRow(uint32 rowNum, const uint8 rowData[])
  82:Generated_Source\PSoC4/CyFlash.c **** {
  83:Generated_Source\PSoC4/CyFlash.c ****     volatile uint32 retValue = CY_SYS_FLASH_SUCCESS;
  84:Generated_Source\PSoC4/CyFlash.c ****     volatile uint32 clkCnfRetValue = CY_SYS_FLASH_SUCCESS;
  85:Generated_Source\PSoC4/CyFlash.c ****     volatile uint32 parameters[(CY_FLASH_SIZEOF_ROW + CY_FLASH_SRAM_ROM_DATA) / sizeof(uint32)];
  86:Generated_Source\PSoC4/CyFlash.c ****     uint8  interruptState;
  87:Generated_Source\PSoC4/CyFlash.c **** 
  88:Generated_Source\PSoC4/CyFlash.c ****     #if (CY_FLASH_CHECKSUM_WORKAROUND)
ARM GAS  C:\Users\Petro\AppData\Local\Temp\ccdNVsFI.s 			page 3


  89:Generated_Source\PSoC4/CyFlash.c ****         uint32 needChecksumWorkaround = 0u;
  90:Generated_Source\PSoC4/CyFlash.c ****         uint32 savedIndex = 0u;
  91:Generated_Source\PSoC4/CyFlash.c ****         uint32 savedValue = 0u;
  92:Generated_Source\PSoC4/CyFlash.c ****         uint32 checksum = 0u;
  93:Generated_Source\PSoC4/CyFlash.c ****         uint32 bits = 0u;
  94:Generated_Source\PSoC4/CyFlash.c ****         uint32 i;
  95:Generated_Source\PSoC4/CyFlash.c ****     #endif  /* (CY_FLASH_CHECKSUM_WORKAROUND) */
  96:Generated_Source\PSoC4/CyFlash.c **** 
  97:Generated_Source\PSoC4/CyFlash.c ****     if ((rowNum < CY_FLASH_NUMBER_ROWS) && (rowData != 0u))
  98:Generated_Source\PSoC4/CyFlash.c ****     {
  99:Generated_Source\PSoC4/CyFlash.c ****         /* Copy data to be written into internal variable */
 100:Generated_Source\PSoC4/CyFlash.c ****         (void)memcpy((void *)&parameters[2u], rowData, CY_FLASH_SIZEOF_ROW);
 101:Generated_Source\PSoC4/CyFlash.c **** 
 102:Generated_Source\PSoC4/CyFlash.c ****         #if (CY_FLASH_CHECKSUM_WORKAROUND)
 103:Generated_Source\PSoC4/CyFlash.c **** 
 104:Generated_Source\PSoC4/CyFlash.c ****             for (i = 2u; i < ((CY_FLASH_SIZEOF_ROW / sizeof(uint32)) + 2u); i++)
 105:Generated_Source\PSoC4/CyFlash.c ****             {
 106:Generated_Source\PSoC4/CyFlash.c ****                 uint32 tmp = parameters[i];
 107:Generated_Source\PSoC4/CyFlash.c ****                 if (tmp != 0u)
 108:Generated_Source\PSoC4/CyFlash.c ****                 {
 109:Generated_Source\PSoC4/CyFlash.c ****                     checksum += tmp;
 110:Generated_Source\PSoC4/CyFlash.c ****                     bits |= tmp;
 111:Generated_Source\PSoC4/CyFlash.c ****                     savedIndex = i;
 112:Generated_Source\PSoC4/CyFlash.c ****                 }
 113:Generated_Source\PSoC4/CyFlash.c ****             }
 114:Generated_Source\PSoC4/CyFlash.c **** 
 115:Generated_Source\PSoC4/CyFlash.c ****             needChecksumWorkaround = ((checksum == 0u) && (bits != 0u)) ? 1u : 0u;
 116:Generated_Source\PSoC4/CyFlash.c ****             if (needChecksumWorkaround != 0u)
 117:Generated_Source\PSoC4/CyFlash.c ****             {
 118:Generated_Source\PSoC4/CyFlash.c ****                 savedValue = parameters[savedIndex];
 119:Generated_Source\PSoC4/CyFlash.c ****                 parameters[savedIndex] = 0u;
 120:Generated_Source\PSoC4/CyFlash.c ****             }
 121:Generated_Source\PSoC4/CyFlash.c ****         #endif  /* (CY_FLASH_CHECKSUM_WORKAROUND) */
 122:Generated_Source\PSoC4/CyFlash.c **** 
 123:Generated_Source\PSoC4/CyFlash.c ****         /* Load Flash Bytes */
 124:Generated_Source\PSoC4/CyFlash.c ****         parameters[0u] = (uint32) (CY_FLASH_GET_MACRO_FROM_ROW(rowNum)        << CY_FLASH_PARAM_MAC
 125:Generated_Source\PSoC4/CyFlash.c ****                          (uint32) (CY_FLASH_PAGE_LATCH_START_ADDR             << CY_FLASH_PARAM_ADD
 126:Generated_Source\PSoC4/CyFlash.c ****                          (uint32) (CY_FLASH_KEY_TWO(CY_FLASH_API_OPCODE_LOAD) << CY_FLASH_PARAM_KEY
 127:Generated_Source\PSoC4/CyFlash.c ****                          CY_FLASH_KEY_ONE;
 128:Generated_Source\PSoC4/CyFlash.c ****         parameters[1u] = CY_FLASH_SIZEOF_ROW - 1u;
 129:Generated_Source\PSoC4/CyFlash.c **** 
 130:Generated_Source\PSoC4/CyFlash.c ****         CY_FLASH_CPUSS_SYSARG_REG = (uint32) &parameters[0u];
 131:Generated_Source\PSoC4/CyFlash.c ****         CY_FLASH_CPUSS_SYSREQ_REG = CY_FLASH_CPUSS_REQ_START | CY_FLASH_API_OPCODE_LOAD;
 132:Generated_Source\PSoC4/CyFlash.c ****         CY_NOP;
 133:Generated_Source\PSoC4/CyFlash.c ****         retValue = CY_FLASH_API_RETURN;
 134:Generated_Source\PSoC4/CyFlash.c **** 
 135:Generated_Source\PSoC4/CyFlash.c ****         if(retValue == CY_SYS_FLASH_SUCCESS)
 136:Generated_Source\PSoC4/CyFlash.c ****         {
 137:Generated_Source\PSoC4/CyFlash.c ****             /***************************************************************
 138:Generated_Source\PSoC4/CyFlash.c ****             * Mask all the exceptions to guarantee that Flash write will
 139:Generated_Source\PSoC4/CyFlash.c ****             * occur in the atomic way. It will not affect system call
 140:Generated_Source\PSoC4/CyFlash.c ****             * execution (flash row write) since it is executed in the NMI
 141:Generated_Source\PSoC4/CyFlash.c ****             * context.
 142:Generated_Source\PSoC4/CyFlash.c ****             ***************************************************************/
 143:Generated_Source\PSoC4/CyFlash.c ****             interruptState = CyEnterCriticalSection();
 144:Generated_Source\PSoC4/CyFlash.c **** 
 145:Generated_Source\PSoC4/CyFlash.c ****             clkCnfRetValue = CySysFlashClockBackup();
ARM GAS  C:\Users\Petro\AppData\Local\Temp\ccdNVsFI.s 			page 4


 146:Generated_Source\PSoC4/CyFlash.c **** 
 147:Generated_Source\PSoC4/CyFlash.c ****         #if(CY_IP_SPCIF_SYNCHRONOUS)
 148:Generated_Source\PSoC4/CyFlash.c ****             if(clkCnfRetValue == CY_SYS_FLASH_SUCCESS)
 149:Generated_Source\PSoC4/CyFlash.c ****             {
 150:Generated_Source\PSoC4/CyFlash.c ****                 retValue = CySysFlashClockConfig();
 151:Generated_Source\PSoC4/CyFlash.c ****             }
 152:Generated_Source\PSoC4/CyFlash.c ****         #endif  /* (CY_IP_SPCIF_SYNCHRONOUS) */
 153:Generated_Source\PSoC4/CyFlash.c **** 
 154:Generated_Source\PSoC4/CyFlash.c ****             if(retValue == CY_SYS_FLASH_SUCCESS)
 155:Generated_Source\PSoC4/CyFlash.c ****             {
 156:Generated_Source\PSoC4/CyFlash.c ****                 /* Write Row */
 157:Generated_Source\PSoC4/CyFlash.c ****                 parameters[0u]  = (uint32) (((uint32) CY_FLASH_KEY_TWO(CY_FLASH_API_OPCODE_WRITE_RO
 158:Generated_Source\PSoC4/CyFlash.c ****                 parameters[0u] |= (uint32)(rowNum << 16u);
 159:Generated_Source\PSoC4/CyFlash.c **** 
 160:Generated_Source\PSoC4/CyFlash.c ****                 CY_FLASH_CPUSS_SYSARG_REG = (uint32) &parameters[0u];
 161:Generated_Source\PSoC4/CyFlash.c ****                 CY_FLASH_CPUSS_SYSREQ_REG = CY_FLASH_CPUSS_REQ_START | CY_FLASH_API_OPCODE_WRITE_RO
 162:Generated_Source\PSoC4/CyFlash.c ****                 CY_NOP;
 163:Generated_Source\PSoC4/CyFlash.c ****                 retValue = CY_FLASH_API_RETURN;
 164:Generated_Source\PSoC4/CyFlash.c ****             }
 165:Generated_Source\PSoC4/CyFlash.c **** 
 166:Generated_Source\PSoC4/CyFlash.c ****             #if (CY_FLASH_CHECKSUM_WORKAROUND)
 167:Generated_Source\PSoC4/CyFlash.c **** 
 168:Generated_Source\PSoC4/CyFlash.c ****                 if ((retValue == CYRET_SUCCESS) && (needChecksumWorkaround != 0u))
 169:Generated_Source\PSoC4/CyFlash.c ****                 {
 170:Generated_Source\PSoC4/CyFlash.c ****                     (void)memset((void *)&parameters[2u], 0, CY_FLASH_SIZEOF_ROW);
 171:Generated_Source\PSoC4/CyFlash.c ****                     parameters[savedIndex] = savedValue;
 172:Generated_Source\PSoC4/CyFlash.c **** 
 173:Generated_Source\PSoC4/CyFlash.c ****                     /* Load Flash Bytes */
 174:Generated_Source\PSoC4/CyFlash.c ****                     parameters[0u] = (uint32) (CY_FLASH_GET_MACRO_FROM_ROW(rowNum)        << CY_FLA
 175:Generated_Source\PSoC4/CyFlash.c ****                                      (uint32) (CY_FLASH_PAGE_LATCH_START_ADDR             << CY_FLA
 176:Generated_Source\PSoC4/CyFlash.c ****                                      (uint32) (CY_FLASH_KEY_TWO(CY_FLASH_API_OPCODE_LOAD) << CY_FLA
 177:Generated_Source\PSoC4/CyFlash.c ****                                      CY_FLASH_KEY_ONE;
 178:Generated_Source\PSoC4/CyFlash.c ****                     parameters[1u] = CY_FLASH_SIZEOF_ROW - 1u;
 179:Generated_Source\PSoC4/CyFlash.c **** 
 180:Generated_Source\PSoC4/CyFlash.c ****                     CY_FLASH_CPUSS_SYSARG_REG = (uint32) &parameters[0u];
 181:Generated_Source\PSoC4/CyFlash.c ****                     CY_FLASH_CPUSS_SYSREQ_REG = CY_FLASH_CPUSS_REQ_START | CY_FLASH_API_OPCODE_LOAD
 182:Generated_Source\PSoC4/CyFlash.c ****                     CY_NOP;
 183:Generated_Source\PSoC4/CyFlash.c ****                     retValue = CY_FLASH_API_RETURN;
 184:Generated_Source\PSoC4/CyFlash.c **** 
 185:Generated_Source\PSoC4/CyFlash.c **** 
 186:Generated_Source\PSoC4/CyFlash.c ****                     if(retValue == CY_SYS_FLASH_SUCCESS)
 187:Generated_Source\PSoC4/CyFlash.c ****                     {
 188:Generated_Source\PSoC4/CyFlash.c ****                         /* Program Row */
 189:Generated_Source\PSoC4/CyFlash.c ****                         parameters[0u]  =
 190:Generated_Source\PSoC4/CyFlash.c ****                             (uint32) (((uint32) CY_FLASH_KEY_TWO(CY_FLASH_API_OPCODE_PROGRAM_ROW) <
 191:Generated_Source\PSoC4/CyFlash.c ****                                                     CY_FLASH_PARAM_KEY_TWO_OFFSET) | CY_FLASH_KEY_O
 192:Generated_Source\PSoC4/CyFlash.c ****                         parameters[0u] |= (uint32)(rowNum << 16u);
 193:Generated_Source\PSoC4/CyFlash.c **** 
 194:Generated_Source\PSoC4/CyFlash.c ****                         CY_FLASH_CPUSS_SYSARG_REG = (uint32) &parameters[0u];
 195:Generated_Source\PSoC4/CyFlash.c ****                         CY_FLASH_CPUSS_SYSREQ_REG = CY_FLASH_CPUSS_REQ_START | CY_FLASH_API_OPCODE_
 196:Generated_Source\PSoC4/CyFlash.c ****                         CY_NOP;
 197:Generated_Source\PSoC4/CyFlash.c ****                         retValue = CY_FLASH_API_RETURN;
 198:Generated_Source\PSoC4/CyFlash.c ****                     }
 199:Generated_Source\PSoC4/CyFlash.c ****                 }
 200:Generated_Source\PSoC4/CyFlash.c ****             #endif  /* (CY_FLASH_CHECKSUM_WORKAROUND) */
 201:Generated_Source\PSoC4/CyFlash.c **** 
 202:Generated_Source\PSoC4/CyFlash.c ****             if(clkCnfRetValue == CY_SYS_FLASH_SUCCESS)
ARM GAS  C:\Users\Petro\AppData\Local\Temp\ccdNVsFI.s 			page 5


 203:Generated_Source\PSoC4/CyFlash.c ****             {
 204:Generated_Source\PSoC4/CyFlash.c ****                 clkCnfRetValue = CySysFlashClockRestore();
 205:Generated_Source\PSoC4/CyFlash.c **** 
 206:Generated_Source\PSoC4/CyFlash.c ****                 if(clkCnfRetValue != CY_SYS_FLASH_SUCCESS)
 207:Generated_Source\PSoC4/CyFlash.c ****                 {
 208:Generated_Source\PSoC4/CyFlash.c ****                     retValue = clkCnfRetValue;
 209:Generated_Source\PSoC4/CyFlash.c ****                 }
 210:Generated_Source\PSoC4/CyFlash.c ****             }
 211:Generated_Source\PSoC4/CyFlash.c **** 
 212:Generated_Source\PSoC4/CyFlash.c ****             CyExitCriticalSection(interruptState);
 213:Generated_Source\PSoC4/CyFlash.c ****         }
 214:Generated_Source\PSoC4/CyFlash.c ****     }
 215:Generated_Source\PSoC4/CyFlash.c ****     else
 216:Generated_Source\PSoC4/CyFlash.c ****     {
 217:Generated_Source\PSoC4/CyFlash.c ****         retValue = CY_SYS_FLASH_INVALID_ADDR;
 218:Generated_Source\PSoC4/CyFlash.c ****     }
 219:Generated_Source\PSoC4/CyFlash.c **** 
 220:Generated_Source\PSoC4/CyFlash.c ****     return (retValue);
 221:Generated_Source\PSoC4/CyFlash.c **** }
 222:Generated_Source\PSoC4/CyFlash.c **** 
 223:Generated_Source\PSoC4/CyFlash.c **** 
 224:Generated_Source\PSoC4/CyFlash.c **** 
 225:Generated_Source\PSoC4/CyFlash.c **** #if (CY_IP_FLASH_PARALLEL_PGM_EN && (CY_IP_FLASH_MACROS > 1u))
 226:Generated_Source\PSoC4/CyFlash.c **** /*******************************************************************************
 227:Generated_Source\PSoC4/CyFlash.c **** * Function Name: CySysFlashStartWriteRow
 228:Generated_Source\PSoC4/CyFlash.c **** ****************************************************************************//**
 229:Generated_Source\PSoC4/CyFlash.c **** *
 230:Generated_Source\PSoC4/CyFlash.c **** * Initiates a write to a row of Flash. A call to this API is non-blocking. 
 231:Generated_Source\PSoC4/CyFlash.c **** * Use CySysFlashResumeWriteRow() to resume flash writes and 
 232:Generated_Source\PSoC4/CyFlash.c **** * CySysFlashGetWriteRowStatus() to ascertain status of the write operation.
 233:Generated_Source\PSoC4/CyFlash.c **** *
 234:Generated_Source\PSoC4/CyFlash.c **** * The devices require HFCLK to be sourced by 48 MHz IMO during flash write.
 235:Generated_Source\PSoC4/CyFlash.c **** * This API will modify IMO configuration; it can be later restored to original
 236:Generated_Source\PSoC4/CyFlash.c **** * configuration by calling \ref CySysFlashGetWriteRowStatus().
 237:Generated_Source\PSoC4/CyFlash.c **** *
 238:Generated_Source\PSoC4/CyFlash.c **** * \note The non-blocking operation does not return success status 
 239:Generated_Source\PSoC4/CyFlash.c **** * CY_SYS_FLASH_SUCCESS until the last \ref CySysFlashResumeWriteRow API 
 240:Generated_Source\PSoC4/CyFlash.c **** * is complete. The CPUSS_SYSARG register will be reflecting the SRAM address 
 241:Generated_Source\PSoC4/CyFlash.c **** * during an ongoing non-blocking operation.
 242:Generated_Source\PSoC4/CyFlash.c **** *    
 243:Generated_Source\PSoC4/CyFlash.c **** * \param rowNum The flash row number. The number of the flash rows is defined by
 244:Generated_Source\PSoC4/CyFlash.c **** * the \ref CY_FLASH_NUMBER_ROWS macro for the selected device. Refer to the
 245:Generated_Source\PSoC4/CyFlash.c **** * device datasheet for the details.
 246:Generated_Source\PSoC4/CyFlash.c **** * \note The target flash array is calculated based on the specified flash row.
 247:Generated_Source\PSoC4/CyFlash.c **** *
 248:Generated_Source\PSoC4/CyFlash.c **** * \param rowData Array of bytes to write. The size of the array must be equal to
 249:Generated_Source\PSoC4/CyFlash.c **** * the flash row size. The flash row size for the selected device is defined by
 250:Generated_Source\PSoC4/CyFlash.c **** * the \ref CY_FLASH_SIZEOF_ROW macro. Refer to the device datasheet for the
 251:Generated_Source\PSoC4/CyFlash.c **** * details.
 252:Generated_Source\PSoC4/CyFlash.c **** *
 253:Generated_Source\PSoC4/CyFlash.c **** * \return \ref group_flash_status_codes
 254:Generated_Source\PSoC4/CyFlash.c **** *
 255:Generated_Source\PSoC4/CyFlash.c **** *******************************************************************************/
 256:Generated_Source\PSoC4/CyFlash.c **** uint32 CySysFlashStartWriteRow(uint32 rowNum, const uint8 rowData[])
 257:Generated_Source\PSoC4/CyFlash.c **** {
 258:Generated_Source\PSoC4/CyFlash.c ****     volatile uint32 retValue = CY_SYS_FLASH_SUCCESS;
 259:Generated_Source\PSoC4/CyFlash.c ****     volatile uint32 parameters[(CY_FLASH_SIZEOF_ROW + CY_FLASH_SRAM_ROM_DATA) / sizeof(uint32)];
ARM GAS  C:\Users\Petro\AppData\Local\Temp\ccdNVsFI.s 			page 6


 260:Generated_Source\PSoC4/CyFlash.c ****     uint8  interruptState;
 261:Generated_Source\PSoC4/CyFlash.c **** 
 262:Generated_Source\PSoC4/CyFlash.c **** #if(CY_IP_SPCIF_SYNCHRONOUS)
 263:Generated_Source\PSoC4/CyFlash.c ****     volatile uint32 clkCnfRetValue = CY_SYS_FLASH_SUCCESS;
 264:Generated_Source\PSoC4/CyFlash.c **** #endif  /* (CY_IP_SPCIF_SYNCHRONOUS) */    
 265:Generated_Source\PSoC4/CyFlash.c **** 
 266:Generated_Source\PSoC4/CyFlash.c ****     if ((rowNum < CY_FLASH_NUMBER_ROWS) && (rowData != 0u))
 267:Generated_Source\PSoC4/CyFlash.c ****     {
 268:Generated_Source\PSoC4/CyFlash.c ****         /* Copy data to be written into internal variable */
 269:Generated_Source\PSoC4/CyFlash.c ****         (void)memcpy((void *)&parameters[2u], rowData, CY_FLASH_SIZEOF_ROW);
 270:Generated_Source\PSoC4/CyFlash.c **** 
 271:Generated_Source\PSoC4/CyFlash.c ****         /* Load Flash Bytes */
 272:Generated_Source\PSoC4/CyFlash.c ****         parameters[0u] = (uint32) (CY_FLASH_GET_MACRO_FROM_ROW(rowNum)        << CY_FLASH_PARAM_MAC
 273:Generated_Source\PSoC4/CyFlash.c ****                          (uint32) (CY_FLASH_PAGE_LATCH_START_ADDR             << CY_FLASH_PARAM_ADD
 274:Generated_Source\PSoC4/CyFlash.c ****                          (uint32) (CY_FLASH_KEY_TWO(CY_FLASH_API_OPCODE_LOAD) << CY_FLASH_PARAM_KEY
 275:Generated_Source\PSoC4/CyFlash.c ****                          CY_FLASH_KEY_ONE;
 276:Generated_Source\PSoC4/CyFlash.c ****         parameters[1u] = CY_FLASH_SIZEOF_ROW - 1u;
 277:Generated_Source\PSoC4/CyFlash.c **** 
 278:Generated_Source\PSoC4/CyFlash.c ****         CY_FLASH_CPUSS_SYSARG_REG = (uint32) &parameters[0u];
 279:Generated_Source\PSoC4/CyFlash.c ****         CY_FLASH_CPUSS_SYSREQ_REG = CY_FLASH_CPUSS_REQ_START | CY_FLASH_API_OPCODE_LOAD;
 280:Generated_Source\PSoC4/CyFlash.c ****         CY_NOP;
 281:Generated_Source\PSoC4/CyFlash.c ****         retValue = CY_FLASH_API_RETURN;
 282:Generated_Source\PSoC4/CyFlash.c **** 
 283:Generated_Source\PSoC4/CyFlash.c ****         if(retValue == CY_SYS_FLASH_SUCCESS)
 284:Generated_Source\PSoC4/CyFlash.c ****         {
 285:Generated_Source\PSoC4/CyFlash.c ****             /***************************************************************
 286:Generated_Source\PSoC4/CyFlash.c ****             * Mask all the exceptions to guarantee that Flash write will
 287:Generated_Source\PSoC4/CyFlash.c ****             * occur in the atomic way. It will not affect system call
 288:Generated_Source\PSoC4/CyFlash.c ****             * execution (flash row write) since it is executed in the NMI
 289:Generated_Source\PSoC4/CyFlash.c ****             * context.
 290:Generated_Source\PSoC4/CyFlash.c ****             ***************************************************************/
 291:Generated_Source\PSoC4/CyFlash.c ****             interruptState = CyEnterCriticalSection();
 292:Generated_Source\PSoC4/CyFlash.c **** 
 293:Generated_Source\PSoC4/CyFlash.c ****         #if(CY_IP_SPCIF_SYNCHRONOUS)
 294:Generated_Source\PSoC4/CyFlash.c ****             clkCnfRetValue = CySysFlashClockBackup();
 295:Generated_Source\PSoC4/CyFlash.c ****             
 296:Generated_Source\PSoC4/CyFlash.c ****             if(clkCnfRetValue == CY_SYS_FLASH_SUCCESS)
 297:Generated_Source\PSoC4/CyFlash.c ****             {
 298:Generated_Source\PSoC4/CyFlash.c ****                 retValue = CySysFlashClockConfig();
 299:Generated_Source\PSoC4/CyFlash.c ****             }
 300:Generated_Source\PSoC4/CyFlash.c ****         #else
 301:Generated_Source\PSoC4/CyFlash.c ****             (void)CySysFlashClockBackup();
 302:Generated_Source\PSoC4/CyFlash.c ****         #endif  /* (CY_IP_SPCIF_SYNCHRONOUS) */
 303:Generated_Source\PSoC4/CyFlash.c **** 
 304:Generated_Source\PSoC4/CyFlash.c ****             if(retValue == CY_SYS_FLASH_SUCCESS)
 305:Generated_Source\PSoC4/CyFlash.c ****             {
 306:Generated_Source\PSoC4/CyFlash.c ****                 /* Non-blocking Write Row */
 307:Generated_Source\PSoC4/CyFlash.c ****                 parameters[0u]  = (uint32) (((uint32) CY_FLASH_KEY_TWO(CY_FLASH_API_OPCODE_NON_BLOC
 308:Generated_Source\PSoC4/CyFlash.c ****                                                         CY_FLASH_PARAM_KEY_TWO_OFFSET) | CY_FLASH_K
 309:Generated_Source\PSoC4/CyFlash.c ****                 parameters[0u] |= (uint32)(rowNum << 16u);
 310:Generated_Source\PSoC4/CyFlash.c **** 
 311:Generated_Source\PSoC4/CyFlash.c ****                 CY_FLASH_CPUSS_SYSARG_REG = (uint32) &parameters[0u];
 312:Generated_Source\PSoC4/CyFlash.c ****                 CY_FLASH_CPUSS_SYSREQ_REG = CY_FLASH_CPUSS_REQ_START | CY_FLASH_API_OPCODE_NON_BLOC
 313:Generated_Source\PSoC4/CyFlash.c ****                 CY_NOP;
 314:Generated_Source\PSoC4/CyFlash.c ****                 retValue = CY_FLASH_API_RETURN;
 315:Generated_Source\PSoC4/CyFlash.c ****             }
 316:Generated_Source\PSoC4/CyFlash.c **** 
ARM GAS  C:\Users\Petro\AppData\Local\Temp\ccdNVsFI.s 			page 7


 317:Generated_Source\PSoC4/CyFlash.c ****             CyExitCriticalSection(interruptState);
 318:Generated_Source\PSoC4/CyFlash.c ****         }
 319:Generated_Source\PSoC4/CyFlash.c ****     }
 320:Generated_Source\PSoC4/CyFlash.c ****     else
 321:Generated_Source\PSoC4/CyFlash.c ****     {
 322:Generated_Source\PSoC4/CyFlash.c ****         retValue = CY_SYS_FLASH_INVALID_ADDR;
 323:Generated_Source\PSoC4/CyFlash.c ****     }
 324:Generated_Source\PSoC4/CyFlash.c **** 
 325:Generated_Source\PSoC4/CyFlash.c ****     return (retValue);
 326:Generated_Source\PSoC4/CyFlash.c **** }
 327:Generated_Source\PSoC4/CyFlash.c **** 
 328:Generated_Source\PSoC4/CyFlash.c **** 
 329:Generated_Source\PSoC4/CyFlash.c **** /*******************************************************************************
 330:Generated_Source\PSoC4/CyFlash.c **** * Function Name: CySysFlashGetWriteRowStatus
 331:Generated_Source\PSoC4/CyFlash.c **** ****************************************************************************//**
 332:Generated_Source\PSoC4/CyFlash.c **** *
 333:Generated_Source\PSoC4/CyFlash.c **** * Returns the current status of the flash write operation.
 334:Generated_Source\PSoC4/CyFlash.c **** *
 335:Generated_Source\PSoC4/CyFlash.c **** ** \note The non-blocking operation does not return success status 
 336:Generated_Source\PSoC4/CyFlash.c **** * CY_SYS_FLASH_SUCCESS until the last \ref CySysFlashResumeWriteRow API 
 337:Generated_Source\PSoC4/CyFlash.c **** * is complete. The CPUSS_SYSARG register will be reflecting the SRAM address 
 338:Generated_Source\PSoC4/CyFlash.c **** * during an ongoing non-blocking operation.
 339:Generated_Source\PSoC4/CyFlash.c **** * Calling this API before starting a non-blocking write row operation 
 340:Generated_Source\PSoC4/CyFlash.c **** * using the \ref CySysFlashStartWriteRow() API will cause improper operation.
 341:Generated_Source\PSoC4/CyFlash.c **** *
 342:Generated_Source\PSoC4/CyFlash.c **** * \return \ref group_flash_status_codes
 343:Generated_Source\PSoC4/CyFlash.c **** *
 344:Generated_Source\PSoC4/CyFlash.c **** *******************************************************************************/
 345:Generated_Source\PSoC4/CyFlash.c **** uint32 CySysFlashGetWriteRowStatus(void)
 346:Generated_Source\PSoC4/CyFlash.c **** {
 347:Generated_Source\PSoC4/CyFlash.c ****     volatile uint32 retValue = CY_SYS_FLASH_SUCCESS;
 348:Generated_Source\PSoC4/CyFlash.c **** 
 349:Generated_Source\PSoC4/CyFlash.c ****     CY_NOP;
 350:Generated_Source\PSoC4/CyFlash.c ****     retValue = CY_FLASH_API_RETURN;
 351:Generated_Source\PSoC4/CyFlash.c **** 
 352:Generated_Source\PSoC4/CyFlash.c ****     (void) CySysFlashClockRestore();
 353:Generated_Source\PSoC4/CyFlash.c **** 
 354:Generated_Source\PSoC4/CyFlash.c ****     return (retValue);
 355:Generated_Source\PSoC4/CyFlash.c **** }
 356:Generated_Source\PSoC4/CyFlash.c **** 
 357:Generated_Source\PSoC4/CyFlash.c **** 
 358:Generated_Source\PSoC4/CyFlash.c **** /*******************************************************************************
 359:Generated_Source\PSoC4/CyFlash.c **** * Function Name: CySysFlashResumeWriteRow
 360:Generated_Source\PSoC4/CyFlash.c **** ****************************************************************************//**
 361:Generated_Source\PSoC4/CyFlash.c **** *
 362:Generated_Source\PSoC4/CyFlash.c **** * This API must be called, once the SPC interrupt is triggered to complete the
 363:Generated_Source\PSoC4/CyFlash.c **** * non-blocking operation. It is advised not to prolong calling this API for
 364:Generated_Source\PSoC4/CyFlash.c **** * more than 25 ms.
 365:Generated_Source\PSoC4/CyFlash.c **** *
 366:Generated_Source\PSoC4/CyFlash.c **** * The non-blocking write row API \ref CySysFlashStartWriteRow() requires that
 367:Generated_Source\PSoC4/CyFlash.c **** * this API be called 3 times to complete the write. This can be done by
 368:Generated_Source\PSoC4/CyFlash.c **** * configuring SPCIF interrupt and placing a call to this API.
 369:Generated_Source\PSoC4/CyFlash.c **** *
 370:Generated_Source\PSoC4/CyFlash.c **** * For CM0 based device, a non-blocking call to program a row of macro 0
 371:Generated_Source\PSoC4/CyFlash.c **** * requires the user to set the CPUSS_CONFIG.VECS_IN_RAM bit so that the
 372:Generated_Source\PSoC4/CyFlash.c **** * interrupt vector for the SPC is fetched from the SRAM rather than the FLASH.
 373:Generated_Source\PSoC4/CyFlash.c **** *
ARM GAS  C:\Users\Petro\AppData\Local\Temp\ccdNVsFI.s 			page 8


 374:Generated_Source\PSoC4/CyFlash.c **** * For CM0+ based device, if the user wants to keep the vector table in flash
 375:Generated_Source\PSoC4/CyFlash.c **** * when performing non-blocking flash write then they need to make sure the
 376:Generated_Source\PSoC4/CyFlash.c **** * vector table is placed in the flash macro which is not getting programmed by
 377:Generated_Source\PSoC4/CyFlash.c **** * configuring the VTOR register.
 378:Generated_Source\PSoC4/CyFlash.c **** *
 379:Generated_Source\PSoC4/CyFlash.c **** * \note The non-blocking operation does not return success status 
 380:Generated_Source\PSoC4/CyFlash.c **** * CY_SYS_FLASH_SUCCESS until the last Resume API is complete. 
 381:Generated_Source\PSoC4/CyFlash.c **** * The CPUSS_SYSARG register will be reflecting the SRAM address during an 
 382:Generated_Source\PSoC4/CyFlash.c **** * ongoing non-blocking operation.
 383:Generated_Source\PSoC4/CyFlash.c **** *
 384:Generated_Source\PSoC4/CyFlash.c **** * \return \ref group_flash_status_codes
 385:Generated_Source\PSoC4/CyFlash.c **** *
 386:Generated_Source\PSoC4/CyFlash.c **** *******************************************************************************/
 387:Generated_Source\PSoC4/CyFlash.c **** uint32 CySysFlashResumeWriteRow(void)
 388:Generated_Source\PSoC4/CyFlash.c **** {
 389:Generated_Source\PSoC4/CyFlash.c ****     volatile uint32 retValue = CY_SYS_FLASH_SUCCESS;
 390:Generated_Source\PSoC4/CyFlash.c ****     static volatile uint32 parameters[1u];
 391:Generated_Source\PSoC4/CyFlash.c **** 
 392:Generated_Source\PSoC4/CyFlash.c ****     /* Resume */
 393:Generated_Source\PSoC4/CyFlash.c ****     parameters[0u] = (uint32) (((uint32) CY_FLASH_KEY_TWO(CY_FLASH_API_OPCODE_RESUME_NON_BLOCKING) 
 394:Generated_Source\PSoC4/CyFlash.c ****                                          CY_FLASH_PARAM_KEY_TWO_OFFSET) | CY_FLASH_KEY_ONE);
 395:Generated_Source\PSoC4/CyFlash.c ****     CY_FLASH_CPUSS_SYSARG_REG = (uint32) &parameters[0u];
 396:Generated_Source\PSoC4/CyFlash.c ****     CY_FLASH_CPUSS_SYSREQ_REG = CY_FLASH_CPUSS_REQ_START | CY_FLASH_API_OPCODE_RESUME_NON_BLOCKING;
 397:Generated_Source\PSoC4/CyFlash.c ****     
 398:Generated_Source\PSoC4/CyFlash.c ****     CY_NOP;
 399:Generated_Source\PSoC4/CyFlash.c ****     retValue = CY_FLASH_API_RETURN;
 400:Generated_Source\PSoC4/CyFlash.c ****     
 401:Generated_Source\PSoC4/CyFlash.c ****     return (retValue);
 402:Generated_Source\PSoC4/CyFlash.c **** }
 403:Generated_Source\PSoC4/CyFlash.c **** 
 404:Generated_Source\PSoC4/CyFlash.c **** #endif /* (CY_IP_FLASH_PARALLEL_PGM_EN && (CY_IP_FLASH_MACROS > 1u)) */
 405:Generated_Source\PSoC4/CyFlash.c **** 
 406:Generated_Source\PSoC4/CyFlash.c **** 
 407:Generated_Source\PSoC4/CyFlash.c **** /*******************************************************************************
 408:Generated_Source\PSoC4/CyFlash.c **** * Function Name: CySysFlashSetWaitCycles
 409:Generated_Source\PSoC4/CyFlash.c **** ****************************************************************************//**
 410:Generated_Source\PSoC4/CyFlash.c **** *
 411:Generated_Source\PSoC4/CyFlash.c **** * Sets the number of clock cycles the cache will wait before it samples data
 412:Generated_Source\PSoC4/CyFlash.c **** * coming back from Flash. This function must be called before increasing the
 413:Generated_Source\PSoC4/CyFlash.c **** * SYSCLK clock frequency. It can optionally be called after lowering SYSCLK
 414:Generated_Source\PSoC4/CyFlash.c **** * clock frequency in order to improve the CPU performance.
 415:Generated_Source\PSoC4/CyFlash.c **** *
 416:Generated_Source\PSoC4/CyFlash.c **** * \param freq The System clock frequency in MHz.
 417:Generated_Source\PSoC4/CyFlash.c **** *
 418:Generated_Source\PSoC4/CyFlash.c **** * \note Invalid frequency will be ignored in Release mode and the CPU will be
 419:Generated_Source\PSoC4/CyFlash.c **** * halted if project is compiled in Debug mode.
 420:Generated_Source\PSoC4/CyFlash.c **** *
 421:Generated_Source\PSoC4/CyFlash.c **** *******************************************************************************/
 422:Generated_Source\PSoC4/CyFlash.c **** void CySysFlashSetWaitCycles(uint32 freq)
 423:Generated_Source\PSoC4/CyFlash.c **** {
 424:Generated_Source\PSoC4/CyFlash.c ****     uint8  interruptState;
 425:Generated_Source\PSoC4/CyFlash.c **** 
 426:Generated_Source\PSoC4/CyFlash.c ****     interruptState = CyEnterCriticalSection();
 427:Generated_Source\PSoC4/CyFlash.c **** 
 428:Generated_Source\PSoC4/CyFlash.c ****     #if (CY_IP_CPUSS)
 429:Generated_Source\PSoC4/CyFlash.c **** 
 430:Generated_Source\PSoC4/CyFlash.c ****         if ( freq <= CY_FLASH_SYSCLK_BOUNDARY_MHZ )
ARM GAS  C:\Users\Petro\AppData\Local\Temp\ccdNVsFI.s 			page 9


 431:Generated_Source\PSoC4/CyFlash.c ****         {
 432:Generated_Source\PSoC4/CyFlash.c ****             CY_SYS_CLK_SELECT_REG &= (uint32)(~CY_FLASH_WAIT_STATE_EN);
 433:Generated_Source\PSoC4/CyFlash.c ****         }
 434:Generated_Source\PSoC4/CyFlash.c ****         else
 435:Generated_Source\PSoC4/CyFlash.c ****         {
 436:Generated_Source\PSoC4/CyFlash.c ****             CY_SYS_CLK_SELECT_REG |= CY_FLASH_WAIT_STATE_EN;
 437:Generated_Source\PSoC4/CyFlash.c ****         }
 438:Generated_Source\PSoC4/CyFlash.c ****     #else
 439:Generated_Source\PSoC4/CyFlash.c ****         #if (CY_IP_CPUSS_FLASHC_PRESENT)
 440:Generated_Source\PSoC4/CyFlash.c ****             /* CY_IP_FM and CY_IP_FS */
 441:Generated_Source\PSoC4/CyFlash.c ****             if (freq <= CY_FLASH_CTL_WS_0_FREQ_MAX)
 442:Generated_Source\PSoC4/CyFlash.c ****             {
 443:Generated_Source\PSoC4/CyFlash.c ****                 CY_FLASH_CTL_REG = (CY_FLASH_CTL_REG & ~CY_FLASH_CTL_WS_MASK) | CY_FLASH_CTL_WS_0_V
 444:Generated_Source\PSoC4/CyFlash.c ****             } else
 445:Generated_Source\PSoC4/CyFlash.c ****             if (freq <= CY_FLASH_CTL_WS_1_FREQ_MAX)
 446:Generated_Source\PSoC4/CyFlash.c ****             {
 447:Generated_Source\PSoC4/CyFlash.c ****                 CY_FLASH_CTL_REG = (CY_FLASH_CTL_REG & ~CY_FLASH_CTL_WS_MASK) | CY_FLASH_CTL_WS_1_V
 448:Generated_Source\PSoC4/CyFlash.c ****             } else
 449:Generated_Source\PSoC4/CyFlash.c ****             #if (CY_IP_FMLT || CY_IP_FSLT)
 450:Generated_Source\PSoC4/CyFlash.c ****                 if (freq <= CY_FLASH_CTL_WS_2_FREQ_MAX)
 451:Generated_Source\PSoC4/CyFlash.c ****                 {
 452:Generated_Source\PSoC4/CyFlash.c ****                     CY_FLASH_CTL_REG = (CY_FLASH_CTL_REG & ~CY_FLASH_CTL_WS_MASK) | CY_FLASH_CTL_WS
 453:Generated_Source\PSoC4/CyFlash.c ****                 }
 454:Generated_Source\PSoC4/CyFlash.c ****                 else
 455:Generated_Source\PSoC4/CyFlash.c ****             #endif  /* (CY_IP_FMLT || CY_IP_FSLT) */
 456:Generated_Source\PSoC4/CyFlash.c ****         #endif /* (CY_IP_CPUSS_FLASHC_PRESENT) */
 457:Generated_Source\PSoC4/CyFlash.c ****         {
 458:Generated_Source\PSoC4/CyFlash.c ****             /* Halt CPU in debug mode if frequency is invalid */
 459:Generated_Source\PSoC4/CyFlash.c ****             CYASSERT(0u != 0u);
 460:Generated_Source\PSoC4/CyFlash.c ****         }
 461:Generated_Source\PSoC4/CyFlash.c **** 
 462:Generated_Source\PSoC4/CyFlash.c ****     #endif  /* (CY_IP_CPUSS) */
 463:Generated_Source\PSoC4/CyFlash.c **** 
 464:Generated_Source\PSoC4/CyFlash.c ****     CyExitCriticalSection(interruptState);
 465:Generated_Source\PSoC4/CyFlash.c **** }
 466:Generated_Source\PSoC4/CyFlash.c **** 
 467:Generated_Source\PSoC4/CyFlash.c **** 
 468:Generated_Source\PSoC4/CyFlash.c **** #if (CY_SFLASH_XTRA_ROWS)
 469:Generated_Source\PSoC4/CyFlash.c **** /*******************************************************************************
 470:Generated_Source\PSoC4/CyFlash.c **** * Function Name: CySysSFlashWriteUserRow
 471:Generated_Source\PSoC4/CyFlash.c **** ****************************************************************************//**
 472:Generated_Source\PSoC4/CyFlash.c **** *
 473:Generated_Source\PSoC4/CyFlash.c **** * Writes data to a row of SFlash user configurable area.
 474:Generated_Source\PSoC4/CyFlash.c **** *
 475:Generated_Source\PSoC4/CyFlash.c **** * This API is applicable for PSoC 4100 BLE, PSoC 4200 BLE, PSoC 4100M,
 476:Generated_Source\PSoC4/CyFlash.c **** * PSoC 4200M, and PSoC 4200L family of devices.
 477:Generated_Source\PSoC4/CyFlash.c **** *
 478:Generated_Source\PSoC4/CyFlash.c **** * \param rowNum The flash row number. The flash row number. The number of the
 479:Generated_Source\PSoC4/CyFlash.c **** * flash rows is defined by the CY_SFLASH_NUMBER_USERROWS macro for the selected
 480:Generated_Source\PSoC4/CyFlash.c **** * device. Valid range is 0-3. Refer to the device TRM for details.
 481:Generated_Source\PSoC4/CyFlash.c **** *
 482:Generated_Source\PSoC4/CyFlash.c **** * \param rowData Array of bytes to write. The size of the array must be equal to
 483:Generated_Source\PSoC4/CyFlash.c **** * the flash row size. The flash row size for the selected device is defined by
 484:Generated_Source\PSoC4/CyFlash.c **** * the \ref CY_SFLASH_SIZEOF_USERROW macro. Refer to the device TRM for the
 485:Generated_Source\PSoC4/CyFlash.c **** * details.
 486:Generated_Source\PSoC4/CyFlash.c **** *
 487:Generated_Source\PSoC4/CyFlash.c **** * \return \ref group_flash_status_codes
ARM GAS  C:\Users\Petro\AppData\Local\Temp\ccdNVsFI.s 			page 10


 488:Generated_Source\PSoC4/CyFlash.c **** *
 489:Generated_Source\PSoC4/CyFlash.c **** *******************************************************************************/
 490:Generated_Source\PSoC4/CyFlash.c **** uint32 CySysSFlashWriteUserRow(uint32 rowNum, const uint8 rowData[])
 491:Generated_Source\PSoC4/CyFlash.c **** {
 492:Generated_Source\PSoC4/CyFlash.c ****     volatile uint32 retValue = CY_SYS_FLASH_SUCCESS;
 493:Generated_Source\PSoC4/CyFlash.c ****     volatile uint32 clkCnfRetValue = CY_SYS_FLASH_SUCCESS;
 494:Generated_Source\PSoC4/CyFlash.c ****     volatile uint32 parameters[(CY_FLASH_SIZEOF_ROW + CY_FLASH_SRAM_ROM_DATA)/4u];
 495:Generated_Source\PSoC4/CyFlash.c ****     uint8  interruptState;
 496:Generated_Source\PSoC4/CyFlash.c **** 
 497:Generated_Source\PSoC4/CyFlash.c **** 
 498:Generated_Source\PSoC4/CyFlash.c ****     if ((rowNum < CY_SFLASH_NUMBER_USERROWS) && (rowData != 0u))
 499:Generated_Source\PSoC4/CyFlash.c ****     {
 500:Generated_Source\PSoC4/CyFlash.c ****         /* Load Flash Bytes */
 501:Generated_Source\PSoC4/CyFlash.c ****         parameters[0u] = (uint32) (CY_FLASH_GET_MACRO_FROM_ROW(rowNum)        << CY_FLASH_PARAM_MAC
 502:Generated_Source\PSoC4/CyFlash.c ****                          (uint32) (CY_FLASH_PAGE_LATCH_START_ADDR             << CY_FLASH_PARAM_ADD
 503:Generated_Source\PSoC4/CyFlash.c ****                          (uint32) (CY_FLASH_KEY_TWO(CY_FLASH_API_OPCODE_LOAD) << CY_FLASH_PARAM_KEY
 504:Generated_Source\PSoC4/CyFlash.c ****                          CY_FLASH_KEY_ONE;
 505:Generated_Source\PSoC4/CyFlash.c ****         parameters[1u] = CY_FLASH_SIZEOF_ROW - 1u;
 506:Generated_Source\PSoC4/CyFlash.c **** 
 507:Generated_Source\PSoC4/CyFlash.c ****         (void)memcpy((void *)&parameters[2u], rowData, CY_FLASH_SIZEOF_ROW);
 508:Generated_Source\PSoC4/CyFlash.c ****         CY_FLASH_CPUSS_SYSARG_REG = (uint32) &parameters[0u];
 509:Generated_Source\PSoC4/CyFlash.c ****         CY_FLASH_CPUSS_SYSREQ_REG = CY_FLASH_CPUSS_REQ_START | CY_FLASH_API_OPCODE_LOAD;
 510:Generated_Source\PSoC4/CyFlash.c ****         CY_NOP;
 511:Generated_Source\PSoC4/CyFlash.c ****         retValue = CY_FLASH_API_RETURN;
 512:Generated_Source\PSoC4/CyFlash.c **** 
 513:Generated_Source\PSoC4/CyFlash.c ****         if(retValue == CY_SYS_FLASH_SUCCESS)
 514:Generated_Source\PSoC4/CyFlash.c ****         {
 515:Generated_Source\PSoC4/CyFlash.c ****             /***************************************************************
 516:Generated_Source\PSoC4/CyFlash.c ****             * Mask all the exceptions to guarantee that Flash write will
 517:Generated_Source\PSoC4/CyFlash.c ****             * occur in the atomic way. It will not affect system call
 518:Generated_Source\PSoC4/CyFlash.c ****             * execution (flash row write) since it is executed in the NMI
 519:Generated_Source\PSoC4/CyFlash.c ****             * context.
 520:Generated_Source\PSoC4/CyFlash.c ****             ***************************************************************/
 521:Generated_Source\PSoC4/CyFlash.c ****             interruptState = CyEnterCriticalSection();
 522:Generated_Source\PSoC4/CyFlash.c **** 
 523:Generated_Source\PSoC4/CyFlash.c ****             clkCnfRetValue = CySysFlashClockBackup();
 524:Generated_Source\PSoC4/CyFlash.c **** 
 525:Generated_Source\PSoC4/CyFlash.c ****         #if(CY_IP_SPCIF_SYNCHRONOUS)
 526:Generated_Source\PSoC4/CyFlash.c ****             if(clkCnfRetValue == CY_SYS_FLASH_SUCCESS)
 527:Generated_Source\PSoC4/CyFlash.c ****             {
 528:Generated_Source\PSoC4/CyFlash.c ****                 retValue = CySysFlashClockConfig();
 529:Generated_Source\PSoC4/CyFlash.c ****             }
 530:Generated_Source\PSoC4/CyFlash.c ****         #endif  /* (CY_IP_SPCIF_SYNCHRONOUS) */
 531:Generated_Source\PSoC4/CyFlash.c **** 
 532:Generated_Source\PSoC4/CyFlash.c ****             if(retValue == CY_SYS_FLASH_SUCCESS)
 533:Generated_Source\PSoC4/CyFlash.c ****             {
 534:Generated_Source\PSoC4/CyFlash.c ****                 /* Write User Sflash Row */
 535:Generated_Source\PSoC4/CyFlash.c ****                 parameters[0u]  = (uint32) (((uint32) CY_FLASH_KEY_TWO(CY_FLASH_API_OPCODE_WRITE_SF
 536:Generated_Source\PSoC4/CyFlash.c ****                 parameters[1u] = (uint32) rowNum;
 537:Generated_Source\PSoC4/CyFlash.c **** 
 538:Generated_Source\PSoC4/CyFlash.c ****                 CY_FLASH_CPUSS_SYSARG_REG = (uint32) &parameters[0u];
 539:Generated_Source\PSoC4/CyFlash.c ****                 CY_FLASH_CPUSS_SYSREQ_REG = CY_FLASH_CPUSS_REQ_START | CY_FLASH_API_OPCODE_WRITE_SF
 540:Generated_Source\PSoC4/CyFlash.c ****                 CY_NOP;
 541:Generated_Source\PSoC4/CyFlash.c ****                 retValue = CY_FLASH_API_RETURN;
 542:Generated_Source\PSoC4/CyFlash.c ****             }
 543:Generated_Source\PSoC4/CyFlash.c **** 
 544:Generated_Source\PSoC4/CyFlash.c ****             if(clkCnfRetValue == CY_SYS_FLASH_SUCCESS)
ARM GAS  C:\Users\Petro\AppData\Local\Temp\ccdNVsFI.s 			page 11


 545:Generated_Source\PSoC4/CyFlash.c ****             {
 546:Generated_Source\PSoC4/CyFlash.c ****                 clkCnfRetValue = CySysFlashClockRestore();
 547:Generated_Source\PSoC4/CyFlash.c ****             }
 548:Generated_Source\PSoC4/CyFlash.c ****             CyExitCriticalSection(interruptState);
 549:Generated_Source\PSoC4/CyFlash.c ****         }
 550:Generated_Source\PSoC4/CyFlash.c ****     }
 551:Generated_Source\PSoC4/CyFlash.c ****     else
 552:Generated_Source\PSoC4/CyFlash.c ****     {
 553:Generated_Source\PSoC4/CyFlash.c ****         retValue = CY_SYS_FLASH_INVALID_ADDR;
 554:Generated_Source\PSoC4/CyFlash.c ****     }
 555:Generated_Source\PSoC4/CyFlash.c **** 
 556:Generated_Source\PSoC4/CyFlash.c ****     return (retValue);
 557:Generated_Source\PSoC4/CyFlash.c **** }
 558:Generated_Source\PSoC4/CyFlash.c **** #endif /* (CY_SFLASH_XTRA_ROWS) */
 559:Generated_Source\PSoC4/CyFlash.c **** 
 560:Generated_Source\PSoC4/CyFlash.c **** 
 561:Generated_Source\PSoC4/CyFlash.c **** /*******************************************************************************
 562:Generated_Source\PSoC4/CyFlash.c **** * Function Name: CySysFlashClockBackup
 563:Generated_Source\PSoC4/CyFlash.c **** ****************************************************************************//**
 564:Generated_Source\PSoC4/CyFlash.c **** *
 565:Generated_Source\PSoC4/CyFlash.c **** * Backups the device clock configuration.
 566:Generated_Source\PSoC4/CyFlash.c **** *
 567:Generated_Source\PSoC4/CyFlash.c **** * \return The same as \ref CySysFlashWriteRow().
 568:Generated_Source\PSoC4/CyFlash.c **** *
 569:Generated_Source\PSoC4/CyFlash.c **** *******************************************************************************/
 570:Generated_Source\PSoC4/CyFlash.c **** static cystatus CySysFlashClockBackup(void)
 571:Generated_Source\PSoC4/CyFlash.c **** {
  27              		.loc 1 571 0
  28              		.cfi_startproc
  29              		@ args = 0, pretend = 0, frame = 8
  30              		@ frame_needed = 0, uses_anonymous_args = 0
  31              		@ link register save eliminated.
  32              	.LVL0:
  33 0000 82B0     		sub	sp, sp, #8
  34              		.cfi_def_cfa_offset 8
 572:Generated_Source\PSoC4/CyFlash.c ****     cystatus retValue = CY_SYS_FLASH_SUCCESS;
 573:Generated_Source\PSoC4/CyFlash.c **** #if(!CY_IP_FM)
 574:Generated_Source\PSoC4/CyFlash.c ****     #if !(CY_PSOC4_4000)
 575:Generated_Source\PSoC4/CyFlash.c ****         #if (CY_IP_SPCIF_SYNCHRONOUS)
 576:Generated_Source\PSoC4/CyFlash.c ****             volatile uint32   parameters[2u];
 577:Generated_Source\PSoC4/CyFlash.c ****         #endif /* (CY_IP_SPCIF_SYNCHRONOUS) */
 578:Generated_Source\PSoC4/CyFlash.c ****     #endif  /* !(CY_PSOC4_4000) */
 579:Generated_Source\PSoC4/CyFlash.c **** #endif  /* (!CY_IP_FM) */
 580:Generated_Source\PSoC4/CyFlash.c **** 
 581:Generated_Source\PSoC4/CyFlash.c **** #if(CY_IP_FM)
 582:Generated_Source\PSoC4/CyFlash.c **** 
 583:Generated_Source\PSoC4/CyFlash.c ****     /***************************************************************
 584:Generated_Source\PSoC4/CyFlash.c ****     * Preserve IMO configuration that could be changed during
 585:Generated_Source\PSoC4/CyFlash.c ****     * system call execution (Cypress ID #150448).
 586:Generated_Source\PSoC4/CyFlash.c ****     ***************************************************************/
 587:Generated_Source\PSoC4/CyFlash.c ****     cySysFlashBackup.imoConfigReg = CY_SYS_CLK_IMO_CONFIG_REG;
 588:Generated_Source\PSoC4/CyFlash.c **** 
 589:Generated_Source\PSoC4/CyFlash.c **** #else   /* (CY_IP_FMLT) */
 590:Generated_Source\PSoC4/CyFlash.c **** 
 591:Generated_Source\PSoC4/CyFlash.c ****     #if (CY_PSOC4_4000)
 592:Generated_Source\PSoC4/CyFlash.c **** 
 593:Generated_Source\PSoC4/CyFlash.c ****         /***************************************************************************
ARM GAS  C:\Users\Petro\AppData\Local\Temp\ccdNVsFI.s 			page 12


 594:Generated_Source\PSoC4/CyFlash.c ****         * Perform firmware clock settings backup for the PSOC4 4000 devices (the
 595:Generated_Source\PSoC4/CyFlash.c ****         * corresponding system call is not available).
 596:Generated_Source\PSoC4/CyFlash.c ****         ***************************************************************************/
 597:Generated_Source\PSoC4/CyFlash.c **** 
 598:Generated_Source\PSoC4/CyFlash.c ****         /***************************************************************************
 599:Generated_Source\PSoC4/CyFlash.c ****         * The registers listed below are modified by CySysFlashClockConfig().
 600:Generated_Source\PSoC4/CyFlash.c ****         *
 601:Generated_Source\PSoC4/CyFlash.c ****         * The registers to be saved:
 602:Generated_Source\PSoC4/CyFlash.c ****         * - CY_SYS_CLK_IMO_CONFIG_REG - IMO enable state.
 603:Generated_Source\PSoC4/CyFlash.c ****         * - CY_SYS_CLK_SELECT_REG     - HFCLK source, divider, pump source. Save
 604:Generated_Source\PSoC4/CyFlash.c ****         *                               entire register as it can be directly
 605:Generated_Source\PSoC4/CyFlash.c ****         *                               written on restore (no special
 606:Generated_Source\PSoC4/CyFlash.c ****         *                               requirements).
 607:Generated_Source\PSoC4/CyFlash.c ****         * - CY_SYS_CLK_IMO_SELECT_REG - Save IMO frequency.
 608:Generated_Source\PSoC4/CyFlash.c ****         *
 609:Generated_Source\PSoC4/CyFlash.c ****         * The registers not to be saved:
 610:Generated_Source\PSoC4/CyFlash.c ****         * - CY_SYS_CLK_IMO_TRIM1_REG  - No need to save. Function of frequency.
 611:Generated_Source\PSoC4/CyFlash.c ****         *                               Restored by CySysClkWriteImoFreq().
 612:Generated_Source\PSoC4/CyFlash.c ****         * - CY_SYS_CLK_IMO_TRIM3_REG  - No need to save. Function of frequency.
 613:Generated_Source\PSoC4/CyFlash.c ****         *                               Restored by CySysClkWriteImoFreq().
 614:Generated_Source\PSoC4/CyFlash.c ****         * - REG_CPUSS_FLASH_CTL       - Flash wait cycles. Unmodified due to system
 615:Generated_Source\PSoC4/CyFlash.c ****         *                               clock 16 MHz limit.
 616:Generated_Source\PSoC4/CyFlash.c ****         ***************************************************************************/
 617:Generated_Source\PSoC4/CyFlash.c **** 
 618:Generated_Source\PSoC4/CyFlash.c ****         cySysFlashBackup.clkSelectReg = CY_SYS_CLK_SELECT_REG;
 619:Generated_Source\PSoC4/CyFlash.c ****         cySysFlashBackup.clkImoEna    = CY_SYS_CLK_IMO_CONFIG_REG & CY_SYS_CLK_IMO_CONFIG_ENABLE;
 620:Generated_Source\PSoC4/CyFlash.c ****         cySysFlashBackup.clkImoFreq   = CY_SYS_CLK_IMO_MIN_FREQ_MHZ + (CY_SYS_CLK_IMO_SELECT_REG <<
 621:Generated_Source\PSoC4/CyFlash.c **** 
 622:Generated_Source\PSoC4/CyFlash.c ****     #else
 623:Generated_Source\PSoC4/CyFlash.c **** 
 624:Generated_Source\PSoC4/CyFlash.c ****         #if (CY_IP_SPCIF_SYNCHRONOUS)
 625:Generated_Source\PSoC4/CyFlash.c ****             /* FM-Lite Clock Backup System Call */
 626:Generated_Source\PSoC4/CyFlash.c ****             parameters[0u] =
 627:Generated_Source\PSoC4/CyFlash.c ****                 (uint32) ((CY_FLASH_KEY_TWO(CY_FLASH_API_OPCODE_CLK_BACKUP) <<  CY_FLASH_PARAM_KEY_
 628:Generated_Source\PSoC4/CyFlash.c ****                             CY_FLASH_KEY_ONE);
 629:Generated_Source\PSoC4/CyFlash.c ****             parameters[1u] = (uint32) &cySysFlashBackup.clockSettings[0u];
 630:Generated_Source\PSoC4/CyFlash.c ****             CY_FLASH_CPUSS_SYSARG_REG = (uint32) &parameters[0u];
  35              		.loc 1 630 0
  36 0002 6A46     		mov	r2, sp
 626:Generated_Source\PSoC4/CyFlash.c ****                 (uint32) ((CY_FLASH_KEY_TWO(CY_FLASH_API_OPCODE_CLK_BACKUP) <<  CY_FLASH_PARAM_KEY_
  37              		.loc 1 626 0
  38 0004 0B4B     		ldr	r3, .L7
 631:Generated_Source\PSoC4/CyFlash.c ****             CY_FLASH_CPUSS_SYSREQ_REG = CY_FLASH_CPUSS_REQ_START | CY_FLASH_API_OPCODE_CLK_BACKUP;
  39              		.loc 1 631 0
  40 0006 0C49     		ldr	r1, .L7+4
 626:Generated_Source\PSoC4/CyFlash.c ****                 (uint32) ((CY_FLASH_KEY_TWO(CY_FLASH_API_OPCODE_CLK_BACKUP) <<  CY_FLASH_PARAM_KEY_
  41              		.loc 1 626 0
  42 0008 0093     		str	r3, [sp]
 629:Generated_Source\PSoC4/CyFlash.c ****             CY_FLASH_CPUSS_SYSARG_REG = (uint32) &parameters[0u];
  43              		.loc 1 629 0
  44 000a 0C4B     		ldr	r3, .L7+8
  45 000c 0433     		adds	r3, r3, #4
  46 000e 0193     		str	r3, [sp, #4]
 630:Generated_Source\PSoC4/CyFlash.c ****             CY_FLASH_CPUSS_SYSREQ_REG = CY_FLASH_CPUSS_REQ_START | CY_FLASH_API_OPCODE_CLK_BACKUP;
  47              		.loc 1 630 0
  48 0010 0B4B     		ldr	r3, .L7+12
  49 0012 1A60     		str	r2, [r3]
ARM GAS  C:\Users\Petro\AppData\Local\Temp\ccdNVsFI.s 			page 13


  50              		.loc 1 631 0
  51 0014 0B4A     		ldr	r2, .L7+16
  52 0016 1160     		str	r1, [r2]
 632:Generated_Source\PSoC4/CyFlash.c ****             CY_NOP;
  53              		.loc 1 632 0
  54              		.syntax divided
  55              	@ 632 "Generated_Source\PSoC4\CyFlash.c" 1
  56 0018 C046     		NOP
  57              	
  58              	@ 0 "" 2
 633:Generated_Source\PSoC4/CyFlash.c ****             retValue = CY_FLASH_API_RETURN;
  59              		.loc 1 633 0
  60              		.thumb
  61              		.syntax unified
  62 001a 1A68     		ldr	r2, [r3]
  63 001c 120F     		lsrs	r2, r2, #28
  64 001e 0F2A     		cmp	r2, #15
  65 0020 04D0     		beq	.L5
  66              		.loc 1 633 0 is_stmt 0 discriminator 2
  67 0022 1A68     		ldr	r2, [r3]
  68 0024 0020     		movs	r0, #0
  69 0026 120F     		lsrs	r2, r2, #28
  70 0028 0A2A     		cmp	r2, #10
  71 002a 01D0     		beq	.L3
  72              	.L5:
  73              		.loc 1 633 0 discriminator 4
  74 002c 1868     		ldr	r0, [r3]
  75 002e C0B2     		uxtb	r0, r0
  76              	.L3:
  77              	.LVL1:
 634:Generated_Source\PSoC4/CyFlash.c ****         #endif /* (CY_IP_SPCIF_SYNCHRONOUS) */
 635:Generated_Source\PSoC4/CyFlash.c **** 
 636:Generated_Source\PSoC4/CyFlash.c ****     #endif  /* (CY_PSOC4_4000) */
 637:Generated_Source\PSoC4/CyFlash.c **** 
 638:Generated_Source\PSoC4/CyFlash.c **** #endif  /* (CY_IP_FM) */
 639:Generated_Source\PSoC4/CyFlash.c **** 
 640:Generated_Source\PSoC4/CyFlash.c ****     return (retValue);
 641:Generated_Source\PSoC4/CyFlash.c **** }
  78              		.loc 1 641 0 is_stmt 1 discriminator 8
  79 0030 02B0     		add	sp, sp, #8
  80              		@ sp needed
  81 0032 7047     		bx	lr
  82              	.L8:
  83              		.align	2
  84              	.L7:
  85 0034 B6E90000 		.word	59830
  86 0038 16000080 		.word	-2147483626
  87 003c 00000000 		.word	.LANCHOR0
  88 0040 08001040 		.word	1074790408
  89 0044 04001040 		.word	1074790404
  90              		.cfi_endproc
  91              	.LFE5:
  92              		.size	CySysFlashClockBackup, .-CySysFlashClockBackup
  93              		.section	.text.CySysFlashClockConfig,"ax",%progbits
  94              		.align	1
  95              		.code	16
  96              		.thumb_func
ARM GAS  C:\Users\Petro\AppData\Local\Temp\ccdNVsFI.s 			page 14


  97              		.type	CySysFlashClockConfig, %function
  98              	CySysFlashClockConfig:
  99              	.LFB6:
 642:Generated_Source\PSoC4/CyFlash.c **** 
 643:Generated_Source\PSoC4/CyFlash.c **** 
 644:Generated_Source\PSoC4/CyFlash.c **** #if(CY_IP_SPCIF_SYNCHRONOUS)
 645:Generated_Source\PSoC4/CyFlash.c **** /*******************************************************************************
 646:Generated_Source\PSoC4/CyFlash.c **** * Function Name: CySysFlashClockConfig
 647:Generated_Source\PSoC4/CyFlash.c **** ****************************************************************************//**
 648:Generated_Source\PSoC4/CyFlash.c **** *
 649:Generated_Source\PSoC4/CyFlash.c **** * Configures the device clocks for the flash writing.
 650:Generated_Source\PSoC4/CyFlash.c **** *
 651:Generated_Source\PSoC4/CyFlash.c **** * \return The same as \ref CySysFlashWriteRow().
 652:Generated_Source\PSoC4/CyFlash.c **** *
 653:Generated_Source\PSoC4/CyFlash.c **** *******************************************************************************/
 654:Generated_Source\PSoC4/CyFlash.c **** static cystatus CySysFlashClockConfig(void)
 655:Generated_Source\PSoC4/CyFlash.c **** {
 100              		.loc 1 655 0
 101              		.cfi_startproc
 102              		@ args = 0, pretend = 0, frame = 0
 103              		@ frame_needed = 0, uses_anonymous_args = 0
 104              		@ link register save eliminated.
 105              	.LVL2:
 656:Generated_Source\PSoC4/CyFlash.c ****     cystatus retValue = CY_SYS_FLASH_SUCCESS;
 657:Generated_Source\PSoC4/CyFlash.c **** 
 658:Generated_Source\PSoC4/CyFlash.c ****     /***************************************************************************
 659:Generated_Source\PSoC4/CyFlash.c ****     * The FM-Lite IP uses the IMO at 48MHz for the pump clock and SPC timer
 660:Generated_Source\PSoC4/CyFlash.c ****     * clock. The PUMP_SEL and HF clock must be set to IMO before calling Flash
 661:Generated_Source\PSoC4/CyFlash.c ****     * write or erase operation.
 662:Generated_Source\PSoC4/CyFlash.c ****     ***************************************************************************/
 663:Generated_Source\PSoC4/CyFlash.c **** #if (CY_PSOC4_4000)
 664:Generated_Source\PSoC4/CyFlash.c **** 
 665:Generated_Source\PSoC4/CyFlash.c ****     /***************************************************************************
 666:Generated_Source\PSoC4/CyFlash.c ****     * Perform firmware clock settings setup for the PSOC4 4000 devices (the
 667:Generated_Source\PSoC4/CyFlash.c ****     * corresponding system call is not reliable):
 668:Generated_Source\PSoC4/CyFlash.c ****     * - The IMO frequency should be 48 MHz
 669:Generated_Source\PSoC4/CyFlash.c ****     * - The IMO should be source for the HFCLK
 670:Generated_Source\PSoC4/CyFlash.c ****     * - The IMO should be the source for the charge pump clock
 671:Generated_Source\PSoC4/CyFlash.c ****     *
 672:Generated_Source\PSoC4/CyFlash.c ****     * Note The structure members used below are initialized by
 673:Generated_Source\PSoC4/CyFlash.c ****     * the CySysFlashClockBackup() function.
 674:Generated_Source\PSoC4/CyFlash.c ****     ***************************************************************************/
 675:Generated_Source\PSoC4/CyFlash.c ****     if ((cySysFlashBackup.clkImoFreq != 48u) ||
 676:Generated_Source\PSoC4/CyFlash.c ****         ((cySysFlashBackup.clkSelectReg & CY_SYS_CLK_SELECT_DIRECT_SEL_MASK) != CY_SYS_CLK_HFCLK_IM
 677:Generated_Source\PSoC4/CyFlash.c ****         (((cySysFlashBackup.clkSelectReg >> CY_SYS_CLK_SELECT_PUMP_SEL_SHIFT) & CY_SYS_CLK_SELECT_P
 678:Generated_Source\PSoC4/CyFlash.c ****             CY_SYS_CLK_SELECT_PUMP_SEL_IMO))
 679:Generated_Source\PSoC4/CyFlash.c ****     {
 680:Generated_Source\PSoC4/CyFlash.c ****         /***********************************************************************
 681:Generated_Source\PSoC4/CyFlash.c ****          Set HFCLK divider to divide-by-4 to ensure that System clock frequency
 682:Generated_Source\PSoC4/CyFlash.c ****         * is within the valid limit (16 MHz for the PSoC4 4000).
 683:Generated_Source\PSoC4/CyFlash.c ****         ***********************************************************************/
 684:Generated_Source\PSoC4/CyFlash.c ****         CySysClkWriteHfclkDiv(CY_SYS_CLK_HFCLK_DIV_4);
 685:Generated_Source\PSoC4/CyFlash.c **** 
 686:Generated_Source\PSoC4/CyFlash.c ****         /* The IMO frequency should be 48 MHz */
 687:Generated_Source\PSoC4/CyFlash.c ****         if (cySysFlashBackup.clkImoFreq != 48u)
 688:Generated_Source\PSoC4/CyFlash.c ****         {
 689:Generated_Source\PSoC4/CyFlash.c ****             CySysClkWriteImoFreq(48u);
ARM GAS  C:\Users\Petro\AppData\Local\Temp\ccdNVsFI.s 			page 15


 690:Generated_Source\PSoC4/CyFlash.c ****         }
 691:Generated_Source\PSoC4/CyFlash.c ****         CySysClkImoStart();
 692:Generated_Source\PSoC4/CyFlash.c **** 
 693:Generated_Source\PSoC4/CyFlash.c ****         /* The IMO should be source for the HFCLK */
 694:Generated_Source\PSoC4/CyFlash.c ****         CySysClkWriteHfclkDirect(CY_SYS_CLK_HFCLK_IMO);
 695:Generated_Source\PSoC4/CyFlash.c **** 
 696:Generated_Source\PSoC4/CyFlash.c ****         /* The IMO should be the source for the charge pump clock */
 697:Generated_Source\PSoC4/CyFlash.c ****         CY_SYS_CLK_SELECT_REG =  (CY_SYS_CLK_SELECT_REG &
 698:Generated_Source\PSoC4/CyFlash.c ****             ((uint32)~(uint32)(CY_SYS_CLK_SELECT_PUMP_SEL_MASK << CY_SYS_CLK_SELECT_PUMP_SEL_SHIFT)
 699:Generated_Source\PSoC4/CyFlash.c ****             ((uint32)((uint32)1u << CY_SYS_CLK_SELECT_PUMP_SEL_SHIFT));
 700:Generated_Source\PSoC4/CyFlash.c ****     }
 701:Generated_Source\PSoC4/CyFlash.c **** 
 702:Generated_Source\PSoC4/CyFlash.c **** #else
 703:Generated_Source\PSoC4/CyFlash.c **** 
 704:Generated_Source\PSoC4/CyFlash.c ****     /* FM-Lite Clock Configuration */
 705:Generated_Source\PSoC4/CyFlash.c ****     CY_FLASH_CPUSS_SYSARG_REG =
 106              		.loc 1 705 0
 107 0000 094B     		ldr	r3, .L14
 108 0002 0A4A     		ldr	r2, .L14+4
 706:Generated_Source\PSoC4/CyFlash.c ****         (uint32) ((CY_FLASH_KEY_TWO(CY_FLASH_API_OPCODE_CLK_CONFIG) <<  CY_FLASH_PARAM_KEY_TWO_OFFS
 707:Generated_Source\PSoC4/CyFlash.c ****                     CY_FLASH_KEY_ONE);
 708:Generated_Source\PSoC4/CyFlash.c ****     CY_FLASH_CPUSS_SYSREQ_REG = CY_FLASH_CPUSS_REQ_START | CY_FLASH_API_OPCODE_CLK_CONFIG;
 109              		.loc 1 708 0
 110 0004 0A49     		ldr	r1, .L14+8
 705:Generated_Source\PSoC4/CyFlash.c ****         (uint32) ((CY_FLASH_KEY_TWO(CY_FLASH_API_OPCODE_CLK_CONFIG) <<  CY_FLASH_PARAM_KEY_TWO_OFFS
 111              		.loc 1 705 0
 112 0006 1A60     		str	r2, [r3]
 113              		.loc 1 708 0
 114 0008 0A4A     		ldr	r2, .L14+12
 115 000a 1160     		str	r1, [r2]
 709:Generated_Source\PSoC4/CyFlash.c ****     CY_NOP;
 116              		.loc 1 709 0
 117              		.syntax divided
 118              	@ 709 "Generated_Source\PSoC4\CyFlash.c" 1
 119 000c C046     		NOP
 120              	
 121              	@ 0 "" 2
 710:Generated_Source\PSoC4/CyFlash.c ****     retValue = CY_FLASH_API_RETURN;
 122              		.loc 1 710 0
 123              		.thumb
 124              		.syntax unified
 125 000e 1A68     		ldr	r2, [r3]
 126 0010 120F     		lsrs	r2, r2, #28
 127 0012 0F2A     		cmp	r2, #15
 128 0014 04D0     		beq	.L13
 129              		.loc 1 710 0 is_stmt 0 discriminator 2
 130 0016 1A68     		ldr	r2, [r3]
 131 0018 0020     		movs	r0, #0
 132 001a 120F     		lsrs	r2, r2, #28
 133 001c 0A2A     		cmp	r2, #10
 134 001e 01D0     		beq	.L11
 135              	.L13:
 136              		.loc 1 710 0 discriminator 4
 137 0020 1868     		ldr	r0, [r3]
 138 0022 C0B2     		uxtb	r0, r0
 139              	.L11:
 140              	.LVL3:
ARM GAS  C:\Users\Petro\AppData\Local\Temp\ccdNVsFI.s 			page 16


 711:Generated_Source\PSoC4/CyFlash.c **** 
 712:Generated_Source\PSoC4/CyFlash.c **** #endif  /* (CY_PSOC4_4000) */
 713:Generated_Source\PSoC4/CyFlash.c **** 
 714:Generated_Source\PSoC4/CyFlash.c ****     return (retValue);
 715:Generated_Source\PSoC4/CyFlash.c **** }
 141              		.loc 1 715 0 is_stmt 1 discriminator 8
 142              		@ sp needed
 143 0024 7047     		bx	lr
 144              	.L15:
 145 0026 C046     		.align	2
 146              	.L14:
 147 0028 08001040 		.word	1074790408
 148 002c B6E80000 		.word	59574
 149 0030 15000080 		.word	-2147483627
 150 0034 04001040 		.word	1074790404
 151              		.cfi_endproc
 152              	.LFE6:
 153              		.size	CySysFlashClockConfig, .-CySysFlashClockConfig
 154              		.section	.text.CySysFlashClockRestore,"ax",%progbits
 155              		.align	1
 156              		.code	16
 157              		.thumb_func
 158              		.type	CySysFlashClockRestore, %function
 159              	CySysFlashClockRestore:
 160              	.LFB7:
 716:Generated_Source\PSoC4/CyFlash.c **** #endif  /* (CY_IP_SPCIF_SYNCHRONOUS) */
 717:Generated_Source\PSoC4/CyFlash.c **** 
 718:Generated_Source\PSoC4/CyFlash.c **** 
 719:Generated_Source\PSoC4/CyFlash.c **** /*******************************************************************************
 720:Generated_Source\PSoC4/CyFlash.c **** * Function Name: CySysFlashClockRestore
 721:Generated_Source\PSoC4/CyFlash.c **** ****************************************************************************//**
 722:Generated_Source\PSoC4/CyFlash.c **** *
 723:Generated_Source\PSoC4/CyFlash.c **** * Restores the device clock configuration.
 724:Generated_Source\PSoC4/CyFlash.c **** *
 725:Generated_Source\PSoC4/CyFlash.c **** * \return The same as \ref CySysFlashWriteRow().
 726:Generated_Source\PSoC4/CyFlash.c **** *
 727:Generated_Source\PSoC4/CyFlash.c **** *******************************************************************************/
 728:Generated_Source\PSoC4/CyFlash.c **** static cystatus CySysFlashClockRestore(void)
 729:Generated_Source\PSoC4/CyFlash.c **** {
 161              		.loc 1 729 0
 162              		.cfi_startproc
 163              		@ args = 0, pretend = 0, frame = 8
 164              		@ frame_needed = 0, uses_anonymous_args = 0
 165              		@ link register save eliminated.
 166              	.LVL4:
 167 0000 82B0     		sub	sp, sp, #8
 168              		.cfi_def_cfa_offset 8
 730:Generated_Source\PSoC4/CyFlash.c ****     cystatus retValue = CY_SYS_FLASH_SUCCESS;
 731:Generated_Source\PSoC4/CyFlash.c **** #if(!CY_IP_FM)
 732:Generated_Source\PSoC4/CyFlash.c ****     #if !(CY_PSOC4_4000)
 733:Generated_Source\PSoC4/CyFlash.c ****         #if (CY_IP_SPCIF_SYNCHRONOUS)
 734:Generated_Source\PSoC4/CyFlash.c ****             volatile uint32   parameters[2u];
 735:Generated_Source\PSoC4/CyFlash.c ****         #endif /* (CY_IP_SPCIF_SYNCHRONOUS) */
 736:Generated_Source\PSoC4/CyFlash.c ****     #endif  /* !(CY_PSOC4_4000) */
 737:Generated_Source\PSoC4/CyFlash.c **** #endif  /* (!CY_IP_FM) */
 738:Generated_Source\PSoC4/CyFlash.c **** 
 739:Generated_Source\PSoC4/CyFlash.c **** #if(CY_IP_FM)
ARM GAS  C:\Users\Petro\AppData\Local\Temp\ccdNVsFI.s 			page 17


 740:Generated_Source\PSoC4/CyFlash.c **** 
 741:Generated_Source\PSoC4/CyFlash.c ****     /***************************************************************
 742:Generated_Source\PSoC4/CyFlash.c ****     * Restore IMO configuration that could be changed during
 743:Generated_Source\PSoC4/CyFlash.c ****     * system call execution (Cypress ID #150448).
 744:Generated_Source\PSoC4/CyFlash.c ****     ***************************************************************/
 745:Generated_Source\PSoC4/CyFlash.c ****     CY_SYS_CLK_IMO_CONFIG_REG = cySysFlashBackup.imoConfigReg;
 746:Generated_Source\PSoC4/CyFlash.c **** 
 747:Generated_Source\PSoC4/CyFlash.c **** #else
 748:Generated_Source\PSoC4/CyFlash.c **** 
 749:Generated_Source\PSoC4/CyFlash.c ****     #if (CY_PSOC4_4000)
 750:Generated_Source\PSoC4/CyFlash.c **** 
 751:Generated_Source\PSoC4/CyFlash.c ****         /***************************************************************************
 752:Generated_Source\PSoC4/CyFlash.c ****         * Perform firmware clock settings restore for the PSOC4 4000 devices (the
 753:Generated_Source\PSoC4/CyFlash.c ****         * corresponding system call is not available).
 754:Generated_Source\PSoC4/CyFlash.c ****         ***************************************************************************/
 755:Generated_Source\PSoC4/CyFlash.c **** 
 756:Generated_Source\PSoC4/CyFlash.c ****         /* Restore clock settings */
 757:Generated_Source\PSoC4/CyFlash.c ****         if ((cySysFlashBackup.clkImoFreq != 48u) ||
 758:Generated_Source\PSoC4/CyFlash.c ****             ((cySysFlashBackup.clkSelectReg & CY_SYS_CLK_SELECT_DIRECT_SEL_MASK) != CY_SYS_CLK_HFCL
 759:Generated_Source\PSoC4/CyFlash.c ****             (((cySysFlashBackup.clkSelectReg >> CY_SYS_CLK_SELECT_PUMP_SEL_SHIFT) & CY_SYS_CLK_SELE
 760:Generated_Source\PSoC4/CyFlash.c ****                 CY_SYS_CLK_SELECT_PUMP_SEL_IMO))
 761:Generated_Source\PSoC4/CyFlash.c ****         {
 762:Generated_Source\PSoC4/CyFlash.c ****             /* Restore IMO frequency if needed */
 763:Generated_Source\PSoC4/CyFlash.c ****             if (cySysFlashBackup.clkImoFreq != 48u)
 764:Generated_Source\PSoC4/CyFlash.c ****             {
 765:Generated_Source\PSoC4/CyFlash.c ****                 CySysClkWriteImoFreq(cySysFlashBackup.clkImoFreq);
 766:Generated_Source\PSoC4/CyFlash.c ****             }
 767:Generated_Source\PSoC4/CyFlash.c **** 
 768:Generated_Source\PSoC4/CyFlash.c ****             /* Restore HFCLK clock source */
 769:Generated_Source\PSoC4/CyFlash.c ****             CySysClkWriteHfclkDirect(cySysFlashBackup.clkSelectReg & CY_SYS_CLK_SELECT_DIRECT_SEL_M
 770:Generated_Source\PSoC4/CyFlash.c **** 
 771:Generated_Source\PSoC4/CyFlash.c ****             /* Restore HFCLK divider and source for pump  */
 772:Generated_Source\PSoC4/CyFlash.c ****             CY_SYS_CLK_SELECT_REG = cySysFlashBackup.clkSelectReg;
 773:Generated_Source\PSoC4/CyFlash.c **** 
 774:Generated_Source\PSoC4/CyFlash.c ****             /* Stop IMO if needed */
 775:Generated_Source\PSoC4/CyFlash.c ****             if (0u == cySysFlashBackup.clkImoEna)
 776:Generated_Source\PSoC4/CyFlash.c ****             {
 777:Generated_Source\PSoC4/CyFlash.c ****                 CySysClkImoStop();
 778:Generated_Source\PSoC4/CyFlash.c ****             }
 779:Generated_Source\PSoC4/CyFlash.c ****         }
 780:Generated_Source\PSoC4/CyFlash.c **** 
 781:Generated_Source\PSoC4/CyFlash.c ****     #else
 782:Generated_Source\PSoC4/CyFlash.c **** 
 783:Generated_Source\PSoC4/CyFlash.c ****         #if (CY_IP_SPCIF_SYNCHRONOUS)
 784:Generated_Source\PSoC4/CyFlash.c ****             /* FM-Lite Clock Restore */
 785:Generated_Source\PSoC4/CyFlash.c ****             parameters[0u] =
 786:Generated_Source\PSoC4/CyFlash.c ****                 (uint32) ((CY_FLASH_KEY_TWO(CY_FLASH_API_OPCODE_CLK_RESTORE) <<  CY_FLASH_PARAM_KEY
 787:Generated_Source\PSoC4/CyFlash.c ****                             CY_FLASH_KEY_ONE);
 788:Generated_Source\PSoC4/CyFlash.c ****             parameters[1u] = (uint32) &cySysFlashBackup.clockSettings[0u];
 789:Generated_Source\PSoC4/CyFlash.c ****             CY_FLASH_CPUSS_SYSARG_REG = (uint32) &parameters[0u];
 169              		.loc 1 789 0
 170 0002 6A46     		mov	r2, sp
 785:Generated_Source\PSoC4/CyFlash.c ****                 (uint32) ((CY_FLASH_KEY_TWO(CY_FLASH_API_OPCODE_CLK_RESTORE) <<  CY_FLASH_PARAM_KEY
 171              		.loc 1 785 0
 172 0004 0B4B     		ldr	r3, .L21
 790:Generated_Source\PSoC4/CyFlash.c ****             CY_FLASH_CPUSS_SYSREQ_REG = CY_FLASH_CPUSS_REQ_START | CY_FLASH_API_OPCODE_CLK_RESTORE;
 173              		.loc 1 790 0
ARM GAS  C:\Users\Petro\AppData\Local\Temp\ccdNVsFI.s 			page 18


 174 0006 0C49     		ldr	r1, .L21+4
 785:Generated_Source\PSoC4/CyFlash.c ****                 (uint32) ((CY_FLASH_KEY_TWO(CY_FLASH_API_OPCODE_CLK_RESTORE) <<  CY_FLASH_PARAM_KEY
 175              		.loc 1 785 0
 176 0008 0093     		str	r3, [sp]
 788:Generated_Source\PSoC4/CyFlash.c ****             CY_FLASH_CPUSS_SYSARG_REG = (uint32) &parameters[0u];
 177              		.loc 1 788 0
 178 000a 0C4B     		ldr	r3, .L21+8
 179 000c 0433     		adds	r3, r3, #4
 180 000e 0193     		str	r3, [sp, #4]
 789:Generated_Source\PSoC4/CyFlash.c ****             CY_FLASH_CPUSS_SYSREQ_REG = CY_FLASH_CPUSS_REQ_START | CY_FLASH_API_OPCODE_CLK_RESTORE;
 181              		.loc 1 789 0
 182 0010 0B4B     		ldr	r3, .L21+12
 183 0012 1A60     		str	r2, [r3]
 184              		.loc 1 790 0
 185 0014 0B4A     		ldr	r2, .L21+16
 186 0016 1160     		str	r1, [r2]
 791:Generated_Source\PSoC4/CyFlash.c ****             CY_NOP;
 187              		.loc 1 791 0
 188              		.syntax divided
 189              	@ 791 "Generated_Source\PSoC4\CyFlash.c" 1
 190 0018 C046     		NOP
 191              	
 192              	@ 0 "" 2
 792:Generated_Source\PSoC4/CyFlash.c ****             retValue = CY_FLASH_API_RETURN;
 193              		.loc 1 792 0
 194              		.thumb
 195              		.syntax unified
 196 001a 1A68     		ldr	r2, [r3]
 197 001c 120F     		lsrs	r2, r2, #28
 198 001e 0F2A     		cmp	r2, #15
 199 0020 04D0     		beq	.L20
 200              		.loc 1 792 0 is_stmt 0 discriminator 2
 201 0022 1A68     		ldr	r2, [r3]
 202 0024 0020     		movs	r0, #0
 203 0026 120F     		lsrs	r2, r2, #28
 204 0028 0A2A     		cmp	r2, #10
 205 002a 01D0     		beq	.L18
 206              	.L20:
 207              		.loc 1 792 0 discriminator 4
 208 002c 1868     		ldr	r0, [r3]
 209 002e C0B2     		uxtb	r0, r0
 210              	.L18:
 211              	.LVL5:
 793:Generated_Source\PSoC4/CyFlash.c ****         #endif /* (CY_IP_SPCIF_SYNCHRONOUS) */
 794:Generated_Source\PSoC4/CyFlash.c **** 
 795:Generated_Source\PSoC4/CyFlash.c ****     #endif  /* (CY_PSOC4_4000) */
 796:Generated_Source\PSoC4/CyFlash.c **** 
 797:Generated_Source\PSoC4/CyFlash.c **** #endif  /* (CY_IP_FM) */
 798:Generated_Source\PSoC4/CyFlash.c **** 
 799:Generated_Source\PSoC4/CyFlash.c ****     return (retValue);
 800:Generated_Source\PSoC4/CyFlash.c **** }
 212              		.loc 1 800 0 is_stmt 1 discriminator 8
 213 0030 02B0     		add	sp, sp, #8
 214              		@ sp needed
 215 0032 7047     		bx	lr
 216              	.L22:
 217              		.align	2
ARM GAS  C:\Users\Petro\AppData\Local\Temp\ccdNVsFI.s 			page 19


 218              	.L21:
 219 0034 B6EA0000 		.word	60086
 220 0038 17000080 		.word	-2147483625
 221 003c 00000000 		.word	.LANCHOR0
 222 0040 08001040 		.word	1074790408
 223 0044 04001040 		.word	1074790404
 224              		.cfi_endproc
 225              	.LFE7:
 226              		.size	CySysFlashClockRestore, .-CySysFlashClockRestore
 227              		.section	.text.CySysFlashWriteRow,"ax",%progbits
 228              		.align	1
 229              		.global	CySysFlashWriteRow
 230              		.code	16
 231              		.thumb_func
 232              		.type	CySysFlashWriteRow, %function
 233              	CySysFlashWriteRow:
 234              	.LFB2:
  82:Generated_Source\PSoC4/CyFlash.c ****     volatile uint32 retValue = CY_SYS_FLASH_SUCCESS;
 235              		.loc 1 82 0
 236              		.cfi_startproc
 237              		@ args = 0, pretend = 0, frame = 152
 238              		@ frame_needed = 0, uses_anonymous_args = 0
 239              	.LVL6:
  83:Generated_Source\PSoC4/CyFlash.c ****     volatile uint32 clkCnfRetValue = CY_SYS_FLASH_SUCCESS;
 240              		.loc 1 83 0
 241 0000 0023     		movs	r3, #0
  82:Generated_Source\PSoC4/CyFlash.c ****     volatile uint32 retValue = CY_SYS_FLASH_SUCCESS;
 242              		.loc 1 82 0
 243 0002 F0B5     		push	{r4, r5, r6, r7, lr}
 244              		.cfi_def_cfa_offset 20
 245              		.cfi_offset 4, -20
 246              		.cfi_offset 5, -16
 247              		.cfi_offset 6, -12
 248              		.cfi_offset 7, -8
 249              		.cfi_offset 14, -4
 250 0004 A7B0     		sub	sp, sp, #156
 251              		.cfi_def_cfa_offset 176
  83:Generated_Source\PSoC4/CyFlash.c ****     volatile uint32 clkCnfRetValue = CY_SYS_FLASH_SUCCESS;
 252              		.loc 1 83 0
 253 0006 0293     		str	r3, [sp, #8]
  84:Generated_Source\PSoC4/CyFlash.c ****     volatile uint32 parameters[(CY_FLASH_SIZEOF_ROW + CY_FLASH_SRAM_ROM_DATA) / sizeof(uint32)];
 254              		.loc 1 84 0
 255 0008 0393     		str	r3, [sp, #12]
  97:Generated_Source\PSoC4/CyFlash.c ****     {
 256              		.loc 1 97 0
 257 000a 314B     		ldr	r3, .L46
  82:Generated_Source\PSoC4/CyFlash.c ****     volatile uint32 retValue = CY_SYS_FLASH_SUCCESS;
 258              		.loc 1 82 0
 259 000c 0500     		movs	r5, r0
  97:Generated_Source\PSoC4/CyFlash.c ****     {
 260              		.loc 1 97 0
 261 000e 9842     		cmp	r0, r3
 262 0010 59D8     		bhi	.L24
  97:Generated_Source\PSoC4/CyFlash.c ****     {
 263              		.loc 1 97 0 is_stmt 0 discriminator 1
 264 0012 0029     		cmp	r1, #0
 265 0014 57D0     		beq	.L24
ARM GAS  C:\Users\Petro\AppData\Local\Temp\ccdNVsFI.s 			page 20


 100:Generated_Source\PSoC4/CyFlash.c **** 
 266              		.loc 1 100 0 is_stmt 1
 267 0016 8022     		movs	r2, #128
 268 0018 06A8     		add	r0, sp, #24
 269              	.LVL7:
 270 001a FFF7FEFF 		bl	memcpy
 271              	.LVL8:
 126:Generated_Source\PSoC4/CyFlash.c ****                          CY_FLASH_KEY_ONE;
 272              		.loc 1 126 0
 273 001e 2D4B     		ldr	r3, .L46+4
 274 0020 9D42     		cmp	r5, r3
 275 0022 01D8     		bhi	.L36
 276 0024 2C4B     		ldr	r3, .L46+8
 277 0026 00E0     		b	.L25
 278              	.L36:
 279 0028 2C4B     		ldr	r3, .L46+12
 280              	.L25:
 124:Generated_Source\PSoC4/CyFlash.c ****                          (uint32) (CY_FLASH_PAGE_LATCH_START_ADDR             << CY_FLASH_PARAM_ADD
 281              		.loc 1 124 0
 282 002a 0493     		str	r3, [sp, #16]
 128:Generated_Source\PSoC4/CyFlash.c **** 
 283              		.loc 1 128 0
 284 002c 7F23     		movs	r3, #127
 124:Generated_Source\PSoC4/CyFlash.c ****                          (uint32) (CY_FLASH_PAGE_LATCH_START_ADDR             << CY_FLASH_PARAM_ADD
 285              		.loc 1 124 0
 286 002e 04AE     		add	r6, sp, #16
 128:Generated_Source\PSoC4/CyFlash.c **** 
 287              		.loc 1 128 0
 288 0030 7360     		str	r3, [r6, #4]
 130:Generated_Source\PSoC4/CyFlash.c ****         CY_FLASH_CPUSS_SYSREQ_REG = CY_FLASH_CPUSS_REQ_START | CY_FLASH_API_OPCODE_LOAD;
 289              		.loc 1 130 0
 290 0032 2B4C     		ldr	r4, .L46+16
 131:Generated_Source\PSoC4/CyFlash.c ****         CY_NOP;
 291              		.loc 1 131 0
 292 0034 2B4A     		ldr	r2, .L46+20
 293 0036 2C4B     		ldr	r3, .L46+24
 130:Generated_Source\PSoC4/CyFlash.c ****         CY_FLASH_CPUSS_SYSREQ_REG = CY_FLASH_CPUSS_REQ_START | CY_FLASH_API_OPCODE_LOAD;
 294              		.loc 1 130 0
 295 0038 2660     		str	r6, [r4]
 131:Generated_Source\PSoC4/CyFlash.c ****         CY_NOP;
 296              		.loc 1 131 0
 297 003a 1360     		str	r3, [r2]
 132:Generated_Source\PSoC4/CyFlash.c ****         retValue = CY_FLASH_API_RETURN;
 298              		.loc 1 132 0
 299              		.syntax divided
 300              	@ 132 "Generated_Source\PSoC4\CyFlash.c" 1
 301 003c C046     		NOP
 302              	
 303              	@ 0 "" 2
 133:Generated_Source\PSoC4/CyFlash.c **** 
 304              		.loc 1 133 0
 305              		.thumb
 306              		.syntax unified
 307 003e 2368     		ldr	r3, [r4]
 308 0040 1700     		movs	r7, r2
 309 0042 1B0F     		lsrs	r3, r3, #28
 310 0044 0F2B     		cmp	r3, #15
ARM GAS  C:\Users\Petro\AppData\Local\Temp\ccdNVsFI.s 			page 21


 311 0046 04D0     		beq	.L44
 133:Generated_Source\PSoC4/CyFlash.c **** 
 312              		.loc 1 133 0 is_stmt 0 discriminator 2
 313 0048 2268     		ldr	r2, [r4]
 314 004a 0023     		movs	r3, #0
 315 004c 120F     		lsrs	r2, r2, #28
 316 004e 0A2A     		cmp	r2, #10
 317 0050 01D0     		beq	.L27
 318              	.L44:
 133:Generated_Source\PSoC4/CyFlash.c **** 
 319              		.loc 1 133 0 discriminator 4
 320 0052 2368     		ldr	r3, [r4]
 321 0054 DBB2     		uxtb	r3, r3
 322              	.L27:
 133:Generated_Source\PSoC4/CyFlash.c **** 
 323              		.loc 1 133 0 discriminator 8
 324 0056 0293     		str	r3, [sp, #8]
 135:Generated_Source\PSoC4/CyFlash.c ****         {
 325              		.loc 1 135 0 is_stmt 1 discriminator 8
 326 0058 029B     		ldr	r3, [sp, #8]
 327 005a 002B     		cmp	r3, #0
 328 005c 35D1     		bne	.L28
 143:Generated_Source\PSoC4/CyFlash.c **** 
 329              		.loc 1 143 0
 330 005e FFF7FEFF 		bl	CyEnterCriticalSection
 331              	.LVL9:
 332 0062 0190     		str	r0, [sp, #4]
 333              	.LVL10:
 145:Generated_Source\PSoC4/CyFlash.c **** 
 334              		.loc 1 145 0
 335 0064 FFF7FEFF 		bl	CySysFlashClockBackup
 336              	.LVL11:
 337 0068 0390     		str	r0, [sp, #12]
 148:Generated_Source\PSoC4/CyFlash.c ****             {
 338              		.loc 1 148 0
 339 006a 039B     		ldr	r3, [sp, #12]
 340 006c 002B     		cmp	r3, #0
 341 006e 02D1     		bne	.L29
 150:Generated_Source\PSoC4/CyFlash.c ****             }
 342              		.loc 1 150 0
 343 0070 FFF7FEFF 		bl	CySysFlashClockConfig
 344              	.LVL12:
 345 0074 0290     		str	r0, [sp, #8]
 346              	.L29:
 154:Generated_Source\PSoC4/CyFlash.c ****             {
 347              		.loc 1 154 0
 348 0076 029B     		ldr	r3, [sp, #8]
 349 0078 002B     		cmp	r3, #0
 350 007a 15D1     		bne	.L30
 157:Generated_Source\PSoC4/CyFlash.c ****                 parameters[0u] |= (uint32)(rowNum << 16u);
 351              		.loc 1 157 0
 352 007c 1B4A     		ldr	r2, .L46+28
 161:Generated_Source\PSoC4/CyFlash.c ****                 CY_NOP;
 353              		.loc 1 161 0
 354 007e 1C49     		ldr	r1, .L46+32
 157:Generated_Source\PSoC4/CyFlash.c ****                 parameters[0u] |= (uint32)(rowNum << 16u);
 355              		.loc 1 157 0
ARM GAS  C:\Users\Petro\AppData\Local\Temp\ccdNVsFI.s 			page 22


 356 0080 0492     		str	r2, [sp, #16]
 158:Generated_Source\PSoC4/CyFlash.c **** 
 357              		.loc 1 158 0
 358 0082 049A     		ldr	r2, [sp, #16]
 359 0084 2D04     		lsls	r5, r5, #16
 360              	.LVL13:
 361 0086 1543     		orrs	r5, r2
 362 0088 0495     		str	r5, [sp, #16]
 160:Generated_Source\PSoC4/CyFlash.c ****                 CY_FLASH_CPUSS_SYSREQ_REG = CY_FLASH_CPUSS_REQ_START | CY_FLASH_API_OPCODE_WRITE_RO
 363              		.loc 1 160 0
 364 008a 154A     		ldr	r2, .L46+16
 365 008c 2660     		str	r6, [r4]
 161:Generated_Source\PSoC4/CyFlash.c ****                 CY_NOP;
 366              		.loc 1 161 0
 367 008e 3960     		str	r1, [r7]
 162:Generated_Source\PSoC4/CyFlash.c ****                 retValue = CY_FLASH_API_RETURN;
 368              		.loc 1 162 0
 369              		.syntax divided
 370              	@ 162 "Generated_Source\PSoC4\CyFlash.c" 1
 371 0090 C046     		NOP
 372              	
 373              	@ 0 "" 2
 163:Generated_Source\PSoC4/CyFlash.c ****             }
 374              		.loc 1 163 0
 375              		.thumb
 376              		.syntax unified
 377 0092 2168     		ldr	r1, [r4]
 378 0094 090F     		lsrs	r1, r1, #28
 379 0096 0F29     		cmp	r1, #15
 380 0098 03D0     		beq	.L45
 163:Generated_Source\PSoC4/CyFlash.c ****             }
 381              		.loc 1 163 0 is_stmt 0 discriminator 2
 382 009a 1168     		ldr	r1, [r2]
 383 009c 090F     		lsrs	r1, r1, #28
 384 009e 0A29     		cmp	r1, #10
 385 00a0 01D0     		beq	.L32
 386              	.L45:
 163:Generated_Source\PSoC4/CyFlash.c ****             }
 387              		.loc 1 163 0 discriminator 4
 388 00a2 1368     		ldr	r3, [r2]
 389 00a4 DBB2     		uxtb	r3, r3
 390              	.L32:
 163:Generated_Source\PSoC4/CyFlash.c ****             }
 391              		.loc 1 163 0 discriminator 8
 392 00a6 0293     		str	r3, [sp, #8]
 393              	.L30:
 202:Generated_Source\PSoC4/CyFlash.c ****             {
 394              		.loc 1 202 0 is_stmt 1
 395 00a8 039B     		ldr	r3, [sp, #12]
 396 00aa 002B     		cmp	r3, #0
 397 00ac 07D1     		bne	.L34
 204:Generated_Source\PSoC4/CyFlash.c **** 
 398              		.loc 1 204 0
 399 00ae FFF7FEFF 		bl	CySysFlashClockRestore
 400              	.LVL14:
 401 00b2 0390     		str	r0, [sp, #12]
 206:Generated_Source\PSoC4/CyFlash.c ****                 {
ARM GAS  C:\Users\Petro\AppData\Local\Temp\ccdNVsFI.s 			page 23


 402              		.loc 1 206 0
 403 00b4 039B     		ldr	r3, [sp, #12]
 404 00b6 002B     		cmp	r3, #0
 405 00b8 01D0     		beq	.L34
 208:Generated_Source\PSoC4/CyFlash.c ****                 }
 406              		.loc 1 208 0
 407 00ba 039B     		ldr	r3, [sp, #12]
 408 00bc 0293     		str	r3, [sp, #8]
 409              	.L34:
 212:Generated_Source\PSoC4/CyFlash.c ****         }
 410              		.loc 1 212 0
 411 00be 0198     		ldr	r0, [sp, #4]
 412 00c0 FFF7FEFF 		bl	CyExitCriticalSection
 413              	.LVL15:
 414 00c4 01E0     		b	.L28
 415              	.LVL16:
 416              	.L24:
 217:Generated_Source\PSoC4/CyFlash.c ****     }
 417              		.loc 1 217 0
 418 00c6 0423     		movs	r3, #4
 419 00c8 0293     		str	r3, [sp, #8]
 420              	.LVL17:
 421              	.L28:
 220:Generated_Source\PSoC4/CyFlash.c **** }
 422              		.loc 1 220 0
 423 00ca 0298     		ldr	r0, [sp, #8]
 221:Generated_Source\PSoC4/CyFlash.c **** 
 424              		.loc 1 221 0
 425 00cc 27B0     		add	sp, sp, #156
 426              		@ sp needed
 427 00ce F0BD     		pop	{r4, r5, r6, r7, pc}
 428              	.L47:
 429              		.align	2
 430              	.L46:
 431 00d0 FF030000 		.word	1023
 432 00d4 FF010000 		.word	511
 433 00d8 B6D70000 		.word	55222
 434 00dc B6D70001 		.word	16832438
 435 00e0 08001040 		.word	1074790408
 436 00e4 04001040 		.word	1074790404
 437 00e8 04000080 		.word	-2147483644
 438 00ec B6D80000 		.word	55478
 439 00f0 05000080 		.word	-2147483643
 440              		.cfi_endproc
 441              	.LFE2:
 442              		.size	CySysFlashWriteRow, .-CySysFlashWriteRow
 443              		.section	.text.CySysFlashSetWaitCycles,"ax",%progbits
 444              		.align	1
 445              		.global	CySysFlashSetWaitCycles
 446              		.code	16
 447              		.thumb_func
 448              		.type	CySysFlashSetWaitCycles, %function
 449              	CySysFlashSetWaitCycles:
 450              	.LFB3:
 423:Generated_Source\PSoC4/CyFlash.c ****     uint8  interruptState;
 451              		.loc 1 423 0
 452              		.cfi_startproc
ARM GAS  C:\Users\Petro\AppData\Local\Temp\ccdNVsFI.s 			page 24


 453              		@ args = 0, pretend = 0, frame = 0
 454              		@ frame_needed = 0, uses_anonymous_args = 0
 455              	.LVL18:
 456 0000 70B5     		push	{r4, r5, r6, lr}
 457              		.cfi_def_cfa_offset 16
 458              		.cfi_offset 4, -16
 459              		.cfi_offset 5, -12
 460              		.cfi_offset 6, -8
 461              		.cfi_offset 14, -4
 423:Generated_Source\PSoC4/CyFlash.c ****     uint8  interruptState;
 462              		.loc 1 423 0
 463 0002 0500     		movs	r5, r0
 426:Generated_Source\PSoC4/CyFlash.c **** 
 464              		.loc 1 426 0
 465 0004 FFF7FEFF 		bl	CyEnterCriticalSection
 466              	.LVL19:
 467 0008 0400     		movs	r4, r0
 468              	.LVL20:
 441:Generated_Source\PSoC4/CyFlash.c ****             {
 469              		.loc 1 441 0
 470 000a 102D     		cmp	r5, #16
 471 000c 04D8     		bhi	.L49
 443:Generated_Source\PSoC4/CyFlash.c ****             } else
 472              		.loc 1 443 0
 473 000e 0321     		movs	r1, #3
 474 0010 0E4A     		ldr	r2, .L55
 475 0012 1368     		ldr	r3, [r2]
 476 0014 8B43     		bics	r3, r1
 477 0016 07E0     		b	.L53
 478              	.L49:
 445:Generated_Source\PSoC4/CyFlash.c ****             {
 479              		.loc 1 445 0
 480 0018 202D     		cmp	r5, #32
 481 001a 07D8     		bhi	.L51
 447:Generated_Source\PSoC4/CyFlash.c ****             } else
 482              		.loc 1 447 0
 483 001c 0321     		movs	r1, #3
 484 001e 0B4A     		ldr	r2, .L55
 485 0020 1368     		ldr	r3, [r2]
 486 0022 8B43     		bics	r3, r1
 487 0024 0239     		subs	r1, r1, #2
 488              	.L54:
 489 0026 0B43     		orrs	r3, r1
 490              	.L53:
 491 0028 1360     		str	r3, [r2]
 492 002a 0AE0     		b	.L50
 493              	.L51:
 450:Generated_Source\PSoC4/CyFlash.c ****                 {
 494              		.loc 1 450 0
 495 002c 302D     		cmp	r5, #48
 496 002e 05D8     		bhi	.L52
 452:Generated_Source\PSoC4/CyFlash.c ****                 }
 497              		.loc 1 452 0
 498 0030 0321     		movs	r1, #3
 499 0032 064A     		ldr	r2, .L55
 500 0034 1368     		ldr	r3, [r2]
 501 0036 8B43     		bics	r3, r1
ARM GAS  C:\Users\Petro\AppData\Local\Temp\ccdNVsFI.s 			page 25


 502 0038 0139     		subs	r1, r1, #1
 503 003a F4E7     		b	.L54
 504              	.L52:
 459:Generated_Source\PSoC4/CyFlash.c ****         }
 505              		.loc 1 459 0 discriminator 1
 506 003c 0020     		movs	r0, #0
 507 003e FFF7FEFF 		bl	CyHalt
 508              	.LVL21:
 509              	.L50:
 464:Generated_Source\PSoC4/CyFlash.c **** }
 510              		.loc 1 464 0
 511 0042 2000     		movs	r0, r4
 512 0044 FFF7FEFF 		bl	CyExitCriticalSection
 513              	.LVL22:
 465:Generated_Source\PSoC4/CyFlash.c **** 
 514              		.loc 1 465 0
 515              		@ sp needed
 516              	.LVL23:
 517              	.LVL24:
 518 0048 70BD     		pop	{r4, r5, r6, pc}
 519              	.L56:
 520 004a C046     		.align	2
 521              	.L55:
 522 004c 30001040 		.word	1074790448
 523              		.cfi_endproc
 524              	.LFE3:
 525              		.size	CySysFlashSetWaitCycles, .-CySysFlashSetWaitCycles
 526              		.section	.text.CySysSFlashWriteUserRow,"ax",%progbits
 527              		.align	1
 528              		.global	CySysSFlashWriteUserRow
 529              		.code	16
 530              		.thumb_func
 531              		.type	CySysSFlashWriteUserRow, %function
 532              	CySysSFlashWriteUserRow:
 533              	.LFB4:
 491:Generated_Source\PSoC4/CyFlash.c ****     volatile uint32 retValue = CY_SYS_FLASH_SUCCESS;
 534              		.loc 1 491 0
 535              		.cfi_startproc
 536              		@ args = 0, pretend = 0, frame = 152
 537              		@ frame_needed = 0, uses_anonymous_args = 0
 538              	.LVL25:
 539 0000 F0B5     		push	{r4, r5, r6, r7, lr}
 540              		.cfi_def_cfa_offset 20
 541              		.cfi_offset 4, -20
 542              		.cfi_offset 5, -16
 543              		.cfi_offset 6, -12
 544              		.cfi_offset 7, -8
 545              		.cfi_offset 14, -4
 492:Generated_Source\PSoC4/CyFlash.c ****     volatile uint32 clkCnfRetValue = CY_SYS_FLASH_SUCCESS;
 546              		.loc 1 492 0
 547 0002 0024     		movs	r4, #0
 491:Generated_Source\PSoC4/CyFlash.c ****     volatile uint32 retValue = CY_SYS_FLASH_SUCCESS;
 548              		.loc 1 491 0
 549 0004 A7B0     		sub	sp, sp, #156
 550              		.cfi_def_cfa_offset 176
 492:Generated_Source\PSoC4/CyFlash.c ****     volatile uint32 clkCnfRetValue = CY_SYS_FLASH_SUCCESS;
 551              		.loc 1 492 0
ARM GAS  C:\Users\Petro\AppData\Local\Temp\ccdNVsFI.s 			page 26


 552 0006 0294     		str	r4, [sp, #8]
 491:Generated_Source\PSoC4/CyFlash.c ****     volatile uint32 retValue = CY_SYS_FLASH_SUCCESS;
 553              		.loc 1 491 0
 554 0008 0700     		movs	r7, r0
 493:Generated_Source\PSoC4/CyFlash.c ****     volatile uint32 parameters[(CY_FLASH_SIZEOF_ROW + CY_FLASH_SRAM_ROM_DATA)/4u];
 555              		.loc 1 493 0
 556 000a 0394     		str	r4, [sp, #12]
 498:Generated_Source\PSoC4/CyFlash.c ****     {
 557              		.loc 1 498 0
 558 000c 0328     		cmp	r0, #3
 559 000e 4CD8     		bhi	.L58
 498:Generated_Source\PSoC4/CyFlash.c ****     {
 560              		.loc 1 498 0 is_stmt 0 discriminator 1
 561 0010 A142     		cmp	r1, r4
 562 0012 4AD0     		beq	.L58
 501:Generated_Source\PSoC4/CyFlash.c ****                          (uint32) (CY_FLASH_PAGE_LATCH_START_ADDR             << CY_FLASH_PARAM_ADD
 563              		.loc 1 501 0 is_stmt 1
 564 0014 274B     		ldr	r3, .L73
 565 0016 04AE     		add	r6, sp, #16
 566 0018 0493     		str	r3, [sp, #16]
 505:Generated_Source\PSoC4/CyFlash.c **** 
 567              		.loc 1 505 0
 568 001a 7F23     		movs	r3, #127
 507:Generated_Source\PSoC4/CyFlash.c ****         CY_FLASH_CPUSS_SYSARG_REG = (uint32) &parameters[0u];
 569              		.loc 1 507 0
 570 001c 8022     		movs	r2, #128
 571 001e 06A8     		add	r0, sp, #24
 572              	.LVL26:
 505:Generated_Source\PSoC4/CyFlash.c **** 
 573              		.loc 1 505 0
 574 0020 7360     		str	r3, [r6, #4]
 508:Generated_Source\PSoC4/CyFlash.c ****         CY_FLASH_CPUSS_SYSREQ_REG = CY_FLASH_CPUSS_REQ_START | CY_FLASH_API_OPCODE_LOAD;
 575              		.loc 1 508 0
 576 0022 254D     		ldr	r5, .L73+4
 507:Generated_Source\PSoC4/CyFlash.c ****         CY_FLASH_CPUSS_SYSARG_REG = (uint32) &parameters[0u];
 577              		.loc 1 507 0
 578 0024 FFF7FEFF 		bl	memcpy
 579              	.LVL27:
 509:Generated_Source\PSoC4/CyFlash.c ****         CY_NOP;
 580              		.loc 1 509 0
 581 0028 244A     		ldr	r2, .L73+8
 582 002a 254B     		ldr	r3, .L73+12
 508:Generated_Source\PSoC4/CyFlash.c ****         CY_FLASH_CPUSS_SYSREQ_REG = CY_FLASH_CPUSS_REQ_START | CY_FLASH_API_OPCODE_LOAD;
 583              		.loc 1 508 0
 584 002c 2E60     		str	r6, [r5]
 509:Generated_Source\PSoC4/CyFlash.c ****         CY_NOP;
 585              		.loc 1 509 0
 586 002e 1360     		str	r3, [r2]
 510:Generated_Source\PSoC4/CyFlash.c ****         retValue = CY_FLASH_API_RETURN;
 587              		.loc 1 510 0
 588              		.syntax divided
 589              	@ 510 "Generated_Source\PSoC4\CyFlash.c" 1
 590 0030 C046     		NOP
 591              	
 592              	@ 0 "" 2
 511:Generated_Source\PSoC4/CyFlash.c **** 
 593              		.loc 1 511 0
ARM GAS  C:\Users\Petro\AppData\Local\Temp\ccdNVsFI.s 			page 27


 594              		.thumb
 595              		.syntax unified
 596 0032 2B68     		ldr	r3, [r5]
 597 0034 0192     		str	r2, [sp, #4]
 598 0036 1B0F     		lsrs	r3, r3, #28
 599 0038 0F2B     		cmp	r3, #15
 600 003a 03D0     		beq	.L71
 511:Generated_Source\PSoC4/CyFlash.c **** 
 601              		.loc 1 511 0 is_stmt 0 discriminator 2
 602 003c 2B68     		ldr	r3, [r5]
 603 003e 1B0F     		lsrs	r3, r3, #28
 604 0040 0A2B     		cmp	r3, #10
 605 0042 01D0     		beq	.L60
 606              	.L71:
 511:Generated_Source\PSoC4/CyFlash.c **** 
 607              		.loc 1 511 0 discriminator 4
 608 0044 2C68     		ldr	r4, [r5]
 609 0046 E4B2     		uxtb	r4, r4
 610              	.L60:
 511:Generated_Source\PSoC4/CyFlash.c **** 
 611              		.loc 1 511 0 discriminator 8
 612 0048 0294     		str	r4, [sp, #8]
 513:Generated_Source\PSoC4/CyFlash.c ****         {
 613              		.loc 1 513 0 is_stmt 1 discriminator 8
 614 004a 029B     		ldr	r3, [sp, #8]
 615 004c 002B     		cmp	r3, #0
 616 004e 2ED1     		bne	.L61
 521:Generated_Source\PSoC4/CyFlash.c **** 
 617              		.loc 1 521 0
 618 0050 FFF7FEFF 		bl	CyEnterCriticalSection
 619              	.LVL28:
 620 0054 0400     		movs	r4, r0
 621              	.LVL29:
 523:Generated_Source\PSoC4/CyFlash.c **** 
 622              		.loc 1 523 0
 623 0056 FFF7FEFF 		bl	CySysFlashClockBackup
 624              	.LVL30:
 625 005a 0390     		str	r0, [sp, #12]
 526:Generated_Source\PSoC4/CyFlash.c ****             {
 626              		.loc 1 526 0
 627 005c 039B     		ldr	r3, [sp, #12]
 628 005e 002B     		cmp	r3, #0
 629 0060 02D1     		bne	.L62
 528:Generated_Source\PSoC4/CyFlash.c ****             }
 630              		.loc 1 528 0
 631 0062 FFF7FEFF 		bl	CySysFlashClockConfig
 632              	.LVL31:
 633 0066 0290     		str	r0, [sp, #8]
 634              	.L62:
 532:Generated_Source\PSoC4/CyFlash.c ****             {
 635              		.loc 1 532 0
 636 0068 029B     		ldr	r3, [sp, #8]
 637 006a 002B     		cmp	r3, #0
 638 006c 13D1     		bne	.L63
 535:Generated_Source\PSoC4/CyFlash.c ****                 parameters[1u] = (uint32) rowNum;
 639              		.loc 1 535 0
 640 006e 154A     		ldr	r2, .L73+16
ARM GAS  C:\Users\Petro\AppData\Local\Temp\ccdNVsFI.s 			page 28


 539:Generated_Source\PSoC4/CyFlash.c ****                 CY_NOP;
 641              		.loc 1 539 0
 642 0070 1549     		ldr	r1, .L73+20
 643 0072 0198     		ldr	r0, [sp, #4]
 535:Generated_Source\PSoC4/CyFlash.c ****                 parameters[1u] = (uint32) rowNum;
 644              		.loc 1 535 0
 645 0074 0492     		str	r2, [sp, #16]
 536:Generated_Source\PSoC4/CyFlash.c **** 
 646              		.loc 1 536 0
 647 0076 7760     		str	r7, [r6, #4]
 538:Generated_Source\PSoC4/CyFlash.c ****                 CY_FLASH_CPUSS_SYSREQ_REG = CY_FLASH_CPUSS_REQ_START | CY_FLASH_API_OPCODE_WRITE_SF
 648              		.loc 1 538 0
 649 0078 0F4A     		ldr	r2, .L73+4
 650 007a 2E60     		str	r6, [r5]
 539:Generated_Source\PSoC4/CyFlash.c ****                 CY_NOP;
 651              		.loc 1 539 0
 652 007c 0160     		str	r1, [r0]
 540:Generated_Source\PSoC4/CyFlash.c ****                 retValue = CY_FLASH_API_RETURN;
 653              		.loc 1 540 0
 654              		.syntax divided
 655              	@ 540 "Generated_Source\PSoC4\CyFlash.c" 1
 656 007e C046     		NOP
 657              	
 658              	@ 0 "" 2
 541:Generated_Source\PSoC4/CyFlash.c ****             }
 659              		.loc 1 541 0
 660              		.thumb
 661              		.syntax unified
 662 0080 2968     		ldr	r1, [r5]
 663 0082 090F     		lsrs	r1, r1, #28
 664 0084 0F29     		cmp	r1, #15
 665 0086 03D0     		beq	.L72
 541:Generated_Source\PSoC4/CyFlash.c ****             }
 666              		.loc 1 541 0 is_stmt 0 discriminator 2
 667 0088 1168     		ldr	r1, [r2]
 668 008a 090F     		lsrs	r1, r1, #28
 669 008c 0A29     		cmp	r1, #10
 670 008e 01D0     		beq	.L65
 671              	.L72:
 541:Generated_Source\PSoC4/CyFlash.c ****             }
 672              		.loc 1 541 0 discriminator 4
 673 0090 1368     		ldr	r3, [r2]
 674 0092 DBB2     		uxtb	r3, r3
 675              	.L65:
 541:Generated_Source\PSoC4/CyFlash.c ****             }
 676              		.loc 1 541 0 discriminator 8
 677 0094 0293     		str	r3, [sp, #8]
 678              	.L63:
 544:Generated_Source\PSoC4/CyFlash.c ****             {
 679              		.loc 1 544 0 is_stmt 1
 680 0096 039B     		ldr	r3, [sp, #12]
 681 0098 002B     		cmp	r3, #0
 682 009a 02D1     		bne	.L66
 546:Generated_Source\PSoC4/CyFlash.c ****             }
 683              		.loc 1 546 0
 684 009c FFF7FEFF 		bl	CySysFlashClockRestore
 685              	.LVL32:
ARM GAS  C:\Users\Petro\AppData\Local\Temp\ccdNVsFI.s 			page 29


 686 00a0 0390     		str	r0, [sp, #12]
 687              	.L66:
 548:Generated_Source\PSoC4/CyFlash.c ****         }
 688              		.loc 1 548 0
 689 00a2 2000     		movs	r0, r4
 690 00a4 FFF7FEFF 		bl	CyExitCriticalSection
 691              	.LVL33:
 692 00a8 01E0     		b	.L61
 693              	.LVL34:
 694              	.L58:
 553:Generated_Source\PSoC4/CyFlash.c ****     }
 695              		.loc 1 553 0
 696 00aa 0423     		movs	r3, #4
 697 00ac 0293     		str	r3, [sp, #8]
 698              	.LVL35:
 699              	.L61:
 556:Generated_Source\PSoC4/CyFlash.c **** }
 700              		.loc 1 556 0
 701 00ae 0298     		ldr	r0, [sp, #8]
 557:Generated_Source\PSoC4/CyFlash.c **** #endif /* (CY_SFLASH_XTRA_ROWS) */
 702              		.loc 1 557 0
 703 00b0 27B0     		add	sp, sp, #156
 704              		@ sp needed
 705              	.LVL36:
 706 00b2 F0BD     		pop	{r4, r5, r6, r7, pc}
 707              	.L74:
 708              		.align	2
 709              	.L73:
 710 00b4 B6D70000 		.word	55222
 711 00b8 08001040 		.word	1074790408
 712 00bc 04001040 		.word	1074790404
 713 00c0 04000080 		.word	-2147483644
 714 00c4 B6EB0000 		.word	60342
 715 00c8 18000080 		.word	-2147483624
 716              		.cfi_endproc
 717              	.LFE4:
 718              		.size	CySysSFlashWriteUserRow, .-CySysSFlashWriteUserRow
 719              		.bss
 720              		.align	2
 721              		.set	.LANCHOR0,. + 0
 722              		.type	cySysFlashBackup, %object
 723              		.size	cySysFlashBackup, 20
 724              	cySysFlashBackup:
 725 0000 00000000 		.space	20
 725      00000000 
 725      00000000 
 725      00000000 
 725      00000000 
 726              		.text
 727              	.Letext0:
 728              		.file 2 "Generated_Source\\PSoC4\\cytypes.h"
 729              		.file 3 "Generated_Source\\PSoC4\\CyFlash.h"
 730              		.file 4 "Generated_Source\\PSoC4\\CyLib.h"