ARM GAS  C:\Users\Petro\AppData\Local\Temp\ccGRDS3q.s 			page 1


   1              		.syntax unified
   2              		.cpu cortex-m0
   3              		.fpu softvfp
   4              		.eabi_attribute 20, 1
   5              		.eabi_attribute 21, 1
   6              		.eabi_attribute 23, 3
   7              		.eabi_attribute 24, 1
   8              		.eabi_attribute 25, 1
   9              		.eabi_attribute 26, 1
  10              		.eabi_attribute 30, 4
  11              		.eabi_attribute 34, 0
  12              		.eabi_attribute 18, 4
  13              		.thumb
  14              		.syntax unified
  15              		.file	"database.c"
  16              		.text
  17              	.Ltext0:
  18              		.cfi_sections	.debug_frame
  19              		.section	.text.DataBaseStart,"ax",%progbits
  20              		.align	1
  21              		.global	DataBaseStart
  22              		.code	16
  23              		.thumb_func
  24              		.type	DataBaseStart, %function
  25              	DataBaseStart:
  26              	.LFB2:
  27              		.file 1 "..\\..\\common\\lib\\lib_DB\\database.c"
   1:..\..\common\lib\lib_DB/database.c **** 
   2:..\..\common\lib\lib_DB/database.c **** #include "..\..\common\lib\lib_DB\database.h"
   3:..\..\common\lib\lib_DB/database.c **** 
   4:..\..\common\lib\lib_DB/database.c **** #define BUFFER_SIZE         MAX_SKIERS_ON_WAY
   5:..\..\common\lib\lib_DB/database.c **** 
   6:..\..\common\lib\lib_DB/database.c **** void putSkiOnWay(uint8_t id, uint64_t unixTime, uint16_t mills);
   7:..\..\common\lib\lib_DB/database.c **** void getSkiFromWay(uint8_t *id, uint64_t *unixTime, uint16_t *mills, uint8_t permiss);
   8:..\..\common\lib\lib_DB/database.c **** 
   9:..\..\common\lib\lib_DB/database.c **** struct elementBuff
  10:..\..\common\lib\lib_DB/database.c **** {
  11:..\..\common\lib\lib_DB/database.c ****     uint8_t idStartSkier;
  12:..\..\common\lib\lib_DB/database.c ****     uint64_t unixStartSkier;
  13:..\..\common\lib\lib_DB/database.c ****     uint16_t millsStartSkier;
  14:..\..\common\lib\lib_DB/database.c ****     struct elementBuff* nextSki;
  15:..\..\common\lib\lib_DB/database.c **** } bufferSkiersOnWay[BUFFER_SIZE];
  16:..\..\common\lib\lib_DB/database.c **** 
  17:..\..\common\lib\lib_DB/database.c **** typedef struct
  18:..\..\common\lib\lib_DB/database.c **** {
  19:..\..\common\lib\lib_DB/database.c ****     uint16_t    size;
  20:..\..\common\lib\lib_DB/database.c ****     uint16_t    firstElement;                                
  21:..\..\common\lib\lib_DB/database.c ****     uint16_t    lastElement; 
  22:..\..\common\lib\lib_DB/database.c ****     
  23:..\..\common\lib\lib_DB/database.c ****     uint16_t totalSize;
  24:..\..\common\lib\lib_DB/database.c ****     /*buffer*/
  25:..\..\common\lib\lib_DB/database.c ****     skierDB_El buffer[MAX_FIFO_SIZE]; 
  26:..\..\common\lib\lib_DB/database.c ****     /*last output element*/
  27:..\..\common\lib\lib_DB/database.c ****     skierDB_El last;
  28:..\..\common\lib\lib_DB/database.c **** }fifoTimeSkier;
  29:..\..\common\lib\lib_DB/database.c **** 
  30:..\..\common\lib\lib_DB/database.c **** skierDB_El skierDB;
ARM GAS  C:\Users\Petro\AppData\Local\Temp\ccGRDS3q.s 			page 2


  31:..\..\common\lib\lib_DB/database.c **** 
  32:..\..\common\lib\lib_DB/database.c **** uint32_t currentSizeBuff;
  33:..\..\common\lib\lib_DB/database.c **** struct elementBuff *currentElementStart;
  34:..\..\common\lib\lib_DB/database.c **** struct elementBuff *currentElementEnd;
  35:..\..\common\lib\lib_DB/database.c **** 
  36:..\..\common\lib\lib_DB/database.c **** fifoTimeSkier fifo;     //if no SD card
  37:..\..\common\lib\lib_DB/database.c **** 
  38:..\..\common\lib\lib_DB/database.c **** /*******************************************************************************
  39:..\..\common\lib\lib_DB/database.c **** * Function Name: DataBaseStart
  40:..\..\common\lib\lib_DB/database.c **** ********************************************************************************
  41:..\..\common\lib\lib_DB/database.c **** *
  42:..\..\common\lib\lib_DB/database.c **** * Summary:
  43:..\..\common\lib\lib_DB/database.c **** *  init log from write to SD card
  44:..\..\common\lib\lib_DB/database.c **** *
  45:..\..\common\lib\lib_DB/database.c **** * Return:
  46:..\..\common\lib\lib_DB/database.c **** *   result - DB_NO_ERROR or DB_ERROR
  47:..\..\common\lib\lib_DB/database.c **** *******************************************************************************/
  48:..\..\common\lib\lib_DB/database.c **** uint32_t DataBaseStart(void)
  49:..\..\common\lib\lib_DB/database.c **** {
  28              		.loc 1 49 0
  29              		.cfi_startproc
  30              		@ args = 0, pretend = 0, frame = 0
  31              		@ frame_needed = 0, uses_anonymous_args = 0
  32 0000 10B5     		push	{r4, lr}
  33              		.cfi_def_cfa_offset 8
  34              		.cfi_offset 4, -8
  35              		.cfi_offset 14, -4
  50:..\..\common\lib\lib_DB/database.c ****     uint8_t result; 
  51:..\..\common\lib\lib_DB/database.c ****     
  52:..\..\common\lib\lib_DB/database.c ****     result = LogStart();
  36              		.loc 1 52 0
  37 0002 FFF7FEFF 		bl	LogStart
  38              	.LVL0:
  53:..\..\common\lib\lib_DB/database.c ****     if(result == FR_OK)
  54:..\..\common\lib\lib_DB/database.c ****     {
  55:..\..\common\lib\lib_DB/database.c ****         result = DB_NO_ERROR;
  56:..\..\common\lib\lib_DB/database.c ****     }else
  57:..\..\common\lib\lib_DB/database.c ****     {
  58:..\..\common\lib\lib_DB/database.c ****         result = DB_ERROR;
  59:..\..\common\lib\lib_DB/database.c ****     }
  60:..\..\common\lib\lib_DB/database.c ****     return result;
  39              		.loc 1 60 0
  40 0006 C0B2     		uxtb	r0, r0
  41 0008 4342     		rsbs	r3, r0, #0
  42 000a 5841     		adcs	r0, r0, r3
  43              	.LVL1:
  61:..\..\common\lib\lib_DB/database.c **** }
  44              		.loc 1 61 0
  45              		@ sp needed
  46 000c 10BD     		pop	{r4, pc}
  47              		.cfi_endproc
  48              	.LFE2:
  49              		.size	DataBaseStart, .-DataBaseStart
  50              		.section	.text.InitBuff,"ax",%progbits
  51              		.align	1
  52              		.global	InitBuff
  53              		.code	16
ARM GAS  C:\Users\Petro\AppData\Local\Temp\ccGRDS3q.s 			page 3


  54              		.thumb_func
  55              		.type	InitBuff, %function
  56              	InitBuff:
  57              	.LFB3:
  62:..\..\common\lib\lib_DB/database.c **** 
  63:..\..\common\lib\lib_DB/database.c **** /*******************************************************************************
  64:..\..\common\lib\lib_DB/database.c **** * Function Name: InitBuff
  65:..\..\common\lib\lib_DB/database.c **** ********************************************************************************
  66:..\..\common\lib\lib_DB/database.c **** *
  67:..\..\common\lib\lib_DB/database.c **** * Summary:
  68:..\..\common\lib\lib_DB/database.c **** *  init ring buffer from write started skier
  69:..\..\common\lib\lib_DB/database.c **** *
  70:..\..\common\lib\lib_DB/database.c **** *******************************************************************************/
  71:..\..\common\lib\lib_DB/database.c **** void InitBuff(void)
  72:..\..\common\lib\lib_DB/database.c **** {
  58              		.loc 1 72 0
  59              		.cfi_startproc
  60              		@ args = 0, pretend = 0, frame = 0
  61              		@ frame_needed = 0, uses_anonymous_args = 0
  62              		@ link register save eliminated.
  73:..\..\common\lib\lib_DB/database.c ****     uint8_t i;
  74:..\..\common\lib\lib_DB/database.c ****     
  75:..\..\common\lib\lib_DB/database.c ****     /*init fifo*/
  76:..\..\common\lib\lib_DB/database.c ****     fifo.totalSize = MAX_FIFO_SIZE;
  63              		.loc 1 76 0
  64 0000 0C22     		movs	r2, #12
  65 0002 074B     		ldr	r3, .L3
  77:..\..\common\lib\lib_DB/database.c ****     
  78:..\..\common\lib\lib_DB/database.c ****     for( i = 0; i< BUFFER_SIZE - 1; i++)
  79:..\..\common\lib\lib_DB/database.c ****     {
  80:..\..\common\lib\lib_DB/database.c ****         bufferSkiersOnWay[i].nextSki = &bufferSkiersOnWay[i+1];
  81:..\..\common\lib\lib_DB/database.c ****     }
  82:..\..\common\lib\lib_DB/database.c ****     bufferSkiersOnWay[BUFFER_SIZE - 1].nextSki = &bufferSkiersOnWay[0];
  83:..\..\common\lib\lib_DB/database.c ****     
  84:..\..\common\lib\lib_DB/database.c ****     currentElementStart = &bufferSkiersOnWay[0];
  85:..\..\common\lib\lib_DB/database.c ****     currentElementEnd = &bufferSkiersOnWay[0];
  86:..\..\common\lib\lib_DB/database.c **** }
  66              		.loc 1 86 0
  67              		@ sp needed
  76:..\..\common\lib\lib_DB/database.c ****     
  68              		.loc 1 76 0
  69 0004 DA80     		strh	r2, [r3, #6]
  70              	.LVL2:
  80:..\..\common\lib\lib_DB/database.c ****     }
  71              		.loc 1 80 0
  72 0006 074B     		ldr	r3, .L3+4
  73 0008 074A     		ldr	r2, .L3+8
  82:..\..\common\lib\lib_DB/database.c ****     
  74              		.loc 1 82 0
  75 000a DB65     		str	r3, [r3, #92]
  80:..\..\common\lib\lib_DB/database.c ****     }
  76              		.loc 1 80 0
  77 000c 5A61     		str	r2, [r3, #20]
  78              	.LVL3:
  79 000e 074A     		ldr	r2, .L3+12
  80 0010 DA62     		str	r2, [r3, #44]
  81              	.LVL4:
ARM GAS  C:\Users\Petro\AppData\Local\Temp\ccGRDS3q.s 			page 4


  82 0012 074A     		ldr	r2, .L3+16
  83 0014 5A64     		str	r2, [r3, #68]
  84              	.LVL5:
  84:..\..\common\lib\lib_DB/database.c ****     currentElementEnd = &bufferSkiersOnWay[0];
  85              		.loc 1 84 0
  86 0016 074A     		ldr	r2, .L3+20
  87 0018 1360     		str	r3, [r2]
  85:..\..\common\lib\lib_DB/database.c **** }
  88              		.loc 1 85 0
  89 001a 074A     		ldr	r2, .L3+24
  90 001c 1360     		str	r3, [r2]
  91              		.loc 1 86 0
  92 001e 7047     		bx	lr
  93              	.L4:
  94              		.align	2
  95              	.L3:
  96 0020 00000000 		.word	fifo
  97 0024 00000000 		.word	bufferSkiersOnWay
  98 0028 18000000 		.word	bufferSkiersOnWay+24
  99 002c 30000000 		.word	bufferSkiersOnWay+48
 100 0030 48000000 		.word	bufferSkiersOnWay+72
 101 0034 00000000 		.word	currentElementStart
 102 0038 00000000 		.word	currentElementEnd
 103              		.cfi_endproc
 104              	.LFE3:
 105              		.size	InitBuff, .-InitBuff
 106              		.section	.text.putSkiOnWay,"ax",%progbits
 107              		.align	1
 108              		.global	putSkiOnWay
 109              		.code	16
 110              		.thumb_func
 111              		.type	putSkiOnWay, %function
 112              	putSkiOnWay:
 113              	.LFB4:
  87:..\..\common\lib\lib_DB/database.c **** 
  88:..\..\common\lib\lib_DB/database.c **** /*******************************************************************************
  89:..\..\common\lib\lib_DB/database.c **** * Function Name: putSkiOnWay
  90:..\..\common\lib\lib_DB/database.c **** ********************************************************************************
  91:..\..\common\lib\lib_DB/database.c **** *
  92:..\..\common\lib\lib_DB/database.c **** * Summary:
  93:..\..\common\lib\lib_DB/database.c **** *  save start time skier
  94:..\..\common\lib\lib_DB/database.c **** *
  95:..\..\common\lib\lib_DB/database.c **** *******************************************************************************/
  96:..\..\common\lib\lib_DB/database.c **** void putSkiOnWay(uint8_t idSkier, uint64_t unixTime, uint16_t mills)
  97:..\..\common\lib\lib_DB/database.c **** {
 114              		.loc 1 97 0
 115              		.cfi_startproc
 116              		@ args = 4, pretend = 0, frame = 0
 117              		@ frame_needed = 0, uses_anonymous_args = 0
 118              	.LVL6:
 119 0000 30B5     		push	{r4, r5, lr}
 120              		.cfi_def_cfa_offset 12
 121              		.cfi_offset 4, -12
 122              		.cfi_offset 5, -8
 123              		.cfi_offset 14, -4
 124              		.loc 1 97 0
 125 0002 1D00     		movs	r5, r3
ARM GAS  C:\Users\Petro\AppData\Local\Temp\ccGRDS3q.s 			page 5


 126 0004 1400     		movs	r4, r2
  98:..\..\common\lib\lib_DB/database.c ****     currentElementStart->idStartSkier = idSkier;
 127              		.loc 1 98 0
 128 0006 0749     		ldr	r1, .L6
  97:..\..\common\lib\lib_DB/database.c ****     currentElementStart->idStartSkier = idSkier;
 129              		.loc 1 97 0
 130 0008 03AB     		add	r3, sp, #12
 131              	.LVL7:
 132 000a 1A88     		ldrh	r2, [r3]
 133              	.LVL8:
 134              		.loc 1 98 0
 135 000c 0B68     		ldr	r3, [r1]
 136              	.LVL9:
  99:..\..\common\lib\lib_DB/database.c ****     currentElementStart->millsStartSkier = mills;
 100:..\..\common\lib\lib_DB/database.c ****     currentElementStart->unixStartSkier = unixTime;
 101:..\..\common\lib\lib_DB/database.c ****     currentElementStart = currentElementStart->nextSki;
 102:..\..\common\lib\lib_DB/database.c ****     currentSizeBuff++;
 103:..\..\common\lib\lib_DB/database.c **** }
 137              		.loc 1 103 0
 138              		@ sp needed
  98:..\..\common\lib\lib_DB/database.c ****     currentElementStart->millsStartSkier = mills;
 139              		.loc 1 98 0
 140 000e 1870     		strb	r0, [r3]
  99:..\..\common\lib\lib_DB/database.c ****     currentElementStart->millsStartSkier = mills;
 141              		.loc 1 99 0
 142 0010 1A82     		strh	r2, [r3, #16]
 100:..\..\common\lib\lib_DB/database.c ****     currentElementStart = currentElementStart->nextSki;
 143              		.loc 1 100 0
 144 0012 9C60     		str	r4, [r3, #8]
 145 0014 DD60     		str	r5, [r3, #12]
 102:..\..\common\lib\lib_DB/database.c **** }
 146              		.loc 1 102 0
 147 0016 044A     		ldr	r2, .L6+4
 101:..\..\common\lib\lib_DB/database.c ****     currentSizeBuff++;
 148              		.loc 1 101 0
 149 0018 5B69     		ldr	r3, [r3, #20]
 150 001a 0B60     		str	r3, [r1]
 102:..\..\common\lib\lib_DB/database.c **** }
 151              		.loc 1 102 0
 152 001c 1368     		ldr	r3, [r2]
 153 001e 0133     		adds	r3, r3, #1
 154 0020 1360     		str	r3, [r2]
 155              		.loc 1 103 0
 156 0022 30BD     		pop	{r4, r5, pc}
 157              	.L7:
 158              		.align	2
 159              	.L6:
 160 0024 00000000 		.word	currentElementStart
 161 0028 00000000 		.word	currentSizeBuff
 162              		.cfi_endproc
 163              	.LFE4:
 164              		.size	putSkiOnWay, .-putSkiOnWay
 165              		.section	.text.getSkiFromWay,"ax",%progbits
 166              		.align	1
 167              		.global	getSkiFromWay
 168              		.code	16
 169              		.thumb_func
ARM GAS  C:\Users\Petro\AppData\Local\Temp\ccGRDS3q.s 			page 6


 170              		.type	getSkiFromWay, %function
 171              	getSkiFromWay:
 172              	.LFB5:
 104:..\..\common\lib\lib_DB/database.c **** 
 105:..\..\common\lib\lib_DB/database.c **** /*******************************************************************************
 106:..\..\common\lib\lib_DB/database.c **** * Function Name: getSkiFromWay
 107:..\..\common\lib\lib_DB/database.c **** ********************************************************************************
 108:..\..\common\lib\lib_DB/database.c **** *
 109:..\..\common\lib\lib_DB/database.c **** * Summary:
 110:..\..\common\lib\lib_DB/database.c **** *  get start time skier
 111:..\..\common\lib\lib_DB/database.c **** *
 112:..\..\common\lib\lib_DB/database.c **** *******************************************************************************/
 113:..\..\common\lib\lib_DB/database.c **** void getSkiFromWay(uint8_t *id,uint64_t *unixTime, uint16_t *mills, uint8_t permiss)
 114:..\..\common\lib\lib_DB/database.c **** {
 173              		.loc 1 114 0
 174              		.cfi_startproc
 175              		@ args = 0, pretend = 0, frame = 0
 176              		@ frame_needed = 0, uses_anonymous_args = 0
 177              	.LVL10:
 178 0000 70B5     		push	{r4, r5, r6, lr}
 179              		.cfi_def_cfa_offset 16
 180              		.cfi_offset 4, -16
 181              		.cfi_offset 5, -12
 182              		.cfi_offset 6, -8
 183              		.cfi_offset 14, -4
 115:..\..\common\lib\lib_DB/database.c ****     *id = currentElementEnd->idStartSkier;
 184              		.loc 1 115 0
 185 0002 0A4C     		ldr	r4, .L14
 186 0004 2568     		ldr	r5, [r4]
 187 0006 2D78     		ldrb	r5, [r5]
 188 0008 0570     		strb	r5, [r0]
 116:..\..\common\lib\lib_DB/database.c ****     *mills = currentElementEnd->millsStartSkier;
 189              		.loc 1 116 0
 190 000a 2068     		ldr	r0, [r4]
 191              	.LVL11:
 192 000c 058A     		ldrh	r5, [r0, #16]
 193 000e 1580     		strh	r5, [r2]
 117:..\..\common\lib\lib_DB/database.c ****     *unixTime = currentElementEnd->unixStartSkier;
 194              		.loc 1 117 0
 195 0010 8568     		ldr	r5, [r0, #8]
 196 0012 C668     		ldr	r6, [r0, #12]
 197 0014 0D60     		str	r5, [r1]
 198 0016 4E60     		str	r6, [r1, #4]
 118:..\..\common\lib\lib_DB/database.c ****     if(permiss)
 199              		.loc 1 118 0
 200 0018 002B     		cmp	r3, #0
 201 001a 05D0     		beq	.L8
 119:..\..\common\lib\lib_DB/database.c ****     {
 120:..\..\common\lib\lib_DB/database.c ****         currentElementEnd = currentElementEnd->nextSki;
 202              		.loc 1 120 0
 203 001c 4369     		ldr	r3, [r0, #20]
 204              	.LVL12:
 121:..\..\common\lib\lib_DB/database.c ****         currentSizeBuff--;
 205              		.loc 1 121 0
 206 001e 044A     		ldr	r2, .L14+4
 207              	.LVL13:
 120:..\..\common\lib\lib_DB/database.c ****         currentSizeBuff--;
ARM GAS  C:\Users\Petro\AppData\Local\Temp\ccGRDS3q.s 			page 7


 208              		.loc 1 120 0
 209 0020 2360     		str	r3, [r4]
 210              		.loc 1 121 0
 211 0022 1368     		ldr	r3, [r2]
 212 0024 013B     		subs	r3, r3, #1
 213 0026 1360     		str	r3, [r2]
 214              	.L8:
 122:..\..\common\lib\lib_DB/database.c ****     }
 123:..\..\common\lib\lib_DB/database.c **** }
 215              		.loc 1 123 0
 216              		@ sp needed
 217 0028 70BD     		pop	{r4, r5, r6, pc}
 218              	.L15:
 219 002a C046     		.align	2
 220              	.L14:
 221 002c 00000000 		.word	currentElementEnd
 222 0030 00000000 		.word	currentSizeBuff
 223              		.cfi_endproc
 224              	.LFE5:
 225              		.size	getSkiFromWay, .-getSkiFromWay
 226              		.section	.text.WriteStartTime,"ax",%progbits
 227              		.align	1
 228              		.global	WriteStartTime
 229              		.code	16
 230              		.thumb_func
 231              		.type	WriteStartTime, %function
 232              	WriteStartTime:
 233              	.LFB6:
 124:..\..\common\lib\lib_DB/database.c **** 
 125:..\..\common\lib\lib_DB/database.c **** /*******************************************************************************
 126:..\..\common\lib\lib_DB/database.c **** * Function Name: WriteStartTime
 127:..\..\common\lib\lib_DB/database.c **** ********************************************************************************
 128:..\..\common\lib\lib_DB/database.c **** *
 129:..\..\common\lib\lib_DB/database.c **** * Summary:
 130:..\..\common\lib\lib_DB/database.c **** *  save start time skier
 131:..\..\common\lib\lib_DB/database.c **** *
 132:..\..\common\lib\lib_DB/database.c **** *******************************************************************************/
 133:..\..\common\lib\lib_DB/database.c **** void WriteStartTime(uint8_t id, uint64_t unixTime, uint16_t mills)
 134:..\..\common\lib\lib_DB/database.c **** {
 234              		.loc 1 134 0
 235              		.cfi_startproc
 236              		@ args = 4, pretend = 0, frame = 0
 237              		@ frame_needed = 0, uses_anonymous_args = 0
 238              	.LVL14:
 239 0000 07B5     		push	{r0, r1, r2, lr}
 240              		.cfi_def_cfa_offset 16
 241              		.cfi_offset 0, -16
 242              		.cfi_offset 1, -12
 243              		.cfi_offset 2, -8
 244              		.cfi_offset 14, -4
 245              		.loc 1 134 0
 246 0002 04A9     		add	r1, sp, #16
 247              	.LVL15:
 248 0004 0988     		ldrh	r1, [r1]
 249              	.LVL16:
 135:..\..\common\lib\lib_DB/database.c ****     putSkiOnWay(id, unixTime, mills);
 136:..\..\common\lib\lib_DB/database.c **** }
ARM GAS  C:\Users\Petro\AppData\Local\Temp\ccGRDS3q.s 			page 8


 250              		.loc 1 136 0
 251              		@ sp needed
 135:..\..\common\lib\lib_DB/database.c ****     putSkiOnWay(id, unixTime, mills);
 252              		.loc 1 135 0
 253 0006 0091     		str	r1, [sp]
 254 0008 FFF7FEFF 		bl	putSkiOnWay
 255              	.LVL17:
 256              		.loc 1 136 0
 257 000c 07BD     		pop	{r0, r1, r2, pc}
 258              		.cfi_endproc
 259              	.LFE6:
 260              		.size	WriteStartTime, .-WriteStartTime
 261              		.section	.text.SkierOnWay,"ax",%progbits
 262              		.align	1
 263              		.global	SkierOnWay
 264              		.code	16
 265              		.thumb_func
 266              		.type	SkierOnWay, %function
 267              	SkierOnWay:
 268              	.LFB8:
 137:..\..\common\lib\lib_DB/database.c **** 
 138:..\..\common\lib\lib_DB/database.c **** /*******************************************************************************
 139:..\..\common\lib\lib_DB/database.c **** * Function Name: WriteFinishTime
 140:..\..\common\lib\lib_DB/database.c **** ********************************************************************************
 141:..\..\common\lib\lib_DB/database.c **** *
 142:..\..\common\lib\lib_DB/database.c **** * Summary:
 143:..\..\common\lib\lib_DB/database.c **** *  write finish time in tmp buffer and put in fifo
 144:..\..\common\lib\lib_DB/database.c **** *
 145:..\..\common\lib\lib_DB/database.c **** * Parametrs:
 146:..\..\common\lib\lib_DB/database.c **** *   unixTime - skier finished time, seconds
 147:..\..\common\lib\lib_DB/database.c **** *   mills - skier finished time, miliseconds
 148:..\..\common\lib\lib_DB/database.c **** *******************************************************************************/
 149:..\..\common\lib\lib_DB/database.c **** void WriteFinishTime(uint64_t unixTime, uint16_t mills, uint8_t permiss)
 150:..\..\common\lib\lib_DB/database.c **** {   
 151:..\..\common\lib\lib_DB/database.c ****     getSkiFromWay(&skierDB.idSkier, &skierDB.unixStartSkier, &skierDB.millsStartSkier, permiss);
 152:..\..\common\lib\lib_DB/database.c ****     skierDB.millsFinishSkier = mills;
 153:..\..\common\lib\lib_DB/database.c ****     skierDB.unixFinishSkier = unixTime;
 154:..\..\common\lib\lib_DB/database.c ****     skierDB.permiss = permiss;
 155:..\..\common\lib\lib_DB/database.c ****     
 156:..\..\common\lib\lib_DB/database.c ****     /*calculate time on way*/
 157:..\..\common\lib\lib_DB/database.c ****     skierDB.secondsWay =  skierDB.unixFinishSkier - skierDB.unixStartSkier;  
 158:..\..\common\lib\lib_DB/database.c ****     skierDB.millsWay =  skierDB.millsFinishSkier - skierDB.millsStartSkier;  
 159:..\..\common\lib\lib_DB/database.c ****     if (skierDB.millsWay > 1000u)
 160:..\..\common\lib\lib_DB/database.c ****     {
 161:..\..\common\lib\lib_DB/database.c ****         skierDB.secondsWay--;
 162:..\..\common\lib\lib_DB/database.c ****         skierDB.millsWay = 0 - skierDB.millsWay;
 163:..\..\common\lib\lib_DB/database.c ****     }
 164:..\..\common\lib\lib_DB/database.c ****     FifoPush(skierDB);
 165:..\..\common\lib\lib_DB/database.c **** }
 166:..\..\common\lib\lib_DB/database.c **** 
 167:..\..\common\lib\lib_DB/database.c **** /*******************************************************************************
 168:..\..\common\lib\lib_DB/database.c **** * Function Name: SkierOnWay
 169:..\..\common\lib\lib_DB/database.c **** ********************************************************************************
 170:..\..\common\lib\lib_DB/database.c **** *
 171:..\..\common\lib\lib_DB/database.c **** * Summary:
 172:..\..\common\lib\lib_DB/database.c **** *  skier on way
 173:..\..\common\lib\lib_DB/database.c **** *
ARM GAS  C:\Users\Petro\AppData\Local\Temp\ccGRDS3q.s 			page 9


 174:..\..\common\lib\lib_DB/database.c **** * Return:
 175:..\..\common\lib\lib_DB/database.c **** *   num skier on way
 176:..\..\common\lib\lib_DB/database.c **** *******************************************************************************/
 177:..\..\common\lib\lib_DB/database.c **** uint32_t SkierOnWay()
 178:..\..\common\lib\lib_DB/database.c **** {
 269              		.loc 1 178 0
 270              		.cfi_startproc
 271              		@ args = 0, pretend = 0, frame = 0
 272              		@ frame_needed = 0, uses_anonymous_args = 0
 273              		@ link register save eliminated.
 179:..\..\common\lib\lib_DB/database.c ****     return currentSizeBuff;
 274              		.loc 1 179 0
 275 0000 014B     		ldr	r3, .L18
 180:..\..\common\lib\lib_DB/database.c **** }
 276              		.loc 1 180 0
 277              		@ sp needed
 179:..\..\common\lib\lib_DB/database.c ****     return currentSizeBuff;
 278              		.loc 1 179 0
 279 0002 1868     		ldr	r0, [r3]
 280              		.loc 1 180 0
 281 0004 7047     		bx	lr
 282              	.L19:
 283 0006 C046     		.align	2
 284              	.L18:
 285 0008 00000000 		.word	currentSizeBuff
 286              		.cfi_endproc
 287              	.LFE8:
 288              		.size	SkierOnWay, .-SkierOnWay
 289              		.section	.text.LastSecTimeOnWay,"ax",%progbits
 290              		.align	1
 291              		.global	LastSecTimeOnWay
 292              		.code	16
 293              		.thumb_func
 294              		.type	LastSecTimeOnWay, %function
 295              	LastSecTimeOnWay:
 296              	.LFB9:
 181:..\..\common\lib\lib_DB/database.c **** 
 182:..\..\common\lib\lib_DB/database.c **** /*******************************************************************************
 183:..\..\common\lib\lib_DB/database.c **** * Function Name: LastSecTimeOnWay
 184:..\..\common\lib\lib_DB/database.c **** ********************************************************************************
 185:..\..\common\lib\lib_DB/database.c **** *
 186:..\..\common\lib\lib_DB/database.c **** * Summary:
 187:..\..\common\lib\lib_DB/database.c **** *  last time skier, sec
 188:..\..\common\lib\lib_DB/database.c **** *
 189:..\..\common\lib\lib_DB/database.c **** * Return:
 190:..\..\common\lib\lib_DB/database.c **** *   time second on way
 191:..\..\common\lib\lib_DB/database.c **** *******************************************************************************/
 192:..\..\common\lib\lib_DB/database.c **** uint32_t LastSecTimeOnWay()
 193:..\..\common\lib\lib_DB/database.c **** {
 297              		.loc 1 193 0
 298              		.cfi_startproc
 299              		@ args = 0, pretend = 0, frame = 0
 300              		@ frame_needed = 0, uses_anonymous_args = 0
 301              		@ link register save eliminated.
 302              	.LVL18:
 194:..\..\common\lib\lib_DB/database.c ****     uint32_t tmpData;
 195:..\..\common\lib\lib_DB/database.c ****     
ARM GAS  C:\Users\Petro\AppData\Local\Temp\ccGRDS3q.s 			page 10


 196:..\..\common\lib\lib_DB/database.c ****     tmpData = skierDB.secondsWay;
 303              		.loc 1 196 0
 304 0000 014B     		ldr	r3, .L21
 197:..\..\common\lib\lib_DB/database.c **** 
 198:..\..\common\lib\lib_DB/database.c ****     return tmpData;
 199:..\..\common\lib\lib_DB/database.c **** }
 305              		.loc 1 199 0
 306              		@ sp needed
 198:..\..\common\lib\lib_DB/database.c **** }
 307              		.loc 1 198 0
 308 0002 986A     		ldr	r0, [r3, #40]
 309              		.loc 1 199 0
 310 0004 7047     		bx	lr
 311              	.L22:
 312 0006 C046     		.align	2
 313              	.L21:
 314 0008 00000000 		.word	skierDB
 315              		.cfi_endproc
 316              	.LFE9:
 317              		.size	LastSecTimeOnWay, .-LastSecTimeOnWay
 318              		.section	.text.LastMillsTimeOnWay,"ax",%progbits
 319              		.align	1
 320              		.global	LastMillsTimeOnWay
 321              		.code	16
 322              		.thumb_func
 323              		.type	LastMillsTimeOnWay, %function
 324              	LastMillsTimeOnWay:
 325              	.LFB10:
 200:..\..\common\lib\lib_DB/database.c **** 
 201:..\..\common\lib\lib_DB/database.c **** /*******************************************************************************
 202:..\..\common\lib\lib_DB/database.c **** * Function Name: LastMillsTimeOnWay
 203:..\..\common\lib\lib_DB/database.c **** ********************************************************************************
 204:..\..\common\lib\lib_DB/database.c **** *
 205:..\..\common\lib\lib_DB/database.c **** * Summary:
 206:..\..\common\lib\lib_DB/database.c **** *  last time skier, milliseconds
 207:..\..\common\lib\lib_DB/database.c **** *
 208:..\..\common\lib\lib_DB/database.c **** * Return:
 209:..\..\common\lib\lib_DB/database.c **** *   time milliseconds on way
 210:..\..\common\lib\lib_DB/database.c **** *******************************************************************************/
 211:..\..\common\lib\lib_DB/database.c **** uint32_t LastMillsTimeOnWay()
 212:..\..\common\lib\lib_DB/database.c **** {
 326              		.loc 1 212 0
 327              		.cfi_startproc
 328              		@ args = 0, pretend = 0, frame = 0
 329              		@ frame_needed = 0, uses_anonymous_args = 0
 330              		@ link register save eliminated.
 331              	.LVL19:
 213:..\..\common\lib\lib_DB/database.c ****     uint32_t tmpData;
 214:..\..\common\lib\lib_DB/database.c **** 
 215:..\..\common\lib\lib_DB/database.c ****     tmpData = skierDB.millsWay;
 332              		.loc 1 215 0
 333 0000 014B     		ldr	r3, .L24
 216:..\..\common\lib\lib_DB/database.c **** 
 217:..\..\common\lib\lib_DB/database.c ****     return tmpData;
 218:..\..\common\lib\lib_DB/database.c **** }
 334              		.loc 1 218 0
 335              		@ sp needed
ARM GAS  C:\Users\Petro\AppData\Local\Temp\ccGRDS3q.s 			page 11


 217:..\..\common\lib\lib_DB/database.c **** }
 336              		.loc 1 217 0
 337 0002 188E     		ldrh	r0, [r3, #48]
 338              		.loc 1 218 0
 339 0004 7047     		bx	lr
 340              	.L25:
 341 0006 C046     		.align	2
 342              	.L24:
 343 0008 00000000 		.word	skierDB
 344              		.cfi_endproc
 345              	.LFE10:
 346              		.size	LastMillsTimeOnWay, .-LastMillsTimeOnWay
 347              		.section	.text.FifoGetSize,"ax",%progbits
 348              		.align	1
 349              		.global	FifoGetSize
 350              		.code	16
 351              		.thumb_func
 352              		.type	FifoGetSize, %function
 353              	FifoGetSize:
 354              	.LFB11:
 219:..\..\common\lib\lib_DB/database.c **** 
 220:..\..\common\lib\lib_DB/database.c **** 
 221:..\..\common\lib\lib_DB/database.c **** /*FIFO*/
 222:..\..\common\lib\lib_DB/database.c **** uint16_t FifoGetSize(void)
 223:..\..\common\lib\lib_DB/database.c **** {
 355              		.loc 1 223 0
 356              		.cfi_startproc
 357              		@ args = 0, pretend = 0, frame = 0
 358              		@ frame_needed = 0, uses_anonymous_args = 0
 359              		@ link register save eliminated.
 224:..\..\common\lib\lib_DB/database.c ****     return fifo.size;
 360              		.loc 1 224 0
 361 0000 014B     		ldr	r3, .L27
 225:..\..\common\lib\lib_DB/database.c **** }
 362              		.loc 1 225 0
 363              		@ sp needed
 224:..\..\common\lib\lib_DB/database.c ****     return fifo.size;
 364              		.loc 1 224 0
 365 0002 1888     		ldrh	r0, [r3]
 366              		.loc 1 225 0
 367 0004 7047     		bx	lr
 368              	.L28:
 369 0006 C046     		.align	2
 370              	.L27:
 371 0008 00000000 		.word	fifo
 372              		.cfi_endproc
 373              	.LFE11:
 374              		.size	FifoGetSize, .-FifoGetSize
 375              		.section	.text.FifoPush,"ax",%progbits
 376              		.align	1
 377              		.global	FifoPush
 378              		.code	16
 379              		.thumb_func
 380              		.type	FifoPush, %function
 381              	FifoPush:
 382              	.LFB12:
 226:..\..\common\lib\lib_DB/database.c **** 
ARM GAS  C:\Users\Petro\AppData\Local\Temp\ccGRDS3q.s 			page 12


 227:..\..\common\lib\lib_DB/database.c **** void FifoPush(skierDB_El data)
 228:..\..\common\lib\lib_DB/database.c **** {
 383              		.loc 1 228 0
 384              		.cfi_startproc
 385              		@ args = 56, pretend = 16, frame = 0
 386              		@ frame_needed = 0, uses_anonymous_args = 0
 387 0000 84B0     		sub	sp, sp, #16
 388              		.cfi_def_cfa_offset 16
 389 0002 70B5     		push	{r4, r5, r6, lr}
 390              		.cfi_def_cfa_offset 32
 391              		.cfi_offset 4, -32
 392              		.cfi_offset 5, -28
 393              		.cfi_offset 6, -24
 394              		.cfi_offset 14, -20
 229:..\..\common\lib\lib_DB/database.c ****     if (fifo.size<fifo.totalSize)           
 395              		.loc 1 229 0
 396 0004 0E4C     		ldr	r4, .L33
 228:..\..\common\lib\lib_DB/database.c ****     if (fifo.size<fifo.totalSize)           
 397              		.loc 1 228 0
 398 0006 0793     		str	r3, [sp, #28]
 399 0008 0490     		str	r0, [sp, #16]
 400 000a 0591     		str	r1, [sp, #20]
 401 000c 0692     		str	r2, [sp, #24]
 402              		.loc 1 229 0
 403 000e 2388     		ldrh	r3, [r4]
 404 0010 E688     		ldrh	r6, [r4, #6]
 405 0012 B342     		cmp	r3, r6
 406 0014 10D2     		bcs	.L29
 230:..\..\common\lib\lib_DB/database.c ****     {                                                  
 231:..\..\common\lib\lib_DB/database.c ****         ++fifo.size;                               
 232:..\..\common\lib\lib_DB/database.c ****                                                        
 233:..\..\common\lib\lib_DB/database.c ****         fifo.buffer[fifo.lastElement++] = data;  
 407              		.loc 1 233 0
 408 0016 3822     		movs	r2, #56
 409 0018 A088     		ldrh	r0, [r4, #4]
 231:..\..\common\lib\lib_DB/database.c ****                                                        
 410              		.loc 1 231 0
 411 001a 0133     		adds	r3, r3, #1
 412              		.loc 1 233 0
 413 001c 451C     		adds	r5, r0, #1
 414 001e 5043     		muls	r0, r2
 415 0020 2018     		adds	r0, r4, r0
 416 0022 ADB2     		uxth	r5, r5
 417 0024 0830     		adds	r0, r0, #8
 418 0026 04A9     		add	r1, sp, #16
 231:..\..\common\lib\lib_DB/database.c ****                                                        
 419              		.loc 1 231 0
 420 0028 2380     		strh	r3, [r4]
 421              		.loc 1 233 0
 422 002a A580     		strh	r5, [r4, #4]
 423 002c FFF7FEFF 		bl	memcpy
 424              	.LVL20:
 234:..\..\common\lib\lib_DB/database.c ****                                                        
 235:..\..\common\lib\lib_DB/database.c ****         if (fifo.lastElement == fifo.totalSize) 
 425              		.loc 1 235 0
 426 0030 AE42     		cmp	r6, r5
 427 0032 01D1     		bne	.L29
ARM GAS  C:\Users\Petro\AppData\Local\Temp\ccGRDS3q.s 			page 13


 236:..\..\common\lib\lib_DB/database.c ****             fifo.lastElement = 0;
 428              		.loc 1 236 0
 429 0034 0023     		movs	r3, #0
 430 0036 A380     		strh	r3, [r4, #4]
 431              	.L29:
 237:..\..\common\lib\lib_DB/database.c ****     }  
 238:..\..\common\lib\lib_DB/database.c **** }
 432              		.loc 1 238 0
 433              		@ sp needed
 434 0038 70BC     		pop	{r4, r5, r6}
 435 003a 08BC     		pop	{r3}
 436 003c 04B0     		add	sp, sp, #16
 437 003e 1847     		bx	r3
 438              	.L34:
 439              		.align	2
 440              	.L33:
 441 0040 00000000 		.word	fifo
 442              		.cfi_endproc
 443              	.LFE12:
 444              		.size	FifoPush, .-FifoPush
 445              		.section	.text.WriteFinishTime,"ax",%progbits
 446              		.align	1
 447              		.global	WriteFinishTime
 448              		.code	16
 449              		.thumb_func
 450              		.type	WriteFinishTime, %function
 451              	WriteFinishTime:
 452              	.LFB7:
 150:..\..\common\lib\lib_DB/database.c ****     getSkiFromWay(&skierDB.idSkier, &skierDB.unixStartSkier, &skierDB.millsStartSkier, permiss);
 453              		.loc 1 150 0
 454              		.cfi_startproc
 455              		@ args = 0, pretend = 0, frame = 8
 456              		@ frame_needed = 0, uses_anonymous_args = 0
 457              	.LVL21:
 458 0000 F0B5     		push	{r4, r5, r6, r7, lr}
 459              		.cfi_def_cfa_offset 20
 460              		.cfi_offset 4, -20
 461              		.cfi_offset 5, -16
 462              		.cfi_offset 6, -12
 463              		.cfi_offset 7, -8
 464              		.cfi_offset 14, -4
 151:..\..\common\lib\lib_DB/database.c ****     skierDB.millsFinishSkier = mills;
 465              		.loc 1 151 0
 466 0002 1B4C     		ldr	r4, .L37
 150:..\..\common\lib\lib_DB/database.c ****     getSkiFromWay(&skierDB.idSkier, &skierDB.unixStartSkier, &skierDB.millsStartSkier, permiss);
 467              		.loc 1 150 0
 468 0004 8DB0     		sub	sp, sp, #52
 469              		.cfi_def_cfa_offset 72
 150:..\..\common\lib\lib_DB/database.c ****     getSkiFromWay(&skierDB.idSkier, &skierDB.unixStartSkier, &skierDB.millsStartSkier, permiss);
 470              		.loc 1 150 0
 471 0006 0600     		movs	r6, r0
 472 0008 0F00     		movs	r7, r1
 473 000a 0B92     		str	r2, [sp, #44]
 151:..\..\common\lib\lib_DB/database.c ****     skierDB.millsFinishSkier = mills;
 474              		.loc 1 151 0
 475 000c 1949     		ldr	r1, .L37+4
 476 000e 1A4A     		ldr	r2, .L37+8
ARM GAS  C:\Users\Petro\AppData\Local\Temp\ccGRDS3q.s 			page 14


 477              	.LVL22:
 478 0010 2000     		movs	r0, r4
 479              	.LVL23:
 150:..\..\common\lib\lib_DB/database.c ****     getSkiFromWay(&skierDB.idSkier, &skierDB.unixStartSkier, &skierDB.millsStartSkier, permiss);
 480              		.loc 1 150 0
 481 0012 1D00     		movs	r5, r3
 151:..\..\common\lib\lib_DB/database.c ****     skierDB.millsFinishSkier = mills;
 482              		.loc 1 151 0
 483 0014 FFF7FEFF 		bl	getSkiFromWay
 484              	.LVL24:
 152:..\..\common\lib\lib_DB/database.c ****     skierDB.unixFinishSkier = unixTime;
 485              		.loc 1 152 0
 486 0018 6B46     		mov	r3, sp
 487 001a 9B8D     		ldrh	r3, [r3, #44]
 153:..\..\common\lib\lib_DB/database.c ****     skierDB.permiss = permiss;
 488              		.loc 1 153 0
 489 001c A661     		str	r6, [r4, #24]
 490 001e E761     		str	r7, [r4, #28]
 152:..\..\common\lib\lib_DB/database.c ****     skierDB.unixFinishSkier = unixTime;
 491              		.loc 1 152 0
 492 0020 2384     		strh	r3, [r4, #32]
 154:..\..\common\lib\lib_DB/database.c ****     
 493              		.loc 1 154 0
 494 0022 2300     		movs	r3, r4
 495 0024 3233     		adds	r3, r3, #50
 496 0026 1D70     		strb	r5, [r3]
 158:..\..\common\lib\lib_DB/database.c ****     if (skierDB.millsWay > 1000u)
 497              		.loc 1 158 0
 498 0028 218A     		ldrh	r1, [r4, #16]
 157:..\..\common\lib\lib_DB/database.c ****     skierDB.millsWay =  skierDB.millsFinishSkier - skierDB.millsStartSkier;  
 499              		.loc 1 157 0
 500 002a A268     		ldr	r2, [r4, #8]
 501 002c E368     		ldr	r3, [r4, #12]
 502 002e B61A     		subs	r6, r6, r2
 503 0030 9F41     		sbcs	r7, r7, r3
 158:..\..\common\lib\lib_DB/database.c ****     if (skierDB.millsWay > 1000u)
 504              		.loc 1 158 0
 505 0032 0B9B     		ldr	r3, [sp, #44]
 157:..\..\common\lib\lib_DB/database.c ****     skierDB.millsWay =  skierDB.millsFinishSkier - skierDB.millsStartSkier;  
 506              		.loc 1 157 0
 507 0034 A662     		str	r6, [r4, #40]
 508 0036 E762     		str	r7, [r4, #44]
 158:..\..\common\lib\lib_DB/database.c ****     if (skierDB.millsWay > 1000u)
 509              		.loc 1 158 0
 510 0038 591A     		subs	r1, r3, r1
 159:..\..\common\lib\lib_DB/database.c ****     {
 511              		.loc 1 159 0
 512 003a FA23     		movs	r3, #250
 158:..\..\common\lib\lib_DB/database.c ****     if (skierDB.millsWay > 1000u)
 513              		.loc 1 158 0
 514 003c 89B2     		uxth	r1, r1
 515 003e 2186     		strh	r1, [r4, #48]
 159:..\..\common\lib\lib_DB/database.c ****     {
 516              		.loc 1 159 0
 517 0040 9B00     		lsls	r3, r3, #2
 518 0042 9942     		cmp	r1, r3
 519 0044 08D9     		bls	.L36
ARM GAS  C:\Users\Petro\AppData\Local\Temp\ccGRDS3q.s 			page 15


 161:..\..\common\lib\lib_DB/database.c ****         skierDB.millsWay = 0 - skierDB.millsWay;
 520              		.loc 1 161 0
 521 0046 0122     		movs	r2, #1
 522 0048 5242     		rsbs	r2, r2, #0
 523 004a D317     		asrs	r3, r2, #31
 524 004c B618     		adds	r6, r6, r2
 525 004e 5F41     		adcs	r7, r7, r3
 526 0050 A662     		str	r6, [r4, #40]
 527 0052 E762     		str	r7, [r4, #44]
 162:..\..\common\lib\lib_DB/database.c ****     }
 528              		.loc 1 162 0
 529 0054 4942     		rsbs	r1, r1, #0
 530 0056 2186     		strh	r1, [r4, #48]
 531              	.L36:
 164:..\..\common\lib\lib_DB/database.c **** }
 532              		.loc 1 164 0
 533 0058 2100     		movs	r1, r4
 534 005a 2822     		movs	r2, #40
 535 005c 1031     		adds	r1, r1, #16
 536 005e 6846     		mov	r0, sp
 537 0060 FFF7FEFF 		bl	memcpy
 538              	.LVL25:
 539 0064 0FCC     		ldmia	r4!, {r0, r1, r2, r3}
 540 0066 FFF7FEFF 		bl	FifoPush
 541              	.LVL26:
 165:..\..\common\lib\lib_DB/database.c **** 
 542              		.loc 1 165 0
 543 006a 0DB0     		add	sp, sp, #52
 544              		@ sp needed
 545 006c F0BD     		pop	{r4, r5, r6, r7, pc}
 546              	.L38:
 547 006e C046     		.align	2
 548              	.L37:
 549 0070 00000000 		.word	skierDB
 550 0074 08000000 		.word	skierDB+8
 551 0078 10000000 		.word	skierDB+16
 552              		.cfi_endproc
 553              	.LFE7:
 554              		.size	WriteFinishTime, .-WriteFinishTime
 555              		.section	.text.FifoGet,"ax",%progbits
 556              		.align	1
 557              		.global	FifoGet
 558              		.code	16
 559              		.thumb_func
 560              		.type	FifoGet, %function
 561              	FifoGet:
 562              	.LFB13:
 239:..\..\common\lib\lib_DB/database.c **** 
 240:..\..\common\lib\lib_DB/database.c **** void FifoGet(skierDB_El *data)                    
 241:..\..\common\lib\lib_DB/database.c **** {                                                   
 563              		.loc 1 241 0
 564              		.cfi_startproc
 565              		@ args = 0, pretend = 0, frame = 0
 566              		@ frame_needed = 0, uses_anonymous_args = 0
 567              	.LVL27:
 568 0000 70B5     		push	{r4, r5, r6, lr}
 569              		.cfi_def_cfa_offset 16
ARM GAS  C:\Users\Petro\AppData\Local\Temp\ccGRDS3q.s 			page 16


 570              		.cfi_offset 4, -16
 571              		.cfi_offset 5, -12
 572              		.cfi_offset 6, -8
 573              		.cfi_offset 14, -4
 242:..\..\common\lib\lib_DB/database.c ****     if (fifo.size != 0)                             
 574              		.loc 1 242 0
 575 0002 0B4C     		ldr	r4, .L45
 576 0004 2588     		ldrh	r5, [r4]
 577 0006 002D     		cmp	r5, #0
 578 0008 10D0     		beq	.L39
 243:..\..\common\lib\lib_DB/database.c ****     {                                                           
 244:..\..\common\lib\lib_DB/database.c ****         *data = fifo.buffer[fifo.firstElement++];
 579              		.loc 1 244 0
 580 000a 3822     		movs	r2, #56
 581 000c 6188     		ldrh	r1, [r4, #2]
 582 000e 4E1C     		adds	r6, r1, #1
 583 0010 5143     		muls	r1, r2
 584 0012 6118     		adds	r1, r4, r1
 585 0014 B6B2     		uxth	r6, r6
 586 0016 0831     		adds	r1, r1, #8
 587 0018 6680     		strh	r6, [r4, #2]
 588 001a FFF7FEFF 		bl	memcpy
 589              	.LVL28:
 245:..\..\common\lib\lib_DB/database.c ****                                                         
 246:..\..\common\lib\lib_DB/database.c ****         if (fifo.firstElement == fifo.totalSize) 
 590              		.loc 1 246 0
 591 001e E388     		ldrh	r3, [r4, #6]
 592 0020 B342     		cmp	r3, r6
 593 0022 01D1     		bne	.L41
 247:..\..\common\lib\lib_DB/database.c ****             fifo.firstElement = 0;  
 594              		.loc 1 247 0
 595 0024 0023     		movs	r3, #0
 596 0026 6380     		strh	r3, [r4, #2]
 597              	.L41:
 248:..\..\common\lib\lib_DB/database.c ****         
 249:..\..\common\lib\lib_DB/database.c ****         --fifo.size;                               
 598              		.loc 1 249 0
 599 0028 013D     		subs	r5, r5, #1
 600 002a 2580     		strh	r5, [r4]
 601              	.L39:
 250:..\..\common\lib\lib_DB/database.c ****     }                                                  
 251:..\..\common\lib\lib_DB/database.c **** }
 602              		.loc 1 251 0
 603              		@ sp needed
 604 002c 70BD     		pop	{r4, r5, r6, pc}
 605              	.L46:
 606 002e C046     		.align	2
 607              	.L45:
 608 0030 00000000 		.word	fifo
 609              		.cfi_endproc
 610              	.LFE13:
 611              		.size	FifoGet, .-FifoGet
 612              		.section	.text.FifoPushLast,"ax",%progbits
 613              		.align	1
 614              		.global	FifoPushLast
 615              		.code	16
 616              		.thumb_func
ARM GAS  C:\Users\Petro\AppData\Local\Temp\ccGRDS3q.s 			page 17


 617              		.type	FifoPushLast, %function
 618              	FifoPushLast:
 619              	.LFB14:
 252:..\..\common\lib\lib_DB/database.c **** 
 253:..\..\common\lib\lib_DB/database.c **** void FifoPushLast(skierDB_El data)
 254:..\..\common\lib\lib_DB/database.c **** {
 620              		.loc 1 254 0
 621              		.cfi_startproc
 622              		@ args = 56, pretend = 16, frame = 0
 623              		@ frame_needed = 0, uses_anonymous_args = 0
 624 0000 84B0     		sub	sp, sp, #16
 625              		.cfi_def_cfa_offset 16
 626 0002 10B5     		push	{r4, lr}
 627              		.cfi_def_cfa_offset 24
 628              		.cfi_offset 4, -24
 629              		.cfi_offset 14, -20
 630              		.loc 1 254 0
 631 0004 0593     		str	r3, [sp, #20]
 255:..\..\common\lib\lib_DB/database.c ****     fifo.last = data;
 632              		.loc 1 255 0
 633 0006 AA23     		movs	r3, #170
 254:..\..\common\lib\lib_DB/database.c ****     fifo.last = data;
 634              		.loc 1 254 0
 635 0008 0290     		str	r0, [sp, #8]
 636              		.loc 1 255 0
 637 000a 0648     		ldr	r0, .L48
 638 000c 9B00     		lsls	r3, r3, #2
 254:..\..\common\lib\lib_DB/database.c ****     fifo.last = data;
 639              		.loc 1 254 0
 640 000e 0391     		str	r1, [sp, #12]
 641 0010 0492     		str	r2, [sp, #16]
 642              		.loc 1 255 0
 643 0012 02A9     		add	r1, sp, #8
 644 0014 3822     		movs	r2, #56
 645 0016 C018     		adds	r0, r0, r3
 646 0018 FFF7FEFF 		bl	memcpy
 647              	.LVL29:
 256:..\..\common\lib\lib_DB/database.c **** }
 648              		.loc 1 256 0
 649              		@ sp needed
 650 001c 10BC     		pop	{r4}
 651 001e 08BC     		pop	{r3}
 652 0020 04B0     		add	sp, sp, #16
 653 0022 1847     		bx	r3
 654              	.L49:
 655              		.align	2
 656              	.L48:
 657 0024 00000000 		.word	fifo
 658              		.cfi_endproc
 659              	.LFE14:
 660              		.size	FifoPushLast, .-FifoPushLast
 661              		.section	.text.FifoGetLast,"ax",%progbits
 662              		.align	1
 663              		.global	FifoGetLast
 664              		.code	16
 665              		.thumb_func
 666              		.type	FifoGetLast, %function
ARM GAS  C:\Users\Petro\AppData\Local\Temp\ccGRDS3q.s 			page 18


 667              	FifoGetLast:
 668              	.LFB15:
 257:..\..\common\lib\lib_DB/database.c **** 
 258:..\..\common\lib\lib_DB/database.c **** skierDB_El FifoGetLast(void)
 259:..\..\common\lib\lib_DB/database.c **** {
 669              		.loc 1 259 0
 670              		.cfi_startproc
 671              		@ args = 0, pretend = 0, frame = 0
 672              		@ frame_needed = 0, uses_anonymous_args = 0
 673              	.LVL30:
 260:..\..\common\lib\lib_DB/database.c ****     return fifo.last;
 674              		.loc 1 260 0
 675 0000 AA23     		movs	r3, #170
 259:..\..\common\lib\lib_DB/database.c ****     return fifo.last;
 676              		.loc 1 259 0
 677 0002 10B5     		push	{r4, lr}
 678              		.cfi_def_cfa_offset 8
 679              		.cfi_offset 4, -8
 680              		.cfi_offset 14, -4
 259:..\..\common\lib\lib_DB/database.c ****     return fifo.last;
 681              		.loc 1 259 0
 682 0004 0400     		movs	r4, r0
 683              		.loc 1 260 0
 684 0006 0449     		ldr	r1, .L51
 685 0008 9B00     		lsls	r3, r3, #2
 686 000a 3822     		movs	r2, #56
 687 000c C918     		adds	r1, r1, r3
 688 000e FFF7FEFF 		bl	memcpy
 689              	.LVL31:
 261:..\..\common\lib\lib_DB/database.c **** }
 690              		.loc 1 261 0
 691              		@ sp needed
 692 0012 2000     		movs	r0, r4
 693              	.LVL32:
 694 0014 10BD     		pop	{r4, pc}
 695              	.L52:
 696 0016 C046     		.align	2
 697              	.L51:
 698 0018 00000000 		.word	fifo
 699              		.cfi_endproc
 700              	.LFE15:
 701              		.size	FifoGetLast, .-FifoGetLast
 702              		.comm	fifo,736,8
 703              		.comm	currentElementEnd,4,4
 704              		.comm	currentElementStart,4,4
 705              		.comm	currentSizeBuff,4,4
 706              		.comm	skierDB,56,8
 707              		.comm	bufferSkiersOnWay,96,8
 708              		.text
 709              	.Letext0:
 710              		.file 2 "c:\\program files (x86)\\cypress\\psoc creator\\4.1\\psoc creator\\import\\gnu\\arm\\5.4.
 711              		.file 3 "c:\\program files (x86)\\cypress\\psoc creator\\4.1\\psoc creator\\import\\gnu\\arm\\5.4.
 712              		.file 4 "./..\\..\\common\\lib\\lib_DB\\database.h"
 713              		.file 5 "./..\\..\\common\\lib\\lib_Fat\\ff.h"
 714              		.file 6 "./..\\..\\common\\lib\\lib_DB\\logResult.h"