ARM GAS  C:\Users\Petro\AppData\Local\Temp\ccxVX9aR.s 			page 1


   1              		.syntax unified
   2              		.cpu cortex-m0
   3              		.fpu softvfp
   4              		.eabi_attribute 20, 1
   5              		.eabi_attribute 21, 1
   6              		.eabi_attribute 23, 3
   7              		.eabi_attribute 24, 1
   8              		.eabi_attribute 25, 1
   9              		.eabi_attribute 26, 1
  10              		.eabi_attribute 30, 4
  11              		.eabi_attribute 34, 0
  12              		.eabi_attribute 18, 4
  13              		.thumb
  14              		.syntax unified
  15              		.file	"gate.c"
  16              		.text
  17              	.Ltext0:
  18              		.cfi_sections	.debug_frame
  19              		.section	.text.GATE_INTERRUPT,"ax",%progbits
  20              		.align	1
  21              		.global	GATE_INTERRUPT
  22              		.code	16
  23              		.thumb_func
  24              		.type	GATE_INTERRUPT, %function
  25              	GATE_INTERRUPT:
  26              	.LFB62:
  27              		.file 1 "..\\..\\common\\lib\\lib_Gate\\gate.c"
   1:..\..\common\lib\lib_Gate/gate.c **** #include "..\..\common\lib\lib_Gate\gate.h"
   2:..\..\common\lib\lib_Gate/gate.c **** #include <GatePin.h>
   3:..\..\common\lib\lib_Gate/gate.c **** #include <GATE_INT.h>
   4:..\..\common\lib\lib_Gate/gate.c **** #include "..\..\common\lib\lib_RTC\RTC_WDT.h"
   5:..\..\common\lib\lib_Gate/gate.c **** #ifdef START_MODULE
   6:..\..\common\lib\lib_Gate/gate.c ****     #include "..\..\common\lib\lib_IDskier\IDskier.h"
   7:..\..\common\lib\lib_Gate/gate.c **** #endif
   8:..\..\common\lib\lib_Gate/gate.c **** #include "appGlobal.h"
   9:..\..\common\lib\lib_Gate/gate.c **** 
  10:..\..\common\lib\lib_Gate/gate.c **** static uint8_t savedIdSkier;
  11:..\..\common\lib\lib_Gate/gate.c **** static uint64_t savedUnixTime;
  12:..\..\common\lib\lib_Gate/gate.c **** static uint32_t savedRecentMs;
  13:..\..\common\lib\lib_Gate/gate.c **** static uint32_t gateOpen ;
  14:..\..\common\lib\lib_Gate/gate.c **** 
  15:..\..\common\lib\lib_Gate/gate.c **** 
  16:..\..\common\lib\lib_Gate/gate.c **** /*gate interrupt*/
  17:..\..\common\lib\lib_Gate/gate.c **** CY_ISR(GATE_INTERRUPT)
  18:..\..\common\lib\lib_Gate/gate.c **** {   
  28              		.loc 1 18 0
  29              		.cfi_startproc
  30              		@ args = 0, pretend = 0, frame = 0
  31              		@ frame_needed = 0, uses_anonymous_args = 0
  32 0000 10B5     		push	{r4, lr}
  33              		.cfi_def_cfa_offset 8
  34              		.cfi_offset 4, -8
  35              		.cfi_offset 14, -4
  19:..\..\common\lib\lib_Gate/gate.c ****     GATE_INT_Disable();
  36              		.loc 1 19 0
  37 0002 FFF7FEFF 		bl	GATE_INT_Disable
  38              	.LVL0:
ARM GAS  C:\Users\Petro\AppData\Local\Temp\ccxVX9aR.s 			page 2


  20:..\..\common\lib\lib_Gate/gate.c ****     
  21:..\..\common\lib\lib_Gate/gate.c ****     gateOpen = GATE_OPEN;    
  39              		.loc 1 21 0
  40 0006 0123     		movs	r3, #1
  41 0008 054C     		ldr	r4, .L2
  22:..\..\common\lib\lib_Gate/gate.c **** 
  23:..\..\common\lib\lib_Gate/gate.c ****     savedUnixTime = RTCGetUnixTime();
  24:..\..\common\lib\lib_Gate/gate.c ****     savedRecentMs = RTCgetRecentMs();
  25:..\..\common\lib\lib_Gate/gate.c ****     
  26:..\..\common\lib\lib_Gate/gate.c ****     #ifdef START_MODULE
  27:..\..\common\lib\lib_Gate/gate.c ****     savedIdSkier = ReadIdSkier();
  28:..\..\common\lib\lib_Gate/gate.c ****     #endif
  29:..\..\common\lib\lib_Gate/gate.c ****     
  30:..\..\common\lib\lib_Gate/gate.c ****     //GatePin_ClearInterrupt();
  31:..\..\common\lib\lib_Gate/gate.c ****     GATE_INT_ClearPending();   
  32:..\..\common\lib\lib_Gate/gate.c **** }
  42              		.loc 1 32 0
  43              		@ sp needed
  21:..\..\common\lib\lib_Gate/gate.c **** 
  44              		.loc 1 21 0
  45 000a 2360     		str	r3, [r4]
  23:..\..\common\lib\lib_Gate/gate.c ****     savedRecentMs = RTCgetRecentMs();
  46              		.loc 1 23 0
  47 000c FFF7FEFF 		bl	RTCGetUnixTime
  48              	.LVL1:
  49 0010 A060     		str	r0, [r4, #8]
  50 0012 E160     		str	r1, [r4, #12]
  24:..\..\common\lib\lib_Gate/gate.c ****     
  51              		.loc 1 24 0
  52 0014 FFF7FEFF 		bl	RTCgetRecentMs
  53              	.LVL2:
  54 0018 2061     		str	r0, [r4, #16]
  31:..\..\common\lib\lib_Gate/gate.c **** }
  55              		.loc 1 31 0
  56 001a FFF7FEFF 		bl	GATE_INT_ClearPending
  57              	.LVL3:
  58              		.loc 1 32 0
  59 001e 10BD     		pop	{r4, pc}
  60              	.L3:
  61              		.align	2
  62              	.L2:
  63 0020 00000000 		.word	.LANCHOR0
  64              		.cfi_endproc
  65              	.LFE62:
  66              		.size	GATE_INTERRUPT, .-GATE_INTERRUPT
  67              		.section	.text.GateInit,"ax",%progbits
  68              		.align	1
  69              		.global	GateInit
  70              		.code	16
  71              		.thumb_func
  72              		.type	GateInit, %function
  73              	GateInit:
  74              	.LFB63:
  33:..\..\common\lib\lib_Gate/gate.c **** 
  34:..\..\common\lib\lib_Gate/gate.c **** /*******************************************************************************
  35:..\..\common\lib\lib_Gate/gate.c **** * Function Name: GateInit
  36:..\..\common\lib\lib_Gate/gate.c **** ********************************************************************************
ARM GAS  C:\Users\Petro\AppData\Local\Temp\ccxVX9aR.s 			page 3


  37:..\..\common\lib\lib_Gate/gate.c **** *
  38:..\..\common\lib\lib_Gate/gate.c **** * Summary:
  39:..\..\common\lib\lib_Gate/gate.c **** *   inittilisation the gate pin
  40:..\..\common\lib\lib_Gate/gate.c **** *   disable interrupt from gate
  41:..\..\common\lib\lib_Gate/gate.c **** *
  42:..\..\common\lib\lib_Gate/gate.c **** *******************************************************************************/
  43:..\..\common\lib\lib_Gate/gate.c **** void GateInit(void)
  44:..\..\common\lib\lib_Gate/gate.c **** {
  75              		.loc 1 44 0
  76              		.cfi_startproc
  77              		@ args = 0, pretend = 0, frame = 0
  78              		@ frame_needed = 0, uses_anonymous_args = 0
  79 0000 10B5     		push	{r4, lr}
  80              		.cfi_def_cfa_offset 8
  81              		.cfi_offset 4, -8
  82              		.cfi_offset 14, -4
  45:..\..\common\lib\lib_Gate/gate.c ****     //GatePin_ClearInterrupt();
  46:..\..\common\lib\lib_Gate/gate.c ****     GATE_INT_ClearPending();
  83              		.loc 1 46 0
  84 0002 FFF7FEFF 		bl	GATE_INT_ClearPending
  85              	.LVL4:
  47:..\..\common\lib\lib_Gate/gate.c ****     GATE_INT_StartEx(GATE_INTERRUPT); 
  86              		.loc 1 47 0
  87 0006 0448     		ldr	r0, .L5
  88 0008 FFF7FEFF 		bl	GATE_INT_StartEx
  89              	.LVL5:
  48:..\..\common\lib\lib_Gate/gate.c ****     GATE_INT_Disable();
  90              		.loc 1 48 0
  91 000c FFF7FEFF 		bl	GATE_INT_Disable
  92              	.LVL6:
  49:..\..\common\lib\lib_Gate/gate.c ****     
  50:..\..\common\lib\lib_Gate/gate.c ****     gateOpen = GATE_CLOSE;     
  93              		.loc 1 50 0
  94 0010 0022     		movs	r2, #0
  95 0012 024B     		ldr	r3, .L5+4
  51:..\..\common\lib\lib_Gate/gate.c **** }
  96              		.loc 1 51 0
  97              		@ sp needed
  50:..\..\common\lib\lib_Gate/gate.c **** }
  98              		.loc 1 50 0
  99 0014 1A60     		str	r2, [r3]
 100              		.loc 1 51 0
 101 0016 10BD     		pop	{r4, pc}
 102              	.L6:
 103              		.align	2
 104              	.L5:
 105 0018 00000000 		.word	GATE_INTERRUPT
 106 001c 00000000 		.word	.LANCHOR0
 107              		.cfi_endproc
 108              	.LFE63:
 109              		.size	GateInit, .-GateInit
 110              		.section	.text.GateIsOpen,"ax",%progbits
 111              		.align	1
 112              		.global	GateIsOpen
 113              		.code	16
 114              		.thumb_func
 115              		.type	GateIsOpen, %function
ARM GAS  C:\Users\Petro\AppData\Local\Temp\ccxVX9aR.s 			page 4


 116              	GateIsOpen:
 117              	.LFB64:
  52:..\..\common\lib\lib_Gate/gate.c **** 
  53:..\..\common\lib\lib_Gate/gate.c **** 
  54:..\..\common\lib\lib_Gate/gate.c **** /*******************************************************************************
  55:..\..\common\lib\lib_Gate/gate.c **** * Function Name: GateOpen
  56:..\..\common\lib\lib_Gate/gate.c **** ********************************************************************************
  57:..\..\common\lib\lib_Gate/gate.c **** *
  58:..\..\common\lib\lib_Gate/gate.c **** * Summary:
  59:..\..\common\lib\lib_Gate/gate.c **** *  verification or gate closed
  60:..\..\common\lib\lib_Gate/gate.c **** *
  61:..\..\common\lib\lib_Gate/gate.c **** * Return:
  62:..\..\common\lib\lib_Gate/gate.c **** *  GATE_CLOSE or GATE_OPEN
  63:..\..\common\lib\lib_Gate/gate.c **** *******************************************************************************/
  64:..\..\common\lib\lib_Gate/gate.c **** uint32_t GateIsOpen(void)
  65:..\..\common\lib\lib_Gate/gate.c **** {   
 118              		.loc 1 65 0
 119              		.cfi_startproc
 120              		@ args = 0, pretend = 0, frame = 0
 121              		@ frame_needed = 0, uses_anonymous_args = 0
 122              		@ link register save eliminated.
  66:..\..\common\lib\lib_Gate/gate.c ****     uint32_t result;
  67:..\..\common\lib\lib_Gate/gate.c ****     
  68:..\..\common\lib\lib_Gate/gate.c ****     result = gateOpen;
  69:..\..\common\lib\lib_Gate/gate.c ****     gateOpen = GATE_CLOSE;
 123              		.loc 1 69 0
 124 0000 0022     		movs	r2, #0
  68:..\..\common\lib\lib_Gate/gate.c ****     gateOpen = GATE_CLOSE;
 125              		.loc 1 68 0
 126 0002 024B     		ldr	r3, .L8
  70:..\..\common\lib\lib_Gate/gate.c ****     
  71:..\..\common\lib\lib_Gate/gate.c ****     return result;
  72:..\..\common\lib\lib_Gate/gate.c **** }
 127              		.loc 1 72 0
 128              		@ sp needed
  68:..\..\common\lib\lib_Gate/gate.c ****     gateOpen = GATE_CLOSE;
 129              		.loc 1 68 0
 130 0004 1868     		ldr	r0, [r3]
 131              	.LVL7:
  69:..\..\common\lib\lib_Gate/gate.c ****     
 132              		.loc 1 69 0
 133 0006 1A60     		str	r2, [r3]
 134              		.loc 1 72 0
 135 0008 7047     		bx	lr
 136              	.L9:
 137 000a C046     		.align	2
 138              	.L8:
 139 000c 00000000 		.word	.LANCHOR0
 140              		.cfi_endproc
 141              	.LFE64:
 142              		.size	GateIsOpen, .-GateIsOpen
 143              		.section	.text.AllowNextSkier,"ax",%progbits
 144              		.align	1
 145              		.global	AllowNextSkier
 146              		.code	16
 147              		.thumb_func
 148              		.type	AllowNextSkier, %function
ARM GAS  C:\Users\Petro\AppData\Local\Temp\ccxVX9aR.s 			page 5


 149              	AllowNextSkier:
 150              	.LFB65:
  73:..\..\common\lib\lib_Gate/gate.c **** 
  74:..\..\common\lib\lib_Gate/gate.c **** 
  75:..\..\common\lib\lib_Gate/gate.c **** /*******************************************************************************
  76:..\..\common\lib\lib_Gate/gate.c **** * Function Name: AllowNextSkier
  77:..\..\common\lib\lib_Gate/gate.c **** ********************************************************************************
  78:..\..\common\lib\lib_Gate/gate.c **** *
  79:..\..\common\lib\lib_Gate/gate.c **** * Summary:
  80:..\..\common\lib\lib_Gate/gate.c **** *   allow the new skier on way(enable gate interrupt)
  81:..\..\common\lib\lib_Gate/gate.c **** *
  82:..\..\common\lib\lib_Gate/gate.c **** *******************************************************************************/
  83:..\..\common\lib\lib_Gate/gate.c **** void AllowNextSkier(void)
  84:..\..\common\lib\lib_Gate/gate.c **** {
 151              		.loc 1 84 0
 152              		.cfi_startproc
 153              		@ args = 0, pretend = 0, frame = 0
 154              		@ frame_needed = 0, uses_anonymous_args = 0
 155 0000 10B5     		push	{r4, lr}
 156              		.cfi_def_cfa_offset 8
 157              		.cfi_offset 4, -8
 158              		.cfi_offset 14, -4
  85:..\..\common\lib\lib_Gate/gate.c ****     //GatePin_ClearInterrupt();
  86:..\..\common\lib\lib_Gate/gate.c ****     GATE_INT_ClearPending();
 159              		.loc 1 86 0
 160 0002 FFF7FEFF 		bl	GATE_INT_ClearPending
 161              	.LVL8:
  87:..\..\common\lib\lib_Gate/gate.c ****     GATE_INT_Enable();
  88:..\..\common\lib\lib_Gate/gate.c **** }
 162              		.loc 1 88 0
 163              		@ sp needed
  87:..\..\common\lib\lib_Gate/gate.c ****     GATE_INT_Enable();
 164              		.loc 1 87 0
 165 0006 FFF7FEFF 		bl	GATE_INT_Enable
 166              	.LVL9:
 167              		.loc 1 88 0
 168 000a 10BD     		pop	{r4, pc}
 169              		.cfi_endproc
 170              	.LFE65:
 171              		.size	AllowNextSkier, .-AllowNextSkier
 172              		.section	.text.DisAllowNextSkier,"ax",%progbits
 173              		.align	1
 174              		.global	DisAllowNextSkier
 175              		.code	16
 176              		.thumb_func
 177              		.type	DisAllowNextSkier, %function
 178              	DisAllowNextSkier:
 179              	.LFB66:
  89:..\..\common\lib\lib_Gate/gate.c **** 
  90:..\..\common\lib\lib_Gate/gate.c **** void DisAllowNextSkier(void)
  91:..\..\common\lib\lib_Gate/gate.c **** {
 180              		.loc 1 91 0
 181              		.cfi_startproc
 182              		@ args = 0, pretend = 0, frame = 0
 183              		@ frame_needed = 0, uses_anonymous_args = 0
  92:..\..\common\lib\lib_Gate/gate.c ****     gateOpen = GATE_CLOSE;
 184              		.loc 1 92 0
ARM GAS  C:\Users\Petro\AppData\Local\Temp\ccxVX9aR.s 			page 6


 185 0000 0022     		movs	r2, #0
  91:..\..\common\lib\lib_Gate/gate.c ****     gateOpen = GATE_CLOSE;
 186              		.loc 1 91 0
 187 0002 10B5     		push	{r4, lr}
 188              		.cfi_def_cfa_offset 8
 189              		.cfi_offset 4, -8
 190              		.cfi_offset 14, -4
 191              		.loc 1 92 0
 192 0004 044B     		ldr	r3, .L12
  93:..\..\common\lib\lib_Gate/gate.c ****      
  94:..\..\common\lib\lib_Gate/gate.c ****     GatePin_ClearInterrupt();
  95:..\..\common\lib\lib_Gate/gate.c ****     GATE_INT_ClearPending();
  96:..\..\common\lib\lib_Gate/gate.c ****     GATE_INT_Disable();   
  97:..\..\common\lib\lib_Gate/gate.c **** }
 193              		.loc 1 97 0
 194              		@ sp needed
  92:..\..\common\lib\lib_Gate/gate.c ****      
 195              		.loc 1 92 0
 196 0006 1A60     		str	r2, [r3]
  94:..\..\common\lib\lib_Gate/gate.c ****     GATE_INT_ClearPending();
 197              		.loc 1 94 0
 198 0008 FFF7FEFF 		bl	GatePin_ClearInterrupt
 199              	.LVL10:
  95:..\..\common\lib\lib_Gate/gate.c ****     GATE_INT_Disable();   
 200              		.loc 1 95 0
 201 000c FFF7FEFF 		bl	GATE_INT_ClearPending
 202              	.LVL11:
  96:..\..\common\lib\lib_Gate/gate.c **** }
 203              		.loc 1 96 0
 204 0010 FFF7FEFF 		bl	GATE_INT_Disable
 205              	.LVL12:
 206              		.loc 1 97 0
 207 0014 10BD     		pop	{r4, pc}
 208              	.L13:
 209 0016 C046     		.align	2
 210              	.L12:
 211 0018 00000000 		.word	.LANCHOR0
 212              		.cfi_endproc
 213              	.LFE66:
 214              		.size	DisAllowNextSkier, .-DisAllowNextSkier
 215              		.section	.text.GetFinTime,"ax",%progbits
 216              		.align	1
 217              		.global	GetFinTime
 218              		.code	16
 219              		.thumb_func
 220              		.type	GetFinTime, %function
 221              	GetFinTime:
 222              	.LFB67:
  98:..\..\common\lib\lib_Gate/gate.c **** 
  99:..\..\common\lib\lib_Gate/gate.c **** /*******************************************************************************
 100:..\..\common\lib\lib_Gate/gate.c **** * Function Name: GetFinTime
 101:..\..\common\lib\lib_Gate/gate.c **** ********************************************************************************
 102:..\..\common\lib\lib_Gate/gate.c **** *
 103:..\..\common\lib\lib_Gate/gate.c **** * Summary:
 104:..\..\common\lib\lib_Gate/gate.c **** *   reading recorded in the interruption time finish skier
 105:..\..\common\lib\lib_Gate/gate.c **** * Parametrs:
 106:..\..\common\lib\lib_Gate/gate.c **** *   *unixTime - pointer from unix time skier
ARM GAS  C:\Users\Petro\AppData\Local\Temp\ccxVX9aR.s 			page 7


 107:..\..\common\lib\lib_Gate/gate.c **** *   *recentMs - pointer from miliseconds time
 108:..\..\common\lib\lib_Gate/gate.c **** *
 109:..\..\common\lib\lib_Gate/gate.c **** *******************************************************************************/
 110:..\..\common\lib\lib_Gate/gate.c **** #ifdef START_MODULE
 111:..\..\common\lib\lib_Gate/gate.c **** void GetStartTime(uint8_t *idSkier,uint64_t *unixTime,  uint32_t *recentMs)
 112:..\..\common\lib\lib_Gate/gate.c **** {
 113:..\..\common\lib\lib_Gate/gate.c ****     *idSkier = savedIdSkier;
 114:..\..\common\lib\lib_Gate/gate.c ****     *unixTime = savedUnixTime;
 115:..\..\common\lib\lib_Gate/gate.c ****     *recentMs = savedRecentMs;
 116:..\..\common\lib\lib_Gate/gate.c **** }
 117:..\..\common\lib\lib_Gate/gate.c **** #endif
 118:..\..\common\lib\lib_Gate/gate.c **** #ifdef FINISH_MODULE
 119:..\..\common\lib\lib_Gate/gate.c **** void GetFinTime(uint64_t *unixTime,  uint32_t *recentMs)
 120:..\..\common\lib\lib_Gate/gate.c **** {
 223              		.loc 1 120 0
 224              		.cfi_startproc
 225              		@ args = 0, pretend = 0, frame = 0
 226              		@ frame_needed = 0, uses_anonymous_args = 0
 227              	.LVL13:
 228 0000 30B5     		push	{r4, r5, lr}
 229              		.cfi_def_cfa_offset 12
 230              		.cfi_offset 4, -12
 231              		.cfi_offset 5, -8
 232              		.cfi_offset 14, -4
 121:..\..\common\lib\lib_Gate/gate.c ****     *unixTime = savedUnixTime;
 233              		.loc 1 121 0
 234 0002 044B     		ldr	r3, .L15
 122:..\..\common\lib\lib_Gate/gate.c ****     *recentMs = savedRecentMs;
 123:..\..\common\lib\lib_Gate/gate.c **** }
 235              		.loc 1 123 0
 236              		@ sp needed
 121:..\..\common\lib\lib_Gate/gate.c ****     *unixTime = savedUnixTime;
 237              		.loc 1 121 0
 238 0004 9C68     		ldr	r4, [r3, #8]
 239 0006 DD68     		ldr	r5, [r3, #12]
 122:..\..\common\lib\lib_Gate/gate.c ****     *recentMs = savedRecentMs;
 240              		.loc 1 122 0
 241 0008 1B69     		ldr	r3, [r3, #16]
 121:..\..\common\lib\lib_Gate/gate.c ****     *unixTime = savedUnixTime;
 242              		.loc 1 121 0
 243 000a 0460     		str	r4, [r0]
 244 000c 4560     		str	r5, [r0, #4]
 122:..\..\common\lib\lib_Gate/gate.c ****     *recentMs = savedRecentMs;
 245              		.loc 1 122 0
 246 000e 0B60     		str	r3, [r1]
 247              		.loc 1 123 0
 248 0010 30BD     		pop	{r4, r5, pc}
 249              	.L16:
 250 0012 C046     		.align	2
 251              	.L15:
 252 0014 00000000 		.word	.LANCHOR0
 253              		.cfi_endproc
 254              	.LFE67:
 255              		.size	GetFinTime, .-GetFinTime
 256              		.comm	currentState,1,1
 257              		.bss
 258              		.align	3
ARM GAS  C:\Users\Petro\AppData\Local\Temp\ccxVX9aR.s 			page 8


 259              		.set	.LANCHOR0,. + 0
 260              		.type	gateOpen, %object
 261              		.size	gateOpen, 4
 262              	gateOpen:
 263 0000 00000000 		.space	4
 264 0004 00000000 		.space	4
 265              		.type	savedUnixTime, %object
 266              		.size	savedUnixTime, 8
 267              	savedUnixTime:
 268 0008 00000000 		.space	8
 268      00000000 
 269              		.type	savedRecentMs, %object
 270              		.size	savedRecentMs, 4
 271              	savedRecentMs:
 272 0010 00000000 		.space	4
 273              		.text
 274              	.Letext0:
 275              		.file 2 "c:\\program files (x86)\\cypress\\psoc creator\\4.1\\psoc creator\\import\\gnu\\arm\\5.4.
 276              		.file 3 "c:\\program files (x86)\\cypress\\psoc creator\\4.1\\psoc creator\\import\\gnu\\arm\\5.4.
 277              		.file 4 "Generated_Source\\PSoC4/cytypes.h"
 278              		.file 5 "Generated_Source\\PSoC4/ble_Stack.h"
 279              		.file 6 "./appGlobal.h"
 280              		.file 7 "Generated_Source\\PSoC4/RTC.h"
 281              		.file 8 "Generated_Source\\PSoC4/GATE_INT.h"
 282              		.file 9 "./..\\..\\common\\lib\\lib_RTC\\RTC_WDT.h"
 283              		.file 10 "Generated_Source\\PSoC4/GatePin.h"