ARM GAS  C:\Users\Petro\AppData\Local\Temp\ccEiKVD5.s 			page 1


   1              		.syntax unified
   2              		.cpu cortex-m0
   3              		.fpu softvfp
   4              		.eabi_attribute 20, 1
   5              		.eabi_attribute 21, 1
   6              		.eabi_attribute 23, 3
   7              		.eabi_attribute 24, 1
   8              		.eabi_attribute 25, 1
   9              		.eabi_attribute 26, 1
  10              		.eabi_attribute 30, 4
  11              		.eabi_attribute 34, 0
  12              		.eabi_attribute 18, 4
  13              		.thumb
  14              		.syntax unified
  15              		.file	"LCD5110_Graph.c"
  16              		.text
  17              	.Ltext0:
  18              		.cfi_sections	.debug_frame
  19              		.section	.text._convert_float,"ax",%progbits
  20              		.align	1
  21              		.global	_convert_float
  22              		.code	16
  23              		.thumb_func
  24              		.type	_convert_float, %function
  25              	_convert_float:
  26              	.LFB63:
  27              		.file 1 "./..\\..\\common\\lib\\nokia5110/HW_ARM.h"
   1:./..\..\common\lib\nokia5110/HW_ARM.h **** #include "stdio.h"
   2:./..\..\common\lib\nokia5110/HW_ARM.h **** #include "stdint.h"
   3:./..\..\common\lib\nokia5110/HW_ARM.h **** 
   4:./..\..\common\lib\nokia5110/HW_ARM.h **** void _convert_float(char *buf, double num, int width, uint8_t prec)
   5:./..\..\common\lib\nokia5110/HW_ARM.h **** {
  28              		.loc 1 5 0
  29              		.cfi_startproc
  30              		@ args = 8, pretend = 0, frame = 16
  31              		@ frame_needed = 0, uses_anonymous_args = 0
  32              	.LVL0:
  33 0000 7FB5     		push	{r0, r1, r2, r3, r4, r5, r6, lr}
  34              		.cfi_def_cfa_offset 32
  35              		.cfi_offset 0, -32
  36              		.cfi_offset 1, -28
  37              		.cfi_offset 2, -24
  38              		.cfi_offset 3, -20
  39              		.cfi_offset 4, -16
  40              		.cfi_offset 5, -12
  41              		.cfi_offset 6, -8
  42              		.cfi_offset 14, -4
  43              		.loc 1 5 0
  44 0002 0600     		movs	r6, r0
  45 0004 1D00     		movs	r5, r3
  46 0006 1400     		movs	r4, r2
  47 0008 08AB     		add	r3, sp, #32
  48              	.LVL1:
  49 000a 04CB     		ldmia	r3!, {r2}
  50              	.LVL2:
   6:./..\..\common\lib\nokia5110/HW_ARM.h **** 	char format[10];
   7:./..\..\common\lib\nokia5110/HW_ARM.h **** 	
ARM GAS  C:\Users\Petro\AppData\Local\Temp\ccEiKVD5.s 			page 2


   8:./..\..\common\lib\nokia5110/HW_ARM.h **** 	sprintf(format, "%%%i.%if", width, prec);
  51              		.loc 1 8 0
  52 000c 0549     		ldr	r1, .L2
   5:./..\..\common\lib\nokia5110/HW_ARM.h **** 	char format[10];
  53              		.loc 1 5 0
  54 000e 1B78     		ldrb	r3, [r3]
  55              	.LVL3:
  56              		.loc 1 8 0
  57 0010 01A8     		add	r0, sp, #4
  58              	.LVL4:
  59 0012 FFF7FEFF 		bl	sprintf
  60              	.LVL5:
   9:./..\..\common\lib\nokia5110/HW_ARM.h **** 	sprintf(buf, format, num);
  61              		.loc 1 9 0
  62 0016 2B00     		movs	r3, r5
  63 0018 3000     		movs	r0, r6
  64 001a 2200     		movs	r2, r4
  65 001c 01A9     		add	r1, sp, #4
  66 001e FFF7FEFF 		bl	sprintf
  67              	.LVL6:
  10:./..\..\common\lib\nokia5110/HW_ARM.h **** }
  68              		.loc 1 10 0
  69              		@ sp needed
  70              	.LVL7:
  71 0022 7FBD     		pop	{r0, r1, r2, r3, r4, r5, r6, pc}
  72              	.L3:
  73              		.align	2
  74              	.L2:
  75 0024 00000000 		.word	.LC0
  76              		.cfi_endproc
  77              	.LFE63:
  78              		.size	_convert_float, .-_convert_float
  79              		.section	.text._LCD_Write,"ax",%progbits
  80              		.align	1
  81              		.global	_LCD_Write
  82              		.code	16
  83              		.thumb_func
  84              		.type	_LCD_Write, %function
  85              	_LCD_Write:
  86              	.LFB64:
  87              		.file 2 "..\\..\\common\\lib\\nokia5110\\LCD5110_Graph.c"
   1:..\..\common\lib\nokia5110/LCD5110_Graph.c **** /*
   2:..\..\common\lib\nokia5110/LCD5110_Graph.c ****   LCD5110_Graph.cpp - Arduino/chipKit library support for Nokia 5110 compatible LCDs
   3:..\..\common\lib\nokia5110/LCD5110_Graph.c ****   Copyright (C)2015 Rinky-Dink Electronics, Henning Karlsen. All right reserved
   4:..\..\common\lib\nokia5110/LCD5110_Graph.c ****   
   5:..\..\common\lib\nokia5110/LCD5110_Graph.c ****   Basic functionality of this library are based on the demo-code provided by
   6:..\..\common\lib\nokia5110/LCD5110_Graph.c ****   ITead studio. You can find the latest version of the library at
   7:..\..\common\lib\nokia5110/LCD5110_Graph.c ****   http://www.RinkyDinkElectronics.com/
   8:..\..\common\lib\nokia5110/LCD5110_Graph.c **** 
   9:..\..\common\lib\nokia5110/LCD5110_Graph.c ****   This library has been made to make it easy to use the Nokia 5110 LCD module 
  10:..\..\common\lib\nokia5110/LCD5110_Graph.c ****   as a graphics display on an Arduino or a chipKit.
  11:..\..\common\lib\nokia5110/LCD5110_Graph.c **** 
  12:..\..\common\lib\nokia5110/LCD5110_Graph.c ****   This library is free software; you can redistribute it and/or
  13:..\..\common\lib\nokia5110/LCD5110_Graph.c ****   modify it under the terms of the CC BY-NC-SA 3.0 license.
  14:..\..\common\lib\nokia5110/LCD5110_Graph.c ****   Please see the included documents for further information.
  15:..\..\common\lib\nokia5110/LCD5110_Graph.c **** 
  16:..\..\common\lib\nokia5110/LCD5110_Graph.c ****   Commercial use of this library requires you to buy a license that
ARM GAS  C:\Users\Petro\AppData\Local\Temp\ccEiKVD5.s 			page 3


  17:..\..\common\lib\nokia5110/LCD5110_Graph.c ****   will allow commercial use. This includes using the library,
  18:..\..\common\lib\nokia5110/LCD5110_Graph.c ****   modified or not, as a tool to sell products.
  19:..\..\common\lib\nokia5110/LCD5110_Graph.c **** 
  20:..\..\common\lib\nokia5110/LCD5110_Graph.c ****   The license applies to all part of the library including the 
  21:..\..\common\lib\nokia5110/LCD5110_Graph.c ****   examples and tools supplied with the library.
  22:..\..\common\lib\nokia5110/LCD5110_Graph.c **** */
  23:..\..\common\lib\nokia5110/LCD5110_Graph.c **** 
  24:..\..\common\lib\nokia5110/LCD5110_Graph.c **** #include "LCD5110_Graph.h"
  25:..\..\common\lib\nokia5110/LCD5110_Graph.c **** #include "stdlib.h"
  26:..\..\common\lib\nokia5110/LCD5110_Graph.c **** 
  27:..\..\common\lib\nokia5110/LCD5110_Graph.c **** #if defined(__AVR__)
  28:..\..\common\lib\nokia5110/LCD5110_Graph.c **** 	#include <avr/pgmspace.h>
  29:..\..\common\lib\nokia5110/LCD5110_Graph.c **** 	#include "hardware/avr/HW_AVR.h"
  30:..\..\common\lib\nokia5110/LCD5110_Graph.c **** #elif defined(__PIC32MX__)
  31:..\..\common\lib\nokia5110/LCD5110_Graph.c **** 	#pragma message("Compiling for PIC32 Architecture...")
  32:..\..\common\lib\nokia5110/LCD5110_Graph.c **** 	#include "hardware/pic32/HW_PIC32.h"
  33:..\..\common\lib\nokia5110/LCD5110_Graph.c **** #elif defined(__arm__)
  34:..\..\common\lib\nokia5110/LCD5110_Graph.c **** 	//#pragma message("Compiling for ARM Architecture...")
  35:..\..\common\lib\nokia5110/LCD5110_Graph.c **** 	#include "..\..\common\lib\nokia5110/HW_ARM.h"
  36:..\..\common\lib\nokia5110/LCD5110_Graph.c **** #endif
  37:..\..\common\lib\nokia5110/LCD5110_Graph.c **** 
  38:..\..\common\lib\nokia5110/LCD5110_Graph.c **** //void LCD5110(int SCK, int MOSI, int DC, int RST, int CS)
  39:..\..\common\lib\nokia5110/LCD5110_Graph.c **** //{ 
  40:..\..\common\lib\nokia5110/LCD5110_Graph.c **** //	P_SCK	= portOutputRegister(digitalPinToPort(SCK));
  41:..\..\common\lib\nokia5110/LCD5110_Graph.c **** //	B_SCK	= digitalPinToBitMask(SCK);
  42:..\..\common\lib\nokia5110/LCD5110_Graph.c **** //	P_MOSI	= portOutputRegister(digitalPinToPort(MOSI));
  43:..\..\common\lib\nokia5110/LCD5110_Graph.c **** //	B_MOSI	= digitalPinToBitMask(MOSI);
  44:..\..\common\lib\nokia5110/LCD5110_Graph.c **** //	P_DC	= portOutputRegister(digitalPinToPort(DC));
  45:..\..\common\lib\nokia5110/LCD5110_Graph.c **** //	B_DC	= digitalPinToBitMask(DC);
  46:..\..\common\lib\nokia5110/LCD5110_Graph.c **** //	P_RST	= portOutputRegister(digitalPinToPort(RST));
  47:..\..\common\lib\nokia5110/LCD5110_Graph.c **** //	B_RST	= digitalPinToBitMask(RST);
  48:..\..\common\lib\nokia5110/LCD5110_Graph.c **** //	P_CS	= portOutputRegister(digitalPinToPort(CS));
  49:..\..\common\lib\nokia5110/LCD5110_Graph.c **** //	B_CS	= digitalPinToBitMask(CS);
  50:..\..\common\lib\nokia5110/LCD5110_Graph.c **** //	pinMode(SCK,OUTPUT);
  51:..\..\common\lib\nokia5110/LCD5110_Graph.c **** //	pinMode(MOSI,OUTPUT);
  52:..\..\common\lib\nokia5110/LCD5110_Graph.c **** //	pinMode(DC,OUTPUT);
  53:..\..\common\lib\nokia5110/LCD5110_Graph.c **** //	pinMode(RST,OUTPUT);
  54:..\..\common\lib\nokia5110/LCD5110_Graph.c **** //	pinMode(CS,OUTPUT);
  55:..\..\common\lib\nokia5110/LCD5110_Graph.c **** //	SCK_Pin=SCK;
  56:..\..\common\lib\nokia5110/LCD5110_Graph.c **** //	RST_Pin=RST;
  57:..\..\common\lib\nokia5110/LCD5110_Graph.c **** //}
  58:..\..\common\lib\nokia5110/LCD5110_Graph.c **** 
  59:..\..\common\lib\nokia5110/LCD5110_Graph.c **** void _LCD_Write(unsigned char data, unsigned char mode)
  60:..\..\common\lib\nokia5110/LCD5110_Graph.c **** {   
  88              		.loc 2 60 0
  89              		.cfi_startproc
  90              		@ args = 0, pretend = 0, frame = 0
  91              		@ frame_needed = 0, uses_anonymous_args = 0
  92              	.LVL8:
  93 0000 10B5     		push	{r4, lr}
  94              		.cfi_def_cfa_offset 8
  95              		.cfi_offset 4, -8
  96              		.cfi_offset 14, -4
  97              		.loc 2 60 0
  98 0002 0400     		movs	r4, r0
  61:..\..\common\lib\nokia5110/LCD5110_Graph.c ****     //cbi(P_CS, B_CS);
  62:..\..\common\lib\nokia5110/LCD5110_Graph.c **** 
ARM GAS  C:\Users\Petro\AppData\Local\Temp\ccEiKVD5.s 			page 4


  63:..\..\common\lib\nokia5110/LCD5110_Graph.c **** 	if (mode==LCD_COMMAND)
  64:..\..\common\lib\nokia5110/LCD5110_Graph.c **** 		//cbi(P_DC, B_DC);
  65:..\..\common\lib\nokia5110/LCD5110_Graph.c ****         DC_Write(0);
  99              		.loc 2 65 0
 100 0004 081E     		subs	r0, r1, #0
 101              	.LVL9:
  63:..\..\common\lib\nokia5110/LCD5110_Graph.c **** 		//cbi(P_DC, B_DC);
 102              		.loc 2 63 0
 103 0006 00D0     		beq	.L7
  66:..\..\common\lib\nokia5110/LCD5110_Graph.c **** 	else
  67:..\..\common\lib\nokia5110/LCD5110_Graph.c **** 		//sbi(P_DC, B_DC);
  68:..\..\common\lib\nokia5110/LCD5110_Graph.c ****         DC_Write(1);
 104              		.loc 2 68 0
 105 0008 0120     		movs	r0, #1
 106              	.L7:
 107 000a FFF7FEFF 		bl	DC_Write
 108              	.LVL10:
  69:..\..\common\lib\nokia5110/LCD5110_Graph.c **** 
  70:..\..\common\lib\nokia5110/LCD5110_Graph.c **** //    char c;
  71:..\..\common\lib\nokia5110/LCD5110_Graph.c **** //	for (c=0; c<8; c++)
  72:..\..\common\lib\nokia5110/LCD5110_Graph.c **** //	{
  73:..\..\common\lib\nokia5110/LCD5110_Graph.c **** //		if (data & 0x80)
  74:..\..\common\lib\nokia5110/LCD5110_Graph.c **** //			sbi(P_MOSI, B_MOSI);
  75:..\..\common\lib\nokia5110/LCD5110_Graph.c **** //		else
  76:..\..\common\lib\nokia5110/LCD5110_Graph.c **** //			cbi(P_MOSI, B_MOSI);
  77:..\..\common\lib\nokia5110/LCD5110_Graph.c **** //		data = data<<1;
  78:..\..\common\lib\nokia5110/LCD5110_Graph.c **** //		pulseClock;
  79:..\..\common\lib\nokia5110/LCD5110_Graph.c **** //	}
  80:..\..\common\lib\nokia5110/LCD5110_Graph.c ****     //SPIM_WriteTxData(data);
  81:..\..\common\lib\nokia5110/LCD5110_Graph.c ****     CE_Write(0);
 109              		.loc 2 81 0
 110 000e 0020     		movs	r0, #0
 111 0010 FFF7FEFF 		bl	CE_Write
 112              	.LVL11:
  82:..\..\common\lib\nokia5110/LCD5110_Graph.c ****     SwSPI_Master_SendByte(data);
 113              		.loc 2 82 0
 114 0014 2000     		movs	r0, r4
 115 0016 FFF7FEFF 		bl	SwSPI_Master_SendByte
 116              	.LVL12:
  83:..\..\common\lib\nokia5110/LCD5110_Graph.c ****     CE_Write(1);
 117              		.loc 2 83 0
 118 001a 0120     		movs	r0, #1
 119 001c FFF7FEFF 		bl	CE_Write
 120              	.LVL13:
  84:..\..\common\lib\nokia5110/LCD5110_Graph.c **** 
  85:..\..\common\lib\nokia5110/LCD5110_Graph.c **** 	//sbi(P_CS, B_CS);
  86:..\..\common\lib\nokia5110/LCD5110_Graph.c **** }
 121              		.loc 2 86 0
 122              		@ sp needed
 123 0020 10BD     		pop	{r4, pc}
 124              		.cfi_endproc
 125              	.LFE64:
 126              		.size	_LCD_Write, .-_LCD_Write
 127              		.section	.text.setContrast,"ax",%progbits
 128              		.align	1
 129              		.global	setContrast
 130              		.code	16
ARM GAS  C:\Users\Petro\AppData\Local\Temp\ccEiKVD5.s 			page 5


 131              		.thumb_func
 132              		.type	setContrast, %function
 133              	setContrast:
 134              	.LFB66:
  87:..\..\common\lib\nokia5110/LCD5110_Graph.c **** 
  88:..\..\common\lib\nokia5110/LCD5110_Graph.c **** void InitLCD(int contrast)
  89:..\..\common\lib\nokia5110/LCD5110_Graph.c **** {
  90:..\..\common\lib\nokia5110/LCD5110_Graph.c ****     //SPIM_Start();
  91:..\..\common\lib\nokia5110/LCD5110_Graph.c ****     
  92:..\..\common\lib\nokia5110/LCD5110_Graph.c **** 	if (contrast>0x7F)
  93:..\..\common\lib\nokia5110/LCD5110_Graph.c **** 		contrast=0x7F;
  94:..\..\common\lib\nokia5110/LCD5110_Graph.c **** 	if (contrast<0)
  95:..\..\common\lib\nokia5110/LCD5110_Graph.c **** 		contrast=0;
  96:..\..\common\lib\nokia5110/LCD5110_Graph.c **** 
  97:..\..\common\lib\nokia5110/LCD5110_Graph.c **** 	resetLCD;
  98:..\..\common\lib\nokia5110/LCD5110_Graph.c **** 
  99:..\..\common\lib\nokia5110/LCD5110_Graph.c **** 	_LCD_Write(PCD8544_FUNCTIONSET | PCD8544_EXTENDEDINSTRUCTION, LCD_COMMAND);
 100:..\..\common\lib\nokia5110/LCD5110_Graph.c **** 	_LCD_Write(PCD8544_SETVOP | contrast, LCD_COMMAND);
 101:..\..\common\lib\nokia5110/LCD5110_Graph.c **** 	_LCD_Write(PCD8544_SETTEMP | LCD_TEMP, LCD_COMMAND);
 102:..\..\common\lib\nokia5110/LCD5110_Graph.c **** 	_LCD_Write(PCD8544_SETBIAS | LCD_BIAS, LCD_COMMAND);
 103:..\..\common\lib\nokia5110/LCD5110_Graph.c **** 	_LCD_Write(PCD8544_FUNCTIONSET, LCD_COMMAND);
 104:..\..\common\lib\nokia5110/LCD5110_Graph.c **** 	_LCD_Write(PCD8544_SETYADDR, LCD_COMMAND);
 105:..\..\common\lib\nokia5110/LCD5110_Graph.c **** 	_LCD_Write(PCD8544_SETXADDR, LCD_COMMAND);
 106:..\..\common\lib\nokia5110/LCD5110_Graph.c **** 	_LCD_Write(PCD8544_DISPLAYCONTROL | PCD8544_DISPLAYNORMAL, LCD_COMMAND);
 107:..\..\common\lib\nokia5110/LCD5110_Graph.c **** 
 108:..\..\common\lib\nokia5110/LCD5110_Graph.c **** 	clrScr();
 109:..\..\common\lib\nokia5110/LCD5110_Graph.c **** 	update();
 110:..\..\common\lib\nokia5110/LCD5110_Graph.c **** 	cfont.font=0;
 111:..\..\common\lib\nokia5110/LCD5110_Graph.c **** 	_sleep=false;
 112:..\..\common\lib\nokia5110/LCD5110_Graph.c **** 	_contrast=contrast;
 113:..\..\common\lib\nokia5110/LCD5110_Graph.c **** }
 114:..\..\common\lib\nokia5110/LCD5110_Graph.c **** 
 115:..\..\common\lib\nokia5110/LCD5110_Graph.c **** void setContrast(int contrast)
 116:..\..\common\lib\nokia5110/LCD5110_Graph.c **** {
 135              		.loc 2 116 0
 136              		.cfi_startproc
 137              		@ args = 0, pretend = 0, frame = 0
 138              		@ frame_needed = 0, uses_anonymous_args = 0
 139              	.LVL14:
 140 0000 10B5     		push	{r4, lr}
 141              		.cfi_def_cfa_offset 8
 142              		.cfi_offset 4, -8
 143              		.cfi_offset 14, -4
 144              		.loc 2 116 0
 145 0002 0400     		movs	r4, r0
 117:..\..\common\lib\nokia5110/LCD5110_Graph.c **** 	if (contrast>0x7F)
 146              		.loc 2 117 0
 147 0004 7F28     		cmp	r0, #127
 148 0006 03DC     		bgt	.L12
 118:..\..\common\lib\nokia5110/LCD5110_Graph.c **** 		contrast=0x7F;
 119:..\..\common\lib\nokia5110/LCD5110_Graph.c **** 	if (contrast<0)
 120:..\..\common\lib\nokia5110/LCD5110_Graph.c **** 		contrast=0;
 149              		.loc 2 120 0
 150 0008 C343     		mvns	r3, r0
 151 000a DB17     		asrs	r3, r3, #31
 152 000c 1C40     		ands	r4, r3
 153 000e 00E0     		b	.L11
ARM GAS  C:\Users\Petro\AppData\Local\Temp\ccEiKVD5.s 			page 6


 154              	.L12:
 118:..\..\common\lib\nokia5110/LCD5110_Graph.c **** 		contrast=0x7F;
 155              		.loc 2 118 0
 156 0010 7F24     		movs	r4, #127
 157              	.LVL15:
 158              	.L11:
 121:..\..\common\lib\nokia5110/LCD5110_Graph.c **** 	_LCD_Write(PCD8544_FUNCTIONSET | PCD8544_EXTENDEDINSTRUCTION, LCD_COMMAND);
 159              		.loc 2 121 0
 160 0012 0021     		movs	r1, #0
 161 0014 2120     		movs	r0, #33
 162 0016 FFF7FEFF 		bl	_LCD_Write
 163              	.LVL16:
 122:..\..\common\lib\nokia5110/LCD5110_Graph.c **** 	_LCD_Write(PCD8544_SETVOP | contrast, LCD_COMMAND);
 164              		.loc 2 122 0
 165 001a 8020     		movs	r0, #128
 166 001c 4042     		rsbs	r0, r0, #0
 167 001e 2043     		orrs	r0, r4
 168 0020 C0B2     		uxtb	r0, r0
 169 0022 0021     		movs	r1, #0
 170 0024 FFF7FEFF 		bl	_LCD_Write
 171              	.LVL17:
 123:..\..\common\lib\nokia5110/LCD5110_Graph.c **** 	_LCD_Write(PCD8544_FUNCTIONSET, LCD_COMMAND);
 172              		.loc 2 123 0
 173 0028 0021     		movs	r1, #0
 174 002a 2020     		movs	r0, #32
 175 002c FFF7FEFF 		bl	_LCD_Write
 176              	.LVL18:
 124:..\..\common\lib\nokia5110/LCD5110_Graph.c **** 	_contrast=contrast;
 177              		.loc 2 124 0
 178 0030 014B     		ldr	r3, .L14
 125:..\..\common\lib\nokia5110/LCD5110_Graph.c **** }
 179              		.loc 2 125 0
 180              		@ sp needed
 124:..\..\common\lib\nokia5110/LCD5110_Graph.c **** 	_contrast=contrast;
 181              		.loc 2 124 0
 182 0032 1C60     		str	r4, [r3]
 183              	.LVL19:
 184              		.loc 2 125 0
 185 0034 10BD     		pop	{r4, pc}
 186              	.L15:
 187 0036 C046     		.align	2
 188              	.L14:
 189 0038 00000000 		.word	_contrast
 190              		.cfi_endproc
 191              	.LFE66:
 192              		.size	setContrast, .-setContrast
 193              		.section	.text.enableSleep,"ax",%progbits
 194              		.align	1
 195              		.global	enableSleep
 196              		.code	16
 197              		.thumb_func
 198              		.type	enableSleep, %function
 199              	enableSleep:
 200              	.LFB67:
 126:..\..\common\lib\nokia5110/LCD5110_Graph.c **** 
 127:..\..\common\lib\nokia5110/LCD5110_Graph.c **** void enableSleep()
 128:..\..\common\lib\nokia5110/LCD5110_Graph.c **** {
ARM GAS  C:\Users\Petro\AppData\Local\Temp\ccEiKVD5.s 			page 7


 201              		.loc 2 128 0
 202              		.cfi_startproc
 203              		@ args = 0, pretend = 0, frame = 0
 204              		@ frame_needed = 0, uses_anonymous_args = 0
 129:..\..\common\lib\nokia5110/LCD5110_Graph.c **** 	_sleep = true;
 205              		.loc 2 129 0
 206 0000 0122     		movs	r2, #1
 207 0002 0C4B     		ldr	r3, .L19
 128:..\..\common\lib\nokia5110/LCD5110_Graph.c **** 	_sleep = true;
 208              		.loc 2 128 0
 209 0004 10B5     		push	{r4, lr}
 210              		.cfi_def_cfa_offset 8
 211              		.cfi_offset 4, -8
 212              		.cfi_offset 14, -4
 130:..\..\common\lib\nokia5110/LCD5110_Graph.c **** 	_LCD_Write(PCD8544_SETYADDR, LCD_COMMAND);
 213              		.loc 2 130 0
 214 0006 0021     		movs	r1, #0
 215 0008 4020     		movs	r0, #64
 129:..\..\common\lib\nokia5110/LCD5110_Graph.c **** 	_sleep = true;
 216              		.loc 2 129 0
 217 000a 1A70     		strb	r2, [r3]
 131:..\..\common\lib\nokia5110/LCD5110_Graph.c **** 	_LCD_Write(PCD8544_SETXADDR, LCD_COMMAND);
 218              		.loc 2 131 0
 219 000c FC24     		movs	r4, #252
 130:..\..\common\lib\nokia5110/LCD5110_Graph.c **** 	_LCD_Write(PCD8544_SETYADDR, LCD_COMMAND);
 220              		.loc 2 130 0
 221 000e FFF7FEFF 		bl	_LCD_Write
 222              	.LVL20:
 223              		.loc 2 131 0
 224 0012 0021     		movs	r1, #0
 225 0014 8020     		movs	r0, #128
 226 0016 FFF7FEFF 		bl	_LCD_Write
 227              	.LVL21:
 228 001a 6400     		lsls	r4, r4, #1
 229              	.LVL22:
 230              	.L17:
 132:..\..\common\lib\nokia5110/LCD5110_Graph.c ****     int b;
 133:..\..\common\lib\nokia5110/LCD5110_Graph.c **** 	for (b=0; b<504; b++)
 134:..\..\common\lib\nokia5110/LCD5110_Graph.c **** 		_LCD_Write(0, LCD_DATA);
 231              		.loc 2 134 0 discriminator 3
 232 001c 0121     		movs	r1, #1
 233 001e 0020     		movs	r0, #0
 234 0020 013C     		subs	r4, r4, #1
 235              	.LVL23:
 236 0022 FFF7FEFF 		bl	_LCD_Write
 237              	.LVL24:
 133:..\..\common\lib\nokia5110/LCD5110_Graph.c **** 		_LCD_Write(0, LCD_DATA);
 238              		.loc 2 133 0 discriminator 3
 239 0026 002C     		cmp	r4, #0
 240 0028 F8D1     		bne	.L17
 135:..\..\common\lib\nokia5110/LCD5110_Graph.c **** 	_LCD_Write(PCD8544_FUNCTIONSET | PCD8544_POWERDOWN, LCD_COMMAND);
 241              		.loc 2 135 0
 242 002a 2100     		movs	r1, r4
 243 002c 2420     		movs	r0, #36
 244 002e FFF7FEFF 		bl	_LCD_Write
 245              	.LVL25:
 136:..\..\common\lib\nokia5110/LCD5110_Graph.c **** }
ARM GAS  C:\Users\Petro\AppData\Local\Temp\ccEiKVD5.s 			page 8


 246              		.loc 2 136 0
 247              		@ sp needed
 248 0032 10BD     		pop	{r4, pc}
 249              	.L20:
 250              		.align	2
 251              	.L19:
 252 0034 00000000 		.word	_sleep
 253              		.cfi_endproc
 254              	.LFE67:
 255              		.size	enableSleep, .-enableSleep
 256              		.section	.text.update,"ax",%progbits
 257              		.align	1
 258              		.global	update
 259              		.code	16
 260              		.thumb_func
 261              		.type	update, %function
 262              	update:
 263              	.LFB69:
 137:..\..\common\lib\nokia5110/LCD5110_Graph.c **** 
 138:..\..\common\lib\nokia5110/LCD5110_Graph.c **** void disableSleep()
 139:..\..\common\lib\nokia5110/LCD5110_Graph.c **** {
 140:..\..\common\lib\nokia5110/LCD5110_Graph.c **** 	_sleep = false;
 141:..\..\common\lib\nokia5110/LCD5110_Graph.c **** 	_LCD_Write(PCD8544_FUNCTIONSET | PCD8544_EXTENDEDINSTRUCTION, LCD_COMMAND);
 142:..\..\common\lib\nokia5110/LCD5110_Graph.c **** 	_LCD_Write(PCD8544_SETVOP | _contrast, LCD_COMMAND);
 143:..\..\common\lib\nokia5110/LCD5110_Graph.c **** 	_LCD_Write(PCD8544_SETTEMP | LCD_TEMP, LCD_COMMAND);
 144:..\..\common\lib\nokia5110/LCD5110_Graph.c **** 	_LCD_Write(PCD8544_SETBIAS | LCD_BIAS, LCD_COMMAND);
 145:..\..\common\lib\nokia5110/LCD5110_Graph.c **** 	_LCD_Write(PCD8544_FUNCTIONSET, LCD_COMMAND);
 146:..\..\common\lib\nokia5110/LCD5110_Graph.c **** 	_LCD_Write(PCD8544_DISPLAYCONTROL | PCD8544_DISPLAYNORMAL, LCD_COMMAND);
 147:..\..\common\lib\nokia5110/LCD5110_Graph.c **** 	update();
 148:..\..\common\lib\nokia5110/LCD5110_Graph.c **** }
 149:..\..\common\lib\nokia5110/LCD5110_Graph.c **** 
 150:..\..\common\lib\nokia5110/LCD5110_Graph.c **** void update()
 151:..\..\common\lib\nokia5110/LCD5110_Graph.c **** {
 264              		.loc 2 151 0
 265              		.cfi_startproc
 266              		@ args = 0, pretend = 0, frame = 0
 267              		@ frame_needed = 0, uses_anonymous_args = 0
 152:..\..\common\lib\nokia5110/LCD5110_Graph.c **** 	if (_sleep==false)
 268              		.loc 2 152 0
 269 0000 0B4B     		ldr	r3, .L26
 151:..\..\common\lib\nokia5110/LCD5110_Graph.c **** 	if (_sleep==false)
 270              		.loc 2 151 0
 271 0002 70B5     		push	{r4, r5, r6, lr}
 272              		.cfi_def_cfa_offset 16
 273              		.cfi_offset 4, -16
 274              		.cfi_offset 5, -12
 275              		.cfi_offset 6, -8
 276              		.cfi_offset 14, -4
 277              		.loc 2 152 0
 278 0004 1C78     		ldrb	r4, [r3]
 279 0006 002C     		cmp	r4, #0
 280 0008 11D1     		bne	.L21
 281              	.LBB11:
 282              	.LBB12:
 153:..\..\common\lib\nokia5110/LCD5110_Graph.c **** 	{
 154:..\..\common\lib\nokia5110/LCD5110_Graph.c **** 		_LCD_Write(PCD8544_SETYADDR, LCD_COMMAND);
 283              		.loc 2 154 0
ARM GAS  C:\Users\Petro\AppData\Local\Temp\ccEiKVD5.s 			page 9


 284 000a 2100     		movs	r1, r4
 285 000c 4020     		movs	r0, #64
 286 000e FFF7FEFF 		bl	_LCD_Write
 287              	.LVL26:
 155:..\..\common\lib\nokia5110/LCD5110_Graph.c **** 		_LCD_Write(PCD8544_SETXADDR, LCD_COMMAND);
 156:..\..\common\lib\nokia5110/LCD5110_Graph.c ****         int b;
 157:..\..\common\lib\nokia5110/LCD5110_Graph.c **** 		for (b=0; b<504; b++)
 288              		.loc 2 157 0
 289 0012 FC25     		movs	r5, #252
 155:..\..\common\lib\nokia5110/LCD5110_Graph.c **** 		_LCD_Write(PCD8544_SETXADDR, LCD_COMMAND);
 290              		.loc 2 155 0
 291 0014 2100     		movs	r1, r4
 292 0016 8020     		movs	r0, #128
 293 0018 FFF7FEFF 		bl	_LCD_Write
 294              	.LVL27:
 295              		.loc 2 157 0
 296 001c 6D00     		lsls	r5, r5, #1
 297              	.LVL28:
 298              	.L23:
 158:..\..\common\lib\nokia5110/LCD5110_Graph.c **** 			_LCD_Write(scrbuf[b], LCD_DATA);
 299              		.loc 2 158 0
 300 001e 054B     		ldr	r3, .L26+4
 301 0020 0121     		movs	r1, #1
 302 0022 185D     		ldrb	r0, [r3, r4]
 157:..\..\common\lib\nokia5110/LCD5110_Graph.c **** 			_LCD_Write(scrbuf[b], LCD_DATA);
 303              		.loc 2 157 0
 304 0024 0134     		adds	r4, r4, #1
 305              	.LVL29:
 306              		.loc 2 158 0
 307 0026 FFF7FEFF 		bl	_LCD_Write
 308              	.LVL30:
 157:..\..\common\lib\nokia5110/LCD5110_Graph.c **** 			_LCD_Write(scrbuf[b], LCD_DATA);
 309              		.loc 2 157 0
 310 002a AC42     		cmp	r4, r5
 311 002c F7D1     		bne	.L23
 312              	.LVL31:
 313              	.L21:
 314              	.LBE12:
 315              	.LBE11:
 159:..\..\common\lib\nokia5110/LCD5110_Graph.c **** 	}
 160:..\..\common\lib\nokia5110/LCD5110_Graph.c **** }
 316              		.loc 2 160 0
 317              		@ sp needed
 318 002e 70BD     		pop	{r4, r5, r6, pc}
 319              	.L27:
 320              		.align	2
 321              	.L26:
 322 0030 00000000 		.word	_sleep
 323 0034 00000000 		.word	scrbuf
 324              		.cfi_endproc
 325              	.LFE69:
 326              		.size	update, .-update
 327              		.section	.text.disableSleep,"ax",%progbits
 328              		.align	1
 329              		.global	disableSleep
 330              		.code	16
 331              		.thumb_func
ARM GAS  C:\Users\Petro\AppData\Local\Temp\ccEiKVD5.s 			page 10


 332              		.type	disableSleep, %function
 333              	disableSleep:
 334              	.LFB68:
 139:..\..\common\lib\nokia5110/LCD5110_Graph.c **** 	_sleep = false;
 335              		.loc 2 139 0
 336              		.cfi_startproc
 337              		@ args = 0, pretend = 0, frame = 0
 338              		@ frame_needed = 0, uses_anonymous_args = 0
 339 0000 10B5     		push	{r4, lr}
 340              		.cfi_def_cfa_offset 8
 341              		.cfi_offset 4, -8
 342              		.cfi_offset 14, -4
 140:..\..\common\lib\nokia5110/LCD5110_Graph.c **** 	_LCD_Write(PCD8544_FUNCTIONSET | PCD8544_EXTENDEDINSTRUCTION, LCD_COMMAND);
 343              		.loc 2 140 0
 344 0002 0024     		movs	r4, #0
 345 0004 104B     		ldr	r3, .L29
 141:..\..\common\lib\nokia5110/LCD5110_Graph.c **** 	_LCD_Write(PCD8544_SETVOP | _contrast, LCD_COMMAND);
 346              		.loc 2 141 0
 347 0006 2100     		movs	r1, r4
 348 0008 2120     		movs	r0, #33
 140:..\..\common\lib\nokia5110/LCD5110_Graph.c **** 	_LCD_Write(PCD8544_FUNCTIONSET | PCD8544_EXTENDEDINSTRUCTION, LCD_COMMAND);
 349              		.loc 2 140 0
 350 000a 1C70     		strb	r4, [r3]
 141:..\..\common\lib\nokia5110/LCD5110_Graph.c **** 	_LCD_Write(PCD8544_SETVOP | _contrast, LCD_COMMAND);
 351              		.loc 2 141 0
 352 000c FFF7FEFF 		bl	_LCD_Write
 353              	.LVL32:
 142:..\..\common\lib\nokia5110/LCD5110_Graph.c **** 	_LCD_Write(PCD8544_SETTEMP | LCD_TEMP, LCD_COMMAND);
 354              		.loc 2 142 0
 355 0010 8020     		movs	r0, #128
 356 0012 0E4B     		ldr	r3, .L29+4
 357 0014 4042     		rsbs	r0, r0, #0
 358 0016 1B68     		ldr	r3, [r3]
 359 0018 2100     		movs	r1, r4
 360 001a 1843     		orrs	r0, r3
 361 001c C0B2     		uxtb	r0, r0
 362 001e FFF7FEFF 		bl	_LCD_Write
 363              	.LVL33:
 143:..\..\common\lib\nokia5110/LCD5110_Graph.c **** 	_LCD_Write(PCD8544_SETBIAS | LCD_BIAS, LCD_COMMAND);
 364              		.loc 2 143 0
 365 0022 2100     		movs	r1, r4
 366 0024 0620     		movs	r0, #6
 367 0026 FFF7FEFF 		bl	_LCD_Write
 368              	.LVL34:
 144:..\..\common\lib\nokia5110/LCD5110_Graph.c **** 	_LCD_Write(PCD8544_FUNCTIONSET, LCD_COMMAND);
 369              		.loc 2 144 0
 370 002a 2100     		movs	r1, r4
 371 002c 1320     		movs	r0, #19
 372 002e FFF7FEFF 		bl	_LCD_Write
 373              	.LVL35:
 145:..\..\common\lib\nokia5110/LCD5110_Graph.c **** 	_LCD_Write(PCD8544_DISPLAYCONTROL | PCD8544_DISPLAYNORMAL, LCD_COMMAND);
 374              		.loc 2 145 0
 375 0032 2100     		movs	r1, r4
 376 0034 2020     		movs	r0, #32
 377 0036 FFF7FEFF 		bl	_LCD_Write
 378              	.LVL36:
 146:..\..\common\lib\nokia5110/LCD5110_Graph.c **** 	update();
ARM GAS  C:\Users\Petro\AppData\Local\Temp\ccEiKVD5.s 			page 11


 379              		.loc 2 146 0
 380 003a 2100     		movs	r1, r4
 381 003c 0C20     		movs	r0, #12
 382 003e FFF7FEFF 		bl	_LCD_Write
 383              	.LVL37:
 148:..\..\common\lib\nokia5110/LCD5110_Graph.c **** 
 384              		.loc 2 148 0
 385              		@ sp needed
 147:..\..\common\lib\nokia5110/LCD5110_Graph.c **** }
 386              		.loc 2 147 0
 387 0042 FFF7FEFF 		bl	update
 388              	.LVL38:
 148:..\..\common\lib\nokia5110/LCD5110_Graph.c **** 
 389              		.loc 2 148 0
 390 0046 10BD     		pop	{r4, pc}
 391              	.L30:
 392              		.align	2
 393              	.L29:
 394 0048 00000000 		.word	_sleep
 395 004c 00000000 		.word	_contrast
 396              		.cfi_endproc
 397              	.LFE68:
 398              		.size	disableSleep, .-disableSleep
 399              		.section	.text.clrScr,"ax",%progbits
 400              		.align	1
 401              		.global	clrScr
 402              		.code	16
 403              		.thumb_func
 404              		.type	clrScr, %function
 405              	clrScr:
 406              	.LFB70:
 161:..\..\common\lib\nokia5110/LCD5110_Graph.c **** 
 162:..\..\common\lib\nokia5110/LCD5110_Graph.c **** void clrScr()
 163:..\..\common\lib\nokia5110/LCD5110_Graph.c **** {
 407              		.loc 2 163 0
 408              		.cfi_startproc
 409              		@ args = 0, pretend = 0, frame = 0
 410              		@ frame_needed = 0, uses_anonymous_args = 0
 411              	.LVL39:
 164:..\..\common\lib\nokia5110/LCD5110_Graph.c ****     int c;
 165:..\..\common\lib\nokia5110/LCD5110_Graph.c **** 	for (c=0; c<504; c++)
 412              		.loc 2 165 0
 413 0000 0023     		movs	r3, #0
 414 0002 FC22     		movs	r2, #252
 166:..\..\common\lib\nokia5110/LCD5110_Graph.c **** 		scrbuf[c]=0;
 415              		.loc 2 166 0
 416 0004 1800     		movs	r0, r3
 163:..\..\common\lib\nokia5110/LCD5110_Graph.c ****     int c;
 417              		.loc 2 163 0
 418 0006 10B5     		push	{r4, lr}
 419              		.cfi_def_cfa_offset 8
 420              		.cfi_offset 4, -8
 421              		.cfi_offset 14, -4
 422              		.loc 2 166 0
 423 0008 034C     		ldr	r4, .L34
 165:..\..\common\lib\nokia5110/LCD5110_Graph.c **** 		scrbuf[c]=0;
 424              		.loc 2 165 0
ARM GAS  C:\Users\Petro\AppData\Local\Temp\ccEiKVD5.s 			page 12


 425 000a 5200     		lsls	r2, r2, #1
 426              	.LVL40:
 427              	.L32:
 428              		.loc 2 166 0 discriminator 3
 429 000c 1919     		adds	r1, r3, r4
 165:..\..\common\lib\nokia5110/LCD5110_Graph.c **** 		scrbuf[c]=0;
 430              		.loc 2 165 0 discriminator 3
 431 000e 0133     		adds	r3, r3, #1
 432              	.LVL41:
 433              		.loc 2 166 0 discriminator 3
 434 0010 0870     		strb	r0, [r1]
 165:..\..\common\lib\nokia5110/LCD5110_Graph.c **** 		scrbuf[c]=0;
 435              		.loc 2 165 0 discriminator 3
 436 0012 9342     		cmp	r3, r2
 437 0014 FAD1     		bne	.L32
 167:..\..\common\lib\nokia5110/LCD5110_Graph.c **** }
 438              		.loc 2 167 0
 439              		@ sp needed
 440 0016 10BD     		pop	{r4, pc}
 441              	.L35:
 442              		.align	2
 443              	.L34:
 444 0018 00000000 		.word	scrbuf
 445              		.cfi_endproc
 446              	.LFE70:
 447              		.size	clrScr, .-clrScr
 448              		.section	.text.InitLCD,"ax",%progbits
 449              		.align	1
 450              		.global	InitLCD
 451              		.code	16
 452              		.thumb_func
 453              		.type	InitLCD, %function
 454              	InitLCD:
 455              	.LFB65:
  89:..\..\common\lib\nokia5110/LCD5110_Graph.c ****     //SPIM_Start();
 456              		.loc 2 89 0
 457              		.cfi_startproc
 458              		@ args = 0, pretend = 0, frame = 0
 459              		@ frame_needed = 0, uses_anonymous_args = 0
 460              	.LVL42:
 461 0000 10B5     		push	{r4, lr}
 462              		.cfi_def_cfa_offset 8
 463              		.cfi_offset 4, -8
 464              		.cfi_offset 14, -4
  89:..\..\common\lib\nokia5110/LCD5110_Graph.c ****     //SPIM_Start();
 465              		.loc 2 89 0
 466 0002 0400     		movs	r4, r0
  92:..\..\common\lib\nokia5110/LCD5110_Graph.c **** 		contrast=0x7F;
 467              		.loc 2 92 0
 468 0004 7F28     		cmp	r0, #127
 469 0006 03DC     		bgt	.L39
  95:..\..\common\lib\nokia5110/LCD5110_Graph.c **** 
 470              		.loc 2 95 0
 471 0008 C343     		mvns	r3, r0
 472 000a DB17     		asrs	r3, r3, #31
 473 000c 1C40     		ands	r4, r3
 474 000e 00E0     		b	.L38
ARM GAS  C:\Users\Petro\AppData\Local\Temp\ccEiKVD5.s 			page 13


 475              	.L39:
  93:..\..\common\lib\nokia5110/LCD5110_Graph.c **** 	if (contrast<0)
 476              		.loc 2 93 0
 477 0010 7F24     		movs	r4, #127
 478              	.LVL43:
 479              	.L38:
  97:..\..\common\lib\nokia5110/LCD5110_Graph.c **** 
 480              		.loc 2 97 0
 481 0012 0020     		movs	r0, #0
 482 0014 FFF7FEFF 		bl	RST_Write
 483              	.LVL44:
 484 0018 0120     		movs	r0, #1
 485 001a FFF7FEFF 		bl	RST_Write
 486              	.LVL45:
  99:..\..\common\lib\nokia5110/LCD5110_Graph.c **** 	_LCD_Write(PCD8544_SETVOP | contrast, LCD_COMMAND);
 487              		.loc 2 99 0
 488 001e 0021     		movs	r1, #0
 489 0020 2120     		movs	r0, #33
 490 0022 FFF7FEFF 		bl	_LCD_Write
 491              	.LVL46:
 100:..\..\common\lib\nokia5110/LCD5110_Graph.c **** 	_LCD_Write(PCD8544_SETTEMP | LCD_TEMP, LCD_COMMAND);
 492              		.loc 2 100 0
 493 0026 8020     		movs	r0, #128
 494 0028 4042     		rsbs	r0, r0, #0
 495 002a 2043     		orrs	r0, r4
 496 002c C0B2     		uxtb	r0, r0
 497 002e 0021     		movs	r1, #0
 498 0030 FFF7FEFF 		bl	_LCD_Write
 499              	.LVL47:
 101:..\..\common\lib\nokia5110/LCD5110_Graph.c **** 	_LCD_Write(PCD8544_SETBIAS | LCD_BIAS, LCD_COMMAND);
 500              		.loc 2 101 0
 501 0034 0021     		movs	r1, #0
 502 0036 0620     		movs	r0, #6
 503 0038 FFF7FEFF 		bl	_LCD_Write
 504              	.LVL48:
 102:..\..\common\lib\nokia5110/LCD5110_Graph.c **** 	_LCD_Write(PCD8544_FUNCTIONSET, LCD_COMMAND);
 505              		.loc 2 102 0
 506 003c 0021     		movs	r1, #0
 507 003e 1320     		movs	r0, #19
 508 0040 FFF7FEFF 		bl	_LCD_Write
 509              	.LVL49:
 103:..\..\common\lib\nokia5110/LCD5110_Graph.c **** 	_LCD_Write(PCD8544_SETYADDR, LCD_COMMAND);
 510              		.loc 2 103 0
 511 0044 0021     		movs	r1, #0
 512 0046 2020     		movs	r0, #32
 513 0048 FFF7FEFF 		bl	_LCD_Write
 514              	.LVL50:
 104:..\..\common\lib\nokia5110/LCD5110_Graph.c **** 	_LCD_Write(PCD8544_SETXADDR, LCD_COMMAND);
 515              		.loc 2 104 0
 516 004c 0021     		movs	r1, #0
 517 004e 4020     		movs	r0, #64
 518 0050 FFF7FEFF 		bl	_LCD_Write
 519              	.LVL51:
 105:..\..\common\lib\nokia5110/LCD5110_Graph.c **** 	_LCD_Write(PCD8544_DISPLAYCONTROL | PCD8544_DISPLAYNORMAL, LCD_COMMAND);
 520              		.loc 2 105 0
 521 0054 0021     		movs	r1, #0
 522 0056 8020     		movs	r0, #128
ARM GAS  C:\Users\Petro\AppData\Local\Temp\ccEiKVD5.s 			page 14


 523 0058 FFF7FEFF 		bl	_LCD_Write
 524              	.LVL52:
 106:..\..\common\lib\nokia5110/LCD5110_Graph.c **** 
 525              		.loc 2 106 0
 526 005c 0021     		movs	r1, #0
 527 005e 0C20     		movs	r0, #12
 528 0060 FFF7FEFF 		bl	_LCD_Write
 529              	.LVL53:
 108:..\..\common\lib\nokia5110/LCD5110_Graph.c **** 	update();
 530              		.loc 2 108 0
 531 0064 FFF7FEFF 		bl	clrScr
 532              	.LVL54:
 109:..\..\common\lib\nokia5110/LCD5110_Graph.c **** 	cfont.font=0;
 533              		.loc 2 109 0
 534 0068 FFF7FEFF 		bl	update
 535              	.LVL55:
 110:..\..\common\lib\nokia5110/LCD5110_Graph.c **** 	_sleep=false;
 536              		.loc 2 110 0
 537 006c 0023     		movs	r3, #0
 538 006e 034A     		ldr	r2, .L41
 113:..\..\common\lib\nokia5110/LCD5110_Graph.c **** 
 539              		.loc 2 113 0
 540              		@ sp needed
 110:..\..\common\lib\nokia5110/LCD5110_Graph.c **** 	_sleep=false;
 541              		.loc 2 110 0
 542 0070 1360     		str	r3, [r2]
 111:..\..\common\lib\nokia5110/LCD5110_Graph.c **** 	_contrast=contrast;
 543              		.loc 2 111 0
 544 0072 034A     		ldr	r2, .L41+4
 545 0074 1370     		strb	r3, [r2]
 112:..\..\common\lib\nokia5110/LCD5110_Graph.c **** }
 546              		.loc 2 112 0
 547 0076 034B     		ldr	r3, .L41+8
 548 0078 1C60     		str	r4, [r3]
 549              	.LVL56:
 113:..\..\common\lib\nokia5110/LCD5110_Graph.c **** 
 550              		.loc 2 113 0
 551 007a 10BD     		pop	{r4, pc}
 552              	.L42:
 553              		.align	2
 554              	.L41:
 555 007c 00000000 		.word	cfont
 556 0080 00000000 		.word	_sleep
 557 0084 00000000 		.word	_contrast
 558              		.cfi_endproc
 559              	.LFE65:
 560              		.size	InitLCD, .-InitLCD
 561              		.section	.text.fillScr,"ax",%progbits
 562              		.align	1
 563              		.global	fillScr
 564              		.code	16
 565              		.thumb_func
 566              		.type	fillScr, %function
 567              	fillScr:
 568              	.LFB71:
 168:..\..\common\lib\nokia5110/LCD5110_Graph.c **** 
 169:..\..\common\lib\nokia5110/LCD5110_Graph.c **** void fillScr()
ARM GAS  C:\Users\Petro\AppData\Local\Temp\ccEiKVD5.s 			page 15


 170:..\..\common\lib\nokia5110/LCD5110_Graph.c **** {
 569              		.loc 2 170 0
 570              		.cfi_startproc
 571              		@ args = 0, pretend = 0, frame = 0
 572              		@ frame_needed = 0, uses_anonymous_args = 0
 573              		@ link register save eliminated.
 574              	.LVL57:
 171:..\..\common\lib\nokia5110/LCD5110_Graph.c ****     int c;
 172:..\..\common\lib\nokia5110/LCD5110_Graph.c **** 	for (c=0; c<504; c++)
 575              		.loc 2 172 0
 576 0000 FC22     		movs	r2, #252
 577 0002 0023     		movs	r3, #0
 173:..\..\common\lib\nokia5110/LCD5110_Graph.c **** 		scrbuf[c]=255;
 578              		.loc 2 173 0
 579 0004 FF20     		movs	r0, #255
 580 0006 0349     		ldr	r1, .L46
 172:..\..\common\lib\nokia5110/LCD5110_Graph.c **** 		scrbuf[c]=255;
 581              		.loc 2 172 0
 582 0008 5200     		lsls	r2, r2, #1
 583              	.LVL58:
 584              	.L44:
 585              		.loc 2 173 0 discriminator 3
 586 000a C854     		strb	r0, [r1, r3]
 172:..\..\common\lib\nokia5110/LCD5110_Graph.c **** 		scrbuf[c]=255;
 587              		.loc 2 172 0 discriminator 3
 588 000c 0133     		adds	r3, r3, #1
 589              	.LVL59:
 590 000e 9342     		cmp	r3, r2
 591 0010 FBD1     		bne	.L44
 174:..\..\common\lib\nokia5110/LCD5110_Graph.c **** }
 592              		.loc 2 174 0
 593              		@ sp needed
 594 0012 7047     		bx	lr
 595              	.L47:
 596              		.align	2
 597              	.L46:
 598 0014 00000000 		.word	scrbuf
 599              		.cfi_endproc
 600              	.LFE71:
 601              		.size	fillScr, .-fillScr
 602              		.section	.text.invert,"ax",%progbits
 603              		.align	1
 604              		.global	invert
 605              		.code	16
 606              		.thumb_func
 607              		.type	invert, %function
 608              	invert:
 609              	.LFB72:
 175:..\..\common\lib\nokia5110/LCD5110_Graph.c **** 
 176:..\..\common\lib\nokia5110/LCD5110_Graph.c **** void invert(bool mode)
 177:..\..\common\lib\nokia5110/LCD5110_Graph.c **** {
 610              		.loc 2 177 0
 611              		.cfi_startproc
 612              		@ args = 0, pretend = 0, frame = 0
 613              		@ frame_needed = 0, uses_anonymous_args = 0
 614              	.LVL60:
 615 0000 0100     		movs	r1, r0
ARM GAS  C:\Users\Petro\AppData\Local\Temp\ccEiKVD5.s 			page 16


 616 0002 10B5     		push	{r4, lr}
 617              		.cfi_def_cfa_offset 8
 618              		.cfi_offset 4, -8
 619              		.cfi_offset 14, -4
 178:..\..\common\lib\nokia5110/LCD5110_Graph.c **** 	if (mode==true)
 179:..\..\common\lib\nokia5110/LCD5110_Graph.c **** 		_LCD_Write(PCD8544_DISPLAYCONTROL | PCD8544_DISPLAYINVERTED, LCD_COMMAND);
 180:..\..\common\lib\nokia5110/LCD5110_Graph.c **** 	else
 181:..\..\common\lib\nokia5110/LCD5110_Graph.c **** 		_LCD_Write(PCD8544_DISPLAYCONTROL | PCD8544_DISPLAYNORMAL, LCD_COMMAND);
 620              		.loc 2 181 0
 621 0004 0C20     		movs	r0, #12
 622              	.LVL61:
 178:..\..\common\lib\nokia5110/LCD5110_Graph.c **** 	if (mode==true)
 623              		.loc 2 178 0
 624 0006 0029     		cmp	r1, #0
 625 0008 01D0     		beq	.L51
 179:..\..\common\lib\nokia5110/LCD5110_Graph.c **** 	else
 626              		.loc 2 179 0
 627 000a 0021     		movs	r1, #0
 628 000c 0D20     		movs	r0, #13
 629              	.L51:
 630              		.loc 2 181 0
 631 000e FFF7FEFF 		bl	_LCD_Write
 632              	.LVL62:
 182:..\..\common\lib\nokia5110/LCD5110_Graph.c **** }
 633              		.loc 2 182 0
 634              		@ sp needed
 635 0012 10BD     		pop	{r4, pc}
 636              		.cfi_endproc
 637              	.LFE72:
 638              		.size	invert, .-invert
 639              		.section	.text.setPixel,"ax",%progbits
 640              		.align	1
 641              		.global	setPixel
 642              		.code	16
 643              		.thumb_func
 644              		.type	setPixel, %function
 645              	setPixel:
 646              	.LFB73:
 183:..\..\common\lib\nokia5110/LCD5110_Graph.c **** 
 184:..\..\common\lib\nokia5110/LCD5110_Graph.c **** void setPixel(uint16_t x, uint16_t y)
 185:..\..\common\lib\nokia5110/LCD5110_Graph.c **** {
 647              		.loc 2 185 0
 648              		.cfi_startproc
 649              		@ args = 0, pretend = 0, frame = 0
 650              		@ frame_needed = 0, uses_anonymous_args = 0
 651              	.LVL63:
 652 0000 10B5     		push	{r4, lr}
 653              		.cfi_def_cfa_offset 8
 654              		.cfi_offset 4, -8
 655              		.cfi_offset 14, -4
 186:..\..\common\lib\nokia5110/LCD5110_Graph.c **** 	int by, bi;
 187:..\..\common\lib\nokia5110/LCD5110_Graph.c **** 
 188:..\..\common\lib\nokia5110/LCD5110_Graph.c **** 	if ((x>=0) && (x<84) && (y>=0) && (y<48))
 656              		.loc 2 188 0
 657 0002 5328     		cmp	r0, #83
 658 0004 0DD8     		bhi	.L52
 659              		.loc 2 188 0 is_stmt 0 discriminator 1
ARM GAS  C:\Users\Petro\AppData\Local\Temp\ccEiKVD5.s 			page 17


 660 0006 2F29     		cmp	r1, #47
 661 0008 0BD8     		bhi	.L52
 662              	.LVL64:
 663              	.LBB15:
 664              	.LBB16:
 189:..\..\common\lib\nokia5110/LCD5110_Graph.c **** 	{
 190:..\..\common\lib\nokia5110/LCD5110_Graph.c **** 		by=((y/8)*84)+x;
 665              		.loc 2 190 0 is_stmt 1
 666 000a 5423     		movs	r3, #84
 667 000c CA08     		lsrs	r2, r1, #3
 668 000e 5343     		muls	r3, r2
 669 0010 1818     		adds	r0, r3, r0
 670              	.LVL65:
 191:..\..\common\lib\nokia5110/LCD5110_Graph.c **** 		bi=y % 8;
 192:..\..\common\lib\nokia5110/LCD5110_Graph.c **** 
 193:..\..\common\lib\nokia5110/LCD5110_Graph.c **** 		scrbuf[by]=scrbuf[by] | (1<<bi);
 671              		.loc 2 193 0
 672 0012 0723     		movs	r3, #7
 673 0014 1940     		ands	r1, r3
 674              	.LVL66:
 675 0016 063B     		subs	r3, r3, #6
 676 0018 8B40     		lsls	r3, r3, r1
 677 001a 024C     		ldr	r4, .L54
 678 001c 225C     		ldrb	r2, [r4, r0]
 679 001e 1343     		orrs	r3, r2
 680 0020 2354     		strb	r3, [r4, r0]
 681              	.LVL67:
 682              	.L52:
 683              	.LBE16:
 684              	.LBE15:
 194:..\..\common\lib\nokia5110/LCD5110_Graph.c **** 	}
 195:..\..\common\lib\nokia5110/LCD5110_Graph.c **** }
 685              		.loc 2 195 0
 686              		@ sp needed
 687 0022 10BD     		pop	{r4, pc}
 688              	.L55:
 689              		.align	2
 690              	.L54:
 691 0024 00000000 		.word	scrbuf
 692              		.cfi_endproc
 693              	.LFE73:
 694              		.size	setPixel, .-setPixel
 695              		.section	.text.clrPixel,"ax",%progbits
 696              		.align	1
 697              		.global	clrPixel
 698              		.code	16
 699              		.thumb_func
 700              		.type	clrPixel, %function
 701              	clrPixel:
 702              	.LFB74:
 196:..\..\common\lib\nokia5110/LCD5110_Graph.c **** 
 197:..\..\common\lib\nokia5110/LCD5110_Graph.c **** void clrPixel(uint16_t x, uint16_t y)
 198:..\..\common\lib\nokia5110/LCD5110_Graph.c **** {
 703              		.loc 2 198 0
 704              		.cfi_startproc
 705              		@ args = 0, pretend = 0, frame = 0
 706              		@ frame_needed = 0, uses_anonymous_args = 0
ARM GAS  C:\Users\Petro\AppData\Local\Temp\ccEiKVD5.s 			page 18


 707              	.LVL68:
 708 0000 10B5     		push	{r4, lr}
 709              		.cfi_def_cfa_offset 8
 710              		.cfi_offset 4, -8
 711              		.cfi_offset 14, -4
 199:..\..\common\lib\nokia5110/LCD5110_Graph.c **** 	int by, bi;
 200:..\..\common\lib\nokia5110/LCD5110_Graph.c **** 
 201:..\..\common\lib\nokia5110/LCD5110_Graph.c **** 	if ((x>=0) && (x<84) && (y>=0) && (y<48))
 712              		.loc 2 201 0
 713 0002 5328     		cmp	r0, #83
 714 0004 0DD8     		bhi	.L56
 715              		.loc 2 201 0 is_stmt 0 discriminator 1
 716 0006 2F29     		cmp	r1, #47
 717 0008 0BD8     		bhi	.L56
 718              	.LVL69:
 719              	.LBB19:
 720              	.LBB20:
 202:..\..\common\lib\nokia5110/LCD5110_Graph.c **** 	{
 203:..\..\common\lib\nokia5110/LCD5110_Graph.c **** 		by=((y/8)*84)+x;
 721              		.loc 2 203 0 is_stmt 1
 722 000a 5423     		movs	r3, #84
 723 000c CA08     		lsrs	r2, r1, #3
 724 000e 5343     		muls	r3, r2
 725 0010 1818     		adds	r0, r3, r0
 726              	.LVL70:
 204:..\..\common\lib\nokia5110/LCD5110_Graph.c **** 		bi=y % 8;
 205:..\..\common\lib\nokia5110/LCD5110_Graph.c **** 
 206:..\..\common\lib\nokia5110/LCD5110_Graph.c **** 		scrbuf[by]=scrbuf[by] & ~(1<<bi);
 727              		.loc 2 206 0
 728 0012 0723     		movs	r3, #7
 729 0014 0122     		movs	r2, #1
 730 0016 1940     		ands	r1, r3
 731              	.LVL71:
 732 0018 8A40     		lsls	r2, r2, r1
 733 001a 024C     		ldr	r4, .L58
 734 001c 235C     		ldrb	r3, [r4, r0]
 735 001e 9343     		bics	r3, r2
 736 0020 2354     		strb	r3, [r4, r0]
 737              	.LVL72:
 738              	.L56:
 739              	.LBE20:
 740              	.LBE19:
 207:..\..\common\lib\nokia5110/LCD5110_Graph.c **** 	}
 208:..\..\common\lib\nokia5110/LCD5110_Graph.c **** }
 741              		.loc 2 208 0
 742              		@ sp needed
 743 0022 10BD     		pop	{r4, pc}
 744              	.L59:
 745              		.align	2
 746              	.L58:
 747 0024 00000000 		.word	scrbuf
 748              		.cfi_endproc
 749              	.LFE74:
 750              		.size	clrPixel, .-clrPixel
 751              		.section	.text.invPixel,"ax",%progbits
 752              		.align	1
 753              		.global	invPixel
ARM GAS  C:\Users\Petro\AppData\Local\Temp\ccEiKVD5.s 			page 19


 754              		.code	16
 755              		.thumb_func
 756              		.type	invPixel, %function
 757              	invPixel:
 758              	.LFB75:
 209:..\..\common\lib\nokia5110/LCD5110_Graph.c **** 
 210:..\..\common\lib\nokia5110/LCD5110_Graph.c **** void invPixel(uint16_t x, uint16_t y)
 211:..\..\common\lib\nokia5110/LCD5110_Graph.c **** {
 759              		.loc 2 211 0
 760              		.cfi_startproc
 761              		@ args = 0, pretend = 0, frame = 0
 762              		@ frame_needed = 0, uses_anonymous_args = 0
 763              	.LVL73:
 764 0000 70B5     		push	{r4, r5, r6, lr}
 765              		.cfi_def_cfa_offset 16
 766              		.cfi_offset 4, -16
 767              		.cfi_offset 5, -12
 768              		.cfi_offset 6, -8
 769              		.cfi_offset 14, -4
 212:..\..\common\lib\nokia5110/LCD5110_Graph.c **** 	int by, bi;
 213:..\..\common\lib\nokia5110/LCD5110_Graph.c **** 
 214:..\..\common\lib\nokia5110/LCD5110_Graph.c **** 	if ((x>=0) && (x<84) && (y>=0) && (y<48))
 770              		.loc 2 214 0
 771 0002 5328     		cmp	r0, #83
 772 0004 14D8     		bhi	.L60
 773              		.loc 2 214 0 is_stmt 0 discriminator 1
 774 0006 2F29     		cmp	r1, #47
 775 0008 12D8     		bhi	.L60
 215:..\..\common\lib\nokia5110/LCD5110_Graph.c **** 	{
 216:..\..\common\lib\nokia5110/LCD5110_Graph.c **** 		by=((y/8)*84)+x;
 776              		.loc 2 216 0 is_stmt 1
 777 000a 5423     		movs	r3, #84
 778 000c CA08     		lsrs	r2, r1, #3
 779 000e 5343     		muls	r3, r2
 780 0010 1818     		adds	r0, r3, r0
 781              	.LVL74:
 217:..\..\common\lib\nokia5110/LCD5110_Graph.c **** 		bi=y % 8;
 782              		.loc 2 217 0
 783 0012 0723     		movs	r3, #7
 218:..\..\common\lib\nokia5110/LCD5110_Graph.c **** 
 219:..\..\common\lib\nokia5110/LCD5110_Graph.c **** 		if ((scrbuf[by] & (1<<bi))==0)
 784              		.loc 2 219 0
 785 0014 074A     		ldr	r2, .L64
 217:..\..\common\lib\nokia5110/LCD5110_Graph.c **** 		bi=y % 8;
 786              		.loc 2 217 0
 787 0016 1940     		ands	r1, r3
 788              	.LVL75:
 789              		.loc 2 219 0
 790 0018 135C     		ldrb	r3, [r2, r0]
 791 001a 0124     		movs	r4, #1
 792 001c 1D00     		movs	r5, r3
 793 001e 2600     		movs	r6, r4
 794 0020 0D41     		asrs	r5, r5, r1
 795 0022 8E40     		lsls	r6, r6, r1
 796 0024 2542     		tst	r5, r4
 797 0026 01D1     		bne	.L62
 220:..\..\common\lib\nokia5110/LCD5110_Graph.c **** 			scrbuf[by]=scrbuf[by] | (1<<bi);
ARM GAS  C:\Users\Petro\AppData\Local\Temp\ccEiKVD5.s 			page 20


 798              		.loc 2 220 0
 799 0028 3343     		orrs	r3, r6
 800 002a 00E0     		b	.L63
 801              	.L62:
 221:..\..\common\lib\nokia5110/LCD5110_Graph.c **** 		else
 222:..\..\common\lib\nokia5110/LCD5110_Graph.c **** 			scrbuf[by]=scrbuf[by] & ~(1<<bi);
 802              		.loc 2 222 0
 803 002c B343     		bics	r3, r6
 804              	.L63:
 805 002e 1354     		strb	r3, [r2, r0]
 806              	.LVL76:
 807              	.L60:
 223:..\..\common\lib\nokia5110/LCD5110_Graph.c **** 	}
 224:..\..\common\lib\nokia5110/LCD5110_Graph.c **** }
 808              		.loc 2 224 0
 809              		@ sp needed
 810 0030 70BD     		pop	{r4, r5, r6, pc}
 811              	.L65:
 812 0032 C046     		.align	2
 813              	.L64:
 814 0034 00000000 		.word	scrbuf
 815              		.cfi_endproc
 816              	.LFE75:
 817              		.size	invPixel, .-invPixel
 818              		.section	.text.invertText,"ax",%progbits
 819              		.align	1
 820              		.global	invertText
 821              		.code	16
 822              		.thumb_func
 823              		.type	invertText, %function
 824              	invertText:
 825              	.LFB76:
 225:..\..\common\lib\nokia5110/LCD5110_Graph.c **** 
 226:..\..\common\lib\nokia5110/LCD5110_Graph.c **** void invertText(bool mode)
 227:..\..\common\lib\nokia5110/LCD5110_Graph.c **** {
 826              		.loc 2 227 0
 827              		.cfi_startproc
 828              		@ args = 0, pretend = 0, frame = 0
 829              		@ frame_needed = 0, uses_anonymous_args = 0
 830              		@ link register save eliminated.
 831              	.LVL77:
 832 0000 034B     		ldr	r3, .L69
 228:..\..\common\lib\nokia5110/LCD5110_Graph.c **** 	if (mode==true)
 833              		.loc 2 228 0
 834 0002 0028     		cmp	r0, #0
 835 0004 02D0     		beq	.L67
 229:..\..\common\lib\nokia5110/LCD5110_Graph.c **** 		cfont.inverted=1;
 836              		.loc 2 229 0
 837 0006 0122     		movs	r2, #1
 838 0008 1A72     		strb	r2, [r3, #8]
 839 000a 00E0     		b	.L66
 840              	.L67:
 230:..\..\common\lib\nokia5110/LCD5110_Graph.c **** 	else
 231:..\..\common\lib\nokia5110/LCD5110_Graph.c **** 		cfont.inverted=0;
 841              		.loc 2 231 0
 842 000c 1872     		strb	r0, [r3, #8]
 843              	.L66:
ARM GAS  C:\Users\Petro\AppData\Local\Temp\ccEiKVD5.s 			page 21


 232:..\..\common\lib\nokia5110/LCD5110_Graph.c **** }
 844              		.loc 2 232 0
 845              		@ sp needed
 846 000e 7047     		bx	lr
 847              	.L70:
 848              		.align	2
 849              	.L69:
 850 0010 00000000 		.word	cfont
 851              		.cfi_endproc
 852              	.LFE76:
 853              		.size	invertText, .-invertText
 854              		.section	.text._print_char,"ax",%progbits
 855              		.align	1
 856              		.global	_print_char
 857              		.code	16
 858              		.thumb_func
 859              		.type	_print_char, %function
 860              	_print_char:
 861              	.LFB81:
 233:..\..\common\lib\nokia5110/LCD5110_Graph.c **** 
 234:..\..\common\lib\nokia5110/LCD5110_Graph.c **** void print(char *st, int x, int y)
 235:..\..\common\lib\nokia5110/LCD5110_Graph.c **** {
 236:..\..\common\lib\nokia5110/LCD5110_Graph.c **** 	unsigned char ch;
 237:..\..\common\lib\nokia5110/LCD5110_Graph.c **** 	int stl;
 238:..\..\common\lib\nokia5110/LCD5110_Graph.c **** 
 239:..\..\common\lib\nokia5110/LCD5110_Graph.c **** 	stl = strlen(st);
 240:..\..\common\lib\nokia5110/LCD5110_Graph.c **** 	if (x == RIGHT)
 241:..\..\common\lib\nokia5110/LCD5110_Graph.c **** 		x = 84-(stl*cfont.x_size);
 242:..\..\common\lib\nokia5110/LCD5110_Graph.c **** 	if (x == CENTER)
 243:..\..\common\lib\nokia5110/LCD5110_Graph.c **** 		x = (84-(stl*cfont.x_size))/2;
 244:..\..\common\lib\nokia5110/LCD5110_Graph.c **** 
 245:..\..\common\lib\nokia5110/LCD5110_Graph.c ****     int cnt;
 246:..\..\common\lib\nokia5110/LCD5110_Graph.c **** 	for (cnt=0; cnt<stl; cnt++)
 247:..\..\common\lib\nokia5110/LCD5110_Graph.c **** 			_print_char(*st++, x + (cnt*(cfont.x_size)), y);
 248:..\..\common\lib\nokia5110/LCD5110_Graph.c **** }
 249:..\..\common\lib\nokia5110/LCD5110_Graph.c **** 
 250:..\..\common\lib\nokia5110/LCD5110_Graph.c **** void prints(char *st, int x, int y)
 251:..\..\common\lib\nokia5110/LCD5110_Graph.c **** {
 252:..\..\common\lib\nokia5110/LCD5110_Graph.c **** //	char buf[st.length()+1];
 253:..\..\common\lib\nokia5110/LCD5110_Graph.c **** //
 254:..\..\common\lib\nokia5110/LCD5110_Graph.c **** //	st.toCharArray(buf, st.length()+1);
 255:..\..\common\lib\nokia5110/LCD5110_Graph.c **** 	print(st, x, y);
 256:..\..\common\lib\nokia5110/LCD5110_Graph.c **** }
 257:..\..\common\lib\nokia5110/LCD5110_Graph.c **** 
 258:..\..\common\lib\nokia5110/LCD5110_Graph.c **** void printNumI(long num, int x, int y, int length, char filler)
 259:..\..\common\lib\nokia5110/LCD5110_Graph.c **** {
 260:..\..\common\lib\nokia5110/LCD5110_Graph.c **** 	char buf[25];
 261:..\..\common\lib\nokia5110/LCD5110_Graph.c **** 	char st[27];
 262:..\..\common\lib\nokia5110/LCD5110_Graph.c **** 	bool neg=false;
 263:..\..\common\lib\nokia5110/LCD5110_Graph.c **** 	int c=0, f=0;
 264:..\..\common\lib\nokia5110/LCD5110_Graph.c ****   
 265:..\..\common\lib\nokia5110/LCD5110_Graph.c **** 	if (num==0)
 266:..\..\common\lib\nokia5110/LCD5110_Graph.c **** 	{
 267:..\..\common\lib\nokia5110/LCD5110_Graph.c **** 		if (length!=0)
 268:..\..\common\lib\nokia5110/LCD5110_Graph.c **** 		{
 269:..\..\common\lib\nokia5110/LCD5110_Graph.c **** 			for (c=0; c<(length-1); c++)
 270:..\..\common\lib\nokia5110/LCD5110_Graph.c **** 				st[c]=filler;
ARM GAS  C:\Users\Petro\AppData\Local\Temp\ccEiKVD5.s 			page 22


 271:..\..\common\lib\nokia5110/LCD5110_Graph.c **** 			st[c]=48;
 272:..\..\common\lib\nokia5110/LCD5110_Graph.c **** 			st[c+1]=0;
 273:..\..\common\lib\nokia5110/LCD5110_Graph.c **** 		}
 274:..\..\common\lib\nokia5110/LCD5110_Graph.c **** 		else
 275:..\..\common\lib\nokia5110/LCD5110_Graph.c **** 		{
 276:..\..\common\lib\nokia5110/LCD5110_Graph.c **** 			st[0]=48;
 277:..\..\common\lib\nokia5110/LCD5110_Graph.c **** 			st[1]=0;
 278:..\..\common\lib\nokia5110/LCD5110_Graph.c **** 		}
 279:..\..\common\lib\nokia5110/LCD5110_Graph.c **** 	}
 280:..\..\common\lib\nokia5110/LCD5110_Graph.c **** 	else
 281:..\..\common\lib\nokia5110/LCD5110_Graph.c **** 	{
 282:..\..\common\lib\nokia5110/LCD5110_Graph.c **** 		if (num<0)
 283:..\..\common\lib\nokia5110/LCD5110_Graph.c **** 		{
 284:..\..\common\lib\nokia5110/LCD5110_Graph.c **** 			neg=true;
 285:..\..\common\lib\nokia5110/LCD5110_Graph.c **** 			num=-num;
 286:..\..\common\lib\nokia5110/LCD5110_Graph.c **** 		}
 287:..\..\common\lib\nokia5110/LCD5110_Graph.c **** 	  
 288:..\..\common\lib\nokia5110/LCD5110_Graph.c **** 		while (num>0)
 289:..\..\common\lib\nokia5110/LCD5110_Graph.c **** 		{
 290:..\..\common\lib\nokia5110/LCD5110_Graph.c **** 			buf[c]=48+(num % 10);
 291:..\..\common\lib\nokia5110/LCD5110_Graph.c **** 			c++;
 292:..\..\common\lib\nokia5110/LCD5110_Graph.c **** 			num=(num-(num % 10))/10;
 293:..\..\common\lib\nokia5110/LCD5110_Graph.c **** 		}
 294:..\..\common\lib\nokia5110/LCD5110_Graph.c **** 		buf[c]=0;
 295:..\..\common\lib\nokia5110/LCD5110_Graph.c **** 	  
 296:..\..\common\lib\nokia5110/LCD5110_Graph.c **** 		if (neg)
 297:..\..\common\lib\nokia5110/LCD5110_Graph.c **** 		{
 298:..\..\common\lib\nokia5110/LCD5110_Graph.c **** 			st[0]=45;
 299:..\..\common\lib\nokia5110/LCD5110_Graph.c **** 		}
 300:..\..\common\lib\nokia5110/LCD5110_Graph.c **** 	  
 301:..\..\common\lib\nokia5110/LCD5110_Graph.c **** 		if (length>(c+neg))
 302:..\..\common\lib\nokia5110/LCD5110_Graph.c **** 		{
 303:..\..\common\lib\nokia5110/LCD5110_Graph.c ****             int i;
 304:..\..\common\lib\nokia5110/LCD5110_Graph.c **** 			for (i=0; i<(length-c-neg); i++)
 305:..\..\common\lib\nokia5110/LCD5110_Graph.c **** 			{
 306:..\..\common\lib\nokia5110/LCD5110_Graph.c **** 				st[i+neg]=filler;
 307:..\..\common\lib\nokia5110/LCD5110_Graph.c **** 				f++;
 308:..\..\common\lib\nokia5110/LCD5110_Graph.c **** 			}
 309:..\..\common\lib\nokia5110/LCD5110_Graph.c **** 		}
 310:..\..\common\lib\nokia5110/LCD5110_Graph.c **** 
 311:..\..\common\lib\nokia5110/LCD5110_Graph.c ****         int i;
 312:..\..\common\lib\nokia5110/LCD5110_Graph.c **** 		for (i=0; i<c; i++)
 313:..\..\common\lib\nokia5110/LCD5110_Graph.c **** 		{
 314:..\..\common\lib\nokia5110/LCD5110_Graph.c **** 			st[i+neg+f]=buf[c-i-1];
 315:..\..\common\lib\nokia5110/LCD5110_Graph.c **** 		}
 316:..\..\common\lib\nokia5110/LCD5110_Graph.c **** 		st[c+neg+f]=0;
 317:..\..\common\lib\nokia5110/LCD5110_Graph.c **** 
 318:..\..\common\lib\nokia5110/LCD5110_Graph.c **** 	}
 319:..\..\common\lib\nokia5110/LCD5110_Graph.c **** 
 320:..\..\common\lib\nokia5110/LCD5110_Graph.c **** 	print(st,x,y);
 321:..\..\common\lib\nokia5110/LCD5110_Graph.c **** }
 322:..\..\common\lib\nokia5110/LCD5110_Graph.c **** 
 323:..\..\common\lib\nokia5110/LCD5110_Graph.c **** void printNumF(double num, uint8 dec, int x, int y, char divider, int length, char filler)
 324:..\..\common\lib\nokia5110/LCD5110_Graph.c **** {
 325:..\..\common\lib\nokia5110/LCD5110_Graph.c **** 	char st[27];
 326:..\..\common\lib\nokia5110/LCD5110_Graph.c ****     uint8_t size;
 327:..\..\common\lib\nokia5110/LCD5110_Graph.c **** 	bool neg=false;
ARM GAS  C:\Users\Petro\AppData\Local\Temp\ccEiKVD5.s 			page 23


 328:..\..\common\lib\nokia5110/LCD5110_Graph.c **** 
 329:..\..\common\lib\nokia5110/LCD5110_Graph.c **** 	if (num<0)
 330:..\..\common\lib\nokia5110/LCD5110_Graph.c **** 		neg = true;
 331:..\..\common\lib\nokia5110/LCD5110_Graph.c **** 
 332:..\..\common\lib\nokia5110/LCD5110_Graph.c **** 	_convert_float(st, num, length, dec);
 333:..\..\common\lib\nokia5110/LCD5110_Graph.c **** 
 334:..\..\common\lib\nokia5110/LCD5110_Graph.c **** 	if (divider != '.')
 335:..\..\common\lib\nokia5110/LCD5110_Graph.c **** 	{
 336:..\..\common\lib\nokia5110/LCD5110_Graph.c ****         size = sizeof st;
 337:..\..\common\lib\nokia5110/LCD5110_Graph.c ****         int i;
 338:..\..\common\lib\nokia5110/LCD5110_Graph.c **** 		for (i=0; i<size; i++)
 339:..\..\common\lib\nokia5110/LCD5110_Graph.c **** 			if (st[i]=='.')
 340:..\..\common\lib\nokia5110/LCD5110_Graph.c **** 				st[i]=divider;
 341:..\..\common\lib\nokia5110/LCD5110_Graph.c **** 	}
 342:..\..\common\lib\nokia5110/LCD5110_Graph.c **** 
 343:..\..\common\lib\nokia5110/LCD5110_Graph.c **** 	if (filler != ' ')
 344:..\..\common\lib\nokia5110/LCD5110_Graph.c **** 	{
 345:..\..\common\lib\nokia5110/LCD5110_Graph.c **** 		if (neg)
 346:..\..\common\lib\nokia5110/LCD5110_Graph.c **** 		{
 347:..\..\common\lib\nokia5110/LCD5110_Graph.c **** 			st[0]='-';
 348:..\..\common\lib\nokia5110/LCD5110_Graph.c ****             size = sizeof st;
 349:..\..\common\lib\nokia5110/LCD5110_Graph.c ****             int i;
 350:..\..\common\lib\nokia5110/LCD5110_Graph.c **** 			for (i=1; i<size; i++)
 351:..\..\common\lib\nokia5110/LCD5110_Graph.c **** 				if ((st[i]==' ') || (st[i]=='-'))
 352:..\..\common\lib\nokia5110/LCD5110_Graph.c **** 					st[i]=filler;
 353:..\..\common\lib\nokia5110/LCD5110_Graph.c **** 		}
 354:..\..\common\lib\nokia5110/LCD5110_Graph.c **** 		else
 355:..\..\common\lib\nokia5110/LCD5110_Graph.c **** 		{
 356:..\..\common\lib\nokia5110/LCD5110_Graph.c ****             size = sizeof st;
 357:..\..\common\lib\nokia5110/LCD5110_Graph.c ****             int i;
 358:..\..\common\lib\nokia5110/LCD5110_Graph.c **** 			for (i=0; i<size; i++)
 359:..\..\common\lib\nokia5110/LCD5110_Graph.c **** 				if (st[i]==' ')
 360:..\..\common\lib\nokia5110/LCD5110_Graph.c **** 					st[i]=filler;
 361:..\..\common\lib\nokia5110/LCD5110_Graph.c **** 		}
 362:..\..\common\lib\nokia5110/LCD5110_Graph.c **** 	}
 363:..\..\common\lib\nokia5110/LCD5110_Graph.c **** 
 364:..\..\common\lib\nokia5110/LCD5110_Graph.c **** 	print(st,x,y);
 365:..\..\common\lib\nokia5110/LCD5110_Graph.c **** }
 366:..\..\common\lib\nokia5110/LCD5110_Graph.c **** 
 367:..\..\common\lib\nokia5110/LCD5110_Graph.c **** void _print_char(unsigned char c, int x, int y)
 368:..\..\common\lib\nokia5110/LCD5110_Graph.c **** {
 862              		.loc 2 368 0
 863              		.cfi_startproc
 864              		@ args = 0, pretend = 0, frame = 24
 865              		@ frame_needed = 0, uses_anonymous_args = 0
 866              	.LVL78:
 867 0000 F0B5     		push	{r4, r5, r6, r7, lr}
 868              		.cfi_def_cfa_offset 20
 869              		.cfi_offset 4, -20
 870              		.cfi_offset 5, -16
 871              		.cfi_offset 6, -12
 872              		.cfi_offset 7, -8
 873              		.cfi_offset 14, -4
 874 0002 87B0     		sub	sp, sp, #28
 875              		.cfi_def_cfa_offset 48
 876              		.loc 2 368 0
 877 0004 0592     		str	r2, [sp, #20]
ARM GAS  C:\Users\Petro\AppData\Local\Temp\ccEiKVD5.s 			page 24


 369:..\..\common\lib\nokia5110/LCD5110_Graph.c **** 	if ((cfont.y_size % 8) == 0)
 878              		.loc 2 369 0
 879 0006 494A     		ldr	r2, .L97
 880              	.LVL79:
 368:..\..\common\lib\nokia5110/LCD5110_Graph.c **** 	if ((cfont.y_size % 8) == 0)
 881              		.loc 2 368 0
 882 0008 0491     		str	r1, [sp, #16]
 883              		.loc 2 369 0
 884 000a 5379     		ldrb	r3, [r2, #5]
 885 000c 0727     		movs	r7, #7
 886 000e 1D00     		movs	r5, r3
 887 0010 1479     		ldrb	r4, [r2, #4]
 888 0012 3D40     		ands	r5, r7
 889 0014 9179     		ldrb	r1, [r2, #6]
 890              	.LVL80:
 891 0016 002D     		cmp	r5, #0
 892 0018 44D1     		bne	.L72
 893              	.LBB21:
 370:..\..\common\lib\nokia5110/LCD5110_Graph.c **** 	{
 371:..\..\common\lib\nokia5110/LCD5110_Graph.c **** 		int font_idx = ((c - cfont.offset)*(cfont.x_size*(cfont.y_size/8)))+4;
 894              		.loc 2 371 0
 895 001a DB08     		lsrs	r3, r3, #3
 896 001c 6343     		muls	r3, r4
 897 001e 401A     		subs	r0, r0, r1
 898              	.LVL81:
 899 0020 5843     		muls	r0, r3
 900 0022 0300     		movs	r3, r0
 901 0024 0433     		adds	r3, r3, #4
 902 0026 0393     		str	r3, [sp, #12]
 903              	.LVL82:
 904 0028 6B46     		mov	r3, sp
 905              	.LVL83:
 906 002a 9B8A     		ldrh	r3, [r3, #20]
 907 002c 0290     		str	r0, [sp, #8]
 908              	.LVL84:
 909              	.L93:
 910 002e 0193     		str	r3, [sp, #4]
 911              	.LVL85:
 372:..\..\common\lib\nokia5110/LCD5110_Graph.c ****         int rowcnt;
 373:..\..\common\lib\nokia5110/LCD5110_Graph.c **** 		for (rowcnt=0; rowcnt<(cfont.y_size/8); rowcnt++)
 912              		.loc 2 373 0 discriminator 2
 913 0030 3E4B     		ldr	r3, .L97
 914 0032 5B79     		ldrb	r3, [r3, #5]
 915 0034 DB08     		lsrs	r3, r3, #3
 916 0036 9D42     		cmp	r5, r3
 917 0038 76DA     		bge	.L71
 918 003a 6B46     		mov	r3, sp
 919 003c 1C8A     		ldrh	r4, [r3, #16]
 920              	.LBB22:
 374:..\..\common\lib\nokia5110/LCD5110_Graph.c **** 		{
 375:..\..\common\lib\nokia5110/LCD5110_Graph.c ****             int cnt;
 376:..\..\common\lib\nokia5110/LCD5110_Graph.c **** 			for(cnt=0; cnt<cfont.x_size; cnt++)
 921              		.loc 2 376 0
 922 003e 0423     		movs	r3, #4
 923 0040 029A     		ldr	r2, [sp, #8]
 924 0042 5B42     		rsbs	r3, r3, #0
 925 0044 9B1A     		subs	r3, r3, r2
ARM GAS  C:\Users\Petro\AppData\Local\Temp\ccEiKVD5.s 			page 25


 926 0046 039F     		ldr	r7, [sp, #12]
 927 0048 0593     		str	r3, [sp, #20]
 928              	.L81:
 929              	.LVL86:
 930              		.loc 2 376 0 is_stmt 0 discriminator 1
 931 004a 384B     		ldr	r3, .L97
 932 004c 1A79     		ldrb	r2, [r3, #4]
 933 004e 059B     		ldr	r3, [sp, #20]
 934 0050 DB19     		adds	r3, r3, r7
 935 0052 9A42     		cmp	r2, r3
 936 0054 21DD     		ble	.L95
 937 0056 0026     		movs	r6, #0
 938              	.L78:
 939              	.LVL87:
 940              	.LBB23:
 377:..\..\common\lib\nokia5110/LCD5110_Graph.c **** 			{
 378:..\..\common\lib\nokia5110/LCD5110_Graph.c ****                 int b;
 379:..\..\common\lib\nokia5110/LCD5110_Graph.c **** 				for (b=0; b<8; b++)
 380:..\..\common\lib\nokia5110/LCD5110_Graph.c **** 					if ((fontbyte(font_idx+cnt+(rowcnt*cfont.x_size)) & (1<<b))!=0)
 941              		.loc 2 380 0 is_stmt 1
 942 0058 344A     		ldr	r2, .L97
 943 005a 0120     		movs	r0, #1
 944 005c 1379     		ldrb	r3, [r2, #4]
 945 005e 1168     		ldr	r1, [r2]
 946 0060 6B43     		muls	r3, r5
 947 0062 C919     		adds	r1, r1, r7
 948 0064 CB5C     		ldrb	r3, [r1, r3]
 949 0066 0199     		ldr	r1, [sp, #4]
 950 0068 3341     		asrs	r3, r3, r6
 951 006a 8919     		adds	r1, r1, r6
 952 006c 127A     		ldrb	r2, [r2, #8]
 381:..\..\common\lib\nokia5110/LCD5110_Graph.c **** 						if (cfont.inverted==0)
 382:..\..\common\lib\nokia5110/LCD5110_Graph.c **** 							setPixel(x+cnt, y+(rowcnt*8)+b);
 953              		.loc 2 382 0
 954 006e 89B2     		uxth	r1, r1
 380:..\..\common\lib\nokia5110/LCD5110_Graph.c **** 						if (cfont.inverted==0)
 955              		.loc 2 380 0
 956 0070 0342     		tst	r3, r0
 957 0072 03D0     		beq	.L74
 958              		.loc 2 382 0
 959 0074 2000     		movs	r0, r4
 381:..\..\common\lib\nokia5110/LCD5110_Graph.c **** 						if (cfont.inverted==0)
 960              		.loc 2 381 0
 961 0076 002A     		cmp	r2, #0
 962 0078 03D1     		bne	.L92
 963 007a 05E0     		b	.L77
 964              	.L74:
 383:..\..\common\lib\nokia5110/LCD5110_Graph.c **** 						else
 384:..\..\common\lib\nokia5110/LCD5110_Graph.c **** 							clrPixel(x+cnt, y+(rowcnt*8)+b);
 385:..\..\common\lib\nokia5110/LCD5110_Graph.c **** 					else
 386:..\..\common\lib\nokia5110/LCD5110_Graph.c **** 						if (cfont.inverted==0)
 387:..\..\common\lib\nokia5110/LCD5110_Graph.c **** 							clrPixel(x+cnt, y+(rowcnt*8)+b);
 965              		.loc 2 387 0
 966 007c 2000     		movs	r0, r4
 386:..\..\common\lib\nokia5110/LCD5110_Graph.c **** 							clrPixel(x+cnt, y+(rowcnt*8)+b);
 967              		.loc 2 386 0
 968 007e 002A     		cmp	r2, #0
ARM GAS  C:\Users\Petro\AppData\Local\Temp\ccEiKVD5.s 			page 26


 969 0080 02D1     		bne	.L77
 970              	.L92:
 971              		.loc 2 387 0
 972 0082 FFF7FEFF 		bl	clrPixel
 973              	.LVL88:
 974 0086 01E0     		b	.L76
 975              	.L77:
 388:..\..\common\lib\nokia5110/LCD5110_Graph.c **** 						else
 389:..\..\common\lib\nokia5110/LCD5110_Graph.c **** 							setPixel(x+cnt, y+(rowcnt*8)+b);
 976              		.loc 2 389 0
 977 0088 FFF7FEFF 		bl	setPixel
 978              	.LVL89:
 979              	.L76:
 379:..\..\common\lib\nokia5110/LCD5110_Graph.c **** 					if ((fontbyte(font_idx+cnt+(rowcnt*cfont.x_size)) & (1<<b))!=0)
 980              		.loc 2 379 0 discriminator 2
 981 008c 0136     		adds	r6, r6, #1
 982              	.LVL90:
 983 008e 082E     		cmp	r6, #8
 984 0090 E2D1     		bne	.L78
 985              	.LVL91:
 986 0092 0134     		adds	r4, r4, #1
 987 0094 A4B2     		uxth	r4, r4
 988 0096 0137     		adds	r7, r7, #1
 989              	.LVL92:
 990 0098 D7E7     		b	.L81
 991              	.LVL93:
 992              	.L95:
 993 009a 019B     		ldr	r3, [sp, #4]
 994              	.LBE23:
 995              	.LBE22:
 373:..\..\common\lib\nokia5110/LCD5110_Graph.c **** 		{
 996              		.loc 2 373 0 discriminator 2
 997 009c 0135     		adds	r5, r5, #1
 998              	.LVL94:
 999 009e 0833     		adds	r3, r3, #8
 1000 00a0 9BB2     		uxth	r3, r3
 1001 00a2 C4E7     		b	.L93
 1002              	.LVL95:
 1003              	.L72:
 1004              	.LBE21:
 1005              	.LBB24:
 390:..\..\common\lib\nokia5110/LCD5110_Graph.c **** 			}
 391:..\..\common\lib\nokia5110/LCD5110_Graph.c **** 		}
 392:..\..\common\lib\nokia5110/LCD5110_Graph.c **** 	}
 393:..\..\common\lib\nokia5110/LCD5110_Graph.c **** 	else
 394:..\..\common\lib\nokia5110/LCD5110_Graph.c **** 	{
 395:..\..\common\lib\nokia5110/LCD5110_Graph.c **** 		int font_idx = ((c - cfont.offset)*((cfont.x_size*cfont.y_size/8)))+4;
 1006              		.loc 2 395 0
 1007 00a4 6343     		muls	r3, r4
 1008 00a6 441A     		subs	r4, r0, r1
 1009 00a8 DB10     		asrs	r3, r3, #3
 1010 00aa 6343     		muls	r3, r4
 1011 00ac 1C1D     		adds	r4, r3, #4
 1012              	.LVL96:
 396:..\..\common\lib\nokia5110/LCD5110_Graph.c **** 		int cbyte=fontbyte(font_idx);
 1013              		.loc 2 396 0
 1014 00ae 1368     		ldr	r3, [r2]
ARM GAS  C:\Users\Petro\AppData\Local\Temp\ccEiKVD5.s 			page 27


 1015 00b0 1B5D     		ldrb	r3, [r3, r4]
 1016 00b2 0393     		str	r3, [sp, #12]
 1017              	.LVL97:
 1018 00b4 6B46     		mov	r3, sp
 1019              	.LVL98:
 1020 00b6 1D8A     		ldrh	r5, [r3, #16]
 397:..\..\common\lib\nokia5110/LCD5110_Graph.c **** 		int cbit=7;
 398:..\..\common\lib\nokia5110/LCD5110_Graph.c ****         int cx;
 399:..\..\common\lib\nokia5110/LCD5110_Graph.c **** 		for (cx=0; cx<cfont.x_size; cx++)
 1021              		.loc 2 399 0
 1022 00b8 0023     		movs	r3, #0
 1023 00ba 0193     		str	r3, [sp, #4]
 1024              	.LVL99:
 1025              	.L82:
 1026              		.loc 2 399 0 is_stmt 0 discriminator 1
 1027 00bc 1B4B     		ldr	r3, .L97
 1028 00be 019A     		ldr	r2, [sp, #4]
 1029 00c0 1B79     		ldrb	r3, [r3, #4]
 1030 00c2 9A42     		cmp	r2, r3
 1031 00c4 30DA     		bge	.L71
 1032 00c6 6B46     		mov	r3, sp
 1033 00c8 9E8A     		ldrh	r6, [r3, #20]
 1034              		.loc 2 399 0
 1035 00ca 0023     		movs	r3, #0
 1036 00cc 0293     		str	r3, [sp, #8]
 1037              	.L90:
 1038              	.LVL100:
 1039              	.LBB25:
 400:..\..\common\lib\nokia5110/LCD5110_Graph.c **** 		{
 401:..\..\common\lib\nokia5110/LCD5110_Graph.c ****             int cy;
 402:..\..\common\lib\nokia5110/LCD5110_Graph.c **** 			for (cy=0; cy<cfont.y_size; cy++)
 1040              		.loc 2 402 0 is_stmt 1 discriminator 1
 1041 00ce 174B     		ldr	r3, .L97
 1042 00d0 0299     		ldr	r1, [sp, #8]
 1043 00d2 5A79     		ldrb	r2, [r3, #5]
 1044 00d4 9142     		cmp	r1, r2
 1045 00d6 21DA     		bge	.L96
 1046 00d8 1A7A     		ldrb	r2, [r3, #8]
 403:..\..\common\lib\nokia5110/LCD5110_Graph.c **** 			{
 404:..\..\common\lib\nokia5110/LCD5110_Graph.c **** 				if ((cbyte & (1<<cbit)) != 0)
 1047              		.loc 2 404 0
 1048 00da 039B     		ldr	r3, [sp, #12]
 1049 00dc 0121     		movs	r1, #1
 1050 00de 3B41     		asrs	r3, r3, r7
 1051 00e0 0B42     		tst	r3, r1
 1052 00e2 04D0     		beq	.L83
 405:..\..\common\lib\nokia5110/LCD5110_Graph.c **** 					if (cfont.inverted==0)
 406:..\..\common\lib\nokia5110/LCD5110_Graph.c **** 						setPixel(x+cx, y+cy);
 1053              		.loc 2 406 0
 1054 00e4 3100     		movs	r1, r6
 1055 00e6 2800     		movs	r0, r5
 405:..\..\common\lib\nokia5110/LCD5110_Graph.c **** 					if (cfont.inverted==0)
 1056              		.loc 2 405 0
 1057 00e8 002A     		cmp	r2, #0
 1058 00ea 04D1     		bne	.L94
 1059 00ec 06E0     		b	.L86
 1060              	.L83:
ARM GAS  C:\Users\Petro\AppData\Local\Temp\ccEiKVD5.s 			page 28


 407:..\..\common\lib\nokia5110/LCD5110_Graph.c **** 					else
 408:..\..\common\lib\nokia5110/LCD5110_Graph.c **** 						clrPixel(x+cx, y+cy);
 409:..\..\common\lib\nokia5110/LCD5110_Graph.c **** 				else
 410:..\..\common\lib\nokia5110/LCD5110_Graph.c **** 					if (cfont.inverted==0)
 411:..\..\common\lib\nokia5110/LCD5110_Graph.c **** 						clrPixel(x+cx, y+cy);
 1061              		.loc 2 411 0
 1062 00ee 3100     		movs	r1, r6
 1063 00f0 2800     		movs	r0, r5
 410:..\..\common\lib\nokia5110/LCD5110_Graph.c **** 						clrPixel(x+cx, y+cy);
 1064              		.loc 2 410 0
 1065 00f2 002A     		cmp	r2, #0
 1066 00f4 02D1     		bne	.L86
 1067              	.L94:
 1068              		.loc 2 411 0
 1069 00f6 FFF7FEFF 		bl	clrPixel
 1070              	.LVL101:
 1071 00fa 01E0     		b	.L85
 1072              	.L86:
 412:..\..\common\lib\nokia5110/LCD5110_Graph.c **** 					else
 413:..\..\common\lib\nokia5110/LCD5110_Graph.c **** 						setPixel(x+cx, y+cy);
 1073              		.loc 2 413 0
 1074 00fc FFF7FEFF 		bl	setPixel
 1075              	.LVL102:
 1076              	.L85:
 414:..\..\common\lib\nokia5110/LCD5110_Graph.c **** 				cbit--;
 415:..\..\common\lib\nokia5110/LCD5110_Graph.c **** 				if (cbit<0)
 1077              		.loc 2 415 0
 1078 0100 013F     		subs	r7, r7, #1
 1079 0102 05D5     		bpl	.L87
 1080              	.LVL103:
 416:..\..\common\lib\nokia5110/LCD5110_Graph.c **** 				{
 417:..\..\common\lib\nokia5110/LCD5110_Graph.c **** 					cbit=7;
 1081              		.loc 2 417 0
 1082 0104 0727     		movs	r7, #7
 418:..\..\common\lib\nokia5110/LCD5110_Graph.c **** 					font_idx++;
 419:..\..\common\lib\nokia5110/LCD5110_Graph.c **** 					cbyte=fontbyte(font_idx);
 1083              		.loc 2 419 0
 1084 0106 094B     		ldr	r3, .L97
 418:..\..\common\lib\nokia5110/LCD5110_Graph.c **** 					font_idx++;
 1085              		.loc 2 418 0
 1086 0108 0134     		adds	r4, r4, #1
 1087              	.LVL104:
 1088              		.loc 2 419 0
 1089 010a 1B68     		ldr	r3, [r3]
 1090 010c 1B5D     		ldrb	r3, [r3, r4]
 1091 010e 0393     		str	r3, [sp, #12]
 1092              	.LVL105:
 1093              	.L87:
 402:..\..\common\lib\nokia5110/LCD5110_Graph.c **** 			{
 1094              		.loc 2 402 0 discriminator 2
 1095 0110 029B     		ldr	r3, [sp, #8]
 1096 0112 0136     		adds	r6, r6, #1
 1097 0114 0133     		adds	r3, r3, #1
 1098 0116 0293     		str	r3, [sp, #8]
 1099              	.LVL106:
 1100 0118 B6B2     		uxth	r6, r6
 1101 011a D8E7     		b	.L90
ARM GAS  C:\Users\Petro\AppData\Local\Temp\ccEiKVD5.s 			page 29


 1102              	.LVL107:
 1103              	.L96:
 1104              	.LBE25:
 399:..\..\common\lib\nokia5110/LCD5110_Graph.c **** 		{
 1105              		.loc 2 399 0 discriminator 2
 1106 011c 019B     		ldr	r3, [sp, #4]
 1107 011e 0135     		adds	r5, r5, #1
 1108 0120 0133     		adds	r3, r3, #1
 1109 0122 0193     		str	r3, [sp, #4]
 1110              	.LVL108:
 1111 0124 ADB2     		uxth	r5, r5
 1112 0126 C9E7     		b	.L82
 1113              	.LVL109:
 1114              	.L71:
 1115              	.LBE24:
 420:..\..\common\lib\nokia5110/LCD5110_Graph.c **** 				}
 421:..\..\common\lib\nokia5110/LCD5110_Graph.c **** 			}
 422:..\..\common\lib\nokia5110/LCD5110_Graph.c **** 		}
 423:..\..\common\lib\nokia5110/LCD5110_Graph.c **** 	}
 424:..\..\common\lib\nokia5110/LCD5110_Graph.c **** }
 1116              		.loc 2 424 0
 1117 0128 07B0     		add	sp, sp, #28
 1118              		@ sp needed
 1119 012a F0BD     		pop	{r4, r5, r6, r7, pc}
 1120              	.L98:
 1121              		.align	2
 1122              	.L97:
 1123 012c 00000000 		.word	cfont
 1124              		.cfi_endproc
 1125              	.LFE81:
 1126              		.size	_print_char, .-_print_char
 1127              		.section	.text.print,"ax",%progbits
 1128              		.align	1
 1129              		.global	print
 1130              		.code	16
 1131              		.thumb_func
 1132              		.type	print, %function
 1133              	print:
 1134              	.LFB77:
 235:..\..\common\lib\nokia5110/LCD5110_Graph.c **** 	unsigned char ch;
 1135              		.loc 2 235 0
 1136              		.cfi_startproc
 1137              		@ args = 0, pretend = 0, frame = 8
 1138              		@ frame_needed = 0, uses_anonymous_args = 0
 1139              	.LVL110:
 1140 0000 F7B5     		push	{r0, r1, r2, r4, r5, r6, r7, lr}
 1141              		.cfi_def_cfa_offset 32
 1142              		.cfi_offset 0, -32
 1143              		.cfi_offset 1, -28
 1144              		.cfi_offset 2, -24
 1145              		.cfi_offset 4, -20
 1146              		.cfi_offset 5, -16
 1147              		.cfi_offset 6, -12
 1148              		.cfi_offset 7, -8
 1149              		.cfi_offset 14, -4
 235:..\..\common\lib\nokia5110/LCD5110_Graph.c **** 	unsigned char ch;
 1150              		.loc 2 235 0
ARM GAS  C:\Users\Petro\AppData\Local\Temp\ccEiKVD5.s 			page 30


 1151 0002 0700     		movs	r7, r0
 1152 0004 0C00     		movs	r4, r1
 1153 0006 0192     		str	r2, [sp, #4]
 239:..\..\common\lib\nokia5110/LCD5110_Graph.c **** 	if (x == RIGHT)
 1154              		.loc 2 239 0
 1155 0008 FFF7FEFF 		bl	strlen
 1156              	.LVL111:
 240:..\..\common\lib\nokia5110/LCD5110_Graph.c **** 		x = 84-(stl*cfont.x_size);
 1157              		.loc 2 240 0
 1158 000c 104B     		ldr	r3, .L105
 239:..\..\common\lib\nokia5110/LCD5110_Graph.c **** 	if (x == RIGHT)
 1159              		.loc 2 239 0
 1160 000e 0600     		movs	r6, r0
 1161              	.LVL112:
 240:..\..\common\lib\nokia5110/LCD5110_Graph.c **** 		x = 84-(stl*cfont.x_size);
 1162              		.loc 2 240 0
 1163 0010 9C42     		cmp	r4, r3
 1164 0012 04D1     		bne	.L100
 241:..\..\common\lib\nokia5110/LCD5110_Graph.c **** 	if (x == CENTER)
 1165              		.loc 2 241 0
 1166 0014 0F4B     		ldr	r3, .L105+4
 1167 0016 1C79     		ldrb	r4, [r3, #4]
 1168              	.LVL113:
 1169 0018 5423     		movs	r3, #84
 1170 001a 4443     		muls	r4, r0
 1171 001c 1C1B     		subs	r4, r3, r4
 1172              	.LVL114:
 1173              	.L100:
 242:..\..\common\lib\nokia5110/LCD5110_Graph.c **** 		x = (84-(stl*cfont.x_size))/2;
 1174              		.loc 2 242 0
 1175 001e 0E4B     		ldr	r3, .L105+8
 1176 0020 9C42     		cmp	r4, r3
 1177 0022 07D1     		bne	.L101
 243:..\..\common\lib\nokia5110/LCD5110_Graph.c **** 
 1178              		.loc 2 243 0
 1179 0024 0B4B     		ldr	r3, .L105+4
 1180 0026 1C79     		ldrb	r4, [r3, #4]
 1181              	.LVL115:
 1182 0028 5423     		movs	r3, #84
 1183 002a 7443     		muls	r4, r6
 1184 002c 1C1B     		subs	r4, r3, r4
 1185 002e E30F     		lsrs	r3, r4, #31
 1186 0030 1C19     		adds	r4, r3, r4
 1187 0032 6410     		asrs	r4, r4, #1
 1188              	.LVL116:
 1189              	.L101:
 246:..\..\common\lib\nokia5110/LCD5110_Graph.c **** 			_print_char(*st++, x + (cnt*(cfont.x_size)), y);
 1190              		.loc 2 246 0
 1191 0034 0025     		movs	r5, #0
 1192              	.LVL117:
 1193              	.L102:
 246:..\..\common\lib\nokia5110/LCD5110_Graph.c **** 			_print_char(*st++, x + (cnt*(cfont.x_size)), y);
 1194              		.loc 2 246 0 is_stmt 0 discriminator 1
 1195 0036 B542     		cmp	r5, r6
 1196 0038 09DA     		bge	.L104
 1197              	.LVL118:
 247:..\..\common\lib\nokia5110/LCD5110_Graph.c **** }
ARM GAS  C:\Users\Petro\AppData\Local\Temp\ccEiKVD5.s 			page 31


 1198              		.loc 2 247 0 is_stmt 1 discriminator 3
 1199 003a 064B     		ldr	r3, .L105+4
 1200 003c 785D     		ldrb	r0, [r7, r5]
 1201 003e 1979     		ldrb	r1, [r3, #4]
 1202 0040 019A     		ldr	r2, [sp, #4]
 1203 0042 6943     		muls	r1, r5
 1204 0044 0919     		adds	r1, r1, r4
 1205 0046 FFF7FEFF 		bl	_print_char
 1206              	.LVL119:
 246:..\..\common\lib\nokia5110/LCD5110_Graph.c **** 			_print_char(*st++, x + (cnt*(cfont.x_size)), y);
 1207              		.loc 2 246 0 discriminator 3
 1208 004a 0135     		adds	r5, r5, #1
 1209              	.LVL120:
 1210 004c F3E7     		b	.L102
 1211              	.L104:
 248:..\..\common\lib\nokia5110/LCD5110_Graph.c **** 
 1212              		.loc 2 248 0
 1213              		@ sp needed
 1214              	.LVL121:
 1215              	.LVL122:
 1216              	.LVL123:
 1217 004e F7BD     		pop	{r0, r1, r2, r4, r5, r6, r7, pc}
 1218              	.L106:
 1219              		.align	2
 1220              	.L105:
 1221 0050 0F270000 		.word	9999
 1222 0054 00000000 		.word	cfont
 1223 0058 0E270000 		.word	9998
 1224              		.cfi_endproc
 1225              	.LFE77:
 1226              		.size	print, .-print
 1227              		.section	.text.prints,"ax",%progbits
 1228              		.align	1
 1229              		.global	prints
 1230              		.code	16
 1231              		.thumb_func
 1232              		.type	prints, %function
 1233              	prints:
 1234              	.LFB78:
 251:..\..\common\lib\nokia5110/LCD5110_Graph.c **** //	char buf[st.length()+1];
 1235              		.loc 2 251 0
 1236              		.cfi_startproc
 1237              		@ args = 0, pretend = 0, frame = 0
 1238              		@ frame_needed = 0, uses_anonymous_args = 0
 1239              	.LVL124:
 1240 0000 10B5     		push	{r4, lr}
 1241              		.cfi_def_cfa_offset 8
 1242              		.cfi_offset 4, -8
 1243              		.cfi_offset 14, -4
 255:..\..\common\lib\nokia5110/LCD5110_Graph.c **** }
 1244              		.loc 2 255 0
 1245 0002 FFF7FEFF 		bl	print
 1246              	.LVL125:
 256:..\..\common\lib\nokia5110/LCD5110_Graph.c **** 
 1247              		.loc 2 256 0
 1248              		@ sp needed
 1249 0006 10BD     		pop	{r4, pc}
ARM GAS  C:\Users\Petro\AppData\Local\Temp\ccEiKVD5.s 			page 32


 1250              		.cfi_endproc
 1251              	.LFE78:
 1252              		.size	prints, .-prints
 1253              		.global	__aeabi_idivmod
 1254              		.global	__aeabi_idiv
 1255              		.section	.text.printNumI,"ax",%progbits
 1256              		.align	1
 1257              		.global	printNumI
 1258              		.code	16
 1259              		.thumb_func
 1260              		.type	printNumI, %function
 1261              	printNumI:
 1262              	.LFB79:
 259:..\..\common\lib\nokia5110/LCD5110_Graph.c **** 	char buf[25];
 1263              		.loc 2 259 0
 1264              		.cfi_startproc
 1265              		@ args = 4, pretend = 0, frame = 72
 1266              		@ frame_needed = 0, uses_anonymous_args = 0
 1267              	.LVL126:
 1268 0000 F0B5     		push	{r4, r5, r6, r7, lr}
 1269              		.cfi_def_cfa_offset 20
 1270              		.cfi_offset 4, -20
 1271              		.cfi_offset 5, -16
 1272              		.cfi_offset 6, -12
 1273              		.cfi_offset 7, -8
 1274              		.cfi_offset 14, -4
 1275 0002 93B0     		sub	sp, sp, #76
 1276              		.cfi_def_cfa_offset 96
 259:..\..\common\lib\nokia5110/LCD5110_Graph.c **** 	char buf[25];
 1277              		.loc 2 259 0
 1278 0004 1D00     		movs	r5, r3
 1279 0006 18AB     		add	r3, sp, #96
 1280              	.LVL127:
 1281 0008 1B78     		ldrb	r3, [r3]
 1282              	.LVL128:
 1283 000a 041E     		subs	r4, r0, #0
 1284 000c 0291     		str	r1, [sp, #8]
 1285 000e 0392     		str	r2, [sp, #12]
 1286 0010 0193     		str	r3, [sp, #4]
 265:..\..\common\lib\nokia5110/LCD5110_Graph.c **** 	{
 1287              		.loc 2 265 0
 1288 0012 14D1     		bne	.L109
 1289 0014 0BA8     		add	r0, sp, #44
 1290              	.LVL129:
 267:..\..\common\lib\nokia5110/LCD5110_Graph.c **** 		{
 1291              		.loc 2 267 0
 1292 0016 002D     		cmp	r5, #0
 1293 0018 0DD0     		beq	.L110
 269:..\..\common\lib\nokia5110/LCD5110_Graph.c **** 				st[c]=filler;
 1294              		.loc 2 269 0 discriminator 1
 1295 001a 013D     		subs	r5, r5, #1
 1296              	.LVL130:
 1297              	.L111:
 1298 001c AC42     		cmp	r4, r5
 1299 001e 04DA     		bge	.L129
 270:..\..\common\lib\nokia5110/LCD5110_Graph.c **** 			st[c]=48;
 1300              		.loc 2 270 0 discriminator 3
ARM GAS  C:\Users\Petro\AppData\Local\Temp\ccEiKVD5.s 			page 33


 1301 0020 6B46     		mov	r3, sp
 1302 0022 1B79     		ldrb	r3, [r3, #4]
 1303 0024 0355     		strb	r3, [r0, r4]
 269:..\..\common\lib\nokia5110/LCD5110_Graph.c **** 				st[c]=filler;
 1304              		.loc 2 269 0 discriminator 3
 1305 0026 0134     		adds	r4, r4, #1
 1306              	.LVL131:
 1307 0028 F8E7     		b	.L111
 1308              	.L129:
 271:..\..\common\lib\nokia5110/LCD5110_Graph.c **** 			st[c+1]=0;
 1309              		.loc 2 271 0
 1310 002a 3023     		movs	r3, #48
 1311 002c 0355     		strb	r3, [r0, r4]
 272:..\..\common\lib\nokia5110/LCD5110_Graph.c **** 		}
 1312              		.loc 2 272 0
 1313 002e 0023     		movs	r3, #0
 1314 0030 0419     		adds	r4, r0, r4
 1315              	.LVL132:
 1316 0032 6370     		strb	r3, [r4, #1]
 1317 0034 41E0     		b	.L113
 1318              	.LVL133:
 1319              	.L110:
 276:..\..\common\lib\nokia5110/LCD5110_Graph.c **** 			st[1]=0;
 1320              		.loc 2 276 0
 1321 0036 3023     		movs	r3, #48
 277:..\..\common\lib\nokia5110/LCD5110_Graph.c **** 		}
 1322              		.loc 2 277 0
 1323 0038 4570     		strb	r5, [r0, #1]
 276:..\..\common\lib\nokia5110/LCD5110_Graph.c **** 			st[1]=0;
 1324              		.loc 2 276 0
 1325 003a 0370     		strb	r3, [r0]
 1326 003c 3DE0     		b	.L113
 1327              	.LVL134:
 1328              	.L109:
 262:..\..\common\lib\nokia5110/LCD5110_Graph.c **** 	int c=0, f=0;
 1329              		.loc 2 262 0
 1330 003e 0026     		movs	r6, #0
 1331              	.LBB26:
 282:..\..\common\lib\nokia5110/LCD5110_Graph.c **** 		{
 1332              		.loc 2 282 0
 1333 0040 B042     		cmp	r0, r6
 1334 0042 01DA     		bge	.L114
 1335              	.LVL135:
 285:..\..\common\lib\nokia5110/LCD5110_Graph.c **** 		}
 1336              		.loc 2 285 0
 1337 0044 4442     		rsbs	r4, r0, #0
 1338              	.LVL136:
 284:..\..\common\lib\nokia5110/LCD5110_Graph.c **** 			num=-num;
 1339              		.loc 2 284 0
 1340 0046 0136     		adds	r6, r6, #1
 1341              	.LVL137:
 1342              	.L114:
 1343              	.LBE26:
 262:..\..\common\lib\nokia5110/LCD5110_Graph.c **** 	int c=0, f=0;
 1344              		.loc 2 262 0
 1345 0048 0027     		movs	r7, #0
 1346              	.LVL138:
ARM GAS  C:\Users\Petro\AppData\Local\Temp\ccEiKVD5.s 			page 34


 1347              	.L115:
 1348              	.LBB28:
 290:..\..\common\lib\nokia5110/LCD5110_Graph.c **** 			c++;
 1349              		.loc 2 290 0
 1350 004a 2000     		movs	r0, r4
 1351 004c 0A21     		movs	r1, #10
 1352 004e FFF7FEFF 		bl	__aeabi_idivmod
 1353              	.LVL139:
 1354 0052 0B00     		movs	r3, r1
 1355 0054 04AA     		add	r2, sp, #16
 1356 0056 3033     		adds	r3, r3, #48
 292:..\..\common\lib\nokia5110/LCD5110_Graph.c **** 		}
 1357              		.loc 2 292 0
 1358 0058 601A     		subs	r0, r4, r1
 290:..\..\common\lib\nokia5110/LCD5110_Graph.c **** 			c++;
 1359              		.loc 2 290 0
 1360 005a BB54     		strb	r3, [r7, r2]
 292:..\..\common\lib\nokia5110/LCD5110_Graph.c **** 		}
 1361              		.loc 2 292 0
 1362 005c 0A21     		movs	r1, #10
 1363 005e FFF7FEFF 		bl	__aeabi_idiv
 1364              	.LVL140:
 291:..\..\common\lib\nokia5110/LCD5110_Graph.c **** 			num=(num-(num % 10))/10;
 1365              		.loc 2 291 0
 1366 0062 0137     		adds	r7, r7, #1
 1367              	.LVL141:
 292:..\..\common\lib\nokia5110/LCD5110_Graph.c **** 		}
 1368              		.loc 2 292 0
 1369 0064 041E     		subs	r4, r0, #0
 1370              	.LVL142:
 288:..\..\common\lib\nokia5110/LCD5110_Graph.c **** 		{
 1371              		.loc 2 288 0
 1372 0066 F0D1     		bne	.L115
 294:..\..\common\lib\nokia5110/LCD5110_Graph.c **** 	  
 1373              		.loc 2 294 0
 1374 0068 04AB     		add	r3, sp, #16
 1375 006a D855     		strb	r0, [r3, r7]
 296:..\..\common\lib\nokia5110/LCD5110_Graph.c **** 		{
 1376              		.loc 2 296 0
 1377 006c 002E     		cmp	r6, #0
 1378 006e 02D0     		beq	.L116
 298:..\..\common\lib\nokia5110/LCD5110_Graph.c **** 		}
 1379              		.loc 2 298 0
 1380 0070 2D22     		movs	r2, #45
 1381 0072 0BAB     		add	r3, sp, #44
 1382 0074 1A70     		strb	r2, [r3]
 1383              	.L116:
 301:..\..\common\lib\nokia5110/LCD5110_Graph.c **** 		{
 1384              		.loc 2 301 0
 1385 0076 B919     		adds	r1, r7, r6
 1386              	.LBE28:
 263:..\..\common\lib\nokia5110/LCD5110_Graph.c ****   
 1387              		.loc 2 263 0
 1388 0078 0023     		movs	r3, #0
 1389              	.LBB29:
 301:..\..\common\lib\nokia5110/LCD5110_Graph.c **** 		{
 1390              		.loc 2 301 0
ARM GAS  C:\Users\Petro\AppData\Local\Temp\ccEiKVD5.s 			page 35


 1391 007a 8D42     		cmp	r5, r1
 1392 007c 0DDD     		ble	.L117
 1393              	.LBB27:
 304:..\..\common\lib\nokia5110/LCD5110_Graph.c **** 			{
 1394              		.loc 2 304 0 discriminator 1
 1395 007e EA1B     		subs	r2, r5, r7
 1396 0080 921B     		subs	r2, r2, r6
 1397              	.LVL143:
 1398              	.L118:
 1399 0082 9342     		cmp	r3, r2
 1400 0084 06DA     		bge	.L130
 306:..\..\common\lib\nokia5110/LCD5110_Graph.c **** 				f++;
 1401              		.loc 2 306 0 discriminator 3
 1402 0086 6C46     		mov	r4, sp
 1403 0088 0BA8     		add	r0, sp, #44
 1404 008a 2479     		ldrb	r4, [r4, #4]
 1405 008c 8019     		adds	r0, r0, r6
 1406 008e C454     		strb	r4, [r0, r3]
 307:..\..\common\lib\nokia5110/LCD5110_Graph.c **** 			}
 1407              		.loc 2 307 0 discriminator 3
 1408 0090 0133     		adds	r3, r3, #1
 1409              	.LVL144:
 1410 0092 F6E7     		b	.L118
 1411              	.L130:
 1412 0094 D343     		mvns	r3, r2
 1413              	.LVL145:
 1414 0096 DB17     		asrs	r3, r3, #31
 1415 0098 1340     		ands	r3, r2
 1416              	.L117:
 1417              	.LVL146:
 1418              	.LBE27:
 312:..\..\common\lib\nokia5110/LCD5110_Graph.c **** 		{
 1419              		.loc 2 312 0
 1420 009a 0022     		movs	r2, #0
 314:..\..\common\lib\nokia5110/LCD5110_Graph.c **** 		}
 1421              		.loc 2 314 0
 1422 009c 9E19     		adds	r6, r3, r6
 1423              	.LVL147:
 1424 009e 0BA8     		add	r0, sp, #44
 1425 00a0 8619     		adds	r6, r0, r6
 1426              	.LVL148:
 1427              	.L121:
 1428 00a2 B81A     		subs	r0, r7, r2
 314:..\..\common\lib\nokia5110/LCD5110_Graph.c **** 		}
 1429              		.loc 2 314 0 is_stmt 0 discriminator 3
 1430 00a4 0138     		subs	r0, r0, #1
 1431 00a6 04AC     		add	r4, sp, #16
 1432 00a8 205C     		ldrb	r0, [r4, r0]
 1433 00aa B054     		strb	r0, [r6, r2]
 312:..\..\common\lib\nokia5110/LCD5110_Graph.c **** 		{
 1434              		.loc 2 312 0 is_stmt 1 discriminator 3
 1435 00ac 0132     		adds	r2, r2, #1
 1436              	.LVL149:
 1437 00ae 9742     		cmp	r7, r2
 1438 00b0 F7D1     		bne	.L121
 316:..\..\common\lib\nokia5110/LCD5110_Graph.c **** 
 1439              		.loc 2 316 0
ARM GAS  C:\Users\Petro\AppData\Local\Temp\ccEiKVD5.s 			page 36


 1440 00b2 0BAA     		add	r2, sp, #44
 1441              	.LVL150:
 1442 00b4 D318     		adds	r3, r2, r3
 1443              	.LVL151:
 1444 00b6 0022     		movs	r2, #0
 1445 00b8 5A54     		strb	r2, [r3, r1]
 1446              	.LVL152:
 1447              	.L113:
 1448              	.LBE29:
 320:..\..\common\lib\nokia5110/LCD5110_Graph.c **** }
 1449              		.loc 2 320 0
 1450 00ba 039A     		ldr	r2, [sp, #12]
 1451 00bc 0299     		ldr	r1, [sp, #8]
 1452 00be 0BA8     		add	r0, sp, #44
 1453 00c0 FFF7FEFF 		bl	print
 1454              	.LVL153:
 321:..\..\common\lib\nokia5110/LCD5110_Graph.c **** 
 1455              		.loc 2 321 0
 1456 00c4 13B0     		add	sp, sp, #76
 1457              		@ sp needed
 1458 00c6 F0BD     		pop	{r4, r5, r6, r7, pc}
 1459              		.cfi_endproc
 1460              	.LFE79:
 1461              		.size	printNumI, .-printNumI
 1462              		.global	__aeabi_dcmplt
 1463              		.section	.text.printNumF,"ax",%progbits
 1464              		.align	1
 1465              		.global	printNumF
 1466              		.code	16
 1467              		.thumb_func
 1468              		.type	printNumF, %function
 1469              	printNumF:
 1470              	.LFB80:
 324:..\..\common\lib\nokia5110/LCD5110_Graph.c **** 	char st[27];
 1471              		.loc 2 324 0
 1472              		.cfi_startproc
 1473              		@ args = 16, pretend = 0, frame = 48
 1474              		@ frame_needed = 0, uses_anonymous_args = 0
 1475              	.LVL154:
 1476 0000 F0B5     		push	{r4, r5, r6, r7, lr}
 1477              		.cfi_def_cfa_offset 20
 1478              		.cfi_offset 4, -20
 1479              		.cfi_offset 5, -16
 1480              		.cfi_offset 6, -12
 1481              		.cfi_offset 7, -8
 1482              		.cfi_offset 14, -4
 1483 0002 0F00     		movs	r7, r1
 1484 0004 8FB0     		sub	sp, sp, #60
 1485              		.cfi_def_cfa_offset 80
 324:..\..\common\lib\nokia5110/LCD5110_Graph.c **** 	char st[27];
 1486              		.loc 2 324 0
 1487 0006 0493     		str	r3, [sp, #16]
 1488 0008 14AB     		add	r3, sp, #80
 1489              	.LVL155:
 1490 000a 02CB     		ldmia	r3!, {r1}
 1491              	.LVL156:
 332:..\..\common\lib\nokia5110/LCD5110_Graph.c **** 
ARM GAS  C:\Users\Petro\AppData\Local\Temp\ccEiKVD5.s 			page 37


 1492              		.loc 2 332 0
 1493 000c 07AC     		add	r4, sp, #28
 324:..\..\common\lib\nokia5110/LCD5110_Graph.c **** 	char st[27];
 1494              		.loc 2 324 0
 1495 000e 1B78     		ldrb	r3, [r3]
 1496              	.LVL157:
 1497 0010 0600     		movs	r6, r0
 1498              	.LVL158:
 1499 0012 0393     		str	r3, [sp, #12]
 1500 0014 17AB     		add	r3, sp, #92
 1501              	.LVL159:
 1502 0016 1D78     		ldrb	r5, [r3]
 332:..\..\common\lib\nokia5110/LCD5110_Graph.c **** 
 1503              		.loc 2 332 0
 1504 0018 169B     		ldr	r3, [sp, #88]
 1505              	.LVL160:
 1506 001a 0192     		str	r2, [sp, #4]
 1507 001c 0093     		str	r3, [sp]
 1508 001e 0200     		movs	r2, r0
 1509              	.LVL161:
 1510 0020 3B00     		movs	r3, r7
 1511 0022 2000     		movs	r0, r4
 1512              	.LVL162:
 324:..\..\common\lib\nokia5110/LCD5110_Graph.c **** 	char st[27];
 1513              		.loc 2 324 0
 1514 0024 0591     		str	r1, [sp, #20]
 332:..\..\common\lib\nokia5110/LCD5110_Graph.c **** 
 1515              		.loc 2 332 0
 1516 0026 FFF7FEFF 		bl	_convert_float
 1517              	.LVL163:
 334:..\..\common\lib\nokia5110/LCD5110_Graph.c **** 	{
 1518              		.loc 2 334 0
 1519 002a 039A     		ldr	r2, [sp, #12]
 1520 002c 0023     		movs	r3, #0
 1521 002e 2E2A     		cmp	r2, #46
 1522 0030 05D1     		bne	.L148
 1523              	.L137:
 343:..\..\common\lib\nokia5110/LCD5110_Graph.c **** 	{
 1524              		.loc 2 343 0
 1525 0032 202D     		cmp	r5, #32
 1526 0034 0AD1     		bne	.L133
 1527 0036 1CE0     		b	.L134
 1528              	.LVL164:
 1529              	.L135:
 1530              	.LBB30:
 338:..\..\common\lib\nokia5110/LCD5110_Graph.c **** 			if (st[i]=='.')
 1531              		.loc 2 338 0 discriminator 2
 1532 0038 0133     		adds	r3, r3, #1
 1533              	.LVL165:
 1534 003a 1B2B     		cmp	r3, #27
 1535 003c F9D0     		beq	.L137
 1536              	.LVL166:
 1537              	.L148:
 339:..\..\common\lib\nokia5110/LCD5110_Graph.c **** 				st[i]=divider;
 1538              		.loc 2 339 0
 1539 003e E25C     		ldrb	r2, [r4, r3]
 1540 0040 2E2A     		cmp	r2, #46
ARM GAS  C:\Users\Petro\AppData\Local\Temp\ccEiKVD5.s 			page 38


 1541 0042 F9D1     		bne	.L135
 340:..\..\common\lib\nokia5110/LCD5110_Graph.c **** 	}
 1542              		.loc 2 340 0
 1543 0044 6A46     		mov	r2, sp
 1544 0046 127B     		ldrb	r2, [r2, #12]
 1545 0048 E254     		strb	r2, [r4, r3]
 1546 004a F5E7     		b	.L135
 1547              	.LVL167:
 1548              	.L133:
 1549              	.LBE30:
 345:..\..\common\lib\nokia5110/LCD5110_Graph.c **** 		{
 1550              		.loc 2 345 0
 1551 004c 0022     		movs	r2, #0
 1552 004e 0023     		movs	r3, #0
 1553 0050 3000     		movs	r0, r6
 1554 0052 3900     		movs	r1, r7
 1555 0054 FFF7FEFF 		bl	__aeabi_dcmplt
 1556              	.LVL168:
 1557 0058 0028     		cmp	r0, #0
 1558 005a 16D0     		beq	.L144
 1559              	.LBB31:
 347:..\..\common\lib\nokia5110/LCD5110_Graph.c ****             size = sizeof st;
 1560              		.loc 2 347 0
 1561 005c 2D23     		movs	r3, #45
 1562 005e 2370     		strb	r3, [r4]
 1563              	.LVL169:
 350:..\..\common\lib\nokia5110/LCD5110_Graph.c **** 				if ((st[i]==' ') || (st[i]=='-'))
 1564              		.loc 2 350 0
 1565 0060 2C3B     		subs	r3, r3, #44
 1566              	.LVL170:
 1567              	.L142:
 351:..\..\common\lib\nokia5110/LCD5110_Graph.c **** 					st[i]=filler;
 1568              		.loc 2 351 0
 1569 0062 E25C     		ldrb	r2, [r4, r3]
 1570 0064 202A     		cmp	r2, #32
 1571 0066 0BD0     		beq	.L140
 351:..\..\common\lib\nokia5110/LCD5110_Graph.c **** 					st[i]=filler;
 1572              		.loc 2 351 0 is_stmt 0 discriminator 1
 1573 0068 2D2A     		cmp	r2, #45
 1574 006a 09D0     		beq	.L140
 1575              	.L141:
 350:..\..\common\lib\nokia5110/LCD5110_Graph.c **** 				if ((st[i]==' ') || (st[i]=='-'))
 1576              		.loc 2 350 0 is_stmt 1 discriminator 2
 1577 006c 0133     		adds	r3, r3, #1
 1578              	.LVL171:
 1579 006e 1B2B     		cmp	r3, #27
 1580 0070 F7D1     		bne	.L142
 1581              	.LVL172:
 1582              	.L134:
 1583              	.LBE31:
 364:..\..\common\lib\nokia5110/LCD5110_Graph.c **** }
 1584              		.loc 2 364 0
 1585 0072 059A     		ldr	r2, [sp, #20]
 1586 0074 0499     		ldr	r1, [sp, #16]
 1587 0076 2000     		movs	r0, r4
 1588 0078 FFF7FEFF 		bl	print
 1589              	.LVL173:
ARM GAS  C:\Users\Petro\AppData\Local\Temp\ccEiKVD5.s 			page 39


 365:..\..\common\lib\nokia5110/LCD5110_Graph.c **** 
 1590              		.loc 2 365 0
 1591 007c 0FB0     		add	sp, sp, #60
 1592              		@ sp needed
 1593              	.LVL174:
 1594 007e F0BD     		pop	{r4, r5, r6, r7, pc}
 1595              	.LVL175:
 1596              	.L140:
 1597              	.LBB32:
 352:..\..\common\lib\nokia5110/LCD5110_Graph.c **** 		}
 1598              		.loc 2 352 0
 1599 0080 E554     		strb	r5, [r4, r3]
 1600 0082 F3E7     		b	.L141
 1601              	.LVL176:
 1602              	.L143:
 1603              	.LBE32:
 1604              	.LBB33:
 358:..\..\common\lib\nokia5110/LCD5110_Graph.c **** 				if (st[i]==' ')
 1605              		.loc 2 358 0 discriminator 2
 1606 0084 0130     		adds	r0, r0, #1
 1607              	.LVL177:
 1608 0086 1B28     		cmp	r0, #27
 1609 0088 F3D0     		beq	.L134
 1610              	.LVL178:
 1611              	.L144:
 359:..\..\common\lib\nokia5110/LCD5110_Graph.c **** 					st[i]=filler;
 1612              		.loc 2 359 0
 1613 008a 235C     		ldrb	r3, [r4, r0]
 1614 008c 202B     		cmp	r3, #32
 1615 008e F9D1     		bne	.L143
 360:..\..\common\lib\nokia5110/LCD5110_Graph.c **** 		}
 1616              		.loc 2 360 0
 1617 0090 2554     		strb	r5, [r4, r0]
 1618 0092 F7E7     		b	.L143
 1619              	.LBE33:
 1620              		.cfi_endproc
 1621              	.LFE80:
 1622              		.size	printNumF, .-printNumF
 1623              		.section	.text.setFont,"ax",%progbits
 1624              		.align	1
 1625              		.global	setFont
 1626              		.code	16
 1627              		.thumb_func
 1628              		.type	setFont, %function
 1629              	setFont:
 1630              	.LFB82:
 425:..\..\common\lib\nokia5110/LCD5110_Graph.c **** 
 426:..\..\common\lib\nokia5110/LCD5110_Graph.c **** void setFont(uint8_t* font)
 427:..\..\common\lib\nokia5110/LCD5110_Graph.c **** {
 1631              		.loc 2 427 0
 1632              		.cfi_startproc
 1633              		@ args = 0, pretend = 0, frame = 0
 1634              		@ frame_needed = 0, uses_anonymous_args = 0
 1635              		@ link register save eliminated.
 1636              	.LVL179:
 428:..\..\common\lib\nokia5110/LCD5110_Graph.c **** 	cfont.font=font;
 1637              		.loc 2 428 0
ARM GAS  C:\Users\Petro\AppData\Local\Temp\ccEiKVD5.s 			page 40


 1638 0000 064B     		ldr	r3, .L156
 429:..\..\common\lib\nokia5110/LCD5110_Graph.c **** 	cfont.x_size=fontbyte(0);
 430:..\..\common\lib\nokia5110/LCD5110_Graph.c **** 	cfont.y_size=fontbyte(1);
 431:..\..\common\lib\nokia5110/LCD5110_Graph.c **** 	cfont.offset=fontbyte(2);
 432:..\..\common\lib\nokia5110/LCD5110_Graph.c **** 	cfont.numchars=fontbyte(3);
 433:..\..\common\lib\nokia5110/LCD5110_Graph.c **** 	cfont.inverted=0;
 434:..\..\common\lib\nokia5110/LCD5110_Graph.c **** }
 1639              		.loc 2 434 0
 1640              		@ sp needed
 428:..\..\common\lib\nokia5110/LCD5110_Graph.c **** 	cfont.font=font;
 1641              		.loc 2 428 0
 1642 0002 1860     		str	r0, [r3]
 429:..\..\common\lib\nokia5110/LCD5110_Graph.c **** 	cfont.x_size=fontbyte(0);
 1643              		.loc 2 429 0
 1644 0004 0278     		ldrb	r2, [r0]
 1645 0006 1A71     		strb	r2, [r3, #4]
 430:..\..\common\lib\nokia5110/LCD5110_Graph.c **** 	cfont.offset=fontbyte(2);
 1646              		.loc 2 430 0
 1647 0008 4278     		ldrb	r2, [r0, #1]
 1648 000a 5A71     		strb	r2, [r3, #5]
 431:..\..\common\lib\nokia5110/LCD5110_Graph.c **** 	cfont.numchars=fontbyte(3);
 1649              		.loc 2 431 0
 1650 000c 8278     		ldrb	r2, [r0, #2]
 1651 000e 9A71     		strb	r2, [r3, #6]
 432:..\..\common\lib\nokia5110/LCD5110_Graph.c **** 	cfont.inverted=0;
 1652              		.loc 2 432 0
 1653 0010 C278     		ldrb	r2, [r0, #3]
 1654 0012 DA71     		strb	r2, [r3, #7]
 433:..\..\common\lib\nokia5110/LCD5110_Graph.c **** }
 1655              		.loc 2 433 0
 1656 0014 0022     		movs	r2, #0
 1657 0016 1A72     		strb	r2, [r3, #8]
 1658              		.loc 2 434 0
 1659 0018 7047     		bx	lr
 1660              	.L157:
 1661 001a C046     		.align	2
 1662              	.L156:
 1663 001c 00000000 		.word	cfont
 1664              		.cfi_endproc
 1665              	.LFE82:
 1666              		.size	setFont, .-setFont
 1667              		.section	.text.drawHLine,"ax",%progbits
 1668              		.align	1
 1669              		.global	drawHLine
 1670              		.code	16
 1671              		.thumb_func
 1672              		.type	drawHLine, %function
 1673              	drawHLine:
 1674              	.LFB83:
 435:..\..\common\lib\nokia5110/LCD5110_Graph.c **** 
 436:..\..\common\lib\nokia5110/LCD5110_Graph.c **** void drawHLine(int x, int y, int l)
 437:..\..\common\lib\nokia5110/LCD5110_Graph.c **** {
 1675              		.loc 2 437 0
 1676              		.cfi_startproc
 1677              		@ args = 0, pretend = 0, frame = 0
 1678              		@ frame_needed = 0, uses_anonymous_args = 0
 1679              	.LVL180:
ARM GAS  C:\Users\Petro\AppData\Local\Temp\ccEiKVD5.s 			page 41


 1680 0000 70B5     		push	{r4, r5, r6, lr}
 1681              		.cfi_def_cfa_offset 16
 1682              		.cfi_offset 4, -16
 1683              		.cfi_offset 5, -12
 1684              		.cfi_offset 6, -8
 1685              		.cfi_offset 14, -4
 438:..\..\common\lib\nokia5110/LCD5110_Graph.c **** 	int by, bi;
 439:..\..\common\lib\nokia5110/LCD5110_Graph.c **** 
 440:..\..\common\lib\nokia5110/LCD5110_Graph.c **** 	if ((x>=0) && (x<84) && (y>=0) && (y<48))
 1686              		.loc 2 440 0
 1687 0002 5328     		cmp	r0, #83
 1688 0004 14D8     		bhi	.L158
 1689              		.loc 2 440 0 is_stmt 0 discriminator 2
 1690 0006 2F29     		cmp	r1, #47
 1691 0008 12D8     		bhi	.L158
 1692 000a 5423     		movs	r3, #84
 1693 000c CC10     		asrs	r4, r1, #3
 1694 000e 6343     		muls	r3, r4
 1695              	.LBB38:
 1696              	.LBB39:
 1697              	.LBB40:
 441:..\..\common\lib\nokia5110/LCD5110_Graph.c **** 	{
 442:..\..\common\lib\nokia5110/LCD5110_Graph.c ****         int cx;
 443:..\..\common\lib\nokia5110/LCD5110_Graph.c **** 		for (cx=0; cx<l; cx++)
 444:..\..\common\lib\nokia5110/LCD5110_Graph.c **** 		{
 445:..\..\common\lib\nokia5110/LCD5110_Graph.c **** 			by=((y/8)*84)+x;
 1698              		.loc 2 445 0 is_stmt 1
 1699 0010 1818     		adds	r0, r3, r0
 1700              	.LVL181:
 446:..\..\common\lib\nokia5110/LCD5110_Graph.c **** 			bi=y % 8;
 447:..\..\common\lib\nokia5110/LCD5110_Graph.c **** 
 448:..\..\common\lib\nokia5110/LCD5110_Graph.c **** 			scrbuf[by+cx] |= (1<<bi);
 1701              		.loc 2 448 0
 1702 0012 0723     		movs	r3, #7
 1703 0014 0B40     		ands	r3, r1
 1704 0016 0121     		movs	r1, #1
 1705              	.LVL182:
 1706 0018 9940     		lsls	r1, r1, r3
 1707 001a 0023     		movs	r3, #0
 1708 001c 054E     		ldr	r6, .L163
 1709 001e 49B2     		sxtb	r1, r1
 1710              	.L161:
 1711              	.LVL183:
 443:..\..\common\lib\nokia5110/LCD5110_Graph.c **** 		{
 1712              		.loc 2 443 0
 1713 0020 9A42     		cmp	r2, r3
 1714 0022 05DD     		ble	.L158
 1715              	.LVL184:
 1716 0024 8519     		adds	r5, r0, r6
 1717              		.loc 2 448 0
 1718 0026 EC5C     		ldrb	r4, [r5, r3]
 1719 0028 0C43     		orrs	r4, r1
 1720 002a EC54     		strb	r4, [r5, r3]
 443:..\..\common\lib\nokia5110/LCD5110_Graph.c **** 		{
 1721              		.loc 2 443 0
 1722 002c 0133     		adds	r3, r3, #1
 1723              	.LVL185:
ARM GAS  C:\Users\Petro\AppData\Local\Temp\ccEiKVD5.s 			page 42


 1724 002e F7E7     		b	.L161
 1725              	.LVL186:
 1726              	.L158:
 1727              	.LBE40:
 1728              	.LBE39:
 1729              	.LBE38:
 449:..\..\common\lib\nokia5110/LCD5110_Graph.c **** 		}
 450:..\..\common\lib\nokia5110/LCD5110_Graph.c **** 	}
 451:..\..\common\lib\nokia5110/LCD5110_Graph.c **** }
 1730              		.loc 2 451 0
 1731              		@ sp needed
 1732 0030 70BD     		pop	{r4, r5, r6, pc}
 1733              	.L164:
 1734 0032 C046     		.align	2
 1735              	.L163:
 1736 0034 00000000 		.word	scrbuf
 1737              		.cfi_endproc
 1738              	.LFE83:
 1739              		.size	drawHLine, .-drawHLine
 1740              		.section	.text.clrHLine,"ax",%progbits
 1741              		.align	1
 1742              		.global	clrHLine
 1743              		.code	16
 1744              		.thumb_func
 1745              		.type	clrHLine, %function
 1746              	clrHLine:
 1747              	.LFB84:
 452:..\..\common\lib\nokia5110/LCD5110_Graph.c **** 
 453:..\..\common\lib\nokia5110/LCD5110_Graph.c **** void clrHLine(int x, int y, int l)
 454:..\..\common\lib\nokia5110/LCD5110_Graph.c **** {
 1748              		.loc 2 454 0
 1749              		.cfi_startproc
 1750              		@ args = 0, pretend = 0, frame = 0
 1751              		@ frame_needed = 0, uses_anonymous_args = 0
 1752              	.LVL187:
 1753 0000 70B5     		push	{r4, r5, r6, lr}
 1754              		.cfi_def_cfa_offset 16
 1755              		.cfi_offset 4, -16
 1756              		.cfi_offset 5, -12
 1757              		.cfi_offset 6, -8
 1758              		.cfi_offset 14, -4
 455:..\..\common\lib\nokia5110/LCD5110_Graph.c **** 	int by, bi;
 456:..\..\common\lib\nokia5110/LCD5110_Graph.c **** 
 457:..\..\common\lib\nokia5110/LCD5110_Graph.c **** 	if ((x>=0) && (x<84) && (y>=0) && (y<48))
 1759              		.loc 2 457 0
 1760 0002 5328     		cmp	r0, #83
 1761 0004 15D8     		bhi	.L165
 1762              		.loc 2 457 0 is_stmt 0 discriminator 2
 1763 0006 2F29     		cmp	r1, #47
 1764 0008 13D8     		bhi	.L165
 1765 000a 5423     		movs	r3, #84
 1766 000c CC10     		asrs	r4, r1, #3
 1767 000e 6343     		muls	r3, r4
 1768              	.LBB45:
 1769              	.LBB46:
 1770              	.LBB47:
 458:..\..\common\lib\nokia5110/LCD5110_Graph.c **** 	{
ARM GAS  C:\Users\Petro\AppData\Local\Temp\ccEiKVD5.s 			page 43


 459:..\..\common\lib\nokia5110/LCD5110_Graph.c ****         int cx;
 460:..\..\common\lib\nokia5110/LCD5110_Graph.c **** 		for (cx=0; cx<l; cx++)
 461:..\..\common\lib\nokia5110/LCD5110_Graph.c **** 		{
 462:..\..\common\lib\nokia5110/LCD5110_Graph.c **** 			by=((y/8)*84)+x;
 1771              		.loc 2 462 0 is_stmt 1
 1772 0010 1818     		adds	r0, r3, r0
 1773              	.LVL188:
 463:..\..\common\lib\nokia5110/LCD5110_Graph.c **** 			bi=y % 8;
 464:..\..\common\lib\nokia5110/LCD5110_Graph.c **** 
 465:..\..\common\lib\nokia5110/LCD5110_Graph.c **** 			scrbuf[by+cx] &= ~(1<<bi);
 1774              		.loc 2 465 0
 1775 0012 0723     		movs	r3, #7
 1776 0014 1940     		ands	r1, r3
 1777              	.LVL189:
 1778 0016 063B     		subs	r3, r3, #6
 1779 0018 8B40     		lsls	r3, r3, r1
 1780 001a DB43     		mvns	r3, r3
 1781 001c 0021     		movs	r1, #0
 1782 001e 054E     		ldr	r6, .L170
 1783 0020 5BB2     		sxtb	r3, r3
 1784              	.L168:
 1785              	.LVL190:
 460:..\..\common\lib\nokia5110/LCD5110_Graph.c **** 		{
 1786              		.loc 2 460 0
 1787 0022 8A42     		cmp	r2, r1
 1788 0024 05DD     		ble	.L165
 1789              	.LVL191:
 1790 0026 8519     		adds	r5, r0, r6
 1791              		.loc 2 465 0
 1792 0028 6C5C     		ldrb	r4, [r5, r1]
 1793 002a 1C40     		ands	r4, r3
 1794 002c 6C54     		strb	r4, [r5, r1]
 460:..\..\common\lib\nokia5110/LCD5110_Graph.c **** 		{
 1795              		.loc 2 460 0
 1796 002e 0131     		adds	r1, r1, #1
 1797              	.LVL192:
 1798 0030 F7E7     		b	.L168
 1799              	.LVL193:
 1800              	.L165:
 1801              	.LBE47:
 1802              	.LBE46:
 1803              	.LBE45:
 466:..\..\common\lib\nokia5110/LCD5110_Graph.c **** 		}
 467:..\..\common\lib\nokia5110/LCD5110_Graph.c **** 	}
 468:..\..\common\lib\nokia5110/LCD5110_Graph.c **** }
 1804              		.loc 2 468 0
 1805              		@ sp needed
 1806 0032 70BD     		pop	{r4, r5, r6, pc}
 1807              	.L171:
 1808              		.align	2
 1809              	.L170:
 1810 0034 00000000 		.word	scrbuf
 1811              		.cfi_endproc
 1812              	.LFE84:
 1813              		.size	clrHLine, .-clrHLine
 1814              		.section	.text.drawVLine,"ax",%progbits
 1815              		.align	1
ARM GAS  C:\Users\Petro\AppData\Local\Temp\ccEiKVD5.s 			page 44


 1816              		.global	drawVLine
 1817              		.code	16
 1818              		.thumb_func
 1819              		.type	drawVLine, %function
 1820              	drawVLine:
 1821              	.LFB85:
 469:..\..\common\lib\nokia5110/LCD5110_Graph.c **** 
 470:..\..\common\lib\nokia5110/LCD5110_Graph.c **** void drawVLine(int x, int y, int l)
 471:..\..\common\lib\nokia5110/LCD5110_Graph.c **** {
 1822              		.loc 2 471 0
 1823              		.cfi_startproc
 1824              		@ args = 0, pretend = 0, frame = 0
 1825              		@ frame_needed = 0, uses_anonymous_args = 0
 1826              	.LVL194:
 1827 0000 F8B5     		push	{r3, r4, r5, r6, r7, lr}
 1828              		.cfi_def_cfa_offset 24
 1829              		.cfi_offset 3, -24
 1830              		.cfi_offset 4, -20
 1831              		.cfi_offset 5, -16
 1832              		.cfi_offset 6, -12
 1833              		.cfi_offset 7, -8
 1834              		.cfi_offset 14, -4
 1835              		.loc 2 471 0
 1836 0002 0500     		movs	r5, r0
 1837 0004 0E00     		movs	r6, r1
 1838 0006 1700     		movs	r7, r2
 472:..\..\common\lib\nokia5110/LCD5110_Graph.c **** 	int by, bi;
 473:..\..\common\lib\nokia5110/LCD5110_Graph.c **** 
 474:..\..\common\lib\nokia5110/LCD5110_Graph.c **** 	if ((x>=0) && (x<84) && (y>=0) && (y<48))
 1839              		.loc 2 474 0
 1840 0008 5328     		cmp	r0, #83
 1841 000a 0BD8     		bhi	.L172
 1842 000c 0024     		movs	r4, #0
 1843              		.loc 2 474 0 is_stmt 0 discriminator 2
 1844 000e 2F29     		cmp	r1, #47
 1845 0010 08D8     		bhi	.L172
 1846              	.LVL195:
 1847              	.L175:
 1848              	.LBB52:
 1849              	.LBB53:
 1850              	.LBB54:
 475:..\..\common\lib\nokia5110/LCD5110_Graph.c **** 	{
 476:..\..\common\lib\nokia5110/LCD5110_Graph.c ****         int cy;
 477:..\..\common\lib\nokia5110/LCD5110_Graph.c **** 		for (cy=0; cy<l; cy++)
 1851              		.loc 2 477 0 is_stmt 1
 1852 0012 A742     		cmp	r7, r4
 1853 0014 06DD     		ble	.L172
 478:..\..\common\lib\nokia5110/LCD5110_Graph.c **** 		{
 479:..\..\common\lib\nokia5110/LCD5110_Graph.c **** 			setPixel(x, y+cy);
 1854              		.loc 2 479 0
 1855 0016 A119     		adds	r1, r4, r6
 1856 0018 89B2     		uxth	r1, r1
 1857 001a A8B2     		uxth	r0, r5
 1858 001c FFF7FEFF 		bl	setPixel
 1859              	.LVL196:
 477:..\..\common\lib\nokia5110/LCD5110_Graph.c **** 		{
 1860              		.loc 2 477 0
ARM GAS  C:\Users\Petro\AppData\Local\Temp\ccEiKVD5.s 			page 45


 1861 0020 0134     		adds	r4, r4, #1
 1862              	.LVL197:
 1863 0022 F6E7     		b	.L175
 1864              	.LVL198:
 1865              	.L172:
 1866              	.LBE54:
 1867              	.LBE53:
 1868              	.LBE52:
 480:..\..\common\lib\nokia5110/LCD5110_Graph.c **** 		}
 481:..\..\common\lib\nokia5110/LCD5110_Graph.c **** 	}
 482:..\..\common\lib\nokia5110/LCD5110_Graph.c **** }
 1869              		.loc 2 482 0
 1870              		@ sp needed
 1871              	.LVL199:
 1872              	.LVL200:
 1873              	.LVL201:
 1874 0024 F8BD     		pop	{r3, r4, r5, r6, r7, pc}
 1875              		.cfi_endproc
 1876              	.LFE85:
 1877              		.size	drawVLine, .-drawVLine
 1878              		.section	.text.clrVLine,"ax",%progbits
 1879              		.align	1
 1880              		.global	clrVLine
 1881              		.code	16
 1882              		.thumb_func
 1883              		.type	clrVLine, %function
 1884              	clrVLine:
 1885              	.LFB86:
 483:..\..\common\lib\nokia5110/LCD5110_Graph.c **** 
 484:..\..\common\lib\nokia5110/LCD5110_Graph.c **** void clrVLine(int x, int y, int l)
 485:..\..\common\lib\nokia5110/LCD5110_Graph.c **** {
 1886              		.loc 2 485 0
 1887              		.cfi_startproc
 1888              		@ args = 0, pretend = 0, frame = 0
 1889              		@ frame_needed = 0, uses_anonymous_args = 0
 1890              	.LVL202:
 1891 0000 F8B5     		push	{r3, r4, r5, r6, r7, lr}
 1892              		.cfi_def_cfa_offset 24
 1893              		.cfi_offset 3, -24
 1894              		.cfi_offset 4, -20
 1895              		.cfi_offset 5, -16
 1896              		.cfi_offset 6, -12
 1897              		.cfi_offset 7, -8
 1898              		.cfi_offset 14, -4
 1899              		.loc 2 485 0
 1900 0002 0500     		movs	r5, r0
 1901 0004 0E00     		movs	r6, r1
 1902 0006 1700     		movs	r7, r2
 486:..\..\common\lib\nokia5110/LCD5110_Graph.c **** 	int by, bi;
 487:..\..\common\lib\nokia5110/LCD5110_Graph.c **** 
 488:..\..\common\lib\nokia5110/LCD5110_Graph.c **** 	if ((x>=0) && (x<84) && (y>=0) && (y<48))
 1903              		.loc 2 488 0
 1904 0008 5328     		cmp	r0, #83
 1905 000a 0BD8     		bhi	.L177
 1906 000c 0024     		movs	r4, #0
 1907              		.loc 2 488 0 is_stmt 0 discriminator 2
 1908 000e 2F29     		cmp	r1, #47
ARM GAS  C:\Users\Petro\AppData\Local\Temp\ccEiKVD5.s 			page 46


 1909 0010 08D8     		bhi	.L177
 1910              	.LVL203:
 1911              	.L180:
 1912              	.LBB59:
 1913              	.LBB60:
 1914              	.LBB61:
 489:..\..\common\lib\nokia5110/LCD5110_Graph.c **** 	{
 490:..\..\common\lib\nokia5110/LCD5110_Graph.c ****         int cy;
 491:..\..\common\lib\nokia5110/LCD5110_Graph.c **** 		for (cy=0; cy<l; cy++)
 1915              		.loc 2 491 0 is_stmt 1
 1916 0012 A742     		cmp	r7, r4
 1917 0014 06DD     		ble	.L177
 492:..\..\common\lib\nokia5110/LCD5110_Graph.c **** 		{
 493:..\..\common\lib\nokia5110/LCD5110_Graph.c **** 			clrPixel(x, y+cy);
 1918              		.loc 2 493 0
 1919 0016 A119     		adds	r1, r4, r6
 1920 0018 89B2     		uxth	r1, r1
 1921 001a A8B2     		uxth	r0, r5
 1922 001c FFF7FEFF 		bl	clrPixel
 1923              	.LVL204:
 491:..\..\common\lib\nokia5110/LCD5110_Graph.c **** 		{
 1924              		.loc 2 491 0
 1925 0020 0134     		adds	r4, r4, #1
 1926              	.LVL205:
 1927 0022 F6E7     		b	.L180
 1928              	.LVL206:
 1929              	.L177:
 1930              	.LBE61:
 1931              	.LBE60:
 1932              	.LBE59:
 494:..\..\common\lib\nokia5110/LCD5110_Graph.c **** 		}
 495:..\..\common\lib\nokia5110/LCD5110_Graph.c **** 	}
 496:..\..\common\lib\nokia5110/LCD5110_Graph.c **** }
 1933              		.loc 2 496 0
 1934              		@ sp needed
 1935              	.LVL207:
 1936              	.LVL208:
 1937              	.LVL209:
 1938 0024 F8BD     		pop	{r3, r4, r5, r6, r7, pc}
 1939              		.cfi_endproc
 1940              	.LFE86:
 1941              		.size	clrVLine, .-clrVLine
 1942              		.global	__aeabi_i2d
 1943              		.global	__aeabi_ddiv
 1944              		.global	__aeabi_dadd
 1945              		.global	__aeabi_d2iz
 1946              		.global	__aeabi_dsub
 1947              		.global	__aeabi_i2f
 1948              		.global	__aeabi_f2d
 1949              		.global	__aeabi_fdiv
 1950              		.section	.text.drawLine,"ax",%progbits
 1951              		.align	1
 1952              		.global	drawLine
 1953              		.code	16
 1954              		.thumb_func
 1955              		.type	drawLine, %function
 1956              	drawLine:
ARM GAS  C:\Users\Petro\AppData\Local\Temp\ccEiKVD5.s 			page 47


 1957              	.LFB87:
 497:..\..\common\lib\nokia5110/LCD5110_Graph.c **** 
 498:..\..\common\lib\nokia5110/LCD5110_Graph.c **** void drawLine(int x1, int y1, int x2, int y2)
 499:..\..\common\lib\nokia5110/LCD5110_Graph.c **** {
 1958              		.loc 2 499 0
 1959              		.cfi_startproc
 1960              		@ args = 0, pretend = 0, frame = 16
 1961              		@ frame_needed = 0, uses_anonymous_args = 0
 1962              	.LVL210:
 1963 0000 F0B5     		push	{r4, r5, r6, r7, lr}
 1964              		.cfi_def_cfa_offset 20
 1965              		.cfi_offset 4, -20
 1966              		.cfi_offset 5, -16
 1967              		.cfi_offset 6, -12
 1968              		.cfi_offset 7, -8
 1969              		.cfi_offset 14, -4
 1970 0002 85B0     		sub	sp, sp, #20
 1971              		.cfi_def_cfa_offset 40
 1972              		.loc 2 499 0
 1973 0004 1E00     		movs	r6, r3
 1974 0006 0400     		movs	r4, r0
 1975 0008 0D00     		movs	r5, r1
 1976 000a 0092     		str	r2, [sp]
 500:..\..\common\lib\nokia5110/LCD5110_Graph.c **** 	int tmp;
 501:..\..\common\lib\nokia5110/LCD5110_Graph.c **** 	double delta, tx, ty;
 502:..\..\common\lib\nokia5110/LCD5110_Graph.c **** 	double m, b, dx, dy;
 503:..\..\common\lib\nokia5110/LCD5110_Graph.c **** 	
 504:..\..\common\lib\nokia5110/LCD5110_Graph.c **** 	if (((x2-x1)<0))
 1977              		.loc 2 504 0
 1978 000c 131A     		subs	r3, r2, r0
 1979              	.LVL211:
 1980 000e 03D5     		bpl	.L183
 505:..\..\common\lib\nokia5110/LCD5110_Graph.c **** 	{
 506:..\..\common\lib\nokia5110/LCD5110_Graph.c **** 		tmp=x1;
 507:..\..\common\lib\nokia5110/LCD5110_Graph.c **** 		x1=x2;
 508:..\..\common\lib\nokia5110/LCD5110_Graph.c **** 		x2=tmp;
 509:..\..\common\lib\nokia5110/LCD5110_Graph.c **** 		tmp=y1;
 510:..\..\common\lib\nokia5110/LCD5110_Graph.c **** 		y1=y2;
 1981              		.loc 2 510 0
 1982 0010 3500     		movs	r5, r6
 507:..\..\common\lib\nokia5110/LCD5110_Graph.c **** 		x2=tmp;
 1983              		.loc 2 507 0
 1984 0012 1400     		movs	r4, r2
 511:..\..\common\lib\nokia5110/LCD5110_Graph.c **** 		y2=tmp;
 1985              		.loc 2 511 0
 1986 0014 0E00     		movs	r6, r1
 1987              	.LVL212:
 508:..\..\common\lib\nokia5110/LCD5110_Graph.c **** 		tmp=y1;
 1988              		.loc 2 508 0
 1989 0016 0090     		str	r0, [sp]
 1990              	.LVL213:
 1991              	.L183:
 512:..\..\common\lib\nokia5110/LCD5110_Graph.c **** 	}
 513:..\..\common\lib\nokia5110/LCD5110_Graph.c ****     if (((y2-y1)<0))
 1992              		.loc 2 513 0
 1993 0018 731B     		subs	r3, r6, r5
 1994 001a 05D5     		bpl	.L184
ARM GAS  C:\Users\Petro\AppData\Local\Temp\ccEiKVD5.s 			page 48


 1995 001c 2B00     		movs	r3, r5
 514:..\..\common\lib\nokia5110/LCD5110_Graph.c **** 	{
 515:..\..\common\lib\nokia5110/LCD5110_Graph.c **** 		tmp=x1;
 516:..\..\common\lib\nokia5110/LCD5110_Graph.c **** 		x1=x2;
 517:..\..\common\lib\nokia5110/LCD5110_Graph.c **** 		x2=tmp;
 518:..\..\common\lib\nokia5110/LCD5110_Graph.c **** 		tmp=y1;
 519:..\..\common\lib\nokia5110/LCD5110_Graph.c **** 		y1=y2;
 1996              		.loc 2 519 0
 1997 001e 3500     		movs	r5, r6
 1998              	.LVL214:
 520:..\..\common\lib\nokia5110/LCD5110_Graph.c **** 		y2=tmp;
 1999              		.loc 2 520 0
 2000 0020 1E00     		movs	r6, r3
 2001              	.LVL215:
 513:..\..\common\lib\nokia5110/LCD5110_Graph.c **** 	{
 2002              		.loc 2 513 0
 2003 0022 2300     		movs	r3, r4
 2004              	.LVL216:
 516:..\..\common\lib\nokia5110/LCD5110_Graph.c **** 		x2=tmp;
 2005              		.loc 2 516 0
 2006 0024 009C     		ldr	r4, [sp]
 2007              	.LVL217:
 517:..\..\common\lib\nokia5110/LCD5110_Graph.c **** 		tmp=y1;
 2008              		.loc 2 517 0
 2009 0026 0093     		str	r3, [sp]
 2010              	.LVL218:
 2011              	.L184:
 521:..\..\common\lib\nokia5110/LCD5110_Graph.c **** 	}
 522:..\..\common\lib\nokia5110/LCD5110_Graph.c **** 
 523:..\..\common\lib\nokia5110/LCD5110_Graph.c **** 	if (y1==y2)
 524:..\..\common\lib\nokia5110/LCD5110_Graph.c **** 	{
 525:..\..\common\lib\nokia5110/LCD5110_Graph.c **** 		if (x1>x2)
 2012              		.loc 2 525 0
 2013 0028 009B     		ldr	r3, [sp]
 523:..\..\common\lib\nokia5110/LCD5110_Graph.c **** 	{
 2014              		.loc 2 523 0
 2015 002a B542     		cmp	r5, r6
 2016 002c 0BD1     		bne	.L185
 2017              		.loc 2 525 0
 2018 002e 9C42     		cmp	r4, r3
 2019 0030 02DD     		ble	.L186
 2020 0032 2300     		movs	r3, r4
 2021 0034 009C     		ldr	r4, [sp]
 2022              	.LVL219:
 2023 0036 0093     		str	r3, [sp]
 2024              	.LVL220:
 2025              	.L186:
 526:..\..\common\lib\nokia5110/LCD5110_Graph.c **** 		{
 527:..\..\common\lib\nokia5110/LCD5110_Graph.c **** 			tmp=x1;
 528:..\..\common\lib\nokia5110/LCD5110_Graph.c **** 			x1=x2;
 529:..\..\common\lib\nokia5110/LCD5110_Graph.c **** 			x2=tmp;
 530:..\..\common\lib\nokia5110/LCD5110_Graph.c **** 		}
 531:..\..\common\lib\nokia5110/LCD5110_Graph.c **** 		drawHLine(x1, y1, x2-x1);
 2026              		.loc 2 531 0
 2027 0038 009B     		ldr	r3, [sp]
 2028 003a 2900     		movs	r1, r5
 2029 003c 1A1B     		subs	r2, r3, r4
ARM GAS  C:\Users\Petro\AppData\Local\Temp\ccEiKVD5.s 			page 49


 2030 003e 2000     		movs	r0, r4
 2031 0040 FFF7FEFF 		bl	drawHLine
 2032              	.LVL221:
 2033 0044 90E0     		b	.L182
 2034              	.LVL222:
 2035              	.L185:
 532:..\..\common\lib\nokia5110/LCD5110_Graph.c **** 	}
 533:..\..\common\lib\nokia5110/LCD5110_Graph.c **** 	else if (x1==x2)
 2036              		.loc 2 533 0
 2037 0046 9C42     		cmp	r4, r3
 2038 0048 0AD1     		bne	.L188
 534:..\..\common\lib\nokia5110/LCD5110_Graph.c **** 	{
 535:..\..\common\lib\nokia5110/LCD5110_Graph.c **** 		if (y1>y2)
 2039              		.loc 2 535 0
 2040 004a B542     		cmp	r5, r6
 2041 004c 02DD     		ble	.L189
 2042 004e 2B00     		movs	r3, r5
 2043              	.LVL223:
 2044 0050 3500     		movs	r5, r6
 2045              	.LVL224:
 2046 0052 1E00     		movs	r6, r3
 2047              	.LVL225:
 2048              	.L189:
 536:..\..\common\lib\nokia5110/LCD5110_Graph.c **** 		{
 537:..\..\common\lib\nokia5110/LCD5110_Graph.c **** 			tmp=y1;
 538:..\..\common\lib\nokia5110/LCD5110_Graph.c **** 			y1=y2;
 539:..\..\common\lib\nokia5110/LCD5110_Graph.c **** 			y2=tmp;
 540:..\..\common\lib\nokia5110/LCD5110_Graph.c **** 		}
 541:..\..\common\lib\nokia5110/LCD5110_Graph.c **** 		drawVLine(x1, y1, y2-y1);
 2049              		.loc 2 541 0
 2050 0054 721B     		subs	r2, r6, r5
 2051 0056 2900     		movs	r1, r5
 2052 0058 2000     		movs	r0, r4
 2053 005a FFF7FEFF 		bl	drawVLine
 2054              	.LVL226:
 2055 005e 83E0     		b	.L182
 2056              	.LVL227:
 2057              	.L188:
 542:..\..\common\lib\nokia5110/LCD5110_Graph.c **** 	}
 543:..\..\common\lib\nokia5110/LCD5110_Graph.c **** 	else if (abs(x2-x1)>abs(y2-y1))
 2058              		.loc 2 543 0
 2059 0060 009B     		ldr	r3, [sp]
 2060              	.LVL228:
 2061 0062 771B     		subs	r7, r6, r5
 2062 0064 1B1B     		subs	r3, r3, r4
 2063 0066 D917     		asrs	r1, r3, #31
 2064 0068 5A18     		adds	r2, r3, r1
 2065 006a 4A40     		eors	r2, r1
 2066 006c F917     		asrs	r1, r7, #31
 2067 006e 0293     		str	r3, [sp, #8]
 2068 0070 7B18     		adds	r3, r7, r1
 2069 0072 4B40     		eors	r3, r1
 2070 0074 9A42     		cmp	r2, r3
 2071 0076 49DD     		ble	.L190
 544:..\..\common\lib\nokia5110/LCD5110_Graph.c **** 	{
 545:..\..\common\lib\nokia5110/LCD5110_Graph.c **** 		delta=((double)(y2-y1)/(double)(x2-x1));
 2072              		.loc 2 545 0
ARM GAS  C:\Users\Petro\AppData\Local\Temp\ccEiKVD5.s 			page 50


 2073 0078 3800     		movs	r0, r7
 2074 007a FFF7FEFF 		bl	__aeabi_i2d
 2075              	.LVL229:
 2076 007e 0600     		movs	r6, r0
 2077              	.LVL230:
 2078 0080 0298     		ldr	r0, [sp, #8]
 2079 0082 0F00     		movs	r7, r1
 2080 0084 FFF7FEFF 		bl	__aeabi_i2d
 2081              	.LVL231:
 2082 0088 0B00     		movs	r3, r1
 2083 008a 0200     		movs	r2, r0
 2084 008c 3900     		movs	r1, r7
 2085 008e 3000     		movs	r0, r6
 2086 0090 FFF7FEFF 		bl	__aeabi_ddiv
 2087              	.LVL232:
 2088 0094 0290     		str	r0, [sp, #8]
 2089 0096 0391     		str	r1, [sp, #12]
 2090              	.LVL233:
 546:..\..\common\lib\nokia5110/LCD5110_Graph.c **** 		ty=(double)(y1);
 2091              		.loc 2 546 0
 2092 0098 2800     		movs	r0, r5
 2093              	.LVL234:
 2094 009a FFF7FEFF 		bl	__aeabi_i2d
 2095              	.LVL235:
 547:..\..\common\lib\nokia5110/LCD5110_Graph.c **** 		if (x1>x2)
 2096              		.loc 2 547 0
 2097 009e 009B     		ldr	r3, [sp]
 546:..\..\common\lib\nokia5110/LCD5110_Graph.c **** 		ty=(double)(y1);
 2098              		.loc 2 546 0
 2099 00a0 0600     		movs	r6, r0
 2100 00a2 0F00     		movs	r7, r1
 2101              	.LVL236:
 2102              		.loc 2 547 0
 2103 00a4 9C42     		cmp	r4, r3
 2104 00a6 18DD     		ble	.L193
 2105              	.LVL237:
 2106              	.L192:
 2107              	.LBB62:
 548:..\..\common\lib\nokia5110/LCD5110_Graph.c **** 		{
 549:..\..\common\lib\nokia5110/LCD5110_Graph.c ****             int i;
 550:..\..\common\lib\nokia5110/LCD5110_Graph.c **** 			for (i=x1; i>=x2; i--)
 551:..\..\common\lib\nokia5110/LCD5110_Graph.c **** 			{
 552:..\..\common\lib\nokia5110/LCD5110_Graph.c **** 				setPixel(i, (int)(ty+0.5));
 2108              		.loc 2 552 0 discriminator 3
 2109 00a8 0022     		movs	r2, #0
 2110 00aa 304B     		ldr	r3, .L199
 2111 00ac 3000     		movs	r0, r6
 2112 00ae 3900     		movs	r1, r7
 2113 00b0 FFF7FEFF 		bl	__aeabi_dadd
 2114              	.LVL238:
 2115 00b4 FFF7FEFF 		bl	__aeabi_d2iz
 2116              	.LVL239:
 2117 00b8 81B2     		uxth	r1, r0
 2118 00ba A0B2     		uxth	r0, r4
 2119 00bc FFF7FEFF 		bl	setPixel
 2120              	.LVL240:
 553:..\..\common\lib\nokia5110/LCD5110_Graph.c ****         		ty=ty-delta;
ARM GAS  C:\Users\Petro\AppData\Local\Temp\ccEiKVD5.s 			page 51


 2121              		.loc 2 553 0 discriminator 3
 2122 00c0 029A     		ldr	r2, [sp, #8]
 2123 00c2 039B     		ldr	r3, [sp, #12]
 2124 00c4 3000     		movs	r0, r6
 2125 00c6 3900     		movs	r1, r7
 2126 00c8 FFF7FEFF 		bl	__aeabi_dsub
 2127              	.LVL241:
 550:..\..\common\lib\nokia5110/LCD5110_Graph.c **** 			{
 2128              		.loc 2 550 0 discriminator 3
 2129 00cc 009B     		ldr	r3, [sp]
 2130 00ce 013C     		subs	r4, r4, #1
 2131              	.LVL242:
 2132              		.loc 2 553 0 discriminator 3
 2133 00d0 0600     		movs	r6, r0
 2134              	.LVL243:
 2135 00d2 0F00     		movs	r7, r1
 2136              	.LVL244:
 550:..\..\common\lib\nokia5110/LCD5110_Graph.c **** 			{
 2137              		.loc 2 550 0 discriminator 3
 2138 00d4 A342     		cmp	r3, r4
 2139 00d6 E7DD     		ble	.L192
 2140 00d8 46E0     		b	.L182
 2141              	.LVL245:
 2142              	.L193:
 2143              	.LBE62:
 2144              	.LBB63:
 554:..\..\common\lib\nokia5110/LCD5110_Graph.c **** 			}
 555:..\..\common\lib\nokia5110/LCD5110_Graph.c **** 		}
 556:..\..\common\lib\nokia5110/LCD5110_Graph.c **** 		else
 557:..\..\common\lib\nokia5110/LCD5110_Graph.c **** 		{
 558:..\..\common\lib\nokia5110/LCD5110_Graph.c ****             int i;
 559:..\..\common\lib\nokia5110/LCD5110_Graph.c **** 			for (i=x1; i<=x2; i++)
 560:..\..\common\lib\nokia5110/LCD5110_Graph.c **** 			{
 561:..\..\common\lib\nokia5110/LCD5110_Graph.c **** 				setPixel(i, (int)(ty+0.5));
 2145              		.loc 2 561 0 discriminator 3
 2146 00da 0022     		movs	r2, #0
 2147 00dc 234B     		ldr	r3, .L199
 2148 00de 3000     		movs	r0, r6
 2149 00e0 3900     		movs	r1, r7
 2150 00e2 FFF7FEFF 		bl	__aeabi_dadd
 2151              	.LVL246:
 2152 00e6 FFF7FEFF 		bl	__aeabi_d2iz
 2153              	.LVL247:
 2154 00ea 81B2     		uxth	r1, r0
 2155 00ec A0B2     		uxth	r0, r4
 2156 00ee FFF7FEFF 		bl	setPixel
 2157              	.LVL248:
 562:..\..\common\lib\nokia5110/LCD5110_Graph.c ****         		ty=ty+delta;
 2158              		.loc 2 562 0 discriminator 3
 2159 00f2 029A     		ldr	r2, [sp, #8]
 2160 00f4 039B     		ldr	r3, [sp, #12]
 2161 00f6 3000     		movs	r0, r6
 2162 00f8 3900     		movs	r1, r7
 2163 00fa FFF7FEFF 		bl	__aeabi_dadd
 2164              	.LVL249:
 559:..\..\common\lib\nokia5110/LCD5110_Graph.c **** 			{
 2165              		.loc 2 559 0 discriminator 3
ARM GAS  C:\Users\Petro\AppData\Local\Temp\ccEiKVD5.s 			page 52


 2166 00fe 009B     		ldr	r3, [sp]
 2167 0100 0134     		adds	r4, r4, #1
 2168              	.LVL250:
 2169              		.loc 2 562 0 discriminator 3
 2170 0102 0600     		movs	r6, r0
 2171              	.LVL251:
 2172 0104 0F00     		movs	r7, r1
 2173              	.LVL252:
 559:..\..\common\lib\nokia5110/LCD5110_Graph.c **** 			{
 2174              		.loc 2 559 0 discriminator 3
 2175 0106 A342     		cmp	r3, r4
 2176 0108 E7DA     		bge	.L193
 2177 010a 2DE0     		b	.L182
 2178              	.LVL253:
 2179              	.L190:
 2180              	.LBE63:
 563:..\..\common\lib\nokia5110/LCD5110_Graph.c **** 			}
 564:..\..\common\lib\nokia5110/LCD5110_Graph.c **** 		}
 565:..\..\common\lib\nokia5110/LCD5110_Graph.c **** 	}
 566:..\..\common\lib\nokia5110/LCD5110_Graph.c **** 	else
 567:..\..\common\lib\nokia5110/LCD5110_Graph.c **** 	{
 568:..\..\common\lib\nokia5110/LCD5110_Graph.c **** 		delta=((float)(x2-x1)/(float)(y2-y1));
 569:..\..\common\lib\nokia5110/LCD5110_Graph.c **** 		tx=(float)(x1);
 570:..\..\common\lib\nokia5110/LCD5110_Graph.c ****         if (y1>y2)
 2181              		.loc 2 570 0
 2182 010c B542     		cmp	r5, r6
 2183 010e 2BDC     		bgt	.L182
 569:..\..\common\lib\nokia5110/LCD5110_Graph.c ****         if (y1>y2)
 2184              		.loc 2 569 0
 2185 0110 2000     		movs	r0, r4
 2186 0112 FFF7FEFF 		bl	__aeabi_i2f
 2187              	.LVL254:
 2188 0116 FFF7FEFF 		bl	__aeabi_f2d
 2189              	.LVL255:
 2190 011a 0090     		str	r0, [sp]
 2191 011c 0191     		str	r1, [sp, #4]
 2192              	.LVL256:
 2193              	.L195:
 2194              	.LBB64:
 571:..\..\common\lib\nokia5110/LCD5110_Graph.c ****         {
 572:..\..\common\lib\nokia5110/LCD5110_Graph.c ****             int i;
 573:..\..\common\lib\nokia5110/LCD5110_Graph.c **** 			for (i=y2+1; i>y1; i--)
 574:..\..\common\lib\nokia5110/LCD5110_Graph.c **** 			{
 575:..\..\common\lib\nokia5110/LCD5110_Graph.c **** 		 		setPixel((int)(tx+0.5), i);
 576:..\..\common\lib\nokia5110/LCD5110_Graph.c ****         		tx=tx+delta;
 577:..\..\common\lib\nokia5110/LCD5110_Graph.c **** 			}
 578:..\..\common\lib\nokia5110/LCD5110_Graph.c ****         }
 579:..\..\common\lib\nokia5110/LCD5110_Graph.c ****         else
 580:..\..\common\lib\nokia5110/LCD5110_Graph.c ****         {
 581:..\..\common\lib\nokia5110/LCD5110_Graph.c ****             int i;
 582:..\..\common\lib\nokia5110/LCD5110_Graph.c **** 			for (i=y1; i<y2+1; i++)
 583:..\..\common\lib\nokia5110/LCD5110_Graph.c **** 			{
 584:..\..\common\lib\nokia5110/LCD5110_Graph.c **** 		 		setPixel((int)(tx+0.5), i);
 2195              		.loc 2 584 0 discriminator 3
 2196 011e 0098     		ldr	r0, [sp]
 2197 0120 0199     		ldr	r1, [sp, #4]
 2198 0122 0022     		movs	r2, #0
ARM GAS  C:\Users\Petro\AppData\Local\Temp\ccEiKVD5.s 			page 53


 2199 0124 114B     		ldr	r3, .L199
 2200 0126 FFF7FEFF 		bl	__aeabi_dadd
 2201              	.LVL257:
 2202 012a FFF7FEFF 		bl	__aeabi_d2iz
 2203              	.LVL258:
 2204 012e ACB2     		uxth	r4, r5
 2205 0130 2100     		movs	r1, r4
 2206 0132 80B2     		uxth	r0, r0
 2207 0134 FFF7FEFF 		bl	setPixel
 2208              	.LVL259:
 585:..\..\common\lib\nokia5110/LCD5110_Graph.c ****         		tx=tx+delta;
 2209              		.loc 2 585 0 discriminator 3
 2210 0138 0298     		ldr	r0, [sp, #8]
 2211 013a FFF7FEFF 		bl	__aeabi_i2f
 2212              	.LVL260:
 2213 013e 041C     		adds	r4, r0, #0
 2214 0140 3800     		movs	r0, r7
 2215 0142 FFF7FEFF 		bl	__aeabi_i2f
 2216              	.LVL261:
 2217 0146 011C     		adds	r1, r0, #0
 2218 0148 201C     		adds	r0, r4, #0
 2219 014a FFF7FEFF 		bl	__aeabi_fdiv
 2220              	.LVL262:
 2221 014e FFF7FEFF 		bl	__aeabi_f2d
 2222              	.LVL263:
 2223 0152 0200     		movs	r2, r0
 2224 0154 0B00     		movs	r3, r1
 2225 0156 0098     		ldr	r0, [sp]
 2226 0158 0199     		ldr	r1, [sp, #4]
 2227 015a FFF7FEFF 		bl	__aeabi_dadd
 2228              	.LVL264:
 582:..\..\common\lib\nokia5110/LCD5110_Graph.c **** 			{
 2229              		.loc 2 582 0 discriminator 3
 2230 015e 0135     		adds	r5, r5, #1
 2231              	.LVL265:
 2232              		.loc 2 585 0 discriminator 3
 2233 0160 0090     		str	r0, [sp]
 2234 0162 0191     		str	r1, [sp, #4]
 2235              	.LVL266:
 582:..\..\common\lib\nokia5110/LCD5110_Graph.c **** 			{
 2236              		.loc 2 582 0 discriminator 3
 2237 0164 AE42     		cmp	r6, r5
 2238 0166 DADA     		bge	.L195
 2239              	.LVL267:
 2240              	.L182:
 2241              	.LBE64:
 586:..\..\common\lib\nokia5110/LCD5110_Graph.c **** 			}
 587:..\..\common\lib\nokia5110/LCD5110_Graph.c ****         }
 588:..\..\common\lib\nokia5110/LCD5110_Graph.c **** 	}
 589:..\..\common\lib\nokia5110/LCD5110_Graph.c **** 
 590:..\..\common\lib\nokia5110/LCD5110_Graph.c **** }
 2242              		.loc 2 590 0
 2243 0168 05B0     		add	sp, sp, #20
 2244              		@ sp needed
 2245 016a F0BD     		pop	{r4, r5, r6, r7, pc}
 2246              	.L200:
 2247              		.align	2
ARM GAS  C:\Users\Petro\AppData\Local\Temp\ccEiKVD5.s 			page 54


 2248              	.L199:
 2249 016c 0000E03F 		.word	1071644672
 2250              		.cfi_endproc
 2251              	.LFE87:
 2252              		.size	drawLine, .-drawLine
 2253              		.section	.text.clrLine,"ax",%progbits
 2254              		.align	1
 2255              		.global	clrLine
 2256              		.code	16
 2257              		.thumb_func
 2258              		.type	clrLine, %function
 2259              	clrLine:
 2260              	.LFB88:
 591:..\..\common\lib\nokia5110/LCD5110_Graph.c **** 
 592:..\..\common\lib\nokia5110/LCD5110_Graph.c **** void clrLine(int x1, int y1, int x2, int y2)
 593:..\..\common\lib\nokia5110/LCD5110_Graph.c **** {
 2261              		.loc 2 593 0
 2262              		.cfi_startproc
 2263              		@ args = 0, pretend = 0, frame = 16
 2264              		@ frame_needed = 0, uses_anonymous_args = 0
 2265              	.LVL268:
 2266 0000 F0B5     		push	{r4, r5, r6, r7, lr}
 2267              		.cfi_def_cfa_offset 20
 2268              		.cfi_offset 4, -20
 2269              		.cfi_offset 5, -16
 2270              		.cfi_offset 6, -12
 2271              		.cfi_offset 7, -8
 2272              		.cfi_offset 14, -4
 2273 0002 85B0     		sub	sp, sp, #20
 2274              		.cfi_def_cfa_offset 40
 2275              		.loc 2 593 0
 2276 0004 1E00     		movs	r6, r3
 2277 0006 0400     		movs	r4, r0
 2278 0008 0D00     		movs	r5, r1
 2279 000a 0092     		str	r2, [sp]
 594:..\..\common\lib\nokia5110/LCD5110_Graph.c **** 	int tmp;
 595:..\..\common\lib\nokia5110/LCD5110_Graph.c **** 	double delta, tx, ty;
 596:..\..\common\lib\nokia5110/LCD5110_Graph.c **** 	double m, b, dx, dy;
 597:..\..\common\lib\nokia5110/LCD5110_Graph.c **** 	
 598:..\..\common\lib\nokia5110/LCD5110_Graph.c **** 	if (((x2-x1)<0))
 2280              		.loc 2 598 0
 2281 000c 131A     		subs	r3, r2, r0
 2282              	.LVL269:
 2283 000e 03D5     		bpl	.L202
 599:..\..\common\lib\nokia5110/LCD5110_Graph.c **** 	{
 600:..\..\common\lib\nokia5110/LCD5110_Graph.c **** 		tmp=x1;
 601:..\..\common\lib\nokia5110/LCD5110_Graph.c **** 		x1=x2;
 602:..\..\common\lib\nokia5110/LCD5110_Graph.c **** 		x2=tmp;
 603:..\..\common\lib\nokia5110/LCD5110_Graph.c **** 		tmp=y1;
 604:..\..\common\lib\nokia5110/LCD5110_Graph.c **** 		y1=y2;
 2284              		.loc 2 604 0
 2285 0010 3500     		movs	r5, r6
 601:..\..\common\lib\nokia5110/LCD5110_Graph.c **** 		x2=tmp;
 2286              		.loc 2 601 0
 2287 0012 1400     		movs	r4, r2
 605:..\..\common\lib\nokia5110/LCD5110_Graph.c **** 		y2=tmp;
 2288              		.loc 2 605 0
ARM GAS  C:\Users\Petro\AppData\Local\Temp\ccEiKVD5.s 			page 55


 2289 0014 0E00     		movs	r6, r1
 2290              	.LVL270:
 602:..\..\common\lib\nokia5110/LCD5110_Graph.c **** 		tmp=y1;
 2291              		.loc 2 602 0
 2292 0016 0090     		str	r0, [sp]
 2293              	.LVL271:
 2294              	.L202:
 606:..\..\common\lib\nokia5110/LCD5110_Graph.c **** 	}
 607:..\..\common\lib\nokia5110/LCD5110_Graph.c ****     if (((y2-y1)<0))
 2295              		.loc 2 607 0
 2296 0018 731B     		subs	r3, r6, r5
 2297 001a 05D5     		bpl	.L203
 2298 001c 2B00     		movs	r3, r5
 608:..\..\common\lib\nokia5110/LCD5110_Graph.c **** 	{
 609:..\..\common\lib\nokia5110/LCD5110_Graph.c **** 		tmp=x1;
 610:..\..\common\lib\nokia5110/LCD5110_Graph.c **** 		x1=x2;
 611:..\..\common\lib\nokia5110/LCD5110_Graph.c **** 		x2=tmp;
 612:..\..\common\lib\nokia5110/LCD5110_Graph.c **** 		tmp=y1;
 613:..\..\common\lib\nokia5110/LCD5110_Graph.c **** 		y1=y2;
 2299              		.loc 2 613 0
 2300 001e 3500     		movs	r5, r6
 2301              	.LVL272:
 614:..\..\common\lib\nokia5110/LCD5110_Graph.c **** 		y2=tmp;
 2302              		.loc 2 614 0
 2303 0020 1E00     		movs	r6, r3
 2304              	.LVL273:
 607:..\..\common\lib\nokia5110/LCD5110_Graph.c **** 	{
 2305              		.loc 2 607 0
 2306 0022 2300     		movs	r3, r4
 2307              	.LVL274:
 610:..\..\common\lib\nokia5110/LCD5110_Graph.c **** 		x2=tmp;
 2308              		.loc 2 610 0
 2309 0024 009C     		ldr	r4, [sp]
 2310              	.LVL275:
 611:..\..\common\lib\nokia5110/LCD5110_Graph.c **** 		tmp=y1;
 2311              		.loc 2 611 0
 2312 0026 0093     		str	r3, [sp]
 2313              	.LVL276:
 2314              	.L203:
 615:..\..\common\lib\nokia5110/LCD5110_Graph.c **** 	}
 616:..\..\common\lib\nokia5110/LCD5110_Graph.c **** 
 617:..\..\common\lib\nokia5110/LCD5110_Graph.c **** 	if (y1==y2)
 618:..\..\common\lib\nokia5110/LCD5110_Graph.c **** 	{
 619:..\..\common\lib\nokia5110/LCD5110_Graph.c **** 		if (x1>x2)
 2315              		.loc 2 619 0
 2316 0028 009B     		ldr	r3, [sp]
 617:..\..\common\lib\nokia5110/LCD5110_Graph.c **** 	{
 2317              		.loc 2 617 0
 2318 002a B542     		cmp	r5, r6
 2319 002c 0BD1     		bne	.L204
 2320              		.loc 2 619 0
 2321 002e 9C42     		cmp	r4, r3
 2322 0030 02DD     		ble	.L205
 2323 0032 2300     		movs	r3, r4
 2324 0034 009C     		ldr	r4, [sp]
 2325              	.LVL277:
 2326 0036 0093     		str	r3, [sp]
ARM GAS  C:\Users\Petro\AppData\Local\Temp\ccEiKVD5.s 			page 56


 2327              	.LVL278:
 2328              	.L205:
 620:..\..\common\lib\nokia5110/LCD5110_Graph.c **** 		{
 621:..\..\common\lib\nokia5110/LCD5110_Graph.c **** 			tmp=x1;
 622:..\..\common\lib\nokia5110/LCD5110_Graph.c **** 			x1=x2;
 623:..\..\common\lib\nokia5110/LCD5110_Graph.c **** 			x2=tmp;
 624:..\..\common\lib\nokia5110/LCD5110_Graph.c **** 		}
 625:..\..\common\lib\nokia5110/LCD5110_Graph.c **** 		clrHLine(x1, y1, x2-x1);
 2329              		.loc 2 625 0
 2330 0038 009B     		ldr	r3, [sp]
 2331 003a 2900     		movs	r1, r5
 2332 003c 1A1B     		subs	r2, r3, r4
 2333 003e 2000     		movs	r0, r4
 2334 0040 FFF7FEFF 		bl	clrHLine
 2335              	.LVL279:
 2336 0044 90E0     		b	.L201
 2337              	.LVL280:
 2338              	.L204:
 626:..\..\common\lib\nokia5110/LCD5110_Graph.c **** 	}
 627:..\..\common\lib\nokia5110/LCD5110_Graph.c **** 	else if (x1==x2)
 2339              		.loc 2 627 0
 2340 0046 9C42     		cmp	r4, r3
 2341 0048 0AD1     		bne	.L207
 628:..\..\common\lib\nokia5110/LCD5110_Graph.c **** 	{
 629:..\..\common\lib\nokia5110/LCD5110_Graph.c **** 		if (y1>y2)
 2342              		.loc 2 629 0
 2343 004a B542     		cmp	r5, r6
 2344 004c 02DD     		ble	.L208
 2345 004e 2B00     		movs	r3, r5
 2346              	.LVL281:
 2347 0050 3500     		movs	r5, r6
 2348              	.LVL282:
 2349 0052 1E00     		movs	r6, r3
 2350              	.LVL283:
 2351              	.L208:
 630:..\..\common\lib\nokia5110/LCD5110_Graph.c **** 		{
 631:..\..\common\lib\nokia5110/LCD5110_Graph.c **** 			tmp=y1;
 632:..\..\common\lib\nokia5110/LCD5110_Graph.c **** 			y1=y2;
 633:..\..\common\lib\nokia5110/LCD5110_Graph.c **** 			y2=tmp;
 634:..\..\common\lib\nokia5110/LCD5110_Graph.c **** 		}
 635:..\..\common\lib\nokia5110/LCD5110_Graph.c **** 		clrVLine(x1, y1, y2-y1);
 2352              		.loc 2 635 0
 2353 0054 721B     		subs	r2, r6, r5
 2354 0056 2900     		movs	r1, r5
 2355 0058 2000     		movs	r0, r4
 2356 005a FFF7FEFF 		bl	clrVLine
 2357              	.LVL284:
 2358 005e 83E0     		b	.L201
 2359              	.LVL285:
 2360              	.L207:
 636:..\..\common\lib\nokia5110/LCD5110_Graph.c **** 	}
 637:..\..\common\lib\nokia5110/LCD5110_Graph.c **** 	else if (abs(x2-x1)>abs(y2-y1))
 2361              		.loc 2 637 0
 2362 0060 009B     		ldr	r3, [sp]
 2363              	.LVL286:
 2364 0062 771B     		subs	r7, r6, r5
 2365 0064 1B1B     		subs	r3, r3, r4
ARM GAS  C:\Users\Petro\AppData\Local\Temp\ccEiKVD5.s 			page 57


 2366 0066 D917     		asrs	r1, r3, #31
 2367 0068 5A18     		adds	r2, r3, r1
 2368 006a 4A40     		eors	r2, r1
 2369 006c F917     		asrs	r1, r7, #31
 2370 006e 0293     		str	r3, [sp, #8]
 2371 0070 7B18     		adds	r3, r7, r1
 2372 0072 4B40     		eors	r3, r1
 2373 0074 9A42     		cmp	r2, r3
 2374 0076 49DD     		ble	.L209
 638:..\..\common\lib\nokia5110/LCD5110_Graph.c **** 	{
 639:..\..\common\lib\nokia5110/LCD5110_Graph.c **** 		delta=((double)(y2-y1))/((double)(x2-x1));
 2375              		.loc 2 639 0
 2376 0078 3800     		movs	r0, r7
 2377 007a FFF7FEFF 		bl	__aeabi_i2d
 2378              	.LVL287:
 2379 007e 0600     		movs	r6, r0
 2380              	.LVL288:
 2381 0080 0298     		ldr	r0, [sp, #8]
 2382 0082 0F00     		movs	r7, r1
 2383 0084 FFF7FEFF 		bl	__aeabi_i2d
 2384              	.LVL289:
 2385 0088 0B00     		movs	r3, r1
 2386 008a 0200     		movs	r2, r0
 2387 008c 3900     		movs	r1, r7
 2388 008e 3000     		movs	r0, r6
 2389 0090 FFF7FEFF 		bl	__aeabi_ddiv
 2390              	.LVL290:
 2391 0094 0290     		str	r0, [sp, #8]
 2392 0096 0391     		str	r1, [sp, #12]
 2393              	.LVL291:
 640:..\..\common\lib\nokia5110/LCD5110_Graph.c **** 		ty=(double)(y1);
 2394              		.loc 2 640 0
 2395 0098 2800     		movs	r0, r5
 2396              	.LVL292:
 2397 009a FFF7FEFF 		bl	__aeabi_i2d
 2398              	.LVL293:
 641:..\..\common\lib\nokia5110/LCD5110_Graph.c **** 		if (x1>x2)
 2399              		.loc 2 641 0
 2400 009e 009B     		ldr	r3, [sp]
 640:..\..\common\lib\nokia5110/LCD5110_Graph.c **** 		ty=(double)(y1);
 2401              		.loc 2 640 0
 2402 00a0 0600     		movs	r6, r0
 2403 00a2 0F00     		movs	r7, r1
 2404              	.LVL294:
 2405              		.loc 2 641 0
 2406 00a4 9C42     		cmp	r4, r3
 2407 00a6 18DD     		ble	.L212
 2408              	.LVL295:
 2409              	.L211:
 2410              	.LBB65:
 642:..\..\common\lib\nokia5110/LCD5110_Graph.c **** 		{
 643:..\..\common\lib\nokia5110/LCD5110_Graph.c ****             int i;
 644:..\..\common\lib\nokia5110/LCD5110_Graph.c **** 			for ( i=x1; i>=x2; i--)
 645:..\..\common\lib\nokia5110/LCD5110_Graph.c **** 			{
 646:..\..\common\lib\nokia5110/LCD5110_Graph.c **** 				clrPixel(i, (int)(ty+0.5));
 2411              		.loc 2 646 0 discriminator 3
 2412 00a8 0022     		movs	r2, #0
ARM GAS  C:\Users\Petro\AppData\Local\Temp\ccEiKVD5.s 			page 58


 2413 00aa 304B     		ldr	r3, .L218
 2414 00ac 3000     		movs	r0, r6
 2415 00ae 3900     		movs	r1, r7
 2416 00b0 FFF7FEFF 		bl	__aeabi_dadd
 2417              	.LVL296:
 2418 00b4 FFF7FEFF 		bl	__aeabi_d2iz
 2419              	.LVL297:
 2420 00b8 81B2     		uxth	r1, r0
 2421 00ba A0B2     		uxth	r0, r4
 2422 00bc FFF7FEFF 		bl	clrPixel
 2423              	.LVL298:
 647:..\..\common\lib\nokia5110/LCD5110_Graph.c ****         		ty=ty-delta;
 2424              		.loc 2 647 0 discriminator 3
 2425 00c0 029A     		ldr	r2, [sp, #8]
 2426 00c2 039B     		ldr	r3, [sp, #12]
 2427 00c4 3000     		movs	r0, r6
 2428 00c6 3900     		movs	r1, r7
 2429 00c8 FFF7FEFF 		bl	__aeabi_dsub
 2430              	.LVL299:
 644:..\..\common\lib\nokia5110/LCD5110_Graph.c **** 			{
 2431              		.loc 2 644 0 discriminator 3
 2432 00cc 009B     		ldr	r3, [sp]
 2433 00ce 013C     		subs	r4, r4, #1
 2434              	.LVL300:
 2435              		.loc 2 647 0 discriminator 3
 2436 00d0 0600     		movs	r6, r0
 2437              	.LVL301:
 2438 00d2 0F00     		movs	r7, r1
 2439              	.LVL302:
 644:..\..\common\lib\nokia5110/LCD5110_Graph.c **** 			{
 2440              		.loc 2 644 0 discriminator 3
 2441 00d4 A342     		cmp	r3, r4
 2442 00d6 E7DD     		ble	.L211
 2443 00d8 46E0     		b	.L201
 2444              	.LVL303:
 2445              	.L212:
 2446              	.LBE65:
 2447              	.LBB66:
 648:..\..\common\lib\nokia5110/LCD5110_Graph.c **** 			}
 649:..\..\common\lib\nokia5110/LCD5110_Graph.c **** 		}
 650:..\..\common\lib\nokia5110/LCD5110_Graph.c **** 		else
 651:..\..\common\lib\nokia5110/LCD5110_Graph.c **** 		{
 652:..\..\common\lib\nokia5110/LCD5110_Graph.c ****             int i;
 653:..\..\common\lib\nokia5110/LCD5110_Graph.c **** 			for (i=x1; i<=x2; i++)
 654:..\..\common\lib\nokia5110/LCD5110_Graph.c **** 			{
 655:..\..\common\lib\nokia5110/LCD5110_Graph.c **** 				clrPixel(i, (int)(ty+0.5));
 2448              		.loc 2 655 0 discriminator 3
 2449 00da 0022     		movs	r2, #0
 2450 00dc 234B     		ldr	r3, .L218
 2451 00de 3000     		movs	r0, r6
 2452 00e0 3900     		movs	r1, r7
 2453 00e2 FFF7FEFF 		bl	__aeabi_dadd
 2454              	.LVL304:
 2455 00e6 FFF7FEFF 		bl	__aeabi_d2iz
 2456              	.LVL305:
 2457 00ea 81B2     		uxth	r1, r0
 2458 00ec A0B2     		uxth	r0, r4
ARM GAS  C:\Users\Petro\AppData\Local\Temp\ccEiKVD5.s 			page 59


 2459 00ee FFF7FEFF 		bl	clrPixel
 2460              	.LVL306:
 656:..\..\common\lib\nokia5110/LCD5110_Graph.c ****         		ty=ty+delta;
 2461              		.loc 2 656 0 discriminator 3
 2462 00f2 029A     		ldr	r2, [sp, #8]
 2463 00f4 039B     		ldr	r3, [sp, #12]
 2464 00f6 3000     		movs	r0, r6
 2465 00f8 3900     		movs	r1, r7
 2466 00fa FFF7FEFF 		bl	__aeabi_dadd
 2467              	.LVL307:
 653:..\..\common\lib\nokia5110/LCD5110_Graph.c **** 			{
 2468              		.loc 2 653 0 discriminator 3
 2469 00fe 009B     		ldr	r3, [sp]
 2470 0100 0134     		adds	r4, r4, #1
 2471              	.LVL308:
 2472              		.loc 2 656 0 discriminator 3
 2473 0102 0600     		movs	r6, r0
 2474              	.LVL309:
 2475 0104 0F00     		movs	r7, r1
 2476              	.LVL310:
 653:..\..\common\lib\nokia5110/LCD5110_Graph.c **** 			{
 2477              		.loc 2 653 0 discriminator 3
 2478 0106 A342     		cmp	r3, r4
 2479 0108 E7DA     		bge	.L212
 2480 010a 2DE0     		b	.L201
 2481              	.LVL311:
 2482              	.L209:
 2483              	.LBE66:
 657:..\..\common\lib\nokia5110/LCD5110_Graph.c **** 			}
 658:..\..\common\lib\nokia5110/LCD5110_Graph.c **** 		}
 659:..\..\common\lib\nokia5110/LCD5110_Graph.c **** 	}
 660:..\..\common\lib\nokia5110/LCD5110_Graph.c **** 	else
 661:..\..\common\lib\nokia5110/LCD5110_Graph.c **** 	{
 662:..\..\common\lib\nokia5110/LCD5110_Graph.c **** 		delta=((float)(x2-x1)/(float)(y2-y1));
 663:..\..\common\lib\nokia5110/LCD5110_Graph.c **** 		tx=(float)(x1);
 664:..\..\common\lib\nokia5110/LCD5110_Graph.c ****         if (y1>y2)
 2484              		.loc 2 664 0
 2485 010c B542     		cmp	r5, r6
 2486 010e 2BDC     		bgt	.L201
 663:..\..\common\lib\nokia5110/LCD5110_Graph.c ****         if (y1>y2)
 2487              		.loc 2 663 0
 2488 0110 2000     		movs	r0, r4
 2489 0112 FFF7FEFF 		bl	__aeabi_i2f
 2490              	.LVL312:
 2491 0116 FFF7FEFF 		bl	__aeabi_f2d
 2492              	.LVL313:
 2493 011a 0090     		str	r0, [sp]
 2494 011c 0191     		str	r1, [sp, #4]
 2495              	.LVL314:
 2496              	.L214:
 2497              	.LBB67:
 665:..\..\common\lib\nokia5110/LCD5110_Graph.c ****         {
 666:..\..\common\lib\nokia5110/LCD5110_Graph.c ****             int i;
 667:..\..\common\lib\nokia5110/LCD5110_Graph.c **** 			for (i=y2+1; i>y1; i--)
 668:..\..\common\lib\nokia5110/LCD5110_Graph.c **** 			{
 669:..\..\common\lib\nokia5110/LCD5110_Graph.c **** 		 		clrPixel((int)(tx+0.5), i);
 670:..\..\common\lib\nokia5110/LCD5110_Graph.c ****         		tx=tx+delta;
ARM GAS  C:\Users\Petro\AppData\Local\Temp\ccEiKVD5.s 			page 60


 671:..\..\common\lib\nokia5110/LCD5110_Graph.c **** 			}
 672:..\..\common\lib\nokia5110/LCD5110_Graph.c ****         }
 673:..\..\common\lib\nokia5110/LCD5110_Graph.c ****         else
 674:..\..\common\lib\nokia5110/LCD5110_Graph.c ****         {
 675:..\..\common\lib\nokia5110/LCD5110_Graph.c ****             int i;
 676:..\..\common\lib\nokia5110/LCD5110_Graph.c **** 			for (i=y1; i<y2+1; i++)
 677:..\..\common\lib\nokia5110/LCD5110_Graph.c **** 			{
 678:..\..\common\lib\nokia5110/LCD5110_Graph.c **** 		 		clrPixel((int)(tx+0.5), i);
 2498              		.loc 2 678 0 discriminator 3
 2499 011e 0098     		ldr	r0, [sp]
 2500 0120 0199     		ldr	r1, [sp, #4]
 2501 0122 0022     		movs	r2, #0
 2502 0124 114B     		ldr	r3, .L218
 2503 0126 FFF7FEFF 		bl	__aeabi_dadd
 2504              	.LVL315:
 2505 012a FFF7FEFF 		bl	__aeabi_d2iz
 2506              	.LVL316:
 2507 012e ACB2     		uxth	r4, r5
 2508 0130 2100     		movs	r1, r4
 2509 0132 80B2     		uxth	r0, r0
 2510 0134 FFF7FEFF 		bl	clrPixel
 2511              	.LVL317:
 679:..\..\common\lib\nokia5110/LCD5110_Graph.c ****         		tx=tx+delta;
 2512              		.loc 2 679 0 discriminator 3
 2513 0138 0298     		ldr	r0, [sp, #8]
 2514 013a FFF7FEFF 		bl	__aeabi_i2f
 2515              	.LVL318:
 2516 013e 041C     		adds	r4, r0, #0
 2517 0140 3800     		movs	r0, r7
 2518 0142 FFF7FEFF 		bl	__aeabi_i2f
 2519              	.LVL319:
 2520 0146 011C     		adds	r1, r0, #0
 2521 0148 201C     		adds	r0, r4, #0
 2522 014a FFF7FEFF 		bl	__aeabi_fdiv
 2523              	.LVL320:
 2524 014e FFF7FEFF 		bl	__aeabi_f2d
 2525              	.LVL321:
 2526 0152 0200     		movs	r2, r0
 2527 0154 0B00     		movs	r3, r1
 2528 0156 0098     		ldr	r0, [sp]
 2529 0158 0199     		ldr	r1, [sp, #4]
 2530 015a FFF7FEFF 		bl	__aeabi_dadd
 2531              	.LVL322:
 676:..\..\common\lib\nokia5110/LCD5110_Graph.c **** 			{
 2532              		.loc 2 676 0 discriminator 3
 2533 015e 0135     		adds	r5, r5, #1
 2534              	.LVL323:
 2535              		.loc 2 679 0 discriminator 3
 2536 0160 0090     		str	r0, [sp]
 2537 0162 0191     		str	r1, [sp, #4]
 2538              	.LVL324:
 676:..\..\common\lib\nokia5110/LCD5110_Graph.c **** 			{
 2539              		.loc 2 676 0 discriminator 3
 2540 0164 AE42     		cmp	r6, r5
 2541 0166 DADA     		bge	.L214
 2542              	.LVL325:
 2543              	.L201:
ARM GAS  C:\Users\Petro\AppData\Local\Temp\ccEiKVD5.s 			page 61


 2544              	.LBE67:
 680:..\..\common\lib\nokia5110/LCD5110_Graph.c **** 			}
 681:..\..\common\lib\nokia5110/LCD5110_Graph.c ****         }
 682:..\..\common\lib\nokia5110/LCD5110_Graph.c **** 	}
 683:..\..\common\lib\nokia5110/LCD5110_Graph.c **** 
 684:..\..\common\lib\nokia5110/LCD5110_Graph.c **** }
 2545              		.loc 2 684 0
 2546 0168 05B0     		add	sp, sp, #20
 2547              		@ sp needed
 2548 016a F0BD     		pop	{r4, r5, r6, r7, pc}
 2549              	.L219:
 2550              		.align	2
 2551              	.L218:
 2552 016c 0000E03F 		.word	1071644672
 2553              		.cfi_endproc
 2554              	.LFE88:
 2555              		.size	clrLine, .-clrLine
 2556              		.section	.text.drawRect,"ax",%progbits
 2557              		.align	1
 2558              		.global	drawRect
 2559              		.code	16
 2560              		.thumb_func
 2561              		.type	drawRect, %function
 2562              	drawRect:
 2563              	.LFB89:
 685:..\..\common\lib\nokia5110/LCD5110_Graph.c **** 
 686:..\..\common\lib\nokia5110/LCD5110_Graph.c **** void drawRect(int x1, int y1, int x2, int y2)
 687:..\..\common\lib\nokia5110/LCD5110_Graph.c **** {
 2564              		.loc 2 687 0
 2565              		.cfi_startproc
 2566              		@ args = 0, pretend = 0, frame = 0
 2567              		@ frame_needed = 0, uses_anonymous_args = 0
 2568              	.LVL326:
 2569 0000 F8B5     		push	{r3, r4, r5, r6, r7, lr}
 2570              		.cfi_def_cfa_offset 24
 2571              		.cfi_offset 3, -24
 2572              		.cfi_offset 4, -20
 2573              		.cfi_offset 5, -16
 2574              		.cfi_offset 6, -12
 2575              		.cfi_offset 7, -8
 2576              		.cfi_offset 14, -4
 2577              		.loc 2 687 0
 2578 0002 0500     		movs	r5, r0
 2579 0004 0C00     		movs	r4, r1
 2580 0006 1600     		movs	r6, r2
 2581 0008 1F00     		movs	r7, r3
 688:..\..\common\lib\nokia5110/LCD5110_Graph.c **** 	int tmp;
 689:..\..\common\lib\nokia5110/LCD5110_Graph.c **** 
 690:..\..\common\lib\nokia5110/LCD5110_Graph.c **** 	if (x1>x2)
 2582              		.loc 2 690 0
 2583 000a 9042     		cmp	r0, r2
 2584 000c 01DD     		ble	.L221
 2585 000e 1500     		movs	r5, r2
 2586 0010 0600     		movs	r6, r0
 2587              	.L221:
 2588              	.LVL327:
 691:..\..\common\lib\nokia5110/LCD5110_Graph.c **** 	{
ARM GAS  C:\Users\Petro\AppData\Local\Temp\ccEiKVD5.s 			page 62


 692:..\..\common\lib\nokia5110/LCD5110_Graph.c **** 		tmp=x1;
 693:..\..\common\lib\nokia5110/LCD5110_Graph.c **** 		x1=x2;
 694:..\..\common\lib\nokia5110/LCD5110_Graph.c **** 		x2=tmp;
 695:..\..\common\lib\nokia5110/LCD5110_Graph.c **** 	}
 696:..\..\common\lib\nokia5110/LCD5110_Graph.c **** 	if (y1>y2)
 2589              		.loc 2 696 0
 2590 0012 BC42     		cmp	r4, r7
 2591 0014 02DD     		ble	.L222
 2592 0016 2300     		movs	r3, r4
 2593              	.LVL328:
 2594 0018 3C00     		movs	r4, r7
 2595 001a 1F00     		movs	r7, r3
 2596              	.LVL329:
 2597              	.L222:
 697:..\..\common\lib\nokia5110/LCD5110_Graph.c **** 	{
 698:..\..\common\lib\nokia5110/LCD5110_Graph.c **** 		tmp=y1;
 699:..\..\common\lib\nokia5110/LCD5110_Graph.c **** 		y1=y2;
 700:..\..\common\lib\nokia5110/LCD5110_Graph.c **** 		y2=tmp;
 701:..\..\common\lib\nokia5110/LCD5110_Graph.c **** 	}
 702:..\..\common\lib\nokia5110/LCD5110_Graph.c **** 
 703:..\..\common\lib\nokia5110/LCD5110_Graph.c **** 	drawHLine(x1, y1, x2-x1);
 2598              		.loc 2 703 0
 2599 001c 721B     		subs	r2, r6, r5
 2600 001e 2800     		movs	r0, r5
 2601 0020 2100     		movs	r1, r4
 2602 0022 FFF7FEFF 		bl	drawHLine
 2603              	.LVL330:
 704:..\..\common\lib\nokia5110/LCD5110_Graph.c **** 	drawHLine(x1, y2, x2-x1);
 2604              		.loc 2 704 0
 2605 0026 721B     		subs	r2, r6, r5
 2606 0028 2800     		movs	r0, r5
 2607 002a 3900     		movs	r1, r7
 705:..\..\common\lib\nokia5110/LCD5110_Graph.c **** 	drawVLine(x1, y1, y2-y1);
 2608              		.loc 2 705 0
 2609 002c 3F1B     		subs	r7, r7, r4
 2610              	.LVL331:
 704:..\..\common\lib\nokia5110/LCD5110_Graph.c **** 	drawHLine(x1, y2, x2-x1);
 2611              		.loc 2 704 0
 2612 002e FFF7FEFF 		bl	drawHLine
 2613              	.LVL332:
 2614              		.loc 2 705 0
 2615 0032 3A00     		movs	r2, r7
 2616 0034 2800     		movs	r0, r5
 2617 0036 2100     		movs	r1, r4
 2618 0038 FFF7FEFF 		bl	drawVLine
 2619              	.LVL333:
 706:..\..\common\lib\nokia5110/LCD5110_Graph.c **** 	drawVLine(x2, y1, y2-y1+1);
 2620              		.loc 2 706 0
 2621 003c 7A1C     		adds	r2, r7, #1
 2622 003e 3000     		movs	r0, r6
 2623 0040 2100     		movs	r1, r4
 2624 0042 FFF7FEFF 		bl	drawVLine
 2625              	.LVL334:
 707:..\..\common\lib\nokia5110/LCD5110_Graph.c **** }
 2626              		.loc 2 707 0
 2627              		@ sp needed
 2628              	.LVL335:
ARM GAS  C:\Users\Petro\AppData\Local\Temp\ccEiKVD5.s 			page 63


 2629              	.LVL336:
 2630              	.LVL337:
 2631 0046 F8BD     		pop	{r3, r4, r5, r6, r7, pc}
 2632              		.cfi_endproc
 2633              	.LFE89:
 2634              		.size	drawRect, .-drawRect
 2635              		.section	.text.clrRect,"ax",%progbits
 2636              		.align	1
 2637              		.global	clrRect
 2638              		.code	16
 2639              		.thumb_func
 2640              		.type	clrRect, %function
 2641              	clrRect:
 2642              	.LFB90:
 708:..\..\common\lib\nokia5110/LCD5110_Graph.c **** 
 709:..\..\common\lib\nokia5110/LCD5110_Graph.c **** void clrRect(int x1, int y1, int x2, int y2)
 710:..\..\common\lib\nokia5110/LCD5110_Graph.c **** {
 2643              		.loc 2 710 0
 2644              		.cfi_startproc
 2645              		@ args = 0, pretend = 0, frame = 0
 2646              		@ frame_needed = 0, uses_anonymous_args = 0
 2647              	.LVL338:
 2648 0000 F8B5     		push	{r3, r4, r5, r6, r7, lr}
 2649              		.cfi_def_cfa_offset 24
 2650              		.cfi_offset 3, -24
 2651              		.cfi_offset 4, -20
 2652              		.cfi_offset 5, -16
 2653              		.cfi_offset 6, -12
 2654              		.cfi_offset 7, -8
 2655              		.cfi_offset 14, -4
 2656              		.loc 2 710 0
 2657 0002 0500     		movs	r5, r0
 2658 0004 0C00     		movs	r4, r1
 2659 0006 1600     		movs	r6, r2
 2660 0008 1F00     		movs	r7, r3
 711:..\..\common\lib\nokia5110/LCD5110_Graph.c **** 	int tmp;
 712:..\..\common\lib\nokia5110/LCD5110_Graph.c **** 
 713:..\..\common\lib\nokia5110/LCD5110_Graph.c **** 	if (x1>x2)
 2661              		.loc 2 713 0
 2662 000a 9042     		cmp	r0, r2
 2663 000c 01DD     		ble	.L224
 2664 000e 1500     		movs	r5, r2
 2665 0010 0600     		movs	r6, r0
 2666              	.L224:
 2667              	.LVL339:
 714:..\..\common\lib\nokia5110/LCD5110_Graph.c **** 	{
 715:..\..\common\lib\nokia5110/LCD5110_Graph.c **** 		tmp=x1;
 716:..\..\common\lib\nokia5110/LCD5110_Graph.c **** 		x1=x2;
 717:..\..\common\lib\nokia5110/LCD5110_Graph.c **** 		x2=tmp;
 718:..\..\common\lib\nokia5110/LCD5110_Graph.c **** 	}
 719:..\..\common\lib\nokia5110/LCD5110_Graph.c **** 	if (y1>y2)
 2668              		.loc 2 719 0
 2669 0012 BC42     		cmp	r4, r7
 2670 0014 02DD     		ble	.L225
 2671 0016 2300     		movs	r3, r4
 2672              	.LVL340:
 2673 0018 3C00     		movs	r4, r7
ARM GAS  C:\Users\Petro\AppData\Local\Temp\ccEiKVD5.s 			page 64


 2674 001a 1F00     		movs	r7, r3
 2675              	.LVL341:
 2676              	.L225:
 720:..\..\common\lib\nokia5110/LCD5110_Graph.c **** 	{
 721:..\..\common\lib\nokia5110/LCD5110_Graph.c **** 		tmp=y1;
 722:..\..\common\lib\nokia5110/LCD5110_Graph.c **** 		y1=y2;
 723:..\..\common\lib\nokia5110/LCD5110_Graph.c **** 		y2=tmp;
 724:..\..\common\lib\nokia5110/LCD5110_Graph.c **** 	}
 725:..\..\common\lib\nokia5110/LCD5110_Graph.c **** 
 726:..\..\common\lib\nokia5110/LCD5110_Graph.c **** 	clrHLine(x1, y1, x2-x1);
 2677              		.loc 2 726 0
 2678 001c 721B     		subs	r2, r6, r5
 2679 001e 2800     		movs	r0, r5
 2680 0020 2100     		movs	r1, r4
 2681 0022 FFF7FEFF 		bl	clrHLine
 2682              	.LVL342:
 727:..\..\common\lib\nokia5110/LCD5110_Graph.c **** 	clrHLine(x1, y2, x2-x1);
 2683              		.loc 2 727 0
 2684 0026 721B     		subs	r2, r6, r5
 2685 0028 2800     		movs	r0, r5
 2686 002a 3900     		movs	r1, r7
 728:..\..\common\lib\nokia5110/LCD5110_Graph.c **** 	clrVLine(x1, y1, y2-y1);
 2687              		.loc 2 728 0
 2688 002c 3F1B     		subs	r7, r7, r4
 2689              	.LVL343:
 727:..\..\common\lib\nokia5110/LCD5110_Graph.c **** 	clrHLine(x1, y2, x2-x1);
 2690              		.loc 2 727 0
 2691 002e FFF7FEFF 		bl	clrHLine
 2692              	.LVL344:
 2693              		.loc 2 728 0
 2694 0032 3A00     		movs	r2, r7
 2695 0034 2800     		movs	r0, r5
 2696 0036 2100     		movs	r1, r4
 2697 0038 FFF7FEFF 		bl	clrVLine
 2698              	.LVL345:
 729:..\..\common\lib\nokia5110/LCD5110_Graph.c **** 	clrVLine(x2, y1, y2-y1+1);
 2699              		.loc 2 729 0
 2700 003c 7A1C     		adds	r2, r7, #1
 2701 003e 3000     		movs	r0, r6
 2702 0040 2100     		movs	r1, r4
 2703 0042 FFF7FEFF 		bl	clrVLine
 2704              	.LVL346:
 730:..\..\common\lib\nokia5110/LCD5110_Graph.c **** }
 2705              		.loc 2 730 0
 2706              		@ sp needed
 2707              	.LVL347:
 2708              	.LVL348:
 2709              	.LVL349:
 2710 0046 F8BD     		pop	{r3, r4, r5, r6, r7, pc}
 2711              		.cfi_endproc
 2712              	.LFE90:
 2713              		.size	clrRect, .-clrRect
 2714              		.section	.text.drawRoundRect,"ax",%progbits
 2715              		.align	1
 2716              		.global	drawRoundRect
 2717              		.code	16
 2718              		.thumb_func
ARM GAS  C:\Users\Petro\AppData\Local\Temp\ccEiKVD5.s 			page 65


 2719              		.type	drawRoundRect, %function
 2720              	drawRoundRect:
 2721              	.LFB91:
 731:..\..\common\lib\nokia5110/LCD5110_Graph.c **** 
 732:..\..\common\lib\nokia5110/LCD5110_Graph.c **** void drawRoundRect(int x1, int y1, int x2, int y2)
 733:..\..\common\lib\nokia5110/LCD5110_Graph.c **** {
 2722              		.loc 2 733 0
 2723              		.cfi_startproc
 2724              		@ args = 0, pretend = 0, frame = 24
 2725              		@ frame_needed = 0, uses_anonymous_args = 0
 2726              	.LVL350:
 2727 0000 F0B5     		push	{r4, r5, r6, r7, lr}
 2728              		.cfi_def_cfa_offset 20
 2729              		.cfi_offset 4, -20
 2730              		.cfi_offset 5, -16
 2731              		.cfi_offset 6, -12
 2732              		.cfi_offset 7, -8
 2733              		.cfi_offset 14, -4
 2734 0002 87B0     		sub	sp, sp, #28
 2735              		.cfi_def_cfa_offset 48
 2736              		.loc 2 733 0
 2737 0004 0500     		movs	r5, r0
 2738 0006 0C00     		movs	r4, r1
 2739 0008 0192     		str	r2, [sp, #4]
 2740 000a 0293     		str	r3, [sp, #8]
 734:..\..\common\lib\nokia5110/LCD5110_Graph.c **** 	int tmp;
 735:..\..\common\lib\nokia5110/LCD5110_Graph.c **** 
 736:..\..\common\lib\nokia5110/LCD5110_Graph.c **** 	if (x1>x2)
 2741              		.loc 2 736 0
 2742 000c 9042     		cmp	r0, r2
 2743 000e 01DD     		ble	.L227
 2744 0010 1500     		movs	r5, r2
 2745 0012 0190     		str	r0, [sp, #4]
 2746              	.L227:
 2747              	.LVL351:
 737:..\..\common\lib\nokia5110/LCD5110_Graph.c **** 	{
 738:..\..\common\lib\nokia5110/LCD5110_Graph.c **** 		tmp=x1;
 739:..\..\common\lib\nokia5110/LCD5110_Graph.c **** 		x1=x2;
 740:..\..\common\lib\nokia5110/LCD5110_Graph.c **** 		x2=tmp;
 741:..\..\common\lib\nokia5110/LCD5110_Graph.c **** 	}
 742:..\..\common\lib\nokia5110/LCD5110_Graph.c **** 	if (y1>y2)
 2748              		.loc 2 742 0
 2749 0014 029B     		ldr	r3, [sp, #8]
 2750              	.LVL352:
 2751 0016 9C42     		cmp	r4, r3
 2752 0018 02DD     		ble	.L228
 2753 001a 2300     		movs	r3, r4
 2754 001c 029C     		ldr	r4, [sp, #8]
 2755 001e 0293     		str	r3, [sp, #8]
 2756              	.LVL353:
 2757              	.L228:
 743:..\..\common\lib\nokia5110/LCD5110_Graph.c **** 	{
 744:..\..\common\lib\nokia5110/LCD5110_Graph.c **** 		tmp=y1;
 745:..\..\common\lib\nokia5110/LCD5110_Graph.c **** 		y1=y2;
 746:..\..\common\lib\nokia5110/LCD5110_Graph.c **** 		y2=tmp;
 747:..\..\common\lib\nokia5110/LCD5110_Graph.c **** 	}
 748:..\..\common\lib\nokia5110/LCD5110_Graph.c **** 	if ((x2-x1)>4 && (y2-y1)>4)
ARM GAS  C:\Users\Petro\AppData\Local\Temp\ccEiKVD5.s 			page 66


 2758              		.loc 2 748 0
 2759 0020 019B     		ldr	r3, [sp, #4]
 2760 0022 5B1B     		subs	r3, r3, r5
 2761 0024 0393     		str	r3, [sp, #12]
 2762 0026 042B     		cmp	r3, #4
 2763 0028 39DD     		ble	.L226
 2764              		.loc 2 748 0 is_stmt 0 discriminator 1
 2765 002a 029B     		ldr	r3, [sp, #8]
 2766 002c 1B1B     		subs	r3, r3, r4
 2767 002e 0493     		str	r3, [sp, #16]
 2768 0030 042B     		cmp	r3, #4
 2769 0032 34DD     		ble	.L226
 749:..\..\common\lib\nokia5110/LCD5110_Graph.c **** 	{
 750:..\..\common\lib\nokia5110/LCD5110_Graph.c **** 		setPixel(x1+1,y1+1);
 2770              		.loc 2 750 0 is_stmt 1
 2771 0034 661C     		adds	r6, r4, #1
 2772 0036 6F1C     		adds	r7, r5, #1
 2773 0038 BFB2     		uxth	r7, r7
 2774 003a B6B2     		uxth	r6, r6
 2775 003c 3100     		movs	r1, r6
 2776 003e 3800     		movs	r0, r7
 2777 0040 FFF7FEFF 		bl	setPixel
 2778              	.LVL354:
 751:..\..\common\lib\nokia5110/LCD5110_Graph.c **** 		setPixel(x2-1,y1+1);
 2779              		.loc 2 751 0
 2780 0044 019B     		ldr	r3, [sp, #4]
 2781 0046 3100     		movs	r1, r6
 2782 0048 013B     		subs	r3, r3, #1
 2783 004a 9BB2     		uxth	r3, r3
 2784 004c 1800     		movs	r0, r3
 2785 004e 0593     		str	r3, [sp, #20]
 2786 0050 FFF7FEFF 		bl	setPixel
 2787              	.LVL355:
 752:..\..\common\lib\nokia5110/LCD5110_Graph.c **** 		setPixel(x1+1,y2-1);
 2788              		.loc 2 752 0
 2789 0054 029B     		ldr	r3, [sp, #8]
 2790 0056 3800     		movs	r0, r7
 2791 0058 5E1E     		subs	r6, r3, #1
 2792 005a B6B2     		uxth	r6, r6
 2793 005c 3100     		movs	r1, r6
 2794 005e FFF7FEFF 		bl	setPixel
 2795              	.LVL356:
 753:..\..\common\lib\nokia5110/LCD5110_Graph.c **** 		setPixel(x2-1,y2-1);
 2796              		.loc 2 753 0
 2797 0062 3100     		movs	r1, r6
 2798 0064 0598     		ldr	r0, [sp, #20]
 2799 0066 FFF7FEFF 		bl	setPixel
 2800              	.LVL357:
 754:..\..\common\lib\nokia5110/LCD5110_Graph.c **** 		drawHLine(x1+2, y1, x2-x1-3);
 2801              		.loc 2 754 0
 2802 006a 039E     		ldr	r6, [sp, #12]
 2803 006c AF1C     		adds	r7, r5, #2
 2804 006e 033E     		subs	r6, r6, #3
 2805 0070 3200     		movs	r2, r6
 2806 0072 2100     		movs	r1, r4
 2807 0074 3800     		movs	r0, r7
 2808 0076 FFF7FEFF 		bl	drawHLine
ARM GAS  C:\Users\Petro\AppData\Local\Temp\ccEiKVD5.s 			page 67


 2809              	.LVL358:
 755:..\..\common\lib\nokia5110/LCD5110_Graph.c **** 		drawHLine(x1+2, y2, x2-x1-3);
 2810              		.loc 2 755 0
 2811 007a 3200     		movs	r2, r6
 2812 007c 0299     		ldr	r1, [sp, #8]
 2813 007e 3800     		movs	r0, r7
 2814 0080 FFF7FEFF 		bl	drawHLine
 2815              	.LVL359:
 756:..\..\common\lib\nokia5110/LCD5110_Graph.c **** 		drawVLine(x1, y1+2, y2-y1-3);
 2816              		.loc 2 756 0
 2817 0084 049E     		ldr	r6, [sp, #16]
 2818 0086 0234     		adds	r4, r4, #2
 2819              	.LVL360:
 2820 0088 033E     		subs	r6, r6, #3
 2821 008a 3200     		movs	r2, r6
 2822 008c 2100     		movs	r1, r4
 2823 008e 2800     		movs	r0, r5
 2824 0090 FFF7FEFF 		bl	drawVLine
 2825              	.LVL361:
 757:..\..\common\lib\nokia5110/LCD5110_Graph.c **** 		drawVLine(x2, y1+2, y2-y1-3);
 2826              		.loc 2 757 0
 2827 0094 3200     		movs	r2, r6
 2828 0096 2100     		movs	r1, r4
 2829 0098 0198     		ldr	r0, [sp, #4]
 2830 009a FFF7FEFF 		bl	drawVLine
 2831              	.LVL362:
 2832              	.L226:
 758:..\..\common\lib\nokia5110/LCD5110_Graph.c **** 	}
 759:..\..\common\lib\nokia5110/LCD5110_Graph.c **** }
 2833              		.loc 2 759 0
 2834 009e 07B0     		add	sp, sp, #28
 2835              		@ sp needed
 2836              	.LVL363:
 2837 00a0 F0BD     		pop	{r4, r5, r6, r7, pc}
 2838              		.cfi_endproc
 2839              	.LFE91:
 2840              		.size	drawRoundRect, .-drawRoundRect
 2841              		.section	.text.clrRoundRect,"ax",%progbits
 2842              		.align	1
 2843              		.global	clrRoundRect
 2844              		.code	16
 2845              		.thumb_func
 2846              		.type	clrRoundRect, %function
 2847              	clrRoundRect:
 2848              	.LFB92:
 760:..\..\common\lib\nokia5110/LCD5110_Graph.c **** 
 761:..\..\common\lib\nokia5110/LCD5110_Graph.c **** void clrRoundRect(int x1, int y1, int x2, int y2)
 762:..\..\common\lib\nokia5110/LCD5110_Graph.c **** {
 2849              		.loc 2 762 0
 2850              		.cfi_startproc
 2851              		@ args = 0, pretend = 0, frame = 24
 2852              		@ frame_needed = 0, uses_anonymous_args = 0
 2853              	.LVL364:
 2854 0000 F0B5     		push	{r4, r5, r6, r7, lr}
 2855              		.cfi_def_cfa_offset 20
 2856              		.cfi_offset 4, -20
 2857              		.cfi_offset 5, -16
ARM GAS  C:\Users\Petro\AppData\Local\Temp\ccEiKVD5.s 			page 68


 2858              		.cfi_offset 6, -12
 2859              		.cfi_offset 7, -8
 2860              		.cfi_offset 14, -4
 2861 0002 87B0     		sub	sp, sp, #28
 2862              		.cfi_def_cfa_offset 48
 2863              		.loc 2 762 0
 2864 0004 0500     		movs	r5, r0
 2865 0006 0C00     		movs	r4, r1
 2866 0008 0192     		str	r2, [sp, #4]
 2867 000a 0293     		str	r3, [sp, #8]
 763:..\..\common\lib\nokia5110/LCD5110_Graph.c **** 	int tmp;
 764:..\..\common\lib\nokia5110/LCD5110_Graph.c **** 
 765:..\..\common\lib\nokia5110/LCD5110_Graph.c **** 	if (x1>x2)
 2868              		.loc 2 765 0
 2869 000c 9042     		cmp	r0, r2
 2870 000e 01DD     		ble	.L231
 2871 0010 1500     		movs	r5, r2
 2872 0012 0190     		str	r0, [sp, #4]
 2873              	.L231:
 2874              	.LVL365:
 766:..\..\common\lib\nokia5110/LCD5110_Graph.c **** 	{
 767:..\..\common\lib\nokia5110/LCD5110_Graph.c **** 		tmp=x1;
 768:..\..\common\lib\nokia5110/LCD5110_Graph.c **** 		x1=x2;
 769:..\..\common\lib\nokia5110/LCD5110_Graph.c **** 		x2=tmp;
 770:..\..\common\lib\nokia5110/LCD5110_Graph.c **** 	}
 771:..\..\common\lib\nokia5110/LCD5110_Graph.c **** 	if (y1>y2)
 2875              		.loc 2 771 0
 2876 0014 029B     		ldr	r3, [sp, #8]
 2877              	.LVL366:
 2878 0016 9C42     		cmp	r4, r3
 2879 0018 02DD     		ble	.L232
 2880 001a 2300     		movs	r3, r4
 2881 001c 029C     		ldr	r4, [sp, #8]
 2882 001e 0293     		str	r3, [sp, #8]
 2883              	.LVL367:
 2884              	.L232:
 772:..\..\common\lib\nokia5110/LCD5110_Graph.c **** 	{
 773:..\..\common\lib\nokia5110/LCD5110_Graph.c **** 		tmp=y1;
 774:..\..\common\lib\nokia5110/LCD5110_Graph.c **** 		y1=y2;
 775:..\..\common\lib\nokia5110/LCD5110_Graph.c **** 		y2=tmp;
 776:..\..\common\lib\nokia5110/LCD5110_Graph.c **** 	}
 777:..\..\common\lib\nokia5110/LCD5110_Graph.c **** 	if ((x2-x1)>4 && (y2-y1)>4)
 2885              		.loc 2 777 0
 2886 0020 019B     		ldr	r3, [sp, #4]
 2887 0022 5B1B     		subs	r3, r3, r5
 2888 0024 0393     		str	r3, [sp, #12]
 2889 0026 042B     		cmp	r3, #4
 2890 0028 39DD     		ble	.L230
 2891              		.loc 2 777 0 is_stmt 0 discriminator 1
 2892 002a 029B     		ldr	r3, [sp, #8]
 2893 002c 1B1B     		subs	r3, r3, r4
 2894 002e 0493     		str	r3, [sp, #16]
 2895 0030 042B     		cmp	r3, #4
 2896 0032 34DD     		ble	.L230
 778:..\..\common\lib\nokia5110/LCD5110_Graph.c **** 	{
 779:..\..\common\lib\nokia5110/LCD5110_Graph.c **** 		clrPixel(x1+1,y1+1);
 2897              		.loc 2 779 0 is_stmt 1
ARM GAS  C:\Users\Petro\AppData\Local\Temp\ccEiKVD5.s 			page 69


 2898 0034 661C     		adds	r6, r4, #1
 2899 0036 6F1C     		adds	r7, r5, #1
 2900 0038 BFB2     		uxth	r7, r7
 2901 003a B6B2     		uxth	r6, r6
 2902 003c 3100     		movs	r1, r6
 2903 003e 3800     		movs	r0, r7
 2904 0040 FFF7FEFF 		bl	clrPixel
 2905              	.LVL368:
 780:..\..\common\lib\nokia5110/LCD5110_Graph.c **** 		clrPixel(x2-1,y1+1);
 2906              		.loc 2 780 0
 2907 0044 019B     		ldr	r3, [sp, #4]
 2908 0046 3100     		movs	r1, r6
 2909 0048 013B     		subs	r3, r3, #1
 2910 004a 9BB2     		uxth	r3, r3
 2911 004c 1800     		movs	r0, r3
 2912 004e 0593     		str	r3, [sp, #20]
 2913 0050 FFF7FEFF 		bl	clrPixel
 2914              	.LVL369:
 781:..\..\common\lib\nokia5110/LCD5110_Graph.c **** 		clrPixel(x1+1,y2-1);
 2915              		.loc 2 781 0
 2916 0054 029B     		ldr	r3, [sp, #8]
 2917 0056 3800     		movs	r0, r7
 2918 0058 5E1E     		subs	r6, r3, #1
 2919 005a B6B2     		uxth	r6, r6
 2920 005c 3100     		movs	r1, r6
 2921 005e FFF7FEFF 		bl	clrPixel
 2922              	.LVL370:
 782:..\..\common\lib\nokia5110/LCD5110_Graph.c **** 		clrPixel(x2-1,y2-1);
 2923              		.loc 2 782 0
 2924 0062 3100     		movs	r1, r6
 2925 0064 0598     		ldr	r0, [sp, #20]
 2926 0066 FFF7FEFF 		bl	clrPixel
 2927              	.LVL371:
 783:..\..\common\lib\nokia5110/LCD5110_Graph.c **** 		clrHLine(x1+2, y1, x2-x1-3);
 2928              		.loc 2 783 0
 2929 006a 039E     		ldr	r6, [sp, #12]
 2930 006c AF1C     		adds	r7, r5, #2
 2931 006e 033E     		subs	r6, r6, #3
 2932 0070 3200     		movs	r2, r6
 2933 0072 2100     		movs	r1, r4
 2934 0074 3800     		movs	r0, r7
 2935 0076 FFF7FEFF 		bl	clrHLine
 2936              	.LVL372:
 784:..\..\common\lib\nokia5110/LCD5110_Graph.c **** 		clrHLine(x1+2, y2, x2-x1-3);
 2937              		.loc 2 784 0
 2938 007a 3200     		movs	r2, r6
 2939 007c 0299     		ldr	r1, [sp, #8]
 2940 007e 3800     		movs	r0, r7
 2941 0080 FFF7FEFF 		bl	clrHLine
 2942              	.LVL373:
 785:..\..\common\lib\nokia5110/LCD5110_Graph.c **** 		clrVLine(x1, y1+2, y2-y1-3);
 2943              		.loc 2 785 0
 2944 0084 049E     		ldr	r6, [sp, #16]
 2945 0086 0234     		adds	r4, r4, #2
 2946              	.LVL374:
 2947 0088 033E     		subs	r6, r6, #3
 2948 008a 3200     		movs	r2, r6
ARM GAS  C:\Users\Petro\AppData\Local\Temp\ccEiKVD5.s 			page 70


 2949 008c 2100     		movs	r1, r4
 2950 008e 2800     		movs	r0, r5
 2951 0090 FFF7FEFF 		bl	clrVLine
 2952              	.LVL375:
 786:..\..\common\lib\nokia5110/LCD5110_Graph.c **** 		clrVLine(x2, y1+2, y2-y1-3);
 2953              		.loc 2 786 0
 2954 0094 3200     		movs	r2, r6
 2955 0096 2100     		movs	r1, r4
 2956 0098 0198     		ldr	r0, [sp, #4]
 2957 009a FFF7FEFF 		bl	clrVLine
 2958              	.LVL376:
 2959              	.L230:
 787:..\..\common\lib\nokia5110/LCD5110_Graph.c **** 	}
 788:..\..\common\lib\nokia5110/LCD5110_Graph.c **** }
 2960              		.loc 2 788 0
 2961 009e 07B0     		add	sp, sp, #28
 2962              		@ sp needed
 2963              	.LVL377:
 2964 00a0 F0BD     		pop	{r4, r5, r6, r7, pc}
 2965              		.cfi_endproc
 2966              	.LFE92:
 2967              		.size	clrRoundRect, .-clrRoundRect
 2968              		.section	.text.drawCircle,"ax",%progbits
 2969              		.align	1
 2970              		.global	drawCircle
 2971              		.code	16
 2972              		.thumb_func
 2973              		.type	drawCircle, %function
 2974              	drawCircle:
 2975              	.LFB93:
 789:..\..\common\lib\nokia5110/LCD5110_Graph.c **** 
 790:..\..\common\lib\nokia5110/LCD5110_Graph.c **** void drawCircle(int x, int y, int radius)
 791:..\..\common\lib\nokia5110/LCD5110_Graph.c **** {
 2976              		.loc 2 791 0
 2977              		.cfi_startproc
 2978              		@ args = 0, pretend = 0, frame = 32
 2979              		@ frame_needed = 0, uses_anonymous_args = 0
 2980              	.LVL378:
 792:..\..\common\lib\nokia5110/LCD5110_Graph.c **** 	int f = 1 - radius;
 2981              		.loc 2 792 0
 2982 0000 0123     		movs	r3, #1
 791:..\..\common\lib\nokia5110/LCD5110_Graph.c **** 	int f = 1 - radius;
 2983              		.loc 2 791 0
 2984 0002 F0B5     		push	{r4, r5, r6, r7, lr}
 2985              		.cfi_def_cfa_offset 20
 2986              		.cfi_offset 4, -20
 2987              		.cfi_offset 5, -16
 2988              		.cfi_offset 6, -12
 2989              		.cfi_offset 7, -8
 2990              		.cfi_offset 14, -4
 2991              		.loc 2 792 0
 2992 0004 9B1A     		subs	r3, r3, r2
 791:..\..\common\lib\nokia5110/LCD5110_Graph.c **** 	int f = 1 - radius;
 2993              		.loc 2 791 0
 2994 0006 89B0     		sub	sp, sp, #36
 2995              		.cfi_def_cfa_offset 56
 2996              		.loc 2 792 0
ARM GAS  C:\Users\Petro\AppData\Local\Temp\ccEiKVD5.s 			page 71


 2997 0008 0393     		str	r3, [sp, #12]
 2998              	.LVL379:
 793:..\..\common\lib\nokia5110/LCD5110_Graph.c **** 	int ddF_x = 1;
 794:..\..\common\lib\nokia5110/LCD5110_Graph.c **** 	int ddF_y = -2 * radius;
 2999              		.loc 2 794 0
 3000 000a 5300     		lsls	r3, r2, #1
 3001              	.LVL380:
 3002 000c 5B42     		rsbs	r3, r3, #0
 3003 000e 0793     		str	r3, [sp, #28]
 3004              	.LVL381:
 795:..\..\common\lib\nokia5110/LCD5110_Graph.c **** 	int x1 = 0;
 796:..\..\common\lib\nokia5110/LCD5110_Graph.c **** 	int y1 = radius;
 797:..\..\common\lib\nokia5110/LCD5110_Graph.c **** 	char ch, cl;
 798:..\..\common\lib\nokia5110/LCD5110_Graph.c **** 	
 799:..\..\common\lib\nokia5110/LCD5110_Graph.c **** 	setPixel(x, y + radius);
 3005              		.loc 2 799 0
 3006 0010 83B2     		uxth	r3, r0
 3007              	.LVL382:
 3008 0012 0193     		str	r3, [sp, #4]
 3009 0014 6B46     		mov	r3, sp
 791:..\..\common\lib\nokia5110/LCD5110_Graph.c **** 	int f = 1 - radius;
 3010              		.loc 2 791 0
 3011 0016 0292     		str	r2, [sp, #8]
 3012              	.LVL383:
 3013              		.loc 2 799 0
 3014 0018 1D89     		ldrh	r5, [r3, #8]
 3015 001a 8CB2     		uxth	r4, r1
 3016 001c 6119     		adds	r1, r4, r5
 3017              	.LVL384:
 3018 001e 89B2     		uxth	r1, r1
 3019 0020 0198     		ldr	r0, [sp, #4]
 3020              	.LVL385:
 3021 0022 FFF7FEFF 		bl	setPixel
 3022              	.LVL386:
 800:..\..\common\lib\nokia5110/LCD5110_Graph.c **** 	setPixel(x, y - radius);
 3023              		.loc 2 800 0
 3024 0026 611B     		subs	r1, r4, r5
 3025 0028 89B2     		uxth	r1, r1
 3026 002a 0198     		ldr	r0, [sp, #4]
 3027 002c FFF7FEFF 		bl	setPixel
 3028              	.LVL387:
 801:..\..\common\lib\nokia5110/LCD5110_Graph.c **** 	setPixel(x + radius, y);
 3029              		.loc 2 801 0
 3030 0030 019B     		ldr	r3, [sp, #4]
 3031 0032 2100     		movs	r1, r4
 3032 0034 5819     		adds	r0, r3, r5
 3033 0036 80B2     		uxth	r0, r0
 3034 0038 FFF7FEFF 		bl	setPixel
 3035              	.LVL388:
 802:..\..\common\lib\nokia5110/LCD5110_Graph.c **** 	setPixel(x - radius, y);
 3036              		.loc 2 802 0
 3037 003c 019B     		ldr	r3, [sp, #4]
 3038 003e 2100     		movs	r1, r4
 3039 0040 581B     		subs	r0, r3, r5
 3040 0042 80B2     		uxth	r0, r0
 3041 0044 FFF7FEFF 		bl	setPixel
 3042              	.LVL389:
ARM GAS  C:\Users\Petro\AppData\Local\Temp\ccEiKVD5.s 			page 72


 795:..\..\common\lib\nokia5110/LCD5110_Graph.c **** 	int y1 = radius;
 3043              		.loc 2 795 0
 3044 0048 0023     		movs	r3, #0
 3045 004a 0493     		str	r3, [sp, #16]
 3046              	.LVL390:
 3047              	.L235:
 803:..\..\common\lib\nokia5110/LCD5110_Graph.c ****  
 804:..\..\common\lib\nokia5110/LCD5110_Graph.c **** 	while(x1 < y1)
 3048              		.loc 2 804 0
 3049 004c 049B     		ldr	r3, [sp, #16]
 3050 004e 029A     		ldr	r2, [sp, #8]
 3051 0050 9342     		cmp	r3, r2
 3052 0052 57DA     		bge	.L238
 805:..\..\common\lib\nokia5110/LCD5110_Graph.c **** 	{
 806:..\..\common\lib\nokia5110/LCD5110_Graph.c **** 		if(f >= 0) 
 3053              		.loc 2 806 0
 3054 0054 039B     		ldr	r3, [sp, #12]
 3055 0056 002B     		cmp	r3, #0
 3056 0058 0ADB     		blt	.L236
 807:..\..\common\lib\nokia5110/LCD5110_Graph.c **** 		{
 808:..\..\common\lib\nokia5110/LCD5110_Graph.c **** 			y1--;
 3057              		.loc 2 808 0
 3058 005a 029B     		ldr	r3, [sp, #8]
 3059 005c 013B     		subs	r3, r3, #1
 3060 005e 0293     		str	r3, [sp, #8]
 3061              	.LVL391:
 809:..\..\common\lib\nokia5110/LCD5110_Graph.c **** 			ddF_y += 2;
 3062              		.loc 2 809 0
 3063 0060 079B     		ldr	r3, [sp, #28]
 3064              	.LVL392:
 3065 0062 0233     		adds	r3, r3, #2
 3066 0064 0793     		str	r3, [sp, #28]
 3067              	.LVL393:
 810:..\..\common\lib\nokia5110/LCD5110_Graph.c **** 			f += ddF_y;
 3068              		.loc 2 810 0
 3069 0066 079A     		ldr	r2, [sp, #28]
 3070 0068 039B     		ldr	r3, [sp, #12]
 3071              	.LVL394:
 3072 006a 9446     		mov	ip, r2
 3073 006c 6344     		add	r3, r3, ip
 3074 006e 0393     		str	r3, [sp, #12]
 3075              	.LVL395:
 3076              	.L236:
 811:..\..\common\lib\nokia5110/LCD5110_Graph.c **** 		}
 812:..\..\common\lib\nokia5110/LCD5110_Graph.c **** 		x1++;
 3077              		.loc 2 812 0
 3078 0070 049B     		ldr	r3, [sp, #16]
 813:..\..\common\lib\nokia5110/LCD5110_Graph.c **** 		ddF_x += 2;
 814:..\..\common\lib\nokia5110/LCD5110_Graph.c **** 		f += ddF_x;    
 3079              		.loc 2 814 0
 3080 0072 039A     		ldr	r2, [sp, #12]
 812:..\..\common\lib\nokia5110/LCD5110_Graph.c **** 		ddF_x += 2;
 3081              		.loc 2 812 0
 3082 0074 0133     		adds	r3, r3, #1
 3083 0076 0493     		str	r3, [sp, #16]
 3084              	.LVL396:
 3085              		.loc 2 814 0
ARM GAS  C:\Users\Petro\AppData\Local\Temp\ccEiKVD5.s 			page 73


 3086 0078 5B00     		lsls	r3, r3, #1
 3087              	.LVL397:
 3088 007a 0133     		adds	r3, r3, #1
 3089              	.LVL398:
 3090 007c D318     		adds	r3, r2, r3
 3091              	.LVL399:
 3092 007e 0393     		str	r3, [sp, #12]
 3093              	.LVL400:
 3094 0080 6B46     		mov	r3, sp
 3095              	.LVL401:
 3096 0082 1B8A     		ldrh	r3, [r3, #16]
 3097 0084 0693     		str	r3, [sp, #24]
 3098 0086 069A     		ldr	r2, [sp, #24]
 3099 0088 019B     		ldr	r3, [sp, #4]
 3100 008a 9F18     		adds	r7, r3, r2
 815:..\..\common\lib\nokia5110/LCD5110_Graph.c **** 		setPixel(x + x1, y + y1);
 3101              		.loc 2 815 0
 3102 008c 6B46     		mov	r3, sp
 3103 008e 1B89     		ldrh	r3, [r3, #8]
 3104 0090 BFB2     		uxth	r7, r7
 3105 0092 E618     		adds	r6, r4, r3
 3106 0094 B6B2     		uxth	r6, r6
 3107 0096 3100     		movs	r1, r6
 3108 0098 3800     		movs	r0, r7
 3109 009a 0593     		str	r3, [sp, #20]
 3110 009c FFF7FEFF 		bl	setPixel
 3111              	.LVL402:
 3112 00a0 069A     		ldr	r2, [sp, #24]
 3113 00a2 019B     		ldr	r3, [sp, #4]
 816:..\..\common\lib\nokia5110/LCD5110_Graph.c **** 		setPixel(x - x1, y + y1);
 3114              		.loc 2 816 0
 3115 00a4 3100     		movs	r1, r6
 3116 00a6 9D1A     		subs	r5, r3, r2
 3117 00a8 ADB2     		uxth	r5, r5
 3118 00aa 2800     		movs	r0, r5
 3119 00ac FFF7FEFF 		bl	setPixel
 3120              	.LVL403:
 817:..\..\common\lib\nokia5110/LCD5110_Graph.c **** 		setPixel(x + x1, y - y1);
 3121              		.loc 2 817 0
 3122 00b0 059B     		ldr	r3, [sp, #20]
 3123 00b2 3800     		movs	r0, r7
 3124 00b4 E61A     		subs	r6, r4, r3
 3125 00b6 B6B2     		uxth	r6, r6
 3126 00b8 3100     		movs	r1, r6
 3127 00ba FFF7FEFF 		bl	setPixel
 3128              	.LVL404:
 818:..\..\common\lib\nokia5110/LCD5110_Graph.c **** 		setPixel(x - x1, y - y1);
 3129              		.loc 2 818 0
 3130 00be 3100     		movs	r1, r6
 3131 00c0 2800     		movs	r0, r5
 3132 00c2 FFF7FEFF 		bl	setPixel
 3133              	.LVL405:
 819:..\..\common\lib\nokia5110/LCD5110_Graph.c **** 		setPixel(x + y1, y + x1);
 3134              		.loc 2 819 0
 3135 00c6 019B     		ldr	r3, [sp, #4]
 3136 00c8 059A     		ldr	r2, [sp, #20]
 3137 00ca 9F18     		adds	r7, r3, r2
ARM GAS  C:\Users\Petro\AppData\Local\Temp\ccEiKVD5.s 			page 74


 3138 00cc 069B     		ldr	r3, [sp, #24]
 3139 00ce BFB2     		uxth	r7, r7
 3140 00d0 E618     		adds	r6, r4, r3
 3141 00d2 B6B2     		uxth	r6, r6
 3142 00d4 3100     		movs	r1, r6
 3143 00d6 3800     		movs	r0, r7
 3144 00d8 FFF7FEFF 		bl	setPixel
 3145              	.LVL406:
 820:..\..\common\lib\nokia5110/LCD5110_Graph.c **** 		setPixel(x - y1, y + x1);
 3146              		.loc 2 820 0
 3147 00dc 019B     		ldr	r3, [sp, #4]
 3148 00de 059A     		ldr	r2, [sp, #20]
 3149 00e0 3100     		movs	r1, r6
 3150 00e2 9D1A     		subs	r5, r3, r2
 3151 00e4 ADB2     		uxth	r5, r5
 3152 00e6 2800     		movs	r0, r5
 3153 00e8 FFF7FEFF 		bl	setPixel
 3154              	.LVL407:
 3155 00ec 069B     		ldr	r3, [sp, #24]
 821:..\..\common\lib\nokia5110/LCD5110_Graph.c **** 		setPixel(x + y1, y - x1);
 3156              		.loc 2 821 0
 3157 00ee 3800     		movs	r0, r7
 3158 00f0 E61A     		subs	r6, r4, r3
 3159 00f2 B6B2     		uxth	r6, r6
 3160 00f4 3100     		movs	r1, r6
 3161 00f6 FFF7FEFF 		bl	setPixel
 3162              	.LVL408:
 822:..\..\common\lib\nokia5110/LCD5110_Graph.c **** 		setPixel(x - y1, y - x1);
 3163              		.loc 2 822 0
 3164 00fa 3100     		movs	r1, r6
 3165 00fc 2800     		movs	r0, r5
 3166 00fe FFF7FEFF 		bl	setPixel
 3167              	.LVL409:
 3168 0102 A3E7     		b	.L235
 3169              	.LVL410:
 3170              	.L238:
 823:..\..\common\lib\nokia5110/LCD5110_Graph.c **** 	}
 824:..\..\common\lib\nokia5110/LCD5110_Graph.c **** }
 3171              		.loc 2 824 0
 3172 0104 09B0     		add	sp, sp, #36
 3173              		@ sp needed
 3174 0106 F0BD     		pop	{r4, r5, r6, r7, pc}
 3175              		.cfi_endproc
 3176              	.LFE93:
 3177              		.size	drawCircle, .-drawCircle
 3178              		.section	.text.clrCircle,"ax",%progbits
 3179              		.align	1
 3180              		.global	clrCircle
 3181              		.code	16
 3182              		.thumb_func
 3183              		.type	clrCircle, %function
 3184              	clrCircle:
 3185              	.LFB94:
 825:..\..\common\lib\nokia5110/LCD5110_Graph.c **** 
 826:..\..\common\lib\nokia5110/LCD5110_Graph.c **** void clrCircle(int x, int y, int radius)
 827:..\..\common\lib\nokia5110/LCD5110_Graph.c **** {
 3186              		.loc 2 827 0
ARM GAS  C:\Users\Petro\AppData\Local\Temp\ccEiKVD5.s 			page 75


 3187              		.cfi_startproc
 3188              		@ args = 0, pretend = 0, frame = 32
 3189              		@ frame_needed = 0, uses_anonymous_args = 0
 3190              	.LVL411:
 828:..\..\common\lib\nokia5110/LCD5110_Graph.c **** 	int f = 1 - radius;
 3191              		.loc 2 828 0
 3192 0000 0123     		movs	r3, #1
 827:..\..\common\lib\nokia5110/LCD5110_Graph.c **** 	int f = 1 - radius;
 3193              		.loc 2 827 0
 3194 0002 F0B5     		push	{r4, r5, r6, r7, lr}
 3195              		.cfi_def_cfa_offset 20
 3196              		.cfi_offset 4, -20
 3197              		.cfi_offset 5, -16
 3198              		.cfi_offset 6, -12
 3199              		.cfi_offset 7, -8
 3200              		.cfi_offset 14, -4
 3201              		.loc 2 828 0
 3202 0004 9B1A     		subs	r3, r3, r2
 827:..\..\common\lib\nokia5110/LCD5110_Graph.c **** 	int f = 1 - radius;
 3203              		.loc 2 827 0
 3204 0006 89B0     		sub	sp, sp, #36
 3205              		.cfi_def_cfa_offset 56
 3206              		.loc 2 828 0
 3207 0008 0393     		str	r3, [sp, #12]
 3208              	.LVL412:
 829:..\..\common\lib\nokia5110/LCD5110_Graph.c **** 	int ddF_x = 1;
 830:..\..\common\lib\nokia5110/LCD5110_Graph.c **** 	int ddF_y = -2 * radius;
 3209              		.loc 2 830 0
 3210 000a 5300     		lsls	r3, r2, #1
 3211              	.LVL413:
 3212 000c 5B42     		rsbs	r3, r3, #0
 3213 000e 0793     		str	r3, [sp, #28]
 3214              	.LVL414:
 831:..\..\common\lib\nokia5110/LCD5110_Graph.c **** 	int x1 = 0;
 832:..\..\common\lib\nokia5110/LCD5110_Graph.c **** 	int y1 = radius;
 833:..\..\common\lib\nokia5110/LCD5110_Graph.c **** 	char ch, cl;
 834:..\..\common\lib\nokia5110/LCD5110_Graph.c **** 	
 835:..\..\common\lib\nokia5110/LCD5110_Graph.c **** 	clrPixel(x, y + radius);
 3215              		.loc 2 835 0
 3216 0010 83B2     		uxth	r3, r0
 3217              	.LVL415:
 3218 0012 0193     		str	r3, [sp, #4]
 3219 0014 6B46     		mov	r3, sp
 827:..\..\common\lib\nokia5110/LCD5110_Graph.c **** 	int f = 1 - radius;
 3220              		.loc 2 827 0
 3221 0016 0292     		str	r2, [sp, #8]
 3222              	.LVL416:
 3223              		.loc 2 835 0
 3224 0018 1D89     		ldrh	r5, [r3, #8]
 3225 001a 8CB2     		uxth	r4, r1
 3226 001c 6119     		adds	r1, r4, r5
 3227              	.LVL417:
 3228 001e 89B2     		uxth	r1, r1
 3229 0020 0198     		ldr	r0, [sp, #4]
 3230              	.LVL418:
 3231 0022 FFF7FEFF 		bl	clrPixel
 3232              	.LVL419:
ARM GAS  C:\Users\Petro\AppData\Local\Temp\ccEiKVD5.s 			page 76


 836:..\..\common\lib\nokia5110/LCD5110_Graph.c **** 	clrPixel(x, y - radius);
 3233              		.loc 2 836 0
 3234 0026 611B     		subs	r1, r4, r5
 3235 0028 89B2     		uxth	r1, r1
 3236 002a 0198     		ldr	r0, [sp, #4]
 3237 002c FFF7FEFF 		bl	clrPixel
 3238              	.LVL420:
 837:..\..\common\lib\nokia5110/LCD5110_Graph.c **** 	clrPixel(x + radius, y);
 3239              		.loc 2 837 0
 3240 0030 019B     		ldr	r3, [sp, #4]
 3241 0032 2100     		movs	r1, r4
 3242 0034 5819     		adds	r0, r3, r5
 3243 0036 80B2     		uxth	r0, r0
 3244 0038 FFF7FEFF 		bl	clrPixel
 3245              	.LVL421:
 838:..\..\common\lib\nokia5110/LCD5110_Graph.c **** 	clrPixel(x - radius, y);
 3246              		.loc 2 838 0
 3247 003c 019B     		ldr	r3, [sp, #4]
 3248 003e 2100     		movs	r1, r4
 3249 0040 581B     		subs	r0, r3, r5
 3250 0042 80B2     		uxth	r0, r0
 3251 0044 FFF7FEFF 		bl	clrPixel
 3252              	.LVL422:
 831:..\..\common\lib\nokia5110/LCD5110_Graph.c **** 	int y1 = radius;
 3253              		.loc 2 831 0
 3254 0048 0023     		movs	r3, #0
 3255 004a 0493     		str	r3, [sp, #16]
 3256              	.LVL423:
 3257              	.L240:
 839:..\..\common\lib\nokia5110/LCD5110_Graph.c ****  
 840:..\..\common\lib\nokia5110/LCD5110_Graph.c **** 	while(x1 < y1)
 3258              		.loc 2 840 0
 3259 004c 049B     		ldr	r3, [sp, #16]
 3260 004e 029A     		ldr	r2, [sp, #8]
 3261 0050 9342     		cmp	r3, r2
 3262 0052 57DA     		bge	.L243
 841:..\..\common\lib\nokia5110/LCD5110_Graph.c **** 	{
 842:..\..\common\lib\nokia5110/LCD5110_Graph.c **** 		if(f >= 0) 
 3263              		.loc 2 842 0
 3264 0054 039B     		ldr	r3, [sp, #12]
 3265 0056 002B     		cmp	r3, #0
 3266 0058 0ADB     		blt	.L241
 843:..\..\common\lib\nokia5110/LCD5110_Graph.c **** 		{
 844:..\..\common\lib\nokia5110/LCD5110_Graph.c **** 			y1--;
 3267              		.loc 2 844 0
 3268 005a 029B     		ldr	r3, [sp, #8]
 3269 005c 013B     		subs	r3, r3, #1
 3270 005e 0293     		str	r3, [sp, #8]
 3271              	.LVL424:
 845:..\..\common\lib\nokia5110/LCD5110_Graph.c **** 			ddF_y += 2;
 3272              		.loc 2 845 0
 3273 0060 079B     		ldr	r3, [sp, #28]
 3274              	.LVL425:
 3275 0062 0233     		adds	r3, r3, #2
 3276 0064 0793     		str	r3, [sp, #28]
 3277              	.LVL426:
 846:..\..\common\lib\nokia5110/LCD5110_Graph.c **** 			f += ddF_y;
ARM GAS  C:\Users\Petro\AppData\Local\Temp\ccEiKVD5.s 			page 77


 3278              		.loc 2 846 0
 3279 0066 079A     		ldr	r2, [sp, #28]
 3280 0068 039B     		ldr	r3, [sp, #12]
 3281              	.LVL427:
 3282 006a 9446     		mov	ip, r2
 3283 006c 6344     		add	r3, r3, ip
 3284 006e 0393     		str	r3, [sp, #12]
 3285              	.LVL428:
 3286              	.L241:
 847:..\..\common\lib\nokia5110/LCD5110_Graph.c **** 		}
 848:..\..\common\lib\nokia5110/LCD5110_Graph.c **** 		x1++;
 3287              		.loc 2 848 0
 3288 0070 049B     		ldr	r3, [sp, #16]
 849:..\..\common\lib\nokia5110/LCD5110_Graph.c **** 		ddF_x += 2;
 850:..\..\common\lib\nokia5110/LCD5110_Graph.c **** 		f += ddF_x;    
 3289              		.loc 2 850 0
 3290 0072 039A     		ldr	r2, [sp, #12]
 848:..\..\common\lib\nokia5110/LCD5110_Graph.c **** 		ddF_x += 2;
 3291              		.loc 2 848 0
 3292 0074 0133     		adds	r3, r3, #1
 3293 0076 0493     		str	r3, [sp, #16]
 3294              	.LVL429:
 3295              		.loc 2 850 0
 3296 0078 5B00     		lsls	r3, r3, #1
 3297              	.LVL430:
 3298 007a 0133     		adds	r3, r3, #1
 3299              	.LVL431:
 3300 007c D318     		adds	r3, r2, r3
 3301              	.LVL432:
 3302 007e 0393     		str	r3, [sp, #12]
 3303              	.LVL433:
 3304 0080 6B46     		mov	r3, sp
 3305              	.LVL434:
 3306 0082 1B8A     		ldrh	r3, [r3, #16]
 3307 0084 0693     		str	r3, [sp, #24]
 3308 0086 069A     		ldr	r2, [sp, #24]
 3309 0088 019B     		ldr	r3, [sp, #4]
 3310 008a 9F18     		adds	r7, r3, r2
 851:..\..\common\lib\nokia5110/LCD5110_Graph.c **** 		clrPixel(x + x1, y + y1);
 3311              		.loc 2 851 0
 3312 008c 6B46     		mov	r3, sp
 3313 008e 1B89     		ldrh	r3, [r3, #8]
 3314 0090 BFB2     		uxth	r7, r7
 3315 0092 E618     		adds	r6, r4, r3
 3316 0094 B6B2     		uxth	r6, r6
 3317 0096 3100     		movs	r1, r6
 3318 0098 3800     		movs	r0, r7
 3319 009a 0593     		str	r3, [sp, #20]
 3320 009c FFF7FEFF 		bl	clrPixel
 3321              	.LVL435:
 3322 00a0 069A     		ldr	r2, [sp, #24]
 3323 00a2 019B     		ldr	r3, [sp, #4]
 852:..\..\common\lib\nokia5110/LCD5110_Graph.c **** 		clrPixel(x - x1, y + y1);
 3324              		.loc 2 852 0
 3325 00a4 3100     		movs	r1, r6
 3326 00a6 9D1A     		subs	r5, r3, r2
 3327 00a8 ADB2     		uxth	r5, r5
ARM GAS  C:\Users\Petro\AppData\Local\Temp\ccEiKVD5.s 			page 78


 3328 00aa 2800     		movs	r0, r5
 3329 00ac FFF7FEFF 		bl	clrPixel
 3330              	.LVL436:
 853:..\..\common\lib\nokia5110/LCD5110_Graph.c **** 		clrPixel(x + x1, y - y1);
 3331              		.loc 2 853 0
 3332 00b0 059B     		ldr	r3, [sp, #20]
 3333 00b2 3800     		movs	r0, r7
 3334 00b4 E61A     		subs	r6, r4, r3
 3335 00b6 B6B2     		uxth	r6, r6
 3336 00b8 3100     		movs	r1, r6
 3337 00ba FFF7FEFF 		bl	clrPixel
 3338              	.LVL437:
 854:..\..\common\lib\nokia5110/LCD5110_Graph.c **** 		clrPixel(x - x1, y - y1);
 3339              		.loc 2 854 0
 3340 00be 3100     		movs	r1, r6
 3341 00c0 2800     		movs	r0, r5
 3342 00c2 FFF7FEFF 		bl	clrPixel
 3343              	.LVL438:
 855:..\..\common\lib\nokia5110/LCD5110_Graph.c **** 		clrPixel(x + y1, y + x1);
 3344              		.loc 2 855 0
 3345 00c6 019B     		ldr	r3, [sp, #4]
 3346 00c8 059A     		ldr	r2, [sp, #20]
 3347 00ca 9F18     		adds	r7, r3, r2
 3348 00cc 069B     		ldr	r3, [sp, #24]
 3349 00ce BFB2     		uxth	r7, r7
 3350 00d0 E618     		adds	r6, r4, r3
 3351 00d2 B6B2     		uxth	r6, r6
 3352 00d4 3100     		movs	r1, r6
 3353 00d6 3800     		movs	r0, r7
 3354 00d8 FFF7FEFF 		bl	clrPixel
 3355              	.LVL439:
 856:..\..\common\lib\nokia5110/LCD5110_Graph.c **** 		clrPixel(x - y1, y + x1);
 3356              		.loc 2 856 0
 3357 00dc 019B     		ldr	r3, [sp, #4]
 3358 00de 059A     		ldr	r2, [sp, #20]
 3359 00e0 3100     		movs	r1, r6
 3360 00e2 9D1A     		subs	r5, r3, r2
 3361 00e4 ADB2     		uxth	r5, r5
 3362 00e6 2800     		movs	r0, r5
 3363 00e8 FFF7FEFF 		bl	clrPixel
 3364              	.LVL440:
 3365 00ec 069B     		ldr	r3, [sp, #24]
 857:..\..\common\lib\nokia5110/LCD5110_Graph.c **** 		clrPixel(x + y1, y - x1);
 3366              		.loc 2 857 0
 3367 00ee 3800     		movs	r0, r7
 3368 00f0 E61A     		subs	r6, r4, r3
 3369 00f2 B6B2     		uxth	r6, r6
 3370 00f4 3100     		movs	r1, r6
 3371 00f6 FFF7FEFF 		bl	clrPixel
 3372              	.LVL441:
 858:..\..\common\lib\nokia5110/LCD5110_Graph.c **** 		clrPixel(x - y1, y - x1);
 3373              		.loc 2 858 0
 3374 00fa 3100     		movs	r1, r6
 3375 00fc 2800     		movs	r0, r5
 3376 00fe FFF7FEFF 		bl	clrPixel
 3377              	.LVL442:
 3378 0102 A3E7     		b	.L240
ARM GAS  C:\Users\Petro\AppData\Local\Temp\ccEiKVD5.s 			page 79


 3379              	.LVL443:
 3380              	.L243:
 859:..\..\common\lib\nokia5110/LCD5110_Graph.c **** 	}
 860:..\..\common\lib\nokia5110/LCD5110_Graph.c **** }
 3381              		.loc 2 860 0
 3382 0104 09B0     		add	sp, sp, #36
 3383              		@ sp needed
 3384 0106 F0BD     		pop	{r4, r5, r6, r7, pc}
 3385              		.cfi_endproc
 3386              	.LFE94:
 3387              		.size	clrCircle, .-clrCircle
 3388              		.section	.text.drawBitmap,"ax",%progbits
 3389              		.align	1
 3390              		.global	drawBitmap
 3391              		.code	16
 3392              		.thumb_func
 3393              		.type	drawBitmap, %function
 3394              	drawBitmap:
 3395              	.LFB95:
 861:..\..\common\lib\nokia5110/LCD5110_Graph.c **** 
 862:..\..\common\lib\nokia5110/LCD5110_Graph.c **** void drawBitmap(int x, int y, uint8_t* bitmap, int sx, int sy)
 863:..\..\common\lib\nokia5110/LCD5110_Graph.c **** {
 3396              		.loc 2 863 0
 3397              		.cfi_startproc
 3398              		@ args = 4, pretend = 0, frame = 24
 3399              		@ frame_needed = 0, uses_anonymous_args = 0
 3400              	.LVL444:
 3401 0000 F0B5     		push	{r4, r5, r6, r7, lr}
 3402              		.cfi_def_cfa_offset 20
 3403              		.cfi_offset 4, -20
 3404              		.cfi_offset 5, -16
 3405              		.cfi_offset 6, -12
 3406              		.cfi_offset 7, -8
 3407              		.cfi_offset 14, -4
 864:..\..\common\lib\nokia5110/LCD5110_Graph.c **** 	int bit;
 865:..\..\common\lib\nokia5110/LCD5110_Graph.c **** 	uint8_t data;
 866:..\..\common\lib\nokia5110/LCD5110_Graph.c **** 
 867:..\..\common\lib\nokia5110/LCD5110_Graph.c ****     int cy;
 868:..\..\common\lib\nokia5110/LCD5110_Graph.c **** 	for (cy=0; cy<sy; cy++)
 3408              		.loc 2 868 0
 3409 0002 0025     		movs	r5, #0
 863:..\..\common\lib\nokia5110/LCD5110_Graph.c **** 	int bit;
 3410              		.loc 2 863 0
 3411 0004 87B0     		sub	sp, sp, #28
 3412              		.cfi_def_cfa_offset 48
 863:..\..\common\lib\nokia5110/LCD5110_Graph.c **** 	int bit;
 3413              		.loc 2 863 0
 3414 0006 0490     		str	r0, [sp, #16]
 3415 0008 0592     		str	r2, [sp, #20]
 3416 000a 0193     		str	r3, [sp, #4]
 3417 000c 8CB2     		uxth	r4, r1
 3418              	.LVL445:
 3419              	.L245:
 3420              		.loc 2 868 0 discriminator 1
 3421 000e 0C9B     		ldr	r3, [sp, #48]
 3422 0010 9D42     		cmp	r5, r3
 3423 0012 2EDA     		bge	.L252
ARM GAS  C:\Users\Petro\AppData\Local\Temp\ccEiKVD5.s 			page 80


 3424              	.LVL446:
 3425              	.LBB68:
 869:..\..\common\lib\nokia5110/LCD5110_Graph.c **** 	{
 870:..\..\common\lib\nokia5110/LCD5110_Graph.c **** 		bit= cy % 8;
 871:..\..\common\lib\nokia5110/LCD5110_Graph.c ****         int cx;
 872:..\..\common\lib\nokia5110/LCD5110_Graph.c **** 		for(cx=0; cx<sx; cx++)
 873:..\..\common\lib\nokia5110/LCD5110_Graph.c **** 		{
 874:..\..\common\lib\nokia5110/LCD5110_Graph.c **** 			data=bitmapbyte(cx+((cy/8)*sx));
 3426              		.loc 2 874 0
 3427 0014 0722     		movs	r2, #7
 3428 0016 EB17     		asrs	r3, r5, #31
 3429 0018 1340     		ands	r3, r2
 3430 001a 5B19     		adds	r3, r3, r5
 3431 001c 019A     		ldr	r2, [sp, #4]
 3432 001e DB10     		asrs	r3, r3, #3
 3433 0020 5A43     		muls	r2, r3
 875:..\..\common\lib\nokia5110/LCD5110_Graph.c **** 			if ((data & (1<<bit))>0)
 3434              		.loc 2 875 0
 3435 0022 154B     		ldr	r3, .L254
 874:..\..\common\lib\nokia5110/LCD5110_Graph.c **** 			if ((data & (1<<bit))>0)
 3436              		.loc 2 874 0
 3437 0024 0392     		str	r2, [sp, #12]
 3438              		.loc 2 875 0
 3439 0026 2B40     		ands	r3, r5
 3440 0028 04D5     		bpl	.L246
 3441 002a 0822     		movs	r2, #8
 3442 002c 013B     		subs	r3, r3, #1
 3443 002e 5242     		rsbs	r2, r2, #0
 3444 0030 1343     		orrs	r3, r2
 3445 0032 0133     		adds	r3, r3, #1
 3446              	.L246:
 3447 0034 0122     		movs	r2, #1
 3448 0036 9A40     		lsls	r2, r2, r3
 3449 0038 6B46     		mov	r3, sp
 872:..\..\common\lib\nokia5110/LCD5110_Graph.c **** 		{
 3450              		.loc 2 872 0
 3451 003a 0027     		movs	r7, #0
 3452 003c 1E8A     		ldrh	r6, [r3, #16]
 3453              		.loc 2 875 0
 3454 003e 0292     		str	r2, [sp, #8]
 3455              	.LVL447:
 3456              	.L247:
 872:..\..\common\lib\nokia5110/LCD5110_Graph.c **** 		{
 3457              		.loc 2 872 0 discriminator 1
 3458 0040 019B     		ldr	r3, [sp, #4]
 3459 0042 9F42     		cmp	r7, r3
 3460 0044 11DA     		bge	.L253
 3461              	.LVL448:
 874:..\..\common\lib\nokia5110/LCD5110_Graph.c **** 			if ((data & (1<<bit))>0)
 3462              		.loc 2 874 0
 3463 0046 039A     		ldr	r2, [sp, #12]
 3464 0048 059B     		ldr	r3, [sp, #20]
 876:..\..\common\lib\nokia5110/LCD5110_Graph.c **** 				setPixel(x+cx, y+cy);
 3465              		.loc 2 876 0
 3466 004a 2100     		movs	r1, r4
 874:..\..\common\lib\nokia5110/LCD5110_Graph.c **** 			if ((data & (1<<bit))>0)
 3467              		.loc 2 874 0
ARM GAS  C:\Users\Petro\AppData\Local\Temp\ccEiKVD5.s 			page 81


 3468 004c 9B18     		adds	r3, r3, r2
 875:..\..\common\lib\nokia5110/LCD5110_Graph.c **** 				setPixel(x+cx, y+cy);
 3469              		.loc 2 875 0
 3470 004e DB5D     		ldrb	r3, [r3, r7]
 3471 0050 029A     		ldr	r2, [sp, #8]
 3472              		.loc 2 876 0
 3473 0052 3000     		movs	r0, r6
 875:..\..\common\lib\nokia5110/LCD5110_Graph.c **** 				setPixel(x+cx, y+cy);
 3474              		.loc 2 875 0
 3475 0054 1A42     		tst	r2, r3
 3476 0056 02D0     		beq	.L248
 3477              		.loc 2 876 0
 3478 0058 FFF7FEFF 		bl	setPixel
 3479              	.LVL449:
 3480 005c 01E0     		b	.L249
 3481              	.LVL450:
 3482              	.L248:
 877:..\..\common\lib\nokia5110/LCD5110_Graph.c **** 			else
 878:..\..\common\lib\nokia5110/LCD5110_Graph.c **** 				clrPixel(x+cx, y+cy);
 3483              		.loc 2 878 0
 3484 005e FFF7FEFF 		bl	clrPixel
 3485              	.LVL451:
 3486              	.L249:
 3487 0062 0136     		adds	r6, r6, #1
 872:..\..\common\lib\nokia5110/LCD5110_Graph.c **** 		{
 3488              		.loc 2 872 0 discriminator 2
 3489 0064 0137     		adds	r7, r7, #1
 3490              	.LVL452:
 3491 0066 B6B2     		uxth	r6, r6
 3492 0068 EAE7     		b	.L247
 3493              	.L253:
 3494 006a 0134     		adds	r4, r4, #1
 3495              	.LBE68:
 868:..\..\common\lib\nokia5110/LCD5110_Graph.c **** 	{
 3496              		.loc 2 868 0 discriminator 2
 3497 006c 0135     		adds	r5, r5, #1
 3498              	.LVL453:
 3499 006e A4B2     		uxth	r4, r4
 3500 0070 CDE7     		b	.L245
 3501              	.LVL454:
 3502              	.L252:
 879:..\..\common\lib\nokia5110/LCD5110_Graph.c **** 		}
 880:..\..\common\lib\nokia5110/LCD5110_Graph.c **** 	}      
 881:..\..\common\lib\nokia5110/LCD5110_Graph.c **** }
 3503              		.loc 2 881 0
 3504 0072 07B0     		add	sp, sp, #28
 3505              		@ sp needed
 3506              	.LVL455:
 3507 0074 F0BD     		pop	{r4, r5, r6, r7, pc}
 3508              	.L255:
 3509 0076 C046     		.align	2
 3510              	.L254:
 3511 0078 07000080 		.word	-2147483641
 3512              		.cfi_endproc
 3513              	.LFE95:
 3514              		.size	drawBitmap, .-drawBitmap
 3515              		.comm	_contrast,4,4
ARM GAS  C:\Users\Petro\AppData\Local\Temp\ccEiKVD5.s 			page 82


 3516              		.comm	_sleep,1,1
 3517              		.comm	scrbuf,504,1
 3518              		.comm	cfont,12,4
 3519              		.section	.rodata.str1.1,"aMS",%progbits,1
 3520              	.LC0:
 3521 0000 25252569 		.ascii	"%%%i.%if\000"
 3521      2E256966 
 3521      00
 3522              		.text
 3523              	.Letext0:
 3524              		.file 3 "c:\\program files (x86)\\cypress\\psoc creator\\4.1\\psoc creator\\import\\gnu\\arm\\5.4.
 3525              		.file 4 "c:\\program files (x86)\\cypress\\psoc creator\\4.1\\psoc creator\\import\\gnu\\arm\\5.4.
 3526              		.file 5 "Generated_Source\\PSoC4/cytypes.h"
 3527              		.file 6 "..\\..\\common\\lib\\nokia5110\\LCD5110_Graph.h"
 3528              		.file 7 "Generated_Source\\PSoC4/RTC.h"
 3529              		.file 8 "c:\\program files (x86)\\cypress\\psoc creator\\4.1\\psoc creator\\import\\gnu\\arm\\5.4.
 3530              		.file 9 "Generated_Source\\PSoC4/DC.h"
 3531              		.file 10 "Generated_Source\\PSoC4/CE.h"
 3532              		.file 11 "Generated_Source\\PSoC4/SwSPI_Master.h"
 3533              		.file 12 "Generated_Source\\PSoC4/RST.h"
 3534              		.file 13 "c:\\program files (x86)\\cypress\\psoc creator\\4.1\\psoc creator\\import\\gnu\\arm\\5.4
 3535              		.file 14 "Generated_Source\\PSoC4/ble_Stack.h"
 3536              		.section	.debug_info,"",%progbits
 3537              	.Ldebug_info0:
 3538 0000 121E0000 		.4byte	0x1e12
 3539 0004 0400     		.2byte	0x4
 3540 0006 00000000 		.4byte	.Ldebug_abbrev0
 3541 000a 04       		.byte	0x4
 3542 000b 01       		.uleb128 0x1
 3543 000c 52070000 		.4byte	.LASF162
 3544 0010 0C       		.byte	0xc
 3545 0011 70000000 		.4byte	.LASF163
 3546 0015 13090000 		.4byte	.LASF164
 3547 0019 38000000 		.4byte	.Ldebug_ranges0+0x38
 3548 001d 00000000 		.4byte	0
 3549 0021 00000000 		.4byte	.Ldebug_line0
 3550 0025 02       		.uleb128 0x2
 3551 0026 08       		.byte	0x8
 3552 0027 04       		.byte	0x4
 3553 0028 F7020000 		.4byte	.LASF0
 3554 002c 03       		.uleb128 0x3
 3555 002d 04       		.byte	0x4
 3556 002e 05       		.byte	0x5
 3557 002f 696E7400 		.ascii	"int\000"
 3558 0033 02       		.uleb128 0x2
 3559 0034 04       		.byte	0x4
 3560 0035 04       		.byte	0x4
 3561 0036 F4080000 		.4byte	.LASF1
 3562 003a 02       		.uleb128 0x2
 3563 003b 01       		.byte	0x1
 3564 003c 06       		.byte	0x6
 3565 003d 09020000 		.4byte	.LASF2
 3566 0041 04       		.uleb128 0x4
 3567 0042 B7000000 		.4byte	.LASF5
 3568 0046 03       		.byte	0x3
 3569 0047 1D       		.byte	0x1d
 3570 0048 4C000000 		.4byte	0x4c
ARM GAS  C:\Users\Petro\AppData\Local\Temp\ccEiKVD5.s 			page 83


 3571 004c 02       		.uleb128 0x2
 3572 004d 01       		.byte	0x1
 3573 004e 08       		.byte	0x8
 3574 004f 5B090000 		.4byte	.LASF3
 3575 0053 02       		.uleb128 0x2
 3576 0054 02       		.byte	0x2
 3577 0055 05       		.byte	0x5
 3578 0056 78090000 		.4byte	.LASF4
 3579 005a 04       		.uleb128 0x4
 3580 005b B20A0000 		.4byte	.LASF6
 3581 005f 03       		.byte	0x3
 3582 0060 2B       		.byte	0x2b
 3583 0061 65000000 		.4byte	0x65
 3584 0065 02       		.uleb128 0x2
 3585 0066 02       		.byte	0x2
 3586 0067 07       		.byte	0x7
 3587 0068 A1040000 		.4byte	.LASF7
 3588 006c 02       		.uleb128 0x2
 3589 006d 04       		.byte	0x4
 3590 006e 05       		.byte	0x5
 3591 006f FB000000 		.4byte	.LASF8
 3592 0073 02       		.uleb128 0x2
 3593 0074 04       		.byte	0x4
 3594 0075 07       		.byte	0x7
 3595 0076 1E040000 		.4byte	.LASF9
 3596 007a 02       		.uleb128 0x2
 3597 007b 08       		.byte	0x8
 3598 007c 05       		.byte	0x5
 3599 007d FB010000 		.4byte	.LASF10
 3600 0081 02       		.uleb128 0x2
 3601 0082 08       		.byte	0x8
 3602 0083 07       		.byte	0x7
 3603 0084 28020000 		.4byte	.LASF11
 3604 0088 02       		.uleb128 0x2
 3605 0089 04       		.byte	0x4
 3606 008a 07       		.byte	0x7
 3607 008b E4030000 		.4byte	.LASF12
 3608 008f 04       		.uleb128 0x4
 3609 0090 FF0B0000 		.4byte	.LASF13
 3610 0094 04       		.byte	0x4
 3611 0095 18       		.byte	0x18
 3612 0096 41000000 		.4byte	0x41
 3613 009a 04       		.uleb128 0x4
 3614 009b EE020000 		.4byte	.LASF14
 3615 009f 04       		.byte	0x4
 3616 00a0 24       		.byte	0x24
 3617 00a1 5A000000 		.4byte	0x5a
 3618 00a5 05       		.uleb128 0x5
 3619 00a6 E8020000 		.4byte	.LASF15
 3620 00aa 05       		.byte	0x5
 3621 00ab D201     		.2byte	0x1d2
 3622 00ad 4C000000 		.4byte	0x4c
 3623 00b1 05       		.uleb128 0x5
 3624 00b2 08000000 		.4byte	.LASF16
 3625 00b6 05       		.byte	0x5
 3626 00b7 D301     		.2byte	0x1d3
 3627 00b9 65000000 		.4byte	0x65
ARM GAS  C:\Users\Petro\AppData\Local\Temp\ccEiKVD5.s 			page 84


 3628 00bd 02       		.uleb128 0x2
 3629 00be 01       		.byte	0x1
 3630 00bf 08       		.byte	0x8
 3631 00c0 630A0000 		.4byte	.LASF17
 3632 00c4 02       		.uleb128 0x2
 3633 00c5 08       		.byte	0x8
 3634 00c6 04       		.byte	0x4
 3635 00c7 12070000 		.4byte	.LASF18
 3636 00cb 02       		.uleb128 0x2
 3637 00cc 04       		.byte	0x4
 3638 00cd 07       		.byte	0x7
 3639 00ce 09070000 		.4byte	.LASF19
 3640 00d2 06       		.uleb128 0x6
 3641 00d3 04       		.byte	0x4
 3642 00d4 BD000000 		.4byte	0xbd
 3643 00d8 07       		.uleb128 0x7
 3644 00d9 BD000000 		.4byte	0xbd
 3645 00dd E8000000 		.4byte	0xe8
 3646 00e1 08       		.uleb128 0x8
 3647 00e2 CB000000 		.4byte	0xcb
 3648 00e6 18       		.byte	0x18
 3649 00e7 00       		.byte	0
 3650 00e8 09       		.uleb128 0x9
 3651 00e9 01       		.byte	0x1
 3652 00ea 4C000000 		.4byte	0x4c
 3653 00ee 0E       		.byte	0xe
 3654 00ef 4D01     		.2byte	0x14d
 3655 00f1 A6020000 		.4byte	0x2a6
 3656 00f5 0A       		.uleb128 0xa
 3657 00f6 B4040000 		.4byte	.LASF20
 3658 00fa 00       		.byte	0
 3659 00fb 0A       		.uleb128 0xa
 3660 00fc 15020000 		.4byte	.LASF21
 3661 0100 01       		.byte	0x1
 3662 0101 0A       		.uleb128 0xa
 3663 0102 E9000000 		.4byte	.LASF22
 3664 0106 02       		.byte	0x2
 3665 0107 0A       		.uleb128 0xa
 3666 0108 780B0000 		.4byte	.LASF23
 3667 010c 03       		.byte	0x3
 3668 010d 0A       		.uleb128 0xa
 3669 010e 13010000 		.4byte	.LASF24
 3670 0112 04       		.byte	0x4
 3671 0113 0A       		.uleb128 0xa
 3672 0114 9B000000 		.4byte	.LASF25
 3673 0118 05       		.byte	0x5
 3674 0119 0A       		.uleb128 0xa
 3675 011a D6040000 		.4byte	.LASF26
 3676 011e 06       		.byte	0x6
 3677 011f 0A       		.uleb128 0xa
 3678 0120 38060000 		.4byte	.LASF27
 3679 0124 20       		.byte	0x20
 3680 0125 0A       		.uleb128 0xa
 3681 0126 5E020000 		.4byte	.LASF28
 3682 012a 21       		.byte	0x21
 3683 012b 0A       		.uleb128 0xa
 3684 012c 24050000 		.4byte	.LASF29
ARM GAS  C:\Users\Petro\AppData\Local\Temp\ccEiKVD5.s 			page 85


 3685 0130 22       		.byte	0x22
 3686 0131 0A       		.uleb128 0xa
 3687 0132 AB050000 		.4byte	.LASF30
 3688 0136 23       		.byte	0x23
 3689 0137 0A       		.uleb128 0xa
 3690 0138 40080000 		.4byte	.LASF31
 3691 013c 24       		.byte	0x24
 3692 013d 0A       		.uleb128 0xa
 3693 013e 1E070000 		.4byte	.LASF32
 3694 0142 25       		.byte	0x25
 3695 0143 0A       		.uleb128 0xa
 3696 0144 C0020000 		.4byte	.LASF33
 3697 0148 26       		.byte	0x26
 3698 0149 0A       		.uleb128 0xa
 3699 014a 48050000 		.4byte	.LASF34
 3700 014e 27       		.byte	0x27
 3701 014f 0A       		.uleb128 0xa
 3702 0150 9F060000 		.4byte	.LASF35
 3703 0154 28       		.byte	0x28
 3704 0155 0A       		.uleb128 0xa
 3705 0156 8A010000 		.4byte	.LASF36
 3706 015a 29       		.byte	0x29
 3707 015b 0A       		.uleb128 0xa
 3708 015c 26000000 		.4byte	.LASF37
 3709 0160 2A       		.byte	0x2a
 3710 0161 0A       		.uleb128 0xa
 3711 0162 3F020000 		.4byte	.LASF38
 3712 0166 2B       		.byte	0x2b
 3713 0167 0A       		.uleb128 0xa
 3714 0168 420C0000 		.4byte	.LASF39
 3715 016c 2C       		.byte	0x2c
 3716 016d 0A       		.uleb128 0xa
 3717 016e A7010000 		.4byte	.LASF40
 3718 0172 2D       		.byte	0x2d
 3719 0173 0A       		.uleb128 0xa
 3720 0174 E60A0000 		.4byte	.LASF41
 3721 0178 2E       		.byte	0x2e
 3722 0179 0A       		.uleb128 0xa
 3723 017a 910B0000 		.4byte	.LASF42
 3724 017e 2F       		.byte	0x2f
 3725 017f 0A       		.uleb128 0xa
 3726 0180 08080000 		.4byte	.LASF43
 3727 0184 30       		.byte	0x30
 3728 0185 0A       		.uleb128 0xa
 3729 0186 C40C0000 		.4byte	.LASF44
 3730 018a 31       		.byte	0x31
 3731 018b 0A       		.uleb128 0xa
 3732 018c E0070000 		.4byte	.LASF45
 3733 0190 32       		.byte	0x32
 3734 0191 0A       		.uleb128 0xa
 3735 0192 330A0000 		.4byte	.LASF46
 3736 0196 33       		.byte	0x33
 3737 0197 0A       		.uleb128 0xa
 3738 0198 DC080000 		.4byte	.LASF47
 3739 019c 34       		.byte	0x34
 3740 019d 0A       		.uleb128 0xa
 3741 019e 7B030000 		.4byte	.LASF48
ARM GAS  C:\Users\Petro\AppData\Local\Temp\ccEiKVD5.s 			page 86


 3742 01a2 35       		.byte	0x35
 3743 01a3 0A       		.uleb128 0xa
 3744 01a4 8A050000 		.4byte	.LASF49
 3745 01a8 36       		.byte	0x36
 3746 01a9 0A       		.uleb128 0xa
 3747 01aa 6A060000 		.4byte	.LASF50
 3748 01ae 37       		.byte	0x37
 3749 01af 0A       		.uleb128 0xa
 3750 01b0 190A0000 		.4byte	.LASF51
 3751 01b4 40       		.byte	0x40
 3752 01b5 0A       		.uleb128 0xa
 3753 01b6 E9050000 		.4byte	.LASF52
 3754 01ba 41       		.byte	0x41
 3755 01bb 0A       		.uleb128 0xa
 3756 01bc F40C0000 		.4byte	.LASF53
 3757 01c0 42       		.byte	0x42
 3758 01c1 0A       		.uleb128 0xa
 3759 01c2 C60B0000 		.4byte	.LASF54
 3760 01c6 43       		.byte	0x43
 3761 01c7 0A       		.uleb128 0xa
 3762 01c8 39040000 		.4byte	.LASF55
 3763 01cc 44       		.byte	0x44
 3764 01cd 0A       		.uleb128 0xa
 3765 01ce B5080000 		.4byte	.LASF56
 3766 01d2 45       		.byte	0x45
 3767 01d3 0A       		.uleb128 0xa
 3768 01d4 DF060000 		.4byte	.LASF57
 3769 01d8 46       		.byte	0x46
 3770 01d9 0A       		.uleb128 0xa
 3771 01da CB000000 		.4byte	.LASF58
 3772 01de 47       		.byte	0x47
 3773 01df 0A       		.uleb128 0xa
 3774 01e0 1B0C0000 		.4byte	.LASF59
 3775 01e4 48       		.byte	0x48
 3776 01e5 0A       		.uleb128 0xa
 3777 01e6 75020000 		.4byte	.LASF60
 3778 01ea 49       		.byte	0x49
 3779 01eb 0A       		.uleb128 0xa
 3780 01ec 2D0B0000 		.4byte	.LASF61
 3781 01f0 4A       		.byte	0x4a
 3782 01f1 0A       		.uleb128 0xa
 3783 01f2 8E0A0000 		.4byte	.LASF62
 3784 01f6 4B       		.byte	0x4b
 3785 01f7 0A       		.uleb128 0xa
 3786 01f8 67050000 		.4byte	.LASF63
 3787 01fc 4C       		.byte	0x4c
 3788 01fd 0A       		.uleb128 0xa
 3789 01fe 38070000 		.4byte	.LASF64
 3790 0202 4D       		.byte	0x4d
 3791 0203 0A       		.uleb128 0xa
 3792 0204 98020000 		.4byte	.LASF65
 3793 0208 4E       		.byte	0x4e
 3794 0209 0A       		.uleb128 0xa
 3795 020a A3090000 		.4byte	.LASF66
 3796 020e 4F       		.byte	0x4f
 3797 020f 0A       		.uleb128 0xa
 3798 0210 05050000 		.4byte	.LASF67
ARM GAS  C:\Users\Petro\AppData\Local\Temp\ccEiKVD5.s 			page 87


 3799 0214 50       		.byte	0x50
 3800 0215 0A       		.uleb128 0xa
 3801 0216 680A0000 		.4byte	.LASF68
 3802 021a 51       		.byte	0x51
 3803 021b 0A       		.uleb128 0xa
 3804 021c 63080000 		.4byte	.LASF69
 3805 0220 52       		.byte	0x52
 3806 0221 0A       		.uleb128 0xa
 3807 0222 82090000 		.4byte	.LASF70
 3808 0226 53       		.byte	0x53
 3809 0227 0A       		.uleb128 0xa
 3810 0228 F8090000 		.4byte	.LASF71
 3811 022c 54       		.byte	0x54
 3812 022d 0A       		.uleb128 0xa
 3813 022e 57040000 		.4byte	.LASF72
 3814 0232 55       		.byte	0x55
 3815 0233 0A       		.uleb128 0xa
 3816 0234 C2030000 		.4byte	.LASF73
 3817 0238 56       		.byte	0x56
 3818 0239 0A       		.uleb128 0xa
 3819 023a BD0A0000 		.4byte	.LASF74
 3820 023e 57       		.byte	0x57
 3821 023f 0A       		.uleb128 0xa
 3822 0240 9F030000 		.4byte	.LASF75
 3823 0244 58       		.byte	0x58
 3824 0245 0A       		.uleb128 0xa
 3825 0246 59010000 		.4byte	.LASF76
 3826 024a 70       		.byte	0x70
 3827 024b 0A       		.uleb128 0xa
 3828 024c 8F0C0000 		.4byte	.LASF77
 3829 0250 71       		.byte	0x71
 3830 0251 0A       		.uleb128 0xa
 3831 0252 0D060000 		.4byte	.LASF78
 3832 0256 72       		.byte	0x72
 3833 0257 0A       		.uleb128 0xa
 3834 0258 C1060000 		.4byte	.LASF79
 3835 025c 73       		.byte	0x73
 3836 025d 0A       		.uleb128 0xa
 3837 025e 97080000 		.4byte	.LASF80
 3838 0262 74       		.byte	0x74
 3839 0263 0A       		.uleb128 0xa
 3840 0264 6E0C0000 		.4byte	.LASF81
 3841 0268 75       		.byte	0x75
 3842 0269 0A       		.uleb128 0xa
 3843 026a 4F000000 		.4byte	.LASF82
 3844 026e 76       		.byte	0x76
 3845 026f 0A       		.uleb128 0xa
 3846 0270 520B0000 		.4byte	.LASF83
 3847 0274 77       		.byte	0x77
 3848 0275 0A       		.uleb128 0xa
 3849 0276 0A0B0000 		.4byte	.LASF84
 3850 027a 78       		.byte	0x78
 3851 027b 0A       		.uleb128 0xa
 3852 027c D0010000 		.4byte	.LASF85
 3853 0280 79       		.byte	0x79
 3854 0281 0A       		.uleb128 0xa
 3855 0282 4E030000 		.4byte	.LASF86
ARM GAS  C:\Users\Petro\AppData\Local\Temp\ccEiKVD5.s 			page 88


 3856 0286 7A       		.byte	0x7a
 3857 0287 0A       		.uleb128 0xa
 3858 0288 2E010000 		.4byte	.LASF87
 3859 028c FA       		.byte	0xfa
 3860 028d 0A       		.uleb128 0xa
 3861 028e F1030000 		.4byte	.LASF88
 3862 0292 FB       		.byte	0xfb
 3863 0293 0A       		.uleb128 0xa
 3864 0294 CB090000 		.4byte	.LASF89
 3865 0298 FC       		.byte	0xfc
 3866 0299 0A       		.uleb128 0xa
 3867 029a D1050000 		.4byte	.LASF90
 3868 029e FD       		.byte	0xfd
 3869 029f 0A       		.uleb128 0xa
 3870 02a0 40030000 		.4byte	.LASF91
 3871 02a4 FF       		.byte	0xff
 3872 02a5 00       		.byte	0
 3873 02a6 0B       		.uleb128 0xb
 3874 02a7 0C       		.byte	0xc
 3875 02a8 06       		.byte	0x6
 3876 02a9 3F       		.byte	0x3f
 3877 02aa F7020000 		.4byte	0x2f7
 3878 02ae 0C       		.uleb128 0xc
 3879 02af E40B0000 		.4byte	.LASF92
 3880 02b3 06       		.byte	0x6
 3881 02b4 41       		.byte	0x41
 3882 02b5 F7020000 		.4byte	0x2f7
 3883 02b9 00       		.byte	0
 3884 02ba 0C       		.uleb128 0xc
 3885 02bb 01080000 		.4byte	.LASF93
 3886 02bf 06       		.byte	0x6
 3887 02c0 42       		.byte	0x42
 3888 02c1 8F000000 		.4byte	0x8f
 3889 02c5 04       		.byte	0x4
 3890 02c6 0C       		.uleb128 0xc
 3891 02c7 71090000 		.4byte	.LASF94
 3892 02cb 06       		.byte	0x6
 3893 02cc 43       		.byte	0x43
 3894 02cd 8F000000 		.4byte	0x8f
 3895 02d1 05       		.byte	0x5
 3896 02d2 0C       		.uleb128 0xc
 3897 02d3 710B0000 		.4byte	.LASF95
 3898 02d7 06       		.byte	0x6
 3899 02d8 44       		.byte	0x44
 3900 02d9 8F000000 		.4byte	0x8f
 3901 02dd 06       		.byte	0x6
 3902 02de 0C       		.uleb128 0xc
 3903 02df 0A010000 		.4byte	.LASF96
 3904 02e3 06       		.byte	0x6
 3905 02e4 45       		.byte	0x45
 3906 02e5 8F000000 		.4byte	0x8f
 3907 02e9 07       		.byte	0x7
 3908 02ea 0C       		.uleb128 0xc
 3909 02eb C2090000 		.4byte	.LASF97
 3910 02ef 06       		.byte	0x6
 3911 02f0 46       		.byte	0x46
 3912 02f1 8F000000 		.4byte	0x8f
ARM GAS  C:\Users\Petro\AppData\Local\Temp\ccEiKVD5.s 			page 89


 3913 02f5 08       		.byte	0x8
 3914 02f6 00       		.byte	0
 3915 02f7 06       		.uleb128 0x6
 3916 02f8 04       		.byte	0x4
 3917 02f9 8F000000 		.4byte	0x8f
 3918 02fd 04       		.uleb128 0x4
 3919 02fe 5C060000 		.4byte	.LASF98
 3920 0302 06       		.byte	0x6
 3921 0303 47       		.byte	0x47
 3922 0304 A6020000 		.4byte	0x2a6
 3923 0308 0D       		.uleb128 0xd
 3924 0309 BF0B0000 		.4byte	.LASF165
 3925 030d 02       		.byte	0x2
 3926 030e 96       		.byte	0x96
 3927 030f 01       		.byte	0x1
 3928 0310 20030000 		.4byte	0x320
 3929 0314 0E       		.uleb128 0xe
 3930 0315 0F       		.uleb128 0xf
 3931 0316 6200     		.ascii	"b\000"
 3932 0318 02       		.byte	0x2
 3933 0319 9C       		.byte	0x9c
 3934 031a 2C000000 		.4byte	0x2c
 3935 031e 00       		.byte	0
 3936 031f 00       		.byte	0
 3937 0320 10       		.uleb128 0x10
 3938 0321 30040000 		.4byte	.LASF99
 3939 0325 02       		.byte	0x2
 3940 0326 B8       		.byte	0xb8
 3941 0327 01       		.byte	0x1
 3942 0328 53030000 		.4byte	0x353
 3943 032c 11       		.uleb128 0x11
 3944 032d 7800     		.ascii	"x\000"
 3945 032f 02       		.byte	0x2
 3946 0330 B8       		.byte	0xb8
 3947 0331 9A000000 		.4byte	0x9a
 3948 0335 11       		.uleb128 0x11
 3949 0336 7900     		.ascii	"y\000"
 3950 0338 02       		.byte	0x2
 3951 0339 B8       		.byte	0xb8
 3952 033a 9A000000 		.4byte	0x9a
 3953 033e 0F       		.uleb128 0xf
 3954 033f 627900   		.ascii	"by\000"
 3955 0342 02       		.byte	0x2
 3956 0343 BA       		.byte	0xba
 3957 0344 2C000000 		.4byte	0x2c
 3958 0348 0F       		.uleb128 0xf
 3959 0349 626900   		.ascii	"bi\000"
 3960 034c 02       		.byte	0x2
 3961 034d BA       		.byte	0xba
 3962 034e 2C000000 		.4byte	0x2c
 3963 0352 00       		.byte	0
 3964 0353 10       		.uleb128 0x10
 3965 0354 04060000 		.4byte	.LASF100
 3966 0358 02       		.byte	0x2
 3967 0359 C5       		.byte	0xc5
 3968 035a 01       		.byte	0x1
 3969 035b 86030000 		.4byte	0x386
ARM GAS  C:\Users\Petro\AppData\Local\Temp\ccEiKVD5.s 			page 90


 3970 035f 11       		.uleb128 0x11
 3971 0360 7800     		.ascii	"x\000"
 3972 0362 02       		.byte	0x2
 3973 0363 C5       		.byte	0xc5
 3974 0364 9A000000 		.4byte	0x9a
 3975 0368 11       		.uleb128 0x11
 3976 0369 7900     		.ascii	"y\000"
 3977 036b 02       		.byte	0x2
 3978 036c C5       		.byte	0xc5
 3979 036d 9A000000 		.4byte	0x9a
 3980 0371 0F       		.uleb128 0xf
 3981 0372 627900   		.ascii	"by\000"
 3982 0375 02       		.byte	0x2
 3983 0376 C7       		.byte	0xc7
 3984 0377 2C000000 		.4byte	0x2c
 3985 037b 0F       		.uleb128 0xf
 3986 037c 626900   		.ascii	"bi\000"
 3987 037f 02       		.byte	0x2
 3988 0380 C7       		.byte	0xc7
 3989 0381 2C000000 		.4byte	0x2c
 3990 0385 00       		.byte	0
 3991 0386 12       		.uleb128 0x12
 3992 0387 8D080000 		.4byte	.LASF101
 3993 038b 02       		.byte	0x2
 3994 038c B401     		.2byte	0x1b4
 3995 038e 01       		.byte	0x1
 3996 038f D5030000 		.4byte	0x3d5
 3997 0393 13       		.uleb128 0x13
 3998 0394 7800     		.ascii	"x\000"
 3999 0396 02       		.byte	0x2
 4000 0397 B401     		.2byte	0x1b4
 4001 0399 2C000000 		.4byte	0x2c
 4002 039d 13       		.uleb128 0x13
 4003 039e 7900     		.ascii	"y\000"
 4004 03a0 02       		.byte	0x2
 4005 03a1 B401     		.2byte	0x1b4
 4006 03a3 2C000000 		.4byte	0x2c
 4007 03a7 13       		.uleb128 0x13
 4008 03a8 6C00     		.ascii	"l\000"
 4009 03aa 02       		.byte	0x2
 4010 03ab B401     		.2byte	0x1b4
 4011 03ad 2C000000 		.4byte	0x2c
 4012 03b1 14       		.uleb128 0x14
 4013 03b2 627900   		.ascii	"by\000"
 4014 03b5 02       		.byte	0x2
 4015 03b6 B601     		.2byte	0x1b6
 4016 03b8 2C000000 		.4byte	0x2c
 4017 03bc 14       		.uleb128 0x14
 4018 03bd 626900   		.ascii	"bi\000"
 4019 03c0 02       		.byte	0x2
 4020 03c1 B601     		.2byte	0x1b6
 4021 03c3 2C000000 		.4byte	0x2c
 4022 03c7 0E       		.uleb128 0xe
 4023 03c8 14       		.uleb128 0x14
 4024 03c9 637800   		.ascii	"cx\000"
 4025 03cc 02       		.byte	0x2
 4026 03cd BA01     		.2byte	0x1ba
ARM GAS  C:\Users\Petro\AppData\Local\Temp\ccEiKVD5.s 			page 91


 4027 03cf 2C000000 		.4byte	0x2c
 4028 03d3 00       		.byte	0
 4029 03d4 00       		.byte	0
 4030 03d5 12       		.uleb128 0x12
 4031 03d6 00070000 		.4byte	.LASF102
 4032 03da 02       		.byte	0x2
 4033 03db C501     		.2byte	0x1c5
 4034 03dd 01       		.byte	0x1
 4035 03de 24040000 		.4byte	0x424
 4036 03e2 13       		.uleb128 0x13
 4037 03e3 7800     		.ascii	"x\000"
 4038 03e5 02       		.byte	0x2
 4039 03e6 C501     		.2byte	0x1c5
 4040 03e8 2C000000 		.4byte	0x2c
 4041 03ec 13       		.uleb128 0x13
 4042 03ed 7900     		.ascii	"y\000"
 4043 03ef 02       		.byte	0x2
 4044 03f0 C501     		.2byte	0x1c5
 4045 03f2 2C000000 		.4byte	0x2c
 4046 03f6 13       		.uleb128 0x13
 4047 03f7 6C00     		.ascii	"l\000"
 4048 03f9 02       		.byte	0x2
 4049 03fa C501     		.2byte	0x1c5
 4050 03fc 2C000000 		.4byte	0x2c
 4051 0400 14       		.uleb128 0x14
 4052 0401 627900   		.ascii	"by\000"
 4053 0404 02       		.byte	0x2
 4054 0405 C701     		.2byte	0x1c7
 4055 0407 2C000000 		.4byte	0x2c
 4056 040b 14       		.uleb128 0x14
 4057 040c 626900   		.ascii	"bi\000"
 4058 040f 02       		.byte	0x2
 4059 0410 C701     		.2byte	0x1c7
 4060 0412 2C000000 		.4byte	0x2c
 4061 0416 0E       		.uleb128 0xe
 4062 0417 14       		.uleb128 0x14
 4063 0418 637800   		.ascii	"cx\000"
 4064 041b 02       		.byte	0x2
 4065 041c CB01     		.2byte	0x1cb
 4066 041e 2C000000 		.4byte	0x2c
 4067 0422 00       		.byte	0
 4068 0423 00       		.byte	0
 4069 0424 12       		.uleb128 0x12
 4070 0425 87040000 		.4byte	.LASF103
 4071 0429 02       		.byte	0x2
 4072 042a D601     		.2byte	0x1d6
 4073 042c 01       		.byte	0x1
 4074 042d 73040000 		.4byte	0x473
 4075 0431 13       		.uleb128 0x13
 4076 0432 7800     		.ascii	"x\000"
 4077 0434 02       		.byte	0x2
 4078 0435 D601     		.2byte	0x1d6
 4079 0437 2C000000 		.4byte	0x2c
 4080 043b 13       		.uleb128 0x13
 4081 043c 7900     		.ascii	"y\000"
 4082 043e 02       		.byte	0x2
 4083 043f D601     		.2byte	0x1d6
ARM GAS  C:\Users\Petro\AppData\Local\Temp\ccEiKVD5.s 			page 92


 4084 0441 2C000000 		.4byte	0x2c
 4085 0445 13       		.uleb128 0x13
 4086 0446 6C00     		.ascii	"l\000"
 4087 0448 02       		.byte	0x2
 4088 0449 D601     		.2byte	0x1d6
 4089 044b 2C000000 		.4byte	0x2c
 4090 044f 14       		.uleb128 0x14
 4091 0450 627900   		.ascii	"by\000"
 4092 0453 02       		.byte	0x2
 4093 0454 D801     		.2byte	0x1d8
 4094 0456 2C000000 		.4byte	0x2c
 4095 045a 14       		.uleb128 0x14
 4096 045b 626900   		.ascii	"bi\000"
 4097 045e 02       		.byte	0x2
 4098 045f D801     		.2byte	0x1d8
 4099 0461 2C000000 		.4byte	0x2c
 4100 0465 0E       		.uleb128 0xe
 4101 0466 14       		.uleb128 0x14
 4102 0467 637900   		.ascii	"cy\000"
 4103 046a 02       		.byte	0x2
 4104 046b DC01     		.2byte	0x1dc
 4105 046d 2C000000 		.4byte	0x2c
 4106 0471 00       		.byte	0
 4107 0472 00       		.byte	0
 4108 0473 12       		.uleb128 0x12
 4109 0474 72030000 		.4byte	.LASF104
 4110 0478 02       		.byte	0x2
 4111 0479 E401     		.2byte	0x1e4
 4112 047b 01       		.byte	0x1
 4113 047c C2040000 		.4byte	0x4c2
 4114 0480 13       		.uleb128 0x13
 4115 0481 7800     		.ascii	"x\000"
 4116 0483 02       		.byte	0x2
 4117 0484 E401     		.2byte	0x1e4
 4118 0486 2C000000 		.4byte	0x2c
 4119 048a 13       		.uleb128 0x13
 4120 048b 7900     		.ascii	"y\000"
 4121 048d 02       		.byte	0x2
 4122 048e E401     		.2byte	0x1e4
 4123 0490 2C000000 		.4byte	0x2c
 4124 0494 13       		.uleb128 0x13
 4125 0495 6C00     		.ascii	"l\000"
 4126 0497 02       		.byte	0x2
 4127 0498 E401     		.2byte	0x1e4
 4128 049a 2C000000 		.4byte	0x2c
 4129 049e 14       		.uleb128 0x14
 4130 049f 627900   		.ascii	"by\000"
 4131 04a2 02       		.byte	0x2
 4132 04a3 E601     		.2byte	0x1e6
 4133 04a5 2C000000 		.4byte	0x2c
 4134 04a9 14       		.uleb128 0x14
 4135 04aa 626900   		.ascii	"bi\000"
 4136 04ad 02       		.byte	0x2
 4137 04ae E601     		.2byte	0x1e6
 4138 04b0 2C000000 		.4byte	0x2c
 4139 04b4 0E       		.uleb128 0xe
 4140 04b5 14       		.uleb128 0x14
ARM GAS  C:\Users\Petro\AppData\Local\Temp\ccEiKVD5.s 			page 93


 4141 04b6 637900   		.ascii	"cy\000"
 4142 04b9 02       		.byte	0x2
 4143 04ba EA01     		.2byte	0x1ea
 4144 04bc 2C000000 		.4byte	0x2c
 4145 04c0 00       		.byte	0
 4146 04c1 00       		.byte	0
 4147 04c2 15       		.uleb128 0x15
 4148 04c3 B50C0000 		.4byte	.LASF107
 4149 04c7 01       		.byte	0x1
 4150 04c8 04       		.byte	0x4
 4151 04c9 00000000 		.4byte	.LFB63
 4152 04cd 28000000 		.4byte	.LFE63-.LFB63
 4153 04d1 01       		.uleb128 0x1
 4154 04d2 9C       		.byte	0x9c
 4155 04d3 67050000 		.4byte	0x567
 4156 04d7 16       		.uleb128 0x16
 4157 04d8 62756600 		.ascii	"buf\000"
 4158 04dc 01       		.byte	0x1
 4159 04dd 04       		.byte	0x4
 4160 04de D2000000 		.4byte	0xd2
 4161 04e2 00000000 		.4byte	.LLST0
 4162 04e6 16       		.uleb128 0x16
 4163 04e7 6E756D00 		.ascii	"num\000"
 4164 04eb 01       		.byte	0x1
 4165 04ec 04       		.byte	0x4
 4166 04ed 25000000 		.4byte	0x25
 4167 04f1 2C000000 		.4byte	.LLST1
 4168 04f5 17       		.uleb128 0x17
 4169 04f6 91040000 		.4byte	.LASF105
 4170 04fa 01       		.byte	0x1
 4171 04fb 04       		.byte	0x4
 4172 04fc 2C000000 		.4byte	0x2c
 4173 0500 54000000 		.4byte	.LLST2
 4174 0504 17       		.uleb128 0x17
 4175 0505 BA0B0000 		.4byte	.LASF106
 4176 0509 01       		.byte	0x1
 4177 050a 04       		.byte	0x4
 4178 050b 8F000000 		.4byte	0x8f
 4179 050f 8C000000 		.4byte	.LLST3
 4180 0513 18       		.uleb128 0x18
 4181 0514 DD090000 		.4byte	.LASF113
 4182 0518 01       		.byte	0x1
 4183 0519 06       		.byte	0x6
 4184 051a 67050000 		.4byte	0x567
 4185 051e 02       		.uleb128 0x2
 4186 051f 91       		.byte	0x91
 4187 0520 64       		.sleb128 -28
 4188 0521 19       		.uleb128 0x19
 4189 0522 16000000 		.4byte	.LVL5
 4190 0526 D31D0000 		.4byte	0x1dd3
 4191 052a 50050000 		.4byte	0x550
 4192 052e 1A       		.uleb128 0x1a
 4193 052f 01       		.uleb128 0x1
 4194 0530 50       		.byte	0x50
 4195 0531 02       		.uleb128 0x2
 4196 0532 91       		.byte	0x91
 4197 0533 64       		.sleb128 -28
ARM GAS  C:\Users\Petro\AppData\Local\Temp\ccEiKVD5.s 			page 94


 4198 0534 1A       		.uleb128 0x1a
 4199 0535 01       		.uleb128 0x1
 4200 0536 51       		.byte	0x51
 4201 0537 05       		.uleb128 0x5
 4202 0538 03       		.byte	0x3
 4203 0539 00000000 		.4byte	.LC0
 4204 053d 1A       		.uleb128 0x1a
 4205 053e 01       		.uleb128 0x1
 4206 053f 52       		.byte	0x52
 4207 0540 03       		.uleb128 0x3
 4208 0541 91       		.byte	0x91
 4209 0542 00       		.sleb128 0
 4210 0543 06       		.byte	0x6
 4211 0544 1A       		.uleb128 0x1a
 4212 0545 01       		.uleb128 0x1
 4213 0546 53       		.byte	0x53
 4214 0547 07       		.uleb128 0x7
 4215 0548 91       		.byte	0x91
 4216 0549 04       		.sleb128 4
 4217 054a 94       		.byte	0x94
 4218 054b 01       		.byte	0x1
 4219 054c 08       		.byte	0x8
 4220 054d FF       		.byte	0xff
 4221 054e 1A       		.byte	0x1a
 4222 054f 00       		.byte	0
 4223 0550 1B       		.uleb128 0x1b
 4224 0551 22000000 		.4byte	.LVL6
 4225 0555 D31D0000 		.4byte	0x1dd3
 4226 0559 1A       		.uleb128 0x1a
 4227 055a 01       		.uleb128 0x1
 4228 055b 50       		.byte	0x50
 4229 055c 02       		.uleb128 0x2
 4230 055d 76       		.byte	0x76
 4231 055e 00       		.sleb128 0
 4232 055f 1A       		.uleb128 0x1a
 4233 0560 01       		.uleb128 0x1
 4234 0561 51       		.byte	0x51
 4235 0562 02       		.uleb128 0x2
 4236 0563 91       		.byte	0x91
 4237 0564 64       		.sleb128 -28
 4238 0565 00       		.byte	0
 4239 0566 00       		.byte	0
 4240 0567 07       		.uleb128 0x7
 4241 0568 BD000000 		.4byte	0xbd
 4242 056c 77050000 		.4byte	0x577
 4243 0570 08       		.uleb128 0x8
 4244 0571 CB000000 		.4byte	0xcb
 4245 0575 09       		.byte	0x9
 4246 0576 00       		.byte	0
 4247 0577 15       		.uleb128 0x15
 4248 0578 CB040000 		.4byte	.LASF108
 4249 057c 02       		.byte	0x2
 4250 057d 3B       		.byte	0x3b
 4251 057e 00000000 		.4byte	.LFB64
 4252 0582 22000000 		.4byte	.LFE64-.LFB64
 4253 0586 01       		.uleb128 0x1
 4254 0587 9C       		.byte	0x9c
ARM GAS  C:\Users\Petro\AppData\Local\Temp\ccEiKVD5.s 			page 95


 4255 0588 EA050000 		.4byte	0x5ea
 4256 058c 17       		.uleb128 0x17
 4257 058d 97040000 		.4byte	.LASF109
 4258 0591 02       		.byte	0x2
 4259 0592 3B       		.byte	0x3b
 4260 0593 4C000000 		.4byte	0x4c
 4261 0597 C4000000 		.4byte	.LLST4
 4262 059b 17       		.uleb128 0x17
 4263 059c AD0A0000 		.4byte	.LASF110
 4264 05a0 02       		.byte	0x2
 4265 05a1 3B       		.byte	0x3b
 4266 05a2 4C000000 		.4byte	0x4c
 4267 05a6 E5000000 		.4byte	.LLST5
 4268 05aa 1C       		.uleb128 0x1c
 4269 05ab 0E000000 		.4byte	.LVL10
 4270 05af DE1D0000 		.4byte	0x1dde
 4271 05b3 19       		.uleb128 0x19
 4272 05b4 14000000 		.4byte	.LVL11
 4273 05b8 E91D0000 		.4byte	0x1de9
 4274 05bc C6050000 		.4byte	0x5c6
 4275 05c0 1A       		.uleb128 0x1a
 4276 05c1 01       		.uleb128 0x1
 4277 05c2 50       		.byte	0x50
 4278 05c3 01       		.uleb128 0x1
 4279 05c4 30       		.byte	0x30
 4280 05c5 00       		.byte	0
 4281 05c6 19       		.uleb128 0x19
 4282 05c7 1A000000 		.4byte	.LVL12
 4283 05cb F41D0000 		.4byte	0x1df4
 4284 05cf DA050000 		.4byte	0x5da
 4285 05d3 1A       		.uleb128 0x1a
 4286 05d4 01       		.uleb128 0x1
 4287 05d5 50       		.byte	0x50
 4288 05d6 02       		.uleb128 0x2
 4289 05d7 74       		.byte	0x74
 4290 05d8 00       		.sleb128 0
 4291 05d9 00       		.byte	0
 4292 05da 1B       		.uleb128 0x1b
 4293 05db 20000000 		.4byte	.LVL13
 4294 05df E91D0000 		.4byte	0x1de9
 4295 05e3 1A       		.uleb128 0x1a
 4296 05e4 01       		.uleb128 0x1
 4297 05e5 50       		.byte	0x50
 4298 05e6 01       		.uleb128 0x1
 4299 05e7 31       		.byte	0x31
 4300 05e8 00       		.byte	0
 4301 05e9 00       		.byte	0
 4302 05ea 15       		.uleb128 0x15
 4303 05eb FE020000 		.4byte	.LASF111
 4304 05ef 02       		.byte	0x2
 4305 05f0 73       		.byte	0x73
 4306 05f1 00000000 		.4byte	.LFB66
 4307 05f5 3C000000 		.4byte	.LFE66-.LFB66
 4308 05f9 01       		.uleb128 0x1
 4309 05fa 9C       		.byte	0x9c
 4310 05fb 59060000 		.4byte	0x659
 4311 05ff 17       		.uleb128 0x17
ARM GAS  C:\Users\Petro\AppData\Local\Temp\ccEiKVD5.s 			page 96


 4312 0600 81050000 		.4byte	.LASF112
 4313 0604 02       		.byte	0x2
 4314 0605 73       		.byte	0x73
 4315 0606 2C000000 		.4byte	0x2c
 4316 060a 06010000 		.4byte	.LLST6
 4317 060e 19       		.uleb128 0x19
 4318 060f 1A000000 		.4byte	.LVL16
 4319 0613 77050000 		.4byte	0x577
 4320 0617 27060000 		.4byte	0x627
 4321 061b 1A       		.uleb128 0x1a
 4322 061c 01       		.uleb128 0x1
 4323 061d 50       		.byte	0x50
 4324 061e 02       		.uleb128 0x2
 4325 061f 08       		.byte	0x8
 4326 0620 21       		.byte	0x21
 4327 0621 1A       		.uleb128 0x1a
 4328 0622 01       		.uleb128 0x1
 4329 0623 51       		.byte	0x51
 4330 0624 01       		.uleb128 0x1
 4331 0625 30       		.byte	0x30
 4332 0626 00       		.byte	0
 4333 0627 19       		.uleb128 0x19
 4334 0628 28000000 		.4byte	.LVL17
 4335 062c 77050000 		.4byte	0x577
 4336 0630 43060000 		.4byte	0x643
 4337 0634 1A       		.uleb128 0x1a
 4338 0635 01       		.uleb128 0x1
 4339 0636 50       		.byte	0x50
 4340 0637 05       		.uleb128 0x5
 4341 0638 74       		.byte	0x74
 4342 0639 00       		.sleb128 0
 4343 063a 09       		.byte	0x9
 4344 063b 80       		.byte	0x80
 4345 063c 21       		.byte	0x21
 4346 063d 1A       		.uleb128 0x1a
 4347 063e 01       		.uleb128 0x1
 4348 063f 51       		.byte	0x51
 4349 0640 01       		.uleb128 0x1
 4350 0641 30       		.byte	0x30
 4351 0642 00       		.byte	0
 4352 0643 1B       		.uleb128 0x1b
 4353 0644 30000000 		.4byte	.LVL18
 4354 0648 77050000 		.4byte	0x577
 4355 064c 1A       		.uleb128 0x1a
 4356 064d 01       		.uleb128 0x1
 4357 064e 50       		.byte	0x50
 4358 064f 02       		.uleb128 0x2
 4359 0650 08       		.byte	0x8
 4360 0651 20       		.byte	0x20
 4361 0652 1A       		.uleb128 0x1a
 4362 0653 01       		.uleb128 0x1
 4363 0654 51       		.byte	0x51
 4364 0655 01       		.uleb128 0x1
 4365 0656 30       		.byte	0x30
 4366 0657 00       		.byte	0
 4367 0658 00       		.byte	0
 4368 0659 1D       		.uleb128 0x1d
ARM GAS  C:\Users\Petro\AppData\Local\Temp\ccEiKVD5.s 			page 97


 4369 065a E80C0000 		.4byte	.LASF114
 4370 065e 02       		.byte	0x2
 4371 065f 7F       		.byte	0x7f
 4372 0660 00000000 		.4byte	.LFB67
 4373 0664 38000000 		.4byte	.LFE67-.LFB67
 4374 0668 01       		.uleb128 0x1
 4375 0669 9C       		.byte	0x9c
 4376 066a DC060000 		.4byte	0x6dc
 4377 066e 1E       		.uleb128 0x1e
 4378 066f 6200     		.ascii	"b\000"
 4379 0671 02       		.byte	0x2
 4380 0672 84       		.byte	0x84
 4381 0673 2C000000 		.4byte	0x2c
 4382 0677 33010000 		.4byte	.LLST7
 4383 067b 19       		.uleb128 0x19
 4384 067c 12000000 		.4byte	.LVL20
 4385 0680 77050000 		.4byte	0x577
 4386 0684 94060000 		.4byte	0x694
 4387 0688 1A       		.uleb128 0x1a
 4388 0689 01       		.uleb128 0x1
 4389 068a 50       		.byte	0x50
 4390 068b 02       		.uleb128 0x2
 4391 068c 08       		.byte	0x8
 4392 068d 40       		.byte	0x40
 4393 068e 1A       		.uleb128 0x1a
 4394 068f 01       		.uleb128 0x1
 4395 0690 51       		.byte	0x51
 4396 0691 01       		.uleb128 0x1
 4397 0692 30       		.byte	0x30
 4398 0693 00       		.byte	0
 4399 0694 19       		.uleb128 0x19
 4400 0695 1A000000 		.4byte	.LVL21
 4401 0699 77050000 		.4byte	0x577
 4402 069d AD060000 		.4byte	0x6ad
 4403 06a1 1A       		.uleb128 0x1a
 4404 06a2 01       		.uleb128 0x1
 4405 06a3 50       		.byte	0x50
 4406 06a4 02       		.uleb128 0x2
 4407 06a5 09       		.byte	0x9
 4408 06a6 80       		.byte	0x80
 4409 06a7 1A       		.uleb128 0x1a
 4410 06a8 01       		.uleb128 0x1
 4411 06a9 51       		.byte	0x51
 4412 06aa 01       		.uleb128 0x1
 4413 06ab 30       		.byte	0x30
 4414 06ac 00       		.byte	0
 4415 06ad 19       		.uleb128 0x19
 4416 06ae 26000000 		.4byte	.LVL24
 4417 06b2 77050000 		.4byte	0x577
 4418 06b6 C5060000 		.4byte	0x6c5
 4419 06ba 1A       		.uleb128 0x1a
 4420 06bb 01       		.uleb128 0x1
 4421 06bc 50       		.byte	0x50
 4422 06bd 01       		.uleb128 0x1
 4423 06be 30       		.byte	0x30
 4424 06bf 1A       		.uleb128 0x1a
 4425 06c0 01       		.uleb128 0x1
ARM GAS  C:\Users\Petro\AppData\Local\Temp\ccEiKVD5.s 			page 98


 4426 06c1 51       		.byte	0x51
 4427 06c2 01       		.uleb128 0x1
 4428 06c3 31       		.byte	0x31
 4429 06c4 00       		.byte	0
 4430 06c5 1B       		.uleb128 0x1b
 4431 06c6 32000000 		.4byte	.LVL25
 4432 06ca 77050000 		.4byte	0x577
 4433 06ce 1A       		.uleb128 0x1a
 4434 06cf 01       		.uleb128 0x1
 4435 06d0 50       		.byte	0x50
 4436 06d1 02       		.uleb128 0x2
 4437 06d2 08       		.byte	0x8
 4438 06d3 24       		.byte	0x24
 4439 06d4 1A       		.uleb128 0x1a
 4440 06d5 01       		.uleb128 0x1
 4441 06d6 51       		.byte	0x51
 4442 06d7 02       		.uleb128 0x2
 4443 06d8 74       		.byte	0x74
 4444 06d9 00       		.sleb128 0
 4445 06da 00       		.byte	0
 4446 06db 00       		.byte	0
 4447 06dc 1F       		.uleb128 0x1f
 4448 06dd 08030000 		.4byte	0x308
 4449 06e1 00000000 		.4byte	.LFB69
 4450 06e5 38000000 		.4byte	.LFE69-.LFB69
 4451 06e9 01       		.uleb128 0x1
 4452 06ea 9C       		.byte	0x9c
 4453 06eb 46070000 		.4byte	0x746
 4454 06ef 20       		.uleb128 0x20
 4455 06f0 0A000000 		.4byte	.LBB12
 4456 06f4 24000000 		.4byte	.LBE12-.LBB12
 4457 06f8 21       		.uleb128 0x21
 4458 06f9 15030000 		.4byte	0x315
 4459 06fd 69010000 		.4byte	.LLST8
 4460 0701 19       		.uleb128 0x19
 4461 0702 12000000 		.4byte	.LVL26
 4462 0706 77050000 		.4byte	0x577
 4463 070a 1B070000 		.4byte	0x71b
 4464 070e 1A       		.uleb128 0x1a
 4465 070f 01       		.uleb128 0x1
 4466 0710 50       		.byte	0x50
 4467 0711 02       		.uleb128 0x2
 4468 0712 08       		.byte	0x8
 4469 0713 40       		.byte	0x40
 4470 0714 1A       		.uleb128 0x1a
 4471 0715 01       		.uleb128 0x1
 4472 0716 51       		.byte	0x51
 4473 0717 02       		.uleb128 0x2
 4474 0718 74       		.byte	0x74
 4475 0719 00       		.sleb128 0
 4476 071a 00       		.byte	0
 4477 071b 19       		.uleb128 0x19
 4478 071c 1C000000 		.4byte	.LVL27
 4479 0720 77050000 		.4byte	0x577
 4480 0724 35070000 		.4byte	0x735
 4481 0728 1A       		.uleb128 0x1a
 4482 0729 01       		.uleb128 0x1
ARM GAS  C:\Users\Petro\AppData\Local\Temp\ccEiKVD5.s 			page 99


 4483 072a 50       		.byte	0x50
 4484 072b 02       		.uleb128 0x2
 4485 072c 09       		.byte	0x9
 4486 072d 80       		.byte	0x80
 4487 072e 1A       		.uleb128 0x1a
 4488 072f 01       		.uleb128 0x1
 4489 0730 51       		.byte	0x51
 4490 0731 02       		.uleb128 0x2
 4491 0732 74       		.byte	0x74
 4492 0733 00       		.sleb128 0
 4493 0734 00       		.byte	0
 4494 0735 1B       		.uleb128 0x1b
 4495 0736 2A000000 		.4byte	.LVL30
 4496 073a 77050000 		.4byte	0x577
 4497 073e 1A       		.uleb128 0x1a
 4498 073f 01       		.uleb128 0x1
 4499 0740 51       		.byte	0x51
 4500 0741 01       		.uleb128 0x1
 4501 0742 31       		.byte	0x31
 4502 0743 00       		.byte	0
 4503 0744 00       		.byte	0
 4504 0745 00       		.byte	0
 4505 0746 1D       		.uleb128 0x1d
 4506 0747 14030000 		.4byte	.LASF115
 4507 074b 02       		.byte	0x2
 4508 074c 8A       		.byte	0x8a
 4509 074d 00000000 		.4byte	.LFB68
 4510 0751 50000000 		.4byte	.LFE68-.LFB68
 4511 0755 01       		.uleb128 0x1
 4512 0756 9C       		.byte	0x9c
 4513 0757 F8070000 		.4byte	0x7f8
 4514 075b 19       		.uleb128 0x19
 4515 075c 10000000 		.4byte	.LVL32
 4516 0760 77050000 		.4byte	0x577
 4517 0764 75070000 		.4byte	0x775
 4518 0768 1A       		.uleb128 0x1a
 4519 0769 01       		.uleb128 0x1
 4520 076a 50       		.byte	0x50
 4521 076b 02       		.uleb128 0x2
 4522 076c 08       		.byte	0x8
 4523 076d 21       		.byte	0x21
 4524 076e 1A       		.uleb128 0x1a
 4525 076f 01       		.uleb128 0x1
 4526 0770 51       		.byte	0x51
 4527 0771 02       		.uleb128 0x2
 4528 0772 74       		.byte	0x74
 4529 0773 00       		.sleb128 0
 4530 0774 00       		.byte	0
 4531 0775 19       		.uleb128 0x19
 4532 0776 22000000 		.4byte	.LVL33
 4533 077a 77050000 		.4byte	0x577
 4534 077e 89070000 		.4byte	0x789
 4535 0782 1A       		.uleb128 0x1a
 4536 0783 01       		.uleb128 0x1
 4537 0784 51       		.byte	0x51
 4538 0785 02       		.uleb128 0x2
 4539 0786 74       		.byte	0x74
ARM GAS  C:\Users\Petro\AppData\Local\Temp\ccEiKVD5.s 			page 100


 4540 0787 00       		.sleb128 0
 4541 0788 00       		.byte	0
 4542 0789 19       		.uleb128 0x19
 4543 078a 2A000000 		.4byte	.LVL34
 4544 078e 77050000 		.4byte	0x577
 4545 0792 A2070000 		.4byte	0x7a2
 4546 0796 1A       		.uleb128 0x1a
 4547 0797 01       		.uleb128 0x1
 4548 0798 50       		.byte	0x50
 4549 0799 01       		.uleb128 0x1
 4550 079a 36       		.byte	0x36
 4551 079b 1A       		.uleb128 0x1a
 4552 079c 01       		.uleb128 0x1
 4553 079d 51       		.byte	0x51
 4554 079e 02       		.uleb128 0x2
 4555 079f 74       		.byte	0x74
 4556 07a0 00       		.sleb128 0
 4557 07a1 00       		.byte	0
 4558 07a2 19       		.uleb128 0x19
 4559 07a3 32000000 		.4byte	.LVL35
 4560 07a7 77050000 		.4byte	0x577
 4561 07ab BB070000 		.4byte	0x7bb
 4562 07af 1A       		.uleb128 0x1a
 4563 07b0 01       		.uleb128 0x1
 4564 07b1 50       		.byte	0x50
 4565 07b2 01       		.uleb128 0x1
 4566 07b3 43       		.byte	0x43
 4567 07b4 1A       		.uleb128 0x1a
 4568 07b5 01       		.uleb128 0x1
 4569 07b6 51       		.byte	0x51
 4570 07b7 02       		.uleb128 0x2
 4571 07b8 74       		.byte	0x74
 4572 07b9 00       		.sleb128 0
 4573 07ba 00       		.byte	0
 4574 07bb 19       		.uleb128 0x19
 4575 07bc 3A000000 		.4byte	.LVL36
 4576 07c0 77050000 		.4byte	0x577
 4577 07c4 D5070000 		.4byte	0x7d5
 4578 07c8 1A       		.uleb128 0x1a
 4579 07c9 01       		.uleb128 0x1
 4580 07ca 50       		.byte	0x50
 4581 07cb 02       		.uleb128 0x2
 4582 07cc 08       		.byte	0x8
 4583 07cd 20       		.byte	0x20
 4584 07ce 1A       		.uleb128 0x1a
 4585 07cf 01       		.uleb128 0x1
 4586 07d0 51       		.byte	0x51
 4587 07d1 02       		.uleb128 0x2
 4588 07d2 74       		.byte	0x74
 4589 07d3 00       		.sleb128 0
 4590 07d4 00       		.byte	0
 4591 07d5 19       		.uleb128 0x19
 4592 07d6 42000000 		.4byte	.LVL37
 4593 07da 77050000 		.4byte	0x577
 4594 07de EE070000 		.4byte	0x7ee
 4595 07e2 1A       		.uleb128 0x1a
 4596 07e3 01       		.uleb128 0x1
ARM GAS  C:\Users\Petro\AppData\Local\Temp\ccEiKVD5.s 			page 101


 4597 07e4 50       		.byte	0x50
 4598 07e5 01       		.uleb128 0x1
 4599 07e6 3C       		.byte	0x3c
 4600 07e7 1A       		.uleb128 0x1a
 4601 07e8 01       		.uleb128 0x1
 4602 07e9 51       		.byte	0x51
 4603 07ea 02       		.uleb128 0x2
 4604 07eb 74       		.byte	0x74
 4605 07ec 00       		.sleb128 0
 4606 07ed 00       		.byte	0
 4607 07ee 1C       		.uleb128 0x1c
 4608 07ef 46000000 		.4byte	.LVL38
 4609 07f3 08030000 		.4byte	0x308
 4610 07f7 00       		.byte	0
 4611 07f8 1D       		.uleb128 0x1d
 4612 07f9 4C010000 		.4byte	.LASF116
 4613 07fd 02       		.byte	0x2
 4614 07fe A2       		.byte	0xa2
 4615 07ff 00000000 		.4byte	.LFB70
 4616 0803 1C000000 		.4byte	.LFE70-.LFB70
 4617 0807 01       		.uleb128 0x1
 4618 0808 9C       		.byte	0x9c
 4619 0809 1B080000 		.4byte	0x81b
 4620 080d 1E       		.uleb128 0x1e
 4621 080e 6300     		.ascii	"c\000"
 4622 0810 02       		.byte	0x2
 4623 0811 A4       		.byte	0xa4
 4624 0812 2C000000 		.4byte	0x2c
 4625 0816 A0010000 		.4byte	.LLST9
 4626 081a 00       		.byte	0
 4627 081b 15       		.uleb128 0x15
 4628 081c 0F000000 		.4byte	.LASF117
 4629 0820 02       		.byte	0x2
 4630 0821 58       		.byte	0x58
 4631 0822 00000000 		.4byte	.LFB65
 4632 0826 88000000 		.4byte	.LFE65-.LFB65
 4633 082a 01       		.uleb128 0x1
 4634 082b 9C       		.byte	0x9c
 4635 082c 40090000 		.4byte	0x940
 4636 0830 17       		.uleb128 0x17
 4637 0831 81050000 		.4byte	.LASF112
 4638 0835 02       		.byte	0x2
 4639 0836 58       		.byte	0x58
 4640 0837 2C000000 		.4byte	0x2c
 4641 083b BF010000 		.4byte	.LLST10
 4642 083f 19       		.uleb128 0x19
 4643 0840 18000000 		.4byte	.LVL44
 4644 0844 FF1D0000 		.4byte	0x1dff
 4645 0848 52080000 		.4byte	0x852
 4646 084c 1A       		.uleb128 0x1a
 4647 084d 01       		.uleb128 0x1
 4648 084e 50       		.byte	0x50
 4649 084f 01       		.uleb128 0x1
 4650 0850 30       		.byte	0x30
 4651 0851 00       		.byte	0
 4652 0852 19       		.uleb128 0x19
 4653 0853 1E000000 		.4byte	.LVL45
ARM GAS  C:\Users\Petro\AppData\Local\Temp\ccEiKVD5.s 			page 102


 4654 0857 FF1D0000 		.4byte	0x1dff
 4655 085b 65080000 		.4byte	0x865
 4656 085f 1A       		.uleb128 0x1a
 4657 0860 01       		.uleb128 0x1
 4658 0861 50       		.byte	0x50
 4659 0862 01       		.uleb128 0x1
 4660 0863 31       		.byte	0x31
 4661 0864 00       		.byte	0
 4662 0865 19       		.uleb128 0x19
 4663 0866 26000000 		.4byte	.LVL46
 4664 086a 77050000 		.4byte	0x577
 4665 086e 7E080000 		.4byte	0x87e
 4666 0872 1A       		.uleb128 0x1a
 4667 0873 01       		.uleb128 0x1
 4668 0874 50       		.byte	0x50
 4669 0875 02       		.uleb128 0x2
 4670 0876 08       		.byte	0x8
 4671 0877 21       		.byte	0x21
 4672 0878 1A       		.uleb128 0x1a
 4673 0879 01       		.uleb128 0x1
 4674 087a 51       		.byte	0x51
 4675 087b 01       		.uleb128 0x1
 4676 087c 30       		.byte	0x30
 4677 087d 00       		.byte	0
 4678 087e 19       		.uleb128 0x19
 4679 087f 34000000 		.4byte	.LVL47
 4680 0883 77050000 		.4byte	0x577
 4681 0887 9A080000 		.4byte	0x89a
 4682 088b 1A       		.uleb128 0x1a
 4683 088c 01       		.uleb128 0x1
 4684 088d 50       		.byte	0x50
 4685 088e 05       		.uleb128 0x5
 4686 088f 74       		.byte	0x74
 4687 0890 00       		.sleb128 0
 4688 0891 09       		.byte	0x9
 4689 0892 80       		.byte	0x80
 4690 0893 21       		.byte	0x21
 4691 0894 1A       		.uleb128 0x1a
 4692 0895 01       		.uleb128 0x1
 4693 0896 51       		.byte	0x51
 4694 0897 01       		.uleb128 0x1
 4695 0898 30       		.byte	0x30
 4696 0899 00       		.byte	0
 4697 089a 19       		.uleb128 0x19
 4698 089b 3C000000 		.4byte	.LVL48
 4699 089f 77050000 		.4byte	0x577
 4700 08a3 B2080000 		.4byte	0x8b2
 4701 08a7 1A       		.uleb128 0x1a
 4702 08a8 01       		.uleb128 0x1
 4703 08a9 50       		.byte	0x50
 4704 08aa 01       		.uleb128 0x1
 4705 08ab 36       		.byte	0x36
 4706 08ac 1A       		.uleb128 0x1a
 4707 08ad 01       		.uleb128 0x1
 4708 08ae 51       		.byte	0x51
 4709 08af 01       		.uleb128 0x1
 4710 08b0 30       		.byte	0x30
ARM GAS  C:\Users\Petro\AppData\Local\Temp\ccEiKVD5.s 			page 103


 4711 08b1 00       		.byte	0
 4712 08b2 19       		.uleb128 0x19
 4713 08b3 44000000 		.4byte	.LVL49
 4714 08b7 77050000 		.4byte	0x577
 4715 08bb CA080000 		.4byte	0x8ca
 4716 08bf 1A       		.uleb128 0x1a
 4717 08c0 01       		.uleb128 0x1
 4718 08c1 50       		.byte	0x50
 4719 08c2 01       		.uleb128 0x1
 4720 08c3 43       		.byte	0x43
 4721 08c4 1A       		.uleb128 0x1a
 4722 08c5 01       		.uleb128 0x1
 4723 08c6 51       		.byte	0x51
 4724 08c7 01       		.uleb128 0x1
 4725 08c8 30       		.byte	0x30
 4726 08c9 00       		.byte	0
 4727 08ca 19       		.uleb128 0x19
 4728 08cb 4C000000 		.4byte	.LVL50
 4729 08cf 77050000 		.4byte	0x577
 4730 08d3 E3080000 		.4byte	0x8e3
 4731 08d7 1A       		.uleb128 0x1a
 4732 08d8 01       		.uleb128 0x1
 4733 08d9 50       		.byte	0x50
 4734 08da 02       		.uleb128 0x2
 4735 08db 08       		.byte	0x8
 4736 08dc 20       		.byte	0x20
 4737 08dd 1A       		.uleb128 0x1a
 4738 08de 01       		.uleb128 0x1
 4739 08df 51       		.byte	0x51
 4740 08e0 01       		.uleb128 0x1
 4741 08e1 30       		.byte	0x30
 4742 08e2 00       		.byte	0
 4743 08e3 19       		.uleb128 0x19
 4744 08e4 54000000 		.4byte	.LVL51
 4745 08e8 77050000 		.4byte	0x577
 4746 08ec FC080000 		.4byte	0x8fc
 4747 08f0 1A       		.uleb128 0x1a
 4748 08f1 01       		.uleb128 0x1
 4749 08f2 50       		.byte	0x50
 4750 08f3 02       		.uleb128 0x2
 4751 08f4 08       		.byte	0x8
 4752 08f5 40       		.byte	0x40
 4753 08f6 1A       		.uleb128 0x1a
 4754 08f7 01       		.uleb128 0x1
 4755 08f8 51       		.byte	0x51
 4756 08f9 01       		.uleb128 0x1
 4757 08fa 30       		.byte	0x30
 4758 08fb 00       		.byte	0
 4759 08fc 19       		.uleb128 0x19
 4760 08fd 5C000000 		.4byte	.LVL52
 4761 0901 77050000 		.4byte	0x577
 4762 0905 15090000 		.4byte	0x915
 4763 0909 1A       		.uleb128 0x1a
 4764 090a 01       		.uleb128 0x1
 4765 090b 50       		.byte	0x50
 4766 090c 02       		.uleb128 0x2
 4767 090d 09       		.byte	0x9
ARM GAS  C:\Users\Petro\AppData\Local\Temp\ccEiKVD5.s 			page 104


 4768 090e 80       		.byte	0x80
 4769 090f 1A       		.uleb128 0x1a
 4770 0910 01       		.uleb128 0x1
 4771 0911 51       		.byte	0x51
 4772 0912 01       		.uleb128 0x1
 4773 0913 30       		.byte	0x30
 4774 0914 00       		.byte	0
 4775 0915 19       		.uleb128 0x19
 4776 0916 64000000 		.4byte	.LVL53
 4777 091a 77050000 		.4byte	0x577
 4778 091e 2D090000 		.4byte	0x92d
 4779 0922 1A       		.uleb128 0x1a
 4780 0923 01       		.uleb128 0x1
 4781 0924 50       		.byte	0x50
 4782 0925 01       		.uleb128 0x1
 4783 0926 3C       		.byte	0x3c
 4784 0927 1A       		.uleb128 0x1a
 4785 0928 01       		.uleb128 0x1
 4786 0929 51       		.byte	0x51
 4787 092a 01       		.uleb128 0x1
 4788 092b 30       		.byte	0x30
 4789 092c 00       		.byte	0
 4790 092d 1C       		.uleb128 0x1c
 4791 092e 68000000 		.4byte	.LVL54
 4792 0932 F8070000 		.4byte	0x7f8
 4793 0936 1C       		.uleb128 0x1c
 4794 0937 6C000000 		.4byte	.LVL55
 4795 093b 08030000 		.4byte	0x308
 4796 093f 00       		.byte	0
 4797 0940 1D       		.uleb128 0x1d
 4798 0941 F3010000 		.4byte	.LASF118
 4799 0945 02       		.byte	0x2
 4800 0946 A9       		.byte	0xa9
 4801 0947 00000000 		.4byte	.LFB71
 4802 094b 18000000 		.4byte	.LFE71-.LFB71
 4803 094f 01       		.uleb128 0x1
 4804 0950 9C       		.byte	0x9c
 4805 0951 63090000 		.4byte	0x963
 4806 0955 1E       		.uleb128 0x1e
 4807 0956 6300     		.ascii	"c\000"
 4808 0958 02       		.byte	0x2
 4809 0959 AB       		.byte	0xab
 4810 095a 2C000000 		.4byte	0x2c
 4811 095e EC010000 		.4byte	.LLST11
 4812 0962 00       		.byte	0
 4813 0963 15       		.uleb128 0x15
 4814 0964 120D0000 		.4byte	.LASF119
 4815 0968 02       		.byte	0x2
 4816 0969 B0       		.byte	0xb0
 4817 096a 00000000 		.4byte	.LFB72
 4818 096e 14000000 		.4byte	.LFE72-.LFB72
 4819 0972 01       		.uleb128 0x1
 4820 0973 9C       		.byte	0x9c
 4821 0974 91090000 		.4byte	0x991
 4822 0978 17       		.uleb128 0x17
 4823 0979 AD0A0000 		.4byte	.LASF110
 4824 097d 02       		.byte	0x2
ARM GAS  C:\Users\Petro\AppData\Local\Temp\ccEiKVD5.s 			page 105


 4825 097e B0       		.byte	0xb0
 4826 097f 91090000 		.4byte	0x991
 4827 0983 0B020000 		.4byte	.LLST12
 4828 0987 1C       		.uleb128 0x1c
 4829 0988 12000000 		.4byte	.LVL62
 4830 098c 77050000 		.4byte	0x577
 4831 0990 00       		.byte	0
 4832 0991 02       		.uleb128 0x2
 4833 0992 01       		.byte	0x1
 4834 0993 02       		.byte	0x2
 4835 0994 55090000 		.4byte	.LASF120
 4836 0998 1F       		.uleb128 0x1f
 4837 0999 20030000 		.4byte	0x320
 4838 099d 00000000 		.4byte	.LFB73
 4839 09a1 28000000 		.4byte	.LFE73-.LFB73
 4840 09a5 01       		.uleb128 0x1
 4841 09a6 9C       		.byte	0x9c
 4842 09a7 000A0000 		.4byte	0xa00
 4843 09ab 22       		.uleb128 0x22
 4844 09ac 2C030000 		.4byte	0x32c
 4845 09b0 2C020000 		.4byte	.LLST13
 4846 09b4 22       		.uleb128 0x22
 4847 09b5 35030000 		.4byte	0x335
 4848 09b9 4D020000 		.4byte	.LLST14
 4849 09bd 23       		.uleb128 0x23
 4850 09be 3E030000 		.4byte	0x33e
 4851 09c2 23       		.uleb128 0x23
 4852 09c3 48030000 		.4byte	0x348
 4853 09c7 20       		.uleb128 0x20
 4854 09c8 0A000000 		.4byte	.LBB15
 4855 09cc 18000000 		.4byte	.LBE15-.LBB15
 4856 09d0 22       		.uleb128 0x22
 4857 09d1 35030000 		.4byte	0x335
 4858 09d5 6E020000 		.4byte	.LLST15
 4859 09d9 22       		.uleb128 0x22
 4860 09da 2C030000 		.4byte	0x32c
 4861 09de 8F020000 		.4byte	.LLST16
 4862 09e2 20       		.uleb128 0x20
 4863 09e3 0A000000 		.4byte	.LBB16
 4864 09e7 18000000 		.4byte	.LBE16-.LBB16
 4865 09eb 21       		.uleb128 0x21
 4866 09ec 3E030000 		.4byte	0x33e
 4867 09f0 B0020000 		.4byte	.LLST17
 4868 09f4 21       		.uleb128 0x21
 4869 09f5 48030000 		.4byte	0x348
 4870 09f9 C3020000 		.4byte	.LLST18
 4871 09fd 00       		.byte	0
 4872 09fe 00       		.byte	0
 4873 09ff 00       		.byte	0
 4874 0a00 1F       		.uleb128 0x1f
 4875 0a01 53030000 		.4byte	0x353
 4876 0a05 00000000 		.4byte	.LFB74
 4877 0a09 28000000 		.4byte	.LFE74-.LFB74
 4878 0a0d 01       		.uleb128 0x1
 4879 0a0e 9C       		.byte	0x9c
 4880 0a0f 680A0000 		.4byte	0xa68
 4881 0a13 22       		.uleb128 0x22
ARM GAS  C:\Users\Petro\AppData\Local\Temp\ccEiKVD5.s 			page 106


 4882 0a14 5F030000 		.4byte	0x35f
 4883 0a18 F2020000 		.4byte	.LLST19
 4884 0a1c 22       		.uleb128 0x22
 4885 0a1d 68030000 		.4byte	0x368
 4886 0a21 13030000 		.4byte	.LLST20
 4887 0a25 23       		.uleb128 0x23
 4888 0a26 71030000 		.4byte	0x371
 4889 0a2a 23       		.uleb128 0x23
 4890 0a2b 7B030000 		.4byte	0x37b
 4891 0a2f 20       		.uleb128 0x20
 4892 0a30 0A000000 		.4byte	.LBB19
 4893 0a34 18000000 		.4byte	.LBE19-.LBB19
 4894 0a38 22       		.uleb128 0x22
 4895 0a39 68030000 		.4byte	0x368
 4896 0a3d 34030000 		.4byte	.LLST21
 4897 0a41 22       		.uleb128 0x22
 4898 0a42 5F030000 		.4byte	0x35f
 4899 0a46 55030000 		.4byte	.LLST22
 4900 0a4a 20       		.uleb128 0x20
 4901 0a4b 0A000000 		.4byte	.LBB20
 4902 0a4f 18000000 		.4byte	.LBE20-.LBB20
 4903 0a53 21       		.uleb128 0x21
 4904 0a54 71030000 		.4byte	0x371
 4905 0a58 76030000 		.4byte	.LLST23
 4906 0a5c 21       		.uleb128 0x21
 4907 0a5d 7B030000 		.4byte	0x37b
 4908 0a61 89030000 		.4byte	.LLST24
 4909 0a65 00       		.byte	0
 4910 0a66 00       		.byte	0
 4911 0a67 00       		.byte	0
 4912 0a68 15       		.uleb128 0x15
 4913 0a69 EF090000 		.4byte	.LASF121
 4914 0a6d 02       		.byte	0x2
 4915 0a6e D2       		.byte	0xd2
 4916 0a6f 00000000 		.4byte	.LFB75
 4917 0a73 38000000 		.4byte	.LFE75-.LFB75
 4918 0a77 01       		.uleb128 0x1
 4919 0a78 9C       		.byte	0x9c
 4920 0a79 B40A0000 		.4byte	0xab4
 4921 0a7d 16       		.uleb128 0x16
 4922 0a7e 7800     		.ascii	"x\000"
 4923 0a80 02       		.byte	0x2
 4924 0a81 D2       		.byte	0xd2
 4925 0a82 9A000000 		.4byte	0x9a
 4926 0a86 B8030000 		.4byte	.LLST25
 4927 0a8a 16       		.uleb128 0x16
 4928 0a8b 7900     		.ascii	"y\000"
 4929 0a8d 02       		.byte	0x2
 4930 0a8e D2       		.byte	0xd2
 4931 0a8f 9A000000 		.4byte	0x9a
 4932 0a93 D9030000 		.4byte	.LLST26
 4933 0a97 1E       		.uleb128 0x1e
 4934 0a98 627900   		.ascii	"by\000"
 4935 0a9b 02       		.byte	0x2
 4936 0a9c D4       		.byte	0xd4
 4937 0a9d 2C000000 		.4byte	0x2c
 4938 0aa1 FA030000 		.4byte	.LLST27
ARM GAS  C:\Users\Petro\AppData\Local\Temp\ccEiKVD5.s 			page 107


 4939 0aa5 1E       		.uleb128 0x1e
 4940 0aa6 626900   		.ascii	"bi\000"
 4941 0aa9 02       		.byte	0x2
 4942 0aaa D4       		.byte	0xd4
 4943 0aab 2C000000 		.4byte	0x2c
 4944 0aaf 0D040000 		.4byte	.LLST28
 4945 0ab3 00       		.byte	0
 4946 0ab4 15       		.uleb128 0x15
 4947 0ab5 7F010000 		.4byte	.LASF122
 4948 0ab9 02       		.byte	0x2
 4949 0aba E2       		.byte	0xe2
 4950 0abb 00000000 		.4byte	.LFB76
 4951 0abf 14000000 		.4byte	.LFE76-.LFB76
 4952 0ac3 01       		.uleb128 0x1
 4953 0ac4 9C       		.byte	0x9c
 4954 0ac5 D70A0000 		.4byte	0xad7
 4955 0ac9 24       		.uleb128 0x24
 4956 0aca AD0A0000 		.4byte	.LASF110
 4957 0ace 02       		.byte	0x2
 4958 0acf E2       		.byte	0xe2
 4959 0ad0 91090000 		.4byte	0x991
 4960 0ad4 01       		.uleb128 0x1
 4961 0ad5 50       		.byte	0x50
 4962 0ad6 00       		.byte	0
 4963 0ad7 25       		.uleb128 0x25
 4964 0ad8 2A030000 		.4byte	.LASF123
 4965 0adc 02       		.byte	0x2
 4966 0add 6F01     		.2byte	0x16f
 4967 0adf 00000000 		.4byte	.LFB81
 4968 0ae3 30010000 		.4byte	.LFE81-.LFB81
 4969 0ae7 01       		.uleb128 0x1
 4970 0ae8 9C       		.byte	0x9c
 4971 0ae9 FE0B0000 		.4byte	0xbfe
 4972 0aed 26       		.uleb128 0x26
 4973 0aee 6300     		.ascii	"c\000"
 4974 0af0 02       		.byte	0x2
 4975 0af1 6F01     		.2byte	0x16f
 4976 0af3 4C000000 		.4byte	0x4c
 4977 0af7 20040000 		.4byte	.LLST29
 4978 0afb 26       		.uleb128 0x26
 4979 0afc 7800     		.ascii	"x\000"
 4980 0afe 02       		.byte	0x2
 4981 0aff 6F01     		.2byte	0x16f
 4982 0b01 2C000000 		.4byte	0x2c
 4983 0b05 5A040000 		.4byte	.LLST30
 4984 0b09 26       		.uleb128 0x26
 4985 0b0a 7900     		.ascii	"y\000"
 4986 0b0c 02       		.byte	0x2
 4987 0b0d 6F01     		.2byte	0x16f
 4988 0b0f 2C000000 		.4byte	0x2c
 4989 0b13 79040000 		.4byte	.LLST31
 4990 0b17 27       		.uleb128 0x27
 4991 0b18 1A000000 		.4byte	.LBB21
 4992 0b1c 8A000000 		.4byte	.LBE21-.LBB21
 4993 0b20 890B0000 		.4byte	0xb89
 4994 0b24 28       		.uleb128 0x28
 4995 0b25 5A0A0000 		.4byte	.LASF124
ARM GAS  C:\Users\Petro\AppData\Local\Temp\ccEiKVD5.s 			page 108


 4996 0b29 02       		.byte	0x2
 4997 0b2a 7301     		.2byte	0x173
 4998 0b2c 2C000000 		.4byte	0x2c
 4999 0b30 C0040000 		.4byte	.LLST32
 5000 0b34 28       		.uleb128 0x28
 5001 0b35 17040000 		.4byte	.LASF125
 5002 0b39 02       		.byte	0x2
 5003 0b3a 7401     		.2byte	0x174
 5004 0b3c 2C000000 		.4byte	0x2c
 5005 0b40 DF040000 		.4byte	.LLST33
 5006 0b44 20       		.uleb128 0x20
 5007 0b45 3E000000 		.4byte	.LBB22
 5008 0b49 5E000000 		.4byte	.LBE22-.LBB22
 5009 0b4d 29       		.uleb128 0x29
 5010 0b4e 636E7400 		.ascii	"cnt\000"
 5011 0b52 02       		.byte	0x2
 5012 0b53 7701     		.2byte	0x177
 5013 0b55 2C000000 		.4byte	0x2c
 5014 0b59 FE040000 		.4byte	.LLST34
 5015 0b5d 20       		.uleb128 0x20
 5016 0b5e 58000000 		.4byte	.LBB23
 5017 0b62 44000000 		.4byte	.LBE23-.LBB23
 5018 0b66 29       		.uleb128 0x29
 5019 0b67 6200     		.ascii	"b\000"
 5020 0b69 02       		.byte	0x2
 5021 0b6a 7A01     		.2byte	0x17a
 5022 0b6c 2C000000 		.4byte	0x2c
 5023 0b70 3F050000 		.4byte	.LLST35
 5024 0b74 1C       		.uleb128 0x1c
 5025 0b75 86000000 		.4byte	.LVL88
 5026 0b79 53030000 		.4byte	0x353
 5027 0b7d 1C       		.uleb128 0x1c
 5028 0b7e 8C000000 		.4byte	.LVL89
 5029 0b82 20030000 		.4byte	0x320
 5030 0b86 00       		.byte	0
 5031 0b87 00       		.byte	0
 5032 0b88 00       		.byte	0
 5033 0b89 20       		.uleb128 0x20
 5034 0b8a A4000000 		.4byte	.LBB24
 5035 0b8e 84000000 		.4byte	.LBE24-.LBB24
 5036 0b92 28       		.uleb128 0x28
 5037 0b93 5A0A0000 		.4byte	.LASF124
 5038 0b97 02       		.byte	0x2
 5039 0b98 8B01     		.2byte	0x18b
 5040 0b9a 2C000000 		.4byte	0x2c
 5041 0b9e 52050000 		.4byte	.LLST36
 5042 0ba2 28       		.uleb128 0x28
 5043 0ba3 32060000 		.4byte	.LASF126
 5044 0ba7 02       		.byte	0x2
 5045 0ba8 8C01     		.2byte	0x18c
 5046 0baa 2C000000 		.4byte	0x2c
 5047 0bae 65050000 		.4byte	.LLST37
 5048 0bb2 28       		.uleb128 0x28
 5049 0bb3 070C0000 		.4byte	.LASF127
 5050 0bb7 02       		.byte	0x2
 5051 0bb8 8D01     		.2byte	0x18d
 5052 0bba 2C000000 		.4byte	0x2c
ARM GAS  C:\Users\Petro\AppData\Local\Temp\ccEiKVD5.s 			page 109


 5053 0bbe 84050000 		.4byte	.LLST38
 5054 0bc2 29       		.uleb128 0x29
 5055 0bc3 637800   		.ascii	"cx\000"
 5056 0bc6 02       		.byte	0x2
 5057 0bc7 8E01     		.2byte	0x18e
 5058 0bc9 2C000000 		.4byte	0x2c
 5059 0bcd C7050000 		.4byte	.LLST39
 5060 0bd1 20       		.uleb128 0x20
 5061 0bd2 CE000000 		.4byte	.LBB25
 5062 0bd6 4E000000 		.4byte	.LBE25-.LBB25
 5063 0bda 29       		.uleb128 0x29
 5064 0bdb 637900   		.ascii	"cy\000"
 5065 0bde 02       		.byte	0x2
 5066 0bdf 9101     		.2byte	0x191
 5067 0be1 2C000000 		.4byte	0x2c
 5068 0be5 F2050000 		.4byte	.LLST40
 5069 0be9 1C       		.uleb128 0x1c
 5070 0bea FA000000 		.4byte	.LVL101
 5071 0bee 53030000 		.4byte	0x353
 5072 0bf2 1C       		.uleb128 0x1c
 5073 0bf3 00010000 		.4byte	.LVL102
 5074 0bf7 20030000 		.4byte	0x320
 5075 0bfb 00       		.byte	0
 5076 0bfc 00       		.byte	0
 5077 0bfd 00       		.byte	0
 5078 0bfe 15       		.uleb128 0x15
 5079 0bff 28010000 		.4byte	.LASF128
 5080 0c03 02       		.byte	0x2
 5081 0c04 EA       		.byte	0xea
 5082 0c05 00000000 		.4byte	.LFB77
 5083 0c09 5C000000 		.4byte	.LFE77-.LFB77
 5084 0c0d 01       		.uleb128 0x1
 5085 0c0e 9C       		.byte	0x9c
 5086 0c0f 890C0000 		.4byte	0xc89
 5087 0c13 16       		.uleb128 0x16
 5088 0c14 737400   		.ascii	"st\000"
 5089 0c17 02       		.byte	0x2
 5090 0c18 EA       		.byte	0xea
 5091 0c19 D2000000 		.4byte	0xd2
 5092 0c1d 1C060000 		.4byte	.LLST41
 5093 0c21 16       		.uleb128 0x16
 5094 0c22 7800     		.ascii	"x\000"
 5095 0c24 02       		.byte	0x2
 5096 0c25 EA       		.byte	0xea
 5097 0c26 2C000000 		.4byte	0x2c
 5098 0c2a 6C060000 		.4byte	.LLST42
 5099 0c2e 16       		.uleb128 0x16
 5100 0c2f 7900     		.ascii	"y\000"
 5101 0c31 02       		.byte	0x2
 5102 0c32 EA       		.byte	0xea
 5103 0c33 2C000000 		.4byte	0x2c
 5104 0c37 AE060000 		.4byte	.LLST43
 5105 0c3b 0F       		.uleb128 0xf
 5106 0c3c 636800   		.ascii	"ch\000"
 5107 0c3f 02       		.byte	0x2
 5108 0c40 EC       		.byte	0xec
 5109 0c41 4C000000 		.4byte	0x4c
ARM GAS  C:\Users\Petro\AppData\Local\Temp\ccEiKVD5.s 			page 110


 5110 0c45 1E       		.uleb128 0x1e
 5111 0c46 73746C00 		.ascii	"stl\000"
 5112 0c4a 02       		.byte	0x2
 5113 0c4b ED       		.byte	0xed
 5114 0c4c 2C000000 		.4byte	0x2c
 5115 0c50 CD060000 		.4byte	.LLST44
 5116 0c54 1E       		.uleb128 0x1e
 5117 0c55 636E7400 		.ascii	"cnt\000"
 5118 0c59 02       		.byte	0x2
 5119 0c5a F5       		.byte	0xf5
 5120 0c5b 2C000000 		.4byte	0x2c
 5121 0c5f EB060000 		.4byte	.LLST45
 5122 0c63 19       		.uleb128 0x19
 5123 0c64 0C000000 		.4byte	.LVL111
 5124 0c68 0A1E0000 		.4byte	0x1e0a
 5125 0c6c 770C0000 		.4byte	0xc77
 5126 0c70 1A       		.uleb128 0x1a
 5127 0c71 01       		.uleb128 0x1
 5128 0c72 50       		.byte	0x50
 5129 0c73 02       		.uleb128 0x2
 5130 0c74 77       		.byte	0x77
 5131 0c75 00       		.sleb128 0
 5132 0c76 00       		.byte	0
 5133 0c77 1B       		.uleb128 0x1b
 5134 0c78 4A000000 		.4byte	.LVL119
 5135 0c7c D70A0000 		.4byte	0xad7
 5136 0c80 1A       		.uleb128 0x1a
 5137 0c81 01       		.uleb128 0x1
 5138 0c82 52       		.byte	0x52
 5139 0c83 03       		.uleb128 0x3
 5140 0c84 91       		.byte	0x91
 5141 0c85 64       		.sleb128 -28
 5142 0c86 06       		.byte	0x6
 5143 0c87 00       		.byte	0
 5144 0c88 00       		.byte	0
 5145 0c89 15       		.uleb128 0x15
 5146 0c8a 17000000 		.4byte	.LASF129
 5147 0c8e 02       		.byte	0x2
 5148 0c8f FA       		.byte	0xfa
 5149 0c90 00000000 		.4byte	.LFB78
 5150 0c94 08000000 		.4byte	.LFE78-.LFB78
 5151 0c98 01       		.uleb128 0x1
 5152 0c99 9C       		.byte	0x9c
 5153 0c9a E60C0000 		.4byte	0xce6
 5154 0c9e 16       		.uleb128 0x16
 5155 0c9f 737400   		.ascii	"st\000"
 5156 0ca2 02       		.byte	0x2
 5157 0ca3 FA       		.byte	0xfa
 5158 0ca4 D2000000 		.4byte	0xd2
 5159 0ca8 0A070000 		.4byte	.LLST46
 5160 0cac 16       		.uleb128 0x16
 5161 0cad 7800     		.ascii	"x\000"
 5162 0caf 02       		.byte	0x2
 5163 0cb0 FA       		.byte	0xfa
 5164 0cb1 2C000000 		.4byte	0x2c
 5165 0cb5 2B070000 		.4byte	.LLST47
 5166 0cb9 16       		.uleb128 0x16
ARM GAS  C:\Users\Petro\AppData\Local\Temp\ccEiKVD5.s 			page 111


 5167 0cba 7900     		.ascii	"y\000"
 5168 0cbc 02       		.byte	0x2
 5169 0cbd FA       		.byte	0xfa
 5170 0cbe 2C000000 		.4byte	0x2c
 5171 0cc2 4C070000 		.4byte	.LLST48
 5172 0cc6 1B       		.uleb128 0x1b
 5173 0cc7 06000000 		.4byte	.LVL125
 5174 0ccb FE0B0000 		.4byte	0xbfe
 5175 0ccf 1A       		.uleb128 0x1a
 5176 0cd0 01       		.uleb128 0x1
 5177 0cd1 50       		.byte	0x50
 5178 0cd2 03       		.uleb128 0x3
 5179 0cd3 F3       		.byte	0xf3
 5180 0cd4 01       		.uleb128 0x1
 5181 0cd5 50       		.byte	0x50
 5182 0cd6 1A       		.uleb128 0x1a
 5183 0cd7 01       		.uleb128 0x1
 5184 0cd8 51       		.byte	0x51
 5185 0cd9 03       		.uleb128 0x3
 5186 0cda F3       		.byte	0xf3
 5187 0cdb 01       		.uleb128 0x1
 5188 0cdc 51       		.byte	0x51
 5189 0cdd 1A       		.uleb128 0x1a
 5190 0cde 01       		.uleb128 0x1
 5191 0cdf 52       		.byte	0x52
 5192 0ce0 03       		.uleb128 0x3
 5193 0ce1 F3       		.byte	0xf3
 5194 0ce2 01       		.uleb128 0x1
 5195 0ce3 52       		.byte	0x52
 5196 0ce4 00       		.byte	0
 5197 0ce5 00       		.byte	0
 5198 0ce6 2A       		.uleb128 0x2a
 5199 0ce7 36030000 		.4byte	.LASF130
 5200 0ceb 02       		.byte	0x2
 5201 0cec 0201     		.2byte	0x102
 5202 0cee 00000000 		.4byte	.LFB79
 5203 0cf2 C8000000 		.4byte	.LFE79-.LFB79
 5204 0cf6 01       		.uleb128 0x1
 5205 0cf7 9C       		.byte	0x9c
 5206 0cf8 E30D0000 		.4byte	0xde3
 5207 0cfc 26       		.uleb128 0x26
 5208 0cfd 6E756D00 		.ascii	"num\000"
 5209 0d01 02       		.byte	0x2
 5210 0d02 0201     		.2byte	0x102
 5211 0d04 6C000000 		.4byte	0x6c
 5212 0d08 6D070000 		.4byte	.LLST49
 5213 0d0c 26       		.uleb128 0x26
 5214 0d0d 7800     		.ascii	"x\000"
 5215 0d0f 02       		.byte	0x2
 5216 0d10 0201     		.2byte	0x102
 5217 0d12 2C000000 		.4byte	0x2c
 5218 0d16 C5070000 		.4byte	.LLST50
 5219 0d1a 26       		.uleb128 0x26
 5220 0d1b 7900     		.ascii	"y\000"
 5221 0d1d 02       		.byte	0x2
 5222 0d1e 0201     		.2byte	0x102
 5223 0d20 2C000000 		.4byte	0x2c
ARM GAS  C:\Users\Petro\AppData\Local\Temp\ccEiKVD5.s 			page 112


 5224 0d24 E5070000 		.4byte	.LLST51
 5225 0d28 2B       		.uleb128 0x2b
 5226 0d29 870A0000 		.4byte	.LASF131
 5227 0d2d 02       		.byte	0x2
 5228 0d2e 0201     		.2byte	0x102
 5229 0d30 2C000000 		.4byte	0x2c
 5230 0d34 05080000 		.4byte	.LLST52
 5231 0d38 2B       		.uleb128 0x2b
 5232 0d39 98030000 		.4byte	.LASF132
 5233 0d3d 02       		.byte	0x2
 5234 0d3e 0201     		.2byte	0x102
 5235 0d40 BD000000 		.4byte	0xbd
 5236 0d44 49080000 		.4byte	.LLST53
 5237 0d48 2C       		.uleb128 0x2c
 5238 0d49 62756600 		.ascii	"buf\000"
 5239 0d4d 02       		.byte	0x2
 5240 0d4e 0401     		.2byte	0x104
 5241 0d50 D8000000 		.4byte	0xd8
 5242 0d54 03       		.uleb128 0x3
 5243 0d55 91       		.byte	0x91
 5244 0d56 B07F     		.sleb128 -80
 5245 0d58 2C       		.uleb128 0x2c
 5246 0d59 737400   		.ascii	"st\000"
 5247 0d5c 02       		.byte	0x2
 5248 0d5d 0501     		.2byte	0x105
 5249 0d5f E30D0000 		.4byte	0xde3
 5250 0d63 02       		.uleb128 0x2
 5251 0d64 91       		.byte	0x91
 5252 0d65 4C       		.sleb128 -52
 5253 0d66 29       		.uleb128 0x29
 5254 0d67 6E656700 		.ascii	"neg\000"
 5255 0d6b 02       		.byte	0x2
 5256 0d6c 0601     		.2byte	0x106
 5257 0d6e 91090000 		.4byte	0x991
 5258 0d72 75080000 		.4byte	.LLST54
 5259 0d76 29       		.uleb128 0x29
 5260 0d77 6300     		.ascii	"c\000"
 5261 0d79 02       		.byte	0x2
 5262 0d7a 0701     		.2byte	0x107
 5263 0d7c 2C000000 		.4byte	0x2c
 5264 0d80 A0080000 		.4byte	.LLST55
 5265 0d84 29       		.uleb128 0x29
 5266 0d85 6600     		.ascii	"f\000"
 5267 0d87 02       		.byte	0x2
 5268 0d88 0701     		.2byte	0x107
 5269 0d8a 2C000000 		.4byte	0x2c
 5270 0d8e D6080000 		.4byte	.LLST56
 5271 0d92 2D       		.uleb128 0x2d
 5272 0d93 00000000 		.4byte	.Ldebug_ranges0+0
 5273 0d97 C20D0000 		.4byte	0xdc2
 5274 0d9b 29       		.uleb128 0x29
 5275 0d9c 6900     		.ascii	"i\000"
 5276 0d9e 02       		.byte	0x2
 5277 0d9f 3701     		.2byte	0x137
 5278 0da1 2C000000 		.4byte	0x2c
 5279 0da5 00090000 		.4byte	.LLST57
 5280 0da9 20       		.uleb128 0x20
ARM GAS  C:\Users\Petro\AppData\Local\Temp\ccEiKVD5.s 			page 113


 5281 0daa 7E000000 		.4byte	.LBB27
 5282 0dae 1C000000 		.4byte	.LBE27-.LBB27
 5283 0db2 29       		.uleb128 0x29
 5284 0db3 6900     		.ascii	"i\000"
 5285 0db5 02       		.byte	0x2
 5286 0db6 2F01     		.2byte	0x12f
 5287 0db8 2C000000 		.4byte	0x2c
 5288 0dbc 1F090000 		.4byte	.LLST58
 5289 0dc0 00       		.byte	0
 5290 0dc1 00       		.byte	0
 5291 0dc2 1B       		.uleb128 0x1b
 5292 0dc3 C4000000 		.4byte	.LVL153
 5293 0dc7 FE0B0000 		.4byte	0xbfe
 5294 0dcb 1A       		.uleb128 0x1a
 5295 0dcc 01       		.uleb128 0x1
 5296 0dcd 50       		.byte	0x50
 5297 0dce 02       		.uleb128 0x2
 5298 0dcf 91       		.byte	0x91
 5299 0dd0 4C       		.sleb128 -52
 5300 0dd1 1A       		.uleb128 0x1a
 5301 0dd2 01       		.uleb128 0x1
 5302 0dd3 51       		.byte	0x51
 5303 0dd4 04       		.uleb128 0x4
 5304 0dd5 91       		.byte	0x91
 5305 0dd6 A87F     		.sleb128 -88
 5306 0dd8 06       		.byte	0x6
 5307 0dd9 1A       		.uleb128 0x1a
 5308 0dda 01       		.uleb128 0x1
 5309 0ddb 52       		.byte	0x52
 5310 0ddc 04       		.uleb128 0x4
 5311 0ddd 91       		.byte	0x91
 5312 0dde AC7F     		.sleb128 -84
 5313 0de0 06       		.byte	0x6
 5314 0de1 00       		.byte	0
 5315 0de2 00       		.byte	0
 5316 0de3 07       		.uleb128 0x7
 5317 0de4 BD000000 		.4byte	0xbd
 5318 0de8 F30D0000 		.4byte	0xdf3
 5319 0dec 08       		.uleb128 0x8
 5320 0ded CB000000 		.4byte	0xcb
 5321 0df1 1A       		.byte	0x1a
 5322 0df2 00       		.byte	0
 5323 0df3 2A       		.uleb128 0x2a
 5324 0df4 0A030000 		.4byte	.LASF133
 5325 0df8 02       		.byte	0x2
 5326 0df9 4301     		.2byte	0x143
 5327 0dfb 00000000 		.4byte	.LFB80
 5328 0dff 94000000 		.4byte	.LFE80-.LFB80
 5329 0e03 01       		.uleb128 0x1
 5330 0e04 9C       		.byte	0x9c
 5331 0e05 2C0F0000 		.4byte	0xf2c
 5332 0e09 26       		.uleb128 0x26
 5333 0e0a 6E756D00 		.ascii	"num\000"
 5334 0e0e 02       		.byte	0x2
 5335 0e0f 4301     		.2byte	0x143
 5336 0e11 25000000 		.4byte	0x25
 5337 0e15 32090000 		.4byte	.LLST59
ARM GAS  C:\Users\Petro\AppData\Local\Temp\ccEiKVD5.s 			page 114


 5338 0e19 26       		.uleb128 0x26
 5339 0e1a 64656300 		.ascii	"dec\000"
 5340 0e1e 02       		.byte	0x2
 5341 0e1f 4301     		.2byte	0x143
 5342 0e21 A5000000 		.4byte	0xa5
 5343 0e25 5A090000 		.4byte	.LLST60
 5344 0e29 26       		.uleb128 0x26
 5345 0e2a 7800     		.ascii	"x\000"
 5346 0e2c 02       		.byte	0x2
 5347 0e2d 4301     		.2byte	0x143
 5348 0e2f 2C000000 		.4byte	0x2c
 5349 0e33 7B090000 		.4byte	.LLST61
 5350 0e37 26       		.uleb128 0x26
 5351 0e38 7900     		.ascii	"y\000"
 5352 0e3a 02       		.byte	0x2
 5353 0e3b 4301     		.2byte	0x143
 5354 0e3d 2C000000 		.4byte	0x2c
 5355 0e41 B3090000 		.4byte	.LLST62
 5356 0e45 2B       		.uleb128 0x2b
 5357 0e46 130C0000 		.4byte	.LASF134
 5358 0e4a 02       		.byte	0x2
 5359 0e4b 4301     		.2byte	0x143
 5360 0e4d BD000000 		.4byte	0xbd
 5361 0e51 EB090000 		.4byte	.LLST63
 5362 0e55 2B       		.uleb128 0x2b
 5363 0e56 870A0000 		.4byte	.LASF131
 5364 0e5a 02       		.byte	0x2
 5365 0e5b 4301     		.2byte	0x143
 5366 0e5d 2C000000 		.4byte	0x2c
 5367 0e61 230A0000 		.4byte	.LLST64
 5368 0e65 2B       		.uleb128 0x2b
 5369 0e66 98030000 		.4byte	.LASF132
 5370 0e6a 02       		.byte	0x2
 5371 0e6b 4301     		.2byte	0x143
 5372 0e6d BD000000 		.4byte	0xbd
 5373 0e71 5B0A0000 		.4byte	.LLST65
 5374 0e75 2C       		.uleb128 0x2c
 5375 0e76 737400   		.ascii	"st\000"
 5376 0e79 02       		.byte	0x2
 5377 0e7a 4501     		.2byte	0x145
 5378 0e7c E30D0000 		.4byte	0xde3
 5379 0e80 02       		.uleb128 0x2
 5380 0e81 91       		.byte	0x91
 5381 0e82 4C       		.sleb128 -52
 5382 0e83 28       		.uleb128 0x28
 5383 0e84 9C040000 		.4byte	.LASF135
 5384 0e88 02       		.byte	0x2
 5385 0e89 4601     		.2byte	0x146
 5386 0e8b 8F000000 		.4byte	0x8f
 5387 0e8f AB0A0000 		.4byte	.LLST66
 5388 0e93 29       		.uleb128 0x29
 5389 0e94 6E656700 		.ascii	"neg\000"
 5390 0e98 02       		.byte	0x2
 5391 0e99 4701     		.2byte	0x147
 5392 0e9b 91090000 		.4byte	0x991
 5393 0e9f CB0A0000 		.4byte	.LLST67
 5394 0ea3 27       		.uleb128 0x27
ARM GAS  C:\Users\Petro\AppData\Local\Temp\ccEiKVD5.s 			page 115


 5395 0ea4 38000000 		.4byte	.LBB30
 5396 0ea8 14000000 		.4byte	.LBE30-.LBB30
 5397 0eac BF0E0000 		.4byte	0xebf
 5398 0eb0 29       		.uleb128 0x29
 5399 0eb1 6900     		.ascii	"i\000"
 5400 0eb3 02       		.byte	0x2
 5401 0eb4 5101     		.2byte	0x151
 5402 0eb6 2C000000 		.4byte	0x2c
 5403 0eba 070B0000 		.4byte	.LLST68
 5404 0ebe 00       		.byte	0
 5405 0ebf 2D       		.uleb128 0x2d
 5406 0ec0 20000000 		.4byte	.Ldebug_ranges0+0x20
 5407 0ec4 D70E0000 		.4byte	0xed7
 5408 0ec8 29       		.uleb128 0x29
 5409 0ec9 6900     		.ascii	"i\000"
 5410 0ecb 02       		.byte	0x2
 5411 0ecc 5D01     		.2byte	0x15d
 5412 0ece 2C000000 		.4byte	0x2c
 5413 0ed2 1A0B0000 		.4byte	.LLST69
 5414 0ed6 00       		.byte	0
 5415 0ed7 27       		.uleb128 0x27
 5416 0ed8 84000000 		.4byte	.LBB33
 5417 0edc 10000000 		.4byte	.LBE33-.LBB33
 5418 0ee0 F10E0000 		.4byte	0xef1
 5419 0ee4 2C       		.uleb128 0x2c
 5420 0ee5 6900     		.ascii	"i\000"
 5421 0ee7 02       		.byte	0x2
 5422 0ee8 6501     		.2byte	0x165
 5423 0eea 2C000000 		.4byte	0x2c
 5424 0eee 01       		.uleb128 0x1
 5425 0eef 50       		.byte	0x50
 5426 0ef0 00       		.byte	0
 5427 0ef1 19       		.uleb128 0x19
 5428 0ef2 2A000000 		.4byte	.LVL163
 5429 0ef6 C2040000 		.4byte	0x4c2
 5430 0efa 0D0F0000 		.4byte	0xf0d
 5431 0efe 1A       		.uleb128 0x1a
 5432 0eff 01       		.uleb128 0x1
 5433 0f00 50       		.byte	0x50
 5434 0f01 02       		.uleb128 0x2
 5435 0f02 74       		.byte	0x74
 5436 0f03 00       		.sleb128 0
 5437 0f04 1A       		.uleb128 0x1a
 5438 0f05 02       		.uleb128 0x2
 5439 0f06 7D       		.byte	0x7d
 5440 0f07 00       		.sleb128 0
 5441 0f08 03       		.uleb128 0x3
 5442 0f09 91       		.byte	0x91
 5443 0f0a 08       		.sleb128 8
 5444 0f0b 06       		.byte	0x6
 5445 0f0c 00       		.byte	0
 5446 0f0d 1B       		.uleb128 0x1b
 5447 0f0e 7C000000 		.4byte	.LVL173
 5448 0f12 FE0B0000 		.4byte	0xbfe
 5449 0f16 1A       		.uleb128 0x1a
 5450 0f17 01       		.uleb128 0x1
 5451 0f18 50       		.byte	0x50
ARM GAS  C:\Users\Petro\AppData\Local\Temp\ccEiKVD5.s 			page 116


 5452 0f19 02       		.uleb128 0x2
 5453 0f1a 74       		.byte	0x74
 5454 0f1b 00       		.sleb128 0
 5455 0f1c 1A       		.uleb128 0x1a
 5456 0f1d 01       		.uleb128 0x1
 5457 0f1e 51       		.byte	0x51
 5458 0f1f 03       		.uleb128 0x3
 5459 0f20 91       		.byte	0x91
 5460 0f21 40       		.sleb128 -64
 5461 0f22 06       		.byte	0x6
 5462 0f23 1A       		.uleb128 0x1a
 5463 0f24 01       		.uleb128 0x1
 5464 0f25 52       		.byte	0x52
 5465 0f26 03       		.uleb128 0x3
 5466 0f27 91       		.byte	0x91
 5467 0f28 44       		.sleb128 -60
 5468 0f29 06       		.byte	0x6
 5469 0f2a 00       		.byte	0
 5470 0f2b 00       		.byte	0
 5471 0f2c 25       		.uleb128 0x25
 5472 0f2d 660C0000 		.4byte	.LASF136
 5473 0f31 02       		.byte	0x2
 5474 0f32 AA01     		.2byte	0x1aa
 5475 0f34 00000000 		.4byte	.LFB82
 5476 0f38 20000000 		.4byte	.LFE82-.LFB82
 5477 0f3c 01       		.uleb128 0x1
 5478 0f3d 9C       		.byte	0x9c
 5479 0f3e 510F0000 		.4byte	0xf51
 5480 0f42 2E       		.uleb128 0x2e
 5481 0f43 E40B0000 		.4byte	.LASF92
 5482 0f47 02       		.byte	0x2
 5483 0f48 AA01     		.2byte	0x1aa
 5484 0f4a F7020000 		.4byte	0x2f7
 5485 0f4e 01       		.uleb128 0x1
 5486 0f4f 50       		.byte	0x50
 5487 0f50 00       		.byte	0
 5488 0f51 1F       		.uleb128 0x1f
 5489 0f52 86030000 		.4byte	0x386
 5490 0f56 00000000 		.4byte	.LFB83
 5491 0f5a 38000000 		.4byte	.LFE83-.LFB83
 5492 0f5e 01       		.uleb128 0x1
 5493 0f5f 9C       		.byte	0x9c
 5494 0f60 D00F0000 		.4byte	0xfd0
 5495 0f64 22       		.uleb128 0x22
 5496 0f65 93030000 		.4byte	0x393
 5497 0f69 440B0000 		.4byte	.LLST70
 5498 0f6d 22       		.uleb128 0x22
 5499 0f6e 9D030000 		.4byte	0x39d
 5500 0f72 650B0000 		.4byte	.LLST71
 5501 0f76 2F       		.uleb128 0x2f
 5502 0f77 A7030000 		.4byte	0x3a7
 5503 0f7b 01       		.uleb128 0x1
 5504 0f7c 52       		.byte	0x52
 5505 0f7d 23       		.uleb128 0x23
 5506 0f7e B1030000 		.4byte	0x3b1
 5507 0f82 23       		.uleb128 0x23
 5508 0f83 BC030000 		.4byte	0x3bc
ARM GAS  C:\Users\Petro\AppData\Local\Temp\ccEiKVD5.s 			page 117


 5509 0f87 20       		.uleb128 0x20
 5510 0f88 10000000 		.4byte	.LBB38
 5511 0f8c 20000000 		.4byte	.LBE38-.LBB38
 5512 0f90 30       		.uleb128 0x30
 5513 0f91 A7030000 		.4byte	0x3a7
 5514 0f95 30       		.uleb128 0x30
 5515 0f96 9D030000 		.4byte	0x39d
 5516 0f9a 30       		.uleb128 0x30
 5517 0f9b 93030000 		.4byte	0x393
 5518 0f9f 20       		.uleb128 0x20
 5519 0fa0 10000000 		.4byte	.LBB39
 5520 0fa4 20000000 		.4byte	.LBE39-.LBB39
 5521 0fa8 21       		.uleb128 0x21
 5522 0fa9 B1030000 		.4byte	0x3b1
 5523 0fad 860B0000 		.4byte	.LLST72
 5524 0fb1 21       		.uleb128 0x21
 5525 0fb2 BC030000 		.4byte	0x3bc
 5526 0fb6 A50B0000 		.4byte	.LLST73
 5527 0fba 20       		.uleb128 0x20
 5528 0fbb 10000000 		.4byte	.LBB40
 5529 0fbf 20000000 		.4byte	.LBE40-.LBB40
 5530 0fc3 21       		.uleb128 0x21
 5531 0fc4 C8030000 		.4byte	0x3c8
 5532 0fc8 BD0B0000 		.4byte	.LLST74
 5533 0fcc 00       		.byte	0
 5534 0fcd 00       		.byte	0
 5535 0fce 00       		.byte	0
 5536 0fcf 00       		.byte	0
 5537 0fd0 1F       		.uleb128 0x1f
 5538 0fd1 D5030000 		.4byte	0x3d5
 5539 0fd5 00000000 		.4byte	.LFB84
 5540 0fd9 38000000 		.4byte	.LFE84-.LFB84
 5541 0fdd 01       		.uleb128 0x1
 5542 0fde 9C       		.byte	0x9c
 5543 0fdf 4F100000 		.4byte	0x104f
 5544 0fe3 22       		.uleb128 0x22
 5545 0fe4 E2030000 		.4byte	0x3e2
 5546 0fe8 D00B0000 		.4byte	.LLST75
 5547 0fec 22       		.uleb128 0x22
 5548 0fed EC030000 		.4byte	0x3ec
 5549 0ff1 F10B0000 		.4byte	.LLST76
 5550 0ff5 2F       		.uleb128 0x2f
 5551 0ff6 F6030000 		.4byte	0x3f6
 5552 0ffa 01       		.uleb128 0x1
 5553 0ffb 52       		.byte	0x52
 5554 0ffc 23       		.uleb128 0x23
 5555 0ffd 00040000 		.4byte	0x400
 5556 1001 23       		.uleb128 0x23
 5557 1002 0B040000 		.4byte	0x40b
 5558 1006 20       		.uleb128 0x20
 5559 1007 10000000 		.4byte	.LBB45
 5560 100b 22000000 		.4byte	.LBE45-.LBB45
 5561 100f 30       		.uleb128 0x30
 5562 1010 F6030000 		.4byte	0x3f6
 5563 1014 30       		.uleb128 0x30
 5564 1015 EC030000 		.4byte	0x3ec
 5565 1019 30       		.uleb128 0x30
ARM GAS  C:\Users\Petro\AppData\Local\Temp\ccEiKVD5.s 			page 118


 5566 101a E2030000 		.4byte	0x3e2
 5567 101e 20       		.uleb128 0x20
 5568 101f 10000000 		.4byte	.LBB46
 5569 1023 22000000 		.4byte	.LBE46-.LBB46
 5570 1027 21       		.uleb128 0x21
 5571 1028 00040000 		.4byte	0x400
 5572 102c 120C0000 		.4byte	.LLST77
 5573 1030 21       		.uleb128 0x21
 5574 1031 0B040000 		.4byte	0x40b
 5575 1035 310C0000 		.4byte	.LLST78
 5576 1039 20       		.uleb128 0x20
 5577 103a 10000000 		.4byte	.LBB47
 5578 103e 22000000 		.4byte	.LBE47-.LBB47
 5579 1042 21       		.uleb128 0x21
 5580 1043 17040000 		.4byte	0x417
 5581 1047 490C0000 		.4byte	.LLST79
 5582 104b 00       		.byte	0
 5583 104c 00       		.byte	0
 5584 104d 00       		.byte	0
 5585 104e 00       		.byte	0
 5586 104f 1F       		.uleb128 0x1f
 5587 1050 24040000 		.4byte	0x424
 5588 1054 00000000 		.4byte	.LFB85
 5589 1058 26000000 		.4byte	.LFE85-.LFB85
 5590 105c 01       		.uleb128 0x1
 5591 105d 9C       		.byte	0x9c
 5592 105e E1100000 		.4byte	0x10e1
 5593 1062 22       		.uleb128 0x22
 5594 1063 31040000 		.4byte	0x431
 5595 1067 5C0C0000 		.4byte	.LLST80
 5596 106b 22       		.uleb128 0x22
 5597 106c 3B040000 		.4byte	0x43b
 5598 1070 880C0000 		.4byte	.LLST81
 5599 1074 22       		.uleb128 0x22
 5600 1075 45040000 		.4byte	0x445
 5601 1079 B40C0000 		.4byte	.LLST82
 5602 107d 23       		.uleb128 0x23
 5603 107e 4F040000 		.4byte	0x44f
 5604 1082 23       		.uleb128 0x23
 5605 1083 5A040000 		.4byte	0x45a
 5606 1087 20       		.uleb128 0x20
 5607 1088 12000000 		.4byte	.LBB52
 5608 108c 12000000 		.4byte	.LBE52-.LBB52
 5609 1090 30       		.uleb128 0x30
 5610 1091 45040000 		.4byte	0x445
 5611 1095 30       		.uleb128 0x30
 5612 1096 3B040000 		.4byte	0x43b
 5613 109a 30       		.uleb128 0x30
 5614 109b 31040000 		.4byte	0x431
 5615 109f 20       		.uleb128 0x20
 5616 10a0 12000000 		.4byte	.LBB53
 5617 10a4 12000000 		.4byte	.LBE53-.LBB53
 5618 10a8 23       		.uleb128 0x23
 5619 10a9 4F040000 		.4byte	0x44f
 5620 10ad 23       		.uleb128 0x23
 5621 10ae 5A040000 		.4byte	0x45a
 5622 10b2 20       		.uleb128 0x20
ARM GAS  C:\Users\Petro\AppData\Local\Temp\ccEiKVD5.s 			page 119


 5623 10b3 12000000 		.4byte	.LBB54
 5624 10b7 12000000 		.4byte	.LBE54-.LBB54
 5625 10bb 21       		.uleb128 0x21
 5626 10bc 66040000 		.4byte	0x466
 5627 10c0 E00C0000 		.4byte	.LLST83
 5628 10c4 1B       		.uleb128 0x1b
 5629 10c5 20000000 		.4byte	.LVL196
 5630 10c9 20030000 		.4byte	0x320
 5631 10cd 1A       		.uleb128 0x1a
 5632 10ce 01       		.uleb128 0x1
 5633 10cf 50       		.byte	0x50
 5634 10d0 02       		.uleb128 0x2
 5635 10d1 75       		.byte	0x75
 5636 10d2 00       		.sleb128 0
 5637 10d3 1A       		.uleb128 0x1a
 5638 10d4 01       		.uleb128 0x1
 5639 10d5 51       		.byte	0x51
 5640 10d6 05       		.uleb128 0x5
 5641 10d7 74       		.byte	0x74
 5642 10d8 00       		.sleb128 0
 5643 10d9 76       		.byte	0x76
 5644 10da 00       		.sleb128 0
 5645 10db 22       		.byte	0x22
 5646 10dc 00       		.byte	0
 5647 10dd 00       		.byte	0
 5648 10de 00       		.byte	0
 5649 10df 00       		.byte	0
 5650 10e0 00       		.byte	0
 5651 10e1 1F       		.uleb128 0x1f
 5652 10e2 73040000 		.4byte	0x473
 5653 10e6 00000000 		.4byte	.LFB86
 5654 10ea 26000000 		.4byte	.LFE86-.LFB86
 5655 10ee 01       		.uleb128 0x1
 5656 10ef 9C       		.byte	0x9c
 5657 10f0 73110000 		.4byte	0x1173
 5658 10f4 22       		.uleb128 0x22
 5659 10f5 80040000 		.4byte	0x480
 5660 10f9 F30C0000 		.4byte	.LLST84
 5661 10fd 22       		.uleb128 0x22
 5662 10fe 8A040000 		.4byte	0x48a
 5663 1102 1F0D0000 		.4byte	.LLST85
 5664 1106 22       		.uleb128 0x22
 5665 1107 94040000 		.4byte	0x494
 5666 110b 4B0D0000 		.4byte	.LLST86
 5667 110f 23       		.uleb128 0x23
 5668 1110 9E040000 		.4byte	0x49e
 5669 1114 23       		.uleb128 0x23
 5670 1115 A9040000 		.4byte	0x4a9
 5671 1119 20       		.uleb128 0x20
 5672 111a 12000000 		.4byte	.LBB59
 5673 111e 12000000 		.4byte	.LBE59-.LBB59
 5674 1122 30       		.uleb128 0x30
 5675 1123 94040000 		.4byte	0x494
 5676 1127 30       		.uleb128 0x30
 5677 1128 8A040000 		.4byte	0x48a
 5678 112c 30       		.uleb128 0x30
 5679 112d 80040000 		.4byte	0x480
ARM GAS  C:\Users\Petro\AppData\Local\Temp\ccEiKVD5.s 			page 120


 5680 1131 20       		.uleb128 0x20
 5681 1132 12000000 		.4byte	.LBB60
 5682 1136 12000000 		.4byte	.LBE60-.LBB60
 5683 113a 23       		.uleb128 0x23
 5684 113b 9E040000 		.4byte	0x49e
 5685 113f 23       		.uleb128 0x23
 5686 1140 A9040000 		.4byte	0x4a9
 5687 1144 20       		.uleb128 0x20
 5688 1145 12000000 		.4byte	.LBB61
 5689 1149 12000000 		.4byte	.LBE61-.LBB61
 5690 114d 21       		.uleb128 0x21
 5691 114e B5040000 		.4byte	0x4b5
 5692 1152 770D0000 		.4byte	.LLST87
 5693 1156 1B       		.uleb128 0x1b
 5694 1157 20000000 		.4byte	.LVL204
 5695 115b 53030000 		.4byte	0x353
 5696 115f 1A       		.uleb128 0x1a
 5697 1160 01       		.uleb128 0x1
 5698 1161 50       		.byte	0x50
 5699 1162 02       		.uleb128 0x2
 5700 1163 75       		.byte	0x75
 5701 1164 00       		.sleb128 0
 5702 1165 1A       		.uleb128 0x1a
 5703 1166 01       		.uleb128 0x1
 5704 1167 51       		.byte	0x51
 5705 1168 05       		.uleb128 0x5
 5706 1169 74       		.byte	0x74
 5707 116a 00       		.sleb128 0
 5708 116b 76       		.byte	0x76
 5709 116c 00       		.sleb128 0
 5710 116d 22       		.byte	0x22
 5711 116e 00       		.byte	0
 5712 116f 00       		.byte	0
 5713 1170 00       		.byte	0
 5714 1171 00       		.byte	0
 5715 1172 00       		.byte	0
 5716 1173 2A       		.uleb128 0x2a
 5717 1174 21030000 		.4byte	.LASF137
 5718 1178 02       		.byte	0x2
 5719 1179 F201     		.2byte	0x1f2
 5720 117b 00000000 		.4byte	.LFB87
 5721 117f 70010000 		.4byte	.LFE87-.LFB87
 5722 1183 01       		.uleb128 0x1
 5723 1184 9C       		.byte	0x9c
 5724 1185 F1120000 		.4byte	0x12f1
 5725 1189 26       		.uleb128 0x26
 5726 118a 783100   		.ascii	"x1\000"
 5727 118d 02       		.byte	0x2
 5728 118e F201     		.2byte	0x1f2
 5729 1190 2C000000 		.4byte	0x2c
 5730 1194 8A0D0000 		.4byte	.LLST88
 5731 1198 26       		.uleb128 0x26
 5732 1199 793100   		.ascii	"y1\000"
 5733 119c 02       		.byte	0x2
 5734 119d F201     		.2byte	0x1f2
 5735 119f 2C000000 		.4byte	0x2c
 5736 11a3 DF0D0000 		.4byte	.LLST89
ARM GAS  C:\Users\Petro\AppData\Local\Temp\ccEiKVD5.s 			page 121


 5737 11a7 26       		.uleb128 0x26
 5738 11a8 783200   		.ascii	"x2\000"
 5739 11ab 02       		.byte	0x2
 5740 11ac F201     		.2byte	0x1f2
 5741 11ae 2C000000 		.4byte	0x2c
 5742 11b2 340E0000 		.4byte	.LLST90
 5743 11b6 26       		.uleb128 0x26
 5744 11b7 793200   		.ascii	"y2\000"
 5745 11ba 02       		.byte	0x2
 5746 11bb F201     		.2byte	0x1f2
 5747 11bd 2C000000 		.4byte	0x2c
 5748 11c1 810E0000 		.4byte	.LLST91
 5749 11c5 14       		.uleb128 0x14
 5750 11c6 746D7000 		.ascii	"tmp\000"
 5751 11ca 02       		.byte	0x2
 5752 11cb F401     		.2byte	0x1f4
 5753 11cd 2C000000 		.4byte	0x2c
 5754 11d1 28       		.uleb128 0x28
 5755 11d2 53010000 		.4byte	.LASF138
 5756 11d6 02       		.byte	0x2
 5757 11d7 F501     		.2byte	0x1f5
 5758 11d9 25000000 		.4byte	0x25
 5759 11dd D60E0000 		.4byte	.LLST92
 5760 11e1 29       		.uleb128 0x29
 5761 11e2 747800   		.ascii	"tx\000"
 5762 11e5 02       		.byte	0x2
 5763 11e6 F501     		.2byte	0x1f5
 5764 11e8 25000000 		.4byte	0x25
 5765 11ec 150F0000 		.4byte	.LLST93
 5766 11f0 29       		.uleb128 0x29
 5767 11f1 747900   		.ascii	"ty\000"
 5768 11f4 02       		.byte	0x2
 5769 11f5 F501     		.2byte	0x1f5
 5770 11f7 25000000 		.4byte	0x25
 5771 11fb 4C0F0000 		.4byte	.LLST94
 5772 11ff 14       		.uleb128 0x14
 5773 1200 6D00     		.ascii	"m\000"
 5774 1202 02       		.byte	0x2
 5775 1203 F601     		.2byte	0x1f6
 5776 1205 25000000 		.4byte	0x25
 5777 1209 14       		.uleb128 0x14
 5778 120a 6200     		.ascii	"b\000"
 5779 120c 02       		.byte	0x2
 5780 120d F601     		.2byte	0x1f6
 5781 120f 25000000 		.4byte	0x25
 5782 1213 14       		.uleb128 0x14
 5783 1214 647800   		.ascii	"dx\000"
 5784 1217 02       		.byte	0x2
 5785 1218 F601     		.2byte	0x1f6
 5786 121a 25000000 		.4byte	0x25
 5787 121e 14       		.uleb128 0x14
 5788 121f 647900   		.ascii	"dy\000"
 5789 1222 02       		.byte	0x2
 5790 1223 F601     		.2byte	0x1f6
 5791 1225 25000000 		.4byte	0x25
 5792 1229 27       		.uleb128 0x27
 5793 122a A8000000 		.4byte	.LBB62
ARM GAS  C:\Users\Petro\AppData\Local\Temp\ccEiKVD5.s 			page 122


 5794 122e 32000000 		.4byte	.LBE62-.LBB62
 5795 1232 55120000 		.4byte	0x1255
 5796 1236 29       		.uleb128 0x29
 5797 1237 6900     		.ascii	"i\000"
 5798 1239 02       		.byte	0x2
 5799 123a 2502     		.2byte	0x225
 5800 123c 2C000000 		.4byte	0x2c
 5801 1240 840F0000 		.4byte	.LLST95
 5802 1244 1B       		.uleb128 0x1b
 5803 1245 C0000000 		.4byte	.LVL240
 5804 1249 20030000 		.4byte	0x320
 5805 124d 1A       		.uleb128 0x1a
 5806 124e 01       		.uleb128 0x1
 5807 124f 50       		.byte	0x50
 5808 1250 02       		.uleb128 0x2
 5809 1251 74       		.byte	0x74
 5810 1252 00       		.sleb128 0
 5811 1253 00       		.byte	0
 5812 1254 00       		.byte	0
 5813 1255 27       		.uleb128 0x27
 5814 1256 DA000000 		.4byte	.LBB63
 5815 125a 32000000 		.4byte	.LBE63-.LBB63
 5816 125e 81120000 		.4byte	0x1281
 5817 1262 29       		.uleb128 0x29
 5818 1263 6900     		.ascii	"i\000"
 5819 1265 02       		.byte	0x2
 5820 1266 2E02     		.2byte	0x22e
 5821 1268 2C000000 		.4byte	0x2c
 5822 126c AF0F0000 		.4byte	.LLST96
 5823 1270 1B       		.uleb128 0x1b
 5824 1271 F2000000 		.4byte	.LVL248
 5825 1275 20030000 		.4byte	0x320
 5826 1279 1A       		.uleb128 0x1a
 5827 127a 01       		.uleb128 0x1
 5828 127b 50       		.byte	0x50
 5829 127c 02       		.uleb128 0x2
 5830 127d 74       		.byte	0x74
 5831 127e 00       		.sleb128 0
 5832 127f 00       		.byte	0
 5833 1280 00       		.byte	0
 5834 1281 27       		.uleb128 0x27
 5835 1282 1E010000 		.4byte	.LBB64
 5836 1286 4A000000 		.4byte	.LBE64-.LBB64
 5837 128a AD120000 		.4byte	0x12ad
 5838 128e 29       		.uleb128 0x29
 5839 128f 6900     		.ascii	"i\000"
 5840 1291 02       		.byte	0x2
 5841 1292 4502     		.2byte	0x245
 5842 1294 2C000000 		.4byte	0x2c
 5843 1298 DA0F0000 		.4byte	.LLST97
 5844 129c 1B       		.uleb128 0x1b
 5845 129d 38010000 		.4byte	.LVL259
 5846 12a1 20030000 		.4byte	0x320
 5847 12a5 1A       		.uleb128 0x1a
 5848 12a6 01       		.uleb128 0x1
 5849 12a7 51       		.byte	0x51
 5850 12a8 02       		.uleb128 0x2
ARM GAS  C:\Users\Petro\AppData\Local\Temp\ccEiKVD5.s 			page 123


 5851 12a9 74       		.byte	0x74
 5852 12aa 00       		.sleb128 0
 5853 12ab 00       		.byte	0
 5854 12ac 00       		.byte	0
 5855 12ad 19       		.uleb128 0x19
 5856 12ae 44000000 		.4byte	.LVL221
 5857 12b2 86030000 		.4byte	0x386
 5858 12b6 D1120000 		.4byte	0x12d1
 5859 12ba 1A       		.uleb128 0x1a
 5860 12bb 01       		.uleb128 0x1
 5861 12bc 50       		.byte	0x50
 5862 12bd 02       		.uleb128 0x2
 5863 12be 74       		.byte	0x74
 5864 12bf 00       		.sleb128 0
 5865 12c0 1A       		.uleb128 0x1a
 5866 12c1 01       		.uleb128 0x1
 5867 12c2 51       		.byte	0x51
 5868 12c3 02       		.uleb128 0x2
 5869 12c4 75       		.byte	0x75
 5870 12c5 00       		.sleb128 0
 5871 12c6 1A       		.uleb128 0x1a
 5872 12c7 01       		.uleb128 0x1
 5873 12c8 52       		.byte	0x52
 5874 12c9 06       		.uleb128 0x6
 5875 12ca 7D       		.byte	0x7d
 5876 12cb 00       		.sleb128 0
 5877 12cc 06       		.byte	0x6
 5878 12cd 74       		.byte	0x74
 5879 12ce 00       		.sleb128 0
 5880 12cf 1C       		.byte	0x1c
 5881 12d0 00       		.byte	0
 5882 12d1 1B       		.uleb128 0x1b
 5883 12d2 5E000000 		.4byte	.LVL226
 5884 12d6 24040000 		.4byte	0x424
 5885 12da 1A       		.uleb128 0x1a
 5886 12db 01       		.uleb128 0x1
 5887 12dc 50       		.byte	0x50
 5888 12dd 02       		.uleb128 0x2
 5889 12de 74       		.byte	0x74
 5890 12df 00       		.sleb128 0
 5891 12e0 1A       		.uleb128 0x1a
 5892 12e1 01       		.uleb128 0x1
 5893 12e2 51       		.byte	0x51
 5894 12e3 02       		.uleb128 0x2
 5895 12e4 75       		.byte	0x75
 5896 12e5 00       		.sleb128 0
 5897 12e6 1A       		.uleb128 0x1a
 5898 12e7 01       		.uleb128 0x1
 5899 12e8 52       		.byte	0x52
 5900 12e9 05       		.uleb128 0x5
 5901 12ea 76       		.byte	0x76
 5902 12eb 00       		.sleb128 0
 5903 12ec 75       		.byte	0x75
 5904 12ed 00       		.sleb128 0
 5905 12ee 1C       		.byte	0x1c
 5906 12ef 00       		.byte	0
 5907 12f0 00       		.byte	0
ARM GAS  C:\Users\Petro\AppData\Local\Temp\ccEiKVD5.s 			page 124


 5908 12f1 2A       		.uleb128 0x2a
 5909 12f2 00000000 		.4byte	.LASF139
 5910 12f6 02       		.byte	0x2
 5911 12f7 5002     		.2byte	0x250
 5912 12f9 00000000 		.4byte	.LFB88
 5913 12fd 70010000 		.4byte	.LFE88-.LFB88
 5914 1301 01       		.uleb128 0x1
 5915 1302 9C       		.byte	0x9c
 5916 1303 6F140000 		.4byte	0x146f
 5917 1307 26       		.uleb128 0x26
 5918 1308 783100   		.ascii	"x1\000"
 5919 130b 02       		.byte	0x2
 5920 130c 5002     		.2byte	0x250
 5921 130e 2C000000 		.4byte	0x2c
 5922 1312 05100000 		.4byte	.LLST98
 5923 1316 26       		.uleb128 0x26
 5924 1317 793100   		.ascii	"y1\000"
 5925 131a 02       		.byte	0x2
 5926 131b 5002     		.2byte	0x250
 5927 131d 2C000000 		.4byte	0x2c
 5928 1321 5A100000 		.4byte	.LLST99
 5929 1325 26       		.uleb128 0x26
 5930 1326 783200   		.ascii	"x2\000"
 5931 1329 02       		.byte	0x2
 5932 132a 5002     		.2byte	0x250
 5933 132c 2C000000 		.4byte	0x2c
 5934 1330 AF100000 		.4byte	.LLST100
 5935 1334 26       		.uleb128 0x26
 5936 1335 793200   		.ascii	"y2\000"
 5937 1338 02       		.byte	0x2
 5938 1339 5002     		.2byte	0x250
 5939 133b 2C000000 		.4byte	0x2c
 5940 133f FC100000 		.4byte	.LLST101
 5941 1343 14       		.uleb128 0x14
 5942 1344 746D7000 		.ascii	"tmp\000"
 5943 1348 02       		.byte	0x2
 5944 1349 5202     		.2byte	0x252
 5945 134b 2C000000 		.4byte	0x2c
 5946 134f 28       		.uleb128 0x28
 5947 1350 53010000 		.4byte	.LASF138
 5948 1354 02       		.byte	0x2
 5949 1355 5302     		.2byte	0x253
 5950 1357 25000000 		.4byte	0x25
 5951 135b 51110000 		.4byte	.LLST102
 5952 135f 29       		.uleb128 0x29
 5953 1360 747800   		.ascii	"tx\000"
 5954 1363 02       		.byte	0x2
 5955 1364 5302     		.2byte	0x253
 5956 1366 25000000 		.4byte	0x25
 5957 136a 90110000 		.4byte	.LLST103
 5958 136e 29       		.uleb128 0x29
 5959 136f 747900   		.ascii	"ty\000"
 5960 1372 02       		.byte	0x2
 5961 1373 5302     		.2byte	0x253
 5962 1375 25000000 		.4byte	0x25
 5963 1379 C7110000 		.4byte	.LLST104
 5964 137d 14       		.uleb128 0x14
ARM GAS  C:\Users\Petro\AppData\Local\Temp\ccEiKVD5.s 			page 125


 5965 137e 6D00     		.ascii	"m\000"
 5966 1380 02       		.byte	0x2
 5967 1381 5402     		.2byte	0x254
 5968 1383 25000000 		.4byte	0x25
 5969 1387 14       		.uleb128 0x14
 5970 1388 6200     		.ascii	"b\000"
 5971 138a 02       		.byte	0x2
 5972 138b 5402     		.2byte	0x254
 5973 138d 25000000 		.4byte	0x25
 5974 1391 14       		.uleb128 0x14
 5975 1392 647800   		.ascii	"dx\000"
 5976 1395 02       		.byte	0x2
 5977 1396 5402     		.2byte	0x254
 5978 1398 25000000 		.4byte	0x25
 5979 139c 14       		.uleb128 0x14
 5980 139d 647900   		.ascii	"dy\000"
 5981 13a0 02       		.byte	0x2
 5982 13a1 5402     		.2byte	0x254
 5983 13a3 25000000 		.4byte	0x25
 5984 13a7 27       		.uleb128 0x27
 5985 13a8 A8000000 		.4byte	.LBB65
 5986 13ac 32000000 		.4byte	.LBE65-.LBB65
 5987 13b0 D3130000 		.4byte	0x13d3
 5988 13b4 29       		.uleb128 0x29
 5989 13b5 6900     		.ascii	"i\000"
 5990 13b7 02       		.byte	0x2
 5991 13b8 8302     		.2byte	0x283
 5992 13ba 2C000000 		.4byte	0x2c
 5993 13be FF110000 		.4byte	.LLST105
 5994 13c2 1B       		.uleb128 0x1b
 5995 13c3 C0000000 		.4byte	.LVL298
 5996 13c7 53030000 		.4byte	0x353
 5997 13cb 1A       		.uleb128 0x1a
 5998 13cc 01       		.uleb128 0x1
 5999 13cd 50       		.byte	0x50
 6000 13ce 02       		.uleb128 0x2
 6001 13cf 74       		.byte	0x74
 6002 13d0 00       		.sleb128 0
 6003 13d1 00       		.byte	0
 6004 13d2 00       		.byte	0
 6005 13d3 27       		.uleb128 0x27
 6006 13d4 DA000000 		.4byte	.LBB66
 6007 13d8 32000000 		.4byte	.LBE66-.LBB66
 6008 13dc FF130000 		.4byte	0x13ff
 6009 13e0 29       		.uleb128 0x29
 6010 13e1 6900     		.ascii	"i\000"
 6011 13e3 02       		.byte	0x2
 6012 13e4 8C02     		.2byte	0x28c
 6013 13e6 2C000000 		.4byte	0x2c
 6014 13ea 2A120000 		.4byte	.LLST106
 6015 13ee 1B       		.uleb128 0x1b
 6016 13ef F2000000 		.4byte	.LVL306
 6017 13f3 53030000 		.4byte	0x353
 6018 13f7 1A       		.uleb128 0x1a
 6019 13f8 01       		.uleb128 0x1
 6020 13f9 50       		.byte	0x50
 6021 13fa 02       		.uleb128 0x2
ARM GAS  C:\Users\Petro\AppData\Local\Temp\ccEiKVD5.s 			page 126


 6022 13fb 74       		.byte	0x74
 6023 13fc 00       		.sleb128 0
 6024 13fd 00       		.byte	0
 6025 13fe 00       		.byte	0
 6026 13ff 27       		.uleb128 0x27
 6027 1400 1E010000 		.4byte	.LBB67
 6028 1404 4A000000 		.4byte	.LBE67-.LBB67
 6029 1408 2B140000 		.4byte	0x142b
 6030 140c 29       		.uleb128 0x29
 6031 140d 6900     		.ascii	"i\000"
 6032 140f 02       		.byte	0x2
 6033 1410 A302     		.2byte	0x2a3
 6034 1412 2C000000 		.4byte	0x2c
 6035 1416 55120000 		.4byte	.LLST107
 6036 141a 1B       		.uleb128 0x1b
 6037 141b 38010000 		.4byte	.LVL317
 6038 141f 53030000 		.4byte	0x353
 6039 1423 1A       		.uleb128 0x1a
 6040 1424 01       		.uleb128 0x1
 6041 1425 51       		.byte	0x51
 6042 1426 02       		.uleb128 0x2
 6043 1427 74       		.byte	0x74
 6044 1428 00       		.sleb128 0
 6045 1429 00       		.byte	0
 6046 142a 00       		.byte	0
 6047 142b 19       		.uleb128 0x19
 6048 142c 44000000 		.4byte	.LVL279
 6049 1430 D5030000 		.4byte	0x3d5
 6050 1434 4F140000 		.4byte	0x144f
 6051 1438 1A       		.uleb128 0x1a
 6052 1439 01       		.uleb128 0x1
 6053 143a 50       		.byte	0x50
 6054 143b 02       		.uleb128 0x2
 6055 143c 74       		.byte	0x74
 6056 143d 00       		.sleb128 0
 6057 143e 1A       		.uleb128 0x1a
 6058 143f 01       		.uleb128 0x1
 6059 1440 51       		.byte	0x51
 6060 1441 02       		.uleb128 0x2
 6061 1442 75       		.byte	0x75
 6062 1443 00       		.sleb128 0
 6063 1444 1A       		.uleb128 0x1a
 6064 1445 01       		.uleb128 0x1
 6065 1446 52       		.byte	0x52
 6066 1447 06       		.uleb128 0x6
 6067 1448 7D       		.byte	0x7d
 6068 1449 00       		.sleb128 0
 6069 144a 06       		.byte	0x6
 6070 144b 74       		.byte	0x74
 6071 144c 00       		.sleb128 0
 6072 144d 1C       		.byte	0x1c
 6073 144e 00       		.byte	0
 6074 144f 1B       		.uleb128 0x1b
 6075 1450 5E000000 		.4byte	.LVL284
 6076 1454 73040000 		.4byte	0x473
 6077 1458 1A       		.uleb128 0x1a
 6078 1459 01       		.uleb128 0x1
ARM GAS  C:\Users\Petro\AppData\Local\Temp\ccEiKVD5.s 			page 127


 6079 145a 50       		.byte	0x50
 6080 145b 02       		.uleb128 0x2
 6081 145c 74       		.byte	0x74
 6082 145d 00       		.sleb128 0
 6083 145e 1A       		.uleb128 0x1a
 6084 145f 01       		.uleb128 0x1
 6085 1460 51       		.byte	0x51
 6086 1461 02       		.uleb128 0x2
 6087 1462 75       		.byte	0x75
 6088 1463 00       		.sleb128 0
 6089 1464 1A       		.uleb128 0x1a
 6090 1465 01       		.uleb128 0x1
 6091 1466 52       		.byte	0x52
 6092 1467 05       		.uleb128 0x5
 6093 1468 76       		.byte	0x76
 6094 1469 00       		.sleb128 0
 6095 146a 75       		.byte	0x75
 6096 146b 00       		.sleb128 0
 6097 146c 1C       		.byte	0x1c
 6098 146d 00       		.byte	0
 6099 146e 00       		.byte	0
 6100 146f 25       		.uleb128 0x25
 6101 1470 F60B0000 		.4byte	.LASF140
 6102 1474 02       		.byte	0x2
 6103 1475 AE02     		.2byte	0x2ae
 6104 1477 00000000 		.4byte	.LFB89
 6105 147b 48000000 		.4byte	.LFE89-.LFB89
 6106 147f 01       		.uleb128 0x1
 6107 1480 9C       		.byte	0x9c
 6108 1481 4A150000 		.4byte	0x154a
 6109 1485 26       		.uleb128 0x26
 6110 1486 783100   		.ascii	"x1\000"
 6111 1489 02       		.byte	0x2
 6112 148a AE02     		.2byte	0x2ae
 6113 148c 2C000000 		.4byte	0x2c
 6114 1490 80120000 		.4byte	.LLST108
 6115 1494 26       		.uleb128 0x26
 6116 1495 793100   		.ascii	"y1\000"
 6117 1498 02       		.byte	0x2
 6118 1499 AE02     		.2byte	0x2ae
 6119 149b 2C000000 		.4byte	0x2c
 6120 149f 9E120000 		.4byte	.LLST109
 6121 14a3 26       		.uleb128 0x26
 6122 14a4 783200   		.ascii	"x2\000"
 6123 14a7 02       		.byte	0x2
 6124 14a8 AE02     		.2byte	0x2ae
 6125 14aa 2C000000 		.4byte	0x2c
 6126 14ae BC120000 		.4byte	.LLST110
 6127 14b2 26       		.uleb128 0x26
 6128 14b3 793200   		.ascii	"y2\000"
 6129 14b6 02       		.byte	0x2
 6130 14b7 AE02     		.2byte	0x2ae
 6131 14b9 2C000000 		.4byte	0x2c
 6132 14bd DA120000 		.4byte	.LLST111
 6133 14c1 14       		.uleb128 0x14
 6134 14c2 746D7000 		.ascii	"tmp\000"
 6135 14c6 02       		.byte	0x2
ARM GAS  C:\Users\Petro\AppData\Local\Temp\ccEiKVD5.s 			page 128


 6136 14c7 B002     		.2byte	0x2b0
 6137 14c9 2C000000 		.4byte	0x2c
 6138 14cd 19       		.uleb128 0x19
 6139 14ce 26000000 		.4byte	.LVL330
 6140 14d2 86030000 		.4byte	0x386
 6141 14d6 F0140000 		.4byte	0x14f0
 6142 14da 1A       		.uleb128 0x1a
 6143 14db 01       		.uleb128 0x1
 6144 14dc 50       		.byte	0x50
 6145 14dd 02       		.uleb128 0x2
 6146 14de 75       		.byte	0x75
 6147 14df 00       		.sleb128 0
 6148 14e0 1A       		.uleb128 0x1a
 6149 14e1 01       		.uleb128 0x1
 6150 14e2 51       		.byte	0x51
 6151 14e3 02       		.uleb128 0x2
 6152 14e4 74       		.byte	0x74
 6153 14e5 00       		.sleb128 0
 6154 14e6 1A       		.uleb128 0x1a
 6155 14e7 01       		.uleb128 0x1
 6156 14e8 52       		.byte	0x52
 6157 14e9 05       		.uleb128 0x5
 6158 14ea 76       		.byte	0x76
 6159 14eb 00       		.sleb128 0
 6160 14ec 75       		.byte	0x75
 6161 14ed 00       		.sleb128 0
 6162 14ee 1C       		.byte	0x1c
 6163 14ef 00       		.byte	0
 6164 14f0 19       		.uleb128 0x19
 6165 14f1 32000000 		.4byte	.LVL332
 6166 14f5 86030000 		.4byte	0x386
 6167 14f9 0D150000 		.4byte	0x150d
 6168 14fd 1A       		.uleb128 0x1a
 6169 14fe 01       		.uleb128 0x1
 6170 14ff 50       		.byte	0x50
 6171 1500 02       		.uleb128 0x2
 6172 1501 75       		.byte	0x75
 6173 1502 00       		.sleb128 0
 6174 1503 1A       		.uleb128 0x1a
 6175 1504 01       		.uleb128 0x1
 6176 1505 52       		.byte	0x52
 6177 1506 05       		.uleb128 0x5
 6178 1507 76       		.byte	0x76
 6179 1508 00       		.sleb128 0
 6180 1509 75       		.byte	0x75
 6181 150a 00       		.sleb128 0
 6182 150b 1C       		.byte	0x1c
 6183 150c 00       		.byte	0
 6184 150d 19       		.uleb128 0x19
 6185 150e 3C000000 		.4byte	.LVL333
 6186 1512 24040000 		.4byte	0x424
 6187 1516 2D150000 		.4byte	0x152d
 6188 151a 1A       		.uleb128 0x1a
 6189 151b 01       		.uleb128 0x1
 6190 151c 50       		.byte	0x50
 6191 151d 02       		.uleb128 0x2
 6192 151e 75       		.byte	0x75
ARM GAS  C:\Users\Petro\AppData\Local\Temp\ccEiKVD5.s 			page 129


 6193 151f 00       		.sleb128 0
 6194 1520 1A       		.uleb128 0x1a
 6195 1521 01       		.uleb128 0x1
 6196 1522 51       		.byte	0x51
 6197 1523 02       		.uleb128 0x2
 6198 1524 74       		.byte	0x74
 6199 1525 00       		.sleb128 0
 6200 1526 1A       		.uleb128 0x1a
 6201 1527 01       		.uleb128 0x1
 6202 1528 52       		.byte	0x52
 6203 1529 02       		.uleb128 0x2
 6204 152a 77       		.byte	0x77
 6205 152b 00       		.sleb128 0
 6206 152c 00       		.byte	0
 6207 152d 1B       		.uleb128 0x1b
 6208 152e 46000000 		.4byte	.LVL334
 6209 1532 24040000 		.4byte	0x424
 6210 1536 1A       		.uleb128 0x1a
 6211 1537 01       		.uleb128 0x1
 6212 1538 50       		.byte	0x50
 6213 1539 02       		.uleb128 0x2
 6214 153a 76       		.byte	0x76
 6215 153b 00       		.sleb128 0
 6216 153c 1A       		.uleb128 0x1a
 6217 153d 01       		.uleb128 0x1
 6218 153e 51       		.byte	0x51
 6219 153f 02       		.uleb128 0x2
 6220 1540 74       		.byte	0x74
 6221 1541 00       		.sleb128 0
 6222 1542 1A       		.uleb128 0x1a
 6223 1543 01       		.uleb128 0x1
 6224 1544 52       		.byte	0x52
 6225 1545 02       		.uleb128 0x2
 6226 1546 77       		.byte	0x77
 6227 1547 01       		.sleb128 1
 6228 1548 00       		.byte	0
 6229 1549 00       		.byte	0
 6230 154a 25       		.uleb128 0x25
 6231 154b 69090000 		.4byte	.LASF141
 6232 154f 02       		.byte	0x2
 6233 1550 C502     		.2byte	0x2c5
 6234 1552 00000000 		.4byte	.LFB90
 6235 1556 48000000 		.4byte	.LFE90-.LFB90
 6236 155a 01       		.uleb128 0x1
 6237 155b 9C       		.byte	0x9c
 6238 155c 25160000 		.4byte	0x1625
 6239 1560 26       		.uleb128 0x26
 6240 1561 783100   		.ascii	"x1\000"
 6241 1564 02       		.byte	0x2
 6242 1565 C502     		.2byte	0x2c5
 6243 1567 2C000000 		.4byte	0x2c
 6244 156b 03130000 		.4byte	.LLST112
 6245 156f 26       		.uleb128 0x26
 6246 1570 793100   		.ascii	"y1\000"
 6247 1573 02       		.byte	0x2
 6248 1574 C502     		.2byte	0x2c5
 6249 1576 2C000000 		.4byte	0x2c
ARM GAS  C:\Users\Petro\AppData\Local\Temp\ccEiKVD5.s 			page 130


 6250 157a 21130000 		.4byte	.LLST113
 6251 157e 26       		.uleb128 0x26
 6252 157f 783200   		.ascii	"x2\000"
 6253 1582 02       		.byte	0x2
 6254 1583 C502     		.2byte	0x2c5
 6255 1585 2C000000 		.4byte	0x2c
 6256 1589 3F130000 		.4byte	.LLST114
 6257 158d 26       		.uleb128 0x26
 6258 158e 793200   		.ascii	"y2\000"
 6259 1591 02       		.byte	0x2
 6260 1592 C502     		.2byte	0x2c5
 6261 1594 2C000000 		.4byte	0x2c
 6262 1598 5D130000 		.4byte	.LLST115
 6263 159c 14       		.uleb128 0x14
 6264 159d 746D7000 		.ascii	"tmp\000"
 6265 15a1 02       		.byte	0x2
 6266 15a2 C702     		.2byte	0x2c7
 6267 15a4 2C000000 		.4byte	0x2c
 6268 15a8 19       		.uleb128 0x19
 6269 15a9 26000000 		.4byte	.LVL342
 6270 15ad D5030000 		.4byte	0x3d5
 6271 15b1 CB150000 		.4byte	0x15cb
 6272 15b5 1A       		.uleb128 0x1a
 6273 15b6 01       		.uleb128 0x1
 6274 15b7 50       		.byte	0x50
 6275 15b8 02       		.uleb128 0x2
 6276 15b9 75       		.byte	0x75
 6277 15ba 00       		.sleb128 0
 6278 15bb 1A       		.uleb128 0x1a
 6279 15bc 01       		.uleb128 0x1
 6280 15bd 51       		.byte	0x51
 6281 15be 02       		.uleb128 0x2
 6282 15bf 74       		.byte	0x74
 6283 15c0 00       		.sleb128 0
 6284 15c1 1A       		.uleb128 0x1a
 6285 15c2 01       		.uleb128 0x1
 6286 15c3 52       		.byte	0x52
 6287 15c4 05       		.uleb128 0x5
 6288 15c5 76       		.byte	0x76
 6289 15c6 00       		.sleb128 0
 6290 15c7 75       		.byte	0x75
 6291 15c8 00       		.sleb128 0
 6292 15c9 1C       		.byte	0x1c
 6293 15ca 00       		.byte	0
 6294 15cb 19       		.uleb128 0x19
 6295 15cc 32000000 		.4byte	.LVL344
 6296 15d0 D5030000 		.4byte	0x3d5
 6297 15d4 E8150000 		.4byte	0x15e8
 6298 15d8 1A       		.uleb128 0x1a
 6299 15d9 01       		.uleb128 0x1
 6300 15da 50       		.byte	0x50
 6301 15db 02       		.uleb128 0x2
 6302 15dc 75       		.byte	0x75
 6303 15dd 00       		.sleb128 0
 6304 15de 1A       		.uleb128 0x1a
 6305 15df 01       		.uleb128 0x1
 6306 15e0 52       		.byte	0x52
ARM GAS  C:\Users\Petro\AppData\Local\Temp\ccEiKVD5.s 			page 131


 6307 15e1 05       		.uleb128 0x5
 6308 15e2 76       		.byte	0x76
 6309 15e3 00       		.sleb128 0
 6310 15e4 75       		.byte	0x75
 6311 15e5 00       		.sleb128 0
 6312 15e6 1C       		.byte	0x1c
 6313 15e7 00       		.byte	0
 6314 15e8 19       		.uleb128 0x19
 6315 15e9 3C000000 		.4byte	.LVL345
 6316 15ed 73040000 		.4byte	0x473
 6317 15f1 08160000 		.4byte	0x1608
 6318 15f5 1A       		.uleb128 0x1a
 6319 15f6 01       		.uleb128 0x1
 6320 15f7 50       		.byte	0x50
 6321 15f8 02       		.uleb128 0x2
 6322 15f9 75       		.byte	0x75
 6323 15fa 00       		.sleb128 0
 6324 15fb 1A       		.uleb128 0x1a
 6325 15fc 01       		.uleb128 0x1
 6326 15fd 51       		.byte	0x51
 6327 15fe 02       		.uleb128 0x2
 6328 15ff 74       		.byte	0x74
 6329 1600 00       		.sleb128 0
 6330 1601 1A       		.uleb128 0x1a
 6331 1602 01       		.uleb128 0x1
 6332 1603 52       		.byte	0x52
 6333 1604 02       		.uleb128 0x2
 6334 1605 77       		.byte	0x77
 6335 1606 00       		.sleb128 0
 6336 1607 00       		.byte	0
 6337 1608 1B       		.uleb128 0x1b
 6338 1609 46000000 		.4byte	.LVL346
 6339 160d 73040000 		.4byte	0x473
 6340 1611 1A       		.uleb128 0x1a
 6341 1612 01       		.uleb128 0x1
 6342 1613 50       		.byte	0x50
 6343 1614 02       		.uleb128 0x2
 6344 1615 76       		.byte	0x76
 6345 1616 00       		.sleb128 0
 6346 1617 1A       		.uleb128 0x1a
 6347 1618 01       		.uleb128 0x1
 6348 1619 51       		.byte	0x51
 6349 161a 02       		.uleb128 0x2
 6350 161b 74       		.byte	0x74
 6351 161c 00       		.sleb128 0
 6352 161d 1A       		.uleb128 0x1a
 6353 161e 01       		.uleb128 0x1
 6354 161f 52       		.byte	0x52
 6355 1620 02       		.uleb128 0x2
 6356 1621 77       		.byte	0x77
 6357 1622 01       		.sleb128 1
 6358 1623 00       		.byte	0
 6359 1624 00       		.byte	0
 6360 1625 25       		.uleb128 0x25
 6361 1626 05090000 		.4byte	.LASF142
 6362 162a 02       		.byte	0x2
 6363 162b DC02     		.2byte	0x2dc
ARM GAS  C:\Users\Petro\AppData\Local\Temp\ccEiKVD5.s 			page 132


 6364 162d 00000000 		.4byte	.LFB91
 6365 1631 A2000000 		.4byte	.LFE91-.LFB91
 6366 1635 01       		.uleb128 0x1
 6367 1636 9C       		.byte	0x9c
 6368 1637 6E170000 		.4byte	0x176e
 6369 163b 26       		.uleb128 0x26
 6370 163c 783100   		.ascii	"x1\000"
 6371 163f 02       		.byte	0x2
 6372 1640 DC02     		.2byte	0x2dc
 6373 1642 2C000000 		.4byte	0x2c
 6374 1646 86130000 		.4byte	.LLST116
 6375 164a 26       		.uleb128 0x26
 6376 164b 793100   		.ascii	"y1\000"
 6377 164e 02       		.byte	0x2
 6378 164f DC02     		.2byte	0x2dc
 6379 1651 2C000000 		.4byte	0x2c
 6380 1655 A4130000 		.4byte	.LLST117
 6381 1659 26       		.uleb128 0x26
 6382 165a 783200   		.ascii	"x2\000"
 6383 165d 02       		.byte	0x2
 6384 165e DC02     		.2byte	0x2dc
 6385 1660 2C000000 		.4byte	0x2c
 6386 1664 CF130000 		.4byte	.LLST118
 6387 1668 26       		.uleb128 0x26
 6388 1669 793200   		.ascii	"y2\000"
 6389 166c 02       		.byte	0x2
 6390 166d DC02     		.2byte	0x2dc
 6391 166f 2C000000 		.4byte	0x2c
 6392 1673 EE130000 		.4byte	.LLST119
 6393 1677 14       		.uleb128 0x14
 6394 1678 746D7000 		.ascii	"tmp\000"
 6395 167c 02       		.byte	0x2
 6396 167d DE02     		.2byte	0x2de
 6397 167f 2C000000 		.4byte	0x2c
 6398 1683 19       		.uleb128 0x19
 6399 1684 44000000 		.4byte	.LVL354
 6400 1688 20030000 		.4byte	0x320
 6401 168c 9D160000 		.4byte	0x169d
 6402 1690 1A       		.uleb128 0x1a
 6403 1691 01       		.uleb128 0x1
 6404 1692 50       		.byte	0x50
 6405 1693 02       		.uleb128 0x2
 6406 1694 77       		.byte	0x77
 6407 1695 00       		.sleb128 0
 6408 1696 1A       		.uleb128 0x1a
 6409 1697 01       		.uleb128 0x1
 6410 1698 51       		.byte	0x51
 6411 1699 02       		.uleb128 0x2
 6412 169a 76       		.byte	0x76
 6413 169b 00       		.sleb128 0
 6414 169c 00       		.byte	0
 6415 169d 19       		.uleb128 0x19
 6416 169e 54000000 		.4byte	.LVL355
 6417 16a2 20030000 		.4byte	0x320
 6418 16a6 B9160000 		.4byte	0x16b9
 6419 16aa 1A       		.uleb128 0x1a
 6420 16ab 01       		.uleb128 0x1
ARM GAS  C:\Users\Petro\AppData\Local\Temp\ccEiKVD5.s 			page 133


 6421 16ac 50       		.byte	0x50
 6422 16ad 04       		.uleb128 0x4
 6423 16ae 91       		.byte	0x91
 6424 16af 64       		.sleb128 -28
 6425 16b0 94       		.byte	0x94
 6426 16b1 02       		.byte	0x2
 6427 16b2 1A       		.uleb128 0x1a
 6428 16b3 01       		.uleb128 0x1
 6429 16b4 51       		.byte	0x51
 6430 16b5 02       		.uleb128 0x2
 6431 16b6 76       		.byte	0x76
 6432 16b7 00       		.sleb128 0
 6433 16b8 00       		.byte	0
 6434 16b9 19       		.uleb128 0x19
 6435 16ba 62000000 		.4byte	.LVL356
 6436 16be 20030000 		.4byte	0x320
 6437 16c2 D3160000 		.4byte	0x16d3
 6438 16c6 1A       		.uleb128 0x1a
 6439 16c7 01       		.uleb128 0x1
 6440 16c8 50       		.byte	0x50
 6441 16c9 02       		.uleb128 0x2
 6442 16ca 77       		.byte	0x77
 6443 16cb 00       		.sleb128 0
 6444 16cc 1A       		.uleb128 0x1a
 6445 16cd 01       		.uleb128 0x1
 6446 16ce 51       		.byte	0x51
 6447 16cf 02       		.uleb128 0x2
 6448 16d0 76       		.byte	0x76
 6449 16d1 00       		.sleb128 0
 6450 16d2 00       		.byte	0
 6451 16d3 19       		.uleb128 0x19
 6452 16d4 6A000000 		.4byte	.LVL357
 6453 16d8 20030000 		.4byte	0x320
 6454 16dc EF160000 		.4byte	0x16ef
 6455 16e0 1A       		.uleb128 0x1a
 6456 16e1 01       		.uleb128 0x1
 6457 16e2 50       		.byte	0x50
 6458 16e3 04       		.uleb128 0x4
 6459 16e4 91       		.byte	0x91
 6460 16e5 64       		.sleb128 -28
 6461 16e6 94       		.byte	0x94
 6462 16e7 02       		.byte	0x2
 6463 16e8 1A       		.uleb128 0x1a
 6464 16e9 01       		.uleb128 0x1
 6465 16ea 51       		.byte	0x51
 6466 16eb 02       		.uleb128 0x2
 6467 16ec 76       		.byte	0x76
 6468 16ed 00       		.sleb128 0
 6469 16ee 00       		.byte	0
 6470 16ef 19       		.uleb128 0x19
 6471 16f0 7A000000 		.4byte	.LVL358
 6472 16f4 86030000 		.4byte	0x386
 6473 16f8 0F170000 		.4byte	0x170f
 6474 16fc 1A       		.uleb128 0x1a
 6475 16fd 01       		.uleb128 0x1
 6476 16fe 50       		.byte	0x50
 6477 16ff 02       		.uleb128 0x2
ARM GAS  C:\Users\Petro\AppData\Local\Temp\ccEiKVD5.s 			page 134


 6478 1700 77       		.byte	0x77
 6479 1701 00       		.sleb128 0
 6480 1702 1A       		.uleb128 0x1a
 6481 1703 01       		.uleb128 0x1
 6482 1704 51       		.byte	0x51
 6483 1705 02       		.uleb128 0x2
 6484 1706 74       		.byte	0x74
 6485 1707 00       		.sleb128 0
 6486 1708 1A       		.uleb128 0x1a
 6487 1709 01       		.uleb128 0x1
 6488 170a 52       		.byte	0x52
 6489 170b 02       		.uleb128 0x2
 6490 170c 76       		.byte	0x76
 6491 170d 00       		.sleb128 0
 6492 170e 00       		.byte	0
 6493 170f 19       		.uleb128 0x19
 6494 1710 84000000 		.4byte	.LVL359
 6495 1714 86030000 		.4byte	0x386
 6496 1718 30170000 		.4byte	0x1730
 6497 171c 1A       		.uleb128 0x1a
 6498 171d 01       		.uleb128 0x1
 6499 171e 50       		.byte	0x50
 6500 171f 02       		.uleb128 0x2
 6501 1720 77       		.byte	0x77
 6502 1721 00       		.sleb128 0
 6503 1722 1A       		.uleb128 0x1a
 6504 1723 01       		.uleb128 0x1
 6505 1724 51       		.byte	0x51
 6506 1725 03       		.uleb128 0x3
 6507 1726 91       		.byte	0x91
 6508 1727 58       		.sleb128 -40
 6509 1728 06       		.byte	0x6
 6510 1729 1A       		.uleb128 0x1a
 6511 172a 01       		.uleb128 0x1
 6512 172b 52       		.byte	0x52
 6513 172c 02       		.uleb128 0x2
 6514 172d 76       		.byte	0x76
 6515 172e 00       		.sleb128 0
 6516 172f 00       		.byte	0
 6517 1730 19       		.uleb128 0x19
 6518 1731 94000000 		.4byte	.LVL361
 6519 1735 24040000 		.4byte	0x424
 6520 1739 50170000 		.4byte	0x1750
 6521 173d 1A       		.uleb128 0x1a
 6522 173e 01       		.uleb128 0x1
 6523 173f 50       		.byte	0x50
 6524 1740 02       		.uleb128 0x2
 6525 1741 75       		.byte	0x75
 6526 1742 00       		.sleb128 0
 6527 1743 1A       		.uleb128 0x1a
 6528 1744 01       		.uleb128 0x1
 6529 1745 51       		.byte	0x51
 6530 1746 02       		.uleb128 0x2
 6531 1747 74       		.byte	0x74
 6532 1748 00       		.sleb128 0
 6533 1749 1A       		.uleb128 0x1a
 6534 174a 01       		.uleb128 0x1
ARM GAS  C:\Users\Petro\AppData\Local\Temp\ccEiKVD5.s 			page 135


 6535 174b 52       		.byte	0x52
 6536 174c 02       		.uleb128 0x2
 6537 174d 76       		.byte	0x76
 6538 174e 00       		.sleb128 0
 6539 174f 00       		.byte	0
 6540 1750 1B       		.uleb128 0x1b
 6541 1751 9E000000 		.4byte	.LVL362
 6542 1755 24040000 		.4byte	0x424
 6543 1759 1A       		.uleb128 0x1a
 6544 175a 01       		.uleb128 0x1
 6545 175b 50       		.byte	0x50
 6546 175c 03       		.uleb128 0x3
 6547 175d 91       		.byte	0x91
 6548 175e 54       		.sleb128 -44
 6549 175f 06       		.byte	0x6
 6550 1760 1A       		.uleb128 0x1a
 6551 1761 01       		.uleb128 0x1
 6552 1762 51       		.byte	0x51
 6553 1763 02       		.uleb128 0x2
 6554 1764 74       		.byte	0x74
 6555 1765 00       		.sleb128 0
 6556 1766 1A       		.uleb128 0x1a
 6557 1767 01       		.uleb128 0x1
 6558 1768 52       		.byte	0x52
 6559 1769 02       		.uleb128 0x2
 6560 176a 76       		.byte	0x76
 6561 176b 00       		.sleb128 0
 6562 176c 00       		.byte	0
 6563 176d 00       		.byte	0
 6564 176e 25       		.uleb128 0x25
 6565 176f E90B0000 		.4byte	.LASF143
 6566 1773 02       		.byte	0x2
 6567 1774 F902     		.2byte	0x2f9
 6568 1776 00000000 		.4byte	.LFB92
 6569 177a A2000000 		.4byte	.LFE92-.LFB92
 6570 177e 01       		.uleb128 0x1
 6571 177f 9C       		.byte	0x9c
 6572 1780 B7180000 		.4byte	0x18b7
 6573 1784 26       		.uleb128 0x26
 6574 1785 783100   		.ascii	"x1\000"
 6575 1788 02       		.byte	0x2
 6576 1789 F902     		.2byte	0x2f9
 6577 178b 2C000000 		.4byte	0x2c
 6578 178f 0D140000 		.4byte	.LLST120
 6579 1793 26       		.uleb128 0x26
 6580 1794 793100   		.ascii	"y1\000"
 6581 1797 02       		.byte	0x2
 6582 1798 F902     		.2byte	0x2f9
 6583 179a 2C000000 		.4byte	0x2c
 6584 179e 2B140000 		.4byte	.LLST121
 6585 17a2 26       		.uleb128 0x26
 6586 17a3 783200   		.ascii	"x2\000"
 6587 17a6 02       		.byte	0x2
 6588 17a7 F902     		.2byte	0x2f9
 6589 17a9 2C000000 		.4byte	0x2c
 6590 17ad 56140000 		.4byte	.LLST122
 6591 17b1 26       		.uleb128 0x26
ARM GAS  C:\Users\Petro\AppData\Local\Temp\ccEiKVD5.s 			page 136


 6592 17b2 793200   		.ascii	"y2\000"
 6593 17b5 02       		.byte	0x2
 6594 17b6 F902     		.2byte	0x2f9
 6595 17b8 2C000000 		.4byte	0x2c
 6596 17bc 75140000 		.4byte	.LLST123
 6597 17c0 14       		.uleb128 0x14
 6598 17c1 746D7000 		.ascii	"tmp\000"
 6599 17c5 02       		.byte	0x2
 6600 17c6 FB02     		.2byte	0x2fb
 6601 17c8 2C000000 		.4byte	0x2c
 6602 17cc 19       		.uleb128 0x19
 6603 17cd 44000000 		.4byte	.LVL368
 6604 17d1 53030000 		.4byte	0x353
 6605 17d5 E6170000 		.4byte	0x17e6
 6606 17d9 1A       		.uleb128 0x1a
 6607 17da 01       		.uleb128 0x1
 6608 17db 50       		.byte	0x50
 6609 17dc 02       		.uleb128 0x2
 6610 17dd 77       		.byte	0x77
 6611 17de 00       		.sleb128 0
 6612 17df 1A       		.uleb128 0x1a
 6613 17e0 01       		.uleb128 0x1
 6614 17e1 51       		.byte	0x51
 6615 17e2 02       		.uleb128 0x2
 6616 17e3 76       		.byte	0x76
 6617 17e4 00       		.sleb128 0
 6618 17e5 00       		.byte	0
 6619 17e6 19       		.uleb128 0x19
 6620 17e7 54000000 		.4byte	.LVL369
 6621 17eb 53030000 		.4byte	0x353
 6622 17ef 02180000 		.4byte	0x1802
 6623 17f3 1A       		.uleb128 0x1a
 6624 17f4 01       		.uleb128 0x1
 6625 17f5 50       		.byte	0x50
 6626 17f6 04       		.uleb128 0x4
 6627 17f7 91       		.byte	0x91
 6628 17f8 64       		.sleb128 -28
 6629 17f9 94       		.byte	0x94
 6630 17fa 02       		.byte	0x2
 6631 17fb 1A       		.uleb128 0x1a
 6632 17fc 01       		.uleb128 0x1
 6633 17fd 51       		.byte	0x51
 6634 17fe 02       		.uleb128 0x2
 6635 17ff 76       		.byte	0x76
 6636 1800 00       		.sleb128 0
 6637 1801 00       		.byte	0
 6638 1802 19       		.uleb128 0x19
 6639 1803 62000000 		.4byte	.LVL370
 6640 1807 53030000 		.4byte	0x353
 6641 180b 1C180000 		.4byte	0x181c
 6642 180f 1A       		.uleb128 0x1a
 6643 1810 01       		.uleb128 0x1
 6644 1811 50       		.byte	0x50
 6645 1812 02       		.uleb128 0x2
 6646 1813 77       		.byte	0x77
 6647 1814 00       		.sleb128 0
 6648 1815 1A       		.uleb128 0x1a
ARM GAS  C:\Users\Petro\AppData\Local\Temp\ccEiKVD5.s 			page 137


 6649 1816 01       		.uleb128 0x1
 6650 1817 51       		.byte	0x51
 6651 1818 02       		.uleb128 0x2
 6652 1819 76       		.byte	0x76
 6653 181a 00       		.sleb128 0
 6654 181b 00       		.byte	0
 6655 181c 19       		.uleb128 0x19
 6656 181d 6A000000 		.4byte	.LVL371
 6657 1821 53030000 		.4byte	0x353
 6658 1825 38180000 		.4byte	0x1838
 6659 1829 1A       		.uleb128 0x1a
 6660 182a 01       		.uleb128 0x1
 6661 182b 50       		.byte	0x50
 6662 182c 04       		.uleb128 0x4
 6663 182d 91       		.byte	0x91
 6664 182e 64       		.sleb128 -28
 6665 182f 94       		.byte	0x94
 6666 1830 02       		.byte	0x2
 6667 1831 1A       		.uleb128 0x1a
 6668 1832 01       		.uleb128 0x1
 6669 1833 51       		.byte	0x51
 6670 1834 02       		.uleb128 0x2
 6671 1835 76       		.byte	0x76
 6672 1836 00       		.sleb128 0
 6673 1837 00       		.byte	0
 6674 1838 19       		.uleb128 0x19
 6675 1839 7A000000 		.4byte	.LVL372
 6676 183d D5030000 		.4byte	0x3d5
 6677 1841 58180000 		.4byte	0x1858
 6678 1845 1A       		.uleb128 0x1a
 6679 1846 01       		.uleb128 0x1
 6680 1847 50       		.byte	0x50
 6681 1848 02       		.uleb128 0x2
 6682 1849 77       		.byte	0x77
 6683 184a 00       		.sleb128 0
 6684 184b 1A       		.uleb128 0x1a
 6685 184c 01       		.uleb128 0x1
 6686 184d 51       		.byte	0x51
 6687 184e 02       		.uleb128 0x2
 6688 184f 74       		.byte	0x74
 6689 1850 00       		.sleb128 0
 6690 1851 1A       		.uleb128 0x1a
 6691 1852 01       		.uleb128 0x1
 6692 1853 52       		.byte	0x52
 6693 1854 02       		.uleb128 0x2
 6694 1855 76       		.byte	0x76
 6695 1856 00       		.sleb128 0
 6696 1857 00       		.byte	0
 6697 1858 19       		.uleb128 0x19
 6698 1859 84000000 		.4byte	.LVL373
 6699 185d D5030000 		.4byte	0x3d5
 6700 1861 79180000 		.4byte	0x1879
 6701 1865 1A       		.uleb128 0x1a
 6702 1866 01       		.uleb128 0x1
 6703 1867 50       		.byte	0x50
 6704 1868 02       		.uleb128 0x2
 6705 1869 77       		.byte	0x77
ARM GAS  C:\Users\Petro\AppData\Local\Temp\ccEiKVD5.s 			page 138


 6706 186a 00       		.sleb128 0
 6707 186b 1A       		.uleb128 0x1a
 6708 186c 01       		.uleb128 0x1
 6709 186d 51       		.byte	0x51
 6710 186e 03       		.uleb128 0x3
 6711 186f 91       		.byte	0x91
 6712 1870 58       		.sleb128 -40
 6713 1871 06       		.byte	0x6
 6714 1872 1A       		.uleb128 0x1a
 6715 1873 01       		.uleb128 0x1
 6716 1874 52       		.byte	0x52
 6717 1875 02       		.uleb128 0x2
 6718 1876 76       		.byte	0x76
 6719 1877 00       		.sleb128 0
 6720 1878 00       		.byte	0
 6721 1879 19       		.uleb128 0x19
 6722 187a 94000000 		.4byte	.LVL375
 6723 187e 73040000 		.4byte	0x473
 6724 1882 99180000 		.4byte	0x1899
 6725 1886 1A       		.uleb128 0x1a
 6726 1887 01       		.uleb128 0x1
 6727 1888 50       		.byte	0x50
 6728 1889 02       		.uleb128 0x2
 6729 188a 75       		.byte	0x75
 6730 188b 00       		.sleb128 0
 6731 188c 1A       		.uleb128 0x1a
 6732 188d 01       		.uleb128 0x1
 6733 188e 51       		.byte	0x51
 6734 188f 02       		.uleb128 0x2
 6735 1890 74       		.byte	0x74
 6736 1891 00       		.sleb128 0
 6737 1892 1A       		.uleb128 0x1a
 6738 1893 01       		.uleb128 0x1
 6739 1894 52       		.byte	0x52
 6740 1895 02       		.uleb128 0x2
 6741 1896 76       		.byte	0x76
 6742 1897 00       		.sleb128 0
 6743 1898 00       		.byte	0
 6744 1899 1B       		.uleb128 0x1b
 6745 189a 9E000000 		.4byte	.LVL376
 6746 189e 73040000 		.4byte	0x473
 6747 18a2 1A       		.uleb128 0x1a
 6748 18a3 01       		.uleb128 0x1
 6749 18a4 50       		.byte	0x50
 6750 18a5 03       		.uleb128 0x3
 6751 18a6 91       		.byte	0x91
 6752 18a7 54       		.sleb128 -44
 6753 18a8 06       		.byte	0x6
 6754 18a9 1A       		.uleb128 0x1a
 6755 18aa 01       		.uleb128 0x1
 6756 18ab 51       		.byte	0x51
 6757 18ac 02       		.uleb128 0x2
 6758 18ad 74       		.byte	0x74
 6759 18ae 00       		.sleb128 0
 6760 18af 1A       		.uleb128 0x1a
 6761 18b0 01       		.uleb128 0x1
 6762 18b1 52       		.byte	0x52
ARM GAS  C:\Users\Petro\AppData\Local\Temp\ccEiKVD5.s 			page 139


 6763 18b2 02       		.uleb128 0x2
 6764 18b3 76       		.byte	0x76
 6765 18b4 00       		.sleb128 0
 6766 18b5 00       		.byte	0
 6767 18b6 00       		.byte	0
 6768 18b7 25       		.uleb128 0x25
 6769 18b8 FA080000 		.4byte	.LASF144
 6770 18bc 02       		.byte	0x2
 6771 18bd 1603     		.2byte	0x316
 6772 18bf 00000000 		.4byte	.LFB93
 6773 18c3 08010000 		.4byte	.LFE93-.LFB93
 6774 18c7 01       		.uleb128 0x1
 6775 18c8 9C       		.byte	0x9c
 6776 18c9 A21A0000 		.4byte	0x1aa2
 6777 18cd 26       		.uleb128 0x26
 6778 18ce 7800     		.ascii	"x\000"
 6779 18d0 02       		.byte	0x2
 6780 18d1 1603     		.2byte	0x316
 6781 18d3 2C000000 		.4byte	0x2c
 6782 18d7 94140000 		.4byte	.LLST124
 6783 18db 26       		.uleb128 0x26
 6784 18dc 7900     		.ascii	"y\000"
 6785 18de 02       		.byte	0x2
 6786 18df 1603     		.2byte	0x316
 6787 18e1 2C000000 		.4byte	0x2c
 6788 18e5 B5140000 		.4byte	.LLST125
 6789 18e9 2B       		.uleb128 0x2b
 6790 18ea 4B0B0000 		.4byte	.LASF145
 6791 18ee 02       		.byte	0x2
 6792 18ef 1603     		.2byte	0x316
 6793 18f1 2C000000 		.4byte	0x2c
 6794 18f5 D6140000 		.4byte	.LLST126
 6795 18f9 29       		.uleb128 0x29
 6796 18fa 6600     		.ascii	"f\000"
 6797 18fc 02       		.byte	0x2
 6798 18fd 1803     		.2byte	0x318
 6799 18ff 2C000000 		.4byte	0x2c
 6800 1903 03150000 		.4byte	.LLST127
 6801 1907 28       		.uleb128 0x28
 6802 1908 7B040000 		.4byte	.LASF146
 6803 190c 02       		.byte	0x2
 6804 190d 1903     		.2byte	0x319
 6805 190f 2C000000 		.4byte	0x2c
 6806 1913 39150000 		.4byte	.LLST128
 6807 1917 28       		.uleb128 0x28
 6808 1918 81040000 		.4byte	.LASF147
 6809 191c 02       		.byte	0x2
 6810 191d 1A03     		.2byte	0x31a
 6811 191f 2C000000 		.4byte	0x2c
 6812 1923 B0150000 		.4byte	.LLST129
 6813 1927 29       		.uleb128 0x29
 6814 1928 783100   		.ascii	"x1\000"
 6815 192b 02       		.byte	0x2
 6816 192c 1B03     		.2byte	0x31b
 6817 192e 2C000000 		.4byte	0x2c
 6818 1932 F1150000 		.4byte	.LLST130
 6819 1936 29       		.uleb128 0x29
ARM GAS  C:\Users\Petro\AppData\Local\Temp\ccEiKVD5.s 			page 140


 6820 1937 793100   		.ascii	"y1\000"
 6821 193a 02       		.byte	0x2
 6822 193b 1C03     		.2byte	0x31c
 6823 193d 2C000000 		.4byte	0x2c
 6824 1941 33160000 		.4byte	.LLST131
 6825 1945 14       		.uleb128 0x14
 6826 1946 636800   		.ascii	"ch\000"
 6827 1949 02       		.byte	0x2
 6828 194a 1D03     		.2byte	0x31d
 6829 194c BD000000 		.4byte	0xbd
 6830 1950 14       		.uleb128 0x14
 6831 1951 636C00   		.ascii	"cl\000"
 6832 1954 02       		.byte	0x2
 6833 1955 1D03     		.2byte	0x31d
 6834 1957 BD000000 		.4byte	0xbd
 6835 195b 19       		.uleb128 0x19
 6836 195c 26000000 		.4byte	.LVL386
 6837 1960 20030000 		.4byte	0x320
 6838 1964 7A190000 		.4byte	0x197a
 6839 1968 1A       		.uleb128 0x1a
 6840 1969 01       		.uleb128 0x1
 6841 196a 50       		.byte	0x50
 6842 196b 04       		.uleb128 0x4
 6843 196c 91       		.byte	0x91
 6844 196d 4C       		.sleb128 -52
 6845 196e 94       		.byte	0x94
 6846 196f 02       		.byte	0x2
 6847 1970 1A       		.uleb128 0x1a
 6848 1971 01       		.uleb128 0x1
 6849 1972 51       		.byte	0x51
 6850 1973 05       		.uleb128 0x5
 6851 1974 74       		.byte	0x74
 6852 1975 00       		.sleb128 0
 6853 1976 75       		.byte	0x75
 6854 1977 00       		.sleb128 0
 6855 1978 22       		.byte	0x22
 6856 1979 00       		.byte	0
 6857 197a 19       		.uleb128 0x19
 6858 197b 30000000 		.4byte	.LVL387
 6859 197f 20030000 		.4byte	0x320
 6860 1983 99190000 		.4byte	0x1999
 6861 1987 1A       		.uleb128 0x1a
 6862 1988 01       		.uleb128 0x1
 6863 1989 50       		.byte	0x50
 6864 198a 04       		.uleb128 0x4
 6865 198b 91       		.byte	0x91
 6866 198c 4C       		.sleb128 -52
 6867 198d 94       		.byte	0x94
 6868 198e 02       		.byte	0x2
 6869 198f 1A       		.uleb128 0x1a
 6870 1990 01       		.uleb128 0x1
 6871 1991 51       		.byte	0x51
 6872 1992 05       		.uleb128 0x5
 6873 1993 74       		.byte	0x74
 6874 1994 00       		.sleb128 0
 6875 1995 75       		.byte	0x75
 6876 1996 00       		.sleb128 0
ARM GAS  C:\Users\Petro\AppData\Local\Temp\ccEiKVD5.s 			page 141


 6877 1997 1C       		.byte	0x1c
 6878 1998 00       		.byte	0
 6879 1999 19       		.uleb128 0x19
 6880 199a 3C000000 		.4byte	.LVL388
 6881 199e 20030000 		.4byte	0x320
 6882 19a2 B7190000 		.4byte	0x19b7
 6883 19a6 1A       		.uleb128 0x1a
 6884 19a7 01       		.uleb128 0x1
 6885 19a8 50       		.byte	0x50
 6886 19a9 06       		.uleb128 0x6
 6887 19aa 91       		.byte	0x91
 6888 19ab 4C       		.sleb128 -52
 6889 19ac 06       		.byte	0x6
 6890 19ad 75       		.byte	0x75
 6891 19ae 00       		.sleb128 0
 6892 19af 22       		.byte	0x22
 6893 19b0 1A       		.uleb128 0x1a
 6894 19b1 01       		.uleb128 0x1
 6895 19b2 51       		.byte	0x51
 6896 19b3 02       		.uleb128 0x2
 6897 19b4 74       		.byte	0x74
 6898 19b5 00       		.sleb128 0
 6899 19b6 00       		.byte	0
 6900 19b7 19       		.uleb128 0x19
 6901 19b8 48000000 		.4byte	.LVL389
 6902 19bc 20030000 		.4byte	0x320
 6903 19c0 D5190000 		.4byte	0x19d5
 6904 19c4 1A       		.uleb128 0x1a
 6905 19c5 01       		.uleb128 0x1
 6906 19c6 50       		.byte	0x50
 6907 19c7 06       		.uleb128 0x6
 6908 19c8 91       		.byte	0x91
 6909 19c9 4C       		.sleb128 -52
 6910 19ca 06       		.byte	0x6
 6911 19cb 75       		.byte	0x75
 6912 19cc 00       		.sleb128 0
 6913 19cd 1C       		.byte	0x1c
 6914 19ce 1A       		.uleb128 0x1a
 6915 19cf 01       		.uleb128 0x1
 6916 19d0 51       		.byte	0x51
 6917 19d1 02       		.uleb128 0x2
 6918 19d2 74       		.byte	0x74
 6919 19d3 00       		.sleb128 0
 6920 19d4 00       		.byte	0
 6921 19d5 19       		.uleb128 0x19
 6922 19d6 A0000000 		.4byte	.LVL402
 6923 19da 20030000 		.4byte	0x320
 6924 19de EF190000 		.4byte	0x19ef
 6925 19e2 1A       		.uleb128 0x1a
 6926 19e3 01       		.uleb128 0x1
 6927 19e4 50       		.byte	0x50
 6928 19e5 02       		.uleb128 0x2
 6929 19e6 77       		.byte	0x77
 6930 19e7 00       		.sleb128 0
 6931 19e8 1A       		.uleb128 0x1a
 6932 19e9 01       		.uleb128 0x1
 6933 19ea 51       		.byte	0x51
ARM GAS  C:\Users\Petro\AppData\Local\Temp\ccEiKVD5.s 			page 142


 6934 19eb 02       		.uleb128 0x2
 6935 19ec 76       		.byte	0x76
 6936 19ed 00       		.sleb128 0
 6937 19ee 00       		.byte	0
 6938 19ef 19       		.uleb128 0x19
 6939 19f0 B0000000 		.4byte	.LVL403
 6940 19f4 20030000 		.4byte	0x320
 6941 19f8 091A0000 		.4byte	0x1a09
 6942 19fc 1A       		.uleb128 0x1a
 6943 19fd 01       		.uleb128 0x1
 6944 19fe 50       		.byte	0x50
 6945 19ff 02       		.uleb128 0x2
 6946 1a00 75       		.byte	0x75
 6947 1a01 00       		.sleb128 0
 6948 1a02 1A       		.uleb128 0x1a
 6949 1a03 01       		.uleb128 0x1
 6950 1a04 51       		.byte	0x51
 6951 1a05 02       		.uleb128 0x2
 6952 1a06 76       		.byte	0x76
 6953 1a07 00       		.sleb128 0
 6954 1a08 00       		.byte	0
 6955 1a09 19       		.uleb128 0x19
 6956 1a0a BE000000 		.4byte	.LVL404
 6957 1a0e 20030000 		.4byte	0x320
 6958 1a12 231A0000 		.4byte	0x1a23
 6959 1a16 1A       		.uleb128 0x1a
 6960 1a17 01       		.uleb128 0x1
 6961 1a18 50       		.byte	0x50
 6962 1a19 02       		.uleb128 0x2
 6963 1a1a 77       		.byte	0x77
 6964 1a1b 00       		.sleb128 0
 6965 1a1c 1A       		.uleb128 0x1a
 6966 1a1d 01       		.uleb128 0x1
 6967 1a1e 51       		.byte	0x51
 6968 1a1f 02       		.uleb128 0x2
 6969 1a20 76       		.byte	0x76
 6970 1a21 00       		.sleb128 0
 6971 1a22 00       		.byte	0
 6972 1a23 19       		.uleb128 0x19
 6973 1a24 C6000000 		.4byte	.LVL405
 6974 1a28 20030000 		.4byte	0x320
 6975 1a2c 3D1A0000 		.4byte	0x1a3d
 6976 1a30 1A       		.uleb128 0x1a
 6977 1a31 01       		.uleb128 0x1
 6978 1a32 50       		.byte	0x50
 6979 1a33 02       		.uleb128 0x2
 6980 1a34 75       		.byte	0x75
 6981 1a35 00       		.sleb128 0
 6982 1a36 1A       		.uleb128 0x1a
 6983 1a37 01       		.uleb128 0x1
 6984 1a38 51       		.byte	0x51
 6985 1a39 02       		.uleb128 0x2
 6986 1a3a 76       		.byte	0x76
 6987 1a3b 00       		.sleb128 0
 6988 1a3c 00       		.byte	0
 6989 1a3d 19       		.uleb128 0x19
 6990 1a3e DC000000 		.4byte	.LVL406
ARM GAS  C:\Users\Petro\AppData\Local\Temp\ccEiKVD5.s 			page 143


 6991 1a42 20030000 		.4byte	0x320
 6992 1a46 571A0000 		.4byte	0x1a57
 6993 1a4a 1A       		.uleb128 0x1a
 6994 1a4b 01       		.uleb128 0x1
 6995 1a4c 50       		.byte	0x50
 6996 1a4d 02       		.uleb128 0x2
 6997 1a4e 77       		.byte	0x77
 6998 1a4f 00       		.sleb128 0
 6999 1a50 1A       		.uleb128 0x1a
 7000 1a51 01       		.uleb128 0x1
 7001 1a52 51       		.byte	0x51
 7002 1a53 02       		.uleb128 0x2
 7003 1a54 76       		.byte	0x76
 7004 1a55 00       		.sleb128 0
 7005 1a56 00       		.byte	0
 7006 1a57 19       		.uleb128 0x19
 7007 1a58 EC000000 		.4byte	.LVL407
 7008 1a5c 20030000 		.4byte	0x320
 7009 1a60 711A0000 		.4byte	0x1a71
 7010 1a64 1A       		.uleb128 0x1a
 7011 1a65 01       		.uleb128 0x1
 7012 1a66 50       		.byte	0x50
 7013 1a67 02       		.uleb128 0x2
 7014 1a68 75       		.byte	0x75
 7015 1a69 00       		.sleb128 0
 7016 1a6a 1A       		.uleb128 0x1a
 7017 1a6b 01       		.uleb128 0x1
 7018 1a6c 51       		.byte	0x51
 7019 1a6d 02       		.uleb128 0x2
 7020 1a6e 76       		.byte	0x76
 7021 1a6f 00       		.sleb128 0
 7022 1a70 00       		.byte	0
 7023 1a71 19       		.uleb128 0x19
 7024 1a72 FA000000 		.4byte	.LVL408
 7025 1a76 20030000 		.4byte	0x320
 7026 1a7a 8B1A0000 		.4byte	0x1a8b
 7027 1a7e 1A       		.uleb128 0x1a
 7028 1a7f 01       		.uleb128 0x1
 7029 1a80 50       		.byte	0x50
 7030 1a81 02       		.uleb128 0x2
 7031 1a82 77       		.byte	0x77
 7032 1a83 00       		.sleb128 0
 7033 1a84 1A       		.uleb128 0x1a
 7034 1a85 01       		.uleb128 0x1
 7035 1a86 51       		.byte	0x51
 7036 1a87 02       		.uleb128 0x2
 7037 1a88 76       		.byte	0x76
 7038 1a89 00       		.sleb128 0
 7039 1a8a 00       		.byte	0
 7040 1a8b 1B       		.uleb128 0x1b
 7041 1a8c 02010000 		.4byte	.LVL409
 7042 1a90 20030000 		.4byte	0x320
 7043 1a94 1A       		.uleb128 0x1a
 7044 1a95 01       		.uleb128 0x1
 7045 1a96 50       		.byte	0x50
 7046 1a97 02       		.uleb128 0x2
 7047 1a98 75       		.byte	0x75
ARM GAS  C:\Users\Petro\AppData\Local\Temp\ccEiKVD5.s 			page 144


 7048 1a99 00       		.sleb128 0
 7049 1a9a 1A       		.uleb128 0x1a
 7050 1a9b 01       		.uleb128 0x1
 7051 1a9c 51       		.byte	0x51
 7052 1a9d 02       		.uleb128 0x2
 7053 1a9e 76       		.byte	0x76
 7054 1a9f 00       		.sleb128 0
 7055 1aa0 00       		.byte	0
 7056 1aa1 00       		.byte	0
 7057 1aa2 25       		.uleb128 0x25
 7058 1aa3 B6020000 		.4byte	.LASF148
 7059 1aa7 02       		.byte	0x2
 7060 1aa8 3A03     		.2byte	0x33a
 7061 1aaa 00000000 		.4byte	.LFB94
 7062 1aae 08010000 		.4byte	.LFE94-.LFB94
 7063 1ab2 01       		.uleb128 0x1
 7064 1ab3 9C       		.byte	0x9c
 7065 1ab4 8D1C0000 		.4byte	0x1c8d
 7066 1ab8 26       		.uleb128 0x26
 7067 1ab9 7800     		.ascii	"x\000"
 7068 1abb 02       		.byte	0x2
 7069 1abc 3A03     		.2byte	0x33a
 7070 1abe 2C000000 		.4byte	0x2c
 7071 1ac2 75160000 		.4byte	.LLST132
 7072 1ac6 26       		.uleb128 0x26
 7073 1ac7 7900     		.ascii	"y\000"
 7074 1ac9 02       		.byte	0x2
 7075 1aca 3A03     		.2byte	0x33a
 7076 1acc 2C000000 		.4byte	0x2c
 7077 1ad0 96160000 		.4byte	.LLST133
 7078 1ad4 2B       		.uleb128 0x2b
 7079 1ad5 4B0B0000 		.4byte	.LASF145
 7080 1ad9 02       		.byte	0x2
 7081 1ada 3A03     		.2byte	0x33a
 7082 1adc 2C000000 		.4byte	0x2c
 7083 1ae0 B7160000 		.4byte	.LLST134
 7084 1ae4 29       		.uleb128 0x29
 7085 1ae5 6600     		.ascii	"f\000"
 7086 1ae7 02       		.byte	0x2
 7087 1ae8 3C03     		.2byte	0x33c
 7088 1aea 2C000000 		.4byte	0x2c
 7089 1aee E4160000 		.4byte	.LLST135
 7090 1af2 28       		.uleb128 0x28
 7091 1af3 7B040000 		.4byte	.LASF146
 7092 1af7 02       		.byte	0x2
 7093 1af8 3D03     		.2byte	0x33d
 7094 1afa 2C000000 		.4byte	0x2c
 7095 1afe 1A170000 		.4byte	.LLST136
 7096 1b02 28       		.uleb128 0x28
 7097 1b03 81040000 		.4byte	.LASF147
 7098 1b07 02       		.byte	0x2
 7099 1b08 3E03     		.2byte	0x33e
 7100 1b0a 2C000000 		.4byte	0x2c
 7101 1b0e 91170000 		.4byte	.LLST137
 7102 1b12 29       		.uleb128 0x29
 7103 1b13 783100   		.ascii	"x1\000"
 7104 1b16 02       		.byte	0x2
ARM GAS  C:\Users\Petro\AppData\Local\Temp\ccEiKVD5.s 			page 145


 7105 1b17 3F03     		.2byte	0x33f
 7106 1b19 2C000000 		.4byte	0x2c
 7107 1b1d D2170000 		.4byte	.LLST138
 7108 1b21 29       		.uleb128 0x29
 7109 1b22 793100   		.ascii	"y1\000"
 7110 1b25 02       		.byte	0x2
 7111 1b26 4003     		.2byte	0x340
 7112 1b28 2C000000 		.4byte	0x2c
 7113 1b2c 14180000 		.4byte	.LLST139
 7114 1b30 14       		.uleb128 0x14
 7115 1b31 636800   		.ascii	"ch\000"
 7116 1b34 02       		.byte	0x2
 7117 1b35 4103     		.2byte	0x341
 7118 1b37 BD000000 		.4byte	0xbd
 7119 1b3b 14       		.uleb128 0x14
 7120 1b3c 636C00   		.ascii	"cl\000"
 7121 1b3f 02       		.byte	0x2
 7122 1b40 4103     		.2byte	0x341
 7123 1b42 BD000000 		.4byte	0xbd
 7124 1b46 19       		.uleb128 0x19
 7125 1b47 26000000 		.4byte	.LVL419
 7126 1b4b 53030000 		.4byte	0x353
 7127 1b4f 651B0000 		.4byte	0x1b65
 7128 1b53 1A       		.uleb128 0x1a
 7129 1b54 01       		.uleb128 0x1
 7130 1b55 50       		.byte	0x50
 7131 1b56 04       		.uleb128 0x4
 7132 1b57 91       		.byte	0x91
 7133 1b58 4C       		.sleb128 -52
 7134 1b59 94       		.byte	0x94
 7135 1b5a 02       		.byte	0x2
 7136 1b5b 1A       		.uleb128 0x1a
 7137 1b5c 01       		.uleb128 0x1
 7138 1b5d 51       		.byte	0x51
 7139 1b5e 05       		.uleb128 0x5
 7140 1b5f 74       		.byte	0x74
 7141 1b60 00       		.sleb128 0
 7142 1b61 75       		.byte	0x75
 7143 1b62 00       		.sleb128 0
 7144 1b63 22       		.byte	0x22
 7145 1b64 00       		.byte	0
 7146 1b65 19       		.uleb128 0x19
 7147 1b66 30000000 		.4byte	.LVL420
 7148 1b6a 53030000 		.4byte	0x353
 7149 1b6e 841B0000 		.4byte	0x1b84
 7150 1b72 1A       		.uleb128 0x1a
 7151 1b73 01       		.uleb128 0x1
 7152 1b74 50       		.byte	0x50
 7153 1b75 04       		.uleb128 0x4
 7154 1b76 91       		.byte	0x91
 7155 1b77 4C       		.sleb128 -52
 7156 1b78 94       		.byte	0x94
 7157 1b79 02       		.byte	0x2
 7158 1b7a 1A       		.uleb128 0x1a
 7159 1b7b 01       		.uleb128 0x1
 7160 1b7c 51       		.byte	0x51
 7161 1b7d 05       		.uleb128 0x5
ARM GAS  C:\Users\Petro\AppData\Local\Temp\ccEiKVD5.s 			page 146


 7162 1b7e 74       		.byte	0x74
 7163 1b7f 00       		.sleb128 0
 7164 1b80 75       		.byte	0x75
 7165 1b81 00       		.sleb128 0
 7166 1b82 1C       		.byte	0x1c
 7167 1b83 00       		.byte	0
 7168 1b84 19       		.uleb128 0x19
 7169 1b85 3C000000 		.4byte	.LVL421
 7170 1b89 53030000 		.4byte	0x353
 7171 1b8d A21B0000 		.4byte	0x1ba2
 7172 1b91 1A       		.uleb128 0x1a
 7173 1b92 01       		.uleb128 0x1
 7174 1b93 50       		.byte	0x50
 7175 1b94 06       		.uleb128 0x6
 7176 1b95 91       		.byte	0x91
 7177 1b96 4C       		.sleb128 -52
 7178 1b97 06       		.byte	0x6
 7179 1b98 75       		.byte	0x75
 7180 1b99 00       		.sleb128 0
 7181 1b9a 22       		.byte	0x22
 7182 1b9b 1A       		.uleb128 0x1a
 7183 1b9c 01       		.uleb128 0x1
 7184 1b9d 51       		.byte	0x51
 7185 1b9e 02       		.uleb128 0x2
 7186 1b9f 74       		.byte	0x74
 7187 1ba0 00       		.sleb128 0
 7188 1ba1 00       		.byte	0
 7189 1ba2 19       		.uleb128 0x19
 7190 1ba3 48000000 		.4byte	.LVL422
 7191 1ba7 53030000 		.4byte	0x353
 7192 1bab C01B0000 		.4byte	0x1bc0
 7193 1baf 1A       		.uleb128 0x1a
 7194 1bb0 01       		.uleb128 0x1
 7195 1bb1 50       		.byte	0x50
 7196 1bb2 06       		.uleb128 0x6
 7197 1bb3 91       		.byte	0x91
 7198 1bb4 4C       		.sleb128 -52
 7199 1bb5 06       		.byte	0x6
 7200 1bb6 75       		.byte	0x75
 7201 1bb7 00       		.sleb128 0
 7202 1bb8 1C       		.byte	0x1c
 7203 1bb9 1A       		.uleb128 0x1a
 7204 1bba 01       		.uleb128 0x1
 7205 1bbb 51       		.byte	0x51
 7206 1bbc 02       		.uleb128 0x2
 7207 1bbd 74       		.byte	0x74
 7208 1bbe 00       		.sleb128 0
 7209 1bbf 00       		.byte	0
 7210 1bc0 19       		.uleb128 0x19
 7211 1bc1 A0000000 		.4byte	.LVL435
 7212 1bc5 53030000 		.4byte	0x353
 7213 1bc9 DA1B0000 		.4byte	0x1bda
 7214 1bcd 1A       		.uleb128 0x1a
 7215 1bce 01       		.uleb128 0x1
 7216 1bcf 50       		.byte	0x50
 7217 1bd0 02       		.uleb128 0x2
 7218 1bd1 77       		.byte	0x77
ARM GAS  C:\Users\Petro\AppData\Local\Temp\ccEiKVD5.s 			page 147


 7219 1bd2 00       		.sleb128 0
 7220 1bd3 1A       		.uleb128 0x1a
 7221 1bd4 01       		.uleb128 0x1
 7222 1bd5 51       		.byte	0x51
 7223 1bd6 02       		.uleb128 0x2
 7224 1bd7 76       		.byte	0x76
 7225 1bd8 00       		.sleb128 0
 7226 1bd9 00       		.byte	0
 7227 1bda 19       		.uleb128 0x19
 7228 1bdb B0000000 		.4byte	.LVL436
 7229 1bdf 53030000 		.4byte	0x353
 7230 1be3 F41B0000 		.4byte	0x1bf4
 7231 1be7 1A       		.uleb128 0x1a
 7232 1be8 01       		.uleb128 0x1
 7233 1be9 50       		.byte	0x50
 7234 1bea 02       		.uleb128 0x2
 7235 1beb 75       		.byte	0x75
 7236 1bec 00       		.sleb128 0
 7237 1bed 1A       		.uleb128 0x1a
 7238 1bee 01       		.uleb128 0x1
 7239 1bef 51       		.byte	0x51
 7240 1bf0 02       		.uleb128 0x2
 7241 1bf1 76       		.byte	0x76
 7242 1bf2 00       		.sleb128 0
 7243 1bf3 00       		.byte	0
 7244 1bf4 19       		.uleb128 0x19
 7245 1bf5 BE000000 		.4byte	.LVL437
 7246 1bf9 53030000 		.4byte	0x353
 7247 1bfd 0E1C0000 		.4byte	0x1c0e
 7248 1c01 1A       		.uleb128 0x1a
 7249 1c02 01       		.uleb128 0x1
 7250 1c03 50       		.byte	0x50
 7251 1c04 02       		.uleb128 0x2
 7252 1c05 77       		.byte	0x77
 7253 1c06 00       		.sleb128 0
 7254 1c07 1A       		.uleb128 0x1a
 7255 1c08 01       		.uleb128 0x1
 7256 1c09 51       		.byte	0x51
 7257 1c0a 02       		.uleb128 0x2
 7258 1c0b 76       		.byte	0x76
 7259 1c0c 00       		.sleb128 0
 7260 1c0d 00       		.byte	0
 7261 1c0e 19       		.uleb128 0x19
 7262 1c0f C6000000 		.4byte	.LVL438
 7263 1c13 53030000 		.4byte	0x353
 7264 1c17 281C0000 		.4byte	0x1c28
 7265 1c1b 1A       		.uleb128 0x1a
 7266 1c1c 01       		.uleb128 0x1
 7267 1c1d 50       		.byte	0x50
 7268 1c1e 02       		.uleb128 0x2
 7269 1c1f 75       		.byte	0x75
 7270 1c20 00       		.sleb128 0
 7271 1c21 1A       		.uleb128 0x1a
 7272 1c22 01       		.uleb128 0x1
 7273 1c23 51       		.byte	0x51
 7274 1c24 02       		.uleb128 0x2
 7275 1c25 76       		.byte	0x76
ARM GAS  C:\Users\Petro\AppData\Local\Temp\ccEiKVD5.s 			page 148


 7276 1c26 00       		.sleb128 0
 7277 1c27 00       		.byte	0
 7278 1c28 19       		.uleb128 0x19
 7279 1c29 DC000000 		.4byte	.LVL439
 7280 1c2d 53030000 		.4byte	0x353
 7281 1c31 421C0000 		.4byte	0x1c42
 7282 1c35 1A       		.uleb128 0x1a
 7283 1c36 01       		.uleb128 0x1
 7284 1c37 50       		.byte	0x50
 7285 1c38 02       		.uleb128 0x2
 7286 1c39 77       		.byte	0x77
 7287 1c3a 00       		.sleb128 0
 7288 1c3b 1A       		.uleb128 0x1a
 7289 1c3c 01       		.uleb128 0x1
 7290 1c3d 51       		.byte	0x51
 7291 1c3e 02       		.uleb128 0x2
 7292 1c3f 76       		.byte	0x76
 7293 1c40 00       		.sleb128 0
 7294 1c41 00       		.byte	0
 7295 1c42 19       		.uleb128 0x19
 7296 1c43 EC000000 		.4byte	.LVL440
 7297 1c47 53030000 		.4byte	0x353
 7298 1c4b 5C1C0000 		.4byte	0x1c5c
 7299 1c4f 1A       		.uleb128 0x1a
 7300 1c50 01       		.uleb128 0x1
 7301 1c51 50       		.byte	0x50
 7302 1c52 02       		.uleb128 0x2
 7303 1c53 75       		.byte	0x75
 7304 1c54 00       		.sleb128 0
 7305 1c55 1A       		.uleb128 0x1a
 7306 1c56 01       		.uleb128 0x1
 7307 1c57 51       		.byte	0x51
 7308 1c58 02       		.uleb128 0x2
 7309 1c59 76       		.byte	0x76
 7310 1c5a 00       		.sleb128 0
 7311 1c5b 00       		.byte	0
 7312 1c5c 19       		.uleb128 0x19
 7313 1c5d FA000000 		.4byte	.LVL441
 7314 1c61 53030000 		.4byte	0x353
 7315 1c65 761C0000 		.4byte	0x1c76
 7316 1c69 1A       		.uleb128 0x1a
 7317 1c6a 01       		.uleb128 0x1
 7318 1c6b 50       		.byte	0x50
 7319 1c6c 02       		.uleb128 0x2
 7320 1c6d 77       		.byte	0x77
 7321 1c6e 00       		.sleb128 0
 7322 1c6f 1A       		.uleb128 0x1a
 7323 1c70 01       		.uleb128 0x1
 7324 1c71 51       		.byte	0x51
 7325 1c72 02       		.uleb128 0x2
 7326 1c73 76       		.byte	0x76
 7327 1c74 00       		.sleb128 0
 7328 1c75 00       		.byte	0
 7329 1c76 1B       		.uleb128 0x1b
 7330 1c77 02010000 		.4byte	.LVL442
 7331 1c7b 53030000 		.4byte	0x353
 7332 1c7f 1A       		.uleb128 0x1a
ARM GAS  C:\Users\Petro\AppData\Local\Temp\ccEiKVD5.s 			page 149


 7333 1c80 01       		.uleb128 0x1
 7334 1c81 50       		.byte	0x50
 7335 1c82 02       		.uleb128 0x2
 7336 1c83 75       		.byte	0x75
 7337 1c84 00       		.sleb128 0
 7338 1c85 1A       		.uleb128 0x1a
 7339 1c86 01       		.uleb128 0x1
 7340 1c87 51       		.byte	0x51
 7341 1c88 02       		.uleb128 0x2
 7342 1c89 76       		.byte	0x76
 7343 1c8a 00       		.sleb128 0
 7344 1c8b 00       		.byte	0
 7345 1c8c 00       		.byte	0
 7346 1c8d 25       		.uleb128 0x25
 7347 1c8e E4090000 		.4byte	.LASF149
 7348 1c92 02       		.byte	0x2
 7349 1c93 5E03     		.2byte	0x35e
 7350 1c95 00000000 		.4byte	.LFB95
 7351 1c99 7C000000 		.4byte	.LFE95-.LFB95
 7352 1c9d 01       		.uleb128 0x1
 7353 1c9e 9C       		.byte	0x9c
 7354 1c9f 581D0000 		.4byte	0x1d58
 7355 1ca3 26       		.uleb128 0x26
 7356 1ca4 7800     		.ascii	"x\000"
 7357 1ca6 02       		.byte	0x2
 7358 1ca7 5E03     		.2byte	0x35e
 7359 1ca9 2C000000 		.4byte	0x2c
 7360 1cad 56180000 		.4byte	.LLST140
 7361 1cb1 26       		.uleb128 0x26
 7362 1cb2 7900     		.ascii	"y\000"
 7363 1cb4 02       		.byte	0x2
 7364 1cb5 5E03     		.2byte	0x35e
 7365 1cb7 2C000000 		.4byte	0x2c
 7366 1cbb 75180000 		.4byte	.LLST141
 7367 1cbf 2B       		.uleb128 0x2b
 7368 1cc0 0C0C0000 		.4byte	.LASF150
 7369 1cc4 02       		.byte	0x2
 7370 1cc5 5E03     		.2byte	0x35e
 7371 1cc7 F7020000 		.4byte	0x2f7
 7372 1ccb 96180000 		.4byte	.LLST142
 7373 1ccf 26       		.uleb128 0x26
 7374 1cd0 737800   		.ascii	"sx\000"
 7375 1cd3 02       		.byte	0x2
 7376 1cd4 5E03     		.2byte	0x35e
 7377 1cd6 2C000000 		.4byte	0x2c
 7378 1cda B5180000 		.4byte	.LLST143
 7379 1cde 31       		.uleb128 0x31
 7380 1cdf 737900   		.ascii	"sy\000"
 7381 1ce2 02       		.byte	0x2
 7382 1ce3 5E03     		.2byte	0x35e
 7383 1ce5 2C000000 		.4byte	0x2c
 7384 1ce9 02       		.uleb128 0x2
 7385 1cea 91       		.byte	0x91
 7386 1ceb 00       		.sleb128 0
 7387 1cec 29       		.uleb128 0x29
 7388 1ced 62697400 		.ascii	"bit\000"
 7389 1cf1 02       		.byte	0x2
ARM GAS  C:\Users\Petro\AppData\Local\Temp\ccEiKVD5.s 			page 150


 7390 1cf2 6003     		.2byte	0x360
 7391 1cf4 2C000000 		.4byte	0x2c
 7392 1cf8 D4180000 		.4byte	.LLST144
 7393 1cfc 28       		.uleb128 0x28
 7394 1cfd 97040000 		.4byte	.LASF109
 7395 1d01 02       		.byte	0x2
 7396 1d02 6103     		.2byte	0x361
 7397 1d04 8F000000 		.4byte	0x8f
 7398 1d08 02190000 		.4byte	.LLST145
 7399 1d0c 29       		.uleb128 0x29
 7400 1d0d 637900   		.ascii	"cy\000"
 7401 1d10 02       		.byte	0x2
 7402 1d11 6303     		.2byte	0x363
 7403 1d13 2C000000 		.4byte	0x2c
 7404 1d17 32190000 		.4byte	.LLST146
 7405 1d1b 20       		.uleb128 0x20
 7406 1d1c 14000000 		.4byte	.LBB68
 7407 1d20 58000000 		.4byte	.LBE68-.LBB68
 7408 1d24 29       		.uleb128 0x29
 7409 1d25 637800   		.ascii	"cx\000"
 7410 1d28 02       		.byte	0x2
 7411 1d29 6703     		.2byte	0x367
 7412 1d2b 2C000000 		.4byte	0x2c
 7413 1d2f 51190000 		.4byte	.LLST147
 7414 1d33 19       		.uleb128 0x19
 7415 1d34 5C000000 		.4byte	.LVL449
 7416 1d38 20030000 		.4byte	0x320
 7417 1d3c 4D1D0000 		.4byte	0x1d4d
 7418 1d40 1A       		.uleb128 0x1a
 7419 1d41 01       		.uleb128 0x1
 7420 1d42 50       		.byte	0x50
 7421 1d43 02       		.uleb128 0x2
 7422 1d44 76       		.byte	0x76
 7423 1d45 00       		.sleb128 0
 7424 1d46 1A       		.uleb128 0x1a
 7425 1d47 01       		.uleb128 0x1
 7426 1d48 51       		.byte	0x51
 7427 1d49 02       		.uleb128 0x2
 7428 1d4a 74       		.byte	0x74
 7429 1d4b 00       		.sleb128 0
 7430 1d4c 00       		.byte	0
 7431 1d4d 1C       		.uleb128 0x1c
 7432 1d4e 62000000 		.4byte	.LVL451
 7433 1d52 53030000 		.4byte	0x353
 7434 1d56 00       		.byte	0
 7435 1d57 00       		.byte	0
 7436 1d58 07       		.uleb128 0x7
 7437 1d59 681D0000 		.4byte	0x1d68
 7438 1d5d 681D0000 		.4byte	0x1d68
 7439 1d61 08       		.uleb128 0x8
 7440 1d62 CB000000 		.4byte	0xcb
 7441 1d66 0B       		.byte	0xb
 7442 1d67 00       		.byte	0
 7443 1d68 32       		.uleb128 0x32
 7444 1d69 B1000000 		.4byte	0xb1
 7445 1d6d 33       		.uleb128 0x33
 7446 1d6e 29080000 		.4byte	.LASF151
ARM GAS  C:\Users\Petro\AppData\Local\Temp\ccEiKVD5.s 			page 151


 7447 1d72 07       		.byte	0x7
 7448 1d73 E001     		.2byte	0x1e0
 7449 1d75 791D0000 		.4byte	0x1d79
 7450 1d79 32       		.uleb128 0x32
 7451 1d7a 581D0000 		.4byte	0x1d58
 7452 1d7e 34       		.uleb128 0x34
 7453 1d7f 04010000 		.4byte	.LASF152
 7454 1d83 06       		.byte	0x6
 7455 1d84 66       		.byte	0x66
 7456 1d85 FD020000 		.4byte	0x2fd
 7457 1d89 05       		.uleb128 0x5
 7458 1d8a 03       		.byte	0x3
 7459 1d8b 00000000 		.4byte	cfont
 7460 1d8f 07       		.uleb128 0x7
 7461 1d90 8F000000 		.4byte	0x8f
 7462 1d94 A01D0000 		.4byte	0x1da0
 7463 1d98 35       		.uleb128 0x35
 7464 1d99 CB000000 		.4byte	0xcb
 7465 1d9d F701     		.2byte	0x1f7
 7466 1d9f 00       		.byte	0
 7467 1da0 34       		.uleb128 0x34
 7468 1da1 5C080000 		.4byte	.LASF153
 7469 1da5 06       		.byte	0x6
 7470 1da6 67       		.byte	0x67
 7471 1da7 8F1D0000 		.4byte	0x1d8f
 7472 1dab 05       		.uleb128 0x5
 7473 1dac 03       		.byte	0x3
 7474 1dad 00000000 		.4byte	scrbuf
 7475 1db1 34       		.uleb128 0x34
 7476 1db2 4E090000 		.4byte	.LASF154
 7477 1db6 06       		.byte	0x6
 7478 1db7 68       		.byte	0x68
 7479 1db8 91090000 		.4byte	0x991
 7480 1dbc 05       		.uleb128 0x5
 7481 1dbd 03       		.byte	0x3
 7482 1dbe 00000000 		.4byte	_sleep
 7483 1dc2 34       		.uleb128 0x34
 7484 1dc3 8E020000 		.4byte	.LASF155
 7485 1dc7 06       		.byte	0x6
 7486 1dc8 69       		.byte	0x69
 7487 1dc9 2C000000 		.4byte	0x2c
 7488 1dcd 05       		.uleb128 0x5
 7489 1dce 03       		.byte	0x3
 7490 1dcf 00000000 		.4byte	_contrast
 7491 1dd3 36       		.uleb128 0x36
 7492 1dd4 1E000000 		.4byte	.LASF156
 7493 1dd8 1E000000 		.4byte	.LASF156
 7494 1ddc 08       		.byte	0x8
 7495 1ddd E7       		.byte	0xe7
 7496 1dde 36       		.uleb128 0x36
 7497 1ddf 29060000 		.4byte	.LASF157
 7498 1de3 29060000 		.4byte	.LASF157
 7499 1de7 09       		.byte	0x9
 7500 1de8 33       		.byte	0x33
 7501 1de9 36       		.uleb128 0x36
 7502 1dea 84080000 		.4byte	.LASF158
 7503 1dee 84080000 		.4byte	.LASF158
ARM GAS  C:\Users\Petro\AppData\Local\Temp\ccEiKVD5.s 			page 152


 7504 1df2 0A       		.byte	0xa
 7505 1df3 33       		.byte	0x33
 7506 1df4 36       		.uleb128 0x36
 7507 1df5 EF040000 		.4byte	.LASF159
 7508 1df9 EF040000 		.4byte	.LASF159
 7509 1dfd 0B       		.byte	0xb
 7510 1dfe 29       		.byte	0x29
 7511 1dff 36       		.uleb128 0x36
 7512 1e00 C1000000 		.4byte	.LASF160
 7513 1e04 C1000000 		.4byte	.LASF160
 7514 1e08 0C       		.byte	0xc
 7515 1e09 33       		.byte	0x33
 7516 1e0a 36       		.uleb128 0x36
 7517 1e0b 10040000 		.4byte	.LASF161
 7518 1e0f 10040000 		.4byte	.LASF161
 7519 1e13 0D       		.byte	0xd
 7520 1e14 21       		.byte	0x21
 7521 1e15 00       		.byte	0
 7522              		.section	.debug_abbrev,"",%progbits
 7523              	.Ldebug_abbrev0:
 7524 0000 01       		.uleb128 0x1
 7525 0001 11       		.uleb128 0x11
 7526 0002 01       		.byte	0x1
 7527 0003 25       		.uleb128 0x25
 7528 0004 0E       		.uleb128 0xe
 7529 0005 13       		.uleb128 0x13
 7530 0006 0B       		.uleb128 0xb
 7531 0007 03       		.uleb128 0x3
 7532 0008 0E       		.uleb128 0xe
 7533 0009 1B       		.uleb128 0x1b
 7534 000a 0E       		.uleb128 0xe
 7535 000b 55       		.uleb128 0x55
 7536 000c 17       		.uleb128 0x17
 7537 000d 11       		.uleb128 0x11
 7538 000e 01       		.uleb128 0x1
 7539 000f 10       		.uleb128 0x10
 7540 0010 17       		.uleb128 0x17
 7541 0011 00       		.byte	0
 7542 0012 00       		.byte	0
 7543 0013 02       		.uleb128 0x2
 7544 0014 24       		.uleb128 0x24
 7545 0015 00       		.byte	0
 7546 0016 0B       		.uleb128 0xb
 7547 0017 0B       		.uleb128 0xb
 7548 0018 3E       		.uleb128 0x3e
 7549 0019 0B       		.uleb128 0xb
 7550 001a 03       		.uleb128 0x3
 7551 001b 0E       		.uleb128 0xe
 7552 001c 00       		.byte	0
 7553 001d 00       		.byte	0
 7554 001e 03       		.uleb128 0x3
 7555 001f 24       		.uleb128 0x24
 7556 0020 00       		.byte	0
 7557 0021 0B       		.uleb128 0xb
 7558 0022 0B       		.uleb128 0xb
 7559 0023 3E       		.uleb128 0x3e
 7560 0024 0B       		.uleb128 0xb
ARM GAS  C:\Users\Petro\AppData\Local\Temp\ccEiKVD5.s 			page 153


 7561 0025 03       		.uleb128 0x3
 7562 0026 08       		.uleb128 0x8
 7563 0027 00       		.byte	0
 7564 0028 00       		.byte	0
 7565 0029 04       		.uleb128 0x4
 7566 002a 16       		.uleb128 0x16
 7567 002b 00       		.byte	0
 7568 002c 03       		.uleb128 0x3
 7569 002d 0E       		.uleb128 0xe
 7570 002e 3A       		.uleb128 0x3a
 7571 002f 0B       		.uleb128 0xb
 7572 0030 3B       		.uleb128 0x3b
 7573 0031 0B       		.uleb128 0xb
 7574 0032 49       		.uleb128 0x49
 7575 0033 13       		.uleb128 0x13
 7576 0034 00       		.byte	0
 7577 0035 00       		.byte	0
 7578 0036 05       		.uleb128 0x5
 7579 0037 16       		.uleb128 0x16
 7580 0038 00       		.byte	0
 7581 0039 03       		.uleb128 0x3
 7582 003a 0E       		.uleb128 0xe
 7583 003b 3A       		.uleb128 0x3a
 7584 003c 0B       		.uleb128 0xb
 7585 003d 3B       		.uleb128 0x3b
 7586 003e 05       		.uleb128 0x5
 7587 003f 49       		.uleb128 0x49
 7588 0040 13       		.uleb128 0x13
 7589 0041 00       		.byte	0
 7590 0042 00       		.byte	0
 7591 0043 06       		.uleb128 0x6
 7592 0044 0F       		.uleb128 0xf
 7593 0045 00       		.byte	0
 7594 0046 0B       		.uleb128 0xb
 7595 0047 0B       		.uleb128 0xb
 7596 0048 49       		.uleb128 0x49
 7597 0049 13       		.uleb128 0x13
 7598 004a 00       		.byte	0
 7599 004b 00       		.byte	0
 7600 004c 07       		.uleb128 0x7
 7601 004d 01       		.uleb128 0x1
 7602 004e 01       		.byte	0x1
 7603 004f 49       		.uleb128 0x49
 7604 0050 13       		.uleb128 0x13
 7605 0051 01       		.uleb128 0x1
 7606 0052 13       		.uleb128 0x13
 7607 0053 00       		.byte	0
 7608 0054 00       		.byte	0
 7609 0055 08       		.uleb128 0x8
 7610 0056 21       		.uleb128 0x21
 7611 0057 00       		.byte	0
 7612 0058 49       		.uleb128 0x49
 7613 0059 13       		.uleb128 0x13
 7614 005a 2F       		.uleb128 0x2f
 7615 005b 0B       		.uleb128 0xb
 7616 005c 00       		.byte	0
 7617 005d 00       		.byte	0
ARM GAS  C:\Users\Petro\AppData\Local\Temp\ccEiKVD5.s 			page 154


 7618 005e 09       		.uleb128 0x9
 7619 005f 04       		.uleb128 0x4
 7620 0060 01       		.byte	0x1
 7621 0061 0B       		.uleb128 0xb
 7622 0062 0B       		.uleb128 0xb
 7623 0063 49       		.uleb128 0x49
 7624 0064 13       		.uleb128 0x13
 7625 0065 3A       		.uleb128 0x3a
 7626 0066 0B       		.uleb128 0xb
 7627 0067 3B       		.uleb128 0x3b
 7628 0068 05       		.uleb128 0x5
 7629 0069 01       		.uleb128 0x1
 7630 006a 13       		.uleb128 0x13
 7631 006b 00       		.byte	0
 7632 006c 00       		.byte	0
 7633 006d 0A       		.uleb128 0xa
 7634 006e 28       		.uleb128 0x28
 7635 006f 00       		.byte	0
 7636 0070 03       		.uleb128 0x3
 7637 0071 0E       		.uleb128 0xe
 7638 0072 1C       		.uleb128 0x1c
 7639 0073 0B       		.uleb128 0xb
 7640 0074 00       		.byte	0
 7641 0075 00       		.byte	0
 7642 0076 0B       		.uleb128 0xb
 7643 0077 13       		.uleb128 0x13
 7644 0078 01       		.byte	0x1
 7645 0079 0B       		.uleb128 0xb
 7646 007a 0B       		.uleb128 0xb
 7647 007b 3A       		.uleb128 0x3a
 7648 007c 0B       		.uleb128 0xb
 7649 007d 3B       		.uleb128 0x3b
 7650 007e 0B       		.uleb128 0xb
 7651 007f 01       		.uleb128 0x1
 7652 0080 13       		.uleb128 0x13
 7653 0081 00       		.byte	0
 7654 0082 00       		.byte	0
 7655 0083 0C       		.uleb128 0xc
 7656 0084 0D       		.uleb128 0xd
 7657 0085 00       		.byte	0
 7658 0086 03       		.uleb128 0x3
 7659 0087 0E       		.uleb128 0xe
 7660 0088 3A       		.uleb128 0x3a
 7661 0089 0B       		.uleb128 0xb
 7662 008a 3B       		.uleb128 0x3b
 7663 008b 0B       		.uleb128 0xb
 7664 008c 49       		.uleb128 0x49
 7665 008d 13       		.uleb128 0x13
 7666 008e 38       		.uleb128 0x38
 7667 008f 0B       		.uleb128 0xb
 7668 0090 00       		.byte	0
 7669 0091 00       		.byte	0
 7670 0092 0D       		.uleb128 0xd
 7671 0093 2E       		.uleb128 0x2e
 7672 0094 01       		.byte	0x1
 7673 0095 3F       		.uleb128 0x3f
 7674 0096 19       		.uleb128 0x19
ARM GAS  C:\Users\Petro\AppData\Local\Temp\ccEiKVD5.s 			page 155


 7675 0097 03       		.uleb128 0x3
 7676 0098 0E       		.uleb128 0xe
 7677 0099 3A       		.uleb128 0x3a
 7678 009a 0B       		.uleb128 0xb
 7679 009b 3B       		.uleb128 0x3b
 7680 009c 0B       		.uleb128 0xb
 7681 009d 20       		.uleb128 0x20
 7682 009e 0B       		.uleb128 0xb
 7683 009f 01       		.uleb128 0x1
 7684 00a0 13       		.uleb128 0x13
 7685 00a1 00       		.byte	0
 7686 00a2 00       		.byte	0
 7687 00a3 0E       		.uleb128 0xe
 7688 00a4 0B       		.uleb128 0xb
 7689 00a5 01       		.byte	0x1
 7690 00a6 00       		.byte	0
 7691 00a7 00       		.byte	0
 7692 00a8 0F       		.uleb128 0xf
 7693 00a9 34       		.uleb128 0x34
 7694 00aa 00       		.byte	0
 7695 00ab 03       		.uleb128 0x3
 7696 00ac 08       		.uleb128 0x8
 7697 00ad 3A       		.uleb128 0x3a
 7698 00ae 0B       		.uleb128 0xb
 7699 00af 3B       		.uleb128 0x3b
 7700 00b0 0B       		.uleb128 0xb
 7701 00b1 49       		.uleb128 0x49
 7702 00b2 13       		.uleb128 0x13
 7703 00b3 00       		.byte	0
 7704 00b4 00       		.byte	0
 7705 00b5 10       		.uleb128 0x10
 7706 00b6 2E       		.uleb128 0x2e
 7707 00b7 01       		.byte	0x1
 7708 00b8 3F       		.uleb128 0x3f
 7709 00b9 19       		.uleb128 0x19
 7710 00ba 03       		.uleb128 0x3
 7711 00bb 0E       		.uleb128 0xe
 7712 00bc 3A       		.uleb128 0x3a
 7713 00bd 0B       		.uleb128 0xb
 7714 00be 3B       		.uleb128 0x3b
 7715 00bf 0B       		.uleb128 0xb
 7716 00c0 27       		.uleb128 0x27
 7717 00c1 19       		.uleb128 0x19
 7718 00c2 20       		.uleb128 0x20
 7719 00c3 0B       		.uleb128 0xb
 7720 00c4 01       		.uleb128 0x1
 7721 00c5 13       		.uleb128 0x13
 7722 00c6 00       		.byte	0
 7723 00c7 00       		.byte	0
 7724 00c8 11       		.uleb128 0x11
 7725 00c9 05       		.uleb128 0x5
 7726 00ca 00       		.byte	0
 7727 00cb 03       		.uleb128 0x3
 7728 00cc 08       		.uleb128 0x8
 7729 00cd 3A       		.uleb128 0x3a
 7730 00ce 0B       		.uleb128 0xb
 7731 00cf 3B       		.uleb128 0x3b
ARM GAS  C:\Users\Petro\AppData\Local\Temp\ccEiKVD5.s 			page 156


 7732 00d0 0B       		.uleb128 0xb
 7733 00d1 49       		.uleb128 0x49
 7734 00d2 13       		.uleb128 0x13
 7735 00d3 00       		.byte	0
 7736 00d4 00       		.byte	0
 7737 00d5 12       		.uleb128 0x12
 7738 00d6 2E       		.uleb128 0x2e
 7739 00d7 01       		.byte	0x1
 7740 00d8 3F       		.uleb128 0x3f
 7741 00d9 19       		.uleb128 0x19
 7742 00da 03       		.uleb128 0x3
 7743 00db 0E       		.uleb128 0xe
 7744 00dc 3A       		.uleb128 0x3a
 7745 00dd 0B       		.uleb128 0xb
 7746 00de 3B       		.uleb128 0x3b
 7747 00df 05       		.uleb128 0x5
 7748 00e0 27       		.uleb128 0x27
 7749 00e1 19       		.uleb128 0x19
 7750 00e2 20       		.uleb128 0x20
 7751 00e3 0B       		.uleb128 0xb
 7752 00e4 01       		.uleb128 0x1
 7753 00e5 13       		.uleb128 0x13
 7754 00e6 00       		.byte	0
 7755 00e7 00       		.byte	0
 7756 00e8 13       		.uleb128 0x13
 7757 00e9 05       		.uleb128 0x5
 7758 00ea 00       		.byte	0
 7759 00eb 03       		.uleb128 0x3
 7760 00ec 08       		.uleb128 0x8
 7761 00ed 3A       		.uleb128 0x3a
 7762 00ee 0B       		.uleb128 0xb
 7763 00ef 3B       		.uleb128 0x3b
 7764 00f0 05       		.uleb128 0x5
 7765 00f1 49       		.uleb128 0x49
 7766 00f2 13       		.uleb128 0x13
 7767 00f3 00       		.byte	0
 7768 00f4 00       		.byte	0
 7769 00f5 14       		.uleb128 0x14
 7770 00f6 34       		.uleb128 0x34
 7771 00f7 00       		.byte	0
 7772 00f8 03       		.uleb128 0x3
 7773 00f9 08       		.uleb128 0x8
 7774 00fa 3A       		.uleb128 0x3a
 7775 00fb 0B       		.uleb128 0xb
 7776 00fc 3B       		.uleb128 0x3b
 7777 00fd 05       		.uleb128 0x5
 7778 00fe 49       		.uleb128 0x49
 7779 00ff 13       		.uleb128 0x13
 7780 0100 00       		.byte	0
 7781 0101 00       		.byte	0
 7782 0102 15       		.uleb128 0x15
 7783 0103 2E       		.uleb128 0x2e
 7784 0104 01       		.byte	0x1
 7785 0105 3F       		.uleb128 0x3f
 7786 0106 19       		.uleb128 0x19
 7787 0107 03       		.uleb128 0x3
 7788 0108 0E       		.uleb128 0xe
ARM GAS  C:\Users\Petro\AppData\Local\Temp\ccEiKVD5.s 			page 157


 7789 0109 3A       		.uleb128 0x3a
 7790 010a 0B       		.uleb128 0xb
 7791 010b 3B       		.uleb128 0x3b
 7792 010c 0B       		.uleb128 0xb
 7793 010d 27       		.uleb128 0x27
 7794 010e 19       		.uleb128 0x19
 7795 010f 11       		.uleb128 0x11
 7796 0110 01       		.uleb128 0x1
 7797 0111 12       		.uleb128 0x12
 7798 0112 06       		.uleb128 0x6
 7799 0113 40       		.uleb128 0x40
 7800 0114 18       		.uleb128 0x18
 7801 0115 9742     		.uleb128 0x2117
 7802 0117 19       		.uleb128 0x19
 7803 0118 01       		.uleb128 0x1
 7804 0119 13       		.uleb128 0x13
 7805 011a 00       		.byte	0
 7806 011b 00       		.byte	0
 7807 011c 16       		.uleb128 0x16
 7808 011d 05       		.uleb128 0x5
 7809 011e 00       		.byte	0
 7810 011f 03       		.uleb128 0x3
 7811 0120 08       		.uleb128 0x8
 7812 0121 3A       		.uleb128 0x3a
 7813 0122 0B       		.uleb128 0xb
 7814 0123 3B       		.uleb128 0x3b
 7815 0124 0B       		.uleb128 0xb
 7816 0125 49       		.uleb128 0x49
 7817 0126 13       		.uleb128 0x13
 7818 0127 02       		.uleb128 0x2
 7819 0128 17       		.uleb128 0x17
 7820 0129 00       		.byte	0
 7821 012a 00       		.byte	0
 7822 012b 17       		.uleb128 0x17
 7823 012c 05       		.uleb128 0x5
 7824 012d 00       		.byte	0
 7825 012e 03       		.uleb128 0x3
 7826 012f 0E       		.uleb128 0xe
 7827 0130 3A       		.uleb128 0x3a
 7828 0131 0B       		.uleb128 0xb
 7829 0132 3B       		.uleb128 0x3b
 7830 0133 0B       		.uleb128 0xb
 7831 0134 49       		.uleb128 0x49
 7832 0135 13       		.uleb128 0x13
 7833 0136 02       		.uleb128 0x2
 7834 0137 17       		.uleb128 0x17
 7835 0138 00       		.byte	0
 7836 0139 00       		.byte	0
 7837 013a 18       		.uleb128 0x18
 7838 013b 34       		.uleb128 0x34
 7839 013c 00       		.byte	0
 7840 013d 03       		.uleb128 0x3
 7841 013e 0E       		.uleb128 0xe
 7842 013f 3A       		.uleb128 0x3a
 7843 0140 0B       		.uleb128 0xb
 7844 0141 3B       		.uleb128 0x3b
 7845 0142 0B       		.uleb128 0xb
ARM GAS  C:\Users\Petro\AppData\Local\Temp\ccEiKVD5.s 			page 158


 7846 0143 49       		.uleb128 0x49
 7847 0144 13       		.uleb128 0x13
 7848 0145 02       		.uleb128 0x2
 7849 0146 18       		.uleb128 0x18
 7850 0147 00       		.byte	0
 7851 0148 00       		.byte	0
 7852 0149 19       		.uleb128 0x19
 7853 014a 898201   		.uleb128 0x4109
 7854 014d 01       		.byte	0x1
 7855 014e 11       		.uleb128 0x11
 7856 014f 01       		.uleb128 0x1
 7857 0150 31       		.uleb128 0x31
 7858 0151 13       		.uleb128 0x13
 7859 0152 01       		.uleb128 0x1
 7860 0153 13       		.uleb128 0x13
 7861 0154 00       		.byte	0
 7862 0155 00       		.byte	0
 7863 0156 1A       		.uleb128 0x1a
 7864 0157 8A8201   		.uleb128 0x410a
 7865 015a 00       		.byte	0
 7866 015b 02       		.uleb128 0x2
 7867 015c 18       		.uleb128 0x18
 7868 015d 9142     		.uleb128 0x2111
 7869 015f 18       		.uleb128 0x18
 7870 0160 00       		.byte	0
 7871 0161 00       		.byte	0
 7872 0162 1B       		.uleb128 0x1b
 7873 0163 898201   		.uleb128 0x4109
 7874 0166 01       		.byte	0x1
 7875 0167 11       		.uleb128 0x11
 7876 0168 01       		.uleb128 0x1
 7877 0169 31       		.uleb128 0x31
 7878 016a 13       		.uleb128 0x13
 7879 016b 00       		.byte	0
 7880 016c 00       		.byte	0
 7881 016d 1C       		.uleb128 0x1c
 7882 016e 898201   		.uleb128 0x4109
 7883 0171 00       		.byte	0
 7884 0172 11       		.uleb128 0x11
 7885 0173 01       		.uleb128 0x1
 7886 0174 31       		.uleb128 0x31
 7887 0175 13       		.uleb128 0x13
 7888 0176 00       		.byte	0
 7889 0177 00       		.byte	0
 7890 0178 1D       		.uleb128 0x1d
 7891 0179 2E       		.uleb128 0x2e
 7892 017a 01       		.byte	0x1
 7893 017b 3F       		.uleb128 0x3f
 7894 017c 19       		.uleb128 0x19
 7895 017d 03       		.uleb128 0x3
 7896 017e 0E       		.uleb128 0xe
 7897 017f 3A       		.uleb128 0x3a
 7898 0180 0B       		.uleb128 0xb
 7899 0181 3B       		.uleb128 0x3b
 7900 0182 0B       		.uleb128 0xb
 7901 0183 11       		.uleb128 0x11
 7902 0184 01       		.uleb128 0x1
ARM GAS  C:\Users\Petro\AppData\Local\Temp\ccEiKVD5.s 			page 159


 7903 0185 12       		.uleb128 0x12
 7904 0186 06       		.uleb128 0x6
 7905 0187 40       		.uleb128 0x40
 7906 0188 18       		.uleb128 0x18
 7907 0189 9742     		.uleb128 0x2117
 7908 018b 19       		.uleb128 0x19
 7909 018c 01       		.uleb128 0x1
 7910 018d 13       		.uleb128 0x13
 7911 018e 00       		.byte	0
 7912 018f 00       		.byte	0
 7913 0190 1E       		.uleb128 0x1e
 7914 0191 34       		.uleb128 0x34
 7915 0192 00       		.byte	0
 7916 0193 03       		.uleb128 0x3
 7917 0194 08       		.uleb128 0x8
 7918 0195 3A       		.uleb128 0x3a
 7919 0196 0B       		.uleb128 0xb
 7920 0197 3B       		.uleb128 0x3b
 7921 0198 0B       		.uleb128 0xb
 7922 0199 49       		.uleb128 0x49
 7923 019a 13       		.uleb128 0x13
 7924 019b 02       		.uleb128 0x2
 7925 019c 17       		.uleb128 0x17
 7926 019d 00       		.byte	0
 7927 019e 00       		.byte	0
 7928 019f 1F       		.uleb128 0x1f
 7929 01a0 2E       		.uleb128 0x2e
 7930 01a1 01       		.byte	0x1
 7931 01a2 31       		.uleb128 0x31
 7932 01a3 13       		.uleb128 0x13
 7933 01a4 11       		.uleb128 0x11
 7934 01a5 01       		.uleb128 0x1
 7935 01a6 12       		.uleb128 0x12
 7936 01a7 06       		.uleb128 0x6
 7937 01a8 40       		.uleb128 0x40
 7938 01a9 18       		.uleb128 0x18
 7939 01aa 9742     		.uleb128 0x2117
 7940 01ac 19       		.uleb128 0x19
 7941 01ad 01       		.uleb128 0x1
 7942 01ae 13       		.uleb128 0x13
 7943 01af 00       		.byte	0
 7944 01b0 00       		.byte	0
 7945 01b1 20       		.uleb128 0x20
 7946 01b2 0B       		.uleb128 0xb
 7947 01b3 01       		.byte	0x1
 7948 01b4 11       		.uleb128 0x11
 7949 01b5 01       		.uleb128 0x1
 7950 01b6 12       		.uleb128 0x12
 7951 01b7 06       		.uleb128 0x6
 7952 01b8 00       		.byte	0
 7953 01b9 00       		.byte	0
 7954 01ba 21       		.uleb128 0x21
 7955 01bb 34       		.uleb128 0x34
 7956 01bc 00       		.byte	0
 7957 01bd 31       		.uleb128 0x31
 7958 01be 13       		.uleb128 0x13
 7959 01bf 02       		.uleb128 0x2
ARM GAS  C:\Users\Petro\AppData\Local\Temp\ccEiKVD5.s 			page 160


 7960 01c0 17       		.uleb128 0x17
 7961 01c1 00       		.byte	0
 7962 01c2 00       		.byte	0
 7963 01c3 22       		.uleb128 0x22
 7964 01c4 05       		.uleb128 0x5
 7965 01c5 00       		.byte	0
 7966 01c6 31       		.uleb128 0x31
 7967 01c7 13       		.uleb128 0x13
 7968 01c8 02       		.uleb128 0x2
 7969 01c9 17       		.uleb128 0x17
 7970 01ca 00       		.byte	0
 7971 01cb 00       		.byte	0
 7972 01cc 23       		.uleb128 0x23
 7973 01cd 34       		.uleb128 0x34
 7974 01ce 00       		.byte	0
 7975 01cf 31       		.uleb128 0x31
 7976 01d0 13       		.uleb128 0x13
 7977 01d1 00       		.byte	0
 7978 01d2 00       		.byte	0
 7979 01d3 24       		.uleb128 0x24
 7980 01d4 05       		.uleb128 0x5
 7981 01d5 00       		.byte	0
 7982 01d6 03       		.uleb128 0x3
 7983 01d7 0E       		.uleb128 0xe
 7984 01d8 3A       		.uleb128 0x3a
 7985 01d9 0B       		.uleb128 0xb
 7986 01da 3B       		.uleb128 0x3b
 7987 01db 0B       		.uleb128 0xb
 7988 01dc 49       		.uleb128 0x49
 7989 01dd 13       		.uleb128 0x13
 7990 01de 02       		.uleb128 0x2
 7991 01df 18       		.uleb128 0x18
 7992 01e0 00       		.byte	0
 7993 01e1 00       		.byte	0
 7994 01e2 25       		.uleb128 0x25
 7995 01e3 2E       		.uleb128 0x2e
 7996 01e4 01       		.byte	0x1
 7997 01e5 3F       		.uleb128 0x3f
 7998 01e6 19       		.uleb128 0x19
 7999 01e7 03       		.uleb128 0x3
 8000 01e8 0E       		.uleb128 0xe
 8001 01e9 3A       		.uleb128 0x3a
 8002 01ea 0B       		.uleb128 0xb
 8003 01eb 3B       		.uleb128 0x3b
 8004 01ec 05       		.uleb128 0x5
 8005 01ed 27       		.uleb128 0x27
 8006 01ee 19       		.uleb128 0x19
 8007 01ef 11       		.uleb128 0x11
 8008 01f0 01       		.uleb128 0x1
 8009 01f1 12       		.uleb128 0x12
 8010 01f2 06       		.uleb128 0x6
 8011 01f3 40       		.uleb128 0x40
 8012 01f4 18       		.uleb128 0x18
 8013 01f5 9742     		.uleb128 0x2117
 8014 01f7 19       		.uleb128 0x19
 8015 01f8 01       		.uleb128 0x1
 8016 01f9 13       		.uleb128 0x13
ARM GAS  C:\Users\Petro\AppData\Local\Temp\ccEiKVD5.s 			page 161


 8017 01fa 00       		.byte	0
 8018 01fb 00       		.byte	0
 8019 01fc 26       		.uleb128 0x26
 8020 01fd 05       		.uleb128 0x5
 8021 01fe 00       		.byte	0
 8022 01ff 03       		.uleb128 0x3
 8023 0200 08       		.uleb128 0x8
 8024 0201 3A       		.uleb128 0x3a
 8025 0202 0B       		.uleb128 0xb
 8026 0203 3B       		.uleb128 0x3b
 8027 0204 05       		.uleb128 0x5
 8028 0205 49       		.uleb128 0x49
 8029 0206 13       		.uleb128 0x13
 8030 0207 02       		.uleb128 0x2
 8031 0208 17       		.uleb128 0x17
 8032 0209 00       		.byte	0
 8033 020a 00       		.byte	0
 8034 020b 27       		.uleb128 0x27
 8035 020c 0B       		.uleb128 0xb
 8036 020d 01       		.byte	0x1
 8037 020e 11       		.uleb128 0x11
 8038 020f 01       		.uleb128 0x1
 8039 0210 12       		.uleb128 0x12
 8040 0211 06       		.uleb128 0x6
 8041 0212 01       		.uleb128 0x1
 8042 0213 13       		.uleb128 0x13
 8043 0214 00       		.byte	0
 8044 0215 00       		.byte	0
 8045 0216 28       		.uleb128 0x28
 8046 0217 34       		.uleb128 0x34
 8047 0218 00       		.byte	0
 8048 0219 03       		.uleb128 0x3
 8049 021a 0E       		.uleb128 0xe
 8050 021b 3A       		.uleb128 0x3a
 8051 021c 0B       		.uleb128 0xb
 8052 021d 3B       		.uleb128 0x3b
 8053 021e 05       		.uleb128 0x5
 8054 021f 49       		.uleb128 0x49
 8055 0220 13       		.uleb128 0x13
 8056 0221 02       		.uleb128 0x2
 8057 0222 17       		.uleb128 0x17
 8058 0223 00       		.byte	0
 8059 0224 00       		.byte	0
 8060 0225 29       		.uleb128 0x29
 8061 0226 34       		.uleb128 0x34
 8062 0227 00       		.byte	0
 8063 0228 03       		.uleb128 0x3
 8064 0229 08       		.uleb128 0x8
 8065 022a 3A       		.uleb128 0x3a
 8066 022b 0B       		.uleb128 0xb
 8067 022c 3B       		.uleb128 0x3b
 8068 022d 05       		.uleb128 0x5
 8069 022e 49       		.uleb128 0x49
 8070 022f 13       		.uleb128 0x13
 8071 0230 02       		.uleb128 0x2
 8072 0231 17       		.uleb128 0x17
 8073 0232 00       		.byte	0
ARM GAS  C:\Users\Petro\AppData\Local\Temp\ccEiKVD5.s 			page 162


 8074 0233 00       		.byte	0
 8075 0234 2A       		.uleb128 0x2a
 8076 0235 2E       		.uleb128 0x2e
 8077 0236 01       		.byte	0x1
 8078 0237 3F       		.uleb128 0x3f
 8079 0238 19       		.uleb128 0x19
 8080 0239 03       		.uleb128 0x3
 8081 023a 0E       		.uleb128 0xe
 8082 023b 3A       		.uleb128 0x3a
 8083 023c 0B       		.uleb128 0xb
 8084 023d 3B       		.uleb128 0x3b
 8085 023e 05       		.uleb128 0x5
 8086 023f 27       		.uleb128 0x27
 8087 0240 19       		.uleb128 0x19
 8088 0241 11       		.uleb128 0x11
 8089 0242 01       		.uleb128 0x1
 8090 0243 12       		.uleb128 0x12
 8091 0244 06       		.uleb128 0x6
 8092 0245 40       		.uleb128 0x40
 8093 0246 18       		.uleb128 0x18
 8094 0247 9642     		.uleb128 0x2116
 8095 0249 19       		.uleb128 0x19
 8096 024a 01       		.uleb128 0x1
 8097 024b 13       		.uleb128 0x13
 8098 024c 00       		.byte	0
 8099 024d 00       		.byte	0
 8100 024e 2B       		.uleb128 0x2b
 8101 024f 05       		.uleb128 0x5
 8102 0250 00       		.byte	0
 8103 0251 03       		.uleb128 0x3
 8104 0252 0E       		.uleb128 0xe
 8105 0253 3A       		.uleb128 0x3a
 8106 0254 0B       		.uleb128 0xb
 8107 0255 3B       		.uleb128 0x3b
 8108 0256 05       		.uleb128 0x5
 8109 0257 49       		.uleb128 0x49
 8110 0258 13       		.uleb128 0x13
 8111 0259 02       		.uleb128 0x2
 8112 025a 17       		.uleb128 0x17
 8113 025b 00       		.byte	0
 8114 025c 00       		.byte	0
 8115 025d 2C       		.uleb128 0x2c
 8116 025e 34       		.uleb128 0x34
 8117 025f 00       		.byte	0
 8118 0260 03       		.uleb128 0x3
 8119 0261 08       		.uleb128 0x8
 8120 0262 3A       		.uleb128 0x3a
 8121 0263 0B       		.uleb128 0xb
 8122 0264 3B       		.uleb128 0x3b
 8123 0265 05       		.uleb128 0x5
 8124 0266 49       		.uleb128 0x49
 8125 0267 13       		.uleb128 0x13
 8126 0268 02       		.uleb128 0x2
 8127 0269 18       		.uleb128 0x18
 8128 026a 00       		.byte	0
 8129 026b 00       		.byte	0
 8130 026c 2D       		.uleb128 0x2d
ARM GAS  C:\Users\Petro\AppData\Local\Temp\ccEiKVD5.s 			page 163


 8131 026d 0B       		.uleb128 0xb
 8132 026e 01       		.byte	0x1
 8133 026f 55       		.uleb128 0x55
 8134 0270 17       		.uleb128 0x17
 8135 0271 01       		.uleb128 0x1
 8136 0272 13       		.uleb128 0x13
 8137 0273 00       		.byte	0
 8138 0274 00       		.byte	0
 8139 0275 2E       		.uleb128 0x2e
 8140 0276 05       		.uleb128 0x5
 8141 0277 00       		.byte	0
 8142 0278 03       		.uleb128 0x3
 8143 0279 0E       		.uleb128 0xe
 8144 027a 3A       		.uleb128 0x3a
 8145 027b 0B       		.uleb128 0xb
 8146 027c 3B       		.uleb128 0x3b
 8147 027d 05       		.uleb128 0x5
 8148 027e 49       		.uleb128 0x49
 8149 027f 13       		.uleb128 0x13
 8150 0280 02       		.uleb128 0x2
 8151 0281 18       		.uleb128 0x18
 8152 0282 00       		.byte	0
 8153 0283 00       		.byte	0
 8154 0284 2F       		.uleb128 0x2f
 8155 0285 05       		.uleb128 0x5
 8156 0286 00       		.byte	0
 8157 0287 31       		.uleb128 0x31
 8158 0288 13       		.uleb128 0x13
 8159 0289 02       		.uleb128 0x2
 8160 028a 18       		.uleb128 0x18
 8161 028b 00       		.byte	0
 8162 028c 00       		.byte	0
 8163 028d 30       		.uleb128 0x30
 8164 028e 05       		.uleb128 0x5
 8165 028f 00       		.byte	0
 8166 0290 31       		.uleb128 0x31
 8167 0291 13       		.uleb128 0x13
 8168 0292 00       		.byte	0
 8169 0293 00       		.byte	0
 8170 0294 31       		.uleb128 0x31
 8171 0295 05       		.uleb128 0x5
 8172 0296 00       		.byte	0
 8173 0297 03       		.uleb128 0x3
 8174 0298 08       		.uleb128 0x8
 8175 0299 3A       		.uleb128 0x3a
 8176 029a 0B       		.uleb128 0xb
 8177 029b 3B       		.uleb128 0x3b
 8178 029c 05       		.uleb128 0x5
 8179 029d 49       		.uleb128 0x49
 8180 029e 13       		.uleb128 0x13
 8181 029f 02       		.uleb128 0x2
 8182 02a0 18       		.uleb128 0x18
 8183 02a1 00       		.byte	0
 8184 02a2 00       		.byte	0
 8185 02a3 32       		.uleb128 0x32
 8186 02a4 26       		.uleb128 0x26
 8187 02a5 00       		.byte	0
ARM GAS  C:\Users\Petro\AppData\Local\Temp\ccEiKVD5.s 			page 164


 8188 02a6 49       		.uleb128 0x49
 8189 02a7 13       		.uleb128 0x13
 8190 02a8 00       		.byte	0
 8191 02a9 00       		.byte	0
 8192 02aa 33       		.uleb128 0x33
 8193 02ab 34       		.uleb128 0x34
 8194 02ac 00       		.byte	0
 8195 02ad 03       		.uleb128 0x3
 8196 02ae 0E       		.uleb128 0xe
 8197 02af 3A       		.uleb128 0x3a
 8198 02b0 0B       		.uleb128 0xb
 8199 02b1 3B       		.uleb128 0x3b
 8200 02b2 05       		.uleb128 0x5
 8201 02b3 49       		.uleb128 0x49
 8202 02b4 13       		.uleb128 0x13
 8203 02b5 3F       		.uleb128 0x3f
 8204 02b6 19       		.uleb128 0x19
 8205 02b7 3C       		.uleb128 0x3c
 8206 02b8 19       		.uleb128 0x19
 8207 02b9 00       		.byte	0
 8208 02ba 00       		.byte	0
 8209 02bb 34       		.uleb128 0x34
 8210 02bc 34       		.uleb128 0x34
 8211 02bd 00       		.byte	0
 8212 02be 03       		.uleb128 0x3
 8213 02bf 0E       		.uleb128 0xe
 8214 02c0 3A       		.uleb128 0x3a
 8215 02c1 0B       		.uleb128 0xb
 8216 02c2 3B       		.uleb128 0x3b
 8217 02c3 0B       		.uleb128 0xb
 8218 02c4 49       		.uleb128 0x49
 8219 02c5 13       		.uleb128 0x13
 8220 02c6 3F       		.uleb128 0x3f
 8221 02c7 19       		.uleb128 0x19
 8222 02c8 02       		.uleb128 0x2
 8223 02c9 18       		.uleb128 0x18
 8224 02ca 00       		.byte	0
 8225 02cb 00       		.byte	0
 8226 02cc 35       		.uleb128 0x35
 8227 02cd 21       		.uleb128 0x21
 8228 02ce 00       		.byte	0
 8229 02cf 49       		.uleb128 0x49
 8230 02d0 13       		.uleb128 0x13
 8231 02d1 2F       		.uleb128 0x2f
 8232 02d2 05       		.uleb128 0x5
 8233 02d3 00       		.byte	0
 8234 02d4 00       		.byte	0
 8235 02d5 36       		.uleb128 0x36
 8236 02d6 2E       		.uleb128 0x2e
 8237 02d7 00       		.byte	0
 8238 02d8 3F       		.uleb128 0x3f
 8239 02d9 19       		.uleb128 0x19
 8240 02da 3C       		.uleb128 0x3c
 8241 02db 19       		.uleb128 0x19
 8242 02dc 6E       		.uleb128 0x6e
 8243 02dd 0E       		.uleb128 0xe
 8244 02de 03       		.uleb128 0x3
ARM GAS  C:\Users\Petro\AppData\Local\Temp\ccEiKVD5.s 			page 165


 8245 02df 0E       		.uleb128 0xe
 8246 02e0 3A       		.uleb128 0x3a
 8247 02e1 0B       		.uleb128 0xb
 8248 02e2 3B       		.uleb128 0x3b
 8249 02e3 0B       		.uleb128 0xb
 8250 02e4 00       		.byte	0
 8251 02e5 00       		.byte	0
 8252 02e6 00       		.byte	0
 8253              		.section	.debug_loc,"",%progbits
 8254              	.Ldebug_loc0:
 8255              	.LLST0:
 8256 0000 00000000 		.4byte	.LVL0
 8257 0004 12000000 		.4byte	.LVL4
 8258 0008 0100     		.2byte	0x1
 8259 000a 50       		.byte	0x50
 8260 000b 12000000 		.4byte	.LVL4
 8261 000f 22000000 		.4byte	.LVL7
 8262 0013 0100     		.2byte	0x1
 8263 0015 56       		.byte	0x56
 8264 0016 22000000 		.4byte	.LVL7
 8265 001a 28000000 		.4byte	.LFE63
 8266 001e 0400     		.2byte	0x4
 8267 0020 F3       		.byte	0xf3
 8268 0021 01       		.uleb128 0x1
 8269 0022 50       		.byte	0x50
 8270 0023 9F       		.byte	0x9f
 8271 0024 00000000 		.4byte	0
 8272 0028 00000000 		.4byte	0
 8273              	.LLST1:
 8274 002c 00000000 		.4byte	.LVL0
 8275 0030 0C000000 		.4byte	.LVL2
 8276 0034 0600     		.2byte	0x6
 8277 0036 52       		.byte	0x52
 8278 0037 93       		.byte	0x93
 8279 0038 04       		.uleb128 0x4
 8280 0039 53       		.byte	0x53
 8281 003a 93       		.byte	0x93
 8282 003b 04       		.uleb128 0x4
 8283 003c 0C000000 		.4byte	.LVL2
 8284 0040 28000000 		.4byte	.LFE63
 8285 0044 0600     		.2byte	0x6
 8286 0046 F3       		.byte	0xf3
 8287 0047 03       		.uleb128 0x3
 8288 0048 F5       		.byte	0xf5
 8289 0049 02       		.uleb128 0x2
 8290 004a 25       		.uleb128 0x25
 8291 004b 9F       		.byte	0x9f
 8292 004c 00000000 		.4byte	0
 8293 0050 00000000 		.4byte	0
 8294              	.LLST2:
 8295 0054 00000000 		.4byte	.LVL0
 8296 0058 0A000000 		.4byte	.LVL1
 8297 005c 0200     		.2byte	0x2
 8298 005e 91       		.byte	0x91
 8299 005f 00       		.sleb128 0
 8300 0060 0A000000 		.4byte	.LVL1
 8301 0064 0C000000 		.4byte	.LVL2
ARM GAS  C:\Users\Petro\AppData\Local\Temp\ccEiKVD5.s 			page 166


 8302 0068 0200     		.2byte	0x2
 8303 006a 73       		.byte	0x73
 8304 006b 00       		.sleb128 0
 8305 006c 0C000000 		.4byte	.LVL2
 8306 0070 10000000 		.4byte	.LVL3
 8307 0074 0200     		.2byte	0x2
 8308 0076 73       		.byte	0x73
 8309 0077 7C       		.sleb128 -4
 8310 0078 10000000 		.4byte	.LVL3
 8311 007c 28000000 		.4byte	.LFE63
 8312 0080 0200     		.2byte	0x2
 8313 0082 91       		.byte	0x91
 8314 0083 00       		.sleb128 0
 8315 0084 00000000 		.4byte	0
 8316 0088 00000000 		.4byte	0
 8317              	.LLST3:
 8318 008c 00000000 		.4byte	.LVL0
 8319 0090 0A000000 		.4byte	.LVL1
 8320 0094 0200     		.2byte	0x2
 8321 0096 91       		.byte	0x91
 8322 0097 04       		.sleb128 4
 8323 0098 0A000000 		.4byte	.LVL1
 8324 009c 0C000000 		.4byte	.LVL2
 8325 00a0 0200     		.2byte	0x2
 8326 00a2 73       		.byte	0x73
 8327 00a3 04       		.sleb128 4
 8328 00a4 0C000000 		.4byte	.LVL2
 8329 00a8 10000000 		.4byte	.LVL3
 8330 00ac 0200     		.2byte	0x2
 8331 00ae 73       		.byte	0x73
 8332 00af 00       		.sleb128 0
 8333 00b0 10000000 		.4byte	.LVL3
 8334 00b4 28000000 		.4byte	.LFE63
 8335 00b8 0200     		.2byte	0x2
 8336 00ba 91       		.byte	0x91
 8337 00bb 04       		.sleb128 4
 8338 00bc 00000000 		.4byte	0
 8339 00c0 00000000 		.4byte	0
 8340              	.LLST4:
 8341 00c4 00000000 		.4byte	.LVL8
 8342 00c8 06000000 		.4byte	.LVL9
 8343 00cc 0100     		.2byte	0x1
 8344 00ce 50       		.byte	0x50
 8345 00cf 06000000 		.4byte	.LVL9
 8346 00d3 22000000 		.4byte	.LFE64
 8347 00d7 0400     		.2byte	0x4
 8348 00d9 F3       		.byte	0xf3
 8349 00da 01       		.uleb128 0x1
 8350 00db 50       		.byte	0x50
 8351 00dc 9F       		.byte	0x9f
 8352 00dd 00000000 		.4byte	0
 8353 00e1 00000000 		.4byte	0
 8354              	.LLST5:
 8355 00e5 00000000 		.4byte	.LVL8
 8356 00e9 0D000000 		.4byte	.LVL10-1
 8357 00ed 0100     		.2byte	0x1
 8358 00ef 51       		.byte	0x51
ARM GAS  C:\Users\Petro\AppData\Local\Temp\ccEiKVD5.s 			page 167


 8359 00f0 0D000000 		.4byte	.LVL10-1
 8360 00f4 22000000 		.4byte	.LFE64
 8361 00f8 0400     		.2byte	0x4
 8362 00fa F3       		.byte	0xf3
 8363 00fb 01       		.uleb128 0x1
 8364 00fc 51       		.byte	0x51
 8365 00fd 9F       		.byte	0x9f
 8366 00fe 00000000 		.4byte	0
 8367 0102 00000000 		.4byte	0
 8368              	.LLST6:
 8369 0106 00000000 		.4byte	.LVL14
 8370 010a 12000000 		.4byte	.LVL15
 8371 010e 0100     		.2byte	0x1
 8372 0110 50       		.byte	0x50
 8373 0111 12000000 		.4byte	.LVL15
 8374 0115 34000000 		.4byte	.LVL19
 8375 0119 0100     		.2byte	0x1
 8376 011b 54       		.byte	0x54
 8377 011c 34000000 		.4byte	.LVL19
 8378 0120 3C000000 		.4byte	.LFE66
 8379 0124 0500     		.2byte	0x5
 8380 0126 03       		.byte	0x3
 8381 0127 00000000 		.4byte	_contrast
 8382 012b 00000000 		.4byte	0
 8383 012f 00000000 		.4byte	0
 8384              	.LLST7:
 8385 0133 1A000000 		.4byte	.LVL21
 8386 0137 1C000000 		.4byte	.LVL22
 8387 013b 0200     		.2byte	0x2
 8388 013d 30       		.byte	0x30
 8389 013e 9F       		.byte	0x9f
 8390 013f 1C000000 		.4byte	.LVL22
 8391 0143 22000000 		.4byte	.LVL23
 8392 0147 0700     		.2byte	0x7
 8393 0149 0A       		.byte	0xa
 8394 014a F801     		.2byte	0x1f8
 8395 014c 74       		.byte	0x74
 8396 014d 00       		.sleb128 0
 8397 014e 1C       		.byte	0x1c
 8398 014f 9F       		.byte	0x9f
 8399 0150 22000000 		.4byte	.LVL23
 8400 0154 26000000 		.4byte	.LVL24
 8401 0158 0700     		.2byte	0x7
 8402 015a 0A       		.byte	0xa
 8403 015b F701     		.2byte	0x1f7
 8404 015d 74       		.byte	0x74
 8405 015e 00       		.sleb128 0
 8406 015f 1C       		.byte	0x1c
 8407 0160 9F       		.byte	0x9f
 8408 0161 00000000 		.4byte	0
 8409 0165 00000000 		.4byte	0
 8410              	.LLST8:
 8411 0169 1C000000 		.4byte	.LVL27
 8412 016d 1E000000 		.4byte	.LVL28
 8413 0171 0200     		.2byte	0x2
 8414 0173 30       		.byte	0x30
 8415 0174 9F       		.byte	0x9f
ARM GAS  C:\Users\Petro\AppData\Local\Temp\ccEiKVD5.s 			page 168


 8416 0175 1E000000 		.4byte	.LVL28
 8417 0179 26000000 		.4byte	.LVL29
 8418 017d 0100     		.2byte	0x1
 8419 017f 54       		.byte	0x54
 8420 0180 26000000 		.4byte	.LVL29
 8421 0184 2A000000 		.4byte	.LVL30
 8422 0188 0300     		.2byte	0x3
 8423 018a 74       		.byte	0x74
 8424 018b 7F       		.sleb128 -1
 8425 018c 9F       		.byte	0x9f
 8426 018d 2A000000 		.4byte	.LVL30
 8427 0191 2E000000 		.4byte	.LVL31
 8428 0195 0100     		.2byte	0x1
 8429 0197 54       		.byte	0x54
 8430 0198 00000000 		.4byte	0
 8431 019c 00000000 		.4byte	0
 8432              	.LLST9:
 8433 01a0 00000000 		.4byte	.LVL39
 8434 01a4 0C000000 		.4byte	.LVL40
 8435 01a8 0200     		.2byte	0x2
 8436 01aa 30       		.byte	0x30
 8437 01ab 9F       		.byte	0x9f
 8438 01ac 0C000000 		.4byte	.LVL40
 8439 01b0 1C000000 		.4byte	.LFE70
 8440 01b4 0100     		.2byte	0x1
 8441 01b6 53       		.byte	0x53
 8442 01b7 00000000 		.4byte	0
 8443 01bb 00000000 		.4byte	0
 8444              	.LLST10:
 8445 01bf 00000000 		.4byte	.LVL42
 8446 01c3 12000000 		.4byte	.LVL43
 8447 01c7 0100     		.2byte	0x1
 8448 01c9 50       		.byte	0x50
 8449 01ca 12000000 		.4byte	.LVL43
 8450 01ce 7A000000 		.4byte	.LVL56
 8451 01d2 0100     		.2byte	0x1
 8452 01d4 54       		.byte	0x54
 8453 01d5 7A000000 		.4byte	.LVL56
 8454 01d9 88000000 		.4byte	.LFE65
 8455 01dd 0500     		.2byte	0x5
 8456 01df 03       		.byte	0x3
 8457 01e0 00000000 		.4byte	_contrast
 8458 01e4 00000000 		.4byte	0
 8459 01e8 00000000 		.4byte	0
 8460              	.LLST11:
 8461 01ec 00000000 		.4byte	.LVL57
 8462 01f0 0A000000 		.4byte	.LVL58
 8463 01f4 0200     		.2byte	0x2
 8464 01f6 30       		.byte	0x30
 8465 01f7 9F       		.byte	0x9f
 8466 01f8 0A000000 		.4byte	.LVL58
 8467 01fc 18000000 		.4byte	.LFE71
 8468 0200 0100     		.2byte	0x1
 8469 0202 53       		.byte	0x53
 8470 0203 00000000 		.4byte	0
 8471 0207 00000000 		.4byte	0
 8472              	.LLST12:
ARM GAS  C:\Users\Petro\AppData\Local\Temp\ccEiKVD5.s 			page 169


 8473 020b 00000000 		.4byte	.LVL60
 8474 020f 06000000 		.4byte	.LVL61
 8475 0213 0100     		.2byte	0x1
 8476 0215 50       		.byte	0x50
 8477 0216 06000000 		.4byte	.LVL61
 8478 021a 14000000 		.4byte	.LFE72
 8479 021e 0400     		.2byte	0x4
 8480 0220 F3       		.byte	0xf3
 8481 0221 01       		.uleb128 0x1
 8482 0222 50       		.byte	0x50
 8483 0223 9F       		.byte	0x9f
 8484 0224 00000000 		.4byte	0
 8485 0228 00000000 		.4byte	0
 8486              	.LLST13:
 8487 022c 00000000 		.4byte	.LVL63
 8488 0230 12000000 		.4byte	.LVL65
 8489 0234 0100     		.2byte	0x1
 8490 0236 50       		.byte	0x50
 8491 0237 12000000 		.4byte	.LVL65
 8492 023b 28000000 		.4byte	.LFE73
 8493 023f 0400     		.2byte	0x4
 8494 0241 F3       		.byte	0xf3
 8495 0242 01       		.uleb128 0x1
 8496 0243 50       		.byte	0x50
 8497 0244 9F       		.byte	0x9f
 8498 0245 00000000 		.4byte	0
 8499 0249 00000000 		.4byte	0
 8500              	.LLST14:
 8501 024d 00000000 		.4byte	.LVL63
 8502 0251 16000000 		.4byte	.LVL66
 8503 0255 0100     		.2byte	0x1
 8504 0257 51       		.byte	0x51
 8505 0258 16000000 		.4byte	.LVL66
 8506 025c 28000000 		.4byte	.LFE73
 8507 0260 0400     		.2byte	0x4
 8508 0262 F3       		.byte	0xf3
 8509 0263 01       		.uleb128 0x1
 8510 0264 51       		.byte	0x51
 8511 0265 9F       		.byte	0x9f
 8512 0266 00000000 		.4byte	0
 8513 026a 00000000 		.4byte	0
 8514              	.LLST15:
 8515 026e 0A000000 		.4byte	.LVL64
 8516 0272 16000000 		.4byte	.LVL66
 8517 0276 0100     		.2byte	0x1
 8518 0278 51       		.byte	0x51
 8519 0279 16000000 		.4byte	.LVL66
 8520 027d 22000000 		.4byte	.LVL67
 8521 0281 0400     		.2byte	0x4
 8522 0283 F3       		.byte	0xf3
 8523 0284 01       		.uleb128 0x1
 8524 0285 51       		.byte	0x51
 8525 0286 9F       		.byte	0x9f
 8526 0287 00000000 		.4byte	0
 8527 028b 00000000 		.4byte	0
 8528              	.LLST16:
 8529 028f 0A000000 		.4byte	.LVL64
ARM GAS  C:\Users\Petro\AppData\Local\Temp\ccEiKVD5.s 			page 170


 8530 0293 12000000 		.4byte	.LVL65
 8531 0297 0100     		.2byte	0x1
 8532 0299 50       		.byte	0x50
 8533 029a 12000000 		.4byte	.LVL65
 8534 029e 22000000 		.4byte	.LVL67
 8535 02a2 0400     		.2byte	0x4
 8536 02a4 F3       		.byte	0xf3
 8537 02a5 01       		.uleb128 0x1
 8538 02a6 50       		.byte	0x50
 8539 02a7 9F       		.byte	0x9f
 8540 02a8 00000000 		.4byte	0
 8541 02ac 00000000 		.4byte	0
 8542              	.LLST17:
 8543 02b0 12000000 		.4byte	.LVL65
 8544 02b4 22000000 		.4byte	.LVL67
 8545 02b8 0100     		.2byte	0x1
 8546 02ba 50       		.byte	0x50
 8547 02bb 00000000 		.4byte	0
 8548 02bf 00000000 		.4byte	0
 8549              	.LLST18:
 8550 02c3 12000000 		.4byte	.LVL65
 8551 02c7 16000000 		.4byte	.LVL66
 8552 02cb 0900     		.2byte	0x9
 8553 02cd 71       		.byte	0x71
 8554 02ce 00       		.sleb128 0
 8555 02cf 37       		.byte	0x37
 8556 02d0 1A       		.byte	0x1a
 8557 02d1 0A       		.byte	0xa
 8558 02d2 FFFF     		.2byte	0xffff
 8559 02d4 1A       		.byte	0x1a
 8560 02d5 9F       		.byte	0x9f
 8561 02d6 16000000 		.4byte	.LVL66
 8562 02da 22000000 		.4byte	.LVL67
 8563 02de 0A00     		.2byte	0xa
 8564 02e0 F3       		.byte	0xf3
 8565 02e1 01       		.uleb128 0x1
 8566 02e2 51       		.byte	0x51
 8567 02e3 37       		.byte	0x37
 8568 02e4 1A       		.byte	0x1a
 8569 02e5 0A       		.byte	0xa
 8570 02e6 FFFF     		.2byte	0xffff
 8571 02e8 1A       		.byte	0x1a
 8572 02e9 9F       		.byte	0x9f
 8573 02ea 00000000 		.4byte	0
 8574 02ee 00000000 		.4byte	0
 8575              	.LLST19:
 8576 02f2 00000000 		.4byte	.LVL68
 8577 02f6 12000000 		.4byte	.LVL70
 8578 02fa 0100     		.2byte	0x1
 8579 02fc 50       		.byte	0x50
 8580 02fd 12000000 		.4byte	.LVL70
 8581 0301 28000000 		.4byte	.LFE74
 8582 0305 0400     		.2byte	0x4
 8583 0307 F3       		.byte	0xf3
 8584 0308 01       		.uleb128 0x1
 8585 0309 50       		.byte	0x50
 8586 030a 9F       		.byte	0x9f
ARM GAS  C:\Users\Petro\AppData\Local\Temp\ccEiKVD5.s 			page 171


 8587 030b 00000000 		.4byte	0
 8588 030f 00000000 		.4byte	0
 8589              	.LLST20:
 8590 0313 00000000 		.4byte	.LVL68
 8591 0317 18000000 		.4byte	.LVL71
 8592 031b 0100     		.2byte	0x1
 8593 031d 51       		.byte	0x51
 8594 031e 18000000 		.4byte	.LVL71
 8595 0322 28000000 		.4byte	.LFE74
 8596 0326 0400     		.2byte	0x4
 8597 0328 F3       		.byte	0xf3
 8598 0329 01       		.uleb128 0x1
 8599 032a 51       		.byte	0x51
 8600 032b 9F       		.byte	0x9f
 8601 032c 00000000 		.4byte	0
 8602 0330 00000000 		.4byte	0
 8603              	.LLST21:
 8604 0334 0A000000 		.4byte	.LVL69
 8605 0338 18000000 		.4byte	.LVL71
 8606 033c 0100     		.2byte	0x1
 8607 033e 51       		.byte	0x51
 8608 033f 18000000 		.4byte	.LVL71
 8609 0343 22000000 		.4byte	.LVL72
 8610 0347 0400     		.2byte	0x4
 8611 0349 F3       		.byte	0xf3
 8612 034a 01       		.uleb128 0x1
 8613 034b 51       		.byte	0x51
 8614 034c 9F       		.byte	0x9f
 8615 034d 00000000 		.4byte	0
 8616 0351 00000000 		.4byte	0
 8617              	.LLST22:
 8618 0355 0A000000 		.4byte	.LVL69
 8619 0359 12000000 		.4byte	.LVL70
 8620 035d 0100     		.2byte	0x1
 8621 035f 50       		.byte	0x50
 8622 0360 12000000 		.4byte	.LVL70
 8623 0364 22000000 		.4byte	.LVL72
 8624 0368 0400     		.2byte	0x4
 8625 036a F3       		.byte	0xf3
 8626 036b 01       		.uleb128 0x1
 8627 036c 50       		.byte	0x50
 8628 036d 9F       		.byte	0x9f
 8629 036e 00000000 		.4byte	0
 8630 0372 00000000 		.4byte	0
 8631              	.LLST23:
 8632 0376 12000000 		.4byte	.LVL70
 8633 037a 22000000 		.4byte	.LVL72
 8634 037e 0100     		.2byte	0x1
 8635 0380 50       		.byte	0x50
 8636 0381 00000000 		.4byte	0
 8637 0385 00000000 		.4byte	0
 8638              	.LLST24:
 8639 0389 12000000 		.4byte	.LVL70
 8640 038d 18000000 		.4byte	.LVL71
 8641 0391 0900     		.2byte	0x9
 8642 0393 71       		.byte	0x71
 8643 0394 00       		.sleb128 0
ARM GAS  C:\Users\Petro\AppData\Local\Temp\ccEiKVD5.s 			page 172


 8644 0395 37       		.byte	0x37
 8645 0396 1A       		.byte	0x1a
 8646 0397 0A       		.byte	0xa
 8647 0398 FFFF     		.2byte	0xffff
 8648 039a 1A       		.byte	0x1a
 8649 039b 9F       		.byte	0x9f
 8650 039c 18000000 		.4byte	.LVL71
 8651 03a0 22000000 		.4byte	.LVL72
 8652 03a4 0A00     		.2byte	0xa
 8653 03a6 F3       		.byte	0xf3
 8654 03a7 01       		.uleb128 0x1
 8655 03a8 51       		.byte	0x51
 8656 03a9 37       		.byte	0x37
 8657 03aa 1A       		.byte	0x1a
 8658 03ab 0A       		.byte	0xa
 8659 03ac FFFF     		.2byte	0xffff
 8660 03ae 1A       		.byte	0x1a
 8661 03af 9F       		.byte	0x9f
 8662 03b0 00000000 		.4byte	0
 8663 03b4 00000000 		.4byte	0
 8664              	.LLST25:
 8665 03b8 00000000 		.4byte	.LVL73
 8666 03bc 12000000 		.4byte	.LVL74
 8667 03c0 0100     		.2byte	0x1
 8668 03c2 50       		.byte	0x50
 8669 03c3 12000000 		.4byte	.LVL74
 8670 03c7 38000000 		.4byte	.LFE75
 8671 03cb 0400     		.2byte	0x4
 8672 03cd F3       		.byte	0xf3
 8673 03ce 01       		.uleb128 0x1
 8674 03cf 50       		.byte	0x50
 8675 03d0 9F       		.byte	0x9f
 8676 03d1 00000000 		.4byte	0
 8677 03d5 00000000 		.4byte	0
 8678              	.LLST26:
 8679 03d9 00000000 		.4byte	.LVL73
 8680 03dd 18000000 		.4byte	.LVL75
 8681 03e1 0100     		.2byte	0x1
 8682 03e3 51       		.byte	0x51
 8683 03e4 18000000 		.4byte	.LVL75
 8684 03e8 38000000 		.4byte	.LFE75
 8685 03ec 0400     		.2byte	0x4
 8686 03ee F3       		.byte	0xf3
 8687 03ef 01       		.uleb128 0x1
 8688 03f0 51       		.byte	0x51
 8689 03f1 9F       		.byte	0x9f
 8690 03f2 00000000 		.4byte	0
 8691 03f6 00000000 		.4byte	0
 8692              	.LLST27:
 8693 03fa 12000000 		.4byte	.LVL74
 8694 03fe 30000000 		.4byte	.LVL76
 8695 0402 0100     		.2byte	0x1
 8696 0404 50       		.byte	0x50
 8697 0405 00000000 		.4byte	0
 8698 0409 00000000 		.4byte	0
 8699              	.LLST28:
 8700 040d 18000000 		.4byte	.LVL75
ARM GAS  C:\Users\Petro\AppData\Local\Temp\ccEiKVD5.s 			page 173


 8701 0411 30000000 		.4byte	.LVL76
 8702 0415 0100     		.2byte	0x1
 8703 0417 51       		.byte	0x51
 8704 0418 00000000 		.4byte	0
 8705 041c 00000000 		.4byte	0
 8706              	.LLST29:
 8707 0420 00000000 		.4byte	.LVL78
 8708 0424 20000000 		.4byte	.LVL81
 8709 0428 0100     		.2byte	0x1
 8710 042a 50       		.byte	0x50
 8711 042b 20000000 		.4byte	.LVL81
 8712 042f A4000000 		.4byte	.LVL95
 8713 0433 0400     		.2byte	0x4
 8714 0435 F3       		.byte	0xf3
 8715 0436 01       		.uleb128 0x1
 8716 0437 50       		.byte	0x50
 8717 0438 9F       		.byte	0x9f
 8718 0439 A4000000 		.4byte	.LVL95
 8719 043d BC000000 		.4byte	.LVL99
 8720 0441 0100     		.2byte	0x1
 8721 0443 50       		.byte	0x50
 8722 0444 BC000000 		.4byte	.LVL99
 8723 0448 30010000 		.4byte	.LFE81
 8724 044c 0400     		.2byte	0x4
 8725 044e F3       		.byte	0xf3
 8726 044f 01       		.uleb128 0x1
 8727 0450 50       		.byte	0x50
 8728 0451 9F       		.byte	0x9f
 8729 0452 00000000 		.4byte	0
 8730 0456 00000000 		.4byte	0
 8731              	.LLST30:
 8732 045a 00000000 		.4byte	.LVL78
 8733 045e 16000000 		.4byte	.LVL80
 8734 0462 0100     		.2byte	0x1
 8735 0464 51       		.byte	0x51
 8736 0465 16000000 		.4byte	.LVL80
 8737 0469 30010000 		.4byte	.LFE81
 8738 046d 0200     		.2byte	0x2
 8739 046f 91       		.byte	0x91
 8740 0470 60       		.sleb128 -32
 8741 0471 00000000 		.4byte	0
 8742 0475 00000000 		.4byte	0
 8743              	.LLST31:
 8744 0479 00000000 		.4byte	.LVL78
 8745 047d 08000000 		.4byte	.LVL79
 8746 0481 0100     		.2byte	0x1
 8747 0483 52       		.byte	0x52
 8748 0484 08000000 		.4byte	.LVL79
 8749 0488 2E000000 		.4byte	.LVL84
 8750 048c 0200     		.2byte	0x2
 8751 048e 91       		.byte	0x91
 8752 048f 64       		.sleb128 -28
 8753 0490 2E000000 		.4byte	.LVL84
 8754 0494 A4000000 		.4byte	.LVL95
 8755 0498 0400     		.2byte	0x4
 8756 049a F3       		.byte	0xf3
 8757 049b 01       		.uleb128 0x1
ARM GAS  C:\Users\Petro\AppData\Local\Temp\ccEiKVD5.s 			page 174


 8758 049c 52       		.byte	0x52
 8759 049d 9F       		.byte	0x9f
 8760 049e A4000000 		.4byte	.LVL95
 8761 04a2 28010000 		.4byte	.LVL109
 8762 04a6 0200     		.2byte	0x2
 8763 04a8 91       		.byte	0x91
 8764 04a9 64       		.sleb128 -28
 8765 04aa 28010000 		.4byte	.LVL109
 8766 04ae 30010000 		.4byte	.LFE81
 8767 04b2 0400     		.2byte	0x4
 8768 04b4 F3       		.byte	0xf3
 8769 04b5 01       		.uleb128 0x1
 8770 04b6 52       		.byte	0x52
 8771 04b7 9F       		.byte	0x9f
 8772 04b8 00000000 		.4byte	0
 8773 04bc 00000000 		.4byte	0
 8774              	.LLST32:
 8775 04c0 28000000 		.4byte	.LVL82
 8776 04c4 2A000000 		.4byte	.LVL83
 8777 04c8 0100     		.2byte	0x1
 8778 04ca 53       		.byte	0x53
 8779 04cb 2A000000 		.4byte	.LVL83
 8780 04cf A4000000 		.4byte	.LVL95
 8781 04d3 0200     		.2byte	0x2
 8782 04d5 91       		.byte	0x91
 8783 04d6 5C       		.sleb128 -36
 8784 04d7 00000000 		.4byte	0
 8785 04db 00000000 		.4byte	0
 8786              	.LLST33:
 8787 04df 28000000 		.4byte	.LVL82
 8788 04e3 2E000000 		.4byte	.LVL84
 8789 04e7 0200     		.2byte	0x2
 8790 04e9 30       		.byte	0x30
 8791 04ea 9F       		.byte	0x9f
 8792 04eb 30000000 		.4byte	.LVL85
 8793 04ef A4000000 		.4byte	.LVL95
 8794 04f3 0100     		.2byte	0x1
 8795 04f5 55       		.byte	0x55
 8796 04f6 00000000 		.4byte	0
 8797 04fa 00000000 		.4byte	0
 8798              	.LLST34:
 8799 04fe 4A000000 		.4byte	.LVL86
 8800 0502 92000000 		.4byte	.LVL91
 8801 0506 0900     		.2byte	0x9
 8802 0508 77       		.byte	0x77
 8803 0509 00       		.sleb128 0
 8804 050a 91       		.byte	0x91
 8805 050b 58       		.sleb128 -40
 8806 050c 06       		.byte	0x6
 8807 050d 1C       		.byte	0x1c
 8808 050e 34       		.byte	0x34
 8809 050f 1C       		.byte	0x1c
 8810 0510 9F       		.byte	0x9f
 8811 0511 92000000 		.4byte	.LVL91
 8812 0515 98000000 		.4byte	.LVL92
 8813 0519 0900     		.2byte	0x9
 8814 051b 77       		.byte	0x77
ARM GAS  C:\Users\Petro\AppData\Local\Temp\ccEiKVD5.s 			page 175


 8815 051c 00       		.sleb128 0
 8816 051d 91       		.byte	0x91
 8817 051e 58       		.sleb128 -40
 8818 051f 06       		.byte	0x6
 8819 0520 1C       		.byte	0x1c
 8820 0521 33       		.byte	0x33
 8821 0522 1C       		.byte	0x1c
 8822 0523 9F       		.byte	0x9f
 8823 0524 98000000 		.4byte	.LVL92
 8824 0528 A4000000 		.4byte	.LVL95
 8825 052c 0900     		.2byte	0x9
 8826 052e 77       		.byte	0x77
 8827 052f 00       		.sleb128 0
 8828 0530 91       		.byte	0x91
 8829 0531 58       		.sleb128 -40
 8830 0532 06       		.byte	0x6
 8831 0533 1C       		.byte	0x1c
 8832 0534 34       		.byte	0x34
 8833 0535 1C       		.byte	0x1c
 8834 0536 9F       		.byte	0x9f
 8835 0537 00000000 		.4byte	0
 8836 053b 00000000 		.4byte	0
 8837              	.LLST35:
 8838 053f 58000000 		.4byte	.LVL87
 8839 0543 9A000000 		.4byte	.LVL93
 8840 0547 0100     		.2byte	0x1
 8841 0549 56       		.byte	0x56
 8842 054a 00000000 		.4byte	0
 8843 054e 00000000 		.4byte	0
 8844              	.LLST36:
 8845 0552 AE000000 		.4byte	.LVL96
 8846 0556 28010000 		.4byte	.LVL109
 8847 055a 0100     		.2byte	0x1
 8848 055c 54       		.byte	0x54
 8849 055d 00000000 		.4byte	0
 8850 0561 00000000 		.4byte	0
 8851              	.LLST37:
 8852 0565 B4000000 		.4byte	.LVL97
 8853 0569 B6000000 		.4byte	.LVL98
 8854 056d 0100     		.2byte	0x1
 8855 056f 53       		.byte	0x53
 8856 0570 B6000000 		.4byte	.LVL98
 8857 0574 28010000 		.4byte	.LVL109
 8858 0578 0200     		.2byte	0x2
 8859 057a 91       		.byte	0x91
 8860 057b 5C       		.sleb128 -36
 8861 057c 00000000 		.4byte	0
 8862 0580 00000000 		.4byte	0
 8863              	.LLST38:
 8864 0584 B4000000 		.4byte	.LVL97
 8865 0588 BC000000 		.4byte	.LVL99
 8866 058c 0200     		.2byte	0x2
 8867 058e 37       		.byte	0x37
 8868 058f 9F       		.byte	0x9f
 8869 0590 BC000000 		.4byte	.LVL99
 8870 0594 00010000 		.4byte	.LVL102
 8871 0598 0100     		.2byte	0x1
ARM GAS  C:\Users\Petro\AppData\Local\Temp\ccEiKVD5.s 			page 176


 8872 059a 57       		.byte	0x57
 8873 059b 00010000 		.4byte	.LVL102
 8874 059f 04010000 		.4byte	.LVL103
 8875 05a3 0300     		.2byte	0x3
 8876 05a5 77       		.byte	0x77
 8877 05a6 7F       		.sleb128 -1
 8878 05a7 9F       		.byte	0x9f
 8879 05a8 04010000 		.4byte	.LVL103
 8880 05ac 10010000 		.4byte	.LVL105
 8881 05b0 0200     		.2byte	0x2
 8882 05b2 37       		.byte	0x37
 8883 05b3 9F       		.byte	0x9f
 8884 05b4 10010000 		.4byte	.LVL105
 8885 05b8 28010000 		.4byte	.LVL109
 8886 05bc 0100     		.2byte	0x1
 8887 05be 57       		.byte	0x57
 8888 05bf 00000000 		.4byte	0
 8889 05c3 00000000 		.4byte	0
 8890              	.LLST39:
 8891 05c7 B4000000 		.4byte	.LVL97
 8892 05cb BC000000 		.4byte	.LVL99
 8893 05cf 0200     		.2byte	0x2
 8894 05d1 30       		.byte	0x30
 8895 05d2 9F       		.byte	0x9f
 8896 05d3 BC000000 		.4byte	.LVL99
 8897 05d7 24010000 		.4byte	.LVL108
 8898 05db 0200     		.2byte	0x2
 8899 05dd 91       		.byte	0x91
 8900 05de 54       		.sleb128 -44
 8901 05df 24010000 		.4byte	.LVL108
 8902 05e3 28010000 		.4byte	.LVL109
 8903 05e7 0100     		.2byte	0x1
 8904 05e9 53       		.byte	0x53
 8905 05ea 00000000 		.4byte	0
 8906 05ee 00000000 		.4byte	0
 8907              	.LLST40:
 8908 05f2 CE000000 		.4byte	.LVL100
 8909 05f6 18010000 		.4byte	.LVL106
 8910 05fa 0200     		.2byte	0x2
 8911 05fc 91       		.byte	0x91
 8912 05fd 58       		.sleb128 -40
 8913 05fe 18010000 		.4byte	.LVL106
 8914 0602 1C010000 		.4byte	.LVL107
 8915 0606 0100     		.2byte	0x1
 8916 0608 53       		.byte	0x53
 8917 0609 1C010000 		.4byte	.LVL107
 8918 060d 28010000 		.4byte	.LVL109
 8919 0611 0100     		.2byte	0x1
 8920 0613 51       		.byte	0x51
 8921 0614 00000000 		.4byte	0
 8922 0618 00000000 		.4byte	0
 8923              	.LLST41:
 8924 061c 00000000 		.4byte	.LVL110
 8925 0620 0B000000 		.4byte	.LVL111-1
 8926 0624 0100     		.2byte	0x1
 8927 0626 50       		.byte	0x50
 8928 0627 0B000000 		.4byte	.LVL111-1
ARM GAS  C:\Users\Petro\AppData\Local\Temp\ccEiKVD5.s 			page 177


 8929 062b 36000000 		.4byte	.LVL117
 8930 062f 0100     		.2byte	0x1
 8931 0631 57       		.byte	0x57
 8932 0632 36000000 		.4byte	.LVL117
 8933 0636 3A000000 		.4byte	.LVL118
 8934 063a 0600     		.2byte	0x6
 8935 063c 77       		.byte	0x77
 8936 063d 00       		.sleb128 0
 8937 063e 75       		.byte	0x75
 8938 063f 00       		.sleb128 0
 8939 0640 22       		.byte	0x22
 8940 0641 9F       		.byte	0x9f
 8941 0642 3A000000 		.4byte	.LVL118
 8942 0646 4C000000 		.4byte	.LVL120
 8943 064a 0800     		.2byte	0x8
 8944 064c 77       		.byte	0x77
 8945 064d 00       		.sleb128 0
 8946 064e 75       		.byte	0x75
 8947 064f 00       		.sleb128 0
 8948 0650 22       		.byte	0x22
 8949 0651 23       		.byte	0x23
 8950 0652 01       		.uleb128 0x1
 8951 0653 9F       		.byte	0x9f
 8952 0654 4C000000 		.4byte	.LVL120
 8953 0658 4E000000 		.4byte	.LVL122
 8954 065c 0600     		.2byte	0x6
 8955 065e 77       		.byte	0x77
 8956 065f 00       		.sleb128 0
 8957 0660 75       		.byte	0x75
 8958 0661 00       		.sleb128 0
 8959 0662 22       		.byte	0x22
 8960 0663 9F       		.byte	0x9f
 8961 0664 00000000 		.4byte	0
 8962 0668 00000000 		.4byte	0
 8963              	.LLST42:
 8964 066c 00000000 		.4byte	.LVL110
 8965 0670 0B000000 		.4byte	.LVL111-1
 8966 0674 0100     		.2byte	0x1
 8967 0676 51       		.byte	0x51
 8968 0677 0B000000 		.4byte	.LVL111-1
 8969 067b 18000000 		.4byte	.LVL113
 8970 067f 0100     		.2byte	0x1
 8971 0681 54       		.byte	0x54
 8972 0682 18000000 		.4byte	.LVL113
 8973 0686 1E000000 		.4byte	.LVL114
 8974 068a 0400     		.2byte	0x4
 8975 068c F3       		.byte	0xf3
 8976 068d 01       		.uleb128 0x1
 8977 068e 51       		.byte	0x51
 8978 068f 9F       		.byte	0x9f
 8979 0690 1E000000 		.4byte	.LVL114
 8980 0694 28000000 		.4byte	.LVL115
 8981 0698 0100     		.2byte	0x1
 8982 069a 54       		.byte	0x54
 8983 069b 34000000 		.4byte	.LVL116
 8984 069f 4E000000 		.4byte	.LVL121
 8985 06a3 0100     		.2byte	0x1
ARM GAS  C:\Users\Petro\AppData\Local\Temp\ccEiKVD5.s 			page 178


 8986 06a5 54       		.byte	0x54
 8987 06a6 00000000 		.4byte	0
 8988 06aa 00000000 		.4byte	0
 8989              	.LLST43:
 8990 06ae 00000000 		.4byte	.LVL110
 8991 06b2 0B000000 		.4byte	.LVL111-1
 8992 06b6 0100     		.2byte	0x1
 8993 06b8 52       		.byte	0x52
 8994 06b9 0B000000 		.4byte	.LVL111-1
 8995 06bd 5C000000 		.4byte	.LFE77
 8996 06c1 0200     		.2byte	0x2
 8997 06c3 91       		.byte	0x91
 8998 06c4 64       		.sleb128 -28
 8999 06c5 00000000 		.4byte	0
 9000 06c9 00000000 		.4byte	0
 9001              	.LLST44:
 9002 06cd 10000000 		.4byte	.LVL112
 9003 06d1 36000000 		.4byte	.LVL117
 9004 06d5 0100     		.2byte	0x1
 9005 06d7 50       		.byte	0x50
 9006 06d8 36000000 		.4byte	.LVL117
 9007 06dc 4E000000 		.4byte	.LVL123
 9008 06e0 0100     		.2byte	0x1
 9009 06e2 56       		.byte	0x56
 9010 06e3 00000000 		.4byte	0
 9011 06e7 00000000 		.4byte	0
 9012              	.LLST45:
 9013 06eb 34000000 		.4byte	.LVL116
 9014 06ef 36000000 		.4byte	.LVL117
 9015 06f3 0200     		.2byte	0x2
 9016 06f5 30       		.byte	0x30
 9017 06f6 9F       		.byte	0x9f
 9018 06f7 36000000 		.4byte	.LVL117
 9019 06fb 4E000000 		.4byte	.LVL122
 9020 06ff 0100     		.2byte	0x1
 9021 0701 55       		.byte	0x55
 9022 0702 00000000 		.4byte	0
 9023 0706 00000000 		.4byte	0
 9024              	.LLST46:
 9025 070a 00000000 		.4byte	.LVL124
 9026 070e 05000000 		.4byte	.LVL125-1
 9027 0712 0100     		.2byte	0x1
 9028 0714 50       		.byte	0x50
 9029 0715 05000000 		.4byte	.LVL125-1
 9030 0719 08000000 		.4byte	.LFE78
 9031 071d 0400     		.2byte	0x4
 9032 071f F3       		.byte	0xf3
 9033 0720 01       		.uleb128 0x1
 9034 0721 50       		.byte	0x50
 9035 0722 9F       		.byte	0x9f
 9036 0723 00000000 		.4byte	0
 9037 0727 00000000 		.4byte	0
 9038              	.LLST47:
 9039 072b 00000000 		.4byte	.LVL124
 9040 072f 05000000 		.4byte	.LVL125-1
 9041 0733 0100     		.2byte	0x1
 9042 0735 51       		.byte	0x51
ARM GAS  C:\Users\Petro\AppData\Local\Temp\ccEiKVD5.s 			page 179


 9043 0736 05000000 		.4byte	.LVL125-1
 9044 073a 08000000 		.4byte	.LFE78
 9045 073e 0400     		.2byte	0x4
 9046 0740 F3       		.byte	0xf3
 9047 0741 01       		.uleb128 0x1
 9048 0742 51       		.byte	0x51
 9049 0743 9F       		.byte	0x9f
 9050 0744 00000000 		.4byte	0
 9051 0748 00000000 		.4byte	0
 9052              	.LLST48:
 9053 074c 00000000 		.4byte	.LVL124
 9054 0750 05000000 		.4byte	.LVL125-1
 9055 0754 0100     		.2byte	0x1
 9056 0756 52       		.byte	0x52
 9057 0757 05000000 		.4byte	.LVL125-1
 9058 075b 08000000 		.4byte	.LFE78
 9059 075f 0400     		.2byte	0x4
 9060 0761 F3       		.byte	0xf3
 9061 0762 01       		.uleb128 0x1
 9062 0763 52       		.byte	0x52
 9063 0764 9F       		.byte	0x9f
 9064 0765 00000000 		.4byte	0
 9065 0769 00000000 		.4byte	0
 9066              	.LLST49:
 9067 076d 00000000 		.4byte	.LVL126
 9068 0771 16000000 		.4byte	.LVL129
 9069 0775 0100     		.2byte	0x1
 9070 0777 50       		.byte	0x50
 9071 0778 16000000 		.4byte	.LVL129
 9072 077c 1C000000 		.4byte	.LVL130
 9073 0780 0100     		.2byte	0x1
 9074 0782 54       		.byte	0x54
 9075 0783 1C000000 		.4byte	.LVL130
 9076 0787 36000000 		.4byte	.LVL133
 9077 078b 0400     		.2byte	0x4
 9078 078d F3       		.byte	0xf3
 9079 078e 01       		.uleb128 0x1
 9080 078f 50       		.byte	0x50
 9081 0790 9F       		.byte	0x9f
 9082 0791 36000000 		.4byte	.LVL133
 9083 0795 3E000000 		.4byte	.LVL134
 9084 0799 0100     		.2byte	0x1
 9085 079b 54       		.byte	0x54
 9086 079c 3E000000 		.4byte	.LVL134
 9087 07a0 46000000 		.4byte	.LVL136
 9088 07a4 0100     		.2byte	0x1
 9089 07a6 50       		.byte	0x50
 9090 07a7 46000000 		.4byte	.LVL136
 9091 07ab 66000000 		.4byte	.LVL142
 9092 07af 0100     		.2byte	0x1
 9093 07b1 54       		.byte	0x54
 9094 07b2 66000000 		.4byte	.LVL142
 9095 07b6 82000000 		.4byte	.LVL143
 9096 07ba 0100     		.2byte	0x1
 9097 07bc 50       		.byte	0x50
 9098 07bd 00000000 		.4byte	0
 9099 07c1 00000000 		.4byte	0
ARM GAS  C:\Users\Petro\AppData\Local\Temp\ccEiKVD5.s 			page 180


 9100              	.LLST50:
 9101 07c5 00000000 		.4byte	.LVL126
 9102 07c9 4A000000 		.4byte	.LVL138
 9103 07cd 0100     		.2byte	0x1
 9104 07cf 51       		.byte	0x51
 9105 07d0 4A000000 		.4byte	.LVL138
 9106 07d4 C8000000 		.4byte	.LFE79
 9107 07d8 0300     		.2byte	0x3
 9108 07da 91       		.byte	0x91
 9109 07db A87F     		.sleb128 -88
 9110 07dd 00000000 		.4byte	0
 9111 07e1 00000000 		.4byte	0
 9112              	.LLST51:
 9113 07e5 00000000 		.4byte	.LVL126
 9114 07e9 4A000000 		.4byte	.LVL138
 9115 07ed 0100     		.2byte	0x1
 9116 07ef 52       		.byte	0x52
 9117 07f0 4A000000 		.4byte	.LVL138
 9118 07f4 C8000000 		.4byte	.LFE79
 9119 07f8 0300     		.2byte	0x3
 9120 07fa 91       		.byte	0x91
 9121 07fb AC7F     		.sleb128 -84
 9122 07fd 00000000 		.4byte	0
 9123 0801 00000000 		.4byte	0
 9124              	.LLST52:
 9125 0805 00000000 		.4byte	.LVL126
 9126 0809 08000000 		.4byte	.LVL127
 9127 080d 0100     		.2byte	0x1
 9128 080f 53       		.byte	0x53
 9129 0810 08000000 		.4byte	.LVL127
 9130 0814 1C000000 		.4byte	.LVL130
 9131 0818 0100     		.2byte	0x1
 9132 081a 55       		.byte	0x55
 9133 081b 1C000000 		.4byte	.LVL130
 9134 081f 36000000 		.4byte	.LVL133
 9135 0823 0300     		.2byte	0x3
 9136 0825 75       		.byte	0x75
 9137 0826 01       		.sleb128 1
 9138 0827 9F       		.byte	0x9f
 9139 0828 36000000 		.4byte	.LVL133
 9140 082c BA000000 		.4byte	.LVL152
 9141 0830 0100     		.2byte	0x1
 9142 0832 55       		.byte	0x55
 9143 0833 BA000000 		.4byte	.LVL152
 9144 0837 C8000000 		.4byte	.LFE79
 9145 083b 0400     		.2byte	0x4
 9146 083d F3       		.byte	0xf3
 9147 083e 01       		.uleb128 0x1
 9148 083f 53       		.byte	0x53
 9149 0840 9F       		.byte	0x9f
 9150 0841 00000000 		.4byte	0
 9151 0845 00000000 		.4byte	0
 9152              	.LLST53:
 9153 0849 00000000 		.4byte	.LVL126
 9154 084d 08000000 		.4byte	.LVL127
 9155 0851 0200     		.2byte	0x2
 9156 0853 91       		.byte	0x91
ARM GAS  C:\Users\Petro\AppData\Local\Temp\ccEiKVD5.s 			page 181


 9157 0854 00       		.sleb128 0
 9158 0855 08000000 		.4byte	.LVL127
 9159 0859 0A000000 		.4byte	.LVL128
 9160 085d 0200     		.2byte	0x2
 9161 085f 73       		.byte	0x73
 9162 0860 00       		.sleb128 0
 9163 0861 0A000000 		.4byte	.LVL128
 9164 0865 C8000000 		.4byte	.LFE79
 9165 0869 0200     		.2byte	0x2
 9166 086b 91       		.byte	0x91
 9167 086c 00       		.sleb128 0
 9168 086d 00000000 		.4byte	0
 9169 0871 00000000 		.4byte	0
 9170              	.LLST54:
 9171 0875 00000000 		.4byte	.LVL126
 9172 0879 44000000 		.4byte	.LVL135
 9173 087d 0200     		.2byte	0x2
 9174 087f 30       		.byte	0x30
 9175 0880 9F       		.byte	0x9f
 9176 0881 44000000 		.4byte	.LVL135
 9177 0885 48000000 		.4byte	.LVL137
 9178 0889 0200     		.2byte	0x2
 9179 088b 31       		.byte	0x31
 9180 088c 9F       		.byte	0x9f
 9181 088d 48000000 		.4byte	.LVL137
 9182 0891 9E000000 		.4byte	.LVL147
 9183 0895 0100     		.2byte	0x1
 9184 0897 56       		.byte	0x56
 9185 0898 00000000 		.4byte	0
 9186 089c 00000000 		.4byte	0
 9187              	.LLST55:
 9188 08a0 00000000 		.4byte	.LVL126
 9189 08a4 1C000000 		.4byte	.LVL130
 9190 08a8 0200     		.2byte	0x2
 9191 08aa 30       		.byte	0x30
 9192 08ab 9F       		.byte	0x9f
 9193 08ac 1C000000 		.4byte	.LVL130
 9194 08b0 32000000 		.4byte	.LVL132
 9195 08b4 0100     		.2byte	0x1
 9196 08b6 54       		.byte	0x54
 9197 08b7 36000000 		.4byte	.LVL133
 9198 08bb 4A000000 		.4byte	.LVL138
 9199 08bf 0200     		.2byte	0x2
 9200 08c1 30       		.byte	0x30
 9201 08c2 9F       		.byte	0x9f
 9202 08c3 4A000000 		.4byte	.LVL138
 9203 08c7 BA000000 		.4byte	.LVL152
 9204 08cb 0100     		.2byte	0x1
 9205 08cd 57       		.byte	0x57
 9206 08ce 00000000 		.4byte	0
 9207 08d2 00000000 		.4byte	0
 9208              	.LLST56:
 9209 08d6 00000000 		.4byte	.LVL126
 9210 08da 82000000 		.4byte	.LVL143
 9211 08de 0200     		.2byte	0x2
 9212 08e0 30       		.byte	0x30
 9213 08e1 9F       		.byte	0x9f
ARM GAS  C:\Users\Petro\AppData\Local\Temp\ccEiKVD5.s 			page 182


 9214 08e2 82000000 		.4byte	.LVL143
 9215 08e6 96000000 		.4byte	.LVL145
 9216 08ea 0100     		.2byte	0x1
 9217 08ec 53       		.byte	0x53
 9218 08ed 9A000000 		.4byte	.LVL146
 9219 08f1 B6000000 		.4byte	.LVL151
 9220 08f5 0100     		.2byte	0x1
 9221 08f7 53       		.byte	0x53
 9222 08f8 00000000 		.4byte	0
 9223 08fc 00000000 		.4byte	0
 9224              	.LLST57:
 9225 0900 9A000000 		.4byte	.LVL146
 9226 0904 A2000000 		.4byte	.LVL148
 9227 0908 0200     		.2byte	0x2
 9228 090a 30       		.byte	0x30
 9229 090b 9F       		.byte	0x9f
 9230 090c A2000000 		.4byte	.LVL148
 9231 0910 B4000000 		.4byte	.LVL150
 9232 0914 0100     		.2byte	0x1
 9233 0916 52       		.byte	0x52
 9234 0917 00000000 		.4byte	0
 9235 091b 00000000 		.4byte	0
 9236              	.LLST58:
 9237 091f 82000000 		.4byte	.LVL143
 9238 0923 96000000 		.4byte	.LVL145
 9239 0927 0100     		.2byte	0x1
 9240 0929 53       		.byte	0x53
 9241 092a 00000000 		.4byte	0
 9242 092e 00000000 		.4byte	0
 9243              	.LLST59:
 9244 0932 00000000 		.4byte	.LVL154
 9245 0936 24000000 		.4byte	.LVL162
 9246 093a 0600     		.2byte	0x6
 9247 093c 50       		.byte	0x50
 9248 093d 93       		.byte	0x93
 9249 093e 04       		.uleb128 0x4
 9250 093f 51       		.byte	0x51
 9251 0940 93       		.byte	0x93
 9252 0941 04       		.uleb128 0x4
 9253 0942 24000000 		.4byte	.LVL162
 9254 0946 94000000 		.4byte	.LFE80
 9255 094a 0600     		.2byte	0x6
 9256 094c F3       		.byte	0xf3
 9257 094d 03       		.uleb128 0x3
 9258 094e F5       		.byte	0xf5
 9259 094f 00       		.uleb128 0
 9260 0950 25       		.uleb128 0x25
 9261 0951 9F       		.byte	0x9f
 9262 0952 00000000 		.4byte	0
 9263 0956 00000000 		.4byte	0
 9264              	.LLST60:
 9265 095a 00000000 		.4byte	.LVL154
 9266 095e 20000000 		.4byte	.LVL161
 9267 0962 0100     		.2byte	0x1
 9268 0964 52       		.byte	0x52
 9269 0965 20000000 		.4byte	.LVL161
 9270 0969 94000000 		.4byte	.LFE80
ARM GAS  C:\Users\Petro\AppData\Local\Temp\ccEiKVD5.s 			page 183


 9271 096d 0400     		.2byte	0x4
 9272 096f F3       		.byte	0xf3
 9273 0970 01       		.uleb128 0x1
 9274 0971 52       		.byte	0x52
 9275 0972 9F       		.byte	0x9f
 9276 0973 00000000 		.4byte	0
 9277 0977 00000000 		.4byte	0
 9278              	.LLST61:
 9279 097b 00000000 		.4byte	.LVL154
 9280 097f 0A000000 		.4byte	.LVL155
 9281 0983 0100     		.2byte	0x1
 9282 0985 53       		.byte	0x53
 9283 0986 0A000000 		.4byte	.LVL155
 9284 098a 0C000000 		.4byte	.LVL156
 9285 098e 0200     		.2byte	0x2
 9286 0990 73       		.byte	0x73
 9287 0991 40       		.sleb128 -64
 9288 0992 0C000000 		.4byte	.LVL156
 9289 0996 10000000 		.4byte	.LVL157
 9290 099a 0300     		.2byte	0x3
 9291 099c 73       		.byte	0x73
 9292 099d BC7F     		.sleb128 -68
 9293 099f 10000000 		.4byte	.LVL157
 9294 09a3 94000000 		.4byte	.LFE80
 9295 09a7 0200     		.2byte	0x2
 9296 09a9 91       		.byte	0x91
 9297 09aa 40       		.sleb128 -64
 9298 09ab 00000000 		.4byte	0
 9299 09af 00000000 		.4byte	0
 9300              	.LLST62:
 9301 09b3 00000000 		.4byte	.LVL154
 9302 09b7 0A000000 		.4byte	.LVL155
 9303 09bb 0200     		.2byte	0x2
 9304 09bd 91       		.byte	0x91
 9305 09be 00       		.sleb128 0
 9306 09bf 0A000000 		.4byte	.LVL155
 9307 09c3 0C000000 		.4byte	.LVL156
 9308 09c7 0200     		.2byte	0x2
 9309 09c9 73       		.byte	0x73
 9310 09ca 00       		.sleb128 0
 9311 09cb 0C000000 		.4byte	.LVL156
 9312 09cf 10000000 		.4byte	.LVL157
 9313 09d3 0200     		.2byte	0x2
 9314 09d5 73       		.byte	0x73
 9315 09d6 7C       		.sleb128 -4
 9316 09d7 10000000 		.4byte	.LVL157
 9317 09db 94000000 		.4byte	.LFE80
 9318 09df 0200     		.2byte	0x2
 9319 09e1 91       		.byte	0x91
 9320 09e2 00       		.sleb128 0
 9321 09e3 00000000 		.4byte	0
 9322 09e7 00000000 		.4byte	0
 9323              	.LLST63:
 9324 09eb 00000000 		.4byte	.LVL154
 9325 09ef 0A000000 		.4byte	.LVL155
 9326 09f3 0200     		.2byte	0x2
 9327 09f5 91       		.byte	0x91
ARM GAS  C:\Users\Petro\AppData\Local\Temp\ccEiKVD5.s 			page 184


 9328 09f6 04       		.sleb128 4
 9329 09f7 0A000000 		.4byte	.LVL155
 9330 09fb 0C000000 		.4byte	.LVL156
 9331 09ff 0200     		.2byte	0x2
 9332 0a01 73       		.byte	0x73
 9333 0a02 04       		.sleb128 4
 9334 0a03 0C000000 		.4byte	.LVL156
 9335 0a07 10000000 		.4byte	.LVL157
 9336 0a0b 0200     		.2byte	0x2
 9337 0a0d 73       		.byte	0x73
 9338 0a0e 00       		.sleb128 0
 9339 0a0f 10000000 		.4byte	.LVL157
 9340 0a13 94000000 		.4byte	.LFE80
 9341 0a17 0200     		.2byte	0x2
 9342 0a19 91       		.byte	0x91
 9343 0a1a 04       		.sleb128 4
 9344 0a1b 00000000 		.4byte	0
 9345 0a1f 00000000 		.4byte	0
 9346              	.LLST64:
 9347 0a23 00000000 		.4byte	.LVL154
 9348 0a27 0A000000 		.4byte	.LVL155
 9349 0a2b 0200     		.2byte	0x2
 9350 0a2d 91       		.byte	0x91
 9351 0a2e 08       		.sleb128 8
 9352 0a2f 0A000000 		.4byte	.LVL155
 9353 0a33 0C000000 		.4byte	.LVL156
 9354 0a37 0200     		.2byte	0x2
 9355 0a39 73       		.byte	0x73
 9356 0a3a 08       		.sleb128 8
 9357 0a3b 0C000000 		.4byte	.LVL156
 9358 0a3f 10000000 		.4byte	.LVL157
 9359 0a43 0200     		.2byte	0x2
 9360 0a45 73       		.byte	0x73
 9361 0a46 04       		.sleb128 4
 9362 0a47 10000000 		.4byte	.LVL157
 9363 0a4b 94000000 		.4byte	.LFE80
 9364 0a4f 0200     		.2byte	0x2
 9365 0a51 91       		.byte	0x91
 9366 0a52 08       		.sleb128 8
 9367 0a53 00000000 		.4byte	0
 9368 0a57 00000000 		.4byte	0
 9369              	.LLST65:
 9370 0a5b 00000000 		.4byte	.LVL154
 9371 0a5f 0A000000 		.4byte	.LVL155
 9372 0a63 0200     		.2byte	0x2
 9373 0a65 91       		.byte	0x91
 9374 0a66 0C       		.sleb128 12
 9375 0a67 0A000000 		.4byte	.LVL155
 9376 0a6b 0C000000 		.4byte	.LVL156
 9377 0a6f 0200     		.2byte	0x2
 9378 0a71 73       		.byte	0x73
 9379 0a72 0C       		.sleb128 12
 9380 0a73 0C000000 		.4byte	.LVL156
 9381 0a77 10000000 		.4byte	.LVL157
 9382 0a7b 0200     		.2byte	0x2
 9383 0a7d 73       		.byte	0x73
 9384 0a7e 08       		.sleb128 8
ARM GAS  C:\Users\Petro\AppData\Local\Temp\ccEiKVD5.s 			page 185


 9385 0a7f 10000000 		.4byte	.LVL157
 9386 0a83 16000000 		.4byte	.LVL159
 9387 0a87 0200     		.2byte	0x2
 9388 0a89 91       		.byte	0x91
 9389 0a8a 0C       		.sleb128 12
 9390 0a8b 16000000 		.4byte	.LVL159
 9391 0a8f 1A000000 		.4byte	.LVL160
 9392 0a93 0200     		.2byte	0x2
 9393 0a95 73       		.byte	0x73
 9394 0a96 00       		.sleb128 0
 9395 0a97 1A000000 		.4byte	.LVL160
 9396 0a9b 94000000 		.4byte	.LFE80
 9397 0a9f 0200     		.2byte	0x2
 9398 0aa1 91       		.byte	0x91
 9399 0aa2 0C       		.sleb128 12
 9400 0aa3 00000000 		.4byte	0
 9401 0aa7 00000000 		.4byte	0
 9402              	.LLST66:
 9403 0aab 60000000 		.4byte	.LVL169
 9404 0aaf 72000000 		.4byte	.LVL172
 9405 0ab3 0200     		.2byte	0x2
 9406 0ab5 4B       		.byte	0x4b
 9407 0ab6 9F       		.byte	0x9f
 9408 0ab7 80000000 		.4byte	.LVL175
 9409 0abb 84000000 		.4byte	.LVL176
 9410 0abf 0200     		.2byte	0x2
 9411 0ac1 4B       		.byte	0x4b
 9412 0ac2 9F       		.byte	0x9f
 9413 0ac3 00000000 		.4byte	0
 9414 0ac7 00000000 		.4byte	0
 9415              	.LLST67:
 9416 0acb 12000000 		.4byte	.LVL158
 9417 0acf 7E000000 		.4byte	.LVL174
 9418 0ad3 1000     		.2byte	0x10
 9419 0ad5 F5       		.byte	0xf5
 9420 0ad6 06       		.uleb128 0x6
 9421 0ad7 25       		.uleb128 0x25
 9422 0ad8 F4       		.byte	0xf4
 9423 0ad9 25       		.uleb128 0x25
 9424 0ada 08       		.byte	0x8
 9425 0adb 00000000 		.4byte	0
 9426 0adf 00000000 		.4byte	0
 9427 0ae3 2D       		.byte	0x2d
 9428 0ae4 9F       		.byte	0x9f
 9429 0ae5 80000000 		.4byte	.LVL175
 9430 0ae9 94000000 		.4byte	.LFE80
 9431 0aed 1000     		.2byte	0x10
 9432 0aef F5       		.byte	0xf5
 9433 0af0 06       		.uleb128 0x6
 9434 0af1 25       		.uleb128 0x25
 9435 0af2 F4       		.byte	0xf4
 9436 0af3 25       		.uleb128 0x25
 9437 0af4 08       		.byte	0x8
 9438 0af5 00000000 		.4byte	0
 9439 0af9 00000000 		.4byte	0
 9440 0afd 2D       		.byte	0x2d
 9441 0afe 9F       		.byte	0x9f
ARM GAS  C:\Users\Petro\AppData\Local\Temp\ccEiKVD5.s 			page 186


 9442 0aff 00000000 		.4byte	0
 9443 0b03 00000000 		.4byte	0
 9444              	.LLST68:
 9445 0b07 38000000 		.4byte	.LVL164
 9446 0b0b 4C000000 		.4byte	.LVL167
 9447 0b0f 0100     		.2byte	0x1
 9448 0b11 53       		.byte	0x53
 9449 0b12 00000000 		.4byte	0
 9450 0b16 00000000 		.4byte	0
 9451              	.LLST69:
 9452 0b1a 60000000 		.4byte	.LVL169
 9453 0b1e 62000000 		.4byte	.LVL170
 9454 0b22 0200     		.2byte	0x2
 9455 0b24 31       		.byte	0x31
 9456 0b25 9F       		.byte	0x9f
 9457 0b26 62000000 		.4byte	.LVL170
 9458 0b2a 72000000 		.4byte	.LVL172
 9459 0b2e 0100     		.2byte	0x1
 9460 0b30 53       		.byte	0x53
 9461 0b31 80000000 		.4byte	.LVL175
 9462 0b35 84000000 		.4byte	.LVL176
 9463 0b39 0100     		.2byte	0x1
 9464 0b3b 53       		.byte	0x53
 9465 0b3c 00000000 		.4byte	0
 9466 0b40 00000000 		.4byte	0
 9467              	.LLST70:
 9468 0b44 00000000 		.4byte	.LVL180
 9469 0b48 12000000 		.4byte	.LVL181
 9470 0b4c 0100     		.2byte	0x1
 9471 0b4e 50       		.byte	0x50
 9472 0b4f 12000000 		.4byte	.LVL181
 9473 0b53 38000000 		.4byte	.LFE83
 9474 0b57 0400     		.2byte	0x4
 9475 0b59 F3       		.byte	0xf3
 9476 0b5a 01       		.uleb128 0x1
 9477 0b5b 50       		.byte	0x50
 9478 0b5c 9F       		.byte	0x9f
 9479 0b5d 00000000 		.4byte	0
 9480 0b61 00000000 		.4byte	0
 9481              	.LLST71:
 9482 0b65 00000000 		.4byte	.LVL180
 9483 0b69 18000000 		.4byte	.LVL182
 9484 0b6d 0100     		.2byte	0x1
 9485 0b6f 51       		.byte	0x51
 9486 0b70 18000000 		.4byte	.LVL182
 9487 0b74 38000000 		.4byte	.LFE83
 9488 0b78 0400     		.2byte	0x4
 9489 0b7a F3       		.byte	0xf3
 9490 0b7b 01       		.uleb128 0x1
 9491 0b7c 51       		.byte	0x51
 9492 0b7d 9F       		.byte	0x9f
 9493 0b7e 00000000 		.4byte	0
 9494 0b82 00000000 		.4byte	0
 9495              	.LLST72:
 9496 0b86 24000000 		.4byte	.LVL184
 9497 0b8a 30000000 		.4byte	.LVL186
 9498 0b8e 0D00     		.2byte	0xd
ARM GAS  C:\Users\Petro\AppData\Local\Temp\ccEiKVD5.s 			page 187


 9499 0b90 F3       		.byte	0xf3
 9500 0b91 01       		.uleb128 0x1
 9501 0b92 51       		.byte	0x51
 9502 0b93 33       		.byte	0x33
 9503 0b94 26       		.byte	0x26
 9504 0b95 08       		.byte	0x8
 9505 0b96 54       		.byte	0x54
 9506 0b97 1E       		.byte	0x1e
 9507 0b98 F3       		.byte	0xf3
 9508 0b99 01       		.uleb128 0x1
 9509 0b9a 50       		.byte	0x50
 9510 0b9b 22       		.byte	0x22
 9511 0b9c 9F       		.byte	0x9f
 9512 0b9d 00000000 		.4byte	0
 9513 0ba1 00000000 		.4byte	0
 9514              	.LLST73:
 9515 0ba5 24000000 		.4byte	.LVL184
 9516 0ba9 30000000 		.4byte	.LVL186
 9517 0bad 0600     		.2byte	0x6
 9518 0baf F3       		.byte	0xf3
 9519 0bb0 01       		.uleb128 0x1
 9520 0bb1 51       		.byte	0x51
 9521 0bb2 37       		.byte	0x37
 9522 0bb3 1A       		.byte	0x1a
 9523 0bb4 9F       		.byte	0x9f
 9524 0bb5 00000000 		.4byte	0
 9525 0bb9 00000000 		.4byte	0
 9526              	.LLST74:
 9527 0bbd 20000000 		.4byte	.LVL183
 9528 0bc1 30000000 		.4byte	.LVL186
 9529 0bc5 0100     		.2byte	0x1
 9530 0bc7 53       		.byte	0x53
 9531 0bc8 00000000 		.4byte	0
 9532 0bcc 00000000 		.4byte	0
 9533              	.LLST75:
 9534 0bd0 00000000 		.4byte	.LVL187
 9535 0bd4 12000000 		.4byte	.LVL188
 9536 0bd8 0100     		.2byte	0x1
 9537 0bda 50       		.byte	0x50
 9538 0bdb 12000000 		.4byte	.LVL188
 9539 0bdf 38000000 		.4byte	.LFE84
 9540 0be3 0400     		.2byte	0x4
 9541 0be5 F3       		.byte	0xf3
 9542 0be6 01       		.uleb128 0x1
 9543 0be7 50       		.byte	0x50
 9544 0be8 9F       		.byte	0x9f
 9545 0be9 00000000 		.4byte	0
 9546 0bed 00000000 		.4byte	0
 9547              	.LLST76:
 9548 0bf1 00000000 		.4byte	.LVL187
 9549 0bf5 16000000 		.4byte	.LVL189
 9550 0bf9 0100     		.2byte	0x1
 9551 0bfb 51       		.byte	0x51
 9552 0bfc 16000000 		.4byte	.LVL189
 9553 0c00 38000000 		.4byte	.LFE84
 9554 0c04 0400     		.2byte	0x4
 9555 0c06 F3       		.byte	0xf3
ARM GAS  C:\Users\Petro\AppData\Local\Temp\ccEiKVD5.s 			page 188


 9556 0c07 01       		.uleb128 0x1
 9557 0c08 51       		.byte	0x51
 9558 0c09 9F       		.byte	0x9f
 9559 0c0a 00000000 		.4byte	0
 9560 0c0e 00000000 		.4byte	0
 9561              	.LLST77:
 9562 0c12 26000000 		.4byte	.LVL191
 9563 0c16 32000000 		.4byte	.LVL193
 9564 0c1a 0D00     		.2byte	0xd
 9565 0c1c F3       		.byte	0xf3
 9566 0c1d 01       		.uleb128 0x1
 9567 0c1e 51       		.byte	0x51
 9568 0c1f 33       		.byte	0x33
 9569 0c20 26       		.byte	0x26
 9570 0c21 08       		.byte	0x8
 9571 0c22 54       		.byte	0x54
 9572 0c23 1E       		.byte	0x1e
 9573 0c24 F3       		.byte	0xf3
 9574 0c25 01       		.uleb128 0x1
 9575 0c26 50       		.byte	0x50
 9576 0c27 22       		.byte	0x22
 9577 0c28 9F       		.byte	0x9f
 9578 0c29 00000000 		.4byte	0
 9579 0c2d 00000000 		.4byte	0
 9580              	.LLST78:
 9581 0c31 26000000 		.4byte	.LVL191
 9582 0c35 32000000 		.4byte	.LVL193
 9583 0c39 0600     		.2byte	0x6
 9584 0c3b F3       		.byte	0xf3
 9585 0c3c 01       		.uleb128 0x1
 9586 0c3d 51       		.byte	0x51
 9587 0c3e 37       		.byte	0x37
 9588 0c3f 1A       		.byte	0x1a
 9589 0c40 9F       		.byte	0x9f
 9590 0c41 00000000 		.4byte	0
 9591 0c45 00000000 		.4byte	0
 9592              	.LLST79:
 9593 0c49 22000000 		.4byte	.LVL190
 9594 0c4d 32000000 		.4byte	.LVL193
 9595 0c51 0100     		.2byte	0x1
 9596 0c53 51       		.byte	0x51
 9597 0c54 00000000 		.4byte	0
 9598 0c58 00000000 		.4byte	0
 9599              	.LLST80:
 9600 0c5c 00000000 		.4byte	.LVL194
 9601 0c60 12000000 		.4byte	.LVL195
 9602 0c64 0100     		.2byte	0x1
 9603 0c66 50       		.byte	0x50
 9604 0c67 12000000 		.4byte	.LVL195
 9605 0c6b 24000000 		.4byte	.LVL199
 9606 0c6f 0100     		.2byte	0x1
 9607 0c71 55       		.byte	0x55
 9608 0c72 24000000 		.4byte	.LVL199
 9609 0c76 26000000 		.4byte	.LFE85
 9610 0c7a 0400     		.2byte	0x4
 9611 0c7c F3       		.byte	0xf3
 9612 0c7d 01       		.uleb128 0x1
ARM GAS  C:\Users\Petro\AppData\Local\Temp\ccEiKVD5.s 			page 189


 9613 0c7e 50       		.byte	0x50
 9614 0c7f 9F       		.byte	0x9f
 9615 0c80 00000000 		.4byte	0
 9616 0c84 00000000 		.4byte	0
 9617              	.LLST81:
 9618 0c88 00000000 		.4byte	.LVL194
 9619 0c8c 12000000 		.4byte	.LVL195
 9620 0c90 0100     		.2byte	0x1
 9621 0c92 51       		.byte	0x51
 9622 0c93 12000000 		.4byte	.LVL195
 9623 0c97 24000000 		.4byte	.LVL200
 9624 0c9b 0100     		.2byte	0x1
 9625 0c9d 56       		.byte	0x56
 9626 0c9e 24000000 		.4byte	.LVL200
 9627 0ca2 26000000 		.4byte	.LFE85
 9628 0ca6 0400     		.2byte	0x4
 9629 0ca8 F3       		.byte	0xf3
 9630 0ca9 01       		.uleb128 0x1
 9631 0caa 51       		.byte	0x51
 9632 0cab 9F       		.byte	0x9f
 9633 0cac 00000000 		.4byte	0
 9634 0cb0 00000000 		.4byte	0
 9635              	.LLST82:
 9636 0cb4 00000000 		.4byte	.LVL194
 9637 0cb8 12000000 		.4byte	.LVL195
 9638 0cbc 0100     		.2byte	0x1
 9639 0cbe 52       		.byte	0x52
 9640 0cbf 12000000 		.4byte	.LVL195
 9641 0cc3 24000000 		.4byte	.LVL201
 9642 0cc7 0100     		.2byte	0x1
 9643 0cc9 57       		.byte	0x57
 9644 0cca 24000000 		.4byte	.LVL201
 9645 0cce 26000000 		.4byte	.LFE85
 9646 0cd2 0400     		.2byte	0x4
 9647 0cd4 F3       		.byte	0xf3
 9648 0cd5 01       		.uleb128 0x1
 9649 0cd6 52       		.byte	0x52
 9650 0cd7 9F       		.byte	0x9f
 9651 0cd8 00000000 		.4byte	0
 9652 0cdc 00000000 		.4byte	0
 9653              	.LLST83:
 9654 0ce0 12000000 		.4byte	.LVL195
 9655 0ce4 24000000 		.4byte	.LVL198
 9656 0ce8 0100     		.2byte	0x1
 9657 0cea 54       		.byte	0x54
 9658 0ceb 00000000 		.4byte	0
 9659 0cef 00000000 		.4byte	0
 9660              	.LLST84:
 9661 0cf3 00000000 		.4byte	.LVL202
 9662 0cf7 12000000 		.4byte	.LVL203
 9663 0cfb 0100     		.2byte	0x1
 9664 0cfd 50       		.byte	0x50
 9665 0cfe 12000000 		.4byte	.LVL203
 9666 0d02 24000000 		.4byte	.LVL207
 9667 0d06 0100     		.2byte	0x1
 9668 0d08 55       		.byte	0x55
 9669 0d09 24000000 		.4byte	.LVL207
ARM GAS  C:\Users\Petro\AppData\Local\Temp\ccEiKVD5.s 			page 190


 9670 0d0d 26000000 		.4byte	.LFE86
 9671 0d11 0400     		.2byte	0x4
 9672 0d13 F3       		.byte	0xf3
 9673 0d14 01       		.uleb128 0x1
 9674 0d15 50       		.byte	0x50
 9675 0d16 9F       		.byte	0x9f
 9676 0d17 00000000 		.4byte	0
 9677 0d1b 00000000 		.4byte	0
 9678              	.LLST85:
 9679 0d1f 00000000 		.4byte	.LVL202
 9680 0d23 12000000 		.4byte	.LVL203
 9681 0d27 0100     		.2byte	0x1
 9682 0d29 51       		.byte	0x51
 9683 0d2a 12000000 		.4byte	.LVL203
 9684 0d2e 24000000 		.4byte	.LVL208
 9685 0d32 0100     		.2byte	0x1
 9686 0d34 56       		.byte	0x56
 9687 0d35 24000000 		.4byte	.LVL208
 9688 0d39 26000000 		.4byte	.LFE86
 9689 0d3d 0400     		.2byte	0x4
 9690 0d3f F3       		.byte	0xf3
 9691 0d40 01       		.uleb128 0x1
 9692 0d41 51       		.byte	0x51
 9693 0d42 9F       		.byte	0x9f
 9694 0d43 00000000 		.4byte	0
 9695 0d47 00000000 		.4byte	0
 9696              	.LLST86:
 9697 0d4b 00000000 		.4byte	.LVL202
 9698 0d4f 12000000 		.4byte	.LVL203
 9699 0d53 0100     		.2byte	0x1
 9700 0d55 52       		.byte	0x52
 9701 0d56 12000000 		.4byte	.LVL203
 9702 0d5a 24000000 		.4byte	.LVL209
 9703 0d5e 0100     		.2byte	0x1
 9704 0d60 57       		.byte	0x57
 9705 0d61 24000000 		.4byte	.LVL209
 9706 0d65 26000000 		.4byte	.LFE86
 9707 0d69 0400     		.2byte	0x4
 9708 0d6b F3       		.byte	0xf3
 9709 0d6c 01       		.uleb128 0x1
 9710 0d6d 52       		.byte	0x52
 9711 0d6e 9F       		.byte	0x9f
 9712 0d6f 00000000 		.4byte	0
 9713 0d73 00000000 		.4byte	0
 9714              	.LLST87:
 9715 0d77 12000000 		.4byte	.LVL203
 9716 0d7b 24000000 		.4byte	.LVL206
 9717 0d7f 0100     		.2byte	0x1
 9718 0d81 54       		.byte	0x54
 9719 0d82 00000000 		.4byte	0
 9720 0d86 00000000 		.4byte	0
 9721              	.LLST88:
 9722 0d8a 00000000 		.4byte	.LVL210
 9723 0d8e 18000000 		.4byte	.LVL213
 9724 0d92 0100     		.2byte	0x1
 9725 0d94 50       		.byte	0x50
 9726 0d95 18000000 		.4byte	.LVL213
ARM GAS  C:\Users\Petro\AppData\Local\Temp\ccEiKVD5.s 			page 191


 9727 0d99 26000000 		.4byte	.LVL217
 9728 0d9d 0100     		.2byte	0x1
 9729 0d9f 54       		.byte	0x54
 9730 0da0 26000000 		.4byte	.LVL217
 9731 0da4 28000000 		.4byte	.LVL218
 9732 0da8 0100     		.2byte	0x1
 9733 0daa 53       		.byte	0x53
 9734 0dab 28000000 		.4byte	.LVL218
 9735 0daf 36000000 		.4byte	.LVL219
 9736 0db3 0100     		.2byte	0x1
 9737 0db5 54       		.byte	0x54
 9738 0db6 36000000 		.4byte	.LVL219
 9739 0dba 38000000 		.4byte	.LVL220
 9740 0dbe 0100     		.2byte	0x1
 9741 0dc0 53       		.byte	0x53
 9742 0dc1 38000000 		.4byte	.LVL220
 9743 0dc5 A8000000 		.4byte	.LVL237
 9744 0dc9 0100     		.2byte	0x1
 9745 0dcb 54       		.byte	0x54
 9746 0dcc 0C010000 		.4byte	.LVL253
 9747 0dd0 1E010000 		.4byte	.LVL256
 9748 0dd4 0100     		.2byte	0x1
 9749 0dd6 54       		.byte	0x54
 9750 0dd7 00000000 		.4byte	0
 9751 0ddb 00000000 		.4byte	0
 9752              	.LLST89:
 9753 0ddf 00000000 		.4byte	.LVL210
 9754 0de3 18000000 		.4byte	.LVL213
 9755 0de7 0100     		.2byte	0x1
 9756 0de9 51       		.byte	0x51
 9757 0dea 18000000 		.4byte	.LVL213
 9758 0dee 20000000 		.4byte	.LVL214
 9759 0df2 0100     		.2byte	0x1
 9760 0df4 55       		.byte	0x55
 9761 0df5 20000000 		.4byte	.LVL214
 9762 0df9 24000000 		.4byte	.LVL216
 9763 0dfd 0100     		.2byte	0x1
 9764 0dff 53       		.byte	0x53
 9765 0e00 24000000 		.4byte	.LVL216
 9766 0e04 28000000 		.4byte	.LVL218
 9767 0e08 0100     		.2byte	0x1
 9768 0e0a 56       		.byte	0x56
 9769 0e0b 28000000 		.4byte	.LVL218
 9770 0e0f 52000000 		.4byte	.LVL224
 9771 0e13 0100     		.2byte	0x1
 9772 0e15 55       		.byte	0x55
 9773 0e16 52000000 		.4byte	.LVL224
 9774 0e1a 54000000 		.4byte	.LVL225
 9775 0e1e 0100     		.2byte	0x1
 9776 0e20 53       		.byte	0x53
 9777 0e21 54000000 		.4byte	.LVL225
 9778 0e25 1E010000 		.4byte	.LVL256
 9779 0e29 0100     		.2byte	0x1
 9780 0e2b 55       		.byte	0x55
 9781 0e2c 00000000 		.4byte	0
 9782 0e30 00000000 		.4byte	0
 9783              	.LLST90:
ARM GAS  C:\Users\Petro\AppData\Local\Temp\ccEiKVD5.s 			page 192


 9784 0e34 00000000 		.4byte	.LVL210
 9785 0e38 18000000 		.4byte	.LVL213
 9786 0e3c 0100     		.2byte	0x1
 9787 0e3e 52       		.byte	0x52
 9788 0e3f 18000000 		.4byte	.LVL213
 9789 0e43 46000000 		.4byte	.LVL222
 9790 0e47 0200     		.2byte	0x2
 9791 0e49 7D       		.byte	0x7d
 9792 0e4a 00       		.sleb128 0
 9793 0e4b 46000000 		.4byte	.LVL222
 9794 0e4f 50000000 		.4byte	.LVL223
 9795 0e53 0100     		.2byte	0x1
 9796 0e55 53       		.byte	0x53
 9797 0e56 50000000 		.4byte	.LVL223
 9798 0e5a 60000000 		.4byte	.LVL227
 9799 0e5e 0200     		.2byte	0x2
 9800 0e60 7D       		.byte	0x7d
 9801 0e61 00       		.sleb128 0
 9802 0e62 60000000 		.4byte	.LVL227
 9803 0e66 62000000 		.4byte	.LVL228
 9804 0e6a 0100     		.2byte	0x1
 9805 0e6c 53       		.byte	0x53
 9806 0e6d 62000000 		.4byte	.LVL228
 9807 0e71 1E010000 		.4byte	.LVL256
 9808 0e75 0200     		.2byte	0x2
 9809 0e77 7D       		.byte	0x7d
 9810 0e78 00       		.sleb128 0
 9811 0e79 00000000 		.4byte	0
 9812 0e7d 00000000 		.4byte	0
 9813              	.LLST91:
 9814 0e81 00000000 		.4byte	.LVL210
 9815 0e85 0E000000 		.4byte	.LVL211
 9816 0e89 0100     		.2byte	0x1
 9817 0e8b 53       		.byte	0x53
 9818 0e8c 0E000000 		.4byte	.LVL211
 9819 0e90 16000000 		.4byte	.LVL212
 9820 0e94 0100     		.2byte	0x1
 9821 0e96 56       		.byte	0x56
 9822 0e97 16000000 		.4byte	.LVL212
 9823 0e9b 18000000 		.4byte	.LVL213
 9824 0e9f 0100     		.2byte	0x1
 9825 0ea1 55       		.byte	0x55
 9826 0ea2 18000000 		.4byte	.LVL213
 9827 0ea6 22000000 		.4byte	.LVL215
 9828 0eaa 0100     		.2byte	0x1
 9829 0eac 56       		.byte	0x56
 9830 0ead 22000000 		.4byte	.LVL215
 9831 0eb1 28000000 		.4byte	.LVL218
 9832 0eb5 0100     		.2byte	0x1
 9833 0eb7 55       		.byte	0x55
 9834 0eb8 28000000 		.4byte	.LVL218
 9835 0ebc 80000000 		.4byte	.LVL230
 9836 0ec0 0100     		.2byte	0x1
 9837 0ec2 56       		.byte	0x56
 9838 0ec3 0C010000 		.4byte	.LVL253
 9839 0ec7 68010000 		.4byte	.LVL267
 9840 0ecb 0100     		.2byte	0x1
ARM GAS  C:\Users\Petro\AppData\Local\Temp\ccEiKVD5.s 			page 193


 9841 0ecd 56       		.byte	0x56
 9842 0ece 00000000 		.4byte	0
 9843 0ed2 00000000 		.4byte	0
 9844              	.LLST92:
 9845 0ed6 98000000 		.4byte	.LVL233
 9846 0eda 9A000000 		.4byte	.LVL234
 9847 0ede 0600     		.2byte	0x6
 9848 0ee0 50       		.byte	0x50
 9849 0ee1 93       		.byte	0x93
 9850 0ee2 04       		.uleb128 0x4
 9851 0ee3 51       		.byte	0x51
 9852 0ee4 93       		.byte	0x93
 9853 0ee5 04       		.uleb128 0x4
 9854 0ee6 9A000000 		.4byte	.LVL234
 9855 0eea 0C010000 		.4byte	.LVL253
 9856 0eee 0200     		.2byte	0x2
 9857 0ef0 91       		.byte	0x91
 9858 0ef1 60       		.sleb128 -32
 9859 0ef2 0C010000 		.4byte	.LVL253
 9860 0ef6 68010000 		.4byte	.LVL267
 9861 0efa 1100     		.2byte	0x11
 9862 0efc 91       		.byte	0x91
 9863 0efd 60       		.sleb128 -32
 9864 0efe 06       		.byte	0x6
 9865 0eff F7       		.byte	0xf7
 9866 0f00 2C       		.uleb128 0x2c
 9867 0f01 F7       		.byte	0xf7
 9868 0f02 33       		.uleb128 0x33
 9869 0f03 77       		.byte	0x77
 9870 0f04 00       		.sleb128 0
 9871 0f05 F7       		.byte	0xf7
 9872 0f06 2C       		.uleb128 0x2c
 9873 0f07 F7       		.byte	0xf7
 9874 0f08 33       		.uleb128 0x33
 9875 0f09 1B       		.byte	0x1b
 9876 0f0a F7       		.byte	0xf7
 9877 0f0b 25       		.uleb128 0x25
 9878 0f0c 9F       		.byte	0x9f
 9879 0f0d 00000000 		.4byte	0
 9880 0f11 00000000 		.4byte	0
 9881              	.LLST93:
 9882 0f15 0C010000 		.4byte	.LVL253
 9883 0f19 1E010000 		.4byte	.LVL256
 9884 0f1d 0900     		.2byte	0x9
 9885 0f1f 74       		.byte	0x74
 9886 0f20 00       		.sleb128 0
 9887 0f21 F7       		.byte	0xf7
 9888 0f22 2C       		.uleb128 0x2c
 9889 0f23 F7       		.byte	0xf7
 9890 0f24 33       		.uleb128 0x33
 9891 0f25 F7       		.byte	0xf7
 9892 0f26 25       		.uleb128 0x25
 9893 0f27 9F       		.byte	0x9f
 9894 0f28 1E010000 		.4byte	.LVL256
 9895 0f2c 64010000 		.4byte	.LVL266
 9896 0f30 0200     		.2byte	0x2
 9897 0f32 7D       		.byte	0x7d
ARM GAS  C:\Users\Petro\AppData\Local\Temp\ccEiKVD5.s 			page 194


 9898 0f33 00       		.sleb128 0
 9899 0f34 64010000 		.4byte	.LVL266
 9900 0f38 68010000 		.4byte	.LVL267
 9901 0f3c 0600     		.2byte	0x6
 9902 0f3e 50       		.byte	0x50
 9903 0f3f 93       		.byte	0x93
 9904 0f40 04       		.uleb128 0x4
 9905 0f41 51       		.byte	0x51
 9906 0f42 93       		.byte	0x93
 9907 0f43 04       		.uleb128 0x4
 9908 0f44 00000000 		.4byte	0
 9909 0f48 00000000 		.4byte	0
 9910              	.LLST94:
 9911 0f4c A4000000 		.4byte	.LVL236
 9912 0f50 D2000000 		.4byte	.LVL243
 9913 0f54 0600     		.2byte	0x6
 9914 0f56 56       		.byte	0x56
 9915 0f57 93       		.byte	0x93
 9916 0f58 04       		.uleb128 0x4
 9917 0f59 57       		.byte	0x57
 9918 0f5a 93       		.byte	0x93
 9919 0f5b 04       		.uleb128 0x4
 9920 0f5c D4000000 		.4byte	.LVL244
 9921 0f60 04010000 		.4byte	.LVL251
 9922 0f64 0600     		.2byte	0x6
 9923 0f66 56       		.byte	0x56
 9924 0f67 93       		.byte	0x93
 9925 0f68 04       		.uleb128 0x4
 9926 0f69 57       		.byte	0x57
 9927 0f6a 93       		.byte	0x93
 9928 0f6b 04       		.uleb128 0x4
 9929 0f6c 06010000 		.4byte	.LVL252
 9930 0f70 0C010000 		.4byte	.LVL253
 9931 0f74 0600     		.2byte	0x6
 9932 0f76 56       		.byte	0x56
 9933 0f77 93       		.byte	0x93
 9934 0f78 04       		.uleb128 0x4
 9935 0f79 57       		.byte	0x57
 9936 0f7a 93       		.byte	0x93
 9937 0f7b 04       		.uleb128 0x4
 9938 0f7c 00000000 		.4byte	0
 9939 0f80 00000000 		.4byte	0
 9940              	.LLST95:
 9941 0f84 A8000000 		.4byte	.LVL237
 9942 0f88 D0000000 		.4byte	.LVL242
 9943 0f8c 0100     		.2byte	0x1
 9944 0f8e 54       		.byte	0x54
 9945 0f8f D0000000 		.4byte	.LVL242
 9946 0f93 D4000000 		.4byte	.LVL244
 9947 0f97 0300     		.2byte	0x3
 9948 0f99 74       		.byte	0x74
 9949 0f9a 01       		.sleb128 1
 9950 0f9b 9F       		.byte	0x9f
 9951 0f9c D4000000 		.4byte	.LVL244
 9952 0fa0 DA000000 		.4byte	.LVL245
 9953 0fa4 0100     		.2byte	0x1
 9954 0fa6 54       		.byte	0x54
ARM GAS  C:\Users\Petro\AppData\Local\Temp\ccEiKVD5.s 			page 195


 9955 0fa7 00000000 		.4byte	0
 9956 0fab 00000000 		.4byte	0
 9957              	.LLST96:
 9958 0faf DA000000 		.4byte	.LVL245
 9959 0fb3 02010000 		.4byte	.LVL250
 9960 0fb7 0100     		.2byte	0x1
 9961 0fb9 54       		.byte	0x54
 9962 0fba 02010000 		.4byte	.LVL250
 9963 0fbe 06010000 		.4byte	.LVL252
 9964 0fc2 0300     		.2byte	0x3
 9965 0fc4 74       		.byte	0x74
 9966 0fc5 7F       		.sleb128 -1
 9967 0fc6 9F       		.byte	0x9f
 9968 0fc7 06010000 		.4byte	.LVL252
 9969 0fcb 0C010000 		.4byte	.LVL253
 9970 0fcf 0100     		.2byte	0x1
 9971 0fd1 54       		.byte	0x54
 9972 0fd2 00000000 		.4byte	0
 9973 0fd6 00000000 		.4byte	0
 9974              	.LLST97:
 9975 0fda 1E010000 		.4byte	.LVL256
 9976 0fde 60010000 		.4byte	.LVL265
 9977 0fe2 0100     		.2byte	0x1
 9978 0fe4 55       		.byte	0x55
 9979 0fe5 60010000 		.4byte	.LVL265
 9980 0fe9 64010000 		.4byte	.LVL266
 9981 0fed 0300     		.2byte	0x3
 9982 0fef 75       		.byte	0x75
 9983 0ff0 7F       		.sleb128 -1
 9984 0ff1 9F       		.byte	0x9f
 9985 0ff2 64010000 		.4byte	.LVL266
 9986 0ff6 68010000 		.4byte	.LVL267
 9987 0ffa 0100     		.2byte	0x1
 9988 0ffc 55       		.byte	0x55
 9989 0ffd 00000000 		.4byte	0
 9990 1001 00000000 		.4byte	0
 9991              	.LLST98:
 9992 1005 00000000 		.4byte	.LVL268
 9993 1009 18000000 		.4byte	.LVL271
 9994 100d 0100     		.2byte	0x1
 9995 100f 50       		.byte	0x50
 9996 1010 18000000 		.4byte	.LVL271
 9997 1014 26000000 		.4byte	.LVL275
 9998 1018 0100     		.2byte	0x1
 9999 101a 54       		.byte	0x54
 10000 101b 26000000 		.4byte	.LVL275
 10001 101f 28000000 		.4byte	.LVL276
 10002 1023 0100     		.2byte	0x1
 10003 1025 53       		.byte	0x53
 10004 1026 28000000 		.4byte	.LVL276
 10005 102a 36000000 		.4byte	.LVL277
 10006 102e 0100     		.2byte	0x1
 10007 1030 54       		.byte	0x54
 10008 1031 36000000 		.4byte	.LVL277
 10009 1035 38000000 		.4byte	.LVL278
 10010 1039 0100     		.2byte	0x1
 10011 103b 53       		.byte	0x53
ARM GAS  C:\Users\Petro\AppData\Local\Temp\ccEiKVD5.s 			page 196


 10012 103c 38000000 		.4byte	.LVL278
 10013 1040 A8000000 		.4byte	.LVL295
 10014 1044 0100     		.2byte	0x1
 10015 1046 54       		.byte	0x54
 10016 1047 0C010000 		.4byte	.LVL311
 10017 104b 1E010000 		.4byte	.LVL314
 10018 104f 0100     		.2byte	0x1
 10019 1051 54       		.byte	0x54
 10020 1052 00000000 		.4byte	0
 10021 1056 00000000 		.4byte	0
 10022              	.LLST99:
 10023 105a 00000000 		.4byte	.LVL268
 10024 105e 18000000 		.4byte	.LVL271
 10025 1062 0100     		.2byte	0x1
 10026 1064 51       		.byte	0x51
 10027 1065 18000000 		.4byte	.LVL271
 10028 1069 20000000 		.4byte	.LVL272
 10029 106d 0100     		.2byte	0x1
 10030 106f 55       		.byte	0x55
 10031 1070 20000000 		.4byte	.LVL272
 10032 1074 24000000 		.4byte	.LVL274
 10033 1078 0100     		.2byte	0x1
 10034 107a 53       		.byte	0x53
 10035 107b 24000000 		.4byte	.LVL274
 10036 107f 28000000 		.4byte	.LVL276
 10037 1083 0100     		.2byte	0x1
 10038 1085 56       		.byte	0x56
 10039 1086 28000000 		.4byte	.LVL276
 10040 108a 52000000 		.4byte	.LVL282
 10041 108e 0100     		.2byte	0x1
 10042 1090 55       		.byte	0x55
 10043 1091 52000000 		.4byte	.LVL282
 10044 1095 54000000 		.4byte	.LVL283
 10045 1099 0100     		.2byte	0x1
 10046 109b 53       		.byte	0x53
 10047 109c 54000000 		.4byte	.LVL283
 10048 10a0 1E010000 		.4byte	.LVL314
 10049 10a4 0100     		.2byte	0x1
 10050 10a6 55       		.byte	0x55
 10051 10a7 00000000 		.4byte	0
 10052 10ab 00000000 		.4byte	0
 10053              	.LLST100:
 10054 10af 00000000 		.4byte	.LVL268
 10055 10b3 18000000 		.4byte	.LVL271
 10056 10b7 0100     		.2byte	0x1
 10057 10b9 52       		.byte	0x52
 10058 10ba 18000000 		.4byte	.LVL271
 10059 10be 46000000 		.4byte	.LVL280
 10060 10c2 0200     		.2byte	0x2
 10061 10c4 7D       		.byte	0x7d
 10062 10c5 00       		.sleb128 0
 10063 10c6 46000000 		.4byte	.LVL280
 10064 10ca 50000000 		.4byte	.LVL281
 10065 10ce 0100     		.2byte	0x1
 10066 10d0 53       		.byte	0x53
 10067 10d1 50000000 		.4byte	.LVL281
 10068 10d5 60000000 		.4byte	.LVL285
ARM GAS  C:\Users\Petro\AppData\Local\Temp\ccEiKVD5.s 			page 197


 10069 10d9 0200     		.2byte	0x2
 10070 10db 7D       		.byte	0x7d
 10071 10dc 00       		.sleb128 0
 10072 10dd 60000000 		.4byte	.LVL285
 10073 10e1 62000000 		.4byte	.LVL286
 10074 10e5 0100     		.2byte	0x1
 10075 10e7 53       		.byte	0x53
 10076 10e8 62000000 		.4byte	.LVL286
 10077 10ec 1E010000 		.4byte	.LVL314
 10078 10f0 0200     		.2byte	0x2
 10079 10f2 7D       		.byte	0x7d
 10080 10f3 00       		.sleb128 0
 10081 10f4 00000000 		.4byte	0
 10082 10f8 00000000 		.4byte	0
 10083              	.LLST101:
 10084 10fc 00000000 		.4byte	.LVL268
 10085 1100 0E000000 		.4byte	.LVL269
 10086 1104 0100     		.2byte	0x1
 10087 1106 53       		.byte	0x53
 10088 1107 0E000000 		.4byte	.LVL269
 10089 110b 16000000 		.4byte	.LVL270
 10090 110f 0100     		.2byte	0x1
 10091 1111 56       		.byte	0x56
 10092 1112 16000000 		.4byte	.LVL270
 10093 1116 18000000 		.4byte	.LVL271
 10094 111a 0100     		.2byte	0x1
 10095 111c 55       		.byte	0x55
 10096 111d 18000000 		.4byte	.LVL271
 10097 1121 22000000 		.4byte	.LVL273
 10098 1125 0100     		.2byte	0x1
 10099 1127 56       		.byte	0x56
 10100 1128 22000000 		.4byte	.LVL273
 10101 112c 28000000 		.4byte	.LVL276
 10102 1130 0100     		.2byte	0x1
 10103 1132 55       		.byte	0x55
 10104 1133 28000000 		.4byte	.LVL276
 10105 1137 80000000 		.4byte	.LVL288
 10106 113b 0100     		.2byte	0x1
 10107 113d 56       		.byte	0x56
 10108 113e 0C010000 		.4byte	.LVL311
 10109 1142 68010000 		.4byte	.LVL325
 10110 1146 0100     		.2byte	0x1
 10111 1148 56       		.byte	0x56
 10112 1149 00000000 		.4byte	0
 10113 114d 00000000 		.4byte	0
 10114              	.LLST102:
 10115 1151 98000000 		.4byte	.LVL291
 10116 1155 9A000000 		.4byte	.LVL292
 10117 1159 0600     		.2byte	0x6
 10118 115b 50       		.byte	0x50
 10119 115c 93       		.byte	0x93
 10120 115d 04       		.uleb128 0x4
 10121 115e 51       		.byte	0x51
 10122 115f 93       		.byte	0x93
 10123 1160 04       		.uleb128 0x4
 10124 1161 9A000000 		.4byte	.LVL292
 10125 1165 0C010000 		.4byte	.LVL311
ARM GAS  C:\Users\Petro\AppData\Local\Temp\ccEiKVD5.s 			page 198


 10126 1169 0200     		.2byte	0x2
 10127 116b 91       		.byte	0x91
 10128 116c 60       		.sleb128 -32
 10129 116d 0C010000 		.4byte	.LVL311
 10130 1171 68010000 		.4byte	.LVL325
 10131 1175 1100     		.2byte	0x11
 10132 1177 91       		.byte	0x91
 10133 1178 60       		.sleb128 -32
 10134 1179 06       		.byte	0x6
 10135 117a F7       		.byte	0xf7
 10136 117b 2C       		.uleb128 0x2c
 10137 117c F7       		.byte	0xf7
 10138 117d 33       		.uleb128 0x33
 10139 117e 77       		.byte	0x77
 10140 117f 00       		.sleb128 0
 10141 1180 F7       		.byte	0xf7
 10142 1181 2C       		.uleb128 0x2c
 10143 1182 F7       		.byte	0xf7
 10144 1183 33       		.uleb128 0x33
 10145 1184 1B       		.byte	0x1b
 10146 1185 F7       		.byte	0xf7
 10147 1186 25       		.uleb128 0x25
 10148 1187 9F       		.byte	0x9f
 10149 1188 00000000 		.4byte	0
 10150 118c 00000000 		.4byte	0
 10151              	.LLST103:
 10152 1190 0C010000 		.4byte	.LVL311
 10153 1194 1E010000 		.4byte	.LVL314
 10154 1198 0900     		.2byte	0x9
 10155 119a 74       		.byte	0x74
 10156 119b 00       		.sleb128 0
 10157 119c F7       		.byte	0xf7
 10158 119d 2C       		.uleb128 0x2c
 10159 119e F7       		.byte	0xf7
 10160 119f 33       		.uleb128 0x33
 10161 11a0 F7       		.byte	0xf7
 10162 11a1 25       		.uleb128 0x25
 10163 11a2 9F       		.byte	0x9f
 10164 11a3 1E010000 		.4byte	.LVL314
 10165 11a7 64010000 		.4byte	.LVL324
 10166 11ab 0200     		.2byte	0x2
 10167 11ad 7D       		.byte	0x7d
 10168 11ae 00       		.sleb128 0
 10169 11af 64010000 		.4byte	.LVL324
 10170 11b3 68010000 		.4byte	.LVL325
 10171 11b7 0600     		.2byte	0x6
 10172 11b9 50       		.byte	0x50
 10173 11ba 93       		.byte	0x93
 10174 11bb 04       		.uleb128 0x4
 10175 11bc 51       		.byte	0x51
 10176 11bd 93       		.byte	0x93
 10177 11be 04       		.uleb128 0x4
 10178 11bf 00000000 		.4byte	0
 10179 11c3 00000000 		.4byte	0
 10180              	.LLST104:
 10181 11c7 A4000000 		.4byte	.LVL294
 10182 11cb D2000000 		.4byte	.LVL301
ARM GAS  C:\Users\Petro\AppData\Local\Temp\ccEiKVD5.s 			page 199


 10183 11cf 0600     		.2byte	0x6
 10184 11d1 56       		.byte	0x56
 10185 11d2 93       		.byte	0x93
 10186 11d3 04       		.uleb128 0x4
 10187 11d4 57       		.byte	0x57
 10188 11d5 93       		.byte	0x93
 10189 11d6 04       		.uleb128 0x4
 10190 11d7 D4000000 		.4byte	.LVL302
 10191 11db 04010000 		.4byte	.LVL309
 10192 11df 0600     		.2byte	0x6
 10193 11e1 56       		.byte	0x56
 10194 11e2 93       		.byte	0x93
 10195 11e3 04       		.uleb128 0x4
 10196 11e4 57       		.byte	0x57
 10197 11e5 93       		.byte	0x93
 10198 11e6 04       		.uleb128 0x4
 10199 11e7 06010000 		.4byte	.LVL310
 10200 11eb 0C010000 		.4byte	.LVL311
 10201 11ef 0600     		.2byte	0x6
 10202 11f1 56       		.byte	0x56
 10203 11f2 93       		.byte	0x93
 10204 11f3 04       		.uleb128 0x4
 10205 11f4 57       		.byte	0x57
 10206 11f5 93       		.byte	0x93
 10207 11f6 04       		.uleb128 0x4
 10208 11f7 00000000 		.4byte	0
 10209 11fb 00000000 		.4byte	0
 10210              	.LLST105:
 10211 11ff A8000000 		.4byte	.LVL295
 10212 1203 D0000000 		.4byte	.LVL300
 10213 1207 0100     		.2byte	0x1
 10214 1209 54       		.byte	0x54
 10215 120a D0000000 		.4byte	.LVL300
 10216 120e D4000000 		.4byte	.LVL302
 10217 1212 0300     		.2byte	0x3
 10218 1214 74       		.byte	0x74
 10219 1215 01       		.sleb128 1
 10220 1216 9F       		.byte	0x9f
 10221 1217 D4000000 		.4byte	.LVL302
 10222 121b DA000000 		.4byte	.LVL303
 10223 121f 0100     		.2byte	0x1
 10224 1221 54       		.byte	0x54
 10225 1222 00000000 		.4byte	0
 10226 1226 00000000 		.4byte	0
 10227              	.LLST106:
 10228 122a DA000000 		.4byte	.LVL303
 10229 122e 02010000 		.4byte	.LVL308
 10230 1232 0100     		.2byte	0x1
 10231 1234 54       		.byte	0x54
 10232 1235 02010000 		.4byte	.LVL308
 10233 1239 06010000 		.4byte	.LVL310
 10234 123d 0300     		.2byte	0x3
 10235 123f 74       		.byte	0x74
 10236 1240 7F       		.sleb128 -1
 10237 1241 9F       		.byte	0x9f
 10238 1242 06010000 		.4byte	.LVL310
 10239 1246 0C010000 		.4byte	.LVL311
ARM GAS  C:\Users\Petro\AppData\Local\Temp\ccEiKVD5.s 			page 200


 10240 124a 0100     		.2byte	0x1
 10241 124c 54       		.byte	0x54
 10242 124d 00000000 		.4byte	0
 10243 1251 00000000 		.4byte	0
 10244              	.LLST107:
 10245 1255 1E010000 		.4byte	.LVL314
 10246 1259 60010000 		.4byte	.LVL323
 10247 125d 0100     		.2byte	0x1
 10248 125f 55       		.byte	0x55
 10249 1260 60010000 		.4byte	.LVL323
 10250 1264 64010000 		.4byte	.LVL324
 10251 1268 0300     		.2byte	0x3
 10252 126a 75       		.byte	0x75
 10253 126b 7F       		.sleb128 -1
 10254 126c 9F       		.byte	0x9f
 10255 126d 64010000 		.4byte	.LVL324
 10256 1271 68010000 		.4byte	.LVL325
 10257 1275 0100     		.2byte	0x1
 10258 1277 55       		.byte	0x55
 10259 1278 00000000 		.4byte	0
 10260 127c 00000000 		.4byte	0
 10261              	.LLST108:
 10262 1280 00000000 		.4byte	.LVL326
 10263 1284 12000000 		.4byte	.LVL327
 10264 1288 0100     		.2byte	0x1
 10265 128a 50       		.byte	0x50
 10266 128b 12000000 		.4byte	.LVL327
 10267 128f 46000000 		.4byte	.LVL336
 10268 1293 0100     		.2byte	0x1
 10269 1295 55       		.byte	0x55
 10270 1296 00000000 		.4byte	0
 10271 129a 00000000 		.4byte	0
 10272              	.LLST109:
 10273 129e 00000000 		.4byte	.LVL326
 10274 12a2 1C000000 		.4byte	.LVL329
 10275 12a6 0100     		.2byte	0x1
 10276 12a8 51       		.byte	0x51
 10277 12a9 1C000000 		.4byte	.LVL329
 10278 12ad 46000000 		.4byte	.LVL335
 10279 12b1 0100     		.2byte	0x1
 10280 12b3 54       		.byte	0x54
 10281 12b4 00000000 		.4byte	0
 10282 12b8 00000000 		.4byte	0
 10283              	.LLST110:
 10284 12bc 00000000 		.4byte	.LVL326
 10285 12c0 12000000 		.4byte	.LVL327
 10286 12c4 0100     		.2byte	0x1
 10287 12c6 52       		.byte	0x52
 10288 12c7 12000000 		.4byte	.LVL327
 10289 12cb 46000000 		.4byte	.LVL337
 10290 12cf 0100     		.2byte	0x1
 10291 12d1 56       		.byte	0x56
 10292 12d2 00000000 		.4byte	0
 10293 12d6 00000000 		.4byte	0
 10294              	.LLST111:
 10295 12da 00000000 		.4byte	.LVL326
 10296 12de 18000000 		.4byte	.LVL328
ARM GAS  C:\Users\Petro\AppData\Local\Temp\ccEiKVD5.s 			page 201


 10297 12e2 0100     		.2byte	0x1
 10298 12e4 53       		.byte	0x53
 10299 12e5 18000000 		.4byte	.LVL328
 10300 12e9 2E000000 		.4byte	.LVL331
 10301 12ed 0100     		.2byte	0x1
 10302 12ef 57       		.byte	0x57
 10303 12f0 2E000000 		.4byte	.LVL331
 10304 12f4 31000000 		.4byte	.LVL332-1
 10305 12f8 0100     		.2byte	0x1
 10306 12fa 51       		.byte	0x51
 10307 12fb 00000000 		.4byte	0
 10308 12ff 00000000 		.4byte	0
 10309              	.LLST112:
 10310 1303 00000000 		.4byte	.LVL338
 10311 1307 12000000 		.4byte	.LVL339
 10312 130b 0100     		.2byte	0x1
 10313 130d 50       		.byte	0x50
 10314 130e 12000000 		.4byte	.LVL339
 10315 1312 46000000 		.4byte	.LVL348
 10316 1316 0100     		.2byte	0x1
 10317 1318 55       		.byte	0x55
 10318 1319 00000000 		.4byte	0
 10319 131d 00000000 		.4byte	0
 10320              	.LLST113:
 10321 1321 00000000 		.4byte	.LVL338
 10322 1325 1C000000 		.4byte	.LVL341
 10323 1329 0100     		.2byte	0x1
 10324 132b 51       		.byte	0x51
 10325 132c 1C000000 		.4byte	.LVL341
 10326 1330 46000000 		.4byte	.LVL347
 10327 1334 0100     		.2byte	0x1
 10328 1336 54       		.byte	0x54
 10329 1337 00000000 		.4byte	0
 10330 133b 00000000 		.4byte	0
 10331              	.LLST114:
 10332 133f 00000000 		.4byte	.LVL338
 10333 1343 12000000 		.4byte	.LVL339
 10334 1347 0100     		.2byte	0x1
 10335 1349 52       		.byte	0x52
 10336 134a 12000000 		.4byte	.LVL339
 10337 134e 46000000 		.4byte	.LVL349
 10338 1352 0100     		.2byte	0x1
 10339 1354 56       		.byte	0x56
 10340 1355 00000000 		.4byte	0
 10341 1359 00000000 		.4byte	0
 10342              	.LLST115:
 10343 135d 00000000 		.4byte	.LVL338
 10344 1361 18000000 		.4byte	.LVL340
 10345 1365 0100     		.2byte	0x1
 10346 1367 53       		.byte	0x53
 10347 1368 18000000 		.4byte	.LVL340
 10348 136c 2E000000 		.4byte	.LVL343
 10349 1370 0100     		.2byte	0x1
 10350 1372 57       		.byte	0x57
 10351 1373 2E000000 		.4byte	.LVL343
 10352 1377 31000000 		.4byte	.LVL344-1
 10353 137b 0100     		.2byte	0x1
ARM GAS  C:\Users\Petro\AppData\Local\Temp\ccEiKVD5.s 			page 202


 10354 137d 51       		.byte	0x51
 10355 137e 00000000 		.4byte	0
 10356 1382 00000000 		.4byte	0
 10357              	.LLST116:
 10358 1386 00000000 		.4byte	.LVL350
 10359 138a 14000000 		.4byte	.LVL351
 10360 138e 0100     		.2byte	0x1
 10361 1390 50       		.byte	0x50
 10362 1391 14000000 		.4byte	.LVL351
 10363 1395 A0000000 		.4byte	.LVL363
 10364 1399 0100     		.2byte	0x1
 10365 139b 55       		.byte	0x55
 10366 139c 00000000 		.4byte	0
 10367 13a0 00000000 		.4byte	0
 10368              	.LLST117:
 10369 13a4 00000000 		.4byte	.LVL350
 10370 13a8 20000000 		.4byte	.LVL353
 10371 13ac 0100     		.2byte	0x1
 10372 13ae 51       		.byte	0x51
 10373 13af 20000000 		.4byte	.LVL353
 10374 13b3 88000000 		.4byte	.LVL360
 10375 13b7 0100     		.2byte	0x1
 10376 13b9 54       		.byte	0x54
 10377 13ba 88000000 		.4byte	.LVL360
 10378 13be 9E000000 		.4byte	.LVL362
 10379 13c2 0300     		.2byte	0x3
 10380 13c4 74       		.byte	0x74
 10381 13c5 7E       		.sleb128 -2
 10382 13c6 9F       		.byte	0x9f
 10383 13c7 00000000 		.4byte	0
 10384 13cb 00000000 		.4byte	0
 10385              	.LLST118:
 10386 13cf 00000000 		.4byte	.LVL350
 10387 13d3 14000000 		.4byte	.LVL351
 10388 13d7 0100     		.2byte	0x1
 10389 13d9 52       		.byte	0x52
 10390 13da 14000000 		.4byte	.LVL351
 10391 13de A2000000 		.4byte	.LFE91
 10392 13e2 0200     		.2byte	0x2
 10393 13e4 91       		.byte	0x91
 10394 13e5 54       		.sleb128 -44
 10395 13e6 00000000 		.4byte	0
 10396 13ea 00000000 		.4byte	0
 10397              	.LLST119:
 10398 13ee 00000000 		.4byte	.LVL350
 10399 13f2 16000000 		.4byte	.LVL352
 10400 13f6 0100     		.2byte	0x1
 10401 13f8 53       		.byte	0x53
 10402 13f9 16000000 		.4byte	.LVL352
 10403 13fd A2000000 		.4byte	.LFE91
 10404 1401 0200     		.2byte	0x2
 10405 1403 91       		.byte	0x91
 10406 1404 58       		.sleb128 -40
 10407 1405 00000000 		.4byte	0
 10408 1409 00000000 		.4byte	0
 10409              	.LLST120:
 10410 140d 00000000 		.4byte	.LVL364
ARM GAS  C:\Users\Petro\AppData\Local\Temp\ccEiKVD5.s 			page 203


 10411 1411 14000000 		.4byte	.LVL365
 10412 1415 0100     		.2byte	0x1
 10413 1417 50       		.byte	0x50
 10414 1418 14000000 		.4byte	.LVL365
 10415 141c A0000000 		.4byte	.LVL377
 10416 1420 0100     		.2byte	0x1
 10417 1422 55       		.byte	0x55
 10418 1423 00000000 		.4byte	0
 10419 1427 00000000 		.4byte	0
 10420              	.LLST121:
 10421 142b 00000000 		.4byte	.LVL364
 10422 142f 20000000 		.4byte	.LVL367
 10423 1433 0100     		.2byte	0x1
 10424 1435 51       		.byte	0x51
 10425 1436 20000000 		.4byte	.LVL367
 10426 143a 88000000 		.4byte	.LVL374
 10427 143e 0100     		.2byte	0x1
 10428 1440 54       		.byte	0x54
 10429 1441 88000000 		.4byte	.LVL374
 10430 1445 9E000000 		.4byte	.LVL376
 10431 1449 0300     		.2byte	0x3
 10432 144b 74       		.byte	0x74
 10433 144c 7E       		.sleb128 -2
 10434 144d 9F       		.byte	0x9f
 10435 144e 00000000 		.4byte	0
 10436 1452 00000000 		.4byte	0
 10437              	.LLST122:
 10438 1456 00000000 		.4byte	.LVL364
 10439 145a 14000000 		.4byte	.LVL365
 10440 145e 0100     		.2byte	0x1
 10441 1460 52       		.byte	0x52
 10442 1461 14000000 		.4byte	.LVL365
 10443 1465 A2000000 		.4byte	.LFE92
 10444 1469 0200     		.2byte	0x2
 10445 146b 91       		.byte	0x91
 10446 146c 54       		.sleb128 -44
 10447 146d 00000000 		.4byte	0
 10448 1471 00000000 		.4byte	0
 10449              	.LLST123:
 10450 1475 00000000 		.4byte	.LVL364
 10451 1479 16000000 		.4byte	.LVL366
 10452 147d 0100     		.2byte	0x1
 10453 147f 53       		.byte	0x53
 10454 1480 16000000 		.4byte	.LVL366
 10455 1484 A2000000 		.4byte	.LFE92
 10456 1488 0200     		.2byte	0x2
 10457 148a 91       		.byte	0x91
 10458 148b 58       		.sleb128 -40
 10459 148c 00000000 		.4byte	0
 10460 1490 00000000 		.4byte	0
 10461              	.LLST124:
 10462 1494 00000000 		.4byte	.LVL378
 10463 1498 22000000 		.4byte	.LVL385
 10464 149c 0100     		.2byte	0x1
 10465 149e 50       		.byte	0x50
 10466 149f 22000000 		.4byte	.LVL385
 10467 14a3 08010000 		.4byte	.LFE93
ARM GAS  C:\Users\Petro\AppData\Local\Temp\ccEiKVD5.s 			page 204


 10468 14a7 0400     		.2byte	0x4
 10469 14a9 F3       		.byte	0xf3
 10470 14aa 01       		.uleb128 0x1
 10471 14ab 50       		.byte	0x50
 10472 14ac 9F       		.byte	0x9f
 10473 14ad 00000000 		.4byte	0
 10474 14b1 00000000 		.4byte	0
 10475              	.LLST125:
 10476 14b5 00000000 		.4byte	.LVL378
 10477 14b9 1E000000 		.4byte	.LVL384
 10478 14bd 0100     		.2byte	0x1
 10479 14bf 51       		.byte	0x51
 10480 14c0 1E000000 		.4byte	.LVL384
 10481 14c4 08010000 		.4byte	.LFE93
 10482 14c8 0400     		.2byte	0x4
 10483 14ca F3       		.byte	0xf3
 10484 14cb 01       		.uleb128 0x1
 10485 14cc 51       		.byte	0x51
 10486 14cd 9F       		.byte	0x9f
 10487 14ce 00000000 		.4byte	0
 10488 14d2 00000000 		.4byte	0
 10489              	.LLST126:
 10490 14d6 00000000 		.4byte	.LVL378
 10491 14da 25000000 		.4byte	.LVL386-1
 10492 14de 0100     		.2byte	0x1
 10493 14e0 52       		.byte	0x52
 10494 14e1 25000000 		.4byte	.LVL386-1
 10495 14e5 4C000000 		.4byte	.LVL390
 10496 14e9 0200     		.2byte	0x2
 10497 14eb 91       		.byte	0x91
 10498 14ec 50       		.sleb128 -48
 10499 14ed 4C000000 		.4byte	.LVL390
 10500 14f1 08010000 		.4byte	.LFE93
 10501 14f5 0400     		.2byte	0x4
 10502 14f7 F3       		.byte	0xf3
 10503 14f8 01       		.uleb128 0x1
 10504 14f9 52       		.byte	0x52
 10505 14fa 9F       		.byte	0x9f
 10506 14fb 00000000 		.4byte	0
 10507 14ff 00000000 		.4byte	0
 10508              	.LLST127:
 10509 1503 0A000000 		.4byte	.LVL379
 10510 1507 0C000000 		.4byte	.LVL380
 10511 150b 0100     		.2byte	0x1
 10512 150d 53       		.byte	0x53
 10513 150e 0C000000 		.4byte	.LVL380
 10514 1512 80000000 		.4byte	.LVL400
 10515 1516 0200     		.2byte	0x2
 10516 1518 91       		.byte	0x91
 10517 1519 54       		.sleb128 -44
 10518 151a 80000000 		.4byte	.LVL400
 10519 151e 82000000 		.4byte	.LVL401
 10520 1522 0100     		.2byte	0x1
 10521 1524 53       		.byte	0x53
 10522 1525 82000000 		.4byte	.LVL401
 10523 1529 08010000 		.4byte	.LFE93
 10524 152d 0200     		.2byte	0x2
ARM GAS  C:\Users\Petro\AppData\Local\Temp\ccEiKVD5.s 			page 205


 10525 152f 91       		.byte	0x91
 10526 1530 54       		.sleb128 -44
 10527 1531 00000000 		.4byte	0
 10528 1535 00000000 		.4byte	0
 10529              	.LLST128:
 10530 1539 0A000000 		.4byte	.LVL379
 10531 153d 4C000000 		.4byte	.LVL390
 10532 1541 0200     		.2byte	0x2
 10533 1543 31       		.byte	0x31
 10534 1544 9F       		.byte	0x9f
 10535 1545 4C000000 		.4byte	.LVL390
 10536 1549 78000000 		.4byte	.LVL396
 10537 154d 0800     		.2byte	0x8
 10538 154f 91       		.byte	0x91
 10539 1550 58       		.sleb128 -40
 10540 1551 06       		.byte	0x6
 10541 1552 31       		.byte	0x31
 10542 1553 24       		.byte	0x24
 10543 1554 23       		.byte	0x23
 10544 1555 01       		.uleb128 0x1
 10545 1556 9F       		.byte	0x9f
 10546 1557 78000000 		.4byte	.LVL396
 10547 155b 7A000000 		.4byte	.LVL397
 10548 155f 0700     		.2byte	0x7
 10549 1561 73       		.byte	0x73
 10550 1562 00       		.sleb128 0
 10551 1563 31       		.byte	0x31
 10552 1564 24       		.byte	0x24
 10553 1565 23       		.byte	0x23
 10554 1566 01       		.uleb128 0x1
 10555 1567 9F       		.byte	0x9f
 10556 1568 7A000000 		.4byte	.LVL397
 10557 156c 7C000000 		.4byte	.LVL398
 10558 1570 0800     		.2byte	0x8
 10559 1572 91       		.byte	0x91
 10560 1573 58       		.sleb128 -40
 10561 1574 06       		.byte	0x6
 10562 1575 31       		.byte	0x31
 10563 1576 24       		.byte	0x24
 10564 1577 23       		.byte	0x23
 10565 1578 01       		.uleb128 0x1
 10566 1579 9F       		.byte	0x9f
 10567 157a 7C000000 		.4byte	.LVL398
 10568 157e 7E000000 		.4byte	.LVL399
 10569 1582 0100     		.2byte	0x1
 10570 1584 53       		.byte	0x53
 10571 1585 7E000000 		.4byte	.LVL399
 10572 1589 04010000 		.4byte	.LVL410
 10573 158d 0800     		.2byte	0x8
 10574 158f 91       		.byte	0x91
 10575 1590 58       		.sleb128 -40
 10576 1591 06       		.byte	0x6
 10577 1592 31       		.byte	0x31
 10578 1593 24       		.byte	0x24
 10579 1594 23       		.byte	0x23
 10580 1595 01       		.uleb128 0x1
 10581 1596 9F       		.byte	0x9f
ARM GAS  C:\Users\Petro\AppData\Local\Temp\ccEiKVD5.s 			page 206


 10582 1597 04010000 		.4byte	.LVL410
 10583 159b 08010000 		.4byte	.LFE93
 10584 159f 0700     		.2byte	0x7
 10585 15a1 73       		.byte	0x73
 10586 15a2 00       		.sleb128 0
 10587 15a3 31       		.byte	0x31
 10588 15a4 24       		.byte	0x24
 10589 15a5 23       		.byte	0x23
 10590 15a6 01       		.uleb128 0x1
 10591 15a7 9F       		.byte	0x9f
 10592 15a8 00000000 		.4byte	0
 10593 15ac 00000000 		.4byte	0
 10594              	.LLST129:
 10595 15b0 10000000 		.4byte	.LVL381
 10596 15b4 12000000 		.4byte	.LVL382
 10597 15b8 0100     		.2byte	0x1
 10598 15ba 53       		.byte	0x53
 10599 15bb 12000000 		.4byte	.LVL382
 10600 15bf 66000000 		.4byte	.LVL393
 10601 15c3 0200     		.2byte	0x2
 10602 15c5 91       		.byte	0x91
 10603 15c6 64       		.sleb128 -28
 10604 15c7 66000000 		.4byte	.LVL393
 10605 15cb 6A000000 		.4byte	.LVL394
 10606 15cf 0100     		.2byte	0x1
 10607 15d1 53       		.byte	0x53
 10608 15d2 6A000000 		.4byte	.LVL394
 10609 15d6 70000000 		.4byte	.LVL395
 10610 15da 0100     		.2byte	0x1
 10611 15dc 52       		.byte	0x52
 10612 15dd 70000000 		.4byte	.LVL395
 10613 15e1 08010000 		.4byte	.LFE93
 10614 15e5 0200     		.2byte	0x2
 10615 15e7 91       		.byte	0x91
 10616 15e8 64       		.sleb128 -28
 10617 15e9 00000000 		.4byte	0
 10618 15ed 00000000 		.4byte	0
 10619              	.LLST130:
 10620 15f1 10000000 		.4byte	.LVL381
 10621 15f5 4C000000 		.4byte	.LVL390
 10622 15f9 0200     		.2byte	0x2
 10623 15fb 30       		.byte	0x30
 10624 15fc 9F       		.byte	0x9f
 10625 15fd 4C000000 		.4byte	.LVL390
 10626 1601 78000000 		.4byte	.LVL396
 10627 1605 0200     		.2byte	0x2
 10628 1607 91       		.byte	0x91
 10629 1608 58       		.sleb128 -40
 10630 1609 78000000 		.4byte	.LVL396
 10631 160d 7A000000 		.4byte	.LVL397
 10632 1611 0100     		.2byte	0x1
 10633 1613 53       		.byte	0x53
 10634 1614 7A000000 		.4byte	.LVL397
 10635 1618 04010000 		.4byte	.LVL410
 10636 161c 0200     		.2byte	0x2
 10637 161e 91       		.byte	0x91
 10638 161f 58       		.sleb128 -40
ARM GAS  C:\Users\Petro\AppData\Local\Temp\ccEiKVD5.s 			page 207


 10639 1620 04010000 		.4byte	.LVL410
 10640 1624 08010000 		.4byte	.LFE93
 10641 1628 0100     		.2byte	0x1
 10642 162a 53       		.byte	0x53
 10643 162b 00000000 		.4byte	0
 10644 162f 00000000 		.4byte	0
 10645              	.LLST131:
 10646 1633 10000000 		.4byte	.LVL381
 10647 1637 18000000 		.4byte	.LVL383
 10648 163b 0200     		.2byte	0x2
 10649 163d 91       		.byte	0x91
 10650 163e 50       		.sleb128 -48
 10651 163f 4C000000 		.4byte	.LVL390
 10652 1643 60000000 		.4byte	.LVL391
 10653 1647 0200     		.2byte	0x2
 10654 1649 91       		.byte	0x91
 10655 164a 50       		.sleb128 -48
 10656 164b 60000000 		.4byte	.LVL391
 10657 164f 62000000 		.4byte	.LVL392
 10658 1653 0100     		.2byte	0x1
 10659 1655 53       		.byte	0x53
 10660 1656 62000000 		.4byte	.LVL392
 10661 165a 04010000 		.4byte	.LVL410
 10662 165e 0200     		.2byte	0x2
 10663 1660 91       		.byte	0x91
 10664 1661 50       		.sleb128 -48
 10665 1662 04010000 		.4byte	.LVL410
 10666 1666 08010000 		.4byte	.LFE93
 10667 166a 0100     		.2byte	0x1
 10668 166c 52       		.byte	0x52
 10669 166d 00000000 		.4byte	0
 10670 1671 00000000 		.4byte	0
 10671              	.LLST132:
 10672 1675 00000000 		.4byte	.LVL411
 10673 1679 22000000 		.4byte	.LVL418
 10674 167d 0100     		.2byte	0x1
 10675 167f 50       		.byte	0x50
 10676 1680 22000000 		.4byte	.LVL418
 10677 1684 08010000 		.4byte	.LFE94
 10678 1688 0400     		.2byte	0x4
 10679 168a F3       		.byte	0xf3
 10680 168b 01       		.uleb128 0x1
 10681 168c 50       		.byte	0x50
 10682 168d 9F       		.byte	0x9f
 10683 168e 00000000 		.4byte	0
 10684 1692 00000000 		.4byte	0
 10685              	.LLST133:
 10686 1696 00000000 		.4byte	.LVL411
 10687 169a 1E000000 		.4byte	.LVL417
 10688 169e 0100     		.2byte	0x1
 10689 16a0 51       		.byte	0x51
 10690 16a1 1E000000 		.4byte	.LVL417
 10691 16a5 08010000 		.4byte	.LFE94
 10692 16a9 0400     		.2byte	0x4
 10693 16ab F3       		.byte	0xf3
 10694 16ac 01       		.uleb128 0x1
 10695 16ad 51       		.byte	0x51
ARM GAS  C:\Users\Petro\AppData\Local\Temp\ccEiKVD5.s 			page 208


 10696 16ae 9F       		.byte	0x9f
 10697 16af 00000000 		.4byte	0
 10698 16b3 00000000 		.4byte	0
 10699              	.LLST134:
 10700 16b7 00000000 		.4byte	.LVL411
 10701 16bb 25000000 		.4byte	.LVL419-1
 10702 16bf 0100     		.2byte	0x1
 10703 16c1 52       		.byte	0x52
 10704 16c2 25000000 		.4byte	.LVL419-1
 10705 16c6 4C000000 		.4byte	.LVL423
 10706 16ca 0200     		.2byte	0x2
 10707 16cc 91       		.byte	0x91
 10708 16cd 50       		.sleb128 -48
 10709 16ce 4C000000 		.4byte	.LVL423
 10710 16d2 08010000 		.4byte	.LFE94
 10711 16d6 0400     		.2byte	0x4
 10712 16d8 F3       		.byte	0xf3
 10713 16d9 01       		.uleb128 0x1
 10714 16da 52       		.byte	0x52
 10715 16db 9F       		.byte	0x9f
 10716 16dc 00000000 		.4byte	0
 10717 16e0 00000000 		.4byte	0
 10718              	.LLST135:
 10719 16e4 0A000000 		.4byte	.LVL412
 10720 16e8 0C000000 		.4byte	.LVL413
 10721 16ec 0100     		.2byte	0x1
 10722 16ee 53       		.byte	0x53
 10723 16ef 0C000000 		.4byte	.LVL413
 10724 16f3 80000000 		.4byte	.LVL433
 10725 16f7 0200     		.2byte	0x2
 10726 16f9 91       		.byte	0x91
 10727 16fa 54       		.sleb128 -44
 10728 16fb 80000000 		.4byte	.LVL433
 10729 16ff 82000000 		.4byte	.LVL434
 10730 1703 0100     		.2byte	0x1
 10731 1705 53       		.byte	0x53
 10732 1706 82000000 		.4byte	.LVL434
 10733 170a 08010000 		.4byte	.LFE94
 10734 170e 0200     		.2byte	0x2
 10735 1710 91       		.byte	0x91
 10736 1711 54       		.sleb128 -44
 10737 1712 00000000 		.4byte	0
 10738 1716 00000000 		.4byte	0
 10739              	.LLST136:
 10740 171a 0A000000 		.4byte	.LVL412
 10741 171e 4C000000 		.4byte	.LVL423
 10742 1722 0200     		.2byte	0x2
 10743 1724 31       		.byte	0x31
 10744 1725 9F       		.byte	0x9f
 10745 1726 4C000000 		.4byte	.LVL423
 10746 172a 78000000 		.4byte	.LVL429
 10747 172e 0800     		.2byte	0x8
 10748 1730 91       		.byte	0x91
 10749 1731 58       		.sleb128 -40
 10750 1732 06       		.byte	0x6
 10751 1733 31       		.byte	0x31
 10752 1734 24       		.byte	0x24
ARM GAS  C:\Users\Petro\AppData\Local\Temp\ccEiKVD5.s 			page 209


 10753 1735 23       		.byte	0x23
 10754 1736 01       		.uleb128 0x1
 10755 1737 9F       		.byte	0x9f
 10756 1738 78000000 		.4byte	.LVL429
 10757 173c 7A000000 		.4byte	.LVL430
 10758 1740 0700     		.2byte	0x7
 10759 1742 73       		.byte	0x73
 10760 1743 00       		.sleb128 0
 10761 1744 31       		.byte	0x31
 10762 1745 24       		.byte	0x24
 10763 1746 23       		.byte	0x23
 10764 1747 01       		.uleb128 0x1
 10765 1748 9F       		.byte	0x9f
 10766 1749 7A000000 		.4byte	.LVL430
 10767 174d 7C000000 		.4byte	.LVL431
 10768 1751 0800     		.2byte	0x8
 10769 1753 91       		.byte	0x91
 10770 1754 58       		.sleb128 -40
 10771 1755 06       		.byte	0x6
 10772 1756 31       		.byte	0x31
 10773 1757 24       		.byte	0x24
 10774 1758 23       		.byte	0x23
 10775 1759 01       		.uleb128 0x1
 10776 175a 9F       		.byte	0x9f
 10777 175b 7C000000 		.4byte	.LVL431
 10778 175f 7E000000 		.4byte	.LVL432
 10779 1763 0100     		.2byte	0x1
 10780 1765 53       		.byte	0x53
 10781 1766 7E000000 		.4byte	.LVL432
 10782 176a 04010000 		.4byte	.LVL443
 10783 176e 0800     		.2byte	0x8
 10784 1770 91       		.byte	0x91
 10785 1771 58       		.sleb128 -40
 10786 1772 06       		.byte	0x6
 10787 1773 31       		.byte	0x31
 10788 1774 24       		.byte	0x24
 10789 1775 23       		.byte	0x23
 10790 1776 01       		.uleb128 0x1
 10791 1777 9F       		.byte	0x9f
 10792 1778 04010000 		.4byte	.LVL443
 10793 177c 08010000 		.4byte	.LFE94
 10794 1780 0700     		.2byte	0x7
 10795 1782 73       		.byte	0x73
 10796 1783 00       		.sleb128 0
 10797 1784 31       		.byte	0x31
 10798 1785 24       		.byte	0x24
 10799 1786 23       		.byte	0x23
 10800 1787 01       		.uleb128 0x1
 10801 1788 9F       		.byte	0x9f
 10802 1789 00000000 		.4byte	0
 10803 178d 00000000 		.4byte	0
 10804              	.LLST137:
 10805 1791 10000000 		.4byte	.LVL414
 10806 1795 12000000 		.4byte	.LVL415
 10807 1799 0100     		.2byte	0x1
 10808 179b 53       		.byte	0x53
 10809 179c 12000000 		.4byte	.LVL415
ARM GAS  C:\Users\Petro\AppData\Local\Temp\ccEiKVD5.s 			page 210


 10810 17a0 66000000 		.4byte	.LVL426
 10811 17a4 0200     		.2byte	0x2
 10812 17a6 91       		.byte	0x91
 10813 17a7 64       		.sleb128 -28
 10814 17a8 66000000 		.4byte	.LVL426
 10815 17ac 6A000000 		.4byte	.LVL427
 10816 17b0 0100     		.2byte	0x1
 10817 17b2 53       		.byte	0x53
 10818 17b3 6A000000 		.4byte	.LVL427
 10819 17b7 70000000 		.4byte	.LVL428
 10820 17bb 0100     		.2byte	0x1
 10821 17bd 52       		.byte	0x52
 10822 17be 70000000 		.4byte	.LVL428
 10823 17c2 08010000 		.4byte	.LFE94
 10824 17c6 0200     		.2byte	0x2
 10825 17c8 91       		.byte	0x91
 10826 17c9 64       		.sleb128 -28
 10827 17ca 00000000 		.4byte	0
 10828 17ce 00000000 		.4byte	0
 10829              	.LLST138:
 10830 17d2 10000000 		.4byte	.LVL414
 10831 17d6 4C000000 		.4byte	.LVL423
 10832 17da 0200     		.2byte	0x2
 10833 17dc 30       		.byte	0x30
 10834 17dd 9F       		.byte	0x9f
 10835 17de 4C000000 		.4byte	.LVL423
 10836 17e2 78000000 		.4byte	.LVL429
 10837 17e6 0200     		.2byte	0x2
 10838 17e8 91       		.byte	0x91
 10839 17e9 58       		.sleb128 -40
 10840 17ea 78000000 		.4byte	.LVL429
 10841 17ee 7A000000 		.4byte	.LVL430
 10842 17f2 0100     		.2byte	0x1
 10843 17f4 53       		.byte	0x53
 10844 17f5 7A000000 		.4byte	.LVL430
 10845 17f9 04010000 		.4byte	.LVL443
 10846 17fd 0200     		.2byte	0x2
 10847 17ff 91       		.byte	0x91
 10848 1800 58       		.sleb128 -40
 10849 1801 04010000 		.4byte	.LVL443
 10850 1805 08010000 		.4byte	.LFE94
 10851 1809 0100     		.2byte	0x1
 10852 180b 53       		.byte	0x53
 10853 180c 00000000 		.4byte	0
 10854 1810 00000000 		.4byte	0
 10855              	.LLST139:
 10856 1814 10000000 		.4byte	.LVL414
 10857 1818 18000000 		.4byte	.LVL416
 10858 181c 0200     		.2byte	0x2
 10859 181e 91       		.byte	0x91
 10860 181f 50       		.sleb128 -48
 10861 1820 4C000000 		.4byte	.LVL423
 10862 1824 60000000 		.4byte	.LVL424
 10863 1828 0200     		.2byte	0x2
 10864 182a 91       		.byte	0x91
 10865 182b 50       		.sleb128 -48
 10866 182c 60000000 		.4byte	.LVL424
ARM GAS  C:\Users\Petro\AppData\Local\Temp\ccEiKVD5.s 			page 211


 10867 1830 62000000 		.4byte	.LVL425
 10868 1834 0100     		.2byte	0x1
 10869 1836 53       		.byte	0x53
 10870 1837 62000000 		.4byte	.LVL425
 10871 183b 04010000 		.4byte	.LVL443
 10872 183f 0200     		.2byte	0x2
 10873 1841 91       		.byte	0x91
 10874 1842 50       		.sleb128 -48
 10875 1843 04010000 		.4byte	.LVL443
 10876 1847 08010000 		.4byte	.LFE94
 10877 184b 0100     		.2byte	0x1
 10878 184d 52       		.byte	0x52
 10879 184e 00000000 		.4byte	0
 10880 1852 00000000 		.4byte	0
 10881              	.LLST140:
 10882 1856 00000000 		.4byte	.LVL444
 10883 185a 0E000000 		.4byte	.LVL445
 10884 185e 0100     		.2byte	0x1
 10885 1860 50       		.byte	0x50
 10886 1861 0E000000 		.4byte	.LVL445
 10887 1865 7C000000 		.4byte	.LFE95
 10888 1869 0200     		.2byte	0x2
 10889 186b 91       		.byte	0x91
 10890 186c 60       		.sleb128 -32
 10891 186d 00000000 		.4byte	0
 10892 1871 00000000 		.4byte	0
 10893              	.LLST141:
 10894 1875 00000000 		.4byte	.LVL444
 10895 1879 0E000000 		.4byte	.LVL445
 10896 187d 0100     		.2byte	0x1
 10897 187f 51       		.byte	0x51
 10898 1880 0E000000 		.4byte	.LVL445
 10899 1884 7C000000 		.4byte	.LFE95
 10900 1888 0400     		.2byte	0x4
 10901 188a F3       		.byte	0xf3
 10902 188b 01       		.uleb128 0x1
 10903 188c 51       		.byte	0x51
 10904 188d 9F       		.byte	0x9f
 10905 188e 00000000 		.4byte	0
 10906 1892 00000000 		.4byte	0
 10907              	.LLST142:
 10908 1896 00000000 		.4byte	.LVL444
 10909 189a 0E000000 		.4byte	.LVL445
 10910 189e 0100     		.2byte	0x1
 10911 18a0 52       		.byte	0x52
 10912 18a1 0E000000 		.4byte	.LVL445
 10913 18a5 7C000000 		.4byte	.LFE95
 10914 18a9 0200     		.2byte	0x2
 10915 18ab 91       		.byte	0x91
 10916 18ac 64       		.sleb128 -28
 10917 18ad 00000000 		.4byte	0
 10918 18b1 00000000 		.4byte	0
 10919              	.LLST143:
 10920 18b5 00000000 		.4byte	.LVL444
 10921 18b9 0E000000 		.4byte	.LVL445
 10922 18bd 0100     		.2byte	0x1
 10923 18bf 53       		.byte	0x53
ARM GAS  C:\Users\Petro\AppData\Local\Temp\ccEiKVD5.s 			page 212


 10924 18c0 0E000000 		.4byte	.LVL445
 10925 18c4 7C000000 		.4byte	.LFE95
 10926 18c8 0200     		.2byte	0x2
 10927 18ca 91       		.byte	0x91
 10928 18cb 54       		.sleb128 -44
 10929 18cc 00000000 		.4byte	0
 10930 18d0 00000000 		.4byte	0
 10931              	.LLST144:
 10932 18d4 14000000 		.4byte	.LVL446
 10933 18d8 6E000000 		.4byte	.LVL453
 10934 18dc 0900     		.2byte	0x9
 10935 18de 75       		.byte	0x75
 10936 18df 00       		.sleb128 0
 10937 18e0 38       		.byte	0x38
 10938 18e1 14       		.byte	0x14
 10939 18e2 14       		.byte	0x14
 10940 18e3 1B       		.byte	0x1b
 10941 18e4 1E       		.byte	0x1e
 10942 18e5 1C       		.byte	0x1c
 10943 18e6 9F       		.byte	0x9f
 10944 18e7 6E000000 		.4byte	.LVL453
 10945 18eb 72000000 		.4byte	.LVL454
 10946 18ef 0900     		.2byte	0x9
 10947 18f1 75       		.byte	0x75
 10948 18f2 7F       		.sleb128 -1
 10949 18f3 38       		.byte	0x38
 10950 18f4 14       		.byte	0x14
 10951 18f5 14       		.byte	0x14
 10952 18f6 1B       		.byte	0x1b
 10953 18f7 1E       		.byte	0x1e
 10954 18f8 1C       		.byte	0x1c
 10955 18f9 9F       		.byte	0x9f
 10956 18fa 00000000 		.4byte	0
 10957 18fe 00000000 		.4byte	0
 10958              	.LLST145:
 10959 1902 46000000 		.4byte	.LVL448
 10960 1906 5B000000 		.4byte	.LVL449-1
 10961 190a 0A00     		.2byte	0xa
 10962 190c 91       		.byte	0x91
 10963 190d 64       		.sleb128 -28
 10964 190e 06       		.byte	0x6
 10965 190f 77       		.byte	0x77
 10966 1910 00       		.sleb128 0
 10967 1911 22       		.byte	0x22
 10968 1912 91       		.byte	0x91
 10969 1913 5C       		.sleb128 -36
 10970 1914 06       		.byte	0x6
 10971 1915 22       		.byte	0x22
 10972 1916 5E000000 		.4byte	.LVL450
 10973 191a 61000000 		.4byte	.LVL451-1
 10974 191e 0A00     		.2byte	0xa
 10975 1920 91       		.byte	0x91
 10976 1921 64       		.sleb128 -28
 10977 1922 06       		.byte	0x6
 10978 1923 77       		.byte	0x77
 10979 1924 00       		.sleb128 0
 10980 1925 22       		.byte	0x22
ARM GAS  C:\Users\Petro\AppData\Local\Temp\ccEiKVD5.s 			page 213


 10981 1926 91       		.byte	0x91
 10982 1927 5C       		.sleb128 -36
 10983 1928 06       		.byte	0x6
 10984 1929 22       		.byte	0x22
 10985 192a 00000000 		.4byte	0
 10986 192e 00000000 		.4byte	0
 10987              	.LLST146:
 10988 1932 00000000 		.4byte	.LVL444
 10989 1936 0E000000 		.4byte	.LVL445
 10990 193a 0200     		.2byte	0x2
 10991 193c 30       		.byte	0x30
 10992 193d 9F       		.byte	0x9f
 10993 193e 0E000000 		.4byte	.LVL445
 10994 1942 74000000 		.4byte	.LVL455
 10995 1946 0100     		.2byte	0x1
 10996 1948 55       		.byte	0x55
 10997 1949 00000000 		.4byte	0
 10998 194d 00000000 		.4byte	0
 10999              	.LLST147:
 11000 1951 14000000 		.4byte	.LVL446
 11001 1955 40000000 		.4byte	.LVL447
 11002 1959 0200     		.2byte	0x2
 11003 195b 30       		.byte	0x30
 11004 195c 9F       		.byte	0x9f
 11005 195d 40000000 		.4byte	.LVL447
 11006 1961 72000000 		.4byte	.LVL454
 11007 1965 0100     		.2byte	0x1
 11008 1967 57       		.byte	0x57
 11009 1968 00000000 		.4byte	0
 11010 196c 00000000 		.4byte	0
 11011              		.section	.debug_aranges,"",%progbits
 11012 0000 1C010000 		.4byte	0x11c
 11013 0004 0200     		.2byte	0x2
 11014 0006 00000000 		.4byte	.Ldebug_info0
 11015 000a 04       		.byte	0x4
 11016 000b 00       		.byte	0
 11017 000c 0000     		.2byte	0
 11018 000e 0000     		.2byte	0
 11019 0010 00000000 		.4byte	.LFB63
 11020 0014 28000000 		.4byte	.LFE63-.LFB63
 11021 0018 00000000 		.4byte	.LFB64
 11022 001c 22000000 		.4byte	.LFE64-.LFB64
 11023 0020 00000000 		.4byte	.LFB66
 11024 0024 3C000000 		.4byte	.LFE66-.LFB66
 11025 0028 00000000 		.4byte	.LFB67
 11026 002c 38000000 		.4byte	.LFE67-.LFB67
 11027 0030 00000000 		.4byte	.LFB69
 11028 0034 38000000 		.4byte	.LFE69-.LFB69
 11029 0038 00000000 		.4byte	.LFB68
 11030 003c 50000000 		.4byte	.LFE68-.LFB68
 11031 0040 00000000 		.4byte	.LFB70
 11032 0044 1C000000 		.4byte	.LFE70-.LFB70
 11033 0048 00000000 		.4byte	.LFB65
 11034 004c 88000000 		.4byte	.LFE65-.LFB65
 11035 0050 00000000 		.4byte	.LFB71
 11036 0054 18000000 		.4byte	.LFE71-.LFB71
 11037 0058 00000000 		.4byte	.LFB72
ARM GAS  C:\Users\Petro\AppData\Local\Temp\ccEiKVD5.s 			page 214


 11038 005c 14000000 		.4byte	.LFE72-.LFB72
 11039 0060 00000000 		.4byte	.LFB73
 11040 0064 28000000 		.4byte	.LFE73-.LFB73
 11041 0068 00000000 		.4byte	.LFB74
 11042 006c 28000000 		.4byte	.LFE74-.LFB74
 11043 0070 00000000 		.4byte	.LFB75
 11044 0074 38000000 		.4byte	.LFE75-.LFB75
 11045 0078 00000000 		.4byte	.LFB76
 11046 007c 14000000 		.4byte	.LFE76-.LFB76
 11047 0080 00000000 		.4byte	.LFB81
 11048 0084 30010000 		.4byte	.LFE81-.LFB81
 11049 0088 00000000 		.4byte	.LFB77
 11050 008c 5C000000 		.4byte	.LFE77-.LFB77
 11051 0090 00000000 		.4byte	.LFB78
 11052 0094 08000000 		.4byte	.LFE78-.LFB78
 11053 0098 00000000 		.4byte	.LFB79
 11054 009c C8000000 		.4byte	.LFE79-.LFB79
 11055 00a0 00000000 		.4byte	.LFB80
 11056 00a4 94000000 		.4byte	.LFE80-.LFB80
 11057 00a8 00000000 		.4byte	.LFB82
 11058 00ac 20000000 		.4byte	.LFE82-.LFB82
 11059 00b0 00000000 		.4byte	.LFB83
 11060 00b4 38000000 		.4byte	.LFE83-.LFB83
 11061 00b8 00000000 		.4byte	.LFB84
 11062 00bc 38000000 		.4byte	.LFE84-.LFB84
 11063 00c0 00000000 		.4byte	.LFB85
 11064 00c4 26000000 		.4byte	.LFE85-.LFB85
 11065 00c8 00000000 		.4byte	.LFB86
 11066 00cc 26000000 		.4byte	.LFE86-.LFB86
 11067 00d0 00000000 		.4byte	.LFB87
 11068 00d4 70010000 		.4byte	.LFE87-.LFB87
 11069 00d8 00000000 		.4byte	.LFB88
 11070 00dc 70010000 		.4byte	.LFE88-.LFB88
 11071 00e0 00000000 		.4byte	.LFB89
 11072 00e4 48000000 		.4byte	.LFE89-.LFB89
 11073 00e8 00000000 		.4byte	.LFB90
 11074 00ec 48000000 		.4byte	.LFE90-.LFB90
 11075 00f0 00000000 		.4byte	.LFB91
 11076 00f4 A2000000 		.4byte	.LFE91-.LFB91
 11077 00f8 00000000 		.4byte	.LFB92
 11078 00fc A2000000 		.4byte	.LFE92-.LFB92
 11079 0100 00000000 		.4byte	.LFB93
 11080 0104 08010000 		.4byte	.LFE93-.LFB93
 11081 0108 00000000 		.4byte	.LFB94
 11082 010c 08010000 		.4byte	.LFE94-.LFB94
 11083 0110 00000000 		.4byte	.LFB95
 11084 0114 7C000000 		.4byte	.LFE95-.LFB95
 11085 0118 00000000 		.4byte	0
 11086 011c 00000000 		.4byte	0
 11087              		.section	.debug_ranges,"",%progbits
 11088              	.Ldebug_ranges0:
 11089 0000 40000000 		.4byte	.LBB26
 11090 0004 48000000 		.4byte	.LBE26
 11091 0008 4A000000 		.4byte	.LBB28
 11092 000c 78000000 		.4byte	.LBE28
 11093 0010 7A000000 		.4byte	.LBB29
 11094 0014 BA000000 		.4byte	.LBE29
ARM GAS  C:\Users\Petro\AppData\Local\Temp\ccEiKVD5.s 			page 215


 11095 0018 00000000 		.4byte	0
 11096 001c 00000000 		.4byte	0
 11097 0020 5C000000 		.4byte	.LBB31
 11098 0024 72000000 		.4byte	.LBE31
 11099 0028 80000000 		.4byte	.LBB32
 11100 002c 84000000 		.4byte	.LBE32
 11101 0030 00000000 		.4byte	0
 11102 0034 00000000 		.4byte	0
 11103 0038 00000000 		.4byte	.LFB63
 11104 003c 28000000 		.4byte	.LFE63
 11105 0040 00000000 		.4byte	.LFB64
 11106 0044 22000000 		.4byte	.LFE64
 11107 0048 00000000 		.4byte	.LFB66
 11108 004c 3C000000 		.4byte	.LFE66
 11109 0050 00000000 		.4byte	.LFB67
 11110 0054 38000000 		.4byte	.LFE67
 11111 0058 00000000 		.4byte	.LFB69
 11112 005c 38000000 		.4byte	.LFE69
 11113 0060 00000000 		.4byte	.LFB68
 11114 0064 50000000 		.4byte	.LFE68
 11115 0068 00000000 		.4byte	.LFB70
 11116 006c 1C000000 		.4byte	.LFE70
 11117 0070 00000000 		.4byte	.LFB65
 11118 0074 88000000 		.4byte	.LFE65
 11119 0078 00000000 		.4byte	.LFB71
 11120 007c 18000000 		.4byte	.LFE71
 11121 0080 00000000 		.4byte	.LFB72
 11122 0084 14000000 		.4byte	.LFE72
 11123 0088 00000000 		.4byte	.LFB73
 11124 008c 28000000 		.4byte	.LFE73
 11125 0090 00000000 		.4byte	.LFB74
 11126 0094 28000000 		.4byte	.LFE74
 11127 0098 00000000 		.4byte	.LFB75
 11128 009c 38000000 		.4byte	.LFE75
 11129 00a0 00000000 		.4byte	.LFB76
 11130 00a4 14000000 		.4byte	.LFE76
 11131 00a8 00000000 		.4byte	.LFB81
 11132 00ac 30010000 		.4byte	.LFE81
 11133 00b0 00000000 		.4byte	.LFB77
 11134 00b4 5C000000 		.4byte	.LFE77
 11135 00b8 00000000 		.4byte	.LFB78
 11136 00bc 08000000 		.4byte	.LFE78
 11137 00c0 00000000 		.4byte	.LFB79
 11138 00c4 C8000000 		.4byte	.LFE79
 11139 00c8 00000000 		.4byte	.LFB80
 11140 00cc 94000000 		.4byte	.LFE80
 11141 00d0 00000000 		.4byte	.LFB82
 11142 00d4 20000000 		.4byte	.LFE82
 11143 00d8 00000000 		.4byte	.LFB83
 11144 00dc 38000000 		.4byte	.LFE83
 11145 00e0 00000000 		.4byte	.LFB84
 11146 00e4 38000000 		.4byte	.LFE84
 11147 00e8 00000000 		.4byte	.LFB85
 11148 00ec 26000000 		.4byte	.LFE85
 11149 00f0 00000000 		.4byte	.LFB86
 11150 00f4 26000000 		.4byte	.LFE86
 11151 00f8 00000000 		.4byte	.LFB87
ARM GAS  C:\Users\Petro\AppData\Local\Temp\ccEiKVD5.s 			page 216


 11152 00fc 70010000 		.4byte	.LFE87
 11153 0100 00000000 		.4byte	.LFB88
 11154 0104 70010000 		.4byte	.LFE88
 11155 0108 00000000 		.4byte	.LFB89
 11156 010c 48000000 		.4byte	.LFE89
 11157 0110 00000000 		.4byte	.LFB90
 11158 0114 48000000 		.4byte	.LFE90
 11159 0118 00000000 		.4byte	.LFB91
 11160 011c A2000000 		.4byte	.LFE91
 11161 0120 00000000 		.4byte	.LFB92
 11162 0124 A2000000 		.4byte	.LFE92
 11163 0128 00000000 		.4byte	.LFB93
 11164 012c 08010000 		.4byte	.LFE93
 11165 0130 00000000 		.4byte	.LFB94
 11166 0134 08010000 		.4byte	.LFE94
 11167 0138 00000000 		.4byte	.LFB95
 11168 013c 7C000000 		.4byte	.LFE95
 11169 0140 00000000 		.4byte	0
 11170 0144 00000000 		.4byte	0
 11171              		.section	.debug_line,"",%progbits
 11172              	.Ldebug_line0:
 11173 0000 30080000 		.section	.debug_str,"MS",%progbits,1
 11173      02006002 
 11173      00000201 
 11173      FB0E0D00 
 11173      01010101 
 11174              	.LASF139:
 11175 0000 636C724C 		.ascii	"clrLine\000"
 11175      696E6500 
 11176              	.LASF16:
 11177 0008 75696E74 		.ascii	"uint16\000"
 11177      313600
 11178              	.LASF117:
 11179 000f 496E6974 		.ascii	"InitLCD\000"
 11179      4C434400 
 11180              	.LASF129:
 11181 0017 7072696E 		.ascii	"prints\000"
 11181      747300
 11182              	.LASF156:
 11183 001e 73707269 		.ascii	"sprintf\000"
 11183      6E746600 
 11184              	.LASF37:
 11185 0026 4359424C 		.ascii	"CYBLE_EVT_GAP_CONNECTION_UPDATE_COMPLETE\000"
 11185      455F4556 
 11185      545F4741 
 11185      505F434F 
 11185      4E4E4543 
 11186              	.LASF82:
 11187 004f 4359424C 		.ascii	"CYBLE_EVT_L2CAP_CBFC_DISCONN_CNF\000"
 11187      455F4556 
 11187      545F4C32 
 11187      4341505F 
 11187      43424643 
 11188              	.LASF163:
 11189 0070 2E2E5C2E 		.ascii	"..\\..\\common\\lib\\nokia5110\\LCD5110_Graph.c\000"
 11189      2E5C636F 
 11189      6D6D6F6E 
ARM GAS  C:\Users\Petro\AppData\Local\Temp\ccEiKVD5.s 			page 217


 11189      5C6C6962 
 11189      5C6E6F6B 
 11190              	.LASF25:
 11191 009b 4359424C 		.ascii	"CYBLE_EVT_STACK_BUSY_STATUS\000"
 11191      455F4556 
 11191      545F5354 
 11191      41434B5F 
 11191      42555359 
 11192              	.LASF5:
 11193 00b7 5F5F7569 		.ascii	"__uint8_t\000"
 11193      6E74385F 
 11193      7400
 11194              	.LASF160:
 11195 00c1 5253545F 		.ascii	"RST_Write\000"
 11195      57726974 
 11195      6500
 11196              	.LASF58:
 11197 00cb 4359424C 		.ascii	"CYBLE_EVT_GATTC_FIND_INFO_RSP\000"
 11197      455F4556 
 11197      545F4741 
 11197      5454435F 
 11197      46494E44 
 11198              	.LASF22:
 11199 00e9 4359424C 		.ascii	"CYBLE_EVT_TIMEOUT\000"
 11199      455F4556 
 11199      545F5449 
 11199      4D454F55 
 11199      5400
 11200              	.LASF8:
 11201 00fb 6C6F6E67 		.ascii	"long int\000"
 11201      20696E74 
 11201      00
 11202              	.LASF152:
 11203 0104 63666F6E 		.ascii	"cfont\000"
 11203      7400
 11204              	.LASF96:
 11205 010a 6E756D63 		.ascii	"numchars\000"
 11205      68617273 
 11205      00
 11206              	.LASF24:
 11207 0113 4359424C 		.ascii	"CYBLE_EVT_HCI_STATUS\000"
 11207      455F4556 
 11207      545F4843 
 11207      495F5354 
 11207      41545553 
 11208              	.LASF128:
 11209 0128 7072696E 		.ascii	"print\000"
 11209      7400
 11210              	.LASF87:
 11211 012e 4359424C 		.ascii	"CYBLE_EVT_PENDING_FLASH_WRITE\000"
 11211      455F4556 
 11211      545F5045 
 11211      4E44494E 
 11211      475F464C 
 11212              	.LASF116:
 11213 014c 636C7253 		.ascii	"clrScr\000"
 11213      637200
ARM GAS  C:\Users\Petro\AppData\Local\Temp\ccEiKVD5.s 			page 218


 11214              	.LASF138:
 11215 0153 64656C74 		.ascii	"delta\000"
 11215      6100
 11216              	.LASF76:
 11217 0159 4359424C 		.ascii	"CYBLE_EVT_L2CAP_CONN_PARAM_UPDATE_REQ\000"
 11217      455F4556 
 11217      545F4C32 
 11217      4341505F 
 11217      434F4E4E 
 11218              	.LASF122:
 11219 017f 696E7665 		.ascii	"invertText\000"
 11219      72745465 
 11219      787400
 11220              	.LASF36:
 11221 018a 4359424C 		.ascii	"CYBLE_EVT_GAP_ENCRYPT_CHANGE\000"
 11221      455F4556 
 11221      545F4741 
 11221      505F454E 
 11221      43525950 
 11222              	.LASF40:
 11223 01a7 4359424C 		.ascii	"CYBLE_EVT_GAP_NUMERIC_COMPARISON_REQUEST\000"
 11223      455F4556 
 11223      545F4741 
 11223      505F4E55 
 11223      4D455249 
 11224              	.LASF85:
 11225 01d0 4359424C 		.ascii	"CYBLE_EVT_L2CAP_CBFC_TX_CREDIT_IND\000"
 11225      455F4556 
 11225      545F4C32 
 11225      4341505F 
 11225      43424643 
 11226              	.LASF118:
 11227 01f3 66696C6C 		.ascii	"fillScr\000"
 11227      53637200 
 11228              	.LASF10:
 11229 01fb 6C6F6E67 		.ascii	"long long int\000"
 11229      206C6F6E 
 11229      6720696E 
 11229      7400
 11230              	.LASF2:
 11231 0209 7369676E 		.ascii	"signed char\000"
 11231      65642063 
 11231      68617200 
 11232              	.LASF21:
 11233 0215 4359424C 		.ascii	"CYBLE_EVT_STACK_ON\000"
 11233      455F4556 
 11233      545F5354 
 11233      41434B5F 
 11233      4F4E00
 11234              	.LASF11:
 11235 0228 6C6F6E67 		.ascii	"long long unsigned int\000"
 11235      206C6F6E 
 11235      6720756E 
 11235      7369676E 
 11235      65642069 
 11236              	.LASF38:
 11237 023f 4359424C 		.ascii	"CYBLE_EVT_GAPC_SCAN_START_STOP\000"
ARM GAS  C:\Users\Petro\AppData\Local\Temp\ccEiKVD5.s 			page 219


 11237      455F4556 
 11237      545F4741 
 11237      50435F53 
 11237      43414E5F 
 11238              	.LASF28:
 11239 025e 4359424C 		.ascii	"CYBLE_EVT_GAP_AUTH_REQ\000"
 11239      455F4556 
 11239      545F4741 
 11239      505F4155 
 11239      54485F52 
 11240              	.LASF60:
 11241 0275 4359424C 		.ascii	"CYBLE_EVT_GATTC_READ_RSP\000"
 11241      455F4556 
 11241      545F4741 
 11241      5454435F 
 11241      52454144 
 11242              	.LASF155:
 11243 028e 5F636F6E 		.ascii	"_contrast\000"
 11243      74726173 
 11243      7400
 11244              	.LASF65:
 11245 0298 4359424C 		.ascii	"CYBLE_EVT_GATTS_WRITE_CMD_REQ\000"
 11245      455F4556 
 11245      545F4741 
 11245      5454535F 
 11245      57524954 
 11246              	.LASF148:
 11247 02b6 636C7243 		.ascii	"clrCircle\000"
 11247      6972636C 
 11247      6500
 11248              	.LASF33:
 11249 02c0 4359424C 		.ascii	"CYBLE_EVT_GAPP_ADVERTISEMENT_START_STOP\000"
 11249      455F4556 
 11249      545F4741 
 11249      50505F41 
 11249      44564552 
 11250              	.LASF15:
 11251 02e8 75696E74 		.ascii	"uint8\000"
 11251      3800
 11252              	.LASF14:
 11253 02ee 75696E74 		.ascii	"uint16_t\000"
 11253      31365F74 
 11253      00
 11254              	.LASF0:
 11255 02f7 646F7562 		.ascii	"double\000"
 11255      6C6500
 11256              	.LASF111:
 11257 02fe 73657443 		.ascii	"setContrast\000"
 11257      6F6E7472 
 11257      61737400 
 11258              	.LASF133:
 11259 030a 7072696E 		.ascii	"printNumF\000"
 11259      744E756D 
 11259      4600
 11260              	.LASF115:
 11261 0314 64697361 		.ascii	"disableSleep\000"
 11261      626C6553 
ARM GAS  C:\Users\Petro\AppData\Local\Temp\ccEiKVD5.s 			page 220


 11261      6C656570 
 11261      00
 11262              	.LASF137:
 11263 0321 64726177 		.ascii	"drawLine\000"
 11263      4C696E65 
 11263      00
 11264              	.LASF123:
 11265 032a 5F707269 		.ascii	"_print_char\000"
 11265      6E745F63 
 11265      68617200 
 11266              	.LASF130:
 11267 0336 7072696E 		.ascii	"printNumI\000"
 11267      744E756D 
 11267      4900
 11268              	.LASF91:
 11269 0340 4359424C 		.ascii	"CYBLE_EVT_MAX\000"
 11269      455F4556 
 11269      545F4D41 
 11269      5800
 11270              	.LASF86:
 11271 034e 4359424C 		.ascii	"CYBLE_EVT_L2CAP_CBFC_DATA_WRITE_IND\000"
 11271      455F4556 
 11271      545F4C32 
 11271      4341505F 
 11271      43424643 
 11272              	.LASF104:
 11273 0372 636C7256 		.ascii	"clrVLine\000"
 11273      4C696E65 
 11273      00
 11274              	.LASF48:
 11275 037b 4359424C 		.ascii	"CYBLE_EVT_GAP_SCAN_REQ_RECVD\000"
 11275      455F4556 
 11275      545F4741 
 11275      505F5343 
 11275      414E5F52 
 11276              	.LASF132:
 11277 0398 66696C6C 		.ascii	"filler\000"
 11277      657200
 11278              	.LASF75:
 11279 039f 4359424C 		.ascii	"CYBLE_EVT_GATTC_LONG_PROCEDURE_END\000"
 11279      455F4556 
 11279      545F4741 
 11279      5454435F 
 11279      4C4F4E47 
 11280              	.LASF73:
 11281 03c2 4359424C 		.ascii	"CYBLE_EVT_GATTC_STOP_CMD_COMPLETE\000"
 11281      455F4556 
 11281      545F4741 
 11281      5454435F 
 11281      53544F50 
 11282              	.LASF12:
 11283 03e4 756E7369 		.ascii	"unsigned int\000"
 11283      676E6564 
 11283      20696E74 
 11283      00
 11284              	.LASF88:
 11285 03f1 4359424C 		.ascii	"CYBLE_EVT_LE_PING_AUTH_TIMEOUT\000"
ARM GAS  C:\Users\Petro\AppData\Local\Temp\ccEiKVD5.s 			page 221


 11285      455F4556 
 11285      545F4C45 
 11285      5F50494E 
 11285      475F4155 
 11286              	.LASF161:
 11287 0410 7374726C 		.ascii	"strlen\000"
 11287      656E00
 11288              	.LASF125:
 11289 0417 726F7763 		.ascii	"rowcnt\000"
 11289      6E7400
 11290              	.LASF9:
 11291 041e 6C6F6E67 		.ascii	"long unsigned int\000"
 11291      20756E73 
 11291      69676E65 
 11291      6420696E 
 11291      7400
 11292              	.LASF99:
 11293 0430 73657450 		.ascii	"setPixel\000"
 11293      6978656C 
 11293      00
 11294              	.LASF55:
 11295 0439 4359424C 		.ascii	"CYBLE_EVT_GATTC_XCHNG_MTU_RSP\000"
 11295      455F4556 
 11295      545F4741 
 11295      5454435F 
 11295      5843484E 
 11296              	.LASF72:
 11297 0457 4359424C 		.ascii	"CYBLE_EVT_GATTS_DATA_SIGNED_CMD_REQ\000"
 11297      455F4556 
 11297      545F4741 
 11297      5454535F 
 11297      44415441 
 11298              	.LASF146:
 11299 047b 6464465F 		.ascii	"ddF_x\000"
 11299      7800
 11300              	.LASF147:
 11301 0481 6464465F 		.ascii	"ddF_y\000"
 11301      7900
 11302              	.LASF103:
 11303 0487 64726177 		.ascii	"drawVLine\000"
 11303      564C696E 
 11303      6500
 11304              	.LASF105:
 11305 0491 77696474 		.ascii	"width\000"
 11305      6800
 11306              	.LASF109:
 11307 0497 64617461 		.ascii	"data\000"
 11307      00
 11308              	.LASF135:
 11309 049c 73697A65 		.ascii	"size\000"
 11309      00
 11310              	.LASF7:
 11311 04a1 73686F72 		.ascii	"short unsigned int\000"
 11311      7420756E 
 11311      7369676E 
 11311      65642069 
 11311      6E7400
ARM GAS  C:\Users\Petro\AppData\Local\Temp\ccEiKVD5.s 			page 222


 11312              	.LASF20:
 11313 04b4 4359424C 		.ascii	"CYBLE_EVT_HOST_INVALID\000"
 11313      455F4556 
 11313      545F484F 
 11313      53545F49 
 11313      4E56414C 
 11314              	.LASF108:
 11315 04cb 5F4C4344 		.ascii	"_LCD_Write\000"
 11315      5F577269 
 11315      746500
 11316              	.LASF26:
 11317 04d6 4359424C 		.ascii	"CYBLE_EVT_MEMORY_REQUEST\000"
 11317      455F4556 
 11317      545F4D45 
 11317      4D4F5259 
 11317      5F524551 
 11318              	.LASF159:
 11319 04ef 53775350 		.ascii	"SwSPI_Master_SendByte\000"
 11319      495F4D61 
 11319      73746572 
 11319      5F53656E 
 11319      64427974 
 11320              	.LASF67:
 11321 0505 4359424C 		.ascii	"CYBLE_EVT_GATTS_EXEC_WRITE_REQ\000"
 11321      455F4556 
 11321      545F4741 
 11321      5454535F 
 11321      45584543 
 11322              	.LASF29:
 11323 0524 4359424C 		.ascii	"CYBLE_EVT_GAP_PASSKEY_ENTRY_REQUEST\000"
 11323      455F4556 
 11323      545F4741 
 11323      505F5041 
 11323      53534B45 
 11324              	.LASF34:
 11325 0548 4359424C 		.ascii	"CYBLE_EVT_GAP_DEVICE_CONNECTED\000"
 11325      455F4556 
 11325      545F4741 
 11325      505F4445 
 11325      56494345 
 11326              	.LASF63:
 11327 0567 4359424C 		.ascii	"CYBLE_EVT_GATTS_WRITE_REQ\000"
 11327      455F4556 
 11327      545F4741 
 11327      5454535F 
 11327      57524954 
 11328              	.LASF112:
 11329 0581 636F6E74 		.ascii	"contrast\000"
 11329      72617374 
 11329      00
 11330              	.LASF49:
 11331 058a 4359424C 		.ascii	"CYBLE_EVT_GAP_AUTH_REQ_REPLY_ERR\000"
 11331      455F4556 
 11331      545F4741 
 11331      505F4155 
 11331      54485F52 
 11332              	.LASF30:
ARM GAS  C:\Users\Petro\AppData\Local\Temp\ccEiKVD5.s 			page 223


 11333 05ab 4359424C 		.ascii	"CYBLE_EVT_GAP_PASSKEY_DISPLAY_REQUEST\000"
 11333      455F4556 
 11333      545F4741 
 11333      505F5041 
 11333      53534B45 
 11334              	.LASF90:
 11335 05d1 4359424C 		.ascii	"CYBLE_EVT_FLASH_CORRUPT\000"
 11335      455F4556 
 11335      545F464C 
 11335      4153485F 
 11335      434F5252 
 11336              	.LASF52:
 11337 05e9 4359424C 		.ascii	"CYBLE_EVT_GATT_CONNECT_IND\000"
 11337      455F4556 
 11337      545F4741 
 11337      54545F43 
 11337      4F4E4E45 
 11338              	.LASF100:
 11339 0604 636C7250 		.ascii	"clrPixel\000"
 11339      6978656C 
 11339      00
 11340              	.LASF78:
 11341 060d 4359424C 		.ascii	"CYBLE_EVT_L2CAP_COMMAND_REJ\000"
 11341      455F4556 
 11341      545F4C32 
 11341      4341505F 
 11341      434F4D4D 
 11342              	.LASF157:
 11343 0629 44435F57 		.ascii	"DC_Write\000"
 11343      72697465 
 11343      00
 11344              	.LASF126:
 11345 0632 63627974 		.ascii	"cbyte\000"
 11345      6500
 11346              	.LASF27:
 11347 0638 4359424C 		.ascii	"CYBLE_EVT_GAPC_SCAN_PROGRESS_RESULT\000"
 11347      455F4556 
 11347      545F4741 
 11347      50435F53 
 11347      43414E5F 
 11348              	.LASF98:
 11349 065c 5F637572 		.ascii	"_current_font\000"
 11349      72656E74 
 11349      5F666F6E 
 11349      7400
 11350              	.LASF50:
 11351 066a 4359424C 		.ascii	"CYBLE_EVT_GAP_SMP_LOC_P256_KEYS_GEN_AND_SET_COMPLET"
 11351      455F4556 
 11351      545F4741 
 11351      505F534D 
 11351      505F4C4F 
 11352 069d 4500     		.ascii	"E\000"
 11353              	.LASF35:
 11354 069f 4359424C 		.ascii	"CYBLE_EVT_GAP_DEVICE_DISCONNECTED\000"
 11354      455F4556 
 11354      545F4741 
 11354      505F4445 
ARM GAS  C:\Users\Petro\AppData\Local\Temp\ccEiKVD5.s 			page 224


 11354      56494345 
 11355              	.LASF79:
 11356 06c1 4359424C 		.ascii	"CYBLE_EVT_L2CAP_CBFC_CONN_IND\000"
 11356      455F4556 
 11356      545F4C32 
 11356      4341505F 
 11356      43424643 
 11357              	.LASF57:
 11358 06df 4359424C 		.ascii	"CYBLE_EVT_GATTC_READ_BY_TYPE_RSP\000"
 11358      455F4556 
 11358      545F4741 
 11358      5454435F 
 11358      52454144 
 11359              	.LASF102:
 11360 0700 636C7248 		.ascii	"clrHLine\000"
 11360      4C696E65 
 11360      00
 11361              	.LASF19:
 11362 0709 73697A65 		.ascii	"sizetype\000"
 11362      74797065 
 11362      00
 11363              	.LASF18:
 11364 0712 6C6F6E67 		.ascii	"long double\000"
 11364      20646F75 
 11364      626C6500 
 11365              	.LASF32:
 11366 071e 4359424C 		.ascii	"CYBLE_EVT_GAP_AUTH_FAILED\000"
 11366      455F4556 
 11366      545F4741 
 11366      505F4155 
 11366      54485F46 
 11367              	.LASF64:
 11368 0738 4359424C 		.ascii	"CYBLE_EVT_GATTC_WRITE_RSP\000"
 11368      455F4556 
 11368      545F4741 
 11368      5454435F 
 11368      57524954 
 11369              	.LASF162:
 11370 0752 474E5520 		.ascii	"GNU C11 5.4.1 20160609 (release) [ARM/embedded-5-br"
 11370      43313120 
 11370      352E342E 
 11370      31203230 
 11370      31363036 
 11371 0785 616E6368 		.ascii	"anch revision 237715] -mcpu=cortex-m0 -mthumb -g -O"
 11371      20726576 
 11371      6973696F 
 11371      6E203233 
 11371      37373135 
 11372 07b8 73202D66 		.ascii	"s -ffunction-sections -ffat-lto-objects\000"
 11372      66756E63 
 11372      74696F6E 
 11372      2D736563 
 11372      74696F6E 
 11373              	.LASF45:
 11374 07e0 4359424C 		.ascii	"CYBLE_EVT_GAPC_DIRECT_ADV_REPORT\000"
 11374      455F4556 
 11374      545F4741 
ARM GAS  C:\Users\Petro\AppData\Local\Temp\ccEiKVD5.s 			page 225


 11374      50435F44 
 11374      49524543 
 11375              	.LASF93:
 11376 0801 785F7369 		.ascii	"x_size\000"
 11376      7A6500
 11377              	.LASF43:
 11378 0808 4359424C 		.ascii	"CYBLE_EVT_GAP_DATA_LENGTH_CHANGE\000"
 11378      455F4556 
 11378      545F4741 
 11378      505F4441 
 11378      54415F4C 
 11379              	.LASF151:
 11380 0829 5254435F 		.ascii	"RTC_daysBeforeMonthTbl\000"
 11380      64617973 
 11380      4265666F 
 11380      72654D6F 
 11380      6E746854 
 11381              	.LASF31:
 11382 0840 4359424C 		.ascii	"CYBLE_EVT_GAP_AUTH_COMPLETE\000"
 11382      455F4556 
 11382      545F4741 
 11382      505F4155 
 11382      54485F43 
 11383              	.LASF153:
 11384 085c 73637262 		.ascii	"scrbuf\000"
 11384      756600
 11385              	.LASF69:
 11386 0863 4359424C 		.ascii	"CYBLE_EVT_GATTC_HANDLE_VALUE_NTF\000"
 11386      455F4556 
 11386      545F4741 
 11386      5454435F 
 11386      48414E44 
 11387              	.LASF158:
 11388 0884 43455F57 		.ascii	"CE_Write\000"
 11388      72697465 
 11388      00
 11389              	.LASF101:
 11390 088d 64726177 		.ascii	"drawHLine\000"
 11390      484C696E 
 11390      6500
 11391              	.LASF80:
 11392 0897 4359424C 		.ascii	"CYBLE_EVT_L2CAP_CBFC_CONN_CNF\000"
 11392      455F4556 
 11392      545F4C32 
 11392      4341505F 
 11392      43424643 
 11393              	.LASF56:
 11394 08b5 4359424C 		.ascii	"CYBLE_EVT_GATTC_READ_BY_GROUP_TYPE_RSP\000"
 11394      455F4556 
 11394      545F4741 
 11394      5454435F 
 11394      52454144 
 11395              	.LASF47:
 11396 08dc 4359424C 		.ascii	"CYBLE_EVT_GAP_CONN_ESTB\000"
 11396      455F4556 
 11396      545F4741 
 11396      505F434F 
ARM GAS  C:\Users\Petro\AppData\Local\Temp\ccEiKVD5.s 			page 226


 11396      4E4E5F45 
 11397              	.LASF1:
 11398 08f4 666C6F61 		.ascii	"float\000"
 11398      7400
 11399              	.LASF144:
 11400 08fa 64726177 		.ascii	"drawCircle\000"
 11400      43697263 
 11400      6C6500
 11401              	.LASF142:
 11402 0905 64726177 		.ascii	"drawRoundRect\000"
 11402      526F756E 
 11402      64526563 
 11402      7400
 11403              	.LASF164:
 11404 0913 443A5C43 		.ascii	"D:\\Cypress\\system-start-finish\\dev\\FW\\finish\\"
 11404      79707265 
 11404      73735C73 
 11404      79737465 
 11404      6D2D7374 
 11405 0940 66696E5F 		.ascii	"fin_v11.cydsn\000"
 11405      7631312E 
 11405      63796473 
 11405      6E00
 11406              	.LASF154:
 11407 094e 5F736C65 		.ascii	"_sleep\000"
 11407      657000
 11408              	.LASF120:
 11409 0955 5F426F6F 		.ascii	"_Bool\000"
 11409      6C00
 11410              	.LASF3:
 11411 095b 756E7369 		.ascii	"unsigned char\000"
 11411      676E6564 
 11411      20636861 
 11411      7200
 11412              	.LASF141:
 11413 0969 636C7252 		.ascii	"clrRect\000"
 11413      65637400 
 11414              	.LASF94:
 11415 0971 795F7369 		.ascii	"y_size\000"
 11415      7A6500
 11416              	.LASF4:
 11417 0978 73686F72 		.ascii	"short int\000"
 11417      7420696E 
 11417      7400
 11418              	.LASF70:
 11419 0982 4359424C 		.ascii	"CYBLE_EVT_GATTC_HANDLE_VALUE_IND\000"
 11419      455F4556 
 11419      545F4741 
 11419      5454435F 
 11419      48414E44 
 11420              	.LASF66:
 11421 09a3 4359424C 		.ascii	"CYBLE_EVT_GATTS_PREP_WRITE_REQ\000"
 11421      455F4556 
 11421      545F4741 
 11421      5454535F 
 11421      50524550 
 11422              	.LASF97:
ARM GAS  C:\Users\Petro\AppData\Local\Temp\ccEiKVD5.s 			page 227


 11423 09c2 696E7665 		.ascii	"inverted\000"
 11423      72746564 
 11423      00
 11424              	.LASF89:
 11425 09cb 4359424C 		.ascii	"CYBLE_EVT_HCI_PKT\000"
 11425      455F4556 
 11425      545F4843 
 11425      495F504B 
 11425      5400
 11426              	.LASF113:
 11427 09dd 666F726D 		.ascii	"format\000"
 11427      617400
 11428              	.LASF149:
 11429 09e4 64726177 		.ascii	"drawBitmap\000"
 11429      4269746D 
 11429      617000
 11430              	.LASF121:
 11431 09ef 696E7650 		.ascii	"invPixel\000"
 11431      6978656C 
 11431      00
 11432              	.LASF71:
 11433 09f8 4359424C 		.ascii	"CYBLE_EVT_GATTS_HANDLE_VALUE_CNF\000"
 11433      455F4556 
 11433      545F4741 
 11433      5454535F 
 11433      48414E44 
 11434              	.LASF51:
 11435 0a19 4359424C 		.ascii	"CYBLE_EVT_GATTC_ERROR_RSP\000"
 11435      455F4556 
 11435      545F4741 
 11435      5454435F 
 11435      4552524F 
 11436              	.LASF46:
 11437 0a33 4359424C 		.ascii	"CYBLE_EVT_GAP_SMP_NEGOTIATED_AUTH_INFO\000"
 11437      455F4556 
 11437      545F4741 
 11437      505F534D 
 11437      505F4E45 
 11438              	.LASF124:
 11439 0a5a 666F6E74 		.ascii	"font_idx\000"
 11439      5F696478 
 11439      00
 11440              	.LASF17:
 11441 0a63 63686172 		.ascii	"char\000"
 11441      00
 11442              	.LASF68:
 11443 0a68 4359424C 		.ascii	"CYBLE_EVT_GATTC_EXEC_WRITE_RSP\000"
 11443      455F4556 
 11443      545F4741 
 11443      5454435F 
 11443      45584543 
 11444              	.LASF131:
 11445 0a87 6C656E67 		.ascii	"length\000"
 11445      746800
 11446              	.LASF62:
 11447 0a8e 4359424C 		.ascii	"CYBLE_EVT_GATTC_READ_MULTI_RSP\000"
 11447      455F4556 
ARM GAS  C:\Users\Petro\AppData\Local\Temp\ccEiKVD5.s 			page 228


 11447      545F4741 
 11447      5454435F 
 11447      52454144 
 11448              	.LASF110:
 11449 0aad 6D6F6465 		.ascii	"mode\000"
 11449      00
 11450              	.LASF6:
 11451 0ab2 5F5F7569 		.ascii	"__uint16_t\000"
 11451      6E743136 
 11451      5F7400
 11452              	.LASF74:
 11453 0abd 4359424C 		.ascii	"CYBLE_EVT_GATTS_READ_CHAR_VAL_ACCESS_REQ\000"
 11453      455F4556 
 11453      545F4741 
 11453      5454535F 
 11453      52454144 
 11454              	.LASF41:
 11455 0ae6 4359424C 		.ascii	"CYBLE_EVT_GAP_KEYPRESS_NOTIFICATION\000"
 11455      455F4556 
 11455      545F4741 
 11455      505F4B45 
 11455      59505245 
 11456              	.LASF84:
 11457 0b0a 4359424C 		.ascii	"CYBLE_EVT_L2CAP_CBFC_RX_CREDIT_IND\000"
 11457      455F4556 
 11457      545F4C32 
 11457      4341505F 
 11457      43424643 
 11458              	.LASF61:
 11459 0b2d 4359424C 		.ascii	"CYBLE_EVT_GATTC_READ_BLOB_RSP\000"
 11459      455F4556 
 11459      545F4741 
 11459      5454435F 
 11459      52454144 
 11460              	.LASF145:
 11461 0b4b 72616469 		.ascii	"radius\000"
 11461      757300
 11462              	.LASF83:
 11463 0b52 4359424C 		.ascii	"CYBLE_EVT_L2CAP_CBFC_DATA_READ\000"
 11463      455F4556 
 11463      545F4C32 
 11463      4341505F 
 11463      43424643 
 11464              	.LASF95:
 11465 0b71 6F666673 		.ascii	"offset\000"
 11465      657400
 11466              	.LASF23:
 11467 0b78 4359424C 		.ascii	"CYBLE_EVT_HARDWARE_ERROR\000"
 11467      455F4556 
 11467      545F4841 
 11467      52445741 
 11467      52455F45 
 11468              	.LASF42:
 11469 0b91 4359424C 		.ascii	"CYBLE_EVT_GAP_OOB_GENERATED_NOTIFICATION\000"
 11469      455F4556 
 11469      545F4741 
 11469      505F4F4F 
ARM GAS  C:\Users\Petro\AppData\Local\Temp\ccEiKVD5.s 			page 229


 11469      425F4745 
 11470              	.LASF106:
 11471 0bba 70726563 		.ascii	"prec\000"
 11471      00
 11472              	.LASF165:
 11473 0bbf 75706461 		.ascii	"update\000"
 11473      746500
 11474              	.LASF54:
 11475 0bc6 4359424C 		.ascii	"CYBLE_EVT_GATTS_XCNHG_MTU_REQ\000"
 11475      455F4556 
 11475      545F4741 
 11475      5454535F 
 11475      58434E48 
 11476              	.LASF92:
 11477 0be4 666F6E74 		.ascii	"font\000"
 11477      00
 11478              	.LASF143:
 11479 0be9 636C7252 		.ascii	"clrRoundRect\000"
 11479      6F756E64 
 11479      52656374 
 11479      00
 11480              	.LASF140:
 11481 0bf6 64726177 		.ascii	"drawRect\000"
 11481      52656374 
 11481      00
 11482              	.LASF13:
 11483 0bff 75696E74 		.ascii	"uint8_t\000"
 11483      385F7400 
 11484              	.LASF127:
 11485 0c07 63626974 		.ascii	"cbit\000"
 11485      00
 11486              	.LASF150:
 11487 0c0c 6269746D 		.ascii	"bitmap\000"
 11487      617000
 11488              	.LASF134:
 11489 0c13 64697669 		.ascii	"divider\000"
 11489      64657200 
 11490              	.LASF59:
 11491 0c1b 4359424C 		.ascii	"CYBLE_EVT_GATTC_FIND_BY_TYPE_VALUE_RSP\000"
 11491      455F4556 
 11491      545F4741 
 11491      5454435F 
 11491      46494E44 
 11492              	.LASF39:
 11493 0c42 4359424C 		.ascii	"CYBLE_EVT_GAP_KEYINFO_EXCHNGE_CMPLT\000"
 11493      455F4556 
 11493      545F4741 
 11493      505F4B45 
 11493      59494E46 
 11494              	.LASF136:
 11495 0c66 73657446 		.ascii	"setFont\000"
 11495      6F6E7400 
 11496              	.LASF81:
 11497 0c6e 4359424C 		.ascii	"CYBLE_EVT_L2CAP_CBFC_DISCONN_IND\000"
 11497      455F4556 
 11497      545F4C32 
 11497      4341505F 
ARM GAS  C:\Users\Petro\AppData\Local\Temp\ccEiKVD5.s 			page 230


 11497      43424643 
 11498              	.LASF77:
 11499 0c8f 4359424C 		.ascii	"CYBLE_EVT_L2CAP_CONN_PARAM_UPDATE_RSP\000"
 11499      455F4556 
 11499      545F4C32 
 11499      4341505F 
 11499      434F4E4E 
 11500              	.LASF107:
 11501 0cb5 5F636F6E 		.ascii	"_convert_float\000"
 11501      76657274 
 11501      5F666C6F 
 11501      617400
 11502              	.LASF44:
 11503 0cc4 4359424C 		.ascii	"CYBLE_EVT_GAP_ENHANCE_CONN_COMPLETE\000"
 11503      455F4556 
 11503      545F4741 
 11503      505F454E 
 11503      48414E43 
 11504              	.LASF114:
 11505 0ce8 656E6162 		.ascii	"enableSleep\000"
 11505      6C65536C 
 11505      65657000 
 11506              	.LASF53:
 11507 0cf4 4359424C 		.ascii	"CYBLE_EVT_GATT_DISCONNECT_IND\000"
 11507      455F4556 
 11507      545F4741 
 11507      54545F44 
 11507      4953434F 
 11508              	.LASF119:
 11509 0d12 696E7665 		.ascii	"invert\000"
 11509      727400
 11510              		.ident	"GCC: (GNU Tools for ARM Embedded Processors) 5.4.1 20160609 (release) [ARM/embedded-5-bran
