ARM GAS  C:\Users\Petro\AppData\Local\Temp\ccEiKVD5.s 			page 1


   1              		.syntax unified
   2              		.cpu cortex-m0
   3              		.fpu softvfp
   4              		.eabi_attribute 20, 1
   5              		.eabi_attribute 21, 1
   6              		.eabi_attribute 23, 3
   7              		.eabi_attribute 24, 1
   8              		.eabi_attribute 25, 1
   9              		.eabi_attribute 26, 1
  10              		.eabi_attribute 30, 4
  11              		.eabi_attribute 34, 0
  12              		.eabi_attribute 18, 4
  13              		.thumb
  14              		.syntax unified
  15              		.file	"LCD5110_Graph.c"
  16              		.text
  17              	.Ltext0:
  18              		.cfi_sections	.debug_frame
  19              		.section	.text._convert_float,"ax",%progbits
  20              		.align	1
  21              		.global	_convert_float
  22              		.code	16
  23              		.thumb_func
  24              		.type	_convert_float, %function
  25              	_convert_float:
  26              	.LFB63:
  27              		.file 1 "./..\\..\\common\\lib\\nokia5110/HW_ARM.h"
   1:./..\..\common\lib\nokia5110/HW_ARM.h **** #include "stdio.h"
   2:./..\..\common\lib\nokia5110/HW_ARM.h **** #include "stdint.h"
   3:./..\..\common\lib\nokia5110/HW_ARM.h **** 
   4:./..\..\common\lib\nokia5110/HW_ARM.h **** void _convert_float(char *buf, double num, int width, uint8_t prec)
   5:./..\..\common\lib\nokia5110/HW_ARM.h **** {
  28              		.loc 1 5 0
  29              		.cfi_startproc
  30              		@ args = 8, pretend = 0, frame = 16
  31              		@ frame_needed = 0, uses_anonymous_args = 0
  32              	.LVL0:
  33 0000 7FB5     		push	{r0, r1, r2, r3, r4, r5, r6, lr}
  34              		.cfi_def_cfa_offset 32
  35              		.cfi_offset 0, -32
  36              		.cfi_offset 1, -28
  37              		.cfi_offset 2, -24
  38              		.cfi_offset 3, -20
  39              		.cfi_offset 4, -16
  40              		.cfi_offset 5, -12
  41              		.cfi_offset 6, -8
  42              		.cfi_offset 14, -4
  43              		.loc 1 5 0
  44 0002 0600     		movs	r6, r0
  45 0004 1D00     		movs	r5, r3
  46 0006 1400     		movs	r4, r2
  47 0008 08AB     		add	r3, sp, #32
  48              	.LVL1:
  49 000a 04CB     		ldmia	r3!, {r2}
  50              	.LVL2:
   6:./..\..\common\lib\nokia5110/HW_ARM.h **** 	char format[10];
   7:./..\..\common\lib\nokia5110/HW_ARM.h **** 	
ARM GAS  C:\Users\Petro\AppData\Local\Temp\ccEiKVD5.s 			page 2


   8:./..\..\common\lib\nokia5110/HW_ARM.h **** 	sprintf(format, "%%%i.%if", width, prec);
  51              		.loc 1 8 0
  52 000c 0549     		ldr	r1, .L2
   5:./..\..\common\lib\nokia5110/HW_ARM.h **** 	char format[10];
  53              		.loc 1 5 0
  54 000e 1B78     		ldrb	r3, [r3]
  55              	.LVL3:
  56              		.loc 1 8 0
  57 0010 01A8     		add	r0, sp, #4
  58              	.LVL4:
  59 0012 FFF7FEFF 		bl	sprintf
  60              	.LVL5:
   9:./..\..\common\lib\nokia5110/HW_ARM.h **** 	sprintf(buf, format, num);
  61              		.loc 1 9 0
  62 0016 2B00     		movs	r3, r5
  63 0018 3000     		movs	r0, r6
  64 001a 2200     		movs	r2, r4
  65 001c 01A9     		add	r1, sp, #4
  66 001e FFF7FEFF 		bl	sprintf
  67              	.LVL6:
  10:./..\..\common\lib\nokia5110/HW_ARM.h **** }
  68              		.loc 1 10 0
  69              		@ sp needed
  70              	.LVL7:
  71 0022 7FBD     		pop	{r0, r1, r2, r3, r4, r5, r6, pc}
  72              	.L3:
  73              		.align	2
  74              	.L2:
  75 0024 00000000 		.word	.LC0
  76              		.cfi_endproc
  77              	.LFE63:
  78              		.size	_convert_float, .-_convert_float
  79              		.section	.text._LCD_Write,"ax",%progbits
  80              		.align	1
  81              		.global	_LCD_Write
  82              		.code	16
  83              		.thumb_func
  84              		.type	_LCD_Write, %function
  85              	_LCD_Write:
  86              	.LFB64:
  87              		.file 2 "..\\..\\common\\lib\\nokia5110\\LCD5110_Graph.c"
   1:..\..\common\lib\nokia5110/LCD5110_Graph.c **** /*
   2:..\..\common\lib\nokia5110/LCD5110_Graph.c ****   LCD5110_Graph.cpp - Arduino/chipKit library support for Nokia 5110 compatible LCDs
   3:..\..\common\lib\nokia5110/LCD5110_Graph.c ****   Copyright (C)2015 Rinky-Dink Electronics, Henning Karlsen. All right reserved
   4:..\..\common\lib\nokia5110/LCD5110_Graph.c ****   
   5:..\..\common\lib\nokia5110/LCD5110_Graph.c ****   Basic functionality of this library are based on the demo-code provided by
   6:..\..\common\lib\nokia5110/LCD5110_Graph.c ****   ITead studio. You can find the latest version of the library at
   7:..\..\common\lib\nokia5110/LCD5110_Graph.c ****   http://www.RinkyDinkElectronics.com/
   8:..\..\common\lib\nokia5110/LCD5110_Graph.c **** 
   9:..\..\common\lib\nokia5110/LCD5110_Graph.c ****   This library has been made to make it easy to use the Nokia 5110 LCD module 
  10:..\..\common\lib\nokia5110/LCD5110_Graph.c ****   as a graphics display on an Arduino or a chipKit.
  11:..\..\common\lib\nokia5110/LCD5110_Graph.c **** 
  12:..\..\common\lib\nokia5110/LCD5110_Graph.c ****   This library is free software; you can redistribute it and/or
  13:..\..\common\lib\nokia5110/LCD5110_Graph.c ****   modify it under the terms of the CC BY-NC-SA 3.0 license.
  14:..\..\common\lib\nokia5110/LCD5110_Graph.c ****   Please see the included documents for further information.
  15:..\..\common\lib\nokia5110/LCD5110_Graph.c **** 
  16:..\..\common\lib\nokia5110/LCD5110_Graph.c ****   Commercial use of this library requires you to buy a license that
ARM GAS  C:\Users\Petro\AppData\Local\Temp\ccEiKVD5.s 			page 3


  17:..\..\common\lib\nokia5110/LCD5110_Graph.c ****   will allow commercial use. This includes using the library,
  18:..\..\common\lib\nokia5110/LCD5110_Graph.c ****   modified or not, as a tool to sell products.
  19:..\..\common\lib\nokia5110/LCD5110_Graph.c **** 
  20:..\..\common\lib\nokia5110/LCD5110_Graph.c ****   The license applies to all part of the library including the 
  21:..\..\common\lib\nokia5110/LCD5110_Graph.c ****   examples and tools supplied with the library.
  22:..\..\common\lib\nokia5110/LCD5110_Graph.c **** */
  23:..\..\common\lib\nokia5110/LCD5110_Graph.c **** 
  24:..\..\common\lib\nokia5110/LCD5110_Graph.c **** #include "LCD5110_Graph.h"
  25:..\..\common\lib\nokia5110/LCD5110_Graph.c **** #include "stdlib.h"
  26:..\..\common\lib\nokia5110/LCD5110_Graph.c **** 
  27:..\..\common\lib\nokia5110/LCD5110_Graph.c **** #if defined(__AVR__)
  28:..\..\common\lib\nokia5110/LCD5110_Graph.c **** 	#include <avr/pgmspace.h>
  29:..\..\common\lib\nokia5110/LCD5110_Graph.c **** 	#include "hardware/avr/HW_AVR.h"
  30:..\..\common\lib\nokia5110/LCD5110_Graph.c **** #elif defined(__PIC32MX__)
  31:..\..\common\lib\nokia5110/LCD5110_Graph.c **** 	#pragma message("Compiling for PIC32 Architecture...")
  32:..\..\common\lib\nokia5110/LCD5110_Graph.c **** 	#include "hardware/pic32/HW_PIC32.h"
  33:..\..\common\lib\nokia5110/LCD5110_Graph.c **** #elif defined(__arm__)
  34:..\..\common\lib\nokia5110/LCD5110_Graph.c **** 	//#pragma message("Compiling for ARM Architecture...")
  35:..\..\common\lib\nokia5110/LCD5110_Graph.c **** 	#include "..\..\common\lib\nokia5110/HW_ARM.h"
  36:..\..\common\lib\nokia5110/LCD5110_Graph.c **** #endif
  37:..\..\common\lib\nokia5110/LCD5110_Graph.c **** 
  38:..\..\common\lib\nokia5110/LCD5110_Graph.c **** //void LCD5110(int SCK, int MOSI, int DC, int RST, int CS)
  39:..\..\common\lib\nokia5110/LCD5110_Graph.c **** //{ 
  40:..\..\common\lib\nokia5110/LCD5110_Graph.c **** //	P_SCK	= portOutputRegister(digitalPinToPort(SCK));
  41:..\..\common\lib\nokia5110/LCD5110_Graph.c **** //	B_SCK	= digitalPinToBitMask(SCK);
  42:..\..\common\lib\nokia5110/LCD5110_Graph.c **** //	P_MOSI	= portOutputRegister(digitalPinToPort(MOSI));
  43:..\..\common\lib\nokia5110/LCD5110_Graph.c **** //	B_MOSI	= digitalPinToBitMask(MOSI);
  44:..\..\common\lib\nokia5110/LCD5110_Graph.c **** //	P_DC	= portOutputRegister(digitalPinToPort(DC));
  45:..\..\common\lib\nokia5110/LCD5110_Graph.c **** //	B_DC	= digitalPinToBitMask(DC);
  46:..\..\common\lib\nokia5110/LCD5110_Graph.c **** //	P_RST	= portOutputRegister(digitalPinToPort(RST));
  47:..\..\common\lib\nokia5110/LCD5110_Graph.c **** //	B_RST	= digitalPinToBitMask(RST);
  48:..\..\common\lib\nokia5110/LCD5110_Graph.c **** //	P_CS	= portOutputRegister(digitalPinToPort(CS));
  49:..\..\common\lib\nokia5110/LCD5110_Graph.c **** //	B_CS	= digitalPinToBitMask(CS);
  50:..\..\common\lib\nokia5110/LCD5110_Graph.c **** //	pinMode(SCK,OUTPUT);
  51:..\..\common\lib\nokia5110/LCD5110_Graph.c **** //	pinMode(MOSI,OUTPUT);
  52:..\..\common\lib\nokia5110/LCD5110_Graph.c **** //	pinMode(DC,OUTPUT);
  53:..\..\common\lib\nokia5110/LCD5110_Graph.c **** //	pinMode(RST,OUTPUT);
  54:..\..\common\lib\nokia5110/LCD5110_Graph.c **** //	pinMode(CS,OUTPUT);
  55:..\..\common\lib\nokia5110/LCD5110_Graph.c **** //	SCK_Pin=SCK;
  56:..\..\common\lib\nokia5110/LCD5110_Graph.c **** //	RST_Pin=RST;
  57:..\..\common\lib\nokia5110/LCD5110_Graph.c **** //}
  58:..\..\common\lib\nokia5110/LCD5110_Graph.c **** 
  59:..\..\common\lib\nokia5110/LCD5110_Graph.c **** void _LCD_Write(unsigned char data, unsigned char mode)
  60:..\..\common\lib\nokia5110/LCD5110_Graph.c **** {   
  88              		.loc 2 60 0
  89              		.cfi_startproc
  90              		@ args = 0, pretend = 0, frame = 0
  91              		@ frame_needed = 0, uses_anonymous_args = 0
  92              	.LVL8:
  93 0000 10B5     		push	{r4, lr}
  94              		.cfi_def_cfa_offset 8
  95              		.cfi_offset 4, -8
  96              		.cfi_offset 14, -4
  97              		.loc 2 60 0
  98 0002 0400     		movs	r4, r0
  61:..\..\common\lib\nokia5110/LCD5110_Graph.c ****     //cbi(P_CS, B_CS);
  62:..\..\common\lib\nokia5110/LCD5110_Graph.c **** 
ARM GAS  C:\Users\Petro\AppData\Local\Temp\ccEiKVD5.s 			page 4


  63:..\..\common\lib\nokia5110/LCD5110_Graph.c **** 	if (mode==LCD_COMMAND)
  64:..\..\common\lib\nokia5110/LCD5110_Graph.c **** 		//cbi(P_DC, B_DC);
  65:..\..\common\lib\nokia5110/LCD5110_Graph.c ****         DC_Write(0);
  99              		.loc 2 65 0
 100 0004 081E     		subs	r0, r1, #0
 101              	.LVL9:
  63:..\..\common\lib\nokia5110/LCD5110_Graph.c **** 		//cbi(P_DC, B_DC);
 102              		.loc 2 63 0
 103 0006 00D0     		beq	.L7
  66:..\..\common\lib\nokia5110/LCD5110_Graph.c **** 	else
  67:..\..\common\lib\nokia5110/LCD5110_Graph.c **** 		//sbi(P_DC, B_DC);
  68:..\..\common\lib\nokia5110/LCD5110_Graph.c ****         DC_Write(1);
 104              		.loc 2 68 0
 105 0008 0120     		movs	r0, #1
 106              	.L7:
 107 000a FFF7FEFF 		bl	DC_Write
 108              	.LVL10:
  69:..\..\common\lib\nokia5110/LCD5110_Graph.c **** 
  70:..\..\common\lib\nokia5110/LCD5110_Graph.c **** //    char c;
  71:..\..\common\lib\nokia5110/LCD5110_Graph.c **** //	for (c=0; c<8; c++)
  72:..\..\common\lib\nokia5110/LCD5110_Graph.c **** //	{
  73:..\..\common\lib\nokia5110/LCD5110_Graph.c **** //		if (data & 0x80)
  74:..\..\common\lib\nokia5110/LCD5110_Graph.c **** //			sbi(P_MOSI, B_MOSI);
  75:..\..\common\lib\nokia5110/LCD5110_Graph.c **** //		else
  76:..\..\common\lib\nokia5110/LCD5110_Graph.c **** //			cbi(P_MOSI, B_MOSI);
  77:..\..\common\lib\nokia5110/LCD5110_Graph.c **** //		data = data<<1;
  78:..\..\common\lib\nokia5110/LCD5110_Graph.c **** //		pulseClock;
  79:..\..\common\lib\nokia5110/LCD5110_Graph.c **** //	}
  80:..\..\common\lib\nokia5110/LCD5110_Graph.c ****     //SPIM_WriteTxData(data);
  81:..\..\common\lib\nokia5110/LCD5110_Graph.c ****     CE_Write(0);
 109              		.loc 2 81 0
 110 000e 0020     		movs	r0, #0
 111 0010 FFF7FEFF 		bl	CE_Write
 112              	.LVL11:
  82:..\..\common\lib\nokia5110/LCD5110_Graph.c ****     SwSPI_Master_SendByte(data);
 113              		.loc 2 82 0
 114 0014 2000     		movs	r0, r4
 115 0016 FFF7FEFF 		bl	SwSPI_Master_SendByte
 116              	.LVL12:
  83:..\..\common\lib\nokia5110/LCD5110_Graph.c ****     CE_Write(1);
 117              		.loc 2 83 0
 118 001a 0120     		movs	r0, #1
 119 001c FFF7FEFF 		bl	CE_Write
 120              	.LVL13:
  84:..\..\common\lib\nokia5110/LCD5110_Graph.c **** 
  85:..\..\common\lib\nokia5110/LCD5110_Graph.c **** 	//sbi(P_CS, B_CS);
  86:..\..\common\lib\nokia5110/LCD5110_Graph.c **** }
 121              		.loc 2 86 0
 122              		@ sp needed
 123 0020 10BD     		pop	{r4, pc}
 124              		.cfi_endproc
 125              	.LFE64:
 126              		.size	_LCD_Write, .-_LCD_Write
 127              		.section	.text.setContrast,"ax",%progbits
 128              		.align	1
 129              		.global	setContrast
 130              		.code	16
ARM GAS  C:\Users\Petro\AppData\Local\Temp\ccEiKVD5.s 			page 5


 131              		.thumb_func
 132              		.type	setContrast, %function
 133              	setContrast:
 134              	.LFB66:
  87:..\..\common\lib\nokia5110/LCD5110_Graph.c **** 
  88:..\..\common\lib\nokia5110/LCD5110_Graph.c **** void InitLCD(int contrast)
  89:..\..\common\lib\nokia5110/LCD5110_Graph.c **** {
  90:..\..\common\lib\nokia5110/LCD5110_Graph.c ****     //SPIM_Start();
  91:..\..\common\lib\nokia5110/LCD5110_Graph.c ****     
  92:..\..\common\lib\nokia5110/LCD5110_Graph.c **** 	if (contrast>0x7F)
  93:..\..\common\lib\nokia5110/LCD5110_Graph.c **** 		contrast=0x7F;
  94:..\..\common\lib\nokia5110/LCD5110_Graph.c **** 	if (contrast<0)
  95:..\..\common\lib\nokia5110/LCD5110_Graph.c **** 		contrast=0;
  96:..\..\common\lib\nokia5110/LCD5110_Graph.c **** 
  97:..\..\common\lib\nokia5110/LCD5110_Graph.c **** 	resetLCD;
  98:..\..\common\lib\nokia5110/LCD5110_Graph.c **** 
  99:..\..\common\lib\nokia5110/LCD5110_Graph.c **** 	_LCD_Write(PCD8544_FUNCTIONSET | PCD8544_EXTENDEDINSTRUCTION, LCD_COMMAND);
 100:..\..\common\lib\nokia5110/LCD5110_Graph.c **** 	_LCD_Write(PCD8544_SETVOP | contrast, LCD_COMMAND);
 101:..\..\common\lib\nokia5110/LCD5110_Graph.c **** 	_LCD_Write(PCD8544_SETTEMP | LCD_TEMP, LCD_COMMAND);
 102:..\..\common\lib\nokia5110/LCD5110_Graph.c **** 	_LCD_Write(PCD8544_SETBIAS | LCD_BIAS, LCD_COMMAND);
 103:..\..\common\lib\nokia5110/LCD5110_Graph.c **** 	_LCD_Write(PCD8544_FUNCTIONSET, LCD_COMMAND);
 104:..\..\common\lib\nokia5110/LCD5110_Graph.c **** 	_LCD_Write(PCD8544_SETYADDR, LCD_COMMAND);
 105:..\..\common\lib\nokia5110/LCD5110_Graph.c **** 	_LCD_Write(PCD8544_SETXADDR, LCD_COMMAND);
 106:..\..\common\lib\nokia5110/LCD5110_Graph.c **** 	_LCD_Write(PCD8544_DISPLAYCONTROL | PCD8544_DISPLAYNORMAL, LCD_COMMAND);
 107:..\..\common\lib\nokia5110/LCD5110_Graph.c **** 
 108:..\..\common\lib\nokia5110/LCD5110_Graph.c **** 	clrScr();
 109:..\..\common\lib\nokia5110/LCD5110_Graph.c **** 	update();
 110:..\..\common\lib\nokia5110/LCD5110_Graph.c **** 	cfont.font=0;
 111:..\..\common\lib\nokia5110/LCD5110_Graph.c **** 	_sleep=false;
 112:..\..\common\lib\nokia5110/LCD5110_Graph.c **** 	_contrast=contrast;
 113:..\..\common\lib\nokia5110/LCD5110_Graph.c **** }
 114:..\..\common\lib\nokia5110/LCD5110_Graph.c **** 
 115:..\..\common\lib\nokia5110/LCD5110_Graph.c **** void setContrast(int contrast)
 116:..\..\common\lib\nokia5110/LCD5110_Graph.c **** {
 135              		.loc 2 116 0
 136              		.cfi_startproc
 137              		@ args = 0, pretend = 0, frame = 0
 138              		@ frame_needed = 0, uses_anonymous_args = 0
 139              	.LVL14:
 140 0000 10B5     		push	{r4, lr}
 141              		.cfi_def_cfa_offset 8
 142              		.cfi_offset 4, -8
 143              		.cfi_offset 14, -4
 144              		.loc 2 116 0
 145 0002 0400     		movs	r4, r0
 117:..\..\common\lib\nokia5110/LCD5110_Graph.c **** 	if (contrast>0x7F)
 146              		.loc 2 117 0
 147 0004 7F28     		cmp	r0, #127
 148 0006 03DC     		bgt	.L12
 118:..\..\common\lib\nokia5110/LCD5110_Graph.c **** 		contrast=0x7F;
 119:..\..\common\lib\nokia5110/LCD5110_Graph.c **** 	if (contrast<0)
 120:..\..\common\lib\nokia5110/LCD5110_Graph.c **** 		contrast=0;
 149              		.loc 2 120 0
 150 0008 C343     		mvns	r3, r0
 151 000a DB17     		asrs	r3, r3, #31
 152 000c 1C40     		ands	r4, r3
 153 000e 00E0     		b	.L11
ARM GAS  C:\Users\Petro\AppData\Local\Temp\ccEiKVD5.s 			page 6


 154              	.L12:
 118:..\..\common\lib\nokia5110/LCD5110_Graph.c **** 		contrast=0x7F;
 155              		.loc 2 118 0
 156 0010 7F24     		movs	r4, #127
 157              	.LVL15:
 158              	.L11:
 121:..\..\common\lib\nokia5110/LCD5110_Graph.c **** 	_LCD_Write(PCD8544_FUNCTIONSET | PCD8544_EXTENDEDINSTRUCTION, LCD_COMMAND);
 159              		.loc 2 121 0
 160 0012 0021     		movs	r1, #0
 161 0014 2120     		movs	r0, #33
 162 0016 FFF7FEFF 		bl	_LCD_Write
 163              	.LVL16:
 122:..\..\common\lib\nokia5110/LCD5110_Graph.c **** 	_LCD_Write(PCD8544_SETVOP | contrast, LCD_COMMAND);
 164              		.loc 2 122 0
 165 001a 8020     		movs	r0, #128
 166 001c 4042     		rsbs	r0, r0, #0
 167 001e 2043     		orrs	r0, r4
 168 0020 C0B2     		uxtb	r0, r0
 169 0022 0021     		movs	r1, #0
 170 0024 FFF7FEFF 		bl	_LCD_Write
 171              	.LVL17:
 123:..\..\common\lib\nokia5110/LCD5110_Graph.c **** 	_LCD_Write(PCD8544_FUNCTIONSET, LCD_COMMAND);
 172              		.loc 2 123 0
 173 0028 0021     		movs	r1, #0
 174 002a 2020     		movs	r0, #32
 175 002c FFF7FEFF 		bl	_LCD_Write
 176              	.LVL18:
 124:..\..\common\lib\nokia5110/LCD5110_Graph.c **** 	_contrast=contrast;
 177              		.loc 2 124 0
 178 0030 014B     		ldr	r3, .L14
 125:..\..\common\lib\nokia5110/LCD5110_Graph.c **** }
 179              		.loc 2 125 0
 180              		@ sp needed
 124:..\..\common\lib\nokia5110/LCD5110_Graph.c **** 	_contrast=contrast;
 181              		.loc 2 124 0
 182 0032 1C60     		str	r4, [r3]
 183              	.LVL19:
 184              		.loc 2 125 0
 185 0034 10BD     		pop	{r4, pc}
 186              	.L15:
 187 0036 C046     		.align	2
 188              	.L14:
 189 0038 00000000 		.word	_contrast
 190              		.cfi_endproc
 191              	.LFE66:
 192              		.size	setContrast, .-setContrast
 193              		.section	.text.enableSleep,"ax",%progbits
 194              		.align	1
 195              		.global	enableSleep
 196              		.code	16
 197              		.thumb_func
 198              		.type	enableSleep, %function
 199              	enableSleep:
 200              	.LFB67:
 126:..\..\common\lib\nokia5110/LCD5110_Graph.c **** 
 127:..\..\common\lib\nokia5110/LCD5110_Graph.c **** void enableSleep()
 128:..\..\common\lib\nokia5110/LCD5110_Graph.c **** {
ARM GAS  C:\Users\Petro\AppData\Local\Temp\ccEiKVD5.s 			page 7


 201              		.loc 2 128 0
 202              		.cfi_startproc
 203              		@ args = 0, pretend = 0, frame = 0
 204              		@ frame_needed = 0, uses_anonymous_args = 0
 129:..\..\common\lib\nokia5110/LCD5110_Graph.c **** 	_sleep = true;
 205              		.loc 2 129 0
 206 0000 0122     		movs	r2, #1
 207 0002 0C4B     		ldr	r3, .L19
 128:..\..\common\lib\nokia5110/LCD5110_Graph.c **** 	_sleep = true;
 208              		.loc 2 128 0
 209 0004 10B5     		push	{r4, lr}
 210              		.cfi_def_cfa_offset 8
 211              		.cfi_offset 4, -8
 212              		.cfi_offset 14, -4
 130:..\..\common\lib\nokia5110/LCD5110_Graph.c **** 	_LCD_Write(PCD8544_SETYADDR, LCD_COMMAND);
 213              		.loc 2 130 0
 214 0006 0021     		movs	r1, #0
 215 0008 4020     		movs	r0, #64
 129:..\..\common\lib\nokia5110/LCD5110_Graph.c **** 	_sleep = true;
 216              		.loc 2 129 0
 217 000a 1A70     		strb	r2, [r3]
 131:..\..\common\lib\nokia5110/LCD5110_Graph.c **** 	_LCD_Write(PCD8544_SETXADDR, LCD_COMMAND);
 218              		.loc 2 131 0
 219 000c FC24     		movs	r4, #252
 130:..\..\common\lib\nokia5110/LCD5110_Graph.c **** 	_LCD_Write(PCD8544_SETYADDR, LCD_COMMAND);
 220              		.loc 2 130 0
 221 000e FFF7FEFF 		bl	_LCD_Write
 222              	.LVL20:
 223              		.loc 2 131 0
 224 0012 0021     		movs	r1, #0
 225 0014 8020     		movs	r0, #128
 226 0016 FFF7FEFF 		bl	_LCD_Write
 227              	.LVL21:
 228 001a 6400     		lsls	r4, r4, #1
 229              	.LVL22:
 230              	.L17:
 132:..\..\common\lib\nokia5110/LCD5110_Graph.c ****     int b;
 133:..\..\common\lib\nokia5110/LCD5110_Graph.c **** 	for (b=0; b<504; b++)
 134:..\..\common\lib\nokia5110/LCD5110_Graph.c **** 		_LCD_Write(0, LCD_DATA);
 231              		.loc 2 134 0 discriminator 3
 232 001c 0121     		movs	r1, #1
 233 001e 0020     		movs	r0, #0
 234 0020 013C     		subs	r4, r4, #1
 235              	.LVL23:
 236 0022 FFF7FEFF 		bl	_LCD_Write
 237              	.LVL24:
 133:..\..\common\lib\nokia5110/LCD5110_Graph.c **** 		_LCD_Write(0, LCD_DATA);
 238              		.loc 2 133 0 discriminator 3
 239 0026 002C     		cmp	r4, #0
 240 0028 F8D1     		bne	.L17
 135:..\..\common\lib\nokia5110/LCD5110_Graph.c **** 	_LCD_Write(PCD8544_FUNCTIONSET | PCD8544_POWERDOWN, LCD_COMMAND);
 241              		.loc 2 135 0
 242 002a 2100     		movs	r1, r4
 243 002c 2420     		movs	r0, #36
 244 002e FFF7FEFF 		bl	_LCD_Write
 245              	.LVL25:
 136:..\..\common\lib\nokia5110/LCD5110_Graph.c **** }
ARM GAS  C:\Users\Petro\AppData\Local\Temp\ccEiKVD5.s 			page 8


 246              		.loc 2 136 0
 247              		@ sp needed
 248 0032 10BD     		pop	{r4, pc}
 249              	.L20:
 250              		.align	2
 251              	.L19:
 252 0034 00000000 		.word	_sleep
 253              		.cfi_endproc
 254              	.LFE67:
 255              		.size	enableSleep, .-enableSleep
 256              		.section	.text.update,"ax",%progbits
 257              		.align	1
 258              		.global	update
 259              		.code	16
 260              		.thumb_func
 261              		.type	update, %function
 262              	update:
 263              	.LFB69:
 137:..\..\common\lib\nokia5110/LCD5110_Graph.c **** 
 138:..\..\common\lib\nokia5110/LCD5110_Graph.c **** void disableSleep()
 139:..\..\common\lib\nokia5110/LCD5110_Graph.c **** {
 140:..\..\common\lib\nokia5110/LCD5110_Graph.c **** 	_sleep = false;
 141:..\..\common\lib\nokia5110/LCD5110_Graph.c **** 	_LCD_Write(PCD8544_FUNCTIONSET | PCD8544_EXTENDEDINSTRUCTION, LCD_COMMAND);
 142:..\..\common\lib\nokia5110/LCD5110_Graph.c **** 	_LCD_Write(PCD8544_SETVOP | _contrast, LCD_COMMAND);
 143:..\..\common\lib\nokia5110/LCD5110_Graph.c **** 	_LCD_Write(PCD8544_SETTEMP | LCD_TEMP, LCD_COMMAND);
 144:..\..\common\lib\nokia5110/LCD5110_Graph.c **** 	_LCD_Write(PCD8544_SETBIAS | LCD_BIAS, LCD_COMMAND);
 145:..\..\common\lib\nokia5110/LCD5110_Graph.c **** 	_LCD_Write(PCD8544_FUNCTIONSET, LCD_COMMAND);
 146:..\..\common\lib\nokia5110/LCD5110_Graph.c **** 	_LCD_Write(PCD8544_DISPLAYCONTROL | PCD8544_DISPLAYNORMAL, LCD_COMMAND);
 147:..\..\common\lib\nokia5110/LCD5110_Graph.c **** 	update();
 148:..\..\common\lib\nokia5110/LCD5110_Graph.c **** }
 149:..\..\common\lib\nokia5110/LCD5110_Graph.c **** 
 150:..\..\common\lib\nokia5110/LCD5110_Graph.c **** void update()
 151:..\..\common\lib\nokia5110/LCD5110_Graph.c **** {
 264              		.loc 2 151 0
 265              		.cfi_startproc
 266              		@ args = 0, pretend = 0, frame = 0
 267              		@ frame_needed = 0, uses_anonymous_args = 0
 152:..\..\common\lib\nokia5110/LCD5110_Graph.c **** 	if (_sleep==false)
 268              		.loc 2 152 0
 269 0000 0B4B     		ldr	r3, .L26
 151:..\..\common\lib\nokia5110/LCD5110_Graph.c **** 	if (_sleep==false)
 270              		.loc 2 151 0
 271 0002 70B5     		push	{r4, r5, r6, lr}
 272              		.cfi_def_cfa_offset 16
 273              		.cfi_offset 4, -16
 274              		.cfi_offset 5, -12
 275              		.cfi_offset 6, -8
 276              		.cfi_offset 14, -4
 277              		.loc 2 152 0
 278 0004 1C78     		ldrb	r4, [r3]
 279 0006 002C     		cmp	r4, #0
 280 0008 11D1     		bne	.L21
 281              	.LBB11:
 282              	.LBB12:
 153:..\..\common\lib\nokia5110/LCD5110_Graph.c **** 	{
 154:..\..\common\lib\nokia5110/LCD5110_Graph.c **** 		_LCD_Write(PCD8544_SETYADDR, LCD_COMMAND);
 283              		.loc 2 154 0
ARM GAS  C:\Users\Petro\AppData\Local\Temp\ccEiKVD5.s 			page 9


 284 000a 2100     		movs	r1, r4
 285 000c 4020     		movs	r0, #64
 286 000e FFF7FEFF 		bl	_LCD_Write
 287              	.LVL26:
 155:..\..\common\lib\nokia5110/LCD5110_Graph.c **** 		_LCD_Write(PCD8544_SETXADDR, LCD_COMMAND);
 156:..\..\common\lib\nokia5110/LCD5110_Graph.c ****         int b;
 157:..\..\common\lib\nokia5110/LCD5110_Graph.c **** 		for (b=0; b<504; b++)
 288              		.loc 2 157 0
 289 0012 FC25     		movs	r5, #252
 155:..\..\common\lib\nokia5110/LCD5110_Graph.c **** 		_LCD_Write(PCD8544_SETXADDR, LCD_COMMAND);
 290              		.loc 2 155 0
 291 0014 2100     		movs	r1, r4
 292 0016 8020     		movs	r0, #128
 293 0018 FFF7FEFF 		bl	_LCD_Write
 294              	.LVL27:
 295              		.loc 2 157 0
 296 001c 6D00     		lsls	r5, r5, #1
 297              	.LVL28:
 298              	.L23:
 158:..\..\common\lib\nokia5110/LCD5110_Graph.c **** 			_LCD_Write(scrbuf[b], LCD_DATA);
 299              		.loc 2 158 0
 300 001e 054B     		ldr	r3, .L26+4
 301 0020 0121     		movs	r1, #1
 302 0022 185D     		ldrb	r0, [r3, r4]
 157:..\..\common\lib\nokia5110/LCD5110_Graph.c **** 			_LCD_Write(scrbuf[b], LCD_DATA);
 303              		.loc 2 157 0
 304 0024 0134     		adds	r4, r4, #1
 305              	.LVL29:
 306              		.loc 2 158 0
 307 0026 FFF7FEFF 		bl	_LCD_Write
 308              	.LVL30:
 157:..\..\common\lib\nokia5110/LCD5110_Graph.c **** 			_LCD_Write(scrbuf[b], LCD_DATA);
 309              		.loc 2 157 0
 310 002a AC42     		cmp	r4, r5
 311 002c F7D1     		bne	.L23
 312              	.LVL31:
 313              	.L21:
 314              	.LBE12:
 315              	.LBE11:
 159:..\..\common\lib\nokia5110/LCD5110_Graph.c **** 	}
 160:..\..\common\lib\nokia5110/LCD5110_Graph.c **** }
 316              		.loc 2 160 0
 317              		@ sp needed
 318 002e 70BD     		pop	{r4, r5, r6, pc}
 319              	.L27:
 320              		.align	2
 321              	.L26:
 322 0030 00000000 		.word	_sleep
 323 0034 00000000 		.word	scrbuf
 324              		.cfi_endproc
 325              	.LFE69:
 326              		.size	update, .-update
 327              		.section	.text.disableSleep,"ax",%progbits
 328              		.align	1
 329              		.global	disableSleep
 330              		.code	16
 331              		.thumb_func
ARM GAS  C:\Users\Petro\AppData\Local\Temp\ccEiKVD5.s 			page 10


 332              		.type	disableSleep, %function
 333              	disableSleep:
 334              	.LFB68:
 139:..\..\common\lib\nokia5110/LCD5110_Graph.c **** 	_sleep = false;
 335              		.loc 2 139 0
 336              		.cfi_startproc
 337              		@ args = 0, pretend = 0, frame = 0
 338              		@ frame_needed = 0, uses_anonymous_args = 0
 339 0000 10B5     		push	{r4, lr}
 340              		.cfi_def_cfa_offset 8
 341              		.cfi_offset 4, -8
 342              		.cfi_offset 14, -4
 140:..\..\common\lib\nokia5110/LCD5110_Graph.c **** 	_LCD_Write(PCD8544_FUNCTIONSET | PCD8544_EXTENDEDINSTRUCTION, LCD_COMMAND);
 343              		.loc 2 140 0
 344 0002 0024     		movs	r4, #0
 345 0004 104B     		ldr	r3, .L29
 141:..\..\common\lib\nokia5110/LCD5110_Graph.c **** 	_LCD_Write(PCD8544_SETVOP | _contrast, LCD_COMMAND);
 346              		.loc 2 141 0
 347 0006 2100     		movs	r1, r4
 348 0008 2120     		movs	r0, #33
 140:..\..\common\lib\nokia5110/LCD5110_Graph.c **** 	_LCD_Write(PCD8544_FUNCTIONSET | PCD8544_EXTENDEDINSTRUCTION, LCD_COMMAND);
 349              		.loc 2 140 0
 350 000a 1C70     		strb	r4, [r3]
 141:..\..\common\lib\nokia5110/LCD5110_Graph.c **** 	_LCD_Write(PCD8544_SETVOP | _contrast, LCD_COMMAND);
 351              		.loc 2 141 0
 352 000c FFF7FEFF 		bl	_LCD_Write
 353              	.LVL32:
 142:..\..\common\lib\nokia5110/LCD5110_Graph.c **** 	_LCD_Write(PCD8544_SETTEMP | LCD_TEMP, LCD_COMMAND);
 354              		.loc 2 142 0
 355 0010 8020     		movs	r0, #128
 356 0012 0E4B     		ldr	r3, .L29+4
 357 0014 4042     		rsbs	r0, r0, #0
 358 0016 1B68     		ldr	r3, [r3]
 359 0018 2100     		movs	r1, r4
 360 001a 1843     		orrs	r0, r3
 361 001c C0B2     		uxtb	r0, r0
 362 001e FFF7FEFF 		bl	_LCD_Write
 363              	.LVL33:
 143:..\..\common\lib\nokia5110/LCD5110_Graph.c **** 	_LCD_Write(PCD8544_SETBIAS | LCD_BIAS, LCD_COMMAND);
 364              		.loc 2 143 0
 365 0022 2100     		movs	r1, r4
 366 0024 0620     		movs	r0, #6
 367 0026 FFF7FEFF 		bl	_LCD_Write
 368              	.LVL34:
 144:..\..\common\lib\nokia5110/LCD5110_Graph.c **** 	_LCD_Write(PCD8544_FUNCTIONSET, LCD_COMMAND);
 369              		.loc 2 144 0
 370 002a 2100     		movs	r1, r4
 371 002c 1320     		movs	r0, #19
 372 002e FFF7FEFF 		bl	_LCD_Write
 373              	.LVL35:
 145:..\..\common\lib\nokia5110/LCD5110_Graph.c **** 	_LCD_Write(PCD8544_DISPLAYCONTROL | PCD8544_DISPLAYNORMAL, LCD_COMMAND);
 374              		.loc 2 145 0
 375 0032 2100     		movs	r1, r4
 376 0034 2020     		movs	r0, #32
 377 0036 FFF7FEFF 		bl	_LCD_Write
 378              	.LVL36:
 146:..\..\common\lib\nokia5110/LCD5110_Graph.c **** 	update();
ARM GAS  C:\Users\Petro\AppData\Local\Temp\ccEiKVD5.s 			page 11


 379              		.loc 2 146 0
 380 003a 2100     		movs	r1, r4
 381 003c 0C20     		movs	r0, #12
 382 003e FFF7FEFF 		bl	_LCD_Write
 383              	.LVL37:
 148:..\..\common\lib\nokia5110/LCD5110_Graph.c **** 
 384              		.loc 2 148 0
 385              		@ sp needed
 147:..\..\common\lib\nokia5110/LCD5110_Graph.c **** }
 386              		.loc 2 147 0
 387 0042 FFF7FEFF 		bl	update
 388              	.LVL38:
 148:..\..\common\lib\nokia5110/LCD5110_Graph.c **** 
 389              		.loc 2 148 0
 390 0046 10BD     		pop	{r4, pc}
 391              	.L30:
 392              		.align	2
 393              	.L29:
 394 0048 00000000 		.word	_sleep
 395 004c 00000000 		.word	_contrast
 396              		.cfi_endproc
 397              	.LFE68:
 398              		.size	disableSleep, .-disableSleep
 399              		.section	.text.clrScr,"ax",%progbits
 400              		.align	1
 401              		.global	clrScr
 402              		.code	16
 403              		.thumb_func
 404              		.type	clrScr, %function
 405              	clrScr:
 406              	.LFB70:
 161:..\..\common\lib\nokia5110/LCD5110_Graph.c **** 
 162:..\..\common\lib\nokia5110/LCD5110_Graph.c **** void clrScr()
 163:..\..\common\lib\nokia5110/LCD5110_Graph.c **** {
 407              		.loc 2 163 0
 408              		.cfi_startproc
 409              		@ args = 0, pretend = 0, frame = 0
 410              		@ frame_needed = 0, uses_anonymous_args = 0
 411              	.LVL39:
 164:..\..\common\lib\nokia5110/LCD5110_Graph.c ****     int c;
 165:..\..\common\lib\nokia5110/LCD5110_Graph.c **** 	for (c=0; c<504; c++)
 412              		.loc 2 165 0
 413 0000 0023     		movs	r3, #0
 414 0002 FC22     		movs	r2, #252
 166:..\..\common\lib\nokia5110/LCD5110_Graph.c **** 		scrbuf[c]=0;
 415              		.loc 2 166 0
 416 0004 1800     		movs	r0, r3
 163:..\..\common\lib\nokia5110/LCD5110_Graph.c ****     int c;
 417              		.loc 2 163 0
 418 0006 10B5     		push	{r4, lr}
 419              		.cfi_def_cfa_offset 8
 420              		.cfi_offset 4, -8
 421              		.cfi_offset 14, -4
 422              		.loc 2 166 0
 423 0008 034C     		ldr	r4, .L34
 165:..\..\common\lib\nokia5110/LCD5110_Graph.c **** 		scrbuf[c]=0;
 424              		.loc 2 165 0
ARM GAS  C:\Users\Petro\AppData\Local\Temp\ccEiKVD5.s 			page 12


 425 000a 5200     		lsls	r2, r2, #1
 426              	.LVL40:
 427              	.L32:
 428              		.loc 2 166 0 discriminator 3
 429 000c 1919     		adds	r1, r3, r4
 165:..\..\common\lib\nokia5110/LCD5110_Graph.c **** 		scrbuf[c]=0;
 430              		.loc 2 165 0 discriminator 3
 431 000e 0133     		adds	r3, r3, #1
 432              	.LVL41:
 433              		.loc 2 166 0 discriminator 3
 434 0010 0870     		strb	r0, [r1]
 165:..\..\common\lib\nokia5110/LCD5110_Graph.c **** 		scrbuf[c]=0;
 435              		.loc 2 165 0 discriminator 3
 436 0012 9342     		cmp	r3, r2
 437 0014 FAD1     		bne	.L32
 167:..\..\common\lib\nokia5110/LCD5110_Graph.c **** }
 438              		.loc 2 167 0
 439              		@ sp needed
 440 0016 10BD     		pop	{r4, pc}
 441              	.L35:
 442              		.align	2
 443              	.L34:
 444 0018 00000000 		.word	scrbuf
 445              		.cfi_endproc
 446              	.LFE70:
 447              		.size	clrScr, .-clrScr
 448              		.section	.text.InitLCD,"ax",%progbits
 449              		.align	1
 450              		.global	InitLCD
 451              		.code	16
 452              		.thumb_func
 453              		.type	InitLCD, %function
 454              	InitLCD:
 455              	.LFB65:
  89:..\..\common\lib\nokia5110/LCD5110_Graph.c ****     //SPIM_Start();
 456              		.loc 2 89 0
 457              		.cfi_startproc
 458              		@ args = 0, pretend = 0, frame = 0
 459              		@ frame_needed = 0, uses_anonymous_args = 0
 460              	.LVL42:
 461 0000 10B5     		push	{r4, lr}
 462              		.cfi_def_cfa_offset 8
 463              		.cfi_offset 4, -8
 464              		.cfi_offset 14, -4
  89:..\..\common\lib\nokia5110/LCD5110_Graph.c ****     //SPIM_Start();
 465              		.loc 2 89 0
 466 0002 0400     		movs	r4, r0
  92:..\..\common\lib\nokia5110/LCD5110_Graph.c **** 		contrast=0x7F;
 467              		.loc 2 92 0
 468 0004 7F28     		cmp	r0, #127
 469 0006 03DC     		bgt	.L39
  95:..\..\common\lib\nokia5110/LCD5110_Graph.c **** 
 470              		.loc 2 95 0
 471 0008 C343     		mvns	r3, r0
 472 000a DB17     		asrs	r3, r3, #31
 473 000c 1C40     		ands	r4, r3
 474 000e 00E0     		b	.L38
ARM GAS  C:\Users\Petro\AppData\Local\Temp\ccEiKVD5.s 			page 13


 475              	.L39:
  93:..\..\common\lib\nokia5110/LCD5110_Graph.c **** 	if (contrast<0)
 476              		.loc 2 93 0
 477 0010 7F24     		movs	r4, #127
 478              	.LVL43:
 479              	.L38:
  97:..\..\common\lib\nokia5110/LCD5110_Graph.c **** 
 480              		.loc 2 97 0
 481 0012 0020     		movs	r0, #0
 482 0014 FFF7FEFF 		bl	RST_Write
 483              	.LVL44:
 484 0018 0120     		movs	r0, #1
 485 001a FFF7FEFF 		bl	RST_Write
 486              	.LVL45:
  99:..\..\common\lib\nokia5110/LCD5110_Graph.c **** 	_LCD_Write(PCD8544_SETVOP | contrast, LCD_COMMAND);
 487              		.loc 2 99 0
 488 001e 0021     		movs	r1, #0
 489 0020 2120     		movs	r0, #33
 490 0022 FFF7FEFF 		bl	_LCD_Write
 491              	.LVL46:
 100:..\..\common\lib\nokia5110/LCD5110_Graph.c **** 	_LCD_Write(PCD8544_SETTEMP | LCD_TEMP, LCD_COMMAND);
 492              		.loc 2 100 0
 493 0026 8020     		movs	r0, #128
 494 0028 4042     		rsbs	r0, r0, #0
 495 002a 2043     		orrs	r0, r4
 496 002c C0B2     		uxtb	r0, r0
 497 002e 0021     		movs	r1, #0
 498 0030 FFF7FEFF 		bl	_LCD_Write
 499              	.LVL47:
 101:..\..\common\lib\nokia5110/LCD5110_Graph.c **** 	_LCD_Write(PCD8544_SETBIAS | LCD_BIAS, LCD_COMMAND);
 500              		.loc 2 101 0
 501 0034 0021     		movs	r1, #0
 502 0036 0620     		movs	r0, #6
 503 0038 FFF7FEFF 		bl	_LCD_Write
 504              	.LVL48:
 102:..\..\common\lib\nokia5110/LCD5110_Graph.c **** 	_LCD_Write(PCD8544_FUNCTIONSET, LCD_COMMAND);
 505              		.loc 2 102 0
 506 003c 0021     		movs	r1, #0
 507 003e 1320     		movs	r0, #19
 508 0040 FFF7FEFF 		bl	_LCD_Write
 509              	.LVL49:
 103:..\..\common\lib\nokia5110/LCD5110_Graph.c **** 	_LCD_Write(PCD8544_SETYADDR, LCD_COMMAND);
 510              		.loc 2 103 0
 511 0044 0021     		movs	r1, #0
 512 0046 2020     		movs	r0, #32
 513 0048 FFF7FEFF 		bl	_LCD_Write
 514              	.LVL50:
 104:..\..\common\lib\nokia5110/LCD5110_Graph.c **** 	_LCD_Write(PCD8544_SETXADDR, LCD_COMMAND);
 515              		.loc 2 104 0
 516 004c 0021     		movs	r1, #0
 517 004e 4020     		movs	r0, #64
 518 0050 FFF7FEFF 		bl	_LCD_Write
 519              	.LVL51:
 105:..\..\common\lib\nokia5110/LCD5110_Graph.c **** 	_LCD_Write(PCD8544_DISPLAYCONTROL | PCD8544_DISPLAYNORMAL, LCD_COMMAND);
 520              		.loc 2 105 0
 521 0054 0021     		movs	r1, #0
 522 0056 8020     		movs	r0, #128
ARM GAS  C:\Users\Petro\AppData\Local\Temp\ccEiKVD5.s 			page 14


 523 0058 FFF7FEFF 		bl	_LCD_Write
 524              	.LVL52:
 106:..\..\common\lib\nokia5110/LCD5110_Graph.c **** 
 525              		.loc 2 106 0
 526 005c 0021     		movs	r1, #0
 527 005e 0C20     		movs	r0, #12
 528 0060 FFF7FEFF 		bl	_LCD_Write
 529              	.LVL53:
 108:..\..\common\lib\nokia5110/LCD5110_Graph.c **** 	update();
 530              		.loc 2 108 0
 531 0064 FFF7FEFF 		bl	clrScr
 532              	.LVL54:
 109:..\..\common\lib\nokia5110/LCD5110_Graph.c **** 	cfont.font=0;
 533              		.loc 2 109 0
 534 0068 FFF7FEFF 		bl	update
 535              	.LVL55:
 110:..\..\common\lib\nokia5110/LCD5110_Graph.c **** 	_sleep=false;
 536              		.loc 2 110 0
 537 006c 0023     		movs	r3, #0
 538 006e 034A     		ldr	r2, .L41
 113:..\..\common\lib\nokia5110/LCD5110_Graph.c **** 
 539              		.loc 2 113 0
 540              		@ sp needed
 110:..\..\common\lib\nokia5110/LCD5110_Graph.c **** 	_sleep=false;
 541              		.loc 2 110 0
 542 0070 1360     		str	r3, [r2]
 111:..\..\common\lib\nokia5110/LCD5110_Graph.c **** 	_contrast=contrast;
 543              		.loc 2 111 0
 544 0072 034A     		ldr	r2, .L41+4
 545 0074 1370     		strb	r3, [r2]
 112:..\..\common\lib\nokia5110/LCD5110_Graph.c **** }
 546              		.loc 2 112 0
 547 0076 034B     		ldr	r3, .L41+8
 548 0078 1C60     		str	r4, [r3]
 549              	.LVL56:
 113:..\..\common\lib\nokia5110/LCD5110_Graph.c **** 
 550              		.loc 2 113 0
 551 007a 10BD     		pop	{r4, pc}
 552              	.L42:
 553              		.align	2
 554              	.L41:
 555 007c 00000000 		.word	cfont
 556 0080 00000000 		.word	_sleep
 557 0084 00000000 		.word	_contrast
 558              		.cfi_endproc
 559              	.LFE65:
 560              		.size	InitLCD, .-InitLCD
 561              		.section	.text.fillScr,"ax",%progbits
 562              		.align	1
 563              		.global	fillScr
 564              		.code	16
 565              		.thumb_func
 566              		.type	fillScr, %function
 567              	fillScr:
 568              	.LFB71:
 168:..\..\common\lib\nokia5110/LCD5110_Graph.c **** 
 169:..\..\common\lib\nokia5110/LCD5110_Graph.c **** void fillScr()
ARM GAS  C:\Users\Petro\AppData\Local\Temp\ccEiKVD5.s 			page 15


 170:..\..\common\lib\nokia5110/LCD5110_Graph.c **** {
 569              		.loc 2 170 0
 570              		.cfi_startproc
 571              		@ args = 0, pretend = 0, frame = 0
 572              		@ frame_needed = 0, uses_anonymous_args = 0
 573              		@ link register save eliminated.
 574              	.LVL57:
 171:..\..\common\lib\nokia5110/LCD5110_Graph.c ****     int c;
 172:..\..\common\lib\nokia5110/LCD5110_Graph.c **** 	for (c=0; c<504; c++)
 575              		.loc 2 172 0
 576 0000 FC22     		movs	r2, #252
 577 0002 0023     		movs	r3, #0
 173:..\..\common\lib\nokia5110/LCD5110_Graph.c **** 		scrbuf[c]=255;
 578              		.loc 2 173 0
 579 0004 FF20     		movs	r0, #255
 580 0006 0349     		ldr	r1, .L46
 172:..\..\common\lib\nokia5110/LCD5110_Graph.c **** 		scrbuf[c]=255;
 581              		.loc 2 172 0
 582 0008 5200     		lsls	r2, r2, #1
 583              	.LVL58:
 584              	.L44:
 585              		.loc 2 173 0 discriminator 3
 586 000a C854     		strb	r0, [r1, r3]
 172:..\..\common\lib\nokia5110/LCD5110_Graph.c **** 		scrbuf[c]=255;
 587              		.loc 2 172 0 discriminator 3
 588 000c 0133     		adds	r3, r3, #1
 589              	.LVL59:
 590 000e 9342     		cmp	r3, r2
 591 0010 FBD1     		bne	.L44
 174:..\..\common\lib\nokia5110/LCD5110_Graph.c **** }
 592              		.loc 2 174 0
 593              		@ sp needed
 594 0012 7047     		bx	lr
 595              	.L47:
 596              		.align	2
 597              	.L46:
 598 0014 00000000 		.word	scrbuf
 599              		.cfi_endproc
 600              	.LFE71:
 601              		.size	fillScr, .-fillScr
 602              		.section	.text.invert,"ax",%progbits
 603              		.align	1
 604              		.global	invert
 605              		.code	16
 606              		.thumb_func
 607              		.type	invert, %function
 608              	invert:
 609              	.LFB72:
 175:..\..\common\lib\nokia5110/LCD5110_Graph.c **** 
 176:..\..\common\lib\nokia5110/LCD5110_Graph.c **** void invert(bool mode)
 177:..\..\common\lib\nokia5110/LCD5110_Graph.c **** {
 610              		.loc 2 177 0
 611              		.cfi_startproc
 612              		@ args = 0, pretend = 0, frame = 0
 613              		@ frame_needed = 0, uses_anonymous_args = 0
 614              	.LVL60:
 615 0000 0100     		movs	r1, r0
ARM GAS  C:\Users\Petro\AppData\Local\Temp\ccEiKVD5.s 			page 16


 616 0002 10B5     		push	{r4, lr}
 617              		.cfi_def_cfa_offset 8
 618              		.cfi_offset 4, -8
 619              		.cfi_offset 14, -4
 178:..\..\common\lib\nokia5110/LCD5110_Graph.c **** 	if (mode==true)
 179:..\..\common\lib\nokia5110/LCD5110_Graph.c **** 		_LCD_Write(PCD8544_DISPLAYCONTROL | PCD8544_DISPLAYINVERTED, LCD_COMMAND);
 180:..\..\common\lib\nokia5110/LCD5110_Graph.c **** 	else
 181:..\..\common\lib\nokia5110/LCD5110_Graph.c **** 		_LCD_Write(PCD8544_DISPLAYCONTROL | PCD8544_DISPLAYNORMAL, LCD_COMMAND);
 620              		.loc 2 181 0
 621 0004 0C20     		movs	r0, #12
 622              	.LVL61:
 178:..\..\common\lib\nokia5110/LCD5110_Graph.c **** 	if (mode==true)
 623              		.loc 2 178 0
 624 0006 0029     		cmp	r1, #0
 625 0008 01D0     		beq	.L51
 179:..\..\common\lib\nokia5110/LCD5110_Graph.c **** 	else
 626              		.loc 2 179 0
 627 000a 0021     		movs	r1, #0
 628 000c 0D20     		movs	r0, #13
 629              	.L51:
 630              		.loc 2 181 0
 631 000e FFF7FEFF 		bl	_LCD_Write
 632              	.LVL62:
 182:..\..\common\lib\nokia5110/LCD5110_Graph.c **** }
 633              		.loc 2 182 0
 634              		@ sp needed
 635 0012 10BD     		pop	{r4, pc}
 636              		.cfi_endproc
 637              	.LFE72:
 638              		.size	invert, .-invert
 639              		.section	.text.setPixel,"ax",%progbits
 640              		.align	1
 641              		.global	setPixel
 642              		.code	16
 643              		.thumb_func
 644              		.type	setPixel, %function
 645              	setPixel:
 646              	.LFB73:
 183:..\..\common\lib\nokia5110/LCD5110_Graph.c **** 
 184:..\..\common\lib\nokia5110/LCD5110_Graph.c **** void setPixel(uint16_t x, uint16_t y)
 185:..\..\common\lib\nokia5110/LCD5110_Graph.c **** {
 647              		.loc 2 185 0
 648              		.cfi_startproc
 649              		@ args = 0, pretend = 0, frame = 0
 650              		@ frame_needed = 0, uses_anonymous_args = 0
 651              	.LVL63:
 652 0000 10B5     		push	{r4, lr}
 653              		.cfi_def_cfa_offset 8
 654              		.cfi_offset 4, -8
 655              		.cfi_offset 14, -4
 186:..\..\common\lib\nokia5110/LCD5110_Graph.c **** 	int by, bi;
 187:..\..\common\lib\nokia5110/LCD5110_Graph.c **** 
 188:..\..\common\lib\nokia5110/LCD5110_Graph.c **** 	if ((x>=0) && (x<84) && (y>=0) && (y<48))
 656              		.loc 2 188 0
 657 0002 5328     		cmp	r0, #83
 658 0004 0DD8     		bhi	.L52
 659              		.loc 2 188 0 is_stmt 0 discriminator 1
ARM GAS  C:\Users\Petro\AppData\Local\Temp\ccEiKVD5.s 			page 17


 660 0006 2F29     		cmp	r1, #47
 661 0008 0BD8     		bhi	.L52
 662              	.LVL64:
 663              	.LBB15:
 664              	.LBB16:
 189:..\..\common\lib\nokia5110/LCD5110_Graph.c **** 	{
 190:..\..\common\lib\nokia5110/LCD5110_Graph.c **** 		by=((y/8)*84)+x;
 665              		.loc 2 190 0 is_stmt 1
 666 000a 5423     		movs	r3, #84
 667 000c CA08     		lsrs	r2, r1, #3
 668 000e 5343     		muls	r3, r2
 669 0010 1818     		adds	r0, r3, r0
 670              	.LVL65:
 191:..\..\common\lib\nokia5110/LCD5110_Graph.c **** 		bi=y % 8;
 192:..\..\common\lib\nokia5110/LCD5110_Graph.c **** 
 193:..\..\common\lib\nokia5110/LCD5110_Graph.c **** 		scrbuf[by]=scrbuf[by] | (1<<bi);
 671              		.loc 2 193 0
 672 0012 0723     		movs	r3, #7
 673 0014 1940     		ands	r1, r3
 674              	.LVL66:
 675 0016 063B     		subs	r3, r3, #6
 676 0018 8B40     		lsls	r3, r3, r1
 677 001a 024C     		ldr	r4, .L54
 678 001c 225C     		ldrb	r2, [r4, r0]
 679 001e 1343     		orrs	r3, r2
 680 0020 2354     		strb	r3, [r4, r0]
 681              	.LVL67:
 682              	.L52:
 683              	.LBE16:
 684              	.LBE15:
 194:..\..\common\lib\nokia5110/LCD5110_Graph.c **** 	}
 195:..\..\common\lib\nokia5110/LCD5110_Graph.c **** }
 685              		.loc 2 195 0
 686              		@ sp needed
 687 0022 10BD     		pop	{r4, pc}
 688              	.L55:
 689              		.align	2
 690              	.L54:
 691 0024 00000000 		.word	scrbuf
 692              		.cfi_endproc
 693              	.LFE73:
 694              		.size	setPixel, .-setPixel
 695              		.section	.text.clrPixel,"ax",%progbits
 696              		.align	1
 697              		.global	clrPixel
 698              		.code	16
 699              		.thumb_func
 700              		.type	clrPixel, %function
 701              	clrPixel:
 702              	.LFB74:
 196:..\..\common\lib\nokia5110/LCD5110_Graph.c **** 
 197:..\..\common\lib\nokia5110/LCD5110_Graph.c **** void clrPixel(uint16_t x, uint16_t y)
 198:..\..\common\lib\nokia5110/LCD5110_Graph.c **** {
 703              		.loc 2 198 0
 704              		.cfi_startproc
 705              		@ args = 0, pretend = 0, frame = 0
 706              		@ frame_needed = 0, uses_anonymous_args = 0
ARM GAS  C:\Users\Petro\AppData\Local\Temp\ccEiKVD5.s 			page 18


 707              	.LVL68:
 708 0000 10B5     		push	{r4, lr}
 709              		.cfi_def_cfa_offset 8
 710              		.cfi_offset 4, -8
 711              		.cfi_offset 14, -4
 199:..\..\common\lib\nokia5110/LCD5110_Graph.c **** 	int by, bi;
 200:..\..\common\lib\nokia5110/LCD5110_Graph.c **** 
 201:..\..\common\lib\nokia5110/LCD5110_Graph.c **** 	if ((x>=0) && (x<84) && (y>=0) && (y<48))
 712              		.loc 2 201 0
 713 0002 5328     		cmp	r0, #83
 714 0004 0DD8     		bhi	.L56
 715              		.loc 2 201 0 is_stmt 0 discriminator 1
 716 0006 2F29     		cmp	r1, #47
 717 0008 0BD8     		bhi	.L56
 718              	.LVL69:
 719              	.LBB19:
 720              	.LBB20:
 202:..\..\common\lib\nokia5110/LCD5110_Graph.c **** 	{
 203:..\..\common\lib\nokia5110/LCD5110_Graph.c **** 		by=((y/8)*84)+x;
 721              		.loc 2 203 0 is_stmt 1
 722 000a 5423     		movs	r3, #84
 723 000c CA08     		lsrs	r2, r1, #3
 724 000e 5343     		muls	r3, r2
 725 0010 1818     		adds	r0, r3, r0
 726              	.LVL70:
 204:..\..\common\lib\nokia5110/LCD5110_Graph.c **** 		bi=y % 8;
 205:..\..\common\lib\nokia5110/LCD5110_Graph.c **** 
 206:..\..\common\lib\nokia5110/LCD5110_Graph.c **** 		scrbuf[by]=scrbuf[by] & ~(1<<bi);
 727              		.loc 2 206 0
 728 0012 0723     		movs	r3, #7
 729 0014 0122     		movs	r2, #1
 730 0016 1940     		ands	r1, r3
 731              	.LVL71:
 732 0018 8A40     		lsls	r2, r2, r1
 733 001a 024C     		ldr	r4, .L58
 734 001c 235C     		ldrb	r3, [r4, r0]
 735 001e 9343     		bics	r3, r2
 736 0020 2354     		strb	r3, [r4, r0]
 737              	.LVL72:
 738              	.L56:
 739              	.LBE20:
 740              	.LBE19:
 207:..\..\common\lib\nokia5110/LCD5110_Graph.c **** 	}
 208:..\..\common\lib\nokia5110/LCD5110_Graph.c **** }
 741              		.loc 2 208 0
 742              		@ sp needed
 743 0022 10BD     		pop	{r4, pc}
 744              	.L59:
 745              		.align	2
 746              	.L58:
 747 0024 00000000 		.word	scrbuf
 748              		.cfi_endproc
 749              	.LFE74:
 750              		.size	clrPixel, .-clrPixel
 751              		.section	.text.invPixel,"ax",%progbits
 752              		.align	1
 753              		.global	invPixel
ARM GAS  C:\Users\Petro\AppData\Local\Temp\ccEiKVD5.s 			page 19


 754              		.code	16
 755              		.thumb_func
 756              		.type	invPixel, %function
 757              	invPixel:
 758              	.LFB75:
 209:..\..\common\lib\nokia5110/LCD5110_Graph.c **** 
 210:..\..\common\lib\nokia5110/LCD5110_Graph.c **** void invPixel(uint16_t x, uint16_t y)
 211:..\..\common\lib\nokia5110/LCD5110_Graph.c **** {
 759              		.loc 2 211 0
 760              		.cfi_startproc
 761              		@ args = 0, pretend = 0, frame = 0
 762              		@ frame_needed = 0, uses_anonymous_args = 0
 763              	.LVL73:
 764 0000 70B5     		push	{r4, r5, r6, lr}
 765              		.cfi_def_cfa_offset 16
 766              		.cfi_offset 4, -16
 767              		.cfi_offset 5, -12
 768              		.cfi_offset 6, -8
 769              		.cfi_offset 14, -4
 212:..\..\common\lib\nokia5110/LCD5110_Graph.c **** 	int by, bi;
 213:..\..\common\lib\nokia5110/LCD5110_Graph.c **** 
 214:..\..\common\lib\nokia5110/LCD5110_Graph.c **** 	if ((x>=0) && (x<84) && (y>=0) && (y<48))
 770              		.loc 2 214 0
 771 0002 5328     		cmp	r0, #83
 772 0004 14D8     		bhi	.L60
 773              		.loc 2 214 0 is_stmt 0 discriminator 1
 774 0006 2F29     		cmp	r1, #47
 775 0008 12D8     		bhi	.L60
 215:..\..\common\lib\nokia5110/LCD5110_Graph.c **** 	{
 216:..\..\common\lib\nokia5110/LCD5110_Graph.c **** 		by=((y/8)*84)+x;
 776              		.loc 2 216 0 is_stmt 1
 777 000a 5423     		movs	r3, #84
 778 000c CA08     		lsrs	r2, r1, #3
 779 000e 5343     		muls	r3, r2
 780 0010 1818     		adds	r0, r3, r0
 781              	.LVL74:
 217:..\..\common\lib\nokia5110/LCD5110_Graph.c **** 		bi=y % 8;
 782              		.loc 2 217 0
 783 0012 0723     		movs	r3, #7
 218:..\..\common\lib\nokia5110/LCD5110_Graph.c **** 
 219:..\..\common\lib\nokia5110/LCD5110_Graph.c **** 		if ((scrbuf[by] & (1<<bi))==0)
 784              		.loc 2 219 0
 785 0014 074A     		ldr	r2, .L64
 217:..\..\common\lib\nokia5110/LCD5110_Graph.c **** 		bi=y % 8;
 786              		.loc 2 217 0
 787 0016 1940     		ands	r1, r3
 788              	.LVL75:
 789              		.loc 2 219 0
 790 0018 135C     		ldrb	r3, [r2, r0]
 791 001a 0124     		movs	r4, #1
 792 001c 1D00     		movs	r5, r3
 793 001e 2600     		movs	r6, r4
 794 0020 0D41     		asrs	r5, r5, r1
 795 0022 8E40     		lsls	r6, r6, r1
 796 0024 2542     		tst	r5, r4
 797 0026 01D1     		bne	.L62
 220:..\..\common\lib\nokia5110/LCD5110_Graph.c **** 			scrbuf[by]=scrbuf[by] | (1<<bi);
ARM GAS  C:\Users\Petro\AppData\Local\Temp\ccEiKVD5.s 			page 20


 798              		.loc 2 220 0
 799 0028 3343     		orrs	r3, r6
 800 002a 00E0     		b	.L63
 801              	.L62:
 221:..\..\common\lib\nokia5110/LCD5110_Graph.c **** 		else
 222:..\..\common\lib\nokia5110/LCD5110_Graph.c **** 			scrbuf[by]=scrbuf[by] & ~(1<<bi);
 802              		.loc 2 222 0
 803 002c B343     		bics	r3, r6
 804              	.L63:
 805 002e 1354     		strb	r3, [r2, r0]
 806              	.LVL76:
 807              	.L60:
 223:..\..\common\lib\nokia5110/LCD5110_Graph.c **** 	}
 224:..\..\common\lib\nokia5110/LCD5110_Graph.c **** }
 808              		.loc 2 224 0
 809              		@ sp needed
 810 0030 70BD     		pop	{r4, r5, r6, pc}
 811              	.L65:
 812 0032 C046     		.align	2
 813              	.L64:
 814 0034 00000000 		.word	scrbuf
 815              		.cfi_endproc
 816              	.LFE75:
 817              		.size	invPixel, .-invPixel
 818              		.section	.text.invertText,"ax",%progbits
 819              		.align	1
 820              		.global	invertText
 821              		.code	16
 822              		.thumb_func
 823              		.type	invertText, %function
 824              	invertText:
 825              	.LFB76:
 225:..\..\common\lib\nokia5110/LCD5110_Graph.c **** 
 226:..\..\common\lib\nokia5110/LCD5110_Graph.c **** void invertText(bool mode)
 227:..\..\common\lib\nokia5110/LCD5110_Graph.c **** {
 826              		.loc 2 227 0
 827              		.cfi_startproc
 828              		@ args = 0, pretend = 0, frame = 0
 829              		@ frame_needed = 0, uses_anonymous_args = 0
 830              		@ link register save eliminated.
 831              	.LVL77:
 832 0000 034B     		ldr	r3, .L69
 228:..\..\common\lib\nokia5110/LCD5110_Graph.c **** 	if (mode==true)
 833              		.loc 2 228 0
 834 0002 0028     		cmp	r0, #0
 835 0004 02D0     		beq	.L67
 229:..\..\common\lib\nokia5110/LCD5110_Graph.c **** 		cfont.inverted=1;
 836              		.loc 2 229 0
 837 0006 0122     		movs	r2, #1
 838 0008 1A72     		strb	r2, [r3, #8]
 839 000a 00E0     		b	.L66
 840              	.L67:
 230:..\..\common\lib\nokia5110/LCD5110_Graph.c **** 	else
 231:..\..\common\lib\nokia5110/LCD5110_Graph.c **** 		cfont.inverted=0;
 841              		.loc 2 231 0
 842 000c 1872     		strb	r0, [r3, #8]
 843              	.L66:
ARM GAS  C:\Users\Petro\AppData\Local\Temp\ccEiKVD5.s 			page 21


 232:..\..\common\lib\nokia5110/LCD5110_Graph.c **** }
 844              		.loc 2 232 0
 845              		@ sp needed
 846 000e 7047     		bx	lr
 847              	.L70:
 848              		.align	2
 849              	.L69:
 850 0010 00000000 		.word	cfont
 851              		.cfi_endproc
 852              	.LFE76:
 853              		.size	invertText, .-invertText
 854              		.section	.text._print_char,"ax",%progbits
 855              		.align	1
 856              		.global	_print_char
 857              		.code	16
 858              		.thumb_func
 859              		.type	_print_char, %function
 860              	_print_char:
 861              	.LFB81:
 233:..\..\common\lib\nokia5110/LCD5110_Graph.c **** 
 234:..\..\common\lib\nokia5110/LCD5110_Graph.c **** void print(char *st, int x, int y)
 235:..\..\common\lib\nokia5110/LCD5110_Graph.c **** {
 236:..\..\common\lib\nokia5110/LCD5110_Graph.c **** 	unsigned char ch;
 237:..\..\common\lib\nokia5110/LCD5110_Graph.c **** 	int stl;
 238:..\..\common\lib\nokia5110/LCD5110_Graph.c **** 
 239:..\..\common\lib\nokia5110/LCD5110_Graph.c **** 	stl = strlen(st);
 240:..\..\common\lib\nokia5110/LCD5110_Graph.c **** 	if (x == RIGHT)
 241:..\..\common\lib\nokia5110/LCD5110_Graph.c **** 		x = 84-(stl*cfont.x_size);
 242:..\..\common\lib\nokia5110/LCD5110_Graph.c **** 	if (x == CENTER)
 243:..\..\common\lib\nokia5110/LCD5110_Graph.c **** 		x = (84-(stl*cfont.x_size))/2;
 244:..\..\common\lib\nokia5110/LCD5110_Graph.c **** 
 245:..\..\common\lib\nokia5110/LCD5110_Graph.c ****     int cnt;
 246:..\..\common\lib\nokia5110/LCD5110_Graph.c **** 	for (cnt=0; cnt<stl; cnt++)
 247:..\..\common\lib\nokia5110/LCD5110_Graph.c **** 			_print_char(*st++, x + (cnt*(cfont.x_size)), y);
 248:..\..\common\lib\nokia5110/LCD5110_Graph.c **** }
 249:..\..\common\lib\nokia5110/LCD5110_Graph.c **** 
 250:..\..\common\lib\nokia5110/LCD5110_Graph.c **** void prints(char *st, int x, int y)
 251:..\..\common\lib\nokia5110/LCD5110_Graph.c **** {
 252:..\..\common\lib\nokia5110/LCD5110_Graph.c **** //	char buf[st.length()+1];
 253:..\..\common\lib\nokia5110/LCD5110_Graph.c **** //
 254:..\..\common\lib\nokia5110/LCD5110_Graph.c **** //	st.toCharArray(buf, st.length()+1);
 255:..\..\common\lib\nokia5110/LCD5110_Graph.c **** 	print(st, x, y);
 256:..\..\common\lib\nokia5110/LCD5110_Graph.c **** }
 257:..\..\common\lib\nokia5110/LCD5110_Graph.c **** 
 258:..\..\common\lib\nokia5110/LCD5110_Graph.c **** void printNumI(long num, int x, int y, int length, char filler)
 259:..\..\common\lib\nokia5110/LCD5110_Graph.c **** {
 260:..\..\common\lib\nokia5110/LCD5110_Graph.c **** 	char buf[25];
 261:..\..\common\lib\nokia5110/LCD5110_Graph.c **** 	char st[27];
 262:..\..\common\lib\nokia5110/LCD5110_Graph.c **** 	bool neg=false;
 263:..\..\common\lib\nokia5110/LCD5110_Graph.c **** 	int c=0, f=0;
 264:..\..\common\lib\nokia5110/LCD5110_Graph.c ****   
 265:..\..\common\lib\nokia5110/LCD5110_Graph.c **** 	if (num==0)
 266:..\..\common\lib\nokia5110/LCD5110_Graph.c **** 	{
 267:..\..\common\lib\nokia5110/LCD5110_Graph.c **** 		if (length!=0)
 268:..\..\common\lib\nokia5110/LCD5110_Graph.c **** 		{
 269:..\..\common\lib\nokia5110/LCD5110_Graph.c **** 			for (c=0; c<(length-1); c++)
 270:..\..\common\lib\nokia5110/LCD5110_Graph.c **** 				st[c]=filler;
ARM GAS  C:\Users\Petro\AppData\Local\Temp\ccEiKVD5.s 			page 22


 271:..\..\common\lib\nokia5110/LCD5110_Graph.c **** 			st[c]=48;
 272:..\..\common\lib\nokia5110/LCD5110_Graph.c **** 			st[c+1]=0;
 273:..\..\common\lib\nokia5110/LCD5110_Graph.c **** 		}
 274:..\..\common\lib\nokia5110/LCD5110_Graph.c **** 		else
 275:..\..\common\lib\nokia5110/LCD5110_Graph.c **** 		{
 276:..\..\common\lib\nokia5110/LCD5110_Graph.c **** 			st[0]=48;
 277:..\..\common\lib\nokia5110/LCD5110_Graph.c **** 			st[1]=0;
 278:..\..\common\lib\nokia5110/LCD5110_Graph.c **** 		}
 279:..\..\common\lib\nokia5110/LCD5110_Graph.c **** 	}
 280:..\..\common\lib\nokia5110/LCD5110_Graph.c **** 	else
 281:..\..\common\lib\nokia5110/LCD5110_Graph.c **** 	{
 282:..\..\common\lib\nokia5110/LCD5110_Graph.c **** 		if (num<0)
 283:..\..\common\lib\nokia5110/LCD5110_Graph.c **** 		{
 284:..\..\common\lib\nokia5110/LCD5110_Graph.c **** 			neg=true;
 285:..\..\common\lib\nokia5110/LCD5110_Graph.c **** 			num=-num;
 286:..\..\common\lib\nokia5110/LCD5110_Graph.c **** 		}
 287:..\..\common\lib\nokia5110/LCD5110_Graph.c **** 	  
 288:..\..\common\lib\nokia5110/LCD5110_Graph.c **** 		while (num>0)
 289:..\..\common\lib\nokia5110/LCD5110_Graph.c **** 		{
 290:..\..\common\lib\nokia5110/LCD5110_Graph.c **** 			buf[c]=48+(num % 10);
 291:..\..\common\lib\nokia5110/LCD5110_Graph.c **** 			c++;
 292:..\..\common\lib\nokia5110/LCD5110_Graph.c **** 			num=(num-(num % 10))/10;
 293:..\..\common\lib\nokia5110/LCD5110_Graph.c **** 		}
 294:..\..\common\lib\nokia5110/LCD5110_Graph.c **** 		buf[c]=0;
 295:..\..\common\lib\nokia5110/LCD5110_Graph.c **** 	  
 296:..\..\common\lib\nokia5110/LCD5110_Graph.c **** 		if (neg)
 297:..\..\common\lib\nokia5110/LCD5110_Graph.c **** 		{
 298:..\..\common\lib\nokia5110/LCD5110_Graph.c **** 			st[0]=45;
 299:..\..\common\lib\nokia5110/LCD5110_Graph.c **** 		}
 300:..\..\common\lib\nokia5110/LCD5110_Graph.c **** 	  
 301:..\..\common\lib\nokia5110/LCD5110_Graph.c **** 		if (length>(c+neg))
 302:..\..\common\lib\nokia5110/LCD5110_Graph.c **** 		{
 303:..\..\common\lib\nokia5110/LCD5110_Graph.c ****             int i;
 304:..\..\common\lib\nokia5110/LCD5110_Graph.c **** 			for (i=0; i<(length-c-neg); i++)
 305:..\..\common\lib\nokia5110/LCD5110_Graph.c **** 			{
 306:..\..\common\lib\nokia5110/LCD5110_Graph.c **** 				st[i+neg]=filler;
 307:..\..\common\lib\nokia5110/LCD5110_Graph.c **** 				f++;
 308:..\..\common\lib\nokia5110/LCD5110_Graph.c **** 			}
 309:..\..\common\lib\nokia5110/LCD5110_Graph.c **** 		}
 310:..\..\common\lib\nokia5110/LCD5110_Graph.c **** 
 311:..\..\common\lib\nokia5110/LCD5110_Graph.c ****         int i;
 312:..\..\common\lib\nokia5110/LCD5110_Graph.c **** 		for (i=0; i<c; i++)
 313:..\..\common\lib\nokia5110/LCD5110_Graph.c **** 		{
 314:..\..\common\lib\nokia5110/LCD5110_Graph.c **** 			st[i+neg+f]=buf[c-i-1];
 315:..\..\common\lib\nokia5110/LCD5110_Graph.c **** 		}
 316:..\..\common\lib\nokia5110/LCD5110_Graph.c **** 		st[c+neg+f]=0;
 317:..\..\common\lib\nokia5110/LCD5110_Graph.c **** 
 318:..\..\common\lib\nokia5110/LCD5110_Graph.c **** 	}
 319:..\..\common\lib\nokia5110/LCD5110_Graph.c **** 
 320:..\..\common\lib\nokia5110/LCD5110_Graph.c **** 	print(st,x,y);
 321:..\..\common\lib\nokia5110/LCD5110_Graph.c **** }
 322:..\..\common\lib\nokia5110/LCD5110_Graph.c **** 
 323:..\..\common\lib\nokia5110/LCD5110_Graph.c **** void printNumF(double num, uint8 dec, int x, int y, char divider, int length, char filler)
 324:..\..\common\lib\nokia5110/LCD5110_Graph.c **** {
 325:..\..\common\lib\nokia5110/LCD5110_Graph.c **** 	char st[27];
 326:..\..\common\lib\nokia5110/LCD5110_Graph.c ****     uint8_t size;
 327:..\..\common\lib\nokia5110/LCD5110_Graph.c **** 	bool neg=false;
ARM GAS  C:\Users\Petro\AppData\Local\Temp\ccEiKVD5.s 			page 23


 328:..\..\common\lib\nokia5110/LCD5110_Graph.c **** 
 329:..\..\common\lib\nokia5110/LCD5110_Graph.c **** 	if (num<0)
 330:..\..\common\lib\nokia5110/LCD5110_Graph.c **** 		neg = true;
 331:..\..\common\lib\nokia5110/LCD5110_Graph.c **** 
 332:..\..\common\lib\nokia5110/LCD5110_Graph.c **** 	_convert_float(st, num, length, dec);
 333:..\..\common\lib\nokia5110/LCD5110_Graph.c **** 
 334:..\..\common\lib\nokia5110/LCD5110_Graph.c **** 	if (divider != '.')
 335:..\..\common\lib\nokia5110/LCD5110_Graph.c **** 	{
 336:..\..\common\lib\nokia5110/LCD5110_Graph.c ****         size = sizeof st;
 337:..\..\common\lib\nokia5110/LCD5110_Graph.c ****         int i;
 338:..\..\common\lib\nokia5110/LCD5110_Graph.c **** 		for (i=0; i<size; i++)
 339:..\..\common\lib\nokia5110/LCD5110_Graph.c **** 			if (st[i]=='.')
 340:..\..\common\lib\nokia5110/LCD5110_Graph.c **** 				st[i]=divider;
 341:..\..\common\lib\nokia5110/LCD5110_Graph.c **** 	}
 342:..\..\common\lib\nokia5110/LCD5110_Graph.c **** 
 343:..\..\common\lib\nokia5110/LCD5110_Graph.c **** 	if (filler != ' ')
 344:..\..\common\lib\nokia5110/LCD5110_Graph.c **** 	{
 345:..\..\common\lib\nokia5110/LCD5110_Graph.c **** 		if (neg)
 346:..\..\common\lib\nokia5110/LCD5110_Graph.c **** 		{
 347:..\..\common\lib\nokia5110/LCD5110_Graph.c **** 			st[0]='-';
 348:..\..\common\lib\nokia5110/LCD5110_Graph.c ****             size = sizeof st;
 349:..\..\common\lib\nokia5110/LCD5110_Graph.c ****             int i;
 350:..\..\common\lib\nokia5110/LCD5110_Graph.c **** 			for (i=1; i<size; i++)
 351:..\..\common\lib\nokia5110/LCD5110_Graph.c **** 				if ((st[i]==' ') || (st[i]=='-'))
 352:..\..\common\lib\nokia5110/LCD5110_Graph.c **** 					st[i]=filler;
 353:..\..\common\lib\nokia5110/LCD5110_Graph.c **** 		}
 354:..\..\common\lib\nokia5110/LCD5110_Graph.c **** 		else
 355:..\..\common\lib\nokia5110/LCD5110_Graph.c **** 		{
 356:..\..\common\lib\nokia5110/LCD5110_Graph.c ****             size = sizeof st;
 357:..\..\common\lib\nokia5110/LCD5110_Graph.c ****             int i;
 358:..\..\common\lib\nokia5110/LCD5110_Graph.c **** 			for (i=0; i<size; i++)
 359:..\..\common\lib\nokia5110/LCD5110_Graph.c **** 				if (st[i]==' ')
 360:..\..\common\lib\nokia5110/LCD5110_Graph.c **** 					st[i]=filler;
 361:..\..\common\lib\nokia5110/LCD5110_Graph.c **** 		}
 362:..\..\common\lib\nokia5110/LCD5110_Graph.c **** 	}
 363:..\..\common\lib\nokia5110/LCD5110_Graph.c **** 
 364:..\..\common\lib\nokia5110/LCD5110_Graph.c **** 	print(st,x,y);
 365:..\..\common\lib\nokia5110/LCD5110_Graph.c **** }
 366:..\..\common\lib\nokia5110/LCD5110_Graph.c **** 
 367:..\..\common\lib\nokia5110/LCD5110_Graph.c **** void _print_char(unsigned char c, int x, int y)
 368:..\..\common\lib\nokia5110/LCD5110_Graph.c **** {
 862              		.loc 2 368 0
 863              		.cfi_startproc
 864              		@ args = 0, pretend = 0, frame = 24
 865              		@ frame_needed = 0, uses_anonymous_args = 0
 866              	.LVL78:
 867 0000 F0B5     		push	{r4, r5, r6, r7, lr}
 868              		.cfi_def_cfa_offset 20
 869              		.cfi_offset 4, -20
 870              		.cfi_offset 5, -16
 871              		.cfi_offset 6, -12
 872              		.cfi_offset 7, -8
 873              		.cfi_offset 14, -4
 874 0002 87B0     		sub	sp, sp, #28
 875              		.cfi_def_cfa_offset 48
 876              		.loc 2 368 0
 877 0004 0592     		str	r2, [sp, #20]
ARM GAS  C:\Users\Petro\AppData\Local\Temp\ccEiKVD5.s 			page 24


 369:..\..\common\lib\nokia5110/LCD5110_Graph.c **** 	if ((cfont.y_size % 8) == 0)
 878              		.loc 2 369 0
 879 0006 494A     		ldr	r2, .L97
 880              	.LVL79:
 368:..\..\common\lib\nokia5110/LCD5110_Graph.c **** 	if ((cfont.y_size % 8) == 0)
 881              		.loc 2 368 0
 882 0008 0491     		str	r1, [sp, #16]
 883              		.loc 2 369 0
 884 000a 5379     		ldrb	r3, [r2, #5]
 885 000c 0727     		movs	r7, #7
 886 000e 1D00     		movs	r5, r3
 887 0010 1479     		ldrb	r4, [r2, #4]
 888 0012 3D40     		ands	r5, r7
 889 0014 9179     		ldrb	r1, [r2, #6]
 890              	.LVL80:
 891 0016 002D     		cmp	r5, #0
 892 0018 44D1     		bne	.L72
 893              	.LBB21:
 370:..\..\common\lib\nokia5110/LCD5110_Graph.c **** 	{
 371:..\..\common\lib\nokia5110/LCD5110_Graph.c **** 		int font_idx = ((c - cfont.offset)*(cfont.x_size*(cfont.y_size/8)))+4;
 894              		.loc 2 371 0
 895 001a DB08     		lsrs	r3, r3, #3
 896 001c 6343     		muls	r3, r4
 897 001e 401A     		subs	r0, r0, r1
 898              	.LVL81:
 899 0020 5843     		muls	r0, r3
 900 0022 0300     		movs	r3, r0
 901 0024 0433     		adds	r3, r3, #4
 902 0026 0393     		str	r3, [sp, #12]
 903              	.LVL82:
 904 0028 6B46     		mov	r3, sp
 905              	.LVL83:
 906 002a 9B8A     		ldrh	r3, [r3, #20]
 907 002c 0290     		str	r0, [sp, #8]
 908              	.LVL84:
 909              	.L93:
 910 002e 0193     		str	r3, [sp, #4]
 911              	.LVL85:
 372:..\..\common\lib\nokia5110/LCD5110_Graph.c ****         int rowcnt;
 373:..\..\common\lib\nokia5110/LCD5110_Graph.c **** 		for (rowcnt=0; rowcnt<(cfont.y_size/8); rowcnt++)
 912              		.loc 2 373 0 discriminator 2
 913 0030 3E4B     		ldr	r3, .L97
 914 0032 5B79     		ldrb	r3, [r3, #5]
 915 0034 DB08     		lsrs	r3, r3, #3
 916 0036 9D42     		cmp	r5, r3
 917 0038 76DA     		bge	.L71
 918 003a 6B46     		mov	r3, sp
 919 003c 1C8A     		ldrh	r4, [r3, #16]
 920              	.LBB22:
 374:..\..\common\lib\nokia5110/LCD5110_Graph.c **** 		{
 375:..\..\common\lib\nokia5110/LCD5110_Graph.c ****             int cnt;
 376:..\..\common\lib\nokia5110/LCD5110_Graph.c **** 			for(cnt=0; cnt<cfont.x_size; cnt++)
 921              		.loc 2 376 0
 922 003e 0423     		movs	r3, #4
 923 0040 029A     		ldr	r2, [sp, #8]
 924 0042 5B42     		rsbs	r3, r3, #0
 925 0044 9B1A     		subs	r3, r3, r2
ARM GAS  C:\Users\Petro\AppData\Local\Temp\ccEiKVD5.s 			page 25


 926 0046 039F     		ldr	r7, [sp, #12]
 927 0048 0593     		str	r3, [sp, #20]
 928              	.L81:
 929              	.LVL86:
 930              		.loc 2 376 0 is_stmt 0 discriminator 1
 931 004a 384B     		ldr	r3, .L97
 932 004c 1A79     		ldrb	r2, [r3, #4]
 933 004e 059B     		ldr	r3, [sp, #20]
 934 0050 DB19     		adds	r3, r3, r7
 935 0052 9A42     		cmp	r2, r3
 936 0054 21DD     		ble	.L95
 937 0056 0026     		movs	r6, #0
 938              	.L78:
 939              	.LVL87:
 940              	.LBB23:
 377:..\..\common\lib\nokia5110/LCD5110_Graph.c **** 			{
 378:..\..\common\lib\nokia5110/LCD5110_Graph.c ****                 int b;
 379:..\..\common\lib\nokia5110/LCD5110_Graph.c **** 				for (b=0; b<8; b++)
 380:..\..\common\lib\nokia5110/LCD5110_Graph.c **** 					if ((fontbyte(font_idx+cnt+(rowcnt*cfont.x_size)) & (1<<b))!=0)
 941              		.loc 2 380 0 is_stmt 1
 942 0058 344A     		ldr	r2, .L97
 943 005a 0120     		movs	r0, #1
 944 005c 1379     		ldrb	r3, [r2, #4]
 945 005e 1168     		ldr	r1, [r2]
 946 0060 6B43     		muls	r3, r5
 947 0062 C919     		adds	r1, r1, r7
 948 0064 CB5C     		ldrb	r3, [r1, r3]
 949 0066 0199     		ldr	r1, [sp, #4]
 950 0068 3341     		asrs	r3, r3, r6
 951 006a 8919     		adds	r1, r1, r6
 952 006c 127A     		ldrb	r2, [r2, #8]
 381:..\..\common\lib\nokia5110/LCD5110_Graph.c **** 						if (cfont.inverted==0)
 382:..\..\common\lib\nokia5110/LCD5110_Graph.c **** 							setPixel(x+cnt, y+(rowcnt*8)+b);
 953              		.loc 2 382 0
 954 006e 89B2     		uxth	r1, r1
 380:..\..\common\lib\nokia5110/LCD5110_Graph.c **** 						if (cfont.inverted==0)
 955              		.loc 2 380 0
 956 0070 0342     		tst	r3, r0
 957 0072 03D0     		beq	.L74
 958              		.loc 2 382 0
 959 0074 2000     		movs	r0, r4
 381:..\..\common\lib\nokia5110/LCD5110_Graph.c **** 						if (cfont.inverted==0)
 960              		.loc 2 381 0
 961 0076 002A     		cmp	r2, #0
 962 0078 03D1     		bne	.L92
 963 007a 05E0     		b	.L77
 964              	.L74:
 383:..\..\common\lib\nokia5110/LCD5110_Graph.c **** 						else
 384:..\..\common\lib\nokia5110/LCD5110_Graph.c **** 							clrPixel(x+cnt, y+(rowcnt*8)+b);
 385:..\..\common\lib\nokia5110/LCD5110_Graph.c **** 					else
 386:..\..\common\lib\nokia5110/LCD5110_Graph.c **** 						if (cfont.inverted==0)
 387:..\..\common\lib\nokia5110/LCD5110_Graph.c **** 							clrPixel(x+cnt, y+(rowcnt*8)+b);
 965              		.loc 2 387 0
 966 007c 2000     		movs	r0, r4
 386:..\..\common\lib\nokia5110/LCD5110_Graph.c **** 							clrPixel(x+cnt, y+(rowcnt*8)+b);
 967              		.loc 2 386 0
 968 007e 002A     		cmp	r2, #0
ARM GAS  C:\Users\Petro\AppData\Local\Temp\ccEiKVD5.s 			page 26


 969 0080 02D1     		bne	.L77
 970              	.L92:
 971              		.loc 2 387 0
 972 0082 FFF7FEFF 		bl	clrPixel
 973              	.LVL88:
 974 0086 01E0     		b	.L76
 975              	.L77:
 388:..\..\common\lib\nokia5110/LCD5110_Graph.c **** 						else
 389:..\..\common\lib\nokia5110/LCD5110_Graph.c **** 							setPixel(x+cnt, y+(rowcnt*8)+b);
 976              		.loc 2 389 0
 977 0088 FFF7FEFF 		bl	setPixel
 978              	.LVL89:
 979              	.L76:
 379:..\..\common\lib\nokia5110/LCD5110_Graph.c **** 					if ((fontbyte(font_idx+cnt+(rowcnt*cfont.x_size)) & (1<<b))!=0)
 980              		.loc 2 379 0 discriminator 2
 981 008c 0136     		adds	r6, r6, #1
 982              	.LVL90:
 983 008e 082E     		cmp	r6, #8
 984 0090 E2D1     		bne	.L78
 985              	.LVL91:
 986 0092 0134     		adds	r4, r4, #1
 987 0094 A4B2     		uxth	r4, r4
 988 0096 0137     		adds	r7, r7, #1
 989              	.LVL92:
 990 0098 D7E7     		b	.L81
 991              	.LVL93:
 992              	.L95:
 993 009a 019B     		ldr	r3, [sp, #4]
 994              	.LBE23:
 995              	.LBE22:
 373:..\..\common\lib\nokia5110/LCD5110_Graph.c **** 		{
 996              		.loc 2 373 0 discriminator 2
 997 009c 0135     		adds	r5, r5, #1
 998              	.LVL94:
 999 009e 0833     		adds	r3, r3, #8
 1000 00a0 9BB2     		uxth	r3, r3
 1001 00a2 C4E7     		b	.L93
 1002              	.LVL95:
 1003              	.L72:
 1004              	.LBE21:
 1005              	.LBB24:
 390:..\..\common\lib\nokia5110/LCD5110_Graph.c **** 			}
 391:..\..\common\lib\nokia5110/LCD5110_Graph.c **** 		}
 392:..\..\common\lib\nokia5110/LCD5110_Graph.c **** 	}
 393:..\..\common\lib\nokia5110/LCD5110_Graph.c **** 	else
 394:..\..\common\lib\nokia5110/LCD5110_Graph.c **** 	{
 395:..\..\common\lib\nokia5110/LCD5110_Graph.c **** 		int font_idx = ((c - cfont.offset)*((cfont.x_size*cfont.y_size/8)))+4;
 1006              		.loc 2 395 0
 1007 00a4 6343     		muls	r3, r4
 1008 00a6 441A     		subs	r4, r0, r1
 1009 00a8 DB10     		asrs	r3, r3, #3
 1010 00aa 6343     		muls	r3, r4
 1011 00ac 1C1D     		adds	r4, r3, #4
 1012              	.LVL96:
 396:..\..\common\lib\nokia5110/LCD5110_Graph.c **** 		int cbyte=fontbyte(font_idx);
 1013              		.loc 2 396 0
 1014 00ae 1368     		ldr	r3, [r2]
ARM GAS  C:\Users\Petro\AppData\Local\Temp\ccEiKVD5.s 			page 27


 1015 00b0 1B5D     		ldrb	r3, [r3, r4]
 1016 00b2 0393     		str	r3, [sp, #12]
 1017              	.LVL97:
 1018 00b4 6B46     		mov	r3, sp
 1019              	.LVL98:
 1020 00b6 1D8A     		ldrh	r5, [r3, #16]
 397:..\..\common\lib\nokia5110/LCD5110_Graph.c **** 		int cbit=7;
 398:..\..\common\lib\nokia5110/LCD5110_Graph.c ****         int cx;
 399:..\..\common\lib\nokia5110/LCD5110_Graph.c **** 		for (cx=0; cx<cfont.x_size; cx++)
 1021              		.loc 2 399 0
 1022 00b8 0023     		movs	r3, #0
 1023 00ba 0193     		str	r3, [sp, #4]
 1024              	.LVL99:
 1025              	.L82:
 1026              		.loc 2 399 0 is_stmt 0 discriminator 1
 1027 00bc 1B4B     		ldr	r3, .L97
 1028 00be 019A     		ldr	r2, [sp, #4]
 1029 00c0 1B79     		ldrb	r3, [r3, #4]
 1030 00c2 9A42     		cmp	r2, r3
 1031 00c4 30DA     		bge	.L71
 1032 00c6 6B46     		mov	r3, sp
 1033 00c8 9E8A     		ldrh	r6, [r3, #20]
 1034              		.loc 2 399 0
 1035 00ca 0023     		movs	r3, #0
 1036 00cc 0293     		str	r3, [sp, #8]
 1037              	.L90:
 1038              	.LVL100:
 1039              	.LBB25:
 400:..\..\common\lib\nokia5110/LCD5110_Graph.c **** 		{
 401:..\..\common\lib\nokia5110/LCD5110_Graph.c ****             int cy;
 402:..\..\common\lib\nokia5110/LCD5110_Graph.c **** 			for (cy=0; cy<cfont.y_size; cy++)
 1040              		.loc 2 402 0 is_stmt 1 discriminator 1
 1041 00ce 174B     		ldr	r3, .L97
 1042 00d0 0299     		ldr	r1, [sp, #8]
 1043 00d2 5A79     		ldrb	r2, [r3, #5]
 1044 00d4 9142     		cmp	r1, r2
 1045 00d6 21DA     		bge	.L96
 1046 00d8 1A7A     		ldrb	r2, [r3, #8]
 403:..\..\common\lib\nokia5110/LCD5110_Graph.c **** 			{
 404:..\..\common\lib\nokia5110/LCD5110_Graph.c **** 				if ((cbyte & (1<<cbit)) != 0)
 1047              		.loc 2 404 0
 1048 00da 039B     		ldr	r3, [sp, #12]
 1049 00dc 0121     		movs	r1, #1
 1050 00de 3B41     		asrs	r3, r3, r7
 1051 00e0 0B42     		tst	r3, r1
 1052 00e2 04D0     		beq	.L83
 405:..\..\common\lib\nokia5110/LCD5110_Graph.c **** 					if (cfont.inverted==0)
 406:..\..\common\lib\nokia5110/LCD5110_Graph.c **** 						setPixel(x+cx, y+cy);
 1053              		.loc 2 406 0
 1054 00e4 3100     		movs	r1, r6
 1055 00e6 2800     		movs	r0, r5
 405:..\..\common\lib\nokia5110/LCD5110_Graph.c **** 					if (cfont.inverted==0)
 1056              		.loc 2 405 0
 1057 00e8 002A     		cmp	r2, #0
 1058 00ea 04D1     		bne	.L94
 1059 00ec 06E0     		b	.L86
 1060              	.L83:
ARM GAS  C:\Users\Petro\AppData\Local\Temp\ccEiKVD5.s 			page 28


 407:..\..\common\lib\nokia5110/LCD5110_Graph.c **** 					else
 408:..\..\common\lib\nokia5110/LCD5110_Graph.c **** 						clrPixel(x+cx, y+cy);
 409:..\..\common\lib\nokia5110/LCD5110_Graph.c **** 				else
 410:..\..\common\lib\nokia5110/LCD5110_Graph.c **** 					if (cfont.inverted==0)
 411:..\..\common\lib\nokia5110/LCD5110_Graph.c **** 						clrPixel(x+cx, y+cy);
 1061              		.loc 2 411 0
 1062 00ee 3100     		movs	r1, r6
 1063 00f0 2800     		movs	r0, r5
 410:..\..\common\lib\nokia5110/LCD5110_Graph.c **** 						clrPixel(x+cx, y+cy);
 1064              		.loc 2 410 0
 1065 00f2 002A     		cmp	r2, #0
 1066 00f4 02D1     		bne	.L86
 1067              	.L94:
 1068              		.loc 2 411 0
 1069 00f6 FFF7FEFF 		bl	clrPixel
 1070              	.LVL101:
 1071 00fa 01E0     		b	.L85
 1072              	.L86:
 412:..\..\common\lib\nokia5110/LCD5110_Graph.c **** 					else
 413:..\..\common\lib\nokia5110/LCD5110_Graph.c **** 						setPixel(x+cx, y+cy);
 1073              		.loc 2 413 0
 1074 00fc FFF7FEFF 		bl	setPixel
 1075              	.LVL102:
 1076              	.L85:
 414:..\..\common\lib\nokia5110/LCD5110_Graph.c **** 				cbit--;
 415:..\..\common\lib\nokia5110/LCD5110_Graph.c **** 				if (cbit<0)
 1077              		.loc 2 415 0
 1078 0100 013F     		subs	r7, r7, #1
 1079 0102 05D5     		bpl	.L87
 1080              	.LVL103:
 416:..\..\common\lib\nokia5110/LCD5110_Graph.c **** 				{
 417:..\..\common\lib\nokia5110/LCD5110_Graph.c **** 					cbit=7;
 1081              		.loc 2 417 0
 1082 0104 0727     		movs	r7, #7
 418:..\..\common\lib\nokia5110/LCD5110_Graph.c **** 					font_idx++;
 419:..\..\common\lib\nokia5110/LCD5110_Graph.c **** 					cbyte=fontbyte(font_idx);
 1083              		.loc 2 419 0
 1084 0106 094B     		ldr	r3, .L97
 418:..\..\common\lib\nokia5110/LCD5110_Graph.c **** 					font_idx++;
 1085              		.loc 2 418 0
 1086 0108 0134     		adds	r4, r4, #1
 1087              	.LVL104:
 1088              		.loc 2 419 0
 1089 010a 1B68     		ldr	r3, [r3]
 1090 010c 1B5D     		ldrb	r3, [r3, r4]
 1091 010e 0393     		str	r3, [sp, #12]
 1092              	.LVL105:
 1093              	.L87:
 402:..\..\common\lib\nokia5110/LCD5110_Graph.c **** 			{
 1094              		.loc 2 402 0 discriminator 2
 1095 0110 029B     		ldr	r3, [sp, #8]
 1096 0112 0136     		adds	r6, r6, #1
 1097 0114 0133     		adds	r3, r3, #1
 1098 0116 0293     		str	r3, [sp, #8]
 1099              	.LVL106:
 1100 0118 B6B2     		uxth	r6, r6
 1101 011a D8E7     		b	.L90
ARM GAS  C:\Users\Petro\AppData\Local\Temp\ccEiKVD5.s 			page 29


 1102              	.LVL107:
 1103              	.L96:
 1104              	.LBE25:
 399:..\..\common\lib\nokia5110/LCD5110_Graph.c **** 		{
 1105              		.loc 2 399 0 discriminator 2
 1106 011c 019B     		ldr	r3, [sp, #4]
 1107 011e 0135     		adds	r5, r5, #1
 1108 0120 0133     		adds	r3, r3, #1
 1109 0122 0193     		str	r3, [sp, #4]
 1110              	.LVL108:
 1111 0124 ADB2     		uxth	r5, r5
 1112 0126 C9E7     		b	.L82
 1113              	.LVL109:
 1114              	.L71:
 1115              	.LBE24:
 420:..\..\common\lib\nokia5110/LCD5110_Graph.c **** 				}
 421:..\..\common\lib\nokia5110/LCD5110_Graph.c **** 			}
 422:..\..\common\lib\nokia5110/LCD5110_Graph.c **** 		}
 423:..\..\common\lib\nokia5110/LCD5110_Graph.c **** 	}
 424:..\..\common\lib\nokia5110/LCD5110_Graph.c **** }
 1116              		.loc 2 424 0
 1117 0128 07B0     		add	sp, sp, #28
 1118              		@ sp needed
 1119 012a F0BD     		pop	{r4, r5, r6, r7, pc}
 1120              	.L98:
 1121              		.align	2
 1122              	.L97:
 1123 012c 00000000 		.word	cfont
 1124              		.cfi_endproc
 1125              	.LFE81:
 1126              		.size	_print_char, .-_print_char
 1127              		.section	.text.print,"ax",%progbits
 1128              		.align	1
 1129              		.global	print
 1130              		.code	16
 1131              		.thumb_func
 1132              		.type	print, %function
 1133              	print:
 1134              	.LFB77:
 235:..\..\common\lib\nokia5110/LCD5110_Graph.c **** 	unsigned char ch;
 1135              		.loc 2 235 0
 1136              		.cfi_startproc
 1137              		@ args = 0, pretend = 0, frame = 8
 1138              		@ frame_needed = 0, uses_anonymous_args = 0
 1139              	.LVL110:
 1140 0000 F7B5     		push	{r0, r1, r2, r4, r5, r6, r7, lr}
 1141              		.cfi_def_cfa_offset 32
 1142              		.cfi_offset 0, -32
 1143              		.cfi_offset 1, -28
 1144              		.cfi_offset 2, -24
 1145              		.cfi_offset 4, -20
 1146              		.cfi_offset 5, -16
 1147              		.cfi_offset 6, -12
 1148              		.cfi_offset 7, -8
 1149              		.cfi_offset 14, -4
 235:..\..\common\lib\nokia5110/LCD5110_Graph.c **** 	unsigned char ch;
 1150              		.loc 2 235 0
ARM GAS  C:\Users\Petro\AppData\Local\Temp\ccEiKVD5.s 			page 30


 1151 0002 0700     		movs	r7, r0
 1152 0004 0C00     		movs	r4, r1
 1153 0006 0192     		str	r2, [sp, #4]
 239:..\..\common\lib\nokia5110/LCD5110_Graph.c **** 	if (x == RIGHT)
 1154              		.loc 2 239 0
 1155 0008 FFF7FEFF 		bl	strlen
 1156              	.LVL111:
 240:..\..\common\lib\nokia5110/LCD5110_Graph.c **** 		x = 84-(stl*cfont.x_size);
 1157              		.loc 2 240 0
 1158 000c 104B     		ldr	r3, .L105
 239:..\..\common\lib\nokia5110/LCD5110_Graph.c **** 	if (x == RIGHT)
 1159              		.loc 2 239 0
 1160 000e 0600     		movs	r6, r0
 1161              	.LVL112:
 240:..\..\common\lib\nokia5110/LCD5110_Graph.c **** 		x = 84-(stl*cfont.x_size);
 1162              		.loc 2 240 0
 1163 0010 9C42     		cmp	r4, r3
 1164 0012 04D1     		bne	.L100
 241:..\..\common\lib\nokia5110/LCD5110_Graph.c **** 	if (x == CENTER)
 1165              		.loc 2 241 0
 1166 0014 0F4B     		ldr	r3, .L105+4
 1167 0016 1C79     		ldrb	r4, [r3, #4]
 1168              	.LVL113:
 1169 0018 5423     		movs	r3, #84
 1170 001a 4443     		muls	r4, r0
 1171 001c 1C1B     		subs	r4, r3, r4
 1172              	.LVL114:
 1173              	.L100:
 242:..\..\common\lib\nokia5110/LCD5110_Graph.c **** 		x = (84-(stl*cfont.x_size))/2;
 1174              		.loc 2 242 0
 1175 001e 0E4B     		ldr	r3, .L105+8
 1176 0020 9C42     		cmp	r4, r3
 1177 0022 07D1     		bne	.L101
 243:..\..\common\lib\nokia5110/LCD5110_Graph.c **** 
 1178              		.loc 2 243 0
 1179 0024 0B4B     		ldr	r3, .L105+4
 1180 0026 1C79     		ldrb	r4, [r3, #4]
 1181              	.LVL115:
 1182 0028 5423     		movs	r3, #84
 1183 002a 7443     		muls	r4, r6
 1184 002c 1C1B     		subs	r4, r3, r4
 1185 002e E30F     		lsrs	r3, r4, #31
 1186 0030 1C19     		adds	r4, r3, r4
 1187 0032 6410     		asrs	r4, r4, #1
 1188              	.LVL116:
 1189              	.L101:
 246:..\..\common\lib\nokia5110/LCD5110_Graph.c **** 			_print_char(*st++, x + (cnt*(cfont.x_size)), y);
 1190              		.loc 2 246 0
 1191 0034 0025     		movs	r5, #0
 1192              	.LVL117:
 1193              	.L102:
 246:..\..\common\lib\nokia5110/LCD5110_Graph.c **** 			_print_char(*st++, x + (cnt*(cfont.x_size)), y);
 1194              		.loc 2 246 0 is_stmt 0 discriminator 1
 1195 0036 B542     		cmp	r5, r6
 1196 0038 09DA     		bge	.L104
 1197              	.LVL118:
 247:..\..\common\lib\nokia5110/LCD5110_Graph.c **** }
ARM GAS  C:\Users\Petro\AppData\Local\Temp\ccEiKVD5.s 			page 31


 1198              		.loc 2 247 0 is_stmt 1 discriminator 3
 1199 003a 064B     		ldr	r3, .L105+4
 1200 003c 785D     		ldrb	r0, [r7, r5]
 1201 003e 1979     		ldrb	r1, [r3, #4]
 1202 0040 019A     		ldr	r2, [sp, #4]
 1203 0042 6943     		muls	r1, r5
 1204 0044 0919     		adds	r1, r1, r4
 1205 0046 FFF7FEFF 		bl	_print_char
 1206              	.LVL119:
 246:..\..\common\lib\nokia5110/LCD5110_Graph.c **** 			_print_char(*st++, x + (cnt*(cfont.x_size)), y);
 1207              		.loc 2 246 0 discriminator 3
 1208 004a 0135     		adds	r5, r5, #1
 1209              	.LVL120:
 1210 004c F3E7     		b	.L102
 1211              	.L104:
 248:..\..\common\lib\nokia5110/LCD5110_Graph.c **** 
 1212              		.loc 2 248 0
 1213              		@ sp needed
 1214              	.LVL121:
 1215              	.LVL122:
 1216              	.LVL123:
 1217 004e F7BD     		pop	{r0, r1, r2, r4, r5, r6, r7, pc}
 1218              	.L106:
 1219              		.align	2
 1220              	.L105:
 1221 0050 0F270000 		.word	9999
 1222 0054 00000000 		.word	cfont
 1223 0058 0E270000 		.word	9998
 1224              		.cfi_endproc
 1225              	.LFE77:
 1226              		.size	print, .-print
 1227              		.section	.text.prints,"ax",%progbits
 1228              		.align	1
 1229              		.global	prints
 1230              		.code	16
 1231              		.thumb_func
 1232              		.type	prints, %function
 1233              	prints:
 1234              	.LFB78:
 251:..\..\common\lib\nokia5110/LCD5110_Graph.c **** //	char buf[st.length()+1];
 1235              		.loc 2 251 0
 1236              		.cfi_startproc
 1237              		@ args = 0, pretend = 0, frame = 0
 1238              		@ frame_needed = 0, uses_anonymous_args = 0
 1239              	.LVL124:
 1240 0000 10B5     		push	{r4, lr}
 1241              		.cfi_def_cfa_offset 8
 1242              		.cfi_offset 4, -8
 1243              		.cfi_offset 14, -4
 255:..\..\common\lib\nokia5110/LCD5110_Graph.c **** }
 1244              		.loc 2 255 0
 1245 0002 FFF7FEFF 		bl	print
 1246              	.LVL125:
 256:..\..\common\lib\nokia5110/LCD5110_Graph.c **** 
 1247              		.loc 2 256 0
 1248              		@ sp needed
 1249 0006 10BD     		pop	{r4, pc}
ARM GAS  C:\Users\Petro\AppData\Local\Temp\ccEiKVD5.s 			page 32


 1250              		.cfi_endproc
 1251              	.LFE78:
 1252              		.size	prints, .-prints
 1253              		.global	__aeabi_idivmod
 1254              		.global	__aeabi_idiv
 1255              		.section	.text.printNumI,"ax",%progbits
 1256              		.align	1
 1257              		.global	printNumI
 1258              		.code	16
 1259              		.thumb_func
 1260              		.type	printNumI, %function
 1261              	printNumI:
 1262              	.LFB79:
 259:..\..\common\lib\nokia5110/LCD5110_Graph.c **** 	char buf[25];
 1263              		.loc 2 259 0
 1264              		.cfi_startproc
 1265              		@ args = 4, pretend = 0, frame = 72
 1266              		@ frame_needed = 0, uses_anonymous_args = 0
 1267              	.LVL126:
 1268 0000 F0B5     		push	{r4, r5, r6, r7, lr}
 1269              		.cfi_def_cfa_offset 20
 1270              		.cfi_offset 4, -20
 1271              		.cfi_offset 5, -16
 1272              		.cfi_offset 6, -12
 1273              		.cfi_offset 7, -8
 1274              		.cfi_offset 14, -4
 1275 0002 93B0     		sub	sp, sp, #76
 1276              		.cfi_def_cfa_offset 96
 259:..\..\common\lib\nokia5110/LCD5110_Graph.c **** 	char buf[25];
 1277              		.loc 2 259 0
 1278 0004 1D00     		movs	r5, r3
 1279 0006 18AB     		add	r3, sp, #96
 1280              	.LVL127:
 1281 0008 1B78     		ldrb	r3, [r3]
 1282              	.LVL128:
 1283 000a 041E     		subs	r4, r0, #0
 1284 000c 0291     		str	r1, [sp, #8]
 1285 000e 0392     		str	r2, [sp, #12]
 1286 0010 0193     		str	r3, [sp, #4]
 265:..\..\common\lib\nokia5110/LCD5110_Graph.c **** 	{
 1287              		.loc 2 265 0
 1288 0012 14D1     		bne	.L109
 1289 0014 0BA8     		add	r0, sp, #44
 1290              	.LVL129:
 267:..\..\common\lib\nokia5110/LCD5110_Graph.c **** 		{
 1291              		.loc 2 267 0
 1292 0016 002D     		cmp	r5, #0
 1293 0018 0DD0     		beq	.L110
 269:..\..\common\lib\nokia5110/LCD5110_Graph.c **** 				st[c]=filler;
 1294              		.loc 2 269 0 discriminator 1
 1295 001a 013D     		subs	r5, r5, #1
 1296              	.LVL130:
 1297              	.L111:
 1298 001c AC42     		cmp	r4, r5
 1299 001e 04DA     		bge	.L129
 270:..\..\common\lib\nokia5110/LCD5110_Graph.c **** 			st[c]=48;
 1300              		.loc 2 270 0 discriminator 3
ARM GAS  C:\Users\Petro\AppData\Local\Temp\ccEiKVD5.s 			page 33


 1301 0020 6B46     		mov	r3, sp
 1302 0022 1B79     		ldrb	r3, [r3, #4]
 1303 0024 0355     		strb	r3, [r0, r4]
 269:..\..\common\lib\nokia5110/LCD5110_Graph.c **** 				st[c]=filler;
 1304              		.loc 2 269 0 discriminator 3
 1305 0026 0134     		adds	r4, r4, #1
 1306              	.LVL131:
 1307 0028 F8E7     		b	.L111
 1308              	.L129:
 271:..\..\common\lib\nokia5110/LCD5110_Graph.c **** 			st[c+1]=0;
 1309              		.loc 2 271 0
 1310 002a 3023     		movs	r3, #48
 1311 002c 0355     		strb	r3, [r0, r4]
 272:..\..\common\lib\nokia5110/LCD5110_Graph.c **** 		}
 1312              		.loc 2 272 0
 1313 002e 0023     		movs	r3, #0
 1314 0030 0419     		adds	r4, r0, r4
 1315              	.LVL132:
 1316 0032 6370     		strb	r3, [r4, #1]
 1317 0034 41E0     		b	.L113
 1318              	.LVL133:
 1319              	.L110:
 276:..\..\common\lib\nokia5110/LCD5110_Graph.c **** 			st[1]=0;
 1320              		.loc 2 276 0
 1321 0036 3023     		movs	r3, #48
 277:..\..\common\lib\nokia5110/LCD5110_Graph.c **** 		}
 1322              		.loc 2 277 0
 1323 0038 4570     		strb	r5, [r0, #1]
 276:..\..\common\lib\nokia5110/LCD5110_Graph.c **** 			st[1]=0;
 1324              		.loc 2 276 0
 1325 003a 0370     		strb	r3, [r0]
 1326 003c 3DE0     		b	.L113
 1327              	.LVL134:
 1328              	.L109:
 262:..\..\common\lib\nokia5110/LCD5110_Graph.c **** 	int c=0, f=0;
 1329              		.loc 2 262 0
 1330 003e 0026     		movs	r6, #0
 1331              	.LBB26:
 282:..\..\common\lib\nokia5110/LCD5110_Graph.c **** 		{
 1332              		.loc 2 282 0
 1333 0040 B042     		cmp	r0, r6
 1334 0042 01DA     		bge	.L114
 1335              	.LVL135:
 285:..\..\common\lib\nokia5110/LCD5110_Graph.c **** 		}
 1336              		.loc 2 285 0
 1337 0044 4442     		rsbs	r4, r0, #0
 1338              	.LVL136:
 284:..\..\common\lib\nokia5110/LCD5110_Graph.c **** 			num=-num;
 1339              		.loc 2 284 0
 1340 0046 0136     		adds	r6, r6, #1
 1341              	.LVL137:
 1342              	.L114:
 1343              	.LBE26:
 262:..\..\common\lib\nokia5110/LCD5110_Graph.c **** 	int c=0, f=0;
 1344              		.loc 2 262 0
 1345 0048 0027     		movs	r7, #0
 1346              	.LVL138:
ARM GAS  C:\Users\Petro\AppData\Local\Temp\ccEiKVD5.s 			page 34


 1347              	.L115:
 1348              	.LBB28:
 290:..\..\common\lib\nokia5110/LCD5110_Graph.c **** 			c++;
 1349              		.loc 2 290 0
 1350 004a 2000     		movs	r0, r4
 1351 004c 0A21     		movs	r1, #10
 1352 004e FFF7FEFF 		bl	__aeabi_idivmod
 1353              	.LVL139:
 1354 0052 0B00     		movs	r3, r1
 1355 0054 04AA     		add	r2, sp, #16
 1356 0056 3033     		adds	r3, r3, #48
 292:..\..\common\lib\nokia5110/LCD5110_Graph.c **** 		}
 1357              		.loc 2 292 0
 1358 0058 601A     		subs	r0, r4, r1
 290:..\..\common\lib\nokia5110/LCD5110_Graph.c **** 			c++;
 1359              		.loc 2 290 0
 1360 005a BB54     		strb	r3, [r7, r2]
 292:..\..\common\lib\nokia5110/LCD5110_Graph.c **** 		}
 1361              		.loc 2 292 0
 1362 005c 0A21     		movs	r1, #10
 1363 005e FFF7FEFF 		bl	__aeabi_idiv
 1364              	.LVL140:
 291:..\..\common\lib\nokia5110/LCD5110_Graph.c **** 			num=(num-(num % 10))/10;
 1365              		.loc 2 291 0
 1366 0062 0137     		adds	r7, r7, #1
 1367              	.LVL141:
 292:..\..\common\lib\nokia5110/LCD5110_Graph.c **** 		}
 1368              		.loc 2 292 0
 1369 0064 041E     		subs	r4, r0, #0
 1370              	.LVL142:
 288:..\..\common\lib\nokia5110/LCD5110_Graph.c **** 		{
 1371              		.loc 2 288 0
 1372 0066 F0D1     		bne	.L115
 294:..\..\common\lib\nokia5110/LCD5110_Graph.c **** 	  
 1373              		.loc 2 294 0
 1374 0068 04AB     		add	r3, sp, #16
 1375 006a D855     		strb	r0, [r3, r7]
 296:..\..\common\lib\nokia5110/LCD5110_Graph.c **** 		{
 1376              		.loc 2 296 0
 1377 006c 002E     		cmp	r6, #0
 1378 006e 02D0     		beq	.L116
 298:..\..\common\lib\nokia5110/LCD5110_Graph.c **** 		}
 1379              		.loc 2 298 0
 1380 0070 2D22     		movs	r2, #45
 1381 0072 0BAB     		add	r3, sp, #44
 1382 0074 1A70     		strb	r2, [r3]
 1383              	.L116:
 301:..\..\common\lib\nokia5110/LCD5110_Graph.c **** 		{
 1384              		.loc 2 301 0
 1385 0076 B919     		adds	r1, r7, r6
 1386              	.LBE28:
 263:..\..\common\lib\nokia5110/LCD5110_Graph.c ****   
 1387              		.loc 2 263 0
 1388 0078 0023     		movs	r3, #0
 1389              	.LBB29:
 301:..\..\common\lib\nokia5110/LCD5110_Graph.c **** 		{
 1390              		.loc 2 301 0
ARM GAS  C:\Users\Petro\AppData\Local\Temp\ccEiKVD5.s 			page 35


 1391 007a 8D42     		cmp	r5, r1
 1392 007c 0DDD     		ble	.L117
 1393              	.LBB27:
 304:..\..\common\lib\nokia5110/LCD5110_Graph.c **** 			{
 1394              		.loc 2 304 0 discriminator 1
 1395 007e EA1B     		subs	r2, r5, r7
 1396 0080 921B     		subs	r2, r2, r6
 1397              	.LVL143:
 1398              	.L118:
 1399 0082 9342     		cmp	r3, r2
 1400 0084 06DA     		bge	.L130
 306:..\..\common\lib\nokia5110/LCD5110_Graph.c **** 				f++;
 1401              		.loc 2 306 0 discriminator 3
 1402 0086 6C46     		mov	r4, sp
 1403 0088 0BA8     		add	r0, sp, #44
 1404 008a 2479     		ldrb	r4, [r4, #4]
 1405 008c 8019     		adds	r0, r0, r6
 1406 008e C454     		strb	r4, [r0, r3]
 307:..\..\common\lib\nokia5110/LCD5110_Graph.c **** 			}
 1407              		.loc 2 307 0 discriminator 3
 1408 0090 0133     		adds	r3, r3, #1
 1409              	.LVL144:
 1410 0092 F6E7     		b	.L118
 1411              	.L130:
 1412 0094 D343     		mvns	r3, r2
 1413              	.LVL145:
 1414 0096 DB17     		asrs	r3, r3, #31
 1415 0098 1340     		ands	r3, r2
 1416              	.L117:
 1417              	.LVL146:
 1418              	.LBE27:
 312:..\..\common\lib\nokia5110/LCD5110_Graph.c **** 		{
 1419              		.loc 2 312 0
 1420 009a 0022     		movs	r2, #0
 314:..\..\common\lib\nokia5110/LCD5110_Graph.c **** 		}
 1421              		.loc 2 314 0
 1422 009c 9E19     		adds	r6, r3, r6
 1423              	.LVL147:
 1424 009e 0BA8     		add	r0, sp, #44
 1425 00a0 8619     		adds	r6, r0, r6
 1426              	.LVL148:
 1427              	.L121:
 1428 00a2 B81A     		subs	r0, r7, r2
 314:..\..\common\lib\nokia5110/LCD5110_Graph.c **** 		}
 1429              		.loc 2 314 0 is_stmt 0 discriminator 3
 1430 00a4 0138     		subs	r0, r0, #1
 1431 00a6 04AC     		add	r4, sp, #16
 1432 00a8 205C     		ldrb	r0, [r4, r0]
 1433 00aa B054     		strb	r0, [r6, r2]
 312:..\..\common\lib\nokia5110/LCD5110_Graph.c **** 		{
 1434              		.loc 2 312 0 is_stmt 1 discriminator 3
 1435 00ac 0132     		adds	r2, r2, #1
 1436              	.LVL149:
 1437 00ae 9742     		cmp	r7, r2
 1438 00b0 F7D1     		bne	.L121
 316:..\..\common\lib\nokia5110/LCD5110_Graph.c **** 
 1439              		.loc 2 316 0
ARM GAS  C:\Users\Petro\AppData\Local\Temp\ccEiKVD5.s 			page 36


 1440 00b2 0BAA     		add	r2, sp, #44
 1441              	.LVL150:
 1442 00b4 D318     		adds	r3, r2, r3
 1443              	.LVL151:
 1444 00b6 0022     		movs	r2, #0
 1445 00b8 5A54     		strb	r2, [r3, r1]
 1446              	.LVL152:
 1447              	.L113:
 1448              	.LBE29:
 320:..\..\common\lib\nokia5110/LCD5110_Graph.c **** }
 1449              		.loc 2 320 0
 1450 00ba 039A     		ldr	r2, [sp, #12]
 1451 00bc 0299     		ldr	r1, [sp, #8]
 1452 00be 0BA8     		add	r0, sp, #44
 1453 00c0 FFF7FEFF 		bl	print
 1454              	.LVL153:
 321:..\..\common\lib\nokia5110/LCD5110_Graph.c **** 
 1455              		.loc 2 321 0
 1456 00c4 13B0     		add	sp, sp, #76
 1457              		@ sp needed
 1458 00c6 F0BD     		pop	{r4, r5, r6, r7, pc}
 1459              		.cfi_endproc
 1460              	.LFE79:
 1461              		.size	printNumI, .-printNumI
 1462              		.global	__aeabi_dcmplt
 1463              		.section	.text.printNumF,"ax",%progbits
 1464              		.align	1
 1465              		.global	printNumF
 1466              		.code	16
 1467              		.thumb_func
 1468              		.type	printNumF, %function
 1469              	printNumF:
 1470              	.LFB80:
 324:..\..\common\lib\nokia5110/LCD5110_Graph.c **** 	char st[27];
 1471              		.loc 2 324 0
 1472              		.cfi_startproc
 1473              		@ args = 16, pretend = 0, frame = 48
 1474              		@ frame_needed = 0, uses_anonymous_args = 0
 1475              	.LVL154:
 1476 0000 F0B5     		push	{r4, r5, r6, r7, lr}
 1477              		.cfi_def_cfa_offset 20
 1478              		.cfi_offset 4, -20
 1479              		.cfi_offset 5, -16
 1480              		.cfi_offset 6, -12
 1481              		.cfi_offset 7, -8
 1482              		.cfi_offset 14, -4
 1483 0002 0F00     		movs	r7, r1
 1484 0004 8FB0     		sub	sp, sp, #60
 1485              		.cfi_def_cfa_offset 80
 324:..\..\common\lib\nokia5110/LCD5110_Graph.c **** 	char st[27];
 1486              		.loc 2 324 0
 1487 0006 0493     		str	r3, [sp, #16]
 1488 0008 14AB     		add	r3, sp, #80
 1489              	.LVL155:
 1490 000a 02CB     		ldmia	r3!, {r1}
 1491              	.LVL156:
 332:..\..\common\lib\nokia5110/LCD5110_Graph.c **** 
ARM GAS  C:\Users\Petro\AppData\Local\Temp\ccEiKVD5.s 			page 37


 1492              		.loc 2 332 0
 1493 000c 07AC     		add	r4, sp, #28
 324:..\..\common\lib\nokia5110/LCD5110_Graph.c **** 	char st[27];
 1494              		.loc 2 324 0
 1495 000e 1B78     		ldrb	r3, [r3]
 1496              	.LVL157:
 1497 0010 0600     		movs	r6, r0
 1498              	.LVL158:
 1499 0012 0393     		str	r3, [sp, #12]
 1500 0014 17AB     		add	r3, sp, #92
 1501              	.LVL159:
 1502 0016 1D78     		ldrb	r5, [r3]
 332:..\..\common\lib\nokia5110/LCD5110_Graph.c **** 
 1503              		.loc 2 332 0
 1504 0018 169B     		ldr	r3, [sp, #88]
 1505              	.LVL160:
 1506 001a 0192     		str	r2, [sp, #4]
 1507 001c 0093     		str	r3, [sp]
 1508 001e 0200     		movs	r2, r0
 1509              	.LVL161:
 1510 0020 3B00     		movs	r3, r7
 1511 0022 2000     		movs	r0, r4
 1512              	.LVL162:
 324:..\..\common\lib\nokia5110/LCD5110_Graph.c **** 	char st[27];
 1513              		.loc 2 324 0
 1514 0024 0591     		str	r1, [sp, #20]
 332:..\..\common\lib\nokia5110/LCD5110_Graph.c **** 
 1515              		.loc 2 332 0
 1516 0026 FFF7FEFF 		bl	_convert_float
 1517              	.LVL163:
 334:..\..\common\lib\nokia5110/LCD5110_Graph.c **** 	{
 1518              		.loc 2 334 0
 1519 002a 039A     		ldr	r2, [sp, #12]
 1520 002c 0023     		movs	r3, #0
 1521 002e 2E2A     		cmp	r2, #46
 1522 0030 05D1     		bne	.L148
 1523              	.L137:
 343:..\..\common\lib\nokia5110/LCD5110_Graph.c **** 	{
 1524              		.loc 2 343 0
 1525 0032 202D     		cmp	r5, #32
 1526 0034 0AD1     		bne	.L133
 1527 0036 1CE0     		b	.L134
 1528              	.LVL164:
 1529              	.L135:
 1530              	.LBB30:
 338:..\..\common\lib\nokia5110/LCD5110_Graph.c **** 			if (st[i]=='.')
 1531              		.loc 2 338 0 discriminator 2
 1532 0038 0133     		adds	r3, r3, #1
 1533              	.LVL165:
 1534 003a 1B2B     		cmp	r3, #27
 1535 003c F9D0     		beq	.L137
 1536              	.LVL166:
 1537              	.L148:
 339:..\..\common\lib\nokia5110/LCD5110_Graph.c **** 				st[i]=divider;
 1538              		.loc 2 339 0
 1539 003e E25C     		ldrb	r2, [r4, r3]
 1540 0040 2E2A     		cmp	r2, #46
ARM GAS  C:\Users\Petro\AppData\Local\Temp\ccEiKVD5.s 			page 38


 1541 0042 F9D1     		bne	.L135
 340:..\..\common\lib\nokia5110/LCD5110_Graph.c **** 	}
 1542              		.loc 2 340 0
 1543 0044 6A46     		mov	r2, sp
 1544 0046 127B     		ldrb	r2, [r2, #12]
 1545 0048 E254     		strb	r2, [r4, r3]
 1546 004a F5E7     		b	.L135
 1547              	.LVL167:
 1548              	.L133:
 1549              	.LBE30:
 345:..\..\common\lib\nokia5110/LCD5110_Graph.c **** 		{
 1550              		.loc 2 345 0
 1551 004c 0022     		movs	r2, #0
 1552 004e 0023     		movs	r3, #0
 1553 0050 3000     		movs	r0, r6
 1554 0052 3900     		movs	r1, r7
 1555 0054 FFF7FEFF 		bl	__aeabi_dcmplt
 1556              	.LVL168:
 1557 0058 0028     		cmp	r0, #0
 1558 005a 16D0     		beq	.L144
 1559              	.LBB31:
 347:..\..\common\lib\nokia5110/LCD5110_Graph.c ****             size = sizeof st;
 1560              		.loc 2 347 0
 1561 005c 2D23     		movs	r3, #45
 1562 005e 2370     		strb	r3, [r4]
 1563              	.LVL169:
 350:..\..\common\lib\nokia5110/LCD5110_Graph.c **** 				if ((st[i]==' ') || (st[i]=='-'))
 1564              		.loc 2 350 0
 1565 0060 2C3B     		subs	r3, r3, #44
 1566              	.LVL170:
 1567              	.L142:
 351:..\..\common\lib\nokia5110/LCD5110_Graph.c **** 					st[i]=filler;
 1568              		.loc 2 351 0
 1569 0062 E25C     		ldrb	r2, [r4, r3]
 1570 0064 202A     		cmp	r2, #32
 1571 0066 0BD0     		beq	.L140
 351:..\..\common\lib\nokia5110/LCD5110_Graph.c **** 					st[i]=filler;
 1572              		.loc 2 351 0 is_stmt 0 discriminator 1
 1573 0068 2D2A     		cmp	r2, #45
 1574 006a 09D0     		beq	.L140
 1575              	.L141:
 350:..\..\common\lib\nokia5110/LCD5110_Graph.c **** 				if ((st[i]==' ') || (st[i]=='-'))
 1576              		.loc 2 350 0 is_stmt 1 discriminator 2
 1577 006c 0133     		adds	r3, r3, #1
 1578              	.LVL171:
 1579 006e 1B2B     		cmp	r3, #27
 1580 0070 F7D1     		bne	.L142
 1581              	.LVL172:
 1582              	.L134:
 1583              	.LBE31:
 364:..\..\common\lib\nokia5110/LCD5110_Graph.c **** }
 1584              		.loc 2 364 0
 1585 0072 059A     		ldr	r2, [sp, #20]
 1586 0074 0499     		ldr	r1, [sp, #16]
 1587 0076 2000     		movs	r0, r4
 1588 0078 FFF7FEFF 		bl	print
 1589              	.LVL173:
ARM GAS  C:\Users\Petro\AppData\Local\Temp\ccEiKVD5.s 			page 39


 365:..\..\common\lib\nokia5110/LCD5110_Graph.c **** 
 1590              		.loc 2 365 0
 1591 007c 0FB0     		add	sp, sp, #60
 1592              		@ sp needed
 1593              	.LVL174:
 1594 007e F0BD     		pop	{r4, r5, r6, r7, pc}
 1595              	.LVL175:
 1596              	.L140:
 1597              	.LBB32:
 352:..\..\common\lib\nokia5110/LCD5110_Graph.c **** 		}
 1598              		.loc 2 352 0
 1599 0080 E554     		strb	r5, [r4, r3]
 1600 0082 F3E7     		b	.L141
 1601              	.LVL176:
 1602              	.L143:
 1603              	.LBE32:
 1604              	.LBB33:
 358:..\..\common\lib\nokia5110/LCD5110_Graph.c **** 				if (st[i]==' ')
 1605              		.loc 2 358 0 discriminator 2
 1606 0084 0130     		adds	r0, r0, #1
 1607              	.LVL177:
 1608 0086 1B28     		cmp	r0, #27
 1609 0088 F3D0     		beq	.L134
 1610              	.LVL178:
 1611              	.L144:
 359:..\..\common\lib\nokia5110/LCD5110_Graph.c **** 					st[i]=filler;
 1612              		.loc 2 359 0
 1613 008a 235C     		ldrb	r3, [r4, r0]
 1614 008c 202B     		cmp	r3, #32
 1615 008e F9D1     		bne	.L143
 360:..\..\common\lib\nokia5110/LCD5110_Graph.c **** 		}
 1616              		.loc 2 360 0
 1617 0090 2554     		strb	r5, [r4, r0]
 1618 0092 F7E7     		b	.L143
 1619              	.LBE33:
 1620              		.cfi_endproc
 1621              	.LFE80:
 1622              		.size	printNumF, .-printNumF
 1623              		.section	.text.setFont,"ax",%progbits
 1624              		.align	1
 1625              		.global	setFont
 1626              		.code	16
 1627              		.thumb_func
 1628              		.type	setFont, %function
 1629              	setFont:
 1630              	.LFB82:
 425:..\..\common\lib\nokia5110/LCD5110_Graph.c **** 
 426:..\..\common\lib\nokia5110/LCD5110_Graph.c **** void setFont(uint8_t* font)
 427:..\..\common\lib\nokia5110/LCD5110_Graph.c **** {
 1631              		.loc 2 427 0
 1632              		.cfi_startproc
 1633              		@ args = 0, pretend = 0, frame = 0
 1634              		@ frame_needed = 0, uses_anonymous_args = 0
 1635              		@ link register save eliminated.
 1636              	.LVL179:
 428:..\..\common\lib\nokia5110/LCD5110_Graph.c **** 	cfont.font=font;
 1637              		.loc 2 428 0
ARM GAS  C:\Users\Petro\AppData\Local\Temp\ccEiKVD5.s 			page 40


 1638 0000 064B     		ldr	r3, .L156
 429:..\..\common\lib\nokia5110/LCD5110_Graph.c **** 	cfont.x_size=fontbyte(0);
 430:..\..\common\lib\nokia5110/LCD5110_Graph.c **** 	cfont.y_size=fontbyte(1);
 431:..\..\common\lib\nokia5110/LCD5110_Graph.c **** 	cfont.offset=fontbyte(2);
 432:..\..\common\lib\nokia5110/LCD5110_Graph.c **** 	cfont.numchars=fontbyte(3);
 433:..\..\common\lib\nokia5110/LCD5110_Graph.c **** 	cfont.inverted=0;
 434:..\..\common\lib\nokia5110/LCD5110_Graph.c **** }
 1639              		.loc 2 434 0
 1640              		@ sp needed
 428:..\..\common\lib\nokia5110/LCD5110_Graph.c **** 	cfont.font=font;
 1641              		.loc 2 428 0
 1642 0002 1860     		str	r0, [r3]
 429:..\..\common\lib\nokia5110/LCD5110_Graph.c **** 	cfont.x_size=fontbyte(0);
 1643              		.loc 2 429 0
 1644 0004 0278     		ldrb	r2, [r0]
 1645 0006 1A71     		strb	r2, [r3, #4]
 430:..\..\common\lib\nokia5110/LCD5110_Graph.c **** 	cfont.offset=fontbyte(2);
 1646              		.loc 2 430 0
 1647 0008 4278     		ldrb	r2, [r0, #1]
 1648 000a 5A71     		strb	r2, [r3, #5]
 431:..\..\common\lib\nokia5110/LCD5110_Graph.c **** 	cfont.numchars=fontbyte(3);
 1649              		.loc 2 431 0
 1650 000c 8278     		ldrb	r2, [r0, #2]
 1651 000e 9A71     		strb	r2, [r3, #6]
 432:..\..\common\lib\nokia5110/LCD5110_Graph.c **** 	cfont.inverted=0;
 1652              		.loc 2 432 0
 1653 0010 C278     		ldrb	r2, [r0, #3]
 1654 0012 DA71     		strb	r2, [r3, #7]
 433:..\..\common\lib\nokia5110/LCD5110_Graph.c **** }
 1655              		.loc 2 433 0
 1656 0014 0022     		movs	r2, #0
 1657 0016 1A72     		strb	r2, [r3, #8]
 1658              		.loc 2 434 0
 1659 0018 7047     		bx	lr
 1660              	.L157:
 1661 001a C046     		.align	2
 1662              	.L156:
 1663 001c 00000000 		.word	cfont
 1664              		.cfi_endproc
 1665              	.LFE82:
 1666              		.size	setFont, .-setFont
 1667              		.section	.text.drawHLine,"ax",%progbits
 1668              		.align	1
 1669              		.global	drawHLine
 1670              		.code	16
 1671              		.thumb_func
 1672              		.type	drawHLine, %function
 1673              	drawHLine:
 1674              	.LFB83:
 435:..\..\common\lib\nokia5110/LCD5110_Graph.c **** 
 436:..\..\common\lib\nokia5110/LCD5110_Graph.c **** void drawHLine(int x, int y, int l)
 437:..\..\common\lib\nokia5110/LCD5110_Graph.c **** {
 1675              		.loc 2 437 0
 1676              		.cfi_startproc
 1677              		@ args = 0, pretend = 0, frame = 0
 1678              		@ frame_needed = 0, uses_anonymous_args = 0
 1679              	.LVL180:
ARM GAS  C:\Users\Petro\AppData\Local\Temp\ccEiKVD5.s 			page 41


 1680 0000 70B5     		push	{r4, r5, r6, lr}
 1681              		.cfi_def_cfa_offset 16
 1682              		.cfi_offset 4, -16
 1683              		.cfi_offset 5, -12
 1684              		.cfi_offset 6, -8
 1685              		.cfi_offset 14, -4
 438:..\..\common\lib\nokia5110/LCD5110_Graph.c **** 	int by, bi;
 439:..\..\common\lib\nokia5110/LCD5110_Graph.c **** 
 440:..\..\common\lib\nokia5110/LCD5110_Graph.c **** 	if ((x>=0) && (x<84) && (y>=0) && (y<48))
 1686              		.loc 2 440 0
 1687 0002 5328     		cmp	r0, #83
 1688 0004 14D8     		bhi	.L158
 1689              		.loc 2 440 0 is_stmt 0 discriminator 2
 1690 0006 2F29     		cmp	r1, #47
 1691 0008 12D8     		bhi	.L158
 1692 000a 5423     		movs	r3, #84
 1693 000c CC10     		asrs	r4, r1, #3
 1694 000e 6343     		muls	r3, r4
 1695              	.LBB38:
 1696              	.LBB39:
 1697              	.LBB40:
 441:..\..\common\lib\nokia5110/LCD5110_Graph.c **** 	{
 442:..\..\common\lib\nokia5110/LCD5110_Graph.c ****         int cx;
 443:..\..\common\lib\nokia5110/LCD5110_Graph.c **** 		for (cx=0; cx<l; cx++)
 444:..\..\common\lib\nokia5110/LCD5110_Graph.c **** 		{
 445:..\..\common\lib\nokia5110/LCD5110_Graph.c **** 			by=((y/8)*84)+x;
 1698              		.loc 2 445 0 is_stmt 1
 1699 0010 1818     		adds	r0, r3, r0
 1700              	.LVL181:
 446:..\..\common\lib\nokia5110/LCD5110_Graph.c **** 			bi=y % 8;
 447:..\..\common\lib\nokia5110/LCD5110_Graph.c **** 
 448:..\..\common\lib\nokia5110/LCD5110_Graph.c **** 			scrbuf[by+cx] |= (1<<bi);
 1701              		.loc 2 448 0
 1702 0012 0723     		movs	r3, #7
 1703 0014 0B40     		ands	r3, r1
 1704 0016 0121     		movs	r1, #1
 1705              	.LVL182:
 1706 0018 9940     		lsls	r1, r1, r3
 1707 001a 0023     		movs	r3, #0
 1708 001c 054E     		ldr	r6, .L163
 1709 001e 49B2     		sxtb	r1, r1
 1710              	.L161:
 1711              	.LVL183:
 443:..\..\common\lib\nokia5110/LCD5110_Graph.c **** 		{
 1712              		.loc 2 443 0
 1713 0020 9A42     		cmp	r2, r3
 1714 0022 05DD     		ble	.L158
 1715              	.LVL184:
 1716 0024 8519     		adds	r5, r0, r6
 1717              		.loc 2 448 0
 1718 0026 EC5C     		ldrb	r4, [r5, r3]
 1719 0028 0C43     		orrs	r4, r1
 1720 002a EC54     		strb	r4, [r5, r3]
 443:..\..\common\lib\nokia5110/LCD5110_Graph.c **** 		{
 1721              		.loc 2 443 0
 1722 002c 0133     		adds	r3, r3, #1
 1723              	.LVL185:
ARM GAS  C:\Users\Petro\AppData\Local\Temp\ccEiKVD5.s 			page 42


 1724 002e F7E7     		b	.L161
 1725              	.LVL186:
 1726              	.L158:
 1727              	.LBE40:
 1728              	.LBE39:
 1729              	.LBE38:
 449:..\..\common\lib\nokia5110/LCD5110_Graph.c **** 		}
 450:..\..\common\lib\nokia5110/LCD5110_Graph.c **** 	}
 451:..\..\common\lib\nokia5110/LCD5110_Graph.c **** }
 1730              		.loc 2 451 0
 1731              		@ sp needed
 1732 0030 70BD     		pop	{r4, r5, r6, pc}
 1733              	.L164:
 1734 0032 C046     		.align	2
 1735              	.L163:
 1736 0034 00000000 		.word	scrbuf
 1737              		.cfi_endproc
 1738              	.LFE83:
 1739              		.size	drawHLine, .-drawHLine
 1740              		.section	.text.clrHLine,"ax",%progbits
 1741              		.align	1
 1742              		.global	clrHLine
 1743              		.code	16
 1744              		.thumb_func
 1745              		.type	clrHLine, %function
 1746              	clrHLine:
 1747              	.LFB84:
 452:..\..\common\lib\nokia5110/LCD5110_Graph.c **** 
 453:..\..\common\lib\nokia5110/LCD5110_Graph.c **** void clrHLine(int x, int y, int l)
 454:..\..\common\lib\nokia5110/LCD5110_Graph.c **** {
 1748              		.loc 2 454 0
 1749              		.cfi_startproc
 1750              		@ args = 0, pretend = 0, frame = 0
 1751              		@ frame_needed = 0, uses_anonymous_args = 0
 1752              	.LVL187:
 1753 0000 70B5     		push	{r4, r5, r6, lr}
 1754              		.cfi_def_cfa_offset 16
 1755              		.cfi_offset 4, -16
 1756              		.cfi_offset 5, -12
 1757              		.cfi_offset 6, -8
 1758              		.cfi_offset 14, -4
 455:..\..\common\lib\nokia5110/LCD5110_Graph.c **** 	int by, bi;
 456:..\..\common\lib\nokia5110/LCD5110_Graph.c **** 
 457:..\..\common\lib\nokia5110/LCD5110_Graph.c **** 	if ((x>=0) && (x<84) && (y>=0) && (y<48))
 1759              		.loc 2 457 0
 1760 0002 5328     		cmp	r0, #83
 1761 0004 15D8     		bhi	.L165
 1762              		.loc 2 457 0 is_stmt 0 discriminator 2
 1763 0006 2F29     		cmp	r1, #47
 1764 0008 13D8     		bhi	.L165
 1765 000a 5423     		movs	r3, #84
 1766 000c CC10     		asrs	r4, r1, #3
 1767 000e 6343     		muls	r3, r4
 1768              	.LBB45:
 1769              	.LBB46:
 1770              	.LBB47:
 458:..\..\common\lib\nokia5110/LCD5110_Graph.c **** 	{
ARM GAS  C:\Users\Petro\AppData\Local\Temp\ccEiKVD5.s 			page 43


 459:..\..\common\lib\nokia5110/LCD5110_Graph.c ****         int cx;
 460:..\..\common\lib\nokia5110/LCD5110_Graph.c **** 		for (cx=0; cx<l; cx++)
 461:..\..\common\lib\nokia5110/LCD5110_Graph.c **** 		{
 462:..\..\common\lib\nokia5110/LCD5110_Graph.c **** 			by=((y/8)*84)+x;
 1771              		.loc 2 462 0 is_stmt 1
 1772 0010 1818     		adds	r0, r3, r0
 1773              	.LVL188:
 463:..\..\common\lib\nokia5110/LCD5110_Graph.c **** 			bi=y % 8;
 464:..\..\common\lib\nokia5110/LCD5110_Graph.c **** 
 465:..\..\common\lib\nokia5110/LCD5110_Graph.c **** 			scrbuf[by+cx] &= ~(1<<bi);
 1774              		.loc 2 465 0
 1775 0012 0723     		movs	r3, #7
 1776 0014 1940     		ands	r1, r3
 1777              	.LVL189:
 1778 0016 063B     		subs	r3, r3, #6
 1779 0018 8B40     		lsls	r3, r3, r1
 1780 001a DB43     		mvns	r3, r3
 1781 001c 0021     		movs	r1, #0
 1782 001e 054E     		ldr	r6, .L170
 1783 0020 5BB2     		sxtb	r3, r3
 1784              	.L168:
 1785              	.LVL190:
 460:..\..\common\lib\nokia5110/LCD5110_Graph.c **** 		{
 1786              		.loc 2 460 0
 1787 0022 8A42     		cmp	r2, r1
 1788 0024 05DD     		ble	.L165
 1789              	.LVL191:
 1790 0026 8519     		adds	r5, r0, r6
 1791              		.loc 2 465 0
 1792 0028 6C5C     		ldrb	r4, [r5, r1]
 1793 002a 1C40     		ands	r4, r3
 1794 002c 6C54     		strb	r4, [r5, r1]
 460:..\..\common\lib\nokia5110/LCD5110_Graph.c **** 		{
 1795              		.loc 2 460 0
 1796 002e 0131     		adds	r1, r1, #1
 1797              	.LVL192:
 1798 0030 F7E7     		b	.L168
 1799              	.LVL193:
 1800              	.L165:
 1801              	.LBE47:
 1802              	.LBE46:
 1803              	.LBE45:
 466:..\..\common\lib\nokia5110/LCD5110_Graph.c **** 		}
 467:..\..\common\lib\nokia5110/LCD5110_Graph.c **** 	}
 468:..\..\common\lib\nokia5110/LCD5110_Graph.c **** }
 1804              		.loc 2 468 0
 1805              		@ sp needed
 1806 0032 70BD     		pop	{r4, r5, r6, pc}
 1807              	.L171:
 1808              		.align	2
 1809              	.L170:
 1810 0034 00000000 		.word	scrbuf
 1811              		.cfi_endproc
 1812              	.LFE84:
 1813              		.size	clrHLine, .-clrHLine
 1814              		.section	.text.drawVLine,"ax",%progbits
 1815              		.align	1
ARM GAS  C:\Users\Petro\AppData\Local\Temp\ccEiKVD5.s 			page 44


 1816              		.global	drawVLine
 1817              		.code	16
 1818              		.thumb_func
 1819              		.type	drawVLine, %function
 1820              	drawVLine:
 1821              	.LFB85:
 469:..\..\common\lib\nokia5110/LCD5110_Graph.c **** 
 470:..\..\common\lib\nokia5110/LCD5110_Graph.c **** void drawVLine(int x, int y, int l)
 471:..\..\common\lib\nokia5110/LCD5110_Graph.c **** {
 1822              		.loc 2 471 0
 1823              		.cfi_startproc
 1824              		@ args = 0, pretend = 0, frame = 0
 1825              		@ frame_needed = 0, uses_anonymous_args = 0
 1826              	.LVL194:
 1827 0000 F8B5     		push	{r3, r4, r5, r6, r7, lr}
 1828              		.cfi_def_cfa_offset 24
 1829              		.cfi_offset 3, -24
 1830              		.cfi_offset 4, -20
 1831              		.cfi_offset 5, -16
 1832              		.cfi_offset 6, -12
 1833              		.cfi_offset 7, -8
 1834              		.cfi_offset 14, -4
 1835              		.loc 2 471 0
 1836 0002 0500     		movs	r5, r0
 1837 0004 0E00     		movs	r6, r1
 1838 0006 1700     		movs	r7, r2
 472:..\..\common\lib\nokia5110/LCD5110_Graph.c **** 	int by, bi;
 473:..\..\common\lib\nokia5110/LCD5110_Graph.c **** 
 474:..\..\common\lib\nokia5110/LCD5110_Graph.c **** 	if ((x>=0) && (x<84) && (y>=0) && (y<48))
 1839              		.loc 2 474 0
 1840 0008 5328     		cmp	r0, #83
 1841 000a 0BD8     		bhi	.L172
 1842 000c 0024     		movs	r4, #0
 1843              		.loc 2 474 0 is_stmt 0 discriminator 2
 1844 000e 2F29     		cmp	r1, #47
 1845 0010 08D8     		bhi	.L172
 1846              	.LVL195:
 1847              	.L175:
 1848              	.LBB52:
 1849              	.LBB53:
 1850              	.LBB54:
 475:..\..\common\lib\nokia5110/LCD5110_Graph.c **** 	{
 476:..\..\common\lib\nokia5110/LCD5110_Graph.c ****         int cy;
 477:..\..\common\lib\nokia5110/LCD5110_Graph.c **** 		for (cy=0; cy<l; cy++)
 1851              		.loc 2 477 0 is_stmt 1
 1852 0012 A742     		cmp	r7, r4
 1853 0014 06DD     		ble	.L172
 478:..\..\common\lib\nokia5110/LCD5110_Graph.c **** 		{
 479:..\..\common\lib\nokia5110/LCD5110_Graph.c **** 			setPixel(x, y+cy);
 1854              		.loc 2 479 0
 1855 0016 A119     		adds	r1, r4, r6
 1856 0018 89B2     		uxth	r1, r1
 1857 001a A8B2     		uxth	r0, r5
 1858 001c FFF7FEFF 		bl	setPixel
 1859              	.LVL196:
 477:..\..\common\lib\nokia5110/LCD5110_Graph.c **** 		{
 1860              		.loc 2 477 0
ARM GAS  C:\Users\Petro\AppData\Local\Temp\ccEiKVD5.s 			page 45


 1861 0020 0134     		adds	r4, r4, #1
 1862              	.LVL197:
 1863 0022 F6E7     		b	.L175
 1864              	.LVL198:
 1865              	.L172:
 1866              	.LBE54:
 1867              	.LBE53:
 1868              	.LBE52:
 480:..\..\common\lib\nokia5110/LCD5110_Graph.c **** 		}
 481:..\..\common\lib\nokia5110/LCD5110_Graph.c **** 	}
 482:..\..\common\lib\nokia5110/LCD5110_Graph.c **** }
 1869              		.loc 2 482 0
 1870              		@ sp needed
 1871              	.LVL199:
 1872              	.LVL200:
 1873              	.LVL201:
 1874 0024 F8BD     		pop	{r3, r4, r5, r6, r7, pc}
 1875              		.cfi_endproc
 1876              	.LFE85:
 1877              		.size	drawVLine, .-drawVLine
 1878              		.section	.text.clrVLine,"ax",%progbits
 1879              		.align	1
 1880              		.global	clrVLine
 1881              		.code	16
 1882              		.thumb_func
 1883              		.type	clrVLine, %function
 1884              	clrVLine:
 1885              	.LFB86:
 483:..\..\common\lib\nokia5110/LCD5110_Graph.c **** 
 484:..\..\common\lib\nokia5110/LCD5110_Graph.c **** void clrVLine(int x, int y, int l)
 485:..\..\common\lib\nokia5110/LCD5110_Graph.c **** {
 1886              		.loc 2 485 0
 1887              		.cfi_startproc
 1888              		@ args = 0, pretend = 0, frame = 0
 1889              		@ frame_needed = 0, uses_anonymous_args = 0
 1890              	.LVL202:
 1891 0000 F8B5     		push	{r3, r4, r5, r6, r7, lr}
 1892              		.cfi_def_cfa_offset 24
 1893              		.cfi_offset 3, -24
 1894              		.cfi_offset 4, -20
 1895              		.cfi_offset 5, -16
 1896              		.cfi_offset 6, -12
 1897              		.cfi_offset 7, -8
 1898              		.cfi_offset 14, -4
 1899              		.loc 2 485 0
 1900 0002 0500     		movs	r5, r0
 1901 0004 0E00     		movs	r6, r1
 1902 0006 1700     		movs	r7, r2
 486:..\..\common\lib\nokia5110/LCD5110_Graph.c **** 	int by, bi;
 487:..\..\common\lib\nokia5110/LCD5110_Graph.c **** 
 488:..\..\common\lib\nokia5110/LCD5110_Graph.c **** 	if ((x>=0) && (x<84) && (y>=0) && (y<48))
 1903              		.loc 2 488 0
 1904 0008 5328     		cmp	r0, #83
 1905 000a 0BD8     		bhi	.L177
 1906 000c 0024     		movs	r4, #0
 1907              		.loc 2 488 0 is_stmt 0 discriminator 2
 1908 000e 2F29     		cmp	r1, #47
ARM GAS  C:\Users\Petro\AppData\Local\Temp\ccEiKVD5.s 			page 46


 1909 0010 08D8     		bhi	.L177
 1910              	.LVL203:
 1911              	.L180:
 1912              	.LBB59:
 1913              	.LBB60:
 1914              	.LBB61:
 489:..\..\common\lib\nokia5110/LCD5110_Graph.c **** 	{
 490:..\..\common\lib\nokia5110/LCD5110_Graph.c ****         int cy;
 491:..\..\common\lib\nokia5110/LCD5110_Graph.c **** 		for (cy=0; cy<l; cy++)
 1915              		.loc 2 491 0 is_stmt 1
 1916 0012 A742     		cmp	r7, r4
 1917 0014 06DD     		ble	.L177
 492:..\..\common\lib\nokia5110/LCD5110_Graph.c **** 		{
 493:..\..\common\lib\nokia5110/LCD5110_Graph.c **** 			clrPixel(x, y+cy);
 1918              		.loc 2 493 0
 1919 0016 A119     		adds	r1, r4, r6
 1920 0018 89B2     		uxth	r1, r1
 1921 001a A8B2     		uxth	r0, r5
 1922 001c FFF7FEFF 		bl	clrPixel
 1923              	.LVL204:
 491:..\..\common\lib\nokia5110/LCD5110_Graph.c **** 		{
 1924              		.loc 2 491 0
 1925 0020 0134     		adds	r4, r4, #1
 1926              	.LVL205:
 1927 0022 F6E7     		b	.L180
 1928              	.LVL206:
 1929              	.L177:
 1930              	.LBE61:
 1931              	.LBE60:
 1932              	.LBE59:
 494:..\..\common\lib\nokia5110/LCD5110_Graph.c **** 		}
 495:..\..\common\lib\nokia5110/LCD5110_Graph.c **** 	}
 496:..\..\common\lib\nokia5110/LCD5110_Graph.c **** }
 1933              		.loc 2 496 0
 1934              		@ sp needed
 1935              	.LVL207:
 1936              	.LVL208:
 1937              	.LVL209:
 1938 0024 F8BD     		pop	{r3, r4, r5, r6, r7, pc}
 1939              		.cfi_endproc
 1940              	.LFE86:
 1941              		.size	clrVLine, .-clrVLine
 1942              		.global	__aeabi_i2d
 1943              		.global	__aeabi_ddiv
 1944              		.global	__aeabi_dadd
 1945              		.global	__aeabi_d2iz
 1946              		.global	__aeabi_dsub
 1947              		.global	__aeabi_i2f
 1948              		.global	__aeabi_f2d
 1949              		.global	__aeabi_fdiv
 1950              		.section	.text.drawLine,"ax",%progbits
 1951              		.align	1
 1952              		.global	drawLine
 1953              		.code	16
 1954              		.thumb_func
 1955              		.type	drawLine, %function
 1956              	drawLine:
ARM GAS  C:\Users\Petro\AppData\Local\Temp\ccEiKVD5.s 			page 47


 1957              	.LFB87:
 497:..\..\common\lib\nokia5110/LCD5110_Graph.c **** 
 498:..\..\common\lib\nokia5110/LCD5110_Graph.c **** void drawLine(int x1, int y1, int x2, int y2)
 499:..\..\common\lib\nokia5110/LCD5110_Graph.c **** {
 1958              		.loc 2 499 0
 1959              		.cfi_startproc
 1960              		@ args = 0, pretend = 0, frame = 16
 1961              		@ frame_needed = 0, uses_anonymous_args = 0
 1962              	.LVL210:
 1963 0000 F0B5     		push	{r4, r5, r6, r7, lr}
 1964              		.cfi_def_cfa_offset 20
 1965              		.cfi_offset 4, -20
 1966              		.cfi_offset 5, -16
 1967              		.cfi_offset 6, -12
 1968              		.cfi_offset 7, -8
 1969              		.cfi_offset 14, -4
 1970 0002 85B0     		sub	sp, sp, #20
 1971              		.cfi_def_cfa_offset 40
 1972              		.loc 2 499 0
 1973 0004 1E00     		movs	r6, r3
 1974 0006 0400     		movs	r4, r0
 1975 0008 0D00     		movs	r5, r1
 1976 000a 0092     		str	r2, [sp]
 500:..\..\common\lib\nokia5110/LCD5110_Graph.c **** 	int tmp;
 501:..\..\common\lib\nokia5110/LCD5110_Graph.c **** 	double delta, tx, ty;
 502:..\..\common\lib\nokia5110/LCD5110_Graph.c **** 	double m, b, dx, dy;
 503:..\..\common\lib\nokia5110/LCD5110_Graph.c **** 	
 504:..\..\common\lib\nokia5110/LCD5110_Graph.c **** 	if (((x2-x1)<0))
 1977              		.loc 2 504 0
 1978 000c 131A     		subs	r3, r2, r0
 1979              	.LVL211:
 1980 000e 03D5     		bpl	.L183
 505:..\..\common\lib\nokia5110/LCD5110_Graph.c **** 	{
 506:..\..\common\lib\nokia5110/LCD5110_Graph.c **** 		tmp=x1;
 507:..\..\common\lib\nokia5110/LCD5110_Graph.c **** 		x1=x2;
 508:..\..\common\lib\nokia5110/LCD5110_Graph.c **** 		x2=tmp;
 509:..\..\common\lib\nokia5110/LCD5110_Graph.c **** 		tmp=y1;
 510:..\..\common\lib\nokia5110/LCD5110_Graph.c **** 		y1=y2;
 1981              		.loc 2 510 0
 1982 0010 3500     		movs	r5, r6
 507:..\..\common\lib\nokia5110/LCD5110_Graph.c **** 		x2=tmp;
 1983              		.loc 2 507 0
 1984 0012 1400     		movs	r4, r2
 511:..\..\common\lib\nokia5110/LCD5110_Graph.c **** 		y2=tmp;
 1985              		.loc 2 511 0
 1986 0014 0E00     		movs	r6, r1
 1987              	.LVL212:
 508:..\..\common\lib\nokia5110/LCD5110_Graph.c **** 		tmp=y1;
 1988              		.loc 2 508 0
 1989 0016 0090     		str	r0, [sp]
 1990              	.LVL213:
 1991              	.L183:
 512:..\..\common\lib\nokia5110/LCD5110_Graph.c **** 	}
 513:..\..\common\lib\nokia5110/LCD5110_Graph.c ****     if (((y2-y1)<0))
 1992              		.loc 2 513 0
 1993 0018 731B     		subs	r3, r6, r5
 1994 001a 05D5     		bpl	.L184
ARM GAS  C:\Users\Petro\AppData\Local\Temp\ccEiKVD5.s 			page 48


 1995 001c 2B00     		movs	r3, r5
 514:..\..\common\lib\nokia5110/LCD5110_Graph.c **** 	{
 515:..\..\common\lib\nokia5110/LCD5110_Graph.c **** 		tmp=x1;
 516:..\..\common\lib\nokia5110/LCD5110_Graph.c **** 		x1=x2;
 517:..\..\common\lib\nokia5110/LCD5110_Graph.c **** 		x2=tmp;
 518:..\..\common\lib\nokia5110/LCD5110_Graph.c **** 		tmp=y1;
 519:..\..\common\lib\nokia5110/LCD5110_Graph.c **** 		y1=y2;
 1996              		.loc 2 519 0
 1997 001e 3500     		movs	r5, r6
 1998              	.LVL214:
 520:..\..\common\lib\nokia5110/LCD5110_Graph.c **** 		y2=tmp;
 1999              		.loc 2 520 0
 2000 0020 1E00     		movs	r6, r3
 2001              	.LVL215:
 513:..\..\common\lib\nokia5110/LCD5110_Graph.c **** 	{
 2002              		.loc 2 513 0
 2003 0022 2300     		movs	r3, r4
 2004              	.LVL216:
 516:..\..\common\lib\nokia5110/LCD5110_Graph.c **** 		x2=tmp;
 2005              		.loc 2 516 0
 2006 0024 009C     		ldr	r4, [sp]
 2007              	.LVL217:
 517:..\..\common\lib\nokia5110/LCD5110_Graph.c **** 		tmp=y1;
 2008              		.loc 2 517 0
 2009 0026 0093     		str	r3, [sp]
 2010              	.LVL218:
 2011              	.L184:
 521:..\..\common\lib\nokia5110/LCD5110_Graph.c **** 	}
 522:..\..\common\lib\nokia5110/LCD5110_Graph.c **** 
 523:..\..\common\lib\nokia5110/LCD5110_Graph.c **** 	if (y1==y2)
 524:..\..\common\lib\nokia5110/LCD5110_Graph.c **** 	{
 525:..\..\common\lib\nokia5110/LCD5110_Graph.c **** 		if (x1>x2)
 2012              		.loc 2 525 0
 2013 0028 009B     		ldr	r3, [sp]
 523:..\..\common\lib\nokia5110/LCD5110_Graph.c **** 	{
 2014              		.loc 2 523 0
 2015 002a B542     		cmp	r5, r6
 2016 002c 0BD1     		bne	.L185
 2017              		.loc 2 525 0
 2018 002e 9C42     		cmp	r4, r3
 2019 0030 02DD     		ble	.L186
 2020 0032 2300     		movs	r3, r4
 2021 0034 009C     		ldr	r4, [sp]
 2022              	.LVL219:
 2023 0036 0093     		str	r3, [sp]
 2024              	.LVL220:
 2025              	.L186:
 526:..\..\common\lib\nokia5110/LCD5110_Graph.c **** 		{
 527:..\..\common\lib\nokia5110/LCD5110_Graph.c **** 			tmp=x1;
 528:..\..\common\lib\nokia5110/LCD5110_Graph.c **** 			x1=x2;
 529:..\..\common\lib\nokia5110/LCD5110_Graph.c **** 			x2=tmp;
 530:..\..\common\lib\nokia5110/LCD5110_Graph.c **** 		}
 531:..\..\common\lib\nokia5110/LCD5110_Graph.c **** 		drawHLine(x1, y1, x2-x1);
 2026              		.loc 2 531 0
 2027 0038 009B     		ldr	r3, [sp]
 2028 003a 2900     		movs	r1, r5
 2029 003c 1A1B     		subs	r2, r3, r4
ARM GAS  C:\Users\Petro\AppData\Local\Temp\ccEiKVD5.s 			page 49


 2030 003e 2000     		movs	r0, r4
 2031 0040 FFF7FEFF 		bl	drawHLine
 2032              	.LVL221:
 2033 0044 90E0     		b	.L182
 2034              	.LVL222:
 2035              	.L185:
 532:..\..\common\lib\nokia5110/LCD5110_Graph.c **** 	}
 533:..\..\common\lib\nokia5110/LCD5110_Graph.c **** 	else if (x1==x2)
 2036              		.loc 2 533 0
 2037 0046 9C42     		cmp	r4, r3
 2038 0048 0AD1     		bne	.L188
 534:..\..\common\lib\nokia5110/LCD5110_Graph.c **** 	{
 535:..\..\common\lib\nokia5110/LCD5110_Graph.c **** 		if (y1>y2)
 2039              		.loc 2 535 0
 2040 004a B542     		cmp	r5, r6
 2041 004c 02DD     		ble	.L189
 2042 004e 2B00     		movs	r3, r5
 2043              	.LVL223:
 2044 0050 3500     		movs	r5, r6
 2045              	.LVL224:
 2046 0052 1E00     		movs	r6, r3
 2047              	.LVL225:
 2048              	.L189:
 536:..\..\common\lib\nokia5110/LCD5110_Graph.c **** 		{
 537:..\..\common\lib\nokia5110/LCD5110_Graph.c **** 			tmp=y1;
 538:..\..\common\lib\nokia5110/LCD5110_Graph.c **** 			y1=y2;
 539:..\..\common\lib\nokia5110/LCD5110_Graph.c **** 			y2=tmp;
 540:..\..\common\lib\nokia5110/LCD5110_Graph.c **** 		}
 541:..\..\common\lib\nokia5110/LCD5110_Graph.c **** 		drawVLine(x1, y1, y2-y1);
 2049              		.loc 2 541 0
 2050 0054 721B     		subs	r2, r6, r5
 2051 0056 2900     		movs	r1, r5
 2052 0058 2000     		movs	r0, r4
 2053 005a FFF7FEFF 		bl	drawVLine
 2054              	.LVL226:
 2055 005e 83E0     		b	.L182
 2056              	.LVL227:
 2057              	.L188:
 542:..\..\common\lib\nokia5110/LCD5110_Graph.c **** 	}
 543:..\..\common\lib\nokia5110/LCD5110_Graph.c **** 	else if (abs(x2-x1)>abs(y2-y1))
 2058              		.loc 2 543 0
 2059 0060 009B     		ldr	r3, [sp]
 2060              	.LVL228:
 2061 0062 771B     		subs	r7, r6, r5
 2062 0064 1B1B     		subs	r3, r3, r4
 2063 0066 D917     		asrs	r1, r3, #31
 2064 0068 5A18     		adds	r2, r3, r1
 2065 006a 4A40     		eors	r2, r1
 2066 006c F917     		asrs	r1, r7, #31
 2067 006e 0293     		str	r3, [sp, #8]
 2068 0070 7B18     		adds	r3, r7, r1
 2069 0072 4B40     		eors	r3, r1
 2070 0074 9A42     		cmp	r2, r3
 2071 0076 49DD     		ble	.L190
 544:..\..\common\lib\nokia5110/LCD5110_Graph.c **** 	{
 545:..\..\common\lib\nokia5110/LCD5110_Graph.c **** 		delta=((double)(y2-y1)/(double)(x2-x1));
 2072              		.loc 2 545 0
ARM GAS  C:\Users\Petro\AppData\Local\Temp\ccEiKVD5.s 			page 50


 2073 0078 3800     		movs	r0, r7
 2074 007a FFF7FEFF 		bl	__aeabi_i2d
 2075              	.LVL229:
 2076 007e 0600     		movs	r6, r0
 2077              	.LVL230:
 2078 0080 0298     		ldr	r0, [sp, #8]
 2079 0082 0F00     		movs	r7, r1
 2080 0084 FFF7FEFF 		bl	__aeabi_i2d
 2081              	.LVL231:
 2082 0088 0B00     		movs	r3, r1
 2083 008a 0200     		movs	r2, r0
 2084 008c 3900     		movs	r1, r7
 2085 008e 3000     		movs	r0, r6
 2086 0090 FFF7FEFF 		bl	__aeabi_ddiv
 2087              	.LVL232:
 2088 0094 0290     		str	r0, [sp, #8]
 2089 0096 0391     		str	r1, [sp, #12]
 2090              	.LVL233:
 546:..\..\common\lib\nokia5110/LCD5110_Graph.c **** 		ty=(double)(y1);
 2091              		.loc 2 546 0
 2092 0098 2800     		movs	r0, r5
 2093              	.LVL234:
 2094 009a FFF7FEFF 		bl	__aeabi_i2d
 2095              	.LVL235:
 547:..\..\common\lib\nokia5110/LCD5110_Graph.c **** 		if (x1>x2)
 2096              		.loc 2 547 0
 2097 009e 009B     		ldr	r3, [sp]
 546:..\..\common\lib\nokia5110/LCD5110_Graph.c **** 		ty=(double)(y1);
 2098              		.loc 2 546 0
 2099 00a0 0600     		movs	r6, r0
 2100 00a2 0F00     		movs	r7, r1
 2101              	.LVL236:
 2102              		.loc 2 547 0
 2103 00a4 9C42     		cmp	r4, r3
 2104 00a6 18DD     		ble	.L193
 2105              	.LVL237:
 2106              	.L192:
 2107              	.LBB62:
 548:..\..\common\lib\nokia5110/LCD5110_Graph.c **** 		{
 549:..\..\common\lib\nokia5110/LCD5110_Graph.c ****             int i;
 550:..\..\common\lib\nokia5110/LCD5110_Graph.c **** 			for (i=x1; i>=x2; i--)
 551:..\..\common\lib\nokia5110/LCD5110_Graph.c **** 			{
 552:..\..\common\lib\nokia5110/LCD5110_Graph.c **** 				setPixel(i, (int)(ty+0.5));
 2108              		.loc 2 552 0 discriminator 3
 2109 00a8 0022     		movs	r2, #0
 2110 00aa 304B     		ldr	r3, .L199
 2111 00ac 3000     		movs	r0, r6
 2112 00ae 3900     		movs	r1, r7
 2113 00b0 FFF7FEFF 		bl	__aeabi_dadd
 2114              	.LVL238:
 2115 00b4 FFF7FEFF 		bl	__aeabi_d2iz
 2116              	.LVL239:
 2117 00b8 81B2     		uxth	r1, r0
 2118 00ba A0B2     		uxth	r0, r4
 2119 00bc FFF7FEFF 		bl	setPixel
 2120              	.LVL240:
 553:..\..\common\lib\nokia5110/LCD5110_Graph.c ****         		ty=ty-delta;
ARM GAS  C:\Users\Petro\AppData\Local\Temp\ccEiKVD5.s 			page 51


 2121              		.loc 2 553 0 discriminator 3
 2122 00c0 029A     		ldr	r2, [sp, #8]
 2123 00c2 039B     		ldr	r3, [sp, #12]
 2124 00c4 3000     		movs	r0, r6
 2125 00c6 3900     		movs	r1, r7
 2126 00c8 FFF7FEFF 		bl	__aeabi_dsub
 2127              	.LVL241:
 550:..\..\common\lib\nokia5110/LCD5110_Graph.c **** 			{
 2128              		.loc 2 550 0 discriminator 3
 2129 00cc 009B     		ldr	r3, [sp]
 2130 00ce 013C     		subs	r4, r4, #1
 2131              	.LVL242:
 2132              		.loc 2 553 0 discriminator 3
 2133 00d0 0600     		movs	r6, r0
 2134              	.LVL243:
 2135 00d2 0F00     		movs	r7, r1
 2136              	.LVL244:
 550:..\..\common\lib\nokia5110/LCD5110_Graph.c **** 			{
 2137              		.loc 2 550 0 discriminator 3
 2138 00d4 A342     		cmp	r3, r4
 2139 00d6 E7DD     		ble	.L192
 2140 00d8 46E0     		b	.L182
 2141              	.LVL245:
 2142              	.L193:
 2143              	.LBE62:
 2144              	.LBB63:
 554:..\..\common\lib\nokia5110/LCD5110_Graph.c **** 			}
 555:..\..\common\lib\nokia5110/LCD5110_Graph.c **** 		}
 556:..\..\common\lib\nokia5110/LCD5110_Graph.c **** 		else
 557:..\..\common\lib\nokia5110/LCD5110_Graph.c **** 		{
 558:..\..\common\lib\nokia5110/LCD5110_Graph.c ****             int i;
 559:..\..\common\lib\nokia5110/LCD5110_Graph.c **** 			for (i=x1; i<=x2; i++)
 560:..\..\common\lib\nokia5110/LCD5110_Graph.c **** 			{
 561:..\..\common\lib\nokia5110/LCD5110_Graph.c **** 				setPixel(i, (int)(ty+0.5));
 2145              		.loc 2 561 0 discriminator 3
 2146 00da 0022     		movs	r2, #0
 2147 00dc 234B     		ldr	r3, .L199
 2148 00de 3000     		movs	r0, r6
 2149 00e0 3900     		movs	r1, r7
 2150 00e2 FFF7FEFF 		bl	__aeabi_dadd
 2151              	.LVL246:
 2152 00e6 FFF7FEFF 		bl	__aeabi_d2iz
 2153              	.LVL247:
 2154 00ea 81B2     		uxth	r1, r0
 2155 00ec A0B2     		uxth	r0, r4
 2156 00ee FFF7FEFF 		bl	setPixel
 2157              	.LVL248:
 562:..\..\common\lib\nokia5110/LCD5110_Graph.c ****         		ty=ty+delta;
 2158              		.loc 2 562 0 discriminator 3
 2159 00f2 029A     		ldr	r2, [sp, #8]
 2160 00f4 039B     		ldr	r3, [sp, #12]
 2161 00f6 3000     		movs	r0, r6
 2162 00f8 3900     		movs	r1, r7
 2163 00fa FFF7FEFF 		bl	__aeabi_dadd
 2164              	.LVL249:
 559:..\..\common\lib\nokia5110/LCD5110_Graph.c **** 			{
 2165              		.loc 2 559 0 discriminator 3
ARM GAS  C:\Users\Petro\AppData\Local\Temp\ccEiKVD5.s 			page 52


 2166 00fe 009B     		ldr	r3, [sp]
 2167 0100 0134     		adds	r4, r4, #1
 2168              	.LVL250:
 2169              		.loc 2 562 0 discriminator 3
 2170 0102 0600     		movs	r6, r0
 2171              	.LVL251:
 2172 0104 0F00     		movs	r7, r1
 2173              	.LVL252:
 559:..\..\common\lib\nokia5110/LCD5110_Graph.c **** 			{
 2174              		.loc 2 559 0 discriminator 3
 2175 0106 A342     		cmp	r3, r4
 2176 0108 E7DA     		bge	.L193
 2177 010a 2DE0     		b	.L182
 2178              	.LVL253:
 2179              	.L190:
 2180              	.LBE63:
 563:..\..\common\lib\nokia5110/LCD5110_Graph.c **** 			}
 564:..\..\common\lib\nokia5110/LCD5110_Graph.c **** 		}
 565:..\..\common\lib\nokia5110/LCD5110_Graph.c **** 	}
 566:..\..\common\lib\nokia5110/LCD5110_Graph.c **** 	else
 567:..\..\common\lib\nokia5110/LCD5110_Graph.c **** 	{
 568:..\..\common\lib\nokia5110/LCD5110_Graph.c **** 		delta=((float)(x2-x1)/(float)(y2-y1));
 569:..\..\common\lib\nokia5110/LCD5110_Graph.c **** 		tx=(float)(x1);
 570:..\..\common\lib\nokia5110/LCD5110_Graph.c ****         if (y1>y2)
 2181              		.loc 2 570 0
 2182 010c B542     		cmp	r5, r6
 2183 010e 2BDC     		bgt	.L182
 569:..\..\common\lib\nokia5110/LCD5110_Graph.c ****         if (y1>y2)
 2184              		.loc 2 569 0
 2185 0110 2000     		movs	r0, r4
 2186 0112 FFF7FEFF 		bl	__aeabi_i2f
 2187              	.LVL254:
 2188 0116 FFF7FEFF 		bl	__aeabi_f2d
 2189              	.LVL255:
 2190 011a 0090     		str	r0, [sp]
 2191 011c 0191     		str	r1, [sp, #4]
 2192              	.LVL256:
 2193              	.L195:
 2194              	.LBB64:
 571:..\..\common\lib\nokia5110/LCD5110_Graph.c ****         {
 572:..\..\common\lib\nokia5110/LCD5110_Graph.c ****             int i;
 573:..\..\common\lib\nokia5110/LCD5110_Graph.c **** 			for (i=y2+1; i>y1; i--)
 574:..\..\common\lib\nokia5110/LCD5110_Graph.c **** 			{
 575:..\..\common\lib\nokia5110/LCD5110_Graph.c **** 		 		setPixel((int)(tx+0.5), i);
 576:..\..\common\lib\nokia5110/LCD5110_Graph.c ****         		tx=tx+delta;
 577:..\..\common\lib\nokia5110/LCD5110_Graph.c **** 			}
 578:..\..\common\lib\nokia5110/LCD5110_Graph.c ****         }
 579:..\..\common\lib\nokia5110/LCD5110_Graph.c ****         else
 580:..\..\common\lib\nokia5110/LCD5110_Graph.c ****         {
 581:..\..\common\lib\nokia5110/LCD5110_Graph.c ****             int i;
 582:..\..\common\lib\nokia5110/LCD5110_Graph.c **** 			for (i=y1; i<y2+1; i++)
 583:..\..\common\lib\nokia5110/LCD5110_Graph.c **** 			{
 584:..\..\common\lib\nokia5110/LCD5110_Graph.c **** 		 		setPixel((int)(tx+0.5), i);
 2195              		.loc 2 584 0 discriminator 3
 2196 011e 0098     		ldr	r0, [sp]
 2197 0120 0199     		ldr	r1, [sp, #4]
 2198 0122 0022     		movs	r2, #0
ARM GAS  C:\Users\Petro\AppData\Local\Temp\ccEiKVD5.s 			page 53


 2199 0124 114B     		ldr	r3, .L199
 2200 0126 FFF7FEFF 		bl	__aeabi_dadd
 2201              	.LVL257:
 2202 012a FFF7FEFF 		bl	__aeabi_d2iz
 2203              	.LVL258:
 2204 012e ACB2     		uxth	r4, r5
 2205 0130 2100     		movs	r1, r4
 2206 0132 80B2     		uxth	r0, r0
 2207 0134 FFF7FEFF 		bl	setPixel
 2208              	.LVL259:
 585:..\..\common\lib\nokia5110/LCD5110_Graph.c ****         		tx=tx+delta;
 2209              		.loc 2 585 0 discriminator 3
 2210 0138 0298     		ldr	r0, [sp, #8]
 2211 013a FFF7FEFF 		bl	__aeabi_i2f
 2212              	.LVL260:
 2213 013e 041C     		adds	r4, r0, #0
 2214 0140 3800     		movs	r0, r7
 2215 0142 FFF7FEFF 		bl	__aeabi_i2f
 2216              	.LVL261:
 2217 0146 011C     		adds	r1, r0, #0
 2218 0148 201C     		adds	r0, r4, #0
 2219 014a FFF7FEFF 		bl	__aeabi_fdiv
 2220              	.LVL262:
 2221 014e FFF7FEFF 		bl	__aeabi_f2d
 2222              	.LVL263:
 2223 0152 0200     		movs	r2, r0
 2224 0154 0B00     		movs	r3, r1
 2225 0156 0098     		ldr	r0, [sp]
 2226 0158 0199     		ldr	r1, [sp, #4]
 2227 015a FFF7FEFF 		bl	__aeabi_dadd
 2228              	.LVL264:
 582:..\..\common\lib\nokia5110/LCD5110_Graph.c **** 			{
 2229              		.loc 2 582 0 discriminator 3
 2230 015e 0135     		adds	r5, r5, #1
 2231              	.LVL265:
 2232              		.loc 2 585 0 discriminator 3
 2233 0160 0090     		str	r0, [sp]
 2234 0162 0191     		str	r1, [sp, #4]
 2235              	.LVL266:
 582:..\..\common\lib\nokia5110/LCD5110_Graph.c **** 			{
 2236              		.loc 2 582 0 discriminator 3
 2237 0164 AE42     		cmp	r6, r5
 2238 0166 DADA     		bge	.L195
 2239              	.LVL267:
 2240              	.L182:
 2241              	.LBE64:
 586:..\..\common\lib\nokia5110/LCD5110_Graph.c **** 			}
 587:..\..\common\lib\nokia5110/LCD5110_Graph.c ****         }
 588:..\..\common\lib\nokia5110/LCD5110_Graph.c **** 	}
 589:..\..\common\lib\nokia5110/LCD5110_Graph.c **** 
 590:..\..\common\lib\nokia5110/LCD5110_Graph.c **** }
 2242              		.loc 2 590 0
 2243 0168 05B0     		add	sp, sp, #20
 2244              		@ sp needed
 2245 016a F0BD     		pop	{r4, r5, r6, r7, pc}
 2246              	.L200:
 2247              		.align	2
ARM GAS  C:\Users\Petro\AppData\Local\Temp\ccEiKVD5.s 			page 54


 2248              	.L199:
 2249 016c 0000E03F 		.word	1071644672
 2250              		.cfi_endproc
 2251              	.LFE87:
 2252              		.size	drawLine, .-drawLine
 2253              		.section	.text.clrLine,"ax",%progbits
 2254              		.align	1
 2255              		.global	clrLine
 2256              		.code	16
 2257              		.thumb_func
 2258              		.type	clrLine, %function
 2259              	clrLine:
 2260              	.LFB88:
 591:..\..\common\lib\nokia5110/LCD5110_Graph.c **** 
 592:..\..\common\lib\nokia5110/LCD5110_Graph.c **** void clrLine(int x1, int y1, int x2, int y2)
 593:..\..\common\lib\nokia5110/LCD5110_Graph.c **** {
 2261              		.loc 2 593 0
 2262              		.cfi_startproc
 2263              		@ args = 0, pretend = 0, frame = 16
 2264              		@ frame_needed = 0, uses_anonymous_args = 0
 2265              	.LVL268:
 2266 0000 F0B5     		push	{r4, r5, r6, r7, lr}
 2267              		.cfi_def_cfa_offset 20
 2268              		.cfi_offset 4, -20
 2269              		.cfi_offset 5, -16
 2270              		.cfi_offset 6, -12
 2271              		.cfi_offset 7, -8
 2272              		.cfi_offset 14, -4
 2273 0002 85B0     		sub	sp, sp, #20
 2274              		.cfi_def_cfa_offset 40
 2275              		.loc 2 593 0
 2276 0004 1E00     		movs	r6, r3
 2277 0006 0400     		movs	r4, r0
 2278 0008 0D00     		movs	r5, r1
 2279 000a 0092     		str	r2, [sp]
 594:..\..\common\lib\nokia5110/LCD5110_Graph.c **** 	int tmp;
 595:..\..\common\lib\nokia5110/LCD5110_Graph.c **** 	double delta, tx, ty;
 596:..\..\common\lib\nokia5110/LCD5110_Graph.c **** 	double m, b, dx, dy;
 597:..\..\common\lib\nokia5110/LCD5110_Graph.c **** 	
 598:..\..\common\lib\nokia5110/LCD5110_Graph.c **** 	if (((x2-x1)<0))
 2280              		.loc 2 598 0
 2281 000c 131A     		subs	r3, r2, r0
 2282              	.LVL269:
 2283 000e 03D5     		bpl	.L202
 599:..\..\common\lib\nokia5110/LCD5110_Graph.c **** 	{
 600:..\..\common\lib\nokia5110/LCD5110_Graph.c **** 		tmp=x1;
 601:..\..\common\lib\nokia5110/LCD5110_Graph.c **** 		x1=x2;
 602:..\..\common\lib\nokia5110/LCD5110_Graph.c **** 		x2=tmp;
 603:..\..\common\lib\nokia5110/LCD5110_Graph.c **** 		tmp=y1;
 604:..\..\common\lib\nokia5110/LCD5110_Graph.c **** 		y1=y2;
 2284              		.loc 2 604 0
 2285 0010 3500     		movs	r5, r6
 601:..\..\common\lib\nokia5110/LCD5110_Graph.c **** 		x2=tmp;
 2286              		.loc 2 601 0
 2287 0012 1400     		movs	r4, r2
 605:..\..\common\lib\nokia5110/LCD5110_Graph.c **** 		y2=tmp;
 2288              		.loc 2 605 0
ARM GAS  C:\Users\Petro\AppData\Local\Temp\ccEiKVD5.s 			page 55


 2289 0014 0E00     		movs	r6, r1
 2290              	.LVL270:
 602:..\..\common\lib\nokia5110/LCD5110_Graph.c **** 		tmp=y1;
 2291              		.loc 2 602 0
 2292 0016 0090     		str	r0, [sp]
 2293              	.LVL271:
 2294              	.L202:
 606:..\..\common\lib\nokia5110/LCD5110_Graph.c **** 	}
 607:..\..\common\lib\nokia5110/LCD5110_Graph.c ****     if (((y2-y1)<0))
 2295              		.loc 2 607 0
 2296 0018 731B     		subs	r3, r6, r5
 2297 001a 05D5     		bpl	.L203
 2298 001c 2B00     		movs	r3, r5
 608:..\..\common\lib\nokia5110/LCD5110_Graph.c **** 	{
 609:..\..\common\lib\nokia5110/LCD5110_Graph.c **** 		tmp=x1;
 610:..\..\common\lib\nokia5110/LCD5110_Graph.c **** 		x1=x2;
 611:..\..\common\lib\nokia5110/LCD5110_Graph.c **** 		x2=tmp;
 612:..\..\common\lib\nokia5110/LCD5110_Graph.c **** 		tmp=y1;
 613:..\..\common\lib\nokia5110/LCD5110_Graph.c **** 		y1=y2;
 2299              		.loc 2 613 0
 2300 001e 3500     		movs	r5, r6
 2301              	.LVL272:
 614:..\..\common\lib\nokia5110/LCD5110_Graph.c **** 		y2=tmp;
 2302              		.loc 2 614 0
 2303 0020 1E00     		movs	r6, r3
 2304              	.LVL273:
 607:..\..\common\lib\nokia5110/LCD5110_Graph.c **** 	{
 2305              		.loc 2 607 0
 2306 0022 2300     		movs	r3, r4
 2307              	.LVL274:
 610:..\..\common\lib\nokia5110/LCD5110_Graph.c **** 		x2=tmp;
 2308              		.loc 2 610 0
 2309 0024 009C     		ldr	r4, [sp]
 2310              	.LVL275:
 611:..\..\common\lib\nokia5110/LCD5110_Graph.c **** 		tmp=y1;
 2311              		.loc 2 611 0
 2312 0026 0093     		str	r3, [sp]
 2313              	.LVL276:
 2314              	.L203:
 615:..\..\common\lib\nokia5110/LCD5110_Graph.c **** 	}
 616:..\..\common\lib\nokia5110/LCD5110_Graph.c **** 
 617:..\..\common\lib\nokia5110/LCD5110_Graph.c **** 	if (y1==y2)
 618:..\..\common\lib\nokia5110/LCD5110_Graph.c **** 	{
 619:..\..\common\lib\nokia5110/LCD5110_Graph.c **** 		if (x1>x2)
 2315              		.loc 2 619 0
 2316 0028 009B     		ldr	r3, [sp]
 617:..\..\common\lib\nokia5110/LCD5110_Graph.c **** 	{
 2317              		.loc 2 617 0
 2318 002a B542     		cmp	r5, r6
 2319 002c 0BD1     		bne	.L204
 2320              		.loc 2 619 0
 2321 002e 9C42     		cmp	r4, r3
 2322 0030 02DD     		ble	.L205
 2323 0032 2300     		movs	r3, r4
 2324 0034 009C     		ldr	r4, [sp]
 2325              	.LVL277:
 2326 0036 0093     		str	r3, [sp]
ARM GAS  C:\Users\Petro\AppData\Local\Temp\ccEiKVD5.s 			page 56


 2327              	.LVL278:
 2328              	.L205:
 620:..\..\common\lib\nokia5110/LCD5110_Graph.c **** 		{
 621:..\..\common\lib\nokia5110/LCD5110_Graph.c **** 			tmp=x1;
 622:..\..\common\lib\nokia5110/LCD5110_Graph.c **** 			x1=x2;
 623:..\..\common\lib\nokia5110/LCD5110_Graph.c **** 			x2=tmp;
 624:..\..\common\lib\nokia5110/LCD5110_Graph.c **** 		}
 625:..\..\common\lib\nokia5110/LCD5110_Graph.c **** 		clrHLine(x1, y1, x2-x1);
 2329              		.loc 2 625 0
 2330 0038 009B     		ldr	r3, [sp]
 2331 003a 2900     		movs	r1, r5
 2332 003c 1A1B     		subs	r2, r3, r4
 2333 003e 2000     		movs	r0, r4
 2334 0040 FFF7FEFF 		bl	clrHLine
 2335              	.LVL279:
 2336 0044 90E0     		b	.L201
 2337              	.LVL280:
 2338              	.L204:
 626:..\..\common\lib\nokia5110/LCD5110_Graph.c **** 	}
 627:..\..\common\lib\nokia5110/LCD5110_Graph.c **** 	else if (x1==x2)
 2339              		.loc 2 627 0
 2340 0046 9C42     		cmp	r4, r3
 2341 0048 0AD1     		bne	.L207
 628:..\..\common\lib\nokia5110/LCD5110_Graph.c **** 	{
 629:..\..\common\lib\nokia5110/LCD5110_Graph.c **** 		if (y1>y2)
 2342              		.loc 2 629 0
 2343 004a B542     		cmp	r5, r6
 2344 004c 02DD     		ble	.L208
 2345 004e 2B00     		movs	r3, r5
 2346              	.LVL281:
 2347 0050 3500     		movs	r5, r6
 2348              	.LVL282:
 2349 0052 1E00     		movs	r6, r3
 2350              	.LVL283:
 2351              	.L208:
 630:..\..\common\lib\nokia5110/LCD5110_Graph.c **** 		{
 631:..\..\common\lib\nokia5110/LCD5110_Graph.c **** 			tmp=y1;
 632:..\..\common\lib\nokia5110/LCD5110_Graph.c **** 			y1=y2;
 633:..\..\common\lib\nokia5110/LCD5110_Graph.c **** 			y2=tmp;
 634:..\..\common\lib\nokia5110/LCD5110_Graph.c **** 		}
 635:..\..\common\lib\nokia5110/LCD5110_Graph.c **** 		clrVLine(x1, y1, y2-y1);
 2352              		.loc 2 635 0
 2353 0054 721B     		subs	r2, r6, r5
 2354 0056 2900     		movs	r1, r5
 2355 0058 2000     		movs	r0, r4
 2356 005a FFF7FEFF 		bl	clrVLine
 2357              	.LVL284:
 2358 005e 83E0     		b	.L201
 2359              	.LVL285:
 2360              	.L207:
 636:..\..\common\lib\nokia5110/LCD5110_Graph.c **** 	}
 637:..\..\common\lib\nokia5110/LCD5110_Graph.c **** 	else if (abs(x2-x1)>abs(y2-y1))
 2361              		.loc 2 637 0
 2362 0060 009B     		ldr	r3, [sp]
 2363              	.LVL286:
 2364 0062 771B     		subs	r7, r6, r5
 2365 0064 1B1B     		subs	r3, r3, r4
ARM GAS  C:\Users\Petro\AppData\Local\Temp\ccEiKVD5.s 			page 57


 2366 0066 D917     		asrs	r1, r3, #31
 2367 0068 5A18     		adds	r2, r3, r1
 2368 006a 4A40     		eors	r2, r1
 2369 006c F917     		asrs	r1, r7, #31
 2370 006e 0293     		str	r3, [sp, #8]
 2371 0070 7B18     		adds	r3, r7, r1
 2372 0072 4B40     		eors	r3, r1
 2373 0074 9A42     		cmp	r2, r3
 2374 0076 49DD     		ble	.L209
 638:..\..\common\lib\nokia5110/LCD5110_Graph.c **** 	{
 639:..\..\common\lib\nokia5110/LCD5110_Graph.c **** 		delta=((double)(y2-y1))/((double)(x2-x1));
 2375              		.loc 2 639 0
 2376 0078 3800     		movs	r0, r7
 2377 007a FFF7FEFF 		bl	__aeabi_i2d
 2378              	.LVL287:
 2379 007e 0600     		movs	r6, r0
 2380              	.LVL288:
 2381 0080 0298     		ldr	r0, [sp, #8]
 2382 0082 0F00     		movs	r7, r1
 2383 0084 FFF7FEFF 		bl	__aeabi_i2d
 2384              	.LVL289:
 2385 0088 0B00     		movs	r3, r1
 2386 008a 0200     		movs	r2, r0
 2387 008c 3900     		movs	r1, r7
 2388 008e 3000     		movs	r0, r6
 2389 0090 FFF7FEFF 		bl	__aeabi_ddiv
 2390              	.LVL290:
 2391 0094 0290     		str	r0, [sp, #8]
 2392 0096 0391     		str	r1, [sp, #12]
 2393              	.LVL291:
 640:..\..\common\lib\nokia5110/LCD5110_Graph.c **** 		ty=(double)(y1);
 2394              		.loc 2 640 0
 2395 0098 2800     		movs	r0, r5
 2396              	.LVL292:
 2397 009a FFF7FEFF 		bl	__aeabi_i2d
 2398              	.LVL293:
 641:..\..\common\lib\nokia5110/LCD5110_Graph.c **** 		if (x1>x2)
 2399              		.loc 2 641 0
 2400 009e 009B     		ldr	r3, [sp]
 640:..\..\common\lib\nokia5110/LCD5110_Graph.c **** 		ty=(double)(y1);
 2401              		.loc 2 640 0
 2402 00a0 0600     		movs	r6, r0
 2403 00a2 0F00     		movs	r7, r1
 2404              	.LVL294:
 2405              		.loc 2 641 0
 2406 00a4 9C42     		cmp	r4, r3
 2407 00a6 18DD     		ble	.L212
 2408              	.LVL295:
 2409              	.L211:
 2410              	.LBB65:
 642:..\..\common\lib\nokia5110/LCD5110_Graph.c **** 		{
 643:..\..\common\lib\nokia5110/LCD5110_Graph.c ****             int i;
 644:..\..\common\lib\nokia5110/LCD5110_Graph.c **** 			for ( i=x1; i>=x2; i--)
 645:..\..\common\lib\nokia5110/LCD5110_Graph.c **** 			{
 646:..\..\common\lib\nokia5110/LCD5110_Graph.c **** 				clrPixel(i, (int)(ty+0.5));
 2411              		.loc 2 646 0 discriminator 3
 2412 00a8 0022     		movs	r2, #0
ARM GAS  C:\Users\Petro\AppData\Local\Temp\ccEiKVD5.s 			page 58


 2413 00aa 304B     		ldr	r3, .L218
 2414 00ac 3000     		movs	r0, r6
 2415 00ae 3900     		movs	r1, r7
 2416 00b0 FFF7FEFF 		bl	__aeabi_dadd
 2417              	.LVL296:
 2418 00b4 FFF7FEFF 		bl	__aeabi_d2iz
 2419              	.LVL297:
 2420 00b8 81B2     		uxth	r1, r0
 2421 00ba A0B2     		uxth	r0, r4
 2422 00bc FFF7FEFF 		bl	clrPixel
 2423              	.LVL298:
 647:..\..\common\lib\nokia5110/LCD5110_Graph.c ****         		ty=ty-delta;
 2424              		.loc 2 647 0 discriminator 3
 2425 00c0 029A     		ldr	r2, [sp, #8]
 2426 00c2 039B     		ldr	r3, [sp, #12]
 2427 00c4 3000     		movs	r0, r6
 2428 00c6 3900     		movs	r1, r7
 2429 00c8 FFF7FEFF 		bl	__aeabi_dsub
 2430              	.LVL299:
 644:..\..\common\lib\nokia5110/LCD5110_Graph.c **** 			{
 2431              		.loc 2 644 0 discriminator 3
 2432 00cc 009B     		ldr	r3, [sp]
 2433 00ce 013C     		subs	r4, r4, #1
 2434              	.LVL300:
 2435              		.loc 2 647 0 discriminator 3
 2436 00d0 0600     		movs	r6, r0
 2437              	.LVL301:
 2438 00d2 0F00     		movs	r7, r1
 2439              	.LVL302:
 644:..\..\common\lib\nokia5110/LCD5110_Graph.c **** 			{
 2440              		.loc 2 644 0 discriminator 3
 2441 00d4 A342     		cmp	r3, r4
 2442 00d6 E7DD     		ble	.L211
 2443 00d8 46E0     		b	.L201
 2444              	.LVL303:
 2445              	.L212:
 2446              	.LBE65:
 2447              	.LBB66:
 648:..\..\common\lib\nokia5110/LCD5110_Graph.c **** 			}
 649:..\..\common\lib\nokia5110/LCD5110_Graph.c **** 		}
 650:..\..\common\lib\nokia5110/LCD5110_Graph.c **** 		else
 651:..\..\common\lib\nokia5110/LCD5110_Graph.c **** 		{
 652:..\..\common\lib\nokia5110/LCD5110_Graph.c ****             int i;
 653:..\..\common\lib\nokia5110/LCD5110_Graph.c **** 			for (i=x1; i<=x2; i++)
 654:..\..\common\lib\nokia5110/LCD5110_Graph.c **** 			{
 655:..\..\common\lib\nokia5110/LCD5110_Graph.c **** 				clrPixel(i, (int)(ty+0.5));
 2448              		.loc 2 655 0 discriminator 3
 2449 00da 0022     		movs	r2, #0
 2450 00dc 234B     		ldr	r3, .L218
 2451 00de 3000     		movs	r0, r6
 2452 00e0 3900     		movs	r1, r7
 2453 00e2 FFF7FEFF 		bl	__aeabi_dadd
 2454              	.LVL304:
 2455 00e6 FFF7FEFF 		bl	__aeabi_d2iz
 2456              	.LVL305:
 2457 00ea 81B2     		uxth	r1, r0
 2458 00ec A0B2     		uxth	r0, r4
ARM GAS  C:\Users\Petro\AppData\Local\Temp\ccEiKVD5.s 			page 59


 2459 00ee FFF7FEFF 		bl	clrPixel
 2460              	.LVL306:
 656:..\..\common\lib\nokia5110/LCD5110_Graph.c ****         		ty=ty+delta;
 2461              		.loc 2 656 0 discriminator 3
 2462 00f2 029A     		ldr	r2, [sp, #8]
 2463 00f4 039B     		ldr	r3, [sp, #12]
 2464 00f6 3000     		movs	r0, r6
 2465 00f8 3900     		movs	r1, r7
 2466 00fa FFF7FEFF 		bl	__aeabi_dadd
 2467              	.LVL307:
 653:..\..\common\lib\nokia5110/LCD5110_Graph.c **** 			{
 2468              		.loc 2 653 0 discriminator 3
 2469 00fe 009B     		ldr	r3, [sp]
 2470 0100 0134     		adds	r4, r4, #1
 2471              	.LVL308:
 2472              		.loc 2 656 0 discriminator 3
 2473 0102 0600     		movs	r6, r0
 2474              	.LVL309:
 2475 0104 0F00     		movs	r7, r1
 2476              	.LVL310:
 653:..\..\common\lib\nokia5110/LCD5110_Graph.c **** 			{
 2477              		.loc 2 653 0 discriminator 3
 2478 0106 A342     		cmp	r3, r4
 2479 0108 E7DA     		bge	.L212
 2480 010a 2DE0     		b	.L201
 2481              	.LVL311:
 2482              	.L209:
 2483              	.LBE66:
 657:..\..\common\lib\nokia5110/LCD5110_Graph.c **** 			}
 658:..\..\common\lib\nokia5110/LCD5110_Graph.c **** 		}
 659:..\..\common\lib\nokia5110/LCD5110_Graph.c **** 	}
 660:..\..\common\lib\nokia5110/LCD5110_Graph.c **** 	else
 661:..\..\common\lib\nokia5110/LCD5110_Graph.c **** 	{
 662:..\..\common\lib\nokia5110/LCD5110_Graph.c **** 		delta=((float)(x2-x1)/(float)(y2-y1));
 663:..\..\common\lib\nokia5110/LCD5110_Graph.c **** 		tx=(float)(x1);
 664:..\..\common\lib\nokia5110/LCD5110_Graph.c ****         if (y1>y2)
 2484              		.loc 2 664 0
 2485 010c B542     		cmp	r5, r6
 2486 010e 2BDC     		bgt	.L201
 663:..\..\common\lib\nokia5110/LCD5110_Graph.c ****         if (y1>y2)
 2487              		.loc 2 663 0
 2488 0110 2000     		movs	r0, r4
 2489 0112 FFF7FEFF 		bl	__aeabi_i2f
 2490              	.LVL312:
 2491 0116 FFF7FEFF 		bl	__aeabi_f2d
 2492              	.LVL313:
 2493 011a 0090     		str	r0, [sp]
 2494 011c 0191     		str	r1, [sp, #4]
 2495              	.LVL314:
 2496              	.L214:
 2497              	.LBB67:
 665:..\..\common\lib\nokia5110/LCD5110_Graph.c ****         {
 666:..\..\common\lib\nokia5110/LCD5110_Graph.c ****             int i;
 667:..\..\common\lib\nokia5110/LCD5110_Graph.c **** 			for (i=y2+1; i>y1; i--)
 668:..\..\common\lib\nokia5110/LCD5110_Graph.c **** 			{
 669:..\..\common\lib\nokia5110/LCD5110_Graph.c **** 		 		clrPixel((int)(tx+0.5), i);
 670:..\..\common\lib\nokia5110/LCD5110_Graph.c ****         		tx=tx+delta;
ARM GAS  C:\Users\Petro\AppData\Local\Temp\ccEiKVD5.s 			page 60


 671:..\..\common\lib\nokia5110/LCD5110_Graph.c **** 			}
 672:..\..\common\lib\nokia5110/LCD5110_Graph.c ****         }
 673:..\..\common\lib\nokia5110/LCD5110_Graph.c ****         else
 674:..\..\common\lib\nokia5110/LCD5110_Graph.c ****         {
 675:..\..\common\lib\nokia5110/LCD5110_Graph.c ****             int i;
 676:..\..\common\lib\nokia5110/LCD5110_Graph.c **** 			for (i=y1; i<y2+1; i++)
 677:..\..\common\lib\nokia5110/LCD5110_Graph.c **** 			{
 678:..\..\common\lib\nokia5110/LCD5110_Graph.c **** 		 		clrPixel((int)(tx+0.5), i);
 2498              		.loc 2 678 0 discriminator 3
 2499 011e 0098     		ldr	r0, [sp]
 2500 0120 0199     		ldr	r1, [sp, #4]
 2501 0122 0022     		movs	r2, #0
 2502 0124 114B     		ldr	r3, .L218
 2503 0126 FFF7FEFF 		bl	__aeabi_dadd
 2504              	.LVL315:
 2505 012a FFF7FEFF 		bl	__aeabi_d2iz
 2506              	.LVL316:
 2507 012e ACB2     		uxth	r4, r5
 2508 0130 2100     		movs	r1, r4
 2509 0132 80B2     		uxth	r0, r0
 2510 0134 FFF7FEFF 		bl	clrPixel
 2511              	.LVL317:
 679:..\..\common\lib\nokia5110/LCD5110_Graph.c ****         		tx=tx+delta;
 2512              		.loc 2 679 0 discriminator 3
 2513 0138 0298     		ldr	r0, [sp, #8]
 2514 013a FFF7FEFF 		bl	__aeabi_i2f
 2515              	.LVL318:
 2516 013e 041C     		adds	r4, r0, #0
 2517 0140 3800     		movs	r0, r7
 2518 0142 FFF7FEFF 		bl	__aeabi_i2f
 2519              	.LVL319:
 2520 0146 011C     		adds	r1, r0, #0
 2521 0148 201C     		adds	r0, r4, #0
 2522 014a FFF7FEFF 		bl	__aeabi_fdiv
 2523              	.LVL320:
 2524 014e FFF7FEFF 		bl	__aeabi_f2d
 2525              	.LVL321:
 2526 0152 0200     		movs	r2, r0
 2527 0154 0B00     		movs	r3, r1
 2528 0156 0098     		ldr	r0, [sp]
 2529 0158 0199     		ldr	r1, [sp, #4]
 2530 015a FFF7FEFF 		bl	__aeabi_dadd
 2531              	.LVL322:
 676:..\..\common\lib\nokia5110/LCD5110_Graph.c **** 			{
 2532              		.loc 2 676 0 discriminator 3
 2533 015e 0135     		adds	r5, r5, #1
 2534              	.LVL323:
 2535              		.loc 2 679 0 discriminator 3
 2536 0160 0090     		str	r0, [sp]
 2537 0162 0191     		str	r1, [sp, #4]
 2538              	.LVL324:
 676:..\..\common\lib\nokia5110/LCD5110_Graph.c **** 			{
 2539              		.loc 2 676 0 discriminator 3
 2540 0164 AE42     		cmp	r6, r5
 2541 0166 DADA     		bge	.L214
 2542              	.LVL325:
 2543              	.L201:
ARM GAS  C:\Users\Petro\AppData\Local\Temp\ccEiKVD5.s 			page 61


 2544              	.LBE67:
 680:..\..\common\lib\nokia5110/LCD5110_Graph.c **** 			}
 681:..\..\common\lib\nokia5110/LCD5110_Graph.c ****         }
 682:..\..\common\lib\nokia5110/LCD5110_Graph.c **** 	}
 683:..\..\common\lib\nokia5110/LCD5110_Graph.c **** 
 684:..\..\common\lib\nokia5110/LCD5110_Graph.c **** }
 2545              		.loc 2 684 0
 2546 0168 05B0     		add	sp, sp, #20
 2547              		@ sp needed
 2548 016a F0BD     		pop	{r4, r5, r6, r7, pc}
 2549              	.L219:
 2550              		.align	2
 2551              	.L218:
 2552 016c 0000E03F 		.word	1071644672
 2553              		.cfi_endproc
 2554              	.LFE88:
 2555              		.size	clrLine, .-clrLine
 2556              		.section	.text.drawRect,"ax",%progbits
 2557              		.align	1
 2558              		.global	drawRect
 2559              		.code	16
 2560              		.thumb_func
 2561              		.type	drawRect, %function
 2562              	drawRect:
 2563              	.LFB89:
 685:..\..\common\lib\nokia5110/LCD5110_Graph.c **** 
 686:..\..\common\lib\nokia5110/LCD5110_Graph.c **** void drawRect(int x1, int y1, int x2, int y2)
 687:..\..\common\lib\nokia5110/LCD5110_Graph.c **** {
 2564              		.loc 2 687 0
 2565              		.cfi_startproc
 2566              		@ args = 0, pretend = 0, frame = 0
 2567              		@ frame_needed = 0, uses_anonymous_args = 0
 2568              	.LVL326:
 2569 0000 F8B5     		push	{r3, r4, r5, r6, r7, lr}
 2570              		.cfi_def_cfa_offset 24
 2571              		.cfi_offset 3, -24
 2572              		.cfi_offset 4, -20
 2573              		.cfi_offset 5, -16
 2574              		.cfi_offset 6, -12
 2575              		.cfi_offset 7, -8
 2576              		.cfi_offset 14, -4
 2577              		.loc 2 687 0
 2578 0002 0500     		movs	r5, r0
 2579 0004 0C00     		movs	r4, r1
 2580 0006 1600     		movs	r6, r2
 2581 0008 1F00     		movs	r7, r3
 688:..\..\common\lib\nokia5110/LCD5110_Graph.c **** 	int tmp;
 689:..\..\common\lib\nokia5110/LCD5110_Graph.c **** 
 690:..\..\common\lib\nokia5110/LCD5110_Graph.c **** 	if (x1>x2)
 2582              		.loc 2 690 0
 2583 000a 9042     		cmp	r0, r2
 2584 000c 01DD     		ble	.L221
 2585 000e 1500     		movs	r5, r2
 2586 0010 0600     		movs	r6, r0
 2587              	.L221:
 2588              	.LVL327:
 691:..\..\common\lib\nokia5110/LCD5110_Graph.c **** 	{
ARM GAS  C:\Users\Petro\AppData\Local\Temp\ccEiKVD5.s 			page 62


 692:..\..\common\lib\nokia5110/LCD5110_Graph.c **** 		tmp=x1;
 693:..\..\common\lib\nokia5110/LCD5110_Graph.c **** 		x1=x2;
 694:..\..\common\lib\nokia5110/LCD5110_Graph.c **** 		x2=tmp;
 695:..\..\common\lib\nokia5110/LCD5110_Graph.c **** 	}
 696:..\..\common\lib\nokia5110/LCD5110_Graph.c **** 	if (y1>y2)
 2589              		.loc 2 696 0
 2590 0012 BC42     		cmp	r4, r7
 2591 0014 02DD     		ble	.L222
 2592 0016 2300     		movs	r3, r4
 2593              	.LVL328:
 2594 0018 3C00     		movs	r4, r7
 2595 001a 1F00     		movs	r7, r3
 2596              	.LVL329:
 2597              	.L222:
 697:..\..\common\lib\nokia5110/LCD5110_Graph.c **** 	{
 698:..\..\common\lib\nokia5110/LCD5110_Graph.c **** 		tmp=y1;
 699:..\..\common\lib\nokia5110/LCD5110_Graph.c **** 		y1=y2;
 700:..\..\common\lib\nokia5110/LCD5110_Graph.c **** 		y2=tmp;
 701:..\..\common\lib\nokia5110/LCD5110_Graph.c **** 	}
 702:..\..\common\lib\nokia5110/LCD5110_Graph.c **** 
 703:..\..\common\lib\nokia5110/LCD5110_Graph.c **** 	drawHLine(x1, y1, x2-x1);
 2598              		.loc 2 703 0
 2599 001c 721B     		subs	r2, r6, r5
 2600 001e 2800     		movs	r0, r5
 2601 0020 2100     		movs	r1, r4
 2602 0022 FFF7FEFF 		bl	drawHLine
 2603              	.LVL330:
 704:..\..\common\lib\nokia5110/LCD5110_Graph.c **** 	drawHLine(x1, y2, x2-x1);
 2604              		.loc 2 704 0
 2605 0026 721B     		subs	r2, r6, r5
 2606 0028 2800     		movs	r0, r5
 2607 002a 3900     		movs	r1, r7
 705:..\..\common\lib\nokia5110/LCD5110_Graph.c **** 	drawVLine(x1, y1, y2-y1);
 2608              		.loc 2 705 0
 2609 002c 3F1B     		subs	r7, r7, r4
 2610              	.LVL331:
 704:..\..\common\lib\nokia5110/LCD5110_Graph.c **** 	drawHLine(x1, y2, x2-x1);
 2611              		.loc 2 704 0
 2612 002e FFF7FEFF 		bl	drawHLine
 2613              	.LVL332:
 2614              		.loc 2 705 0
 2615 0032 3A00     		movs	r2, r7
 2616 0034 2800     		movs	r0, r5
 2617 0036 2100     		movs	r1, r4
 2618 0038 FFF7FEFF 		bl	drawVLine
 2619              	.LVL333:
 706:..\..\common\lib\nokia5110/LCD5110_Graph.c **** 	drawVLine(x2, y1, y2-y1+1);
 2620              		.loc 2 706 0
 2621 003c 7A1C     		adds	r2, r7, #1
 2622 003e 3000     		movs	r0, r6
 2623 0040 2100     		movs	r1, r4
 2624 0042 FFF7FEFF 		bl	drawVLine
 2625              	.LVL334:
 707:..\..\common\lib\nokia5110/LCD5110_Graph.c **** }
 2626              		.loc 2 707 0
 2627              		@ sp needed
 2628              	.LVL335:
ARM GAS  C:\Users\Petro\AppData\Local\Temp\ccEiKVD5.s 			page 63


 2629              	.LVL336:
 2630              	.LVL337:
 2631 0046 F8BD     		pop	{r3, r4, r5, r6, r7, pc}
 2632              		.cfi_endproc
 2633              	.LFE89:
 2634              		.size	drawRect, .-drawRect
 2635              		.section	.text.clrRect,"ax",%progbits
 2636              		.align	1
 2637              		.global	clrRect
 2638              		.code	16
 2639              		.thumb_func
 2640              		.type	clrRect, %function
 2641              	clrRect:
 2642              	.LFB90:
 708:..\..\common\lib\nokia5110/LCD5110_Graph.c **** 
 709:..\..\common\lib\nokia5110/LCD5110_Graph.c **** void clrRect(int x1, int y1, int x2, int y2)
 710:..\..\common\lib\nokia5110/LCD5110_Graph.c **** {
 2643              		.loc 2 710 0
 2644              		.cfi_startproc
 2645              		@ args = 0, pretend = 0, frame = 0
 2646              		@ frame_needed = 0, uses_anonymous_args = 0
 2647              	.LVL338:
 2648 0000 F8B5     		push	{r3, r4, r5, r6, r7, lr}
 2649              		.cfi_def_cfa_offset 24
 2650              		.cfi_offset 3, -24
 2651              		.cfi_offset 4, -20
 2652              		.cfi_offset 5, -16
 2653              		.cfi_offset 6, -12
 2654              		.cfi_offset 7, -8
 2655              		.cfi_offset 14, -4
 2656              		.loc 2 710 0
 2657 0002 0500     		movs	r5, r0
 2658 0004 0C00     		movs	r4, r1
 2659 0006 1600     		movs	r6, r2
 2660 0008 1F00     		movs	r7, r3
 711:..\..\common\lib\nokia5110/LCD5110_Graph.c **** 	int tmp;
 712:..\..\common\lib\nokia5110/LCD5110_Graph.c **** 
 713:..\..\common\lib\nokia5110/LCD5110_Graph.c **** 	if (x1>x2)
 2661              		.loc 2 713 0
 2662 000a 9042     		cmp	r0, r2
 2663 000c 01DD     		ble	.L224
 2664 000e 1500     		movs	r5, r2
 2665 0010 0600     		movs	r6, r0
 2666              	.L224:
 2667              	.LVL339:
 714:..\..\common\lib\nokia5110/LCD5110_Graph.c **** 	{
 715:..\..\common\lib\nokia5110/LCD5110_Graph.c **** 		tmp=x1;
 716:..\..\common\lib\nokia5110/LCD5110_Graph.c **** 		x1=x2;
 717:..\..\common\lib\nokia5110/LCD5110_Graph.c **** 		x2=tmp;
 718:..\..\common\lib\nokia5110/LCD5110_Graph.c **** 	}
 719:..\..\common\lib\nokia5110/LCD5110_Graph.c **** 	if (y1>y2)
 2668              		.loc 2 719 0
 2669 0012 BC42     		cmp	r4, r7
 2670 0014 02DD     		ble	.L225
 2671 0016 2300     		movs	r3, r4
 2672              	.LVL340:
 2673 0018 3C00     		movs	r4, r7
ARM GAS  C:\Users\Petro\AppData\Local\Temp\ccEiKVD5.s 			page 64


 2674 001a 1F00     		movs	r7, r3
 2675              	.LVL341:
 2676              	.L225:
 720:..\..\common\lib\nokia5110/LCD5110_Graph.c **** 	{
 721:..\..\common\lib\nokia5110/LCD5110_Graph.c **** 		tmp=y1;
 722:..\..\common\lib\nokia5110/LCD5110_Graph.c **** 		y1=y2;
 723:..\..\common\lib\nokia5110/LCD5110_Graph.c **** 		y2=tmp;
 724:..\..\common\lib\nokia5110/LCD5110_Graph.c **** 	}
 725:..\..\common\lib\nokia5110/LCD5110_Graph.c **** 
 726:..\..\common\lib\nokia5110/LCD5110_Graph.c **** 	clrHLine(x1, y1, x2-x1);
 2677              		.loc 2 726 0
 2678 001c 721B     		subs	r2, r6, r5
 2679 001e 2800     		movs	r0, r5
 2680 0020 2100     		movs	r1, r4
 2681 0022 FFF7FEFF 		bl	clrHLine
 2682              	.LVL342:
 727:..\..\common\lib\nokia5110/LCD5110_Graph.c **** 	clrHLine(x1, y2, x2-x1);
 2683              		.loc 2 727 0
 2684 0026 721B     		subs	r2, r6, r5
 2685 0028 2800     		movs	r0, r5
 2686 002a 3900     		movs	r1, r7
 728:..\..\common\lib\nokia5110/LCD5110_Graph.c **** 	clrVLine(x1, y1, y2-y1);
 2687              		.loc 2 728 0
 2688 002c 3F1B     		subs	r7, r7, r4
 2689              	.LVL343:
 727:..\..\common\lib\nokia5110/LCD5110_Graph.c **** 	clrHLine(x1, y2, x2-x1);
 2690              		.loc 2 727 0
 2691 002e FFF7FEFF 		bl	clrHLine
 2692              	.LVL344:
 2693              		.loc 2 728 0
 2694 0032 3A00     		movs	r2, r7
 2695 0034 2800     		movs	r0, r5
 2696 0036 2100     		movs	r1, r4
 2697 0038 FFF7FEFF 		bl	clrVLine
 2698              	.LVL345:
 729:..\..\common\lib\nokia5110/LCD5110_Graph.c **** 	clrVLine(x2, y1, y2-y1+1);
 2699              		.loc 2 729 0
 2700 003c 7A1C     		adds	r2, r7, #1
 2701 003e 3000     		movs	r0, r6
 2702 0040 2100     		movs	r1, r4
 2703 0042 FFF7FEFF 		bl	clrVLine
 2704              	.LVL346:
 730:..\..\common\lib\nokia5110/LCD5110_Graph.c **** }
 2705              		.loc 2 730 0
 2706              		@ sp needed
 2707              	.LVL347:
 2708              	.LVL348:
 2709              	.LVL349:
 2710 0046 F8BD     		pop	{r3, r4, r5, r6, r7, pc}
 2711              		.cfi_endproc
 2712              	.LFE90:
 2713              		.size	clrRect, .-clrRect
 2714              		.section	.text.drawRoundRect,"ax",%progbits
 2715              		.align	1
 2716              		.global	drawRoundRect
 2717              		.code	16
 2718              		.thumb_func
ARM GAS  C:\Users\Petro\AppData\Local\Temp\ccEiKVD5.s 			page 65


 2719              		.type	drawRoundRect, %function
 2720              	drawRoundRect:
 2721              	.LFB91:
 731:..\..\common\lib\nokia5110/LCD5110_Graph.c **** 
 732:..\..\common\lib\nokia5110/LCD5110_Graph.c **** void drawRoundRect(int x1, int y1, int x2, int y2)
 733:..\..\common\lib\nokia5110/LCD5110_Graph.c **** {
 2722              		.loc 2 733 0
 2723              		.cfi_startproc
 2724              		@ args = 0, pretend = 0, frame = 24
 2725              		@ frame_needed = 0, uses_anonymous_args = 0
 2726              	.LVL350:
 2727 0000 F0B5     		push	{r4, r5, r6, r7, lr}
 2728              		.cfi_def_cfa_offset 20
 2729              		.cfi_offset 4, -20
 2730              		.cfi_offset 5, -16
 2731              		.cfi_offset 6, -12
 2732              		.cfi_offset 7, -8
 2733              		.cfi_offset 14, -4
 2734 0002 87B0     		sub	sp, sp, #28
 2735              		.cfi_def_cfa_offset 48
 2736              		.loc 2 733 0
 2737 0004 0500     		movs	r5, r0
 2738 0006 0C00     		movs	r4, r1
 2739 0008 0192     		str	r2, [sp, #4]
 2740 000a 0293     		str	r3, [sp, #8]
 734:..\..\common\lib\nokia5110/LCD5110_Graph.c **** 	int tmp;
 735:..\..\common\lib\nokia5110/LCD5110_Graph.c **** 
 736:..\..\common\lib\nokia5110/LCD5110_Graph.c **** 	if (x1>x2)
 2741              		.loc 2 736 0
 2742 000c 9042     		cmp	r0, r2
 2743 000e 01DD     		ble	.L227
 2744 0010 1500     		movs	r5, r2
 2745 0012 0190     		str	r0, [sp, #4]
 2746              	.L227:
 2747              	.LVL351:
 737:..\..\common\lib\nokia5110/LCD5110_Graph.c **** 	{
 738:..\..\common\lib\nokia5110/LCD5110_Graph.c **** 		tmp=x1;
 739:..\..\common\lib\nokia5110/LCD5110_Graph.c **** 		x1=x2;
 740:..\..\common\lib\nokia5110/LCD5110_Graph.c **** 		x2=tmp;
 741:..\..\common\lib\nokia5110/LCD5110_Graph.c **** 	}
 742:..\..\common\lib\nokia5110/LCD5110_Graph.c **** 	if (y1>y2)
 2748              		.loc 2 742 0
 2749 0014 029B     		ldr	r3, [sp, #8]
 2750              	.LVL352:
 2751 0016 9C42     		cmp	r4, r3
 2752 0018 02DD     		ble	.L228
 2753 001a 2300     		movs	r3, r4
 2754 001c 029C     		ldr	r4, [sp, #8]
 2755 001e 0293     		str	r3, [sp, #8]
 2756              	.LVL353:
 2757              	.L228:
 743:..\..\common\lib\nokia5110/LCD5110_Graph.c **** 	{
 744:..\..\common\lib\nokia5110/LCD5110_Graph.c **** 		tmp=y1;
 745:..\..\common\lib\nokia5110/LCD5110_Graph.c **** 		y1=y2;
 746:..\..\common\lib\nokia5110/LCD5110_Graph.c **** 		y2=tmp;
 747:..\..\common\lib\nokia5110/LCD5110_Graph.c **** 	}
 748:..\..\common\lib\nokia5110/LCD5110_Graph.c **** 	if ((x2-x1)>4 && (y2-y1)>4)
ARM GAS  C:\Users\Petro\AppData\Local\Temp\ccEiKVD5.s 			page 66


 2758              		.loc 2 748 0
 2759 0020 019B     		ldr	r3, [sp, #4]
 2760 0022 5B1B     		subs	r3, r3, r5
 2761 0024 0393     		str	r3, [sp, #12]
 2762 0026 042B     		cmp	r3, #4
 2763 0028 39DD     		ble	.L226
 2764              		.loc 2 748 0 is_stmt 0 discriminator 1
 2765 002a 029B     		ldr	r3, [sp, #8]
 2766 002c 1B1B     		subs	r3, r3, r4
 2767 002e 0493     		str	r3, [sp, #16]
 2768 0030 042B     		cmp	r3, #4
 2769 0032 34DD     		ble	.L226
 749:..\..\common\lib\nokia5110/LCD5110_Graph.c **** 	{
 750:..\..\common\lib\nokia5110/LCD5110_Graph.c **** 		setPixel(x1+1,y1+1);
 2770              		.loc 2 750 0 is_stmt 1
 2771 0034 661C     		adds	r6, r4, #1
 2772 0036 6F1C     		adds	r7, r5, #1
 2773 0038 BFB2     		uxth	r7, r7
 2774 003a B6B2     		uxth	r6, r6
 2775 003c 3100     		movs	r1, r6
 2776 003e 3800     		movs	r0, r7
 2777 0040 FFF7FEFF 		bl	setPixel
 2778              	.LVL354:
 751:..\..\common\lib\nokia5110/LCD5110_Graph.c **** 		setPixel(x2-1,y1+1);
 2779              		.loc 2 751 0
 2780 0044 019B     		ldr	r3, [sp, #4]
 2781 0046 3100     		movs	r1, r6
 2782 0048 013B     		subs	r3, r3, #1
 2783 004a 9BB2     		uxth	r3, r3
 2784 004c 1800     		movs	r0, r3
 2785 004e 0593     		str	r3, [sp, #20]
 2786 0050 FFF7FEFF 		bl	setPixel
 2787              	.LVL355:
 752:..\..\common\lib\nokia5110/LCD5110_Graph.c **** 		setPixel(x1+1,y2-1);
 2788              		.loc 2 752 0
 2789 0054 029B     		ldr	r3, [sp, #8]
 2790 0056 3800     		movs	r0, r7
 2791 0058 5E1E     		subs	r6, r3, #1
 2792 005a B6B2     		uxth	r6, r6
 2793 005c 3100     		movs	r1, r6
 2794 005e FFF7FEFF 		bl	setPixel
 2795              	.LVL356:
 753:..\..\common\lib\nokia5110/LCD5110_Graph.c **** 		setPixel(x2-1,y2-1);
 2796              		.loc 2 753 0
 2797 0062 3100     		movs	r1, r6
 2798 0064 0598     		ldr	r0, [sp, #20]
 2799 0066 FFF7FEFF 		bl	setPixel
 2800              	.LVL357:
 754:..\..\common\lib\nokia5110/LCD5110_Graph.c **** 		drawHLine(x1+2, y1, x2-x1-3);
 2801              		.loc 2 754 0
 2802 006a 039E     		ldr	r6, [sp, #12]
 2803 006c AF1C     		adds	r7, r5, #2
 2804 006e 033E     		subs	r6, r6, #3
 2805 0070 3200     		movs	r2, r6
 2806 0072 2100     		movs	r1, r4
 2807 0074 3800     		movs	r0, r7
 2808 0076 FFF7FEFF 		bl	drawHLine
ARM GAS  C:\Users\Petro\AppData\Local\Temp\ccEiKVD5.s 			page 67


 2809              	.LVL358:
 755:..\..\common\lib\nokia5110/LCD5110_Graph.c **** 		drawHLine(x1+2, y2, x2-x1-3);
 2810              		.loc 2 755 0
 2811 007a 3200     		movs	r2, r6
 2812 007c 0299     		ldr	r1, [sp, #8]
 2813 007e 3800     		movs	r0, r7
 2814 0080 FFF7FEFF 		bl	drawHLine
 2815              	.LVL359:
 756:..\..\common\lib\nokia5110/LCD5110_Graph.c **** 		drawVLine(x1, y1+2, y2-y1-3);
 2816              		.loc 2 756 0
 2817 0084 049E     		ldr	r6, [sp, #16]
 2818 0086 0234     		adds	r4, r4, #2
 2819              	.LVL360:
 2820 0088 033E     		subs	r6, r6, #3
 2821 008a 3200     		movs	r2, r6
 2822 008c 2100     		movs	r1, r4
 2823 008e 2800     		movs	r0, r5
 2824 0090 FFF7FEFF 		bl	drawVLine
 2825              	.LVL361:
 757:..\..\common\lib\nokia5110/LCD5110_Graph.c **** 		drawVLine(x2, y1+2, y2-y1-3);
 2826              		.loc 2 757 0
 2827 0094 3200     		movs	r2, r6
 2828 0096 2100     		movs	r1, r4
 2829 0098 0198     		ldr	r0, [sp, #4]
 2830 009a FFF7FEFF 		bl	drawVLine
 2831              	.LVL362:
 2832              	.L226:
 758:..\..\common\lib\nokia5110/LCD5110_Graph.c **** 	}
 759:..\..\common\lib\nokia5110/LCD5110_Graph.c **** }
 2833              		.loc 2 759 0
 2834 009e 07B0     		add	sp, sp, #28
 2835              		@ sp needed
 2836              	.LVL363:
 2837 00a0 F0BD     		pop	{r4, r5, r6, r7, pc}
 2838              		.cfi_endproc
 2839              	.LFE91:
 2840              		.size	drawRoundRect, .-drawRoundRect
 2841              		.section	.text.clrRoundRect,"ax",%progbits
 2842              		.align	1
 2843              		.global	clrRoundRect
 2844              		.code	16
 2845              		.thumb_func
 2846              		.type	clrRoundRect, %function
 2847              	clrRoundRect:
 2848              	.LFB92:
 760:..\..\common\lib\nokia5110/LCD5110_Graph.c **** 
 761:..\..\common\lib\nokia5110/LCD5110_Graph.c **** void clrRoundRect(int x1, int y1, int x2, int y2)
 762:..\..\common\lib\nokia5110/LCD5110_Graph.c **** {
 2849              		.loc 2 762 0
 2850              		.cfi_startproc
 2851              		@ args = 0, pretend = 0, frame = 24
 2852              		@ frame_needed = 0, uses_anonymous_args = 0
 2853              	.LVL364:
 2854 0000 F0B5     		push	{r4, r5, r6, r7, lr}
 2855              		.cfi_def_cfa_offset 20
 2856              		.cfi_offset 4, -20
 2857              		.cfi_offset 5, -16
ARM GAS  C:\Users\Petro\AppData\Local\Temp\ccEiKVD5.s 			page 68


 2858              		.cfi_offset 6, -12
 2859              		.cfi_offset 7, -8
 2860              		.cfi_offset 14, -4
 2861 0002 87B0     		sub	sp, sp, #28
 2862              		.cfi_def_cfa_offset 48
 2863              		.loc 2 762 0
 2864 0004 0500     		movs	r5, r0
 2865 0006 0C00     		movs	r4, r1
 2866 0008 0192     		str	r2, [sp, #4]
 2867 000a 0293     		str	r3, [sp, #8]
 763:..\..\common\lib\nokia5110/LCD5110_Graph.c **** 	int tmp;
 764:..\..\common\lib\nokia5110/LCD5110_Graph.c **** 
 765:..\..\common\lib\nokia5110/LCD5110_Graph.c **** 	if (x1>x2)
 2868              		.loc 2 765 0
 2869 000c 9042     		cmp	r0, r2
 2870 000e 01DD     		ble	.L231
 2871 0010 1500     		movs	r5, r2
 2872 0012 0190     		str	r0, [sp, #4]
 2873              	.L231:
 2874              	.LVL365:
 766:..\..\common\lib\nokia5110/LCD5110_Graph.c **** 	{
 767:..\..\common\lib\nokia5110/LCD5110_Graph.c **** 		tmp=x1;
 768:..\..\common\lib\nokia5110/LCD5110_Graph.c **** 		x1=x2;
 769:..\..\common\lib\nokia5110/LCD5110_Graph.c **** 		x2=tmp;
 770:..\..\common\lib\nokia5110/LCD5110_Graph.c **** 	}
 771:..\..\common\lib\nokia5110/LCD5110_Graph.c **** 	if (y1>y2)
 2875              		.loc 2 771 0
 2876 0014 029B     		ldr	r3, [sp, #8]
 2877              	.LVL366:
 2878 0016 9C42     		cmp	r4, r3
 2879 0018 02DD     		ble	.L232
 2880 001a 2300     		movs	r3, r4
 2881 001c 029C     		ldr	r4, [sp, #8]
 2882 001e 0293     		str	r3, [sp, #8]
 2883              	.LVL367:
 2884              	.L232:
 772:..\..\common\lib\nokia5110/LCD5110_Graph.c **** 	{
 773:..\..\common\lib\nokia5110/LCD5110_Graph.c **** 		tmp=y1;
 774:..\..\common\lib\nokia5110/LCD5110_Graph.c **** 		y1=y2;
 775:..\..\common\lib\nokia5110/LCD5110_Graph.c **** 		y2=tmp;
 776:..\..\common\lib\nokia5110/LCD5110_Graph.c **** 	}
 777:..\..\common\lib\nokia5110/LCD5110_Graph.c **** 	if ((x2-x1)>4 && (y2-y1)>4)
 2885              		.loc 2 777 0
 2886 0020 019B     		ldr	r3, [sp, #4]
 2887 0022 5B1B     		subs	r3, r3, r5
 2888 0024 0393     		str	r3, [sp, #12]
 2889 0026 042B     		cmp	r3, #4
 2890 0028 39DD     		ble	.L230
 2891              		.loc 2 777 0 is_stmt 0 discriminator 1
 2892 002a 029B     		ldr	r3, [sp, #8]
 2893 002c 1B1B     		subs	r3, r3, r4
 2894 002e 0493     		str	r3, [sp, #16]
 2895 0030 042B     		cmp	r3, #4
 2896 0032 34DD     		ble	.L230
 778:..\..\common\lib\nokia5110/LCD5110_Graph.c **** 	{
 779:..\..\common\lib\nokia5110/LCD5110_Graph.c **** 		clrPixel(x1+1,y1+1);
 2897              		.loc 2 779 0 is_stmt 1
ARM GAS  C:\Users\Petro\AppData\Local\Temp\ccEiKVD5.s 			page 69


 2898 0034 661C     		adds	r6, r4, #1
 2899 0036 6F1C     		adds	r7, r5, #1
 2900 0038 BFB2     		uxth	r7, r7
 2901 003a B6B2     		uxth	r6, r6
 2902 003c 3100     		movs	r1, r6
 2903 003e 3800     		movs	r0, r7
 2904 0040 FFF7FEFF 		bl	clrPixel
 2905              	.LVL368:
 780:..\..\common\lib\nokia5110/LCD5110_Graph.c **** 		clrPixel(x2-1,y1+1);
 2906              		.loc 2 780 0
 2907 0044 019B     		ldr	r3, [sp, #4]
 2908 0046 3100     		movs	r1, r6
 2909 0048 013B     		subs	r3, r3, #1
 2910 004a 9BB2     		uxth	r3, r3
 2911 004c 1800     		movs	r0, r3
 2912 004e 0593     		str	r3, [sp, #20]
 2913 0050 FFF7FEFF 		bl	clrPixel
 2914              	.LVL369:
 781:..\..\common\lib\nokia5110/LCD5110_Graph.c **** 		clrPixel(x1+1,y2-1);
 2915              		.loc 2 781 0
 2916 0054 029B     		ldr	r3, [sp, #8]
 2917 0056 3800     		movs	r0, r7
 2918 0058 5E1E     		subs	r6, r3, #1
 2919 005a B6B2     		uxth	r6, r6
 2920 005c 3100     		movs	r1, r6
 2921 005e FFF7FEFF 		bl	clrPixel
 2922              	.LVL370:
 782:..\..\common\lib\nokia5110/LCD5110_Graph.c **** 		clrPixel(x2-1,y2-1);
 2923              		.loc 2 782 0
 2924 0062 3100     		movs	r1, r6
 2925 0064 0598     		ldr	r0, [sp, #20]
 2926 0066 FFF7FEFF 		bl	clrPixel
 2927              	.LVL371:
 783:..\..\common\lib\nokia5110/LCD5110_Graph.c **** 		clrHLine(x1+2, y1, x2-x1-3);
 2928              		.loc 2 783 0
 2929 006a 039E     		ldr	r6, [sp, #12]
 2930 006c AF1C     		adds	r7, r5, #2
 2931 006e 033E     		subs	r6, r6, #3
 2932 0070 3200     		movs	r2, r6
 2933 0072 2100     		movs	r1, r4
 2934 0074 3800     		movs	r0, r7
 2935 0076 FFF7FEFF 		bl	clrHLine
 2936              	.LVL372:
 784:..\..\common\lib\nokia5110/LCD5110_Graph.c **** 		clrHLine(x1+2, y2, x2-x1-3);
 2937              		.loc 2 784 0
 2938 007a 3200     		movs	r2, r6
 2939 007c 0299     		ldr	r1, [sp, #8]
 2940 007e 3800     		movs	r0, r7
 2941 0080 FFF7FEFF 		bl	clrHLine
 2942              	.LVL373:
 785:..\..\common\lib\nokia5110/LCD5110_Graph.c **** 		clrVLine(x1, y1+2, y2-y1-3);
 2943              		.loc 2 785 0
 2944 0084 049E     		ldr	r6, [sp, #16]
 2945 0086 0234     		adds	r4, r4, #2
 2946              	.LVL374:
 2947 0088 033E     		subs	r6, r6, #3
 2948 008a 3200     		movs	r2, r6
ARM GAS  C:\Users\Petro\AppData\Local\Temp\ccEiKVD5.s 			page 70


 2949 008c 2100     		movs	r1, r4
 2950 008e 2800     		movs	r0, r5
 2951 0090 FFF7FEFF 		bl	clrVLine
 2952              	.LVL375:
 786:..\..\common\lib\nokia5110/LCD5110_Graph.c **** 		clrVLine(x2, y1+2, y2-y1-3);
 2953              		.loc 2 786 0
 2954 0094 3200     		movs	r2, r6
 2955 0096 2100     		movs	r1, r4
 2956 0098 0198     		ldr	r0, [sp, #4]
 2957 009a FFF7FEFF 		bl	clrVLine
 2958              	.LVL376:
 2959              	.L230:
 787:..\..\common\lib\nokia5110/LCD5110_Graph.c **** 	}
 788:..\..\common\lib\nokia5110/LCD5110_Graph.c **** }
 2960              		.loc 2 788 0
 2961 009e 07B0     		add	sp, sp, #28
 2962              		@ sp needed
 2963              	.LVL377:
 2964 00a0 F0BD     		pop	{r4, r5, r6, r7, pc}
 2965              		.cfi_endproc
 2966              	.LFE92:
 2967              		.size	clrRoundRect, .-clrRoundRect
 2968              		.section	.text.drawCircle,"ax",%progbits
 2969              		.align	1
 2970              		.global	drawCircle
 2971              		.code	16
 2972              		.thumb_func
 2973              		.type	drawCircle, %function
 2974              	drawCircle:
 2975              	.LFB93:
 789:..\..\common\lib\nokia5110/LCD5110_Graph.c **** 
 790:..\..\common\lib\nokia5110/LCD5110_Graph.c **** void drawCircle(int x, int y, int radius)
 791:..\..\common\lib\nokia5110/LCD5110_Graph.c **** {
 2976              		.loc 2 791 0
 2977              		.cfi_startproc
 2978              		@ args = 0, pretend = 0, frame = 32
 2979              		@ frame_needed = 0, uses_anonymous_args = 0
 2980              	.LVL378:
 792:..\..\common\lib\nokia5110/LCD5110_Graph.c **** 	int f = 1 - radius;
 2981              		.loc 2 792 0
 2982 0000 0123     		movs	r3, #1
 791:..\..\common\lib\nokia5110/LCD5110_Graph.c **** 	int f = 1 - radius;
 2983              		.loc 2 791 0
 2984 0002 F0B5     		push	{r4, r5, r6, r7, lr}
 2985              		.cfi_def_cfa_offset 20
 2986              		.cfi_offset 4, -20
 2987              		.cfi_offset 5, -16
 2988              		.cfi_offset 6, -12
 2989              		.cfi_offset 7, -8
 2990              		.cfi_offset 14, -4
 2991              		.loc 2 792 0
 2992 0004 9B1A     		subs	r3, r3, r2
 791:..\..\common\lib\nokia5110/LCD5110_Graph.c **** 	int f = 1 - radius;
 2993              		.loc 2 791 0
 2994 0006 89B0     		sub	sp, sp, #36
 2995              		.cfi_def_cfa_offset 56
 2996              		.loc 2 792 0
ARM GAS  C:\Users\Petro\AppData\Local\Temp\ccEiKVD5.s 			page 71


 2997 0008 0393     		str	r3, [sp, #12]
 2998              	.LVL379:
 793:..\..\common\lib\nokia5110/LCD5110_Graph.c **** 	int ddF_x = 1;
 794:..\..\common\lib\nokia5110/LCD5110_Graph.c **** 	int ddF_y = -2 * radius;
 2999              		.loc 2 794 0
 3000 000a 5300     		lsls	r3, r2, #1
 3001              	.LVL380:
 3002 000c 5B42     		rsbs	r3, r3, #0
 3003 000e 0793     		str	r3, [sp, #28]
 3004              	.LVL381:
 795:..\..\common\lib\nokia5110/LCD5110_Graph.c **** 	int x1 = 0;
 796:..\..\common\lib\nokia5110/LCD5110_Graph.c **** 	int y1 = radius;
 797:..\..\common\lib\nokia5110/LCD5110_Graph.c **** 	char ch, cl;
 798:..\..\common\lib\nokia5110/LCD5110_Graph.c **** 	
 799:..\..\common\lib\nokia5110/LCD5110_Graph.c **** 	setPixel(x, y + radius);
 3005              		.loc 2 799 0
 3006 0010 83B2     		uxth	r3, r0
 3007              	.LVL382:
 3008 0012 0193     		str	r3, [sp, #4]
 3009 0014 6B46     		mov	r3, sp
 791:..\..\common\lib\nokia5110/LCD5110_Graph.c **** 	int f = 1 - radius;
 3010              		.loc 2 791 0
 3011 0016 0292     		str	r2, [sp, #8]
 3012              	.LVL383:
 3013              		.loc 2 799 0
 3014 0018 1D89     		ldrh	r5, [r3, #8]
 3015 001a 8CB2     		uxth	r4, r1
 3016 001c 6119     		adds	r1, r4, r5
 3017              	.LVL384:
 3018 001e 89B2     		uxth	r1, r1
 3019 0020 0198     		ldr	r0, [sp, #4]
 3020              	.LVL385:
 3021 0022 FFF7FEFF 		bl	setPixel
 3022              	.LVL386:
 800:..\..\common\lib\nokia5110/LCD5110_Graph.c **** 	setPixel(x, y - radius);
 3023              		.loc 2 800 0
 3024 0026 611B     		subs	r1, r4, r5
 3025 0028 89B2     		uxth	r1, r1
 3026 002a 0198     		ldr	r0, [sp, #4]
 3027 002c FFF7FEFF 		bl	setPixel
 3028              	.LVL387:
 801:..\..\common\lib\nokia5110/LCD5110_Graph.c **** 	setPixel(x + radius, y);
 3029              		.loc 2 801 0
 3030 0030 019B     		ldr	r3, [sp, #4]
 3031 0032 2100     		movs	r1, r4
 3032 0034 5819     		adds	r0, r3, r5
 3033 0036 80B2     		uxth	r0, r0
 3034 0038 FFF7FEFF 		bl	setPixel
 3035              	.LVL388:
 802:..\..\common\lib\nokia5110/LCD5110_Graph.c **** 	setPixel(x - radius, y);
 3036              		.loc 2 802 0
 3037 003c 019B     		ldr	r3, [sp, #4]
 3038 003e 2100     		movs	r1, r4
 3039 0040 581B     		subs	r0, r3, r5
 3040 0042 80B2     		uxth	r0, r0
 3041 0044 FFF7FEFF 		bl	setPixel
 3042              	.LVL389:
ARM GAS  C:\Users\Petro\AppData\Local\Temp\ccEiKVD5.s 			page 72


 795:..\..\common\lib\nokia5110/LCD5110_Graph.c **** 	int y1 = radius;
 3043              		.loc 2 795 0
 3044 0048 0023     		movs	r3, #0
 3045 004a 0493     		str	r3, [sp, #16]
 3046              	.LVL390:
 3047              	.L235:
 803:..\..\common\lib\nokia5110/LCD5110_Graph.c ****  
 804:..\..\common\lib\nokia5110/LCD5110_Graph.c **** 	while(x1 < y1)
 3048              		.loc 2 804 0
 3049 004c 049B     		ldr	r3, [sp, #16]
 3050 004e 029A     		ldr	r2, [sp, #8]
 3051 0050 9342     		cmp	r3, r2
 3052 0052 57DA     		bge	.L238
 805:..\..\common\lib\nokia5110/LCD5110_Graph.c **** 	{
 806:..\..\common\lib\nokia5110/LCD5110_Graph.c **** 		if(f >= 0) 
 3053              		.loc 2 806 0
 3054 0054 039B     		ldr	r3, [sp, #12]
 3055 0056 002B     		cmp	r3, #0
 3056 0058 0ADB     		blt	.L236
 807:..\..\common\lib\nokia5110/LCD5110_Graph.c **** 		{
 808:..\..\common\lib\nokia5110/LCD5110_Graph.c **** 			y1--;
 3057              		.loc 2 808 0
 3058 005a 029B     		ldr	r3, [sp, #8]
 3059 005c 013B     		subs	r3, r3, #1
 3060 005e 0293     		str	r3, [sp, #8]
 3061              	.LVL391:
 809:..\..\common\lib\nokia5110/LCD5110_Graph.c **** 			ddF_y += 2;
 3062              		.loc 2 809 0
 3063 0060 079B     		ldr	r3, [sp, #28]
 3064              	.LVL392:
 3065 0062 0233     		adds	r3, r3, #2
 3066 0064 0793     		str	r3, [sp, #28]
 3067              	.LVL393:
 810:..\..\common\lib\nokia5110/LCD5110_Graph.c **** 			f += ddF_y;
 3068              		.loc 2 810 0
 3069 0066 079A     		ldr	r2, [sp, #28]
 3070 0068 039B     		ldr	r3, [sp, #12]
 3071              	.LVL394:
 3072 006a 9446     		mov	ip, r2
 3073 006c 6344     		add	r3, r3, ip
 3074 006e 0393     		str	r3, [sp, #12]
 3075              	.LVL395:
 3076              	.L236:
 811:..\..\common\lib\nokia5110/LCD5110_Graph.c **** 		}
 812:..\..\common\lib\nokia5110/LCD5110_Graph.c **** 		x1++;
 3077              		.loc 2 812 0
 3078 0070 049B     		ldr	r3, [sp, #16]
 813:..\..\common\lib\nokia5110/LCD5110_Graph.c **** 		ddF_x += 2;
 814:..\..\common\lib\nokia5110/LCD5110_Graph.c **** 		f += ddF_x;    
 3079              		.loc 2 814 0
 3080 0072 039A     		ldr	r2, [sp, #12]
 812:..\..\common\lib\nokia5110/LCD5110_Graph.c **** 		ddF_x += 2;
 3081              		.loc 2 812 0
 3082 0074 0133     		adds	r3, r3, #1
 3083 0076 0493     		str	r3, [sp, #16]
 3084              	.LVL396:
 3085              		.loc 2 814 0
ARM GAS  C:\Users\Petro\AppData\Local\Temp\ccEiKVD5.s 			page 73


 3086 0078 5B00     		lsls	r3, r3, #1
 3087              	.LVL397:
 3088 007a 0133     		adds	r3, r3, #1
 3089              	.LVL398:
 3090 007c D318     		adds	r3, r2, r3
 3091              	.LVL399:
 3092 007e 0393     		str	r3, [sp, #12]
 3093              	.LVL400:
 3094 0080 6B46     		mov	r3, sp
 3095              	.LVL401:
 3096 0082 1B8A     		ldrh	r3, [r3, #16]
 3097 0084 0693     		str	r3, [sp, #24]
 3098 0086 069A     		ldr	r2, [sp, #24]
 3099 0088 019B     		ldr	r3, [sp, #4]
 3100 008a 9F18     		adds	r7, r3, r2
 815:..\..\common\lib\nokia5110/LCD5110_Graph.c **** 		setPixel(x + x1, y + y1);
 3101              		.loc 2 815 0
 3102 008c 6B46     		mov	r3, sp
 3103 008e 1B89     		ldrh	r3, [r3, #8]
 3104 0090 BFB2     		uxth	r7, r7
 3105 0092 E618     		adds	r6, r4, r3
 3106 0094 B6B2     		uxth	r6, r6
 3107 0096 3100     		movs	r1, r6
 3108 0098 3800     		movs	r0, r7
 3109 009a 0593     		str	r3, [sp, #20]
 3110 009c FFF7FEFF 		bl	setPixel
 3111              	.LVL402:
 3112 00a0 069A     		ldr	r2, [sp, #24]
 3113 00a2 019B     		ldr	r3, [sp, #4]
 816:..\..\common\lib\nokia5110/LCD5110_Graph.c **** 		setPixel(x - x1, y + y1);
 3114              		.loc 2 816 0
 3115 00a4 3100     		movs	r1, r6
 3116 00a6 9D1A     		subs	r5, r3, r2
 3117 00a8 ADB2     		uxth	r5, r5
 3118 00aa 2800     		movs	r0, r5
 3119 00ac FFF7FEFF 		bl	setPixel
 3120              	.LVL403:
 817:..\..\common\lib\nokia5110/LCD5110_Graph.c **** 		setPixel(x + x1, y - y1);
 3121              		.loc 2 817 0
 3122 00b0 059B     		ldr	r3, [sp, #20]
 3123 00b2 3800     		movs	r0, r7
 3124 00b4 E61A     		subs	r6, r4, r3
 3125 00b6 B6B2     		uxth	r6, r6
 3126 00b8 3100     		movs	r1, r6
 3127 00ba FFF7FEFF 		bl	setPixel
 3128              	.LVL404:
 818:..\..\common\lib\nokia5110/LCD5110_Graph.c **** 		setPixel(x - x1, y - y1);
 3129              		.loc 2 818 0
 3130 00be 3100     		movs	r1, r6
 3131 00c0 2800     		movs	r0, r5
 3132 00c2 FFF7FEFF 		bl	setPixel
 3133              	.LVL405:
 819:..\..\common\lib\nokia5110/LCD5110_Graph.c **** 		setPixel(x + y1, y + x1);
 3134              		.loc 2 819 0
 3135 00c6 019B     		ldr	r3, [sp, #4]
 3136 00c8 059A     		ldr	r2, [sp, #20]
 3137 00ca 9F18     		adds	r7, r3, r2
ARM GAS  C:\Users\Petro\AppData\Local\Temp\ccEiKVD5.s 			page 74


 3138 00cc 069B     		ldr	r3, [sp, #24]
 3139 00ce BFB2     		uxth	r7, r7
 3140 00d0 E618     		adds	r6, r4, r3
 3141 00d2 B6B2     		uxth	r6, r6
 3142 00d4 3100     		movs	r1, r6
 3143 00d6 3800     		movs	r0, r7
 3144 00d8 FFF7FEFF 		bl	setPixel
 3145              	.LVL406:
 820:..\..\common\lib\nokia5110/LCD5110_Graph.c **** 		setPixel(x - y1, y + x1);
 3146              		.loc 2 820 0
 3147 00dc 019B     		ldr	r3, [sp, #4]
 3148 00de 059A     		ldr	r2, [sp, #20]
 3149 00e0 3100     		movs	r1, r6
 3150 00e2 9D1A     		subs	r5, r3, r2
 3151 00e4 ADB2     		uxth	r5, r5
 3152 00e6 2800     		movs	r0, r5
 3153 00e8 FFF7FEFF 		bl	setPixel
 3154              	.LVL407:
 3155 00ec 069B     		ldr	r3, [sp, #24]
 821:..\..\common\lib\nokia5110/LCD5110_Graph.c **** 		setPixel(x + y1, y - x1);
 3156              		.loc 2 821 0
 3157 00ee 3800     		movs	r0, r7
 3158 00f0 E61A     		subs	r6, r4, r3
 3159 00f2 B6B2     		uxth	r6, r6
 3160 00f4 3100     		movs	r1, r6
 3161 00f6 FFF7FEFF 		bl	setPixel
 3162              	.LVL408:
 822:..\..\common\lib\nokia5110/LCD5110_Graph.c **** 		setPixel(x - y1, y - x1);
 3163              		.loc 2 822 0
 3164 00fa 3100     		movs	r1, r6
 3165 00fc 2800     		movs	r0, r5
 3166 00fe FFF7FEFF 		bl	setPixel
 3167              	.LVL409:
 3168 0102 A3E7     		b	.L235
 3169              	.LVL410:
 3170              	.L238:
 823:..\..\common\lib\nokia5110/LCD5110_Graph.c **** 	}
 824:..\..\common\lib\nokia5110/LCD5110_Graph.c **** }
 3171              		.loc 2 824 0
 3172 0104 09B0     		add	sp, sp, #36
 3173              		@ sp needed
 3174 0106 F0BD     		pop	{r4, r5, r6, r7, pc}
 3175              		.cfi_endproc
 3176              	.LFE93:
 3177              		.size	drawCircle, .-drawCircle
 3178              		.section	.text.clrCircle,"ax",%progbits
 3179              		.align	1
 3180              		.global	clrCircle
 3181              		.code	16
 3182              		.thumb_func
 3183              		.type	clrCircle, %function
 3184              	clrCircle:
 3185              	.LFB94:
 825:..\..\common\lib\nokia5110/LCD5110_Graph.c **** 
 826:..\..\common\lib\nokia5110/LCD5110_Graph.c **** void clrCircle(int x, int y, int radius)
 827:..\..\common\lib\nokia5110/LCD5110_Graph.c **** {
 3186              		.loc 2 827 0
ARM GAS  C:\Users\Petro\AppData\Local\Temp\ccEiKVD5.s 			page 75


 3187              		.cfi_startproc
 3188              		@ args = 0, pretend = 0, frame = 32
 3189              		@ frame_needed = 0, uses_anonymous_args = 0
 3190              	.LVL411:
 828:..\..\common\lib\nokia5110/LCD5110_Graph.c **** 	int f = 1 - radius;
 3191              		.loc 2 828 0
 3192 0000 0123     		movs	r3, #1
 827:..\..\common\lib\nokia5110/LCD5110_Graph.c **** 	int f = 1 - radius;
 3193              		.loc 2 827 0
 3194 0002 F0B5     		push	{r4, r5, r6, r7, lr}
 3195              		.cfi_def_cfa_offset 20
 3196              		.cfi_offset 4, -20
 3197              		.cfi_offset 5, -16
 3198              		.cfi_offset 6, -12
 3199              		.cfi_offset 7, -8
 3200              		.cfi_offset 14, -4
 3201              		.loc 2 828 0
 3202 0004 9B1A     		subs	r3, r3, r2
 827:..\..\common\lib\nokia5110/LCD5110_Graph.c **** 	int f = 1 - radius;
 3203              		.loc 2 827 0
 3204 0006 89B0     		sub	sp, sp, #36
 3205              		.cfi_def_cfa_offset 56
 3206              		.loc 2 828 0
 3207 0008 0393     		str	r3, [sp, #12]
 3208              	.LVL412:
 829:..\..\common\lib\nokia5110/LCD5110_Graph.c **** 	int ddF_x = 1;
 830:..\..\common\lib\nokia5110/LCD5110_Graph.c **** 	int ddF_y = -2 * radius;
 3209              		.loc 2 830 0
 3210 000a 5300     		lsls	r3, r2, #1
 3211              	.LVL413:
 3212 000c 5B42     		rsbs	r3, r3, #0
 3213 000e 0793     		str	r3, [sp, #28]
 3214              	.LVL414:
 831:..\..\common\lib\nokia5110/LCD5110_Graph.c **** 	int x1 = 0;
 832:..\..\common\lib\nokia5110/LCD5110_Graph.c **** 	int y1 = radius;
 833:..\..\common\lib\nokia5110/LCD5110_Graph.c **** 	char ch, cl;
 834:..\..\common\lib\nokia5110/LCD5110_Graph.c **** 	
 835:..\..\common\lib\nokia5110/LCD5110_Graph.c **** 	clrPixel(x, y + radius);
 3215              		.loc 2 835 0
 3216 0010 83B2     		uxth	r3, r0
 3217              	.LVL415:
 3218 0012 0193     		str	r3, [sp, #4]
 3219 0014 6B46     		mov	r3, sp
 827:..\..\common\lib\nokia5110/LCD5110_Graph.c **** 	int f = 1 - radius;
 3220              		.loc 2 827 0
 3221 0016 0292     		str	r2, [sp, #8]
 3222              	.LVL416:
 3223              		.loc 2 835 0
 3224 0018 1D89     		ldrh	r5, [r3, #8]
 3225 001a 8CB2     		uxth	r4, r1
 3226 001c 6119     		adds	r1, r4, r5
 3227              	.LVL417:
 3228 001e 89B2     		uxth	r1, r1
 3229 0020 0198     		ldr	r0, [sp, #4]
 3230              	.LVL418:
 3231 0022 FFF7FEFF 		bl	clrPixel
 3232              	.LVL419:
ARM GAS  C:\Users\Petro\AppData\Local\Temp\ccEiKVD5.s 			page 76


 836:..\..\common\lib\nokia5110/LCD5110_Graph.c **** 	clrPixel(x, y - radius);
 3233              		.loc 2 836 0
 3234 0026 611B     		subs	r1, r4, r5
 3235 0028 89B2     		uxth	r1, r1
 3236 002a 0198     		ldr	r0, [sp, #4]
 3237 002c FFF7FEFF 		bl	clrPixel
 3238              	.LVL420:
 837:..\..\common\lib\nokia5110/LCD5110_Graph.c **** 	clrPixel(x + radius, y);
 3239              		.loc 2 837 0
 3240 0030 019B     		ldr	r3, [sp, #4]
 3241 0032 2100     		movs	r1, r4
 3242 0034 5819     		adds	r0, r3, r5
 3243 0036 80B2     		uxth	r0, r0
 3244 0038 FFF7FEFF 		bl	clrPixel
 3245              	.LVL421:
 838:..\..\common\lib\nokia5110/LCD5110_Graph.c **** 	clrPixel(x - radius, y);
 3246              		.loc 2 838 0
 3247 003c 019B     		ldr	r3, [sp, #4]
 3248 003e 2100     		movs	r1, r4
 3249 0040 581B     		subs	r0, r3, r5
 3250 0042 80B2     		uxth	r0, r0
 3251 0044 FFF7FEFF 		bl	clrPixel
 3252              	.LVL422:
 831:..\..\common\lib\nokia5110/LCD5110_Graph.c **** 	int y1 = radius;
 3253              		.loc 2 831 0
 3254 0048 0023     		movs	r3, #0
 3255 004a 0493     		str	r3, [sp, #16]
 3256              	.LVL423:
 3257              	.L240:
 839:..\..\common\lib\nokia5110/LCD5110_Graph.c ****  
 840:..\..\common\lib\nokia5110/LCD5110_Graph.c **** 	while(x1 < y1)
 3258              		.loc 2 840 0
 3259 004c 049B     		ldr	r3, [sp, #16]
 3260 004e 029A     		ldr	r2, [sp, #8]
 3261 0050 9342     		cmp	r3, r2
 3262 0052 57DA     		bge	.L243
 841:..\..\common\lib\nokia5110/LCD5110_Graph.c **** 	{
 842:..\..\common\lib\nokia5110/LCD5110_Graph.c **** 		if(f >= 0) 
 3263              		.loc 2 842 0
 3264 0054 039B     		ldr	r3, [sp, #12]
 3265 0056 002B     		cmp	r3, #0
 3266 0058 0ADB     		blt	.L241
 843:..\..\common\lib\nokia5110/LCD5110_Graph.c **** 		{
 844:..\..\common\lib\nokia5110/LCD5110_Graph.c **** 			y1--;
 3267              		.loc 2 844 0
 3268 005a 029B     		ldr	r3, [sp, #8]
 3269 005c 013B     		subs	r3, r3, #1
 3270 005e 0293     		str	r3, [sp, #8]
 3271              	.LVL424:
 845:..\..\common\lib\nokia5110/LCD5110_Graph.c **** 			ddF_y += 2;
 3272              		.loc 2 845 0
 3273 0060 079B     		ldr	r3, [sp, #28]
 3274              	.LVL425:
 3275 0062 0233     		adds	r3, r3, #2
 3276 0064 0793     		str	r3, [sp, #28]
 3277              	.LVL426:
 846:..\..\common\lib\nokia5110/LCD5110_Graph.c **** 			f += ddF_y;
ARM GAS  C:\Users\Petro\AppData\Local\Temp\ccEiKVD5.s 			page 77


 3278              		.loc 2 846 0
 3279 0066 079A     		ldr	r2, [sp, #28]
 3280 0068 039B     		ldr	r3, [sp, #12]
 3281              	.LVL427:
 3282 006a 9446     		mov	ip, r2
 3283 006c 6344     		add	r3, r3, ip
 3284 006e 0393     		str	r3, [sp, #12]
 3285              	.LVL428:
 3286              	.L241:
 847:..\..\common\lib\nokia5110/LCD5110_Graph.c **** 		}
 848:..\..\common\lib\nokia5110/LCD5110_Graph.c **** 		x1++;
 3287              		.loc 2 848 0
 3288 0070 049B     		ldr	r3, [sp, #16]
 849:..\..\common\lib\nokia5110/LCD5110_Graph.c **** 		ddF_x += 2;
 850:..\..\common\lib\nokia5110/LCD5110_Graph.c **** 		f += ddF_x;    
 3289              		.loc 2 850 0
 3290 0072 039A     		ldr	r2, [sp, #12]
 848:..\..\common\lib\nokia5110/LCD5110_Graph.c **** 		ddF_x += 2;
 3291              		.loc 2 848 0
 3292 0074 0133     		adds	r3, r3, #1
 3293 0076 0493     		str	r3, [sp, #16]
 3294              	.LVL429:
 3295              		.loc 2 850 0
 3296 0078 5B00     		lsls	r3, r3, #1
 3297              	.LVL430:
 3298 007a 0133     		adds	r3, r3, #1
 3299              	.LVL431:
 3300 007c D318     		adds	r3, r2, r3
 3301              	.LVL432:
 3302 007e 0393     		str	r3, [sp, #12]
 3303              	.LVL433:
 3304 0080 6B46     		mov	r3, sp
 3305              	.LVL434:
 3306 0082 1B8A     		ldrh	r3, [r3, #16]
 3307 0084 0693     		str	r3, [sp, #24]
 3308 0086 069A     		ldr	r2, [sp, #24]
 3309 0088 019B     		ldr	r3, [sp, #4]
 3310 008a 9F18     		adds	r7, r3, r2
 851:..\..\common\lib\nokia5110/LCD5110_Graph.c **** 		clrPixel(x + x1, y + y1);
 3311              		.loc 2 851 0
 3312 008c 6B46     		mov	r3, sp
 3313 008e 1B89     		ldrh	r3, [r3, #8]
 3314 0090 BFB2     		uxth	r7, r7
 3315 0092 E618     		adds	r6, r4, r3
 3316 0094 B6B2     		uxth	r6, r6
 3317 0096 3100     		movs	r1, r6
 3318 0098 3800     		movs	r0, r7
 3319 009a 0593     		str	r3, [sp, #20]
 3320 009c FFF7FEFF 		bl	clrPixel
 3321              	.LVL435:
 3322 00a0 069A     		ldr	r2, [sp, #24]
 3323 00a2 019B     		ldr	r3, [sp, #4]
 852:..\..\common\lib\nokia5110/LCD5110_Graph.c **** 		clrPixel(x - x1, y + y1);
 3324              		.loc 2 852 0
 3325 00a4 3100     		movs	r1, r6
 3326 00a6 9D1A     		subs	r5, r3, r2
 3327 00a8 ADB2     		uxth	r5, r5
ARM GAS  C:\Users\Petro\AppData\Local\Temp\ccEiKVD5.s 			page 78


 3328 00aa 2800     		movs	r0, r5
 3329 00ac FFF7FEFF 		bl	clrPixel
 3330              	.LVL436:
 853:..\..\common\lib\nokia5110/LCD5110_Graph.c **** 		clrPixel(x + x1, y - y1);
 3331              		.loc 2 853 0
 3332 00b0 059B     		ldr	r3, [sp, #20]
 3333 00b2 3800     		movs	r0, r7
 3334 00b4 E61A     		subs	r6, r4, r3
 3335 00b6 B6B2     		uxth	r6, r6
 3336 00b8 3100     		movs	r1, r6
 3337 00ba FFF7FEFF 		bl	clrPixel
 3338              	.LVL437:
 854:..\..\common\lib\nokia5110/LCD5110_Graph.c **** 		clrPixel(x - x1, y - y1);
 3339              		.loc 2 854 0
 3340 00be 3100     		movs	r1, r6
 3341 00c0 2800     		movs	r0, r5
 3342 00c2 FFF7FEFF 		bl	clrPixel
 3343              	.LVL438:
 855:..\..\common\lib\nokia5110/LCD5110_Graph.c **** 		clrPixel(x + y1, y + x1);
 3344              		.loc 2 855 0
 3345 00c6 019B     		ldr	r3, [sp, #4]
 3346 00c8 059A     		ldr	r2, [sp, #20]
 3347 00ca 9F18     		adds	r7, r3, r2
 3348 00cc 069B     		ldr	r3, [sp, #24]
 3349 00ce BFB2     		uxth	r7, r7
 3350 00d0 E618     		adds	r6, r4, r3
 3351 00d2 B6B2     		uxth	r6, r6
 3352 00d4 3100     		movs	r1, r6
 3353 00d6 3800     		movs	r0, r7
 3354 00d8 FFF7FEFF 		bl	clrPixel
 3355              	.LVL439:
 856:..\..\common\lib\nokia5110/LCD5110_Graph.c **** 		clrPixel(x - y1, y + x1);
 3356              		.loc 2 856 0
 3357 00dc 019B     		ldr	r3, [sp, #4]
 3358 00de 059A     		ldr	r2, [sp, #20]
 3359 00e0 3100     		movs	r1, r6
 3360 00e2 9D1A     		subs	r5, r3, r2
 3361 00e4 ADB2     		uxth	r5, r5
 3362 00e6 2800     		movs	r0, r5
 3363 00e8 FFF7FEFF 		bl	clrPixel
 3364              	.LVL440:
 3365 00ec 069B     		ldr	r3, [sp, #24]
 857:..\..\common\lib\nokia5110/LCD5110_Graph.c **** 		clrPixel(x + y1, y - x1);
 3366              		.loc 2 857 0
 3367 00ee 3800     		movs	r0, r7
 3368 00f0 E61A     		subs	r6, r4, r3
 3369 00f2 B6B2     		uxth	r6, r6
 3370 00f4 3100     		movs	r1, r6
 3371 00f6 FFF7FEFF 		bl	clrPixel
 3372              	.LVL441:
 858:..\..\common\lib\nokia5110/LCD5110_Graph.c **** 		clrPixel(x - y1, y - x1);
 3373              		.loc 2 858 0
 3374 00fa 3100     		movs	r1, r6
 3375 00fc 2800     		movs	r0, r5
 3376 00fe FFF7FEFF 		bl	clrPixel
 3377              	.LVL442:
 3378 0102 A3E7     		b	.L240
ARM GAS  C:\Users\Petro\AppData\Local\Temp\ccEiKVD5.s 			page 79


 3379              	.LVL443:
 3380              	.L243:
 859:..\..\common\lib\nokia5110/LCD5110_Graph.c **** 	}
 860:..\..\common\lib\nokia5110/LCD5110_Graph.c **** }
 3381              		.loc 2 860 0
 3382 0104 09B0     		add	sp, sp, #36
 3383              		@ sp needed
 3384 0106 F0BD     		pop	{r4, r5, r6, r7, pc}
 3385              		.cfi_endproc
 3386              	.LFE94:
 3387              		.size	clrCircle, .-clrCircle
 3388              		.section	.text.drawBitmap,"ax",%progbits
 3389              		.align	1
 3390              		.global	drawBitmap
 3391              		.code	16
 3392              		.thumb_func
 3393              		.type	drawBitmap, %function
 3394              	drawBitmap:
 3395              	.LFB95:
 861:..\..\common\lib\nokia5110/LCD5110_Graph.c **** 
 862:..\..\common\lib\nokia5110/LCD5110_Graph.c **** void drawBitmap(int x, int y, uint8_t* bitmap, int sx, int sy)
 863:..\..\common\lib\nokia5110/LCD5110_Graph.c **** {
 3396              		.loc 2 863 0
 3397              		.cfi_startproc
 3398              		@ args = 4, pretend = 0, frame = 24
 3399              		@ frame_needed = 0, uses_anonymous_args = 0
 3400              	.LVL444:
 3401 0000 F0B5     		push	{r4, r5, r6, r7, lr}
 3402              		.cfi_def_cfa_offset 20
 3403              		.cfi_offset 4, -20
 3404              		.cfi_offset 5, -16
 3405              		.cfi_offset 6, -12
 3406              		.cfi_offset 7, -8
 3407              		.cfi_offset 14, -4
 864:..\..\common\lib\nokia5110/LCD5110_Graph.c **** 	int bit;
 865:..\..\common\lib\nokia5110/LCD5110_Graph.c **** 	uint8_t data;
 866:..\..\common\lib\nokia5110/LCD5110_Graph.c **** 
 867:..\..\common\lib\nokia5110/LCD5110_Graph.c ****     int cy;
 868:..\..\common\lib\nokia5110/LCD5110_Graph.c **** 	for (cy=0; cy<sy; cy++)
 3408              		.loc 2 868 0
 3409 0002 0025     		movs	r5, #0
 863:..\..\common\lib\nokia5110/LCD5110_Graph.c **** 	int bit;
 3410              		.loc 2 863 0
 3411 0004 87B0     		sub	sp, sp, #28
 3412              		.cfi_def_cfa_offset 48
 863:..\..\common\lib\nokia5110/LCD5110_Graph.c **** 	int bit;
 3413              		.loc 2 863 0
 3414 0006 0490     		str	r0, [sp, #16]
 3415 0008 0592     		str	r2, [sp, #20]
 3416 000a 0193     		str	r3, [sp, #4]
 3417 000c 8CB2     		uxth	r4, r1
 3418              	.LVL445:
 3419              	.L245:
 3420              		.loc 2 868 0 discriminator 1
 3421 000e 0C9B     		ldr	r3, [sp, #48]
 3422 0010 9D42     		cmp	r5, r3
 3423 0012 2EDA     		bge	.L252
ARM GAS  C:\Users\Petro\AppData\Local\Temp\ccEiKVD5.s 			page 80


 3424              	.LVL446:
 3425              	.LBB68:
 869:..\..\common\lib\nokia5110/LCD5110_Graph.c **** 	{
 870:..\..\common\lib\nokia5110/LCD5110_Graph.c **** 		bit= cy % 8;
 871:..\..\common\lib\nokia5110/LCD5110_Graph.c ****         int cx;
 872:..\..\common\lib\nokia5110/LCD5110_Graph.c **** 		for(cx=0; cx<sx; cx++)
 873:..\..\common\lib\nokia5110/LCD5110_Graph.c **** 		{
 874:..\..\common\lib\nokia5110/LCD5110_Graph.c **** 			data=bitmapbyte(cx+((cy/8)*sx));
 3426              		.loc 2 874 0
 3427 0014 0722     		movs	r2, #7
 3428 0016 EB17     		asrs	r3, r5, #31
 3429 0018 1340     		ands	r3, r2
 3430 001a 5B19     		adds	r3, r3, r5
 3431 001c 019A     		ldr	r2, [sp, #4]
 3432 001e DB10     		asrs	r3, r3, #3
 3433 0020 5A43     		muls	r2, r3
 875:..\..\common\lib\nokia5110/LCD5110_Graph.c **** 			if ((data & (1<<bit))>0)
 3434              		.loc 2 875 0
 3435 0022 154B     		ldr	r3, .L254
 874:..\..\common\lib\nokia5110/LCD5110_Graph.c **** 			if ((data & (1<<bit))>0)
 3436              		.loc 2 874 0
 3437 0024 0392     		str	r2, [sp, #12]
 3438              		.loc 2 875 0
 3439 0026 2B40     		ands	r3, r5
 3440 0028 04D5     		bpl	.L246
 3441 002a 0822     		movs	r2, #8
 3442 002c 013B     		subs	r3, r3, #1
 3443 002e 5242     		rsbs	r2, r2, #0
 3444 0030 1343     		orrs	r3, r2
 3445 0032 0133     		adds	r3, r3, #1
 3446              	.L246:
 3447 0034 0122     		movs	r2, #1
 3448 0036 9A40     		lsls	r2, r2, r3
 3449 0038 6B46     		mov	r3, sp
 872:..\..\common\lib\nokia5110/LCD5110_Graph.c **** 		{
 3450              		.loc 2 872 0
 3451 003a 0027     		movs	r7, #0
 3452 003c 1E8A     		ldrh	r6, [r3, #16]
 3453              		.loc 2 875 0
 3454 003e 0292     		str	r2, [sp, #8]
 3455              	.LVL447:
 3456              	.L247:
 872:..\..\common\lib\nokia5110/LCD5110_Graph.c **** 		{
 3457              		.loc 2 872 0 discriminator 1
 3458 0040 019B     		ldr	r3, [sp, #4]
 3459 0042 9F42     		cmp	r7, r3
 3460 0044 11DA     		bge	.L253
 3461              	.LVL448:
 874:..\..\common\lib\nokia5110/LCD5110_Graph.c **** 			if ((data & (1<<bit))>0)
 3462              		.loc 2 874 0
 3463 0046 039A     		ldr	r2, [sp, #12]
 3464 0048 059B     		ldr	r3, [sp, #20]
 876:..\..\common\lib\nokia5110/LCD5110_Graph.c **** 				setPixel(x+cx, y+cy);
 3465              		.loc 2 876 0
 3466 004a 2100     		movs	r1, r4
 874:..\..\common\lib\nokia5110/LCD5110_Graph.c **** 			if ((data & (1<<bit))>0)
 3467              		.loc 2 874 0
ARM GAS  C:\Users\Petro\AppData\Local\Temp\ccEiKVD5.s 			page 81


 3468 004c 9B18     		adds	r3, r3, r2
 875:..\..\common\lib\nokia5110/LCD5110_Graph.c **** 				setPixel(x+cx, y+cy);
 3469              		.loc 2 875 0
 3470 004e DB5D     		ldrb	r3, [r3, r7]
 3471 0050 029A     		ldr	r2, [sp, #8]
 3472              		.loc 2 876 0
 3473 0052 3000     		movs	r0, r6
 875:..\..\common\lib\nokia5110/LCD5110_Graph.c **** 				setPixel(x+cx, y+cy);
 3474              		.loc 2 875 0
 3475 0054 1A42     		tst	r2, r3
 3476 0056 02D0     		beq	.L248
 3477              		.loc 2 876 0
 3478 0058 FFF7FEFF 		bl	setPixel
 3479              	.LVL449:
 3480 005c 01E0     		b	.L249
 3481              	.LVL450:
 3482              	.L248:
 877:..\..\common\lib\nokia5110/LCD5110_Graph.c **** 			else
 878:..\..\common\lib\nokia5110/LCD5110_Graph.c **** 				clrPixel(x+cx, y+cy);
 3483              		.loc 2 878 0
 3484 005e FFF7FEFF 		bl	clrPixel
 3485              	.LVL451:
 3486              	.L249:
 3487 0062 0136     		adds	r6, r6, #1
 872:..\..\common\lib\nokia5110/LCD5110_Graph.c **** 		{
 3488              		.loc 2 872 0 discriminator 2
 3489 0064 0137     		adds	r7, r7, #1
 3490              	.LVL452:
 3491 0066 B6B2     		uxth	r6, r6
 3492 0068 EAE7     		b	.L247
 3493              	.L253:
 3494 006a 0134     		adds	r4, r4, #1
 3495              	.LBE68:
 868:..\..\common\lib\nokia5110/LCD5110_Graph.c **** 	{
 3496              		.loc 2 868 0 discriminator 2
 3497 006c 0135     		adds	r5, r5, #1
 3498              	.LVL453:
 3499 006e A4B2     		uxth	r4, r4
 3500 0070 CDE7     		b	.L245
 3501              	.LVL454:
 3502              	.L252:
 879:..\..\common\lib\nokia5110/LCD5110_Graph.c **** 		}
 880:..\..\common\lib\nokia5110/LCD5110_Graph.c **** 	}      
 881:..\..\common\lib\nokia5110/LCD5110_Graph.c **** }
 3503              		.loc 2 881 0
 3504 0072 07B0     		add	sp, sp, #28
 3505              		@ sp needed
 3506              	.LVL455:
 3507 0074 F0BD     		pop	{r4, r5, r6, r7, pc}
 3508              	.L255:
 3509 0076 C046     		.align	2
 3510              	.L254:
 3511 0078 07000080 		.word	-2147483641
 3512              		.cfi_endproc
 3513              	.LFE95:
 3514              		.size	drawBitmap, .-drawBitmap
 3515              		.comm	_contrast,4,4
ARM GAS  C:\Users\Petro\AppData\Local\Temp\ccEiKVD5.s 			page 82


 3516              		.comm	_sleep,1,1
 3517              		.comm	scrbuf,504,1
 3518              		.comm	cfont,12,4
 3519              		.section	.rodata.str1.1,"aMS",%progbits,1
 3520              	.LC0:
 3521 0000 25252569 		.ascii	"%%%i.%if\000"
 3521      2E256966 
 3521      00
 3522              		.text
 3523              	.Letext0:
 3524              		.file 3 "c:\\program files (x86)\\cypress\\psoc creator\\4.1\\psoc creator\\import\\gnu\\arm\\5.4.
 3525              		.file 4 "c:\\program files (x86)\\cypress\\psoc creator\\4.1\\psoc creator\\import\\gnu\\arm\\5.4.
 3526              		.file 5 "Generated_Source\\PSoC4/cytypes.h"
 3527              		.file 6 "..\\..\\common\\lib\\nokia5110\\LCD5110_Graph.h"
 3528              		.file 7 "Generated_Source\\PSoC4/RTC.h"
 3529              		.file 8 "c:\\program files (x86)\\cypress\\psoc creator\\4.1\\psoc creator\\import\\gnu\\arm\\5.4.
 3530              		.file 9 "Generated_Source\\PSoC4/DC.h"
 3531              		.file 10 "Generated_Source\\PSoC4/CE.h"
 3532              		.file 11 "Generated_Source\\PSoC4/SwSPI_Master.h"
 3533              		.file 12 "Generated_Source\\PSoC4/RST.h"
 3534              		.file 13 "c:\\program files (x86)\\cypress\\psoc creator\\4.1\\psoc creator\\import\\gnu\\arm\\5.4
 3535              		.file 14 "Generated_Source\\PSoC4/ble_Stack.h"