ARM GAS  C:\Users\Petro\AppData\Local\Temp\cc2KAOUG.s 			page 1


   1              		.syntax unified
   2              		.cpu cortex-m0
   3              		.fpu softvfp
   4              		.eabi_attribute 20, 1
   5              		.eabi_attribute 21, 1
   6              		.eabi_attribute 23, 3
   7              		.eabi_attribute 24, 1
   8              		.eabi_attribute 25, 1
   9              		.eabi_attribute 26, 1
  10              		.eabi_attribute 30, 4
  11              		.eabi_attribute 34, 0
  12              		.eabi_attribute 18, 4
  13              		.thumb
  14              		.syntax unified
  15              		.file	"LED.c"
  16              		.text
  17              	.Ltext0:
  18              		.cfi_sections	.debug_frame
  19              		.section	.text.LedHandler,"ax",%progbits
  20              		.align	1
  21              		.global	LedHandler
  22              		.code	16
  23              		.thumb_func
  24              		.type	LedHandler, %function
  25              	LedHandler:
  26              	.LFB63:
  27              		.file 1 "..\\..\\common\\lib\\lib_LED\\LED.c"
   1:..\..\common\lib\lib_LED/LED.c **** /* ========================================
   2:..\..\common\lib\lib_LED/LED.c ****  *
   3:..\..\common\lib\lib_LED/LED.c ****  * Copyright YOUR COMPANY, THE YEAR
   4:..\..\common\lib\lib_LED/LED.c ****  * All Rights Reserved
   5:..\..\common\lib\lib_LED/LED.c ****  * UNPUBLISHED, LICENSED SOFTWARE.
   6:..\..\common\lib\lib_LED/LED.c ****  *
   7:..\..\common\lib\lib_LED/LED.c ****  * CONFIDENTIAL AND PROPRIETARY INFORMATION
   8:..\..\common\lib\lib_LED/LED.c ****  * WHICH IS THE PROPERTY OF your company.
   9:..\..\common\lib\lib_LED/LED.c ****  *
  10:..\..\common\lib\lib_LED/LED.c ****  * ========================================
  11:..\..\common\lib\lib_LED/LED.c **** */
  12:..\..\common\lib\lib_LED/LED.c **** #include "LED.h"
  13:..\..\common\lib\lib_LED/LED.c **** #include <Timer_LED.h>
  14:..\..\common\lib\lib_LED/LED.c **** #include <Int_Timer_Led.h>
  15:..\..\common\lib\lib_LED/LED.c **** //#include "appGlobal.h"
  16:..\..\common\lib\lib_LED/LED.c **** #ifdef START_MODULE
  17:..\..\common\lib\lib_LED/LED.c **** #include <LED_RED_PIN.h>
  18:..\..\common\lib\lib_LED/LED.c **** #include <LED_GREEN_PIN.h>
  19:..\..\common\lib\lib_LED/LED.c **** #endif
  20:..\..\common\lib\lib_LED/LED.c **** #ifdef FINISH_MODULE
  21:..\..\common\lib\lib_LED/LED.c **** #include <LED_PIN.h>
  22:..\..\common\lib\lib_LED/LED.c **** #endif
  23:..\..\common\lib\lib_LED/LED.c **** // Max pulses in 16-Bit Resolution
  24:..\..\common\lib\lib_LED/LED.c **** #define MAX_TICKS_16BIT                      (65535)
  25:..\..\common\lib\lib_LED/LED.c **** 
  26:..\..\common\lib\lib_LED/LED.c **** // Frequency Timer for Led in Hz. 
  27:..\..\common\lib\lib_LED/LED.c **** #define FREQ_TIMER_LED                       (1000u)
  28:..\..\common\lib\lib_LED/LED.c **** 
  29:..\..\common\lib\lib_LED/LED.c **** /*******************************************
  30:..\..\common\lib\lib_LED/LED.c ****     Change Frequency value to count pulses
ARM GAS  C:\Users\Petro\AppData\Local\Temp\cc2KAOUG.s 			page 2


  31:..\..\common\lib\lib_LED/LED.c ****     Macros which value count pulses
  32:..\..\common\lib\lib_LED/LED.c ****     Arguments
  33:..\..\common\lib\lib_LED/LED.c ****                 Freq: Frequency with which want 
  34:..\..\common\lib\lib_LED/LED.c ****                     light LED indicator
  35:..\..\common\lib\lib_LED/LED.c ****     Macro
  36:..\..\common\lib\lib_LED/LED.c ****                 FREQ_TIMER_LED : 
  37:..\..\common\lib\lib_LED/LED.c ****                     Input Clock Timer_LED Frequency
  38:..\..\common\lib\lib_LED/LED.c ****     Result 
  39:..\..\common\lib\lib_LED/LED.c ****                 Count pulses which need 
  40:..\..\common\lib\lib_LED/LED.c ****                     upload as Period in Timer
  41:..\..\common\lib\lib_LED/LED.c ****                 
  42:..\..\common\lib\lib_LED/LED.c ****                 Diving 2 because One Period have Low 
  43:..\..\common\lib\lib_LED/LED.c ****                     and Hidh Levels
  44:..\..\common\lib\lib_LED/LED.c ****     
  45:..\..\common\lib\lib_LED/LED.c **** *******************************************/
  46:..\..\common\lib\lib_LED/LED.c **** 
  47:..\..\common\lib\lib_LED/LED.c **** #define FreqToTicks(Freq)        FREQ_TIMER_LED/(2*Freq)  
  48:..\..\common\lib\lib_LED/LED.c **** CY_ISR_PROTO(LedHandler); /* Interrupt Timer */
  49:..\..\common\lib\lib_LED/LED.c **** 
  50:..\..\common\lib\lib_LED/LED.c **** uint8_t LED_InitValue;
  51:..\..\common\lib\lib_LED/LED.c **** 
  52:..\..\common\lib\lib_LED/LED.c **** 
  53:..\..\common\lib\lib_LED/LED.c **** /*
  54:..\..\common\lib\lib_LED/LED.c ****     Initialization timer and add interrupt to him 
  55:..\..\common\lib\lib_LED/LED.c **** */
  56:..\..\common\lib\lib_LED/LED.c **** void LedInit(void)
  57:..\..\common\lib\lib_LED/LED.c **** {
  58:..\..\common\lib\lib_LED/LED.c ****     Timer_LED_Init();
  59:..\..\common\lib\lib_LED/LED.c ****     if (!LED_InitValue)
  60:..\..\common\lib\lib_LED/LED.c ****     {
  61:..\..\common\lib\lib_LED/LED.c ****         Int_Timer_Led_StartEx(LedHandler);
  62:..\..\common\lib\lib_LED/LED.c ****     }
  63:..\..\common\lib\lib_LED/LED.c ****     LED_InitValue = 1;
  64:..\..\common\lib\lib_LED/LED.c **** }
  65:..\..\common\lib\lib_LED/LED.c **** 
  66:..\..\common\lib\lib_LED/LED.c **** /*
  67:..\..\common\lib\lib_LED/LED.c ****     Interrupt handler after lefting time one period light
  68:..\..\common\lib\lib_LED/LED.c **** */
  69:..\..\common\lib\lib_LED/LED.c **** #ifdef START_MODULE
  70:..\..\common\lib\lib_LED/LED.c **** CY_ISR(LedHandler)
  71:..\..\common\lib\lib_LED/LED.c **** {
  72:..\..\common\lib\lib_LED/LED.c ****     LED_RED_PIN_Write(~LED_RED_PIN_Read());
  73:..\..\common\lib\lib_LED/LED.c ****     Timer_LED_ClearInterrupt(Timer_LED_INTR_MASK_CC_MATCH);
  74:..\..\common\lib\lib_LED/LED.c **** }
  75:..\..\common\lib\lib_LED/LED.c **** #endif 
  76:..\..\common\lib\lib_LED/LED.c **** #ifdef FINISH_MODULE
  77:..\..\common\lib\lib_LED/LED.c **** CY_ISR(LedHandler)
  78:..\..\common\lib\lib_LED/LED.c **** {
  28              		.loc 1 78 0
  29              		.cfi_startproc
  30              		@ args = 0, pretend = 0, frame = 0
  31              		@ frame_needed = 0, uses_anonymous_args = 0
  32 0000 10B5     		push	{r4, lr}
  33              		.cfi_def_cfa_offset 8
  34              		.cfi_offset 4, -8
  35              		.cfi_offset 14, -4
  79:..\..\common\lib\lib_LED/LED.c ****     LED_PIN_Write(~LED_PIN_Read());
ARM GAS  C:\Users\Petro\AppData\Local\Temp\cc2KAOUG.s 			page 3


  36              		.loc 1 79 0
  37 0002 FFF7FEFF 		bl	LED_PIN_Read
  38              	.LVL0:
  39 0006 C043     		mvns	r0, r0
  40 0008 C0B2     		uxtb	r0, r0
  41 000a FFF7FEFF 		bl	LED_PIN_Write
  42              	.LVL1:
  80:..\..\common\lib\lib_LED/LED.c ****     Timer_LED_ClearInterrupt(Timer_LED_INTR_MASK_CC_MATCH);
  43              		.loc 1 80 0
  44 000e 0220     		movs	r0, #2
  45 0010 FFF7FEFF 		bl	Timer_LED_ClearInterrupt
  46              	.LVL2:
  81:..\..\common\lib\lib_LED/LED.c **** }
  47              		.loc 1 81 0
  48              		@ sp needed
  49 0014 10BD     		pop	{r4, pc}
  50              		.cfi_endproc
  51              	.LFE63:
  52              		.size	LedHandler, .-LedHandler
  53              		.section	.text.LedInit,"ax",%progbits
  54              		.align	1
  55              		.global	LedInit
  56              		.code	16
  57              		.thumb_func
  58              		.type	LedInit, %function
  59              	LedInit:
  60              	.LFB62:
  57:..\..\common\lib\lib_LED/LED.c ****     Timer_LED_Init();
  61              		.loc 1 57 0
  62              		.cfi_startproc
  63              		@ args = 0, pretend = 0, frame = 0
  64              		@ frame_needed = 0, uses_anonymous_args = 0
  65 0000 10B5     		push	{r4, lr}
  66              		.cfi_def_cfa_offset 8
  67              		.cfi_offset 4, -8
  68              		.cfi_offset 14, -4
  58:..\..\common\lib\lib_LED/LED.c ****     if (!LED_InitValue)
  69              		.loc 1 58 0
  70 0002 FFF7FEFF 		bl	Timer_LED_Init
  71              	.LVL3:
  59:..\..\common\lib\lib_LED/LED.c ****     {
  72              		.loc 1 59 0
  73 0006 054B     		ldr	r3, .L5
  74 0008 1A78     		ldrb	r2, [r3]
  75 000a 1C00     		movs	r4, r3
  76 000c 002A     		cmp	r2, #0
  77 000e 02D1     		bne	.L3
  61:..\..\common\lib\lib_LED/LED.c ****     }
  78              		.loc 1 61 0
  79 0010 0348     		ldr	r0, .L5+4
  80 0012 FFF7FEFF 		bl	Int_Timer_Led_StartEx
  81              	.LVL4:
  82              	.L3:
  63:..\..\common\lib\lib_LED/LED.c **** }
  83              		.loc 1 63 0
  84 0016 0123     		movs	r3, #1
  64:..\..\common\lib\lib_LED/LED.c **** 
ARM GAS  C:\Users\Petro\AppData\Local\Temp\cc2KAOUG.s 			page 4


  85              		.loc 1 64 0
  86              		@ sp needed
  63:..\..\common\lib\lib_LED/LED.c **** }
  87              		.loc 1 63 0
  88 0018 2370     		strb	r3, [r4]
  64:..\..\common\lib\lib_LED/LED.c **** 
  89              		.loc 1 64 0
  90 001a 10BD     		pop	{r4, pc}
  91              	.L6:
  92              		.align	2
  93              	.L5:
  94 001c 00000000 		.word	LED_InitValue
  95 0020 00000000 		.word	LedHandler
  96              		.cfi_endproc
  97              	.LFE62:
  98              		.size	LedInit, .-LedInit
  99              		.global	__aeabi_uidiv
 100              		.section	.text.LedBlink,"ax",%progbits
 101              		.align	1
 102              		.global	LedBlink
 103              		.code	16
 104              		.thumb_func
 105              		.type	LedBlink, %function
 106              	LedBlink:
 107              	.LFB64:
  82:..\..\common\lib\lib_LED/LED.c **** #endif
  83:..\..\common\lib\lib_LED/LED.c **** 
  84:..\..\common\lib\lib_LED/LED.c **** /* 
  85:..\..\common\lib\lib_LED/LED.c ****     Blinking Led with Frequency
  86:..\..\common\lib\lib_LED/LED.c ****     Arguments: 
  87:..\..\common\lib\lib_LED/LED.c ****         uint16_t Frequency: 
  88:..\..\common\lib\lib_LED/LED.c ****         Frequency with which LED will blinking
  89:..\..\common\lib\lib_LED/LED.c ****         Value in Hz
  90:..\..\common\lib\lib_LED/LED.c **** */
  91:..\..\common\lib\lib_LED/LED.c **** #ifdef START_MODULE
  92:..\..\common\lib\lib_LED/LED.c **** void LedRedBlink(uint16_t Frequency)
  93:..\..\common\lib\lib_LED/LED.c **** {
  94:..\..\common\lib\lib_LED/LED.c ****     uint32_t time_l;
  95:..\..\common\lib\lib_LED/LED.c ****     time_l = FreqToTicks(Frequency);
  96:..\..\common\lib\lib_LED/LED.c ****     Timer_LED_WritePeriod(time_l);
  97:..\..\common\lib\lib_LED/LED.c ****     Timer_LED_Enable();
  98:..\..\common\lib\lib_LED/LED.c **** }
  99:..\..\common\lib\lib_LED/LED.c **** #endif
 100:..\..\common\lib\lib_LED/LED.c **** #ifdef FINISH_MODULE
 101:..\..\common\lib\lib_LED/LED.c **** void LedBlink(uint16_t Frequency)
 102:..\..\common\lib\lib_LED/LED.c **** {
 108              		.loc 1 102 0
 109              		.cfi_startproc
 110              		@ args = 0, pretend = 0, frame = 0
 111              		@ frame_needed = 0, uses_anonymous_args = 0
 112              	.LVL5:
 103:..\..\common\lib\lib_LED/LED.c ****     uint32_t time_l;
 104:..\..\common\lib\lib_LED/LED.c ****     time_l = FreqToTicks(Frequency);
 105:..\..\common\lib\lib_LED/LED.c ****     Timer_LED_WritePeriod(time_l);
 113              		.loc 1 105 0
 114 0000 4100     		lsls	r1, r0, #1
 115 0002 FA20     		movs	r0, #250
ARM GAS  C:\Users\Petro\AppData\Local\Temp\cc2KAOUG.s 			page 5


 116              	.LVL6:
 102:..\..\common\lib\lib_LED/LED.c ****     uint32_t time_l;
 117              		.loc 1 102 0
 118 0004 10B5     		push	{r4, lr}
 119              		.cfi_def_cfa_offset 8
 120              		.cfi_offset 4, -8
 121              		.cfi_offset 14, -4
 122              		.loc 1 105 0
 123 0006 8000     		lsls	r0, r0, #2
 124 0008 FFF7FEFF 		bl	__aeabi_uidiv
 125              	.LVL7:
 126 000c FFF7FEFF 		bl	Timer_LED_WritePeriod
 127              	.LVL8:
 106:..\..\common\lib\lib_LED/LED.c ****     Timer_LED_Enable();
 107:..\..\common\lib\lib_LED/LED.c **** }
 128              		.loc 1 107 0
 129              		@ sp needed
 106:..\..\common\lib\lib_LED/LED.c ****     Timer_LED_Enable();
 130              		.loc 1 106 0
 131 0010 FFF7FEFF 		bl	Timer_LED_Enable
 132              	.LVL9:
 133              		.loc 1 107 0
 134 0014 10BD     		pop	{r4, pc}
 135              		.cfi_endproc
 136              	.LFE64:
 137              		.size	LedBlink, .-LedBlink
 138              		.section	.text.SetLedState,"ax",%progbits
 139              		.align	1
 140              		.global	SetLedState
 141              		.code	16
 142              		.thumb_func
 143              		.type	SetLedState, %function
 144              	SetLedState:
 145              	.LFB65:
 108:..\..\common\lib\lib_LED/LED.c **** #endif
 109:..\..\common\lib\lib_LED/LED.c **** 
 110:..\..\common\lib\lib_LED/LED.c **** /* 
 111:..\..\common\lib\lib_LED/LED.c ****     Set static state LED indicator
 112:..\..\common\lib\lib_LED/LED.c ****     Arguments: 
 113:..\..\common\lib\lib_LED/LED.c ****         uint8_t State: 
 114:..\..\common\lib\lib_LED/LED.c ****         High or low state.
 115:..\..\common\lib\lib_LED/LED.c ****         High - ENABLE (1u), Low - Disable(0u)
 116:..\..\common\lib\lib_LED/LED.c **** */
 117:..\..\common\lib\lib_LED/LED.c **** #ifdef START_MODULE
 118:..\..\common\lib\lib_LED/LED.c **** void SetLedsState(uint8_t stateRed, uint8_t stateGreen)
 119:..\..\common\lib\lib_LED/LED.c **** {
 120:..\..\common\lib\lib_LED/LED.c ****     Timer_LED_Stop();
 121:..\..\common\lib\lib_LED/LED.c ****     LED_RED_PIN_Write(stateRed);
 122:..\..\common\lib\lib_LED/LED.c ****     LED_GREEN_PIN_Write(stateGreen);
 123:..\..\common\lib\lib_LED/LED.c **** }
 124:..\..\common\lib\lib_LED/LED.c **** #endif
 125:..\..\common\lib\lib_LED/LED.c **** #ifdef FINISH_MODULE
 126:..\..\common\lib\lib_LED/LED.c **** void SetLedState(uint8_t State)
 127:..\..\common\lib\lib_LED/LED.c **** {
 146              		.loc 1 127 0
 147              		.cfi_startproc
 148              		@ args = 0, pretend = 0, frame = 0
ARM GAS  C:\Users\Petro\AppData\Local\Temp\cc2KAOUG.s 			page 6


 149              		@ frame_needed = 0, uses_anonymous_args = 0
 150              	.LVL10:
 151 0000 10B5     		push	{r4, lr}
 152              		.cfi_def_cfa_offset 8
 153              		.cfi_offset 4, -8
 154              		.cfi_offset 14, -4
 155              		.loc 1 127 0
 156 0002 0400     		movs	r4, r0
 128:..\..\common\lib\lib_LED/LED.c ****     Timer_LED_Stop();
 157              		.loc 1 128 0
 158 0004 FFF7FEFF 		bl	Timer_LED_Stop
 159              	.LVL11:
 129:..\..\common\lib\lib_LED/LED.c ****     LED_PIN_Write(State);
 160              		.loc 1 129 0
 161 0008 2000     		movs	r0, r4
 162 000a FFF7FEFF 		bl	LED_PIN_Write
 163              	.LVL12:
 130:..\..\common\lib\lib_LED/LED.c **** }
 164              		.loc 1 130 0
 165              		@ sp needed
 166 000e 10BD     		pop	{r4, pc}
 167              		.cfi_endproc
 168              	.LFE65:
 169              		.size	SetLedState, .-SetLedState
 170              		.comm	LED_InitValue,1,1
 171              		.comm	currentState,1,1
 172              		.text
 173              	.Letext0:
 174              		.file 2 "c:\\program files (x86)\\cypress\\psoc creator\\4.1\\psoc creator\\import\\gnu\\arm\\5.4.
 175              		.file 3 "c:\\program files (x86)\\cypress\\psoc creator\\4.1\\psoc creator\\import\\gnu\\arm\\5.4.
 176              		.file 4 "Generated_Source\\PSoC4/cytypes.h"
 177              		.file 5 "Generated_Source\\PSoC4/ble_Stack.h"
 178              		.file 6 "./appGlobal.h"
 179              		.file 7 "Generated_Source\\PSoC4/RTC.h"
 180              		.file 8 "Generated_Source\\PSoC4/LED_PIN.h"
 181              		.file 9 "Generated_Source\\PSoC4/Timer_LED.h"
 182              		.file 10 "Generated_Source\\PSoC4/Int_Timer_Led.h"