ARM GAS  C:\Users\Petro\AppData\Local\Temp\ccFwIvcQ.s 			page 1


   1              		.syntax unified
   2              		.cpu cortex-m0
   3              		.fpu softvfp
   4              		.eabi_attribute 20, 1
   5              		.eabi_attribute 21, 1
   6              		.eabi_attribute 23, 3
   7              		.eabi_attribute 24, 1
   8              		.eabi_attribute 25, 1
   9              		.eabi_attribute 26, 1
  10              		.eabi_attribute 30, 4
  11              		.eabi_attribute 34, 0
  12              		.eabi_attribute 18, 4
  13              		.thumb
  14              		.syntax unified
  15              		.file	"logResult.c"
  16              		.text
  17              	.Ltext0:
  18              		.cfi_sections	.debug_frame
  19              		.section	.text.RTC_GetDay,"ax",%progbits
  20              		.align	1
  21              		.code	16
  22              		.thumb_func
  23              		.type	RTC_GetDay, %function
  24              	RTC_GetDay:
  25              	.LFB9:
  26              		.file 1 "Generated_Source\\PSoC4/RTC.h"
   1:Generated_Source\PSoC4/RTC.h **** /***************************************************************************//**
   2:Generated_Source\PSoC4/RTC.h **** * \file Name: RTC.h
   3:Generated_Source\PSoC4/RTC.h **** * \version 1.20
   4:Generated_Source\PSoC4/RTC.h **** *
   5:Generated_Source\PSoC4/RTC.h **** *  This file provides constants and parameter values for the RTC_P4 Component.
   6:Generated_Source\PSoC4/RTC.h **** *
   7:Generated_Source\PSoC4/RTC.h **** ********************************************************************************
   8:Generated_Source\PSoC4/RTC.h **** * Copyright 2015-2017, Cypress Semiconductor Corporation.  All rights reserved.
   9:Generated_Source\PSoC4/RTC.h **** * You may use this file only in accordance with the license, terms, conditions,
  10:Generated_Source\PSoC4/RTC.h **** * disclaimers, and limitations in the end user license agreement accompanying
  11:Generated_Source\PSoC4/RTC.h **** * the software package with which this file was provided.
  12:Generated_Source\PSoC4/RTC.h **** *******************************************************************************/
  13:Generated_Source\PSoC4/RTC.h **** 
  14:Generated_Source\PSoC4/RTC.h **** #if !defined(CY_RTC_P4_RTC_H)
  15:Generated_Source\PSoC4/RTC.h **** #define CY_RTC_P4_RTC_H
  16:Generated_Source\PSoC4/RTC.h **** 
  17:Generated_Source\PSoC4/RTC.h **** #include <cytypes.h>
  18:Generated_Source\PSoC4/RTC.h **** #include <CyLib.h>
  19:Generated_Source\PSoC4/RTC.h **** 
  20:Generated_Source\PSoC4/RTC.h **** 
  21:Generated_Source\PSoC4/RTC.h **** /*******************************************************************************
  22:Generated_Source\PSoC4/RTC.h **** *    Data types definition
  23:Generated_Source\PSoC4/RTC.h **** *******************************************************************************/
  24:Generated_Source\PSoC4/RTC.h **** /**
  25:Generated_Source\PSoC4/RTC.h **** * \addtogroup group_enums
  26:Generated_Source\PSoC4/RTC.h **** * \{
  27:Generated_Source\PSoC4/RTC.h **** */
  28:Generated_Source\PSoC4/RTC.h **** /** Daylight saving Time format enumeration */
  29:Generated_Source\PSoC4/RTC.h **** typedef enum
  30:Generated_Source\PSoC4/RTC.h **** {
  31:Generated_Source\PSoC4/RTC.h ****     RTC_DST_DATE_RELATIVE = 0u,  /**< Relative DST format */
ARM GAS  C:\Users\Petro\AppData\Local\Temp\ccFwIvcQ.s 			page 2


  32:Generated_Source\PSoC4/RTC.h ****     RTC_DST_DATE_FIXED = 1u      /**< Fixed DST format */
  33:Generated_Source\PSoC4/RTC.h **** }RTC_DST_DATETYPE_ENUM;
  34:Generated_Source\PSoC4/RTC.h **** /** \} group_enums */
  35:Generated_Source\PSoC4/RTC.h **** 
  36:Generated_Source\PSoC4/RTC.h **** /**
  37:Generated_Source\PSoC4/RTC.h **** * \addtogroup group_structures
  38:Generated_Source\PSoC4/RTC.h **** * \{
  39:Generated_Source\PSoC4/RTC.h **** */
  40:Generated_Source\PSoC4/RTC.h **** 
  41:Generated_Source\PSoC4/RTC.h **** /** RTC_DATE_TIME structure is the data structure that is used to 
  42:Generated_Source\PSoC4/RTC.h **** * save the current time and date (RTC_currentTimeDate), and Alarm time and date 
  43:Generated_Source\PSoC4/RTC.h **** *(RTC_alarmCfgTimeDate)
  44:Generated_Source\PSoC4/RTC.h **** *
  45:Generated_Source\PSoC4/RTC.h **** */
  46:Generated_Source\PSoC4/RTC.h **** typedef struct
  47:Generated_Source\PSoC4/RTC.h **** {
  48:Generated_Source\PSoC4/RTC.h ****     uint32 time;        /**< Time in the format used in API*/
  49:Generated_Source\PSoC4/RTC.h ****     uint32 date;        /**< Date in the format used in API*/
  50:Generated_Source\PSoC4/RTC.h ****     uint32 dayOfWeek;   /**< Day of the week, see \ref group_rtc_day_of_the_week */
  51:Generated_Source\PSoC4/RTC.h ****     uint32 status;      /**< RTC status, see \ref group_rtc_status */
  52:Generated_Source\PSoC4/RTC.h **** }RTC_DATE_TIME;
  53:Generated_Source\PSoC4/RTC.h **** 
  54:Generated_Source\PSoC4/RTC.h **** /*
  55:Generated_Source\PSoC4/RTC.h **** * RTC_DST_TIME structure is the data structure that is used to 
  56:Generated_Source\PSoC4/RTC.h **** * save time and date values for Daylight Savings Time Start and Stop 
  57:Generated_Source\PSoC4/RTC.h **** * (RTC_dstTimeDateStart and RTC_dstTimeDateStop)
  58:Generated_Source\PSoC4/RTC.h **** */
  59:Generated_Source\PSoC4/RTC.h **** typedef struct
  60:Generated_Source\PSoC4/RTC.h **** {
  61:Generated_Source\PSoC4/RTC.h ****     uint32 hour;          /**< Hour value */
  62:Generated_Source\PSoC4/RTC.h ****     uint32 dayOfWeek;     /**< Day of the week, see \ref group_rtc_day_of_the_week */
  63:Generated_Source\PSoC4/RTC.h ****     uint32 dayOfMonth;    /**< Day of the month */
  64:Generated_Source\PSoC4/RTC.h ****     uint32 weekOfMonth;   /**< Week of the month, see \ref group_rtc_dst_week_of_month */
  65:Generated_Source\PSoC4/RTC.h ****     uint32 month;         /**< Month value, see \ref group_rtc_month */
  66:Generated_Source\PSoC4/RTC.h ****     uint8  timeFormat;    /**< The DST operation mode, see \ref 
  67:Generated_Source\PSoC4/RTC.h ****                                RTC_DST_DATETYPE_ENUM */
  68:Generated_Source\PSoC4/RTC.h **** }RTC_DST_TIME;
  69:Generated_Source\PSoC4/RTC.h **** /** \} group_structures */
  70:Generated_Source\PSoC4/RTC.h **** 
  71:Generated_Source\PSoC4/RTC.h **** /*******************************************************************************
  72:Generated_Source\PSoC4/RTC.h **** *    Enumerated Types and Parameters
  73:Generated_Source\PSoC4/RTC.h **** *******************************************************************************/
  74:Generated_Source\PSoC4/RTC.h **** /* Time Format setting constants */
  75:Generated_Source\PSoC4/RTC.h **** #define RTC__HOUR_12 1
  76:Generated_Source\PSoC4/RTC.h **** #define RTC__HOUR_24 0
  77:Generated_Source\PSoC4/RTC.h **** 
  78:Generated_Source\PSoC4/RTC.h **** /*  Date Format setting constants */
  79:Generated_Source\PSoC4/RTC.h **** #define RTC__MM_DD_YYYY 0
  80:Generated_Source\PSoC4/RTC.h **** #define RTC__DD_MM_YYYY 1
  81:Generated_Source\PSoC4/RTC.h **** #define RTC__YYYY_MM_DD 2
  82:Generated_Source\PSoC4/RTC.h **** 
  83:Generated_Source\PSoC4/RTC.h **** /* Date Type setting constants */
  84:Generated_Source\PSoC4/RTC.h **** #define RTC__RELATIVE 0
  85:Generated_Source\PSoC4/RTC.h **** #define RTC__FIXED 1
  86:Generated_Source\PSoC4/RTC.h **** 
  87:Generated_Source\PSoC4/RTC.h **** /* DST Hour setting constants */
  88:Generated_Source\PSoC4/RTC.h **** #define RTC__H0000 0
ARM GAS  C:\Users\Petro\AppData\Local\Temp\ccFwIvcQ.s 			page 3


  89:Generated_Source\PSoC4/RTC.h **** #define RTC__H0100 1
  90:Generated_Source\PSoC4/RTC.h **** #define RTC__H0200 2
  91:Generated_Source\PSoC4/RTC.h **** #define RTC__H0300 3
  92:Generated_Source\PSoC4/RTC.h **** #define RTC__H0400 4
  93:Generated_Source\PSoC4/RTC.h **** #define RTC__H0500 5
  94:Generated_Source\PSoC4/RTC.h **** #define RTC__H0600 6
  95:Generated_Source\PSoC4/RTC.h **** #define RTC__H0700 7
  96:Generated_Source\PSoC4/RTC.h **** #define RTC__H0800 8
  97:Generated_Source\PSoC4/RTC.h **** #define RTC__H0900 9
  98:Generated_Source\PSoC4/RTC.h **** #define RTC__H1000 10
  99:Generated_Source\PSoC4/RTC.h **** #define RTC__H1100 11
 100:Generated_Source\PSoC4/RTC.h **** #define RTC__H1200 12
 101:Generated_Source\PSoC4/RTC.h **** #define RTC__H1300 13
 102:Generated_Source\PSoC4/RTC.h **** #define RTC__H1400 14
 103:Generated_Source\PSoC4/RTC.h **** #define RTC__H1500 15
 104:Generated_Source\PSoC4/RTC.h **** #define RTC__H1600 16
 105:Generated_Source\PSoC4/RTC.h **** #define RTC__H1700 17
 106:Generated_Source\PSoC4/RTC.h **** #define RTC__H1800 18
 107:Generated_Source\PSoC4/RTC.h **** #define RTC__H1900 19
 108:Generated_Source\PSoC4/RTC.h **** #define RTC__H2000 20
 109:Generated_Source\PSoC4/RTC.h **** #define RTC__H2100 21
 110:Generated_Source\PSoC4/RTC.h **** #define RTC__H2200 22
 111:Generated_Source\PSoC4/RTC.h **** #define RTC__H2300 23
 112:Generated_Source\PSoC4/RTC.h **** 
 113:Generated_Source\PSoC4/RTC.h **** /* DST DayOfWeek setting constants */
 114:Generated_Source\PSoC4/RTC.h **** #define RTC__SUNDAY 1
 115:Generated_Source\PSoC4/RTC.h **** #define RTC__MONDAY 2
 116:Generated_Source\PSoC4/RTC.h **** #define RTC__TUESDAY 3
 117:Generated_Source\PSoC4/RTC.h **** #define RTC__WEDNESDAY 4
 118:Generated_Source\PSoC4/RTC.h **** #define RTC__THURSDAY 5
 119:Generated_Source\PSoC4/RTC.h **** #define RTC__FRIDAY 6
 120:Generated_Source\PSoC4/RTC.h **** #define RTC__SATURDAY 7
 121:Generated_Source\PSoC4/RTC.h **** 
 122:Generated_Source\PSoC4/RTC.h **** /* DST Month setting constants */
 123:Generated_Source\PSoC4/RTC.h **** #define RTC__JAN 1
 124:Generated_Source\PSoC4/RTC.h **** #define RTC__FEB 2
 125:Generated_Source\PSoC4/RTC.h **** #define RTC__MAR 3
 126:Generated_Source\PSoC4/RTC.h **** #define RTC__APR 4
 127:Generated_Source\PSoC4/RTC.h **** #define RTC__MAY 5
 128:Generated_Source\PSoC4/RTC.h **** #define RTC__JUN 6
 129:Generated_Source\PSoC4/RTC.h **** #define RTC__JUL 7
 130:Generated_Source\PSoC4/RTC.h **** #define RTC__AUG 8
 131:Generated_Source\PSoC4/RTC.h **** #define RTC__SEP 9
 132:Generated_Source\PSoC4/RTC.h **** #define RTC__OCT 10
 133:Generated_Source\PSoC4/RTC.h **** #define RTC__NOV 11
 134:Generated_Source\PSoC4/RTC.h **** #define RTC__DEC 12
 135:Generated_Source\PSoC4/RTC.h **** 
 136:Generated_Source\PSoC4/RTC.h **** /* DST WeekOfMonth setting constants */
 137:Generated_Source\PSoC4/RTC.h **** #define RTC__FIRST 1
 138:Generated_Source\PSoC4/RTC.h **** #define RTC__SECOND 2
 139:Generated_Source\PSoC4/RTC.h **** #define RTC__THIRD 3
 140:Generated_Source\PSoC4/RTC.h **** #define RTC__FOURTH 4
 141:Generated_Source\PSoC4/RTC.h **** #define RTC__FIFTH 5
 142:Generated_Source\PSoC4/RTC.h **** #define RTC__LAST 6
 143:Generated_Source\PSoC4/RTC.h **** 
 144:Generated_Source\PSoC4/RTC.h **** 
 145:Generated_Source\PSoC4/RTC.h **** #define RTC_INITIAL_DATA_FORMAT     (0u)
ARM GAS  C:\Users\Petro\AppData\Local\Temp\ccFwIvcQ.s 			page 4


 146:Generated_Source\PSoC4/RTC.h **** #define RTC_INITIAL_TIME_FORMAT     (0u)
 147:Generated_Source\PSoC4/RTC.h **** #define RTC_INITIAL_UPDATE_MODE     (0u)
 148:Generated_Source\PSoC4/RTC.h **** #define RTC_INITIAL_SECOND          (0u)
 149:Generated_Source\PSoC4/RTC.h **** #define RTC_INITIAL_MINUTE          (16u)
 150:Generated_Source\PSoC4/RTC.h **** #define RTC_INITIAL_HOUR            (10u)
 151:Generated_Source\PSoC4/RTC.h **** #define RTC_INITIAL_DAY             (9u)
 152:Generated_Source\PSoC4/RTC.h **** #define RTC_INITIAL_MONTH           (8u)
 153:Generated_Source\PSoC4/RTC.h **** #define RTC_INITIAL_YEAR            (2016u)
 154:Generated_Source\PSoC4/RTC.h **** 
 155:Generated_Source\PSoC4/RTC.h **** #define RTC_INITIAL_ALARM_STATUS    (0u)
 156:Generated_Source\PSoC4/RTC.h **** 
 157:Generated_Source\PSoC4/RTC.h **** #define RTC_INITIAL_DST_STATUS      (0u)
 158:Generated_Source\PSoC4/RTC.h **** #define RTC_INITIAL_DST_DATE_TYPE   (0u)
 159:Generated_Source\PSoC4/RTC.h **** #define RTC_INITIAL_DST_START_MONTH (3uL)
 160:Generated_Source\PSoC4/RTC.h **** #define RTC_INITIAL_DST_START_WOM   (6uL)
 161:Generated_Source\PSoC4/RTC.h **** #define RTC_INITIAL_DST_START_DOM   (22uL)
 162:Generated_Source\PSoC4/RTC.h **** #define RTC_INITIAL_DST_START_DOW   (1uL)
 163:Generated_Source\PSoC4/RTC.h **** #define RTC_INITIAL_DST_START_HRS   (0uL)
 164:Generated_Source\PSoC4/RTC.h **** #define RTC_INITIAL_DST_STOP_MONTH  (10uL)
 165:Generated_Source\PSoC4/RTC.h **** #define RTC_INITIAL_DST_STOP_DOM    (22uL)
 166:Generated_Source\PSoC4/RTC.h **** #define RTC_INITIAL_DST_STOP_DOW    (1uL)
 167:Generated_Source\PSoC4/RTC.h **** #define RTC_INITIAL_DST_STOP_WOM    (6uL)
 168:Generated_Source\PSoC4/RTC.h **** #define RTC_INITIAL_DST_STOP_HRS    (0uL)
 169:Generated_Source\PSoC4/RTC.h **** 
 170:Generated_Source\PSoC4/RTC.h **** /**
 171:Generated_Source\PSoC4/RTC.h **** * \addtogroup group_constants
 172:Generated_Source\PSoC4/RTC.h **** * \{
 173:Generated_Source\PSoC4/RTC.h **** */
 174:Generated_Source\PSoC4/RTC.h **** 
 175:Generated_Source\PSoC4/RTC.h **** /**
 176:Generated_Source\PSoC4/RTC.h **** * \defgroup group_rtc_day_of_the_week Day of the week definitions
 177:Generated_Source\PSoC4/RTC.h **** * \{
 178:Generated_Source\PSoC4/RTC.h **** * Definitions of days in the week
 179:Generated_Source\PSoC4/RTC.h **** */
 180:Generated_Source\PSoC4/RTC.h **** #define RTC_SUNDAY     (RTC__SUNDAY)       /**< Sequential number of Sunday in the week */
 181:Generated_Source\PSoC4/RTC.h **** #define RTC_MONDAY     (RTC__MONDAY)       /**< Sequential number of Monday in the week */
 182:Generated_Source\PSoC4/RTC.h **** #define RTC_TUESDAY    (RTC__TUESDAY)      /**< Sequential number of Tuesday in the week */
 183:Generated_Source\PSoC4/RTC.h **** #define RTC_WEDNESDAY  (RTC__WEDNESDAY)    /**< Sequential number of Wednesday in the week */
 184:Generated_Source\PSoC4/RTC.h **** #define RTC_THURSDAY   (RTC__THURSDAY)     /**< Sequential number of Thursday in the week */
 185:Generated_Source\PSoC4/RTC.h **** #define RTC_FRIDAY     (RTC__FRIDAY)       /**< Sequential number of Friday in the week */
 186:Generated_Source\PSoC4/RTC.h **** #define RTC_SATURDAY   (RTC__SATURDAY)     /**< Sequential number of Saturday in the week */
 187:Generated_Source\PSoC4/RTC.h **** /** \} group_rtc_day_of_the_week */
 188:Generated_Source\PSoC4/RTC.h **** 
 189:Generated_Source\PSoC4/RTC.h **** /**
 190:Generated_Source\PSoC4/RTC.h **** * \defgroup group_rtc_dst_week_of_month DST Week of month setting constants definitions
 191:Generated_Source\PSoC4/RTC.h **** * \{
 192:Generated_Source\PSoC4/RTC.h **** * Week of month setting constants definitions for Daylight Saving Time feature
 193:Generated_Source\PSoC4/RTC.h **** */
 194:Generated_Source\PSoC4/RTC.h **** #define RTC_FIRST      (RTC__FIRST)   /**< First week in the month */
 195:Generated_Source\PSoC4/RTC.h **** #define RTC_SECOND     (RTC__SECOND)  /**< Second week in the month  */
 196:Generated_Source\PSoC4/RTC.h **** #define RTC_THIRD      (RTC__THIRD)   /**< Third week in the month  */
 197:Generated_Source\PSoC4/RTC.h **** #define RTC_FOURTH     (RTC__FOURTH)  /**< Fourth week in the month  */
 198:Generated_Source\PSoC4/RTC.h **** #define RTC_FIFTH      (RTC__FIFTH)   /**< Fifth week in the month  */
 199:Generated_Source\PSoC4/RTC.h **** #define RTC_LAST       (RTC__LAST)    /**< Last week in the month  */
 200:Generated_Source\PSoC4/RTC.h **** /** \} group_rtc_dst_week_of_month */
 201:Generated_Source\PSoC4/RTC.h **** 
 202:Generated_Source\PSoC4/RTC.h **** /**
ARM GAS  C:\Users\Petro\AppData\Local\Temp\ccFwIvcQ.s 			page 5


 203:Generated_Source\PSoC4/RTC.h **** * \defgroup group_rtc_month Month definitions
 204:Generated_Source\PSoC4/RTC.h **** * \{
 205:Generated_Source\PSoC4/RTC.h **** * Constants definition for Months
 206:Generated_Source\PSoC4/RTC.h **** */
 207:Generated_Source\PSoC4/RTC.h **** #define RTC_JANUARY    (RTC__JAN)    /**< Sequential number of January in the year */
 208:Generated_Source\PSoC4/RTC.h **** #define RTC_FEBRUARY   (RTC__FEB)    /**< Sequential number of February in the year */
 209:Generated_Source\PSoC4/RTC.h **** #define RTC_MARCH      (RTC__MAR)    /**< Sequential number of March in the year */
 210:Generated_Source\PSoC4/RTC.h **** #define RTC_APRIL      (RTC__APR)    /**< Sequential number of April in the year */
 211:Generated_Source\PSoC4/RTC.h **** #define RTC_MAY        (RTC__MAY)    /**< Sequential number of May in the year */
 212:Generated_Source\PSoC4/RTC.h **** #define RTC_JUNE       (RTC__JUN)    /**< Sequential number of June in the year */
 213:Generated_Source\PSoC4/RTC.h **** #define RTC_JULY       (RTC__JUL)    /**< Sequential number of July in the year */
 214:Generated_Source\PSoC4/RTC.h **** #define RTC_AUGUST     (RTC__AUG)    /**< Sequential number of August in the year */
 215:Generated_Source\PSoC4/RTC.h **** #define RTC_SEPTEMBER  (RTC__SEP)    /**< Sequential number of September in the year */
 216:Generated_Source\PSoC4/RTC.h **** #define RTC_OCTOBER    (RTC__OCT)    /**< Sequential number of October in the year */
 217:Generated_Source\PSoC4/RTC.h **** #define RTC_NOVEMBER   (RTC__NOV)    /**< Sequential number of November in the year */
 218:Generated_Source\PSoC4/RTC.h **** #define RTC_DECEMBER   (RTC__DEC)    /**< Sequential number of December in the year */
 219:Generated_Source\PSoC4/RTC.h **** /** \} group_rtc_month */
 220:Generated_Source\PSoC4/RTC.h **** 
 221:Generated_Source\PSoC4/RTC.h **** /**
 222:Generated_Source\PSoC4/RTC.h **** * \defgroup group_rtc_am_pm AM/PM status definitions
 223:Generated_Source\PSoC4/RTC.h **** * \{
 224:Generated_Source\PSoC4/RTC.h **** * Definitions for 12 hour format for indicating the AM/PM period of day
 225:Generated_Source\PSoC4/RTC.h **** */
 226:Generated_Source\PSoC4/RTC.h **** #define RTC_AM                 (0u)    /**< AM period of day */
 227:Generated_Source\PSoC4/RTC.h **** #define RTC_PM                 (1u)    /**< PM period of day */
 228:Generated_Source\PSoC4/RTC.h **** /** \} group_rtc_am_pm */
 229:Generated_Source\PSoC4/RTC.h **** 
 230:Generated_Source\PSoC4/RTC.h **** /**
 231:Generated_Source\PSoC4/RTC.h **** * \defgroup group_rtc_hour_format Hour format definitions
 232:Generated_Source\PSoC4/RTC.h **** * \{
 233:Generated_Source\PSoC4/RTC.h **** * Definitions for hour format
 234:Generated_Source\PSoC4/RTC.h **** */
 235:Generated_Source\PSoC4/RTC.h **** #define RTC_12_HOURS_FORMAT    (RTC__HOUR_12) /**< The 24 hour format */
 236:Generated_Source\PSoC4/RTC.h **** #define RTC_24_HOURS_FORMAT    (RTC__HOUR_24) /**< The 12 hour (AM/PM) format */
 237:Generated_Source\PSoC4/RTC.h **** /** \} group_rtc_hour_format */
 238:Generated_Source\PSoC4/RTC.h **** 
 239:Generated_Source\PSoC4/RTC.h **** /**
 240:Generated_Source\PSoC4/RTC.h **** * \defgroup group_rtc_days_in_month Number of days in month definitions
 241:Generated_Source\PSoC4/RTC.h **** * \{
 242:Generated_Source\PSoC4/RTC.h **** * Definition of days in current month
 243:Generated_Source\PSoC4/RTC.h **** */
 244:Generated_Source\PSoC4/RTC.h **** #define RTC_DAYS_IN_JANUARY     (31u)    /**< Number of days in January  */
 245:Generated_Source\PSoC4/RTC.h **** #define RTC_DAYS_IN_FEBRUARY    (28u)    /**< Number of days in February */
 246:Generated_Source\PSoC4/RTC.h **** #define RTC_DAYS_IN_MARCH       (31u)    /**< Number of days in March */
 247:Generated_Source\PSoC4/RTC.h **** #define RTC_DAYS_IN_APRIL       (30u)    /**< Number of days in April */
 248:Generated_Source\PSoC4/RTC.h **** #define RTC_DAYS_IN_MAY         (31u)    /**< Number of days in May */
 249:Generated_Source\PSoC4/RTC.h **** #define RTC_DAYS_IN_JUNE        (30u)    /**< Number of days in June */
 250:Generated_Source\PSoC4/RTC.h **** #define RTC_DAYS_IN_JULY        (31u)    /**< Number of days in July */
 251:Generated_Source\PSoC4/RTC.h **** #define RTC_DAYS_IN_AUGUST      (31u)    /**< Number of days in August */
 252:Generated_Source\PSoC4/RTC.h **** #define RTC_DAYS_IN_SEPTEMBER   (30u)    /**< Number of days in September */
 253:Generated_Source\PSoC4/RTC.h **** #define RTC_DAYS_IN_OCTOBER     (31u)    /**< Number of days in October */
 254:Generated_Source\PSoC4/RTC.h **** #define RTC_DAYS_IN_NOVEMBER    (30u)    /**< Number of days in November */
 255:Generated_Source\PSoC4/RTC.h **** #define RTC_DAYS_IN_DECEMBER    (31u)    /**< Number of days in December */
 256:Generated_Source\PSoC4/RTC.h **** /** \} group_rtc_days_in_month */
 257:Generated_Source\PSoC4/RTC.h **** 
 258:Generated_Source\PSoC4/RTC.h **** /**
 259:Generated_Source\PSoC4/RTC.h **** * \defgroup group_rtc_status Definitions of the RTC status values
ARM GAS  C:\Users\Petro\AppData\Local\Temp\ccFwIvcQ.s 			page 6


 260:Generated_Source\PSoC4/RTC.h **** * \{
 261:Generated_Source\PSoC4/RTC.h **** * Definitions for status software register, which has flags for DST (DST),
 262:Generated_Source\PSoC4/RTC.h **** * Leap Year (LY), AM/PM (AM_PM).
 263:Generated_Source\PSoC4/RTC.h **** */
 264:Generated_Source\PSoC4/RTC.h **** 
 265:Generated_Source\PSoC4/RTC.h **** /** Status of Daylight Saving Time. This bit
 266:Generated_Source\PSoC4/RTC.h **** * goes high when the current time and date match the DST time and date and the 
 267:Generated_Source\PSoC4/RTC.h **** * time is incremented. This bit goes low after the DST interval and the time is 
 268:Generated_Source\PSoC4/RTC.h **** * decremented.
 269:Generated_Source\PSoC4/RTC.h **** */
 270:Generated_Source\PSoC4/RTC.h **** #define RTC_STATUS_DST     (1uL << RTC_STATUS_DST_OFFSET)
 271:Generated_Source\PSoC4/RTC.h **** 
 272:Generated_Source\PSoC4/RTC.h **** /** Status of Leap Year. This bit goes high when the current year is a leap year */
 273:Generated_Source\PSoC4/RTC.h **** #define RTC_STATUS_LY      (1uL << RTC_STATUS_LY_OFFSET)
 274:Generated_Source\PSoC4/RTC.h **** 
 275:Generated_Source\PSoC4/RTC.h **** /** Status of Current Time. This bit is low from midnight to noon and high from 
 276:Generated_Source\PSoC4/RTC.h **** *  noon to midnight. */
 277:Generated_Source\PSoC4/RTC.h **** #define RTC_STATUS_AM_PM   (1uL << RTC_STATUS_AM_PM_OFFSET)
 278:Generated_Source\PSoC4/RTC.h **** /** \} group_rtc_status */
 279:Generated_Source\PSoC4/RTC.h **** 
 280:Generated_Source\PSoC4/RTC.h **** /**
 281:Generated_Source\PSoC4/RTC.h **** * \defgroup group_rtc_alarm_mask Definitions for Alarm Mask software register
 282:Generated_Source\PSoC4/RTC.h **** * \{
 283:Generated_Source\PSoC4/RTC.h **** * Definitions for Alarm Mask software register. These masks allow 
 284:Generated_Source\PSoC4/RTC.h **** * matching the alarm value register with the current value register.
 285:Generated_Source\PSoC4/RTC.h **** */
 286:Generated_Source\PSoC4/RTC.h **** 
 287:Generated_Source\PSoC4/RTC.h **** /** The second alarm mask allows matching the alarm second register with the 
 288:Generated_Source\PSoC4/RTC.h **** *   current second register.
 289:Generated_Source\PSoC4/RTC.h **** */
 290:Generated_Source\PSoC4/RTC.h **** #define RTC_ALARM_SEC_MASK         (0x00000001uL)
 291:Generated_Source\PSoC4/RTC.h **** 
 292:Generated_Source\PSoC4/RTC.h **** /** The minute alarm mask allows matching the alarm minute register with the 
 293:Generated_Source\PSoC4/RTC.h **** *   current minute register.
 294:Generated_Source\PSoC4/RTC.h **** */
 295:Generated_Source\PSoC4/RTC.h **** #define RTC_ALARM_MIN_MASK         (0x00000002uL)
 296:Generated_Source\PSoC4/RTC.h **** 
 297:Generated_Source\PSoC4/RTC.h **** /** The hour alarm mask allows matching the alarm hour register with the 
 298:Generated_Source\PSoC4/RTC.h **** *   current hour register.
 299:Generated_Source\PSoC4/RTC.h **** */
 300:Generated_Source\PSoC4/RTC.h **** #define RTC_ALARM_HOUR_MASK        (0x00000004uL)
 301:Generated_Source\PSoC4/RTC.h **** 
 302:Generated_Source\PSoC4/RTC.h **** /** The day of the week alarm mask allows matching the alarm hour register with 
 303:Generated_Source\PSoC4/RTC.h **** *   the current day of the week register.
 304:Generated_Source\PSoC4/RTC.h **** */
 305:Generated_Source\PSoC4/RTC.h **** #define RTC_ALARM_DAYOFWEEK_MASK   (0x00000008uL)
 306:Generated_Source\PSoC4/RTC.h **** 
 307:Generated_Source\PSoC4/RTC.h **** /** The day of the Month alarm mask allows matching the alarm hour register with 
 308:Generated_Source\PSoC4/RTC.h **** *   the current day of the Month register.
 309:Generated_Source\PSoC4/RTC.h **** */
 310:Generated_Source\PSoC4/RTC.h **** #define RTC_ALARM_DAYOFMONTH_MASK  (0x00000010uL)
 311:Generated_Source\PSoC4/RTC.h **** 
 312:Generated_Source\PSoC4/RTC.h **** /** The month alarm mask allows matching the alarm hour register with the
 313:Generated_Source\PSoC4/RTC.h **** *   current month register.
 314:Generated_Source\PSoC4/RTC.h **** */
 315:Generated_Source\PSoC4/RTC.h **** #define RTC_ALARM_MONTH_MASK       (0x00000020uL)
 316:Generated_Source\PSoC4/RTC.h **** 
ARM GAS  C:\Users\Petro\AppData\Local\Temp\ccFwIvcQ.s 			page 7


 317:Generated_Source\PSoC4/RTC.h **** /** The year alarm mask allows matching the alarm hour register with the
 318:Generated_Source\PSoC4/RTC.h **** *   current year register.
 319:Generated_Source\PSoC4/RTC.h **** */
 320:Generated_Source\PSoC4/RTC.h **** #define RTC_ALARM_YEAR_MASK        (0x00000040uL)
 321:Generated_Source\PSoC4/RTC.h **** 
 322:Generated_Source\PSoC4/RTC.h **** /** \} group_rtc_alarm_mask */
 323:Generated_Source\PSoC4/RTC.h **** /** \} group_constants */
 324:Generated_Source\PSoC4/RTC.h **** 
 325:Generated_Source\PSoC4/RTC.h **** #define RTC_DAYS_PER_WEEK       (7u)
 326:Generated_Source\PSoC4/RTC.h **** 
 327:Generated_Source\PSoC4/RTC.h **** #define RTC_MONTHS_PER_YEAR     (12uL)
 328:Generated_Source\PSoC4/RTC.h **** 
 329:Generated_Source\PSoC4/RTC.h **** #define RTC_HOURS_PER_DAY       (24uL)
 330:Generated_Source\PSoC4/RTC.h **** #define RTC_HOURS_PER_HALF_DAY  (12uL)
 331:Generated_Source\PSoC4/RTC.h **** 
 332:Generated_Source\PSoC4/RTC.h **** #define RTC_SECONDS_PER_MINUTE  (60uL)
 333:Generated_Source\PSoC4/RTC.h **** #define RTC_SECONDS_PER_HOUR    (3600uL)
 334:Generated_Source\PSoC4/RTC.h **** #define RTC_SECONDS_PER_DAY     (24uL * 3600uL)
 335:Generated_Source\PSoC4/RTC.h **** 
 336:Generated_Source\PSoC4/RTC.h **** #define RTC_SECONDS_PER_LEAP_YEAR    (366uL * 24uL * 3600uL)
 337:Generated_Source\PSoC4/RTC.h **** #define RTC_SECONDS_PER_NONLEAP_YEAR (365uL * 24uL * 3600uL)
 338:Generated_Source\PSoC4/RTC.h **** 
 339:Generated_Source\PSoC4/RTC.h **** #define RTC_UNIX_TIME_PM        ((12uL * 3600uL) + 1uL)
 340:Generated_Source\PSoC4/RTC.h **** 
 341:Generated_Source\PSoC4/RTC.h **** /* Unix time begins in 1970 year */
 342:Generated_Source\PSoC4/RTC.h **** #define RTC_YEAR_0             (1970u)
 343:Generated_Source\PSoC4/RTC.h **** 
 344:Generated_Source\PSoC4/RTC.h **** /* Definition of date register fields */
 345:Generated_Source\PSoC4/RTC.h **** #if(RTC_INITIAL_DATA_FORMAT == RTC__MM_DD_YYYY)
 346:Generated_Source\PSoC4/RTC.h ****     #define RTC_10_MONTH_OFFSET   (28u)
 347:Generated_Source\PSoC4/RTC.h ****     #define RTC_MONTH_OFFSET      (24u)
 348:Generated_Source\PSoC4/RTC.h ****     #define RTC_10_DAY_OFFSET     (20u)
 349:Generated_Source\PSoC4/RTC.h ****     #define RTC_DAY_OFFSET        (16u)
 350:Generated_Source\PSoC4/RTC.h ****     #define RTC_1000_YEAR_OFFSET  (12u)
 351:Generated_Source\PSoC4/RTC.h ****     #define RTC_100_YEAR_OFFSET   (8u)
 352:Generated_Source\PSoC4/RTC.h ****     #define RTC_10_YEAR_OFFSET    (4u)
 353:Generated_Source\PSoC4/RTC.h ****     #define RTC_YEAR_OFFSET       (0u)
 354:Generated_Source\PSoC4/RTC.h **** #elif(RTC_INITIAL_DATA_FORMAT == RTC__DD_MM_YYYY)
 355:Generated_Source\PSoC4/RTC.h ****     #define RTC_10_MONTH_OFFSET   (20u)
 356:Generated_Source\PSoC4/RTC.h ****     #define RTC_MONTH_OFFSET      (16u)
 357:Generated_Source\PSoC4/RTC.h ****     #define RTC_10_DAY_OFFSET     (28u)
 358:Generated_Source\PSoC4/RTC.h ****     #define RTC_DAY_OFFSET        (24u)
 359:Generated_Source\PSoC4/RTC.h ****     #define RTC_1000_YEAR_OFFSET  (12u)
 360:Generated_Source\PSoC4/RTC.h ****     #define RTC_100_YEAR_OFFSET   (8u)
 361:Generated_Source\PSoC4/RTC.h ****     #define RTC_10_YEAR_OFFSET    (4u)
 362:Generated_Source\PSoC4/RTC.h ****     #define RTC_YEAR_OFFSET       (0u)
 363:Generated_Source\PSoC4/RTC.h **** #else
 364:Generated_Source\PSoC4/RTC.h ****     #define RTC_10_MONTH_OFFSET   (12u)
 365:Generated_Source\PSoC4/RTC.h ****     #define RTC_MONTH_OFFSET      (8u)
 366:Generated_Source\PSoC4/RTC.h ****     #define RTC_10_DAY_OFFSET     (4u)
 367:Generated_Source\PSoC4/RTC.h ****     #define RTC_DAY_OFFSET        (0u)
 368:Generated_Source\PSoC4/RTC.h ****     #define RTC_1000_YEAR_OFFSET  (28u)
 369:Generated_Source\PSoC4/RTC.h ****     #define RTC_100_YEAR_OFFSET   (24u)
 370:Generated_Source\PSoC4/RTC.h ****     #define RTC_10_YEAR_OFFSET    (20u)
 371:Generated_Source\PSoC4/RTC.h ****     #define RTC_YEAR_OFFSET       (16u)
 372:Generated_Source\PSoC4/RTC.h **** #endif /* (RTC_INITIAL_DATA_FORMAT == RTC__MM_DD_YYYY) */
 373:Generated_Source\PSoC4/RTC.h **** 
ARM GAS  C:\Users\Petro\AppData\Local\Temp\ccFwIvcQ.s 			page 8


 374:Generated_Source\PSoC4/RTC.h **** #define RTC_10_MONTH_MASK          (0x00000001uL << RTC_10_MONTH_OFFSET)
 375:Generated_Source\PSoC4/RTC.h **** #define RTC_MONTH_MASK             (0x0000000FuL << RTC_MONTH_OFFSET)
 376:Generated_Source\PSoC4/RTC.h **** #define RTC_10_DAY_MASK            (0x00000003uL << RTC_10_DAY_OFFSET)
 377:Generated_Source\PSoC4/RTC.h **** #define RTC_DAY_MASK               (0x0000000FuL << RTC_DAY_OFFSET)
 378:Generated_Source\PSoC4/RTC.h **** #define RTC_1000_YEAR_MASK         (0x00000003uL << RTC_1000_YEAR_OFFSET)
 379:Generated_Source\PSoC4/RTC.h **** #define RTC_100_YEAR_MASK          (0x0000000FuL << RTC_100_YEAR_OFFSET)
 380:Generated_Source\PSoC4/RTC.h **** #define RTC_10_YEAR_MASK           (0x0000000FuL << RTC_10_YEAR_OFFSET)
 381:Generated_Source\PSoC4/RTC.h **** #define RTC_YEAR_MASK              (0x0000000FuL << RTC_YEAR_OFFSET)
 382:Generated_Source\PSoC4/RTC.h **** 
 383:Generated_Source\PSoC4/RTC.h **** #define  RTC_MONTH_FULL_MASK       (RTC_10_MONTH_MASK  | RTC_MONTH_MASK)
 384:Generated_Source\PSoC4/RTC.h **** #define  RTC_DAY_FULL_MASK         (RTC_10_DAY_MASK    | RTC_DAY_MASK)
 385:Generated_Source\PSoC4/RTC.h **** #define  RTC_YEAR_FULL_MASK        (RTC_1000_YEAR_MASK | RTC_100_YEAR_MASK |\
 386:Generated_Source\PSoC4/RTC.h ****                                                  RTC_10_YEAR_MASK   | RTC_YEAR_MASK)
 387:Generated_Source\PSoC4/RTC.h **** 
 388:Generated_Source\PSoC4/RTC.h **** /* Definition of time register fields */
 389:Generated_Source\PSoC4/RTC.h **** #define RTC_TIME_FORMAT_OFFSET     (23u)
 390:Generated_Source\PSoC4/RTC.h **** #define RTC_PERIOD_OF_DAY_OFFSET   (22u)
 391:Generated_Source\PSoC4/RTC.h **** #define RTC_10_HOURS_OFFSET        (20u)
 392:Generated_Source\PSoC4/RTC.h **** #define RTC_HOURS_OFFSET           (16u)
 393:Generated_Source\PSoC4/RTC.h **** #define RTC_10_MINUTES_OFFSET      (12u)
 394:Generated_Source\PSoC4/RTC.h **** #define RTC_MINUTES_OFFSET         (8u)
 395:Generated_Source\PSoC4/RTC.h **** #define RTC_10_SECONDS_OFFSET      (4u)
 396:Generated_Source\PSoC4/RTC.h **** #define RTC_SECONDS_OFFSET         (0u)
 397:Generated_Source\PSoC4/RTC.h **** 
 398:Generated_Source\PSoC4/RTC.h **** #define RTC_TIME_FORMAT_MASK       (0x00000001uL << RTC_TIME_FORMAT_OFFSET)
 399:Generated_Source\PSoC4/RTC.h **** #define RTC_PERIOD_OF_DAY_MASK     (0x00000001uL << RTC_PERIOD_OF_DAY_OFFSET)
 400:Generated_Source\PSoC4/RTC.h **** #define RTC_10_HOURS_MASK          (0x00000003uL << RTC_10_HOURS_OFFSET)
 401:Generated_Source\PSoC4/RTC.h **** #define RTC_HOURS_MASK             (0x0000000FuL << RTC_HOURS_OFFSET)
 402:Generated_Source\PSoC4/RTC.h **** #define RTC_10_MINUTES_MASK        (0x00000007uL << RTC_10_MINUTES_OFFSET)
 403:Generated_Source\PSoC4/RTC.h **** #define RTC_MINUTES_MASK           (0x0000000FuL << RTC_MINUTES_OFFSET)
 404:Generated_Source\PSoC4/RTC.h **** #define RTC_10_SECONDS_MASK        (0x00000007uL << RTC_10_SECONDS_OFFSET)
 405:Generated_Source\PSoC4/RTC.h **** #define RTC_SECONDS_MASK           (0x0000000FuL << RTC_SECONDS_OFFSET)
 406:Generated_Source\PSoC4/RTC.h **** 
 407:Generated_Source\PSoC4/RTC.h **** #define RTC_HOURS_FULL_MASK        (RTC_10_HOURS_MASK   | RTC_HOURS_MASK)
 408:Generated_Source\PSoC4/RTC.h **** #define RTC_MINUTES_FULL_MASK      (RTC_10_MINUTES_MASK | RTC_MINUTES_MASK)
 409:Generated_Source\PSoC4/RTC.h **** #define RTC_SECONDS_FULL_MASK      (RTC_10_SECONDS_MASK | RTC_SECONDS_MASK)
 410:Generated_Source\PSoC4/RTC.h **** 
 411:Generated_Source\PSoC4/RTC.h **** #define RTC_STATUS_DST_OFFSET      (1u)
 412:Generated_Source\PSoC4/RTC.h **** #define RTC_STATUS_ALARM_OFFSET    (2u)
 413:Generated_Source\PSoC4/RTC.h **** #define RTC_STATUS_LY_OFFSET       (3u)
 414:Generated_Source\PSoC4/RTC.h **** #define RTC_STATUS_AM_PM_OFFSET    (4u)
 415:Generated_Source\PSoC4/RTC.h **** 
 416:Generated_Source\PSoC4/RTC.h **** /* Number of bits per one BCD digit */
 417:Generated_Source\PSoC4/RTC.h **** #define RTC_BCD_NUMBER_SIZE        (4u)
 418:Generated_Source\PSoC4/RTC.h **** #define RTC_BCD_ONE_DIGIT_MASK     (0x0000000FuL)
 419:Generated_Source\PSoC4/RTC.h **** 
 420:Generated_Source\PSoC4/RTC.h **** 
 421:Generated_Source\PSoC4/RTC.h **** /*******************************************************************************
 422:Generated_Source\PSoC4/RTC.h **** *    External Variables
 423:Generated_Source\PSoC4/RTC.h **** *******************************************************************************/
 424:Generated_Source\PSoC4/RTC.h **** /**
 425:Generated_Source\PSoC4/RTC.h **** * \addtogroup group_globals
 426:Generated_Source\PSoC4/RTC.h **** * \{
 427:Generated_Source\PSoC4/RTC.h **** */
 428:Generated_Source\PSoC4/RTC.h **** 
 429:Generated_Source\PSoC4/RTC.h **** /**
 430:Generated_Source\PSoC4/RTC.h **** * Indicates whether the RTC has been initialized; The variable is initialized to
ARM GAS  C:\Users\Petro\AppData\Local\Temp\ccFwIvcQ.s 			page 9


 431:Generated_Source\PSoC4/RTC.h **** * 0 and set to 1 the first time RTC_Start() is called. This allows the component
 432:Generated_Source\PSoC4/RTC.h **** * to restart without reinitialization after the first call to the RTC_Start() 
 433:Generated_Source\PSoC4/RTC.h **** * routine.
 434:Generated_Source\PSoC4/RTC.h **** */
 435:Generated_Source\PSoC4/RTC.h **** extern uint8  RTC_initVar;
 436:Generated_Source\PSoC4/RTC.h **** 
 437:Generated_Source\PSoC4/RTC.h **** /** The DST start/stop status */
 438:Generated_Source\PSoC4/RTC.h **** extern uint8  RTC_dstStatus;
 439:Generated_Source\PSoC4/RTC.h **** 
 440:Generated_Source\PSoC4/RTC.h **** /**
 441:Generated_Source\PSoC4/RTC.h **** * The uint64 variable represents the standard Unix time (number of seconds 
 442:Generated_Source\PSoC4/RTC.h **** * elapsed from January 1, 1970 00:00 hours UTC) in 64-bit 
 443:Generated_Source\PSoC4/RTC.h **** */
 444:Generated_Source\PSoC4/RTC.h **** extern volatile uint64 RTC_unixTime;
 445:Generated_Source\PSoC4/RTC.h **** 
 446:Generated_Source\PSoC4/RTC.h **** /** The values for the time and date of the DST start */
 447:Generated_Source\PSoC4/RTC.h **** extern RTC_DST_TIME RTC_dstStartTime;
 448:Generated_Source\PSoC4/RTC.h **** 
 449:Generated_Source\PSoC4/RTC.h **** /** The values for the time and date of the DST stop */
 450:Generated_Source\PSoC4/RTC.h **** extern RTC_DST_TIME RTC_dstStopTime;
 451:Generated_Source\PSoC4/RTC.h **** 
 452:Generated_Source\PSoC4/RTC.h **** /**
 453:Generated_Source\PSoC4/RTC.h **** * The last updated time and date values are stored in this structure (update 
 454:Generated_Source\PSoC4/RTC.h **** * happens in Get time/date APIs)
 455:Generated_Source\PSoC4/RTC.h **** */
 456:Generated_Source\PSoC4/RTC.h **** extern RTC_DATE_TIME RTC_currentTimeDate;
 457:Generated_Source\PSoC4/RTC.h **** 
 458:Generated_Source\PSoC4/RTC.h **** /** The alarm time and date values are stored in this variable */
 459:Generated_Source\PSoC4/RTC.h **** extern RTC_DATE_TIME RTC_alarmCfgTimeDate;
 460:Generated_Source\PSoC4/RTC.h **** 
 461:Generated_Source\PSoC4/RTC.h **** /**
 462:Generated_Source\PSoC4/RTC.h **** * This variable is used to mask alarm events; mask seconds alarm, mask minutes 
 463:Generated_Source\PSoC4/RTC.h **** * alarm, and so on. It will have bit masks for each time item masking that item 
 464:Generated_Source\PSoC4/RTC.h **** * for alarm generation
 465:Generated_Source\PSoC4/RTC.h **** */
 466:Generated_Source\PSoC4/RTC.h **** extern uint32  RTC_alarmCfgMask;
 467:Generated_Source\PSoC4/RTC.h **** 
 468:Generated_Source\PSoC4/RTC.h **** /**
 469:Generated_Source\PSoC4/RTC.h **** * This variable is used to indicate current active alarm status per time item 
 470:Generated_Source\PSoC4/RTC.h **** * used in the alarm; whether seconds alarm is active, minute's alarm is active, 
 471:Generated_Source\PSoC4/RTC.h **** * and so on. It will have bit masks for each time item (seconds, minutes, hours,
 472:Generated_Source\PSoC4/RTC.h **** * day, and so on) showing the status
 473:Generated_Source\PSoC4/RTC.h **** */
 474:Generated_Source\PSoC4/RTC.h **** extern uint32 RTC_alarmCurStatus;
 475:Generated_Source\PSoC4/RTC.h **** 
 476:Generated_Source\PSoC4/RTC.h **** /** \} group_globals */
 477:Generated_Source\PSoC4/RTC.h **** 
 478:Generated_Source\PSoC4/RTC.h **** extern void (*RTC_alarmCallbackPtr)(void);
 479:Generated_Source\PSoC4/RTC.h **** 
 480:Generated_Source\PSoC4/RTC.h **** extern const uint16 RTC_daysBeforeMonthTbl[RTC_MONTHS_PER_YEAR];
 481:Generated_Source\PSoC4/RTC.h **** extern const uint8  RTC_daysInMonthTbl[RTC_MONTHS_PER_YEAR];
 482:Generated_Source\PSoC4/RTC.h **** 
 483:Generated_Source\PSoC4/RTC.h **** 
 484:Generated_Source\PSoC4/RTC.h **** /*******************************************************************************
 485:Generated_Source\PSoC4/RTC.h **** *    Function Prototypes
 486:Generated_Source\PSoC4/RTC.h **** *******************************************************************************/
 487:Generated_Source\PSoC4/RTC.h **** /**
ARM GAS  C:\Users\Petro\AppData\Local\Temp\ccFwIvcQ.s 			page 10


 488:Generated_Source\PSoC4/RTC.h **** * \addtogroup group_general
 489:Generated_Source\PSoC4/RTC.h **** * \{
 490:Generated_Source\PSoC4/RTC.h **** */
 491:Generated_Source\PSoC4/RTC.h **** void   RTC_Start(void);
 492:Generated_Source\PSoC4/RTC.h **** void   RTC_Stop(void);
 493:Generated_Source\PSoC4/RTC.h **** void   RTC_Init(void);
 494:Generated_Source\PSoC4/RTC.h **** void   RTC_SetUnixTime(uint64 unixTime);
 495:Generated_Source\PSoC4/RTC.h **** uint64 RTC_GetUnixTime(void);
 496:Generated_Source\PSoC4/RTC.h **** void   RTC_SetPeriod(uint32 ticks, uint32 refOneSecTicks);
 497:Generated_Source\PSoC4/RTC.h **** uint32 RTC_GetPeriod(void);
 498:Generated_Source\PSoC4/RTC.h **** uint32 RTC_GetRefOneSec(void);
 499:Generated_Source\PSoC4/RTC.h **** void   RTC_SetDateAndTime(uint32 inputTime, uint32 inputDate);
 500:Generated_Source\PSoC4/RTC.h **** void   RTC_GetDateAndTime(RTC_DATE_TIME* dateTime);
 501:Generated_Source\PSoC4/RTC.h **** uint32 RTC_GetTime(void);
 502:Generated_Source\PSoC4/RTC.h **** uint32 RTC_GetDate(void);
 503:Generated_Source\PSoC4/RTC.h **** void   RTC_SetAlarmDateAndTime(const RTC_DATE_TIME* alarmTime);
 504:Generated_Source\PSoC4/RTC.h **** void   RTC_GetAlarmDateAndTime(RTC_DATE_TIME* alarmTimeDate);
 505:Generated_Source\PSoC4/RTC.h **** void   RTC_SetAlarmMask(uint32 mask);
 506:Generated_Source\PSoC4/RTC.h **** uint32 RTC_GetAlarmMask(void);
 507:Generated_Source\PSoC4/RTC.h **** uint32 RTC_ReadStatus(void);
 508:Generated_Source\PSoC4/RTC.h **** uint32 RTC_GetAlarmStatus(void);
 509:Generated_Source\PSoC4/RTC.h **** void   RTC_ClearAlarmStatus(void);
 510:Generated_Source\PSoC4/RTC.h **** void   RTC_SetDSTStartTime(const RTC_DST_TIME* dstStartTime,
 511:Generated_Source\PSoC4/RTC.h ****                                               RTC_DST_DATETYPE_ENUM type);
 512:Generated_Source\PSoC4/RTC.h **** void   RTC_SetDSTStopTime(const RTC_DST_TIME* dstStopTime,
 513:Generated_Source\PSoC4/RTC.h ****                                              RTC_DST_DATETYPE_ENUM type);
 514:Generated_Source\PSoC4/RTC.h **** uint32 RTC_ConvertBCDToDec(uint32 bcdNum);
 515:Generated_Source\PSoC4/RTC.h **** uint32 RTC_ConvertDecToBCD(uint32 decNum);
 516:Generated_Source\PSoC4/RTC.h **** void   RTC_Update(void);
 517:Generated_Source\PSoC4/RTC.h **** void*  RTC_SetAlarmHandler(void (*CallbackFunction)(void));
 518:Generated_Source\PSoC4/RTC.h **** 
 519:Generated_Source\PSoC4/RTC.h **** static uint32 RTC_ConstructDate(uint32 month, uint32 day, uint32 year);
 520:Generated_Source\PSoC4/RTC.h **** static uint32 RTC_ConstructTime(uint32 timeFormat, uint32 stateAmPm, uint32 hour, uint32 min, uint3
 521:Generated_Source\PSoC4/RTC.h **** /** \} group_general */
 522:Generated_Source\PSoC4/RTC.h **** 
 523:Generated_Source\PSoC4/RTC.h **** static uint32 RTC_GetTimeFormat(uint32 inputTime);
 524:Generated_Source\PSoC4/RTC.h **** static uint32 RTC_SetTimeFormat(uint32 inputTime, uint32 timeFormat);
 525:Generated_Source\PSoC4/RTC.h **** 
 526:Generated_Source\PSoC4/RTC.h **** /**
 527:Generated_Source\PSoC4/RTC.h **** * \addtogroup group_general
 528:Generated_Source\PSoC4/RTC.h **** * \{
 529:Generated_Source\PSoC4/RTC.h **** */
 530:Generated_Source\PSoC4/RTC.h **** static uint32 RTC_LeapYear(uint32 year);
 531:Generated_Source\PSoC4/RTC.h **** static uint32 RTC_IsBitSet(uint32 var, uint32 mask);
 532:Generated_Source\PSoC4/RTC.h **** static uint32 RTC_GetSecond(uint32 inputTime);
 533:Generated_Source\PSoC4/RTC.h **** static uint32 RTC_GetMinutes(uint32 inputTime);
 534:Generated_Source\PSoC4/RTC.h **** static uint32 RTC_GetHours(uint32 inputTime);
 535:Generated_Source\PSoC4/RTC.h **** static uint32 RTC_GetAmPm(uint32 inputTime);
 536:Generated_Source\PSoC4/RTC.h **** static uint32 RTC_GetDay(uint32 date);
 537:Generated_Source\PSoC4/RTC.h **** static uint32 RTC_GetMonth(uint32 date);
 538:Generated_Source\PSoC4/RTC.h **** static uint32 RTC_GetYear(uint32 date);
 539:Generated_Source\PSoC4/RTC.h **** /** \} group_general */
 540:Generated_Source\PSoC4/RTC.h **** 
 541:Generated_Source\PSoC4/RTC.h **** static uint32 RTC_SetSecond(uint32 inputTime, uint32 inputSecond);
 542:Generated_Source\PSoC4/RTC.h **** static uint32 RTC_SetMinutes(uint32 inputTime, uint32 inputMinute);
 543:Generated_Source\PSoC4/RTC.h **** static uint32 RTC_SetHours(uint32 inputTime, uint32 inputHours);
 544:Generated_Source\PSoC4/RTC.h **** static uint32 RTC_SetAmPm(uint32 inputTime, uint32 periodOfDay);
ARM GAS  C:\Users\Petro\AppData\Local\Temp\ccFwIvcQ.s 			page 11


 545:Generated_Source\PSoC4/RTC.h **** static uint32 RTC_SetDay(uint32 inputDate, uint32 inputDay);
 546:Generated_Source\PSoC4/RTC.h **** static uint32 RTC_SetMonth(uint32 inputDate, uint32 inputMonth);
 547:Generated_Source\PSoC4/RTC.h **** static uint32 RTC_SetYear(uint32 inputDate, uint32 inputYear);
 548:Generated_Source\PSoC4/RTC.h **** 
 549:Generated_Source\PSoC4/RTC.h **** uint64 RTC_ConstructUnixAlarmTime(const RTC_DATE_TIME* alarmTime, uint8 alarmCfgMask);
 550:Generated_Source\PSoC4/RTC.h **** uint64 RTC_GetDstUnixTime(const RTC_DST_TIME* dstTime);
 551:Generated_Source\PSoC4/RTC.h **** uint64 RTC_GetNexAlarmTime(uint64 curUnixTime, uint8 alarmCfgMask);
 552:Generated_Source\PSoC4/RTC.h **** 
 553:Generated_Source\PSoC4/RTC.h **** static uint32 RTC_GetNextMinSec(uint32 curVal);
 554:Generated_Source\PSoC4/RTC.h **** static uint32 RTC_GetNextHour(uint32 curVal);
 555:Generated_Source\PSoC4/RTC.h **** static uint32 RTC_GetNextDay(uint32 curYear, uint32 curMonth, uint32 curDay, uint32 alarmCfgMask);
 556:Generated_Source\PSoC4/RTC.h **** static uint32 RTC_GetNextMonth(uint32 curMonth);
 557:Generated_Source\PSoC4/RTC.h **** static uint32 RTC_GetNextYear(uint32 curYear);
 558:Generated_Source\PSoC4/RTC.h **** static uint32 RTC_GetDayOfWeek(uint32 day, uint32 month, uint32 year);
 559:Generated_Source\PSoC4/RTC.h **** static uint32 RTC_DaysBeforeMonth(uint32 month, uint32 year);
 560:Generated_Source\PSoC4/RTC.h **** 
 561:Generated_Source\PSoC4/RTC.h **** uint32 RTC_DaysInMonth(uint32 month, uint32 year);
 562:Generated_Source\PSoC4/RTC.h **** 
 563:Generated_Source\PSoC4/RTC.h **** /**
 564:Generated_Source\PSoC4/RTC.h **** * \addtogroup group_general
 565:Generated_Source\PSoC4/RTC.h **** * \{
 566:Generated_Source\PSoC4/RTC.h **** */
 567:Generated_Source\PSoC4/RTC.h **** void   RTC_UnixToDateTime(RTC_DATE_TIME* dateTime, uint64 unixTime, uint32 timeFormat);
 568:Generated_Source\PSoC4/RTC.h **** uint64 RTC_DateTimeToUnix(uint32 inputDate, uint32 inputTime);
 569:Generated_Source\PSoC4/RTC.h **** 
 570:Generated_Source\PSoC4/RTC.h **** #if defined(CYDEV_RTC_SOURCE_WDT)
 571:Generated_Source\PSoC4/RTC.h ****     #if((0u != CYDEV_WDT_GENERATE_ISR) && (0u == RTC_INITIAL_UPDATE_MODE))
 572:Generated_Source\PSoC4/RTC.h ****         static void RTC_CySysRtcSetCallback(uint32 wdtNumber);
 573:Generated_Source\PSoC4/RTC.h ****         static void RTC_CySysRtcResetCallback(uint32 wdtNumber);
 574:Generated_Source\PSoC4/RTC.h ****     #endif /* ((0u != CYDEV_WDT_GENERATE_ISR) && (0u == RTC_INITIAL_UPDATE_MODE)) */
 575:Generated_Source\PSoC4/RTC.h **** #endif /* (CYDEV_RTC_SOURCE_WDT) */
 576:Generated_Source\PSoC4/RTC.h **** 
 577:Generated_Source\PSoC4/RTC.h **** /** \} group_general */
 578:Generated_Source\PSoC4/RTC.h **** 
 579:Generated_Source\PSoC4/RTC.h **** uint32 RTC_RelativeToFixed(uint32 dayOfWeek, uint32 weekOfMonth, uint32 month, uint32 year);
 580:Generated_Source\PSoC4/RTC.h **** 
 581:Generated_Source\PSoC4/RTC.h **** 
 582:Generated_Source\PSoC4/RTC.h **** 
 583:Generated_Source\PSoC4/RTC.h **** /*******************************************************************************
 584:Generated_Source\PSoC4/RTC.h **** * Function Name: RTC_IsBitSet
 585:Generated_Source\PSoC4/RTC.h **** ****************************************************************************//**
 586:Generated_Source\PSoC4/RTC.h **** *
 587:Generated_Source\PSoC4/RTC.h **** * Checks the state of a bit passed through parameter.
 588:Generated_Source\PSoC4/RTC.h **** *
 589:Generated_Source\PSoC4/RTC.h **** * \param var
 590:Generated_Source\PSoC4/RTC.h **** * The variable to be checked.
 591:Generated_Source\PSoC4/RTC.h **** *
 592:Generated_Source\PSoC4/RTC.h **** * \param mask
 593:Generated_Source\PSoC4/RTC.h **** * The mask for a bit to be checked.
 594:Generated_Source\PSoC4/RTC.h **** *
 595:Generated_Source\PSoC4/RTC.h **** * \return
 596:Generated_Source\PSoC4/RTC.h **** *  0u - Bit is not set. <br> 1u - Bit is set.
 597:Generated_Source\PSoC4/RTC.h **** *
 598:Generated_Source\PSoC4/RTC.h **** *******************************************************************************/
 599:Generated_Source\PSoC4/RTC.h **** static CY_INLINE uint32 RTC_IsBitSet(uint32 var, uint32 mask)
 600:Generated_Source\PSoC4/RTC.h **** {
 601:Generated_Source\PSoC4/RTC.h ****     return ((mask == (var & mask)) ? 1Lu : 0Lu);
ARM GAS  C:\Users\Petro\AppData\Local\Temp\ccFwIvcQ.s 			page 12


 602:Generated_Source\PSoC4/RTC.h **** }
 603:Generated_Source\PSoC4/RTC.h **** 
 604:Generated_Source\PSoC4/RTC.h **** 
 605:Generated_Source\PSoC4/RTC.h **** /*******************************************************************************
 606:Generated_Source\PSoC4/RTC.h **** * Function Name: RTC_LeapYear
 607:Generated_Source\PSoC4/RTC.h **** ****************************************************************************//**
 608:Generated_Source\PSoC4/RTC.h **** *
 609:Generated_Source\PSoC4/RTC.h **** * Checks whether the year passed through the parameter is leap or no.
 610:Generated_Source\PSoC4/RTC.h **** *
 611:Generated_Source\PSoC4/RTC.h **** * \param year
 612:Generated_Source\PSoC4/RTC.h **** * The year to be checked.
 613:Generated_Source\PSoC4/RTC.h **** *
 614:Generated_Source\PSoC4/RTC.h **** * \return
 615:Generated_Source\PSoC4/RTC.h **** * 0u - The year is not leap <br> 1u - The year is leap.
 616:Generated_Source\PSoC4/RTC.h **** *
 617:Generated_Source\PSoC4/RTC.h **** *******************************************************************************/
 618:Generated_Source\PSoC4/RTC.h **** static CY_INLINE uint32 RTC_LeapYear(uint32 year)
 619:Generated_Source\PSoC4/RTC.h **** {
 620:Generated_Source\PSoC4/RTC.h ****     uint32 retVal;
 621:Generated_Source\PSoC4/RTC.h **** 
 622:Generated_Source\PSoC4/RTC.h ****     if(((0u == (year % 4Lu)) && (0u != (year % 100Lu))) || (0u == (year % 400Lu)))
 623:Generated_Source\PSoC4/RTC.h ****     {
 624:Generated_Source\PSoC4/RTC.h ****         retVal = 1uL;
 625:Generated_Source\PSoC4/RTC.h ****     }
 626:Generated_Source\PSoC4/RTC.h ****     else
 627:Generated_Source\PSoC4/RTC.h ****     {
 628:Generated_Source\PSoC4/RTC.h ****         retVal = 0uL;
 629:Generated_Source\PSoC4/RTC.h ****     }
 630:Generated_Source\PSoC4/RTC.h **** 
 631:Generated_Source\PSoC4/RTC.h ****     return(retVal);
 632:Generated_Source\PSoC4/RTC.h **** }
 633:Generated_Source\PSoC4/RTC.h **** 
 634:Generated_Source\PSoC4/RTC.h **** 
 635:Generated_Source\PSoC4/RTC.h **** /*******************************************************************************
 636:Generated_Source\PSoC4/RTC.h **** * Function Name: RTC_GetSecond
 637:Generated_Source\PSoC4/RTC.h **** ****************************************************************************//**
 638:Generated_Source\PSoC4/RTC.h **** *
 639:Generated_Source\PSoC4/RTC.h **** * Returns the seconds value from the time value that is passed as a/the 
 640:Generated_Source\PSoC4/RTC.h **** * parameter.
 641:Generated_Source\PSoC4/RTC.h **** *
 642:Generated_Source\PSoC4/RTC.h **** * \param inputTime
 643:Generated_Source\PSoC4/RTC.h **** * The time value.
 644:Generated_Source\PSoC4/RTC.h **** *
 645:Generated_Source\PSoC4/RTC.h **** * \return
 646:Generated_Source\PSoC4/RTC.h **** * The seconds value.
 647:Generated_Source\PSoC4/RTC.h **** *
 648:Generated_Source\PSoC4/RTC.h **** *******************************************************************************/
 649:Generated_Source\PSoC4/RTC.h **** static CY_INLINE uint32 RTC_GetSecond(uint32 inputTime)
 650:Generated_Source\PSoC4/RTC.h **** {
 651:Generated_Source\PSoC4/RTC.h ****     uint32 retVal;
 652:Generated_Source\PSoC4/RTC.h **** 
 653:Generated_Source\PSoC4/RTC.h ****     retVal  = ((inputTime & RTC_10_SECONDS_MASK) >> RTC_10_SECONDS_OFFSET) * 10u;
 654:Generated_Source\PSoC4/RTC.h ****     retVal += (inputTime & RTC_SECONDS_MASK) >> RTC_SECONDS_OFFSET;
 655:Generated_Source\PSoC4/RTC.h **** 
 656:Generated_Source\PSoC4/RTC.h ****     return (retVal);
 657:Generated_Source\PSoC4/RTC.h **** }
 658:Generated_Source\PSoC4/RTC.h **** 
ARM GAS  C:\Users\Petro\AppData\Local\Temp\ccFwIvcQ.s 			page 13


 659:Generated_Source\PSoC4/RTC.h **** 
 660:Generated_Source\PSoC4/RTC.h **** /*******************************************************************************
 661:Generated_Source\PSoC4/RTC.h **** * Function Name: RTC_GetMinutes
 662:Generated_Source\PSoC4/RTC.h **** ****************************************************************************//**
 663:Generated_Source\PSoC4/RTC.h **** *
 664:Generated_Source\PSoC4/RTC.h **** * Returns the minutes value from the time value that is passed as a/the 
 665:Generated_Source\PSoC4/RTC.h **** * parameter.
 666:Generated_Source\PSoC4/RTC.h **** *
 667:Generated_Source\PSoC4/RTC.h **** * \param inputTime
 668:Generated_Source\PSoC4/RTC.h **** * The time value.
 669:Generated_Source\PSoC4/RTC.h **** *
 670:Generated_Source\PSoC4/RTC.h **** * \return
 671:Generated_Source\PSoC4/RTC.h **** * The minutes value.
 672:Generated_Source\PSoC4/RTC.h **** *
 673:Generated_Source\PSoC4/RTC.h **** *******************************************************************************/
 674:Generated_Source\PSoC4/RTC.h **** static CY_INLINE uint32 RTC_GetMinutes(uint32 inputTime)
 675:Generated_Source\PSoC4/RTC.h **** {
 676:Generated_Source\PSoC4/RTC.h ****     uint32 retVal;
 677:Generated_Source\PSoC4/RTC.h **** 
 678:Generated_Source\PSoC4/RTC.h ****     retVal  = ((inputTime & RTC_10_MINUTES_MASK) >> RTC_10_MINUTES_OFFSET) * 10u;
 679:Generated_Source\PSoC4/RTC.h ****     retVal += (inputTime & RTC_MINUTES_MASK) >> RTC_MINUTES_OFFSET;
 680:Generated_Source\PSoC4/RTC.h **** 
 681:Generated_Source\PSoC4/RTC.h ****     return (retVal);
 682:Generated_Source\PSoC4/RTC.h **** }
 683:Generated_Source\PSoC4/RTC.h **** 
 684:Generated_Source\PSoC4/RTC.h **** 
 685:Generated_Source\PSoC4/RTC.h **** /*******************************************************************************
 686:Generated_Source\PSoC4/RTC.h **** * Function Name: RTC_GetHours
 687:Generated_Source\PSoC4/RTC.h **** ****************************************************************************//**
 688:Generated_Source\PSoC4/RTC.h **** *
 689:Generated_Source\PSoC4/RTC.h **** * Returns the hours value from the time value that is passed as a/the parameter.
 690:Generated_Source\PSoC4/RTC.h **** *
 691:Generated_Source\PSoC4/RTC.h **** * \param inputTime
 692:Generated_Source\PSoC4/RTC.h **** * The time value.
 693:Generated_Source\PSoC4/RTC.h **** *
 694:Generated_Source\PSoC4/RTC.h **** * \return
 695:Generated_Source\PSoC4/RTC.h **** * The hours value.
 696:Generated_Source\PSoC4/RTC.h **** *
 697:Generated_Source\PSoC4/RTC.h **** *******************************************************************************/
 698:Generated_Source\PSoC4/RTC.h **** static CY_INLINE uint32 RTC_GetHours(uint32 inputTime)
 699:Generated_Source\PSoC4/RTC.h **** {
 700:Generated_Source\PSoC4/RTC.h ****     uint32 retVal;
 701:Generated_Source\PSoC4/RTC.h **** 
 702:Generated_Source\PSoC4/RTC.h ****     retVal  = ((inputTime & RTC_10_HOURS_MASK) >> RTC_10_HOURS_OFFSET) * 10u;
 703:Generated_Source\PSoC4/RTC.h ****     retVal += (inputTime & RTC_HOURS_MASK) >> RTC_HOURS_OFFSET;
 704:Generated_Source\PSoC4/RTC.h **** 
 705:Generated_Source\PSoC4/RTC.h ****     return (retVal);
 706:Generated_Source\PSoC4/RTC.h **** }
 707:Generated_Source\PSoC4/RTC.h **** 
 708:Generated_Source\PSoC4/RTC.h **** 
 709:Generated_Source\PSoC4/RTC.h **** /*******************************************************************************
 710:Generated_Source\PSoC4/RTC.h **** * Function Name: RTC_GetAmPm
 711:Generated_Source\PSoC4/RTC.h **** ****************************************************************************//**
 712:Generated_Source\PSoC4/RTC.h **** *
 713:Generated_Source\PSoC4/RTC.h **** * Returns the AM/PM status from the time value that is passed as parameter.
 714:Generated_Source\PSoC4/RTC.h **** *
 715:Generated_Source\PSoC4/RTC.h **** * \param inputTime
ARM GAS  C:\Users\Petro\AppData\Local\Temp\ccFwIvcQ.s 			page 14


 716:Generated_Source\PSoC4/RTC.h **** * The time value.
 717:Generated_Source\PSoC4/RTC.h **** *
 718:Generated_Source\PSoC4/RTC.h **** * \return
 719:Generated_Source\PSoC4/RTC.h **** * The am/pm period of day, see \ref group_rtc_am_pm.
 720:Generated_Source\PSoC4/RTC.h **** *
 721:Generated_Source\PSoC4/RTC.h **** *******************************************************************************/
 722:Generated_Source\PSoC4/RTC.h **** static CY_INLINE uint32 RTC_GetAmPm(uint32 inputTime)
 723:Generated_Source\PSoC4/RTC.h **** {
 724:Generated_Source\PSoC4/RTC.h ****     return (RTC_IsBitSet(inputTime, RTC_PERIOD_OF_DAY_MASK));
 725:Generated_Source\PSoC4/RTC.h **** }
 726:Generated_Source\PSoC4/RTC.h **** 
 727:Generated_Source\PSoC4/RTC.h **** 
 728:Generated_Source\PSoC4/RTC.h **** /*******************************************************************************
 729:Generated_Source\PSoC4/RTC.h **** * Function Name: RTC_GetDay
 730:Generated_Source\PSoC4/RTC.h **** ****************************************************************************//**
 731:Generated_Source\PSoC4/RTC.h **** *
 732:Generated_Source\PSoC4/RTC.h **** * Returns the day value from the date value that is passed as parameter.
 733:Generated_Source\PSoC4/RTC.h **** *
 734:Generated_Source\PSoC4/RTC.h **** * \param date
 735:Generated_Source\PSoC4/RTC.h **** * The date value.
 736:Generated_Source\PSoC4/RTC.h **** *
 737:Generated_Source\PSoC4/RTC.h **** * \return
 738:Generated_Source\PSoC4/RTC.h **** * The day value.
 739:Generated_Source\PSoC4/RTC.h **** *
 740:Generated_Source\PSoC4/RTC.h **** *******************************************************************************/
 741:Generated_Source\PSoC4/RTC.h **** static CY_INLINE uint32 RTC_GetDay(uint32 date)
 742:Generated_Source\PSoC4/RTC.h **** {
  27              		.loc 1 742 0
  28              		.cfi_startproc
  29              		@ args = 0, pretend = 0, frame = 0
  30              		@ frame_needed = 0, uses_anonymous_args = 0
  31              		@ link register save eliminated.
  32              	.LVL0:
 743:Generated_Source\PSoC4/RTC.h ****     uint32 retVal;
 744:Generated_Source\PSoC4/RTC.h **** 
 745:Generated_Source\PSoC4/RTC.h ****     retVal  = ((date & RTC_10_DAY_MASK) >> RTC_10_DAY_OFFSET) * 10u;
  33              		.loc 1 745 0
  34 0000 0A22     		movs	r2, #10
  35 0002 8302     		lsls	r3, r0, #10
  36 0004 9B0F     		lsrs	r3, r3, #30
  37 0006 5343     		muls	r3, r2
  38              	.LVL1:
 746:Generated_Source\PSoC4/RTC.h ****     retVal += (date & RTC_DAY_MASK) >> RTC_DAY_OFFSET;
 747:Generated_Source\PSoC4/RTC.h **** 
 748:Generated_Source\PSoC4/RTC.h ****     return (retVal);
  39              		.loc 1 748 0
  40 0008 0003     		lsls	r0, r0, #12
  41              	.LVL2:
  42 000a 000F     		lsrs	r0, r0, #28
  43 000c C018     		adds	r0, r0, r3
 749:Generated_Source\PSoC4/RTC.h **** }
  44              		.loc 1 749 0
  45              		@ sp needed
  46 000e 7047     		bx	lr
  47              		.cfi_endproc
  48              	.LFE9:
  49              		.size	RTC_GetDay, .-RTC_GetDay
ARM GAS  C:\Users\Petro\AppData\Local\Temp\ccFwIvcQ.s 			page 15


  50              		.thumb_set RTC_GetHours,RTC_GetDay
  51              		.section	.text.LogStart,"ax",%progbits
  52              		.align	1
  53              		.global	LogStart
  54              		.code	16
  55              		.thumb_func
  56              		.type	LogStart, %function
  57              	LogStart:
  58              	.LFB63:
  59              		.file 2 "..\\..\\common\\lib\\lib_DB\\logResult.c"
   1:..\..\common\lib\lib_DB/logResult.c **** #include <CyLib.h>
   2:..\..\common\lib\lib_DB/logResult.c **** #include <stdio.h>
   3:..\..\common\lib\lib_DB/logResult.c **** #include <RTC.h>
   4:..\..\common\lib\lib_DB/logResult.c **** #include <project.h>
   5:..\..\common\lib\lib_DB/logResult.c **** 
   6:..\..\common\lib\lib_DB/logResult.c **** #include "..\..\common\lib\lib_Fat\diskio.h"
   7:..\..\common\lib\lib_DB/logResult.c **** #include "..\..\common\lib\lib_BLE\bluetooth.h"
   8:..\..\common\lib\lib_DB/logResult.c **** #include "..\..\common\lib\lib_DB\logResult.h"
   9:..\..\common\lib\lib_DB/logResult.c **** 
  10:..\..\common\lib\lib_DB/logResult.c **** /* lenth name .txt file */
  11:..\..\common\lib\lib_DB/logResult.c **** #define LEN_NAME        20
  12:..\..\common\lib\lib_DB/logResult.c **** 
  13:..\..\common\lib\lib_DB/logResult.c **** /* lenth buffer from time skier */
  14:..\..\common\lib\lib_DB/logResult.c **** #define LEN_DATA        20
  15:..\..\common\lib\lib_DB/logResult.c **** 
  16:..\..\common\lib\lib_DB/logResult.c **** /* len buffer to save information on SD card */
  17:..\..\common\lib\lib_DB/logResult.c **** #define LEN_DATA_ALL    100
  18:..\..\common\lib\lib_DB/logResult.c **** 
  19:..\..\common\lib\lib_DB/logResult.c **** 
  20:..\..\common\lib\lib_DB/logResult.c **** FATFS fatFs;    /* File object */
  21:..\..\common\lib\lib_DB/logResult.c **** FIL fileO;      /* File info */
  22:..\..\common\lib\lib_DB/logResult.c **** 
  23:..\..\common\lib\lib_DB/logResult.c **** /* flag who shows that the establishment of the file */
  24:..\..\common\lib\lib_DB/logResult.c **** DWORD createFlag;  
  25:..\..\common\lib\lib_DB/logResult.c **** 
  26:..\..\common\lib\lib_DB/logResult.c **** static char nameFile[LEN_NAME];
  27:..\..\common\lib\lib_DB/logResult.c **** static uint32_t idSkier = 1;
  28:..\..\common\lib\lib_DB/logResult.c **** static uint32_t position = 1;
  29:..\..\common\lib\lib_DB/logResult.c **** 
  30:..\..\common\lib\lib_DB/logResult.c **** /*******************************************************************************
  31:..\..\common\lib\lib_DB/logResult.c **** * Function Name: LogStart
  32:..\..\common\lib\lib_DB/logResult.c **** ********************************************************************************
  33:..\..\common\lib\lib_DB/logResult.c **** *
  34:..\..\common\lib\lib_DB/logResult.c **** * Summary:
  35:..\..\common\lib\lib_DB/logResult.c **** *  Start log system(mount fat)
  36:..\..\common\lib\lib_DB/logResult.c **** *
  37:..\..\common\lib\lib_DB/logResult.c **** * Return:
  38:..\..\common\lib\lib_DB/logResult.c **** *   resultF - result mount FAT system (from enum FRESULT)
  39:..\..\common\lib\lib_DB/logResult.c **** *
  40:..\..\common\lib\lib_DB/logResult.c **** *******************************************************************************/
  41:..\..\common\lib\lib_DB/logResult.c **** uint32_t LogStart(void)
  42:..\..\common\lib\lib_DB/logResult.c **** {
  60              		.loc 2 42 0
  61              		.cfi_startproc
  62              		@ args = 0, pretend = 0, frame = 0
  63              		@ frame_needed = 0, uses_anonymous_args = 0
  64 0000 10B5     		push	{r4, lr}
ARM GAS  C:\Users\Petro\AppData\Local\Temp\ccFwIvcQ.s 			page 16


  65              		.cfi_def_cfa_offset 8
  66              		.cfi_offset 4, -8
  67              		.cfi_offset 14, -4
  43:..\..\common\lib\lib_DB/logResult.c ****     uint8 resultF;
  44:..\..\common\lib\lib_DB/logResult.c ****     
  45:..\..\common\lib\lib_DB/logResult.c ****     /* Register work area to the default drive */
  46:..\..\common\lib\lib_DB/logResult.c ****     resultF = f_mount(&fatFs, "", 1);
  68              		.loc 2 46 0
  69 0002 0122     		movs	r2, #1
  70 0004 0249     		ldr	r1, .L3
  71 0006 0348     		ldr	r0, .L3+4
  72 0008 FFF7FEFF 		bl	f_mount
  73              	.LVL3:
  47:..\..\common\lib\lib_DB/logResult.c ****     
  48:..\..\common\lib\lib_DB/logResult.c ****     return resultF;   
  49:..\..\common\lib\lib_DB/logResult.c **** }
  74              		.loc 2 49 0
  75              		@ sp needed
  76 000c 10BD     		pop	{r4, pc}
  77              	.L4:
  78 000e C046     		.align	2
  79              	.L3:
  80 0010 00000000 		.word	.LC0
  81 0014 00000000 		.word	fatFs
  82              		.cfi_endproc
  83              	.LFE63:
  84              		.size	LogStart, .-LogStart
  85              		.section	.text.WriteSkierResult,"ax",%progbits
  86              		.align	1
  87              		.global	WriteSkierResult
  88              		.code	16
  89              		.thumb_func
  90              		.type	WriteSkierResult, %function
  91              	WriteSkierResult:
  92              	.LFB64:
  50:..\..\common\lib\lib_DB/logResult.c **** 
  51:..\..\common\lib\lib_DB/logResult.c **** 
  52:..\..\common\lib\lib_DB/logResult.c **** /*******************************************************************************
  53:..\..\common\lib\lib_DB/logResult.c **** * Function Name: WriteSkierResult
  54:..\..\common\lib\lib_DB/logResult.c **** ********************************************************************************
  55:..\..\common\lib\lib_DB/logResult.c **** *
  56:..\..\common\lib\lib_DB/logResult.c **** * Summary:
  57:..\..\common\lib\lib_DB/logResult.c **** *  Start log system(mount fat)
  58:..\..\common\lib\lib_DB/logResult.c **** *
  59:..\..\common\lib\lib_DB/logResult.c **** * Parametrs:
  60:..\..\common\lib\lib_DB/logResult.c **** *   *data - pointer from result skiers
  61:..\..\common\lib\lib_DB/logResult.c **** * Return:
  62:..\..\common\lib\lib_DB/logResult.c **** *   resultF - result mount FAT system (from enum FRESULT)
  63:..\..\common\lib\lib_DB/logResult.c **** *
  64:..\..\common\lib\lib_DB/logResult.c **** *******************************************************************************/
  65:..\..\common\lib\lib_DB/logResult.c **** uint32_t WriteSkierResult(skierDB_El *data)
  66:..\..\common\lib\lib_DB/logResult.c **** {
  93              		.loc 2 66 0
  94              		.cfi_startproc
  95              		@ args = 0, pretend = 0, frame = 192
  96              		@ frame_needed = 0, uses_anonymous_args = 0
  97              	.LVL4:
ARM GAS  C:\Users\Petro\AppData\Local\Temp\ccFwIvcQ.s 			page 17


  98 0000 F0B5     		push	{r4, r5, r6, r7, lr}
  99              		.cfi_def_cfa_offset 20
 100              		.cfi_offset 4, -20
 101              		.cfi_offset 5, -16
 102              		.cfi_offset 6, -12
 103              		.cfi_offset 7, -8
 104              		.cfi_offset 14, -4
 105 0002 B3B0     		sub	sp, sp, #204
 106              		.cfi_def_cfa_offset 224
 107              		.loc 2 66 0
 108 0004 0500     		movs	r5, r0
  67:..\..\common\lib\lib_DB/logResult.c ****     uint8 resultF;
  68:..\..\common\lib\lib_DB/logResult.c ****     uint count;
  69:..\..\common\lib\lib_DB/logResult.c ****     
  70:..\..\common\lib\lib_DB/logResult.c ****     uint32_t nameYear;
  71:..\..\common\lib\lib_DB/logResult.c ****     uint32_t nameMonth;
  72:..\..\common\lib\lib_DB/logResult.c ****     uint32_t nameDay;
  73:..\..\common\lib\lib_DB/logResult.c ****     uint32_t date;
  74:..\..\common\lib\lib_DB/logResult.c ****     
  75:..\..\common\lib\lib_DB/logResult.c ****     /*get date from RTC*/
  76:..\..\common\lib\lib_DB/logResult.c ****     date = RTC_GetDate();
 109              		.loc 2 76 0
 110 0006 FFF7FEFF 		bl	RTC_GetDate
 111              	.LVL5:
  77:..\..\common\lib\lib_DB/logResult.c ****     nameYear = RTC_GetYear(date)-2000;
 112              		.loc 2 77 0
 113 000a FA23     		movs	r3, #250
 114 000c 8404     		lsls	r4, r0, #18
 115 000e 9B00     		lsls	r3, r3, #2
 116 0010 A40F     		lsrs	r4, r4, #30
 117 0012 0F27     		movs	r7, #15
 118 0014 5C43     		muls	r4, r3
 119 0016 0300     		movs	r3, r0
 120 0018 614A     		ldr	r2, .L13
 121 001a 3B40     		ands	r3, r7
 122 001c 9B18     		adds	r3, r3, r2
 123 001e 6422     		movs	r2, #100
 124 0020 E118     		adds	r1, r4, r3
 125 0022 1300     		movs	r3, r2
 126 0024 040A     		lsrs	r4, r0, #8
 127 0026 3C40     		ands	r4, r7
 128 0028 6343     		muls	r3, r4
 129 002a CC18     		adds	r4, r1, r3
 130 002c 0309     		lsrs	r3, r0, #4
 131 002e 5A3A     		subs	r2, r2, #90
 132 0030 3B40     		ands	r3, r7
 133 0032 5343     		muls	r3, r2
 134 0034 E318     		adds	r3, r4, r3
 135 0036 0393     		str	r3, [sp, #12]
 136              	.LVL6:
 137              	.LBB20:
 138              	.LBB21:
 750:Generated_Source\PSoC4/RTC.h **** 
 751:Generated_Source\PSoC4/RTC.h **** 
 752:Generated_Source\PSoC4/RTC.h **** /*******************************************************************************
 753:Generated_Source\PSoC4/RTC.h **** * Function Name: RTC_GetMonth
 754:Generated_Source\PSoC4/RTC.h **** ****************************************************************************//**
ARM GAS  C:\Users\Petro\AppData\Local\Temp\ccFwIvcQ.s 			page 18


 755:Generated_Source\PSoC4/RTC.h **** *
 756:Generated_Source\PSoC4/RTC.h **** * Returns the month value from the date value that is passed as parameter.
 757:Generated_Source\PSoC4/RTC.h **** *
 758:Generated_Source\PSoC4/RTC.h **** * \param date
 759:Generated_Source\PSoC4/RTC.h **** * The date value.
 760:Generated_Source\PSoC4/RTC.h **** *
 761:Generated_Source\PSoC4/RTC.h **** * \return
 762:Generated_Source\PSoC4/RTC.h **** * The month value.
 763:Generated_Source\PSoC4/RTC.h **** *
 764:Generated_Source\PSoC4/RTC.h **** *******************************************************************************/
 765:Generated_Source\PSoC4/RTC.h **** static CY_INLINE uint32 RTC_GetMonth(uint32 date)
 766:Generated_Source\PSoC4/RTC.h **** {
 767:Generated_Source\PSoC4/RTC.h ****     uint32 retVal;
 768:Generated_Source\PSoC4/RTC.h **** 
 769:Generated_Source\PSoC4/RTC.h ****     retVal  = ((date & RTC_10_MONTH_MASK) >> RTC_10_MONTH_OFFSET) * 10u;
 770:Generated_Source\PSoC4/RTC.h ****     retVal += (date & RTC_MONTH_MASK) >> RTC_MONTH_OFFSET;
 139              		.loc 1 770 0
 140 0038 1300     		movs	r3, r2
 141              	.LVL7:
 142 003a C600     		lsls	r6, r0, #3
 143 003c F60F     		lsrs	r6, r6, #31
 144 003e 7343     		muls	r3, r6
 145 0040 060E     		lsrs	r6, r0, #24
 146 0042 3E40     		ands	r6, r7
 147 0044 9E19     		adds	r6, r3, r6
 148              	.LVL8:
 149              	.LBE21:
 150              	.LBE20:
  78:..\..\common\lib\lib_DB/logResult.c ****     nameMonth = RTC_GetMonth(date);
  79:..\..\common\lib\lib_DB/logResult.c ****     nameDay = RTC_GetDay(date);
 151              		.loc 2 79 0
 152 0046 FFF7FEFF 		bl	RTC_GetDay
 153              	.LVL9:
  80:..\..\common\lib\lib_DB/logResult.c ****     
  81:..\..\common\lib\lib_DB/logResult.c ****     /*Construct name of file in format dd_mm_yyyy*/
  82:..\..\common\lib\lib_DB/logResult.c ****     sprintf(nameFile,"%02d_%02d_%d.txt",nameDay,nameMonth,nameYear);
 154              		.loc 2 82 0
 155 004a 564C     		ldr	r4, .L13+4
 156 004c 039B     		ldr	r3, [sp, #12]
  79:..\..\common\lib\lib_DB/logResult.c ****     
 157              		.loc 2 79 0
 158 004e 0200     		movs	r2, r0
 159              	.LVL10:
 160              		.loc 2 82 0
 161 0050 0093     		str	r3, [sp]
 162 0052 5549     		ldr	r1, .L13+8
 163 0054 3300     		movs	r3, r6
 164 0056 2000     		movs	r0, r4
 165              	.LVL11:
 166 0058 FFF7FEFF 		bl	sprintf
 167              	.LVL12:
  83:..\..\common\lib\lib_DB/logResult.c ****     createFlag = 0;
 168              		.loc 2 83 0
 169 005c 0023     		movs	r3, #0
 170 005e 534A     		ldr	r2, .L13+12
  84:..\..\common\lib\lib_DB/logResult.c ****     resultF = f_open(&fileO, nameFile, FA_WRITE | FA_OPEN_APPEND, &createFlag);
 171              		.loc 2 84 0
ARM GAS  C:\Users\Petro\AppData\Local\Temp\ccFwIvcQ.s 			page 19


 172 0060 2100     		movs	r1, r4
  83:..\..\common\lib\lib_DB/logResult.c ****     createFlag = 0;
 173              		.loc 2 83 0
 174 0062 1360     		str	r3, [r2]
 175              		.loc 2 84 0
 176 0064 5248     		ldr	r0, .L13+16
 177 0066 1300     		movs	r3, r2
 178 0068 3222     		movs	r2, #50
 179 006a FFF7FEFF 		bl	f_open
 180              	.LVL13:
 181 006e 061E     		subs	r6, r0, #0
 182              	.LVL14:
  85:..\..\common\lib\lib_DB/logResult.c ****     
  86:..\..\common\lib\lib_DB/logResult.c ****     if(resultF == RES_OK)
 183              		.loc 2 86 0
 184 0070 00D0     		beq	.LCB142
 185 0072 92E0     		b	.L6	@long jump
 186              	.LCB142:
 187              	.LBB22:
  87:..\..\common\lib\lib_DB/logResult.c ****     {
  88:..\..\common\lib\lib_DB/logResult.c ****         /*Construct save data*/
  89:..\..\common\lib\lib_DB/logResult.c ****         char start[LEN_DATA];
  90:..\..\common\lib\lib_DB/logResult.c ****         char finish[LEN_DATA];
  91:..\..\common\lib\lib_DB/logResult.c ****         char result[LEN_DATA];
  92:..\..\common\lib\lib_DB/logResult.c ****         char writeData[LEN_DATA_ALL];
  93:..\..\common\lib\lib_DB/logResult.c ****         
  94:..\..\common\lib\lib_DB/logResult.c ****         RTC_DATE_TIME time;
  95:..\..\common\lib\lib_DB/logResult.c ****         
  96:..\..\common\lib\lib_DB/logResult.c ****         
  97:..\..\common\lib\lib_DB/logResult.c ****         /*read unix time*/
  98:..\..\common\lib\lib_DB/logResult.c ****         RTC_UnixToDateTime(&time, data->unixStartSkier, RTC_24_HOURS_FORMAT);
 188              		.loc 2 98 0
 189 0074 0090     		str	r0, [sp]
 190 0076 2A68     		ldr	r2, [r5]
 191 0078 6B68     		ldr	r3, [r5, #4]
 192 007a 06A8     		add	r0, sp, #24
 193              	.LVL15:
 194 007c FFF7FEFF 		bl	RTC_UnixToDateTime
 195              	.LVL16:
  99:..\..\common\lib\lib_DB/logResult.c ****         sprintf(start, "\t\t%02lu:%02lu:%02lu:%03u",RTC_GetHours(time.time),RTC_GetMinutes(time.tim
 196              		.loc 2 99 0
 197 0080 069C     		ldr	r4, [sp, #24]
 198 0082 2000     		movs	r0, r4
 199 0084 FFF7FEFF 		bl	RTC_GetHours
 200              	.LVL17:
 201              	.LBB23:
 202              	.LBB24:
 678:Generated_Source\PSoC4/RTC.h ****     retVal += (inputTime & RTC_MINUTES_MASK) >> RTC_MINUTES_OFFSET;
 203              		.loc 1 678 0
 204 0088 0721     		movs	r1, #7
 205              	.LBE24:
 206              	.LBE23:
 207              		.loc 2 99 0
 208 008a 0200     		movs	r2, r0
 209              	.LVL18:
 210              	.LBB26:
 211              	.LBB27:
ARM GAS  C:\Users\Petro\AppData\Local\Temp\ccFwIvcQ.s 			page 20


 653:Generated_Source\PSoC4/RTC.h ****     retVal += (inputTime & RTC_SECONDS_MASK) >> RTC_SECONDS_OFFSET;
 212              		.loc 1 653 0
 213 008c 0720     		movs	r0, #7
 214              	.LBE27:
 215              	.LBE26:
 216              	.LBB29:
 217              	.LBB25:
 678:Generated_Source\PSoC4/RTC.h ****     retVal += (inputTime & RTC_MINUTES_MASK) >> RTC_MINUTES_OFFSET;
 218              		.loc 1 678 0
 219 008e 230B     		lsrs	r3, r4, #12
 220 0090 0B40     		ands	r3, r1
 221 0092 0331     		adds	r1, r1, #3
 222 0094 4B43     		muls	r3, r1
 223              	.LVL19:
 224              	.LBE25:
 225              	.LBE29:
 226              	.LBB30:
 227              	.LBB28:
 653:Generated_Source\PSoC4/RTC.h ****     retVal += (inputTime & RTC_SECONDS_MASK) >> RTC_SECONDS_OFFSET;
 228              		.loc 1 653 0
 229 0096 2109     		lsrs	r1, r4, #4
 230 0098 0140     		ands	r1, r0
 231 009a 0330     		adds	r0, r0, #3
 232 009c 4143     		muls	r1, r0
 233              	.LVL20:
 234              	.LBE28:
 235              	.LBE30:
 236              		.loc 2 99 0
 237 009e 200A     		lsrs	r0, r4, #8
 238 00a0 3840     		ands	r0, r7
 239 00a2 C318     		adds	r3, r0, r3
 240 00a4 3C40     		ands	r4, r7
 241 00a6 2889     		ldrh	r0, [r5, #8]
 242 00a8 6418     		adds	r4, r4, r1
 243 00aa 0190     		str	r0, [sp, #4]
 244 00ac 4149     		ldr	r1, .L13+20
 245 00ae 0094     		str	r4, [sp]
 246 00b0 0AA8     		add	r0, sp, #40
 247 00b2 FFF7FEFF 		bl	sprintf
 248              	.LVL21:
 100:..\..\common\lib\lib_DB/logResult.c ****         RTC_UnixToDateTime(&time, data->unixFinishSkier, RTC_24_HOURS_FORMAT);
 249              		.loc 2 100 0
 250 00b6 0096     		str	r6, [sp]
 251 00b8 2A69     		ldr	r2, [r5, #16]
 252 00ba 6B69     		ldr	r3, [r5, #20]
 253 00bc 06A8     		add	r0, sp, #24
 254 00be FFF7FEFF 		bl	RTC_UnixToDateTime
 255              	.LVL22:
 101:..\..\common\lib\lib_DB/logResult.c ****         sprintf(finish, "\t\t%02lu:%02lu:%02lu:%03u",RTC_GetHours(time.time),RTC_GetMinutes(time.ti
 256              		.loc 2 101 0
 257 00c2 069C     		ldr	r4, [sp, #24]
 258              	.LBB31:
 259              	.LBB32:
 678:Generated_Source\PSoC4/RTC.h ****     retVal += (inputTime & RTC_MINUTES_MASK) >> RTC_MINUTES_OFFSET;
 260              		.loc 1 678 0
 261 00c4 0A36     		adds	r6, r6, #10
 262              	.LBE32:
ARM GAS  C:\Users\Petro\AppData\Local\Temp\ccFwIvcQ.s 			page 21


 263              	.LBE31:
 264              		.loc 2 101 0
 265 00c6 2000     		movs	r0, r4
 266 00c8 FFF7FEFF 		bl	RTC_GetHours
 267              	.LVL23:
 268              	.LBB34:
 269              	.LBB33:
 678:Generated_Source\PSoC4/RTC.h ****     retVal += (inputTime & RTC_MINUTES_MASK) >> RTC_MINUTES_OFFSET;
 270              		.loc 1 678 0
 271 00cc 0721     		movs	r1, #7
 272 00ce 230B     		lsrs	r3, r4, #12
 273 00d0 0B40     		ands	r3, r1
 274 00d2 5E43     		muls	r6, r3
 275              	.LBE33:
 276              	.LBE34:
 277              	.LBB35:
 278              	.LBB36:
 653:Generated_Source\PSoC4/RTC.h ****     retVal += (inputTime & RTC_SECONDS_MASK) >> RTC_SECONDS_OFFSET;
 279              		.loc 1 653 0
 280 00d4 0723     		movs	r3, #7
 281 00d6 2109     		lsrs	r1, r4, #4
 282 00d8 1940     		ands	r1, r3
 283 00da 0333     		adds	r3, r3, #3
 284 00dc 5943     		muls	r1, r3
 285              	.LBE36:
 286              	.LBE35:
 287              		.loc 2 101 0
 288 00de 230A     		lsrs	r3, r4, #8
 289 00e0 0200     		movs	r2, r0
 290              	.LVL24:
 291 00e2 3B40     		ands	r3, r7
 292 00e4 288B     		ldrh	r0, [r5, #24]
 293 00e6 3C40     		ands	r4, r7
 294 00e8 9B19     		adds	r3, r3, r6
 295 00ea 6418     		adds	r4, r4, r1
 296 00ec 0FAE     		add	r6, sp, #60
 297 00ee 0190     		str	r0, [sp, #4]
 298 00f0 0094     		str	r4, [sp]
 299 00f2 3049     		ldr	r1, .L13+20
 102:..\..\common\lib\lib_DB/logResult.c ****         sprintf(result, "\t\t%02lu:%03u",(uint32)data->secondsWay,data->millsWay);
 300              		.loc 2 102 0
 301 00f4 14AC     		add	r4, sp, #80
 101:..\..\common\lib\lib_DB/logResult.c ****         sprintf(result, "\t\t%02lu:%03u",(uint32)data->secondsWay,data->millsWay);
 302              		.loc 2 101 0
 303 00f6 3000     		movs	r0, r6
 304 00f8 FFF7FEFF 		bl	sprintf
 305              	.LVL25:
 306              		.loc 2 102 0
 307 00fc 2B8D     		ldrh	r3, [r5, #40]
 308 00fe 2A6A     		ldr	r2, [r5, #32]
 309 0100 2D49     		ldr	r1, .L13+24
 310 0102 2000     		movs	r0, r4
 311 0104 FFF7FEFF 		bl	sprintf
 312              	.LVL26:
 103:..\..\common\lib\lib_DB/logResult.c ****         sprintf(writeData,"\n\r%d%s%s%s\n\r",position, start, finish, result);
 313              		.loc 2 103 0
 314 0108 2C4D     		ldr	r5, .L13+28
ARM GAS  C:\Users\Petro\AppData\Local\Temp\ccFwIvcQ.s 			page 22


 315              	.LVL27:
 316 010a 0194     		str	r4, [sp, #4]
 317 010c 0096     		str	r6, [sp]
 318 010e 0AAB     		add	r3, sp, #40
 319 0110 2A68     		ldr	r2, [r5]
 320 0112 2B49     		ldr	r1, .L13+32
 321 0114 19A8     		add	r0, sp, #100
 322 0116 FFF7FEFF 		bl	sprintf
 323              	.LVL28:
 104:..\..\common\lib\lib_DB/logResult.c ****               
 105:..\..\common\lib\lib_DB/logResult.c ****         if((position == 1) || (createFlag == 1))
 324              		.loc 2 105 0
 325 011a 2B68     		ldr	r3, [r5]
 326 011c 244C     		ldr	r4, .L13+16
 327 011e 012B     		cmp	r3, #1
 328 0120 03D0     		beq	.L7
 329              		.loc 2 105 0 is_stmt 0 discriminator 1
 330 0122 224B     		ldr	r3, .L13+12
 331 0124 1B68     		ldr	r3, [r3]
 332 0126 012B     		cmp	r3, #1
 333 0128 28D1     		bne	.L8
 334              	.L7:
 335              	.LBB37:
 106:..\..\common\lib\lib_DB/logResult.c ****         {
 107:..\..\common\lib\lib_DB/logResult.c ****             /*write new "cap"*/
 108:..\..\common\lib\lib_DB/logResult.c ****             uint32_t tmpTime ;
 109:..\..\common\lib\lib_DB/logResult.c ****             
 110:..\..\common\lib\lib_DB/logResult.c ****             tmpTime = RTC_GetTime();
 336              		.loc 2 110 0 is_stmt 1
 337 012a FFF7FEFF 		bl	RTC_GetTime
 338              	.LVL29:
 339 012e 0600     		movs	r6, r0
 340              	.LVL30:
 111:..\..\common\lib\lib_DB/logResult.c ****             f_printf(&fileO,"\r\nSystem started %02d:%02d:%02d\n\r", RTC_GetHours(tmpTime),RTC_GetM
 341              		.loc 2 111 0
 342 0130 FFF7FEFF 		bl	RTC_GetHours
 343              	.LVL31:
 344              	.LBB38:
 345              	.LBB39:
 678:Generated_Source\PSoC4/RTC.h ****     retVal += (inputTime & RTC_MINUTES_MASK) >> RTC_MINUTES_OFFSET;
 346              		.loc 1 678 0
 347 0134 0A21     		movs	r1, #10
 348 0136 0727     		movs	r7, #7
 349 0138 8C46     		mov	ip, r1
 350              	.LBE39:
 351              	.LBE38:
 352              		.loc 2 111 0
 353 013a 0200     		movs	r2, r0
 354              	.LVL32:
 355              	.LBB43:
 356              	.LBB40:
 678:Generated_Source\PSoC4/RTC.h ****     retVal += (inputTime & RTC_MINUTES_MASK) >> RTC_MINUTES_OFFSET;
 357              		.loc 1 678 0
 358 013c 330B     		lsrs	r3, r6, #12
 359 013e 0800     		movs	r0, r1
 360              	.LBE40:
 361              	.LBE43:
ARM GAS  C:\Users\Petro\AppData\Local\Temp\ccFwIvcQ.s 			page 23


 362              	.LBB44:
 363              	.LBB45:
 653:Generated_Source\PSoC4/RTC.h ****     retVal += (inputTime & RTC_SECONDS_MASK) >> RTC_SECONDS_OFFSET;
 364              		.loc 1 653 0
 365 0140 3109     		lsrs	r1, r6, #4
 366              	.LBE45:
 367              	.LBE44:
 368              	.LBB47:
 369              	.LBB41:
 678:Generated_Source\PSoC4/RTC.h ****     retVal += (inputTime & RTC_MINUTES_MASK) >> RTC_MINUTES_OFFSET;
 370              		.loc 1 678 0
 371 0142 3B40     		ands	r3, r7
 372              	.LBE41:
 373              	.LBE47:
 374              	.LBB48:
 375              	.LBB46:
 653:Generated_Source\PSoC4/RTC.h ****     retVal += (inputTime & RTC_SECONDS_MASK) >> RTC_SECONDS_OFFSET;
 376              		.loc 1 653 0
 377 0144 3940     		ands	r1, r7
 378 0146 6746     		mov	r7, ip
 379 0148 4F43     		muls	r7, r1
 380              	.LBE46:
 381              	.LBE48:
 382              		.loc 2 111 0
 383 014a 0F21     		movs	r1, #15
 384              	.LBB49:
 385              	.LBB42:
 678:Generated_Source\PSoC4/RTC.h ****     retVal += (inputTime & RTC_MINUTES_MASK) >> RTC_MINUTES_OFFSET;
 386              		.loc 1 678 0
 387 014c 5843     		muls	r0, r3
 388              	.LVL33:
 389              	.LBE42:
 390              	.LBE49:
 391              		.loc 2 111 0
 392 014e 330A     		lsrs	r3, r6, #8
 393 0150 0E40     		ands	r6, r1
 394              	.LVL34:
 395 0152 0B40     		ands	r3, r1
 396 0154 F619     		adds	r6, r6, r7
 397 0156 1B18     		adds	r3, r3, r0
 398 0158 0096     		str	r6, [sp]
 399 015a 1A49     		ldr	r1, .L13+36
 400 015c 2000     		movs	r0, r4
 401 015e FFF7FEFF 		bl	f_printf
 402              	.LVL35:
 112:..\..\common\lib\lib_DB/logResult.c ****             f_printf(&fileO,"--------------------------------------------------\n\r");
 403              		.loc 2 112 0
 404 0162 194E     		ldr	r6, .L13+40
 405 0164 2000     		movs	r0, r4
 406 0166 3100     		movs	r1, r6
 407 0168 FFF7FEFF 		bl	f_printf
 408              	.LVL36:
 113:..\..\common\lib\lib_DB/logResult.c ****             f_printf(&fileO,"NUM\t\tSTART\t\t\tFINISH\t\t\tRESULT\n\r");
 409              		.loc 2 113 0
 410 016c 1749     		ldr	r1, .L13+44
 411 016e 2000     		movs	r0, r4
 412 0170 FFF7FEFF 		bl	f_printf
ARM GAS  C:\Users\Petro\AppData\Local\Temp\ccFwIvcQ.s 			page 24


 413              	.LVL37:
 114:..\..\common\lib\lib_DB/logResult.c ****             f_printf(&fileO,"--------------------------------------------------\n\r");
 414              		.loc 2 114 0
 415 0174 3100     		movs	r1, r6
 416 0176 2000     		movs	r0, r4
 417 0178 FFF7FEFF 		bl	f_printf
 418              	.LVL38:
 419              	.L8:
 420              	.LBE37:
 115:..\..\common\lib\lib_DB/logResult.c ****             
 116:..\..\common\lib\lib_DB/logResult.c ****         }
 117:..\..\common\lib\lib_DB/logResult.c ****         
 118:..\..\common\lib\lib_DB/logResult.c ****         /*write data*/
 119:..\..\common\lib\lib_DB/logResult.c ****         resultF = f_write(&fileO, writeData, strlen(writeData),&count);
 421              		.loc 2 119 0
 422 017c 19A8     		add	r0, sp, #100
 423 017e FFF7FEFF 		bl	strlen
 424              	.LVL39:
 425 0182 05AB     		add	r3, sp, #20
 426 0184 0200     		movs	r2, r0
 427 0186 19A9     		add	r1, sp, #100
 428 0188 2000     		movs	r0, r4
 429 018a FFF7FEFF 		bl	f_write
 430              	.LVL40:
 120:..\..\common\lib\lib_DB/logResult.c ****         resultF = f_close(&fileO);
 431              		.loc 2 120 0
 432 018e 2000     		movs	r0, r4
 433 0190 FFF7FEFF 		bl	f_close
 434              	.LVL41:
 121:..\..\common\lib\lib_DB/logResult.c ****         position++;
 435              		.loc 2 121 0
 436 0194 2B68     		ldr	r3, [r5]
 437 0196 0133     		adds	r3, r3, #1
 438 0198 2B60     		str	r3, [r5]
 439              	.LVL42:
 440              	.L6:
 441              	.LBE22:
 122:..\..\common\lib\lib_DB/logResult.c ****     }
 123:..\..\common\lib\lib_DB/logResult.c ****     
 124:..\..\common\lib\lib_DB/logResult.c ****     return resultF;
 125:..\..\common\lib\lib_DB/logResult.c **** }
 442              		.loc 2 125 0
 443 019a 33B0     		add	sp, sp, #204
 444              		@ sp needed
 445 019c F0BD     		pop	{r4, r5, r6, r7, pc}
 446              	.L14:
 447 019e C046     		.align	2
 448              	.L13:
 449 01a0 30F8FFFF 		.word	-2000
 450 01a4 00000000 		.word	.LANCHOR0
 451 01a8 01000000 		.word	.LC3
 452 01ac 00000000 		.word	createFlag
 453 01b0 00000000 		.word	fileO
 454 01b4 12000000 		.word	.LC8
 455 01b8 2B000000 		.word	.LC10
 456 01bc 00000000 		.word	.LANCHOR1
 457 01c0 38000000 		.word	.LC13
ARM GAS  C:\Users\Petro\AppData\Local\Temp\ccFwIvcQ.s 			page 25


 458 01c4 45000000 		.word	.LC15
 459 01c8 67000000 		.word	.LC17
 460 01cc 9C000000 		.word	.LC19
 461              		.cfi_endproc
 462              	.LFE64:
 463              		.size	WriteSkierResult, .-WriteSkierResult
 464              		.section	.text.ReadSkierResultAndSendBLE,"ax",%progbits
 465              		.align	1
 466              		.global	ReadSkierResultAndSendBLE
 467              		.code	16
 468              		.thumb_func
 469              		.type	ReadSkierResultAndSendBLE, %function
 470              	ReadSkierResultAndSendBLE:
 471              	.LFB65:
 126:..\..\common\lib\lib_DB/logResult.c **** 
 127:..\..\common\lib\lib_DB/logResult.c **** /*read and send bluetooth skier result*/
 128:..\..\common\lib\lib_DB/logResult.c **** uint32_t ReadSkierResultAndSendBLE(void)
 129:..\..\common\lib\lib_DB/logResult.c **** {
 472              		.loc 2 129 0
 473              		.cfi_startproc
 474              		@ args = 0, pretend = 0, frame = 120
 475              		@ frame_needed = 0, uses_anonymous_args = 0
 130:..\..\common\lib\lib_DB/logResult.c ****     uint32_t resultF;
 131:..\..\common\lib\lib_DB/logResult.c ****     char line[82];
 132:..\..\common\lib\lib_DB/logResult.c ****     
 133:..\..\common\lib\lib_DB/logResult.c ****     /*for send to buetooth*/
 134:..\..\common\lib\lib_DB/logResult.c ****     uint16_t sendIdSkier ;
 135:..\..\common\lib\lib_DB/logResult.c ****     uint16_t sendStartTime[LENGHT_DATA_BUFFER];
 136:..\..\common\lib\lib_DB/logResult.c ****     uint16_t sendFinishTime[LENGHT_DATA_BUFFER];
 137:..\..\common\lib\lib_DB/logResult.c ****     uint16_t sendResultTime[LENGHT_DATA_BUFFER];
 138:..\..\common\lib\lib_DB/logResult.c ****     
 139:..\..\common\lib\lib_DB/logResult.c ****     createFlag = 0;    
 476              		.loc 2 139 0
 477 0000 0022     		movs	r2, #0
 129:..\..\common\lib\lib_DB/logResult.c ****     uint32_t resultF;
 478              		.loc 2 129 0
 479 0002 F0B5     		push	{r4, r5, r6, r7, lr}
 480              		.cfi_def_cfa_offset 20
 481              		.cfi_offset 4, -20
 482              		.cfi_offset 5, -16
 483              		.cfi_offset 6, -12
 484              		.cfi_offset 7, -8
 485              		.cfi_offset 14, -4
 486              		.loc 2 139 0
 487 0004 444B     		ldr	r3, .L54
 129:..\..\common\lib\lib_DB/logResult.c ****     uint32_t resultF;
 488              		.loc 2 129 0
 489 0006 9FB0     		sub	sp, sp, #124
 490              		.cfi_def_cfa_offset 144
 491              		.loc 2 139 0
 492 0008 1A60     		str	r2, [r3]
 140:..\..\common\lib\lib_DB/logResult.c ****     resultF = f_open(&fileO, nameFile, FA_READ , &createFlag);
 493              		.loc 2 140 0
 494 000a 4449     		ldr	r1, .L54+4
 495 000c 0132     		adds	r2, r2, #1
 496 000e 4448     		ldr	r0, .L54+8
 497 0010 FFF7FEFF 		bl	f_open
ARM GAS  C:\Users\Petro\AppData\Local\Temp\ccFwIvcQ.s 			page 26


 498              	.LVL43:
 499              	.L17:
 141:..\..\common\lib\lib_DB/logResult.c ****     
 142:..\..\common\lib\lib_DB/logResult.c ****     while (f_gets(line, sizeof line, &fileO))
 500              		.loc 2 142 0
 501 0014 424D     		ldr	r5, .L54+8
 502 0016 09AC     		add	r4, sp, #36
 503 0018 2A00     		movs	r2, r5
 504 001a 5221     		movs	r1, #82
 505 001c 2000     		movs	r0, r4
 506 001e FFF7FEFF 		bl	f_gets
 507              	.LVL44:
 508 0022 0028     		cmp	r0, #0
 509 0024 73D0     		beq	.L52
 510              	.LVL45:
 511              	.LBB50:
 143:..\..\common\lib\lib_DB/logResult.c ****     {    
 144:..\..\common\lib\lib_DB/logResult.c ****         uint32_t pointer = 0;
 145:..\..\common\lib\lib_DB/logResult.c ****         uint32_t coeff = 1;
 146:..\..\common\lib\lib_DB/logResult.c ****         uint8_t counterMas = 0;
 147:..\..\common\lib\lib_DB/logResult.c ****         
 148:..\..\common\lib\lib_DB/logResult.c ****         typedef enum {MAS_START_TIME,MAS_FINISH_TIME, MAS_RESULT_TIME}numMas;
 149:..\..\common\lib\lib_DB/logResult.c ****         numMas currentMas ;
 150:..\..\common\lib\lib_DB/logResult.c ****         
 151:..\..\common\lib\lib_DB/logResult.c ****         if(isdigit(line[pointer]))
 512              		.loc 2 151 0
 513 0026 3F4B     		ldr	r3, .L54+12
 514 0028 1B68     		ldr	r3, [r3]
 515 002a 0193     		str	r3, [sp, #4]
 516 002c 019A     		ldr	r2, [sp, #4]
 517 002e 2378     		ldrb	r3, [r4]
 518 0030 D318     		adds	r3, r2, r3
 519 0032 0422     		movs	r2, #4
 520 0034 5B78     		ldrb	r3, [r3, #1]
 521 0036 1342     		tst	r3, r2
 522 0038 ECD0     		beq	.L17
 523 003a 0023     		movs	r3, #0
 524              	.LBB51:
 152:..\..\common\lib\lib_DB/logResult.c ****         {
 153:..\..\common\lib\lib_DB/logResult.c ****             /*clear buffer*/
 154:..\..\common\lib\lib_DB/logResult.c ****             int i;
 155:..\..\common\lib\lib_DB/logResult.c ****             for(i=0;i<4; i++)
 156:..\..\common\lib\lib_DB/logResult.c ****             {
 157:..\..\common\lib\lib_DB/logResult.c ****                 sendStartTime[i] = 0;
 525              		.loc 2 157 0 discriminator 3
 526 003c 1A00     		movs	r2, r3
 527              	.L18:
 528 003e 03A9     		add	r1, sp, #12
 529 0040 5A52     		strh	r2, [r3, r1]
 158:..\..\common\lib\lib_DB/logResult.c ****                 sendFinishTime[i] = 0;
 530              		.loc 2 158 0 discriminator 3
 531 0042 05A9     		add	r1, sp, #20
 532 0044 5A52     		strh	r2, [r3, r1]
 159:..\..\common\lib\lib_DB/logResult.c ****                 sendResultTime[i] = 0;
 533              		.loc 2 159 0 discriminator 3
 534 0046 07A9     		add	r1, sp, #28
 535 0048 5A52     		strh	r2, [r3, r1]
ARM GAS  C:\Users\Petro\AppData\Local\Temp\ccFwIvcQ.s 			page 27


 536              	.LVL46:
 537 004a 0233     		adds	r3, r3, #2
 155:..\..\common\lib\lib_DB/logResult.c ****             {
 538              		.loc 2 155 0 discriminator 3
 539 004c 082B     		cmp	r3, #8
 540 004e F6D1     		bne	.L18
 541 0050 0021     		movs	r1, #0
 542 0052 073B     		subs	r3, r3, #7
 543 0054 0091     		str	r1, [sp]
 544              	.LVL47:
 545              	.L19:
 160:..\..\common\lib\lib_DB/logResult.c ****             }
 161:..\..\common\lib\lib_DB/logResult.c ****             
 162:..\..\common\lib\lib_DB/logResult.c ****             /*write id skier*/
 163:..\..\common\lib\lib_DB/logResult.c ****             sendIdSkier = 0;
 164:..\..\common\lib\lib_DB/logResult.c ****             while(isdigit(line[pointer]))
 546              		.loc 2 164 0
 547 0056 0426     		movs	r6, #4
 548 0058 655C     		ldrb	r5, [r4, r1]
 549 005a 019A     		ldr	r2, [sp, #4]
 550 005c 5219     		adds	r2, r2, r5
 551 005e 5278     		ldrb	r2, [r2, #1]
 552 0060 3240     		ands	r2, r6
 553 0062 1CD0     		beq	.L21
 165:..\..\common\lib\lib_DB/logResult.c ****             {
 166:..\..\common\lib\lib_DB/logResult.c ****                 sendIdSkier = sendIdSkier*coeff + (line[pointer]-'0');
 554              		.loc 2 166 0
 555 0064 0098     		ldr	r0, [sp]
 167:..\..\common\lib\lib_DB/logResult.c ****                 pointer++;
 556              		.loc 2 167 0
 557 0066 0131     		adds	r1, r1, #1
 558              	.LVL48:
 166:..\..\common\lib\lib_DB/logResult.c ****                 pointer++;
 559              		.loc 2 166 0
 560 0068 5843     		muls	r0, r3
 561 006a 4019     		adds	r0, r0, r5
 562 006c 3038     		subs	r0, r0, #48
 563 006e 82B2     		uxth	r2, r0
 564 0070 0092     		str	r2, [sp]
 565              	.LVL49:
 168:..\..\common\lib\lib_DB/logResult.c ****                 coeff *= 10;
 566              		.loc 2 168 0
 567 0072 0A22     		movs	r2, #10
 568 0074 5343     		muls	r3, r2
 569              	.LVL50:
 570 0076 EEE7     		b	.L19
 571              	.LVL51:
 572              	.L27:
 169:..\..\common\lib\lib_DB/logResult.c ****             }
 170:..\..\common\lib\lib_DB/logResult.c ****             
 171:..\..\common\lib\lib_DB/logResult.c ****             currentMas = MAS_START_TIME;
 172:..\..\common\lib\lib_DB/logResult.c ****             while((line[pointer] != '\n') && (line[pointer] != '\r'))
 173:..\..\common\lib\lib_DB/logResult.c ****             {            
 174:..\..\common\lib\lib_DB/logResult.c ****                 /*write time start skier*/
 175:..\..\common\lib\lib_DB/logResult.c ****                 coeff = 1;
 176:..\..\common\lib\lib_DB/logResult.c ****                 counterMas = 0;
 177:..\..\common\lib\lib_DB/logResult.c ****                 while(isdigit(line[pointer]) || (line[pointer] == ':'))
ARM GAS  C:\Users\Petro\AppData\Local\Temp\ccFwIvcQ.s 			page 28


 178:..\..\common\lib\lib_DB/logResult.c ****                 {
 179:..\..\common\lib\lib_DB/logResult.c ****                     if(line[pointer] == ':')
 573              		.loc 2 179 0
 574 0078 3A2B     		cmp	r3, #58
 575 007a 19D1     		bne	.L22
 576              	.L28:
 180:..\..\common\lib\lib_DB/logResult.c ****                     {
 181:..\..\common\lib\lib_DB/logResult.c ****                         counterMas++;
 182:..\..\common\lib\lib_DB/logResult.c ****                         coeff = 1;
 577              		.loc 2 182 0
 578 007c 0124     		movs	r4, #1
 579              	.LVL52:
 181:..\..\common\lib\lib_DB/logResult.c ****                         coeff = 1;
 580              		.loc 2 181 0
 581 007e 0135     		adds	r5, r5, #1
 582              	.LVL53:
 583 0080 EDB2     		uxtb	r5, r5
 584              	.LVL54:
 585              	.L23:
 183:..\..\common\lib\lib_DB/logResult.c ****                     }
 184:..\..\common\lib\lib_DB/logResult.c ****                     else
 185:..\..\common\lib\lib_DB/logResult.c ****                     {
 186:..\..\common\lib\lib_DB/logResult.c ****                         switch (currentMas){
 187:..\..\common\lib\lib_DB/logResult.c ****                             case MAS_START_TIME:
 188:..\..\common\lib\lib_DB/logResult.c ****                                 sendStartTime[counterMas] = sendStartTime[counterMas]*coeff + (line
 189:..\..\common\lib\lib_DB/logResult.c ****                                 break;
 190:..\..\common\lib\lib_DB/logResult.c ****                             case MAS_FINISH_TIME:
 191:..\..\common\lib\lib_DB/logResult.c ****                                 sendFinishTime[counterMas] = sendFinishTime[counterMas]*coeff + (li
 192:..\..\common\lib\lib_DB/logResult.c ****                                 break;
 193:..\..\common\lib\lib_DB/logResult.c ****                             case MAS_RESULT_TIME:
 194:..\..\common\lib\lib_DB/logResult.c ****                                 sendResultTime[counterMas+2] = sendResultTime[counterMas+2]*coeff +
 195:..\..\common\lib\lib_DB/logResult.c ****                                 break;
 196:..\..\common\lib\lib_DB/logResult.c ****                         }
 197:..\..\common\lib\lib_DB/logResult.c ****                         coeff = 10;
 198:..\..\common\lib\lib_DB/logResult.c ****                     }
 199:..\..\common\lib\lib_DB/logResult.c ****                     pointer++;
 586              		.loc 2 199 0
 587 0082 0131     		adds	r1, r1, #1
 588              	.LVL55:
 589              	.L31:
 177:..\..\common\lib\lib_DB/logResult.c ****                 {
 590              		.loc 2 177 0
 591 0084 09AB     		add	r3, sp, #36
 592 0086 0198     		ldr	r0, [sp, #4]
 593 0088 CB5C     		ldrb	r3, [r1, r3]
 594 008a C618     		adds	r6, r0, r3
 595 008c 0420     		movs	r0, #4
 596 008e 7678     		ldrb	r6, [r6, #1]
 597 0090 0640     		ands	r6, r0
 598 0092 F1D1     		bne	.L27
 177:..\..\common\lib\lib_DB/logResult.c ****                 {
 599              		.loc 2 177 0 is_stmt 0 discriminator 1
 600 0094 3A2B     		cmp	r3, #58
 601 0096 F1D0     		beq	.L28
 200:..\..\common\lib\lib_DB/logResult.c ****                 }
 201:..\..\common\lib\lib_DB/logResult.c ****                 if(coeff != 1)
 602              		.loc 2 201 0 is_stmt 1
ARM GAS  C:\Users\Petro\AppData\Local\Temp\ccFwIvcQ.s 			page 29


 603 0098 012C     		cmp	r4, #1
 604 009a 25D1     		bne	.L53
 605              	.LVL56:
 606              	.L29:
 202:..\..\common\lib\lib_DB/logResult.c ****                 {
 203:..\..\common\lib\lib_DB/logResult.c ****                     if(currentMas == MAS_RESULT_TIME)
 204:..\..\common\lib\lib_DB/logResult.c ****                     {
 205:..\..\common\lib\lib_DB/logResult.c ****                         currentMas = MAS_START_TIME;
 206:..\..\common\lib\lib_DB/logResult.c ****                     }else{
 207:..\..\common\lib\lib_DB/logResult.c ****                         currentMas++;
 208:..\..\common\lib\lib_DB/logResult.c ****                     }
 209:..\..\common\lib\lib_DB/logResult.c ****                     
 210:..\..\common\lib\lib_DB/logResult.c ****                     counterMas = 0;
 211:..\..\common\lib\lib_DB/logResult.c ****                     
 212:..\..\common\lib\lib_DB/logResult.c ****                 }
 213:..\..\common\lib\lib_DB/logResult.c ****                 pointer++;
 607              		.loc 2 213 0
 608 009c 0131     		adds	r1, r1, #1
 609              	.LVL57:
 610              	.L21:
 172:..\..\common\lib\lib_DB/logResult.c ****             {            
 611              		.loc 2 172 0
 612 009e 09AB     		add	r3, sp, #36
 613 00a0 5B5C     		ldrb	r3, [r3, r1]
 614 00a2 0A2B     		cmp	r3, #10
 615 00a4 27D0     		beq	.L30
 172:..\..\common\lib\lib_DB/logResult.c ****             {            
 616              		.loc 2 172 0 is_stmt 0 discriminator 1
 617 00a6 0D2B     		cmp	r3, #13
 618 00a8 25D0     		beq	.L30
 619 00aa 0025     		movs	r5, #0
 620 00ac 0124     		movs	r4, #1
 621 00ae E9E7     		b	.L31
 622              	.LVL58:
 623              	.L22:
 186:..\..\common\lib\lib_DB/logResult.c ****                             case MAS_START_TIME:
 624              		.loc 2 186 0 is_stmt 1
 625 00b0 012A     		cmp	r2, #1
 626 00b2 0ED0     		beq	.L24
 627 00b4 002A     		cmp	r2, #0
 628 00b6 0AD0     		beq	.L25
 629 00b8 022A     		cmp	r2, #2
 630 00ba 13D1     		bne	.L50
 194:..\..\common\lib\lib_DB/logResult.c ****                                 break;
 631              		.loc 2 194 0
 632 00bc AE1C     		adds	r6, r5, #2
 633 00be 07AF     		add	r7, sp, #28
 634 00c0 7600     		lsls	r6, r6, #1
 635 00c2 F05B     		ldrh	r0, [r6, r7]
 636 00c4 303B     		subs	r3, r3, #48
 637 00c6 4443     		muls	r4, r0
 638              	.LVL59:
 639 00c8 E418     		adds	r4, r4, r3
 640 00ca F453     		strh	r4, [r6, r7]
 641 00cc 0AE0     		b	.L50
 642              	.LVL60:
 643              	.L25:
ARM GAS  C:\Users\Petro\AppData\Local\Temp\ccFwIvcQ.s 			page 30


 188:..\..\common\lib\lib_DB/logResult.c ****                                 break;
 644              		.loc 2 188 0
 645 00ce 03AF     		add	r7, sp, #12
 646 00d0 00E0     		b	.L51
 647              	.L24:
 191:..\..\common\lib\lib_DB/logResult.c ****                                 break;
 648              		.loc 2 191 0
 649 00d2 05AF     		add	r7, sp, #20
 650              	.L51:
 651 00d4 6E00     		lsls	r6, r5, #1
 652 00d6 B446     		mov	ip, r6
 653 00d8 F65B     		ldrh	r6, [r6, r7]
 654 00da 303B     		subs	r3, r3, #48
 655 00dc 7443     		muls	r4, r6
 656              	.LVL61:
 657 00de E418     		adds	r4, r4, r3
 658 00e0 6346     		mov	r3, ip
 659 00e2 DC53     		strh	r4, [r3, r7]
 660              	.L50:
 197:..\..\common\lib\lib_DB/logResult.c ****                     }
 661              		.loc 2 197 0
 662 00e4 0A24     		movs	r4, #10
 663 00e6 CCE7     		b	.L23
 664              	.LVL62:
 665              	.L53:
 203:..\..\common\lib\lib_DB/logResult.c ****                     {
 666              		.loc 2 203 0
 667 00e8 022A     		cmp	r2, #2
 668 00ea 02D0     		beq	.L34
 207:..\..\common\lib\lib_DB/logResult.c ****                     }
 669              		.loc 2 207 0
 670 00ec 0132     		adds	r2, r2, #1
 671              	.LVL63:
 672 00ee D2B2     		uxtb	r2, r2
 673              	.LVL64:
 674 00f0 D4E7     		b	.L29
 675              	.L34:
 205:..\..\common\lib\lib_DB/logResult.c ****                     }else{
 676              		.loc 2 205 0
 677 00f2 3200     		movs	r2, r6
 678              	.LVL65:
 679 00f4 D2E7     		b	.L29
 680              	.LVL66:
 681              	.L30:
 214:..\..\common\lib\lib_DB/logResult.c ****             }
 215:..\..\common\lib\lib_DB/logResult.c ****                        
 216:..\..\common\lib\lib_DB/logResult.c ****             BLE_sendOneSkierTimeAll(sendIdSkier, sendStartTime, sendFinishTime, sendResultTime);
 682              		.loc 2 216 0
 683 00f6 0098     		ldr	r0, [sp]
 684 00f8 07AB     		add	r3, sp, #28
 685 00fa 05AA     		add	r2, sp, #20
 686              	.LVL67:
 687 00fc 03A9     		add	r1, sp, #12
 688              	.LVL68:
 689 00fe FFF7FEFF 		bl	BLE_sendOneSkierTimeAll
 690              	.LVL69:
 217:..\..\common\lib\lib_DB/logResult.c ****             BLE_processEvents();
ARM GAS  C:\Users\Petro\AppData\Local\Temp\ccFwIvcQ.s 			page 31


 691              		.loc 2 217 0
 692 0102 FFF7FEFF 		bl	BLE_processEvents
 693              	.LVL70:
 218:..\..\common\lib\lib_DB/logResult.c ****             CyDelay(100);
 694              		.loc 2 218 0
 695 0106 6420     		movs	r0, #100
 696 0108 FFF7FEFF 		bl	CyDelay
 697              	.LVL71:
 698 010c 82E7     		b	.L17
 699              	.LVL72:
 700              	.L52:
 701              	.LBE51:
 702              	.LBE50:
 219:..\..\common\lib\lib_DB/logResult.c ****         }
 220:..\..\common\lib\lib_DB/logResult.c ****     }
 221:..\..\common\lib\lib_DB/logResult.c ****     resultF = f_close(&fileO);
 703              		.loc 2 221 0
 704 010e 2800     		movs	r0, r5
 705 0110 FFF7FEFF 		bl	f_close
 706              	.LVL73:
 222:..\..\common\lib\lib_DB/logResult.c ****         
 223:..\..\common\lib\lib_DB/logResult.c ****     return resultF;
 224:..\..\common\lib\lib_DB/logResult.c **** }
 707              		.loc 2 224 0
 708 0114 1FB0     		add	sp, sp, #124
 709              		@ sp needed
 710 0116 F0BD     		pop	{r4, r5, r6, r7, pc}
 711              	.L55:
 712              		.align	2
 713              	.L54:
 714 0118 00000000 		.word	createFlag
 715 011c 00000000 		.word	.LANCHOR0
 716 0120 00000000 		.word	fileO
 717 0124 00000000 		.word	__ctype_ptr__
 718              		.cfi_endproc
 719              	.LFE65:
 720              		.size	ReadSkierResultAndSendBLE, .-ReadSkierResultAndSendBLE
 721              		.section	.text.GetIDskierStarted,"ax",%progbits
 722              		.align	1
 723              		.global	GetIDskierStarted
 724              		.code	16
 725              		.thumb_func
 726              		.type	GetIDskierStarted, %function
 727              	GetIDskierStarted:
 728              	.LFB66:
 225:..\..\common\lib\lib_DB/logResult.c **** 
 226:..\..\common\lib\lib_DB/logResult.c **** uint32_t GetIDskierStarted(void)
 227:..\..\common\lib\lib_DB/logResult.c **** {
 729              		.loc 2 227 0
 730              		.cfi_startproc
 731              		@ args = 0, pretend = 0, frame = 0
 732              		@ frame_needed = 0, uses_anonymous_args = 0
 733              		@ link register save eliminated.
 228:..\..\common\lib\lib_DB/logResult.c ****     return idSkier;
 734              		.loc 2 228 0
 735 0000 014B     		ldr	r3, .L57
 229:..\..\common\lib\lib_DB/logResult.c **** }
ARM GAS  C:\Users\Petro\AppData\Local\Temp\ccFwIvcQ.s 			page 32


 736              		.loc 2 229 0
 737              		@ sp needed
 228:..\..\common\lib\lib_DB/logResult.c ****     return idSkier;
 738              		.loc 2 228 0
 739 0002 5868     		ldr	r0, [r3, #4]
 740              		.loc 2 229 0
 741 0004 7047     		bx	lr
 742              	.L58:
 743 0006 C046     		.align	2
 744              	.L57:
 745 0008 00000000 		.word	.LANCHOR1
 746              		.cfi_endproc
 747              	.LFE66:
 748              		.size	GetIDskierStarted, .-GetIDskierStarted
 749              		.section	.text.GetIDskierFinished,"ax",%progbits
 750              		.align	1
 751              		.global	GetIDskierFinished
 752              		.code	16
 753              		.thumb_func
 754              		.type	GetIDskierFinished, %function
 755              	GetIDskierFinished:
 756              	.LFB67:
 230:..\..\common\lib\lib_DB/logResult.c **** 
 231:..\..\common\lib\lib_DB/logResult.c **** uint32_t GetIDskierFinished(void)
 232:..\..\common\lib\lib_DB/logResult.c **** {
 757              		.loc 2 232 0
 758              		.cfi_startproc
 759              		@ args = 0, pretend = 0, frame = 0
 760              		@ frame_needed = 0, uses_anonymous_args = 0
 761              		@ link register save eliminated.
 233:..\..\common\lib\lib_DB/logResult.c ****     return position-1;
 762              		.loc 2 233 0
 763 0000 014B     		ldr	r3, .L60
 234:..\..\common\lib\lib_DB/logResult.c **** }
 764              		.loc 2 234 0
 765              		@ sp needed
 233:..\..\common\lib\lib_DB/logResult.c ****     return position-1;
 766              		.loc 2 233 0
 767 0002 1868     		ldr	r0, [r3]
 768 0004 0138     		subs	r0, r0, #1
 769              		.loc 2 234 0
 770 0006 7047     		bx	lr
 771              	.L61:
 772              		.align	2
 773              	.L60:
 774 0008 00000000 		.word	.LANCHOR1
 775              		.cfi_endproc
 776              	.LFE67:
 777              		.size	GetIDskierFinished, .-GetIDskierFinished
 778              		.section	.text.IncrementID,"ax",%progbits
 779              		.align	1
 780              		.global	IncrementID
 781              		.code	16
 782              		.thumb_func
 783              		.type	IncrementID, %function
 784              	IncrementID:
 785              	.LFB68:
ARM GAS  C:\Users\Petro\AppData\Local\Temp\ccFwIvcQ.s 			page 33


 235:..\..\common\lib\lib_DB/logResult.c **** 
 236:..\..\common\lib\lib_DB/logResult.c **** void IncrementID(void)
 237:..\..\common\lib\lib_DB/logResult.c **** {
 786              		.loc 2 237 0
 787              		.cfi_startproc
 788              		@ args = 0, pretend = 0, frame = 0
 789              		@ frame_needed = 0, uses_anonymous_args = 0
 790              		@ link register save eliminated.
 238:..\..\common\lib\lib_DB/logResult.c ****     idSkier++;
 791              		.loc 2 238 0
 792 0000 024A     		ldr	r2, .L63
 239:..\..\common\lib\lib_DB/logResult.c **** }
 793              		.loc 2 239 0
 794              		@ sp needed
 238:..\..\common\lib\lib_DB/logResult.c ****     idSkier++;
 795              		.loc 2 238 0
 796 0002 5368     		ldr	r3, [r2, #4]
 797 0004 0133     		adds	r3, r3, #1
 798 0006 5360     		str	r3, [r2, #4]
 799              		.loc 2 239 0
 800 0008 7047     		bx	lr
 801              	.L64:
 802 000a C046     		.align	2
 803              	.L63:
 804 000c 00000000 		.word	.LANCHOR1
 805              		.cfi_endproc
 806              	.LFE68:
 807              		.size	IncrementID, .-IncrementID
 808              		.comm	createFlag,4,4
 809              		.comm	fileO,552,4
 810              		.comm	fatFs,560,4
 811              		.section	.rodata.str1.1,"aMS",%progbits,1
 812              	.LC0:
 813 0000 00       		.ascii	"\000"
 814              	.LC3:
 815 0001 25303264 		.ascii	"%02d_%02d_%d.txt\000"
 815      5F253032 
 815      645F2564 
 815      2E747874 
 815      00
 816              	.LC8:
 817 0012 09092530 		.ascii	"\011\011%02lu:%02lu:%02lu:%03u\000"
 817      326C753A 
 817      2530326C 
 817      753A2530 
 817      326C753A 
 818              	.LC10:
 819 002b 09092530 		.ascii	"\011\011%02lu:%03u\000"
 819      326C753A 
 819      25303375 
 819      00
 820              	.LC13:
 821 0038 0A0D2564 		.ascii	"\012\015%d%s%s%s\012\015\000"
 821      25732573 
 821      25730A0D 
 821      00
 822              	.LC15:
ARM GAS  C:\Users\Petro\AppData\Local\Temp\ccFwIvcQ.s 			page 34


 823 0045 0D0A5379 		.ascii	"\015\012System started %02d:%02d:%02d\012\015\000"
 823      7374656D 
 823      20737461 
 823      72746564 
 823      20253032 
 824              	.LC17:
 825 0067 2D2D2D2D 		.ascii	"--------------------------------------------------\012"
 825      2D2D2D2D 
 825      2D2D2D2D 
 825      2D2D2D2D 
 825      2D2D2D2D 
 826 009a 0D00     		.ascii	"\015\000"
 827              	.LC19:
 828 009c 4E554D09 		.ascii	"NUM\011\011START\011\011\011FINISH\011\011\011RESUL"
 828      09535441 
 828      52540909 
 828      0946494E 
 828      49534809 
 829 00b7 540A0D00 		.ascii	"T\012\015\000"
 830              		.data
 831              		.align	2
 832              		.set	.LANCHOR1,. + 0
 833              		.type	position, %object
 834              		.size	position, 4
 835              	position:
 836 0000 01000000 		.word	1
 837              		.type	idSkier, %object
 838              		.size	idSkier, 4
 839              	idSkier:
 840 0004 01000000 		.word	1
 841              		.bss
 842              		.set	.LANCHOR0,. + 0
 843              		.type	nameFile, %object
 844              		.size	nameFile, 20
 845              	nameFile:
 846 0000 00000000 		.space	20
 846      00000000 
 846      00000000 
 846      00000000 
 846      00000000 
 847              		.text
 848              	.Letext0:
 849              		.file 3 "c:\\program files (x86)\\cypress\\psoc creator\\4.1\\psoc creator\\import\\gnu\\arm\\5.4.
 850              		.file 4 "c:\\program files (x86)\\cypress\\psoc creator\\4.1\\psoc creator\\import\\gnu\\arm\\5.4.
 851              		.file 5 "Generated_Source\\PSoC4/cytypes.h"
 852              		.file 6 "c:\\program files (x86)\\cypress\\psoc creator\\4.1\\psoc creator\\import\\gnu\\arm\\5.4.
 853              		.file 7 "./..\\..\\common\\lib\\lib_Fat\\integer.h"
 854              		.file 8 "Generated_Source\\PSoC4/ble_Stack.h"
 855              		.file 9 "./..\\..\\common\\lib\\lib_Fat\\diskio.h"
 856              		.file 10 "./..\\..\\common\\lib\\lib_DB\\database.h"
 857              		.file 11 "./..\\..\\common\\lib\\lib_Fat\\ff.h"
 858              		.file 12 "c:\\program files (x86)\\cypress\\psoc creator\\4.1\\psoc creator\\import\\gnu\\arm\\5.4
 859              		.file 13 "c:\\program files (x86)\\cypress\\psoc creator\\4.1\\psoc creator\\import\\gnu\\arm\\5.4
 860              		.file 14 "c:\\program files (x86)\\cypress\\psoc creator\\4.1\\psoc creator\\import\\gnu\\arm\\5.4
 861              		.file 15 "./..\\..\\common\\lib\\lib_BLE\\bluetooth.h"
 862              		.file 16 "Generated_Source\\PSoC4/CyLib.h"