ARM GAS  C:\Users\Petro\AppData\Local\Temp\cc4bDtSi.s 			page 1


   1              		.syntax unified
   2              		.cpu cortex-m0
   3              		.fpu softvfp
   4              		.eabi_attribute 20, 1
   5              		.eabi_attribute 21, 1
   6              		.eabi_attribute 23, 3
   7              		.eabi_attribute 24, 1
   8              		.eabi_attribute 25, 1
   9              		.eabi_attribute 26, 1
  10              		.eabi_attribute 30, 4
  11              		.eabi_attribute 34, 0
  12              		.eabi_attribute 18, 4
  13              		.thumb
  14              		.syntax unified
  15              		.file	"RTC.c"
  16              		.text
  17              	.Ltext0:
  18              		.cfi_sections	.debug_frame
  19              		.global	__aeabi_uidivmod
  20              		.section	.text.RTC_LeapYear,"ax",%progbits
  21              		.align	1
  22              		.code	16
  23              		.thumb_func
  24              		.type	RTC_LeapYear, %function
  25              	RTC_LeapYear:
  26              	.LFB3:
  27              		.file 1 "Generated_Source\\PSoC4\\RTC.h"
   1:Generated_Source\PSoC4/RTC.h **** /***************************************************************************//**
   2:Generated_Source\PSoC4/RTC.h **** * \file Name: RTC.h
   3:Generated_Source\PSoC4/RTC.h **** * \version 1.20
   4:Generated_Source\PSoC4/RTC.h **** *
   5:Generated_Source\PSoC4/RTC.h **** *  This file provides constants and parameter values for the RTC_P4 Component.
   6:Generated_Source\PSoC4/RTC.h **** *
   7:Generated_Source\PSoC4/RTC.h **** ********************************************************************************
   8:Generated_Source\PSoC4/RTC.h **** * Copyright 2015-2017, Cypress Semiconductor Corporation.  All rights reserved.
   9:Generated_Source\PSoC4/RTC.h **** * You may use this file only in accordance with the license, terms, conditions,
  10:Generated_Source\PSoC4/RTC.h **** * disclaimers, and limitations in the end user license agreement accompanying
  11:Generated_Source\PSoC4/RTC.h **** * the software package with which this file was provided.
  12:Generated_Source\PSoC4/RTC.h **** *******************************************************************************/
  13:Generated_Source\PSoC4/RTC.h **** 
  14:Generated_Source\PSoC4/RTC.h **** #if !defined(CY_RTC_P4_RTC_H)
  15:Generated_Source\PSoC4/RTC.h **** #define CY_RTC_P4_RTC_H
  16:Generated_Source\PSoC4/RTC.h **** 
  17:Generated_Source\PSoC4/RTC.h **** #include <cytypes.h>
  18:Generated_Source\PSoC4/RTC.h **** #include <CyLib.h>
  19:Generated_Source\PSoC4/RTC.h **** 
  20:Generated_Source\PSoC4/RTC.h **** 
  21:Generated_Source\PSoC4/RTC.h **** /*******************************************************************************
  22:Generated_Source\PSoC4/RTC.h **** *    Data types definition
  23:Generated_Source\PSoC4/RTC.h **** *******************************************************************************/
  24:Generated_Source\PSoC4/RTC.h **** /**
  25:Generated_Source\PSoC4/RTC.h **** * \addtogroup group_enums
  26:Generated_Source\PSoC4/RTC.h **** * \{
  27:Generated_Source\PSoC4/RTC.h **** */
  28:Generated_Source\PSoC4/RTC.h **** /** Daylight saving Time format enumeration */
  29:Generated_Source\PSoC4/RTC.h **** typedef enum
  30:Generated_Source\PSoC4/RTC.h **** {
ARM GAS  C:\Users\Petro\AppData\Local\Temp\cc4bDtSi.s 			page 2


  31:Generated_Source\PSoC4/RTC.h ****     RTC_DST_DATE_RELATIVE = 0u,  /**< Relative DST format */
  32:Generated_Source\PSoC4/RTC.h ****     RTC_DST_DATE_FIXED = 1u      /**< Fixed DST format */
  33:Generated_Source\PSoC4/RTC.h **** }RTC_DST_DATETYPE_ENUM;
  34:Generated_Source\PSoC4/RTC.h **** /** \} group_enums */
  35:Generated_Source\PSoC4/RTC.h **** 
  36:Generated_Source\PSoC4/RTC.h **** /**
  37:Generated_Source\PSoC4/RTC.h **** * \addtogroup group_structures
  38:Generated_Source\PSoC4/RTC.h **** * \{
  39:Generated_Source\PSoC4/RTC.h **** */
  40:Generated_Source\PSoC4/RTC.h **** 
  41:Generated_Source\PSoC4/RTC.h **** /** RTC_DATE_TIME structure is the data structure that is used to 
  42:Generated_Source\PSoC4/RTC.h **** * save the current time and date (RTC_currentTimeDate), and Alarm time and date 
  43:Generated_Source\PSoC4/RTC.h **** *(RTC_alarmCfgTimeDate)
  44:Generated_Source\PSoC4/RTC.h **** *
  45:Generated_Source\PSoC4/RTC.h **** */
  46:Generated_Source\PSoC4/RTC.h **** typedef struct
  47:Generated_Source\PSoC4/RTC.h **** {
  48:Generated_Source\PSoC4/RTC.h ****     uint32 time;        /**< Time in the format used in API*/
  49:Generated_Source\PSoC4/RTC.h ****     uint32 date;        /**< Date in the format used in API*/
  50:Generated_Source\PSoC4/RTC.h ****     uint32 dayOfWeek;   /**< Day of the week, see \ref group_rtc_day_of_the_week */
  51:Generated_Source\PSoC4/RTC.h ****     uint32 status;      /**< RTC status, see \ref group_rtc_status */
  52:Generated_Source\PSoC4/RTC.h **** }RTC_DATE_TIME;
  53:Generated_Source\PSoC4/RTC.h **** 
  54:Generated_Source\PSoC4/RTC.h **** /*
  55:Generated_Source\PSoC4/RTC.h **** * RTC_DST_TIME structure is the data structure that is used to 
  56:Generated_Source\PSoC4/RTC.h **** * save time and date values for Daylight Savings Time Start and Stop 
  57:Generated_Source\PSoC4/RTC.h **** * (RTC_dstTimeDateStart and RTC_dstTimeDateStop)
  58:Generated_Source\PSoC4/RTC.h **** */
  59:Generated_Source\PSoC4/RTC.h **** typedef struct
  60:Generated_Source\PSoC4/RTC.h **** {
  61:Generated_Source\PSoC4/RTC.h ****     uint32 hour;          /**< Hour value */
  62:Generated_Source\PSoC4/RTC.h ****     uint32 dayOfWeek;     /**< Day of the week, see \ref group_rtc_day_of_the_week */
  63:Generated_Source\PSoC4/RTC.h ****     uint32 dayOfMonth;    /**< Day of the month */
  64:Generated_Source\PSoC4/RTC.h ****     uint32 weekOfMonth;   /**< Week of the month, see \ref group_rtc_dst_week_of_month */
  65:Generated_Source\PSoC4/RTC.h ****     uint32 month;         /**< Month value, see \ref group_rtc_month */
  66:Generated_Source\PSoC4/RTC.h ****     uint8  timeFormat;    /**< The DST operation mode, see \ref 
  67:Generated_Source\PSoC4/RTC.h ****                                RTC_DST_DATETYPE_ENUM */
  68:Generated_Source\PSoC4/RTC.h **** }RTC_DST_TIME;
  69:Generated_Source\PSoC4/RTC.h **** /** \} group_structures */
  70:Generated_Source\PSoC4/RTC.h **** 
  71:Generated_Source\PSoC4/RTC.h **** /*******************************************************************************
  72:Generated_Source\PSoC4/RTC.h **** *    Enumerated Types and Parameters
  73:Generated_Source\PSoC4/RTC.h **** *******************************************************************************/
  74:Generated_Source\PSoC4/RTC.h **** /* Time Format setting constants */
  75:Generated_Source\PSoC4/RTC.h **** #define RTC__HOUR_12 1
  76:Generated_Source\PSoC4/RTC.h **** #define RTC__HOUR_24 0
  77:Generated_Source\PSoC4/RTC.h **** 
  78:Generated_Source\PSoC4/RTC.h **** /*  Date Format setting constants */
  79:Generated_Source\PSoC4/RTC.h **** #define RTC__MM_DD_YYYY 0
  80:Generated_Source\PSoC4/RTC.h **** #define RTC__DD_MM_YYYY 1
  81:Generated_Source\PSoC4/RTC.h **** #define RTC__YYYY_MM_DD 2
  82:Generated_Source\PSoC4/RTC.h **** 
  83:Generated_Source\PSoC4/RTC.h **** /* Date Type setting constants */
  84:Generated_Source\PSoC4/RTC.h **** #define RTC__RELATIVE 0
  85:Generated_Source\PSoC4/RTC.h **** #define RTC__FIXED 1
  86:Generated_Source\PSoC4/RTC.h **** 
  87:Generated_Source\PSoC4/RTC.h **** /* DST Hour setting constants */
ARM GAS  C:\Users\Petro\AppData\Local\Temp\cc4bDtSi.s 			page 3


  88:Generated_Source\PSoC4/RTC.h **** #define RTC__H0000 0
  89:Generated_Source\PSoC4/RTC.h **** #define RTC__H0100 1
  90:Generated_Source\PSoC4/RTC.h **** #define RTC__H0200 2
  91:Generated_Source\PSoC4/RTC.h **** #define RTC__H0300 3
  92:Generated_Source\PSoC4/RTC.h **** #define RTC__H0400 4
  93:Generated_Source\PSoC4/RTC.h **** #define RTC__H0500 5
  94:Generated_Source\PSoC4/RTC.h **** #define RTC__H0600 6
  95:Generated_Source\PSoC4/RTC.h **** #define RTC__H0700 7
  96:Generated_Source\PSoC4/RTC.h **** #define RTC__H0800 8
  97:Generated_Source\PSoC4/RTC.h **** #define RTC__H0900 9
  98:Generated_Source\PSoC4/RTC.h **** #define RTC__H1000 10
  99:Generated_Source\PSoC4/RTC.h **** #define RTC__H1100 11
 100:Generated_Source\PSoC4/RTC.h **** #define RTC__H1200 12
 101:Generated_Source\PSoC4/RTC.h **** #define RTC__H1300 13
 102:Generated_Source\PSoC4/RTC.h **** #define RTC__H1400 14
 103:Generated_Source\PSoC4/RTC.h **** #define RTC__H1500 15
 104:Generated_Source\PSoC4/RTC.h **** #define RTC__H1600 16
 105:Generated_Source\PSoC4/RTC.h **** #define RTC__H1700 17
 106:Generated_Source\PSoC4/RTC.h **** #define RTC__H1800 18
 107:Generated_Source\PSoC4/RTC.h **** #define RTC__H1900 19
 108:Generated_Source\PSoC4/RTC.h **** #define RTC__H2000 20
 109:Generated_Source\PSoC4/RTC.h **** #define RTC__H2100 21
 110:Generated_Source\PSoC4/RTC.h **** #define RTC__H2200 22
 111:Generated_Source\PSoC4/RTC.h **** #define RTC__H2300 23
 112:Generated_Source\PSoC4/RTC.h **** 
 113:Generated_Source\PSoC4/RTC.h **** /* DST DayOfWeek setting constants */
 114:Generated_Source\PSoC4/RTC.h **** #define RTC__SUNDAY 1
 115:Generated_Source\PSoC4/RTC.h **** #define RTC__MONDAY 2
 116:Generated_Source\PSoC4/RTC.h **** #define RTC__TUESDAY 3
 117:Generated_Source\PSoC4/RTC.h **** #define RTC__WEDNESDAY 4
 118:Generated_Source\PSoC4/RTC.h **** #define RTC__THURSDAY 5
 119:Generated_Source\PSoC4/RTC.h **** #define RTC__FRIDAY 6
 120:Generated_Source\PSoC4/RTC.h **** #define RTC__SATURDAY 7
 121:Generated_Source\PSoC4/RTC.h **** 
 122:Generated_Source\PSoC4/RTC.h **** /* DST Month setting constants */
 123:Generated_Source\PSoC4/RTC.h **** #define RTC__JAN 1
 124:Generated_Source\PSoC4/RTC.h **** #define RTC__FEB 2
 125:Generated_Source\PSoC4/RTC.h **** #define RTC__MAR 3
 126:Generated_Source\PSoC4/RTC.h **** #define RTC__APR 4
 127:Generated_Source\PSoC4/RTC.h **** #define RTC__MAY 5
 128:Generated_Source\PSoC4/RTC.h **** #define RTC__JUN 6
 129:Generated_Source\PSoC4/RTC.h **** #define RTC__JUL 7
 130:Generated_Source\PSoC4/RTC.h **** #define RTC__AUG 8
 131:Generated_Source\PSoC4/RTC.h **** #define RTC__SEP 9
 132:Generated_Source\PSoC4/RTC.h **** #define RTC__OCT 10
 133:Generated_Source\PSoC4/RTC.h **** #define RTC__NOV 11
 134:Generated_Source\PSoC4/RTC.h **** #define RTC__DEC 12
 135:Generated_Source\PSoC4/RTC.h **** 
 136:Generated_Source\PSoC4/RTC.h **** /* DST WeekOfMonth setting constants */
 137:Generated_Source\PSoC4/RTC.h **** #define RTC__FIRST 1
 138:Generated_Source\PSoC4/RTC.h **** #define RTC__SECOND 2
 139:Generated_Source\PSoC4/RTC.h **** #define RTC__THIRD 3
 140:Generated_Source\PSoC4/RTC.h **** #define RTC__FOURTH 4
 141:Generated_Source\PSoC4/RTC.h **** #define RTC__FIFTH 5
 142:Generated_Source\PSoC4/RTC.h **** #define RTC__LAST 6
 143:Generated_Source\PSoC4/RTC.h **** 
 144:Generated_Source\PSoC4/RTC.h **** 
ARM GAS  C:\Users\Petro\AppData\Local\Temp\cc4bDtSi.s 			page 4


 145:Generated_Source\PSoC4/RTC.h **** #define RTC_INITIAL_DATA_FORMAT     (0u)
 146:Generated_Source\PSoC4/RTC.h **** #define RTC_INITIAL_TIME_FORMAT     (0u)
 147:Generated_Source\PSoC4/RTC.h **** #define RTC_INITIAL_UPDATE_MODE     (0u)
 148:Generated_Source\PSoC4/RTC.h **** #define RTC_INITIAL_SECOND          (0u)
 149:Generated_Source\PSoC4/RTC.h **** #define RTC_INITIAL_MINUTE          (16u)
 150:Generated_Source\PSoC4/RTC.h **** #define RTC_INITIAL_HOUR            (10u)
 151:Generated_Source\PSoC4/RTC.h **** #define RTC_INITIAL_DAY             (9u)
 152:Generated_Source\PSoC4/RTC.h **** #define RTC_INITIAL_MONTH           (8u)
 153:Generated_Source\PSoC4/RTC.h **** #define RTC_INITIAL_YEAR            (2016u)
 154:Generated_Source\PSoC4/RTC.h **** 
 155:Generated_Source\PSoC4/RTC.h **** #define RTC_INITIAL_ALARM_STATUS    (0u)
 156:Generated_Source\PSoC4/RTC.h **** 
 157:Generated_Source\PSoC4/RTC.h **** #define RTC_INITIAL_DST_STATUS      (0u)
 158:Generated_Source\PSoC4/RTC.h **** #define RTC_INITIAL_DST_DATE_TYPE   (0u)
 159:Generated_Source\PSoC4/RTC.h **** #define RTC_INITIAL_DST_START_MONTH (3uL)
 160:Generated_Source\PSoC4/RTC.h **** #define RTC_INITIAL_DST_START_WOM   (6uL)
 161:Generated_Source\PSoC4/RTC.h **** #define RTC_INITIAL_DST_START_DOM   (22uL)
 162:Generated_Source\PSoC4/RTC.h **** #define RTC_INITIAL_DST_START_DOW   (1uL)
 163:Generated_Source\PSoC4/RTC.h **** #define RTC_INITIAL_DST_START_HRS   (0uL)
 164:Generated_Source\PSoC4/RTC.h **** #define RTC_INITIAL_DST_STOP_MONTH  (10uL)
 165:Generated_Source\PSoC4/RTC.h **** #define RTC_INITIAL_DST_STOP_DOM    (22uL)
 166:Generated_Source\PSoC4/RTC.h **** #define RTC_INITIAL_DST_STOP_DOW    (1uL)
 167:Generated_Source\PSoC4/RTC.h **** #define RTC_INITIAL_DST_STOP_WOM    (6uL)
 168:Generated_Source\PSoC4/RTC.h **** #define RTC_INITIAL_DST_STOP_HRS    (0uL)
 169:Generated_Source\PSoC4/RTC.h **** 
 170:Generated_Source\PSoC4/RTC.h **** /**
 171:Generated_Source\PSoC4/RTC.h **** * \addtogroup group_constants
 172:Generated_Source\PSoC4/RTC.h **** * \{
 173:Generated_Source\PSoC4/RTC.h **** */
 174:Generated_Source\PSoC4/RTC.h **** 
 175:Generated_Source\PSoC4/RTC.h **** /**
 176:Generated_Source\PSoC4/RTC.h **** * \defgroup group_rtc_day_of_the_week Day of the week definitions
 177:Generated_Source\PSoC4/RTC.h **** * \{
 178:Generated_Source\PSoC4/RTC.h **** * Definitions of days in the week
 179:Generated_Source\PSoC4/RTC.h **** */
 180:Generated_Source\PSoC4/RTC.h **** #define RTC_SUNDAY     (RTC__SUNDAY)       /**< Sequential number of Sunday in the week */
 181:Generated_Source\PSoC4/RTC.h **** #define RTC_MONDAY     (RTC__MONDAY)       /**< Sequential number of Monday in the week */
 182:Generated_Source\PSoC4/RTC.h **** #define RTC_TUESDAY    (RTC__TUESDAY)      /**< Sequential number of Tuesday in the week */
 183:Generated_Source\PSoC4/RTC.h **** #define RTC_WEDNESDAY  (RTC__WEDNESDAY)    /**< Sequential number of Wednesday in the week */
 184:Generated_Source\PSoC4/RTC.h **** #define RTC_THURSDAY   (RTC__THURSDAY)     /**< Sequential number of Thursday in the week */
 185:Generated_Source\PSoC4/RTC.h **** #define RTC_FRIDAY     (RTC__FRIDAY)       /**< Sequential number of Friday in the week */
 186:Generated_Source\PSoC4/RTC.h **** #define RTC_SATURDAY   (RTC__SATURDAY)     /**< Sequential number of Saturday in the week */
 187:Generated_Source\PSoC4/RTC.h **** /** \} group_rtc_day_of_the_week */
 188:Generated_Source\PSoC4/RTC.h **** 
 189:Generated_Source\PSoC4/RTC.h **** /**
 190:Generated_Source\PSoC4/RTC.h **** * \defgroup group_rtc_dst_week_of_month DST Week of month setting constants definitions
 191:Generated_Source\PSoC4/RTC.h **** * \{
 192:Generated_Source\PSoC4/RTC.h **** * Week of month setting constants definitions for Daylight Saving Time feature
 193:Generated_Source\PSoC4/RTC.h **** */
 194:Generated_Source\PSoC4/RTC.h **** #define RTC_FIRST      (RTC__FIRST)   /**< First week in the month */
 195:Generated_Source\PSoC4/RTC.h **** #define RTC_SECOND     (RTC__SECOND)  /**< Second week in the month  */
 196:Generated_Source\PSoC4/RTC.h **** #define RTC_THIRD      (RTC__THIRD)   /**< Third week in the month  */
 197:Generated_Source\PSoC4/RTC.h **** #define RTC_FOURTH     (RTC__FOURTH)  /**< Fourth week in the month  */
 198:Generated_Source\PSoC4/RTC.h **** #define RTC_FIFTH      (RTC__FIFTH)   /**< Fifth week in the month  */
 199:Generated_Source\PSoC4/RTC.h **** #define RTC_LAST       (RTC__LAST)    /**< Last week in the month  */
 200:Generated_Source\PSoC4/RTC.h **** /** \} group_rtc_dst_week_of_month */
 201:Generated_Source\PSoC4/RTC.h **** 
ARM GAS  C:\Users\Petro\AppData\Local\Temp\cc4bDtSi.s 			page 5


 202:Generated_Source\PSoC4/RTC.h **** /**
 203:Generated_Source\PSoC4/RTC.h **** * \defgroup group_rtc_month Month definitions
 204:Generated_Source\PSoC4/RTC.h **** * \{
 205:Generated_Source\PSoC4/RTC.h **** * Constants definition for Months
 206:Generated_Source\PSoC4/RTC.h **** */
 207:Generated_Source\PSoC4/RTC.h **** #define RTC_JANUARY    (RTC__JAN)    /**< Sequential number of January in the year */
 208:Generated_Source\PSoC4/RTC.h **** #define RTC_FEBRUARY   (RTC__FEB)    /**< Sequential number of February in the year */
 209:Generated_Source\PSoC4/RTC.h **** #define RTC_MARCH      (RTC__MAR)    /**< Sequential number of March in the year */
 210:Generated_Source\PSoC4/RTC.h **** #define RTC_APRIL      (RTC__APR)    /**< Sequential number of April in the year */
 211:Generated_Source\PSoC4/RTC.h **** #define RTC_MAY        (RTC__MAY)    /**< Sequential number of May in the year */
 212:Generated_Source\PSoC4/RTC.h **** #define RTC_JUNE       (RTC__JUN)    /**< Sequential number of June in the year */
 213:Generated_Source\PSoC4/RTC.h **** #define RTC_JULY       (RTC__JUL)    /**< Sequential number of July in the year */
 214:Generated_Source\PSoC4/RTC.h **** #define RTC_AUGUST     (RTC__AUG)    /**< Sequential number of August in the year */
 215:Generated_Source\PSoC4/RTC.h **** #define RTC_SEPTEMBER  (RTC__SEP)    /**< Sequential number of September in the year */
 216:Generated_Source\PSoC4/RTC.h **** #define RTC_OCTOBER    (RTC__OCT)    /**< Sequential number of October in the year */
 217:Generated_Source\PSoC4/RTC.h **** #define RTC_NOVEMBER   (RTC__NOV)    /**< Sequential number of November in the year */
 218:Generated_Source\PSoC4/RTC.h **** #define RTC_DECEMBER   (RTC__DEC)    /**< Sequential number of December in the year */
 219:Generated_Source\PSoC4/RTC.h **** /** \} group_rtc_month */
 220:Generated_Source\PSoC4/RTC.h **** 
 221:Generated_Source\PSoC4/RTC.h **** /**
 222:Generated_Source\PSoC4/RTC.h **** * \defgroup group_rtc_am_pm AM/PM status definitions
 223:Generated_Source\PSoC4/RTC.h **** * \{
 224:Generated_Source\PSoC4/RTC.h **** * Definitions for 12 hour format for indicating the AM/PM period of day
 225:Generated_Source\PSoC4/RTC.h **** */
 226:Generated_Source\PSoC4/RTC.h **** #define RTC_AM                 (0u)    /**< AM period of day */
 227:Generated_Source\PSoC4/RTC.h **** #define RTC_PM                 (1u)    /**< PM period of day */
 228:Generated_Source\PSoC4/RTC.h **** /** \} group_rtc_am_pm */
 229:Generated_Source\PSoC4/RTC.h **** 
 230:Generated_Source\PSoC4/RTC.h **** /**
 231:Generated_Source\PSoC4/RTC.h **** * \defgroup group_rtc_hour_format Hour format definitions
 232:Generated_Source\PSoC4/RTC.h **** * \{
 233:Generated_Source\PSoC4/RTC.h **** * Definitions for hour format
 234:Generated_Source\PSoC4/RTC.h **** */
 235:Generated_Source\PSoC4/RTC.h **** #define RTC_12_HOURS_FORMAT    (RTC__HOUR_12) /**< The 24 hour format */
 236:Generated_Source\PSoC4/RTC.h **** #define RTC_24_HOURS_FORMAT    (RTC__HOUR_24) /**< The 12 hour (AM/PM) format */
 237:Generated_Source\PSoC4/RTC.h **** /** \} group_rtc_hour_format */
 238:Generated_Source\PSoC4/RTC.h **** 
 239:Generated_Source\PSoC4/RTC.h **** /**
 240:Generated_Source\PSoC4/RTC.h **** * \defgroup group_rtc_days_in_month Number of days in month definitions
 241:Generated_Source\PSoC4/RTC.h **** * \{
 242:Generated_Source\PSoC4/RTC.h **** * Definition of days in current month
 243:Generated_Source\PSoC4/RTC.h **** */
 244:Generated_Source\PSoC4/RTC.h **** #define RTC_DAYS_IN_JANUARY     (31u)    /**< Number of days in January  */
 245:Generated_Source\PSoC4/RTC.h **** #define RTC_DAYS_IN_FEBRUARY    (28u)    /**< Number of days in February */
 246:Generated_Source\PSoC4/RTC.h **** #define RTC_DAYS_IN_MARCH       (31u)    /**< Number of days in March */
 247:Generated_Source\PSoC4/RTC.h **** #define RTC_DAYS_IN_APRIL       (30u)    /**< Number of days in April */
 248:Generated_Source\PSoC4/RTC.h **** #define RTC_DAYS_IN_MAY         (31u)    /**< Number of days in May */
 249:Generated_Source\PSoC4/RTC.h **** #define RTC_DAYS_IN_JUNE        (30u)    /**< Number of days in June */
 250:Generated_Source\PSoC4/RTC.h **** #define RTC_DAYS_IN_JULY        (31u)    /**< Number of days in July */
 251:Generated_Source\PSoC4/RTC.h **** #define RTC_DAYS_IN_AUGUST      (31u)    /**< Number of days in August */
 252:Generated_Source\PSoC4/RTC.h **** #define RTC_DAYS_IN_SEPTEMBER   (30u)    /**< Number of days in September */
 253:Generated_Source\PSoC4/RTC.h **** #define RTC_DAYS_IN_OCTOBER     (31u)    /**< Number of days in October */
 254:Generated_Source\PSoC4/RTC.h **** #define RTC_DAYS_IN_NOVEMBER    (30u)    /**< Number of days in November */
 255:Generated_Source\PSoC4/RTC.h **** #define RTC_DAYS_IN_DECEMBER    (31u)    /**< Number of days in December */
 256:Generated_Source\PSoC4/RTC.h **** /** \} group_rtc_days_in_month */
 257:Generated_Source\PSoC4/RTC.h **** 
 258:Generated_Source\PSoC4/RTC.h **** /**
ARM GAS  C:\Users\Petro\AppData\Local\Temp\cc4bDtSi.s 			page 6


 259:Generated_Source\PSoC4/RTC.h **** * \defgroup group_rtc_status Definitions of the RTC status values
 260:Generated_Source\PSoC4/RTC.h **** * \{
 261:Generated_Source\PSoC4/RTC.h **** * Definitions for status software register, which has flags for DST (DST),
 262:Generated_Source\PSoC4/RTC.h **** * Leap Year (LY), AM/PM (AM_PM).
 263:Generated_Source\PSoC4/RTC.h **** */
 264:Generated_Source\PSoC4/RTC.h **** 
 265:Generated_Source\PSoC4/RTC.h **** /** Status of Daylight Saving Time. This bit
 266:Generated_Source\PSoC4/RTC.h **** * goes high when the current time and date match the DST time and date and the 
 267:Generated_Source\PSoC4/RTC.h **** * time is incremented. This bit goes low after the DST interval and the time is 
 268:Generated_Source\PSoC4/RTC.h **** * decremented.
 269:Generated_Source\PSoC4/RTC.h **** */
 270:Generated_Source\PSoC4/RTC.h **** #define RTC_STATUS_DST     (1uL << RTC_STATUS_DST_OFFSET)
 271:Generated_Source\PSoC4/RTC.h **** 
 272:Generated_Source\PSoC4/RTC.h **** /** Status of Leap Year. This bit goes high when the current year is a leap year */
 273:Generated_Source\PSoC4/RTC.h **** #define RTC_STATUS_LY      (1uL << RTC_STATUS_LY_OFFSET)
 274:Generated_Source\PSoC4/RTC.h **** 
 275:Generated_Source\PSoC4/RTC.h **** /** Status of Current Time. This bit is low from midnight to noon and high from 
 276:Generated_Source\PSoC4/RTC.h **** *  noon to midnight. */
 277:Generated_Source\PSoC4/RTC.h **** #define RTC_STATUS_AM_PM   (1uL << RTC_STATUS_AM_PM_OFFSET)
 278:Generated_Source\PSoC4/RTC.h **** /** \} group_rtc_status */
 279:Generated_Source\PSoC4/RTC.h **** 
 280:Generated_Source\PSoC4/RTC.h **** /**
 281:Generated_Source\PSoC4/RTC.h **** * \defgroup group_rtc_alarm_mask Definitions for Alarm Mask software register
 282:Generated_Source\PSoC4/RTC.h **** * \{
 283:Generated_Source\PSoC4/RTC.h **** * Definitions for Alarm Mask software register. These masks allow 
 284:Generated_Source\PSoC4/RTC.h **** * matching the alarm value register with the current value register.
 285:Generated_Source\PSoC4/RTC.h **** */
 286:Generated_Source\PSoC4/RTC.h **** 
 287:Generated_Source\PSoC4/RTC.h **** /** The second alarm mask allows matching the alarm second register with the 
 288:Generated_Source\PSoC4/RTC.h **** *   current second register.
 289:Generated_Source\PSoC4/RTC.h **** */
 290:Generated_Source\PSoC4/RTC.h **** #define RTC_ALARM_SEC_MASK         (0x00000001uL)
 291:Generated_Source\PSoC4/RTC.h **** 
 292:Generated_Source\PSoC4/RTC.h **** /** The minute alarm mask allows matching the alarm minute register with the 
 293:Generated_Source\PSoC4/RTC.h **** *   current minute register.
 294:Generated_Source\PSoC4/RTC.h **** */
 295:Generated_Source\PSoC4/RTC.h **** #define RTC_ALARM_MIN_MASK         (0x00000002uL)
 296:Generated_Source\PSoC4/RTC.h **** 
 297:Generated_Source\PSoC4/RTC.h **** /** The hour alarm mask allows matching the alarm hour register with the 
 298:Generated_Source\PSoC4/RTC.h **** *   current hour register.
 299:Generated_Source\PSoC4/RTC.h **** */
 300:Generated_Source\PSoC4/RTC.h **** #define RTC_ALARM_HOUR_MASK        (0x00000004uL)
 301:Generated_Source\PSoC4/RTC.h **** 
 302:Generated_Source\PSoC4/RTC.h **** /** The day of the week alarm mask allows matching the alarm hour register with 
 303:Generated_Source\PSoC4/RTC.h **** *   the current day of the week register.
 304:Generated_Source\PSoC4/RTC.h **** */
 305:Generated_Source\PSoC4/RTC.h **** #define RTC_ALARM_DAYOFWEEK_MASK   (0x00000008uL)
 306:Generated_Source\PSoC4/RTC.h **** 
 307:Generated_Source\PSoC4/RTC.h **** /** The day of the Month alarm mask allows matching the alarm hour register with 
 308:Generated_Source\PSoC4/RTC.h **** *   the current day of the Month register.
 309:Generated_Source\PSoC4/RTC.h **** */
 310:Generated_Source\PSoC4/RTC.h **** #define RTC_ALARM_DAYOFMONTH_MASK  (0x00000010uL)
 311:Generated_Source\PSoC4/RTC.h **** 
 312:Generated_Source\PSoC4/RTC.h **** /** The month alarm mask allows matching the alarm hour register with the
 313:Generated_Source\PSoC4/RTC.h **** *   current month register.
 314:Generated_Source\PSoC4/RTC.h **** */
 315:Generated_Source\PSoC4/RTC.h **** #define RTC_ALARM_MONTH_MASK       (0x00000020uL)
ARM GAS  C:\Users\Petro\AppData\Local\Temp\cc4bDtSi.s 			page 7


 316:Generated_Source\PSoC4/RTC.h **** 
 317:Generated_Source\PSoC4/RTC.h **** /** The year alarm mask allows matching the alarm hour register with the
 318:Generated_Source\PSoC4/RTC.h **** *   current year register.
 319:Generated_Source\PSoC4/RTC.h **** */
 320:Generated_Source\PSoC4/RTC.h **** #define RTC_ALARM_YEAR_MASK        (0x00000040uL)
 321:Generated_Source\PSoC4/RTC.h **** 
 322:Generated_Source\PSoC4/RTC.h **** /** \} group_rtc_alarm_mask */
 323:Generated_Source\PSoC4/RTC.h **** /** \} group_constants */
 324:Generated_Source\PSoC4/RTC.h **** 
 325:Generated_Source\PSoC4/RTC.h **** #define RTC_DAYS_PER_WEEK       (7u)
 326:Generated_Source\PSoC4/RTC.h **** 
 327:Generated_Source\PSoC4/RTC.h **** #define RTC_MONTHS_PER_YEAR     (12uL)
 328:Generated_Source\PSoC4/RTC.h **** 
 329:Generated_Source\PSoC4/RTC.h **** #define RTC_HOURS_PER_DAY       (24uL)
 330:Generated_Source\PSoC4/RTC.h **** #define RTC_HOURS_PER_HALF_DAY  (12uL)
 331:Generated_Source\PSoC4/RTC.h **** 
 332:Generated_Source\PSoC4/RTC.h **** #define RTC_SECONDS_PER_MINUTE  (60uL)
 333:Generated_Source\PSoC4/RTC.h **** #define RTC_SECONDS_PER_HOUR    (3600uL)
 334:Generated_Source\PSoC4/RTC.h **** #define RTC_SECONDS_PER_DAY     (24uL * 3600uL)
 335:Generated_Source\PSoC4/RTC.h **** 
 336:Generated_Source\PSoC4/RTC.h **** #define RTC_SECONDS_PER_LEAP_YEAR    (366uL * 24uL * 3600uL)
 337:Generated_Source\PSoC4/RTC.h **** #define RTC_SECONDS_PER_NONLEAP_YEAR (365uL * 24uL * 3600uL)
 338:Generated_Source\PSoC4/RTC.h **** 
 339:Generated_Source\PSoC4/RTC.h **** #define RTC_UNIX_TIME_PM        ((12uL * 3600uL) + 1uL)
 340:Generated_Source\PSoC4/RTC.h **** 
 341:Generated_Source\PSoC4/RTC.h **** /* Unix time begins in 1970 year */
 342:Generated_Source\PSoC4/RTC.h **** #define RTC_YEAR_0             (1970u)
 343:Generated_Source\PSoC4/RTC.h **** 
 344:Generated_Source\PSoC4/RTC.h **** /* Definition of date register fields */
 345:Generated_Source\PSoC4/RTC.h **** #if(RTC_INITIAL_DATA_FORMAT == RTC__MM_DD_YYYY)
 346:Generated_Source\PSoC4/RTC.h ****     #define RTC_10_MONTH_OFFSET   (28u)
 347:Generated_Source\PSoC4/RTC.h ****     #define RTC_MONTH_OFFSET      (24u)
 348:Generated_Source\PSoC4/RTC.h ****     #define RTC_10_DAY_OFFSET     (20u)
 349:Generated_Source\PSoC4/RTC.h ****     #define RTC_DAY_OFFSET        (16u)
 350:Generated_Source\PSoC4/RTC.h ****     #define RTC_1000_YEAR_OFFSET  (12u)
 351:Generated_Source\PSoC4/RTC.h ****     #define RTC_100_YEAR_OFFSET   (8u)
 352:Generated_Source\PSoC4/RTC.h ****     #define RTC_10_YEAR_OFFSET    (4u)
 353:Generated_Source\PSoC4/RTC.h ****     #define RTC_YEAR_OFFSET       (0u)
 354:Generated_Source\PSoC4/RTC.h **** #elif(RTC_INITIAL_DATA_FORMAT == RTC__DD_MM_YYYY)
 355:Generated_Source\PSoC4/RTC.h ****     #define RTC_10_MONTH_OFFSET   (20u)
 356:Generated_Source\PSoC4/RTC.h ****     #define RTC_MONTH_OFFSET      (16u)
 357:Generated_Source\PSoC4/RTC.h ****     #define RTC_10_DAY_OFFSET     (28u)
 358:Generated_Source\PSoC4/RTC.h ****     #define RTC_DAY_OFFSET        (24u)
 359:Generated_Source\PSoC4/RTC.h ****     #define RTC_1000_YEAR_OFFSET  (12u)
 360:Generated_Source\PSoC4/RTC.h ****     #define RTC_100_YEAR_OFFSET   (8u)
 361:Generated_Source\PSoC4/RTC.h ****     #define RTC_10_YEAR_OFFSET    (4u)
 362:Generated_Source\PSoC4/RTC.h ****     #define RTC_YEAR_OFFSET       (0u)
 363:Generated_Source\PSoC4/RTC.h **** #else
 364:Generated_Source\PSoC4/RTC.h ****     #define RTC_10_MONTH_OFFSET   (12u)
 365:Generated_Source\PSoC4/RTC.h ****     #define RTC_MONTH_OFFSET      (8u)
 366:Generated_Source\PSoC4/RTC.h ****     #define RTC_10_DAY_OFFSET     (4u)
 367:Generated_Source\PSoC4/RTC.h ****     #define RTC_DAY_OFFSET        (0u)
 368:Generated_Source\PSoC4/RTC.h ****     #define RTC_1000_YEAR_OFFSET  (28u)
 369:Generated_Source\PSoC4/RTC.h ****     #define RTC_100_YEAR_OFFSET   (24u)
 370:Generated_Source\PSoC4/RTC.h ****     #define RTC_10_YEAR_OFFSET    (20u)
 371:Generated_Source\PSoC4/RTC.h ****     #define RTC_YEAR_OFFSET       (16u)
 372:Generated_Source\PSoC4/RTC.h **** #endif /* (RTC_INITIAL_DATA_FORMAT == RTC__MM_DD_YYYY) */
ARM GAS  C:\Users\Petro\AppData\Local\Temp\cc4bDtSi.s 			page 8


 373:Generated_Source\PSoC4/RTC.h **** 
 374:Generated_Source\PSoC4/RTC.h **** #define RTC_10_MONTH_MASK          (0x00000001uL << RTC_10_MONTH_OFFSET)
 375:Generated_Source\PSoC4/RTC.h **** #define RTC_MONTH_MASK             (0x0000000FuL << RTC_MONTH_OFFSET)
 376:Generated_Source\PSoC4/RTC.h **** #define RTC_10_DAY_MASK            (0x00000003uL << RTC_10_DAY_OFFSET)
 377:Generated_Source\PSoC4/RTC.h **** #define RTC_DAY_MASK               (0x0000000FuL << RTC_DAY_OFFSET)
 378:Generated_Source\PSoC4/RTC.h **** #define RTC_1000_YEAR_MASK         (0x00000003uL << RTC_1000_YEAR_OFFSET)
 379:Generated_Source\PSoC4/RTC.h **** #define RTC_100_YEAR_MASK          (0x0000000FuL << RTC_100_YEAR_OFFSET)
 380:Generated_Source\PSoC4/RTC.h **** #define RTC_10_YEAR_MASK           (0x0000000FuL << RTC_10_YEAR_OFFSET)
 381:Generated_Source\PSoC4/RTC.h **** #define RTC_YEAR_MASK              (0x0000000FuL << RTC_YEAR_OFFSET)
 382:Generated_Source\PSoC4/RTC.h **** 
 383:Generated_Source\PSoC4/RTC.h **** #define  RTC_MONTH_FULL_MASK       (RTC_10_MONTH_MASK  | RTC_MONTH_MASK)
 384:Generated_Source\PSoC4/RTC.h **** #define  RTC_DAY_FULL_MASK         (RTC_10_DAY_MASK    | RTC_DAY_MASK)
 385:Generated_Source\PSoC4/RTC.h **** #define  RTC_YEAR_FULL_MASK        (RTC_1000_YEAR_MASK | RTC_100_YEAR_MASK |\
 386:Generated_Source\PSoC4/RTC.h ****                                                  RTC_10_YEAR_MASK   | RTC_YEAR_MASK)
 387:Generated_Source\PSoC4/RTC.h **** 
 388:Generated_Source\PSoC4/RTC.h **** /* Definition of time register fields */
 389:Generated_Source\PSoC4/RTC.h **** #define RTC_TIME_FORMAT_OFFSET     (23u)
 390:Generated_Source\PSoC4/RTC.h **** #define RTC_PERIOD_OF_DAY_OFFSET   (22u)
 391:Generated_Source\PSoC4/RTC.h **** #define RTC_10_HOURS_OFFSET        (20u)
 392:Generated_Source\PSoC4/RTC.h **** #define RTC_HOURS_OFFSET           (16u)
 393:Generated_Source\PSoC4/RTC.h **** #define RTC_10_MINUTES_OFFSET      (12u)
 394:Generated_Source\PSoC4/RTC.h **** #define RTC_MINUTES_OFFSET         (8u)
 395:Generated_Source\PSoC4/RTC.h **** #define RTC_10_SECONDS_OFFSET      (4u)
 396:Generated_Source\PSoC4/RTC.h **** #define RTC_SECONDS_OFFSET         (0u)
 397:Generated_Source\PSoC4/RTC.h **** 
 398:Generated_Source\PSoC4/RTC.h **** #define RTC_TIME_FORMAT_MASK       (0x00000001uL << RTC_TIME_FORMAT_OFFSET)
 399:Generated_Source\PSoC4/RTC.h **** #define RTC_PERIOD_OF_DAY_MASK     (0x00000001uL << RTC_PERIOD_OF_DAY_OFFSET)
 400:Generated_Source\PSoC4/RTC.h **** #define RTC_10_HOURS_MASK          (0x00000003uL << RTC_10_HOURS_OFFSET)
 401:Generated_Source\PSoC4/RTC.h **** #define RTC_HOURS_MASK             (0x0000000FuL << RTC_HOURS_OFFSET)
 402:Generated_Source\PSoC4/RTC.h **** #define RTC_10_MINUTES_MASK        (0x00000007uL << RTC_10_MINUTES_OFFSET)
 403:Generated_Source\PSoC4/RTC.h **** #define RTC_MINUTES_MASK           (0x0000000FuL << RTC_MINUTES_OFFSET)
 404:Generated_Source\PSoC4/RTC.h **** #define RTC_10_SECONDS_MASK        (0x00000007uL << RTC_10_SECONDS_OFFSET)
 405:Generated_Source\PSoC4/RTC.h **** #define RTC_SECONDS_MASK           (0x0000000FuL << RTC_SECONDS_OFFSET)
 406:Generated_Source\PSoC4/RTC.h **** 
 407:Generated_Source\PSoC4/RTC.h **** #define RTC_HOURS_FULL_MASK        (RTC_10_HOURS_MASK   | RTC_HOURS_MASK)
 408:Generated_Source\PSoC4/RTC.h **** #define RTC_MINUTES_FULL_MASK      (RTC_10_MINUTES_MASK | RTC_MINUTES_MASK)
 409:Generated_Source\PSoC4/RTC.h **** #define RTC_SECONDS_FULL_MASK      (RTC_10_SECONDS_MASK | RTC_SECONDS_MASK)
 410:Generated_Source\PSoC4/RTC.h **** 
 411:Generated_Source\PSoC4/RTC.h **** #define RTC_STATUS_DST_OFFSET      (1u)
 412:Generated_Source\PSoC4/RTC.h **** #define RTC_STATUS_ALARM_OFFSET    (2u)
 413:Generated_Source\PSoC4/RTC.h **** #define RTC_STATUS_LY_OFFSET       (3u)
 414:Generated_Source\PSoC4/RTC.h **** #define RTC_STATUS_AM_PM_OFFSET    (4u)
 415:Generated_Source\PSoC4/RTC.h **** 
 416:Generated_Source\PSoC4/RTC.h **** /* Number of bits per one BCD digit */
 417:Generated_Source\PSoC4/RTC.h **** #define RTC_BCD_NUMBER_SIZE        (4u)
 418:Generated_Source\PSoC4/RTC.h **** #define RTC_BCD_ONE_DIGIT_MASK     (0x0000000FuL)
 419:Generated_Source\PSoC4/RTC.h **** 
 420:Generated_Source\PSoC4/RTC.h **** 
 421:Generated_Source\PSoC4/RTC.h **** /*******************************************************************************
 422:Generated_Source\PSoC4/RTC.h **** *    External Variables
 423:Generated_Source\PSoC4/RTC.h **** *******************************************************************************/
 424:Generated_Source\PSoC4/RTC.h **** /**
 425:Generated_Source\PSoC4/RTC.h **** * \addtogroup group_globals
 426:Generated_Source\PSoC4/RTC.h **** * \{
 427:Generated_Source\PSoC4/RTC.h **** */
 428:Generated_Source\PSoC4/RTC.h **** 
 429:Generated_Source\PSoC4/RTC.h **** /**
ARM GAS  C:\Users\Petro\AppData\Local\Temp\cc4bDtSi.s 			page 9


 430:Generated_Source\PSoC4/RTC.h **** * Indicates whether the RTC has been initialized; The variable is initialized to
 431:Generated_Source\PSoC4/RTC.h **** * 0 and set to 1 the first time RTC_Start() is called. This allows the component
 432:Generated_Source\PSoC4/RTC.h **** * to restart without reinitialization after the first call to the RTC_Start() 
 433:Generated_Source\PSoC4/RTC.h **** * routine.
 434:Generated_Source\PSoC4/RTC.h **** */
 435:Generated_Source\PSoC4/RTC.h **** extern uint8  RTC_initVar;
 436:Generated_Source\PSoC4/RTC.h **** 
 437:Generated_Source\PSoC4/RTC.h **** /** The DST start/stop status */
 438:Generated_Source\PSoC4/RTC.h **** extern uint8  RTC_dstStatus;
 439:Generated_Source\PSoC4/RTC.h **** 
 440:Generated_Source\PSoC4/RTC.h **** /**
 441:Generated_Source\PSoC4/RTC.h **** * The uint64 variable represents the standard Unix time (number of seconds 
 442:Generated_Source\PSoC4/RTC.h **** * elapsed from January 1, 1970 00:00 hours UTC) in 64-bit 
 443:Generated_Source\PSoC4/RTC.h **** */
 444:Generated_Source\PSoC4/RTC.h **** extern volatile uint64 RTC_unixTime;
 445:Generated_Source\PSoC4/RTC.h **** 
 446:Generated_Source\PSoC4/RTC.h **** /** The values for the time and date of the DST start */
 447:Generated_Source\PSoC4/RTC.h **** extern RTC_DST_TIME RTC_dstStartTime;
 448:Generated_Source\PSoC4/RTC.h **** 
 449:Generated_Source\PSoC4/RTC.h **** /** The values for the time and date of the DST stop */
 450:Generated_Source\PSoC4/RTC.h **** extern RTC_DST_TIME RTC_dstStopTime;
 451:Generated_Source\PSoC4/RTC.h **** 
 452:Generated_Source\PSoC4/RTC.h **** /**
 453:Generated_Source\PSoC4/RTC.h **** * The last updated time and date values are stored in this structure (update 
 454:Generated_Source\PSoC4/RTC.h **** * happens in Get time/date APIs)
 455:Generated_Source\PSoC4/RTC.h **** */
 456:Generated_Source\PSoC4/RTC.h **** extern RTC_DATE_TIME RTC_currentTimeDate;
 457:Generated_Source\PSoC4/RTC.h **** 
 458:Generated_Source\PSoC4/RTC.h **** /** The alarm time and date values are stored in this variable */
 459:Generated_Source\PSoC4/RTC.h **** extern RTC_DATE_TIME RTC_alarmCfgTimeDate;
 460:Generated_Source\PSoC4/RTC.h **** 
 461:Generated_Source\PSoC4/RTC.h **** /**
 462:Generated_Source\PSoC4/RTC.h **** * This variable is used to mask alarm events; mask seconds alarm, mask minutes 
 463:Generated_Source\PSoC4/RTC.h **** * alarm, and so on. It will have bit masks for each time item masking that item 
 464:Generated_Source\PSoC4/RTC.h **** * for alarm generation
 465:Generated_Source\PSoC4/RTC.h **** */
 466:Generated_Source\PSoC4/RTC.h **** extern uint32  RTC_alarmCfgMask;
 467:Generated_Source\PSoC4/RTC.h **** 
 468:Generated_Source\PSoC4/RTC.h **** /**
 469:Generated_Source\PSoC4/RTC.h **** * This variable is used to indicate current active alarm status per time item 
 470:Generated_Source\PSoC4/RTC.h **** * used in the alarm; whether seconds alarm is active, minute's alarm is active, 
 471:Generated_Source\PSoC4/RTC.h **** * and so on. It will have bit masks for each time item (seconds, minutes, hours,
 472:Generated_Source\PSoC4/RTC.h **** * day, and so on) showing the status
 473:Generated_Source\PSoC4/RTC.h **** */
 474:Generated_Source\PSoC4/RTC.h **** extern uint32 RTC_alarmCurStatus;
 475:Generated_Source\PSoC4/RTC.h **** 
 476:Generated_Source\PSoC4/RTC.h **** /** \} group_globals */
 477:Generated_Source\PSoC4/RTC.h **** 
 478:Generated_Source\PSoC4/RTC.h **** extern void (*RTC_alarmCallbackPtr)(void);
 479:Generated_Source\PSoC4/RTC.h **** 
 480:Generated_Source\PSoC4/RTC.h **** extern const uint16 RTC_daysBeforeMonthTbl[RTC_MONTHS_PER_YEAR];
 481:Generated_Source\PSoC4/RTC.h **** extern const uint8  RTC_daysInMonthTbl[RTC_MONTHS_PER_YEAR];
 482:Generated_Source\PSoC4/RTC.h **** 
 483:Generated_Source\PSoC4/RTC.h **** 
 484:Generated_Source\PSoC4/RTC.h **** /*******************************************************************************
 485:Generated_Source\PSoC4/RTC.h **** *    Function Prototypes
 486:Generated_Source\PSoC4/RTC.h **** *******************************************************************************/
ARM GAS  C:\Users\Petro\AppData\Local\Temp\cc4bDtSi.s 			page 10


 487:Generated_Source\PSoC4/RTC.h **** /**
 488:Generated_Source\PSoC4/RTC.h **** * \addtogroup group_general
 489:Generated_Source\PSoC4/RTC.h **** * \{
 490:Generated_Source\PSoC4/RTC.h **** */
 491:Generated_Source\PSoC4/RTC.h **** void   RTC_Start(void);
 492:Generated_Source\PSoC4/RTC.h **** void   RTC_Stop(void);
 493:Generated_Source\PSoC4/RTC.h **** void   RTC_Init(void);
 494:Generated_Source\PSoC4/RTC.h **** void   RTC_SetUnixTime(uint64 unixTime);
 495:Generated_Source\PSoC4/RTC.h **** uint64 RTC_GetUnixTime(void);
 496:Generated_Source\PSoC4/RTC.h **** void   RTC_SetPeriod(uint32 ticks, uint32 refOneSecTicks);
 497:Generated_Source\PSoC4/RTC.h **** uint32 RTC_GetPeriod(void);
 498:Generated_Source\PSoC4/RTC.h **** uint32 RTC_GetRefOneSec(void);
 499:Generated_Source\PSoC4/RTC.h **** void   RTC_SetDateAndTime(uint32 inputTime, uint32 inputDate);
 500:Generated_Source\PSoC4/RTC.h **** void   RTC_GetDateAndTime(RTC_DATE_TIME* dateTime);
 501:Generated_Source\PSoC4/RTC.h **** uint32 RTC_GetTime(void);
 502:Generated_Source\PSoC4/RTC.h **** uint32 RTC_GetDate(void);
 503:Generated_Source\PSoC4/RTC.h **** void   RTC_SetAlarmDateAndTime(const RTC_DATE_TIME* alarmTime);
 504:Generated_Source\PSoC4/RTC.h **** void   RTC_GetAlarmDateAndTime(RTC_DATE_TIME* alarmTimeDate);
 505:Generated_Source\PSoC4/RTC.h **** void   RTC_SetAlarmMask(uint32 mask);
 506:Generated_Source\PSoC4/RTC.h **** uint32 RTC_GetAlarmMask(void);
 507:Generated_Source\PSoC4/RTC.h **** uint32 RTC_ReadStatus(void);
 508:Generated_Source\PSoC4/RTC.h **** uint32 RTC_GetAlarmStatus(void);
 509:Generated_Source\PSoC4/RTC.h **** void   RTC_ClearAlarmStatus(void);
 510:Generated_Source\PSoC4/RTC.h **** void   RTC_SetDSTStartTime(const RTC_DST_TIME* dstStartTime,
 511:Generated_Source\PSoC4/RTC.h ****                                               RTC_DST_DATETYPE_ENUM type);
 512:Generated_Source\PSoC4/RTC.h **** void   RTC_SetDSTStopTime(const RTC_DST_TIME* dstStopTime,
 513:Generated_Source\PSoC4/RTC.h ****                                              RTC_DST_DATETYPE_ENUM type);
 514:Generated_Source\PSoC4/RTC.h **** uint32 RTC_ConvertBCDToDec(uint32 bcdNum);
 515:Generated_Source\PSoC4/RTC.h **** uint32 RTC_ConvertDecToBCD(uint32 decNum);
 516:Generated_Source\PSoC4/RTC.h **** void   RTC_Update(void);
 517:Generated_Source\PSoC4/RTC.h **** void*  RTC_SetAlarmHandler(void (*CallbackFunction)(void));
 518:Generated_Source\PSoC4/RTC.h **** 
 519:Generated_Source\PSoC4/RTC.h **** static uint32 RTC_ConstructDate(uint32 month, uint32 day, uint32 year);
 520:Generated_Source\PSoC4/RTC.h **** static uint32 RTC_ConstructTime(uint32 timeFormat, uint32 stateAmPm, uint32 hour, uint32 min, uint3
 521:Generated_Source\PSoC4/RTC.h **** /** \} group_general */
 522:Generated_Source\PSoC4/RTC.h **** 
 523:Generated_Source\PSoC4/RTC.h **** static uint32 RTC_GetTimeFormat(uint32 inputTime);
 524:Generated_Source\PSoC4/RTC.h **** static uint32 RTC_SetTimeFormat(uint32 inputTime, uint32 timeFormat);
 525:Generated_Source\PSoC4/RTC.h **** 
 526:Generated_Source\PSoC4/RTC.h **** /**
 527:Generated_Source\PSoC4/RTC.h **** * \addtogroup group_general
 528:Generated_Source\PSoC4/RTC.h **** * \{
 529:Generated_Source\PSoC4/RTC.h **** */
 530:Generated_Source\PSoC4/RTC.h **** static uint32 RTC_LeapYear(uint32 year);
 531:Generated_Source\PSoC4/RTC.h **** static uint32 RTC_IsBitSet(uint32 var, uint32 mask);
 532:Generated_Source\PSoC4/RTC.h **** static uint32 RTC_GetSecond(uint32 inputTime);
 533:Generated_Source\PSoC4/RTC.h **** static uint32 RTC_GetMinutes(uint32 inputTime);
 534:Generated_Source\PSoC4/RTC.h **** static uint32 RTC_GetHours(uint32 inputTime);
 535:Generated_Source\PSoC4/RTC.h **** static uint32 RTC_GetAmPm(uint32 inputTime);
 536:Generated_Source\PSoC4/RTC.h **** static uint32 RTC_GetDay(uint32 date);
 537:Generated_Source\PSoC4/RTC.h **** static uint32 RTC_GetMonth(uint32 date);
 538:Generated_Source\PSoC4/RTC.h **** static uint32 RTC_GetYear(uint32 date);
 539:Generated_Source\PSoC4/RTC.h **** /** \} group_general */
 540:Generated_Source\PSoC4/RTC.h **** 
 541:Generated_Source\PSoC4/RTC.h **** static uint32 RTC_SetSecond(uint32 inputTime, uint32 inputSecond);
 542:Generated_Source\PSoC4/RTC.h **** static uint32 RTC_SetMinutes(uint32 inputTime, uint32 inputMinute);
 543:Generated_Source\PSoC4/RTC.h **** static uint32 RTC_SetHours(uint32 inputTime, uint32 inputHours);
ARM GAS  C:\Users\Petro\AppData\Local\Temp\cc4bDtSi.s 			page 11


 544:Generated_Source\PSoC4/RTC.h **** static uint32 RTC_SetAmPm(uint32 inputTime, uint32 periodOfDay);
 545:Generated_Source\PSoC4/RTC.h **** static uint32 RTC_SetDay(uint32 inputDate, uint32 inputDay);
 546:Generated_Source\PSoC4/RTC.h **** static uint32 RTC_SetMonth(uint32 inputDate, uint32 inputMonth);
 547:Generated_Source\PSoC4/RTC.h **** static uint32 RTC_SetYear(uint32 inputDate, uint32 inputYear);
 548:Generated_Source\PSoC4/RTC.h **** 
 549:Generated_Source\PSoC4/RTC.h **** uint64 RTC_ConstructUnixAlarmTime(const RTC_DATE_TIME* alarmTime, uint8 alarmCfgMask);
 550:Generated_Source\PSoC4/RTC.h **** uint64 RTC_GetDstUnixTime(const RTC_DST_TIME* dstTime);
 551:Generated_Source\PSoC4/RTC.h **** uint64 RTC_GetNexAlarmTime(uint64 curUnixTime, uint8 alarmCfgMask);
 552:Generated_Source\PSoC4/RTC.h **** 
 553:Generated_Source\PSoC4/RTC.h **** static uint32 RTC_GetNextMinSec(uint32 curVal);
 554:Generated_Source\PSoC4/RTC.h **** static uint32 RTC_GetNextHour(uint32 curVal);
 555:Generated_Source\PSoC4/RTC.h **** static uint32 RTC_GetNextDay(uint32 curYear, uint32 curMonth, uint32 curDay, uint32 alarmCfgMask);
 556:Generated_Source\PSoC4/RTC.h **** static uint32 RTC_GetNextMonth(uint32 curMonth);
 557:Generated_Source\PSoC4/RTC.h **** static uint32 RTC_GetNextYear(uint32 curYear);
 558:Generated_Source\PSoC4/RTC.h **** static uint32 RTC_GetDayOfWeek(uint32 day, uint32 month, uint32 year);
 559:Generated_Source\PSoC4/RTC.h **** static uint32 RTC_DaysBeforeMonth(uint32 month, uint32 year);
 560:Generated_Source\PSoC4/RTC.h **** 
 561:Generated_Source\PSoC4/RTC.h **** uint32 RTC_DaysInMonth(uint32 month, uint32 year);
 562:Generated_Source\PSoC4/RTC.h **** 
 563:Generated_Source\PSoC4/RTC.h **** /**
 564:Generated_Source\PSoC4/RTC.h **** * \addtogroup group_general
 565:Generated_Source\PSoC4/RTC.h **** * \{
 566:Generated_Source\PSoC4/RTC.h **** */
 567:Generated_Source\PSoC4/RTC.h **** void   RTC_UnixToDateTime(RTC_DATE_TIME* dateTime, uint64 unixTime, uint32 timeFormat);
 568:Generated_Source\PSoC4/RTC.h **** uint64 RTC_DateTimeToUnix(uint32 inputDate, uint32 inputTime);
 569:Generated_Source\PSoC4/RTC.h **** 
 570:Generated_Source\PSoC4/RTC.h **** #if defined(CYDEV_RTC_SOURCE_WDT)
 571:Generated_Source\PSoC4/RTC.h ****     #if((0u != CYDEV_WDT_GENERATE_ISR) && (0u == RTC_INITIAL_UPDATE_MODE))
 572:Generated_Source\PSoC4/RTC.h ****         static void RTC_CySysRtcSetCallback(uint32 wdtNumber);
 573:Generated_Source\PSoC4/RTC.h ****         static void RTC_CySysRtcResetCallback(uint32 wdtNumber);
 574:Generated_Source\PSoC4/RTC.h ****     #endif /* ((0u != CYDEV_WDT_GENERATE_ISR) && (0u == RTC_INITIAL_UPDATE_MODE)) */
 575:Generated_Source\PSoC4/RTC.h **** #endif /* (CYDEV_RTC_SOURCE_WDT) */
 576:Generated_Source\PSoC4/RTC.h **** 
 577:Generated_Source\PSoC4/RTC.h **** /** \} group_general */
 578:Generated_Source\PSoC4/RTC.h **** 
 579:Generated_Source\PSoC4/RTC.h **** uint32 RTC_RelativeToFixed(uint32 dayOfWeek, uint32 weekOfMonth, uint32 month, uint32 year);
 580:Generated_Source\PSoC4/RTC.h **** 
 581:Generated_Source\PSoC4/RTC.h **** 
 582:Generated_Source\PSoC4/RTC.h **** 
 583:Generated_Source\PSoC4/RTC.h **** /*******************************************************************************
 584:Generated_Source\PSoC4/RTC.h **** * Function Name: RTC_IsBitSet
 585:Generated_Source\PSoC4/RTC.h **** ****************************************************************************//**
 586:Generated_Source\PSoC4/RTC.h **** *
 587:Generated_Source\PSoC4/RTC.h **** * Checks the state of a bit passed through parameter.
 588:Generated_Source\PSoC4/RTC.h **** *
 589:Generated_Source\PSoC4/RTC.h **** * \param var
 590:Generated_Source\PSoC4/RTC.h **** * The variable to be checked.
 591:Generated_Source\PSoC4/RTC.h **** *
 592:Generated_Source\PSoC4/RTC.h **** * \param mask
 593:Generated_Source\PSoC4/RTC.h **** * The mask for a bit to be checked.
 594:Generated_Source\PSoC4/RTC.h **** *
 595:Generated_Source\PSoC4/RTC.h **** * \return
 596:Generated_Source\PSoC4/RTC.h **** *  0u - Bit is not set. <br> 1u - Bit is set.
 597:Generated_Source\PSoC4/RTC.h **** *
 598:Generated_Source\PSoC4/RTC.h **** *******************************************************************************/
 599:Generated_Source\PSoC4/RTC.h **** static CY_INLINE uint32 RTC_IsBitSet(uint32 var, uint32 mask)
 600:Generated_Source\PSoC4/RTC.h **** {
ARM GAS  C:\Users\Petro\AppData\Local\Temp\cc4bDtSi.s 			page 12


 601:Generated_Source\PSoC4/RTC.h ****     return ((mask == (var & mask)) ? 1Lu : 0Lu);
 602:Generated_Source\PSoC4/RTC.h **** }
 603:Generated_Source\PSoC4/RTC.h **** 
 604:Generated_Source\PSoC4/RTC.h **** 
 605:Generated_Source\PSoC4/RTC.h **** /*******************************************************************************
 606:Generated_Source\PSoC4/RTC.h **** * Function Name: RTC_LeapYear
 607:Generated_Source\PSoC4/RTC.h **** ****************************************************************************//**
 608:Generated_Source\PSoC4/RTC.h **** *
 609:Generated_Source\PSoC4/RTC.h **** * Checks whether the year passed through the parameter is leap or no.
 610:Generated_Source\PSoC4/RTC.h **** *
 611:Generated_Source\PSoC4/RTC.h **** * \param year
 612:Generated_Source\PSoC4/RTC.h **** * The year to be checked.
 613:Generated_Source\PSoC4/RTC.h **** *
 614:Generated_Source\PSoC4/RTC.h **** * \return
 615:Generated_Source\PSoC4/RTC.h **** * 0u - The year is not leap <br> 1u - The year is leap.
 616:Generated_Source\PSoC4/RTC.h **** *
 617:Generated_Source\PSoC4/RTC.h **** *******************************************************************************/
 618:Generated_Source\PSoC4/RTC.h **** static CY_INLINE uint32 RTC_LeapYear(uint32 year)
 619:Generated_Source\PSoC4/RTC.h **** {
  28              		.loc 1 619 0
  29              		.cfi_startproc
  30              		@ args = 0, pretend = 0, frame = 0
  31              		@ frame_needed = 0, uses_anonymous_args = 0
  32              	.LVL0:
  33 0000 10B5     		push	{r4, lr}
  34              		.cfi_def_cfa_offset 8
  35              		.cfi_offset 4, -8
  36              		.cfi_offset 14, -4
  37              		.loc 1 619 0
  38 0002 0400     		movs	r4, r0
 620:Generated_Source\PSoC4/RTC.h ****     uint32 retVal;
 621:Generated_Source\PSoC4/RTC.h **** 
 622:Generated_Source\PSoC4/RTC.h ****     if(((0u == (year % 4Lu)) && (0u != (year % 100Lu))) || (0u == (year % 400Lu)))
  39              		.loc 1 622 0
  40 0004 8307     		lsls	r3, r0, #30
  41 0006 05D1     		bne	.L2
  42              		.loc 1 622 0 is_stmt 0 discriminator 1
  43 0008 6421     		movs	r1, #100
  44 000a FFF7FEFF 		bl	__aeabi_uidivmod
  45              	.LVL1:
 623:Generated_Source\PSoC4/RTC.h ****     {
 624:Generated_Source\PSoC4/RTC.h ****         retVal = 1uL;
  46              		.loc 1 624 0 is_stmt 1 discriminator 1
  47 000e 0120     		movs	r0, #1
 622:Generated_Source\PSoC4/RTC.h ****     {
  48              		.loc 1 622 0 discriminator 1
  49 0010 0029     		cmp	r1, #0
  50 0012 06D1     		bne	.L3
  51              	.L2:
  52              		.loc 1 624 0 discriminator 3
  53 0014 C821     		movs	r1, #200
  54 0016 2000     		movs	r0, r4
  55 0018 4900     		lsls	r1, r1, #1
  56 001a FFF7FEFF 		bl	__aeabi_uidivmod
  57              	.LVL2:
  58 001e 4842     		rsbs	r0, r1, #0
  59 0020 4841     		adcs	r0, r0, r1
ARM GAS  C:\Users\Petro\AppData\Local\Temp\cc4bDtSi.s 			page 13


  60              	.L3:
  61              	.LVL3:
 625:Generated_Source\PSoC4/RTC.h ****     }
 626:Generated_Source\PSoC4/RTC.h ****     else
 627:Generated_Source\PSoC4/RTC.h ****     {
 628:Generated_Source\PSoC4/RTC.h ****         retVal = 0uL;
 629:Generated_Source\PSoC4/RTC.h ****     }
 630:Generated_Source\PSoC4/RTC.h **** 
 631:Generated_Source\PSoC4/RTC.h ****     return(retVal);
 632:Generated_Source\PSoC4/RTC.h **** }
  62              		.loc 1 632 0
  63              		@ sp needed
  64              	.LVL4:
  65 0022 10BD     		pop	{r4, pc}
  66              		.cfi_endproc
  67              	.LFE3:
  68              		.size	RTC_LeapYear, .-RTC_LeapYear
  69              		.section	.text.RTC_GetYear,"ax",%progbits
  70              		.align	1
  71              		.code	16
  72              		.thumb_func
  73              		.type	RTC_GetYear, %function
  74              	RTC_GetYear:
  75              	.LFB10:
 633:Generated_Source\PSoC4/RTC.h **** 
 634:Generated_Source\PSoC4/RTC.h **** 
 635:Generated_Source\PSoC4/RTC.h **** /*******************************************************************************
 636:Generated_Source\PSoC4/RTC.h **** * Function Name: RTC_GetSecond
 637:Generated_Source\PSoC4/RTC.h **** ****************************************************************************//**
 638:Generated_Source\PSoC4/RTC.h **** *
 639:Generated_Source\PSoC4/RTC.h **** * Returns the seconds value from the time value that is passed as a/the 
 640:Generated_Source\PSoC4/RTC.h **** * parameter.
 641:Generated_Source\PSoC4/RTC.h **** *
 642:Generated_Source\PSoC4/RTC.h **** * \param inputTime
 643:Generated_Source\PSoC4/RTC.h **** * The time value.
 644:Generated_Source\PSoC4/RTC.h **** *
 645:Generated_Source\PSoC4/RTC.h **** * \return
 646:Generated_Source\PSoC4/RTC.h **** * The seconds value.
 647:Generated_Source\PSoC4/RTC.h **** *
 648:Generated_Source\PSoC4/RTC.h **** *******************************************************************************/
 649:Generated_Source\PSoC4/RTC.h **** static CY_INLINE uint32 RTC_GetSecond(uint32 inputTime)
 650:Generated_Source\PSoC4/RTC.h **** {
 651:Generated_Source\PSoC4/RTC.h ****     uint32 retVal;
 652:Generated_Source\PSoC4/RTC.h **** 
 653:Generated_Source\PSoC4/RTC.h ****     retVal  = ((inputTime & RTC_10_SECONDS_MASK) >> RTC_10_SECONDS_OFFSET) * 10u;
 654:Generated_Source\PSoC4/RTC.h ****     retVal += (inputTime & RTC_SECONDS_MASK) >> RTC_SECONDS_OFFSET;
 655:Generated_Source\PSoC4/RTC.h **** 
 656:Generated_Source\PSoC4/RTC.h ****     return (retVal);
 657:Generated_Source\PSoC4/RTC.h **** }
 658:Generated_Source\PSoC4/RTC.h **** 
 659:Generated_Source\PSoC4/RTC.h **** 
 660:Generated_Source\PSoC4/RTC.h **** /*******************************************************************************
 661:Generated_Source\PSoC4/RTC.h **** * Function Name: RTC_GetMinutes
 662:Generated_Source\PSoC4/RTC.h **** ****************************************************************************//**
 663:Generated_Source\PSoC4/RTC.h **** *
 664:Generated_Source\PSoC4/RTC.h **** * Returns the minutes value from the time value that is passed as a/the 
 665:Generated_Source\PSoC4/RTC.h **** * parameter.
ARM GAS  C:\Users\Petro\AppData\Local\Temp\cc4bDtSi.s 			page 14


 666:Generated_Source\PSoC4/RTC.h **** *
 667:Generated_Source\PSoC4/RTC.h **** * \param inputTime
 668:Generated_Source\PSoC4/RTC.h **** * The time value.
 669:Generated_Source\PSoC4/RTC.h **** *
 670:Generated_Source\PSoC4/RTC.h **** * \return
 671:Generated_Source\PSoC4/RTC.h **** * The minutes value.
 672:Generated_Source\PSoC4/RTC.h **** *
 673:Generated_Source\PSoC4/RTC.h **** *******************************************************************************/
 674:Generated_Source\PSoC4/RTC.h **** static CY_INLINE uint32 RTC_GetMinutes(uint32 inputTime)
 675:Generated_Source\PSoC4/RTC.h **** {
 676:Generated_Source\PSoC4/RTC.h ****     uint32 retVal;
 677:Generated_Source\PSoC4/RTC.h **** 
 678:Generated_Source\PSoC4/RTC.h ****     retVal  = ((inputTime & RTC_10_MINUTES_MASK) >> RTC_10_MINUTES_OFFSET) * 10u;
 679:Generated_Source\PSoC4/RTC.h ****     retVal += (inputTime & RTC_MINUTES_MASK) >> RTC_MINUTES_OFFSET;
 680:Generated_Source\PSoC4/RTC.h **** 
 681:Generated_Source\PSoC4/RTC.h ****     return (retVal);
 682:Generated_Source\PSoC4/RTC.h **** }
 683:Generated_Source\PSoC4/RTC.h **** 
 684:Generated_Source\PSoC4/RTC.h **** 
 685:Generated_Source\PSoC4/RTC.h **** /*******************************************************************************
 686:Generated_Source\PSoC4/RTC.h **** * Function Name: RTC_GetHours
 687:Generated_Source\PSoC4/RTC.h **** ****************************************************************************//**
 688:Generated_Source\PSoC4/RTC.h **** *
 689:Generated_Source\PSoC4/RTC.h **** * Returns the hours value from the time value that is passed as a/the parameter.
 690:Generated_Source\PSoC4/RTC.h **** *
 691:Generated_Source\PSoC4/RTC.h **** * \param inputTime
 692:Generated_Source\PSoC4/RTC.h **** * The time value.
 693:Generated_Source\PSoC4/RTC.h **** *
 694:Generated_Source\PSoC4/RTC.h **** * \return
 695:Generated_Source\PSoC4/RTC.h **** * The hours value.
 696:Generated_Source\PSoC4/RTC.h **** *
 697:Generated_Source\PSoC4/RTC.h **** *******************************************************************************/
 698:Generated_Source\PSoC4/RTC.h **** static CY_INLINE uint32 RTC_GetHours(uint32 inputTime)
 699:Generated_Source\PSoC4/RTC.h **** {
 700:Generated_Source\PSoC4/RTC.h ****     uint32 retVal;
 701:Generated_Source\PSoC4/RTC.h **** 
 702:Generated_Source\PSoC4/RTC.h ****     retVal  = ((inputTime & RTC_10_HOURS_MASK) >> RTC_10_HOURS_OFFSET) * 10u;
 703:Generated_Source\PSoC4/RTC.h ****     retVal += (inputTime & RTC_HOURS_MASK) >> RTC_HOURS_OFFSET;
 704:Generated_Source\PSoC4/RTC.h **** 
 705:Generated_Source\PSoC4/RTC.h ****     return (retVal);
 706:Generated_Source\PSoC4/RTC.h **** }
 707:Generated_Source\PSoC4/RTC.h **** 
 708:Generated_Source\PSoC4/RTC.h **** 
 709:Generated_Source\PSoC4/RTC.h **** /*******************************************************************************
 710:Generated_Source\PSoC4/RTC.h **** * Function Name: RTC_GetAmPm
 711:Generated_Source\PSoC4/RTC.h **** ****************************************************************************//**
 712:Generated_Source\PSoC4/RTC.h **** *
 713:Generated_Source\PSoC4/RTC.h **** * Returns the AM/PM status from the time value that is passed as parameter.
 714:Generated_Source\PSoC4/RTC.h **** *
 715:Generated_Source\PSoC4/RTC.h **** * \param inputTime
 716:Generated_Source\PSoC4/RTC.h **** * The time value.
 717:Generated_Source\PSoC4/RTC.h **** *
 718:Generated_Source\PSoC4/RTC.h **** * \return
 719:Generated_Source\PSoC4/RTC.h **** * The am/pm period of day, see \ref group_rtc_am_pm.
 720:Generated_Source\PSoC4/RTC.h **** *
 721:Generated_Source\PSoC4/RTC.h **** *******************************************************************************/
 722:Generated_Source\PSoC4/RTC.h **** static CY_INLINE uint32 RTC_GetAmPm(uint32 inputTime)
ARM GAS  C:\Users\Petro\AppData\Local\Temp\cc4bDtSi.s 			page 15


 723:Generated_Source\PSoC4/RTC.h **** {
 724:Generated_Source\PSoC4/RTC.h ****     return (RTC_IsBitSet(inputTime, RTC_PERIOD_OF_DAY_MASK));
 725:Generated_Source\PSoC4/RTC.h **** }
 726:Generated_Source\PSoC4/RTC.h **** 
 727:Generated_Source\PSoC4/RTC.h **** 
 728:Generated_Source\PSoC4/RTC.h **** /*******************************************************************************
 729:Generated_Source\PSoC4/RTC.h **** * Function Name: RTC_GetDay
 730:Generated_Source\PSoC4/RTC.h **** ****************************************************************************//**
 731:Generated_Source\PSoC4/RTC.h **** *
 732:Generated_Source\PSoC4/RTC.h **** * Returns the day value from the date value that is passed as parameter.
 733:Generated_Source\PSoC4/RTC.h **** *
 734:Generated_Source\PSoC4/RTC.h **** * \param date
 735:Generated_Source\PSoC4/RTC.h **** * The date value.
 736:Generated_Source\PSoC4/RTC.h **** *
 737:Generated_Source\PSoC4/RTC.h **** * \return
 738:Generated_Source\PSoC4/RTC.h **** * The day value.
 739:Generated_Source\PSoC4/RTC.h **** *
 740:Generated_Source\PSoC4/RTC.h **** *******************************************************************************/
 741:Generated_Source\PSoC4/RTC.h **** static CY_INLINE uint32 RTC_GetDay(uint32 date)
 742:Generated_Source\PSoC4/RTC.h **** {
 743:Generated_Source\PSoC4/RTC.h ****     uint32 retVal;
 744:Generated_Source\PSoC4/RTC.h **** 
 745:Generated_Source\PSoC4/RTC.h ****     retVal  = ((date & RTC_10_DAY_MASK) >> RTC_10_DAY_OFFSET) * 10u;
 746:Generated_Source\PSoC4/RTC.h ****     retVal += (date & RTC_DAY_MASK) >> RTC_DAY_OFFSET;
 747:Generated_Source\PSoC4/RTC.h **** 
 748:Generated_Source\PSoC4/RTC.h ****     return (retVal);
 749:Generated_Source\PSoC4/RTC.h **** }
 750:Generated_Source\PSoC4/RTC.h **** 
 751:Generated_Source\PSoC4/RTC.h **** 
 752:Generated_Source\PSoC4/RTC.h **** /*******************************************************************************
 753:Generated_Source\PSoC4/RTC.h **** * Function Name: RTC_GetMonth
 754:Generated_Source\PSoC4/RTC.h **** ****************************************************************************//**
 755:Generated_Source\PSoC4/RTC.h **** *
 756:Generated_Source\PSoC4/RTC.h **** * Returns the month value from the date value that is passed as parameter.
 757:Generated_Source\PSoC4/RTC.h **** *
 758:Generated_Source\PSoC4/RTC.h **** * \param date
 759:Generated_Source\PSoC4/RTC.h **** * The date value.
 760:Generated_Source\PSoC4/RTC.h **** *
 761:Generated_Source\PSoC4/RTC.h **** * \return
 762:Generated_Source\PSoC4/RTC.h **** * The month value.
 763:Generated_Source\PSoC4/RTC.h **** *
 764:Generated_Source\PSoC4/RTC.h **** *******************************************************************************/
 765:Generated_Source\PSoC4/RTC.h **** static CY_INLINE uint32 RTC_GetMonth(uint32 date)
 766:Generated_Source\PSoC4/RTC.h **** {
 767:Generated_Source\PSoC4/RTC.h ****     uint32 retVal;
 768:Generated_Source\PSoC4/RTC.h **** 
 769:Generated_Source\PSoC4/RTC.h ****     retVal  = ((date & RTC_10_MONTH_MASK) >> RTC_10_MONTH_OFFSET) * 10u;
 770:Generated_Source\PSoC4/RTC.h ****     retVal += (date & RTC_MONTH_MASK) >> RTC_MONTH_OFFSET;
 771:Generated_Source\PSoC4/RTC.h **** 
 772:Generated_Source\PSoC4/RTC.h ****     return (retVal);
 773:Generated_Source\PSoC4/RTC.h **** }
 774:Generated_Source\PSoC4/RTC.h **** 
 775:Generated_Source\PSoC4/RTC.h **** 
 776:Generated_Source\PSoC4/RTC.h **** /*******************************************************************************
 777:Generated_Source\PSoC4/RTC.h **** * Function Name: RTC_GetYear
 778:Generated_Source\PSoC4/RTC.h **** ****************************************************************************//**
 779:Generated_Source\PSoC4/RTC.h **** *
ARM GAS  C:\Users\Petro\AppData\Local\Temp\cc4bDtSi.s 			page 16


 780:Generated_Source\PSoC4/RTC.h **** * Returns the year value from the date value that is passed as parameter.
 781:Generated_Source\PSoC4/RTC.h **** *
 782:Generated_Source\PSoC4/RTC.h **** * \param date
 783:Generated_Source\PSoC4/RTC.h **** * The date value.
 784:Generated_Source\PSoC4/RTC.h **** *
 785:Generated_Source\PSoC4/RTC.h **** * \return
 786:Generated_Source\PSoC4/RTC.h **** * The year value.
 787:Generated_Source\PSoC4/RTC.h **** *
 788:Generated_Source\PSoC4/RTC.h **** *******************************************************************************/
 789:Generated_Source\PSoC4/RTC.h **** static CY_INLINE uint32 RTC_GetYear(uint32 date)
 790:Generated_Source\PSoC4/RTC.h **** {
  76              		.loc 1 790 0
  77              		.cfi_startproc
  78              		@ args = 0, pretend = 0, frame = 0
  79              		@ frame_needed = 0, uses_anonymous_args = 0
  80              	.LVL5:
 791:Generated_Source\PSoC4/RTC.h ****     uint32 retVal;
 792:Generated_Source\PSoC4/RTC.h **** 
 793:Generated_Source\PSoC4/RTC.h ****     retVal  = ((date & RTC_1000_YEAR_MASK) >> RTC_1000_YEAR_OFFSET) * 1000u;
  81              		.loc 1 793 0
  82 0000 FA21     		movs	r1, #250
  83 0002 8900     		lsls	r1, r1, #2
  84 0004 0A00     		movs	r2, r1
  85 0006 0F21     		movs	r1, #15
 790:Generated_Source\PSoC4/RTC.h ****     uint32 retVal;
  86              		.loc 1 790 0
  87 0008 10B5     		push	{r4, lr}
  88              		.cfi_def_cfa_offset 8
  89              		.cfi_offset 4, -8
  90              		.cfi_offset 14, -4
  91 000a 6424     		movs	r4, #100
  92              		.loc 1 793 0
  93 000c 8304     		lsls	r3, r0, #18
  94 000e 9B0F     		lsrs	r3, r3, #30
  95 0010 5A43     		muls	r2, r3
  96              	.LVL6:
  97 0012 030A     		lsrs	r3, r0, #8
  98              	.LVL7:
  99 0014 0B40     		ands	r3, r1
 100              	.LVL8:
 101 0016 6343     		muls	r3, r4
 102 0018 9B18     		adds	r3, r3, r2
 103 001a 0200     		movs	r2, r0
 104              	.LVL9:
 794:Generated_Source\PSoC4/RTC.h ****     retVal += ((date & RTC_100_YEAR_MASK) >> RTC_100_YEAR_OFFSET) * 100u;
 795:Generated_Source\PSoC4/RTC.h ****     retVal += ((date & RTC_10_YEAR_MASK) >> RTC_10_YEAR_OFFSET) * 10u;
 796:Generated_Source\PSoC4/RTC.h ****     retVal += (date & RTC_YEAR_MASK) >> RTC_YEAR_OFFSET;
 797:Generated_Source\PSoC4/RTC.h **** 
 798:Generated_Source\PSoC4/RTC.h ****     return (retVal);
 105              		.loc 1 798 0
 106 001c 0009     		lsrs	r0, r0, #4
 107              	.LVL10:
 108 001e 0A40     		ands	r2, r1
 109              	.LVL11:
 110 0020 0840     		ands	r0, r1
 111              	.LVL12:
 112 0022 0539     		subs	r1, r1, #5
ARM GAS  C:\Users\Petro\AppData\Local\Temp\cc4bDtSi.s 			page 17


 113 0024 4843     		muls	r0, r1
 114 0026 9B18     		adds	r3, r3, r2
 115              	.LVL13:
 116 0028 C018     		adds	r0, r0, r3
 799:Generated_Source\PSoC4/RTC.h **** }
 117              		.loc 1 799 0
 118              		@ sp needed
 119 002a 10BD     		pop	{r4, pc}
 120              		.cfi_endproc
 121              	.LFE10:
 122              		.size	RTC_GetYear, .-RTC_GetYear
 123              		.global	__aeabi_uidiv
 124              		.section	.text.RTC_ConstructDate,"ax",%progbits
 125              		.align	1
 126              		.code	16
 127              		.thumb_func
 128              		.type	RTC_ConstructDate, %function
 129              	RTC_ConstructDate:
 130              	.LFB26:
 800:Generated_Source\PSoC4/RTC.h **** 
 801:Generated_Source\PSoC4/RTC.h **** 
 802:Generated_Source\PSoC4/RTC.h **** /*******************************************************************************
 803:Generated_Source\PSoC4/RTC.h **** * Function Name: RTC_SetSecond
 804:Generated_Source\PSoC4/RTC.h **** ****************************************************************************//**
 805:Generated_Source\PSoC4/RTC.h **** * \internal
 806:Generated_Source\PSoC4/RTC.h **** * Updates the time with the new second value.
 807:Generated_Source\PSoC4/RTC.h **** *
 808:Generated_Source\PSoC4/RTC.h **** * \param inputTime
 809:Generated_Source\PSoC4/RTC.h **** * The current date.
 810:Generated_Source\PSoC4/RTC.h **** *
 811:Generated_Source\PSoC4/RTC.h **** * \param inputSecond
 812:Generated_Source\PSoC4/RTC.h **** * The seconds value to be set to the time variable.
 813:Generated_Source\PSoC4/RTC.h **** *
 814:Generated_Source\PSoC4/RTC.h **** * \return
 815:Generated_Source\PSoC4/RTC.h **** * The updated time variable.
 816:Generated_Source\PSoC4/RTC.h **** * \endinternal
 817:Generated_Source\PSoC4/RTC.h **** *******************************************************************************/
 818:Generated_Source\PSoC4/RTC.h **** static CY_INLINE uint32 RTC_SetSecond(uint32 inputTime, uint32 inputSecond)
 819:Generated_Source\PSoC4/RTC.h **** {
 820:Generated_Source\PSoC4/RTC.h ****     inputTime &= ~(RTC_SECONDS_FULL_MASK);
 821:Generated_Source\PSoC4/RTC.h **** 
 822:Generated_Source\PSoC4/RTC.h ****     inputTime |= (inputSecond / 10u) << RTC_10_SECONDS_OFFSET;
 823:Generated_Source\PSoC4/RTC.h ****     inputTime |= (inputSecond % 10u) << RTC_SECONDS_OFFSET;
 824:Generated_Source\PSoC4/RTC.h **** 
 825:Generated_Source\PSoC4/RTC.h ****     return(inputTime);
 826:Generated_Source\PSoC4/RTC.h **** }
 827:Generated_Source\PSoC4/RTC.h **** 
 828:Generated_Source\PSoC4/RTC.h **** 
 829:Generated_Source\PSoC4/RTC.h **** /*******************************************************************************
 830:Generated_Source\PSoC4/RTC.h **** * Function Name: RTC_SetMinutes
 831:Generated_Source\PSoC4/RTC.h **** ****************************************************************************//**
 832:Generated_Source\PSoC4/RTC.h **** * \internal
 833:Generated_Source\PSoC4/RTC.h **** *  Updates the time with the new minute value.
 834:Generated_Source\PSoC4/RTC.h **** *
 835:Generated_Source\PSoC4/RTC.h **** * \param inputTime
 836:Generated_Source\PSoC4/RTC.h **** * The current date.
 837:Generated_Source\PSoC4/RTC.h **** *
ARM GAS  C:\Users\Petro\AppData\Local\Temp\cc4bDtSi.s 			page 18


 838:Generated_Source\PSoC4/RTC.h **** * \param inputMinute
 839:Generated_Source\PSoC4/RTC.h **** * The minutes value to be set to the time variable.
 840:Generated_Source\PSoC4/RTC.h **** *
 841:Generated_Source\PSoC4/RTC.h **** * \return
 842:Generated_Source\PSoC4/RTC.h **** * The updated time variable.
 843:Generated_Source\PSoC4/RTC.h **** * \endinternal
 844:Generated_Source\PSoC4/RTC.h **** *******************************************************************************/
 845:Generated_Source\PSoC4/RTC.h **** static CY_INLINE uint32 RTC_SetMinutes(uint32 inputTime, uint32 inputMinute)
 846:Generated_Source\PSoC4/RTC.h **** {
 847:Generated_Source\PSoC4/RTC.h ****     inputTime &= ~(RTC_MINUTES_FULL_MASK);
 848:Generated_Source\PSoC4/RTC.h **** 
 849:Generated_Source\PSoC4/RTC.h ****     inputTime |= (inputMinute / 10u) << RTC_10_MINUTES_OFFSET;
 850:Generated_Source\PSoC4/RTC.h ****     inputTime |= (inputMinute % 10u) << RTC_MINUTES_OFFSET;
 851:Generated_Source\PSoC4/RTC.h **** 
 852:Generated_Source\PSoC4/RTC.h ****     return(inputTime);
 853:Generated_Source\PSoC4/RTC.h **** }
 854:Generated_Source\PSoC4/RTC.h **** 
 855:Generated_Source\PSoC4/RTC.h **** 
 856:Generated_Source\PSoC4/RTC.h **** /*******************************************************************************
 857:Generated_Source\PSoC4/RTC.h **** * Function Name: RTC_SetHours
 858:Generated_Source\PSoC4/RTC.h **** ****************************************************************************//**
 859:Generated_Source\PSoC4/RTC.h **** * \internal
 860:Generated_Source\PSoC4/RTC.h **** *  Updates the time with the new hour value.
 861:Generated_Source\PSoC4/RTC.h **** *
 862:Generated_Source\PSoC4/RTC.h **** * \param inputTime
 863:Generated_Source\PSoC4/RTC.h **** * The current date.
 864:Generated_Source\PSoC4/RTC.h **** *
 865:Generated_Source\PSoC4/RTC.h **** * \param inputHours
 866:Generated_Source\PSoC4/RTC.h **** * The hours value to be set to the time variable.
 867:Generated_Source\PSoC4/RTC.h **** *
 868:Generated_Source\PSoC4/RTC.h **** * \return
 869:Generated_Source\PSoC4/RTC.h **** * The updated time variable.
 870:Generated_Source\PSoC4/RTC.h **** * \endinternal
 871:Generated_Source\PSoC4/RTC.h **** *******************************************************************************/
 872:Generated_Source\PSoC4/RTC.h **** static CY_INLINE uint32 RTC_SetHours(uint32 inputTime, uint32 inputHours)
 873:Generated_Source\PSoC4/RTC.h **** {
 874:Generated_Source\PSoC4/RTC.h ****     inputTime &= ~(RTC_HOURS_FULL_MASK);
 875:Generated_Source\PSoC4/RTC.h **** 
 876:Generated_Source\PSoC4/RTC.h ****     inputTime |= (inputHours / 10u) << RTC_10_HOURS_OFFSET;
 877:Generated_Source\PSoC4/RTC.h ****     inputTime |= (inputHours % 10u) << RTC_HOURS_OFFSET;
 878:Generated_Source\PSoC4/RTC.h **** 
 879:Generated_Source\PSoC4/RTC.h ****     return(inputTime);
 880:Generated_Source\PSoC4/RTC.h **** }
 881:Generated_Source\PSoC4/RTC.h **** 
 882:Generated_Source\PSoC4/RTC.h **** 
 883:Generated_Source\PSoC4/RTC.h **** /*******************************************************************************
 884:Generated_Source\PSoC4/RTC.h **** * Function Name: RTC_SetAmPm
 885:Generated_Source\PSoC4/RTC.h **** ****************************************************************************//**
 886:Generated_Source\PSoC4/RTC.h **** * \internal
 887:Generated_Source\PSoC4/RTC.h **** * Updates the time variable with the AmPm status.
 888:Generated_Source\PSoC4/RTC.h **** *
 889:Generated_Source\PSoC4/RTC.h **** * \param inputTime
 890:Generated_Source\PSoC4/RTC.h **** * The current date.
 891:Generated_Source\PSoC4/RTC.h **** *
 892:Generated_Source\PSoC4/RTC.h **** * \param periodOfDay
 893:Generated_Source\PSoC4/RTC.h **** * The AmPm status to be set to the time variable.
 894:Generated_Source\PSoC4/RTC.h **** *
ARM GAS  C:\Users\Petro\AppData\Local\Temp\cc4bDtSi.s 			page 19


 895:Generated_Source\PSoC4/RTC.h **** * \return
 896:Generated_Source\PSoC4/RTC.h **** * The updated time variable.
 897:Generated_Source\PSoC4/RTC.h **** * \endinternal
 898:Generated_Source\PSoC4/RTC.h **** *******************************************************************************/
 899:Generated_Source\PSoC4/RTC.h **** static CY_INLINE uint32 RTC_SetAmPm(uint32 inputTime, uint32 periodOfDay)
 900:Generated_Source\PSoC4/RTC.h **** {
 901:Generated_Source\PSoC4/RTC.h ****     if(0u != periodOfDay)
 902:Generated_Source\PSoC4/RTC.h ****     {
 903:Generated_Source\PSoC4/RTC.h ****         inputTime &= ~(RTC_PERIOD_OF_DAY_MASK);
 904:Generated_Source\PSoC4/RTC.h ****     }
 905:Generated_Source\PSoC4/RTC.h ****     else
 906:Generated_Source\PSoC4/RTC.h ****     {
 907:Generated_Source\PSoC4/RTC.h ****         inputTime |= RTC_PERIOD_OF_DAY_MASK;
 908:Generated_Source\PSoC4/RTC.h ****     }
 909:Generated_Source\PSoC4/RTC.h **** 
 910:Generated_Source\PSoC4/RTC.h ****     return(inputTime);
 911:Generated_Source\PSoC4/RTC.h **** }
 912:Generated_Source\PSoC4/RTC.h **** 
 913:Generated_Source\PSoC4/RTC.h **** 
 914:Generated_Source\PSoC4/RTC.h **** /*******************************************************************************
 915:Generated_Source\PSoC4/RTC.h **** * Function Name: RTC_SetDay
 916:Generated_Source\PSoC4/RTC.h **** ****************************************************************************//**
 917:Generated_Source\PSoC4/RTC.h **** * \internal
 918:Generated_Source\PSoC4/RTC.h **** * Updates the date variable with the new day value.
 919:Generated_Source\PSoC4/RTC.h **** *
 920:Generated_Source\PSoC4/RTC.h **** * \param inputDate
 921:Generated_Source\PSoC4/RTC.h **** * The current date.
 922:Generated_Source\PSoC4/RTC.h **** *
 923:Generated_Source\PSoC4/RTC.h **** * \param inputDay
 924:Generated_Source\PSoC4/RTC.h **** * day The month to be set to the date variable.
 925:Generated_Source\PSoC4/RTC.h **** *
 926:Generated_Source\PSoC4/RTC.h **** * \return
 927:Generated_Source\PSoC4/RTC.h **** * The updated date variable.
 928:Generated_Source\PSoC4/RTC.h **** * \endinternal
 929:Generated_Source\PSoC4/RTC.h **** *******************************************************************************/
 930:Generated_Source\PSoC4/RTC.h **** static CY_INLINE uint32 RTC_SetDay(uint32 inputDate, uint32 inputDay)
 931:Generated_Source\PSoC4/RTC.h **** {
 932:Generated_Source\PSoC4/RTC.h ****     inputDate &= ~(RTC_DAY_FULL_MASK);
 933:Generated_Source\PSoC4/RTC.h **** 
 934:Generated_Source\PSoC4/RTC.h ****     inputDate |= (inputDay / 10u) << RTC_10_DAY_OFFSET;
 935:Generated_Source\PSoC4/RTC.h ****     inputDate |= (inputDay % 10u) << RTC_DAY_OFFSET;
 936:Generated_Source\PSoC4/RTC.h **** 
 937:Generated_Source\PSoC4/RTC.h ****     return(inputDate);
 938:Generated_Source\PSoC4/RTC.h **** }
 939:Generated_Source\PSoC4/RTC.h **** 
 940:Generated_Source\PSoC4/RTC.h **** 
 941:Generated_Source\PSoC4/RTC.h **** /*******************************************************************************
 942:Generated_Source\PSoC4/RTC.h **** * Function Name: RTC_SetMonth
 943:Generated_Source\PSoC4/RTC.h **** ****************************************************************************//**
 944:Generated_Source\PSoC4/RTC.h **** * \internal
 945:Generated_Source\PSoC4/RTC.h **** * Updates the date variable with the new month value.
 946:Generated_Source\PSoC4/RTC.h **** *
 947:Generated_Source\PSoC4/RTC.h **** * \param inputDate
 948:Generated_Source\PSoC4/RTC.h **** * The current date.
 949:Generated_Source\PSoC4/RTC.h **** *
 950:Generated_Source\PSoC4/RTC.h **** * \param inputMonth
 951:Generated_Source\PSoC4/RTC.h **** * The month that to be set to the date variable.
ARM GAS  C:\Users\Petro\AppData\Local\Temp\cc4bDtSi.s 			page 20


 952:Generated_Source\PSoC4/RTC.h **** *
 953:Generated_Source\PSoC4/RTC.h **** * \return
 954:Generated_Source\PSoC4/RTC.h **** * The updated date variable.
 955:Generated_Source\PSoC4/RTC.h **** * \endinternal
 956:Generated_Source\PSoC4/RTC.h **** *******************************************************************************/
 957:Generated_Source\PSoC4/RTC.h **** static CY_INLINE uint32 RTC_SetMonth(uint32 inputDate, uint32 inputMonth)
 958:Generated_Source\PSoC4/RTC.h **** {
 959:Generated_Source\PSoC4/RTC.h ****     inputDate &= ~(RTC_MONTH_FULL_MASK);
 960:Generated_Source\PSoC4/RTC.h **** 
 961:Generated_Source\PSoC4/RTC.h ****     inputDate |= (inputMonth / 10u) << RTC_10_MONTH_OFFSET;
 962:Generated_Source\PSoC4/RTC.h ****     inputDate |= (inputMonth % 10u) << RTC_MONTH_OFFSET;
 963:Generated_Source\PSoC4/RTC.h **** 
 964:Generated_Source\PSoC4/RTC.h ****     return(inputDate);
 965:Generated_Source\PSoC4/RTC.h **** }
 966:Generated_Source\PSoC4/RTC.h **** 
 967:Generated_Source\PSoC4/RTC.h **** 
 968:Generated_Source\PSoC4/RTC.h **** /*******************************************************************************
 969:Generated_Source\PSoC4/RTC.h **** * Function Name: RTC_SetYear
 970:Generated_Source\PSoC4/RTC.h **** ****************************************************************************//**
 971:Generated_Source\PSoC4/RTC.h **** *\internal
 972:Generated_Source\PSoC4/RTC.h **** * Updates the date variable with the new year value.
 973:Generated_Source\PSoC4/RTC.h **** *
 974:Generated_Source\PSoC4/RTC.h **** * \param inputDate
 975:Generated_Source\PSoC4/RTC.h **** * The current date.
 976:Generated_Source\PSoC4/RTC.h **** *
 977:Generated_Source\PSoC4/RTC.h **** * \param inputYear
 978:Generated_Source\PSoC4/RTC.h **** * The year to be set to the date variable.
 979:Generated_Source\PSoC4/RTC.h **** *
 980:Generated_Source\PSoC4/RTC.h **** * \return
 981:Generated_Source\PSoC4/RTC.h **** * The updated date variable.
 982:Generated_Source\PSoC4/RTC.h **** * \endinternal
 983:Generated_Source\PSoC4/RTC.h **** *******************************************************************************/
 984:Generated_Source\PSoC4/RTC.h **** static CY_INLINE uint32 RTC_SetYear(uint32 inputDate, uint32 inputYear)
 985:Generated_Source\PSoC4/RTC.h **** {
 986:Generated_Source\PSoC4/RTC.h ****     inputDate  &= ~(RTC_YEAR_FULL_MASK);
 987:Generated_Source\PSoC4/RTC.h **** 
 988:Generated_Source\PSoC4/RTC.h ****     inputDate |= (inputYear / 1000u) << RTC_1000_YEAR_OFFSET;
 989:Generated_Source\PSoC4/RTC.h ****     inputYear %= 1000u;
 990:Generated_Source\PSoC4/RTC.h **** 
 991:Generated_Source\PSoC4/RTC.h ****     inputDate |= (inputYear / 100u) << RTC_100_YEAR_OFFSET;
 992:Generated_Source\PSoC4/RTC.h ****     inputYear %= 100u;
 993:Generated_Source\PSoC4/RTC.h **** 
 994:Generated_Source\PSoC4/RTC.h ****     inputDate |= (inputYear / 10u) << RTC_10_YEAR_OFFSET;
 995:Generated_Source\PSoC4/RTC.h ****     inputDate |= (inputYear % 10u) << RTC_YEAR_OFFSET;
 996:Generated_Source\PSoC4/RTC.h **** 
 997:Generated_Source\PSoC4/RTC.h ****     return(inputDate);
 998:Generated_Source\PSoC4/RTC.h **** }
 999:Generated_Source\PSoC4/RTC.h **** 
1000:Generated_Source\PSoC4/RTC.h **** 
1001:Generated_Source\PSoC4/RTC.h **** /*******************************************************************************
1002:Generated_Source\PSoC4/RTC.h **** * Function Name: RTC_GetNextMinSec
1003:Generated_Source\PSoC4/RTC.h **** ****************************************************************************//**
1004:Generated_Source\PSoC4/RTC.h **** *\internal
1005:Generated_Source\PSoC4/RTC.h **** * This is an internal function that calculates the value of the next Second/Minute
1006:Generated_Source\PSoC4/RTC.h **** * that follows after the current Minute/Second.
1007:Generated_Source\PSoC4/RTC.h **** *
1008:Generated_Source\PSoC4/RTC.h **** * \param curVal
ARM GAS  C:\Users\Petro\AppData\Local\Temp\cc4bDtSi.s 			page 21


1009:Generated_Source\PSoC4/RTC.h **** * The current Second/Minute value.
1010:Generated_Source\PSoC4/RTC.h **** *
1011:Generated_Source\PSoC4/RTC.h **** * \return
1012:Generated_Source\PSoC4/RTC.h **** * Returns the Second/Minute which follows after the current Second/Minute.
1013:Generated_Source\PSoC4/RTC.h **** * \endinternal
1014:Generated_Source\PSoC4/RTC.h **** *******************************************************************************/
1015:Generated_Source\PSoC4/RTC.h **** static CY_INLINE uint32 RTC_GetNextMinSec(uint32 curVal)
1016:Generated_Source\PSoC4/RTC.h **** {
1017:Generated_Source\PSoC4/RTC.h ****     return((curVal < 59u) ? (curVal + 1u) : 0u);
1018:Generated_Source\PSoC4/RTC.h **** }
1019:Generated_Source\PSoC4/RTC.h **** 
1020:Generated_Source\PSoC4/RTC.h **** 
1021:Generated_Source\PSoC4/RTC.h **** /*******************************************************************************
1022:Generated_Source\PSoC4/RTC.h **** * Function Name: RTC_GetNextHour
1023:Generated_Source\PSoC4/RTC.h **** ****************************************************************************//**
1024:Generated_Source\PSoC4/RTC.h **** * \internal
1025:Generated_Source\PSoC4/RTC.h **** *  This is an internal function that calculates the value of the next Hour
1026:Generated_Source\PSoC4/RTC.h **** *  that follows after the current Hour.
1027:Generated_Source\PSoC4/RTC.h **** *
1028:Generated_Source\PSoC4/RTC.h **** * \param curVal
1029:Generated_Source\PSoC4/RTC.h **** * The current Hour value.
1030:Generated_Source\PSoC4/RTC.h **** *
1031:Generated_Source\PSoC4/RTC.h **** * \return
1032:Generated_Source\PSoC4/RTC.h **** * Returns the Hour which follows after the current Hour.
1033:Generated_Source\PSoC4/RTC.h **** * \endinternal
1034:Generated_Source\PSoC4/RTC.h **** *******************************************************************************/
1035:Generated_Source\PSoC4/RTC.h **** static CY_INLINE uint32 RTC_GetNextHour(uint32 curVal)
1036:Generated_Source\PSoC4/RTC.h **** {
1037:Generated_Source\PSoC4/RTC.h ****     return((curVal < 23u) ? (curVal + 1u) : 0u);
1038:Generated_Source\PSoC4/RTC.h **** }
1039:Generated_Source\PSoC4/RTC.h **** 
1040:Generated_Source\PSoC4/RTC.h **** 
1041:Generated_Source\PSoC4/RTC.h **** /*******************************************************************************
1042:Generated_Source\PSoC4/RTC.h **** * Function Name: RTC_GetNextDay
1043:Generated_Source\PSoC4/RTC.h **** ****************************************************************************//**
1044:Generated_Source\PSoC4/RTC.h **** * \internal
1045:Generated_Source\PSoC4/RTC.h **** *  This is an internal function that calculates the value of the next Day
1046:Generated_Source\PSoC4/RTC.h **** *  that follows after the current Day.
1047:Generated_Source\PSoC4/RTC.h **** *
1048:Generated_Source\PSoC4/RTC.h **** * \param curYear
1049:Generated_Source\PSoC4/RTC.h **** * The current year.
1050:Generated_Source\PSoC4/RTC.h **** *
1051:Generated_Source\PSoC4/RTC.h **** * \param curMonth
1052:Generated_Source\PSoC4/RTC.h **** * The current month.
1053:Generated_Source\PSoC4/RTC.h **** *
1054:Generated_Source\PSoC4/RTC.h **** * \param curDay
1055:Generated_Source\PSoC4/RTC.h **** * The current day.
1056:Generated_Source\PSoC4/RTC.h **** *
1057:Generated_Source\PSoC4/RTC.h **** * \param alarmCfgMask
1058:Generated_Source\PSoC4/RTC.h **** * Alarm Config Mask.
1059:Generated_Source\PSoC4/RTC.h **** *
1060:Generated_Source\PSoC4/RTC.h **** * \return
1061:Generated_Source\PSoC4/RTC.h **** * Returns the day which follows after the current Day.
1062:Generated_Source\PSoC4/RTC.h **** * \endinternal
1063:Generated_Source\PSoC4/RTC.h **** *******************************************************************************/
1064:Generated_Source\PSoC4/RTC.h **** static CY_INLINE uint32 RTC_GetNextDay(uint32 curYear, uint32 curMonth,
1065:Generated_Source\PSoC4/RTC.h ****                                                     uint32 curDay, uint32 alarmCfgMask)
ARM GAS  C:\Users\Petro\AppData\Local\Temp\cc4bDtSi.s 			page 22


1066:Generated_Source\PSoC4/RTC.h **** {
1067:Generated_Source\PSoC4/RTC.h ****     uint32 daysInMonth;
1068:Generated_Source\PSoC4/RTC.h ****     uint32 tmpVal;
1069:Generated_Source\PSoC4/RTC.h **** 
1070:Generated_Source\PSoC4/RTC.h ****     daysInMonth = RTC_DaysInMonth(curMonth, curYear);
1071:Generated_Source\PSoC4/RTC.h **** 
1072:Generated_Source\PSoC4/RTC.h ****     if(0u != (alarmCfgMask & RTC_ALARM_DAYOFWEEK_MASK))
1073:Generated_Source\PSoC4/RTC.h ****     {
1074:Generated_Source\PSoC4/RTC.h ****         tmpVal = curDay + RTC_DAYS_PER_WEEK;
1075:Generated_Source\PSoC4/RTC.h ****         tmpVal = (tmpVal > daysInMonth) ? (tmpVal - daysInMonth) : tmpVal;
1076:Generated_Source\PSoC4/RTC.h ****     }
1077:Generated_Source\PSoC4/RTC.h ****     else
1078:Generated_Source\PSoC4/RTC.h ****     {
1079:Generated_Source\PSoC4/RTC.h ****         tmpVal = (curDay < daysInMonth) ? (curDay + 1u) : 1u;
1080:Generated_Source\PSoC4/RTC.h ****     }
1081:Generated_Source\PSoC4/RTC.h **** 
1082:Generated_Source\PSoC4/RTC.h ****     return(tmpVal);
1083:Generated_Source\PSoC4/RTC.h **** }
1084:Generated_Source\PSoC4/RTC.h **** 
1085:Generated_Source\PSoC4/RTC.h **** 
1086:Generated_Source\PSoC4/RTC.h **** /*******************************************************************************
1087:Generated_Source\PSoC4/RTC.h **** * Function Name: RTC_GetNextMonth
1088:Generated_Source\PSoC4/RTC.h **** ****************************************************************************//**
1089:Generated_Source\PSoC4/RTC.h **** * \internal
1090:Generated_Source\PSoC4/RTC.h **** * This is an internal function that calculates the value of the next month
1091:Generated_Source\PSoC4/RTC.h **** * that follows after the current month.
1092:Generated_Source\PSoC4/RTC.h **** *
1093:Generated_Source\PSoC4/RTC.h **** * \param curMonth
1094:Generated_Source\PSoC4/RTC.h **** * The current month.
1095:Generated_Source\PSoC4/RTC.h **** *
1096:Generated_Source\PSoC4/RTC.h **** * \return
1097:Generated_Source\PSoC4/RTC.h **** * Returns the month which follows after the current month.
1098:Generated_Source\PSoC4/RTC.h **** * \endinternal
1099:Generated_Source\PSoC4/RTC.h **** *******************************************************************************/
1100:Generated_Source\PSoC4/RTC.h **** static CY_INLINE uint32 RTC_GetNextMonth(uint32 curMonth)
1101:Generated_Source\PSoC4/RTC.h **** {
1102:Generated_Source\PSoC4/RTC.h ****     return((curMonth < 12u) ? (curMonth + 1u) : 1u);
1103:Generated_Source\PSoC4/RTC.h **** }
1104:Generated_Source\PSoC4/RTC.h **** 
1105:Generated_Source\PSoC4/RTC.h **** 
1106:Generated_Source\PSoC4/RTC.h **** /*******************************************************************************
1107:Generated_Source\PSoC4/RTC.h **** * Function Name: RTC_GetNextYear
1108:Generated_Source\PSoC4/RTC.h **** ****************************************************************************//**
1109:Generated_Source\PSoC4/RTC.h **** * \internal
1110:Generated_Source\PSoC4/RTC.h **** * This is an internal function that calculates the value of the next year
1111:Generated_Source\PSoC4/RTC.h **** * that follows after the current year.
1112:Generated_Source\PSoC4/RTC.h **** *
1113:Generated_Source\PSoC4/RTC.h **** * \param curYear
1114:Generated_Source\PSoC4/RTC.h **** * The current year.
1115:Generated_Source\PSoC4/RTC.h **** *
1116:Generated_Source\PSoC4/RTC.h **** * \return
1117:Generated_Source\PSoC4/RTC.h **** * Returns the year which follows after the current year.
1118:Generated_Source\PSoC4/RTC.h **** * \endinternal
1119:Generated_Source\PSoC4/RTC.h **** *******************************************************************************/
1120:Generated_Source\PSoC4/RTC.h **** static CY_INLINE uint32 RTC_GetNextYear(uint32 curYear)
1121:Generated_Source\PSoC4/RTC.h **** {
1122:Generated_Source\PSoC4/RTC.h ****     return(curYear + 1u);
ARM GAS  C:\Users\Petro\AppData\Local\Temp\cc4bDtSi.s 			page 23


1123:Generated_Source\PSoC4/RTC.h **** }
1124:Generated_Source\PSoC4/RTC.h **** 
1125:Generated_Source\PSoC4/RTC.h **** 
1126:Generated_Source\PSoC4/RTC.h **** /*******************************************************************************
1127:Generated_Source\PSoC4/RTC.h **** * Function Name: RTC_SetTimeFormat
1128:Generated_Source\PSoC4/RTC.h **** ****************************************************************************//**
1129:Generated_Source\PSoC4/RTC.h **** * \internal
1130:Generated_Source\PSoC4/RTC.h **** * Updates the "Time Format" value in the variable that contains time in the
1131:Generated_Source\PSoC4/RTC.h **** * "HH:MM:SS" format.
1132:Generated_Source\PSoC4/RTC.h **** *
1133:Generated_Source\PSoC4/RTC.h **** * \param inputTime
1134:Generated_Source\PSoC4/RTC.h **** * The current value of the time in the "HH:MM:SS" format.
1135:Generated_Source\PSoC4/RTC.h **** *
1136:Generated_Source\PSoC4/RTC.h **** * \param timeFormat
1137:Generated_Source\PSoC4/RTC.h **** * Required time format
1138:Generated_Source\PSoC4/RTC.h **** *
1139:Generated_Source\PSoC4/RTC.h **** * \return
1140:Generated_Source\PSoC4/RTC.h **** * Returns the updated value of the time in the "HH:MM:SS" format.
1141:Generated_Source\PSoC4/RTC.h **** * \endinternal
1142:Generated_Source\PSoC4/RTC.h **** *******************************************************************************/
1143:Generated_Source\PSoC4/RTC.h **** static CY_INLINE uint32 RTC_SetTimeFormat(uint32 inputTime, uint32 timeFormat)
1144:Generated_Source\PSoC4/RTC.h **** {
1145:Generated_Source\PSoC4/RTC.h ****     inputTime &= ~(RTC_TIME_FORMAT_MASK);
1146:Generated_Source\PSoC4/RTC.h **** 
1147:Generated_Source\PSoC4/RTC.h ****     if((uint32)RTC_12_HOURS_FORMAT != timeFormat)
1148:Generated_Source\PSoC4/RTC.h ****     {
1149:Generated_Source\PSoC4/RTC.h ****         inputTime |= RTC_TIME_FORMAT_MASK;
1150:Generated_Source\PSoC4/RTC.h ****     }
1151:Generated_Source\PSoC4/RTC.h **** 
1152:Generated_Source\PSoC4/RTC.h ****     return(inputTime);
1153:Generated_Source\PSoC4/RTC.h **** }
1154:Generated_Source\PSoC4/RTC.h **** 
1155:Generated_Source\PSoC4/RTC.h **** 
1156:Generated_Source\PSoC4/RTC.h **** /*******************************************************************************
1157:Generated_Source\PSoC4/RTC.h **** * Function Name: RTC_GetTimeFormat
1158:Generated_Source\PSoC4/RTC.h **** ****************************************************************************//**
1159:Generated_Source\PSoC4/RTC.h **** * \internal
1160:Generated_Source\PSoC4/RTC.h **** * Reads the time format from the variable that contains time in the
1161:Generated_Source\PSoC4/RTC.h **** * "HH:MM:SS" format.
1162:Generated_Source\PSoC4/RTC.h **** *
1163:Generated_Source\PSoC4/RTC.h **** * \param inputTime
1164:Generated_Source\PSoC4/RTC.h **** * The current value of the time in the "HH:MM:SS" format.
1165:Generated_Source\PSoC4/RTC.h **** *
1166:Generated_Source\PSoC4/RTC.h **** * \return
1167:Generated_Source\PSoC4/RTC.h **** * Returns the time format that is stored in the variable that contains time
1168:Generated_Source\PSoC4/RTC.h **** * in the "HH:MM:SS" format.
1169:Generated_Source\PSoC4/RTC.h **** * \endinternal
1170:Generated_Source\PSoC4/RTC.h **** *******************************************************************************/
1171:Generated_Source\PSoC4/RTC.h **** static CY_INLINE uint32 RTC_GetTimeFormat(uint32 inputTime)
1172:Generated_Source\PSoC4/RTC.h **** {
1173:Generated_Source\PSoC4/RTC.h ****     return ((0uL != (inputTime & (1uL << RTC_TIME_FORMAT_OFFSET))) ?
1174:Generated_Source\PSoC4/RTC.h ****                                        (uint32)RTC_12_HOURS_FORMAT :
1175:Generated_Source\PSoC4/RTC.h ****                                        (uint32)RTC_24_HOURS_FORMAT);
1176:Generated_Source\PSoC4/RTC.h **** }
1177:Generated_Source\PSoC4/RTC.h **** 
1178:Generated_Source\PSoC4/RTC.h **** 
1179:Generated_Source\PSoC4/RTC.h **** /*******************************************************************************
ARM GAS  C:\Users\Petro\AppData\Local\Temp\cc4bDtSi.s 			page 24


1180:Generated_Source\PSoC4/RTC.h **** * Function Name: RTC_ConstructTime
1181:Generated_Source\PSoC4/RTC.h **** ****************************************************************************//**
1182:Generated_Source\PSoC4/RTC.h **** *
1183:Generated_Source\PSoC4/RTC.h **** * Returns the time in the format used in APIs from individual elements
1184:Generated_Source\PSoC4/RTC.h **** * passed (hour, min, sec etc)
1185:Generated_Source\PSoC4/RTC.h **** *
1186:Generated_Source\PSoC4/RTC.h **** * \param timeFormat
1187:Generated_Source\PSoC4/RTC.h **** * The 12/24 hours time format, see \ref group_rtc_hour_format
1188:Generated_Source\PSoC4/RTC.h **** *
1189:Generated_Source\PSoC4/RTC.h **** * \param stateAmPm 
1190:Generated_Source\PSoC4/RTC.h **** * The AM/PM status, see \ref group_rtc_am_pm.
1191:Generated_Source\PSoC4/RTC.h **** *
1192:Generated_Source\PSoC4/RTC.h **** * \param hour
1193:Generated_Source\PSoC4/RTC.h **** * The hour.
1194:Generated_Source\PSoC4/RTC.h **** *
1195:Generated_Source\PSoC4/RTC.h **** * \param min
1196:Generated_Source\PSoC4/RTC.h **** * The minute.
1197:Generated_Source\PSoC4/RTC.h **** *
1198:Generated_Source\PSoC4/RTC.h **** * \param sec
1199:Generated_Source\PSoC4/RTC.h **** * The second.
1200:Generated_Source\PSoC4/RTC.h **** *
1201:Generated_Source\PSoC4/RTC.h **** * \return
1202:Generated_Source\PSoC4/RTC.h **** * Time in the format used in API.
1203:Generated_Source\PSoC4/RTC.h **** *
1204:Generated_Source\PSoC4/RTC.h **** *******************************************************************************/
1205:Generated_Source\PSoC4/RTC.h **** static CY_INLINE uint32 RTC_ConstructTime(uint32 timeFormat, uint32 stateAmPm, 
1206:Generated_Source\PSoC4/RTC.h ****                                                        uint32 hour, uint32 min, uint32 sec)
1207:Generated_Source\PSoC4/RTC.h **** {
1208:Generated_Source\PSoC4/RTC.h ****     uint32 retVal;
1209:Generated_Source\PSoC4/RTC.h **** 
1210:Generated_Source\PSoC4/RTC.h ****     retVal  = timeFormat << RTC_TIME_FORMAT_OFFSET;
1211:Generated_Source\PSoC4/RTC.h ****     retVal |= stateAmPm << RTC_PERIOD_OF_DAY_OFFSET;
1212:Generated_Source\PSoC4/RTC.h **** 
1213:Generated_Source\PSoC4/RTC.h ****     retVal |= (hour / 10u) << RTC_10_HOURS_OFFSET;
1214:Generated_Source\PSoC4/RTC.h ****     retVal |= (hour % 10u) << RTC_HOURS_OFFSET;
1215:Generated_Source\PSoC4/RTC.h **** 
1216:Generated_Source\PSoC4/RTC.h ****     retVal |= (min / 10u) << RTC_10_MINUTES_OFFSET;
1217:Generated_Source\PSoC4/RTC.h ****     retVal |= (min % 10u) << RTC_MINUTES_OFFSET;
1218:Generated_Source\PSoC4/RTC.h **** 
1219:Generated_Source\PSoC4/RTC.h ****     retVal |= (sec / 10u) << RTC_10_SECONDS_OFFSET;
1220:Generated_Source\PSoC4/RTC.h ****     retVal |= (sec % 10u) << RTC_SECONDS_OFFSET;
1221:Generated_Source\PSoC4/RTC.h **** 
1222:Generated_Source\PSoC4/RTC.h ****     return (retVal);
1223:Generated_Source\PSoC4/RTC.h **** }
1224:Generated_Source\PSoC4/RTC.h **** 
1225:Generated_Source\PSoC4/RTC.h **** 
1226:Generated_Source\PSoC4/RTC.h **** /*******************************************************************************
1227:Generated_Source\PSoC4/RTC.h **** * Function Name: RTC_ConstructDate
1228:Generated_Source\PSoC4/RTC.h **** ****************************************************************************//**
1229:Generated_Source\PSoC4/RTC.h **** *
1230:Generated_Source\PSoC4/RTC.h **** *  Returns the date in the format used in APIs from individual elements
1231:Generated_Source\PSoC4/RTC.h **** *  passed (day. Month and year)
1232:Generated_Source\PSoC4/RTC.h **** *
1233:Generated_Source\PSoC4/RTC.h **** * \param month
1234:Generated_Source\PSoC4/RTC.h **** * The month.
1235:Generated_Source\PSoC4/RTC.h **** *
1236:Generated_Source\PSoC4/RTC.h **** * \param day
ARM GAS  C:\Users\Petro\AppData\Local\Temp\cc4bDtSi.s 			page 25


1237:Generated_Source\PSoC4/RTC.h **** * The day.
1238:Generated_Source\PSoC4/RTC.h **** *
1239:Generated_Source\PSoC4/RTC.h **** * \param year
1240:Generated_Source\PSoC4/RTC.h **** * The year.
1241:Generated_Source\PSoC4/RTC.h **** *
1242:Generated_Source\PSoC4/RTC.h **** * \return
1243:Generated_Source\PSoC4/RTC.h **** * The date in the format used in API.
1244:Generated_Source\PSoC4/RTC.h **** *
1245:Generated_Source\PSoC4/RTC.h **** *******************************************************************************/
1246:Generated_Source\PSoC4/RTC.h **** static CY_INLINE uint32 RTC_ConstructDate(uint32 month, uint32 day, uint32 year)
1247:Generated_Source\PSoC4/RTC.h **** {
 131              		.loc 1 1247 0
 132              		.cfi_startproc
 133              		@ args = 0, pretend = 0, frame = 8
 134              		@ frame_needed = 0, uses_anonymous_args = 0
 135              	.LVL14:
 136 0000 F7B5     		push	{r0, r1, r2, r4, r5, r6, r7, lr}
 137              		.cfi_def_cfa_offset 32
 138              		.cfi_offset 0, -32
 139              		.cfi_offset 1, -28
 140              		.cfi_offset 2, -24
 141              		.cfi_offset 4, -20
 142              		.cfi_offset 5, -16
 143              		.cfi_offset 6, -12
 144              		.cfi_offset 7, -8
 145              		.cfi_offset 14, -4
 146              		.loc 1 1247 0
 147 0002 0F00     		movs	r7, r1
1248:Generated_Source\PSoC4/RTC.h ****     uint32 retVal;
1249:Generated_Source\PSoC4/RTC.h ****     uint32 tmpVal = year;
1250:Generated_Source\PSoC4/RTC.h **** 
1251:Generated_Source\PSoC4/RTC.h ****     retVal  = (month / 10u) << RTC_10_MONTH_OFFSET;
1252:Generated_Source\PSoC4/RTC.h ****     retVal |= (month % 10u) << RTC_MONTH_OFFSET;
1253:Generated_Source\PSoC4/RTC.h **** 
1254:Generated_Source\PSoC4/RTC.h ****     retVal |= (day / 10u) << RTC_10_DAY_OFFSET;
1255:Generated_Source\PSoC4/RTC.h ****     retVal |= (day % 10u) << RTC_DAY_OFFSET;
1256:Generated_Source\PSoC4/RTC.h **** 
1257:Generated_Source\PSoC4/RTC.h ****     retVal |= (year / 1000u) << RTC_1000_YEAR_OFFSET;
1258:Generated_Source\PSoC4/RTC.h ****     tmpVal %= 1000u;
 148              		.loc 1 1258 0
 149 0004 FA21     		movs	r1, #250
 150              	.LVL15:
1247:Generated_Source\PSoC4/RTC.h ****     uint32 retVal;
 151              		.loc 1 1247 0
 152 0006 0600     		movs	r6, r0
 153              	.LVL16:
 154              		.loc 1 1258 0
 155 0008 8900     		lsls	r1, r1, #2
 156 000a 1000     		movs	r0, r2
 157              	.LVL17:
1247:Generated_Source\PSoC4/RTC.h ****     uint32 retVal;
 158              		.loc 1 1247 0
 159 000c 1500     		movs	r5, r2
 160              		.loc 1 1258 0
 161 000e FFF7FEFF 		bl	__aeabi_uidivmod
 162              	.LVL18:
 163 0012 0C00     		movs	r4, r1
ARM GAS  C:\Users\Petro\AppData\Local\Temp\cc4bDtSi.s 			page 26


 164              	.LVL19:
1259:Generated_Source\PSoC4/RTC.h **** 
1260:Generated_Source\PSoC4/RTC.h ****     retVal |= (tmpVal / 100u) << RTC_100_YEAR_OFFSET;
1261:Generated_Source\PSoC4/RTC.h ****     tmpVal %= 100u;
 165              		.loc 1 1261 0
 166 0014 6421     		movs	r1, #100
 167              	.LVL20:
 168 0016 2000     		movs	r0, r4
 169 0018 FFF7FEFF 		bl	__aeabi_uidivmod
 170              	.LVL21:
 171 001c 3800     		movs	r0, r7
 172 001e 0091     		str	r1, [sp]
 173              	.LVL22:
 174 0020 0A21     		movs	r1, #10
 175              	.LVL23:
 176 0022 FFF7FEFF 		bl	__aeabi_uidiv
 177              	.LVL24:
 178 0026 0A21     		movs	r1, #10
 179 0028 0305     		lsls	r3, r0, #20
 180 002a 3800     		movs	r0, r7
 181 002c 0193     		str	r3, [sp, #4]
 182 002e FFF7FEFF 		bl	__aeabi_uidivmod
 183              	.LVL25:
 184 0032 019B     		ldr	r3, [sp, #4]
 185 0034 3000     		movs	r0, r6
 186 0036 0F04     		lsls	r7, r1, #16
 187              	.LVL26:
 188 0038 0A21     		movs	r1, #10
 189 003a 1F43     		orrs	r7, r3
 190 003c FFF7FEFF 		bl	__aeabi_uidiv
 191              	.LVL27:
 192 0040 0007     		lsls	r0, r0, #28
 193 0042 0743     		orrs	r7, r0
 194 0044 0A21     		movs	r1, #10
 195 0046 3000     		movs	r0, r6
 196 0048 FFF7FEFF 		bl	__aeabi_uidivmod
 197              	.LVL28:
 198 004c 0906     		lsls	r1, r1, #24
 199 004e 0F43     		orrs	r7, r1
 200 0050 FA21     		movs	r1, #250
 201 0052 2800     		movs	r0, r5
 202 0054 8900     		lsls	r1, r1, #2
 203 0056 FFF7FEFF 		bl	__aeabi_uidiv
 204              	.LVL29:
 205 005a 0003     		lsls	r0, r0, #12
 206 005c 0743     		orrs	r7, r0
 207 005e 6421     		movs	r1, #100
 208 0060 2000     		movs	r0, r4
 209 0062 FFF7FEFF 		bl	__aeabi_uidiv
 210              	.LVL30:
 211 0066 0002     		lsls	r0, r0, #8
 212 0068 0743     		orrs	r7, r0
 213 006a 0A21     		movs	r1, #10
 214 006c 0098     		ldr	r0, [sp]
 215 006e FFF7FEFF 		bl	__aeabi_uidivmod
 216              	.LVL31:
1262:Generated_Source\PSoC4/RTC.h **** 
ARM GAS  C:\Users\Petro\AppData\Local\Temp\cc4bDtSi.s 			page 27


1263:Generated_Source\PSoC4/RTC.h ****     retVal |= (tmpVal / 10u) << RTC_10_YEAR_OFFSET;
1264:Generated_Source\PSoC4/RTC.h ****     retVal |= (tmpVal % 10u) << RTC_YEAR_OFFSET;
1265:Generated_Source\PSoC4/RTC.h **** 
1266:Generated_Source\PSoC4/RTC.h ****     return (retVal);
 217              		.loc 1 1266 0
 218 0072 0098     		ldr	r0, [sp]
 219 0074 0F43     		orrs	r7, r1
 220              	.LVL32:
 221 0076 0A21     		movs	r1, #10
 222 0078 FFF7FEFF 		bl	__aeabi_uidiv
 223              	.LVL33:
 224 007c 0001     		lsls	r0, r0, #4
 225 007e 3843     		orrs	r0, r7
1267:Generated_Source\PSoC4/RTC.h **** }
 226              		.loc 1 1267 0
 227              		@ sp needed
 228              	.LVL34:
 229              	.LVL35:
 230              	.LVL36:
 231 0080 FEBD     		pop	{r1, r2, r3, r4, r5, r6, r7, pc}
 232              		.cfi_endproc
 233              	.LFE26:
 234              		.size	RTC_ConstructDate, .-RTC_ConstructDate
 235              		.section	.text.RTC_GetDayOfWeek,"ax",%progbits
 236              		.align	1
 237              		.code	16
 238              		.thumb_func
 239              		.type	RTC_GetDayOfWeek, %function
 240              	RTC_GetDayOfWeek:
 241              	.LFB27:
1268:Generated_Source\PSoC4/RTC.h **** 
1269:Generated_Source\PSoC4/RTC.h **** 
1270:Generated_Source\PSoC4/RTC.h **** /*******************************************************************************
1271:Generated_Source\PSoC4/RTC.h **** * Function Name: RTC_GetDayOfWeek
1272:Generated_Source\PSoC4/RTC.h **** ****************************************************************************//**
1273:Generated_Source\PSoC4/RTC.h **** * \internal
1274:Generated_Source\PSoC4/RTC.h **** *
1275:Generated_Source\PSoC4/RTC.h **** *  Returns a day of the week for a year, month, and day of month that are passed
1276:Generated_Source\PSoC4/RTC.h **** *  through parameters. Zeller's congruence is used to calculate the day of
1277:Generated_Source\PSoC4/RTC.h **** *  the week.
1278:Generated_Source\PSoC4/RTC.h **** *
1279:Generated_Source\PSoC4/RTC.h **** *  For the Georgian calendar, Zeller's congruence is:
1280:Generated_Source\PSoC4/RTC.h **** *  h = (q + [13 * (m + 1)] + K + [K/4] + [J/4] - 2J) mod 7;
1281:Generated_Source\PSoC4/RTC.h **** *
1282:Generated_Source\PSoC4/RTC.h **** *  h - The day of the week (0 = Saturday, 1 = Sunday, 2 = Monday, ..., 
1283:Generated_Source\PSoC4/RTC.h **** *  6 = Friday).
1284:Generated_Source\PSoC4/RTC.h **** *  q - The day of the month.
1285:Generated_Source\PSoC4/RTC.h **** *  m - The month (3 = March, 4 = April, 5 = May, ..., 14 = February).
1286:Generated_Source\PSoC4/RTC.h **** *  K - The year of the century (year \mod 100).
1287:Generated_Source\PSoC4/RTC.h **** *  J - The zero-based century (actually [year/100]) For example, the zero-based
1288:Generated_Source\PSoC4/RTC.h **** *  centuries for 1995 and 2000 are 19 and 20 respectively (not to be
1289:Generated_Source\PSoC4/RTC.h **** *  confused with the common ordinal century enumeration which indicates
1290:Generated_Source\PSoC4/RTC.h **** *  20th for both cases).
1291:Generated_Source\PSoC4/RTC.h **** *
1292:Generated_Source\PSoC4/RTC.h **** * \note
1293:Generated_Source\PSoC4/RTC.h **** * In this algorithm January and February are counted as months 13 and 14
1294:Generated_Source\PSoC4/RTC.h **** * of the previous year.
ARM GAS  C:\Users\Petro\AppData\Local\Temp\cc4bDtSi.s 			page 28


1295:Generated_Source\PSoC4/RTC.h **** *
1296:Generated_Source\PSoC4/RTC.h **** * \param day
1297:Generated_Source\PSoC4/RTC.h **** * The day of the month(1..31)
1298:Generated_Source\PSoC4/RTC.h **** *
1299:Generated_Source\PSoC4/RTC.h **** * \param month
1300:Generated_Source\PSoC4/RTC.h **** * The month of the year, see \ref group_rtc_month
1301:Generated_Source\PSoC4/RTC.h **** *
1302:Generated_Source\PSoC4/RTC.h **** * \param year
1303:Generated_Source\PSoC4/RTC.h **** * The year value.
1304:Generated_Source\PSoC4/RTC.h **** *
1305:Generated_Source\PSoC4/RTC.h **** * \return
1306:Generated_Source\PSoC4/RTC.h **** * Returns a day of the week, see \ref group_rtc_day_of_the_week.
1307:Generated_Source\PSoC4/RTC.h **** *
1308:Generated_Source\PSoC4/RTC.h **** * \endinternal
1309:Generated_Source\PSoC4/RTC.h **** *******************************************************************************/
1310:Generated_Source\PSoC4/RTC.h **** static CY_INLINE uint32 RTC_GetDayOfWeek(uint32 day, uint32 month, uint32 year)
1311:Generated_Source\PSoC4/RTC.h **** {
 242              		.loc 1 1311 0
 243              		.cfi_startproc
 244              		@ args = 0, pretend = 0, frame = 0
 245              		@ frame_needed = 0, uses_anonymous_args = 0
 246              	.LVL37:
 247 0000 70B5     		push	{r4, r5, r6, lr}
 248              		.cfi_def_cfa_offset 16
 249              		.cfi_offset 4, -16
 250              		.cfi_offset 5, -12
 251              		.cfi_offset 6, -8
 252              		.cfi_offset 14, -4
 253              		.loc 1 1311 0
 254 0002 0C00     		movs	r4, r1
 255 0004 1500     		movs	r5, r2
1312:Generated_Source\PSoC4/RTC.h ****     uint32 retVal;
1313:Generated_Source\PSoC4/RTC.h **** 
1314:Generated_Source\PSoC4/RTC.h ****     /* Converts month number from regular convention
1315:Generated_Source\PSoC4/RTC.h ****      * (1=January,..., 12=December) to convention required for this
1316:Generated_Source\PSoC4/RTC.h ****      * algorithm(January and February are counted as months 13 and 14 of
1317:Generated_Source\PSoC4/RTC.h ****      * previous year).
1318:Generated_Source\PSoC4/RTC.h ****     */
1319:Generated_Source\PSoC4/RTC.h ****     if(month < (uint32)RTC_MARCH)
 256              		.loc 1 1319 0
 257 0006 0229     		cmp	r1, #2
 258 0008 01D8     		bhi	.L9
1320:Generated_Source\PSoC4/RTC.h ****     {
1321:Generated_Source\PSoC4/RTC.h ****         month = 12u + month;
 259              		.loc 1 1321 0
 260 000a 0C34     		adds	r4, r4, #12
 261              	.LVL38:
1322:Generated_Source\PSoC4/RTC.h ****         year--;
 262              		.loc 1 1322 0
 263 000c 013D     		subs	r5, r5, #1
 264              	.LVL39:
 265              	.L9:
1323:Generated_Source\PSoC4/RTC.h ****     }
1324:Generated_Source\PSoC4/RTC.h **** 
1325:Generated_Source\PSoC4/RTC.h ****     /* Calculates Day of Week using Zeller's congruence algorithms */
1326:Generated_Source\PSoC4/RTC.h ****     retVal = (day + (((month + 1u) * 26u) / 10u) + year + (year / 4u) + (6u * (year / 100u)) + (yea
 266              		.loc 1 1326 0
ARM GAS  C:\Users\Petro\AppData\Local\Temp\cc4bDtSi.s 			page 29


 267 000e C821     		movs	r1, #200
 268 0010 2818     		adds	r0, r5, r0
 269              	.LVL40:
 270 0012 AE08     		lsrs	r6, r5, #2
 271 0014 3618     		adds	r6, r6, r0
 272 0016 4900     		lsls	r1, r1, #1
 273 0018 2800     		movs	r0, r5
 274 001a FFF7FEFF 		bl	__aeabi_uidiv
 275              	.LVL41:
 276 001e 6421     		movs	r1, #100
 277 0020 3618     		adds	r6, r6, r0
 278 0022 2800     		movs	r0, r5
 279 0024 FFF7FEFF 		bl	__aeabi_uidiv
 280              	.LVL42:
 281 0028 0623     		movs	r3, #6
 282 002a 5843     		muls	r0, r3
 283 002c 3518     		adds	r5, r6, r0
 284              	.LVL43:
 285 002e 1A20     		movs	r0, #26
 286 0030 0134     		adds	r4, r4, #1
 287              	.LVL44:
 288 0032 0A21     		movs	r1, #10
 289 0034 6043     		muls	r0, r4
 290 0036 FFF7FEFF 		bl	__aeabi_uidiv
 291              	.LVL45:
 292 003a 0721     		movs	r1, #7
 293 003c 2818     		adds	r0, r5, r0
 294 003e FFF7FEFF 		bl	__aeabi_uidivmod
 295              	.LVL46:
1327:Generated_Source\PSoC4/RTC.h **** 
1328:Generated_Source\PSoC4/RTC.h ****     /* Makes correction for Saturday. Saturday number should be 7 instead of 0. */
1329:Generated_Source\PSoC4/RTC.h ****     if(0u == retVal)
 296              		.loc 1 1329 0
 297 0042 0029     		cmp	r1, #0
 298 0044 00D1     		bne	.L10
1330:Generated_Source\PSoC4/RTC.h ****     {
1331:Generated_Source\PSoC4/RTC.h ****         retVal = (uint32)RTC_SATURDAY;
 299              		.loc 1 1331 0
 300 0046 0731     		adds	r1, r1, #7
 301              	.LVL47:
 302              	.L10:
1332:Generated_Source\PSoC4/RTC.h ****     }
1333:Generated_Source\PSoC4/RTC.h **** 
1334:Generated_Source\PSoC4/RTC.h ****     return(retVal);
1335:Generated_Source\PSoC4/RTC.h **** }
 303              		.loc 1 1335 0
 304 0048 0800     		movs	r0, r1
 305              		@ sp needed
 306              	.LVL48:
 307 004a 70BD     		pop	{r4, r5, r6, pc}
 308              		.cfi_endproc
 309              	.LFE27:
 310              		.size	RTC_GetDayOfWeek, .-RTC_GetDayOfWeek
 311              		.section	.text.RTC_Stop,"ax",%progbits
 312              		.align	1
 313              		.global	RTC_Stop
 314              		.code	16
ARM GAS  C:\Users\Petro\AppData\Local\Temp\cc4bDtSi.s 			page 30


 315              		.thumb_func
 316              		.type	RTC_Stop, %function
 317              	RTC_Stop:
 318              	.LFB30:
 319              		.file 2 "Generated_Source\\PSoC4\\RTC.c"
   1:Generated_Source\PSoC4/RTC.c **** /***************************************************************************//**
   2:Generated_Source\PSoC4/RTC.c **** * \file Name: RTC.c
   3:Generated_Source\PSoC4/RTC.c **** * \version 1.20
   4:Generated_Source\PSoC4/RTC.c **** *
   5:Generated_Source\PSoC4/RTC.c **** *  This file provides the source code to the API for the RTC_P4 Component.
   6:Generated_Source\PSoC4/RTC.c **** *
   7:Generated_Source\PSoC4/RTC.c **** ********************************************************************************
   8:Generated_Source\PSoC4/RTC.c **** * \copyright
   9:Generated_Source\PSoC4/RTC.c **** * Copyright 2015-2017, Cypress Semiconductor Corporation. All rights reserved.
  10:Generated_Source\PSoC4/RTC.c **** * You may use this file only in accordance with the license, terms, conditions,
  11:Generated_Source\PSoC4/RTC.c **** * disclaimers, and limitations in the end user license agreement accompanying
  12:Generated_Source\PSoC4/RTC.c **** * the software package with which this file was provided.
  13:Generated_Source\PSoC4/RTC.c **** *******************************************************************************/
  14:Generated_Source\PSoC4/RTC.c **** 
  15:Generated_Source\PSoC4/RTC.c **** #include "RTC.h"
  16:Generated_Source\PSoC4/RTC.c **** 
  17:Generated_Source\PSoC4/RTC.c **** uint8  RTC_initVar;
  18:Generated_Source\PSoC4/RTC.c **** 
  19:Generated_Source\PSoC4/RTC.c **** volatile uint64 RTC_unixTime;
  20:Generated_Source\PSoC4/RTC.c **** RTC_DATE_TIME RTC_currentTimeDate;
  21:Generated_Source\PSoC4/RTC.c **** 
  22:Generated_Source\PSoC4/RTC.c **** static uint32 RTC_updateTimePeriod;
  23:Generated_Source\PSoC4/RTC.c **** static uint32 RTC_tickRefOneSec;
  24:Generated_Source\PSoC4/RTC.c **** 
  25:Generated_Source\PSoC4/RTC.c **** uint8  RTC_dstStatus;
  26:Generated_Source\PSoC4/RTC.c **** static uint32 RTC_dstTimeOffset;
  27:Generated_Source\PSoC4/RTC.c **** #if(0u != RTC_INITIAL_DST_STATUS)
  28:Generated_Source\PSoC4/RTC.c ****     static volatile uint64 RTC_unixTimeDstStart;
  29:Generated_Source\PSoC4/RTC.c ****     static volatile uint64 RTC_unixTimeDstStop;
  30:Generated_Source\PSoC4/RTC.c ****     RTC_DST_TIME RTC_dstStartTime;
  31:Generated_Source\PSoC4/RTC.c ****     RTC_DST_TIME RTC_dstStopTime;
  32:Generated_Source\PSoC4/RTC.c **** #endif /* (0u != RTC_INITIAL_DST_STATUS) */
  33:Generated_Source\PSoC4/RTC.c **** 
  34:Generated_Source\PSoC4/RTC.c **** uint32 RTC_alarmCurStatus;
  35:Generated_Source\PSoC4/RTC.c **** #if(0u != RTC_INITIAL_ALARM_STATUS)
  36:Generated_Source\PSoC4/RTC.c ****     uint32  RTC_alarmCfgMask = 0xFFu;
  37:Generated_Source\PSoC4/RTC.c ****     static volatile uint64 RTC_unixTimeAlarm;
  38:Generated_Source\PSoC4/RTC.c ****     RTC_DATE_TIME RTC_alarmCfgTimeDate;
  39:Generated_Source\PSoC4/RTC.c ****     void (*RTC_alarmCallbackPtr)(void) = (void *)0;
  40:Generated_Source\PSoC4/RTC.c **** #endif /* (0u != RTC_INITIAL_ALARM_STATUS) */
  41:Generated_Source\PSoC4/RTC.c **** 
  42:Generated_Source\PSoC4/RTC.c **** const uint16 RTC_daysBeforeMonthTbl[RTC_MONTHS_PER_YEAR] = {
  43:Generated_Source\PSoC4/RTC.c ****                                                  (0u), /* JANUARY */
  44:Generated_Source\PSoC4/RTC.c ****                                                  (0u + 31u), /* FEBRUARY */
  45:Generated_Source\PSoC4/RTC.c ****                                                  (0u + 31u + 28u), /* MARCH */
  46:Generated_Source\PSoC4/RTC.c ****                                                  (0u + 31u + 28u + 31u), /* APRIL */
  47:Generated_Source\PSoC4/RTC.c ****                                                  (0u + 31u + 28u + 31u + 30u), /* MAY */
  48:Generated_Source\PSoC4/RTC.c ****                                                  (0u + 31u + 28u + 31u + 30u + 31u), /* JUNE */
  49:Generated_Source\PSoC4/RTC.c ****                                                  (0u + 31u + 28u + 31u + 30u + 31u + 30u), /* JULY 
  50:Generated_Source\PSoC4/RTC.c ****                                                  (0u + 31u + 28u + 31u + 30u + 31u + 30u + 31u), /*
  51:Generated_Source\PSoC4/RTC.c ****                                                  (0u + 31u + 28u + 31u + 30u + 31u + 30u + 31u + 31
  52:Generated_Source\PSoC4/RTC.c ****                                                  (0u + 31u + 28u + 31u + 30u + 31u + 30u + 31u + 31
ARM GAS  C:\Users\Petro\AppData\Local\Temp\cc4bDtSi.s 			page 31


  53:Generated_Source\PSoC4/RTC.c ****                                                  (0u + 31u + 28u + 31u + 30u + 31u + 30u + 31u + 31
  54:Generated_Source\PSoC4/RTC.c ****                                                  (0u + 31u + 28u + 31u + 30u + 31u + 30u + 31u + 31
  55:Generated_Source\PSoC4/RTC.c **** 
  56:Generated_Source\PSoC4/RTC.c **** const uint8 RTC_daysInMonthTbl[RTC_MONTHS_PER_YEAR] = {RTC_DAYS_IN_JANUARY,
  57:Generated_Source\PSoC4/RTC.c ****                                                                                  RTC_DAYS_IN_FEBRUA
  58:Generated_Source\PSoC4/RTC.c ****                                                                                  RTC_DAYS_IN_MARCH,
  59:Generated_Source\PSoC4/RTC.c ****                                                                                  RTC_DAYS_IN_APRIL,
  60:Generated_Source\PSoC4/RTC.c ****                                                                                  RTC_DAYS_IN_MAY,
  61:Generated_Source\PSoC4/RTC.c ****                                                                                  RTC_DAYS_IN_JUNE,
  62:Generated_Source\PSoC4/RTC.c ****                                                                                  RTC_DAYS_IN_JULY,
  63:Generated_Source\PSoC4/RTC.c ****                                                                                  RTC_DAYS_IN_AUGUST
  64:Generated_Source\PSoC4/RTC.c ****                                                                                  RTC_DAYS_IN_SEPTEM
  65:Generated_Source\PSoC4/RTC.c ****                                                                                  RTC_DAYS_IN_OCTOBE
  66:Generated_Source\PSoC4/RTC.c ****                                                                                  RTC_DAYS_IN_NOVEMB
  67:Generated_Source\PSoC4/RTC.c ****                                                                                  RTC_DAYS_IN_DECEMB
  68:Generated_Source\PSoC4/RTC.c **** 
  69:Generated_Source\PSoC4/RTC.c **** 
  70:Generated_Source\PSoC4/RTC.c **** /*******************************************************************************
  71:Generated_Source\PSoC4/RTC.c **** * Function Name: RTC_Start
  72:Generated_Source\PSoC4/RTC.c **** ****************************************************************************//**
  73:Generated_Source\PSoC4/RTC.c **** *
  74:Generated_Source\PSoC4/RTC.c **** * Performs all the required calculations for the time and date registers and
  75:Generated_Source\PSoC4/RTC.c **** * initializes the component along with the date and time selected in the
  76:Generated_Source\PSoC4/RTC.c **** * customizer. 
  77:Generated_Source\PSoC4/RTC.c **** *
  78:Generated_Source\PSoC4/RTC.c **** * If "Implement RTC update manually" is disabled in the customizer
  79:Generated_Source\PSoC4/RTC.c **** * and if WDT or DeepSleep timer is selected as a source in the clocks 
  80:Generated_Source\PSoC4/RTC.c **** * configuration window (low frequency clocks tab), attaches RTC_Update API to a
  81:Generated_Source\PSoC4/RTC.c **** * corresponding ISR callback of WDT or DeepSleep Timer.
  82:Generated_Source\PSoC4/RTC.c **** *
  83:Generated_Source\PSoC4/RTC.c **** * \note "Implement RTC update manually" checkbox is available for PSoC 4200L / 
  84:Generated_Source\PSoC4/RTC.c **** * PSoC 4100M / PSoC 4200M / PSoC 4100 BLE / PSoC 4200 BLE / PSoC 4000S / PSoC 
  85:Generated_Source\PSoC4/RTC.c **** * 4100S and Analog Coprocessor.
  86:Generated_Source\PSoC4/RTC.c **** *
  87:Generated_Source\PSoC4/RTC.c **** *******************************************************************************/
  88:Generated_Source\PSoC4/RTC.c **** void RTC_Start(void)
  89:Generated_Source\PSoC4/RTC.c **** {
  90:Generated_Source\PSoC4/RTC.c ****     if(0u == RTC_initVar)
  91:Generated_Source\PSoC4/RTC.c ****     {
  92:Generated_Source\PSoC4/RTC.c ****         RTC_Init();
  93:Generated_Source\PSoC4/RTC.c ****     }
  94:Generated_Source\PSoC4/RTC.c **** 
  95:Generated_Source\PSoC4/RTC.c ****     #if defined(CYDEV_RTC_SOURCE_WDT)
  96:Generated_Source\PSoC4/RTC.c ****         #if((0u != CYDEV_WDT_GENERATE_ISR) && (0u == RTC_INITIAL_UPDATE_MODE))
  97:Generated_Source\PSoC4/RTC.c ****             RTC_CySysRtcSetCallback(CYDEV_RTC_SOURCE_WDT);
  98:Generated_Source\PSoC4/RTC.c ****         #endif /* ((0u != CYDEV_WDT_GENERATE_ISR) && (0u == RTC_INITIAL_UPDATE_MODE)) */
  99:Generated_Source\PSoC4/RTC.c ****     #endif /* (CYDEV_RTC_SOURCE_WDT) */
 100:Generated_Source\PSoC4/RTC.c **** }
 101:Generated_Source\PSoC4/RTC.c **** 
 102:Generated_Source\PSoC4/RTC.c **** 
 103:Generated_Source\PSoC4/RTC.c **** /*******************************************************************************
 104:Generated_Source\PSoC4/RTC.c **** * Function Name: RTC_Stop
 105:Generated_Source\PSoC4/RTC.c **** ****************************************************************************//**
 106:Generated_Source\PSoC4/RTC.c **** *
 107:Generated_Source\PSoC4/RTC.c **** * Stops the time and date updates.
 108:Generated_Source\PSoC4/RTC.c **** *
 109:Generated_Source\PSoC4/RTC.c **** *******************************************************************************/
ARM GAS  C:\Users\Petro\AppData\Local\Temp\cc4bDtSi.s 			page 32


 110:Generated_Source\PSoC4/RTC.c **** void RTC_Stop(void)
 111:Generated_Source\PSoC4/RTC.c **** {
 320              		.loc 2 111 0
 321              		.cfi_startproc
 322              		@ args = 0, pretend = 0, frame = 0
 323              		@ frame_needed = 0, uses_anonymous_args = 0
 324              		@ link register save eliminated.
 112:Generated_Source\PSoC4/RTC.c ****     #if defined(CYDEV_RTC_SOURCE_WDT)
 113:Generated_Source\PSoC4/RTC.c ****         #if((0u != CYDEV_WDT_GENERATE_ISR) && (0u == RTC_INITIAL_UPDATE_MODE))
 114:Generated_Source\PSoC4/RTC.c ****             RTC_CySysRtcResetCallback(CYDEV_RTC_SOURCE_WDT);
 115:Generated_Source\PSoC4/RTC.c ****         #endif /* ((0u != CYDEV_WDT_GENERATE_ISR) && (0u == RTC_INITIAL_UPDATE_MODE)) */
 116:Generated_Source\PSoC4/RTC.c ****     #endif /* (CYDEV_RTC_SOURCE_WDT) */
 117:Generated_Source\PSoC4/RTC.c **** }
 325              		.loc 2 117 0
 326              		@ sp needed
 327 0000 7047     		bx	lr
 328              		.cfi_endproc
 329              	.LFE30:
 330              		.size	RTC_Stop, .-RTC_Stop
 331              		.section	.text.RTC_GetUnixTime,"ax",%progbits
 332              		.align	1
 333              		.global	RTC_GetUnixTime
 334              		.code	16
 335              		.thumb_func
 336              		.type	RTC_GetUnixTime, %function
 337              	RTC_GetUnixTime:
 338              	.LFB34:
 118:Generated_Source\PSoC4/RTC.c **** 
 119:Generated_Source\PSoC4/RTC.c **** 
 120:Generated_Source\PSoC4/RTC.c **** /*******************************************************************************
 121:Generated_Source\PSoC4/RTC.c **** * Function Name: RTC_Init
 122:Generated_Source\PSoC4/RTC.c **** ****************************************************************************//**
 123:Generated_Source\PSoC4/RTC.c **** *
 124:Generated_Source\PSoC4/RTC.c **** * Initializes or restores the component according to the customizer Configure
 125:Generated_Source\PSoC4/RTC.c **** * dialogue settings.
 126:Generated_Source\PSoC4/RTC.c **** *
 127:Generated_Source\PSoC4/RTC.c **** * It is not necessary to call RTC_Init() because RTC_Start() API calls this 
 128:Generated_Source\PSoC4/RTC.c **** * function and is the preferred method to begin component operation.
 129:Generated_Source\PSoC4/RTC.c **** *
 130:Generated_Source\PSoC4/RTC.c **** * All registers are set to values according to the customizer Configure
 131:Generated_Source\PSoC4/RTC.c **** * dialogue. The default date value, if not set by the user before this function
 132:Generated_Source\PSoC4/RTC.c **** * call, is 12:00:00 AM January 1, 2000.
 133:Generated_Source\PSoC4/RTC.c **** *
 134:Generated_Source\PSoC4/RTC.c **** *******************************************************************************/
 135:Generated_Source\PSoC4/RTC.c **** void RTC_Init(void)
 136:Generated_Source\PSoC4/RTC.c **** {
 137:Generated_Source\PSoC4/RTC.c ****     uint32 tmpDate;
 138:Generated_Source\PSoC4/RTC.c ****     uint32 tmpTime;
 139:Generated_Source\PSoC4/RTC.c **** 
 140:Generated_Source\PSoC4/RTC.c ****     #if(0u != RTC_INITIAL_DST_STATUS)
 141:Generated_Source\PSoC4/RTC.c ****         RTC_DST_TIME dstTimeTmp;
 142:Generated_Source\PSoC4/RTC.c ****     #endif /* (0u != RTC_INITIAL_DST_STATUS) */
 143:Generated_Source\PSoC4/RTC.c **** 
 144:Generated_Source\PSoC4/RTC.c ****     RTC_initVar = 1u;
 145:Generated_Source\PSoC4/RTC.c ****     RTC_dstTimeOffset = 0uL;
 146:Generated_Source\PSoC4/RTC.c ****     RTC_currentTimeDate.status = 0uL;
 147:Generated_Source\PSoC4/RTC.c **** 
ARM GAS  C:\Users\Petro\AppData\Local\Temp\cc4bDtSi.s 			page 33


 148:Generated_Source\PSoC4/RTC.c ****     RTC_dstStatus      = RTC_INITIAL_DST_STATUS;
 149:Generated_Source\PSoC4/RTC.c ****     RTC_alarmCurStatus = RTC_INITIAL_ALARM_STATUS;
 150:Generated_Source\PSoC4/RTC.c **** 
 151:Generated_Source\PSoC4/RTC.c ****     tmpDate = RTC_ConstructDate(RTC_INITIAL_MONTH,
 152:Generated_Source\PSoC4/RTC.c ****                                              RTC_INITIAL_DAY,
 153:Generated_Source\PSoC4/RTC.c ****                                              RTC_INITIAL_YEAR);
 154:Generated_Source\PSoC4/RTC.c **** 
 155:Generated_Source\PSoC4/RTC.c ****     tmpTime = RTC_ConstructTime(RTC_INITIAL_TIME_FORMAT,
 156:Generated_Source\PSoC4/RTC.c ****                                              0u,
 157:Generated_Source\PSoC4/RTC.c ****                                             RTC_INITIAL_HOUR,
 158:Generated_Source\PSoC4/RTC.c ****                                             RTC_INITIAL_MINUTE,
 159:Generated_Source\PSoC4/RTC.c ****                                             RTC_INITIAL_SECOND);
 160:Generated_Source\PSoC4/RTC.c **** 
 161:Generated_Source\PSoC4/RTC.c ****     #if(0u != RTC_INITIAL_DST_STATUS)
 162:Generated_Source\PSoC4/RTC.c ****         RTC_dstStatus = 0u;
 163:Generated_Source\PSoC4/RTC.c ****         RTC_currentTimeDate.status = (1uL << RTC_STATUS_DST_OFFSET);
 164:Generated_Source\PSoC4/RTC.c **** 
 165:Generated_Source\PSoC4/RTC.c ****         dstTimeTmp.timeFormat    = RTC_INITIAL_DST_DATE_TYPE;
 166:Generated_Source\PSoC4/RTC.c ****         dstTimeTmp.hour          = RTC_INITIAL_DST_START_HRS;
 167:Generated_Source\PSoC4/RTC.c ****         dstTimeTmp.dayOfWeek     = RTC_INITIAL_DST_START_DOW;
 168:Generated_Source\PSoC4/RTC.c ****         dstTimeTmp.weekOfMonth   = RTC_INITIAL_DST_START_WOM;
 169:Generated_Source\PSoC4/RTC.c ****         dstTimeTmp.dayOfMonth    = RTC_INITIAL_DST_START_DOM;
 170:Generated_Source\PSoC4/RTC.c ****         dstTimeTmp.month         = RTC_INITIAL_DST_START_MONTH;
 171:Generated_Source\PSoC4/RTC.c ****         RTC_SetDSTStartTime(&dstTimeTmp, 
 172:Generated_Source\PSoC4/RTC.c ****                                         (RTC_DST_DATETYPE_ENUM)RTC_INITIAL_DST_DATE_TYPE);
 173:Generated_Source\PSoC4/RTC.c **** 
 174:Generated_Source\PSoC4/RTC.c ****         dstTimeTmp.timeFormat    = RTC_INITIAL_DST_DATE_TYPE;
 175:Generated_Source\PSoC4/RTC.c ****         dstTimeTmp.hour          = RTC_INITIAL_DST_STOP_HRS;
 176:Generated_Source\PSoC4/RTC.c ****         dstTimeTmp.dayOfWeek     = RTC_INITIAL_DST_STOP_DOW;
 177:Generated_Source\PSoC4/RTC.c ****         dstTimeTmp.weekOfMonth   = RTC_INITIAL_DST_STOP_WOM;
 178:Generated_Source\PSoC4/RTC.c ****         dstTimeTmp.dayOfMonth    = RTC_INITIAL_DST_STOP_DOM;
 179:Generated_Source\PSoC4/RTC.c ****         dstTimeTmp.month         = RTC_INITIAL_DST_STOP_MONTH;
 180:Generated_Source\PSoC4/RTC.c ****         RTC_SetDSTStopTime(&dstTimeTmp, 
 181:Generated_Source\PSoC4/RTC.c ****                                        (RTC_DST_DATETYPE_ENUM)RTC_INITIAL_DST_DATE_TYPE);
 182:Generated_Source\PSoC4/RTC.c **** 
 183:Generated_Source\PSoC4/RTC.c ****         RTC_unixTimeDstStart = RTC_GetDstUnixTime(&RTC_dstStartTime);
 184:Generated_Source\PSoC4/RTC.c ****         RTC_unixTimeDstStop  = RTC_GetDstUnixTime(&RTC_dstStopTime);
 185:Generated_Source\PSoC4/RTC.c **** 
 186:Generated_Source\PSoC4/RTC.c ****         if((RTC_unixTime >= RTC_unixTimeDstStart) &&
 187:Generated_Source\PSoC4/RTC.c ****            (RTC_unixTime <= RTC_unixTimeDstStop))
 188:Generated_Source\PSoC4/RTC.c ****         {
 189:Generated_Source\PSoC4/RTC.c ****             RTC_dstStatus = 1u;
 190:Generated_Source\PSoC4/RTC.c ****             RTC_dstTimeOffset = RTC_SECONDS_PER_HOUR;
 191:Generated_Source\PSoC4/RTC.c ****         }
 192:Generated_Source\PSoC4/RTC.c ****     #endif /* (0u != RTC_INITIAL_DST_STATUS) */
 193:Generated_Source\PSoC4/RTC.c **** 
 194:Generated_Source\PSoC4/RTC.c ****     RTC_SetDateAndTime(tmpTime, tmpDate);
 195:Generated_Source\PSoC4/RTC.c **** }
 196:Generated_Source\PSoC4/RTC.c **** 
 197:Generated_Source\PSoC4/RTC.c **** 
 198:Generated_Source\PSoC4/RTC.c **** /*******************************************************************************
 199:Generated_Source\PSoC4/RTC.c **** * Function Name: RTC_SetDateAndTime
 200:Generated_Source\PSoC4/RTC.c **** ****************************************************************************//**
 201:Generated_Source\PSoC4/RTC.c **** *
 202:Generated_Source\PSoC4/RTC.c **** * Sets the time and date values as the current time and date.
 203:Generated_Source\PSoC4/RTC.c **** *
 204:Generated_Source\PSoC4/RTC.c **** * \param inputTime
ARM GAS  C:\Users\Petro\AppData\Local\Temp\cc4bDtSi.s 			page 34


 205:Generated_Source\PSoC4/RTC.c **** * The time value in the HH:MM:SS format. <br>
 206:Generated_Source\PSoC4/RTC.c **** * "HH"- The 2nd 8-bit MSB that denotes the hour value.
 207:Generated_Source\PSoC4/RTC.c **** * (0-23 for the 24-hour format and 1-12 for the 12-hour format. The MSB bit of 
 208:Generated_Source\PSoC4/RTC.c **** * the value denotes AM/PM for the 12-hour format (0-AM and 1-PM). <br>
 209:Generated_Source\PSoC4/RTC.c **** * "MM" - The 3nd 8-bit MSB denotes the minutes value, the valid 
 210:Generated_Source\PSoC4/RTC.c **** * entries -> 0-59.<br>
 211:Generated_Source\PSoC4/RTC.c **** * "SS" - The 8-bit LSB denotes the seconds value, the valid entries -> 0-59.
 212:Generated_Source\PSoC4/RTC.c **** * Each byte is in the BCD format. Invalid time entries retain the
 213:Generated_Source\PSoC4/RTC.c **** * previously set values.
 214:Generated_Source\PSoC4/RTC.c **** *
 215:Generated_Source\PSoC4/RTC.c **** * \param inputDate
 216:Generated_Source\PSoC4/RTC.c **** * The date value in the format selected in the customizer.
 217:Generated_Source\PSoC4/RTC.c **** * For the MM/DD/YYYY format: <br>
 218:Generated_Source\PSoC4/RTC.c **** * "MM" - The 8-bit MSB denotes the month value in BCD, the valid 
 219:Generated_Source\PSoC4/RTC.c **** * entries -> 1-12<br>
 220:Generated_Source\PSoC4/RTC.c **** * "DD" - The 2nd 8-bit MSB denotes a day of the month value in BCD, the valid
 221:Generated_Source\PSoC4/RTC.c **** * entries -> 1-31.<br>
 222:Generated_Source\PSoC4/RTC.c **** * "YYYY" - The 16-bit LSB denotes a year in BCD, the valid entries -> 1900-2200.
 223:Generated_Source\PSoC4/RTC.c **** * Each byte is in the BCD format. Invalid date entries retain the
 224:Generated_Source\PSoC4/RTC.c **** * previously set values.
 225:Generated_Source\PSoC4/RTC.c **** *
 226:Generated_Source\PSoC4/RTC.c **** *******************************************************************************/
 227:Generated_Source\PSoC4/RTC.c **** void RTC_SetDateAndTime(uint32 inputTime, uint32 inputDate)
 228:Generated_Source\PSoC4/RTC.c **** {
 229:Generated_Source\PSoC4/RTC.c ****     uint32 tmpDay;
 230:Generated_Source\PSoC4/RTC.c ****     uint32 tmpMonth;
 231:Generated_Source\PSoC4/RTC.c ****     uint32 tmpYear;
 232:Generated_Source\PSoC4/RTC.c **** 
 233:Generated_Source\PSoC4/RTC.c ****     tmpDay   = RTC_GetDay(inputDate);
 234:Generated_Source\PSoC4/RTC.c ****     tmpMonth = RTC_GetMonth(inputDate);
 235:Generated_Source\PSoC4/RTC.c ****     tmpYear  = RTC_GetYear(inputDate);
 236:Generated_Source\PSoC4/RTC.c **** 
 237:Generated_Source\PSoC4/RTC.c ****     RTC_unixTime = RTC_DateTimeToUnix(inputDate, inputTime);
 238:Generated_Source\PSoC4/RTC.c ****     RTC_currentTimeDate.date = inputDate;
 239:Generated_Source\PSoC4/RTC.c ****     RTC_currentTimeDate.time = inputTime;
 240:Generated_Source\PSoC4/RTC.c ****     RTC_currentTimeDate.dayOfWeek = RTC_GetDayOfWeek(tmpDay, tmpMonth, tmpYear);
 241:Generated_Source\PSoC4/RTC.c **** 
 242:Generated_Source\PSoC4/RTC.c ****     #if(0u != RTC_INITIAL_DST_STATUS)
 243:Generated_Source\PSoC4/RTC.c ****         RTC_unixTimeDstStart = RTC_GetDstUnixTime(&RTC_dstStartTime);
 244:Generated_Source\PSoC4/RTC.c ****         RTC_unixTimeDstStop  = RTC_GetDstUnixTime(&RTC_dstStopTime);
 245:Generated_Source\PSoC4/RTC.c **** 
 246:Generated_Source\PSoC4/RTC.c ****         if((RTC_unixTime >= RTC_unixTimeDstStart) &&
 247:Generated_Source\PSoC4/RTC.c ****            (RTC_unixTime <= RTC_unixTimeDstStop))
 248:Generated_Source\PSoC4/RTC.c ****         {
 249:Generated_Source\PSoC4/RTC.c ****             RTC_dstStatus = 1u;
 250:Generated_Source\PSoC4/RTC.c ****             RTC_dstTimeOffset = RTC_SECONDS_PER_HOUR;
 251:Generated_Source\PSoC4/RTC.c ****             RTC_unixTime -= RTC_dstTimeOffset;
 252:Generated_Source\PSoC4/RTC.c ****         }
 253:Generated_Source\PSoC4/RTC.c ****         else
 254:Generated_Source\PSoC4/RTC.c ****         {
 255:Generated_Source\PSoC4/RTC.c ****             RTC_dstStatus = 0u;
 256:Generated_Source\PSoC4/RTC.c ****             RTC_dstTimeOffset = 0uL;
 257:Generated_Source\PSoC4/RTC.c ****         }
 258:Generated_Source\PSoC4/RTC.c ****     #endif /* (0u != RTC_INITIAL_DST_STATUS) */
 259:Generated_Source\PSoC4/RTC.c **** 
 260:Generated_Source\PSoC4/RTC.c ****     #if(0u != RTC_INITIAL_ALARM_STATUS)
 261:Generated_Source\PSoC4/RTC.c ****         RTC_unixTimeAlarm = RTC_ConstructUnixAlarmTime(&RTC_alarmCfgTimeDate,
ARM GAS  C:\Users\Petro\AppData\Local\Temp\cc4bDtSi.s 			page 35


 262:Generated_Source\PSoC4/RTC.c ****                                                                                  (uint8)RTC_alarmCf
 263:Generated_Source\PSoC4/RTC.c ****     #endif /* (0u != RTC_INITIAL_ALARM_STATUS) */
 264:Generated_Source\PSoC4/RTC.c **** }
 265:Generated_Source\PSoC4/RTC.c **** 
 266:Generated_Source\PSoC4/RTC.c **** 
 267:Generated_Source\PSoC4/RTC.c **** /*******************************************************************************
 268:Generated_Source\PSoC4/RTC.c **** * Function Name: RTC_SetUnixTime
 269:Generated_Source\PSoC4/RTC.c **** ****************************************************************************//**
 270:Generated_Source\PSoC4/RTC.c **** *
 271:Generated_Source\PSoC4/RTC.c **** * Sets the time in the Unix/Epoch time format - the number of seconds elapsed
 272:Generated_Source\PSoC4/RTC.c **** * from January 1, 1970 UTC 00:00 hrs.
 273:Generated_Source\PSoC4/RTC.c **** *
 274:Generated_Source\PSoC4/RTC.c **** * \param time
 275:Generated_Source\PSoC4/RTC.c **** * The time value in the Unix time/Epoch time format.
 276:Generated_Source\PSoC4/RTC.c **** *
 277:Generated_Source\PSoC4/RTC.c **** *******************************************************************************/
 278:Generated_Source\PSoC4/RTC.c **** void RTC_SetUnixTime(uint64 unixTime)
 279:Generated_Source\PSoC4/RTC.c **** {
 280:Generated_Source\PSoC4/RTC.c ****     RTC_DATE_TIME tmpDateTime;
 281:Generated_Source\PSoC4/RTC.c **** 
 282:Generated_Source\PSoC4/RTC.c ****     RTC_unixTime = unixTime;
 283:Generated_Source\PSoC4/RTC.c ****     RTC_UnixToDateTime(&tmpDateTime, unixTime, (uint32)RTC_24_HOURS_FORMAT);
 284:Generated_Source\PSoC4/RTC.c **** 
 285:Generated_Source\PSoC4/RTC.c ****     #if(0u != RTC_INITIAL_DST_STATUS)
 286:Generated_Source\PSoC4/RTC.c ****         RTC_unixTimeDstStart = RTC_GetDstUnixTime(&RTC_dstStartTime);
 287:Generated_Source\PSoC4/RTC.c ****         RTC_unixTimeDstStop  = RTC_GetDstUnixTime(&RTC_dstStopTime);
 288:Generated_Source\PSoC4/RTC.c **** 
 289:Generated_Source\PSoC4/RTC.c ****         if((RTC_unixTime >= RTC_unixTimeDstStart) &&
 290:Generated_Source\PSoC4/RTC.c ****            (RTC_unixTime <= RTC_unixTimeDstStop))
 291:Generated_Source\PSoC4/RTC.c ****         {
 292:Generated_Source\PSoC4/RTC.c ****             RTC_dstStatus = 1u;
 293:Generated_Source\PSoC4/RTC.c ****             RTC_dstTimeOffset = RTC_SECONDS_PER_HOUR;
 294:Generated_Source\PSoC4/RTC.c ****         }
 295:Generated_Source\PSoC4/RTC.c ****         else
 296:Generated_Source\PSoC4/RTC.c ****         {
 297:Generated_Source\PSoC4/RTC.c ****             RTC_dstStatus = 0u;
 298:Generated_Source\PSoC4/RTC.c ****             RTC_dstTimeOffset = 0uL;
 299:Generated_Source\PSoC4/RTC.c ****         }
 300:Generated_Source\PSoC4/RTC.c ****     #endif /* (0u != RTC_INITIAL_DST_STATUS) */
 301:Generated_Source\PSoC4/RTC.c **** }
 302:Generated_Source\PSoC4/RTC.c **** 
 303:Generated_Source\PSoC4/RTC.c **** 
 304:Generated_Source\PSoC4/RTC.c **** /*******************************************************************************
 305:Generated_Source\PSoC4/RTC.c **** * Function Name: RTC_GetUnixTime
 306:Generated_Source\PSoC4/RTC.c **** ****************************************************************************//**
 307:Generated_Source\PSoC4/RTC.c **** *
 308:Generated_Source\PSoC4/RTC.c **** * Returns the time in the Unix/Epoch time format - the number of seconds 
 309:Generated_Source\PSoC4/RTC.c **** * elapsed from January 1, 1970 UTC 00:00 hrs.
 310:Generated_Source\PSoC4/RTC.c **** *
 311:Generated_Source\PSoC4/RTC.c **** * \return
 312:Generated_Source\PSoC4/RTC.c **** * Time The time value in the Unix time/Epoch time format.
 313:Generated_Source\PSoC4/RTC.c **** *
 314:Generated_Source\PSoC4/RTC.c **** *******************************************************************************/
 315:Generated_Source\PSoC4/RTC.c **** uint64 RTC_GetUnixTime(void)
 316:Generated_Source\PSoC4/RTC.c **** {
 339              		.loc 2 316 0
 340              		.cfi_startproc
ARM GAS  C:\Users\Petro\AppData\Local\Temp\cc4bDtSi.s 			page 36


 341              		@ args = 0, pretend = 0, frame = 0
 342              		@ frame_needed = 0, uses_anonymous_args = 0
 343              		@ link register save eliminated.
 317:Generated_Source\PSoC4/RTC.c ****     return (RTC_unixTime);
 344              		.loc 2 317 0
 345 0000 014B     		ldr	r3, .L13
 318:Generated_Source\PSoC4/RTC.c **** }
 346              		.loc 2 318 0
 347              		@ sp needed
 317:Generated_Source\PSoC4/RTC.c ****     return (RTC_unixTime);
 348              		.loc 2 317 0
 349 0002 1868     		ldr	r0, [r3]
 350 0004 5968     		ldr	r1, [r3, #4]
 351              		.loc 2 318 0
 352 0006 7047     		bx	lr
 353              	.L14:
 354              		.align	2
 355              	.L13:
 356 0008 00000000 		.word	RTC_unixTime
 357              		.cfi_endproc
 358              	.LFE34:
 359              		.size	RTC_GetUnixTime, .-RTC_GetUnixTime
 360              		.section	.text.RTC_SetPeriod,"ax",%progbits
 361              		.align	1
 362              		.global	RTC_SetPeriod
 363              		.code	16
 364              		.thumb_func
 365              		.type	RTC_SetPeriod, %function
 366              	RTC_SetPeriod:
 367              	.LFB35:
 319:Generated_Source\PSoC4/RTC.c **** 
 320:Generated_Source\PSoC4/RTC.c **** 
 321:Generated_Source\PSoC4/RTC.c **** /*******************************************************************************
 322:Generated_Source\PSoC4/RTC.c **** * Function Name: RTC_SetPeriod
 323:Generated_Source\PSoC4/RTC.c **** ****************************************************************************//**
 324:Generated_Source\PSoC4/RTC.c **** *
 325:Generated_Source\PSoC4/RTC.c **** * Sets the RTC time update API period.
 326:Generated_Source\PSoC4/RTC.c **** *
 327:Generated_Source\PSoC4/RTC.c **** * The user needs to pass the period as
 328:Generated_Source\PSoC4/RTC.c **** * a number of ticks and also a reference number of ticks taken by the same 
 329:Generated_Source\PSoC4/RTC.c **** * clock source for one second. For instance, for a 32 kHz clock source and RTC
 330:Generated_Source\PSoC4/RTC.c **** * period of 100 ms, the "ticks" value is 3200 and the "refOneSecTicks" value
 331:Generated_Source\PSoC4/RTC.c **** * is 32000. This value is used to increment the time every time
 332:Generated_Source\PSoC4/RTC.c **** * RTC_Update() API is called.
 333:Generated_Source\PSoC4/RTC.c **** *
 334:Generated_Source\PSoC4/RTC.c **** * \param ticks
 335:Generated_Source\PSoC4/RTC.c **** * The clock period taken as a number of ticks.
 336:Generated_Source\PSoC4/RTC.c **** *
 337:Generated_Source\PSoC4/RTC.c **** * \param refOneSecTicks
 338:Generated_Source\PSoC4/RTC.c **** * The reference number of ticks taken by the same clock source
 339:Generated_Source\PSoC4/RTC.c **** * for one second (the input clock frequency in Hz).
 340:Generated_Source\PSoC4/RTC.c **** *
 341:Generated_Source\PSoC4/RTC.c **** *******************************************************************************/
 342:Generated_Source\PSoC4/RTC.c **** void RTC_SetPeriod(uint32 ticks, uint32 refOneSecTicks)
 343:Generated_Source\PSoC4/RTC.c **** {
 368              		.loc 2 343 0
 369              		.cfi_startproc
ARM GAS  C:\Users\Petro\AppData\Local\Temp\cc4bDtSi.s 			page 37


 370              		@ args = 0, pretend = 0, frame = 0
 371              		@ frame_needed = 0, uses_anonymous_args = 0
 372              		@ link register save eliminated.
 373              	.LVL49:
 344:Generated_Source\PSoC4/RTC.c ****     RTC_updateTimePeriod = ticks;
 374              		.loc 2 344 0
 375 0000 014B     		ldr	r3, .L16
 345:Generated_Source\PSoC4/RTC.c ****     RTC_tickRefOneSec    = refOneSecTicks;
 346:Generated_Source\PSoC4/RTC.c **** }
 376              		.loc 2 346 0
 377              		@ sp needed
 345:Generated_Source\PSoC4/RTC.c ****     RTC_tickRefOneSec    = refOneSecTicks;
 378              		.loc 2 345 0
 379 0002 03C3     		stmia	r3!, {r0, r1}
 380              		.loc 2 346 0
 381 0004 7047     		bx	lr
 382              	.L17:
 383 0006 C046     		.align	2
 384              	.L16:
 385 0008 00000000 		.word	.LANCHOR0
 386              		.cfi_endproc
 387              	.LFE35:
 388              		.size	RTC_SetPeriod, .-RTC_SetPeriod
 389              		.section	.text.RTC_GetPeriod,"ax",%progbits
 390              		.align	1
 391              		.global	RTC_GetPeriod
 392              		.code	16
 393              		.thumb_func
 394              		.type	RTC_GetPeriod, %function
 395              	RTC_GetPeriod:
 396              	.LFB36:
 347:Generated_Source\PSoC4/RTC.c **** 
 348:Generated_Source\PSoC4/RTC.c **** 
 349:Generated_Source\PSoC4/RTC.c **** /*******************************************************************************
 350:Generated_Source\PSoC4/RTC.c **** * Function Name: RTC_SetPeriod
 351:Generated_Source\PSoC4/RTC.c **** ****************************************************************************//**
 352:Generated_Source\PSoC4/RTC.c **** *
 353:Generated_Source\PSoC4/RTC.c **** * Gets the RTC time update API period.
 354:Generated_Source\PSoC4/RTC.c **** *
 355:Generated_Source\PSoC4/RTC.c **** * \return
 356:Generated_Source\PSoC4/RTC.c **** * Period The clock period taken as a number of ticks.
 357:Generated_Source\PSoC4/RTC.c **** *
 358:Generated_Source\PSoC4/RTC.c **** *******************************************************************************/
 359:Generated_Source\PSoC4/RTC.c **** uint32 RTC_GetPeriod(void)
 360:Generated_Source\PSoC4/RTC.c **** {
 397              		.loc 2 360 0
 398              		.cfi_startproc
 399              		@ args = 0, pretend = 0, frame = 0
 400              		@ frame_needed = 0, uses_anonymous_args = 0
 401              		@ link register save eliminated.
 361:Generated_Source\PSoC4/RTC.c ****     return(RTC_updateTimePeriod);
 402              		.loc 2 361 0
 403 0000 014B     		ldr	r3, .L19
 362:Generated_Source\PSoC4/RTC.c **** }
 404              		.loc 2 362 0
 405              		@ sp needed
 361:Generated_Source\PSoC4/RTC.c ****     return(RTC_updateTimePeriod);
ARM GAS  C:\Users\Petro\AppData\Local\Temp\cc4bDtSi.s 			page 38


 406              		.loc 2 361 0
 407 0002 1868     		ldr	r0, [r3]
 408              		.loc 2 362 0
 409 0004 7047     		bx	lr
 410              	.L20:
 411 0006 C046     		.align	2
 412              	.L19:
 413 0008 00000000 		.word	.LANCHOR0
 414              		.cfi_endproc
 415              	.LFE36:
 416              		.size	RTC_GetPeriod, .-RTC_GetPeriod
 417              		.section	.text.RTC_GetRefOneSec,"ax",%progbits
 418              		.align	1
 419              		.global	RTC_GetRefOneSec
 420              		.code	16
 421              		.thumb_func
 422              		.type	RTC_GetRefOneSec, %function
 423              	RTC_GetRefOneSec:
 424              	.LFB37:
 363:Generated_Source\PSoC4/RTC.c **** 
 364:Generated_Source\PSoC4/RTC.c **** 
 365:Generated_Source\PSoC4/RTC.c **** /*******************************************************************************
 366:Generated_Source\PSoC4/RTC.c **** * Function Name: RTC_GetRefOneSec
 367:Generated_Source\PSoC4/RTC.c **** ****************************************************************************//**
 368:Generated_Source\PSoC4/RTC.c **** *
 369:Generated_Source\PSoC4/RTC.c **** * Gets the RTC time update API period.
 370:Generated_Source\PSoC4/RTC.c **** *
 371:Generated_Source\PSoC4/RTC.c **** * \return
 372:Generated_Source\PSoC4/RTC.c **** * Period The reference number of ticks taken by the RTC clock source for one
 373:Generated_Source\PSoC4/RTC.c **** * second.
 374:Generated_Source\PSoC4/RTC.c **** *
 375:Generated_Source\PSoC4/RTC.c **** *******************************************************************************/
 376:Generated_Source\PSoC4/RTC.c **** uint32 RTC_GetRefOneSec(void)
 377:Generated_Source\PSoC4/RTC.c **** {
 425              		.loc 2 377 0
 426              		.cfi_startproc
 427              		@ args = 0, pretend = 0, frame = 0
 428              		@ frame_needed = 0, uses_anonymous_args = 0
 429              		@ link register save eliminated.
 378:Generated_Source\PSoC4/RTC.c ****     return(RTC_tickRefOneSec);
 430              		.loc 2 378 0
 431 0000 014B     		ldr	r3, .L22
 379:Generated_Source\PSoC4/RTC.c **** }
 432              		.loc 2 379 0
 433              		@ sp needed
 378:Generated_Source\PSoC4/RTC.c ****     return(RTC_tickRefOneSec);
 434              		.loc 2 378 0
 435 0002 5868     		ldr	r0, [r3, #4]
 436              		.loc 2 379 0
 437 0004 7047     		bx	lr
 438              	.L23:
 439 0006 C046     		.align	2
 440              	.L22:
 441 0008 00000000 		.word	.LANCHOR0
 442              		.cfi_endproc
 443              	.LFE37:
 444              		.size	RTC_GetRefOneSec, .-RTC_GetRefOneSec
ARM GAS  C:\Users\Petro\AppData\Local\Temp\cc4bDtSi.s 			page 39


 445              		.section	.text.RTC_ConvertBCDToDec,"ax",%progbits
 446              		.align	1
 447              		.global	RTC_ConvertBCDToDec
 448              		.code	16
 449              		.thumb_func
 450              		.type	RTC_ConvertBCDToDec, %function
 451              	RTC_ConvertBCDToDec:
 452              	.LFB42:
 380:Generated_Source\PSoC4/RTC.c **** 
 381:Generated_Source\PSoC4/RTC.c **** 
 382:Generated_Source\PSoC4/RTC.c **** /*******************************************************************************
 383:Generated_Source\PSoC4/RTC.c **** * Function Name: RTC_GetDateAndTime
 384:Generated_Source\PSoC4/RTC.c **** ****************************************************************************//**
 385:Generated_Source\PSoC4/RTC.c **** *
 386:Generated_Source\PSoC4/RTC.c **** * Reads the current time and date.
 387:Generated_Source\PSoC4/RTC.c **** *
 388:Generated_Source\PSoC4/RTC.c **** * \param dateTime
 389:Generated_Source\PSoC4/RTC.c **** * The pointer to the RTC_date_time structure to which time and date is returned.
 390:Generated_Source\PSoC4/RTC.c **** *
 391:Generated_Source\PSoC4/RTC.c **** *******************************************************************************/
 392:Generated_Source\PSoC4/RTC.c **** void RTC_GetDateAndTime(RTC_DATE_TIME* dateTime)
 393:Generated_Source\PSoC4/RTC.c **** {
 394:Generated_Source\PSoC4/RTC.c ****     RTC_UnixToDateTime(dateTime, (RTC_unixTime  + RTC_dstTimeOffset),
 395:Generated_Source\PSoC4/RTC.c ****                                                                             RTC_INITIAL_TIME_FORMAT
 396:Generated_Source\PSoC4/RTC.c **** }
 397:Generated_Source\PSoC4/RTC.c **** 
 398:Generated_Source\PSoC4/RTC.c **** 
 399:Generated_Source\PSoC4/RTC.c **** /*******************************************************************************
 400:Generated_Source\PSoC4/RTC.c **** * Function Name: RTC_GetTime
 401:Generated_Source\PSoC4/RTC.c **** ****************************************************************************//**
 402:Generated_Source\PSoC4/RTC.c **** *
 403:Generated_Source\PSoC4/RTC.c **** * Reads the current time.
 404:Generated_Source\PSoC4/RTC.c **** *
 405:Generated_Source\PSoC4/RTC.c **** * \return
 406:Generated_Source\PSoC4/RTC.c **** * date The value of date in the user selected format. The date value is 
 407:Generated_Source\PSoC4/RTC.c **** * available in the BCD format.
 408:Generated_Source\PSoC4/RTC.c **** *
 409:Generated_Source\PSoC4/RTC.c **** * \warning
 410:Generated_Source\PSoC4/RTC.c **** * Using RTC_GetTime and RTC_GetDate API separately might result
 411:Generated_Source\PSoC4/RTC.c **** * in errors when the time wraps around the end of the day. To avoid this,
 412:Generated_Source\PSoC4/RTC.c **** * use RTC_GetDateAndTime API.
 413:Generated_Source\PSoC4/RTC.c **** *
 414:Generated_Source\PSoC4/RTC.c **** *******************************************************************************/
 415:Generated_Source\PSoC4/RTC.c **** uint32 RTC_GetTime(void)
 416:Generated_Source\PSoC4/RTC.c **** {
 417:Generated_Source\PSoC4/RTC.c ****     RTC_UnixToDateTime(&RTC_currentTimeDate,
 418:Generated_Source\PSoC4/RTC.c ****                                     (RTC_unixTime  + RTC_dstTimeOffset),
 419:Generated_Source\PSoC4/RTC.c ****                                      RTC_INITIAL_TIME_FORMAT);
 420:Generated_Source\PSoC4/RTC.c **** 
 421:Generated_Source\PSoC4/RTC.c ****     return(RTC_currentTimeDate.time);
 422:Generated_Source\PSoC4/RTC.c **** }
 423:Generated_Source\PSoC4/RTC.c **** 
 424:Generated_Source\PSoC4/RTC.c **** 
 425:Generated_Source\PSoC4/RTC.c **** /*******************************************************************************
 426:Generated_Source\PSoC4/RTC.c **** * Function Name: RTC_GetDate
 427:Generated_Source\PSoC4/RTC.c **** ****************************************************************************//**
 428:Generated_Source\PSoC4/RTC.c **** *
ARM GAS  C:\Users\Petro\AppData\Local\Temp\cc4bDtSi.s 			page 40


 429:Generated_Source\PSoC4/RTC.c **** * Reads the current time.
 430:Generated_Source\PSoC4/RTC.c **** *
 431:Generated_Source\PSoC4/RTC.c **** * \return
 432:Generated_Source\PSoC4/RTC.c **** * time The time value in the format selected by the user (12/24 hr);
 433:Generated_Source\PSoC4/RTC.c **** * The time value is available in the BCD format.
 434:Generated_Source\PSoC4/RTC.c **** *
 435:Generated_Source\PSoC4/RTC.c **** * \note
 436:Generated_Source\PSoC4/RTC.c **** * Using RTC_GetTime and RTC_GetDate API separately
 437:Generated_Source\PSoC4/RTC.c **** * might result in errors when the time wraps around the end of the day. To
 438:Generated_Source\PSoC4/RTC.c **** * avoid this, use RTC_GetDateAndTime API.
 439:Generated_Source\PSoC4/RTC.c **** *
 440:Generated_Source\PSoC4/RTC.c **** *******************************************************************************/
 441:Generated_Source\PSoC4/RTC.c **** uint32 RTC_GetDate(void)
 442:Generated_Source\PSoC4/RTC.c **** {
 443:Generated_Source\PSoC4/RTC.c ****     RTC_UnixToDateTime(&RTC_currentTimeDate,
 444:Generated_Source\PSoC4/RTC.c ****                                     (RTC_unixTime  + RTC_dstTimeOffset),
 445:Generated_Source\PSoC4/RTC.c ****                                      RTC_INITIAL_TIME_FORMAT);
 446:Generated_Source\PSoC4/RTC.c **** 
 447:Generated_Source\PSoC4/RTC.c ****     return(RTC_currentTimeDate.date);
 448:Generated_Source\PSoC4/RTC.c **** }
 449:Generated_Source\PSoC4/RTC.c **** 
 450:Generated_Source\PSoC4/RTC.c **** 
 451:Generated_Source\PSoC4/RTC.c **** #if(0u != RTC_INITIAL_ALARM_STATUS)
 452:Generated_Source\PSoC4/RTC.c ****     /*******************************************************************************
 453:Generated_Source\PSoC4/RTC.c ****     * Function Name: RTC_SetAlarmDateAndTime
 454:Generated_Source\PSoC4/RTC.c ****     ****************************************************************************//**
 455:Generated_Source\PSoC4/RTC.c ****     *
 456:Generated_Source\PSoC4/RTC.c ****     * Writes the time and date values as the current alarm time and date.
 457:Generated_Source\PSoC4/RTC.c ****     *
 458:Generated_Source\PSoC4/RTC.c ****     * \param alarmTime
 459:Generated_Source\PSoC4/RTC.c ****     * The pointer to the RTC_date_time global structure 
 460:Generated_Source\PSoC4/RTC.c ****     * where new values of the alarm time and date are stored, 
 461:Generated_Source\PSoC4/RTC.c ****     * see \ref RTC_DATE_TIME.
 462:Generated_Source\PSoC4/RTC.c ****     *
 463:Generated_Source\PSoC4/RTC.c ****     * \note
 464:Generated_Source\PSoC4/RTC.c ****     * Invalid time entries are written with "00:00:00:00" for the 24-hour format 
 465:Generated_Source\PSoC4/RTC.c ****     * and "AM 12:00:00:00" for the 12-hour format. Invalid date entries are 
 466:Generated_Source\PSoC4/RTC.c ****     * written with a date equivalent to 01-JAN-2000.
 467:Generated_Source\PSoC4/RTC.c ****     *
 468:Generated_Source\PSoC4/RTC.c ****     *******************************************************************************/
 469:Generated_Source\PSoC4/RTC.c ****     void RTC_SetAlarmDateAndTime(const RTC_DATE_TIME* alarmTime)
 470:Generated_Source\PSoC4/RTC.c ****     {
 471:Generated_Source\PSoC4/RTC.c ****         RTC_alarmCfgTimeDate = *alarmTime;
 472:Generated_Source\PSoC4/RTC.c ****         RTC_unixTimeAlarm = 
 473:Generated_Source\PSoC4/RTC.c ****         RTC_ConstructUnixAlarmTime(alarmTime, (uint8)RTC_alarmCfgMask);
 474:Generated_Source\PSoC4/RTC.c ****     }
 475:Generated_Source\PSoC4/RTC.c **** 
 476:Generated_Source\PSoC4/RTC.c **** 
 477:Generated_Source\PSoC4/RTC.c ****     /*******************************************************************************
 478:Generated_Source\PSoC4/RTC.c ****     * Function Name: RTC_GetAlarmDateAndTime
 479:Generated_Source\PSoC4/RTC.c ****     ****************************************************************************//**
 480:Generated_Source\PSoC4/RTC.c ****     *
 481:Generated_Source\PSoC4/RTC.c ****     * Reads the current alarm time and date.
 482:Generated_Source\PSoC4/RTC.c ****     *
 483:Generated_Source\PSoC4/RTC.c ****     * \param alarmTimeDate
 484:Generated_Source\PSoC4/RTC.c ****     * The pointer to the RTC_date_time structure to which the alarm 
 485:Generated_Source\PSoC4/RTC.c ****     * date and time are returned, see \ref RTC_DATE_TIME.
ARM GAS  C:\Users\Petro\AppData\Local\Temp\cc4bDtSi.s 			page 41


 486:Generated_Source\PSoC4/RTC.c ****     *
 487:Generated_Source\PSoC4/RTC.c ****     *******************************************************************************/
 488:Generated_Source\PSoC4/RTC.c ****     void RTC_GetAlarmDateAndTime(RTC_DATE_TIME* alarmTimeDate)
 489:Generated_Source\PSoC4/RTC.c ****     {
 490:Generated_Source\PSoC4/RTC.c ****         *alarmTimeDate = RTC_alarmCfgTimeDate;
 491:Generated_Source\PSoC4/RTC.c ****     }
 492:Generated_Source\PSoC4/RTC.c **** 
 493:Generated_Source\PSoC4/RTC.c **** 
 494:Generated_Source\PSoC4/RTC.c ****     /*******************************************************************************
 495:Generated_Source\PSoC4/RTC.c ****     * Function Name: RTC_SetAlarmMask
 496:Generated_Source\PSoC4/RTC.c ****     ****************************************************************************//**
 497:Generated_Source\PSoC4/RTC.c ****     *
 498:Generated_Source\PSoC4/RTC.c ****     * Writes the Alarm Mask software register with one bit per time/date entry.
 499:Generated_Source\PSoC4/RTC.c ****     * The alarm is true when all masked time/date values match the Alarm values.
 500:Generated_Source\PSoC4/RTC.c ****     * Generated only if the alarm functionality is enabled.
 501:Generated_Source\PSoC4/RTC.c ****     *
 502:Generated_Source\PSoC4/RTC.c ****     * \param mask
 503:Generated_Source\PSoC4/RTC.c ****     * The Alarm Mask software register value. The values shown below can be
 504:Generated_Source\PSoC4/RTC.c ****     * OR'ed and passed as an argument as well, see \ref group_rtc_alarm_mask.
 505:Generated_Source\PSoC4/RTC.c ****     *
 506:Generated_Source\PSoC4/RTC.c ****     *******************************************************************************/
 507:Generated_Source\PSoC4/RTC.c ****     void RTC_SetAlarmMask(uint32 mask)
 508:Generated_Source\PSoC4/RTC.c ****     {
 509:Generated_Source\PSoC4/RTC.c ****         RTC_alarmCfgMask = (uint8)mask;
 510:Generated_Source\PSoC4/RTC.c ****         RTC_unixTimeAlarm = 
 511:Generated_Source\PSoC4/RTC.c ****         RTC_ConstructUnixAlarmTime(&RTC_alarmCfgTimeDate, (uint8)mask);
 512:Generated_Source\PSoC4/RTC.c ****     }
 513:Generated_Source\PSoC4/RTC.c **** 
 514:Generated_Source\PSoC4/RTC.c **** 
 515:Generated_Source\PSoC4/RTC.c ****     /*******************************************************************************
 516:Generated_Source\PSoC4/RTC.c ****     * Function Name: RTC_GetAlarmMask
 517:Generated_Source\PSoC4/RTC.c ****     ****************************************************************************//**
 518:Generated_Source\PSoC4/RTC.c ****     *
 519:Generated_Source\PSoC4/RTC.c ****     * Reads the Alarm Mask software register. Generated only if the alarm 
 520:Generated_Source\PSoC4/RTC.c ****     * functionality is enabled, see \ref group_rtc_alarm_mask.
 521:Generated_Source\PSoC4/RTC.c ****     *
 522:Generated_Source\PSoC4/RTC.c ****     *******************************************************************************/
 523:Generated_Source\PSoC4/RTC.c ****     uint32 RTC_GetAlarmMask(void)
 524:Generated_Source\PSoC4/RTC.c ****     {
 525:Generated_Source\PSoC4/RTC.c ****         return((uint32)RTC_alarmCfgMask);
 526:Generated_Source\PSoC4/RTC.c ****     }
 527:Generated_Source\PSoC4/RTC.c **** 
 528:Generated_Source\PSoC4/RTC.c **** 
 529:Generated_Source\PSoC4/RTC.c ****     /*******************************************************************************
 530:Generated_Source\PSoC4/RTC.c ****     * Function Name: RTC_GetAlarmStatus
 531:Generated_Source\PSoC4/RTC.c ****     ****************************************************************************//**
 532:Generated_Source\PSoC4/RTC.c ****     *
 533:Generated_Source\PSoC4/RTC.c ****     *  Returns the alarm status of RTC.
 534:Generated_Source\PSoC4/RTC.c ****     *
 535:Generated_Source\PSoC4/RTC.c ****     * \return
 536:Generated_Source\PSoC4/RTC.c ****     * The Alarm active status. This bit is high when the current time and date 
 537:Generated_Source\PSoC4/RTC.c ****     * match the alarm time and date. <br>
 538:Generated_Source\PSoC4/RTC.c ****     * 0 - The Alarm status is not active <br>
 539:Generated_Source\PSoC4/RTC.c ****     * 1 - The Alarm status is active.
 540:Generated_Source\PSoC4/RTC.c ****     *
 541:Generated_Source\PSoC4/RTC.c ****     *******************************************************************************/
 542:Generated_Source\PSoC4/RTC.c ****     uint32 RTC_GetAlarmStatus(void)
ARM GAS  C:\Users\Petro\AppData\Local\Temp\cc4bDtSi.s 			page 42


 543:Generated_Source\PSoC4/RTC.c ****     {
 544:Generated_Source\PSoC4/RTC.c ****         return((0uL != (RTC_currentTimeDate.status & (1uL << RTC_STATUS_ALARM_OFFSET))) ?
 545:Generated_Source\PSoC4/RTC.c ****                 1uL : 
 546:Generated_Source\PSoC4/RTC.c ****                 0uL);
 547:Generated_Source\PSoC4/RTC.c ****     }
 548:Generated_Source\PSoC4/RTC.c **** 
 549:Generated_Source\PSoC4/RTC.c **** 
 550:Generated_Source\PSoC4/RTC.c ****     /*******************************************************************************
 551:Generated_Source\PSoC4/RTC.c ****     * Function Name: RTC_ClearAlarmStatus
 552:Generated_Source\PSoC4/RTC.c ****     ****************************************************************************//**
 553:Generated_Source\PSoC4/RTC.c ****     *
 554:Generated_Source\PSoC4/RTC.c ****     *  Clears the alarm status of RTC.
 555:Generated_Source\PSoC4/RTC.c ****     *
 556:Generated_Source\PSoC4/RTC.c ****     * \note
 557:Generated_Source\PSoC4/RTC.c ****     * The Alarm active (AA) flag clears after read. This bit will be set in the next
 558:Generated_Source\PSoC4/RTC.c ****     * alarm match event only. If Alarm is set on only minutes and the alarm
 559:Generated_Source\PSoC4/RTC.c ****     * minutes is 20 minutes - the alarm triggers once every 20th minute of
 560:Generated_Source\PSoC4/RTC.c ****     * every hour.
 561:Generated_Source\PSoC4/RTC.c ****     *
 562:Generated_Source\PSoC4/RTC.c ****     *******************************************************************************/
 563:Generated_Source\PSoC4/RTC.c ****     void RTC_ClearAlarmStatus(void)
 564:Generated_Source\PSoC4/RTC.c ****     {
 565:Generated_Source\PSoC4/RTC.c ****         RTC_currentTimeDate.status &= (~(1uL << RTC_STATUS_ALARM_OFFSET));
 566:Generated_Source\PSoC4/RTC.c ****         RTC_alarmCurStatus = 0u;
 567:Generated_Source\PSoC4/RTC.c ****     }
 568:Generated_Source\PSoC4/RTC.c **** 
 569:Generated_Source\PSoC4/RTC.c **** 
 570:Generated_Source\PSoC4/RTC.c ****     /*******************************************************************************
 571:Generated_Source\PSoC4/RTC.c ****     * Function Name: RTC_SetAlarmHandler
 572:Generated_Source\PSoC4/RTC.c ****     ****************************************************************************//**
 573:Generated_Source\PSoC4/RTC.c ****     *
 574:Generated_Source\PSoC4/RTC.c ****     *  This API sets the function to be called when the alarm goes off / triggers.
 575:Generated_Source\PSoC4/RTC.c ****     *  This API is generated only if the alarm functionality is enabled in the
 576:Generated_Source\PSoC4/RTC.c ****     *  customizer.
 577:Generated_Source\PSoC4/RTC.c ****     *
 578:Generated_Source\PSoC4/RTC.c ****     * \param CallbackFunction
 579:Generated_Source\PSoC4/RTC.c ****     * The callback function address.
 580:Generated_Source\PSoC4/RTC.c ****     *
 581:Generated_Source\PSoC4/RTC.c ****     * \return
 582:Generated_Source\PSoC4/RTC.c ****     * A previous callback function address.
 583:Generated_Source\PSoC4/RTC.c ****     *
 584:Generated_Source\PSoC4/RTC.c ****     *******************************************************************************/
 585:Generated_Source\PSoC4/RTC.c ****     void* RTC_SetAlarmHandler(void (*CallbackFunction)(void))
 586:Generated_Source\PSoC4/RTC.c ****     {
 587:Generated_Source\PSoC4/RTC.c ****         void (*tmpCallbackPtr)(void);
 588:Generated_Source\PSoC4/RTC.c **** 
 589:Generated_Source\PSoC4/RTC.c ****         tmpCallbackPtr = RTC_alarmCallbackPtr;
 590:Generated_Source\PSoC4/RTC.c ****         RTC_alarmCallbackPtr = CallbackFunction;
 591:Generated_Source\PSoC4/RTC.c **** 
 592:Generated_Source\PSoC4/RTC.c ****         return((void*)tmpCallbackPtr);
 593:Generated_Source\PSoC4/RTC.c ****     }
 594:Generated_Source\PSoC4/RTC.c **** 
 595:Generated_Source\PSoC4/RTC.c **** 
 596:Generated_Source\PSoC4/RTC.c ****     /*******************************************************************************
 597:Generated_Source\PSoC4/RTC.c ****     * Function Name: RTC_GetNexAlarmTime
 598:Generated_Source\PSoC4/RTC.c ****     ****************************************************************************//**
 599:Generated_Source\PSoC4/RTC.c ****     *
ARM GAS  C:\Users\Petro\AppData\Local\Temp\cc4bDtSi.s 			page 43


 600:Generated_Source\PSoC4/RTC.c ****     *  This is an internal function that calculates the time of the next alarm
 601:Generated_Source\PSoC4/RTC.c ****     *  in the UNIX format taking into account the current "Alarm Config Mask".
 602:Generated_Source\PSoC4/RTC.c ****     *
 603:Generated_Source\PSoC4/RTC.c ****     * \param curUnixTime
 604:Generated_Source\PSoC4/RTC.c ****     * The current time value in the UNIX format.
 605:Generated_Source\PSoC4/RTC.c ****     *
 606:Generated_Source\PSoC4/RTC.c ****     * \param alarmCfgMask
 607:Generated_Source\PSoC4/RTC.c ****     * The current Alarm Config Mask.
 608:Generated_Source\PSoC4/RTC.c ****     *
 609:Generated_Source\PSoC4/RTC.c ****     * \return
 610:Generated_Source\PSoC4/RTC.c ****     * Returns time of the next alarm in the UNIX format.
 611:Generated_Source\PSoC4/RTC.c ****     *
 612:Generated_Source\PSoC4/RTC.c ****     *******************************************************************************/
 613:Generated_Source\PSoC4/RTC.c ****     uint64 RTC_GetNexAlarmTime(uint64 curUnixTime, uint8 alarmCfgMask)
 614:Generated_Source\PSoC4/RTC.c ****     {
 615:Generated_Source\PSoC4/RTC.c ****         uint32 prevVal;
 616:Generated_Source\PSoC4/RTC.c ****         uint32 nextVal;
 617:Generated_Source\PSoC4/RTC.c ****         uint32 carryFlag;
 618:Generated_Source\PSoC4/RTC.c ****         uint32 daysInMonth;
 619:Generated_Source\PSoC4/RTC.c ****         RTC_DATE_TIME curDateTime;
 620:Generated_Source\PSoC4/RTC.c **** 
 621:Generated_Source\PSoC4/RTC.c ****         carryFlag = 1u;
 622:Generated_Source\PSoC4/RTC.c ****         RTC_UnixToDateTime(&curDateTime, curUnixTime, (uint32)RTC_24_HOURS_FORMAT);
 623:Generated_Source\PSoC4/RTC.c **** 
 624:Generated_Source\PSoC4/RTC.c ****         /* Calculates Second value of next alarm time based on current time and Alarm Config Mask *
 625:Generated_Source\PSoC4/RTC.c ****         if(0uL != ((~((uint32)alarmCfgMask)) & RTC_ALARM_SEC_MASK))
 626:Generated_Source\PSoC4/RTC.c ****         {
 627:Generated_Source\PSoC4/RTC.c ****             prevVal = RTC_GetSecond(curDateTime.time);
 628:Generated_Source\PSoC4/RTC.c ****             nextVal = RTC_GetNextMinSec(prevVal);
 629:Generated_Source\PSoC4/RTC.c ****             curDateTime.time = RTC_SetSecond(curDateTime.time, nextVal);
 630:Generated_Source\PSoC4/RTC.c ****             carryFlag = (nextVal < prevVal) ? 1u : 0u;
 631:Generated_Source\PSoC4/RTC.c ****         }
 632:Generated_Source\PSoC4/RTC.c **** 
 633:Generated_Source\PSoC4/RTC.c ****         /* Calculates Minute value of next alarm time based on current time and Alarm Config Mask *
 634:Generated_Source\PSoC4/RTC.c ****         if((0uL != carryFlag) && (0uL != ((~((uint32)alarmCfgMask)) & RTC_ALARM_MIN_MASK)))
 635:Generated_Source\PSoC4/RTC.c ****         {
 636:Generated_Source\PSoC4/RTC.c ****             prevVal = RTC_GetMinutes(curDateTime.time);
 637:Generated_Source\PSoC4/RTC.c ****             nextVal = RTC_GetNextMinSec(prevVal);
 638:Generated_Source\PSoC4/RTC.c ****             curDateTime.time = RTC_SetMinutes(curDateTime.time, nextVal);
 639:Generated_Source\PSoC4/RTC.c ****             carryFlag = (nextVal < prevVal) ? 1u : 0u;
 640:Generated_Source\PSoC4/RTC.c ****         }
 641:Generated_Source\PSoC4/RTC.c **** 
 642:Generated_Source\PSoC4/RTC.c ****         /* Calculates Hour value of next alarm time based on current time and Alarm Config Mask */
 643:Generated_Source\PSoC4/RTC.c ****         if((0uL != carryFlag) && (0uL != ((~((uint32)alarmCfgMask)) & RTC_ALARM_HOUR_MASK)))
 644:Generated_Source\PSoC4/RTC.c ****         {
 645:Generated_Source\PSoC4/RTC.c ****             prevVal = RTC_GetHours(curDateTime.time);
 646:Generated_Source\PSoC4/RTC.c ****             nextVal = RTC_GetNextHour(prevVal);
 647:Generated_Source\PSoC4/RTC.c ****             curDateTime.time = RTC_SetHours(curDateTime.time, nextVal);
 648:Generated_Source\PSoC4/RTC.c ****             carryFlag = (nextVal < prevVal) ? 1u : 0u;
 649:Generated_Source\PSoC4/RTC.c ****         }
 650:Generated_Source\PSoC4/RTC.c **** 
 651:Generated_Source\PSoC4/RTC.c ****         /* Calculates Day value of next alarm time based on current time and Alarm Config Mask */
 652:Generated_Source\PSoC4/RTC.c ****         if((0uL != carryFlag) && (0uL != ((~((uint32)alarmCfgMask)) & RTC_ALARM_DAYOFMONTH_MASK)))
 653:Generated_Source\PSoC4/RTC.c ****         {
 654:Generated_Source\PSoC4/RTC.c ****             prevVal = RTC_GetDay(curDateTime.date);
 655:Generated_Source\PSoC4/RTC.c ****             if(0u != (alarmCfgMask & RTC_ALARM_DAYOFWEEK_MASK))
 656:Generated_Source\PSoC4/RTC.c ****             {
ARM GAS  C:\Users\Petro\AppData\Local\Temp\cc4bDtSi.s 			page 44


 657:Generated_Source\PSoC4/RTC.c ****                 daysInMonth = RTC_DaysInMonth(RTC_GetMonth(curDateTime.date),
 658:Generated_Source\PSoC4/RTC.c ****                                                            RTC_GetYear(curDateTime.date));
 659:Generated_Source\PSoC4/RTC.c ****                 nextVal = prevVal + RTC_DAYS_PER_WEEK;
 660:Generated_Source\PSoC4/RTC.c ****                 nextVal = (nextVal > daysInMonth) ? (nextVal - daysInMonth) : nextVal;
 661:Generated_Source\PSoC4/RTC.c ****             }
 662:Generated_Source\PSoC4/RTC.c ****             else
 663:Generated_Source\PSoC4/RTC.c ****             {
 664:Generated_Source\PSoC4/RTC.c ****                 nextVal = RTC_GetNextDay(RTC_GetYear(curDateTime.date),
 665:Generated_Source\PSoC4/RTC.c ****                                                       RTC_GetMonth(curDateTime.date),
 666:Generated_Source\PSoC4/RTC.c ****                                                       RTC_GetDay(curDateTime.date),
 667:Generated_Source\PSoC4/RTC.c ****                                                       (~((uint32)alarmCfgMask)));
 668:Generated_Source\PSoC4/RTC.c ****             }
 669:Generated_Source\PSoC4/RTC.c ****             curDateTime.date = RTC_SetDay(curDateTime.date, nextVal);
 670:Generated_Source\PSoC4/RTC.c ****             carryFlag = (nextVal < prevVal) ? 1u : 0u;
 671:Generated_Source\PSoC4/RTC.c ****         }
 672:Generated_Source\PSoC4/RTC.c **** 
 673:Generated_Source\PSoC4/RTC.c ****         /* Calculates Month value of next alarm time based on current time and Alarm Config Mask */
 674:Generated_Source\PSoC4/RTC.c ****         if((0uL != carryFlag) && (0uL != ((~((uint32)alarmCfgMask)) & RTC_ALARM_MONTH_MASK)))
 675:Generated_Source\PSoC4/RTC.c ****         {
 676:Generated_Source\PSoC4/RTC.c ****             prevVal = RTC_GetMonth(curDateTime.date);
 677:Generated_Source\PSoC4/RTC.c ****             nextVal = RTC_GetNextMonth(prevVal);
 678:Generated_Source\PSoC4/RTC.c ****             curDateTime.date = RTC_SetMonth(curDateTime.date, nextVal);
 679:Generated_Source\PSoC4/RTC.c ****             carryFlag = (nextVal < prevVal) ? 1u : 0u;
 680:Generated_Source\PSoC4/RTC.c ****         }
 681:Generated_Source\PSoC4/RTC.c **** 
 682:Generated_Source\PSoC4/RTC.c ****         /* Calculates Year value of next alarm time based on current time and Alarm Config Mask */
 683:Generated_Source\PSoC4/RTC.c ****         if((0uL != carryFlag) && (0uL != ((~((uint32)alarmCfgMask)) & RTC_ALARM_YEAR_MASK)))
 684:Generated_Source\PSoC4/RTC.c ****         {
 685:Generated_Source\PSoC4/RTC.c ****             prevVal = RTC_GetYear(curDateTime.date);
 686:Generated_Source\PSoC4/RTC.c ****             nextVal = RTC_GetNextYear(prevVal);
 687:Generated_Source\PSoC4/RTC.c ****             curDateTime.date = RTC_SetYear(curDateTime.date, nextVal);
 688:Generated_Source\PSoC4/RTC.c ****         }
 689:Generated_Source\PSoC4/RTC.c **** 
 690:Generated_Source\PSoC4/RTC.c ****         return(RTC_DateTimeToUnix(curDateTime.date, curDateTime.time));
 691:Generated_Source\PSoC4/RTC.c ****     }
 692:Generated_Source\PSoC4/RTC.c **** 
 693:Generated_Source\PSoC4/RTC.c **** 
 694:Generated_Source\PSoC4/RTC.c ****     /*******************************************************************************
 695:Generated_Source\PSoC4/RTC.c ****     * Function Name: RTC_ConstructUnixAlarmTime
 696:Generated_Source\PSoC4/RTC.c ****     ****************************************************************************//**
 697:Generated_Source\PSoC4/RTC.c ****     *
 698:Generated_Source\PSoC4/RTC.c ****     * This is an internal function that calculates the time of the first alarm
 699:Generated_Source\PSoC4/RTC.c ****     * in the UNIX format taking into account the current "Alarm Config Mask".
 700:Generated_Source\PSoC4/RTC.c ****     *
 701:Generated_Source\PSoC4/RTC.c ****     * \param alarmTime
 702:Generated_Source\PSoC4/RTC.c ****     * Desired alarm time in the regular time format, 
 703:Generated_Source\PSoC4/RTC.c ****     * see \ref RTC_DATE_TIME
 704:Generated_Source\PSoC4/RTC.c ****     *
 705:Generated_Source\PSoC4/RTC.c ****     * \param alarmCfgMask
 706:Generated_Source\PSoC4/RTC.c ****     * The current Alarm Config Mask.
 707:Generated_Source\PSoC4/RTC.c ****     *
 708:Generated_Source\PSoC4/RTC.c ****     * \return
 709:Generated_Source\PSoC4/RTC.c ****     * time of the first alarm in the UNIX format.
 710:Generated_Source\PSoC4/RTC.c ****     *
 711:Generated_Source\PSoC4/RTC.c ****     *******************************************************************************/
 712:Generated_Source\PSoC4/RTC.c ****     uint64 RTC_ConstructUnixAlarmTime(const RTC_DATE_TIME* alarmTime, uint8 alarmCfgMask)
 713:Generated_Source\PSoC4/RTC.c ****     {
ARM GAS  C:\Users\Petro\AppData\Local\Temp\cc4bDtSi.s 			page 45


 714:Generated_Source\PSoC4/RTC.c ****         uint32 tmpCurVal;
 715:Generated_Source\PSoC4/RTC.c ****         uint32 tmpNextVal;
 716:Generated_Source\PSoC4/RTC.c ****         uint32 carryFlag;
 717:Generated_Source\PSoC4/RTC.c ****         uint32 tmpAlarmDate;
 718:Generated_Source\PSoC4/RTC.c ****         uint32 tmpAlarmTime;
 719:Generated_Source\PSoC4/RTC.c ****         uint32 daysInMonth;
 720:Generated_Source\PSoC4/RTC.c ****         RTC_DATE_TIME curDateTime;
 721:Generated_Source\PSoC4/RTC.c **** 
 722:Generated_Source\PSoC4/RTC.c ****         tmpAlarmDate = 0u;
 723:Generated_Source\PSoC4/RTC.c ****         tmpAlarmTime = 0u;
 724:Generated_Source\PSoC4/RTC.c ****         RTC_UnixToDateTime(&curDateTime, RTC_unixTime, 
 725:Generated_Source\PSoC4/RTC.c ****                                        (uint32)RTC_24_HOURS_FORMAT);
 726:Generated_Source\PSoC4/RTC.c **** 
 727:Generated_Source\PSoC4/RTC.c ****         /* Calculates Seconds value of first Alarm based on current time and Alarm Config Mask */
 728:Generated_Source\PSoC4/RTC.c ****         tmpCurVal =  RTC_GetSecond(curDateTime.time);
 729:Generated_Source\PSoC4/RTC.c ****         tmpNextVal = RTC_GetSecond(alarmTime->time);
 730:Generated_Source\PSoC4/RTC.c ****         carryFlag = (tmpCurVal > tmpNextVal) ? 1u : 0u;
 731:Generated_Source\PSoC4/RTC.c ****         if(0u != ((~((uint32)alarmCfgMask)) & RTC_ALARM_SEC_MASK))
 732:Generated_Source\PSoC4/RTC.c ****         {
 733:Generated_Source\PSoC4/RTC.c ****             tmpNextVal = (0u != carryFlag) ? 0u : tmpCurVal;
 734:Generated_Source\PSoC4/RTC.c ****         }
 735:Generated_Source\PSoC4/RTC.c ****         tmpAlarmTime = RTC_SetSecond(tmpAlarmTime, tmpNextVal);
 736:Generated_Source\PSoC4/RTC.c **** 
 737:Generated_Source\PSoC4/RTC.c ****         /* Calculates Minutes value of first Alarm based on current time and Alarm Config Mask */
 738:Generated_Source\PSoC4/RTC.c ****         tmpCurVal  = RTC_GetMinutes(curDateTime.time);
 739:Generated_Source\PSoC4/RTC.c ****         if(0u != ((~((uint32)alarmCfgMask)) & RTC_ALARM_MIN_MASK))
 740:Generated_Source\PSoC4/RTC.c ****         {
 741:Generated_Source\PSoC4/RTC.c ****             tmpNextVal = (0u != carryFlag) ? RTC_GetNextMinSec(tmpCurVal) : tmpCurVal;
 742:Generated_Source\PSoC4/RTC.c ****         }
 743:Generated_Source\PSoC4/RTC.c ****         else
 744:Generated_Source\PSoC4/RTC.c ****         {
 745:Generated_Source\PSoC4/RTC.c ****             tmpNextVal = RTC_GetMinutes(alarmTime->time);
 746:Generated_Source\PSoC4/RTC.c ****         }
 747:Generated_Source\PSoC4/RTC.c ****         carryFlag  = (tmpNextVal < tmpCurVal) ? 1u : 0u;
 748:Generated_Source\PSoC4/RTC.c ****         tmpAlarmTime =  RTC_SetMinutes(tmpAlarmTime, tmpNextVal);
 749:Generated_Source\PSoC4/RTC.c **** 
 750:Generated_Source\PSoC4/RTC.c ****         /* Calculates Hours value of first Alarm based on current time and Alarm Config Mask */
 751:Generated_Source\PSoC4/RTC.c ****         tmpCurVal  = RTC_GetHours(curDateTime.time);
 752:Generated_Source\PSoC4/RTC.c ****         if(0u != ((~((uint32)alarmCfgMask)) & RTC_ALARM_HOUR_MASK))
 753:Generated_Source\PSoC4/RTC.c ****         {
 754:Generated_Source\PSoC4/RTC.c ****             tmpNextVal = (0u != carryFlag) ? RTC_GetNextHour(tmpCurVal) : tmpCurVal;
 755:Generated_Source\PSoC4/RTC.c ****         }
 756:Generated_Source\PSoC4/RTC.c ****         else
 757:Generated_Source\PSoC4/RTC.c ****         {
 758:Generated_Source\PSoC4/RTC.c ****             tmpNextVal = RTC_GetHours(alarmTime->time);
 759:Generated_Source\PSoC4/RTC.c ****             if((uint32)RTC_24_HOURS_FORMAT != RTC_GetTimeFormat(alarmTime->time))
 760:Generated_Source\PSoC4/RTC.c ****             {
 761:Generated_Source\PSoC4/RTC.c ****                 if((uint32)RTC_AM != RTC_GetAmPm(alarmTime->time))
 762:Generated_Source\PSoC4/RTC.c ****                 {
 763:Generated_Source\PSoC4/RTC.c ****                     tmpNextVal += RTC_HOURS_PER_HALF_DAY;
 764:Generated_Source\PSoC4/RTC.c ****                 }
 765:Generated_Source\PSoC4/RTC.c ****             }
 766:Generated_Source\PSoC4/RTC.c ****         }
 767:Generated_Source\PSoC4/RTC.c ****         carryFlag  = (tmpNextVal < tmpCurVal) ? 1u : 0u;
 768:Generated_Source\PSoC4/RTC.c ****         tmpAlarmTime =  RTC_SetHours(tmpAlarmTime, tmpNextVal);
 769:Generated_Source\PSoC4/RTC.c **** 
 770:Generated_Source\PSoC4/RTC.c ****         /* Calculates Day value of first Alarm based on current time and Alarm Config Mask */
ARM GAS  C:\Users\Petro\AppData\Local\Temp\cc4bDtSi.s 			page 46


 771:Generated_Source\PSoC4/RTC.c ****         tmpCurVal  = RTC_GetDay(curDateTime.date);
 772:Generated_Source\PSoC4/RTC.c ****         tmpNextVal = RTC_GetDay(alarmTime->date);
 773:Generated_Source\PSoC4/RTC.c ****         if(0u != ((~((uint32)alarmCfgMask)) & RTC_ALARM_DAYOFMONTH_MASK))
 774:Generated_Source\PSoC4/RTC.c ****         {
 775:Generated_Source\PSoC4/RTC.c ****             if(0u != (alarmCfgMask & RTC_ALARM_DAYOFWEEK_MASK))
 776:Generated_Source\PSoC4/RTC.c ****             {
 777:Generated_Source\PSoC4/RTC.c ****                 daysInMonth = RTC_DaysInMonth(RTC_GetMonth(curDateTime.date),
 778:Generated_Source\PSoC4/RTC.c ****                                                            RTC_GetYear(curDateTime.date));
 779:Generated_Source\PSoC4/RTC.c ****                 tmpNextVal = 
 780:Generated_Source\PSoC4/RTC.c ****                 (curDateTime.dayOfWeek <= alarmTime->dayOfWeek) ? (alarmTime->dayOfWeek - curDateTi
 781:Generated_Source\PSoC4/RTC.c ****                                 ((RTC_DAYS_PER_WEEK - curDateTime.dayOfWeek) + alarmTime->dayOfWeek
 782:Generated_Source\PSoC4/RTC.c ****                 tmpNextVal = tmpCurVal + tmpNextVal;
 783:Generated_Source\PSoC4/RTC.c ****                 tmpNextVal = (tmpNextVal > daysInMonth) ? (tmpNextVal - daysInMonth) : tmpNextVal;
 784:Generated_Source\PSoC4/RTC.c ****             }
 785:Generated_Source\PSoC4/RTC.c ****             else
 786:Generated_Source\PSoC4/RTC.c ****             {
 787:Generated_Source\PSoC4/RTC.c ****                 tmpNextVal = 
 788:Generated_Source\PSoC4/RTC.c ****                 (0u == carryFlag) ? tmpCurVal : RTC_GetNextDay(RTC_GetYear(curDateTime.date),
 789:Generated_Source\PSoC4/RTC.c ****                                                 RTC_GetMonth(curDateTime.date),
 790:Generated_Source\PSoC4/RTC.c ****                                                 tmpCurVal,
 791:Generated_Source\PSoC4/RTC.c ****                                                 RTC_ALARM_DAYOFMONTH_MASK);
 792:Generated_Source\PSoC4/RTC.c ****             }
 793:Generated_Source\PSoC4/RTC.c ****         }
 794:Generated_Source\PSoC4/RTC.c ****         carryFlag  = (tmpNextVal < tmpCurVal) ? 1u : 0u;
 795:Generated_Source\PSoC4/RTC.c ****         tmpAlarmDate =  RTC_SetDay(tmpAlarmDate, tmpNextVal);
 796:Generated_Source\PSoC4/RTC.c **** 
 797:Generated_Source\PSoC4/RTC.c ****         /* Calculates Month value of first Alarm based on current time and Alarm Config Mask */
 798:Generated_Source\PSoC4/RTC.c ****         tmpCurVal  = RTC_GetMonth(curDateTime.date);
 799:Generated_Source\PSoC4/RTC.c ****         if(0u != ((~((uint32)alarmCfgMask)) & RTC_ALARM_MONTH_MASK))
 800:Generated_Source\PSoC4/RTC.c ****         {
 801:Generated_Source\PSoC4/RTC.c ****             tmpNextVal = (0u != carryFlag) ? RTC_GetNextMonth(tmpCurVal) : tmpCurVal;
 802:Generated_Source\PSoC4/RTC.c ****         }
 803:Generated_Source\PSoC4/RTC.c ****         else
 804:Generated_Source\PSoC4/RTC.c ****         {
 805:Generated_Source\PSoC4/RTC.c ****             tmpNextVal = RTC_GetMonth(alarmTime->date);
 806:Generated_Source\PSoC4/RTC.c ****         }
 807:Generated_Source\PSoC4/RTC.c ****         carryFlag  = (tmpNextVal < tmpCurVal) ? 1u : 0u;
 808:Generated_Source\PSoC4/RTC.c ****         tmpAlarmDate =  RTC_SetMonth(tmpAlarmDate, tmpNextVal);
 809:Generated_Source\PSoC4/RTC.c **** 
 810:Generated_Source\PSoC4/RTC.c ****         /* Calculates Year value of first Alarm based on current time and Alarm Config Mask */
 811:Generated_Source\PSoC4/RTC.c ****         tmpCurVal  = RTC_GetYear(curDateTime.date);
 812:Generated_Source\PSoC4/RTC.c ****         if(0u != ((~((uint32)alarmCfgMask)) & RTC_ALARM_MONTH_MASK))
 813:Generated_Source\PSoC4/RTC.c ****         {
 814:Generated_Source\PSoC4/RTC.c ****             tmpNextVal = (0u != carryFlag) ? RTC_GetNextYear(tmpCurVal) : tmpCurVal;
 815:Generated_Source\PSoC4/RTC.c ****         }
 816:Generated_Source\PSoC4/RTC.c ****         else
 817:Generated_Source\PSoC4/RTC.c ****         {
 818:Generated_Source\PSoC4/RTC.c ****             tmpNextVal = RTC_GetYear(alarmTime->date);
 819:Generated_Source\PSoC4/RTC.c ****         }
 820:Generated_Source\PSoC4/RTC.c ****         tmpAlarmDate =  RTC_SetYear(tmpAlarmDate, tmpNextVal);
 821:Generated_Source\PSoC4/RTC.c **** 
 822:Generated_Source\PSoC4/RTC.c ****         return(RTC_DateTimeToUnix(tmpAlarmDate, tmpAlarmTime));
 823:Generated_Source\PSoC4/RTC.c ****     }
 824:Generated_Source\PSoC4/RTC.c **** #endif/* (0u != RTC_INITIAL_ALARM_STATUS) */
 825:Generated_Source\PSoC4/RTC.c **** 
 826:Generated_Source\PSoC4/RTC.c **** 
 827:Generated_Source\PSoC4/RTC.c **** /*******************************************************************************
ARM GAS  C:\Users\Petro\AppData\Local\Temp\cc4bDtSi.s 			page 47


 828:Generated_Source\PSoC4/RTC.c **** * Function Name: RTC_ReadStatus
 829:Generated_Source\PSoC4/RTC.c **** ****************************************************************************//**
 830:Generated_Source\PSoC4/RTC.c **** *
 831:Generated_Source\PSoC4/RTC.c **** * Reads the Status software register, which has flags for DST (DST),
 832:Generated_Source\PSoC4/RTC.c **** * Leap Year (LY), AM/PM (AM_PM).
 833:Generated_Source\PSoC4/RTC.c **** *
 834:Generated_Source\PSoC4/RTC.c **** * \return
 835:Generated_Source\PSoC4/RTC.c **** * The values shown below are OR'ed and returned if more than one status
 836:Generated_Source\PSoC4/RTC.c **** * bits are set, see \ref group_rtc_status.
 837:Generated_Source\PSoC4/RTC.c **** *
 838:Generated_Source\PSoC4/RTC.c **** * \note
 839:Generated_Source\PSoC4/RTC.c **** * Reading the status without sync with the date and time read may cause an
 840:Generated_Source\PSoC4/RTC.c **** * error due to a roll-over at AM/PM, the end of a year, the end of a day;
 841:Generated_Source\PSoC4/RTC.c **** * RTC_GetDateAndTime() API is used to obtain the status and
 842:Generated_Source\PSoC4/RTC.c **** * the status member of the returned structure can be checked with the masks.
 843:Generated_Source\PSoC4/RTC.c **** *
 844:Generated_Source\PSoC4/RTC.c **** *******************************************************************************/
 845:Generated_Source\PSoC4/RTC.c **** uint32 RTC_ReadStatus(void)
 846:Generated_Source\PSoC4/RTC.c **** {
 847:Generated_Source\PSoC4/RTC.c ****     uint32 tmpYear;
 848:Generated_Source\PSoC4/RTC.c ****     RTC_DATE_TIME tmpTimeDate;
 849:Generated_Source\PSoC4/RTC.c **** 
 850:Generated_Source\PSoC4/RTC.c ****     RTC_GetDateAndTime(&tmpTimeDate);
 851:Generated_Source\PSoC4/RTC.c ****     tmpYear = RTC_GetYear(tmpTimeDate.date);
 852:Generated_Source\PSoC4/RTC.c **** 
 853:Generated_Source\PSoC4/RTC.c ****     if(0uL != RTC_LeapYear(tmpYear))
 854:Generated_Source\PSoC4/RTC.c ****     {
 855:Generated_Source\PSoC4/RTC.c ****         RTC_currentTimeDate.status |= (1uL << RTC_STATUS_LY_OFFSET);
 856:Generated_Source\PSoC4/RTC.c ****     }
 857:Generated_Source\PSoC4/RTC.c ****     else
 858:Generated_Source\PSoC4/RTC.c ****     {
 859:Generated_Source\PSoC4/RTC.c ****         RTC_currentTimeDate.status &= ~(1uL << RTC_STATUS_LY_OFFSET);
 860:Generated_Source\PSoC4/RTC.c ****     }
 861:Generated_Source\PSoC4/RTC.c **** 
 862:Generated_Source\PSoC4/RTC.c **** 
 863:Generated_Source\PSoC4/RTC.c ****     if(0uL != RTC_GetAmPm(tmpTimeDate.time))
 864:Generated_Source\PSoC4/RTC.c ****     {
 865:Generated_Source\PSoC4/RTC.c ****         RTC_currentTimeDate.status |= (1uL << RTC_STATUS_AM_PM_OFFSET);
 866:Generated_Source\PSoC4/RTC.c ****     }
 867:Generated_Source\PSoC4/RTC.c ****     else
 868:Generated_Source\PSoC4/RTC.c ****     {
 869:Generated_Source\PSoC4/RTC.c ****         RTC_currentTimeDate.status &= ~(1uL << RTC_STATUS_AM_PM_OFFSET);
 870:Generated_Source\PSoC4/RTC.c ****     }
 871:Generated_Source\PSoC4/RTC.c **** 
 872:Generated_Source\PSoC4/RTC.c ****     return(RTC_currentTimeDate.status);
 873:Generated_Source\PSoC4/RTC.c **** }
 874:Generated_Source\PSoC4/RTC.c **** 
 875:Generated_Source\PSoC4/RTC.c **** 
 876:Generated_Source\PSoC4/RTC.c **** #if(0u != RTC_INITIAL_DST_STATUS)
 877:Generated_Source\PSoC4/RTC.c ****     /*******************************************************************************
 878:Generated_Source\PSoC4/RTC.c ****     * Function Name: RTC_SetDSTStartTime
 879:Generated_Source\PSoC4/RTC.c ****     ****************************************************************************//**
 880:Generated_Source\PSoC4/RTC.c ****     *
 881:Generated_Source\PSoC4/RTC.c ****     * Stores the DST Start time.
 882:Generated_Source\PSoC4/RTC.c ****     *
 883:Generated_Source\PSoC4/RTC.c ****     * Only generated if DST is enabled. The date passed can be relative or fixed. 
 884:Generated_Source\PSoC4/RTC.c ****     * For a relative date, the user needs to provide a valid day of a week, a 
ARM GAS  C:\Users\Petro\AppData\Local\Temp\cc4bDtSi.s 			page 48


 885:Generated_Source\PSoC4/RTC.c ****     * week of a month and a month in the dstStartTime structure.
 886:Generated_Source\PSoC4/RTC.c ****     * For a fixed date, the user needs to enter a valid day of a month and a month 
 887:Generated_Source\PSoC4/RTC.c ****     * in the dstStartTime structure. The hour value is optional and if invalid
 888:Generated_Source\PSoC4/RTC.c ****     * taken as 00 hrs. Invalid entries are not stored and the DST start date
 889:Generated_Source\PSoC4/RTC.c ****     * retains a previous value or no value at all.
 890:Generated_Source\PSoC4/RTC.c ****     *
 891:Generated_Source\PSoC4/RTC.c ****     * \param dstStartTime
 892:Generated_Source\PSoC4/RTC.c ****     * The DST Start time register value, see \ref RTC_DST_TIME
 893:Generated_Source\PSoC4/RTC.c ****     *
 894:Generated_Source\PSoC4/RTC.c ****     * \param type
 895:Generated_Source\PSoC4/RTC.c ****     * Defines the DST operation mode, see \ref RTC_DST_DATETYPE_ENUM.
 896:Generated_Source\PSoC4/RTC.c ****     *
 897:Generated_Source\PSoC4/RTC.c ****     *******************************************************************************/
 898:Generated_Source\PSoC4/RTC.c ****     void RTC_SetDSTStartTime(const RTC_DST_TIME* dstStartTime,
 899:Generated_Source\PSoC4/RTC.c ****                                                 RTC_DST_DATETYPE_ENUM type)
 900:Generated_Source\PSoC4/RTC.c ****     {
 901:Generated_Source\PSoC4/RTC.c ****         RTC_dstStartTime.timeFormat    = (uint8)type;
 902:Generated_Source\PSoC4/RTC.c ****         RTC_dstStartTime.hour          = dstStartTime->hour;
 903:Generated_Source\PSoC4/RTC.c ****         RTC_dstStartTime.dayOfWeek     = dstStartTime->dayOfWeek;
 904:Generated_Source\PSoC4/RTC.c ****         RTC_dstStartTime.weekOfMonth   = dstStartTime->weekOfMonth;
 905:Generated_Source\PSoC4/RTC.c ****         RTC_dstStartTime.dayOfMonth    = dstStartTime->dayOfMonth;
 906:Generated_Source\PSoC4/RTC.c ****         RTC_dstStartTime.month         = dstStartTime->month;
 907:Generated_Source\PSoC4/RTC.c **** 
 908:Generated_Source\PSoC4/RTC.c ****         RTC_unixTimeDstStart = RTC_GetDstUnixTime(&RTC_dstStartTime);
 909:Generated_Source\PSoC4/RTC.c **** 
 910:Generated_Source\PSoC4/RTC.c ****         if((RTC_unixTime >= RTC_unixTimeDstStart) &&
 911:Generated_Source\PSoC4/RTC.c ****            (RTC_unixTime <= RTC_unixTimeDstStop))
 912:Generated_Source\PSoC4/RTC.c ****         {
 913:Generated_Source\PSoC4/RTC.c ****             RTC_dstStatus = 1u;
 914:Generated_Source\PSoC4/RTC.c ****             RTC_dstTimeOffset = RTC_SECONDS_PER_HOUR;
 915:Generated_Source\PSoC4/RTC.c ****         }
 916:Generated_Source\PSoC4/RTC.c ****         else
 917:Generated_Source\PSoC4/RTC.c ****         {
 918:Generated_Source\PSoC4/RTC.c ****             RTC_dstStatus = 0u;
 919:Generated_Source\PSoC4/RTC.c ****             RTC_dstTimeOffset = 0uL;
 920:Generated_Source\PSoC4/RTC.c ****         }
 921:Generated_Source\PSoC4/RTC.c ****     }
 922:Generated_Source\PSoC4/RTC.c **** 
 923:Generated_Source\PSoC4/RTC.c **** 
 924:Generated_Source\PSoC4/RTC.c ****     /*******************************************************************************
 925:Generated_Source\PSoC4/RTC.c ****     * Function Name: RTC_SetDSTStopTime
 926:Generated_Source\PSoC4/RTC.c ****     ****************************************************************************//**
 927:Generated_Source\PSoC4/RTC.c ****     *
 928:Generated_Source\PSoC4/RTC.c ****     * Stores the DST Stop time.
 929:Generated_Source\PSoC4/RTC.c ****     * 
 930:Generated_Source\PSoC4/RTC.c ****     * Only generated if DST is enabled. The date passed can be relative or fixed. 
 931:Generated_Source\PSoC4/RTC.c ****     * For a relative date, the user needs to provide a valid day of a week, a week 
 932:Generated_Source\PSoC4/RTC.c ****     * of a month and a month in the dstStopTime structure.
 933:Generated_Source\PSoC4/RTC.c ****     * For a fixed date, the user needs to enter a valid day of a month and a month
 934:Generated_Source\PSoC4/RTC.c ****     * in the dstSoptTime structure. The hour value is optional and if invalid 
 935:Generated_Source\PSoC4/RTC.c ****     * taken as 00 hrs. Invalid entries are not stored and the DST start date 
 936:Generated_Source\PSoC4/RTC.c ****     * retains a previous value or no value at all.
 937:Generated_Source\PSoC4/RTC.c ****     *
 938:Generated_Source\PSoC4/RTC.c ****     * \param dstStopTime
 939:Generated_Source\PSoC4/RTC.c ****     * DST Stop time register values, see \ref RTC_DST_TIME
 940:Generated_Source\PSoC4/RTC.c ****     *
 941:Generated_Source\PSoC4/RTC.c ****     * \param type
ARM GAS  C:\Users\Petro\AppData\Local\Temp\cc4bDtSi.s 			page 49


 942:Generated_Source\PSoC4/RTC.c ****     * Defines the DST operation mode, see \ref RTC_DST_DATETYPE_ENUM.
 943:Generated_Source\PSoC4/RTC.c ****     *
 944:Generated_Source\PSoC4/RTC.c ****     *******************************************************************************/
 945:Generated_Source\PSoC4/RTC.c ****     void RTC_SetDSTStopTime(const RTC_DST_TIME* dstStopTime,
 946:Generated_Source\PSoC4/RTC.c ****                                                RTC_DST_DATETYPE_ENUM type)
 947:Generated_Source\PSoC4/RTC.c ****     {
 948:Generated_Source\PSoC4/RTC.c **** 
 949:Generated_Source\PSoC4/RTC.c ****         RTC_dstStopTime.timeFormat  = (uint8)type;
 950:Generated_Source\PSoC4/RTC.c ****         RTC_dstStopTime.hour           = dstStopTime->hour;
 951:Generated_Source\PSoC4/RTC.c ****         RTC_dstStopTime.dayOfWeek      = dstStopTime->dayOfWeek;
 952:Generated_Source\PSoC4/RTC.c ****         RTC_dstStopTime.weekOfMonth = dstStopTime->weekOfMonth;
 953:Generated_Source\PSoC4/RTC.c ****         RTC_dstStopTime.dayOfMonth     = dstStopTime->dayOfMonth;
 954:Generated_Source\PSoC4/RTC.c ****         RTC_dstStopTime.month         = dstStopTime->month;
 955:Generated_Source\PSoC4/RTC.c **** 
 956:Generated_Source\PSoC4/RTC.c ****         RTC_unixTimeDstStop  = RTC_GetDstUnixTime(&RTC_dstStopTime);
 957:Generated_Source\PSoC4/RTC.c **** 
 958:Generated_Source\PSoC4/RTC.c ****         if((RTC_unixTime >= RTC_unixTimeDstStart) &&
 959:Generated_Source\PSoC4/RTC.c ****            (RTC_unixTime <= RTC_unixTimeDstStop))
 960:Generated_Source\PSoC4/RTC.c ****         {
 961:Generated_Source\PSoC4/RTC.c ****             RTC_dstStatus = 1u;
 962:Generated_Source\PSoC4/RTC.c ****             RTC_dstTimeOffset = RTC_SECONDS_PER_HOUR;
 963:Generated_Source\PSoC4/RTC.c ****         }
 964:Generated_Source\PSoC4/RTC.c ****         else
 965:Generated_Source\PSoC4/RTC.c ****         {
 966:Generated_Source\PSoC4/RTC.c ****             RTC_dstStatus = 0u;
 967:Generated_Source\PSoC4/RTC.c ****             RTC_dstTimeOffset = 0uL;
 968:Generated_Source\PSoC4/RTC.c ****         }
 969:Generated_Source\PSoC4/RTC.c ****     }
 970:Generated_Source\PSoC4/RTC.c **** 
 971:Generated_Source\PSoC4/RTC.c **** 
 972:Generated_Source\PSoC4/RTC.c ****     /*******************************************************************************
 973:Generated_Source\PSoC4/RTC.c ****     * Function Name: RTC_GetDstUnixTime
 974:Generated_Source\PSoC4/RTC.c ****     ****************************************************************************//**
 975:Generated_Source\PSoC4/RTC.c ****     *
 976:Generated_Source\PSoC4/RTC.c ****     * Calculates the DST Start/Stop time in the UNIX format.
 977:Generated_Source\PSoC4/RTC.c ****     *
 978:Generated_Source\PSoC4/RTC.c ****     * \param dstTime
 979:Generated_Source\PSoC4/RTC.c ****     * The DST Start/Stop time in the regular time format,
 980:Generated_Source\PSoC4/RTC.c ****     * see \ref RTC_DST_TIME
 981:Generated_Source\PSoC4/RTC.c ****     *
 982:Generated_Source\PSoC4/RTC.c ****     * \return
 983:Generated_Source\PSoC4/RTC.c ****     * The DST Start/Stop time in the UNIX format.
 984:Generated_Source\PSoC4/RTC.c ****     *
 985:Generated_Source\PSoC4/RTC.c ****     *******************************************************************************/
 986:Generated_Source\PSoC4/RTC.c ****     uint64 RTC_GetDstUnixTime(const RTC_DST_TIME* dstTime)
 987:Generated_Source\PSoC4/RTC.c ****     {
 988:Generated_Source\PSoC4/RTC.c ****         uint32 tmpYear;
 989:Generated_Source\PSoC4/RTC.c ****         uint32 tmpDate;
 990:Generated_Source\PSoC4/RTC.c ****         uint64 dstUnixTime;
 991:Generated_Source\PSoC4/RTC.c **** 
 992:Generated_Source\PSoC4/RTC.c ****         RTC_DATE_TIME tmpTimeDate;
 993:Generated_Source\PSoC4/RTC.c **** 
 994:Generated_Source\PSoC4/RTC.c ****         RTC_UnixToDateTime(&tmpTimeDate, RTC_unixTime, RTC_INITIAL_TIME_FORMAT);
 995:Generated_Source\PSoC4/RTC.c ****         tmpYear = RTC_GetYear(tmpTimeDate.date);
 996:Generated_Source\PSoC4/RTC.c **** 
 997:Generated_Source\PSoC4/RTC.c ****         if(dstTime->timeFormat == (uint8)RTC_DST_DATE_FIXED)
 998:Generated_Source\PSoC4/RTC.c ****         {
ARM GAS  C:\Users\Petro\AppData\Local\Temp\cc4bDtSi.s 			page 50


 999:Generated_Source\PSoC4/RTC.c ****             tmpDate =  RTC_ConstructDate(dstTime->month, dstTime->dayOfMonth, tmpYear);
1000:Generated_Source\PSoC4/RTC.c ****         }
1001:Generated_Source\PSoC4/RTC.c ****         else
1002:Generated_Source\PSoC4/RTC.c ****         {
1003:Generated_Source\PSoC4/RTC.c ****             tmpDate = 
1004:Generated_Source\PSoC4/RTC.c ****             RTC_RelativeToFixed(dstTime->dayOfWeek, dstTime->weekOfMonth, dstTime->month, tmpYear);
1005:Generated_Source\PSoC4/RTC.c ****         }
1006:Generated_Source\PSoC4/RTC.c **** 
1007:Generated_Source\PSoC4/RTC.c ****         tmpTimeDate.time = 
1008:Generated_Source\PSoC4/RTC.c ****         RTC_ConstructTime((uint32)RTC_24_HOURS_FORMAT, 0u, dstTime->hour, 0u, 0u);
1009:Generated_Source\PSoC4/RTC.c ****         dstUnixTime = RTC_DateTimeToUnix(tmpDate, tmpTimeDate.time);
1010:Generated_Source\PSoC4/RTC.c **** 
1011:Generated_Source\PSoC4/RTC.c ****         return(dstUnixTime);
1012:Generated_Source\PSoC4/RTC.c ****     }
1013:Generated_Source\PSoC4/RTC.c **** 
1014:Generated_Source\PSoC4/RTC.c **** #endif /* (0u != RTC_INITIAL_DST_STATUS) */
1015:Generated_Source\PSoC4/RTC.c **** 
1016:Generated_Source\PSoC4/RTC.c **** 
1017:Generated_Source\PSoC4/RTC.c **** /*******************************************************************************
1018:Generated_Source\PSoC4/RTC.c **** * Function Name: RTC_ConvertBCDToDec
1019:Generated_Source\PSoC4/RTC.c **** ****************************************************************************//**
1020:Generated_Source\PSoC4/RTC.c **** *
1021:Generated_Source\PSoC4/RTC.c **** * Converts a 4-byte BCD number into a 4-byte hexadecimal number. Each byte is
1022:Generated_Source\PSoC4/RTC.c **** * converted individually and returned as an individual byte in the 32-bit
1023:Generated_Source\PSoC4/RTC.c **** * variable.
1024:Generated_Source\PSoC4/RTC.c **** *
1025:Generated_Source\PSoC4/RTC.c **** * \param bcdNum
1026:Generated_Source\PSoC4/RTC.c **** * A 4-byte BCD number. Each byte represents BCD.
1027:Generated_Source\PSoC4/RTC.c **** * 0x11223344 -> 4 bytes 0x11, 0x22, 0x33 and 0x44 the in BCD format.
1028:Generated_Source\PSoC4/RTC.c **** *
1029:Generated_Source\PSoC4/RTC.c **** * \return
1030:Generated_Source\PSoC4/RTC.c **** * decNum A 4-byte hexadecimal equivalent number of the BCD number.
1031:Generated_Source\PSoC4/RTC.c **** * BCD number 0x11223344 -> returned hexadecimal number 0x0B16212C.
1032:Generated_Source\PSoC4/RTC.c **** *
1033:Generated_Source\PSoC4/RTC.c **** *******************************************************************************/
1034:Generated_Source\PSoC4/RTC.c **** uint32 RTC_ConvertBCDToDec(uint32 bcdNum)
1035:Generated_Source\PSoC4/RTC.c **** {
 453              		.loc 2 1035 0
 454              		.cfi_startproc
 455              		@ args = 0, pretend = 0, frame = 0
 456              		@ frame_needed = 0, uses_anonymous_args = 0
 457              	.LVL50:
 458 0000 70B5     		push	{r4, r5, r6, lr}
 459              		.cfi_def_cfa_offset 16
 460              		.cfi_offset 4, -16
 461              		.cfi_offset 5, -12
 462              		.cfi_offset 6, -8
 463              		.cfi_offset 14, -4
 464              		.loc 2 1035 0
 465 0002 1022     		movs	r2, #16
1036:Generated_Source\PSoC4/RTC.c ****     uint32 i;
1037:Generated_Source\PSoC4/RTC.c ****     uint32 mult;
1038:Generated_Source\PSoC4/RTC.c ****     uint32 retVal;
1039:Generated_Source\PSoC4/RTC.c **** 
1040:Generated_Source\PSoC4/RTC.c ****     mult   = 1u;
1041:Generated_Source\PSoC4/RTC.c ****     retVal = 0u;
 466              		.loc 2 1041 0
ARM GAS  C:\Users\Petro\AppData\Local\Temp\cc4bDtSi.s 			page 51


 467 0004 0023     		movs	r3, #0
1040:Generated_Source\PSoC4/RTC.c ****     retVal = 0u;
 468              		.loc 2 1040 0
 469 0006 0121     		movs	r1, #1
1042:Generated_Source\PSoC4/RTC.c **** 
1043:Generated_Source\PSoC4/RTC.c ****     for(i = 0u; i < 16u; i++)
1044:Generated_Source\PSoC4/RTC.c ****     {
1045:Generated_Source\PSoC4/RTC.c ****         retVal += (bcdNum & RTC_BCD_ONE_DIGIT_MASK) * mult;
 470              		.loc 2 1045 0
 471 0008 0F26     		movs	r6, #15
1046:Generated_Source\PSoC4/RTC.c ****         bcdNum >>= RTC_BCD_NUMBER_SIZE;
1047:Generated_Source\PSoC4/RTC.c ****         mult *= 10u;
 472              		.loc 2 1047 0
 473 000a 0A25     		movs	r5, #10
 474              	.LVL51:
 475              	.L25:
1045:Generated_Source\PSoC4/RTC.c ****         bcdNum >>= RTC_BCD_NUMBER_SIZE;
 476              		.loc 2 1045 0 discriminator 3
 477 000c 0400     		movs	r4, r0
 478 000e 3440     		ands	r4, r6
 479 0010 4C43     		muls	r4, r1
 480 0012 013A     		subs	r2, r2, #1
 481              	.LVL52:
 482 0014 1B19     		adds	r3, r3, r4
 483              	.LVL53:
1046:Generated_Source\PSoC4/RTC.c ****         bcdNum >>= RTC_BCD_NUMBER_SIZE;
 484              		.loc 2 1046 0 discriminator 3
 485 0016 0009     		lsrs	r0, r0, #4
 486              	.LVL54:
 487              		.loc 2 1047 0 discriminator 3
 488 0018 6943     		muls	r1, r5
 489              	.LVL55:
1043:Generated_Source\PSoC4/RTC.c ****     {
 490              		.loc 2 1043 0 discriminator 3
 491 001a 002A     		cmp	r2, #0
 492 001c F6D1     		bne	.L25
1048:Generated_Source\PSoC4/RTC.c ****     }
1049:Generated_Source\PSoC4/RTC.c **** 
1050:Generated_Source\PSoC4/RTC.c ****     return(retVal);
1051:Generated_Source\PSoC4/RTC.c **** }
 493              		.loc 2 1051 0
 494 001e 1800     		movs	r0, r3
 495              	.LVL56:
 496              		@ sp needed
 497 0020 70BD     		pop	{r4, r5, r6, pc}
 498              		.cfi_endproc
 499              	.LFE42:
 500              		.size	RTC_ConvertBCDToDec, .-RTC_ConvertBCDToDec
 501              		.section	.text.RTC_ConvertDecToBCD,"ax",%progbits
 502              		.align	1
 503              		.global	RTC_ConvertDecToBCD
 504              		.code	16
 505              		.thumb_func
 506              		.type	RTC_ConvertDecToBCD, %function
 507              	RTC_ConvertDecToBCD:
 508              	.LFB43:
1052:Generated_Source\PSoC4/RTC.c **** 
ARM GAS  C:\Users\Petro\AppData\Local\Temp\cc4bDtSi.s 			page 52


1053:Generated_Source\PSoC4/RTC.c **** 
1054:Generated_Source\PSoC4/RTC.c **** /*******************************************************************************
1055:Generated_Source\PSoC4/RTC.c **** * Function Name: RTC_ConvertDecToBCD
1056:Generated_Source\PSoC4/RTC.c **** ****************************************************************************//**
1057:Generated_Source\PSoC4/RTC.c **** *
1058:Generated_Source\PSoC4/RTC.c **** * Converts a 4-byte hexadecimal number into a 4-byte BCD number. Each byte
1059:Generated_Source\PSoC4/RTC.c **** * is converted individually and returned as an individual byte in the 32-bit
1060:Generated_Source\PSoC4/RTC.c **** * variable.
1061:Generated_Source\PSoC4/RTC.c **** *
1062:Generated_Source\PSoC4/RTC.c **** * \param decNum
1063:Generated_Source\PSoC4/RTC.c **** * A 4-byte hexadecimal number. Each byte is represented in hex.
1064:Generated_Source\PSoC4/RTC.c **** * 0x11223344 -> 4 bytes 0x11, 0x22, 0x33 and 0x44 in the hex format.
1065:Generated_Source\PSoC4/RTC.c **** *
1066:Generated_Source\PSoC4/RTC.c **** * \return
1067:Generated_Source\PSoC4/RTC.c **** * bcdNum - A 4-byte BCD equivalent of the passed hexadecimal number. 
1068:Generated_Source\PSoC4/RTC.c **** * Hexadecimal number 0x11223344 -> returned BCD number 0x17345168.
1069:Generated_Source\PSoC4/RTC.c **** *
1070:Generated_Source\PSoC4/RTC.c **** *******************************************************************************/
1071:Generated_Source\PSoC4/RTC.c **** uint32 RTC_ConvertDecToBCD(uint32 decNum)
1072:Generated_Source\PSoC4/RTC.c **** {
 509              		.loc 2 1072 0
 510              		.cfi_startproc
 511              		@ args = 0, pretend = 0, frame = 0
 512              		@ frame_needed = 0, uses_anonymous_args = 0
 513              	.LVL57:
 514 0000 70B5     		push	{r4, r5, r6, lr}
 515              		.cfi_def_cfa_offset 16
 516              		.cfi_offset 4, -16
 517              		.cfi_offset 5, -12
 518              		.cfi_offset 6, -8
 519              		.cfi_offset 14, -4
1073:Generated_Source\PSoC4/RTC.c ****     uint32 shift;
1074:Generated_Source\PSoC4/RTC.c ****     uint32 tmpVal;
1075:Generated_Source\PSoC4/RTC.c ****     uint32 retVal;
1076:Generated_Source\PSoC4/RTC.c **** 
1077:Generated_Source\PSoC4/RTC.c ****     shift  = 0u;
1078:Generated_Source\PSoC4/RTC.c ****     retVal = 0u;
 520              		.loc 2 1078 0
 521 0002 0025     		movs	r5, #0
1072:Generated_Source\PSoC4/RTC.c ****     uint32 shift;
 522              		.loc 2 1072 0
 523 0004 0400     		movs	r4, r0
 524              	.LVL58:
1077:Generated_Source\PSoC4/RTC.c ****     retVal = 0u;
 525              		.loc 2 1077 0
 526 0006 2E00     		movs	r6, r5
 527              	.LVL59:
 528              	.L28:
1079:Generated_Source\PSoC4/RTC.c ****     tmpVal = decNum;
1080:Generated_Source\PSoC4/RTC.c **** 
1081:Generated_Source\PSoC4/RTC.c ****     do
1082:Generated_Source\PSoC4/RTC.c ****     {
1083:Generated_Source\PSoC4/RTC.c ****         retVal |= ((tmpVal % 10u) << shift);
 529              		.loc 2 1083 0 discriminator 1
 530 0008 2000     		movs	r0, r4
 531 000a 0A21     		movs	r1, #10
 532 000c FFF7FEFF 		bl	__aeabi_uidivmod
ARM GAS  C:\Users\Petro\AppData\Local\Temp\cc4bDtSi.s 			page 53


 533              	.LVL60:
 534 0010 B140     		lsls	r1, r1, r6
1084:Generated_Source\PSoC4/RTC.c ****         tmpVal /= 10u;
 535              		.loc 2 1084 0 discriminator 1
 536 0012 2000     		movs	r0, r4
1083:Generated_Source\PSoC4/RTC.c ****         tmpVal /= 10u;
 537              		.loc 2 1083 0 discriminator 1
 538 0014 0D43     		orrs	r5, r1
 539              	.LVL61:
 540              		.loc 2 1084 0 discriminator 1
 541 0016 0A21     		movs	r1, #10
 542 0018 FFF7FEFF 		bl	__aeabi_uidiv
 543              	.LVL62:
1085:Generated_Source\PSoC4/RTC.c ****         shift  += RTC_BCD_NUMBER_SIZE;
 544              		.loc 2 1085 0 discriminator 1
 545 001c 0436     		adds	r6, r6, #4
 546              	.LVL63:
1084:Generated_Source\PSoC4/RTC.c ****         tmpVal /= 10u;
 547              		.loc 2 1084 0 discriminator 1
 548 001e 0400     		movs	r4, r0
 549              	.LVL64:
1086:Generated_Source\PSoC4/RTC.c ****     }
1087:Generated_Source\PSoC4/RTC.c ****     while(tmpVal >= 10u);
 550              		.loc 2 1087 0 discriminator 1
 551 0020 0928     		cmp	r0, #9
 552 0022 F1D8     		bhi	.L28
 553              	.LVL65:
1088:Generated_Source\PSoC4/RTC.c **** 
1089:Generated_Source\PSoC4/RTC.c ****     retVal |= (tmpVal << shift);
1090:Generated_Source\PSoC4/RTC.c **** 
1091:Generated_Source\PSoC4/RTC.c ****     return(retVal);
 554              		.loc 2 1091 0
 555 0024 B440     		lsls	r4, r4, r6
 556 0026 2000     		movs	r0, r4
 557              	.LVL66:
1092:Generated_Source\PSoC4/RTC.c **** }
 558              		.loc 2 1092 0
 559              		@ sp needed
1091:Generated_Source\PSoC4/RTC.c **** }
 560              		.loc 2 1091 0
 561 0028 2843     		orrs	r0, r5
 562              	.LVL67:
 563              	.LVL68:
 564              		.loc 2 1092 0
 565 002a 70BD     		pop	{r4, r5, r6, pc}
 566              		.cfi_endproc
 567              	.LFE43:
 568              		.size	RTC_ConvertDecToBCD, .-RTC_ConvertDecToBCD
 569              		.section	.text.RTC_Update,"ax",%progbits
 570              		.align	1
 571              		.global	RTC_Update
 572              		.code	16
 573              		.thumb_func
 574              		.type	RTC_Update, %function
 575              	RTC_Update:
 576              	.LFB44:
1093:Generated_Source\PSoC4/RTC.c **** 
ARM GAS  C:\Users\Petro\AppData\Local\Temp\cc4bDtSi.s 			page 54


1094:Generated_Source\PSoC4/RTC.c **** 
1095:Generated_Source\PSoC4/RTC.c **** /*******************************************************************************
1096:Generated_Source\PSoC4/RTC.c **** * Function Name: RTC_Update
1097:Generated_Source\PSoC4/RTC.c **** ****************************************************************************//**
1098:Generated_Source\PSoC4/RTC.c **** *
1099:Generated_Source\PSoC4/RTC.c **** * This API updates the time registers and performs alarm/DST check.
1100:Generated_Source\PSoC4/RTC.c **** *
1101:Generated_Source\PSoC4/RTC.c **** * This function increments the time/date registers by an input clock period.
1102:Generated_Source\PSoC4/RTC.c **** * The period is set by RTC_SetPeriod() API or WDT period selected 
1103:Generated_Source\PSoC4/RTC.c **** * for RTC in the clocks configuration window (low frequency clocks tab) 
1104:Generated_Source\PSoC4/RTC.c **** * interface every time it is called.
1105:Generated_Source\PSoC4/RTC.c **** *
1106:Generated_Source\PSoC4/RTC.c **** * API is automatically mapped to the callback slot of WDT or DeepSleep Timer 
1107:Generated_Source\PSoC4/RTC.c **** * and period, if the configuration is as follows:
1108:Generated_Source\PSoC4/RTC.c **** * 1) Option "Implement RTC update manually" in the customizer is unchecked
1109:Generated_Source\PSoC4/RTC.c **** * 2) One of WDTs or DeeSleep Timers is selected in the "Use for RTC" panel of 
1110:Generated_Source\PSoC4/RTC.c **** * the low frequency clocks tab
1111:Generated_Source\PSoC4/RTC.c **** * 3) Option "Implementation by IDE" is selected in the "Timer (WDT) ISR" panel.
1112:Generated_Source\PSoC4/RTC.c **** *
1113:Generated_Source\PSoC4/RTC.c **** * If option "Implement RTC update manually" is checked in the customizer or
1114:Generated_Source\PSoC4/RTC.c **** * option "None" is selected in the "Use for RTC" panel, it is the user's
1115:Generated_Source\PSoC4/RTC.c **** * responsibility:
1116:Generated_Source\PSoC4/RTC.c **** * 1) to call this API from the clock ISR to be used as the RTC's input
1117:Generated_Source\PSoC4/RTC.c **** * 2) set the period of the RTC through RTC_SetPeriod() API.
1118:Generated_Source\PSoC4/RTC.c **** *
1119:Generated_Source\PSoC4/RTC.c **** * \note Updates the Unix time register, updates the alarm and DST status.
1120:Generated_Source\PSoC4/RTC.c **** *
1121:Generated_Source\PSoC4/RTC.c **** *******************************************************************************/
1122:Generated_Source\PSoC4/RTC.c **** void RTC_Update(void)
1123:Generated_Source\PSoC4/RTC.c **** {
 577              		.loc 2 1123 0
 578              		.cfi_startproc
 579              		@ args = 0, pretend = 0, frame = 0
 580              		@ frame_needed = 0, uses_anonymous_args = 0
 581 0000 F0B5     		push	{r4, r5, r6, r7, lr}
 582              		.cfi_def_cfa_offset 20
 583              		.cfi_offset 4, -20
 584              		.cfi_offset 5, -16
 585              		.cfi_offset 6, -12
 586              		.cfi_offset 7, -8
 587              		.cfi_offset 14, -4
1124:Generated_Source\PSoC4/RTC.c ****     static uint32 RTC_currentTickNumber = 0u;
1125:Generated_Source\PSoC4/RTC.c ****     RTC_currentTickNumber += RTC_updateTimePeriod;
 588              		.loc 2 1125 0
 589 0002 0A4F     		ldr	r7, .L32
 590 0004 BB68     		ldr	r3, [r7, #8]
 591 0006 3A68     		ldr	r2, [r7]
 592 0008 9B18     		adds	r3, r3, r2
1126:Generated_Source\PSoC4/RTC.c **** 
1127:Generated_Source\PSoC4/RTC.c ****     if(RTC_currentTickNumber >= RTC_tickRefOneSec)
 593              		.loc 2 1127 0
 594 000a 7A68     		ldr	r2, [r7, #4]
1125:Generated_Source\PSoC4/RTC.c **** 
 595              		.loc 2 1125 0
 596 000c BB60     		str	r3, [r7, #8]
 597              		.loc 2 1127 0
 598 000e 9342     		cmp	r3, r2
ARM GAS  C:\Users\Petro\AppData\Local\Temp\cc4bDtSi.s 			page 55


 599 0010 0AD3     		bcc	.L30
1128:Generated_Source\PSoC4/RTC.c ****     {
1129:Generated_Source\PSoC4/RTC.c ****         RTC_unixTime++;
 600              		.loc 2 1129 0
 601 0012 0120     		movs	r0, #1
 602 0014 0021     		movs	r1, #0
 603 0016 064E     		ldr	r6, .L32+4
1130:Generated_Source\PSoC4/RTC.c ****         RTC_currentTickNumber = 
 604              		.loc 2 1130 0
 605 0018 9B1A     		subs	r3, r3, r2
1129:Generated_Source\PSoC4/RTC.c ****         RTC_currentTickNumber = 
 606              		.loc 2 1129 0
 607 001a 3468     		ldr	r4, [r6]
 608 001c 7568     		ldr	r5, [r6, #4]
 609 001e 0019     		adds	r0, r0, r4
 610 0020 6941     		adcs	r1, r1, r5
 611 0022 3060     		str	r0, [r6]
 612 0024 7160     		str	r1, [r6, #4]
 613              		.loc 2 1130 0
 614 0026 BB60     		str	r3, [r7, #8]
 615              	.L30:
1131:Generated_Source\PSoC4/RTC.c ****         (uint32) RTC_currentTickNumber - RTC_tickRefOneSec;
1132:Generated_Source\PSoC4/RTC.c **** 
1133:Generated_Source\PSoC4/RTC.c ****     #if(0u != RTC_INITIAL_DST_STATUS)
1134:Generated_Source\PSoC4/RTC.c ****         if(RTC_unixTime == RTC_unixTimeDstStart)
1135:Generated_Source\PSoC4/RTC.c ****         {
1136:Generated_Source\PSoC4/RTC.c ****             RTC_dstStatus = 1u;
1137:Generated_Source\PSoC4/RTC.c ****             RTC_dstTimeOffset = RTC_SECONDS_PER_HOUR;
1138:Generated_Source\PSoC4/RTC.c ****         }
1139:Generated_Source\PSoC4/RTC.c **** 
1140:Generated_Source\PSoC4/RTC.c ****         if(RTC_unixTime == (RTC_unixTimeDstStop - RTC_dstTimeOffset))
1141:Generated_Source\PSoC4/RTC.c ****         {
1142:Generated_Source\PSoC4/RTC.c ****             RTC_dstStatus = 0u;
1143:Generated_Source\PSoC4/RTC.c ****             RTC_dstTimeOffset = 0u;
1144:Generated_Source\PSoC4/RTC.c ****             RTC_unixTimeDstStart = RTC_GetDstUnixTime(&RTC_dstStartTime);
1145:Generated_Source\PSoC4/RTC.c ****             RTC_unixTimeDstStop  = RTC_GetDstUnixTime(&RTC_dstStopTime);
1146:Generated_Source\PSoC4/RTC.c ****         }
1147:Generated_Source\PSoC4/RTC.c ****     #endif /* (0u != RTC_INITIAL_DST_STATUS) */
1148:Generated_Source\PSoC4/RTC.c **** 
1149:Generated_Source\PSoC4/RTC.c ****     #if(0u != RTC_INITIAL_ALARM_STATUS)
1150:Generated_Source\PSoC4/RTC.c ****         if((RTC_unixTime + RTC_dstTimeOffset) == RTC_unixTimeAlarm)
1151:Generated_Source\PSoC4/RTC.c ****         {
1152:Generated_Source\PSoC4/RTC.c ****             RTC_currentTimeDate.status |= (1uL << RTC_STATUS_ALARM_OFFSET);
1153:Generated_Source\PSoC4/RTC.c ****             RTC_alarmCurStatus = RTC_alarmCfgMask;
1154:Generated_Source\PSoC4/RTC.c **** 
1155:Generated_Source\PSoC4/RTC.c ****             RTC_unixTimeAlarm = 
1156:Generated_Source\PSoC4/RTC.c ****             RTC_GetNexAlarmTime(RTC_unixTime + RTC_dstTimeOffset,
1157:Generated_Source\PSoC4/RTC.c ****                                                                    (uint8)RTC_alarmCfgMask);
1158:Generated_Source\PSoC4/RTC.c **** 
1159:Generated_Source\PSoC4/RTC.c ****             /* Call callback function only after new alarm time is obtained.
1160:Generated_Source\PSoC4/RTC.c ****             * Cypress ticket #264756
1161:Generated_Source\PSoC4/RTC.c ****             */
1162:Generated_Source\PSoC4/RTC.c ****             if (RTC_alarmCallbackPtr != NULL)
1163:Generated_Source\PSoC4/RTC.c ****             {
1164:Generated_Source\PSoC4/RTC.c ****                 RTC_alarmCallbackPtr();
1165:Generated_Source\PSoC4/RTC.c ****             }
1166:Generated_Source\PSoC4/RTC.c ****         }
ARM GAS  C:\Users\Petro\AppData\Local\Temp\cc4bDtSi.s 			page 56


1167:Generated_Source\PSoC4/RTC.c ****     #endif/* (0u != RTC_INITIAL_ALARM_STATUS) */
1168:Generated_Source\PSoC4/RTC.c ****     }
1169:Generated_Source\PSoC4/RTC.c **** }
 616              		.loc 2 1169 0
 617              		@ sp needed
 618 0028 F0BD     		pop	{r4, r5, r6, r7, pc}
 619              	.L33:
 620 002a C046     		.align	2
 621              	.L32:
 622 002c 00000000 		.word	.LANCHOR0
 623 0030 00000000 		.word	RTC_unixTime
 624              		.cfi_endproc
 625              	.LFE44:
 626              		.size	RTC_Update, .-RTC_Update
 627              		.global	__aeabi_lmul
 628              		.section	.text.RTC_DateTimeToUnix,"ax",%progbits
 629              		.align	1
 630              		.global	RTC_DateTimeToUnix
 631              		.code	16
 632              		.thumb_func
 633              		.type	RTC_DateTimeToUnix, %function
 634              	RTC_DateTimeToUnix:
 635              	.LFB45:
1170:Generated_Source\PSoC4/RTC.c **** 
1171:Generated_Source\PSoC4/RTC.c **** 
1172:Generated_Source\PSoC4/RTC.c **** /*******************************************************************************
1173:Generated_Source\PSoC4/RTC.c **** * Function Name: RTC_DateTimeToUnix
1174:Generated_Source\PSoC4/RTC.c **** ****************************************************************************//**
1175:Generated_Source\PSoC4/RTC.c **** *
1176:Generated_Source\PSoC4/RTC.c **** * This is an internal function to convert the date and time from the regular 
1177:Generated_Source\PSoC4/RTC.c **** * time format into the UNIX time format.
1178:Generated_Source\PSoC4/RTC.c **** *
1179:Generated_Source\PSoC4/RTC.c **** * \param inputDate
1180:Generated_Source\PSoC4/RTC.c **** * The date in the selected in the customizer "date format"
1181:Generated_Source\PSoC4/RTC.c **** *
1182:Generated_Source\PSoC4/RTC.c **** * \param inputTime
1183:Generated_Source\PSoC4/RTC.c **** * The time in the defined "time format"
1184:Generated_Source\PSoC4/RTC.c **** *
1185:Generated_Source\PSoC4/RTC.c **** * \return
1186:Generated_Source\PSoC4/RTC.c **** * Returns the date and time in the UNIX format
1187:Generated_Source\PSoC4/RTC.c **** *
1188:Generated_Source\PSoC4/RTC.c **** *******************************************************************************/
1189:Generated_Source\PSoC4/RTC.c **** uint64 RTC_DateTimeToUnix(uint32 inputDate, uint32 inputTime)
1190:Generated_Source\PSoC4/RTC.c **** {
 636              		.loc 2 1190 0
 637              		.cfi_startproc
 638              		@ args = 0, pretend = 0, frame = 24
 639              		@ frame_needed = 0, uses_anonymous_args = 0
 640              	.LVL69:
 641 0000 F0B5     		push	{r4, r5, r6, r7, lr}
 642              		.cfi_def_cfa_offset 20
 643              		.cfi_offset 4, -20
 644              		.cfi_offset 5, -16
 645              		.cfi_offset 6, -12
 646              		.cfi_offset 7, -8
 647              		.cfi_offset 14, -4
 648 0002 87B0     		sub	sp, sp, #28
ARM GAS  C:\Users\Petro\AppData\Local\Temp\cc4bDtSi.s 			page 57


 649              		.cfi_def_cfa_offset 48
1191:Generated_Source\PSoC4/RTC.c ****     uint32 i;
1192:Generated_Source\PSoC4/RTC.c ****     uint32 tmpYear;
1193:Generated_Source\PSoC4/RTC.c ****     uint32 tmpMonth;
1194:Generated_Source\PSoC4/RTC.c ****     uint32 tmpVal;
1195:Generated_Source\PSoC4/RTC.c ****     uint64 unixTime;
1196:Generated_Source\PSoC4/RTC.c **** 
1197:Generated_Source\PSoC4/RTC.c ****     unixTime = 0u;
 650              		.loc 2 1197 0
 651 0004 0024     		movs	r4, #0
1190:Generated_Source\PSoC4/RTC.c ****     uint32 i;
 652              		.loc 2 1190 0
 653 0006 0500     		movs	r5, r0
 654 0008 0F00     		movs	r7, r1
1198:Generated_Source\PSoC4/RTC.c ****     tmpYear = RTC_GetYear(inputDate);
 655              		.loc 2 1198 0
 656 000a FFF7FEFF 		bl	RTC_GetYear
 657              	.LVL70:
1197:Generated_Source\PSoC4/RTC.c ****     tmpYear = RTC_GetYear(inputDate);
 658              		.loc 2 1197 0
 659 000e 0023     		movs	r3, #0
 660 0010 0093     		str	r3, [sp]
 661 0012 0194     		str	r4, [sp, #4]
1199:Generated_Source\PSoC4/RTC.c **** 
1200:Generated_Source\PSoC4/RTC.c ****     /* Calculate seconds from epoch start up to (but not including) current year */
1201:Generated_Source\PSoC4/RTC.c ****     for(i = RTC_YEAR_0; i < tmpYear; i++)
 662              		.loc 2 1201 0
 663 0014 404C     		ldr	r4, .L49
1198:Generated_Source\PSoC4/RTC.c **** 
 664              		.loc 2 1198 0
 665 0016 0390     		str	r0, [sp, #12]
 666              	.LVL71:
 667              	.L35:
 668              		.loc 2 1201 0 discriminator 1
 669 0018 039B     		ldr	r3, [sp, #12]
 670 001a 9C42     		cmp	r4, r3
 671 001c 10D2     		bcs	.L48
1202:Generated_Source\PSoC4/RTC.c ****     {
1203:Generated_Source\PSoC4/RTC.c ****         if(0u != RTC_LeapYear(i))
 672              		.loc 2 1203 0
 673 001e 2000     		movs	r0, r4
 674 0020 FFF7FEFF 		bl	RTC_LeapYear
 675              	.LVL72:
1204:Generated_Source\PSoC4/RTC.c ****         {
1205:Generated_Source\PSoC4/RTC.c ****             unixTime += RTC_SECONDS_PER_LEAP_YEAR;
 676              		.loc 2 1205 0
 677 0024 009A     		ldr	r2, [sp]
 678 0026 019B     		ldr	r3, [sp, #4]
1203:Generated_Source\PSoC4/RTC.c ****         {
 679              		.loc 2 1203 0
 680 0028 0028     		cmp	r0, #0
 681 002a 01D0     		beq	.L36
 682              		.loc 2 1205 0
 683 002c 3B48     		ldr	r0, .L49+4
 684 002e 00E0     		b	.L47
 685              	.L36:
1206:Generated_Source\PSoC4/RTC.c ****         }
ARM GAS  C:\Users\Petro\AppData\Local\Temp\cc4bDtSi.s 			page 58


1207:Generated_Source\PSoC4/RTC.c ****         else
1208:Generated_Source\PSoC4/RTC.c ****         {
1209:Generated_Source\PSoC4/RTC.c ****             unixTime += RTC_SECONDS_PER_NONLEAP_YEAR;
 686              		.loc 2 1209 0
 687 0030 3B48     		ldr	r0, .L49+8
 688              	.L47:
 689 0032 0021     		movs	r1, #0
 690 0034 1218     		adds	r2, r2, r0
 691 0036 4B41     		adcs	r3, r3, r1
1201:Generated_Source\PSoC4/RTC.c ****     {
 692              		.loc 2 1201 0
 693 0038 0134     		adds	r4, r4, #1
 694              	.LVL73:
 695              		.loc 2 1209 0
 696 003a 0092     		str	r2, [sp]
 697 003c 0193     		str	r3, [sp, #4]
 698              	.LVL74:
 699 003e EBE7     		b	.L35
 700              	.LVL75:
 701              	.L48:
 702              	.LBB35:
 703              	.LBB36:
 770:Generated_Source\PSoC4/RTC.h **** 
 704              		.loc 1 770 0
 705 0040 0A23     		movs	r3, #10
 706 0042 EC00     		lsls	r4, r5, #3
 707              	.LVL76:
 708 0044 E40F     		lsrs	r4, r4, #31
 709 0046 5C43     		muls	r4, r3
 710 0048 2B01     		lsls	r3, r5, #4
 711 004a 1B0F     		lsrs	r3, r3, #28
 712 004c E418     		adds	r4, r4, r3
 713              	.LVL77:
 714              	.LBE36:
 715              	.LBE35:
 716              	.LBB37:
 717              	.LBB38:
1336:Generated_Source\PSoC4/RTC.h **** 
1337:Generated_Source\PSoC4/RTC.h **** 
1338:Generated_Source\PSoC4/RTC.h **** /*******************************************************************************
1339:Generated_Source\PSoC4/RTC.h **** * Function Name: RTC_DaysBeforeMonth
1340:Generated_Source\PSoC4/RTC.h **** ****************************************************************************//**
1341:Generated_Source\PSoC4/RTC.h **** *
1342:Generated_Source\PSoC4/RTC.h **** * Calculates how many days elapsed from the beginning of the year to the
1343:Generated_Source\PSoC4/RTC.h **** * beginning of the current month.
1344:Generated_Source\PSoC4/RTC.h **** *
1345:Generated_Source\PSoC4/RTC.h **** * \param month
1346:Generated_Source\PSoC4/RTC.h **** * A month of a year, see \ref group_rtc_month
1347:Generated_Source\PSoC4/RTC.h **** *
1348:Generated_Source\PSoC4/RTC.h **** * \param year
1349:Generated_Source\PSoC4/RTC.h **** * A year value.
1350:Generated_Source\PSoC4/RTC.h **** *
1351:Generated_Source\PSoC4/RTC.h **** * \return
1352:Generated_Source\PSoC4/RTC.h **** * A number of days elapsed from the beginning of the year to the
1353:Generated_Source\PSoC4/RTC.h **** * beginning of the current month passed through the parameters.
1354:Generated_Source\PSoC4/RTC.h **** *
1355:Generated_Source\PSoC4/RTC.h **** *******************************************************************************/
ARM GAS  C:\Users\Petro\AppData\Local\Temp\cc4bDtSi.s 			page 59


1356:Generated_Source\PSoC4/RTC.h **** static CY_INLINE uint32 RTC_DaysBeforeMonth(uint32 month, uint32 year)
1357:Generated_Source\PSoC4/RTC.h **** {
1358:Generated_Source\PSoC4/RTC.h ****     uint32 retVal;
1359:Generated_Source\PSoC4/RTC.h **** 
1360:Generated_Source\PSoC4/RTC.h ****     retVal = RTC_daysBeforeMonthTbl[month - 1u];
 718              		.loc 1 1360 0
 719 004e 631E     		subs	r3, r4, #1
 720 0050 344A     		ldr	r2, .L49+12
 721 0052 5B00     		lsls	r3, r3, #1
1361:Generated_Source\PSoC4/RTC.h ****     if((0u != RTC_LeapYear(year)) && (month > (uint32)RTC_FEBRUARY))
 722              		.loc 1 1361 0
 723 0054 0398     		ldr	r0, [sp, #12]
1360:Generated_Source\PSoC4/RTC.h ****     if((0u != RTC_LeapYear(year)) && (month > (uint32)RTC_FEBRUARY))
 724              		.loc 1 1360 0
 725 0056 9E5A     		ldrh	r6, [r3, r2]
 726              	.LVL78:
 727              		.loc 1 1361 0
 728 0058 FFF7FEFF 		bl	RTC_LeapYear
 729              	.LVL79:
 730 005c 0028     		cmp	r0, #0
 731 005e 04D0     		beq	.L39
1362:Generated_Source\PSoC4/RTC.h ****     {
1363:Generated_Source\PSoC4/RTC.h ****         retVal++;
 732              		.loc 1 1363 0
 733 0060 0223     		movs	r3, #2
 734 0062 A342     		cmp	r3, r4
 735 0064 A441     		sbcs	r4, r4, r4
 736 0066 6442     		rsbs	r4, r4, #0
 737 0068 3619     		adds	r6, r6, r4
 738              	.LVL80:
 739              	.L39:
 740              	.LBE38:
 741              	.LBE37:
 742              	.LBB39:
 743              	.LBB40:
 745:Generated_Source\PSoC4/RTC.h ****     retVal += (date & RTC_DAY_MASK) >> RTC_DAY_OFFSET;
 744              		.loc 1 745 0
 745 006a 0323     		movs	r3, #3
 746 006c 0A24     		movs	r4, #10
 747 006e 280D     		lsrs	r0, r5, #20
 748 0070 290C     		lsrs	r1, r5, #16
 749 0072 0F25     		movs	r5, #15
 750              	.LVL81:
 751 0074 1840     		ands	r0, r3
 752 0076 0023     		movs	r3, #0
 753 0078 6043     		muls	r0, r4
 754              	.LVL82:
 755 007a 2940     		ands	r1, r5
 756 007c 0A18     		adds	r2, r1, r0
 757 007e 3000     		movs	r0, r6
 758 0080 1900     		movs	r1, r3
 759              	.LBE40:
 760              	.LBE39:
 761              	.LBB41:
 762              	.LBB42:
 746:Generated_Source\PSoC4/RTC.h **** 
 763              		.loc 1 746 0
ARM GAS  C:\Users\Petro\AppData\Local\Temp\cc4bDtSi.s 			page 60


 764 0082 0326     		movs	r6, #3
 765              	.LVL83:
 766 0084 8018     		adds	r0, r0, r2
 767 0086 5941     		adcs	r1, r1, r3
 768              	.LVL84:
 769 0088 0023     		movs	r3, #0
 770 008a 274A     		ldr	r2, .L49+16
 771 008c FFF7FEFF 		bl	__aeabi_lmul
 772              	.LVL85:
 773 0090 3B0D     		lsrs	r3, r7, #20
 774 0092 1E40     		ands	r6, r3
 775 0094 7443     		muls	r4, r6
 776 0096 3B0C     		lsrs	r3, r7, #16
 777 0098 1D40     		ands	r5, r3
 778 009a 6319     		adds	r3, r4, r5
 779 009c 0490     		str	r0, [sp, #16]
 780 009e 0591     		str	r1, [sp, #20]
 781              	.LVL86:
 782 00a0 0393     		str	r3, [sp, #12]
 783              	.LVL87:
 784              	.LBE42:
 785              	.LBE41:
 786              	.LBB43:
 787              	.LBB44:
1174:Generated_Source\PSoC4/RTC.h ****                                        (uint32)RTC_24_HOURS_FORMAT);
 788              		.loc 1 1174 0
 789 00a2 3B02     		lsls	r3, r7, #8
 790 00a4 07D5     		bpl	.L41
 791              	.LVL88:
 792              	.LBE44:
 793              	.LBE43:
 794              	.LBB45:
 795              	.LBB46:
 796              	.LBB47:
 601:Generated_Source\PSoC4/RTC.h **** }
 797              		.loc 1 601 0
 798 00a6 7B02     		lsls	r3, r7, #9
 799 00a8 05D5     		bpl	.L41
 800              	.LVL89:
 801              	.LBE47:
 802              	.LBE46:
 803              	.LBE45:
1210:Generated_Source\PSoC4/RTC.c ****         }
1211:Generated_Source\PSoC4/RTC.c ****     }
1212:Generated_Source\PSoC4/RTC.c **** 
1213:Generated_Source\PSoC4/RTC.c ****     /* Calculates how many seconds had elapsed in this year prior to the current month */
1214:Generated_Source\PSoC4/RTC.c ****     tmpMonth = RTC_GetMonth(inputDate);
1215:Generated_Source\PSoC4/RTC.c ****     tmpVal = RTC_DaysBeforeMonth(tmpMonth, tmpYear);
1216:Generated_Source\PSoC4/RTC.c **** 
1217:Generated_Source\PSoC4/RTC.c ****     /* Calculates how many seconds are in current month days prior to today */
1218:Generated_Source\PSoC4/RTC.c ****     unixTime += (uint64) tmpVal * RTC_SECONDS_PER_DAY;
1219:Generated_Source\PSoC4/RTC.c ****     unixTime += ((uint64) RTC_GetDay(inputDate) - 1u) * RTC_SECONDS_PER_DAY;
1220:Generated_Source\PSoC4/RTC.c **** 
1221:Generated_Source\PSoC4/RTC.c ****     /* Calculates how many seconds have elapsed today up to the current hour */
1222:Generated_Source\PSoC4/RTC.c ****     tmpVal = RTC_GetHours(inputTime);
1223:Generated_Source\PSoC4/RTC.c ****     if(((uint32)RTC_24_HOURS_FORMAT != RTC_GetTimeFormat(inputTime)) &&
1224:Generated_Source\PSoC4/RTC.c ****        ((uint32)RTC_AM != RTC_GetAmPm(inputTime)) && (tmpVal < 12u))
ARM GAS  C:\Users\Petro\AppData\Local\Temp\cc4bDtSi.s 			page 61


 804              		.loc 2 1224 0
 805 00aa 039B     		ldr	r3, [sp, #12]
 806 00ac 0B2B     		cmp	r3, #11
 807 00ae 02D8     		bhi	.L41
1225:Generated_Source\PSoC4/RTC.c ****     {
1226:Generated_Source\PSoC4/RTC.c ****         tmpVal += RTC_HOURS_PER_HALF_DAY;
 808              		.loc 2 1226 0
 809 00b0 039B     		ldr	r3, [sp, #12]
 810 00b2 0C33     		adds	r3, r3, #12
 811 00b4 0393     		str	r3, [sp, #12]
 812              	.LVL90:
 813              	.L41:
 814              	.LBB48:
 815              	.LBB49:
 678:Generated_Source\PSoC4/RTC.h ****     retVal += (inputTime & RTC_MINUTES_MASK) >> RTC_MINUTES_OFFSET;
 816              		.loc 1 678 0
 817 00b6 0723     		movs	r3, #7
 818 00b8 380B     		lsrs	r0, r7, #12
 819 00ba 1840     		ands	r0, r3
 820 00bc 0A21     		movs	r1, #10
 821 00be 0200     		movs	r2, r0
 822              	.LBE49:
 823              	.LBE48:
 824              	.LBB51:
 825              	.LBB52:
 653:Generated_Source\PSoC4/RTC.h ****     retVal += (inputTime & RTC_SECONDS_MASK) >> RTC_SECONDS_OFFSET;
 826              		.loc 1 653 0
 827 00c0 3D09     		lsrs	r5, r7, #4
 828 00c2 2B40     		ands	r3, r5
 829              	.LBE52:
 830              	.LBE51:
 831              	.LBB54:
 832              	.LBB50:
 678:Generated_Source\PSoC4/RTC.h ****     retVal += (inputTime & RTC_MINUTES_MASK) >> RTC_MINUTES_OFFSET;
 833              		.loc 1 678 0
 834 00c4 4A43     		muls	r2, r1
 835              	.LVL91:
 836              	.LBE50:
 837              	.LBE54:
 838              	.LBB55:
 839              	.LBB53:
 653:Generated_Source\PSoC4/RTC.h ****     retVal += (inputTime & RTC_SECONDS_MASK) >> RTC_SECONDS_OFFSET;
 840              		.loc 1 653 0
 841 00c6 5943     		muls	r1, r3
 842 00c8 0F24     		movs	r4, #15
 843 00ca 0D00     		movs	r5, r1
 844              	.LVL92:
 845 00cc 380A     		lsrs	r0, r7, #8
 846 00ce 2040     		ands	r0, r4
 847 00d0 3C40     		ands	r4, r7
 848 00d2 6619     		adds	r6, r4, r5
 849 00d4 0125     		movs	r5, #1
 850 00d6 0027     		movs	r7, #0
 851              	.LVL93:
 852 00d8 144C     		ldr	r4, .L49+20
 853 00da 8018     		adds	r0, r0, r2
 854 00dc 0023     		movs	r3, #0
ARM GAS  C:\Users\Petro\AppData\Local\Temp\cc4bDtSi.s 			page 62


 855 00de 3C22     		movs	r2, #60
 856 00e0 0021     		movs	r1, #0
 857 00e2 6D42     		rsbs	r5, r5, #0
 858 00e4 FFF7FEFF 		bl	__aeabi_lmul
 859              	.LVL94:
 860 00e8 009A     		ldr	r2, [sp]
 861 00ea 019B     		ldr	r3, [sp, #4]
 862 00ec A419     		adds	r4, r4, r6
 863 00ee 7D41     		adcs	r5, r5, r7
 864 00f0 2418     		adds	r4, r4, r0
 865 00f2 4D41     		adcs	r5, r5, r1
 866 00f4 A418     		adds	r4, r4, r2
 867 00f6 5D41     		adcs	r5, r5, r3
 868 00f8 049A     		ldr	r2, [sp, #16]
 869 00fa 059B     		ldr	r3, [sp, #20]
 870 00fc A418     		adds	r4, r4, r2
 871 00fe 5D41     		adcs	r5, r5, r3
 872              	.LVL95:
 873              	.LBE53:
 874              	.LBE55:
1227:Generated_Source\PSoC4/RTC.c ****     }
1228:Generated_Source\PSoC4/RTC.c ****     unixTime += (uint64)tmpVal * RTC_SECONDS_PER_HOUR;
1229:Generated_Source\PSoC4/RTC.c **** 
1230:Generated_Source\PSoC4/RTC.c ****     /* Calculates how many seconds have elapsed today up to the current minute */
1231:Generated_Source\PSoC4/RTC.c ****     unixTime += ((uint64) RTC_GetMinutes(inputTime)) * RTC_SECONDS_PER_MINUTE;
1232:Generated_Source\PSoC4/RTC.c **** 
1233:Generated_Source\PSoC4/RTC.c ****     /* Add remaining seconds of current minute */
1234:Generated_Source\PSoC4/RTC.c ****     unixTime += RTC_GetSecond(inputTime);
1235:Generated_Source\PSoC4/RTC.c **** 
1236:Generated_Source\PSoC4/RTC.c ****     return(unixTime);
 875              		.loc 2 1236 0
 876 0100 E122     		movs	r2, #225
 877 0102 0023     		movs	r3, #0
 878 0104 1201     		lsls	r2, r2, #4
 879 0106 0398     		ldr	r0, [sp, #12]
 880 0108 3900     		movs	r1, r7
 881 010a FFF7FEFF 		bl	__aeabi_lmul
 882              	.LVL96:
 883 010e 0019     		adds	r0, r0, r4
 884 0110 6941     		adcs	r1, r1, r5
1237:Generated_Source\PSoC4/RTC.c **** }
 885              		.loc 2 1237 0
 886 0112 07B0     		add	sp, sp, #28
 887              		@ sp needed
 888              	.LVL97:
 889 0114 F0BD     		pop	{r4, r5, r6, r7, pc}
 890              	.L50:
 891 0116 C046     		.align	2
 892              	.L49:
 893 0118 B2070000 		.word	1970
 894 011c 0085E201 		.word	31622400
 895 0120 8033E101 		.word	31536000
 896 0124 00000000 		.word	.LANCHOR1
 897 0128 80510100 		.word	86400
 898 012c 80AEFEFF 		.word	-86400
 899              		.cfi_endproc
 900              	.LFE45:
ARM GAS  C:\Users\Petro\AppData\Local\Temp\cc4bDtSi.s 			page 63


 901              		.size	RTC_DateTimeToUnix, .-RTC_DateTimeToUnix
 902              		.section	.text.RTC_SetDateAndTime,"ax",%progbits
 903              		.align	1
 904              		.global	RTC_SetDateAndTime
 905              		.code	16
 906              		.thumb_func
 907              		.type	RTC_SetDateAndTime, %function
 908              	RTC_SetDateAndTime:
 909              	.LFB32:
 228:Generated_Source\PSoC4/RTC.c ****     uint32 tmpDay;
 910              		.loc 2 228 0
 911              		.cfi_startproc
 912              		@ args = 0, pretend = 0, frame = 8
 913              		@ frame_needed = 0, uses_anonymous_args = 0
 914              	.LVL98:
 915 0000 F7B5     		push	{r0, r1, r2, r4, r5, r6, r7, lr}
 916              		.cfi_def_cfa_offset 32
 917              		.cfi_offset 0, -32
 918              		.cfi_offset 1, -28
 919              		.cfi_offset 2, -24
 920              		.cfi_offset 4, -20
 921              		.cfi_offset 5, -16
 922              		.cfi_offset 6, -12
 923              		.cfi_offset 7, -8
 924              		.cfi_offset 14, -4
 925              	.LBB60:
 926              	.LBB61:
 746:Generated_Source\PSoC4/RTC.h **** 
 927              		.loc 1 746 0
 928 0002 8B02     		lsls	r3, r1, #10
 929              	.LBE61:
 930              	.LBE60:
 228:Generated_Source\PSoC4/RTC.c ****     uint32 tmpDay;
 931              		.loc 2 228 0
 932 0004 0C00     		movs	r4, r1
 933              	.LBB64:
 934              	.LBB62:
 746:Generated_Source\PSoC4/RTC.h **** 
 935              		.loc 1 746 0
 936 0006 0A21     		movs	r1, #10
 937              	.LVL99:
 938 0008 0F22     		movs	r2, #15
 939 000a 9B0F     		lsrs	r3, r3, #30
 940 000c 4B43     		muls	r3, r1
 941              	.LBE62:
 942              	.LBE64:
 228:Generated_Source\PSoC4/RTC.c ****     uint32 tmpDay;
 943              		.loc 2 228 0
 944 000e 0600     		movs	r6, r0
 945              	.LBB65:
 946              	.LBB63:
 746:Generated_Source\PSoC4/RTC.h **** 
 947              		.loc 1 746 0
 948 0010 200C     		lsrs	r0, r4, #16
 949              	.LVL100:
 950 0012 1040     		ands	r0, r2
 951 0014 1B18     		adds	r3, r3, r0
ARM GAS  C:\Users\Petro\AppData\Local\Temp\cc4bDtSi.s 			page 64


 952 0016 0193     		str	r3, [sp, #4]
 953              	.LVL101:
 954              	.LBE63:
 955              	.LBE65:
 956              	.LBB66:
 957              	.LBB67:
 770:Generated_Source\PSoC4/RTC.h **** 
 958              		.loc 1 770 0
 959 0018 E300     		lsls	r3, r4, #3
 960 001a DB0F     		lsrs	r3, r3, #31
 961 001c 5943     		muls	r1, r3
 962 001e 230E     		lsrs	r3, r4, #24
 963 0020 1A40     		ands	r2, r3
 964 0022 8B18     		adds	r3, r1, r2
 965              	.LBE67:
 966              	.LBE66:
 235:Generated_Source\PSoC4/RTC.c **** 
 967              		.loc 2 235 0
 968 0024 2000     		movs	r0, r4
 969              	.LBB69:
 970              	.LBB68:
 770:Generated_Source\PSoC4/RTC.h **** 
 971              		.loc 1 770 0
 972 0026 0093     		str	r3, [sp]
 973              	.LVL102:
 974              	.LBE68:
 975              	.LBE69:
 235:Generated_Source\PSoC4/RTC.c **** 
 976              		.loc 2 235 0
 977 0028 FFF7FEFF 		bl	RTC_GetYear
 978              	.LVL103:
 237:Generated_Source\PSoC4/RTC.c ****     RTC_currentTimeDate.date = inputDate;
 979              		.loc 2 237 0
 980 002c 3100     		movs	r1, r6
 235:Generated_Source\PSoC4/RTC.c **** 
 981              		.loc 2 235 0
 982 002e 0700     		movs	r7, r0
 983              	.LVL104:
 237:Generated_Source\PSoC4/RTC.c ****     RTC_currentTimeDate.date = inputDate;
 984              		.loc 2 237 0
 985 0030 2000     		movs	r0, r4
 986              	.LVL105:
 987 0032 FFF7FEFF 		bl	RTC_DateTimeToUnix
 988              	.LVL106:
 989 0036 064B     		ldr	r3, .L52
 238:Generated_Source\PSoC4/RTC.c ****     RTC_currentTimeDate.time = inputTime;
 990              		.loc 2 238 0
 991 0038 064D     		ldr	r5, .L52+4
 237:Generated_Source\PSoC4/RTC.c ****     RTC_currentTimeDate.date = inputDate;
 992              		.loc 2 237 0
 993 003a 1860     		str	r0, [r3]
 994 003c 5960     		str	r1, [r3, #4]
 240:Generated_Source\PSoC4/RTC.c **** 
 995              		.loc 2 240 0
 996 003e 3A00     		movs	r2, r7
 997 0040 0099     		ldr	r1, [sp]
 998 0042 0198     		ldr	r0, [sp, #4]
ARM GAS  C:\Users\Petro\AppData\Local\Temp\cc4bDtSi.s 			page 65


 239:Generated_Source\PSoC4/RTC.c ****     RTC_currentTimeDate.dayOfWeek = RTC_GetDayOfWeek(tmpDay, tmpMonth, tmpYear);
 999              		.loc 2 239 0
 1000 0044 2E60     		str	r6, [r5]
 238:Generated_Source\PSoC4/RTC.c ****     RTC_currentTimeDate.time = inputTime;
 1001              		.loc 2 238 0
 1002 0046 6C60     		str	r4, [r5, #4]
 240:Generated_Source\PSoC4/RTC.c **** 
 1003              		.loc 2 240 0
 1004 0048 FFF7FEFF 		bl	RTC_GetDayOfWeek
 1005              	.LVL107:
 264:Generated_Source\PSoC4/RTC.c **** 
 1006              		.loc 2 264 0
 1007              		@ sp needed
 240:Generated_Source\PSoC4/RTC.c **** 
 1008              		.loc 2 240 0
 1009 004c A860     		str	r0, [r5, #8]
 1010              	.LVL108:
 1011              	.LVL109:
 1012              	.LVL110:
 264:Generated_Source\PSoC4/RTC.c **** 
 1013              		.loc 2 264 0
 1014 004e F7BD     		pop	{r0, r1, r2, r4, r5, r6, r7, pc}
 1015              	.L53:
 1016              		.align	2
 1017              	.L52:
 1018 0050 00000000 		.word	RTC_unixTime
 1019 0054 00000000 		.word	RTC_currentTimeDate
 1020              		.cfi_endproc
 1021              	.LFE32:
 1022              		.size	RTC_SetDateAndTime, .-RTC_SetDateAndTime
 1023              		.section	.text.RTC_Init,"ax",%progbits
 1024              		.align	1
 1025              		.global	RTC_Init
 1026              		.code	16
 1027              		.thumb_func
 1028              		.type	RTC_Init, %function
 1029              	RTC_Init:
 1030              	.LFB31:
 136:Generated_Source\PSoC4/RTC.c ****     uint32 tmpDate;
 1031              		.loc 2 136 0
 1032              		.cfi_startproc
 1033              		@ args = 0, pretend = 0, frame = 0
 1034              		@ frame_needed = 0, uses_anonymous_args = 0
 144:Generated_Source\PSoC4/RTC.c ****     RTC_dstTimeOffset = 0uL;
 1035              		.loc 2 144 0
 1036 0000 0122     		movs	r2, #1
 1037 0002 084B     		ldr	r3, .L55
 136:Generated_Source\PSoC4/RTC.c ****     uint32 tmpDate;
 1038              		.loc 2 136 0
 1039 0004 10B5     		push	{r4, lr}
 1040              		.cfi_def_cfa_offset 8
 1041              		.cfi_offset 4, -8
 1042              		.cfi_offset 14, -4
 144:Generated_Source\PSoC4/RTC.c ****     RTC_dstTimeOffset = 0uL;
 1043              		.loc 2 144 0
 1044 0006 1A70     		strb	r2, [r3]
 145:Generated_Source\PSoC4/RTC.c ****     RTC_currentTimeDate.status = 0uL;
ARM GAS  C:\Users\Petro\AppData\Local\Temp\cc4bDtSi.s 			page 66


 1045              		.loc 2 145 0
 1046 0008 0023     		movs	r3, #0
 1047 000a 074A     		ldr	r2, .L55+4
 194:Generated_Source\PSoC4/RTC.c **** }
 1048              		.loc 2 194 0
 1049 000c 0749     		ldr	r1, .L55+8
 145:Generated_Source\PSoC4/RTC.c ****     RTC_currentTimeDate.status = 0uL;
 1050              		.loc 2 145 0
 1051 000e D360     		str	r3, [r2, #12]
 146:Generated_Source\PSoC4/RTC.c **** 
 1052              		.loc 2 146 0
 1053 0010 074A     		ldr	r2, .L55+12
 194:Generated_Source\PSoC4/RTC.c **** }
 1054              		.loc 2 194 0
 1055 0012 0848     		ldr	r0, .L55+16
 146:Generated_Source\PSoC4/RTC.c **** 
 1056              		.loc 2 146 0
 1057 0014 D360     		str	r3, [r2, #12]
 148:Generated_Source\PSoC4/RTC.c ****     RTC_alarmCurStatus = RTC_INITIAL_ALARM_STATUS;
 1058              		.loc 2 148 0
 1059 0016 084A     		ldr	r2, .L55+20
 195:Generated_Source\PSoC4/RTC.c **** 
 1060              		.loc 2 195 0
 1061              		@ sp needed
 148:Generated_Source\PSoC4/RTC.c ****     RTC_alarmCurStatus = RTC_INITIAL_ALARM_STATUS;
 1062              		.loc 2 148 0
 1063 0018 1370     		strb	r3, [r2]
 149:Generated_Source\PSoC4/RTC.c **** 
 1064              		.loc 2 149 0
 1065 001a 084A     		ldr	r2, .L55+24
 1066 001c 1360     		str	r3, [r2]
 194:Generated_Source\PSoC4/RTC.c **** }
 1067              		.loc 2 194 0
 1068 001e FFF7FEFF 		bl	RTC_SetDateAndTime
 1069              	.LVL111:
 195:Generated_Source\PSoC4/RTC.c **** 
 1070              		.loc 2 195 0
 1071 0022 10BD     		pop	{r4, pc}
 1072              	.L56:
 1073              		.align	2
 1074              	.L55:
 1075 0024 00000000 		.word	RTC_initVar
 1076 0028 00000000 		.word	.LANCHOR0
 1077 002c 16200908 		.word	134815766
 1078 0030 00000000 		.word	RTC_currentTimeDate
 1079 0034 00161000 		.word	1054208
 1080 0038 00000000 		.word	RTC_dstStatus
 1081 003c 00000000 		.word	RTC_alarmCurStatus
 1082              		.cfi_endproc
 1083              	.LFE31:
 1084              		.size	RTC_Init, .-RTC_Init
 1085              		.section	.text.RTC_Start,"ax",%progbits
 1086              		.align	1
 1087              		.global	RTC_Start
 1088              		.code	16
 1089              		.thumb_func
 1090              		.type	RTC_Start, %function
ARM GAS  C:\Users\Petro\AppData\Local\Temp\cc4bDtSi.s 			page 67


 1091              	RTC_Start:
 1092              	.LFB29:
  89:Generated_Source\PSoC4/RTC.c ****     if(0u == RTC_initVar)
 1093              		.loc 2 89 0
 1094              		.cfi_startproc
 1095              		@ args = 0, pretend = 0, frame = 0
 1096              		@ frame_needed = 0, uses_anonymous_args = 0
 1097 0000 10B5     		push	{r4, lr}
 1098              		.cfi_def_cfa_offset 8
 1099              		.cfi_offset 4, -8
 1100              		.cfi_offset 14, -4
  90:Generated_Source\PSoC4/RTC.c ****     {
 1101              		.loc 2 90 0
 1102 0002 034B     		ldr	r3, .L59
 1103 0004 1B78     		ldrb	r3, [r3]
 1104 0006 002B     		cmp	r3, #0
 1105 0008 01D1     		bne	.L57
  92:Generated_Source\PSoC4/RTC.c ****     }
 1106              		.loc 2 92 0
 1107 000a FFF7FEFF 		bl	RTC_Init
 1108              	.LVL112:
 1109              	.L57:
 100:Generated_Source\PSoC4/RTC.c **** 
 1110              		.loc 2 100 0
 1111              		@ sp needed
 1112 000e 10BD     		pop	{r4, pc}
 1113              	.L60:
 1114              		.align	2
 1115              	.L59:
 1116 0010 00000000 		.word	RTC_initVar
 1117              		.cfi_endproc
 1118              	.LFE29:
 1119              		.size	RTC_Start, .-RTC_Start
 1120              		.section	.text.RTC_DaysInMonth,"ax",%progbits
 1121              		.align	1
 1122              		.global	RTC_DaysInMonth
 1123              		.code	16
 1124              		.thumb_func
 1125              		.type	RTC_DaysInMonth, %function
 1126              	RTC_DaysInMonth:
 1127              	.LFB48:
1238:Generated_Source\PSoC4/RTC.c **** 
1239:Generated_Source\PSoC4/RTC.c **** 
1240:Generated_Source\PSoC4/RTC.c **** /*******************************************************************************
1241:Generated_Source\PSoC4/RTC.c **** * Function Name: RTC_UnixToDateTime
1242:Generated_Source\PSoC4/RTC.c **** ****************************************************************************//**
1243:Generated_Source\PSoC4/RTC.c **** *
1244:Generated_Source\PSoC4/RTC.c **** * This is an internal function to convert the date and time from the UNIX time 
1245:Generated_Source\PSoC4/RTC.c **** * format into the regular time format
1246:Generated_Source\PSoC4/RTC.c **** *
1247:Generated_Source\PSoC4/RTC.c **** * \param RTC_DATE_TIME* dateTime
1248:Generated_Source\PSoC4/RTC.c **** * The time and date structure which will be updated time from unixTime value
1249:Generated_Source\PSoC4/RTC.c **** *
1250:Generated_Source\PSoC4/RTC.c **** * \param unixTime
1251:Generated_Source\PSoC4/RTC.c **** * time in unix format
1252:Generated_Source\PSoC4/RTC.c **** *
1253:Generated_Source\PSoC4/RTC.c **** * \param timeFormat
ARM GAS  C:\Users\Petro\AppData\Local\Temp\cc4bDtSi.s 			page 68


1254:Generated_Source\PSoC4/RTC.c **** * dst format of time, see \ref RTC_DST_DATETYPE_ENUM
1255:Generated_Source\PSoC4/RTC.c **** *
1256:Generated_Source\PSoC4/RTC.c **** *******************************************************************************/
1257:Generated_Source\PSoC4/RTC.c **** void RTC_UnixToDateTime(RTC_DATE_TIME* dateTime, uint64 unixTime, uint32 timeFormat)
1258:Generated_Source\PSoC4/RTC.c **** {
1259:Generated_Source\PSoC4/RTC.c ****     uint32 tmpMinute;
1260:Generated_Source\PSoC4/RTC.c ****     uint32 tmpHour;
1261:Generated_Source\PSoC4/RTC.c ****     uint32 tmpAmPmState;
1262:Generated_Source\PSoC4/RTC.c **** 
1263:Generated_Source\PSoC4/RTC.c ****     uint32 tmpDay;
1264:Generated_Source\PSoC4/RTC.c ****     uint32 tmpMonth;
1265:Generated_Source\PSoC4/RTC.c ****     uint32 tmpYear;
1266:Generated_Source\PSoC4/RTC.c **** 
1267:Generated_Source\PSoC4/RTC.c ****     uint32 tmpVar;
1268:Generated_Source\PSoC4/RTC.c **** 
1269:Generated_Source\PSoC4/RTC.c ****     tmpAmPmState = 0u;
1270:Generated_Source\PSoC4/RTC.c ****     tmpYear = RTC_YEAR_0;
1271:Generated_Source\PSoC4/RTC.c ****     tmpVar = RTC_SECONDS_PER_NONLEAP_YEAR;
1272:Generated_Source\PSoC4/RTC.c **** 
1273:Generated_Source\PSoC4/RTC.c ****     /* Calculates current year value. Variable tmpYear
1274:Generated_Source\PSoC4/RTC.c ****     *  increments while it contains value greater than number
1275:Generated_Source\PSoC4/RTC.c ****     *  of seconds in current year.
1276:Generated_Source\PSoC4/RTC.c ****     */
1277:Generated_Source\PSoC4/RTC.c ****     while(unixTime >= tmpVar)
1278:Generated_Source\PSoC4/RTC.c ****     {
1279:Generated_Source\PSoC4/RTC.c ****         unixTime -= tmpVar;
1280:Generated_Source\PSoC4/RTC.c ****         tmpYear++;
1281:Generated_Source\PSoC4/RTC.c **** 
1282:Generated_Source\PSoC4/RTC.c ****         if(0u != RTC_LeapYear(tmpYear))
1283:Generated_Source\PSoC4/RTC.c ****         {
1284:Generated_Source\PSoC4/RTC.c ****             tmpVar = RTC_SECONDS_PER_LEAP_YEAR;
1285:Generated_Source\PSoC4/RTC.c ****         }
1286:Generated_Source\PSoC4/RTC.c ****         else
1287:Generated_Source\PSoC4/RTC.c ****         {
1288:Generated_Source\PSoC4/RTC.c ****             tmpVar = RTC_SECONDS_PER_NONLEAP_YEAR;
1289:Generated_Source\PSoC4/RTC.c ****         }
1290:Generated_Source\PSoC4/RTC.c ****     }
1291:Generated_Source\PSoC4/RTC.c **** 
1292:Generated_Source\PSoC4/RTC.c ****     /* Calculates current month value. The tmpMonth variable increments while 
1293:Generated_Source\PSoC4/RTC.c ****     *  unixTime variable value is greater than time interval from beginning 
1294:Generated_Source\PSoC4/RTC.c ****     *  of current year to beginning of current month
1295:Generated_Source\PSoC4/RTC.c ****     */
1296:Generated_Source\PSoC4/RTC.c ****     tmpMonth = (uint32)RTC_JANUARY;
1297:Generated_Source\PSoC4/RTC.c ****     tmpVar = RTC_DaysInMonth(tmpMonth, tmpYear) * RTC_SECONDS_PER_DAY;
1298:Generated_Source\PSoC4/RTC.c **** 
1299:Generated_Source\PSoC4/RTC.c ****     while(unixTime >= tmpVar)
1300:Generated_Source\PSoC4/RTC.c ****     {
1301:Generated_Source\PSoC4/RTC.c ****         unixTime -= tmpVar;
1302:Generated_Source\PSoC4/RTC.c ****         tmpMonth++;
1303:Generated_Source\PSoC4/RTC.c ****         tmpVar = RTC_DaysInMonth(tmpMonth, tmpYear) * RTC_SECONDS_PER_DAY;
1304:Generated_Source\PSoC4/RTC.c ****     }
1305:Generated_Source\PSoC4/RTC.c **** 
1306:Generated_Source\PSoC4/RTC.c ****     /* Calculates current day value */
1307:Generated_Source\PSoC4/RTC.c ****     tmpDay = (uint32) (unixTime / RTC_SECONDS_PER_DAY);
1308:Generated_Source\PSoC4/RTC.c ****     tmpVar = tmpDay * RTC_SECONDS_PER_DAY;
1309:Generated_Source\PSoC4/RTC.c ****     unixTime -= (unixTime >= tmpVar) ? tmpVar : 0u;
1310:Generated_Source\PSoC4/RTC.c ****     tmpDay += 1u;
ARM GAS  C:\Users\Petro\AppData\Local\Temp\cc4bDtSi.s 			page 69


1311:Generated_Source\PSoC4/RTC.c **** 
1312:Generated_Source\PSoC4/RTC.c ****     /* Calculates current hour value. If function works in 12-Hour mode,
1313:Generated_Source\PSoC4/RTC.c ****      * it converts time to 12-Hours mode and calculates AmPm status */
1314:Generated_Source\PSoC4/RTC.c ****     tmpHour = (uint32) (unixTime / RTC_SECONDS_PER_HOUR);
1315:Generated_Source\PSoC4/RTC.c ****     tmpVar  = tmpHour * RTC_SECONDS_PER_HOUR;
1316:Generated_Source\PSoC4/RTC.c ****     if((uint32)RTC_24_HOURS_FORMAT != timeFormat)
1317:Generated_Source\PSoC4/RTC.c ****     {
1318:Generated_Source\PSoC4/RTC.c ****         if(unixTime > RTC_UNIX_TIME_PM)
1319:Generated_Source\PSoC4/RTC.c ****         {
1320:Generated_Source\PSoC4/RTC.c ****             tmpAmPmState = RTC_PM;
1321:Generated_Source\PSoC4/RTC.c ****             tmpHour = (tmpHour > 12u) ? (tmpHour - 12u) : tmpHour;
1322:Generated_Source\PSoC4/RTC.c ****         }
1323:Generated_Source\PSoC4/RTC.c ****         else
1324:Generated_Source\PSoC4/RTC.c ****         {
1325:Generated_Source\PSoC4/RTC.c ****             tmpAmPmState = RTC_AM;
1326:Generated_Source\PSoC4/RTC.c ****             tmpHour = (0u != tmpHour) ? tmpHour : 12u;
1327:Generated_Source\PSoC4/RTC.c ****         }
1328:Generated_Source\PSoC4/RTC.c ****     }
1329:Generated_Source\PSoC4/RTC.c ****     unixTime -= (unixTime >= tmpVar) ? tmpVar : 0u;
1330:Generated_Source\PSoC4/RTC.c **** 
1331:Generated_Source\PSoC4/RTC.c ****     /* Calculates current minute */
1332:Generated_Source\PSoC4/RTC.c ****     tmpMinute = (uint32) (unixTime / RTC_SECONDS_PER_MINUTE);
1333:Generated_Source\PSoC4/RTC.c ****     tmpVar = tmpMinute * RTC_SECONDS_PER_MINUTE;
1334:Generated_Source\PSoC4/RTC.c **** 
1335:Generated_Source\PSoC4/RTC.c ****     /* Calculates current second */
1336:Generated_Source\PSoC4/RTC.c ****     unixTime -= (unixTime >= (uint64) tmpVar) ? (uint64) tmpVar : 0ul;
1337:Generated_Source\PSoC4/RTC.c **** 
1338:Generated_Source\PSoC4/RTC.c ****     dateTime->date = RTC_ConstructDate(tmpMonth, tmpDay, tmpYear);
1339:Generated_Source\PSoC4/RTC.c ****     dateTime->time = RTC_ConstructTime(timeFormat, tmpAmPmState, tmpHour, tmpMinute, (uint32) unixT
1340:Generated_Source\PSoC4/RTC.c ****     dateTime->dayOfWeek = RTC_GetDayOfWeek(tmpDay, tmpMonth, tmpYear);
1341:Generated_Source\PSoC4/RTC.c **** }
1342:Generated_Source\PSoC4/RTC.c **** 
1343:Generated_Source\PSoC4/RTC.c **** 
1344:Generated_Source\PSoC4/RTC.c **** /*******************************************************************************
1345:Generated_Source\PSoC4/RTC.c **** * Function Name: RTC_RelativeToFixed
1346:Generated_Source\PSoC4/RTC.c **** ****************************************************************************//**
1347:Generated_Source\PSoC4/RTC.c **** *
1348:Generated_Source\PSoC4/RTC.c **** * This is an internal function to convert a relative date into a fixed date.
1349:Generated_Source\PSoC4/RTC.c **** *
