ARM GAS  C:\Users\Petro\AppData\Local\Temp\ccLgbaiA.s 			page 1


   1              		.syntax unified
   2              		.cpu cortex-m0
   3              		.fpu softvfp
   4              		.eabi_attribute 20, 1
   5              		.eabi_attribute 21, 1
   6              		.eabi_attribute 23, 3
   7              		.eabi_attribute 24, 1
   8              		.eabi_attribute 25, 1
   9              		.eabi_attribute 26, 1
  10              		.eabi_attribute 30, 4
  11              		.eabi_attribute 34, 0
  12              		.eabi_attribute 18, 4
  13              		.thumb
  14              		.syntax unified
  15              		.file	"RTC_WDT.c"
  16              		.text
  17              	.Ltext0:
  18              		.cfi_sections	.debug_frame
  19              		.section	.text.CallBackCounter,"ax",%progbits
  20              		.align	1
  21              		.global	CallBackCounter
  22              		.code	16
  23              		.thumb_func
  24              		.type	CallBackCounter, %function
  25              	CallBackCounter:
  26              	.LFB62:
  27              		.file 1 "..\\..\\common\\lib\\lib_RTC\\RTC_WDT.c"
   1:..\..\common\lib\lib_RTC/RTC_WDT.c **** #include <RTC.h>
   2:..\..\common\lib\lib_RTC/RTC_WDT.c **** #include "..\..\common\lib\lib_RTC\RTC_WDT.h"
   3:..\..\common\lib\lib_RTC/RTC_WDT.c **** #include <CyLFClk.h>
   4:..\..\common\lib\lib_RTC/RTC_WDT.c **** #include "appGlobal.h"
   5:..\..\common\lib\lib_RTC/RTC_WDT.c **** #ifdef FINISH_MODULE
   6:..\..\common\lib\lib_RTC/RTC_WDT.c **** #include "lib_network\network.h"    
   7:..\..\common\lib\lib_RTC/RTC_WDT.c **** #endif
   8:..\..\common\lib\lib_RTC/RTC_WDT.c **** 
   9:..\..\common\lib\lib_RTC/RTC_WDT.c **** #define RTC_TIME_FORMAT_SHIFT       (39u)
  10:..\..\common\lib\lib_RTC/RTC_WDT.c **** #define RTC_PERIOD_OF_DAY_SHIFT     (38u)
  11:..\..\common\lib\lib_RTC/RTC_WDT.c **** #define RTC_10_HOURS_SHIFT          (36u)
  12:..\..\common\lib\lib_RTC/RTC_WDT.c **** #define RTC_HOURS_SHIFT             (32u)
  13:..\..\common\lib\lib_RTC/RTC_WDT.c **** #define RTC_10_MINUTES_SHIFT        (28u)
  14:..\..\common\lib\lib_RTC/RTC_WDT.c **** #define RTC_MINUTES_SHIFT           (24u)
  15:..\..\common\lib\lib_RTC/RTC_WDT.c **** #define RTC_10_SECONDS_SHIFT        (20u)
  16:..\..\common\lib\lib_RTC/RTC_WDT.c **** #define RTC_SECONDS_SHIFT           (16u)
  17:..\..\common\lib\lib_RTC/RTC_WDT.c **** #define RTC_100_MILISECONDS_SHIFT   (12u)
  18:..\..\common\lib\lib_RTC/RTC_WDT.c **** #define RTC_10_MILISECONDS_SHIFT    (8u)
  19:..\..\common\lib\lib_RTC/RTC_WDT.c **** #define RTC_MILISECONDS_SHIFT       (0u)
  20:..\..\common\lib\lib_RTC/RTC_WDT.c **** 
  21:..\..\common\lib\lib_RTC/RTC_WDT.c **** #define RTC_MASK_TIME_FORMAT       (0x00000001ull << RTC_TIME_FORMAT_SHIFT )
  22:..\..\common\lib\lib_RTC/RTC_WDT.c **** #define RTC_MASK_PERIOD_OF_DAY     (0x00000001ull << RTC_PERIOD_OF_DAY_SHIFT)
  23:..\..\common\lib\lib_RTC/RTC_WDT.c **** #define RTC_MASK_10_HOURS          (0x00000003ull << RTC_10_HOURS_SHIFT )
  24:..\..\common\lib\lib_RTC/RTC_WDT.c **** #define RTC_MASK_HOURS             (0x0000000Full << RTC_HOURS_SHIFT )
  25:..\..\common\lib\lib_RTC/RTC_WDT.c **** #define RTC_MASK_10_MINUTES        (0x00000007uL << RTC_10_MINUTES_SHIFT )
  26:..\..\common\lib\lib_RTC/RTC_WDT.c **** #define RTC_MASK_MINUTES           (0x0000000FuL << RTC_MINUTES_SHIFT )
  27:..\..\common\lib\lib_RTC/RTC_WDT.c **** #define RTC_MASK_10_SECONDS        (0x00000007uL << RTC_10_SECONDS_SHIFT )
  28:..\..\common\lib\lib_RTC/RTC_WDT.c **** #define RTC_MASK_SECONDS           (0x0000000FuL << RTC_SECONDS_SHIFT )
  29:..\..\common\lib\lib_RTC/RTC_WDT.c **** #define RTC_MASK_100_MILISECONDS    (0x0000000FuL << RTC_100_MILISECONDS_SHIFT )
  30:..\..\common\lib\lib_RTC/RTC_WDT.c **** #define RTC_MASK_10_MILISECONDS     (0x0000000FuL << RTC_10_MILISECONDS_SHIFT )
ARM GAS  C:\Users\Petro\AppData\Local\Temp\ccLgbaiA.s 			page 2


  31:..\..\common\lib\lib_RTC/RTC_WDT.c **** #define RTC_MASK_MILISECONDS        (0x0000000FuL << RTC_MILISECONDS_SHIFT )
  32:..\..\common\lib\lib_RTC/RTC_WDT.c **** 
  33:..\..\common\lib\lib_RTC/RTC_WDT.c **** 
  34:..\..\common\lib\lib_RTC/RTC_WDT.c **** static uint64_t time;
  35:..\..\common\lib\lib_RTC/RTC_WDT.c **** static uint16_t msRTC = 0;
  36:..\..\common\lib\lib_RTC/RTC_WDT.c **** 
  37:..\..\common\lib\lib_RTC/RTC_WDT.c **** void CallBackCounter();
  38:..\..\common\lib\lib_RTC/RTC_WDT.c **** 
  39:..\..\common\lib\lib_RTC/RTC_WDT.c **** 
  40:..\..\common\lib\lib_RTC/RTC_WDT.c **** /*******************************************************************************
  41:..\..\common\lib\lib_RTC/RTC_WDT.c **** * Function Name: CallBackCounter
  42:..\..\common\lib\lib_RTC/RTC_WDT.c **** ********************************************************************************
  43:..\..\common\lib\lib_RTC/RTC_WDT.c **** *
  44:..\..\common\lib\lib_RTC/RTC_WDT.c **** * Summary
  45:..\..\common\lib\lib_RTC/RTC_WDT.c **** *  miliseconds counter
  46:..\..\common\lib\lib_RTC/RTC_WDT.c **** *  RTC update each seconds
  47:..\..\common\lib\lib_RTC/RTC_WDT.c **** *
  48:..\..\common\lib\lib_RTC/RTC_WDT.c **** *******************************************************************************/
  49:..\..\common\lib\lib_RTC/RTC_WDT.c **** void CallBackCounter(void)
  50:..\..\common\lib\lib_RTC/RTC_WDT.c **** {
  28              		.loc 1 50 0
  29              		.cfi_startproc
  30              		@ args = 0, pretend = 0, frame = 0
  31              		@ frame_needed = 0, uses_anonymous_args = 0
  51:..\..\common\lib\lib_RTC/RTC_WDT.c ****     msRTC++;
  52:..\..\common\lib\lib_RTC/RTC_WDT.c ****     if (msRTC == 1000u) 
  32              		.loc 1 52 0
  33 0000 FA21     		movs	r1, #250
  51:..\..\common\lib\lib_RTC/RTC_WDT.c ****     msRTC++;
  34              		.loc 1 51 0
  35 0002 0A4A     		ldr	r2, .L5
  50:..\..\common\lib\lib_RTC/RTC_WDT.c ****     msRTC++;
  36              		.loc 1 50 0
  37 0004 10B5     		push	{r4, lr}
  38              		.cfi_def_cfa_offset 8
  39              		.cfi_offset 4, -8
  40              		.cfi_offset 14, -4
  51:..\..\common\lib\lib_RTC/RTC_WDT.c ****     msRTC++;
  41              		.loc 1 51 0
  42 0006 1388     		ldrh	r3, [r2]
  43              		.loc 1 52 0
  44 0008 8900     		lsls	r1, r1, #2
  51:..\..\common\lib\lib_RTC/RTC_WDT.c ****     msRTC++;
  45              		.loc 1 51 0
  46 000a 0133     		adds	r3, r3, #1
  47 000c 9BB2     		uxth	r3, r3
  48              		.loc 1 52 0
  49 000e 8B42     		cmp	r3, r1
  50 0010 01D0     		beq	.L2
  51:..\..\common\lib\lib_RTC/RTC_WDT.c ****     msRTC++;
  51              		.loc 1 51 0
  52 0012 1380     		strh	r3, [r2]
  53 0014 09E0     		b	.L1
  54              	.L2:
  55              	.LBB12:
  56              	.LBB13:
  53:..\..\common\lib\lib_RTC/RTC_WDT.c ****     {
ARM GAS  C:\Users\Petro\AppData\Local\Temp\ccLgbaiA.s 			page 3


  54:..\..\common\lib\lib_RTC/RTC_WDT.c ****         msRTC = 0u; 
  57              		.loc 1 54 0
  58 0016 0024     		movs	r4, #0
  59 0018 1480     		strh	r4, [r2]
  55:..\..\common\lib\lib_RTC/RTC_WDT.c ****         RTC_Update();
  60              		.loc 1 55 0
  61 001a FFF7FEFF 		bl	RTC_Update
  62              	.LVL0:
  56:..\..\common\lib\lib_RTC/RTC_WDT.c ****         
  57:..\..\common\lib\lib_RTC/RTC_WDT.c ****         #ifdef DEBUG_RTC
  58:..\..\common\lib\lib_RTC/RTC_WDT.c ****             debug_Write(1);
  63              		.loc 1 58 0
  64 001e 0120     		movs	r0, #1
  65 0020 FFF7FEFF 		bl	debug_Write
  66              	.LVL1:
  59:..\..\common\lib\lib_RTC/RTC_WDT.c ****             debug_Write(0);
  67              		.loc 1 59 0
  68 0024 2000     		movs	r0, r4
  69 0026 FFF7FEFF 		bl	debug_Write
  70              	.LVL2:
  71              	.L1:
  72              	.LBE13:
  73              	.LBE12:
  60:..\..\common\lib\lib_RTC/RTC_WDT.c ****         #endif
  61:..\..\common\lib\lib_RTC/RTC_WDT.c ****     }
  62:..\..\common\lib\lib_RTC/RTC_WDT.c **** }
  74              		.loc 1 62 0
  75              		@ sp needed
  76 002a 10BD     		pop	{r4, pc}
  77              	.L6:
  78              		.align	2
  79              	.L5:
  80 002c 00000000 		.word	.LANCHOR0
  81              		.cfi_endproc
  82              	.LFE62:
  83              		.size	CallBackCounter, .-CallBackCounter
  84              		.section	.text.RTC_WDT_Init,"ax",%progbits
  85              		.align	1
  86              		.global	RTC_WDT_Init
  87              		.code	16
  88              		.thumb_func
  89              		.type	RTC_WDT_Init, %function
  90              	RTC_WDT_Init:
  91              	.LFB63:
  63:..\..\common\lib\lib_RTC/RTC_WDT.c **** 
  64:..\..\common\lib\lib_RTC/RTC_WDT.c **** /*******************************************************************************
  65:..\..\common\lib\lib_RTC/RTC_WDT.c **** * Function Name: RTC_WDT_Init
  66:..\..\common\lib\lib_RTC/RTC_WDT.c **** ********************************************************************************
  67:..\..\common\lib\lib_RTC/RTC_WDT.c **** *
  68:..\..\common\lib\lib_RTC/RTC_WDT.c **** * Summary
  69:..\..\common\lib\lib_RTC/RTC_WDT.c **** *  Init watchdog counter
  70:..\..\common\lib\lib_RTC/RTC_WDT.c **** *
  71:..\..\common\lib\lib_RTC/RTC_WDT.c **** *******************************************************************************/
  72:..\..\common\lib\lib_RTC/RTC_WDT.c **** void RTC_WDT_Init(void)
  73:..\..\common\lib\lib_RTC/RTC_WDT.c **** {
  92              		.loc 1 73 0
  93              		.cfi_startproc
ARM GAS  C:\Users\Petro\AppData\Local\Temp\ccLgbaiA.s 			page 4


  94              		@ args = 0, pretend = 0, frame = 0
  95              		@ frame_needed = 0, uses_anonymous_args = 0
  96              	.LVL3:
  97 0000 10B5     		push	{r4, lr}
  98              		.cfi_def_cfa_offset 8
  99              		.cfi_offset 4, -8
 100              		.cfi_offset 14, -4
  74:..\..\common\lib\lib_RTC/RTC_WDT.c ****     void (*CallBackWDT0)(void);   
  75:..\..\common\lib\lib_RTC/RTC_WDT.c ****     CallBackWDT0 = CallBackCounter;  
  76:..\..\common\lib\lib_RTC/RTC_WDT.c ****     RTC_Start();  
 101              		.loc 1 76 0
 102 0002 FFF7FEFF 		bl	RTC_Start
 103              	.LVL4:
  77:..\..\common\lib\lib_RTC/RTC_WDT.c ****     CySysWdtSetInterruptCallback(0, CallBackWDT0);
 104              		.loc 1 77 0
 105 0006 0249     		ldr	r1, .L8
 106 0008 0020     		movs	r0, #0
 107 000a FFF7FEFF 		bl	CySysWdtSetInterruptCallback
 108              	.LVL5:
  78:..\..\common\lib\lib_RTC/RTC_WDT.c ****     //WDT0_ISR_StartEx(Wdt0_Handler);
  79:..\..\common\lib\lib_RTC/RTC_WDT.c **** }
 109              		.loc 1 79 0
 110              		@ sp needed
 111 000e 10BD     		pop	{r4, pc}
 112              	.L9:
 113              		.align	2
 114              	.L8:
 115 0010 00000000 		.word	CallBackCounter
 116              		.cfi_endproc
 117              	.LFE63:
 118              		.size	RTC_WDT_Init, .-RTC_WDT_Init
 119              		.global	__aeabi_uldivmod
 120              		.global	__aeabi_lmul
 121              		.section	.text.RTCgetTime,"ax",%progbits
 122              		.align	1
 123              		.global	RTCgetTime
 124              		.code	16
 125              		.thumb_func
 126              		.type	RTCgetTime, %function
 127              	RTCgetTime:
 128              	.LFB64:
  80:..\..\common\lib\lib_RTC/RTC_WDT.c **** 
  81:..\..\common\lib\lib_RTC/RTC_WDT.c **** 
  82:..\..\common\lib\lib_RTC/RTC_WDT.c **** /*******************************************************************************
  83:..\..\common\lib\lib_RTC/RTC_WDT.c **** * Function Name: RTCgetTime
  84:..\..\common\lib\lib_RTC/RTC_WDT.c **** ********************************************************************************
  85:..\..\common\lib\lib_RTC/RTC_WDT.c **** *
  86:..\..\common\lib\lib_RTC/RTC_WDT.c **** * Summary
  87:..\..\common\lib\lib_RTC/RTC_WDT.c **** *  Reads the current time.
  88:..\..\common\lib\lib_RTC/RTC_WDT.c **** *
  89:..\..\common\lib\lib_RTC/RTC_WDT.c **** * Return:
  90:..\..\common\lib\lib_RTC/RTC_WDT.c **** *  date: The value of date in the user selected format. The date value is available
  91:..\..\common\lib\lib_RTC/RTC_WDT.c **** *        in the BCD format.
  92:..\..\common\lib\lib_RTC/RTC_WDT.c **** *
  93:..\..\common\lib\lib_RTC/RTC_WDT.c **** *******************************************************************************/
  94:..\..\common\lib\lib_RTC/RTC_WDT.c **** uint64_t RTCgetTime(uint64_t timeFormat)
  95:..\..\common\lib\lib_RTC/RTC_WDT.c **** {
ARM GAS  C:\Users\Petro\AppData\Local\Temp\ccLgbaiA.s 			page 5


 129              		.loc 1 95 0
 130              		.cfi_startproc
 131              		@ args = 0, pretend = 0, frame = 32
 132              		@ frame_needed = 0, uses_anonymous_args = 0
 133              	.LVL6:
 134 0000 F0B5     		push	{r4, r5, r6, r7, lr}
 135              		.cfi_def_cfa_offset 20
 136              		.cfi_offset 4, -20
 137              		.cfi_offset 5, -16
 138              		.cfi_offset 6, -12
 139              		.cfi_offset 7, -8
 140              		.cfi_offset 14, -4
 141 0002 89B0     		sub	sp, sp, #36
 142              		.cfi_def_cfa_offset 56
 143              		.loc 1 95 0
 144 0004 0700     		movs	r7, r0
  96:..\..\common\lib\lib_RTC/RTC_WDT.c ****     uint32_t readTime;
  97:..\..\common\lib\lib_RTC/RTC_WDT.c ****     uint64_t hour, min, sec, ms, stateAmPm;
  98:..\..\common\lib\lib_RTC/RTC_WDT.c **** 
  99:..\..\common\lib\lib_RTC/RTC_WDT.c ****     
 100:..\..\common\lib\lib_RTC/RTC_WDT.c ****     readTime = RTC_GetTime();
 145              		.loc 1 100 0
 146 0006 FFF7FEFF 		bl	RTC_GetTime
 147              	.LVL7:
 148              	.LBB25:
 149              	.LBB26:
 150              		.file 2 "Generated_Source\\PSoC4/RTC.h"
   1:Generated_Source\PSoC4/RTC.h **** /***************************************************************************//**
   2:Generated_Source\PSoC4/RTC.h **** * \file Name: RTC.h
   3:Generated_Source\PSoC4/RTC.h **** * \version 1.20
   4:Generated_Source\PSoC4/RTC.h **** *
   5:Generated_Source\PSoC4/RTC.h **** *  This file provides constants and parameter values for the RTC_P4 Component.
   6:Generated_Source\PSoC4/RTC.h **** *
   7:Generated_Source\PSoC4/RTC.h **** ********************************************************************************
   8:Generated_Source\PSoC4/RTC.h **** * Copyright 2015-2017, Cypress Semiconductor Corporation.  All rights reserved.
   9:Generated_Source\PSoC4/RTC.h **** * You may use this file only in accordance with the license, terms, conditions,
  10:Generated_Source\PSoC4/RTC.h **** * disclaimers, and limitations in the end user license agreement accompanying
  11:Generated_Source\PSoC4/RTC.h **** * the software package with which this file was provided.
  12:Generated_Source\PSoC4/RTC.h **** *******************************************************************************/
  13:Generated_Source\PSoC4/RTC.h **** 
  14:Generated_Source\PSoC4/RTC.h **** #if !defined(CY_RTC_P4_RTC_H)
  15:Generated_Source\PSoC4/RTC.h **** #define CY_RTC_P4_RTC_H
  16:Generated_Source\PSoC4/RTC.h **** 
  17:Generated_Source\PSoC4/RTC.h **** #include <cytypes.h>
  18:Generated_Source\PSoC4/RTC.h **** #include <CyLib.h>
  19:Generated_Source\PSoC4/RTC.h **** 
  20:Generated_Source\PSoC4/RTC.h **** 
  21:Generated_Source\PSoC4/RTC.h **** /*******************************************************************************
  22:Generated_Source\PSoC4/RTC.h **** *    Data types definition
  23:Generated_Source\PSoC4/RTC.h **** *******************************************************************************/
  24:Generated_Source\PSoC4/RTC.h **** /**
  25:Generated_Source\PSoC4/RTC.h **** * \addtogroup group_enums
  26:Generated_Source\PSoC4/RTC.h **** * \{
  27:Generated_Source\PSoC4/RTC.h **** */
  28:Generated_Source\PSoC4/RTC.h **** /** Daylight saving Time format enumeration */
  29:Generated_Source\PSoC4/RTC.h **** typedef enum
  30:Generated_Source\PSoC4/RTC.h **** {
ARM GAS  C:\Users\Petro\AppData\Local\Temp\ccLgbaiA.s 			page 6


  31:Generated_Source\PSoC4/RTC.h ****     RTC_DST_DATE_RELATIVE = 0u,  /**< Relative DST format */
  32:Generated_Source\PSoC4/RTC.h ****     RTC_DST_DATE_FIXED = 1u      /**< Fixed DST format */
  33:Generated_Source\PSoC4/RTC.h **** }RTC_DST_DATETYPE_ENUM;
  34:Generated_Source\PSoC4/RTC.h **** /** \} group_enums */
  35:Generated_Source\PSoC4/RTC.h **** 
  36:Generated_Source\PSoC4/RTC.h **** /**
  37:Generated_Source\PSoC4/RTC.h **** * \addtogroup group_structures
  38:Generated_Source\PSoC4/RTC.h **** * \{
  39:Generated_Source\PSoC4/RTC.h **** */
  40:Generated_Source\PSoC4/RTC.h **** 
  41:Generated_Source\PSoC4/RTC.h **** /** RTC_DATE_TIME structure is the data structure that is used to 
  42:Generated_Source\PSoC4/RTC.h **** * save the current time and date (RTC_currentTimeDate), and Alarm time and date 
  43:Generated_Source\PSoC4/RTC.h **** *(RTC_alarmCfgTimeDate)
  44:Generated_Source\PSoC4/RTC.h **** *
  45:Generated_Source\PSoC4/RTC.h **** */
  46:Generated_Source\PSoC4/RTC.h **** typedef struct
  47:Generated_Source\PSoC4/RTC.h **** {
  48:Generated_Source\PSoC4/RTC.h ****     uint32 time;        /**< Time in the format used in API*/
  49:Generated_Source\PSoC4/RTC.h ****     uint32 date;        /**< Date in the format used in API*/
  50:Generated_Source\PSoC4/RTC.h ****     uint32 dayOfWeek;   /**< Day of the week, see \ref group_rtc_day_of_the_week */
  51:Generated_Source\PSoC4/RTC.h ****     uint32 status;      /**< RTC status, see \ref group_rtc_status */
  52:Generated_Source\PSoC4/RTC.h **** }RTC_DATE_TIME;
  53:Generated_Source\PSoC4/RTC.h **** 
  54:Generated_Source\PSoC4/RTC.h **** /*
  55:Generated_Source\PSoC4/RTC.h **** * RTC_DST_TIME structure is the data structure that is used to 
  56:Generated_Source\PSoC4/RTC.h **** * save time and date values for Daylight Savings Time Start and Stop 
  57:Generated_Source\PSoC4/RTC.h **** * (RTC_dstTimeDateStart and RTC_dstTimeDateStop)
  58:Generated_Source\PSoC4/RTC.h **** */
  59:Generated_Source\PSoC4/RTC.h **** typedef struct
  60:Generated_Source\PSoC4/RTC.h **** {
  61:Generated_Source\PSoC4/RTC.h ****     uint32 hour;          /**< Hour value */
  62:Generated_Source\PSoC4/RTC.h ****     uint32 dayOfWeek;     /**< Day of the week, see \ref group_rtc_day_of_the_week */
  63:Generated_Source\PSoC4/RTC.h ****     uint32 dayOfMonth;    /**< Day of the month */
  64:Generated_Source\PSoC4/RTC.h ****     uint32 weekOfMonth;   /**< Week of the month, see \ref group_rtc_dst_week_of_month */
  65:Generated_Source\PSoC4/RTC.h ****     uint32 month;         /**< Month value, see \ref group_rtc_month */
  66:Generated_Source\PSoC4/RTC.h ****     uint8  timeFormat;    /**< The DST operation mode, see \ref 
  67:Generated_Source\PSoC4/RTC.h ****                                RTC_DST_DATETYPE_ENUM */
  68:Generated_Source\PSoC4/RTC.h **** }RTC_DST_TIME;
  69:Generated_Source\PSoC4/RTC.h **** /** \} group_structures */
  70:Generated_Source\PSoC4/RTC.h **** 
  71:Generated_Source\PSoC4/RTC.h **** /*******************************************************************************
  72:Generated_Source\PSoC4/RTC.h **** *    Enumerated Types and Parameters
  73:Generated_Source\PSoC4/RTC.h **** *******************************************************************************/
  74:Generated_Source\PSoC4/RTC.h **** /* Time Format setting constants */
  75:Generated_Source\PSoC4/RTC.h **** #define RTC__HOUR_12 1
  76:Generated_Source\PSoC4/RTC.h **** #define RTC__HOUR_24 0
  77:Generated_Source\PSoC4/RTC.h **** 
  78:Generated_Source\PSoC4/RTC.h **** /*  Date Format setting constants */
  79:Generated_Source\PSoC4/RTC.h **** #define RTC__MM_DD_YYYY 0
  80:Generated_Source\PSoC4/RTC.h **** #define RTC__DD_MM_YYYY 1
  81:Generated_Source\PSoC4/RTC.h **** #define RTC__YYYY_MM_DD 2
  82:Generated_Source\PSoC4/RTC.h **** 
  83:Generated_Source\PSoC4/RTC.h **** /* Date Type setting constants */
  84:Generated_Source\PSoC4/RTC.h **** #define RTC__RELATIVE 0
  85:Generated_Source\PSoC4/RTC.h **** #define RTC__FIXED 1
  86:Generated_Source\PSoC4/RTC.h **** 
  87:Generated_Source\PSoC4/RTC.h **** /* DST Hour setting constants */
ARM GAS  C:\Users\Petro\AppData\Local\Temp\ccLgbaiA.s 			page 7


  88:Generated_Source\PSoC4/RTC.h **** #define RTC__H0000 0
  89:Generated_Source\PSoC4/RTC.h **** #define RTC__H0100 1
  90:Generated_Source\PSoC4/RTC.h **** #define RTC__H0200 2
  91:Generated_Source\PSoC4/RTC.h **** #define RTC__H0300 3
  92:Generated_Source\PSoC4/RTC.h **** #define RTC__H0400 4
  93:Generated_Source\PSoC4/RTC.h **** #define RTC__H0500 5
  94:Generated_Source\PSoC4/RTC.h **** #define RTC__H0600 6
  95:Generated_Source\PSoC4/RTC.h **** #define RTC__H0700 7
  96:Generated_Source\PSoC4/RTC.h **** #define RTC__H0800 8
  97:Generated_Source\PSoC4/RTC.h **** #define RTC__H0900 9
  98:Generated_Source\PSoC4/RTC.h **** #define RTC__H1000 10
  99:Generated_Source\PSoC4/RTC.h **** #define RTC__H1100 11
 100:Generated_Source\PSoC4/RTC.h **** #define RTC__H1200 12
 101:Generated_Source\PSoC4/RTC.h **** #define RTC__H1300 13
 102:Generated_Source\PSoC4/RTC.h **** #define RTC__H1400 14
 103:Generated_Source\PSoC4/RTC.h **** #define RTC__H1500 15
 104:Generated_Source\PSoC4/RTC.h **** #define RTC__H1600 16
 105:Generated_Source\PSoC4/RTC.h **** #define RTC__H1700 17
 106:Generated_Source\PSoC4/RTC.h **** #define RTC__H1800 18
 107:Generated_Source\PSoC4/RTC.h **** #define RTC__H1900 19
 108:Generated_Source\PSoC4/RTC.h **** #define RTC__H2000 20
 109:Generated_Source\PSoC4/RTC.h **** #define RTC__H2100 21
 110:Generated_Source\PSoC4/RTC.h **** #define RTC__H2200 22
 111:Generated_Source\PSoC4/RTC.h **** #define RTC__H2300 23
 112:Generated_Source\PSoC4/RTC.h **** 
 113:Generated_Source\PSoC4/RTC.h **** /* DST DayOfWeek setting constants */
 114:Generated_Source\PSoC4/RTC.h **** #define RTC__SUNDAY 1
 115:Generated_Source\PSoC4/RTC.h **** #define RTC__MONDAY 2
 116:Generated_Source\PSoC4/RTC.h **** #define RTC__TUESDAY 3
 117:Generated_Source\PSoC4/RTC.h **** #define RTC__WEDNESDAY 4
 118:Generated_Source\PSoC4/RTC.h **** #define RTC__THURSDAY 5
 119:Generated_Source\PSoC4/RTC.h **** #define RTC__FRIDAY 6
 120:Generated_Source\PSoC4/RTC.h **** #define RTC__SATURDAY 7
 121:Generated_Source\PSoC4/RTC.h **** 
 122:Generated_Source\PSoC4/RTC.h **** /* DST Month setting constants */
 123:Generated_Source\PSoC4/RTC.h **** #define RTC__JAN 1
 124:Generated_Source\PSoC4/RTC.h **** #define RTC__FEB 2
 125:Generated_Source\PSoC4/RTC.h **** #define RTC__MAR 3
 126:Generated_Source\PSoC4/RTC.h **** #define RTC__APR 4
 127:Generated_Source\PSoC4/RTC.h **** #define RTC__MAY 5
 128:Generated_Source\PSoC4/RTC.h **** #define RTC__JUN 6
 129:Generated_Source\PSoC4/RTC.h **** #define RTC__JUL 7
 130:Generated_Source\PSoC4/RTC.h **** #define RTC__AUG 8
 131:Generated_Source\PSoC4/RTC.h **** #define RTC__SEP 9
 132:Generated_Source\PSoC4/RTC.h **** #define RTC__OCT 10
 133:Generated_Source\PSoC4/RTC.h **** #define RTC__NOV 11
 134:Generated_Source\PSoC4/RTC.h **** #define RTC__DEC 12
 135:Generated_Source\PSoC4/RTC.h **** 
 136:Generated_Source\PSoC4/RTC.h **** /* DST WeekOfMonth setting constants */
 137:Generated_Source\PSoC4/RTC.h **** #define RTC__FIRST 1
 138:Generated_Source\PSoC4/RTC.h **** #define RTC__SECOND 2
 139:Generated_Source\PSoC4/RTC.h **** #define RTC__THIRD 3
 140:Generated_Source\PSoC4/RTC.h **** #define RTC__FOURTH 4
 141:Generated_Source\PSoC4/RTC.h **** #define RTC__FIFTH 5
 142:Generated_Source\PSoC4/RTC.h **** #define RTC__LAST 6
 143:Generated_Source\PSoC4/RTC.h **** 
 144:Generated_Source\PSoC4/RTC.h **** 
ARM GAS  C:\Users\Petro\AppData\Local\Temp\ccLgbaiA.s 			page 8


 145:Generated_Source\PSoC4/RTC.h **** #define RTC_INITIAL_DATA_FORMAT     (0u)
 146:Generated_Source\PSoC4/RTC.h **** #define RTC_INITIAL_TIME_FORMAT     (0u)
 147:Generated_Source\PSoC4/RTC.h **** #define RTC_INITIAL_UPDATE_MODE     (0u)
 148:Generated_Source\PSoC4/RTC.h **** #define RTC_INITIAL_SECOND          (0u)
 149:Generated_Source\PSoC4/RTC.h **** #define RTC_INITIAL_MINUTE          (16u)
 150:Generated_Source\PSoC4/RTC.h **** #define RTC_INITIAL_HOUR            (10u)
 151:Generated_Source\PSoC4/RTC.h **** #define RTC_INITIAL_DAY             (9u)
 152:Generated_Source\PSoC4/RTC.h **** #define RTC_INITIAL_MONTH           (8u)
 153:Generated_Source\PSoC4/RTC.h **** #define RTC_INITIAL_YEAR            (2016u)
 154:Generated_Source\PSoC4/RTC.h **** 
 155:Generated_Source\PSoC4/RTC.h **** #define RTC_INITIAL_ALARM_STATUS    (0u)
 156:Generated_Source\PSoC4/RTC.h **** 
 157:Generated_Source\PSoC4/RTC.h **** #define RTC_INITIAL_DST_STATUS      (0u)
 158:Generated_Source\PSoC4/RTC.h **** #define RTC_INITIAL_DST_DATE_TYPE   (0u)
 159:Generated_Source\PSoC4/RTC.h **** #define RTC_INITIAL_DST_START_MONTH (3uL)
 160:Generated_Source\PSoC4/RTC.h **** #define RTC_INITIAL_DST_START_WOM   (6uL)
 161:Generated_Source\PSoC4/RTC.h **** #define RTC_INITIAL_DST_START_DOM   (22uL)
 162:Generated_Source\PSoC4/RTC.h **** #define RTC_INITIAL_DST_START_DOW   (1uL)
 163:Generated_Source\PSoC4/RTC.h **** #define RTC_INITIAL_DST_START_HRS   (0uL)
 164:Generated_Source\PSoC4/RTC.h **** #define RTC_INITIAL_DST_STOP_MONTH  (10uL)
 165:Generated_Source\PSoC4/RTC.h **** #define RTC_INITIAL_DST_STOP_DOM    (22uL)
 166:Generated_Source\PSoC4/RTC.h **** #define RTC_INITIAL_DST_STOP_DOW    (1uL)
 167:Generated_Source\PSoC4/RTC.h **** #define RTC_INITIAL_DST_STOP_WOM    (6uL)
 168:Generated_Source\PSoC4/RTC.h **** #define RTC_INITIAL_DST_STOP_HRS    (0uL)
 169:Generated_Source\PSoC4/RTC.h **** 
 170:Generated_Source\PSoC4/RTC.h **** /**
 171:Generated_Source\PSoC4/RTC.h **** * \addtogroup group_constants
 172:Generated_Source\PSoC4/RTC.h **** * \{
 173:Generated_Source\PSoC4/RTC.h **** */
 174:Generated_Source\PSoC4/RTC.h **** 
 175:Generated_Source\PSoC4/RTC.h **** /**
 176:Generated_Source\PSoC4/RTC.h **** * \defgroup group_rtc_day_of_the_week Day of the week definitions
 177:Generated_Source\PSoC4/RTC.h **** * \{
 178:Generated_Source\PSoC4/RTC.h **** * Definitions of days in the week
 179:Generated_Source\PSoC4/RTC.h **** */
 180:Generated_Source\PSoC4/RTC.h **** #define RTC_SUNDAY     (RTC__SUNDAY)       /**< Sequential number of Sunday in the week */
 181:Generated_Source\PSoC4/RTC.h **** #define RTC_MONDAY     (RTC__MONDAY)       /**< Sequential number of Monday in the week */
 182:Generated_Source\PSoC4/RTC.h **** #define RTC_TUESDAY    (RTC__TUESDAY)      /**< Sequential number of Tuesday in the week */
 183:Generated_Source\PSoC4/RTC.h **** #define RTC_WEDNESDAY  (RTC__WEDNESDAY)    /**< Sequential number of Wednesday in the week */
 184:Generated_Source\PSoC4/RTC.h **** #define RTC_THURSDAY   (RTC__THURSDAY)     /**< Sequential number of Thursday in the week */
 185:Generated_Source\PSoC4/RTC.h **** #define RTC_FRIDAY     (RTC__FRIDAY)       /**< Sequential number of Friday in the week */
 186:Generated_Source\PSoC4/RTC.h **** #define RTC_SATURDAY   (RTC__SATURDAY)     /**< Sequential number of Saturday in the week */
 187:Generated_Source\PSoC4/RTC.h **** /** \} group_rtc_day_of_the_week */
 188:Generated_Source\PSoC4/RTC.h **** 
 189:Generated_Source\PSoC4/RTC.h **** /**
 190:Generated_Source\PSoC4/RTC.h **** * \defgroup group_rtc_dst_week_of_month DST Week of month setting constants definitions
 191:Generated_Source\PSoC4/RTC.h **** * \{
 192:Generated_Source\PSoC4/RTC.h **** * Week of month setting constants definitions for Daylight Saving Time feature
 193:Generated_Source\PSoC4/RTC.h **** */
 194:Generated_Source\PSoC4/RTC.h **** #define RTC_FIRST      (RTC__FIRST)   /**< First week in the month */
 195:Generated_Source\PSoC4/RTC.h **** #define RTC_SECOND     (RTC__SECOND)  /**< Second week in the month  */
 196:Generated_Source\PSoC4/RTC.h **** #define RTC_THIRD      (RTC__THIRD)   /**< Third week in the month  */
 197:Generated_Source\PSoC4/RTC.h **** #define RTC_FOURTH     (RTC__FOURTH)  /**< Fourth week in the month  */
 198:Generated_Source\PSoC4/RTC.h **** #define RTC_FIFTH      (RTC__FIFTH)   /**< Fifth week in the month  */
 199:Generated_Source\PSoC4/RTC.h **** #define RTC_LAST       (RTC__LAST)    /**< Last week in the month  */
 200:Generated_Source\PSoC4/RTC.h **** /** \} group_rtc_dst_week_of_month */
 201:Generated_Source\PSoC4/RTC.h **** 
ARM GAS  C:\Users\Petro\AppData\Local\Temp\ccLgbaiA.s 			page 9


 202:Generated_Source\PSoC4/RTC.h **** /**
 203:Generated_Source\PSoC4/RTC.h **** * \defgroup group_rtc_month Month definitions
 204:Generated_Source\PSoC4/RTC.h **** * \{
 205:Generated_Source\PSoC4/RTC.h **** * Constants definition for Months
 206:Generated_Source\PSoC4/RTC.h **** */
 207:Generated_Source\PSoC4/RTC.h **** #define RTC_JANUARY    (RTC__JAN)    /**< Sequential number of January in the year */
 208:Generated_Source\PSoC4/RTC.h **** #define RTC_FEBRUARY   (RTC__FEB)    /**< Sequential number of February in the year */
 209:Generated_Source\PSoC4/RTC.h **** #define RTC_MARCH      (RTC__MAR)    /**< Sequential number of March in the year */
 210:Generated_Source\PSoC4/RTC.h **** #define RTC_APRIL      (RTC__APR)    /**< Sequential number of April in the year */
 211:Generated_Source\PSoC4/RTC.h **** #define RTC_MAY        (RTC__MAY)    /**< Sequential number of May in the year */
 212:Generated_Source\PSoC4/RTC.h **** #define RTC_JUNE       (RTC__JUN)    /**< Sequential number of June in the year */
 213:Generated_Source\PSoC4/RTC.h **** #define RTC_JULY       (RTC__JUL)    /**< Sequential number of July in the year */
 214:Generated_Source\PSoC4/RTC.h **** #define RTC_AUGUST     (RTC__AUG)    /**< Sequential number of August in the year */
 215:Generated_Source\PSoC4/RTC.h **** #define RTC_SEPTEMBER  (RTC__SEP)    /**< Sequential number of September in the year */
 216:Generated_Source\PSoC4/RTC.h **** #define RTC_OCTOBER    (RTC__OCT)    /**< Sequential number of October in the year */
 217:Generated_Source\PSoC4/RTC.h **** #define RTC_NOVEMBER   (RTC__NOV)    /**< Sequential number of November in the year */
 218:Generated_Source\PSoC4/RTC.h **** #define RTC_DECEMBER   (RTC__DEC)    /**< Sequential number of December in the year */
 219:Generated_Source\PSoC4/RTC.h **** /** \} group_rtc_month */
 220:Generated_Source\PSoC4/RTC.h **** 
 221:Generated_Source\PSoC4/RTC.h **** /**
 222:Generated_Source\PSoC4/RTC.h **** * \defgroup group_rtc_am_pm AM/PM status definitions
 223:Generated_Source\PSoC4/RTC.h **** * \{
 224:Generated_Source\PSoC4/RTC.h **** * Definitions for 12 hour format for indicating the AM/PM period of day
 225:Generated_Source\PSoC4/RTC.h **** */
 226:Generated_Source\PSoC4/RTC.h **** #define RTC_AM                 (0u)    /**< AM period of day */
 227:Generated_Source\PSoC4/RTC.h **** #define RTC_PM                 (1u)    /**< PM period of day */
 228:Generated_Source\PSoC4/RTC.h **** /** \} group_rtc_am_pm */
 229:Generated_Source\PSoC4/RTC.h **** 
 230:Generated_Source\PSoC4/RTC.h **** /**
 231:Generated_Source\PSoC4/RTC.h **** * \defgroup group_rtc_hour_format Hour format definitions
 232:Generated_Source\PSoC4/RTC.h **** * \{
 233:Generated_Source\PSoC4/RTC.h **** * Definitions for hour format
 234:Generated_Source\PSoC4/RTC.h **** */
 235:Generated_Source\PSoC4/RTC.h **** #define RTC_12_HOURS_FORMAT    (RTC__HOUR_12) /**< The 24 hour format */
 236:Generated_Source\PSoC4/RTC.h **** #define RTC_24_HOURS_FORMAT    (RTC__HOUR_24) /**< The 12 hour (AM/PM) format */
 237:Generated_Source\PSoC4/RTC.h **** /** \} group_rtc_hour_format */
 238:Generated_Source\PSoC4/RTC.h **** 
 239:Generated_Source\PSoC4/RTC.h **** /**
 240:Generated_Source\PSoC4/RTC.h **** * \defgroup group_rtc_days_in_month Number of days in month definitions
 241:Generated_Source\PSoC4/RTC.h **** * \{
 242:Generated_Source\PSoC4/RTC.h **** * Definition of days in current month
 243:Generated_Source\PSoC4/RTC.h **** */
 244:Generated_Source\PSoC4/RTC.h **** #define RTC_DAYS_IN_JANUARY     (31u)    /**< Number of days in January  */
 245:Generated_Source\PSoC4/RTC.h **** #define RTC_DAYS_IN_FEBRUARY    (28u)    /**< Number of days in February */
 246:Generated_Source\PSoC4/RTC.h **** #define RTC_DAYS_IN_MARCH       (31u)    /**< Number of days in March */
 247:Generated_Source\PSoC4/RTC.h **** #define RTC_DAYS_IN_APRIL       (30u)    /**< Number of days in April */
 248:Generated_Source\PSoC4/RTC.h **** #define RTC_DAYS_IN_MAY         (31u)    /**< Number of days in May */
 249:Generated_Source\PSoC4/RTC.h **** #define RTC_DAYS_IN_JUNE        (30u)    /**< Number of days in June */
 250:Generated_Source\PSoC4/RTC.h **** #define RTC_DAYS_IN_JULY        (31u)    /**< Number of days in July */
 251:Generated_Source\PSoC4/RTC.h **** #define RTC_DAYS_IN_AUGUST      (31u)    /**< Number of days in August */
 252:Generated_Source\PSoC4/RTC.h **** #define RTC_DAYS_IN_SEPTEMBER   (30u)    /**< Number of days in September */
 253:Generated_Source\PSoC4/RTC.h **** #define RTC_DAYS_IN_OCTOBER     (31u)    /**< Number of days in October */
 254:Generated_Source\PSoC4/RTC.h **** #define RTC_DAYS_IN_NOVEMBER    (30u)    /**< Number of days in November */
 255:Generated_Source\PSoC4/RTC.h **** #define RTC_DAYS_IN_DECEMBER    (31u)    /**< Number of days in December */
 256:Generated_Source\PSoC4/RTC.h **** /** \} group_rtc_days_in_month */
 257:Generated_Source\PSoC4/RTC.h **** 
 258:Generated_Source\PSoC4/RTC.h **** /**
ARM GAS  C:\Users\Petro\AppData\Local\Temp\ccLgbaiA.s 			page 10


 259:Generated_Source\PSoC4/RTC.h **** * \defgroup group_rtc_status Definitions of the RTC status values
 260:Generated_Source\PSoC4/RTC.h **** * \{
 261:Generated_Source\PSoC4/RTC.h **** * Definitions for status software register, which has flags for DST (DST),
 262:Generated_Source\PSoC4/RTC.h **** * Leap Year (LY), AM/PM (AM_PM).
 263:Generated_Source\PSoC4/RTC.h **** */
 264:Generated_Source\PSoC4/RTC.h **** 
 265:Generated_Source\PSoC4/RTC.h **** /** Status of Daylight Saving Time. This bit
 266:Generated_Source\PSoC4/RTC.h **** * goes high when the current time and date match the DST time and date and the 
 267:Generated_Source\PSoC4/RTC.h **** * time is incremented. This bit goes low after the DST interval and the time is 
 268:Generated_Source\PSoC4/RTC.h **** * decremented.
 269:Generated_Source\PSoC4/RTC.h **** */
 270:Generated_Source\PSoC4/RTC.h **** #define RTC_STATUS_DST     (1uL << RTC_STATUS_DST_OFFSET)
 271:Generated_Source\PSoC4/RTC.h **** 
 272:Generated_Source\PSoC4/RTC.h **** /** Status of Leap Year. This bit goes high when the current year is a leap year */
 273:Generated_Source\PSoC4/RTC.h **** #define RTC_STATUS_LY      (1uL << RTC_STATUS_LY_OFFSET)
 274:Generated_Source\PSoC4/RTC.h **** 
 275:Generated_Source\PSoC4/RTC.h **** /** Status of Current Time. This bit is low from midnight to noon and high from 
 276:Generated_Source\PSoC4/RTC.h **** *  noon to midnight. */
 277:Generated_Source\PSoC4/RTC.h **** #define RTC_STATUS_AM_PM   (1uL << RTC_STATUS_AM_PM_OFFSET)
 278:Generated_Source\PSoC4/RTC.h **** /** \} group_rtc_status */
 279:Generated_Source\PSoC4/RTC.h **** 
 280:Generated_Source\PSoC4/RTC.h **** /**
 281:Generated_Source\PSoC4/RTC.h **** * \defgroup group_rtc_alarm_mask Definitions for Alarm Mask software register
 282:Generated_Source\PSoC4/RTC.h **** * \{
 283:Generated_Source\PSoC4/RTC.h **** * Definitions for Alarm Mask software register. These masks allow 
 284:Generated_Source\PSoC4/RTC.h **** * matching the alarm value register with the current value register.
 285:Generated_Source\PSoC4/RTC.h **** */
 286:Generated_Source\PSoC4/RTC.h **** 
 287:Generated_Source\PSoC4/RTC.h **** /** The second alarm mask allows matching the alarm second register with the 
 288:Generated_Source\PSoC4/RTC.h **** *   current second register.
 289:Generated_Source\PSoC4/RTC.h **** */
 290:Generated_Source\PSoC4/RTC.h **** #define RTC_ALARM_SEC_MASK         (0x00000001uL)
 291:Generated_Source\PSoC4/RTC.h **** 
 292:Generated_Source\PSoC4/RTC.h **** /** The minute alarm mask allows matching the alarm minute register with the 
 293:Generated_Source\PSoC4/RTC.h **** *   current minute register.
 294:Generated_Source\PSoC4/RTC.h **** */
 295:Generated_Source\PSoC4/RTC.h **** #define RTC_ALARM_MIN_MASK         (0x00000002uL)
 296:Generated_Source\PSoC4/RTC.h **** 
 297:Generated_Source\PSoC4/RTC.h **** /** The hour alarm mask allows matching the alarm hour register with the 
 298:Generated_Source\PSoC4/RTC.h **** *   current hour register.
 299:Generated_Source\PSoC4/RTC.h **** */
 300:Generated_Source\PSoC4/RTC.h **** #define RTC_ALARM_HOUR_MASK        (0x00000004uL)
 301:Generated_Source\PSoC4/RTC.h **** 
 302:Generated_Source\PSoC4/RTC.h **** /** The day of the week alarm mask allows matching the alarm hour register with 
 303:Generated_Source\PSoC4/RTC.h **** *   the current day of the week register.
 304:Generated_Source\PSoC4/RTC.h **** */
 305:Generated_Source\PSoC4/RTC.h **** #define RTC_ALARM_DAYOFWEEK_MASK   (0x00000008uL)
 306:Generated_Source\PSoC4/RTC.h **** 
 307:Generated_Source\PSoC4/RTC.h **** /** The day of the Month alarm mask allows matching the alarm hour register with 
 308:Generated_Source\PSoC4/RTC.h **** *   the current day of the Month register.
 309:Generated_Source\PSoC4/RTC.h **** */
 310:Generated_Source\PSoC4/RTC.h **** #define RTC_ALARM_DAYOFMONTH_MASK  (0x00000010uL)
 311:Generated_Source\PSoC4/RTC.h **** 
 312:Generated_Source\PSoC4/RTC.h **** /** The month alarm mask allows matching the alarm hour register with the
 313:Generated_Source\PSoC4/RTC.h **** *   current month register.
 314:Generated_Source\PSoC4/RTC.h **** */
 315:Generated_Source\PSoC4/RTC.h **** #define RTC_ALARM_MONTH_MASK       (0x00000020uL)
ARM GAS  C:\Users\Petro\AppData\Local\Temp\ccLgbaiA.s 			page 11


 316:Generated_Source\PSoC4/RTC.h **** 
 317:Generated_Source\PSoC4/RTC.h **** /** The year alarm mask allows matching the alarm hour register with the
 318:Generated_Source\PSoC4/RTC.h **** *   current year register.
 319:Generated_Source\PSoC4/RTC.h **** */
 320:Generated_Source\PSoC4/RTC.h **** #define RTC_ALARM_YEAR_MASK        (0x00000040uL)
 321:Generated_Source\PSoC4/RTC.h **** 
 322:Generated_Source\PSoC4/RTC.h **** /** \} group_rtc_alarm_mask */
 323:Generated_Source\PSoC4/RTC.h **** /** \} group_constants */
 324:Generated_Source\PSoC4/RTC.h **** 
 325:Generated_Source\PSoC4/RTC.h **** #define RTC_DAYS_PER_WEEK       (7u)
 326:Generated_Source\PSoC4/RTC.h **** 
 327:Generated_Source\PSoC4/RTC.h **** #define RTC_MONTHS_PER_YEAR     (12uL)
 328:Generated_Source\PSoC4/RTC.h **** 
 329:Generated_Source\PSoC4/RTC.h **** #define RTC_HOURS_PER_DAY       (24uL)
 330:Generated_Source\PSoC4/RTC.h **** #define RTC_HOURS_PER_HALF_DAY  (12uL)
 331:Generated_Source\PSoC4/RTC.h **** 
 332:Generated_Source\PSoC4/RTC.h **** #define RTC_SECONDS_PER_MINUTE  (60uL)
 333:Generated_Source\PSoC4/RTC.h **** #define RTC_SECONDS_PER_HOUR    (3600uL)
 334:Generated_Source\PSoC4/RTC.h **** #define RTC_SECONDS_PER_DAY     (24uL * 3600uL)
 335:Generated_Source\PSoC4/RTC.h **** 
 336:Generated_Source\PSoC4/RTC.h **** #define RTC_SECONDS_PER_LEAP_YEAR    (366uL * 24uL * 3600uL)
 337:Generated_Source\PSoC4/RTC.h **** #define RTC_SECONDS_PER_NONLEAP_YEAR (365uL * 24uL * 3600uL)
 338:Generated_Source\PSoC4/RTC.h **** 
 339:Generated_Source\PSoC4/RTC.h **** #define RTC_UNIX_TIME_PM        ((12uL * 3600uL) + 1uL)
 340:Generated_Source\PSoC4/RTC.h **** 
 341:Generated_Source\PSoC4/RTC.h **** /* Unix time begins in 1970 year */
 342:Generated_Source\PSoC4/RTC.h **** #define RTC_YEAR_0             (1970u)
 343:Generated_Source\PSoC4/RTC.h **** 
 344:Generated_Source\PSoC4/RTC.h **** /* Definition of date register fields */
 345:Generated_Source\PSoC4/RTC.h **** #if(RTC_INITIAL_DATA_FORMAT == RTC__MM_DD_YYYY)
 346:Generated_Source\PSoC4/RTC.h ****     #define RTC_10_MONTH_OFFSET   (28u)
 347:Generated_Source\PSoC4/RTC.h ****     #define RTC_MONTH_OFFSET      (24u)
 348:Generated_Source\PSoC4/RTC.h ****     #define RTC_10_DAY_OFFSET     (20u)
 349:Generated_Source\PSoC4/RTC.h ****     #define RTC_DAY_OFFSET        (16u)
 350:Generated_Source\PSoC4/RTC.h ****     #define RTC_1000_YEAR_OFFSET  (12u)
 351:Generated_Source\PSoC4/RTC.h ****     #define RTC_100_YEAR_OFFSET   (8u)
 352:Generated_Source\PSoC4/RTC.h ****     #define RTC_10_YEAR_OFFSET    (4u)
 353:Generated_Source\PSoC4/RTC.h ****     #define RTC_YEAR_OFFSET       (0u)
 354:Generated_Source\PSoC4/RTC.h **** #elif(RTC_INITIAL_DATA_FORMAT == RTC__DD_MM_YYYY)
 355:Generated_Source\PSoC4/RTC.h ****     #define RTC_10_MONTH_OFFSET   (20u)
 356:Generated_Source\PSoC4/RTC.h ****     #define RTC_MONTH_OFFSET      (16u)
 357:Generated_Source\PSoC4/RTC.h ****     #define RTC_10_DAY_OFFSET     (28u)
 358:Generated_Source\PSoC4/RTC.h ****     #define RTC_DAY_OFFSET        (24u)
 359:Generated_Source\PSoC4/RTC.h ****     #define RTC_1000_YEAR_OFFSET  (12u)
 360:Generated_Source\PSoC4/RTC.h ****     #define RTC_100_YEAR_OFFSET   (8u)
 361:Generated_Source\PSoC4/RTC.h ****     #define RTC_10_YEAR_OFFSET    (4u)
 362:Generated_Source\PSoC4/RTC.h ****     #define RTC_YEAR_OFFSET       (0u)
 363:Generated_Source\PSoC4/RTC.h **** #else
 364:Generated_Source\PSoC4/RTC.h ****     #define RTC_10_MONTH_OFFSET   (12u)
 365:Generated_Source\PSoC4/RTC.h ****     #define RTC_MONTH_OFFSET      (8u)
 366:Generated_Source\PSoC4/RTC.h ****     #define RTC_10_DAY_OFFSET     (4u)
 367:Generated_Source\PSoC4/RTC.h ****     #define RTC_DAY_OFFSET        (0u)
 368:Generated_Source\PSoC4/RTC.h ****     #define RTC_1000_YEAR_OFFSET  (28u)
 369:Generated_Source\PSoC4/RTC.h ****     #define RTC_100_YEAR_OFFSET   (24u)
 370:Generated_Source\PSoC4/RTC.h ****     #define RTC_10_YEAR_OFFSET    (20u)
 371:Generated_Source\PSoC4/RTC.h ****     #define RTC_YEAR_OFFSET       (16u)
 372:Generated_Source\PSoC4/RTC.h **** #endif /* (RTC_INITIAL_DATA_FORMAT == RTC__MM_DD_YYYY) */
ARM GAS  C:\Users\Petro\AppData\Local\Temp\ccLgbaiA.s 			page 12


 373:Generated_Source\PSoC4/RTC.h **** 
 374:Generated_Source\PSoC4/RTC.h **** #define RTC_10_MONTH_MASK          (0x00000001uL << RTC_10_MONTH_OFFSET)
 375:Generated_Source\PSoC4/RTC.h **** #define RTC_MONTH_MASK             (0x0000000FuL << RTC_MONTH_OFFSET)
 376:Generated_Source\PSoC4/RTC.h **** #define RTC_10_DAY_MASK            (0x00000003uL << RTC_10_DAY_OFFSET)
 377:Generated_Source\PSoC4/RTC.h **** #define RTC_DAY_MASK               (0x0000000FuL << RTC_DAY_OFFSET)
 378:Generated_Source\PSoC4/RTC.h **** #define RTC_1000_YEAR_MASK         (0x00000003uL << RTC_1000_YEAR_OFFSET)
 379:Generated_Source\PSoC4/RTC.h **** #define RTC_100_YEAR_MASK          (0x0000000FuL << RTC_100_YEAR_OFFSET)
 380:Generated_Source\PSoC4/RTC.h **** #define RTC_10_YEAR_MASK           (0x0000000FuL << RTC_10_YEAR_OFFSET)
 381:Generated_Source\PSoC4/RTC.h **** #define RTC_YEAR_MASK              (0x0000000FuL << RTC_YEAR_OFFSET)
 382:Generated_Source\PSoC4/RTC.h **** 
 383:Generated_Source\PSoC4/RTC.h **** #define  RTC_MONTH_FULL_MASK       (RTC_10_MONTH_MASK  | RTC_MONTH_MASK)
 384:Generated_Source\PSoC4/RTC.h **** #define  RTC_DAY_FULL_MASK         (RTC_10_DAY_MASK    | RTC_DAY_MASK)
 385:Generated_Source\PSoC4/RTC.h **** #define  RTC_YEAR_FULL_MASK        (RTC_1000_YEAR_MASK | RTC_100_YEAR_MASK |\
 386:Generated_Source\PSoC4/RTC.h ****                                                  RTC_10_YEAR_MASK   | RTC_YEAR_MASK)
 387:Generated_Source\PSoC4/RTC.h **** 
 388:Generated_Source\PSoC4/RTC.h **** /* Definition of time register fields */
 389:Generated_Source\PSoC4/RTC.h **** #define RTC_TIME_FORMAT_OFFSET     (23u)
 390:Generated_Source\PSoC4/RTC.h **** #define RTC_PERIOD_OF_DAY_OFFSET   (22u)
 391:Generated_Source\PSoC4/RTC.h **** #define RTC_10_HOURS_OFFSET        (20u)
 392:Generated_Source\PSoC4/RTC.h **** #define RTC_HOURS_OFFSET           (16u)
 393:Generated_Source\PSoC4/RTC.h **** #define RTC_10_MINUTES_OFFSET      (12u)
 394:Generated_Source\PSoC4/RTC.h **** #define RTC_MINUTES_OFFSET         (8u)
 395:Generated_Source\PSoC4/RTC.h **** #define RTC_10_SECONDS_OFFSET      (4u)
 396:Generated_Source\PSoC4/RTC.h **** #define RTC_SECONDS_OFFSET         (0u)
 397:Generated_Source\PSoC4/RTC.h **** 
 398:Generated_Source\PSoC4/RTC.h **** #define RTC_TIME_FORMAT_MASK       (0x00000001uL << RTC_TIME_FORMAT_OFFSET)
 399:Generated_Source\PSoC4/RTC.h **** #define RTC_PERIOD_OF_DAY_MASK     (0x00000001uL << RTC_PERIOD_OF_DAY_OFFSET)
 400:Generated_Source\PSoC4/RTC.h **** #define RTC_10_HOURS_MASK          (0x00000003uL << RTC_10_HOURS_OFFSET)
 401:Generated_Source\PSoC4/RTC.h **** #define RTC_HOURS_MASK             (0x0000000FuL << RTC_HOURS_OFFSET)
 402:Generated_Source\PSoC4/RTC.h **** #define RTC_10_MINUTES_MASK        (0x00000007uL << RTC_10_MINUTES_OFFSET)
 403:Generated_Source\PSoC4/RTC.h **** #define RTC_MINUTES_MASK           (0x0000000FuL << RTC_MINUTES_OFFSET)
 404:Generated_Source\PSoC4/RTC.h **** #define RTC_10_SECONDS_MASK        (0x00000007uL << RTC_10_SECONDS_OFFSET)
 405:Generated_Source\PSoC4/RTC.h **** #define RTC_SECONDS_MASK           (0x0000000FuL << RTC_SECONDS_OFFSET)
 406:Generated_Source\PSoC4/RTC.h **** 
 407:Generated_Source\PSoC4/RTC.h **** #define RTC_HOURS_FULL_MASK        (RTC_10_HOURS_MASK   | RTC_HOURS_MASK)
 408:Generated_Source\PSoC4/RTC.h **** #define RTC_MINUTES_FULL_MASK      (RTC_10_MINUTES_MASK | RTC_MINUTES_MASK)
 409:Generated_Source\PSoC4/RTC.h **** #define RTC_SECONDS_FULL_MASK      (RTC_10_SECONDS_MASK | RTC_SECONDS_MASK)
 410:Generated_Source\PSoC4/RTC.h **** 
 411:Generated_Source\PSoC4/RTC.h **** #define RTC_STATUS_DST_OFFSET      (1u)
 412:Generated_Source\PSoC4/RTC.h **** #define RTC_STATUS_ALARM_OFFSET    (2u)
 413:Generated_Source\PSoC4/RTC.h **** #define RTC_STATUS_LY_OFFSET       (3u)
 414:Generated_Source\PSoC4/RTC.h **** #define RTC_STATUS_AM_PM_OFFSET    (4u)
 415:Generated_Source\PSoC4/RTC.h **** 
 416:Generated_Source\PSoC4/RTC.h **** /* Number of bits per one BCD digit */
 417:Generated_Source\PSoC4/RTC.h **** #define RTC_BCD_NUMBER_SIZE        (4u)
 418:Generated_Source\PSoC4/RTC.h **** #define RTC_BCD_ONE_DIGIT_MASK     (0x0000000FuL)
 419:Generated_Source\PSoC4/RTC.h **** 
 420:Generated_Source\PSoC4/RTC.h **** 
 421:Generated_Source\PSoC4/RTC.h **** /*******************************************************************************
 422:Generated_Source\PSoC4/RTC.h **** *    External Variables
 423:Generated_Source\PSoC4/RTC.h **** *******************************************************************************/
 424:Generated_Source\PSoC4/RTC.h **** /**
 425:Generated_Source\PSoC4/RTC.h **** * \addtogroup group_globals
 426:Generated_Source\PSoC4/RTC.h **** * \{
 427:Generated_Source\PSoC4/RTC.h **** */
 428:Generated_Source\PSoC4/RTC.h **** 
 429:Generated_Source\PSoC4/RTC.h **** /**
ARM GAS  C:\Users\Petro\AppData\Local\Temp\ccLgbaiA.s 			page 13


 430:Generated_Source\PSoC4/RTC.h **** * Indicates whether the RTC has been initialized; The variable is initialized to
 431:Generated_Source\PSoC4/RTC.h **** * 0 and set to 1 the first time RTC_Start() is called. This allows the component
 432:Generated_Source\PSoC4/RTC.h **** * to restart without reinitialization after the first call to the RTC_Start() 
 433:Generated_Source\PSoC4/RTC.h **** * routine.
 434:Generated_Source\PSoC4/RTC.h **** */
 435:Generated_Source\PSoC4/RTC.h **** extern uint8  RTC_initVar;
 436:Generated_Source\PSoC4/RTC.h **** 
 437:Generated_Source\PSoC4/RTC.h **** /** The DST start/stop status */
 438:Generated_Source\PSoC4/RTC.h **** extern uint8  RTC_dstStatus;
 439:Generated_Source\PSoC4/RTC.h **** 
 440:Generated_Source\PSoC4/RTC.h **** /**
 441:Generated_Source\PSoC4/RTC.h **** * The uint64 variable represents the standard Unix time (number of seconds 
 442:Generated_Source\PSoC4/RTC.h **** * elapsed from January 1, 1970 00:00 hours UTC) in 64-bit 
 443:Generated_Source\PSoC4/RTC.h **** */
 444:Generated_Source\PSoC4/RTC.h **** extern volatile uint64 RTC_unixTime;
 445:Generated_Source\PSoC4/RTC.h **** 
 446:Generated_Source\PSoC4/RTC.h **** /** The values for the time and date of the DST start */
 447:Generated_Source\PSoC4/RTC.h **** extern RTC_DST_TIME RTC_dstStartTime;
 448:Generated_Source\PSoC4/RTC.h **** 
 449:Generated_Source\PSoC4/RTC.h **** /** The values for the time and date of the DST stop */
 450:Generated_Source\PSoC4/RTC.h **** extern RTC_DST_TIME RTC_dstStopTime;
 451:Generated_Source\PSoC4/RTC.h **** 
 452:Generated_Source\PSoC4/RTC.h **** /**
 453:Generated_Source\PSoC4/RTC.h **** * The last updated time and date values are stored in this structure (update 
 454:Generated_Source\PSoC4/RTC.h **** * happens in Get time/date APIs)
 455:Generated_Source\PSoC4/RTC.h **** */
 456:Generated_Source\PSoC4/RTC.h **** extern RTC_DATE_TIME RTC_currentTimeDate;
 457:Generated_Source\PSoC4/RTC.h **** 
 458:Generated_Source\PSoC4/RTC.h **** /** The alarm time and date values are stored in this variable */
 459:Generated_Source\PSoC4/RTC.h **** extern RTC_DATE_TIME RTC_alarmCfgTimeDate;
 460:Generated_Source\PSoC4/RTC.h **** 
 461:Generated_Source\PSoC4/RTC.h **** /**
 462:Generated_Source\PSoC4/RTC.h **** * This variable is used to mask alarm events; mask seconds alarm, mask minutes 
 463:Generated_Source\PSoC4/RTC.h **** * alarm, and so on. It will have bit masks for each time item masking that item 
 464:Generated_Source\PSoC4/RTC.h **** * for alarm generation
 465:Generated_Source\PSoC4/RTC.h **** */
 466:Generated_Source\PSoC4/RTC.h **** extern uint32  RTC_alarmCfgMask;
 467:Generated_Source\PSoC4/RTC.h **** 
 468:Generated_Source\PSoC4/RTC.h **** /**
 469:Generated_Source\PSoC4/RTC.h **** * This variable is used to indicate current active alarm status per time item 
 470:Generated_Source\PSoC4/RTC.h **** * used in the alarm; whether seconds alarm is active, minute's alarm is active, 
 471:Generated_Source\PSoC4/RTC.h **** * and so on. It will have bit masks for each time item (seconds, minutes, hours,
 472:Generated_Source\PSoC4/RTC.h **** * day, and so on) showing the status
 473:Generated_Source\PSoC4/RTC.h **** */
 474:Generated_Source\PSoC4/RTC.h **** extern uint32 RTC_alarmCurStatus;
 475:Generated_Source\PSoC4/RTC.h **** 
 476:Generated_Source\PSoC4/RTC.h **** /** \} group_globals */
 477:Generated_Source\PSoC4/RTC.h **** 
 478:Generated_Source\PSoC4/RTC.h **** extern void (*RTC_alarmCallbackPtr)(void);
 479:Generated_Source\PSoC4/RTC.h **** 
 480:Generated_Source\PSoC4/RTC.h **** extern const uint16 RTC_daysBeforeMonthTbl[RTC_MONTHS_PER_YEAR];
 481:Generated_Source\PSoC4/RTC.h **** extern const uint8  RTC_daysInMonthTbl[RTC_MONTHS_PER_YEAR];
 482:Generated_Source\PSoC4/RTC.h **** 
 483:Generated_Source\PSoC4/RTC.h **** 
 484:Generated_Source\PSoC4/RTC.h **** /*******************************************************************************
 485:Generated_Source\PSoC4/RTC.h **** *    Function Prototypes
 486:Generated_Source\PSoC4/RTC.h **** *******************************************************************************/
ARM GAS  C:\Users\Petro\AppData\Local\Temp\ccLgbaiA.s 			page 14


 487:Generated_Source\PSoC4/RTC.h **** /**
 488:Generated_Source\PSoC4/RTC.h **** * \addtogroup group_general
 489:Generated_Source\PSoC4/RTC.h **** * \{
 490:Generated_Source\PSoC4/RTC.h **** */
 491:Generated_Source\PSoC4/RTC.h **** void   RTC_Start(void);
 492:Generated_Source\PSoC4/RTC.h **** void   RTC_Stop(void);
 493:Generated_Source\PSoC4/RTC.h **** void   RTC_Init(void);
 494:Generated_Source\PSoC4/RTC.h **** void   RTC_SetUnixTime(uint64 unixTime);
 495:Generated_Source\PSoC4/RTC.h **** uint64 RTC_GetUnixTime(void);
 496:Generated_Source\PSoC4/RTC.h **** void   RTC_SetPeriod(uint32 ticks, uint32 refOneSecTicks);
 497:Generated_Source\PSoC4/RTC.h **** uint32 RTC_GetPeriod(void);
 498:Generated_Source\PSoC4/RTC.h **** uint32 RTC_GetRefOneSec(void);
 499:Generated_Source\PSoC4/RTC.h **** void   RTC_SetDateAndTime(uint32 inputTime, uint32 inputDate);
 500:Generated_Source\PSoC4/RTC.h **** void   RTC_GetDateAndTime(RTC_DATE_TIME* dateTime);
 501:Generated_Source\PSoC4/RTC.h **** uint32 RTC_GetTime(void);
 502:Generated_Source\PSoC4/RTC.h **** uint32 RTC_GetDate(void);
 503:Generated_Source\PSoC4/RTC.h **** void   RTC_SetAlarmDateAndTime(const RTC_DATE_TIME* alarmTime);
 504:Generated_Source\PSoC4/RTC.h **** void   RTC_GetAlarmDateAndTime(RTC_DATE_TIME* alarmTimeDate);
 505:Generated_Source\PSoC4/RTC.h **** void   RTC_SetAlarmMask(uint32 mask);
 506:Generated_Source\PSoC4/RTC.h **** uint32 RTC_GetAlarmMask(void);
 507:Generated_Source\PSoC4/RTC.h **** uint32 RTC_ReadStatus(void);
 508:Generated_Source\PSoC4/RTC.h **** uint32 RTC_GetAlarmStatus(void);
 509:Generated_Source\PSoC4/RTC.h **** void   RTC_ClearAlarmStatus(void);
 510:Generated_Source\PSoC4/RTC.h **** void   RTC_SetDSTStartTime(const RTC_DST_TIME* dstStartTime,
 511:Generated_Source\PSoC4/RTC.h ****                                               RTC_DST_DATETYPE_ENUM type);
 512:Generated_Source\PSoC4/RTC.h **** void   RTC_SetDSTStopTime(const RTC_DST_TIME* dstStopTime,
 513:Generated_Source\PSoC4/RTC.h ****                                              RTC_DST_DATETYPE_ENUM type);
 514:Generated_Source\PSoC4/RTC.h **** uint32 RTC_ConvertBCDToDec(uint32 bcdNum);
 515:Generated_Source\PSoC4/RTC.h **** uint32 RTC_ConvertDecToBCD(uint32 decNum);
 516:Generated_Source\PSoC4/RTC.h **** void   RTC_Update(void);
 517:Generated_Source\PSoC4/RTC.h **** void*  RTC_SetAlarmHandler(void (*CallbackFunction)(void));
 518:Generated_Source\PSoC4/RTC.h **** 
 519:Generated_Source\PSoC4/RTC.h **** static uint32 RTC_ConstructDate(uint32 month, uint32 day, uint32 year);
 520:Generated_Source\PSoC4/RTC.h **** static uint32 RTC_ConstructTime(uint32 timeFormat, uint32 stateAmPm, uint32 hour, uint32 min, uint3
 521:Generated_Source\PSoC4/RTC.h **** /** \} group_general */
 522:Generated_Source\PSoC4/RTC.h **** 
 523:Generated_Source\PSoC4/RTC.h **** static uint32 RTC_GetTimeFormat(uint32 inputTime);
 524:Generated_Source\PSoC4/RTC.h **** static uint32 RTC_SetTimeFormat(uint32 inputTime, uint32 timeFormat);
 525:Generated_Source\PSoC4/RTC.h **** 
 526:Generated_Source\PSoC4/RTC.h **** /**
 527:Generated_Source\PSoC4/RTC.h **** * \addtogroup group_general
 528:Generated_Source\PSoC4/RTC.h **** * \{
 529:Generated_Source\PSoC4/RTC.h **** */
 530:Generated_Source\PSoC4/RTC.h **** static uint32 RTC_LeapYear(uint32 year);
 531:Generated_Source\PSoC4/RTC.h **** static uint32 RTC_IsBitSet(uint32 var, uint32 mask);
 532:Generated_Source\PSoC4/RTC.h **** static uint32 RTC_GetSecond(uint32 inputTime);
 533:Generated_Source\PSoC4/RTC.h **** static uint32 RTC_GetMinutes(uint32 inputTime);
 534:Generated_Source\PSoC4/RTC.h **** static uint32 RTC_GetHours(uint32 inputTime);
 535:Generated_Source\PSoC4/RTC.h **** static uint32 RTC_GetAmPm(uint32 inputTime);
 536:Generated_Source\PSoC4/RTC.h **** static uint32 RTC_GetDay(uint32 date);
 537:Generated_Source\PSoC4/RTC.h **** static uint32 RTC_GetMonth(uint32 date);
 538:Generated_Source\PSoC4/RTC.h **** static uint32 RTC_GetYear(uint32 date);
 539:Generated_Source\PSoC4/RTC.h **** /** \} group_general */
 540:Generated_Source\PSoC4/RTC.h **** 
 541:Generated_Source\PSoC4/RTC.h **** static uint32 RTC_SetSecond(uint32 inputTime, uint32 inputSecond);
 542:Generated_Source\PSoC4/RTC.h **** static uint32 RTC_SetMinutes(uint32 inputTime, uint32 inputMinute);
 543:Generated_Source\PSoC4/RTC.h **** static uint32 RTC_SetHours(uint32 inputTime, uint32 inputHours);
ARM GAS  C:\Users\Petro\AppData\Local\Temp\ccLgbaiA.s 			page 15


 544:Generated_Source\PSoC4/RTC.h **** static uint32 RTC_SetAmPm(uint32 inputTime, uint32 periodOfDay);
 545:Generated_Source\PSoC4/RTC.h **** static uint32 RTC_SetDay(uint32 inputDate, uint32 inputDay);
 546:Generated_Source\PSoC4/RTC.h **** static uint32 RTC_SetMonth(uint32 inputDate, uint32 inputMonth);
 547:Generated_Source\PSoC4/RTC.h **** static uint32 RTC_SetYear(uint32 inputDate, uint32 inputYear);
 548:Generated_Source\PSoC4/RTC.h **** 
 549:Generated_Source\PSoC4/RTC.h **** uint64 RTC_ConstructUnixAlarmTime(const RTC_DATE_TIME* alarmTime, uint8 alarmCfgMask);
 550:Generated_Source\PSoC4/RTC.h **** uint64 RTC_GetDstUnixTime(const RTC_DST_TIME* dstTime);
 551:Generated_Source\PSoC4/RTC.h **** uint64 RTC_GetNexAlarmTime(uint64 curUnixTime, uint8 alarmCfgMask);
 552:Generated_Source\PSoC4/RTC.h **** 
 553:Generated_Source\PSoC4/RTC.h **** static uint32 RTC_GetNextMinSec(uint32 curVal);
 554:Generated_Source\PSoC4/RTC.h **** static uint32 RTC_GetNextHour(uint32 curVal);
 555:Generated_Source\PSoC4/RTC.h **** static uint32 RTC_GetNextDay(uint32 curYear, uint32 curMonth, uint32 curDay, uint32 alarmCfgMask);
 556:Generated_Source\PSoC4/RTC.h **** static uint32 RTC_GetNextMonth(uint32 curMonth);
 557:Generated_Source\PSoC4/RTC.h **** static uint32 RTC_GetNextYear(uint32 curYear);
 558:Generated_Source\PSoC4/RTC.h **** static uint32 RTC_GetDayOfWeek(uint32 day, uint32 month, uint32 year);
 559:Generated_Source\PSoC4/RTC.h **** static uint32 RTC_DaysBeforeMonth(uint32 month, uint32 year);
 560:Generated_Source\PSoC4/RTC.h **** 
 561:Generated_Source\PSoC4/RTC.h **** uint32 RTC_DaysInMonth(uint32 month, uint32 year);
 562:Generated_Source\PSoC4/RTC.h **** 
 563:Generated_Source\PSoC4/RTC.h **** /**
 564:Generated_Source\PSoC4/RTC.h **** * \addtogroup group_general
 565:Generated_Source\PSoC4/RTC.h **** * \{
 566:Generated_Source\PSoC4/RTC.h **** */
 567:Generated_Source\PSoC4/RTC.h **** void   RTC_UnixToDateTime(RTC_DATE_TIME* dateTime, uint64 unixTime, uint32 timeFormat);
 568:Generated_Source\PSoC4/RTC.h **** uint64 RTC_DateTimeToUnix(uint32 inputDate, uint32 inputTime);
 569:Generated_Source\PSoC4/RTC.h **** 
 570:Generated_Source\PSoC4/RTC.h **** #if defined(CYDEV_RTC_SOURCE_WDT)
 571:Generated_Source\PSoC4/RTC.h ****     #if((0u != CYDEV_WDT_GENERATE_ISR) && (0u == RTC_INITIAL_UPDATE_MODE))
 572:Generated_Source\PSoC4/RTC.h ****         static void RTC_CySysRtcSetCallback(uint32 wdtNumber);
 573:Generated_Source\PSoC4/RTC.h ****         static void RTC_CySysRtcResetCallback(uint32 wdtNumber);
 574:Generated_Source\PSoC4/RTC.h ****     #endif /* ((0u != CYDEV_WDT_GENERATE_ISR) && (0u == RTC_INITIAL_UPDATE_MODE)) */
 575:Generated_Source\PSoC4/RTC.h **** #endif /* (CYDEV_RTC_SOURCE_WDT) */
 576:Generated_Source\PSoC4/RTC.h **** 
 577:Generated_Source\PSoC4/RTC.h **** /** \} group_general */
 578:Generated_Source\PSoC4/RTC.h **** 
 579:Generated_Source\PSoC4/RTC.h **** uint32 RTC_RelativeToFixed(uint32 dayOfWeek, uint32 weekOfMonth, uint32 month, uint32 year);
 580:Generated_Source\PSoC4/RTC.h **** 
 581:Generated_Source\PSoC4/RTC.h **** 
 582:Generated_Source\PSoC4/RTC.h **** 
 583:Generated_Source\PSoC4/RTC.h **** /*******************************************************************************
 584:Generated_Source\PSoC4/RTC.h **** * Function Name: RTC_IsBitSet
 585:Generated_Source\PSoC4/RTC.h **** ****************************************************************************//**
 586:Generated_Source\PSoC4/RTC.h **** *
 587:Generated_Source\PSoC4/RTC.h **** * Checks the state of a bit passed through parameter.
 588:Generated_Source\PSoC4/RTC.h **** *
 589:Generated_Source\PSoC4/RTC.h **** * \param var
 590:Generated_Source\PSoC4/RTC.h **** * The variable to be checked.
 591:Generated_Source\PSoC4/RTC.h **** *
 592:Generated_Source\PSoC4/RTC.h **** * \param mask
 593:Generated_Source\PSoC4/RTC.h **** * The mask for a bit to be checked.
 594:Generated_Source\PSoC4/RTC.h **** *
 595:Generated_Source\PSoC4/RTC.h **** * \return
 596:Generated_Source\PSoC4/RTC.h **** *  0u - Bit is not set. <br> 1u - Bit is set.
 597:Generated_Source\PSoC4/RTC.h **** *
 598:Generated_Source\PSoC4/RTC.h **** *******************************************************************************/
 599:Generated_Source\PSoC4/RTC.h **** static CY_INLINE uint32 RTC_IsBitSet(uint32 var, uint32 mask)
 600:Generated_Source\PSoC4/RTC.h **** {
ARM GAS  C:\Users\Petro\AppData\Local\Temp\ccLgbaiA.s 			page 16


 601:Generated_Source\PSoC4/RTC.h ****     return ((mask == (var & mask)) ? 1Lu : 0Lu);
 602:Generated_Source\PSoC4/RTC.h **** }
 603:Generated_Source\PSoC4/RTC.h **** 
 604:Generated_Source\PSoC4/RTC.h **** 
 605:Generated_Source\PSoC4/RTC.h **** /*******************************************************************************
 606:Generated_Source\PSoC4/RTC.h **** * Function Name: RTC_LeapYear
 607:Generated_Source\PSoC4/RTC.h **** ****************************************************************************//**
 608:Generated_Source\PSoC4/RTC.h **** *
 609:Generated_Source\PSoC4/RTC.h **** * Checks whether the year passed through the parameter is leap or no.
 610:Generated_Source\PSoC4/RTC.h **** *
 611:Generated_Source\PSoC4/RTC.h **** * \param year
 612:Generated_Source\PSoC4/RTC.h **** * The year to be checked.
 613:Generated_Source\PSoC4/RTC.h **** *
 614:Generated_Source\PSoC4/RTC.h **** * \return
 615:Generated_Source\PSoC4/RTC.h **** * 0u - The year is not leap <br> 1u - The year is leap.
 616:Generated_Source\PSoC4/RTC.h **** *
 617:Generated_Source\PSoC4/RTC.h **** *******************************************************************************/
 618:Generated_Source\PSoC4/RTC.h **** static CY_INLINE uint32 RTC_LeapYear(uint32 year)
 619:Generated_Source\PSoC4/RTC.h **** {
 620:Generated_Source\PSoC4/RTC.h ****     uint32 retVal;
 621:Generated_Source\PSoC4/RTC.h **** 
 622:Generated_Source\PSoC4/RTC.h ****     if(((0u == (year % 4Lu)) && (0u != (year % 100Lu))) || (0u == (year % 400Lu)))
 623:Generated_Source\PSoC4/RTC.h ****     {
 624:Generated_Source\PSoC4/RTC.h ****         retVal = 1uL;
 625:Generated_Source\PSoC4/RTC.h ****     }
 626:Generated_Source\PSoC4/RTC.h ****     else
 627:Generated_Source\PSoC4/RTC.h ****     {
 628:Generated_Source\PSoC4/RTC.h ****         retVal = 0uL;
 629:Generated_Source\PSoC4/RTC.h ****     }
 630:Generated_Source\PSoC4/RTC.h **** 
 631:Generated_Source\PSoC4/RTC.h ****     return(retVal);
 632:Generated_Source\PSoC4/RTC.h **** }
 633:Generated_Source\PSoC4/RTC.h **** 
 634:Generated_Source\PSoC4/RTC.h **** 
 635:Generated_Source\PSoC4/RTC.h **** /*******************************************************************************
 636:Generated_Source\PSoC4/RTC.h **** * Function Name: RTC_GetSecond
 637:Generated_Source\PSoC4/RTC.h **** ****************************************************************************//**
 638:Generated_Source\PSoC4/RTC.h **** *
 639:Generated_Source\PSoC4/RTC.h **** * Returns the seconds value from the time value that is passed as a/the 
 640:Generated_Source\PSoC4/RTC.h **** * parameter.
 641:Generated_Source\PSoC4/RTC.h **** *
 642:Generated_Source\PSoC4/RTC.h **** * \param inputTime
 643:Generated_Source\PSoC4/RTC.h **** * The time value.
 644:Generated_Source\PSoC4/RTC.h **** *
 645:Generated_Source\PSoC4/RTC.h **** * \return
 646:Generated_Source\PSoC4/RTC.h **** * The seconds value.
 647:Generated_Source\PSoC4/RTC.h **** *
 648:Generated_Source\PSoC4/RTC.h **** *******************************************************************************/
 649:Generated_Source\PSoC4/RTC.h **** static CY_INLINE uint32 RTC_GetSecond(uint32 inputTime)
 650:Generated_Source\PSoC4/RTC.h **** {
 651:Generated_Source\PSoC4/RTC.h ****     uint32 retVal;
 652:Generated_Source\PSoC4/RTC.h **** 
 653:Generated_Source\PSoC4/RTC.h ****     retVal  = ((inputTime & RTC_10_SECONDS_MASK) >> RTC_10_SECONDS_OFFSET) * 10u;
 654:Generated_Source\PSoC4/RTC.h ****     retVal += (inputTime & RTC_SECONDS_MASK) >> RTC_SECONDS_OFFSET;
 655:Generated_Source\PSoC4/RTC.h **** 
 656:Generated_Source\PSoC4/RTC.h ****     return (retVal);
 657:Generated_Source\PSoC4/RTC.h **** }
ARM GAS  C:\Users\Petro\AppData\Local\Temp\ccLgbaiA.s 			page 17


 658:Generated_Source\PSoC4/RTC.h **** 
 659:Generated_Source\PSoC4/RTC.h **** 
 660:Generated_Source\PSoC4/RTC.h **** /*******************************************************************************
 661:Generated_Source\PSoC4/RTC.h **** * Function Name: RTC_GetMinutes
 662:Generated_Source\PSoC4/RTC.h **** ****************************************************************************//**
 663:Generated_Source\PSoC4/RTC.h **** *
 664:Generated_Source\PSoC4/RTC.h **** * Returns the minutes value from the time value that is passed as a/the 
 665:Generated_Source\PSoC4/RTC.h **** * parameter.
 666:Generated_Source\PSoC4/RTC.h **** *
 667:Generated_Source\PSoC4/RTC.h **** * \param inputTime
 668:Generated_Source\PSoC4/RTC.h **** * The time value.
 669:Generated_Source\PSoC4/RTC.h **** *
 670:Generated_Source\PSoC4/RTC.h **** * \return
 671:Generated_Source\PSoC4/RTC.h **** * The minutes value.
 672:Generated_Source\PSoC4/RTC.h **** *
 673:Generated_Source\PSoC4/RTC.h **** *******************************************************************************/
 674:Generated_Source\PSoC4/RTC.h **** static CY_INLINE uint32 RTC_GetMinutes(uint32 inputTime)
 675:Generated_Source\PSoC4/RTC.h **** {
 676:Generated_Source\PSoC4/RTC.h ****     uint32 retVal;
 677:Generated_Source\PSoC4/RTC.h **** 
 678:Generated_Source\PSoC4/RTC.h ****     retVal  = ((inputTime & RTC_10_MINUTES_MASK) >> RTC_10_MINUTES_OFFSET) * 10u;
 679:Generated_Source\PSoC4/RTC.h ****     retVal += (inputTime & RTC_MINUTES_MASK) >> RTC_MINUTES_OFFSET;
 680:Generated_Source\PSoC4/RTC.h **** 
 681:Generated_Source\PSoC4/RTC.h ****     return (retVal);
 682:Generated_Source\PSoC4/RTC.h **** }
 683:Generated_Source\PSoC4/RTC.h **** 
 684:Generated_Source\PSoC4/RTC.h **** 
 685:Generated_Source\PSoC4/RTC.h **** /*******************************************************************************
 686:Generated_Source\PSoC4/RTC.h **** * Function Name: RTC_GetHours
 687:Generated_Source\PSoC4/RTC.h **** ****************************************************************************//**
 688:Generated_Source\PSoC4/RTC.h **** *
 689:Generated_Source\PSoC4/RTC.h **** * Returns the hours value from the time value that is passed as a/the parameter.
 690:Generated_Source\PSoC4/RTC.h **** *
 691:Generated_Source\PSoC4/RTC.h **** * \param inputTime
 692:Generated_Source\PSoC4/RTC.h **** * The time value.
 693:Generated_Source\PSoC4/RTC.h **** *
 694:Generated_Source\PSoC4/RTC.h **** * \return
 695:Generated_Source\PSoC4/RTC.h **** * The hours value.
 696:Generated_Source\PSoC4/RTC.h **** *
 697:Generated_Source\PSoC4/RTC.h **** *******************************************************************************/
 698:Generated_Source\PSoC4/RTC.h **** static CY_INLINE uint32 RTC_GetHours(uint32 inputTime)
 699:Generated_Source\PSoC4/RTC.h **** {
 700:Generated_Source\PSoC4/RTC.h ****     uint32 retVal;
 701:Generated_Source\PSoC4/RTC.h **** 
 702:Generated_Source\PSoC4/RTC.h ****     retVal  = ((inputTime & RTC_10_HOURS_MASK) >> RTC_10_HOURS_OFFSET) * 10u;
 151              		.loc 2 702 0
 152 000a 0A23     		movs	r3, #10
 153              	.LBE26:
 154              	.LBE25:
 101:..\..\common\lib\lib_RTC/RTC_WDT.c ****     hour = RTC_GetHours(readTime);
 155              		.loc 1 101 0
 156 000c 0F22     		movs	r2, #15
 157              	.LBB28:
 158              	.LBB27:
 159              		.loc 2 702 0
 160 000e 8102     		lsls	r1, r0, #10
 161 0010 890F     		lsrs	r1, r1, #30
ARM GAS  C:\Users\Petro\AppData\Local\Temp\ccLgbaiA.s 			page 18


 162 0012 5943     		muls	r1, r3
 163              	.LBE27:
 164              	.LBE28:
 100:..\..\common\lib\lib_RTC/RTC_WDT.c ****     hour = RTC_GetHours(readTime);
 165              		.loc 1 100 0
 166 0014 0400     		movs	r4, r0
 167              	.LVL8:
 168              		.loc 1 101 0
 169 0016 000C     		lsrs	r0, r0, #16
 170              	.LVL9:
 171 0018 1040     		ands	r0, r2
 172 001a 4118     		adds	r1, r0, r1
 173              	.LBB29:
 174              	.LBB30:
 678:Generated_Source\PSoC4/RTC.h ****     retVal += (inputTime & RTC_MINUTES_MASK) >> RTC_MINUTES_OFFSET;
 175              		.loc 2 678 0
 176 001c 0720     		movs	r0, #7
 177              	.LBE30:
 178              	.LBE29:
 179              		.loc 1 101 0
 180 001e 0025     		movs	r5, #0
 181              	.LVL10:
 182 0020 0291     		str	r1, [sp, #8]
 183              	.LVL11:
 184              	.LBB32:
 185              	.LBB31:
 678:Generated_Source\PSoC4/RTC.h ****     retVal += (inputTime & RTC_MINUTES_MASK) >> RTC_MINUTES_OFFSET;
 186              		.loc 2 678 0
 187 0022 210B     		lsrs	r1, r4, #12
 188 0024 0140     		ands	r1, r0
 189 0026 5943     		muls	r1, r3
 190              	.LVL12:
 191              	.LBE31:
 192              	.LBE32:
 102:..\..\common\lib\lib_RTC/RTC_WDT.c ****     min = RTC_GetMinutes(readTime);
 193              		.loc 1 102 0
 194 0028 260A     		lsrs	r6, r4, #8
 195 002a 1640     		ands	r6, r2
 196 002c 7118     		adds	r1, r6, r1
 197 002e 0391     		str	r1, [sp, #12]
 198              	.LVL13:
 199              	.LBB33:
 200              	.LBB34:
 653:Generated_Source\PSoC4/RTC.h ****     retVal += (inputTime & RTC_SECONDS_MASK) >> RTC_SECONDS_OFFSET;
 201              		.loc 2 653 0
 202 0030 2109     		lsrs	r1, r4, #4
 203              	.LVL14:
 204 0032 0840     		ands	r0, r1
 205 0034 4343     		muls	r3, r0
 206              	.LVL15:
 207              	.LBE34:
 208              	.LBE33:
 103:..\..\common\lib\lib_RTC/RTC_WDT.c ****     sec = RTC_GetSecond(readTime);
 209              		.loc 1 103 0
 210 0036 2240     		ands	r2, r4
 211 0038 D318     		adds	r3, r2, r3
 212 003a 0493     		str	r3, [sp, #16]
ARM GAS  C:\Users\Petro\AppData\Local\Temp\ccLgbaiA.s 			page 19


 213              	.LVL16:
 104:..\..\common\lib\lib_RTC/RTC_WDT.c ****     ms = RTCgetRecentMs();
 214              		.loc 1 104 0
 215 003c 3D4B     		ldr	r3, .L11
 216              	.LVL17:
 105:..\..\common\lib\lib_RTC/RTC_WDT.c ****     stateAmPm = RTC_GetAmPm(readTime);
 106:..\..\common\lib\lib_RTC/RTC_WDT.c ****     
 107:..\..\common\lib\lib_RTC/RTC_WDT.c ****     time  = timeFormat << RTC_TIME_FORMAT_SHIFT;
 108:..\..\common\lib\lib_RTC/RTC_WDT.c ****     time |= stateAmPm << RTC_PERIOD_OF_DAY_SHIFT;
 109:..\..\common\lib\lib_RTC/RTC_WDT.c **** 
 110:..\..\common\lib\lib_RTC/RTC_WDT.c ****     time |= (hour / 10u) << RTC_10_HOURS_SHIFT;
 111:..\..\common\lib\lib_RTC/RTC_WDT.c ****     time |= (hour % 10u) << RTC_HOURS_SHIFT;
 112:..\..\common\lib\lib_RTC/RTC_WDT.c **** 
 113:..\..\common\lib\lib_RTC/RTC_WDT.c ****     time |= (min / 10u) << RTC_10_MINUTES_SHIFT;
 114:..\..\common\lib\lib_RTC/RTC_WDT.c ****     time |= (min % 10u) << RTC_MINUTES_SHIFT;
 115:..\..\common\lib\lib_RTC/RTC_WDT.c **** 
 116:..\..\common\lib\lib_RTC/RTC_WDT.c ****     time |= (sec / 10u) << RTC_10_SECONDS_SHIFT;
 117:..\..\common\lib\lib_RTC/RTC_WDT.c ****     time |= (sec % 10u) << RTC_SECONDS_SHIFT;
 118:..\..\common\lib\lib_RTC/RTC_WDT.c ****     
 119:..\..\common\lib\lib_RTC/RTC_WDT.c ****     
 120:..\..\common\lib\lib_RTC/RTC_WDT.c ****     time |= (ms / 100u) << RTC_100_MILISECONDS_SHIFT;
 217              		.loc 1 120 0
 218 003e 6422     		movs	r2, #100
 104:..\..\common\lib\lib_RTC/RTC_WDT.c ****     ms = RTCgetRecentMs();
 219              		.loc 1 104 0
 220 0040 1E88     		ldrh	r6, [r3]
 221              	.LVL18:
 222              		.loc 1 120 0
 223 0042 2900     		movs	r1, r5
 224 0044 0023     		movs	r3, #0
 225 0046 3000     		movs	r0, r6
 226 0048 FFF7FEFF 		bl	__aeabi_uldivmod
 227              	.LVL19:
 228 004c 0591     		str	r1, [sp, #20]
 121:..\..\common\lib\lib_RTC/RTC_WDT.c ****     time |= ((ms / 10u)-(ms/100u)*10u) << RTC_10_MILISECONDS_SHIFT;
 122:..\..\common\lib\lib_RTC/RTC_WDT.c ****     time |= (ms % 10u) << RTC_MILISECONDS_SHIFT;
 123:..\..\common\lib\lib_RTC/RTC_WDT.c ****        
 124:..\..\common\lib\lib_RTC/RTC_WDT.c ****     return time;
 229              		.loc 1 124 0
 230 004e 059A     		ldr	r2, [sp, #20]
 231 0050 010D     		lsrs	r1, r0, #20
 232 0052 1203     		lsls	r2, r2, #12
 233 0054 0A43     		orrs	r2, r1
 234 0056 FB01     		lsls	r3, r7, #7
 235 0058 1343     		orrs	r3, r2
 120:..\..\common\lib\lib_RTC/RTC_WDT.c ****     time |= ((ms / 10u)-(ms/100u)*10u) << RTC_10_MILISECONDS_SHIFT;
 236              		.loc 1 120 0
 237 005a 0190     		str	r0, [sp, #4]
 238              		.loc 1 124 0
 239 005c 0693     		str	r3, [sp, #24]
 240 005e 0703     		lsls	r7, r0, #12
 241 0060 2900     		movs	r1, r5
 242 0062 3000     		movs	r0, r6
 243 0064 0A22     		movs	r2, #10
 244 0066 0023     		movs	r3, #0
 245 0068 FFF7FEFF 		bl	__aeabi_uldivmod
 246              	.LVL20:
ARM GAS  C:\Users\Petro\AppData\Local\Temp\ccLgbaiA.s 			page 20


 247 006c 1743     		orrs	r7, r2
 248 006e 069A     		ldr	r2, [sp, #24]
 249 0070 3000     		movs	r0, r6
 250 0072 1A43     		orrs	r2, r3
 251 0074 0692     		str	r2, [sp, #24]
 252 0076 0023     		movs	r3, #0
 253 0078 0A22     		movs	r2, #10
 254 007a 2900     		movs	r1, r5
 255 007c 0797     		str	r7, [sp, #28]
 256 007e FFF7FEFF 		bl	__aeabi_uldivmod
 257              	.LVL21:
 258 0082 0A22     		movs	r2, #10
 259 0084 0600     		movs	r6, r0
 260              	.LVL22:
 261 0086 0F00     		movs	r7, r1
 262 0088 0023     		movs	r3, #0
 263 008a 0198     		ldr	r0, [sp, #4]
 264 008c 0599     		ldr	r1, [sp, #20]
 265 008e FFF7FEFF 		bl	__aeabi_lmul
 266              	.LVL23:
 267 0092 361A     		subs	r6, r6, r0
 268 0094 8F41     		sbcs	r7, r7, r1
 269 0096 330E     		lsrs	r3, r6, #24
 270 0098 3F02     		lsls	r7, r7, #8
 271 009a 1F43     		orrs	r7, r3
 272 009c 079B     		ldr	r3, [sp, #28]
 273 009e 3602     		lsls	r6, r6, #8
 274 00a0 1E43     		orrs	r6, r3
 275 00a2 069B     		ldr	r3, [sp, #24]
 276 00a4 0A22     		movs	r2, #10
 277 00a6 1F43     		orrs	r7, r3
 278 00a8 0298     		ldr	r0, [sp, #8]
 279 00aa 0023     		movs	r3, #0
 280 00ac 2900     		movs	r1, r5
 281 00ae FFF7FEFF 		bl	__aeabi_uldivmod
 282              	.LVL24:
 283 00b2 6402     		lsls	r4, r4, #9
 284              	.LVL25:
 285 00b4 E40F     		lsrs	r4, r4, #31
 286 00b6 A401     		lsls	r4, r4, #6
 287 00b8 2743     		orrs	r7, r4
 288 00ba 0001     		lsls	r0, r0, #4
 289 00bc 0743     		orrs	r7, r0
 290 00be 2900     		movs	r1, r5
 291 00c0 0298     		ldr	r0, [sp, #8]
 292 00c2 0A22     		movs	r2, #10
 293 00c4 0023     		movs	r3, #0
 294 00c6 FFF7FEFF 		bl	__aeabi_uldivmod
 295              	.LVL26:
 296 00ca 0023     		movs	r3, #0
 297 00cc 1743     		orrs	r7, r2
 298 00ce 0398     		ldr	r0, [sp, #12]
 299 00d0 0A22     		movs	r2, #10
 300 00d2 2900     		movs	r1, r5
 301 00d4 FFF7FEFF 		bl	__aeabi_uldivmod
 302              	.LVL27:
 303 00d8 0309     		lsrs	r3, r0, #4
ARM GAS  C:\Users\Petro\AppData\Local\Temp\ccLgbaiA.s 			page 21


 304 00da 0907     		lsls	r1, r1, #28
 305 00dc 1943     		orrs	r1, r3
 306 00de 0007     		lsls	r0, r0, #28
 307 00e0 0643     		orrs	r6, r0
 308 00e2 0F43     		orrs	r7, r1
 309 00e4 0398     		ldr	r0, [sp, #12]
 310 00e6 2900     		movs	r1, r5
 311 00e8 0A22     		movs	r2, #10
 312 00ea 0023     		movs	r3, #0
 313 00ec FFF7FEFF 		bl	__aeabi_uldivmod
 314              	.LVL28:
 315 00f0 110A     		lsrs	r1, r2, #8
 316 00f2 1B06     		lsls	r3, r3, #24
 317 00f4 0B43     		orrs	r3, r1
 318 00f6 1206     		lsls	r2, r2, #24
 319 00f8 1643     		orrs	r6, r2
 320 00fa 1F43     		orrs	r7, r3
 321 00fc 0A22     		movs	r2, #10
 322 00fe 0023     		movs	r3, #0
 323 0100 0498     		ldr	r0, [sp, #16]
 324 0102 2900     		movs	r1, r5
 325 0104 FFF7FEFF 		bl	__aeabi_uldivmod
 326              	.LVL29:
 327 0108 030B     		lsrs	r3, r0, #12
 328 010a 0905     		lsls	r1, r1, #20
 329 010c 1943     		orrs	r1, r3
 330 010e 0005     		lsls	r0, r0, #20
 331 0110 0643     		orrs	r6, r0
 332 0112 0F43     		orrs	r7, r1
 333 0114 0498     		ldr	r0, [sp, #16]
 334 0116 2900     		movs	r1, r5
 335 0118 0A22     		movs	r2, #10
 336 011a 0023     		movs	r3, #0
 337 011c FFF7FEFF 		bl	__aeabi_uldivmod
 338              	.LVL30:
 339 0120 100C     		lsrs	r0, r2, #16
 340 0122 1904     		lsls	r1, r3, #16
 341 0124 0143     		orrs	r1, r0
 342 0126 3000     		movs	r0, r6
 343 0128 1204     		lsls	r2, r2, #16
 344 012a 1043     		orrs	r0, r2
 345 012c 3943     		orrs	r1, r7
 125:..\..\common\lib\lib_RTC/RTC_WDT.c **** }
 346              		.loc 1 125 0
 347 012e 09B0     		add	sp, sp, #36
 348              		@ sp needed
 349              	.LVL31:
 350 0130 F0BD     		pop	{r4, r5, r6, r7, pc}
 351              	.L12:
 352 0132 C046     		.align	2
 353              	.L11:
 354 0134 00000000 		.word	.LANCHOR0
 355              		.cfi_endproc
 356              	.LFE64:
 357              		.size	RTCgetTime, .-RTCgetTime
 358              		.section	.text.RTCGetUnixTime,"ax",%progbits
 359              		.align	1
ARM GAS  C:\Users\Petro\AppData\Local\Temp\ccLgbaiA.s 			page 22


 360              		.global	RTCGetUnixTime
 361              		.code	16
 362              		.thumb_func
 363              		.type	RTCGetUnixTime, %function
 364              	RTCGetUnixTime:
 365              	.LFB65:
 126:..\..\common\lib\lib_RTC/RTC_WDT.c **** 
 127:..\..\common\lib\lib_RTC/RTC_WDT.c **** /*******************************************************************************
 128:..\..\common\lib\lib_RTC/RTC_WDT.c **** * Function Name: RTCgetHours
 129:..\..\common\lib\lib_RTC/RTC_WDT.c **** ****************************************************************************//**
 130:..\..\common\lib\lib_RTC/RTC_WDT.c **** *
 131:..\..\common\lib\lib_RTC/RTC_WDT.c **** * \brief
 132:..\..\common\lib\lib_RTC/RTC_WDT.c **** *  Returns the hours value 
 133:..\..\common\lib\lib_RTC/RTC_WDT.c **** *
 134:..\..\common\lib\lib_RTC/RTC_WDT.c **** * \return
 135:..\..\common\lib\lib_RTC/RTC_WDT.c **** *  The hours value.
 136:..\..\common\lib\lib_RTC/RTC_WDT.c **** *
 137:..\..\common\lib\lib_RTC/RTC_WDT.c **** *******************************************************************************/
 138:..\..\common\lib\lib_RTC/RTC_WDT.c **** 
 139:..\..\common\lib\lib_RTC/RTC_WDT.c **** uint64_t RTCGetUnixTime(void)
 140:..\..\common\lib\lib_RTC/RTC_WDT.c **** {
 366              		.loc 1 140 0
 367              		.cfi_startproc
 368              		@ args = 0, pretend = 0, frame = 0
 369              		@ frame_needed = 0, uses_anonymous_args = 0
 370 0000 10B5     		push	{r4, lr}
 371              		.cfi_def_cfa_offset 8
 372              		.cfi_offset 4, -8
 373              		.cfi_offset 14, -4
 141:..\..\common\lib\lib_RTC/RTC_WDT.c ****     return RTC_GetUnixTime();
 374              		.loc 1 141 0
 375 0002 FFF7FEFF 		bl	RTC_GetUnixTime
 376              	.LVL32:
 142:..\..\common\lib\lib_RTC/RTC_WDT.c **** }
 377              		.loc 1 142 0
 378              		@ sp needed
 379 0006 10BD     		pop	{r4, pc}
 380              		.cfi_endproc
 381              	.LFE65:
 382              		.size	RTCGetUnixTime, .-RTCGetUnixTime
 383              		.section	.text.RTCgetHours,"ax",%progbits
 384              		.align	1
 385              		.global	RTCgetHours
 386              		.code	16
 387              		.thumb_func
 388              		.type	RTCgetHours, %function
 389              	RTCgetHours:
 390              	.LFB66:
 143:..\..\common\lib\lib_RTC/RTC_WDT.c **** 
 144:..\..\common\lib\lib_RTC/RTC_WDT.c **** 
 145:..\..\common\lib\lib_RTC/RTC_WDT.c **** uint32_t RTCgetHours(uint64_t readTime)
 146:..\..\common\lib\lib_RTC/RTC_WDT.c **** {
 391              		.loc 1 146 0
 392              		.cfi_startproc
 393              		@ args = 0, pretend = 0, frame = 0
 394              		@ frame_needed = 0, uses_anonymous_args = 0
 395              	.LVL33:
ARM GAS  C:\Users\Petro\AppData\Local\Temp\ccLgbaiA.s 			page 23


 396 0000 70B5     		push	{r4, r5, r6, lr}
 397              		.cfi_def_cfa_offset 16
 398              		.cfi_offset 4, -16
 399              		.cfi_offset 5, -12
 400              		.cfi_offset 6, -8
 401              		.cfi_offset 14, -4
 147:..\..\common\lib\lib_RTC/RTC_WDT.c ****     uint64_t retVal;
 148:..\..\common\lib\lib_RTC/RTC_WDT.c ****     
 149:..\..\common\lib\lib_RTC/RTC_WDT.c ****     retVal  = ((readTime & RTC_MASK_10_HOURS) >> RTC_10_HOURS_SHIFT) * 10u;
 402              		.loc 1 149 0
 403 0002 0025     		movs	r5, #0
 150:..\..\common\lib\lib_RTC/RTC_WDT.c ****     retVal += (readTime & RTC_MASK_HOURS) >> RTC_HOURS_SHIFT;
 151:..\..\common\lib\lib_RTC/RTC_WDT.c ****     
 152:..\..\common\lib\lib_RTC/RTC_WDT.c ****     return (int)(retVal);
 404              		.loc 1 152 0
 405 0004 0F26     		movs	r6, #15
 146:..\..\common\lib\lib_RTC/RTC_WDT.c ****     uint64_t retVal;
 406              		.loc 1 146 0
 407 0006 0C00     		movs	r4, r1
 149:..\..\common\lib\lib_RTC/RTC_WDT.c ****     retVal += (readTime & RTC_MASK_HOURS) >> RTC_HOURS_SHIFT;
 408              		.loc 1 149 0
 409 0008 8806     		lsls	r0, r1, #26
 410              	.LVL34:
 411              		.loc 1 152 0
 412 000a 3440     		ands	r4, r6
 149:..\..\common\lib\lib_RTC/RTC_WDT.c ****     retVal += (readTime & RTC_MASK_HOURS) >> RTC_HOURS_SHIFT;
 413              		.loc 1 149 0
 414 000c 2900     		movs	r1, r5
 415 000e 0A22     		movs	r2, #10
 416 0010 0023     		movs	r3, #0
 417 0012 800F     		lsrs	r0, r0, #30
 418 0014 FFF7FEFF 		bl	__aeabi_lmul
 419              	.LVL35:
 420              		.loc 1 152 0
 421 0018 2B00     		movs	r3, r5
 422 001a 2200     		movs	r2, r4
 153:..\..\common\lib\lib_RTC/RTC_WDT.c **** }
 423              		.loc 1 153 0
 424              		@ sp needed
 152:..\..\common\lib\lib_RTC/RTC_WDT.c **** }
 425              		.loc 1 152 0
 426 001c 8018     		adds	r0, r0, r2
 427 001e 5941     		adcs	r1, r1, r3
 428              		.loc 1 153 0
 429 0020 70BD     		pop	{r4, r5, r6, pc}
 430              		.cfi_endproc
 431              	.LFE66:
 432              		.size	RTCgetHours, .-RTCgetHours
 433              		.section	.text.RTCgetMinutes,"ax",%progbits
 434              		.align	1
 435              		.global	RTCgetMinutes
 436              		.code	16
 437              		.thumb_func
 438              		.type	RTCgetMinutes, %function
 439              	RTCgetMinutes:
 440              	.LFB67:
 154:..\..\common\lib\lib_RTC/RTC_WDT.c **** 
ARM GAS  C:\Users\Petro\AppData\Local\Temp\ccLgbaiA.s 			page 24


 155:..\..\common\lib\lib_RTC/RTC_WDT.c **** /*******************************************************************************
 156:..\..\common\lib\lib_RTC/RTC_WDT.c **** * Function Name: RTCgetMinutes
 157:..\..\common\lib\lib_RTC/RTC_WDT.c **** ****************************************************************************//**
 158:..\..\common\lib\lib_RTC/RTC_WDT.c **** *
 159:..\..\common\lib\lib_RTC/RTC_WDT.c **** * \brief
 160:..\..\common\lib\lib_RTC/RTC_WDT.c **** *  Returns the minutes value 
 161:..\..\common\lib\lib_RTC/RTC_WDT.c **** *
 162:..\..\common\lib\lib_RTC/RTC_WDT.c **** * \return
 163:..\..\common\lib\lib_RTC/RTC_WDT.c **** *  The minutes value.
 164:..\..\common\lib\lib_RTC/RTC_WDT.c **** *
 165:..\..\common\lib\lib_RTC/RTC_WDT.c **** *******************************************************************************/
 166:..\..\common\lib\lib_RTC/RTC_WDT.c **** uint32_t RTCgetMinutes(uint64_t readTime)
 167:..\..\common\lib\lib_RTC/RTC_WDT.c **** {
 441              		.loc 1 167 0
 442              		.cfi_startproc
 443              		@ args = 0, pretend = 0, frame = 0
 444              		@ frame_needed = 0, uses_anonymous_args = 0
 445              	.LVL36:
 446 0000 70B5     		push	{r4, r5, r6, lr}
 447              		.cfi_def_cfa_offset 16
 448              		.cfi_offset 4, -16
 449              		.cfi_offset 5, -12
 450              		.cfi_offset 6, -8
 451              		.cfi_offset 14, -4
 168:..\..\common\lib\lib_RTC/RTC_WDT.c ****     uint64 retVal;
 169:..\..\common\lib\lib_RTC/RTC_WDT.c **** 
 170:..\..\common\lib\lib_RTC/RTC_WDT.c ****     retVal  = ((readTime & RTC_MASK_10_MINUTES) >> RTC_10_MINUTES_SHIFT) * 10u;
 452              		.loc 1 170 0
 453 0002 0025     		movs	r5, #0
 167:..\..\common\lib\lib_RTC/RTC_WDT.c ****     uint64 retVal;
 454              		.loc 1 167 0
 455 0004 0400     		movs	r4, r0
 456              		.loc 1 170 0
 457 0006 4000     		lsls	r0, r0, #1
 458              	.LVL37:
 459 0008 2900     		movs	r1, r5
 460 000a 0A22     		movs	r2, #10
 461 000c 0023     		movs	r3, #0
 462 000e 400F     		lsrs	r0, r0, #29
 463 0010 FFF7FEFF 		bl	__aeabi_lmul
 464              	.LVL38:
 171:..\..\common\lib\lib_RTC/RTC_WDT.c ****     retVal += (readTime & RTC_MASK_MINUTES) >> RTC_MINUTES_SHIFT;
 172:..\..\common\lib\lib_RTC/RTC_WDT.c **** 
 173:..\..\common\lib\lib_RTC/RTC_WDT.c ****     return (int)(retVal);
 465              		.loc 1 173 0
 466 0014 2B00     		movs	r3, r5
 467 0016 2401     		lsls	r4, r4, #4
 468 0018 220F     		lsrs	r2, r4, #28
 469 001a 8018     		adds	r0, r0, r2
 470 001c 5941     		adcs	r1, r1, r3
 174:..\..\common\lib\lib_RTC/RTC_WDT.c **** }
 471              		.loc 1 174 0
 472              		@ sp needed
 473 001e 70BD     		pop	{r4, r5, r6, pc}
 474              		.cfi_endproc
 475              	.LFE67:
 476              		.size	RTCgetMinutes, .-RTCgetMinutes
ARM GAS  C:\Users\Petro\AppData\Local\Temp\ccLgbaiA.s 			page 25


 477              		.section	.text.RTCgetSecond,"ax",%progbits
 478              		.align	1
 479              		.global	RTCgetSecond
 480              		.code	16
 481              		.thumb_func
 482              		.type	RTCgetSecond, %function
 483              	RTCgetSecond:
 484              	.LFB68:
 175:..\..\common\lib\lib_RTC/RTC_WDT.c **** 
 176:..\..\common\lib\lib_RTC/RTC_WDT.c **** /*******************************************************************************
 177:..\..\common\lib\lib_RTC/RTC_WDT.c **** * Function Name: RTCgetSecond
 178:..\..\common\lib\lib_RTC/RTC_WDT.c **** ****************************************************************************//**
 179:..\..\common\lib\lib_RTC/RTC_WDT.c **** *
 180:..\..\common\lib\lib_RTC/RTC_WDT.c **** * \brief
 181:..\..\common\lib\lib_RTC/RTC_WDT.c **** *  Returns the seconds value 
 182:..\..\common\lib\lib_RTC/RTC_WDT.c **** *
 183:..\..\common\lib\lib_RTC/RTC_WDT.c **** * \return
 184:..\..\common\lib\lib_RTC/RTC_WDT.c **** *  The seconds value.
 185:..\..\common\lib\lib_RTC/RTC_WDT.c **** *
 186:..\..\common\lib\lib_RTC/RTC_WDT.c **** *******************************************************************************/
 187:..\..\common\lib\lib_RTC/RTC_WDT.c **** uint32_t RTCgetSecond(uint64_t readTime)
 188:..\..\common\lib\lib_RTC/RTC_WDT.c **** {
 485              		.loc 1 188 0
 486              		.cfi_startproc
 487              		@ args = 0, pretend = 0, frame = 0
 488              		@ frame_needed = 0, uses_anonymous_args = 0
 489              		@ link register save eliminated.
 490              	.LVL39:
 189:..\..\common\lib\lib_RTC/RTC_WDT.c ****     uint32 retVal;
 190:..\..\common\lib\lib_RTC/RTC_WDT.c **** 
 191:..\..\common\lib\lib_RTC/RTC_WDT.c ****     retVal  = ((readTime & RTC_MASK_10_SECONDS) >> RTC_10_SECONDS_SHIFT) * 10u;
 491              		.loc 1 191 0
 492 0000 0A22     		movs	r2, #10
 493 0002 4302     		lsls	r3, r0, #9
 494 0004 5B0F     		lsrs	r3, r3, #29
 495 0006 5343     		muls	r3, r2
 496              	.LVL40:
 192:..\..\common\lib\lib_RTC/RTC_WDT.c ****     retVal += (readTime & RTC_MASK_SECONDS) >> RTC_SECONDS_SHIFT;
 193:..\..\common\lib\lib_RTC/RTC_WDT.c **** 
 194:..\..\common\lib\lib_RTC/RTC_WDT.c ****     return (int)(retVal);
 497              		.loc 1 194 0
 498 0008 0003     		lsls	r0, r0, #12
 499              	.LVL41:
 500 000a 000F     		lsrs	r0, r0, #28
 501 000c C018     		adds	r0, r0, r3
 195:..\..\common\lib\lib_RTC/RTC_WDT.c **** }
 502              		.loc 1 195 0
 503              		@ sp needed
 504 000e 7047     		bx	lr
 505              		.cfi_endproc
 506              	.LFE68:
 507              		.size	RTCgetSecond, .-RTCgetSecond
 508              		.section	.text.RTCgetMiliecond,"ax",%progbits
 509              		.align	1
 510              		.global	RTCgetMiliecond
 511              		.code	16
 512              		.thumb_func
ARM GAS  C:\Users\Petro\AppData\Local\Temp\ccLgbaiA.s 			page 26


 513              		.type	RTCgetMiliecond, %function
 514              	RTCgetMiliecond:
 515              	.LFB69:
 196:..\..\common\lib\lib_RTC/RTC_WDT.c **** 
 197:..\..\common\lib\lib_RTC/RTC_WDT.c **** /*******************************************************************************
 198:..\..\common\lib\lib_RTC/RTC_WDT.c **** * Function Name: RTCgetMilisecond
 199:..\..\common\lib\lib_RTC/RTC_WDT.c **** ****************************************************************************//**
 200:..\..\common\lib\lib_RTC/RTC_WDT.c **** *
 201:..\..\common\lib\lib_RTC/RTC_WDT.c **** * \brief
 202:..\..\common\lib\lib_RTC/RTC_WDT.c **** *  Returns the miliseconds value 
 203:..\..\common\lib\lib_RTC/RTC_WDT.c **** *
 204:..\..\common\lib\lib_RTC/RTC_WDT.c **** * \return
 205:..\..\common\lib\lib_RTC/RTC_WDT.c **** *  The miliseconds value.
 206:..\..\common\lib\lib_RTC/RTC_WDT.c **** *
 207:..\..\common\lib\lib_RTC/RTC_WDT.c **** *******************************************************************************/
 208:..\..\common\lib\lib_RTC/RTC_WDT.c **** uint32_t RTCgetMiliecond(uint64_t readTime)
 209:..\..\common\lib\lib_RTC/RTC_WDT.c **** {
 516              		.loc 1 209 0
 517              		.cfi_startproc
 518              		@ args = 0, pretend = 0, frame = 0
 519              		@ frame_needed = 0, uses_anonymous_args = 0
 520              	.LVL42:
 521 0000 30B5     		push	{r4, r5, lr}
 522              		.cfi_def_cfa_offset 12
 523              		.cfi_offset 4, -12
 524              		.cfi_offset 5, -8
 525              		.cfi_offset 14, -4
 210:..\..\common\lib\lib_RTC/RTC_WDT.c ****     uint32 retVal;
 211:..\..\common\lib\lib_RTC/RTC_WDT.c **** 
 212:..\..\common\lib\lib_RTC/RTC_WDT.c ****     retVal  = ((readTime & RTC_MASK_100_MILISECONDS) >> RTC_100_MILISECONDS_SHIFT) * 100u;
 526              		.loc 1 212 0
 527 0002 6424     		movs	r4, #100
 528 0004 0F25     		movs	r5, #15
 529 0006 0A05     		lsls	r2, r1, #20
 530 0008 030B     		lsrs	r3, r0, #12
 531 000a 1343     		orrs	r3, r2
 532 000c 2200     		movs	r2, r4
 533 000e 2B40     		ands	r3, r5
 534 0010 5A43     		muls	r2, r3
 535              	.LVL43:
 213:..\..\common\lib\lib_RTC/RTC_WDT.c ****     retVal  += ((readTime & RTC_MASK_10_MILISECONDS) >> RTC_10_MILISECONDS_SHIFT) * 10u;
 536              		.loc 1 213 0
 537 0012 0906     		lsls	r1, r1, #24
 538 0014 030A     		lsrs	r3, r0, #8
 539 0016 0B43     		orrs	r3, r1
 540 0018 0A21     		movs	r1, #10
 541 001a 2B40     		ands	r3, r5
 542 001c 4B43     		muls	r3, r1
 214:..\..\common\lib\lib_RTC/RTC_WDT.c ****     retVal += (readTime & RTC_MASK_MILISECONDS) >> RTC_MILISECONDS_SHIFT;
 215:..\..\common\lib\lib_RTC/RTC_WDT.c **** 
 216:..\..\common\lib\lib_RTC/RTC_WDT.c ****     return (int)(retVal);
 543              		.loc 1 216 0
 544 001e 2840     		ands	r0, r5
 545              	.LVL44:
 213:..\..\common\lib\lib_RTC/RTC_WDT.c ****     retVal  += ((readTime & RTC_MASK_10_MILISECONDS) >> RTC_10_MILISECONDS_SHIFT) * 10u;
 546              		.loc 1 213 0
 547 0020 9B18     		adds	r3, r3, r2
ARM GAS  C:\Users\Petro\AppData\Local\Temp\ccLgbaiA.s 			page 27


 548              	.LVL45:
 549              		.loc 1 216 0
 550 0022 C018     		adds	r0, r0, r3
 217:..\..\common\lib\lib_RTC/RTC_WDT.c **** }
 551              		.loc 1 217 0
 552              		@ sp needed
 553 0024 30BD     		pop	{r4, r5, pc}
 554              		.cfi_endproc
 555              	.LFE69:
 556              		.size	RTCgetMiliecond, .-RTCgetMiliecond
 557              		.section	.text.RTCgetRecentMs,"ax",%progbits
 558              		.align	1
 559              		.global	RTCgetRecentMs
 560              		.code	16
 561              		.thumb_func
 562              		.type	RTCgetRecentMs, %function
 563              	RTCgetRecentMs:
 564              	.LFB70:
 218:..\..\common\lib\lib_RTC/RTC_WDT.c **** 
 219:..\..\common\lib\lib_RTC/RTC_WDT.c **** /*******************************************************************************
 220:..\..\common\lib\lib_RTC/RTC_WDT.c **** * Function Name: RTCgetRecentMs
 221:..\..\common\lib\lib_RTC/RTC_WDT.c **** ****************************************************************************//**
 222:..\..\common\lib\lib_RTC/RTC_WDT.c **** *
 223:..\..\common\lib\lib_RTC/RTC_WDT.c **** * \brief
 224:..\..\common\lib\lib_RTC/RTC_WDT.c **** *  reads the actual value of the millisecond timer
 225:..\..\common\lib\lib_RTC/RTC_WDT.c **** *
 226:..\..\common\lib\lib_RTC/RTC_WDT.c **** * \return
 227:..\..\common\lib\lib_RTC/RTC_WDT.c **** *  The miliseconds value.
 228:..\..\common\lib\lib_RTC/RTC_WDT.c **** *
 229:..\..\common\lib\lib_RTC/RTC_WDT.c **** *******************************************************************************/
 230:..\..\common\lib\lib_RTC/RTC_WDT.c **** uint32_t RTCgetRecentMs()
 231:..\..\common\lib\lib_RTC/RTC_WDT.c **** {    
 565              		.loc 1 231 0
 566              		.cfi_startproc
 567              		@ args = 0, pretend = 0, frame = 0
 568              		@ frame_needed = 0, uses_anonymous_args = 0
 569              		@ link register save eliminated.
 232:..\..\common\lib\lib_RTC/RTC_WDT.c ****     return msRTC;
 570              		.loc 1 232 0
 571 0000 014B     		ldr	r3, .L19
 233:..\..\common\lib\lib_RTC/RTC_WDT.c **** }
 572              		.loc 1 233 0
 573              		@ sp needed
 232:..\..\common\lib\lib_RTC/RTC_WDT.c ****     return msRTC;
 574              		.loc 1 232 0
 575 0002 1888     		ldrh	r0, [r3]
 576              		.loc 1 233 0
 577 0004 7047     		bx	lr
 578              	.L20:
 579 0006 C046     		.align	2
 580              	.L19:
 581 0008 00000000 		.word	.LANCHOR0
 582              		.cfi_endproc
 583              	.LFE70:
 584              		.size	RTCgetRecentMs, .-RTCgetRecentMs
 585              		.section	.text.RTCSync,"ax",%progbits
 586              		.align	1
ARM GAS  C:\Users\Petro\AppData\Local\Temp\ccLgbaiA.s 			page 28


 587              		.global	RTCSync
 588              		.code	16
 589              		.thumb_func
 590              		.type	RTCSync, %function
 591              	RTCSync:
 592              	.LFB71:
 234:..\..\common\lib\lib_RTC/RTC_WDT.c **** 
 235:..\..\common\lib\lib_RTC/RTC_WDT.c **** /*******************************************************************************
 236:..\..\common\lib\lib_RTC/RTC_WDT.c **** * Function Name: RTS_Sync
 237:..\..\common\lib\lib_RTC/RTC_WDT.c **** ********************************************************************************
 238:..\..\common\lib\lib_RTC/RTC_WDT.c **** *
 239:..\..\common\lib\lib_RTC/RTC_WDT.c **** * * synchronize time with an external RTC
 240:..\..\common\lib\lib_RTC/RTC_WDT.c **** *
 241:..\..\common\lib\lib_RTC/RTC_WDT.c **** * Return:
 242:..\..\common\lib\lib_RTC/RTC_WDT.c **** *  true(successful sync) or false(not successful sync))
 243:..\..\common\lib\lib_RTC/RTC_WDT.c **** *******************************************************************************/
 244:..\..\common\lib\lib_RTC/RTC_WDT.c **** 
 245:..\..\common\lib\lib_RTC/RTC_WDT.c **** void RTCSync(uint32_t unixTime, uint16_t recentMs)
 246:..\..\common\lib\lib_RTC/RTC_WDT.c **** {
 593              		.loc 1 246 0
 594              		.cfi_startproc
 595              		@ args = 0, pretend = 0, frame = 0
 596              		@ frame_needed = 0, uses_anonymous_args = 0
 597              	.LVL46:
 598 0000 10B5     		push	{r4, lr}
 599              		.cfi_def_cfa_offset 8
 600              		.cfi_offset 4, -8
 601              		.cfi_offset 14, -4
 247:..\..\common\lib\lib_RTC/RTC_WDT.c ****     msRTC = recentMs;
 602              		.loc 1 247 0
 603 0002 034B     		ldr	r3, .L22
 248:..\..\common\lib\lib_RTC/RTC_WDT.c ****     RTC_SetUnixTime(unixTime);
 249:..\..\common\lib\lib_RTC/RTC_WDT.c **** }
 604              		.loc 1 249 0
 605              		@ sp needed
 247:..\..\common\lib\lib_RTC/RTC_WDT.c ****     msRTC = recentMs;
 606              		.loc 1 247 0
 607 0004 1980     		strh	r1, [r3]
 248:..\..\common\lib\lib_RTC/RTC_WDT.c ****     RTC_SetUnixTime(unixTime);
 608              		.loc 1 248 0
 609 0006 0021     		movs	r1, #0
 610              	.LVL47:
 611 0008 FFF7FEFF 		bl	RTC_SetUnixTime
 612              	.LVL48:
 613              		.loc 1 249 0
 614 000c 10BD     		pop	{r4, pc}
 615              	.L23:
 616 000e C046     		.align	2
 617              	.L22:
 618 0010 00000000 		.word	.LANCHOR0
 619              		.cfi_endproc
 620              	.LFE71:
 621              		.size	RTCSync, .-RTCSync
 622              		.comm	currentState,1,1
 623              		.bss
 624              		.align	1
 625              		.set	.LANCHOR0,. + 0
ARM GAS  C:\Users\Petro\AppData\Local\Temp\ccLgbaiA.s 			page 29


 626              		.type	msRTC, %object
 627              		.size	msRTC, 2
 628              	msRTC:
 629 0000 0000     		.space	2
 630              		.text
 631              	.Letext0:
 632              		.file 3 "c:\\program files (x86)\\cypress\\psoc creator\\4.1\\psoc creator\\import\\gnu\\arm\\5.4.
 633              		.file 4 "c:\\program files (x86)\\cypress\\psoc creator\\4.1\\psoc creator\\import\\gnu\\arm\\5.4.
 634              		.file 5 "Generated_Source\\PSoC4/cytypes.h"
 635              		.file 6 "Generated_Source\\PSoC4/ble_Stack.h"
 636              		.file 7 "./appGlobal.h"
 637              		.file 8 "Generated_Source\\PSoC4/debug.h"
 638              		.file 9 "Generated_Source\\PSoC4/CyLFClk.h"