ARM GAS  C:\Users\Petro\AppData\Local\Temp\ccIOBOOq.s 			page 1


   1              		.syntax unified
   2              		.cpu cortex-m0
   3              		.fpu softvfp
   4              		.eabi_attribute 20, 1
   5              		.eabi_attribute 21, 1
   6              		.eabi_attribute 23, 3
   7              		.eabi_attribute 24, 1
   8              		.eabi_attribute 25, 1
   9              		.eabi_attribute 26, 1
  10              		.eabi_attribute 30, 4
  11              		.eabi_attribute 34, 0
  12              		.eabi_attribute 18, 4
  13              		.thumb
  14              		.syntax unified
  15              		.file	"rtc_fat.c"
  16              		.text
  17              	.Ltext0:
  18              		.cfi_sections	.debug_frame
  19              		.section	.text.get_fattime,"ax",%progbits
  20              		.align	1
  21              		.global	get_fattime
  22              		.code	16
  23              		.thumb_func
  24              		.type	get_fattime, %function
  25              	get_fattime:
  26              	.LFB62:
  27              		.file 1 "..\\..\\common\\lib\\lib_Fat\\rtc_fat.c"
   1:..\..\common\lib\lib_Fat/rtc_fat.c **** /* ========================================
   2:..\..\common\lib\lib_Fat/rtc_fat.c ****  *
   3:..\..\common\lib\lib_Fat/rtc_fat.c ****  * Copyright YOUR COMPANY, THE YEAR
   4:..\..\common\lib\lib_Fat/rtc_fat.c ****  * All Rights Reserved
   5:..\..\common\lib\lib_Fat/rtc_fat.c ****  * UNPUBLISHED, LICENSED SOFTWARE.
   6:..\..\common\lib\lib_Fat/rtc_fat.c ****  *
   7:..\..\common\lib\lib_Fat/rtc_fat.c ****  * CONFIDENTIAL AND PROPRIETARY INFORMATION
   8:..\..\common\lib\lib_Fat/rtc_fat.c ****  * WHICH IS THE PROPERTY OF your company.
   9:..\..\common\lib\lib_Fat/rtc_fat.c ****  *
  10:..\..\common\lib\lib_Fat/rtc_fat.c ****  * ========================================
  11:..\..\common\lib\lib_Fat/rtc_fat.c **** */
  12:..\..\common\lib\lib_Fat/rtc_fat.c **** 
  13:..\..\common\lib\lib_Fat/rtc_fat.c **** #include <project.h>
  14:..\..\common\lib\lib_Fat/rtc_fat.c **** #include "rtc_fat.h"
  15:..\..\common\lib\lib_Fat/rtc_fat.c **** #include "diskio.h"
  16:..\..\common\lib\lib_Fat/rtc_fat.c **** #include "ff.h"
  17:..\..\common\lib\lib_Fat/rtc_fat.c **** 
  18:..\..\common\lib\lib_Fat/rtc_fat.c **** /*---------------------------------------------------------*/
  19:..\..\common\lib\lib_Fat/rtc_fat.c **** /* User Provided RTC Function for FatFs module             */
  20:..\..\common\lib\lib_Fat/rtc_fat.c **** /*---------------------------------------------------------*/
  21:..\..\common\lib\lib_Fat/rtc_fat.c **** /* This is a real time clock service to be called from     */
  22:..\..\common\lib\lib_Fat/rtc_fat.c **** /* FatFs module. Any valid time must be returned even if   */
  23:..\..\common\lib\lib_Fat/rtc_fat.c **** /* the system does not support an RTC.                     */
  24:..\..\common\lib\lib_Fat/rtc_fat.c **** /* This function is not required in read-only cfg.         */
  25:..\..\common\lib\lib_Fat/rtc_fat.c **** #include <RTC.h>
  26:..\..\common\lib\lib_Fat/rtc_fat.c **** 
  27:..\..\common\lib\lib_Fat/rtc_fat.c **** static uint32_t rtcYear = 2016;
  28:..\..\common\lib\lib_Fat/rtc_fat.c **** static uint32_t rtcMonth = 7;
  29:..\..\common\lib\lib_Fat/rtc_fat.c **** static uint32_t rtcDay = 31;
  30:..\..\common\lib\lib_Fat/rtc_fat.c **** static uint32_t rtcHour = 21;
ARM GAS  C:\Users\Petro\AppData\Local\Temp\ccIOBOOq.s 			page 2


  31:..\..\common\lib\lib_Fat/rtc_fat.c **** static uint32_t rtcMinutes = 15;
  32:..\..\common\lib\lib_Fat/rtc_fat.c **** static uint32_t rtcSeconds = 1;
  33:..\..\common\lib\lib_Fat/rtc_fat.c **** static uint32_t rtcTime;
  34:..\..\common\lib\lib_Fat/rtc_fat.c **** static uint32_t rtcDate;
  35:..\..\common\lib\lib_Fat/rtc_fat.c **** 
  36:..\..\common\lib\lib_Fat/rtc_fat.c **** 
  37:..\..\common\lib\lib_Fat/rtc_fat.c **** DWORD get_fattime()
  38:..\..\common\lib\lib_Fat/rtc_fat.c **** {
  28              		.loc 1 38 0
  29              		.cfi_startproc
  30              		@ args = 0, pretend = 0, frame = 8
  31              		@ frame_needed = 0, uses_anonymous_args = 0
  32 0000 F7B5     		push	{r0, r1, r2, r4, r5, r6, r7, lr}
  33              		.cfi_def_cfa_offset 32
  34              		.cfi_offset 0, -32
  35              		.cfi_offset 1, -28
  36              		.cfi_offset 2, -24
  37              		.cfi_offset 4, -20
  38              		.cfi_offset 5, -16
  39              		.cfi_offset 6, -12
  40              		.cfi_offset 7, -8
  41              		.cfi_offset 14, -4
  39:..\..\common\lib\lib_Fat/rtc_fat.c **** 	rtcTime = RTC_GetTime();
  42              		.loc 1 39 0
  43 0002 FFF7FEFF 		bl	RTC_GetTime
  44              	.LVL0:
  45 0006 304E     		ldr	r6, .L8
  46 0008 FA24     		movs	r4, #250
  47 000a 3060     		str	r0, [r6]
  40:..\..\common\lib\lib_Fat/rtc_fat.c ****     rtcDate = RTC_GetDate();
  48              		.loc 1 40 0
  49 000c FFF7FEFF 		bl	RTC_GetDate
  50              	.LVL1:
  51              	.LBB25:
  52              	.LBB26:
  53              		.file 2 "Generated_Source\\PSoC4/RTC.h"
   1:Generated_Source\PSoC4/RTC.h **** /***************************************************************************//**
   2:Generated_Source\PSoC4/RTC.h **** * \file Name: RTC.h
   3:Generated_Source\PSoC4/RTC.h **** * \version 1.20
   4:Generated_Source\PSoC4/RTC.h **** *
   5:Generated_Source\PSoC4/RTC.h **** *  This file provides constants and parameter values for the RTC_P4 Component.
   6:Generated_Source\PSoC4/RTC.h **** *
   7:Generated_Source\PSoC4/RTC.h **** ********************************************************************************
   8:Generated_Source\PSoC4/RTC.h **** * Copyright 2015-2017, Cypress Semiconductor Corporation.  All rights reserved.
   9:Generated_Source\PSoC4/RTC.h **** * You may use this file only in accordance with the license, terms, conditions,
  10:Generated_Source\PSoC4/RTC.h **** * disclaimers, and limitations in the end user license agreement accompanying
  11:Generated_Source\PSoC4/RTC.h **** * the software package with which this file was provided.
  12:Generated_Source\PSoC4/RTC.h **** *******************************************************************************/
  13:Generated_Source\PSoC4/RTC.h **** 
  14:Generated_Source\PSoC4/RTC.h **** #if !defined(CY_RTC_P4_RTC_H)
  15:Generated_Source\PSoC4/RTC.h **** #define CY_RTC_P4_RTC_H
  16:Generated_Source\PSoC4/RTC.h **** 
  17:Generated_Source\PSoC4/RTC.h **** #include <cytypes.h>
  18:Generated_Source\PSoC4/RTC.h **** #include <CyLib.h>
  19:Generated_Source\PSoC4/RTC.h **** 
  20:Generated_Source\PSoC4/RTC.h **** 
  21:Generated_Source\PSoC4/RTC.h **** /*******************************************************************************
ARM GAS  C:\Users\Petro\AppData\Local\Temp\ccIOBOOq.s 			page 3


  22:Generated_Source\PSoC4/RTC.h **** *    Data types definition
  23:Generated_Source\PSoC4/RTC.h **** *******************************************************************************/
  24:Generated_Source\PSoC4/RTC.h **** /**
  25:Generated_Source\PSoC4/RTC.h **** * \addtogroup group_enums
  26:Generated_Source\PSoC4/RTC.h **** * \{
  27:Generated_Source\PSoC4/RTC.h **** */
  28:Generated_Source\PSoC4/RTC.h **** /** Daylight saving Time format enumeration */
  29:Generated_Source\PSoC4/RTC.h **** typedef enum
  30:Generated_Source\PSoC4/RTC.h **** {
  31:Generated_Source\PSoC4/RTC.h ****     RTC_DST_DATE_RELATIVE = 0u,  /**< Relative DST format */
  32:Generated_Source\PSoC4/RTC.h ****     RTC_DST_DATE_FIXED = 1u      /**< Fixed DST format */
  33:Generated_Source\PSoC4/RTC.h **** }RTC_DST_DATETYPE_ENUM;
  34:Generated_Source\PSoC4/RTC.h **** /** \} group_enums */
  35:Generated_Source\PSoC4/RTC.h **** 
  36:Generated_Source\PSoC4/RTC.h **** /**
  37:Generated_Source\PSoC4/RTC.h **** * \addtogroup group_structures
  38:Generated_Source\PSoC4/RTC.h **** * \{
  39:Generated_Source\PSoC4/RTC.h **** */
  40:Generated_Source\PSoC4/RTC.h **** 
  41:Generated_Source\PSoC4/RTC.h **** /** RTC_DATE_TIME structure is the data structure that is used to 
  42:Generated_Source\PSoC4/RTC.h **** * save the current time and date (RTC_currentTimeDate), and Alarm time and date 
  43:Generated_Source\PSoC4/RTC.h **** *(RTC_alarmCfgTimeDate)
  44:Generated_Source\PSoC4/RTC.h **** *
  45:Generated_Source\PSoC4/RTC.h **** */
  46:Generated_Source\PSoC4/RTC.h **** typedef struct
  47:Generated_Source\PSoC4/RTC.h **** {
  48:Generated_Source\PSoC4/RTC.h ****     uint32 time;        /**< Time in the format used in API*/
  49:Generated_Source\PSoC4/RTC.h ****     uint32 date;        /**< Date in the format used in API*/
  50:Generated_Source\PSoC4/RTC.h ****     uint32 dayOfWeek;   /**< Day of the week, see \ref group_rtc_day_of_the_week */
  51:Generated_Source\PSoC4/RTC.h ****     uint32 status;      /**< RTC status, see \ref group_rtc_status */
  52:Generated_Source\PSoC4/RTC.h **** }RTC_DATE_TIME;
  53:Generated_Source\PSoC4/RTC.h **** 
  54:Generated_Source\PSoC4/RTC.h **** /*
  55:Generated_Source\PSoC4/RTC.h **** * RTC_DST_TIME structure is the data structure that is used to 
  56:Generated_Source\PSoC4/RTC.h **** * save time and date values for Daylight Savings Time Start and Stop 
  57:Generated_Source\PSoC4/RTC.h **** * (RTC_dstTimeDateStart and RTC_dstTimeDateStop)
  58:Generated_Source\PSoC4/RTC.h **** */
  59:Generated_Source\PSoC4/RTC.h **** typedef struct
  60:Generated_Source\PSoC4/RTC.h **** {
  61:Generated_Source\PSoC4/RTC.h ****     uint32 hour;          /**< Hour value */
  62:Generated_Source\PSoC4/RTC.h ****     uint32 dayOfWeek;     /**< Day of the week, see \ref group_rtc_day_of_the_week */
  63:Generated_Source\PSoC4/RTC.h ****     uint32 dayOfMonth;    /**< Day of the month */
  64:Generated_Source\PSoC4/RTC.h ****     uint32 weekOfMonth;   /**< Week of the month, see \ref group_rtc_dst_week_of_month */
  65:Generated_Source\PSoC4/RTC.h ****     uint32 month;         /**< Month value, see \ref group_rtc_month */
  66:Generated_Source\PSoC4/RTC.h ****     uint8  timeFormat;    /**< The DST operation mode, see \ref 
  67:Generated_Source\PSoC4/RTC.h ****                                RTC_DST_DATETYPE_ENUM */
  68:Generated_Source\PSoC4/RTC.h **** }RTC_DST_TIME;
  69:Generated_Source\PSoC4/RTC.h **** /** \} group_structures */
  70:Generated_Source\PSoC4/RTC.h **** 
  71:Generated_Source\PSoC4/RTC.h **** /*******************************************************************************
  72:Generated_Source\PSoC4/RTC.h **** *    Enumerated Types and Parameters
  73:Generated_Source\PSoC4/RTC.h **** *******************************************************************************/
  74:Generated_Source\PSoC4/RTC.h **** /* Time Format setting constants */
  75:Generated_Source\PSoC4/RTC.h **** #define RTC__HOUR_12 1
  76:Generated_Source\PSoC4/RTC.h **** #define RTC__HOUR_24 0
  77:Generated_Source\PSoC4/RTC.h **** 
  78:Generated_Source\PSoC4/RTC.h **** /*  Date Format setting constants */
ARM GAS  C:\Users\Petro\AppData\Local\Temp\ccIOBOOq.s 			page 4


  79:Generated_Source\PSoC4/RTC.h **** #define RTC__MM_DD_YYYY 0
  80:Generated_Source\PSoC4/RTC.h **** #define RTC__DD_MM_YYYY 1
  81:Generated_Source\PSoC4/RTC.h **** #define RTC__YYYY_MM_DD 2
  82:Generated_Source\PSoC4/RTC.h **** 
  83:Generated_Source\PSoC4/RTC.h **** /* Date Type setting constants */
  84:Generated_Source\PSoC4/RTC.h **** #define RTC__RELATIVE 0
  85:Generated_Source\PSoC4/RTC.h **** #define RTC__FIXED 1
  86:Generated_Source\PSoC4/RTC.h **** 
  87:Generated_Source\PSoC4/RTC.h **** /* DST Hour setting constants */
  88:Generated_Source\PSoC4/RTC.h **** #define RTC__H0000 0
  89:Generated_Source\PSoC4/RTC.h **** #define RTC__H0100 1
  90:Generated_Source\PSoC4/RTC.h **** #define RTC__H0200 2
  91:Generated_Source\PSoC4/RTC.h **** #define RTC__H0300 3
  92:Generated_Source\PSoC4/RTC.h **** #define RTC__H0400 4
  93:Generated_Source\PSoC4/RTC.h **** #define RTC__H0500 5
  94:Generated_Source\PSoC4/RTC.h **** #define RTC__H0600 6
  95:Generated_Source\PSoC4/RTC.h **** #define RTC__H0700 7
  96:Generated_Source\PSoC4/RTC.h **** #define RTC__H0800 8
  97:Generated_Source\PSoC4/RTC.h **** #define RTC__H0900 9
  98:Generated_Source\PSoC4/RTC.h **** #define RTC__H1000 10
  99:Generated_Source\PSoC4/RTC.h **** #define RTC__H1100 11
 100:Generated_Source\PSoC4/RTC.h **** #define RTC__H1200 12
 101:Generated_Source\PSoC4/RTC.h **** #define RTC__H1300 13
 102:Generated_Source\PSoC4/RTC.h **** #define RTC__H1400 14
 103:Generated_Source\PSoC4/RTC.h **** #define RTC__H1500 15
 104:Generated_Source\PSoC4/RTC.h **** #define RTC__H1600 16
 105:Generated_Source\PSoC4/RTC.h **** #define RTC__H1700 17
 106:Generated_Source\PSoC4/RTC.h **** #define RTC__H1800 18
 107:Generated_Source\PSoC4/RTC.h **** #define RTC__H1900 19
 108:Generated_Source\PSoC4/RTC.h **** #define RTC__H2000 20
 109:Generated_Source\PSoC4/RTC.h **** #define RTC__H2100 21
 110:Generated_Source\PSoC4/RTC.h **** #define RTC__H2200 22
 111:Generated_Source\PSoC4/RTC.h **** #define RTC__H2300 23
 112:Generated_Source\PSoC4/RTC.h **** 
 113:Generated_Source\PSoC4/RTC.h **** /* DST DayOfWeek setting constants */
 114:Generated_Source\PSoC4/RTC.h **** #define RTC__SUNDAY 1
 115:Generated_Source\PSoC4/RTC.h **** #define RTC__MONDAY 2
 116:Generated_Source\PSoC4/RTC.h **** #define RTC__TUESDAY 3
 117:Generated_Source\PSoC4/RTC.h **** #define RTC__WEDNESDAY 4
 118:Generated_Source\PSoC4/RTC.h **** #define RTC__THURSDAY 5
 119:Generated_Source\PSoC4/RTC.h **** #define RTC__FRIDAY 6
 120:Generated_Source\PSoC4/RTC.h **** #define RTC__SATURDAY 7
 121:Generated_Source\PSoC4/RTC.h **** 
 122:Generated_Source\PSoC4/RTC.h **** /* DST Month setting constants */
 123:Generated_Source\PSoC4/RTC.h **** #define RTC__JAN 1
 124:Generated_Source\PSoC4/RTC.h **** #define RTC__FEB 2
 125:Generated_Source\PSoC4/RTC.h **** #define RTC__MAR 3
 126:Generated_Source\PSoC4/RTC.h **** #define RTC__APR 4
 127:Generated_Source\PSoC4/RTC.h **** #define RTC__MAY 5
 128:Generated_Source\PSoC4/RTC.h **** #define RTC__JUN 6
 129:Generated_Source\PSoC4/RTC.h **** #define RTC__JUL 7
 130:Generated_Source\PSoC4/RTC.h **** #define RTC__AUG 8
 131:Generated_Source\PSoC4/RTC.h **** #define RTC__SEP 9
 132:Generated_Source\PSoC4/RTC.h **** #define RTC__OCT 10
 133:Generated_Source\PSoC4/RTC.h **** #define RTC__NOV 11
 134:Generated_Source\PSoC4/RTC.h **** #define RTC__DEC 12
 135:Generated_Source\PSoC4/RTC.h **** 
ARM GAS  C:\Users\Petro\AppData\Local\Temp\ccIOBOOq.s 			page 5


 136:Generated_Source\PSoC4/RTC.h **** /* DST WeekOfMonth setting constants */
 137:Generated_Source\PSoC4/RTC.h **** #define RTC__FIRST 1
 138:Generated_Source\PSoC4/RTC.h **** #define RTC__SECOND 2
 139:Generated_Source\PSoC4/RTC.h **** #define RTC__THIRD 3
 140:Generated_Source\PSoC4/RTC.h **** #define RTC__FOURTH 4
 141:Generated_Source\PSoC4/RTC.h **** #define RTC__FIFTH 5
 142:Generated_Source\PSoC4/RTC.h **** #define RTC__LAST 6
 143:Generated_Source\PSoC4/RTC.h **** 
 144:Generated_Source\PSoC4/RTC.h **** 
 145:Generated_Source\PSoC4/RTC.h **** #define RTC_INITIAL_DATA_FORMAT     (0u)
 146:Generated_Source\PSoC4/RTC.h **** #define RTC_INITIAL_TIME_FORMAT     (0u)
 147:Generated_Source\PSoC4/RTC.h **** #define RTC_INITIAL_UPDATE_MODE     (0u)
 148:Generated_Source\PSoC4/RTC.h **** #define RTC_INITIAL_SECOND          (0u)
 149:Generated_Source\PSoC4/RTC.h **** #define RTC_INITIAL_MINUTE          (16u)
 150:Generated_Source\PSoC4/RTC.h **** #define RTC_INITIAL_HOUR            (10u)
 151:Generated_Source\PSoC4/RTC.h **** #define RTC_INITIAL_DAY             (9u)
 152:Generated_Source\PSoC4/RTC.h **** #define RTC_INITIAL_MONTH           (8u)
 153:Generated_Source\PSoC4/RTC.h **** #define RTC_INITIAL_YEAR            (2016u)
 154:Generated_Source\PSoC4/RTC.h **** 
 155:Generated_Source\PSoC4/RTC.h **** #define RTC_INITIAL_ALARM_STATUS    (0u)
 156:Generated_Source\PSoC4/RTC.h **** 
 157:Generated_Source\PSoC4/RTC.h **** #define RTC_INITIAL_DST_STATUS      (0u)
 158:Generated_Source\PSoC4/RTC.h **** #define RTC_INITIAL_DST_DATE_TYPE   (0u)
 159:Generated_Source\PSoC4/RTC.h **** #define RTC_INITIAL_DST_START_MONTH (3uL)
 160:Generated_Source\PSoC4/RTC.h **** #define RTC_INITIAL_DST_START_WOM   (6uL)
 161:Generated_Source\PSoC4/RTC.h **** #define RTC_INITIAL_DST_START_DOM   (22uL)
 162:Generated_Source\PSoC4/RTC.h **** #define RTC_INITIAL_DST_START_DOW   (1uL)
 163:Generated_Source\PSoC4/RTC.h **** #define RTC_INITIAL_DST_START_HRS   (0uL)
 164:Generated_Source\PSoC4/RTC.h **** #define RTC_INITIAL_DST_STOP_MONTH  (10uL)
 165:Generated_Source\PSoC4/RTC.h **** #define RTC_INITIAL_DST_STOP_DOM    (22uL)
 166:Generated_Source\PSoC4/RTC.h **** #define RTC_INITIAL_DST_STOP_DOW    (1uL)
 167:Generated_Source\PSoC4/RTC.h **** #define RTC_INITIAL_DST_STOP_WOM    (6uL)
 168:Generated_Source\PSoC4/RTC.h **** #define RTC_INITIAL_DST_STOP_HRS    (0uL)
 169:Generated_Source\PSoC4/RTC.h **** 
 170:Generated_Source\PSoC4/RTC.h **** /**
 171:Generated_Source\PSoC4/RTC.h **** * \addtogroup group_constants
 172:Generated_Source\PSoC4/RTC.h **** * \{
 173:Generated_Source\PSoC4/RTC.h **** */
 174:Generated_Source\PSoC4/RTC.h **** 
 175:Generated_Source\PSoC4/RTC.h **** /**
 176:Generated_Source\PSoC4/RTC.h **** * \defgroup group_rtc_day_of_the_week Day of the week definitions
 177:Generated_Source\PSoC4/RTC.h **** * \{
 178:Generated_Source\PSoC4/RTC.h **** * Definitions of days in the week
 179:Generated_Source\PSoC4/RTC.h **** */
 180:Generated_Source\PSoC4/RTC.h **** #define RTC_SUNDAY     (RTC__SUNDAY)       /**< Sequential number of Sunday in the week */
 181:Generated_Source\PSoC4/RTC.h **** #define RTC_MONDAY     (RTC__MONDAY)       /**< Sequential number of Monday in the week */
 182:Generated_Source\PSoC4/RTC.h **** #define RTC_TUESDAY    (RTC__TUESDAY)      /**< Sequential number of Tuesday in the week */
 183:Generated_Source\PSoC4/RTC.h **** #define RTC_WEDNESDAY  (RTC__WEDNESDAY)    /**< Sequential number of Wednesday in the week */
 184:Generated_Source\PSoC4/RTC.h **** #define RTC_THURSDAY   (RTC__THURSDAY)     /**< Sequential number of Thursday in the week */
 185:Generated_Source\PSoC4/RTC.h **** #define RTC_FRIDAY     (RTC__FRIDAY)       /**< Sequential number of Friday in the week */
 186:Generated_Source\PSoC4/RTC.h **** #define RTC_SATURDAY   (RTC__SATURDAY)     /**< Sequential number of Saturday in the week */
 187:Generated_Source\PSoC4/RTC.h **** /** \} group_rtc_day_of_the_week */
 188:Generated_Source\PSoC4/RTC.h **** 
 189:Generated_Source\PSoC4/RTC.h **** /**
 190:Generated_Source\PSoC4/RTC.h **** * \defgroup group_rtc_dst_week_of_month DST Week of month setting constants definitions
 191:Generated_Source\PSoC4/RTC.h **** * \{
 192:Generated_Source\PSoC4/RTC.h **** * Week of month setting constants definitions for Daylight Saving Time feature
ARM GAS  C:\Users\Petro\AppData\Local\Temp\ccIOBOOq.s 			page 6


 193:Generated_Source\PSoC4/RTC.h **** */
 194:Generated_Source\PSoC4/RTC.h **** #define RTC_FIRST      (RTC__FIRST)   /**< First week in the month */
 195:Generated_Source\PSoC4/RTC.h **** #define RTC_SECOND     (RTC__SECOND)  /**< Second week in the month  */
 196:Generated_Source\PSoC4/RTC.h **** #define RTC_THIRD      (RTC__THIRD)   /**< Third week in the month  */
 197:Generated_Source\PSoC4/RTC.h **** #define RTC_FOURTH     (RTC__FOURTH)  /**< Fourth week in the month  */
 198:Generated_Source\PSoC4/RTC.h **** #define RTC_FIFTH      (RTC__FIFTH)   /**< Fifth week in the month  */
 199:Generated_Source\PSoC4/RTC.h **** #define RTC_LAST       (RTC__LAST)    /**< Last week in the month  */
 200:Generated_Source\PSoC4/RTC.h **** /** \} group_rtc_dst_week_of_month */
 201:Generated_Source\PSoC4/RTC.h **** 
 202:Generated_Source\PSoC4/RTC.h **** /**
 203:Generated_Source\PSoC4/RTC.h **** * \defgroup group_rtc_month Month definitions
 204:Generated_Source\PSoC4/RTC.h **** * \{
 205:Generated_Source\PSoC4/RTC.h **** * Constants definition for Months
 206:Generated_Source\PSoC4/RTC.h **** */
 207:Generated_Source\PSoC4/RTC.h **** #define RTC_JANUARY    (RTC__JAN)    /**< Sequential number of January in the year */
 208:Generated_Source\PSoC4/RTC.h **** #define RTC_FEBRUARY   (RTC__FEB)    /**< Sequential number of February in the year */
 209:Generated_Source\PSoC4/RTC.h **** #define RTC_MARCH      (RTC__MAR)    /**< Sequential number of March in the year */
 210:Generated_Source\PSoC4/RTC.h **** #define RTC_APRIL      (RTC__APR)    /**< Sequential number of April in the year */
 211:Generated_Source\PSoC4/RTC.h **** #define RTC_MAY        (RTC__MAY)    /**< Sequential number of May in the year */
 212:Generated_Source\PSoC4/RTC.h **** #define RTC_JUNE       (RTC__JUN)    /**< Sequential number of June in the year */
 213:Generated_Source\PSoC4/RTC.h **** #define RTC_JULY       (RTC__JUL)    /**< Sequential number of July in the year */
 214:Generated_Source\PSoC4/RTC.h **** #define RTC_AUGUST     (RTC__AUG)    /**< Sequential number of August in the year */
 215:Generated_Source\PSoC4/RTC.h **** #define RTC_SEPTEMBER  (RTC__SEP)    /**< Sequential number of September in the year */
 216:Generated_Source\PSoC4/RTC.h **** #define RTC_OCTOBER    (RTC__OCT)    /**< Sequential number of October in the year */
 217:Generated_Source\PSoC4/RTC.h **** #define RTC_NOVEMBER   (RTC__NOV)    /**< Sequential number of November in the year */
 218:Generated_Source\PSoC4/RTC.h **** #define RTC_DECEMBER   (RTC__DEC)    /**< Sequential number of December in the year */
 219:Generated_Source\PSoC4/RTC.h **** /** \} group_rtc_month */
 220:Generated_Source\PSoC4/RTC.h **** 
 221:Generated_Source\PSoC4/RTC.h **** /**
 222:Generated_Source\PSoC4/RTC.h **** * \defgroup group_rtc_am_pm AM/PM status definitions
 223:Generated_Source\PSoC4/RTC.h **** * \{
 224:Generated_Source\PSoC4/RTC.h **** * Definitions for 12 hour format for indicating the AM/PM period of day
 225:Generated_Source\PSoC4/RTC.h **** */
 226:Generated_Source\PSoC4/RTC.h **** #define RTC_AM                 (0u)    /**< AM period of day */
 227:Generated_Source\PSoC4/RTC.h **** #define RTC_PM                 (1u)    /**< PM period of day */
 228:Generated_Source\PSoC4/RTC.h **** /** \} group_rtc_am_pm */
 229:Generated_Source\PSoC4/RTC.h **** 
 230:Generated_Source\PSoC4/RTC.h **** /**
 231:Generated_Source\PSoC4/RTC.h **** * \defgroup group_rtc_hour_format Hour format definitions
 232:Generated_Source\PSoC4/RTC.h **** * \{
 233:Generated_Source\PSoC4/RTC.h **** * Definitions for hour format
 234:Generated_Source\PSoC4/RTC.h **** */
 235:Generated_Source\PSoC4/RTC.h **** #define RTC_12_HOURS_FORMAT    (RTC__HOUR_12) /**< The 24 hour format */
 236:Generated_Source\PSoC4/RTC.h **** #define RTC_24_HOURS_FORMAT    (RTC__HOUR_24) /**< The 12 hour (AM/PM) format */
 237:Generated_Source\PSoC4/RTC.h **** /** \} group_rtc_hour_format */
 238:Generated_Source\PSoC4/RTC.h **** 
 239:Generated_Source\PSoC4/RTC.h **** /**
 240:Generated_Source\PSoC4/RTC.h **** * \defgroup group_rtc_days_in_month Number of days in month definitions
 241:Generated_Source\PSoC4/RTC.h **** * \{
 242:Generated_Source\PSoC4/RTC.h **** * Definition of days in current month
 243:Generated_Source\PSoC4/RTC.h **** */
 244:Generated_Source\PSoC4/RTC.h **** #define RTC_DAYS_IN_JANUARY     (31u)    /**< Number of days in January  */
 245:Generated_Source\PSoC4/RTC.h **** #define RTC_DAYS_IN_FEBRUARY    (28u)    /**< Number of days in February */
 246:Generated_Source\PSoC4/RTC.h **** #define RTC_DAYS_IN_MARCH       (31u)    /**< Number of days in March */
 247:Generated_Source\PSoC4/RTC.h **** #define RTC_DAYS_IN_APRIL       (30u)    /**< Number of days in April */
 248:Generated_Source\PSoC4/RTC.h **** #define RTC_DAYS_IN_MAY         (31u)    /**< Number of days in May */
 249:Generated_Source\PSoC4/RTC.h **** #define RTC_DAYS_IN_JUNE        (30u)    /**< Number of days in June */
ARM GAS  C:\Users\Petro\AppData\Local\Temp\ccIOBOOq.s 			page 7


 250:Generated_Source\PSoC4/RTC.h **** #define RTC_DAYS_IN_JULY        (31u)    /**< Number of days in July */
 251:Generated_Source\PSoC4/RTC.h **** #define RTC_DAYS_IN_AUGUST      (31u)    /**< Number of days in August */
 252:Generated_Source\PSoC4/RTC.h **** #define RTC_DAYS_IN_SEPTEMBER   (30u)    /**< Number of days in September */
 253:Generated_Source\PSoC4/RTC.h **** #define RTC_DAYS_IN_OCTOBER     (31u)    /**< Number of days in October */
 254:Generated_Source\PSoC4/RTC.h **** #define RTC_DAYS_IN_NOVEMBER    (30u)    /**< Number of days in November */
 255:Generated_Source\PSoC4/RTC.h **** #define RTC_DAYS_IN_DECEMBER    (31u)    /**< Number of days in December */
 256:Generated_Source\PSoC4/RTC.h **** /** \} group_rtc_days_in_month */
 257:Generated_Source\PSoC4/RTC.h **** 
 258:Generated_Source\PSoC4/RTC.h **** /**
 259:Generated_Source\PSoC4/RTC.h **** * \defgroup group_rtc_status Definitions of the RTC status values
 260:Generated_Source\PSoC4/RTC.h **** * \{
 261:Generated_Source\PSoC4/RTC.h **** * Definitions for status software register, which has flags for DST (DST),
 262:Generated_Source\PSoC4/RTC.h **** * Leap Year (LY), AM/PM (AM_PM).
 263:Generated_Source\PSoC4/RTC.h **** */
 264:Generated_Source\PSoC4/RTC.h **** 
 265:Generated_Source\PSoC4/RTC.h **** /** Status of Daylight Saving Time. This bit
 266:Generated_Source\PSoC4/RTC.h **** * goes high when the current time and date match the DST time and date and the 
 267:Generated_Source\PSoC4/RTC.h **** * time is incremented. This bit goes low after the DST interval and the time is 
 268:Generated_Source\PSoC4/RTC.h **** * decremented.
 269:Generated_Source\PSoC4/RTC.h **** */
 270:Generated_Source\PSoC4/RTC.h **** #define RTC_STATUS_DST     (1uL << RTC_STATUS_DST_OFFSET)
 271:Generated_Source\PSoC4/RTC.h **** 
 272:Generated_Source\PSoC4/RTC.h **** /** Status of Leap Year. This bit goes high when the current year is a leap year */
 273:Generated_Source\PSoC4/RTC.h **** #define RTC_STATUS_LY      (1uL << RTC_STATUS_LY_OFFSET)
 274:Generated_Source\PSoC4/RTC.h **** 
 275:Generated_Source\PSoC4/RTC.h **** /** Status of Current Time. This bit is low from midnight to noon and high from 
 276:Generated_Source\PSoC4/RTC.h **** *  noon to midnight. */
 277:Generated_Source\PSoC4/RTC.h **** #define RTC_STATUS_AM_PM   (1uL << RTC_STATUS_AM_PM_OFFSET)
 278:Generated_Source\PSoC4/RTC.h **** /** \} group_rtc_status */
 279:Generated_Source\PSoC4/RTC.h **** 
 280:Generated_Source\PSoC4/RTC.h **** /**
 281:Generated_Source\PSoC4/RTC.h **** * \defgroup group_rtc_alarm_mask Definitions for Alarm Mask software register
 282:Generated_Source\PSoC4/RTC.h **** * \{
 283:Generated_Source\PSoC4/RTC.h **** * Definitions for Alarm Mask software register. These masks allow 
 284:Generated_Source\PSoC4/RTC.h **** * matching the alarm value register with the current value register.
 285:Generated_Source\PSoC4/RTC.h **** */
 286:Generated_Source\PSoC4/RTC.h **** 
 287:Generated_Source\PSoC4/RTC.h **** /** The second alarm mask allows matching the alarm second register with the 
 288:Generated_Source\PSoC4/RTC.h **** *   current second register.
 289:Generated_Source\PSoC4/RTC.h **** */
 290:Generated_Source\PSoC4/RTC.h **** #define RTC_ALARM_SEC_MASK         (0x00000001uL)
 291:Generated_Source\PSoC4/RTC.h **** 
 292:Generated_Source\PSoC4/RTC.h **** /** The minute alarm mask allows matching the alarm minute register with the 
 293:Generated_Source\PSoC4/RTC.h **** *   current minute register.
 294:Generated_Source\PSoC4/RTC.h **** */
 295:Generated_Source\PSoC4/RTC.h **** #define RTC_ALARM_MIN_MASK         (0x00000002uL)
 296:Generated_Source\PSoC4/RTC.h **** 
 297:Generated_Source\PSoC4/RTC.h **** /** The hour alarm mask allows matching the alarm hour register with the 
 298:Generated_Source\PSoC4/RTC.h **** *   current hour register.
 299:Generated_Source\PSoC4/RTC.h **** */
 300:Generated_Source\PSoC4/RTC.h **** #define RTC_ALARM_HOUR_MASK        (0x00000004uL)
 301:Generated_Source\PSoC4/RTC.h **** 
 302:Generated_Source\PSoC4/RTC.h **** /** The day of the week alarm mask allows matching the alarm hour register with 
 303:Generated_Source\PSoC4/RTC.h **** *   the current day of the week register.
 304:Generated_Source\PSoC4/RTC.h **** */
 305:Generated_Source\PSoC4/RTC.h **** #define RTC_ALARM_DAYOFWEEK_MASK   (0x00000008uL)
 306:Generated_Source\PSoC4/RTC.h **** 
ARM GAS  C:\Users\Petro\AppData\Local\Temp\ccIOBOOq.s 			page 8


 307:Generated_Source\PSoC4/RTC.h **** /** The day of the Month alarm mask allows matching the alarm hour register with 
 308:Generated_Source\PSoC4/RTC.h **** *   the current day of the Month register.
 309:Generated_Source\PSoC4/RTC.h **** */
 310:Generated_Source\PSoC4/RTC.h **** #define RTC_ALARM_DAYOFMONTH_MASK  (0x00000010uL)
 311:Generated_Source\PSoC4/RTC.h **** 
 312:Generated_Source\PSoC4/RTC.h **** /** The month alarm mask allows matching the alarm hour register with the
 313:Generated_Source\PSoC4/RTC.h **** *   current month register.
 314:Generated_Source\PSoC4/RTC.h **** */
 315:Generated_Source\PSoC4/RTC.h **** #define RTC_ALARM_MONTH_MASK       (0x00000020uL)
 316:Generated_Source\PSoC4/RTC.h **** 
 317:Generated_Source\PSoC4/RTC.h **** /** The year alarm mask allows matching the alarm hour register with the
 318:Generated_Source\PSoC4/RTC.h **** *   current year register.
 319:Generated_Source\PSoC4/RTC.h **** */
 320:Generated_Source\PSoC4/RTC.h **** #define RTC_ALARM_YEAR_MASK        (0x00000040uL)
 321:Generated_Source\PSoC4/RTC.h **** 
 322:Generated_Source\PSoC4/RTC.h **** /** \} group_rtc_alarm_mask */
 323:Generated_Source\PSoC4/RTC.h **** /** \} group_constants */
 324:Generated_Source\PSoC4/RTC.h **** 
 325:Generated_Source\PSoC4/RTC.h **** #define RTC_DAYS_PER_WEEK       (7u)
 326:Generated_Source\PSoC4/RTC.h **** 
 327:Generated_Source\PSoC4/RTC.h **** #define RTC_MONTHS_PER_YEAR     (12uL)
 328:Generated_Source\PSoC4/RTC.h **** 
 329:Generated_Source\PSoC4/RTC.h **** #define RTC_HOURS_PER_DAY       (24uL)
 330:Generated_Source\PSoC4/RTC.h **** #define RTC_HOURS_PER_HALF_DAY  (12uL)
 331:Generated_Source\PSoC4/RTC.h **** 
 332:Generated_Source\PSoC4/RTC.h **** #define RTC_SECONDS_PER_MINUTE  (60uL)
 333:Generated_Source\PSoC4/RTC.h **** #define RTC_SECONDS_PER_HOUR    (3600uL)
 334:Generated_Source\PSoC4/RTC.h **** #define RTC_SECONDS_PER_DAY     (24uL * 3600uL)
 335:Generated_Source\PSoC4/RTC.h **** 
 336:Generated_Source\PSoC4/RTC.h **** #define RTC_SECONDS_PER_LEAP_YEAR    (366uL * 24uL * 3600uL)
 337:Generated_Source\PSoC4/RTC.h **** #define RTC_SECONDS_PER_NONLEAP_YEAR (365uL * 24uL * 3600uL)
 338:Generated_Source\PSoC4/RTC.h **** 
 339:Generated_Source\PSoC4/RTC.h **** #define RTC_UNIX_TIME_PM        ((12uL * 3600uL) + 1uL)
 340:Generated_Source\PSoC4/RTC.h **** 
 341:Generated_Source\PSoC4/RTC.h **** /* Unix time begins in 1970 year */
 342:Generated_Source\PSoC4/RTC.h **** #define RTC_YEAR_0             (1970u)
 343:Generated_Source\PSoC4/RTC.h **** 
 344:Generated_Source\PSoC4/RTC.h **** /* Definition of date register fields */
 345:Generated_Source\PSoC4/RTC.h **** #if(RTC_INITIAL_DATA_FORMAT == RTC__MM_DD_YYYY)
 346:Generated_Source\PSoC4/RTC.h ****     #define RTC_10_MONTH_OFFSET   (28u)
 347:Generated_Source\PSoC4/RTC.h ****     #define RTC_MONTH_OFFSET      (24u)
 348:Generated_Source\PSoC4/RTC.h ****     #define RTC_10_DAY_OFFSET     (20u)
 349:Generated_Source\PSoC4/RTC.h ****     #define RTC_DAY_OFFSET        (16u)
 350:Generated_Source\PSoC4/RTC.h ****     #define RTC_1000_YEAR_OFFSET  (12u)
 351:Generated_Source\PSoC4/RTC.h ****     #define RTC_100_YEAR_OFFSET   (8u)
 352:Generated_Source\PSoC4/RTC.h ****     #define RTC_10_YEAR_OFFSET    (4u)
 353:Generated_Source\PSoC4/RTC.h ****     #define RTC_YEAR_OFFSET       (0u)
 354:Generated_Source\PSoC4/RTC.h **** #elif(RTC_INITIAL_DATA_FORMAT == RTC__DD_MM_YYYY)
 355:Generated_Source\PSoC4/RTC.h ****     #define RTC_10_MONTH_OFFSET   (20u)
 356:Generated_Source\PSoC4/RTC.h ****     #define RTC_MONTH_OFFSET      (16u)
 357:Generated_Source\PSoC4/RTC.h ****     #define RTC_10_DAY_OFFSET     (28u)
 358:Generated_Source\PSoC4/RTC.h ****     #define RTC_DAY_OFFSET        (24u)
 359:Generated_Source\PSoC4/RTC.h ****     #define RTC_1000_YEAR_OFFSET  (12u)
 360:Generated_Source\PSoC4/RTC.h ****     #define RTC_100_YEAR_OFFSET   (8u)
 361:Generated_Source\PSoC4/RTC.h ****     #define RTC_10_YEAR_OFFSET    (4u)
 362:Generated_Source\PSoC4/RTC.h ****     #define RTC_YEAR_OFFSET       (0u)
 363:Generated_Source\PSoC4/RTC.h **** #else
ARM GAS  C:\Users\Petro\AppData\Local\Temp\ccIOBOOq.s 			page 9


 364:Generated_Source\PSoC4/RTC.h ****     #define RTC_10_MONTH_OFFSET   (12u)
 365:Generated_Source\PSoC4/RTC.h ****     #define RTC_MONTH_OFFSET      (8u)
 366:Generated_Source\PSoC4/RTC.h ****     #define RTC_10_DAY_OFFSET     (4u)
 367:Generated_Source\PSoC4/RTC.h ****     #define RTC_DAY_OFFSET        (0u)
 368:Generated_Source\PSoC4/RTC.h ****     #define RTC_1000_YEAR_OFFSET  (28u)
 369:Generated_Source\PSoC4/RTC.h ****     #define RTC_100_YEAR_OFFSET   (24u)
 370:Generated_Source\PSoC4/RTC.h ****     #define RTC_10_YEAR_OFFSET    (20u)
 371:Generated_Source\PSoC4/RTC.h ****     #define RTC_YEAR_OFFSET       (16u)
 372:Generated_Source\PSoC4/RTC.h **** #endif /* (RTC_INITIAL_DATA_FORMAT == RTC__MM_DD_YYYY) */
 373:Generated_Source\PSoC4/RTC.h **** 
 374:Generated_Source\PSoC4/RTC.h **** #define RTC_10_MONTH_MASK          (0x00000001uL << RTC_10_MONTH_OFFSET)
 375:Generated_Source\PSoC4/RTC.h **** #define RTC_MONTH_MASK             (0x0000000FuL << RTC_MONTH_OFFSET)
 376:Generated_Source\PSoC4/RTC.h **** #define RTC_10_DAY_MASK            (0x00000003uL << RTC_10_DAY_OFFSET)
 377:Generated_Source\PSoC4/RTC.h **** #define RTC_DAY_MASK               (0x0000000FuL << RTC_DAY_OFFSET)
 378:Generated_Source\PSoC4/RTC.h **** #define RTC_1000_YEAR_MASK         (0x00000003uL << RTC_1000_YEAR_OFFSET)
 379:Generated_Source\PSoC4/RTC.h **** #define RTC_100_YEAR_MASK          (0x0000000FuL << RTC_100_YEAR_OFFSET)
 380:Generated_Source\PSoC4/RTC.h **** #define RTC_10_YEAR_MASK           (0x0000000FuL << RTC_10_YEAR_OFFSET)
 381:Generated_Source\PSoC4/RTC.h **** #define RTC_YEAR_MASK              (0x0000000FuL << RTC_YEAR_OFFSET)
 382:Generated_Source\PSoC4/RTC.h **** 
 383:Generated_Source\PSoC4/RTC.h **** #define  RTC_MONTH_FULL_MASK       (RTC_10_MONTH_MASK  | RTC_MONTH_MASK)
 384:Generated_Source\PSoC4/RTC.h **** #define  RTC_DAY_FULL_MASK         (RTC_10_DAY_MASK    | RTC_DAY_MASK)
 385:Generated_Source\PSoC4/RTC.h **** #define  RTC_YEAR_FULL_MASK        (RTC_1000_YEAR_MASK | RTC_100_YEAR_MASK |\
 386:Generated_Source\PSoC4/RTC.h ****                                                  RTC_10_YEAR_MASK   | RTC_YEAR_MASK)
 387:Generated_Source\PSoC4/RTC.h **** 
 388:Generated_Source\PSoC4/RTC.h **** /* Definition of time register fields */
 389:Generated_Source\PSoC4/RTC.h **** #define RTC_TIME_FORMAT_OFFSET     (23u)
 390:Generated_Source\PSoC4/RTC.h **** #define RTC_PERIOD_OF_DAY_OFFSET   (22u)
 391:Generated_Source\PSoC4/RTC.h **** #define RTC_10_HOURS_OFFSET        (20u)
 392:Generated_Source\PSoC4/RTC.h **** #define RTC_HOURS_OFFSET           (16u)
 393:Generated_Source\PSoC4/RTC.h **** #define RTC_10_MINUTES_OFFSET      (12u)
 394:Generated_Source\PSoC4/RTC.h **** #define RTC_MINUTES_OFFSET         (8u)
 395:Generated_Source\PSoC4/RTC.h **** #define RTC_10_SECONDS_OFFSET      (4u)
 396:Generated_Source\PSoC4/RTC.h **** #define RTC_SECONDS_OFFSET         (0u)
 397:Generated_Source\PSoC4/RTC.h **** 
 398:Generated_Source\PSoC4/RTC.h **** #define RTC_TIME_FORMAT_MASK       (0x00000001uL << RTC_TIME_FORMAT_OFFSET)
 399:Generated_Source\PSoC4/RTC.h **** #define RTC_PERIOD_OF_DAY_MASK     (0x00000001uL << RTC_PERIOD_OF_DAY_OFFSET)
 400:Generated_Source\PSoC4/RTC.h **** #define RTC_10_HOURS_MASK          (0x00000003uL << RTC_10_HOURS_OFFSET)
 401:Generated_Source\PSoC4/RTC.h **** #define RTC_HOURS_MASK             (0x0000000FuL << RTC_HOURS_OFFSET)
 402:Generated_Source\PSoC4/RTC.h **** #define RTC_10_MINUTES_MASK        (0x00000007uL << RTC_10_MINUTES_OFFSET)
 403:Generated_Source\PSoC4/RTC.h **** #define RTC_MINUTES_MASK           (0x0000000FuL << RTC_MINUTES_OFFSET)
 404:Generated_Source\PSoC4/RTC.h **** #define RTC_10_SECONDS_MASK        (0x00000007uL << RTC_10_SECONDS_OFFSET)
 405:Generated_Source\PSoC4/RTC.h **** #define RTC_SECONDS_MASK           (0x0000000FuL << RTC_SECONDS_OFFSET)
 406:Generated_Source\PSoC4/RTC.h **** 
 407:Generated_Source\PSoC4/RTC.h **** #define RTC_HOURS_FULL_MASK        (RTC_10_HOURS_MASK   | RTC_HOURS_MASK)
 408:Generated_Source\PSoC4/RTC.h **** #define RTC_MINUTES_FULL_MASK      (RTC_10_MINUTES_MASK | RTC_MINUTES_MASK)
 409:Generated_Source\PSoC4/RTC.h **** #define RTC_SECONDS_FULL_MASK      (RTC_10_SECONDS_MASK | RTC_SECONDS_MASK)
 410:Generated_Source\PSoC4/RTC.h **** 
 411:Generated_Source\PSoC4/RTC.h **** #define RTC_STATUS_DST_OFFSET      (1u)
 412:Generated_Source\PSoC4/RTC.h **** #define RTC_STATUS_ALARM_OFFSET    (2u)
 413:Generated_Source\PSoC4/RTC.h **** #define RTC_STATUS_LY_OFFSET       (3u)
 414:Generated_Source\PSoC4/RTC.h **** #define RTC_STATUS_AM_PM_OFFSET    (4u)
 415:Generated_Source\PSoC4/RTC.h **** 
 416:Generated_Source\PSoC4/RTC.h **** /* Number of bits per one BCD digit */
 417:Generated_Source\PSoC4/RTC.h **** #define RTC_BCD_NUMBER_SIZE        (4u)
 418:Generated_Source\PSoC4/RTC.h **** #define RTC_BCD_ONE_DIGIT_MASK     (0x0000000FuL)
 419:Generated_Source\PSoC4/RTC.h **** 
 420:Generated_Source\PSoC4/RTC.h **** 
ARM GAS  C:\Users\Petro\AppData\Local\Temp\ccIOBOOq.s 			page 10


 421:Generated_Source\PSoC4/RTC.h **** /*******************************************************************************
 422:Generated_Source\PSoC4/RTC.h **** *    External Variables
 423:Generated_Source\PSoC4/RTC.h **** *******************************************************************************/
 424:Generated_Source\PSoC4/RTC.h **** /**
 425:Generated_Source\PSoC4/RTC.h **** * \addtogroup group_globals
 426:Generated_Source\PSoC4/RTC.h **** * \{
 427:Generated_Source\PSoC4/RTC.h **** */
 428:Generated_Source\PSoC4/RTC.h **** 
 429:Generated_Source\PSoC4/RTC.h **** /**
 430:Generated_Source\PSoC4/RTC.h **** * Indicates whether the RTC has been initialized; The variable is initialized to
 431:Generated_Source\PSoC4/RTC.h **** * 0 and set to 1 the first time RTC_Start() is called. This allows the component
 432:Generated_Source\PSoC4/RTC.h **** * to restart without reinitialization after the first call to the RTC_Start() 
 433:Generated_Source\PSoC4/RTC.h **** * routine.
 434:Generated_Source\PSoC4/RTC.h **** */
 435:Generated_Source\PSoC4/RTC.h **** extern uint8  RTC_initVar;
 436:Generated_Source\PSoC4/RTC.h **** 
 437:Generated_Source\PSoC4/RTC.h **** /** The DST start/stop status */
 438:Generated_Source\PSoC4/RTC.h **** extern uint8  RTC_dstStatus;
 439:Generated_Source\PSoC4/RTC.h **** 
 440:Generated_Source\PSoC4/RTC.h **** /**
 441:Generated_Source\PSoC4/RTC.h **** * The uint64 variable represents the standard Unix time (number of seconds 
 442:Generated_Source\PSoC4/RTC.h **** * elapsed from January 1, 1970 00:00 hours UTC) in 64-bit 
 443:Generated_Source\PSoC4/RTC.h **** */
 444:Generated_Source\PSoC4/RTC.h **** extern volatile uint64 RTC_unixTime;
 445:Generated_Source\PSoC4/RTC.h **** 
 446:Generated_Source\PSoC4/RTC.h **** /** The values for the time and date of the DST start */
 447:Generated_Source\PSoC4/RTC.h **** extern RTC_DST_TIME RTC_dstStartTime;
 448:Generated_Source\PSoC4/RTC.h **** 
 449:Generated_Source\PSoC4/RTC.h **** /** The values for the time and date of the DST stop */
 450:Generated_Source\PSoC4/RTC.h **** extern RTC_DST_TIME RTC_dstStopTime;
 451:Generated_Source\PSoC4/RTC.h **** 
 452:Generated_Source\PSoC4/RTC.h **** /**
 453:Generated_Source\PSoC4/RTC.h **** * The last updated time and date values are stored in this structure (update 
 454:Generated_Source\PSoC4/RTC.h **** * happens in Get time/date APIs)
 455:Generated_Source\PSoC4/RTC.h **** */
 456:Generated_Source\PSoC4/RTC.h **** extern RTC_DATE_TIME RTC_currentTimeDate;
 457:Generated_Source\PSoC4/RTC.h **** 
 458:Generated_Source\PSoC4/RTC.h **** /** The alarm time and date values are stored in this variable */
 459:Generated_Source\PSoC4/RTC.h **** extern RTC_DATE_TIME RTC_alarmCfgTimeDate;
 460:Generated_Source\PSoC4/RTC.h **** 
 461:Generated_Source\PSoC4/RTC.h **** /**
 462:Generated_Source\PSoC4/RTC.h **** * This variable is used to mask alarm events; mask seconds alarm, mask minutes 
 463:Generated_Source\PSoC4/RTC.h **** * alarm, and so on. It will have bit masks for each time item masking that item 
 464:Generated_Source\PSoC4/RTC.h **** * for alarm generation
 465:Generated_Source\PSoC4/RTC.h **** */
 466:Generated_Source\PSoC4/RTC.h **** extern uint32  RTC_alarmCfgMask;
 467:Generated_Source\PSoC4/RTC.h **** 
 468:Generated_Source\PSoC4/RTC.h **** /**
 469:Generated_Source\PSoC4/RTC.h **** * This variable is used to indicate current active alarm status per time item 
 470:Generated_Source\PSoC4/RTC.h **** * used in the alarm; whether seconds alarm is active, minute's alarm is active, 
 471:Generated_Source\PSoC4/RTC.h **** * and so on. It will have bit masks for each time item (seconds, minutes, hours,
 472:Generated_Source\PSoC4/RTC.h **** * day, and so on) showing the status
 473:Generated_Source\PSoC4/RTC.h **** */
 474:Generated_Source\PSoC4/RTC.h **** extern uint32 RTC_alarmCurStatus;
 475:Generated_Source\PSoC4/RTC.h **** 
 476:Generated_Source\PSoC4/RTC.h **** /** \} group_globals */
 477:Generated_Source\PSoC4/RTC.h **** 
ARM GAS  C:\Users\Petro\AppData\Local\Temp\ccIOBOOq.s 			page 11


 478:Generated_Source\PSoC4/RTC.h **** extern void (*RTC_alarmCallbackPtr)(void);
 479:Generated_Source\PSoC4/RTC.h **** 
 480:Generated_Source\PSoC4/RTC.h **** extern const uint16 RTC_daysBeforeMonthTbl[RTC_MONTHS_PER_YEAR];
 481:Generated_Source\PSoC4/RTC.h **** extern const uint8  RTC_daysInMonthTbl[RTC_MONTHS_PER_YEAR];
 482:Generated_Source\PSoC4/RTC.h **** 
 483:Generated_Source\PSoC4/RTC.h **** 
 484:Generated_Source\PSoC4/RTC.h **** /*******************************************************************************
 485:Generated_Source\PSoC4/RTC.h **** *    Function Prototypes
 486:Generated_Source\PSoC4/RTC.h **** *******************************************************************************/
 487:Generated_Source\PSoC4/RTC.h **** /**
 488:Generated_Source\PSoC4/RTC.h **** * \addtogroup group_general
 489:Generated_Source\PSoC4/RTC.h **** * \{
 490:Generated_Source\PSoC4/RTC.h **** */
 491:Generated_Source\PSoC4/RTC.h **** void   RTC_Start(void);
 492:Generated_Source\PSoC4/RTC.h **** void   RTC_Stop(void);
 493:Generated_Source\PSoC4/RTC.h **** void   RTC_Init(void);
 494:Generated_Source\PSoC4/RTC.h **** void   RTC_SetUnixTime(uint64 unixTime);
 495:Generated_Source\PSoC4/RTC.h **** uint64 RTC_GetUnixTime(void);
 496:Generated_Source\PSoC4/RTC.h **** void   RTC_SetPeriod(uint32 ticks, uint32 refOneSecTicks);
 497:Generated_Source\PSoC4/RTC.h **** uint32 RTC_GetPeriod(void);
 498:Generated_Source\PSoC4/RTC.h **** uint32 RTC_GetRefOneSec(void);
 499:Generated_Source\PSoC4/RTC.h **** void   RTC_SetDateAndTime(uint32 inputTime, uint32 inputDate);
 500:Generated_Source\PSoC4/RTC.h **** void   RTC_GetDateAndTime(RTC_DATE_TIME* dateTime);
 501:Generated_Source\PSoC4/RTC.h **** uint32 RTC_GetTime(void);
 502:Generated_Source\PSoC4/RTC.h **** uint32 RTC_GetDate(void);
 503:Generated_Source\PSoC4/RTC.h **** void   RTC_SetAlarmDateAndTime(const RTC_DATE_TIME* alarmTime);
 504:Generated_Source\PSoC4/RTC.h **** void   RTC_GetAlarmDateAndTime(RTC_DATE_TIME* alarmTimeDate);
 505:Generated_Source\PSoC4/RTC.h **** void   RTC_SetAlarmMask(uint32 mask);
 506:Generated_Source\PSoC4/RTC.h **** uint32 RTC_GetAlarmMask(void);
 507:Generated_Source\PSoC4/RTC.h **** uint32 RTC_ReadStatus(void);
 508:Generated_Source\PSoC4/RTC.h **** uint32 RTC_GetAlarmStatus(void);
 509:Generated_Source\PSoC4/RTC.h **** void   RTC_ClearAlarmStatus(void);
 510:Generated_Source\PSoC4/RTC.h **** void   RTC_SetDSTStartTime(const RTC_DST_TIME* dstStartTime,
 511:Generated_Source\PSoC4/RTC.h ****                                               RTC_DST_DATETYPE_ENUM type);
 512:Generated_Source\PSoC4/RTC.h **** void   RTC_SetDSTStopTime(const RTC_DST_TIME* dstStopTime,
 513:Generated_Source\PSoC4/RTC.h ****                                              RTC_DST_DATETYPE_ENUM type);
 514:Generated_Source\PSoC4/RTC.h **** uint32 RTC_ConvertBCDToDec(uint32 bcdNum);
 515:Generated_Source\PSoC4/RTC.h **** uint32 RTC_ConvertDecToBCD(uint32 decNum);
 516:Generated_Source\PSoC4/RTC.h **** void   RTC_Update(void);
 517:Generated_Source\PSoC4/RTC.h **** void*  RTC_SetAlarmHandler(void (*CallbackFunction)(void));
 518:Generated_Source\PSoC4/RTC.h **** 
 519:Generated_Source\PSoC4/RTC.h **** static uint32 RTC_ConstructDate(uint32 month, uint32 day, uint32 year);
 520:Generated_Source\PSoC4/RTC.h **** static uint32 RTC_ConstructTime(uint32 timeFormat, uint32 stateAmPm, uint32 hour, uint32 min, uint3
 521:Generated_Source\PSoC4/RTC.h **** /** \} group_general */
 522:Generated_Source\PSoC4/RTC.h **** 
 523:Generated_Source\PSoC4/RTC.h **** static uint32 RTC_GetTimeFormat(uint32 inputTime);
 524:Generated_Source\PSoC4/RTC.h **** static uint32 RTC_SetTimeFormat(uint32 inputTime, uint32 timeFormat);
 525:Generated_Source\PSoC4/RTC.h **** 
 526:Generated_Source\PSoC4/RTC.h **** /**
 527:Generated_Source\PSoC4/RTC.h **** * \addtogroup group_general
 528:Generated_Source\PSoC4/RTC.h **** * \{
 529:Generated_Source\PSoC4/RTC.h **** */
 530:Generated_Source\PSoC4/RTC.h **** static uint32 RTC_LeapYear(uint32 year);
 531:Generated_Source\PSoC4/RTC.h **** static uint32 RTC_IsBitSet(uint32 var, uint32 mask);
 532:Generated_Source\PSoC4/RTC.h **** static uint32 RTC_GetSecond(uint32 inputTime);
 533:Generated_Source\PSoC4/RTC.h **** static uint32 RTC_GetMinutes(uint32 inputTime);
 534:Generated_Source\PSoC4/RTC.h **** static uint32 RTC_GetHours(uint32 inputTime);
ARM GAS  C:\Users\Petro\AppData\Local\Temp\ccIOBOOq.s 			page 12


 535:Generated_Source\PSoC4/RTC.h **** static uint32 RTC_GetAmPm(uint32 inputTime);
 536:Generated_Source\PSoC4/RTC.h **** static uint32 RTC_GetDay(uint32 date);
 537:Generated_Source\PSoC4/RTC.h **** static uint32 RTC_GetMonth(uint32 date);
 538:Generated_Source\PSoC4/RTC.h **** static uint32 RTC_GetYear(uint32 date);
 539:Generated_Source\PSoC4/RTC.h **** /** \} group_general */
 540:Generated_Source\PSoC4/RTC.h **** 
 541:Generated_Source\PSoC4/RTC.h **** static uint32 RTC_SetSecond(uint32 inputTime, uint32 inputSecond);
 542:Generated_Source\PSoC4/RTC.h **** static uint32 RTC_SetMinutes(uint32 inputTime, uint32 inputMinute);
 543:Generated_Source\PSoC4/RTC.h **** static uint32 RTC_SetHours(uint32 inputTime, uint32 inputHours);
 544:Generated_Source\PSoC4/RTC.h **** static uint32 RTC_SetAmPm(uint32 inputTime, uint32 periodOfDay);
 545:Generated_Source\PSoC4/RTC.h **** static uint32 RTC_SetDay(uint32 inputDate, uint32 inputDay);
 546:Generated_Source\PSoC4/RTC.h **** static uint32 RTC_SetMonth(uint32 inputDate, uint32 inputMonth);
 547:Generated_Source\PSoC4/RTC.h **** static uint32 RTC_SetYear(uint32 inputDate, uint32 inputYear);
 548:Generated_Source\PSoC4/RTC.h **** 
 549:Generated_Source\PSoC4/RTC.h **** uint64 RTC_ConstructUnixAlarmTime(const RTC_DATE_TIME* alarmTime, uint8 alarmCfgMask);
 550:Generated_Source\PSoC4/RTC.h **** uint64 RTC_GetDstUnixTime(const RTC_DST_TIME* dstTime);
 551:Generated_Source\PSoC4/RTC.h **** uint64 RTC_GetNexAlarmTime(uint64 curUnixTime, uint8 alarmCfgMask);
 552:Generated_Source\PSoC4/RTC.h **** 
 553:Generated_Source\PSoC4/RTC.h **** static uint32 RTC_GetNextMinSec(uint32 curVal);
 554:Generated_Source\PSoC4/RTC.h **** static uint32 RTC_GetNextHour(uint32 curVal);
 555:Generated_Source\PSoC4/RTC.h **** static uint32 RTC_GetNextDay(uint32 curYear, uint32 curMonth, uint32 curDay, uint32 alarmCfgMask);
 556:Generated_Source\PSoC4/RTC.h **** static uint32 RTC_GetNextMonth(uint32 curMonth);
 557:Generated_Source\PSoC4/RTC.h **** static uint32 RTC_GetNextYear(uint32 curYear);
 558:Generated_Source\PSoC4/RTC.h **** static uint32 RTC_GetDayOfWeek(uint32 day, uint32 month, uint32 year);
 559:Generated_Source\PSoC4/RTC.h **** static uint32 RTC_DaysBeforeMonth(uint32 month, uint32 year);
 560:Generated_Source\PSoC4/RTC.h **** 
 561:Generated_Source\PSoC4/RTC.h **** uint32 RTC_DaysInMonth(uint32 month, uint32 year);
 562:Generated_Source\PSoC4/RTC.h **** 
 563:Generated_Source\PSoC4/RTC.h **** /**
 564:Generated_Source\PSoC4/RTC.h **** * \addtogroup group_general
 565:Generated_Source\PSoC4/RTC.h **** * \{
 566:Generated_Source\PSoC4/RTC.h **** */
 567:Generated_Source\PSoC4/RTC.h **** void   RTC_UnixToDateTime(RTC_DATE_TIME* dateTime, uint64 unixTime, uint32 timeFormat);
 568:Generated_Source\PSoC4/RTC.h **** uint64 RTC_DateTimeToUnix(uint32 inputDate, uint32 inputTime);
 569:Generated_Source\PSoC4/RTC.h **** 
 570:Generated_Source\PSoC4/RTC.h **** #if defined(CYDEV_RTC_SOURCE_WDT)
 571:Generated_Source\PSoC4/RTC.h ****     #if((0u != CYDEV_WDT_GENERATE_ISR) && (0u == RTC_INITIAL_UPDATE_MODE))
 572:Generated_Source\PSoC4/RTC.h ****         static void RTC_CySysRtcSetCallback(uint32 wdtNumber);
 573:Generated_Source\PSoC4/RTC.h ****         static void RTC_CySysRtcResetCallback(uint32 wdtNumber);
 574:Generated_Source\PSoC4/RTC.h ****     #endif /* ((0u != CYDEV_WDT_GENERATE_ISR) && (0u == RTC_INITIAL_UPDATE_MODE)) */
 575:Generated_Source\PSoC4/RTC.h **** #endif /* (CYDEV_RTC_SOURCE_WDT) */
 576:Generated_Source\PSoC4/RTC.h **** 
 577:Generated_Source\PSoC4/RTC.h **** /** \} group_general */
 578:Generated_Source\PSoC4/RTC.h **** 
 579:Generated_Source\PSoC4/RTC.h **** uint32 RTC_RelativeToFixed(uint32 dayOfWeek, uint32 weekOfMonth, uint32 month, uint32 year);
 580:Generated_Source\PSoC4/RTC.h **** 
 581:Generated_Source\PSoC4/RTC.h **** 
 582:Generated_Source\PSoC4/RTC.h **** 
 583:Generated_Source\PSoC4/RTC.h **** /*******************************************************************************
 584:Generated_Source\PSoC4/RTC.h **** * Function Name: RTC_IsBitSet
 585:Generated_Source\PSoC4/RTC.h **** ****************************************************************************//**
 586:Generated_Source\PSoC4/RTC.h **** *
 587:Generated_Source\PSoC4/RTC.h **** * Checks the state of a bit passed through parameter.
 588:Generated_Source\PSoC4/RTC.h **** *
 589:Generated_Source\PSoC4/RTC.h **** * \param var
 590:Generated_Source\PSoC4/RTC.h **** * The variable to be checked.
 591:Generated_Source\PSoC4/RTC.h **** *
ARM GAS  C:\Users\Petro\AppData\Local\Temp\ccIOBOOq.s 			page 13


 592:Generated_Source\PSoC4/RTC.h **** * \param mask
 593:Generated_Source\PSoC4/RTC.h **** * The mask for a bit to be checked.
 594:Generated_Source\PSoC4/RTC.h **** *
 595:Generated_Source\PSoC4/RTC.h **** * \return
 596:Generated_Source\PSoC4/RTC.h **** *  0u - Bit is not set. <br> 1u - Bit is set.
 597:Generated_Source\PSoC4/RTC.h **** *
 598:Generated_Source\PSoC4/RTC.h **** *******************************************************************************/
 599:Generated_Source\PSoC4/RTC.h **** static CY_INLINE uint32 RTC_IsBitSet(uint32 var, uint32 mask)
 600:Generated_Source\PSoC4/RTC.h **** {
 601:Generated_Source\PSoC4/RTC.h ****     return ((mask == (var & mask)) ? 1Lu : 0Lu);
 602:Generated_Source\PSoC4/RTC.h **** }
 603:Generated_Source\PSoC4/RTC.h **** 
 604:Generated_Source\PSoC4/RTC.h **** 
 605:Generated_Source\PSoC4/RTC.h **** /*******************************************************************************
 606:Generated_Source\PSoC4/RTC.h **** * Function Name: RTC_LeapYear
 607:Generated_Source\PSoC4/RTC.h **** ****************************************************************************//**
 608:Generated_Source\PSoC4/RTC.h **** *
 609:Generated_Source\PSoC4/RTC.h **** * Checks whether the year passed through the parameter is leap or no.
 610:Generated_Source\PSoC4/RTC.h **** *
 611:Generated_Source\PSoC4/RTC.h **** * \param year
 612:Generated_Source\PSoC4/RTC.h **** * The year to be checked.
 613:Generated_Source\PSoC4/RTC.h **** *
 614:Generated_Source\PSoC4/RTC.h **** * \return
 615:Generated_Source\PSoC4/RTC.h **** * 0u - The year is not leap <br> 1u - The year is leap.
 616:Generated_Source\PSoC4/RTC.h **** *
 617:Generated_Source\PSoC4/RTC.h **** *******************************************************************************/
 618:Generated_Source\PSoC4/RTC.h **** static CY_INLINE uint32 RTC_LeapYear(uint32 year)
 619:Generated_Source\PSoC4/RTC.h **** {
 620:Generated_Source\PSoC4/RTC.h ****     uint32 retVal;
 621:Generated_Source\PSoC4/RTC.h **** 
 622:Generated_Source\PSoC4/RTC.h ****     if(((0u == (year % 4Lu)) && (0u != (year % 100Lu))) || (0u == (year % 400Lu)))
 623:Generated_Source\PSoC4/RTC.h ****     {
 624:Generated_Source\PSoC4/RTC.h ****         retVal = 1uL;
 625:Generated_Source\PSoC4/RTC.h ****     }
 626:Generated_Source\PSoC4/RTC.h ****     else
 627:Generated_Source\PSoC4/RTC.h ****     {
 628:Generated_Source\PSoC4/RTC.h ****         retVal = 0uL;
 629:Generated_Source\PSoC4/RTC.h ****     }
 630:Generated_Source\PSoC4/RTC.h **** 
 631:Generated_Source\PSoC4/RTC.h ****     return(retVal);
 632:Generated_Source\PSoC4/RTC.h **** }
 633:Generated_Source\PSoC4/RTC.h **** 
 634:Generated_Source\PSoC4/RTC.h **** 
 635:Generated_Source\PSoC4/RTC.h **** /*******************************************************************************
 636:Generated_Source\PSoC4/RTC.h **** * Function Name: RTC_GetSecond
 637:Generated_Source\PSoC4/RTC.h **** ****************************************************************************//**
 638:Generated_Source\PSoC4/RTC.h **** *
 639:Generated_Source\PSoC4/RTC.h **** * Returns the seconds value from the time value that is passed as a/the 
 640:Generated_Source\PSoC4/RTC.h **** * parameter.
 641:Generated_Source\PSoC4/RTC.h **** *
 642:Generated_Source\PSoC4/RTC.h **** * \param inputTime
 643:Generated_Source\PSoC4/RTC.h **** * The time value.
 644:Generated_Source\PSoC4/RTC.h **** *
 645:Generated_Source\PSoC4/RTC.h **** * \return
 646:Generated_Source\PSoC4/RTC.h **** * The seconds value.
 647:Generated_Source\PSoC4/RTC.h **** *
 648:Generated_Source\PSoC4/RTC.h **** *******************************************************************************/
ARM GAS  C:\Users\Petro\AppData\Local\Temp\ccIOBOOq.s 			page 14


 649:Generated_Source\PSoC4/RTC.h **** static CY_INLINE uint32 RTC_GetSecond(uint32 inputTime)
 650:Generated_Source\PSoC4/RTC.h **** {
 651:Generated_Source\PSoC4/RTC.h ****     uint32 retVal;
 652:Generated_Source\PSoC4/RTC.h **** 
 653:Generated_Source\PSoC4/RTC.h ****     retVal  = ((inputTime & RTC_10_SECONDS_MASK) >> RTC_10_SECONDS_OFFSET) * 10u;
 654:Generated_Source\PSoC4/RTC.h ****     retVal += (inputTime & RTC_SECONDS_MASK) >> RTC_SECONDS_OFFSET;
 655:Generated_Source\PSoC4/RTC.h **** 
 656:Generated_Source\PSoC4/RTC.h ****     return (retVal);
 657:Generated_Source\PSoC4/RTC.h **** }
 658:Generated_Source\PSoC4/RTC.h **** 
 659:Generated_Source\PSoC4/RTC.h **** 
 660:Generated_Source\PSoC4/RTC.h **** /*******************************************************************************
 661:Generated_Source\PSoC4/RTC.h **** * Function Name: RTC_GetMinutes
 662:Generated_Source\PSoC4/RTC.h **** ****************************************************************************//**
 663:Generated_Source\PSoC4/RTC.h **** *
 664:Generated_Source\PSoC4/RTC.h **** * Returns the minutes value from the time value that is passed as a/the 
 665:Generated_Source\PSoC4/RTC.h **** * parameter.
 666:Generated_Source\PSoC4/RTC.h **** *
 667:Generated_Source\PSoC4/RTC.h **** * \param inputTime
 668:Generated_Source\PSoC4/RTC.h **** * The time value.
 669:Generated_Source\PSoC4/RTC.h **** *
 670:Generated_Source\PSoC4/RTC.h **** * \return
 671:Generated_Source\PSoC4/RTC.h **** * The minutes value.
 672:Generated_Source\PSoC4/RTC.h **** *
 673:Generated_Source\PSoC4/RTC.h **** *******************************************************************************/
 674:Generated_Source\PSoC4/RTC.h **** static CY_INLINE uint32 RTC_GetMinutes(uint32 inputTime)
 675:Generated_Source\PSoC4/RTC.h **** {
 676:Generated_Source\PSoC4/RTC.h ****     uint32 retVal;
 677:Generated_Source\PSoC4/RTC.h **** 
 678:Generated_Source\PSoC4/RTC.h ****     retVal  = ((inputTime & RTC_10_MINUTES_MASK) >> RTC_10_MINUTES_OFFSET) * 10u;
 679:Generated_Source\PSoC4/RTC.h ****     retVal += (inputTime & RTC_MINUTES_MASK) >> RTC_MINUTES_OFFSET;
 680:Generated_Source\PSoC4/RTC.h **** 
 681:Generated_Source\PSoC4/RTC.h ****     return (retVal);
 682:Generated_Source\PSoC4/RTC.h **** }
 683:Generated_Source\PSoC4/RTC.h **** 
 684:Generated_Source\PSoC4/RTC.h **** 
 685:Generated_Source\PSoC4/RTC.h **** /*******************************************************************************
 686:Generated_Source\PSoC4/RTC.h **** * Function Name: RTC_GetHours
 687:Generated_Source\PSoC4/RTC.h **** ****************************************************************************//**
 688:Generated_Source\PSoC4/RTC.h **** *
 689:Generated_Source\PSoC4/RTC.h **** * Returns the hours value from the time value that is passed as a/the parameter.
 690:Generated_Source\PSoC4/RTC.h **** *
 691:Generated_Source\PSoC4/RTC.h **** * \param inputTime
 692:Generated_Source\PSoC4/RTC.h **** * The time value.
 693:Generated_Source\PSoC4/RTC.h **** *
 694:Generated_Source\PSoC4/RTC.h **** * \return
 695:Generated_Source\PSoC4/RTC.h **** * The hours value.
 696:Generated_Source\PSoC4/RTC.h **** *
 697:Generated_Source\PSoC4/RTC.h **** *******************************************************************************/
 698:Generated_Source\PSoC4/RTC.h **** static CY_INLINE uint32 RTC_GetHours(uint32 inputTime)
 699:Generated_Source\PSoC4/RTC.h **** {
 700:Generated_Source\PSoC4/RTC.h ****     uint32 retVal;
 701:Generated_Source\PSoC4/RTC.h **** 
 702:Generated_Source\PSoC4/RTC.h ****     retVal  = ((inputTime & RTC_10_HOURS_MASK) >> RTC_10_HOURS_OFFSET) * 10u;
 703:Generated_Source\PSoC4/RTC.h ****     retVal += (inputTime & RTC_HOURS_MASK) >> RTC_HOURS_OFFSET;
 704:Generated_Source\PSoC4/RTC.h **** 
 705:Generated_Source\PSoC4/RTC.h ****     return (retVal);
ARM GAS  C:\Users\Petro\AppData\Local\Temp\ccIOBOOq.s 			page 15


 706:Generated_Source\PSoC4/RTC.h **** }
 707:Generated_Source\PSoC4/RTC.h **** 
 708:Generated_Source\PSoC4/RTC.h **** 
 709:Generated_Source\PSoC4/RTC.h **** /*******************************************************************************
 710:Generated_Source\PSoC4/RTC.h **** * Function Name: RTC_GetAmPm
 711:Generated_Source\PSoC4/RTC.h **** ****************************************************************************//**
 712:Generated_Source\PSoC4/RTC.h **** *
 713:Generated_Source\PSoC4/RTC.h **** * Returns the AM/PM status from the time value that is passed as parameter.
 714:Generated_Source\PSoC4/RTC.h **** *
 715:Generated_Source\PSoC4/RTC.h **** * \param inputTime
 716:Generated_Source\PSoC4/RTC.h **** * The time value.
 717:Generated_Source\PSoC4/RTC.h **** *
 718:Generated_Source\PSoC4/RTC.h **** * \return
 719:Generated_Source\PSoC4/RTC.h **** * The am/pm period of day, see \ref group_rtc_am_pm.
 720:Generated_Source\PSoC4/RTC.h **** *
 721:Generated_Source\PSoC4/RTC.h **** *******************************************************************************/
 722:Generated_Source\PSoC4/RTC.h **** static CY_INLINE uint32 RTC_GetAmPm(uint32 inputTime)
 723:Generated_Source\PSoC4/RTC.h **** {
 724:Generated_Source\PSoC4/RTC.h ****     return (RTC_IsBitSet(inputTime, RTC_PERIOD_OF_DAY_MASK));
 725:Generated_Source\PSoC4/RTC.h **** }
 726:Generated_Source\PSoC4/RTC.h **** 
 727:Generated_Source\PSoC4/RTC.h **** 
 728:Generated_Source\PSoC4/RTC.h **** /*******************************************************************************
 729:Generated_Source\PSoC4/RTC.h **** * Function Name: RTC_GetDay
 730:Generated_Source\PSoC4/RTC.h **** ****************************************************************************//**
 731:Generated_Source\PSoC4/RTC.h **** *
 732:Generated_Source\PSoC4/RTC.h **** * Returns the day value from the date value that is passed as parameter.
 733:Generated_Source\PSoC4/RTC.h **** *
 734:Generated_Source\PSoC4/RTC.h **** * \param date
 735:Generated_Source\PSoC4/RTC.h **** * The date value.
 736:Generated_Source\PSoC4/RTC.h **** *
 737:Generated_Source\PSoC4/RTC.h **** * \return
 738:Generated_Source\PSoC4/RTC.h **** * The day value.
 739:Generated_Source\PSoC4/RTC.h **** *
 740:Generated_Source\PSoC4/RTC.h **** *******************************************************************************/
 741:Generated_Source\PSoC4/RTC.h **** static CY_INLINE uint32 RTC_GetDay(uint32 date)
 742:Generated_Source\PSoC4/RTC.h **** {
 743:Generated_Source\PSoC4/RTC.h ****     uint32 retVal;
 744:Generated_Source\PSoC4/RTC.h **** 
 745:Generated_Source\PSoC4/RTC.h ****     retVal  = ((date & RTC_10_DAY_MASK) >> RTC_10_DAY_OFFSET) * 10u;
 746:Generated_Source\PSoC4/RTC.h ****     retVal += (date & RTC_DAY_MASK) >> RTC_DAY_OFFSET;
 747:Generated_Source\PSoC4/RTC.h **** 
 748:Generated_Source\PSoC4/RTC.h ****     return (retVal);
 749:Generated_Source\PSoC4/RTC.h **** }
 750:Generated_Source\PSoC4/RTC.h **** 
 751:Generated_Source\PSoC4/RTC.h **** 
 752:Generated_Source\PSoC4/RTC.h **** /*******************************************************************************
 753:Generated_Source\PSoC4/RTC.h **** * Function Name: RTC_GetMonth
 754:Generated_Source\PSoC4/RTC.h **** ****************************************************************************//**
 755:Generated_Source\PSoC4/RTC.h **** *
 756:Generated_Source\PSoC4/RTC.h **** * Returns the month value from the date value that is passed as parameter.
 757:Generated_Source\PSoC4/RTC.h **** *
 758:Generated_Source\PSoC4/RTC.h **** * \param date
 759:Generated_Source\PSoC4/RTC.h **** * The date value.
 760:Generated_Source\PSoC4/RTC.h **** *
 761:Generated_Source\PSoC4/RTC.h **** * \return
 762:Generated_Source\PSoC4/RTC.h **** * The month value.
ARM GAS  C:\Users\Petro\AppData\Local\Temp\ccIOBOOq.s 			page 16


 763:Generated_Source\PSoC4/RTC.h **** *
 764:Generated_Source\PSoC4/RTC.h **** *******************************************************************************/
 765:Generated_Source\PSoC4/RTC.h **** static CY_INLINE uint32 RTC_GetMonth(uint32 date)
 766:Generated_Source\PSoC4/RTC.h **** {
 767:Generated_Source\PSoC4/RTC.h ****     uint32 retVal;
 768:Generated_Source\PSoC4/RTC.h **** 
 769:Generated_Source\PSoC4/RTC.h ****     retVal  = ((date & RTC_10_MONTH_MASK) >> RTC_10_MONTH_OFFSET) * 10u;
 770:Generated_Source\PSoC4/RTC.h ****     retVal += (date & RTC_MONTH_MASK) >> RTC_MONTH_OFFSET;
 771:Generated_Source\PSoC4/RTC.h **** 
 772:Generated_Source\PSoC4/RTC.h ****     return (retVal);
 773:Generated_Source\PSoC4/RTC.h **** }
 774:Generated_Source\PSoC4/RTC.h **** 
 775:Generated_Source\PSoC4/RTC.h **** 
 776:Generated_Source\PSoC4/RTC.h **** /*******************************************************************************
 777:Generated_Source\PSoC4/RTC.h **** * Function Name: RTC_GetYear
 778:Generated_Source\PSoC4/RTC.h **** ****************************************************************************//**
 779:Generated_Source\PSoC4/RTC.h **** *
 780:Generated_Source\PSoC4/RTC.h **** * Returns the year value from the date value that is passed as parameter.
 781:Generated_Source\PSoC4/RTC.h **** *
 782:Generated_Source\PSoC4/RTC.h **** * \param date
 783:Generated_Source\PSoC4/RTC.h **** * The date value.
 784:Generated_Source\PSoC4/RTC.h **** *
 785:Generated_Source\PSoC4/RTC.h **** * \return
 786:Generated_Source\PSoC4/RTC.h **** * The year value.
 787:Generated_Source\PSoC4/RTC.h **** *
 788:Generated_Source\PSoC4/RTC.h **** *******************************************************************************/
 789:Generated_Source\PSoC4/RTC.h **** static CY_INLINE uint32 RTC_GetYear(uint32 date)
 790:Generated_Source\PSoC4/RTC.h **** {
 791:Generated_Source\PSoC4/RTC.h ****     uint32 retVal;
 792:Generated_Source\PSoC4/RTC.h **** 
 793:Generated_Source\PSoC4/RTC.h ****     retVal  = ((date & RTC_1000_YEAR_MASK) >> RTC_1000_YEAR_OFFSET) * 1000u;
 794:Generated_Source\PSoC4/RTC.h ****     retVal += ((date & RTC_100_YEAR_MASK) >> RTC_100_YEAR_OFFSET) * 100u;
 795:Generated_Source\PSoC4/RTC.h ****     retVal += ((date & RTC_10_YEAR_MASK) >> RTC_10_YEAR_OFFSET) * 10u;
  54              		.loc 2 795 0
  55 0010 0F23     		movs	r3, #15
  56              	.LBE26:
  57              	.LBE25:
  58              		.loc 1 40 0
  59 0012 0200     		movs	r2, r0
  60              	.LVL2:
  61              	.LBB28:
  62              	.LBB27:
  63              		.loc 2 795 0
  64 0014 0709     		lsrs	r7, r0, #4
  65 0016 0A20     		movs	r0, #10
  66              	.LVL3:
  67 0018 1F40     		ands	r7, r3
  68 001a 4743     		muls	r7, r0
  69 001c 0197     		str	r7, [sp, #4]
  70              	.LVL4:
  71 001e 0327     		movs	r7, #3
  72              	.LVL5:
  73 0020 110B     		lsrs	r1, r2, #12
  74 0022 A400     		lsls	r4, r4, #2
  75 0024 3940     		ands	r1, r7
  76 0026 6143     		muls	r1, r4
  77 0028 1400     		movs	r4, r2
ARM GAS  C:\Users\Petro\AppData\Local\Temp\ccIOBOOq.s 			page 17


  78 002a 284D     		ldr	r5, .L8+4
  79 002c 1C40     		ands	r4, r3
  80 002e 6419     		adds	r4, r4, r5
  81 0030 6425     		movs	r5, #100
  82 0032 0919     		adds	r1, r1, r4
  83 0034 140A     		lsrs	r4, r2, #8
  84 0036 1C40     		ands	r4, r3
  85 0038 6C43     		muls	r4, r5
  86              	.LBE27:
  87              	.LBE28:
  88              	.LBB29:
  89              	.LBB30:
 769:Generated_Source\PSoC4/RTC.h ****     retVal += (date & RTC_MONTH_MASK) >> RTC_MONTH_OFFSET;
  90              		.loc 2 769 0
  91 003a D500     		lsls	r5, r2, #3
  92 003c 0919     		adds	r1, r1, r4
  93 003e ED0F     		lsrs	r5, r5, #31
  94 0040 8C46     		mov	ip, r1
  95              	.LVL6:
  96 0042 2900     		movs	r1, r5
  97 0044 4143     		muls	r1, r0
  98              	.LVL7:
 770:Generated_Source\PSoC4/RTC.h **** 
  99              		.loc 2 770 0
 100 0046 150E     		lsrs	r5, r2, #24
 101              	.LBE30:
 102              	.LBE29:
 103              	.LBB32:
 104              	.LBB33:
 745:Generated_Source\PSoC4/RTC.h ****     retVal += (date & RTC_DAY_MASK) >> RTC_DAY_OFFSET;
 105              		.loc 2 745 0
 106 0048 140D     		lsrs	r4, r2, #20
 107 004a 3C40     		ands	r4, r7
 108              	.LBE33:
 109              	.LBE32:
 110              	.LBB35:
 111              	.LBB31:
 770:Generated_Source\PSoC4/RTC.h **** 
 112              		.loc 2 770 0
 113 004c 1D40     		ands	r5, r3
 114 004e 6D18     		adds	r5, r5, r1
 115              	.LVL8:
 116              	.LBE31:
 117              	.LBE35:
 118              	.LBB36:
 119              	.LBB34:
 745:Generated_Source\PSoC4/RTC.h ****     retVal += (date & RTC_DAY_MASK) >> RTC_DAY_OFFSET;
 120              		.loc 2 745 0
 121 0050 2100     		movs	r1, r4
 122 0052 4143     		muls	r1, r0
 123              	.LVL9:
 746:Generated_Source\PSoC4/RTC.h **** 
 124              		.loc 2 746 0
 125 0054 140C     		lsrs	r4, r2, #16
 126 0056 1C40     		ands	r4, r3
 127 0058 6418     		adds	r4, r4, r1
 128              	.LVL10:
ARM GAS  C:\Users\Petro\AppData\Local\Temp\ccIOBOOq.s 			page 18


 129              	.LBE34:
 130              	.LBE36:
  41:..\..\common\lib\lib_Fat/rtc_fat.c ****     rtcYear = RTC_GetYear(rtcDate);
  42:..\..\common\lib\lib_Fat/rtc_fat.c ****     rtcMonth = RTC_GetMonth(rtcDate);
  43:..\..\common\lib\lib_Fat/rtc_fat.c ****     rtcDay = RTC_GetDay(rtcDate);
  44:..\..\common\lib\lib_Fat/rtc_fat.c ****     if(RTC_GetAmPm(rtcTime) == RTC_AM)
 131              		.loc 1 44 0
 132 005a 3168     		ldr	r1, [r6]
 133              	.LVL11:
 134 005c 1C4E     		ldr	r6, .L8+8
 135              	.LBB37:
 136              	.LBB38:
 137              	.LBB39:
 601:Generated_Source\PSoC4/RTC.h **** }
 138              		.loc 2 601 0
 139 005e 4A02     		lsls	r2, r1, #9
 140 0060 07D4     		bmi	.L2
 141              	.LVL12:
 142              	.LBE39:
 143              	.LBE38:
 144              	.LBE37:
 145              	.LBB40:
 146              	.LBB41:
 745:Generated_Source\PSoC4/RTC.h ****     retVal += (date & RTC_DAY_MASK) >> RTC_DAY_OFFSET;
 147              		.loc 2 745 0
 148 0062 0A0D     		lsrs	r2, r1, #20
 149 0064 3A40     		ands	r2, r7
 150 0066 5043     		muls	r0, r2
 151              	.LVL13:
 152              	.LBE41:
 153              	.LBE40:
  45:..\..\common\lib\lib_Fat/rtc_fat.c ****     {
  46:..\..\common\lib\lib_Fat/rtc_fat.c ****         rtcHour = RTC_GetHours(rtcTime);
 154              		.loc 1 46 0
 155 0068 0A0C     		lsrs	r2, r1, #16
 156 006a 1340     		ands	r3, r2
 157 006c 1818     		adds	r0, r3, r0
 158 006e 3060     		str	r0, [r6]
 159 0070 07E0     		b	.L4
 160              	.LVL14:
 161              	.L2:
  47:..\..\common\lib\lib_Fat/rtc_fat.c ****     }else
  48:..\..\common\lib\lib_Fat/rtc_fat.c ****     {
  49:..\..\common\lib\lib_Fat/rtc_fat.c ****         rtcHour = RTC_GetHours(rtcTime)+12;
 162              		.loc 1 49 0
 163 0072 0A0C     		lsrs	r2, r1, #16
 164 0074 1A40     		ands	r2, r3
 165 0076 0B0D     		lsrs	r3, r1, #20
 166 0078 3B40     		ands	r3, r7
 167 007a 5843     		muls	r0, r3
 168 007c 0C32     		adds	r2, r2, #12
 169 007e 1218     		adds	r2, r2, r0
 170 0080 3260     		str	r2, [r6]
 171              	.L4:
 172              	.LVL15:
 173              	.LBB42:
 174              	.LBB43:
ARM GAS  C:\Users\Petro\AppData\Local\Temp\ccIOBOOq.s 			page 19


 678:Generated_Source\PSoC4/RTC.h ****     retVal += (inputTime & RTC_MINUTES_MASK) >> RTC_MINUTES_OFFSET;
 175              		.loc 2 678 0
 176 0082 0720     		movs	r0, #7
 177 0084 0A26     		movs	r6, #10
 178 0086 0B0B     		lsrs	r3, r1, #12
 179 0088 0340     		ands	r3, r0
 180 008a 7343     		muls	r3, r6
 181 008c 1A00     		movs	r2, r3
 182              	.LVL16:
 183              	.LBE43:
 184              	.LBE42:
 185              	.LBB44:
 186              	.LBB45:
 653:Generated_Source\PSoC4/RTC.h ****     retVal += (inputTime & RTC_SECONDS_MASK) >> RTC_SECONDS_OFFSET;
 187              		.loc 2 653 0
 188 008e 0B09     		lsrs	r3, r1, #4
 189 0090 1840     		ands	r0, r3
 190 0092 4643     		muls	r6, r0
 191              	.LVL17:
 192              	.LBE45:
 193              	.LBE44:
  50:..\..\common\lib\lib_Fat/rtc_fat.c ****     }
  51:..\..\common\lib\lib_Fat/rtc_fat.c ****     rtcMinutes = RTC_GetMinutes(rtcTime);
  52:..\..\common\lib\lib_Fat/rtc_fat.c ****     rtcSeconds = RTC_GetSecond(rtcTime);
  53:..\..\common\lib\lib_Fat/rtc_fat.c ****     /* Pack date and time into a DWORD variable */
  54:..\..\common\lib\lib_Fat/rtc_fat.c **** 	return (((DWORD)rtcYear - 1980) << 25) | ((DWORD)rtcMonth << 21) | ((DWORD)rtcDay << 16)| (WORD)(r
 194              		.loc 1 54 0
 195 0094 0F23     		movs	r3, #15
 196 0096 0800     		movs	r0, r1
 197 0098 1840     		ands	r0, r3
 198 009a 8619     		adds	r6, r0, r6
 199 009c 0C48     		ldr	r0, .L8+8
 200 009e 7608     		lsrs	r6, r6, #1
 201 00a0 0068     		ldr	r0, [r0]
 202 00a2 090A     		lsrs	r1, r1, #8
 203 00a4 C002     		lsls	r0, r0, #11
 204 00a6 80B2     		uxth	r0, r0
 205 00a8 3043     		orrs	r0, r6
 206 00aa 0B40     		ands	r3, r1
 207 00ac 0100     		movs	r1, r0
 208 00ae 9B18     		adds	r3, r3, r2
 209 00b0 5B01     		lsls	r3, r3, #5
 210 00b2 9BB2     		uxth	r3, r3
 211 00b4 1943     		orrs	r1, r3
 212 00b6 019B     		ldr	r3, [sp, #4]
 213 00b8 6805     		lsls	r0, r5, #21
 214 00ba 0843     		orrs	r0, r1
 215 00bc 2404     		lsls	r4, r4, #16
 216 00be 6344     		add	r3, r3, ip
 217 00c0 5F06     		lsls	r7, r3, #25
 218 00c2 2043     		orrs	r0, r4
 219 00c4 3843     		orrs	r0, r7
  55:..\..\common\lib\lib_Fat/rtc_fat.c ****             (WORD)(rtcMinutes << 5)	| (WORD)(rtcSeconds >> 1);
  56:..\..\common\lib\lib_Fat/rtc_fat.c **** }
 220              		.loc 1 56 0
 221              		@ sp needed
 222 00c6 FEBD     		pop	{r1, r2, r3, r4, r5, r6, r7, pc}
ARM GAS  C:\Users\Petro\AppData\Local\Temp\ccIOBOOq.s 			page 20


 223              	.L9:
 224              		.align	2
 225              	.L8:
 226 00c8 00000000 		.word	.LANCHOR0
 227 00cc 44F8FFFF 		.word	-1980
 228 00d0 00000000 		.word	.LANCHOR1
 229              		.cfi_endproc
 230              	.LFE62:
 231              		.size	get_fattime, .-get_fattime
 232              		.data
 233              		.align	2
 234              		.set	.LANCHOR1,. + 0
 235              		.type	rtcHour, %object
 236              		.size	rtcHour, 4
 237              	rtcHour:
 238 0000 15000000 		.word	21
 239              		.bss
 240              		.align	2
 241              		.set	.LANCHOR0,. + 0
 242              		.type	rtcTime, %object
 243              		.size	rtcTime, 4
 244              	rtcTime:
 245 0000 00000000 		.space	4
 246              		.text
 247              	.Letext0:
 248              		.file 3 "c:\\program files (x86)\\cypress\\psoc creator\\4.1\\psoc creator\\import\\gnu\\arm\\5.4.
 249              		.file 4 "c:\\program files (x86)\\cypress\\psoc creator\\4.1\\psoc creator\\import\\gnu\\arm\\5.4.
 250              		.file 5 "Generated_Source\\PSoC4/cytypes.h"
 251              		.file 6 "..\\..\\common\\lib\\lib_Fat\\integer.h"