ARM GAS  C:\Users\Petro\AppData\Local\Temp\ccUQeyWd.s 			page 1


   1              		.syntax unified
   2              		.cpu cortex-m0
   3              		.fpu softvfp
   4              		.eabi_attribute 20, 1
   5              		.eabi_attribute 21, 1
   6              		.eabi_attribute 23, 3
   7              		.eabi_attribute 24, 1
   8              		.eabi_attribute 25, 1
   9              		.eabi_attribute 26, 1
  10              		.eabi_attribute 30, 4
  11              		.eabi_attribute 34, 0
  12              		.eabi_attribute 18, 4
  13              		.thumb
  14              		.syntax unified
  15              		.file	"sdcard.c"
  16              		.text
  17              	.Ltext0:
  18              		.cfi_sections	.debug_frame
  19              		.section	.text.rcvr_mmc,"ax",%progbits
  20              		.align	1
  21              		.code	16
  22              		.thumb_func
  23              		.type	rcvr_mmc, %function
  24              	rcvr_mmc:
  25              	.LFB63:
  26              		.file 1 "..\\..\\common\\lib\\lib_Fat\\sdcard.c"
   1:..\..\common\lib\lib_Fat/sdcard.c **** /*------------------------------------------------------------------------/
   2:..\..\common\lib\lib_Fat/sdcard.c **** /  Foolproof MMCv3/SDv1/SDv2 (in SPI mode) control module
   3:..\..\common\lib\lib_Fat/sdcard.c **** /-------------------------------------------------------------------------/
   4:..\..\common\lib\lib_Fat/sdcard.c **** /
   5:..\..\common\lib\lib_Fat/sdcard.c **** /  Copyright (C) 2013, ChaN, all right reserved.
   6:..\..\common\lib\lib_Fat/sdcard.c **** /
   7:..\..\common\lib\lib_Fat/sdcard.c **** / * This software is a free software and there is NO WARRANTY.
   8:..\..\common\lib\lib_Fat/sdcard.c **** / * No restriction on use. You can use, modify and redistribute it for
   9:..\..\common\lib\lib_Fat/sdcard.c **** /   personal, non-profit or commercial products UNDER YOUR RESPONSIBILITY.
  10:..\..\common\lib\lib_Fat/sdcard.c **** / * Redistributions of source code must retain the above copyright notice.
  11:..\..\common\lib\lib_Fat/sdcard.c **** /
  12:..\..\common\lib\lib_Fat/sdcard.c **** /-------------------------------------------------------------------------/
  13:..\..\common\lib\lib_Fat/sdcard.c ****   Features and Limitations:
  14:..\..\common\lib\lib_Fat/sdcard.c **** 
  15:..\..\common\lib\lib_Fat/sdcard.c ****   * Easy to Port Bit-banging SPI
  16:..\..\common\lib\lib_Fat/sdcard.c ****     It uses only four GPIO pins. No complex peripheral needs to be used.
  17:..\..\common\lib\lib_Fat/sdcard.c **** 
  18:..\..\common\lib\lib_Fat/sdcard.c ****   * No Media Change Detection
  19:..\..\common\lib\lib_Fat/sdcard.c ****     Application program needs to perform a f_mount() after media change.
  20:..\..\common\lib\lib_Fat/sdcard.c **** 
  21:..\..\common\lib\lib_Fat/sdcard.c **** /-------------------------------------------------------------------------*/
  22:..\..\common\lib\lib_Fat/sdcard.c **** 
  23:..\..\common\lib\lib_Fat/sdcard.c **** 
  24:..\..\common\lib\lib_Fat/sdcard.c **** #include "diskio.h"		/* Common include file for FatFs and disk I/O layer */
  25:..\..\common\lib\lib_Fat/sdcard.c **** 
  26:..\..\common\lib\lib_Fat/sdcard.c **** 
  27:..\..\common\lib\lib_Fat/sdcard.c **** /*-------------------------------------------------------------------------*/
  28:..\..\common\lib\lib_Fat/sdcard.c **** /* Platform dependent macros and functions needed to be modified           */
  29:..\..\common\lib\lib_Fat/sdcard.c **** /*-------------------------------------------------------------------------*/
  30:..\..\common\lib\lib_Fat/sdcard.c **** 
  31:..\..\common\lib\lib_Fat/sdcard.c **** #include <project.h>
ARM GAS  C:\Users\Petro\AppData\Local\Temp\ccUQeyWd.s 			page 2


  32:..\..\common\lib\lib_Fat/sdcard.c **** #include <cytypes.h>
  33:..\..\common\lib\lib_Fat/sdcard.c **** 
  34:..\..\common\lib\lib_Fat/sdcard.c ****     /* Put here the same name of the SPI bus module you have used in schematic. */
  35:..\..\common\lib\lib_Fat/sdcard.c **** #define SPI_NAME                SPI  
  36:..\..\common\lib\lib_Fat/sdcard.c **** #define SPI_HW_NAME             SwSPI_Master
  37:..\..\common\lib\lib_Fat/sdcard.c **** /* Put here function used to control SPI SS line.
  38:..\..\common\lib\lib_Fat/sdcard.c ****        Example: 
  39:..\..\common\lib\lib_Fat/sdcard.c ****         - if using Cypress API macros: SPI_ss0_m_Write
  40:..\..\common\lib\lib_Fat/sdcard.c ****         - if using another gpio pint: SPI_SS_Write. */
  41:..\..\common\lib\lib_Fat/sdcard.c **** #define mmSPI_SS_Write(value)   SPI_ss0_m_Write(value)
  42:..\..\common\lib\lib_Fat/sdcard.c **** //#define mmSPI_SS_Write(value)     SPI_SS_Write(value)       
  43:..\..\common\lib\lib_Fat/sdcard.c **** 
  44:..\..\common\lib\lib_Fat/sdcard.c **** #define CS_DELAY_US             1
  45:..\..\common\lib\lib_Fat/sdcard.c **** #define M_DELAY_US              100
  46:..\..\common\lib\lib_Fat/sdcard.c **** 
  47:..\..\common\lib\lib_Fat/sdcard.c ****     /* Text substitution macros to avoid changing function names related to SPI API
  48:..\..\common\lib\lib_Fat/sdcard.c ****        if SPI module name is changed in schematic. */
  49:..\..\common\lib\lib_Fat/sdcard.c **** 
  50:..\..\common\lib\lib_Fat/sdcard.c **** #define CONCATENATE(name, function)                 CONCAT(name, function)
  51:..\..\common\lib\lib_Fat/sdcard.c **** #define CONCAT(name, function)                      name##function
  52:..\..\common\lib\lib_Fat/sdcard.c **** 
  53:..\..\common\lib\lib_Fat/sdcard.c **** #if (CY_PSOC4)
  54:..\..\common\lib\lib_Fat/sdcard.c **** 
  55:..\..\common\lib\lib_Fat/sdcard.c ****     
  56:..\..\common\lib\lib_Fat/sdcard.c ****     /*
  57:..\..\common\lib\lib_Fat/sdcard.c ****     #define mmSPI_SpiUartClearTxBuffer                  CONCATENATE(SPI_NAME, _SpiUartClearTxBuffer
  58:..\..\common\lib\lib_Fat/sdcard.c ****     #define mmSPI_SpiUartClearRxBuffer                  CONCATENATE(SPI_NAME, _SpiUartClearRxBuffer
  59:..\..\common\lib\lib_Fat/sdcard.c ****     #define mmSPI_SpiUartPutArray(a, b)                 CONCATENATE(SPI_NAME, _SpiUartPutArray(a, b
  60:..\..\common\lib\lib_Fat/sdcard.c ****     #define mmSPI_SpiUartWriteTxData(value)             CONCATENATE(SPI_NAME, _SpiUartWriteTxData(v
  61:..\..\common\lib\lib_Fat/sdcard.c ****     #define mmSPI_SpiUartReadRxData                     CONCATENATE(SPI_NAME, _SpiUartReadRxData)
  62:..\..\common\lib\lib_Fat/sdcard.c ****     #define mmSPI_GetMasterInterruptSource              CONCATENATE(SPI_NAME, _GetMasterInterruptSo
  63:..\..\common\lib\lib_Fat/sdcard.c ****     #define mmSPI_ClearMasterInterruptSource(value)     CONCATENATE(SPI_NAME, _ClearMasterInterrupt
  64:..\..\common\lib\lib_Fat/sdcard.c ****     #define mmSPI_INTR_MASTER_SPI_DONE                  CONCATENATE(SPI_NAME, _INTR_MASTER_SPI_DONE
  65:..\..\common\lib\lib_Fat/sdcard.c ****     */
  66:..\..\common\lib\lib_Fat/sdcard.c ****     
  67:..\..\common\lib\lib_Fat/sdcard.c ****     //#define mmSPI_SpiUartClearTxBuffer                  CONCATENATE(SPI_NAME, _SpiUartClearTxBuff
  68:..\..\common\lib\lib_Fat/sdcard.c ****     //#define mmSPI_SpiUartClearRxBuffer                  CONCATENATE(SPI_NAME, _SpiUartClearRxBuff
  69:..\..\common\lib\lib_Fat/sdcard.c ****     #define mmSPI_SpiUartPutArray(a, b)                 CONCATENATE(SPI_HW_NAME, _SendBuff(a, b)) 
  70:..\..\common\lib\lib_Fat/sdcard.c ****     #define mmSPI_SpiUartWriteTxData(value)             CONCATENATE(SPI_HW_NAME, _SendByte(value))
  71:..\..\common\lib\lib_Fat/sdcard.c ****     #define mmSPI_SpiUartReadRxData                     CONCATENATE(SPI_HW_NAME, _RecvByte)
  72:..\..\common\lib\lib_Fat/sdcard.c ****     
  73:..\..\common\lib\lib_Fat/sdcard.c ****     //#define mmSPI_GetMasterInterruptSource              CONCATENATE(SPI_HW_NAME, _GetMasterInterr
  74:..\..\common\lib\lib_Fat/sdcard.c ****     //#define mmSPI_ClearMasterInterruptSource(value)     CONCATENATE(SPI_HW_NAME, _ClearMasterInte
  75:..\..\common\lib\lib_Fat/sdcard.c ****     //#define mmSPI_INTR_MASTER_SPI_DONE                  CONCATENATE(SPI_HW_NAME, _INTR_MASTER_SPI
  76:..\..\common\lib\lib_Fat/sdcard.c **** 
  77:..\..\common\lib\lib_Fat/sdcard.c ****     
  78:..\..\common\lib\lib_Fat/sdcard.c **** #endif    
  79:..\..\common\lib\lib_Fat/sdcard.c **** 
  80:..\..\common\lib\lib_Fat/sdcard.c **** #if (CY_PSOC5LP) 
  81:..\..\common\lib\lib_Fat/sdcard.c ****     #define mmSPI_SpiUartClearTxBuffer                  CONCATENATE(SPI_NAME, _ClearTxBuffer)
  82:..\..\common\lib\lib_Fat/sdcard.c ****     #define mmSPI_SpiUartClearRxBuffer                  CONCATENATE(SPI_NAME, _ClearRxBuffer)    
  83:..\..\common\lib\lib_Fat/sdcard.c ****     #define mmSPI_SpiUartPutArray(a, b)                 CONCATENATE(SPI_NAME, _PutArray(a, b)) 
  84:..\..\common\lib\lib_Fat/sdcard.c ****     #define mmSPI_SpiUartWriteTxData(value)             CONCATENATE(SPI_NAME, _WriteTxData(value))
  85:..\..\common\lib\lib_Fat/sdcard.c ****     #define mmSPI_SpiUartReadRxData                     CONCATENATE(SPI_NAME, _ReadRxData)
  86:..\..\common\lib\lib_Fat/sdcard.c ****     #define mmSPI_GetMasterInterruptSource              CONCATENATE(SPI_NAME, _GetMasterInterruptSo
  87:..\..\common\lib\lib_Fat/sdcard.c ****     #define mmSPI_ClearMasterInterruptSource(value)     CONCATENATE(SPI_NAME, _ClearMasterInterrupt
  88:..\..\common\lib\lib_Fat/sdcard.c ****     #define mmSPI_INTR_MASTER_SPI_DONE                  CONCATENATE(SPI_NAME, _INTR_MASTER_SPI_DONE
ARM GAS  C:\Users\Petro\AppData\Local\Temp\ccUQeyWd.s 			page 3


  89:..\..\common\lib\lib_Fat/sdcard.c **** #endif 
  90:..\..\common\lib\lib_Fat/sdcard.c **** 
  91:..\..\common\lib\lib_Fat/sdcard.c ****     /* Delays. */
  92:..\..\common\lib\lib_Fat/sdcard.c **** #define dly_us(n)               CyDelayUs(n); /* Delay n microseconds. */
  93:..\..\common\lib\lib_Fat/sdcard.c **** 
  94:..\..\common\lib\lib_Fat/sdcard.c **** /*--------------------------------------------------------------------------
  95:..\..\common\lib\lib_Fat/sdcard.c **** 
  96:..\..\common\lib\lib_Fat/sdcard.c ****    Module Private Functions
  97:..\..\common\lib\lib_Fat/sdcard.c **** 
  98:..\..\common\lib\lib_Fat/sdcard.c **** ---------------------------------------------------------------------------*/
  99:..\..\common\lib\lib_Fat/sdcard.c **** 
 100:..\..\common\lib\lib_Fat/sdcard.c **** /* MMC/SD command (SPI mode) */
 101:..\..\common\lib\lib_Fat/sdcard.c **** #define CMD0	(0)			/* GO_IDLE_STATE */
 102:..\..\common\lib\lib_Fat/sdcard.c **** #define CMD1	(1)			/* SEND_OP_COND */
 103:..\..\common\lib\lib_Fat/sdcard.c **** #define	ACMD41	(0x80+41)	/* SEND_OP_COND (SDC) */
 104:..\..\common\lib\lib_Fat/sdcard.c **** #define CMD8	(8)			/* SEND_IF_COND */
 105:..\..\common\lib\lib_Fat/sdcard.c **** #define CMD9	(9)			/* SEND_CSD */
 106:..\..\common\lib\lib_Fat/sdcard.c **** #define CMD10	(10)		/* SEND_CID */
 107:..\..\common\lib\lib_Fat/sdcard.c **** #define CMD12	(12)		/* STOP_TRANSMISSION */
 108:..\..\common\lib\lib_Fat/sdcard.c **** #define CMD13	(13)		/* SEND_STATUS */
 109:..\..\common\lib\lib_Fat/sdcard.c **** #define ACMD13	(0x80+13)	/* SD_STATUS (SDC) */
 110:..\..\common\lib\lib_Fat/sdcard.c **** #define CMD16	(16)		/* SET_BLOCKLEN */
 111:..\..\common\lib\lib_Fat/sdcard.c **** #define CMD17	(17)		/* READ_SINGLE_BLOCK */
 112:..\..\common\lib\lib_Fat/sdcard.c **** #define CMD18	(18)		/* READ_MULTIPLE_BLOCK */
 113:..\..\common\lib\lib_Fat/sdcard.c **** #define CMD23	(23)		/* SET_BLOCK_COUNT */
 114:..\..\common\lib\lib_Fat/sdcard.c **** #define	ACMD23	(0x80+23)	/* SET_WR_BLK_ERASE_COUNT (SDC) */
 115:..\..\common\lib\lib_Fat/sdcard.c **** #define CMD24	(24)		/* WRITE_BLOCK */
 116:..\..\common\lib\lib_Fat/sdcard.c **** #define CMD25	(25)		/* WRITE_MULTIPLE_BLOCK */
 117:..\..\common\lib\lib_Fat/sdcard.c **** #define CMD32	(32)		/* ERASE_ER_BLK_START */
 118:..\..\common\lib\lib_Fat/sdcard.c **** #define CMD33	(33)		/* ERASE_ER_BLK_END */
 119:..\..\common\lib\lib_Fat/sdcard.c **** #define CMD38	(38)		/* ERASE */
 120:..\..\common\lib\lib_Fat/sdcard.c **** #define CMD55	(55)		/* APP_CMD */
 121:..\..\common\lib\lib_Fat/sdcard.c **** #define CMD58	(58)		/* READ_OCR */
 122:..\..\common\lib\lib_Fat/sdcard.c **** 
 123:..\..\common\lib\lib_Fat/sdcard.c **** 
 124:..\..\common\lib\lib_Fat/sdcard.c **** static DSTATUS Stat = STA_NOINIT;	/* Disk status */
 125:..\..\common\lib\lib_Fat/sdcard.c **** 
 126:..\..\common\lib\lib_Fat/sdcard.c **** static BYTE CardType;			/* b0:MMC, b1:SDv1, b2:SDv2, b3:Block addressing */
 127:..\..\common\lib\lib_Fat/sdcard.c **** 
 128:..\..\common\lib\lib_Fat/sdcard.c **** /*-----------------------------------------------------------------------*/
 129:..\..\common\lib\lib_Fat/sdcard.c **** /* Transmit bytes to the card                                            */
 130:..\..\common\lib\lib_Fat/sdcard.c **** /*-----------------------------------------------------------------------*/
 131:..\..\common\lib\lib_Fat/sdcard.c **** 
 132:..\..\common\lib\lib_Fat/sdcard.c **** static void xmit_mmc(const BYTE* buff, UINT bc)
 133:..\..\common\lib\lib_Fat/sdcard.c **** {
 134:..\..\common\lib\lib_Fat/sdcard.c **** 
 135:..\..\common\lib\lib_Fat/sdcard.c **** #if (CY_PSOC4)
 136:..\..\common\lib\lib_Fat/sdcard.c ****     SD_CS_Write(0);
 137:..\..\common\lib\lib_Fat/sdcard.c **** 
 138:..\..\common\lib\lib_Fat/sdcard.c **** //    mmSPI_SpiUartClearTxBuffer();
 139:..\..\common\lib\lib_Fat/sdcard.c **** //    mmSPI_SpiUartClearRxBuffer();
 140:..\..\common\lib\lib_Fat/sdcard.c ****       mmSPI_SpiUartPutArray(buff, bc);
 141:..\..\common\lib\lib_Fat/sdcard.c **** //    SPIM_ClearTxBuffer();
 142:..\..\common\lib\lib_Fat/sdcard.c **** //    SPIM_ClearRxBuffer();
 143:..\..\common\lib\lib_Fat/sdcard.c ****     
 144:..\..\common\lib\lib_Fat/sdcard.c ****     CyDelay(5);
 145:..\..\common\lib\lib_Fat/sdcard.c ****     SD_CS_Write(1);
ARM GAS  C:\Users\Petro\AppData\Local\Temp\ccUQeyWd.s 			page 4


 146:..\..\common\lib\lib_Fat/sdcard.c ****     //while(SPIM_ReadTxStatus() == SPIM_STS_TX_FIFO_NOT_FULL);
 147:..\..\common\lib\lib_Fat/sdcard.c ****     //while(0u == (mmSPI_GetMasterInterruptSource() & mmSPI_INTR_MASTER_SPI_DONE));
 148:..\..\common\lib\lib_Fat/sdcard.c ****     
 149:..\..\common\lib\lib_Fat/sdcard.c **** #endif
 150:..\..\common\lib\lib_Fat/sdcard.c **** 
 151:..\..\common\lib\lib_Fat/sdcard.c **** #if (CY_PSOC5LP)
 152:..\..\common\lib\lib_Fat/sdcard.c ****     
 153:..\..\common\lib\lib_Fat/sdcard.c ****     UINT loop;
 154:..\..\common\lib\lib_Fat/sdcard.c ****     
 155:..\..\common\lib\lib_Fat/sdcard.c ****     SPI_ClearTxBuffer();
 156:..\..\common\lib\lib_Fat/sdcard.c ****     SPI_ClearRxBuffer();
 157:..\..\common\lib\lib_Fat/sdcard.c ****     
 158:..\..\common\lib\lib_Fat/sdcard.c ****     for (loop = 0; loop < bc; loop++)
 159:..\..\common\lib\lib_Fat/sdcard.c ****         SPI_WriteTxData(buff[loop]);
 160:..\..\common\lib\lib_Fat/sdcard.c ****     
 161:..\..\common\lib\lib_Fat/sdcard.c ****     while (SPI_GetTxBufferSize()) {};
 162:..\..\common\lib\lib_Fat/sdcard.c ****     
 163:..\..\common\lib\lib_Fat/sdcard.c **** #endif    
 164:..\..\common\lib\lib_Fat/sdcard.c **** }
 165:..\..\common\lib\lib_Fat/sdcard.c **** 
 166:..\..\common\lib\lib_Fat/sdcard.c **** 
 167:..\..\common\lib\lib_Fat/sdcard.c **** 
 168:..\..\common\lib\lib_Fat/sdcard.c **** /*-----------------------------------------------------------------------*/
 169:..\..\common\lib\lib_Fat/sdcard.c **** /* Receive bytes from the card                                           */
 170:..\..\common\lib\lib_Fat/sdcard.c **** /*-----------------------------------------------------------------------*/
 171:..\..\common\lib\lib_Fat/sdcard.c **** 
 172:..\..\common\lib\lib_Fat/sdcard.c **** static void rcvr_mmc(BYTE *buff, UINT bc)
 173:..\..\common\lib\lib_Fat/sdcard.c **** {
  27              		.loc 1 173 0
  28              		.cfi_startproc
  29              		@ args = 0, pretend = 0, frame = 0
  30              		@ frame_needed = 0, uses_anonymous_args = 0
  31              	.LVL0:
  32 0000 70B5     		push	{r4, r5, r6, lr}
  33              		.cfi_def_cfa_offset 16
  34              		.cfi_offset 4, -16
  35              		.cfi_offset 5, -12
  36              		.cfi_offset 6, -8
  37              		.cfi_offset 14, -4
  38              		.loc 1 173 0
  39 0002 0500     		movs	r5, r0
 174:..\..\common\lib\lib_Fat/sdcard.c **** 
 175:..\..\common\lib\lib_Fat/sdcard.c **** #if (CY_PSOC4) 
 176:..\..\common\lib\lib_Fat/sdcard.c ****     
 177:..\..\common\lib\lib_Fat/sdcard.c ****     //mmSPI_SpiUartClearTxBuffer();
 178:..\..\common\lib\lib_Fat/sdcard.c ****     //mmSPI_SpiUartClearRxBuffer();
 179:..\..\common\lib\lib_Fat/sdcard.c ****     SD_CS_Write(0);
  40              		.loc 1 179 0
  41 0004 0020     		movs	r0, #0
  42              	.LVL1:
 173:..\..\common\lib\lib_Fat/sdcard.c **** 
  43              		.loc 1 173 0
  44 0006 0E00     		movs	r6, r1
  45 0008 2C00     		movs	r4, r5
  46              		.loc 1 179 0
  47 000a FFF7FEFF 		bl	SD_CS_Write
  48              	.LVL2:
ARM GAS  C:\Users\Petro\AppData\Local\Temp\ccUQeyWd.s 			page 5


  49              	.L2:
 180:..\..\common\lib\lib_Fat/sdcard.c **** //    SPIM_ClearRxBuffer();
 181:..\..\common\lib\lib_Fat/sdcard.c **** //    SPIM_ClearTxBuffer();
 182:..\..\common\lib\lib_Fat/sdcard.c ****     do
 183:..\..\common\lib\lib_Fat/sdcard.c ****     {
 184:..\..\common\lib\lib_Fat/sdcard.c **** 
 185:..\..\common\lib\lib_Fat/sdcard.c ****         //while(0u == (mmSPI_GetMasterInterruptSource() & mmSPI_INTR_MASTER_SPI_DONE));
 186:..\..\common\lib\lib_Fat/sdcard.c ****         //CyDelayUs(M_DELAY_US); // <*> adjust, why?
 187:..\..\common\lib\lib_Fat/sdcard.c **** //        mmSPI_SpiUartWriteTxData(0xFF);
 188:..\..\common\lib\lib_Fat/sdcard.c ****       *buff++ = (BYTE)mmSPI_SpiUartReadRxData();
  50              		.loc 1 188 0 discriminator 1
  51 000e FFF7FEFF 		bl	SwSPI_Master_RecvByte
  52              	.LVL3:
  53 0012 2070     		strb	r0, [r4]
  54              	.LVL4:
  55 0014 0134     		adds	r4, r4, #1
  56              	.LVL5:
  57 0016 A31B     		subs	r3, r4, r6
 189:..\..\common\lib\lib_Fat/sdcard.c **** //      while(SPIM_ReadStatus() == SPIM_STS_RX_FIFO_NOT_EMPTY);
 190:..\..\common\lib\lib_Fat/sdcard.c ****         //CyDelayUs(M_DELAY_US);
 191:..\..\common\lib\lib_Fat/sdcard.c ****         
 192:..\..\common\lib\lib_Fat/sdcard.c ****         //while(SPIM_STS_RX_FIFO_NOT_EMPTY == SPIM_ReadRxStatus()){
 193:..\..\common\lib\lib_Fat/sdcard.c **** //        SPIM_WriteTxData(0xff);
 194:..\..\common\lib\lib_Fat/sdcard.c **** //        
 195:..\..\common\lib\lib_Fat/sdcard.c **** //        *buff++ = (BYTE)SPIM_ReadRxData();
 196:..\..\common\lib\lib_Fat/sdcard.c ****         //}
 197:..\..\common\lib\lib_Fat/sdcard.c ****         
 198:..\..\common\lib\lib_Fat/sdcard.c ****     } while (--bc);   
  58              		.loc 1 198 0 discriminator 1
  59 0018 AB42     		cmp	r3, r5
  60 001a F8D1     		bne	.L2
 199:..\..\common\lib\lib_Fat/sdcard.c ****     //CyDelay(1);
 200:..\..\common\lib\lib_Fat/sdcard.c ****     SD_CS_Write(1);
  61              		.loc 1 200 0
  62 001c 0120     		movs	r0, #1
  63 001e FFF7FEFF 		bl	SD_CS_Write
  64              	.LVL6:
 201:..\..\common\lib\lib_Fat/sdcard.c ****     
 202:..\..\common\lib\lib_Fat/sdcard.c **** #endif    
 203:..\..\common\lib\lib_Fat/sdcard.c ****     
 204:..\..\common\lib\lib_Fat/sdcard.c **** #if (CY_PSOC5LP)
 205:..\..\common\lib\lib_Fat/sdcard.c ****     
 206:..\..\common\lib\lib_Fat/sdcard.c ****     SPI_ClearTxBuffer();
 207:..\..\common\lib\lib_Fat/sdcard.c ****     SPI_ClearRxBuffer();
 208:..\..\common\lib\lib_Fat/sdcard.c ****     
 209:..\..\common\lib\lib_Fat/sdcard.c ****     do
 210:..\..\common\lib\lib_Fat/sdcard.c ****     {
 211:..\..\common\lib\lib_Fat/sdcard.c **** 
 212:..\..\common\lib\lib_Fat/sdcard.c ****         SPI_WriteTxData(0xFF);
 213:..\..\common\lib\lib_Fat/sdcard.c ****         while (SPI_GetTxBufferSize()) {};
 214:..\..\common\lib\lib_Fat/sdcard.c ****         CyDelayUs(M_DELAY_US); // <*> adjust, why?
 215:..\..\common\lib\lib_Fat/sdcard.c ****         *buff++ = (BYTE)SPI_ReadRxData();
 216:..\..\common\lib\lib_Fat/sdcard.c **** 
 217:..\..\common\lib\lib_Fat/sdcard.c ****     } while (--bc);    
 218:..\..\common\lib\lib_Fat/sdcard.c ****     
 219:..\..\common\lib\lib_Fat/sdcard.c **** #endif        
 220:..\..\common\lib\lib_Fat/sdcard.c **** 
ARM GAS  C:\Users\Petro\AppData\Local\Temp\ccUQeyWd.s 			page 6


 221:..\..\common\lib\lib_Fat/sdcard.c **** }
  65              		.loc 1 221 0
  66              		@ sp needed
  67              	.LVL7:
  68 0022 70BD     		pop	{r4, r5, r6, pc}
  69              		.cfi_endproc
  70              	.LFE63:
  71              		.size	rcvr_mmc, .-rcvr_mmc
  72              		.section	.text.wait_ready,"ax",%progbits
  73              		.align	1
  74              		.code	16
  75              		.thumb_func
  76              		.type	wait_ready, %function
  77              	wait_ready:
  78              	.LFB64:
 222:..\..\common\lib\lib_Fat/sdcard.c **** 
 223:..\..\common\lib\lib_Fat/sdcard.c **** 
 224:..\..\common\lib\lib_Fat/sdcard.c **** 
 225:..\..\common\lib\lib_Fat/sdcard.c **** /*-----------------------------------------------------------------------*/
 226:..\..\common\lib\lib_Fat/sdcard.c **** /* Wait for card ready                                                   */
 227:..\..\common\lib\lib_Fat/sdcard.c **** /*-----------------------------------------------------------------------*/
 228:..\..\common\lib\lib_Fat/sdcard.c **** 
 229:..\..\common\lib\lib_Fat/sdcard.c **** static int wait_ready(void)	/* 1:OK, 0:Timeout */
 230:..\..\common\lib\lib_Fat/sdcard.c **** {
  79              		.loc 1 230 0
  80              		.cfi_startproc
  81              		@ args = 0, pretend = 0, frame = 8
  82              		@ frame_needed = 0, uses_anonymous_args = 0
  83              	.LVL8:
  84 0000 37B5     		push	{r0, r1, r2, r4, r5, lr}
  85              		.cfi_def_cfa_offset 24
  86              		.cfi_offset 0, -24
  87              		.cfi_offset 1, -20
  88              		.cfi_offset 2, -16
  89              		.cfi_offset 4, -12
  90              		.cfi_offset 5, -8
  91              		.cfi_offset 14, -4
 231:..\..\common\lib\lib_Fat/sdcard.c **** 	BYTE d;
 232:..\..\common\lib\lib_Fat/sdcard.c **** 	UINT tmr;
 233:..\..\common\lib\lib_Fat/sdcard.c **** 
 234:..\..\common\lib\lib_Fat/sdcard.c **** 	for (tmr = 5000; tmr; tmr--) {	/* Wait for ready in timeout of 500ms */
  92              		.loc 1 234 0
  93 0002 0A4C     		ldr	r4, .L12
  94              	.LVL9:
  95              	.L7:
 235:..\..\common\lib\lib_Fat/sdcard.c **** 		rcvr_mmc(&d, 1);
  96              		.loc 1 235 0
  97 0004 6B46     		mov	r3, sp
  98 0006 DD1D     		adds	r5, r3, #7
  99 0008 0121     		movs	r1, #1
 100 000a 2800     		movs	r0, r5
 101 000c FFF7FEFF 		bl	rcvr_mmc
 102              	.LVL10:
 236:..\..\common\lib\lib_Fat/sdcard.c **** 		if (d == 0xFF) break;
 103              		.loc 1 236 0
 104 0010 2B78     		ldrb	r3, [r5]
 105 0012 FF2B     		cmp	r3, #255
ARM GAS  C:\Users\Petro\AppData\Local\Temp\ccUQeyWd.s 			page 7


 106 0014 05D0     		beq	.L6
 237:..\..\common\lib\lib_Fat/sdcard.c **** 		dly_us(100);
 107              		.loc 1 237 0 discriminator 2
 108 0016 6420     		movs	r0, #100
 234:..\..\common\lib\lib_Fat/sdcard.c **** 		rcvr_mmc(&d, 1);
 109              		.loc 1 234 0 discriminator 2
 110 0018 013C     		subs	r4, r4, #1
 111              	.LVL11:
 112              		.loc 1 237 0 discriminator 2
 113 001a FFF7FEFF 		bl	CyDelayUs
 114              	.LVL12:
 234:..\..\common\lib\lib_Fat/sdcard.c **** 		rcvr_mmc(&d, 1);
 115              		.loc 1 234 0 discriminator 2
 116 001e 002C     		cmp	r4, #0
 117 0020 F0D1     		bne	.L7
 118              	.L6:
 238:..\..\common\lib\lib_Fat/sdcard.c **** 	}
 239:..\..\common\lib\lib_Fat/sdcard.c **** 
 240:..\..\common\lib\lib_Fat/sdcard.c **** 	return tmr ? 1 : 0;
 119              		.loc 1 240 0
 120 0022 2000     		movs	r0, r4
 241:..\..\common\lib\lib_Fat/sdcard.c **** }
 121              		.loc 1 241 0
 122              		@ sp needed
 240:..\..\common\lib\lib_Fat/sdcard.c **** }
 123              		.loc 1 240 0
 124 0024 441E     		subs	r4, r0, #1
 125 0026 A041     		sbcs	r0, r0, r4
 126              	.LVL13:
 127              		.loc 1 241 0
 128 0028 3EBD     		pop	{r1, r2, r3, r4, r5, pc}
 129              	.L13:
 130 002a C046     		.align	2
 131              	.L12:
 132 002c 88130000 		.word	5000
 133              		.cfi_endproc
 134              	.LFE64:
 135              		.size	wait_ready, .-wait_ready
 136              		.section	.text.deselect,"ax",%progbits
 137              		.align	1
 138              		.code	16
 139              		.thumb_func
 140              		.type	deselect, %function
 141              	deselect:
 142              	.LFB65:
 242:..\..\common\lib\lib_Fat/sdcard.c **** 
 243:..\..\common\lib\lib_Fat/sdcard.c **** /*-----------------------------------------------------------------------*/
 244:..\..\common\lib\lib_Fat/sdcard.c **** /* Deselect the card and release SPI bus                                 */
 245:..\..\common\lib\lib_Fat/sdcard.c **** /*-----------------------------------------------------------------------*/
 246:..\..\common\lib\lib_Fat/sdcard.c **** 
 247:..\..\common\lib\lib_Fat/sdcard.c **** static void deselect(void)
 248:..\..\common\lib\lib_Fat/sdcard.c **** {
 143              		.loc 1 248 0
 144              		.cfi_startproc
 145              		@ args = 0, pretend = 0, frame = 8
 146              		@ frame_needed = 0, uses_anonymous_args = 0
 147 0000 07B5     		push	{r0, r1, r2, lr}
ARM GAS  C:\Users\Petro\AppData\Local\Temp\ccUQeyWd.s 			page 8


 148              		.cfi_def_cfa_offset 16
 149              		.cfi_offset 0, -16
 150              		.cfi_offset 1, -12
 151              		.cfi_offset 2, -8
 152              		.cfi_offset 14, -4
 249:..\..\common\lib\lib_Fat/sdcard.c **** 	BYTE d;
 250:..\..\common\lib\lib_Fat/sdcard.c **** 
 251:..\..\common\lib\lib_Fat/sdcard.c ****     CyDelayUs(CS_DELAY_US); // <*> adjust
 153              		.loc 1 251 0
 154 0002 0120     		movs	r0, #1
 155 0004 FFF7FEFF 		bl	CyDelayUs
 156              	.LVL14:
 252:..\..\common\lib\lib_Fat/sdcard.c **** 	rcvr_mmc(&d, 1);	/* Dummy clock (force DO hi-z for multiple slave SPI) */
 157              		.loc 1 252 0
 158 0008 6B46     		mov	r3, sp
 159 000a 0121     		movs	r1, #1
 160 000c D81D     		adds	r0, r3, #7
 161 000e FFF7FEFF 		bl	rcvr_mmc
 162              	.LVL15:
 253:..\..\common\lib\lib_Fat/sdcard.c **** }
 163              		.loc 1 253 0
 164              		@ sp needed
 165 0012 07BD     		pop	{r0, r1, r2, pc}
 166              		.cfi_endproc
 167              	.LFE65:
 168              		.size	deselect, .-deselect
 169              		.section	.text.select,"ax",%progbits
 170              		.align	1
 171              		.code	16
 172              		.thumb_func
 173              		.type	select, %function
 174              	select:
 175              	.LFB66:
 254:..\..\common\lib\lib_Fat/sdcard.c **** 
 255:..\..\common\lib\lib_Fat/sdcard.c **** /*-----------------------------------------------------------------------*/
 256:..\..\common\lib\lib_Fat/sdcard.c **** /* Select the card and wait for ready                                    */
 257:..\..\common\lib\lib_Fat/sdcard.c **** /*-----------------------------------------------------------------------*/
 258:..\..\common\lib\lib_Fat/sdcard.c **** 
 259:..\..\common\lib\lib_Fat/sdcard.c **** static int select(void)	/* 1:OK, 0:Timeout */
 260:..\..\common\lib\lib_Fat/sdcard.c **** {
 176              		.loc 1 260 0
 177              		.cfi_startproc
 178              		@ args = 0, pretend = 0, frame = 8
 179              		@ frame_needed = 0, uses_anonymous_args = 0
 180 0000 13B5     		push	{r0, r1, r4, lr}
 181              		.cfi_def_cfa_offset 16
 182              		.cfi_offset 0, -16
 183              		.cfi_offset 1, -12
 184              		.cfi_offset 4, -8
 185              		.cfi_offset 14, -4
 261:..\..\common\lib\lib_Fat/sdcard.c **** 	BYTE d;
 262:..\..\common\lib\lib_Fat/sdcard.c **** 
 263:..\..\common\lib\lib_Fat/sdcard.c ****     CyDelayUs(CS_DELAY_US); // <*> adjust
 186              		.loc 1 263 0
 187 0002 0120     		movs	r0, #1
 188 0004 FFF7FEFF 		bl	CyDelayUs
 189              	.LVL16:
ARM GAS  C:\Users\Petro\AppData\Local\Temp\ccUQeyWd.s 			page 9


 264:..\..\common\lib\lib_Fat/sdcard.c **** 	rcvr_mmc(&d, 1);	/* Dummy clock (force DO enabled) */
 190              		.loc 1 264 0
 191 0008 6B46     		mov	r3, sp
 192 000a 0121     		movs	r1, #1
 193 000c D81D     		adds	r0, r3, #7
 194 000e FFF7FEFF 		bl	rcvr_mmc
 195              	.LVL17:
 265:..\..\common\lib\lib_Fat/sdcard.c **** 	if (wait_ready()) return 1;	/* Wait for card ready */
 196              		.loc 1 265 0
 197 0012 FFF7FEFF 		bl	wait_ready
 198              	.LVL18:
 199 0016 041E     		subs	r4, r0, #0
 200 0018 02D1     		bne	.L17
 266:..\..\common\lib\lib_Fat/sdcard.c **** 
 267:..\..\common\lib\lib_Fat/sdcard.c **** 	deselect();
 201              		.loc 1 267 0
 202 001a FFF7FEFF 		bl	deselect
 203              	.LVL19:
 268:..\..\common\lib\lib_Fat/sdcard.c **** 	return 0;			/* Failed */
 204              		.loc 1 268 0
 205 001e 00E0     		b	.L16
 206              	.L17:
 265:..\..\common\lib\lib_Fat/sdcard.c **** 	if (wait_ready()) return 1;	/* Wait for card ready */
 207              		.loc 1 265 0
 208 0020 0124     		movs	r4, #1
 209              	.L16:
 269:..\..\common\lib\lib_Fat/sdcard.c **** }
 210              		.loc 1 269 0
 211 0022 2000     		movs	r0, r4
 212              		@ sp needed
 213 0024 16BD     		pop	{r1, r2, r4, pc}
 214              		.cfi_endproc
 215              	.LFE66:
 216              		.size	select, .-select
 217              		.section	.text.rcvr_datablock,"ax",%progbits
 218              		.align	1
 219              		.code	16
 220              		.thumb_func
 221              		.type	rcvr_datablock, %function
 222              	rcvr_datablock:
 223              	.LFB67:
 270:..\..\common\lib\lib_Fat/sdcard.c **** 
 271:..\..\common\lib\lib_Fat/sdcard.c **** /*-----------------------------------------------------------------------*/
 272:..\..\common\lib\lib_Fat/sdcard.c **** /* Receive a data packet from the card                                   */
 273:..\..\common\lib\lib_Fat/sdcard.c **** /*-----------------------------------------------------------------------*/
 274:..\..\common\lib\lib_Fat/sdcard.c **** 
 275:..\..\common\lib\lib_Fat/sdcard.c **** static int rcvr_datablock(BYTE *buff, UINT btr) 	/* 1:OK, 0:Failed */
 276:..\..\common\lib\lib_Fat/sdcard.c **** {
 224              		.loc 1 276 0
 225              		.cfi_startproc
 226              		@ args = 0, pretend = 0, frame = 8
 227              		@ frame_needed = 0, uses_anonymous_args = 0
 228              	.LVL20:
 229 0000 F7B5     		push	{r0, r1, r2, r4, r5, r6, r7, lr}
 230              		.cfi_def_cfa_offset 32
 231              		.cfi_offset 0, -32
 232              		.cfi_offset 1, -28
ARM GAS  C:\Users\Petro\AppData\Local\Temp\ccUQeyWd.s 			page 10


 233              		.cfi_offset 2, -24
 234              		.cfi_offset 4, -20
 235              		.cfi_offset 5, -16
 236              		.cfi_offset 6, -12
 237              		.cfi_offset 7, -8
 238              		.cfi_offset 14, -4
 239              		.loc 1 276 0
 240 0002 FA25     		movs	r5, #250
 241 0004 0600     		movs	r6, r0
 242 0006 0F00     		movs	r7, r1
 243 0008 AD00     		lsls	r5, r5, #2
 244              	.LVL21:
 245              	.L22:
 277:..\..\common\lib\lib_Fat/sdcard.c **** 	BYTE d[2];
 278:..\..\common\lib\lib_Fat/sdcard.c **** 	UINT tmr;
 279:..\..\common\lib\lib_Fat/sdcard.c **** 
 280:..\..\common\lib\lib_Fat/sdcard.c **** 	for (tmr = 1000; tmr; tmr--) {	/* Wait for data packet in timeout of 100ms */
 281:..\..\common\lib\lib_Fat/sdcard.c **** 		rcvr_mmc(d, 1);
 246              		.loc 1 281 0
 247 000a 01AC     		add	r4, sp, #4
 248 000c 0121     		movs	r1, #1
 249 000e 2000     		movs	r0, r4
 250 0010 FFF7FEFF 		bl	rcvr_mmc
 251              	.LVL22:
 282:..\..\common\lib\lib_Fat/sdcard.c **** 		if (d[0] != 0xFF) break;
 252              		.loc 1 282 0
 253 0014 2378     		ldrb	r3, [r4]
 254 0016 FF2B     		cmp	r3, #255
 255 0018 0DD0     		beq	.L19
 256              	.LVL23:
 257              	.L23:
 283:..\..\common\lib\lib_Fat/sdcard.c **** 		dly_us(100);
 284:..\..\common\lib\lib_Fat/sdcard.c **** 	}
 285:..\..\common\lib\lib_Fat/sdcard.c **** 	if (d[0] != 0xFE) return 0;		/* If not valid data token, return with error */
 258              		.loc 1 285 0
 259 001a 2378     		ldrb	r3, [r4]
 260 001c 0020     		movs	r0, #0
 261 001e FE2B     		cmp	r3, #254
 262 0020 10D1     		bne	.L20
 286:..\..\common\lib\lib_Fat/sdcard.c ****     //rcvr_mmc(buff, 2);
 287:..\..\common\lib\lib_Fat/sdcard.c **** 	rcvr_mmc(buff, btr);			/* Receive the data block into buffer */
 263              		.loc 1 287 0
 264 0022 3900     		movs	r1, r7
 265 0024 3000     		movs	r0, r6
 266 0026 FFF7FEFF 		bl	rcvr_mmc
 267              	.LVL24:
 288:..\..\common\lib\lib_Fat/sdcard.c **** 	rcvr_mmc(d, 2);					/* Discard CRC */
 268              		.loc 1 288 0
 269 002a 2000     		movs	r0, r4
 270 002c 0221     		movs	r1, #2
 271 002e FFF7FEFF 		bl	rcvr_mmc
 272              	.LVL25:
 289:..\..\common\lib\lib_Fat/sdcard.c **** 
 290:..\..\common\lib\lib_Fat/sdcard.c **** 	return 1;						/* Return with success */
 273              		.loc 1 290 0
 274 0032 0120     		movs	r0, #1
 275 0034 06E0     		b	.L20
ARM GAS  C:\Users\Petro\AppData\Local\Temp\ccUQeyWd.s 			page 11


 276              	.LVL26:
 277              	.L19:
 283:..\..\common\lib\lib_Fat/sdcard.c **** 	}
 278              		.loc 1 283 0 discriminator 2
 279 0036 6420     		movs	r0, #100
 280 0038 013D     		subs	r5, r5, #1
 281              	.LVL27:
 282 003a FFF7FEFF 		bl	CyDelayUs
 283              	.LVL28:
 280:..\..\common\lib\lib_Fat/sdcard.c **** 		rcvr_mmc(d, 1);
 284              		.loc 1 280 0 discriminator 2
 285 003e 002D     		cmp	r5, #0
 286 0040 E3D1     		bne	.L22
 287 0042 EAE7     		b	.L23
 288              	.L20:
 291:..\..\common\lib\lib_Fat/sdcard.c **** }
 289              		.loc 1 291 0
 290              		@ sp needed
 291              	.LVL29:
 292              	.LVL30:
 293 0044 FEBD     		pop	{r1, r2, r3, r4, r5, r6, r7, pc}
 294              		.cfi_endproc
 295              	.LFE67:
 296              		.size	rcvr_datablock, .-rcvr_datablock
 297              		.section	.text.xmit_mmc,"ax",%progbits
 298              		.align	1
 299              		.code	16
 300              		.thumb_func
 301              		.type	xmit_mmc, %function
 302              	xmit_mmc:
 303              	.LFB62:
 133:..\..\common\lib\lib_Fat/sdcard.c **** 
 304              		.loc 1 133 0
 305              		.cfi_startproc
 306              		@ args = 0, pretend = 0, frame = 0
 307              		@ frame_needed = 0, uses_anonymous_args = 0
 308              	.LVL31:
 309 0000 70B5     		push	{r4, r5, r6, lr}
 310              		.cfi_def_cfa_offset 16
 311              		.cfi_offset 4, -16
 312              		.cfi_offset 5, -12
 313              		.cfi_offset 6, -8
 314              		.cfi_offset 14, -4
 133:..\..\common\lib\lib_Fat/sdcard.c **** 
 315              		.loc 1 133 0
 316 0002 0500     		movs	r5, r0
 317 0004 0C00     		movs	r4, r1
 136:..\..\common\lib\lib_Fat/sdcard.c **** 
 318              		.loc 1 136 0
 319 0006 0020     		movs	r0, #0
 320              	.LVL32:
 321 0008 FFF7FEFF 		bl	SD_CS_Write
 322              	.LVL33:
 140:..\..\common\lib\lib_Fat/sdcard.c **** //    SPIM_ClearTxBuffer();
 323              		.loc 1 140 0
 324 000c A1B2     		uxth	r1, r4
 325 000e 2800     		movs	r0, r5
ARM GAS  C:\Users\Petro\AppData\Local\Temp\ccUQeyWd.s 			page 12


 326 0010 FFF7FEFF 		bl	SwSPI_Master_SendBuff
 327              	.LVL34:
 144:..\..\common\lib\lib_Fat/sdcard.c ****     SD_CS_Write(1);
 328              		.loc 1 144 0
 329 0014 0520     		movs	r0, #5
 330 0016 FFF7FEFF 		bl	CyDelay
 331              	.LVL35:
 145:..\..\common\lib\lib_Fat/sdcard.c ****     //while(SPIM_ReadTxStatus() == SPIM_STS_TX_FIFO_NOT_FULL);
 332              		.loc 1 145 0
 333 001a 0120     		movs	r0, #1
 334 001c FFF7FEFF 		bl	SD_CS_Write
 335              	.LVL36:
 164:..\..\common\lib\lib_Fat/sdcard.c **** 
 336              		.loc 1 164 0
 337              		@ sp needed
 338              	.LVL37:
 339              	.LVL38:
 340 0020 70BD     		pop	{r4, r5, r6, pc}
 341              		.cfi_endproc
 342              	.LFE62:
 343              		.size	xmit_mmc, .-xmit_mmc
 344              		.section	.text.send_cmd,"ax",%progbits
 345              		.align	1
 346              		.code	16
 347              		.thumb_func
 348              		.type	send_cmd, %function
 349              	send_cmd:
 350              	.LFB69:
 292:..\..\common\lib\lib_Fat/sdcard.c **** 
 293:..\..\common\lib\lib_Fat/sdcard.c **** /*-----------------------------------------------------------------------*/
 294:..\..\common\lib\lib_Fat/sdcard.c **** /* Send a data packet to the card                                        */
 295:..\..\common\lib\lib_Fat/sdcard.c **** /*-----------------------------------------------------------------------*/
 296:..\..\common\lib\lib_Fat/sdcard.c **** 
 297:..\..\common\lib\lib_Fat/sdcard.c **** static int xmit_datablock(const BYTE *buff, BYTE token)	/* 1:OK, 0:Failed */
 298:..\..\common\lib\lib_Fat/sdcard.c **** {
 299:..\..\common\lib\lib_Fat/sdcard.c **** 	BYTE d[2];
 300:..\..\common\lib\lib_Fat/sdcard.c **** 
 301:..\..\common\lib\lib_Fat/sdcard.c **** 	if (!wait_ready()) return 0;
 302:..\..\common\lib\lib_Fat/sdcard.c **** 
 303:..\..\common\lib\lib_Fat/sdcard.c **** 	d[0] = token;
 304:..\..\common\lib\lib_Fat/sdcard.c **** 	xmit_mmc(d, 1);				/* Xmit a token */
 305:..\..\common\lib\lib_Fat/sdcard.c ****     CyDelayUs(M_DELAY_US); // <*> why?
 306:..\..\common\lib\lib_Fat/sdcard.c **** 	if (token != 0xFD) {		/* Is it data token? */
 307:..\..\common\lib\lib_Fat/sdcard.c **** 		xmit_mmc(buff, 512);	/* Xmit the 512 byte data block to MMC */
 308:..\..\common\lib\lib_Fat/sdcard.c ****         CyDelayUs(M_DELAY_US); // <*> why?
 309:..\..\common\lib\lib_Fat/sdcard.c **** 		rcvr_mmc(d, 2);			/* Xmit dummy CRC (0xFF,0xFF) */
 310:..\..\common\lib\lib_Fat/sdcard.c **** 		rcvr_mmc(d, 1);			/* Receive data response */
 311:..\..\common\lib\lib_Fat/sdcard.c **** 		if ((d[0] & 0x1F) != 0x05)	/* If not accepted, return with error */
 312:..\..\common\lib\lib_Fat/sdcard.c **** 			return 0;
 313:..\..\common\lib\lib_Fat/sdcard.c **** 	}
 314:..\..\common\lib\lib_Fat/sdcard.c **** 
 315:..\..\common\lib\lib_Fat/sdcard.c **** 	return 1;
 316:..\..\common\lib\lib_Fat/sdcard.c **** }
 317:..\..\common\lib\lib_Fat/sdcard.c **** 
 318:..\..\common\lib\lib_Fat/sdcard.c **** /*-----------------------------------------------------------------------*/
 319:..\..\common\lib\lib_Fat/sdcard.c **** /* Send a command packet to the card                                     */
 320:..\..\common\lib\lib_Fat/sdcard.c **** /*-----------------------------------------------------------------------*/
ARM GAS  C:\Users\Petro\AppData\Local\Temp\ccUQeyWd.s 			page 13


 321:..\..\common\lib\lib_Fat/sdcard.c **** 
 322:..\..\common\lib\lib_Fat/sdcard.c **** static BYTE send_cmd(BYTE cmd,	DWORD arg)		/* Returns command response (bit7==1:Send failed)*/
 323:..\..\common\lib\lib_Fat/sdcard.c **** {
 351              		.loc 1 323 0
 352              		.cfi_startproc
 353              		@ args = 0, pretend = 0, frame = 16
 354              		@ frame_needed = 0, uses_anonymous_args = 0
 355              	.LVL39:
 356 0000 30B5     		push	{r4, r5, lr}
 357              		.cfi_def_cfa_offset 12
 358              		.cfi_offset 4, -12
 359              		.cfi_offset 5, -8
 360              		.cfi_offset 14, -4
 324:..\..\common\lib\lib_Fat/sdcard.c **** 	BYTE n, d, buf[6];
 325:..\..\common\lib\lib_Fat/sdcard.c **** 
 326:..\..\common\lib\lib_Fat/sdcard.c **** 
 327:..\..\common\lib\lib_Fat/sdcard.c **** 	if (cmd & 0x80) {	/* ACMD<n> is the command sequense of CMD55-CMD<n> */
 361              		.loc 1 327 0
 362 0002 43B2     		sxtb	r3, r0
 323:..\..\common\lib\lib_Fat/sdcard.c **** 	BYTE n, d, buf[6];
 363              		.loc 1 323 0
 364 0004 85B0     		sub	sp, sp, #20
 365              		.cfi_def_cfa_offset 32
 323:..\..\common\lib\lib_Fat/sdcard.c **** 	BYTE n, d, buf[6];
 366              		.loc 1 323 0
 367 0006 0400     		movs	r4, r0
 368 0008 0D00     		movs	r5, r1
 369              		.loc 1 327 0
 370 000a 002B     		cmp	r3, #0
 371 000c 07DA     		bge	.L29
 372              	.LVL40:
 328:..\..\common\lib\lib_Fat/sdcard.c **** 		cmd &= 0x7F;
 329:..\..\common\lib\lib_Fat/sdcard.c **** 		n = send_cmd(CMD55, 0);
 373              		.loc 1 329 0
 374 000e 0021     		movs	r1, #0
 375              	.LVL41:
 376 0010 3720     		movs	r0, #55
 377 0012 FFF7F5FF 		bl	send_cmd
 378              	.LVL42:
 330:..\..\common\lib\lib_Fat/sdcard.c **** 		if (n > 1) return n;
 379              		.loc 1 330 0
 380 0016 0128     		cmp	r0, #1
 381 0018 44D8     		bhi	.L41
 328:..\..\common\lib\lib_Fat/sdcard.c **** 		cmd &= 0x7F;
 382              		.loc 1 328 0
 383 001a 7F23     		movs	r3, #127
 384 001c 1C40     		ands	r4, r3
 385              	.LVL43:
 386              	.L29:
 331:..\..\common\lib\lib_Fat/sdcard.c **** 	}
 332:..\..\common\lib\lib_Fat/sdcard.c **** 
 333:..\..\common\lib\lib_Fat/sdcard.c **** 	/* Select the card and wait for ready except to stop multiple block read */
 334:..\..\common\lib\lib_Fat/sdcard.c **** 	if (cmd != CMD12) {
 387              		.loc 1 334 0
 388 001e 0C2C     		cmp	r4, #12
 389 0020 0FD1     		bne	.L31
 390              	.L34:
ARM GAS  C:\Users\Petro\AppData\Local\Temp\ccUQeyWd.s 			page 14


 335:..\..\common\lib\lib_Fat/sdcard.c **** 		deselect();
 336:..\..\common\lib\lib_Fat/sdcard.c **** 		if (!select()) return 0xFF;
 337:..\..\common\lib\lib_Fat/sdcard.c **** 	}
 338:..\..\common\lib\lib_Fat/sdcard.c **** 
 339:..\..\common\lib\lib_Fat/sdcard.c **** 	/* Send a command packet */
 340:..\..\common\lib\lib_Fat/sdcard.c **** 	buf[0] = 0x40 | cmd;			/* Start + Command index */
 391              		.loc 1 340 0
 392 0022 4023     		movs	r3, #64
 393 0024 02A8     		add	r0, sp, #8
 394 0026 2343     		orrs	r3, r4
 395 0028 0370     		strb	r3, [r0]
 341:..\..\common\lib\lib_Fat/sdcard.c **** 	buf[1] = (BYTE)(arg >> 24);		/* Argument[31..24] */
 396              		.loc 1 341 0
 397 002a 2B0E     		lsrs	r3, r5, #24
 398 002c 4370     		strb	r3, [r0, #1]
 342:..\..\common\lib\lib_Fat/sdcard.c **** 	buf[2] = (BYTE)(arg >> 16);		/* Argument[23..16] */
 399              		.loc 1 342 0
 400 002e 2B0C     		lsrs	r3, r5, #16
 401 0030 8370     		strb	r3, [r0, #2]
 343:..\..\common\lib\lib_Fat/sdcard.c **** 	buf[3] = (BYTE)(arg >> 8);		/* Argument[15..8] */
 402              		.loc 1 343 0
 403 0032 2B0A     		lsrs	r3, r5, #8
 404 0034 C370     		strb	r3, [r0, #3]
 405 0036 6B46     		mov	r3, sp
 344:..\..\common\lib\lib_Fat/sdcard.c **** 	buf[4] = (BYTE)arg;				/* Argument[7..0] */
 406              		.loc 1 344 0
 407 0038 0571     		strb	r5, [r0, #4]
 408              	.LVL44:
 409 003a DD1D     		adds	r5, r3, #7
 410              	.LVL45:
 345:..\..\common\lib\lib_Fat/sdcard.c **** 	n = 0x01;						/* Dummy CRC + Stop */
 346:..\..\common\lib\lib_Fat/sdcard.c **** 	if (cmd == CMD0) n = 0x95;		/* (valid CRC for CMD0(0)) */
 411              		.loc 1 346 0
 412 003c 002C     		cmp	r4, #0
 413 003e 28D0     		beq	.L32
 414 0040 08E0     		b	.L45
 415              	.LVL46:
 416              	.L31:
 335:..\..\common\lib\lib_Fat/sdcard.c **** 		if (!select()) return 0xFF;
 417              		.loc 1 335 0
 418 0042 FFF7FEFF 		bl	deselect
 419              	.LVL47:
 336:..\..\common\lib\lib_Fat/sdcard.c **** 	}
 420              		.loc 1 336 0
 421 0046 FFF7FEFF 		bl	select
 422              	.LVL48:
 423 004a 0300     		movs	r3, r0
 424 004c FF20     		movs	r0, #255
 425 004e 002B     		cmp	r3, #0
 426 0050 28D0     		beq	.L41
 427 0052 E6E7     		b	.L34
 428              	.LVL49:
 429              	.L45:
 345:..\..\common\lib\lib_Fat/sdcard.c **** 	n = 0x01;						/* Dummy CRC + Stop */
 430              		.loc 1 345 0
 431 0054 0123     		movs	r3, #1
 347:..\..\common\lib\lib_Fat/sdcard.c **** 	if (cmd == CMD8) n = 0x87;		/* (valid CRC for CMD8(0x1AA)) */
ARM GAS  C:\Users\Petro\AppData\Local\Temp\ccUQeyWd.s 			page 15


 432              		.loc 1 347 0
 433 0056 082C     		cmp	r4, #8
 434 0058 00D1     		bne	.L35
 435 005a 8633     		adds	r3, r3, #134
 436              	.L35:
 437              	.LVL50:
 348:..\..\common\lib\lib_Fat/sdcard.c **** 	buf[5] = n;
 349:..\..\common\lib\lib_Fat/sdcard.c **** 	xmit_mmc(buf, 6);
 438              		.loc 1 349 0
 439 005c 0621     		movs	r1, #6
 348:..\..\common\lib\lib_Fat/sdcard.c **** 	buf[5] = n;
 440              		.loc 1 348 0
 441 005e 4371     		strb	r3, [r0, #5]
 442              		.loc 1 349 0
 443 0060 FFF7FEFF 		bl	xmit_mmc
 444              	.LVL51:
 350:..\..\common\lib\lib_Fat/sdcard.c ****     CyDelayUs(M_DELAY_US); // <*> why?
 445              		.loc 1 350 0
 446 0064 6420     		movs	r0, #100
 447 0066 FFF7FEFF 		bl	CyDelayUs
 448              	.LVL52:
 351:..\..\common\lib\lib_Fat/sdcard.c **** 
 352:..\..\common\lib\lib_Fat/sdcard.c **** 	/* Receive command response */
 353:..\..\common\lib\lib_Fat/sdcard.c **** 	if (cmd == CMD12) rcvr_mmc(&d, 1);	/* Skip a stuff byte when stop reading */
 449              		.loc 1 353 0
 450 006a 0C2C     		cmp	r4, #12
 451 006c 03D1     		bne	.L36
 452              		.loc 1 353 0 is_stmt 0 discriminator 1
 453 006e 0121     		movs	r1, #1
 454 0070 2800     		movs	r0, r5
 455 0072 FFF7FEFF 		bl	rcvr_mmc
 456              	.LVL53:
 457              	.L36:
 347:..\..\common\lib\lib_Fat/sdcard.c **** 	buf[5] = n;
 458              		.loc 1 347 0 is_stmt 1 discriminator 2
 459 0076 1424     		movs	r4, #20
 460              	.LVL54:
 461              	.L37:
 354:..\..\common\lib\lib_Fat/sdcard.c **** 	n = 20;								/* Wait for a valid response in timeout of 10 attempts */
 355:..\..\common\lib\lib_Fat/sdcard.c **** 	do
 356:..\..\common\lib\lib_Fat/sdcard.c ****     {
 357:..\..\common\lib\lib_Fat/sdcard.c **** 		rcvr_mmc(&d, 1);
 462              		.loc 1 357 0 discriminator 2
 463 0078 2800     		movs	r0, r5
 464 007a 0121     		movs	r1, #1
 465 007c FFF7FEFF 		bl	rcvr_mmc
 466              	.LVL55:
 358:..\..\common\lib\lib_Fat/sdcard.c ****     }
 359:..\..\common\lib\lib_Fat/sdcard.c **** 	while ((d & 0x80) && --n);
 467              		.loc 1 359 0 discriminator 2
 468 0080 2878     		ldrb	r0, [r5]
 469 0082 43B2     		sxtb	r3, r0
 470 0084 002B     		cmp	r3, #0
 471 0086 0DDA     		bge	.L41
 472              	.LVL56:
 473 0088 013C     		subs	r4, r4, #1
 474              	.LVL57:
ARM GAS  C:\Users\Petro\AppData\Local\Temp\ccUQeyWd.s 			page 16


 475 008a E4B2     		uxtb	r4, r4
 476              		.loc 1 359 0 is_stmt 0 discriminator 1
 477 008c 002C     		cmp	r4, #0
 478 008e F3D1     		bne	.L37
 479 0090 08E0     		b	.L41
 480              	.LVL58:
 481              	.L32:
 348:..\..\common\lib\lib_Fat/sdcard.c **** 	xmit_mmc(buf, 6);
 482              		.loc 1 348 0 is_stmt 1
 483 0092 9523     		movs	r3, #149
 349:..\..\common\lib\lib_Fat/sdcard.c ****     CyDelayUs(M_DELAY_US); // <*> why?
 484              		.loc 1 349 0
 485 0094 0621     		movs	r1, #6
 348:..\..\common\lib\lib_Fat/sdcard.c **** 	xmit_mmc(buf, 6);
 486              		.loc 1 348 0
 487 0096 4371     		strb	r3, [r0, #5]
 349:..\..\common\lib\lib_Fat/sdcard.c ****     CyDelayUs(M_DELAY_US); // <*> why?
 488              		.loc 1 349 0
 489 0098 FFF7FEFF 		bl	xmit_mmc
 490              	.LVL59:
 350:..\..\common\lib\lib_Fat/sdcard.c **** 
 491              		.loc 1 350 0
 492 009c 6420     		movs	r0, #100
 493 009e FFF7FEFF 		bl	CyDelayUs
 494              	.LVL60:
 495 00a2 E8E7     		b	.L36
 496              	.LVL61:
 497              	.L41:
 360:..\..\common\lib\lib_Fat/sdcard.c **** 
 361:..\..\common\lib\lib_Fat/sdcard.c **** 	return d;			/* Return with the response value */
 362:..\..\common\lib\lib_Fat/sdcard.c **** }
 498              		.loc 1 362 0
 499 00a4 05B0     		add	sp, sp, #20
 500              		@ sp needed
 501 00a6 30BD     		pop	{r4, r5, pc}
 502              		.cfi_endproc
 503              	.LFE69:
 504              		.size	send_cmd, .-send_cmd
 505              		.section	.text.xmit_datablock,"ax",%progbits
 506              		.align	1
 507              		.code	16
 508              		.thumb_func
 509              		.type	xmit_datablock, %function
 510              	xmit_datablock:
 511              	.LFB68:
 298:..\..\common\lib\lib_Fat/sdcard.c **** 	BYTE d[2];
 512              		.loc 1 298 0
 513              		.cfi_startproc
 514              		@ args = 0, pretend = 0, frame = 8
 515              		@ frame_needed = 0, uses_anonymous_args = 0
 516              	.LVL62:
 517 0000 F7B5     		push	{r0, r1, r2, r4, r5, r6, r7, lr}
 518              		.cfi_def_cfa_offset 32
 519              		.cfi_offset 0, -32
 520              		.cfi_offset 1, -28
 521              		.cfi_offset 2, -24
 522              		.cfi_offset 4, -20
ARM GAS  C:\Users\Petro\AppData\Local\Temp\ccUQeyWd.s 			page 17


 523              		.cfi_offset 5, -16
 524              		.cfi_offset 6, -12
 525              		.cfi_offset 7, -8
 526              		.cfi_offset 14, -4
 298:..\..\common\lib\lib_Fat/sdcard.c **** 	BYTE d[2];
 527              		.loc 1 298 0
 528 0002 0700     		movs	r7, r0
 529 0004 0E00     		movs	r6, r1
 301:..\..\common\lib\lib_Fat/sdcard.c **** 
 530              		.loc 1 301 0
 531 0006 FFF7FEFF 		bl	wait_ready
 532              	.LVL63:
 533 000a 041E     		subs	r4, r0, #0
 534 000c 21D0     		beq	.L47
 535              	.LVL64:
 536              	.LBB10:
 537              	.LBB11:
 303:..\..\common\lib\lib_Fat/sdcard.c **** 	xmit_mmc(d, 1);				/* Xmit a token */
 538              		.loc 1 303 0
 539 000e 01AD     		add	r5, sp, #4
 304:..\..\common\lib\lib_Fat/sdcard.c ****     CyDelayUs(M_DELAY_US); // <*> why?
 540              		.loc 1 304 0
 541 0010 0121     		movs	r1, #1
 542 0012 2800     		movs	r0, r5
 303:..\..\common\lib\lib_Fat/sdcard.c **** 	xmit_mmc(d, 1);				/* Xmit a token */
 543              		.loc 1 303 0
 544 0014 2E70     		strb	r6, [r5]
 304:..\..\common\lib\lib_Fat/sdcard.c ****     CyDelayUs(M_DELAY_US); // <*> why?
 545              		.loc 1 304 0
 546 0016 FFF7FEFF 		bl	xmit_mmc
 547              	.LVL65:
 305:..\..\common\lib\lib_Fat/sdcard.c **** 	if (token != 0xFD) {		/* Is it data token? */
 548              		.loc 1 305 0
 549 001a 6420     		movs	r0, #100
 550 001c FFF7FEFF 		bl	CyDelayUs
 551              	.LVL66:
 315:..\..\common\lib\lib_Fat/sdcard.c **** }
 552              		.loc 1 315 0
 553 0020 0124     		movs	r4, #1
 306:..\..\common\lib\lib_Fat/sdcard.c **** 		xmit_mmc(buff, 512);	/* Xmit the 512 byte data block to MMC */
 554              		.loc 1 306 0
 555 0022 FD2E     		cmp	r6, #253
 556 0024 15D0     		beq	.L47
 307:..\..\common\lib\lib_Fat/sdcard.c ****         CyDelayUs(M_DELAY_US); // <*> why?
 557              		.loc 1 307 0
 558 0026 8021     		movs	r1, #128
 559 0028 3800     		movs	r0, r7
 560 002a 8900     		lsls	r1, r1, #2
 561 002c FFF7FEFF 		bl	xmit_mmc
 562              	.LVL67:
 308:..\..\common\lib\lib_Fat/sdcard.c **** 		rcvr_mmc(d, 2);			/* Xmit dummy CRC (0xFF,0xFF) */
 563              		.loc 1 308 0
 564 0030 6420     		movs	r0, #100
 565 0032 FFF7FEFF 		bl	CyDelayUs
 566              	.LVL68:
 309:..\..\common\lib\lib_Fat/sdcard.c **** 		rcvr_mmc(d, 1);			/* Receive data response */
 567              		.loc 1 309 0
ARM GAS  C:\Users\Petro\AppData\Local\Temp\ccUQeyWd.s 			page 18


 568 0036 0221     		movs	r1, #2
 569 0038 2800     		movs	r0, r5
 570 003a FFF7FEFF 		bl	rcvr_mmc
 571              	.LVL69:
 310:..\..\common\lib\lib_Fat/sdcard.c **** 		if ((d[0] & 0x1F) != 0x05)	/* If not accepted, return with error */
 572              		.loc 1 310 0
 573 003e 2100     		movs	r1, r4
 574 0040 2800     		movs	r0, r5
 575 0042 FFF7FEFF 		bl	rcvr_mmc
 576              	.LVL70:
 315:..\..\common\lib\lib_Fat/sdcard.c **** }
 577              		.loc 1 315 0
 578 0046 1F23     		movs	r3, #31
 579 0048 2878     		ldrb	r0, [r5]
 580 004a 1840     		ands	r0, r3
 581 004c 0538     		subs	r0, r0, #5
 582 004e 4442     		rsbs	r4, r0, #0
 583 0050 4441     		adcs	r4, r4, r0
 584              	.LVL71:
 585              	.L47:
 586              	.LBE11:
 587              	.LBE10:
 316:..\..\common\lib\lib_Fat/sdcard.c **** 
 588              		.loc 1 316 0
 589 0052 2000     		movs	r0, r4
 590              		@ sp needed
 591              	.LVL72:
 592 0054 FEBD     		pop	{r1, r2, r3, r4, r5, r6, r7, pc}
 593              		.cfi_endproc
 594              	.LFE68:
 595              		.size	xmit_datablock, .-xmit_datablock
 596              		.section	.text.disk_status,"ax",%progbits
 597              		.align	1
 598              		.global	disk_status
 599              		.code	16
 600              		.thumb_func
 601              		.type	disk_status, %function
 602              	disk_status:
 603              	.LFB70:
 363:..\..\common\lib\lib_Fat/sdcard.c **** 
 364:..\..\common\lib\lib_Fat/sdcard.c **** /*--------------------------------------------------------------------------
 365:..\..\common\lib\lib_Fat/sdcard.c **** 
 366:..\..\common\lib\lib_Fat/sdcard.c ****    Public Functions
 367:..\..\common\lib\lib_Fat/sdcard.c **** 
 368:..\..\common\lib\lib_Fat/sdcard.c **** ---------------------------------------------------------------------------*/
 369:..\..\common\lib\lib_Fat/sdcard.c **** 
 370:..\..\common\lib\lib_Fat/sdcard.c **** /*-----------------------------------------------------------------------*/
 371:..\..\common\lib\lib_Fat/sdcard.c **** /* Get Disk Status                                                       */
 372:..\..\common\lib\lib_Fat/sdcard.c **** /*-----------------------------------------------------------------------*/
 373:..\..\common\lib\lib_Fat/sdcard.c **** 
 374:..\..\common\lib\lib_Fat/sdcard.c **** DSTATUS disk_status(BYTE drv) /* Drive number (always 0) */
 375:..\..\common\lib\lib_Fat/sdcard.c **** {
 604              		.loc 1 375 0
 605              		.cfi_startproc
 606              		@ args = 0, pretend = 0, frame = 0
 607              		@ frame_needed = 0, uses_anonymous_args = 0
 608              		@ link register save eliminated.
ARM GAS  C:\Users\Petro\AppData\Local\Temp\ccUQeyWd.s 			page 19


 609              	.LVL73:
 376:..\..\common\lib\lib_Fat/sdcard.c **** 	if (drv) return STA_NOINIT;
 610              		.loc 1 376 0
 611 0000 0123     		movs	r3, #1
 612 0002 0028     		cmp	r0, #0
 613 0004 01D1     		bne	.L55
 377:..\..\common\lib\lib_Fat/sdcard.c **** 
 378:..\..\common\lib\lib_Fat/sdcard.c **** 	return Stat;
 614              		.loc 1 378 0
 615 0006 024B     		ldr	r3, .L57
 616 0008 1B78     		ldrb	r3, [r3]
 617              	.L55:
 379:..\..\common\lib\lib_Fat/sdcard.c **** }
 618              		.loc 1 379 0
 619 000a 1800     		movs	r0, r3
 620              	.LVL74:
 621              		@ sp needed
 622 000c 7047     		bx	lr
 623              	.L58:
 624 000e C046     		.align	2
 625              	.L57:
 626 0010 00000000 		.word	.LANCHOR0
 627              		.cfi_endproc
 628              	.LFE70:
 629              		.size	disk_status, .-disk_status
 630              		.section	.text.disk_initialize,"ax",%progbits
 631              		.align	1
 632              		.global	disk_initialize
 633              		.code	16
 634              		.thumb_func
 635              		.type	disk_initialize, %function
 636              	disk_initialize:
 637              	.LFB71:
 380:..\..\common\lib\lib_Fat/sdcard.c **** 
 381:..\..\common\lib\lib_Fat/sdcard.c **** /*-----------------------------------------------------------------------*/
 382:..\..\common\lib\lib_Fat/sdcard.c **** /* Initialize Disk Drive                                                 */
 383:..\..\common\lib\lib_Fat/sdcard.c **** /*-----------------------------------------------------------------------*/
 384:..\..\common\lib\lib_Fat/sdcard.c **** 
 385:..\..\common\lib\lib_Fat/sdcard.c **** DSTATUS disk_initialize(BYTE drv) /* Physical drive nmuber (0) */
 386:..\..\common\lib\lib_Fat/sdcard.c **** {
 638              		.loc 1 386 0
 639              		.cfi_startproc
 640              		@ args = 0, pretend = 0, frame = 8
 641              		@ frame_needed = 0, uses_anonymous_args = 0
 642              	.LVL75:
 643 0000 73B5     		push	{r0, r1, r4, r5, r6, lr}
 644              		.cfi_def_cfa_offset 24
 645              		.cfi_offset 0, -24
 646              		.cfi_offset 1, -20
 647              		.cfi_offset 4, -16
 648              		.cfi_offset 5, -12
 649              		.cfi_offset 6, -8
 650              		.cfi_offset 14, -4
 387:..\..\common\lib\lib_Fat/sdcard.c **** 	BYTE n, ty, cmd, buf[4];
 388:..\..\common\lib\lib_Fat/sdcard.c **** 	UINT tmr;
 389:..\..\common\lib\lib_Fat/sdcard.c **** 	DSTATUS s;
 390:..\..\common\lib\lib_Fat/sdcard.c **** 
ARM GAS  C:\Users\Petro\AppData\Local\Temp\ccUQeyWd.s 			page 20


 391:..\..\common\lib\lib_Fat/sdcard.c **** 	if (drv) return RES_NOTRDY;
 651              		.loc 1 391 0
 652 0002 0324     		movs	r4, #3
 653 0004 0028     		cmp	r0, #0
 654 0006 71D1     		bne	.L74
 392:..\..\common\lib\lib_Fat/sdcard.c **** 
 393:..\..\common\lib\lib_Fat/sdcard.c **** 	dly_us(10000);			/* 10ms */
 655              		.loc 1 393 0
 656 0008 3948     		ldr	r0, .L78
 657              	.LVL76:
 658 000a FFF7FEFF 		bl	CyDelayUs
 659              	.LVL77:
 660 000e 0734     		adds	r4, r4, #7
 661              	.LVL78:
 662              	.L61:
 394:..\..\common\lib\lib_Fat/sdcard.c **** 
 395:..\..\common\lib\lib_Fat/sdcard.c **** 	for (n = 10; n; n--) rcvr_mmc(buf, 1);	/* Apply 80 dummy clocks and the card gets ready to receive
 663              		.loc 1 395 0 discriminator 3
 664 0010 01AD     		add	r5, sp, #4
 665 0012 013C     		subs	r4, r4, #1
 666              	.LVL79:
 667 0014 0121     		movs	r1, #1
 668 0016 2800     		movs	r0, r5
 669 0018 E4B2     		uxtb	r4, r4
 670 001a FFF7FEFF 		bl	rcvr_mmc
 671              	.LVL80:
 672 001e 002C     		cmp	r4, #0
 673 0020 F6D1     		bne	.L61
 674              	.LVL81:
 396:..\..\common\lib\lib_Fat/sdcard.c **** 
 397:..\..\common\lib\lib_Fat/sdcard.c **** 	ty = 0;
 398:..\..\common\lib\lib_Fat/sdcard.c **** 	if (send_cmd(CMD0, 0) == 1) {			/* Enter Idle state */
 675              		.loc 1 398 0
 676 0022 2100     		movs	r1, r4
 677 0024 2000     		movs	r0, r4
 678 0026 FFF7FEFF 		bl	send_cmd
 679              	.LVL82:
 680 002a 0600     		movs	r6, r0
 681 002c 0128     		cmp	r0, #1
 682 002e 3BD1     		bne	.L62
 399:..\..\common\lib\lib_Fat/sdcard.c **** 		if (send_cmd(CMD8, 0x1AA) == 1) {	/* SDv2? */
 683              		.loc 1 399 0
 684 0030 D521     		movs	r1, #213
 685 0032 0820     		movs	r0, #8
 686 0034 4900     		lsls	r1, r1, #1
 687 0036 FFF7FEFF 		bl	send_cmd
 688              	.LVL83:
 689 003a 0128     		cmp	r0, #1
 690 003c 1AD1     		bne	.L63
 400:..\..\common\lib\lib_Fat/sdcard.c **** 			rcvr_mmc(buf, 4);							/* Get trailing return value of R7 resp */
 691              		.loc 1 400 0
 692 003e 0421     		movs	r1, #4
 693 0040 2800     		movs	r0, r5
 694 0042 FFF7FEFF 		bl	rcvr_mmc
 695              	.LVL84:
 401:..\..\common\lib\lib_Fat/sdcard.c **** 			if (buf[2] == 0x01 && buf[3] == 0xAA) {		/* The card can work at vdd range of 2.7-3.6V */
 696              		.loc 1 401 0
ARM GAS  C:\Users\Petro\AppData\Local\Temp\ccUQeyWd.s 			page 21


 697 0046 AB78     		ldrb	r3, [r5, #2]
 698 0048 012B     		cmp	r3, #1
 699 004a 2DD1     		bne	.L62
 700              		.loc 1 401 0 is_stmt 0 discriminator 1
 701 004c EB78     		ldrb	r3, [r5, #3]
 702 004e AA2B     		cmp	r3, #170
 703 0050 2AD1     		bne	.L62
 704 0052 FA24     		movs	r4, #250
 705 0054 A400     		lsls	r4, r4, #2
 706              	.L65:
 707              	.LVL85:
 402:..\..\common\lib\lib_Fat/sdcard.c **** 				for (tmr = 1000; tmr; tmr--) {			/* Wait for leaving idle state (ACMD41 with HCS bit) */
 403:..\..\common\lib\lib_Fat/sdcard.c **** 					if (send_cmd(ACMD41, 1UL << 30) == 0) break;
 708              		.loc 1 403 0 is_stmt 1
 709 0056 8021     		movs	r1, #128
 710 0058 A920     		movs	r0, #169
 711 005a C905     		lsls	r1, r1, #23
 712 005c FFF7FEFF 		bl	send_cmd
 713              	.LVL86:
 714 0060 011E     		subs	r1, r0, #0
 715 0062 2CD0     		beq	.L64
 404:..\..\common\lib\lib_Fat/sdcard.c **** 					dly_us(1000);
 716              		.loc 1 404 0 discriminator 2
 717 0064 FA20     		movs	r0, #250
 718 0066 013C     		subs	r4, r4, #1
 719              	.LVL87:
 720 0068 8000     		lsls	r0, r0, #2
 721 006a FFF7FEFF 		bl	CyDelayUs
 722              	.LVL88:
 402:..\..\common\lib\lib_Fat/sdcard.c **** 				for (tmr = 1000; tmr; tmr--) {			/* Wait for leaving idle state (ACMD41 with HCS bit) */
 723              		.loc 1 402 0 discriminator 2
 724 006e 002C     		cmp	r4, #0
 725 0070 F1D1     		bne	.L65
 726 0072 19E0     		b	.L62
 727              	.L63:
 405:..\..\common\lib\lib_Fat/sdcard.c **** 				}
 406:..\..\common\lib\lib_Fat/sdcard.c **** 				if (tmr && send_cmd(CMD58, 0) == 0) {	/* Check CCS bit in the OCR */
 407:..\..\common\lib\lib_Fat/sdcard.c **** 					rcvr_mmc(buf, 4);
 408:..\..\common\lib\lib_Fat/sdcard.c **** 					ty = (buf[0] & 0x40) ? CT_SD2 | CT_BLOCK : CT_SD2;	/* SDv2 */
 409:..\..\common\lib\lib_Fat/sdcard.c **** 				}
 410:..\..\common\lib\lib_Fat/sdcard.c **** 			}
 411:..\..\common\lib\lib_Fat/sdcard.c **** 		} else {							/* SDv1 or MMCv3 */
 412:..\..\common\lib\lib_Fat/sdcard.c **** 			if (send_cmd(ACMD41, 0) <= 1) 	{
 728              		.loc 1 412 0
 729 0074 2100     		movs	r1, r4
 730 0076 A920     		movs	r0, #169
 731 0078 FFF7FEFF 		bl	send_cmd
 732              	.LVL89:
 733 007c 0128     		cmp	r0, #1
 734 007e 02D9     		bls	.L73
 413:..\..\common\lib\lib_Fat/sdcard.c **** 				ty = CT_SD1; cmd = ACMD41;	/* SDv1 */
 414:..\..\common\lib\lib_Fat/sdcard.c **** 			} else {
 415:..\..\common\lib\lib_Fat/sdcard.c **** 				ty = CT_MMC; cmd = CMD1;	/* MMCv3 */
 735              		.loc 1 415 0
 736 0080 3500     		movs	r5, r6
 737 0082 3400     		movs	r4, r6
 738 0084 01E0     		b	.L67
ARM GAS  C:\Users\Petro\AppData\Local\Temp\ccUQeyWd.s 			page 22


 739              	.L73:
 413:..\..\common\lib\lib_Fat/sdcard.c **** 				ty = CT_SD1; cmd = ACMD41;	/* SDv1 */
 740              		.loc 1 413 0
 741 0086 A925     		movs	r5, #169
 742 0088 0224     		movs	r4, #2
 743              	.L67:
 744              	.LVL90:
 745              		.loc 1 415 0
 746 008a FA26     		movs	r6, #250
 747 008c B600     		lsls	r6, r6, #2
 748              	.LVL91:
 749              	.L69:
 416:..\..\common\lib\lib_Fat/sdcard.c **** 			}
 417:..\..\common\lib\lib_Fat/sdcard.c **** 			for (tmr = 1000; tmr; tmr--) {			/* Wait for leaving idle state */
 418:..\..\common\lib\lib_Fat/sdcard.c **** 				if (send_cmd(cmd, 0) == 0) break;
 750              		.loc 1 418 0
 751 008e 0021     		movs	r1, #0
 752 0090 2800     		movs	r0, r5
 753 0092 FFF7FEFF 		bl	send_cmd
 754              	.LVL92:
 755 0096 0028     		cmp	r0, #0
 756 0098 20D0     		beq	.L68
 419:..\..\common\lib\lib_Fat/sdcard.c **** 				dly_us(1000);
 757              		.loc 1 419 0 discriminator 2
 758 009a FA20     		movs	r0, #250
 759 009c 013E     		subs	r6, r6, #1
 760              	.LVL93:
 761 009e 8000     		lsls	r0, r0, #2
 762 00a0 FFF7FEFF 		bl	CyDelayUs
 763              	.LVL94:
 417:..\..\common\lib\lib_Fat/sdcard.c **** 				if (send_cmd(cmd, 0) == 0) break;
 764              		.loc 1 417 0 discriminator 2
 765 00a4 002E     		cmp	r6, #0
 766 00a6 F2D1     		bne	.L69
 767              	.LVL95:
 768              	.L62:
 420:..\..\common\lib\lib_Fat/sdcard.c **** 			}
 421:..\..\common\lib\lib_Fat/sdcard.c **** 			if (!tmr || send_cmd(CMD16, 512) != 0)	/* Set R/W block length to 512 */
 422:..\..\common\lib\lib_Fat/sdcard.c **** 				ty = 0;
 769              		.loc 1 422 0
 770 00a8 0024     		movs	r4, #0
 771              	.L66:
 772              	.LVL96:
 423:..\..\common\lib\lib_Fat/sdcard.c **** 		}
 424:..\..\common\lib\lib_Fat/sdcard.c **** 	}
 425:..\..\common\lib\lib_Fat/sdcard.c **** 	CardType = ty;
 773              		.loc 1 425 0
 774 00aa 124B     		ldr	r3, .L78+4
 775 00ac 1C70     		strb	r4, [r3]
 426:..\..\common\lib\lib_Fat/sdcard.c **** 	s = ty ? 0 : STA_NOINIT;
 776              		.loc 1 426 0
 777 00ae 6042     		rsbs	r0, r4, #0
 778 00b0 4441     		adcs	r4, r4, r0
 779              	.LVL97:
 427:..\..\common\lib\lib_Fat/sdcard.c **** 	Stat = s;
 780              		.loc 1 427 0
 781 00b2 114B     		ldr	r3, .L78+8
ARM GAS  C:\Users\Petro\AppData\Local\Temp\ccUQeyWd.s 			page 23


 426:..\..\common\lib\lib_Fat/sdcard.c **** 	s = ty ? 0 : STA_NOINIT;
 782              		.loc 1 426 0
 783 00b4 E4B2     		uxtb	r4, r4
 784              	.LVL98:
 785              		.loc 1 427 0
 786 00b6 1C70     		strb	r4, [r3]
 428:..\..\common\lib\lib_Fat/sdcard.c **** 
 429:..\..\common\lib\lib_Fat/sdcard.c **** 	deselect();
 787              		.loc 1 429 0
 788 00b8 FFF7FEFF 		bl	deselect
 789              	.LVL99:
 430:..\..\common\lib\lib_Fat/sdcard.c **** 
 431:..\..\common\lib\lib_Fat/sdcard.c **** 	return s;
 790              		.loc 1 431 0
 791 00bc 16E0     		b	.L74
 792              	.LVL100:
 793              	.L64:
 406:..\..\common\lib\lib_Fat/sdcard.c **** 					rcvr_mmc(buf, 4);
 794              		.loc 1 406 0
 795 00be 3A20     		movs	r0, #58
 796 00c0 FFF7FEFF 		bl	send_cmd
 797              	.LVL101:
 798 00c4 0028     		cmp	r0, #0
 799 00c6 EFD1     		bne	.L62
 407:..\..\common\lib\lib_Fat/sdcard.c **** 					ty = (buf[0] & 0x40) ? CT_SD2 | CT_BLOCK : CT_SD2;	/* SDv2 */
 800              		.loc 1 407 0
 801 00c8 0421     		movs	r1, #4
 802 00ca 2800     		movs	r0, r5
 803 00cc FFF7FEFF 		bl	rcvr_mmc
 804              	.LVL102:
 408:..\..\common\lib\lib_Fat/sdcard.c **** 				}
 805              		.loc 1 408 0
 806 00d0 2B78     		ldrb	r3, [r5]
 807 00d2 0C24     		movs	r4, #12
 808              	.LVL103:
 809 00d4 5B06     		lsls	r3, r3, #25
 810 00d6 E8D4     		bmi	.L66
 811 00d8 083C     		subs	r4, r4, #8
 812 00da E6E7     		b	.L66
 813              	.LVL104:
 814              	.L68:
 421:..\..\common\lib\lib_Fat/sdcard.c **** 				ty = 0;
 815              		.loc 1 421 0
 816 00dc 8021     		movs	r1, #128
 817 00de 1020     		movs	r0, #16
 818 00e0 8900     		lsls	r1, r1, #2
 819 00e2 FFF7FEFF 		bl	send_cmd
 820              	.LVL105:
 821 00e6 0028     		cmp	r0, #0
 822 00e8 DED1     		bne	.L62
 823 00ea DEE7     		b	.L66
 824              	.LVL106:
 825              	.L74:
 432:..\..\common\lib\lib_Fat/sdcard.c **** }
 826              		.loc 1 432 0
 827 00ec 2000     		movs	r0, r4
 828              		@ sp needed
ARM GAS  C:\Users\Petro\AppData\Local\Temp\ccUQeyWd.s 			page 24


 829 00ee 76BD     		pop	{r1, r2, r4, r5, r6, pc}
 830              	.L79:
 831              		.align	2
 832              	.L78:
 833 00f0 10270000 		.word	10000
 834 00f4 00000000 		.word	.LANCHOR1
 835 00f8 00000000 		.word	.LANCHOR0
 836              		.cfi_endproc
 837              	.LFE71:
 838              		.size	disk_initialize, .-disk_initialize
 839              		.section	.text.disk_read,"ax",%progbits
 840              		.align	1
 841              		.global	disk_read
 842              		.code	16
 843              		.thumb_func
 844              		.type	disk_read, %function
 845              	disk_read:
 846              	.LFB72:
 433:..\..\common\lib\lib_Fat/sdcard.c **** 
 434:..\..\common\lib\lib_Fat/sdcard.c **** /*-----------------------------------------------------------------------*/
 435:..\..\common\lib\lib_Fat/sdcard.c **** /* Read Sector(s)                                                        */
 436:..\..\common\lib\lib_Fat/sdcard.c **** /*-----------------------------------------------------------------------*/
 437:..\..\common\lib\lib_Fat/sdcard.c **** 
 438:..\..\common\lib\lib_Fat/sdcard.c **** DRESULT disk_read(BYTE drv,	BYTE *buff,	DWORD sector, UINT count) /* Physical drive nmuber (0) */
 439:..\..\common\lib\lib_Fat/sdcard.c **** {
 847              		.loc 1 439 0
 848              		.cfi_startproc
 849              		@ args = 0, pretend = 0, frame = 0
 850              		@ frame_needed = 0, uses_anonymous_args = 0
 851              	.LVL107:
 852 0000 70B5     		push	{r4, r5, r6, lr}
 853              		.cfi_def_cfa_offset 16
 854              		.cfi_offset 4, -16
 855              		.cfi_offset 5, -12
 856              		.cfi_offset 6, -8
 857              		.cfi_offset 14, -4
 858              		.loc 1 439 0
 859 0002 1D00     		movs	r5, r3
 860 0004 0123     		movs	r3, #1
 861              	.LVL108:
 862 0006 0E00     		movs	r6, r1
 863              	.LBB12:
 864              	.LBB13:
 376:..\..\common\lib\lib_Fat/sdcard.c **** 
 865              		.loc 1 376 0
 866 0008 1900     		movs	r1, r3
 867              	.LVL109:
 868 000a 0028     		cmp	r0, #0
 869 000c 01D1     		bne	.L81
 378:..\..\common\lib\lib_Fat/sdcard.c **** }
 870              		.loc 1 378 0
 871 000e 1749     		ldr	r1, .L95
 872 0010 0978     		ldrb	r1, [r1]
 873              	.L81:
 874              	.LVL110:
 875              	.LBE13:
 876              	.LBE12:
ARM GAS  C:\Users\Petro\AppData\Local\Temp\ccUQeyWd.s 			page 25


 440:..\..\common\lib\lib_Fat/sdcard.c **** 	BYTE cmd;
 441:..\..\common\lib\lib_Fat/sdcard.c **** 
 442:..\..\common\lib\lib_Fat/sdcard.c **** 	if (disk_status(drv) & STA_NOINIT) return RES_NOTRDY;
 877              		.loc 1 442 0
 878 0012 0320     		movs	r0, #3
 879              	.LVL111:
 880 0014 1942     		tst	r1, r3
 881 0016 28D1     		bne	.L82
 443:..\..\common\lib\lib_Fat/sdcard.c **** 	if (!(CardType & CT_BLOCK)) sector *= 512;	/* Convert LBA to byte address if needed */
 882              		.loc 1 443 0
 883 0018 154B     		ldr	r3, .L95+4
 884 001a 1B78     		ldrb	r3, [r3]
 885 001c 1B07     		lsls	r3, r3, #28
 886 001e 00D4     		bmi	.L83
 887              		.loc 1 443 0 is_stmt 0 discriminator 1
 888 0020 5202     		lsls	r2, r2, #9
 889              	.LVL112:
 890              	.L83:
 444:..\..\common\lib\lib_Fat/sdcard.c **** 
 445:..\..\common\lib\lib_Fat/sdcard.c **** 	cmd = count > 1 ? CMD18 : CMD17;			/*  READ_MULTIPLE_BLOCK : READ_SINGLE_BLOCK */
 891              		.loc 1 445 0 is_stmt 1
 892 0022 0124     		movs	r4, #1
 893 0024 AC42     		cmp	r4, r5
 894 0026 A441     		sbcs	r4, r4, r4
 895 0028 6442     		rsbs	r4, r4, #0
 896 002a 1134     		adds	r4, r4, #17
 897              	.LVL113:
 446:..\..\common\lib\lib_Fat/sdcard.c **** 	if (send_cmd(cmd, sector) == 0) {
 898              		.loc 1 446 0
 899 002c 1100     		movs	r1, r2
 900 002e 2000     		movs	r0, r4
 901 0030 FFF7FEFF 		bl	send_cmd
 902              	.LVL114:
 903 0034 0028     		cmp	r0, #0
 904 0036 12D1     		bne	.L85
 905              	.L87:
 447:..\..\common\lib\lib_Fat/sdcard.c **** 		do {
 448:..\..\common\lib\lib_Fat/sdcard.c **** 			if (!rcvr_datablock(buff, 512)) break;
 906              		.loc 1 448 0
 907 0038 8021     		movs	r1, #128
 908 003a 3000     		movs	r0, r6
 909 003c 8900     		lsls	r1, r1, #2
 910 003e FFF7FEFF 		bl	rcvr_datablock
 911              	.LVL115:
 912 0042 0028     		cmp	r0, #0
 913 0044 05D0     		beq	.L86
 449:..\..\common\lib\lib_Fat/sdcard.c **** 			buff += 512;
 914              		.loc 1 449 0
 915 0046 8023     		movs	r3, #128
 450:..\..\common\lib\lib_Fat/sdcard.c **** 		} while (--count);
 916              		.loc 1 450 0
 917 0048 013D     		subs	r5, r5, #1
 918              	.LVL116:
 449:..\..\common\lib\lib_Fat/sdcard.c **** 			buff += 512;
 919              		.loc 1 449 0
 920 004a 9B00     		lsls	r3, r3, #2
 921 004c F618     		adds	r6, r6, r3
ARM GAS  C:\Users\Petro\AppData\Local\Temp\ccUQeyWd.s 			page 26


 922              	.LVL117:
 923              		.loc 1 450 0
 924 004e 002D     		cmp	r5, #0
 925 0050 F2D1     		bne	.L87
 926              	.L86:
 451:..\..\common\lib\lib_Fat/sdcard.c **** 		if (cmd == CMD18) send_cmd(CMD12, 0);	/* STOP_TRANSMISSION */
 927              		.loc 1 451 0
 928 0052 122C     		cmp	r4, #18
 929 0054 03D1     		bne	.L85
 930              		.loc 1 451 0 is_stmt 0 discriminator 1
 931 0056 0021     		movs	r1, #0
 932 0058 0C20     		movs	r0, #12
 933 005a FFF7FEFF 		bl	send_cmd
 934              	.LVL118:
 935              	.L85:
 452:..\..\common\lib\lib_Fat/sdcard.c **** 	}
 453:..\..\common\lib\lib_Fat/sdcard.c **** 	deselect();
 936              		.loc 1 453 0 is_stmt 1
 937 005e FFF7FEFF 		bl	deselect
 938              	.LVL119:
 454:..\..\common\lib\lib_Fat/sdcard.c **** 
 455:..\..\common\lib\lib_Fat/sdcard.c **** 	return count ? RES_ERROR : RES_OK;
 939              		.loc 1 455 0
 940 0062 2B00     		movs	r3, r5
 941 0064 5D1E     		subs	r5, r3, #1
 942 0066 AB41     		sbcs	r3, r3, r5
 943              	.LVL120:
 944 0068 D8B2     		uxtb	r0, r3
 945              	.LVL121:
 946              	.L82:
 456:..\..\common\lib\lib_Fat/sdcard.c **** }
 947              		.loc 1 456 0
 948              		@ sp needed
 949              	.LVL122:
 950 006a 70BD     		pop	{r4, r5, r6, pc}
 951              	.L96:
 952              		.align	2
 953              	.L95:
 954 006c 00000000 		.word	.LANCHOR0
 955 0070 00000000 		.word	.LANCHOR1
 956              		.cfi_endproc
 957              	.LFE72:
 958              		.size	disk_read, .-disk_read
 959              		.section	.text.disk_write,"ax",%progbits
 960              		.align	1
 961              		.global	disk_write
 962              		.code	16
 963              		.thumb_func
 964              		.type	disk_write, %function
 965              	disk_write:
 966              	.LFB73:
 457:..\..\common\lib\lib_Fat/sdcard.c **** 
 458:..\..\common\lib\lib_Fat/sdcard.c **** /*-----------------------------------------------------------------------*/
 459:..\..\common\lib\lib_Fat/sdcard.c **** /* Write Sector(s)                                                       */
 460:..\..\common\lib\lib_Fat/sdcard.c **** /*-----------------------------------------------------------------------*/
 461:..\..\common\lib\lib_Fat/sdcard.c **** 
 462:..\..\common\lib\lib_Fat/sdcard.c **** DRESULT disk_write (
ARM GAS  C:\Users\Petro\AppData\Local\Temp\ccUQeyWd.s 			page 27


 463:..\..\common\lib\lib_Fat/sdcard.c **** 	BYTE drv,			/* Physical drive nmuber (0) */
 464:..\..\common\lib\lib_Fat/sdcard.c **** 	const BYTE *buff,	/* Pointer to the data to be written */
 465:..\..\common\lib\lib_Fat/sdcard.c **** 	DWORD sector,		/* Start sector number (LBA) */
 466:..\..\common\lib\lib_Fat/sdcard.c **** 	UINT count			/* Sector count (1..128) */
 467:..\..\common\lib\lib_Fat/sdcard.c **** )
 468:..\..\common\lib\lib_Fat/sdcard.c **** {
 967              		.loc 1 468 0
 968              		.cfi_startproc
 969              		@ args = 0, pretend = 0, frame = 0
 970              		@ frame_needed = 0, uses_anonymous_args = 0
 971              	.LVL123:
 972 0000 70B5     		push	{r4, r5, r6, lr}
 973              		.cfi_def_cfa_offset 16
 974              		.cfi_offset 4, -16
 975              		.cfi_offset 5, -12
 976              		.cfi_offset 6, -8
 977              		.cfi_offset 14, -4
 978              		.loc 1 468 0
 979 0002 1C00     		movs	r4, r3
 980 0004 0123     		movs	r3, #1
 981              	.LVL124:
 982 0006 1600     		movs	r6, r2
 983 0008 0D00     		movs	r5, r1
 984              	.LBB14:
 985              	.LBB15:
 376:..\..\common\lib\lib_Fat/sdcard.c **** 
 986              		.loc 1 376 0
 987 000a 1A00     		movs	r2, r3
 988              	.LVL125:
 989 000c 0028     		cmp	r0, #0
 990 000e 01D1     		bne	.L98
 378:..\..\common\lib\lib_Fat/sdcard.c **** }
 991              		.loc 1 378 0
 992 0010 1F4A     		ldr	r2, .L116
 993 0012 1278     		ldrb	r2, [r2]
 994              	.L98:
 995              	.LVL126:
 996              	.LBE15:
 997              	.LBE14:
 469:..\..\common\lib\lib_Fat/sdcard.c **** 	if (disk_status(drv) & STA_NOINIT) return RES_NOTRDY;
 998              		.loc 1 469 0
 999 0014 0320     		movs	r0, #3
 1000              	.LVL127:
 1001 0016 1A42     		tst	r2, r3
 1002 0018 38D1     		bne	.L99
 470:..\..\common\lib\lib_Fat/sdcard.c **** 	if (!(CardType & CT_BLOCK)) sector *= 512;	/* Convert LBA to byte address if needed */
 1003              		.loc 1 470 0
 1004 001a 1E4B     		ldr	r3, .L116+4
 1005 001c 1B78     		ldrb	r3, [r3]
 1006 001e 1A07     		lsls	r2, r3, #28
 1007 0020 00D4     		bmi	.L100
 1008              		.loc 1 470 0 is_stmt 0 discriminator 1
 1009 0022 7602     		lsls	r6, r6, #9
 1010              	.LVL128:
 1011              	.L100:
 471:..\..\common\lib\lib_Fat/sdcard.c **** 
 472:..\..\common\lib\lib_Fat/sdcard.c **** 	if (count == 1) {	/* Single block write */
ARM GAS  C:\Users\Petro\AppData\Local\Temp\ccUQeyWd.s 			page 28


 1012              		.loc 1 472 0 is_stmt 1
 1013 0024 012C     		cmp	r4, #1
 1014 0026 0CD1     		bne	.L101
 473:..\..\common\lib\lib_Fat/sdcard.c **** 		if ((send_cmd(CMD24, sector) == 0)	/* WRITE_BLOCK */
 1015              		.loc 1 473 0
 1016 0028 3100     		movs	r1, r6
 1017              	.LVL129:
 1018 002a 1820     		movs	r0, #24
 1019 002c FFF7FEFF 		bl	send_cmd
 1020              	.LVL130:
 1021 0030 0028     		cmp	r0, #0
 1022 0032 25D1     		bne	.L102
 474:..\..\common\lib\lib_Fat/sdcard.c **** 			&& xmit_datablock(buff, 0xFE))
 1023              		.loc 1 474 0
 1024 0034 FE21     		movs	r1, #254
 1025 0036 2800     		movs	r0, r5
 1026 0038 FFF7FEFF 		bl	xmit_datablock
 1027              	.LVL131:
 1028 003c 4442     		rsbs	r4, r0, #0
 1029 003e 4441     		adcs	r4, r4, r0
 1030              	.LVL132:
 1031 0040 1FE0     		b	.L103
 1032              	.LVL133:
 1033              	.L101:
 475:..\..\common\lib\lib_Fat/sdcard.c **** 			count = 0;
 476:..\..\common\lib\lib_Fat/sdcard.c **** 	}
 477:..\..\common\lib\lib_Fat/sdcard.c **** 	else {				/* Multiple block write */
 478:..\..\common\lib\lib_Fat/sdcard.c **** 		if (CardType & CT_SDC) send_cmd(ACMD23, count);
 1034              		.loc 1 478 0
 1035 0042 0622     		movs	r2, #6
 1036 0044 1342     		tst	r3, r2
 1037 0046 03D0     		beq	.L104
 1038              		.loc 1 478 0 is_stmt 0 discriminator 1
 1039 0048 2100     		movs	r1, r4
 1040              	.LVL134:
 1041 004a 9720     		movs	r0, #151
 1042 004c FFF7FEFF 		bl	send_cmd
 1043              	.LVL135:
 1044              	.L104:
 479:..\..\common\lib\lib_Fat/sdcard.c **** 		if (send_cmd(CMD25, sector) == 0) {	/* WRITE_MULTIPLE_BLOCK */
 1045              		.loc 1 479 0 is_stmt 1
 1046 0050 3100     		movs	r1, r6
 1047 0052 1920     		movs	r0, #25
 1048 0054 FFF7FEFF 		bl	send_cmd
 1049              	.LVL136:
 1050 0058 0028     		cmp	r0, #0
 1051 005a 12D1     		bne	.L103
 1052              	.L106:
 480:..\..\common\lib\lib_Fat/sdcard.c **** 			do {
 481:..\..\common\lib\lib_Fat/sdcard.c **** 				if (!xmit_datablock(buff, 0xFC)) break;
 1053              		.loc 1 481 0
 1054 005c FC21     		movs	r1, #252
 1055 005e 2800     		movs	r0, r5
 1056 0060 FFF7FEFF 		bl	xmit_datablock
 1057              	.LVL137:
 1058 0064 0028     		cmp	r0, #0
 1059 0066 05D0     		beq	.L105
ARM GAS  C:\Users\Petro\AppData\Local\Temp\ccUQeyWd.s 			page 29


 482:..\..\common\lib\lib_Fat/sdcard.c **** 				buff += 512;
 1060              		.loc 1 482 0
 1061 0068 8023     		movs	r3, #128
 483:..\..\common\lib\lib_Fat/sdcard.c **** 			} while (--count);
 1062              		.loc 1 483 0
 1063 006a 013C     		subs	r4, r4, #1
 1064              	.LVL138:
 482:..\..\common\lib\lib_Fat/sdcard.c **** 				buff += 512;
 1065              		.loc 1 482 0
 1066 006c 9B00     		lsls	r3, r3, #2
 1067 006e ED18     		adds	r5, r5, r3
 1068              	.LVL139:
 1069              		.loc 1 483 0
 1070 0070 002C     		cmp	r4, #0
 1071 0072 F3D1     		bne	.L106
 1072              	.L105:
 484:..\..\common\lib\lib_Fat/sdcard.c **** 			if (!xmit_datablock(0, 0xFD))	/* STOP_TRAN token */
 1073              		.loc 1 484 0
 1074 0074 FD21     		movs	r1, #253
 1075 0076 0020     		movs	r0, #0
 1076 0078 FFF7FEFF 		bl	xmit_datablock
 1077              	.LVL140:
 1078 007c 0028     		cmp	r0, #0
 1079 007e 00D1     		bne	.L103
 1080              	.L102:
 1081              	.LVL141:
 485:..\..\common\lib\lib_Fat/sdcard.c **** 				count = 1;
 1082              		.loc 1 485 0
 1083 0080 0124     		movs	r4, #1
 1084              	.LVL142:
 1085              	.L103:
 486:..\..\common\lib\lib_Fat/sdcard.c **** 		}
 487:..\..\common\lib\lib_Fat/sdcard.c **** 	}
 488:..\..\common\lib\lib_Fat/sdcard.c **** 	deselect();
 489:..\..\common\lib\lib_Fat/sdcard.c **** 
 490:..\..\common\lib\lib_Fat/sdcard.c **** 	return count ? RES_ERROR : RES_OK;
 1086              		.loc 1 490 0
 1087 0082 601E     		subs	r0, r4, #1
 1088 0084 8441     		sbcs	r4, r4, r0
 1089              	.LVL143:
 488:..\..\common\lib\lib_Fat/sdcard.c **** 
 1090              		.loc 1 488 0
 1091 0086 FFF7FEFF 		bl	deselect
 1092              	.LVL144:
 1093              		.loc 1 490 0
 1094 008a E0B2     		uxtb	r0, r4
 1095              	.L99:
 491:..\..\common\lib\lib_Fat/sdcard.c **** }
 1096              		.loc 1 491 0
 1097              		@ sp needed
 1098              	.LVL145:
 1099              	.LVL146:
 1100 008c 70BD     		pop	{r4, r5, r6, pc}
 1101              	.L117:
 1102 008e C046     		.align	2
 1103              	.L116:
 1104 0090 00000000 		.word	.LANCHOR0
ARM GAS  C:\Users\Petro\AppData\Local\Temp\ccUQeyWd.s 			page 30


 1105 0094 00000000 		.word	.LANCHOR1
 1106              		.cfi_endproc
 1107              	.LFE73:
 1108              		.size	disk_write, .-disk_write
 1109              		.section	.text.disk_ioctl,"ax",%progbits
 1110              		.align	1
 1111              		.global	disk_ioctl
 1112              		.code	16
 1113              		.thumb_func
 1114              		.type	disk_ioctl, %function
 1115              	disk_ioctl:
 1116              	.LFB74:
 492:..\..\common\lib\lib_Fat/sdcard.c **** 
 493:..\..\common\lib\lib_Fat/sdcard.c **** 
 494:..\..\common\lib\lib_Fat/sdcard.c **** /*-----------------------------------------------------------------------*/
 495:..\..\common\lib\lib_Fat/sdcard.c **** /* Miscellaneous Functions                                               */
 496:..\..\common\lib\lib_Fat/sdcard.c **** /*-----------------------------------------------------------------------*/
 497:..\..\common\lib\lib_Fat/sdcard.c **** 
 498:..\..\common\lib\lib_Fat/sdcard.c **** DRESULT disk_ioctl (
 499:..\..\common\lib\lib_Fat/sdcard.c **** 	BYTE drv,		/* Physical drive nmuber (0) */
 500:..\..\common\lib\lib_Fat/sdcard.c **** 	BYTE ctrl,		/* Control code */
 501:..\..\common\lib\lib_Fat/sdcard.c **** 	void *buff		/* Buffer to send/receive control data */
 502:..\..\common\lib\lib_Fat/sdcard.c **** )
 503:..\..\common\lib\lib_Fat/sdcard.c **** {
 1117              		.loc 1 503 0
 1118              		.cfi_startproc
 1119              		@ args = 0, pretend = 0, frame = 16
 1120              		@ frame_needed = 0, uses_anonymous_args = 0
 1121              	.LVL147:
 1122 0000 7FB5     		push	{r0, r1, r2, r3, r4, r5, r6, lr}
 1123              		.cfi_def_cfa_offset 32
 1124              		.cfi_offset 0, -32
 1125              		.cfi_offset 1, -28
 1126              		.cfi_offset 2, -24
 1127              		.cfi_offset 3, -20
 1128              		.cfi_offset 4, -16
 1129              		.cfi_offset 5, -12
 1130              		.cfi_offset 6, -8
 1131              		.cfi_offset 14, -4
 1132 0002 0123     		movs	r3, #1
 1133              		.loc 1 503 0
 1134 0004 1500     		movs	r5, r2
 1135              	.LBB16:
 1136              	.LBB17:
 376:..\..\common\lib\lib_Fat/sdcard.c **** 
 1137              		.loc 1 376 0
 1138 0006 1C00     		movs	r4, r3
 1139 0008 0028     		cmp	r0, #0
 1140 000a 01D1     		bne	.L119
 378:..\..\common\lib\lib_Fat/sdcard.c **** }
 1141              		.loc 1 378 0
 1142 000c 2C4A     		ldr	r2, .L137
 1143              	.LVL148:
 1144 000e 1478     		ldrb	r4, [r2]
 1145              	.L119:
 1146              	.LVL149:
 1147              	.LBE17:
ARM GAS  C:\Users\Petro\AppData\Local\Temp\ccUQeyWd.s 			page 31


 1148              	.LBE16:
 504:..\..\common\lib\lib_Fat/sdcard.c **** 	DRESULT res;
 505:..\..\common\lib\lib_Fat/sdcard.c **** 	BYTE n, csd[16];
 506:..\..\common\lib\lib_Fat/sdcard.c **** 	DWORD cs;
 507:..\..\common\lib\lib_Fat/sdcard.c **** 
 508:..\..\common\lib\lib_Fat/sdcard.c **** 
 509:..\..\common\lib\lib_Fat/sdcard.c **** 	if (disk_status(drv) & STA_NOINIT) return RES_NOTRDY;	/* Check if card is in the socket */
 1149              		.loc 1 509 0
 1150 0010 1C40     		ands	r4, r3
 1151 0012 0320     		movs	r0, #3
 1152              	.LVL150:
 1153 0014 002C     		cmp	r4, #0
 1154 0016 50D1     		bne	.L120
 1155              	.LVL151:
 510:..\..\common\lib\lib_Fat/sdcard.c **** 
 511:..\..\common\lib\lib_Fat/sdcard.c **** 	res = RES_ERROR;
 512:..\..\common\lib\lib_Fat/sdcard.c **** 	switch (ctrl) {
 1156              		.loc 1 512 0
 1157 0018 0129     		cmp	r1, #1
 1158 001a 0BD0     		beq	.L122
 1159 001c 0029     		cmp	r1, #0
 1160 001e 03D0     		beq	.L123
 1161 0020 8142     		cmp	r1, r0
 1162 0022 46D1     		bne	.L136
 513:..\..\common\lib\lib_Fat/sdcard.c **** 		case CTRL_SYNC :		/* Make sure that no pending write process */
 514:..\..\common\lib\lib_Fat/sdcard.c **** 			if (select()) res = RES_OK;
 515:..\..\common\lib\lib_Fat/sdcard.c **** 			break;
 516:..\..\common\lib\lib_Fat/sdcard.c **** 
 517:..\..\common\lib\lib_Fat/sdcard.c **** 		case GET_SECTOR_COUNT :	/* Get number of sectors on the disk (DWORD) */
 518:..\..\common\lib\lib_Fat/sdcard.c **** 			if ((send_cmd(CMD9, 0) == 0) && rcvr_datablock(csd, 16)) {
 519:..\..\common\lib\lib_Fat/sdcard.c **** 				if ((csd[0] >> 6) == 1) {	/* SDC ver 2.00 */
 520:..\..\common\lib\lib_Fat/sdcard.c **** 					cs = csd[9] + ((WORD)csd[8] << 8) + ((DWORD)(csd[7] & 63) << 16) + 1;
 521:..\..\common\lib\lib_Fat/sdcard.c **** 					*(DWORD*)buff = cs << 10;
 522:..\..\common\lib\lib_Fat/sdcard.c **** 				} else {					/* SDC ver 1.XX or MMC */
 523:..\..\common\lib\lib_Fat/sdcard.c **** 					n = (csd[5] & 15) + ((csd[10] & 128) >> 7) + ((csd[9] & 3) << 1) + 2;
 524:..\..\common\lib\lib_Fat/sdcard.c **** 					cs = (csd[8] >> 6) + ((WORD)csd[7] << 2) + ((WORD)(csd[6] & 3) << 10) + 1;
 525:..\..\common\lib\lib_Fat/sdcard.c **** 					*(DWORD*)buff = cs << (n - 9);
 526:..\..\common\lib\lib_Fat/sdcard.c **** 				}
 527:..\..\common\lib\lib_Fat/sdcard.c **** 				res = RES_OK;
 528:..\..\common\lib\lib_Fat/sdcard.c **** 			}
 529:..\..\common\lib\lib_Fat/sdcard.c **** 			break;
 530:..\..\common\lib\lib_Fat/sdcard.c **** 
 531:..\..\common\lib\lib_Fat/sdcard.c **** 		case GET_BLOCK_SIZE :	/* Get erase block size in unit of sector (DWORD) */
 532:..\..\common\lib\lib_Fat/sdcard.c **** 			*(DWORD*)buff = 128;
 1163              		.loc 1 532 0
 1164 0024 8023     		movs	r3, #128
 1165 0026 42E0     		b	.L135
 1166              	.L123:
 514:..\..\common\lib\lib_Fat/sdcard.c **** 			break;
 1167              		.loc 1 514 0
 1168 0028 FFF7FEFF 		bl	select
 1169              	.LVL152:
 1170 002c 4442     		rsbs	r4, r0, #0
 1171 002e 4441     		adcs	r4, r4, r0
 1172 0030 E4B2     		uxtb	r4, r4
 1173 0032 3FE0     		b	.L121
 1174              	.LVL153:
ARM GAS  C:\Users\Petro\AppData\Local\Temp\ccUQeyWd.s 			page 32


 1175              	.L122:
 518:..\..\common\lib\lib_Fat/sdcard.c **** 				if ((csd[0] >> 6) == 1) {	/* SDC ver 2.00 */
 1176              		.loc 1 518 0
 1177 0034 2100     		movs	r1, r4
 1178              	.LVL154:
 1179 0036 0920     		movs	r0, #9
 1180 0038 FFF7FEFF 		bl	send_cmd
 1181              	.LVL155:
 1182 003c 041E     		subs	r4, r0, #0
 1183 003e 01D0     		beq	.L125
 1184              	.L126:
 511:..\..\common\lib\lib_Fat/sdcard.c **** 	switch (ctrl) {
 1185              		.loc 1 511 0
 1186 0040 0124     		movs	r4, #1
 1187 0042 37E0     		b	.L121
 1188              	.L125:
 518:..\..\common\lib\lib_Fat/sdcard.c **** 				if ((csd[0] >> 6) == 1) {	/* SDC ver 2.00 */
 1189              		.loc 1 518 0 discriminator 1
 1190 0044 1021     		movs	r1, #16
 1191 0046 6846     		mov	r0, sp
 1192 0048 FFF7FEFF 		bl	rcvr_datablock
 1193              	.LVL156:
 1194 004c 0028     		cmp	r0, #0
 1195 004e F7D0     		beq	.L126
 519:..\..\common\lib\lib_Fat/sdcard.c **** 					cs = csd[9] + ((WORD)csd[8] << 8) + ((DWORD)(csd[7] & 63) << 16) + 1;
 1196              		.loc 1 519 0
 1197 0050 6B46     		mov	r3, sp
 1198 0052 6946     		mov	r1, sp
 1199 0054 1A78     		ldrb	r2, [r3]
 1200 0056 487A     		ldrb	r0, [r1, #9]
 1201 0058 9209     		lsrs	r2, r2, #6
 1202 005a 1B7A     		ldrb	r3, [r3, #8]
 1203 005c C979     		ldrb	r1, [r1, #7]
 1204 005e 012A     		cmp	r2, #1
 1205 0060 0AD1     		bne	.L127
 1206              	.LVL157:
 521:..\..\common\lib\lib_Fat/sdcard.c **** 				} else {					/* SDC ver 1.XX or MMC */
 1207              		.loc 1 521 0
 1208 0062 1A02     		lsls	r2, r3, #8
 1209 0064 1218     		adds	r2, r2, r0
 1210 0066 FC20     		movs	r0, #252
 1211 0068 0904     		lsls	r1, r1, #16
 1212 006a 8003     		lsls	r0, r0, #14
 1213 006c 0140     		ands	r1, r0
 1214 006e 0131     		adds	r1, r1, #1
 1215 0070 5218     		adds	r2, r2, r1
 1216 0072 9202     		lsls	r2, r2, #10
 1217 0074 2A60     		str	r2, [r5]
 1218 0076 1DE0     		b	.L121
 1219              	.LVL158:
 1220              	.L127:
 525:..\..\common\lib\lib_Fat/sdcard.c **** 				}
 1221              		.loc 1 525 0
 1222 0078 9B09     		lsrs	r3, r3, #6
 1223 007a 8900     		lsls	r1, r1, #2
 1224 007c 5918     		adds	r1, r3, r1
 1225 007e 6B46     		mov	r3, sp
ARM GAS  C:\Users\Petro\AppData\Local\Temp\ccUQeyWd.s 			page 33


 1226 0080 C022     		movs	r2, #192
 1227 0082 9B79     		ldrb	r3, [r3, #6]
 1228 0084 1201     		lsls	r2, r2, #4
 1229 0086 9B02     		lsls	r3, r3, #10
 1230 0088 1340     		ands	r3, r2
 1231 008a 6A46     		mov	r2, sp
 1232 008c C918     		adds	r1, r1, r3
 1233 008e 4B1C     		adds	r3, r1, #1
 1234 0090 6946     		mov	r1, sp
 1235 0092 5679     		ldrb	r6, [r2, #5]
 1236 0094 0F22     		movs	r2, #15
 1237 0096 897A     		ldrb	r1, [r1, #10]
 1238 0098 3240     		ands	r2, r6
 1239 009a C909     		lsrs	r1, r1, #7
 1240 009c 5218     		adds	r2, r2, r1
 1241 009e 0621     		movs	r1, #6
 1242 00a0 961C     		adds	r6, r2, #2
 1243 00a2 4200     		lsls	r2, r0, #1
 1244 00a4 0A40     		ands	r2, r1
 1245 00a6 B218     		adds	r2, r6, r2
 1246 00a8 D2B2     		uxtb	r2, r2
 1247 00aa 093A     		subs	r2, r2, #9
 1248 00ac 9340     		lsls	r3, r3, r2
 1249              	.LVL159:
 1250              	.L135:
 1251              		.loc 1 532 0
 1252 00ae 2B60     		str	r3, [r5]
 1253              	.LVL160:
 533:..\..\common\lib\lib_Fat/sdcard.c **** 			res = RES_OK;
 534:..\..\common\lib\lib_Fat/sdcard.c **** 			break;
 1254              		.loc 1 534 0
 1255 00b0 00E0     		b	.L121
 1256              	.LVL161:
 1257              	.L136:
 535:..\..\common\lib\lib_Fat/sdcard.c **** 
 536:..\..\common\lib\lib_Fat/sdcard.c **** 		default:
 537:..\..\common\lib\lib_Fat/sdcard.c **** 			res = RES_PARERR;
 1258              		.loc 1 537 0
 1259 00b2 0424     		movs	r4, #4
 1260              	.LVL162:
 1261              	.L121:
 538:..\..\common\lib\lib_Fat/sdcard.c **** 	}
 539:..\..\common\lib\lib_Fat/sdcard.c **** 
 540:..\..\common\lib\lib_Fat/sdcard.c **** 	deselect();
 1262              		.loc 1 540 0
 1263 00b4 FFF7FEFF 		bl	deselect
 1264              	.LVL163:
 541:..\..\common\lib\lib_Fat/sdcard.c **** 
 542:..\..\common\lib\lib_Fat/sdcard.c **** 	return res;
 1265              		.loc 1 542 0
 1266 00b8 2000     		movs	r0, r4
 1267              	.LVL164:
 1268              	.L120:
 543:..\..\common\lib\lib_Fat/sdcard.c **** }
 1269              		.loc 1 543 0
 1270 00ba 04B0     		add	sp, sp, #16
 1271              		@ sp needed
ARM GAS  C:\Users\Petro\AppData\Local\Temp\ccUQeyWd.s 			page 34


 1272              	.LVL165:
 1273 00bc 70BD     		pop	{r4, r5, r6, pc}
 1274              	.L138:
 1275 00be C046     		.align	2
 1276              	.L137:
 1277 00c0 00000000 		.word	.LANCHOR0
 1278              		.cfi_endproc
 1279              	.LFE74:
 1280              		.size	disk_ioctl, .-disk_ioctl
 1281              		.data
 1282              		.set	.LANCHOR0,. + 0
 1283              		.type	Stat, %object
 1284              		.size	Stat, 1
 1285              	Stat:
 1286 0000 01       		.byte	1
 1287              		.bss
 1288              		.set	.LANCHOR1,. + 0
 1289              		.type	CardType, %object
 1290              		.size	CardType, 1
 1291              	CardType:
 1292 0000 00       		.space	1
 1293              		.text
 1294              	.Letext0:
 1295              		.file 2 "..\\..\\common\\lib\\lib_Fat\\integer.h"
 1296              		.file 3 "..\\..\\common\\lib\\lib_Fat\\diskio.h"
 1297              		.file 4 "Generated_Source\\PSoC4/cytypes.h"
 1298              		.file 5 "Generated_Source\\PSoC4/ble_Stack.h"
 1299              		.file 6 "Generated_Source\\PSoC4/SD_CS.h"
 1300              		.file 7 "Generated_Source\\PSoC4/SwSPI_Master.h"
 1301              		.file 8 "Generated_Source\\PSoC4/CyLib.h"
 1302              		.file 9 "Generated_Source\\PSoC4/RTC.h"