ARM GAS  C:\Users\Petro\AppData\Local\Temp\ccGlVrmy.s 			page 1


   1              		.syntax unified
   2              		.cpu cortex-m0
   3              		.fpu softvfp
   4              		.eabi_attribute 20, 1
   5              		.eabi_attribute 21, 1
   6              		.eabi_attribute 23, 3
   7              		.eabi_attribute 24, 1
   8              		.eabi_attribute 25, 1
   9              		.eabi_attribute 26, 1
  10              		.eabi_attribute 30, 4
  11              		.eabi_attribute 34, 0
  12              		.eabi_attribute 18, 4
  13              		.thumb
  14              		.syntax unified
  15              		.file	"taskAutomat.c"
  16              		.text
  17              	.Ltext0:
  18              		.cfi_sections	.debug_frame
  19              		.section	.text.TIMER_HANDLER,"ax",%progbits
  20              		.align	1
  21              		.global	TIMER_HANDLER
  22              		.code	16
  23              		.thumb_func
  24              		.type	TIMER_HANDLER, %function
  25              	TIMER_HANDLER:
  26              	.LFB63:
  27              		.file 1 "..\\..\\common\\lib\\lib_TaskTimer\\taskAutomat.c"
   1:..\..\common\lib\lib_TaskTimer/taskAutomat.c **** #include <..\..\common\lib\lib_TaskTimer\taskAutomat.h>
   2:..\..\common\lib\lib_TaskTimer/taskAutomat.c **** #include "lib_Network\network.h"
   3:..\..\common\lib\lib_TaskTimer/taskAutomat.c **** #include "..\..\common\lib\lib_Display\display.h"
   4:..\..\common\lib\lib_TaskTimer/taskAutomat.c **** #include "..\..\common\lib\lib_Batt\batt.h"
   5:..\..\common\lib\lib_TaskTimer/taskAutomat.c **** #include "..\..\common\lib\lib_IDskier\IDskier.h"
   6:..\..\common\lib\lib_TaskTimer/taskAutomat.c **** #include "appGlobal.h"
   7:..\..\common\lib\lib_TaskTimer/taskAutomat.c **** #ifdef FINISH_MODULE
   8:..\..\common\lib\lib_TaskTimer/taskAutomat.c **** #include <SDinsert.h>
   9:..\..\common\lib\lib_TaskTimer/taskAutomat.c ****  #include <stdio.h>
  10:..\..\common\lib\lib_TaskTimer/taskAutomat.c **** #include "..\..\common\lib\lib_DB\logResult.h"
  11:..\..\common\lib\lib_TaskTimer/taskAutomat.c **** #include "..\..\common\lib\lib_BLE\bluetooth.h"
  12:..\..\common\lib\lib_TaskTimer/taskAutomat.c **** #include "..\..\common\lib\lib_DS1307\DS1307.h"
  13:..\..\common\lib\lib_TaskTimer/taskAutomat.c **** #endif
  14:..\..\common\lib\lib_TaskTimer/taskAutomat.c **** 
  15:..\..\common\lib\lib_TaskTimer/taskAutomat.c **** #define MAX_NUM_OF_TIMERS   5
  16:..\..\common\lib\lib_TaskTimer/taskAutomat.c **** 
  17:..\..\common\lib\lib_TaskTimer/taskAutomat.c **** #define LOG_STARTED     1
  18:..\..\common\lib\lib_TaskTimer/taskAutomat.c **** #define LOG_NOT_STARTED  0
  19:..\..\common\lib\lib_TaskTimer/taskAutomat.c **** static uint16_t isLogStarted;
  20:..\..\common\lib\lib_TaskTimer/taskAutomat.c **** 
  21:..\..\common\lib\lib_TaskTimer/taskAutomat.c **** uint8_t flag[MAX_NUM_OF_TIMERS];
  22:..\..\common\lib\lib_TaskTimer/taskAutomat.c **** 
  23:..\..\common\lib\lib_TaskTimer/taskAutomat.c **** volatile static struct
  24:..\..\common\lib\lib_TaskTimer/taskAutomat.c **** {
  25:..\..\common\lib\lib_TaskTimer/taskAutomat.c ****     uint8_t Number;
  26:..\..\common\lib\lib_TaskTimer/taskAutomat.c ****     uint16_t Time;
  27:..\..\common\lib\lib_TaskTimer/taskAutomat.c **** }SoftTimer[MAX_NUM_OF_TIMERS];
  28:..\..\common\lib\lib_TaskTimer/taskAutomat.c **** 
  29:..\..\common\lib\lib_TaskTimer/taskAutomat.c **** void Action1(void);
  30:..\..\common\lib\lib_TaskTimer/taskAutomat.c **** void Action2(void);
ARM GAS  C:\Users\Petro\AppData\Local\Temp\ccGlVrmy.s 			page 2


  31:..\..\common\lib\lib_TaskTimer/taskAutomat.c **** void Action3(void);
  32:..\..\common\lib\lib_TaskTimer/taskAutomat.c **** void Action4(void);
  33:..\..\common\lib\lib_TaskTimer/taskAutomat.c **** void Action5(void);
  34:..\..\common\lib\lib_TaskTimer/taskAutomat.c **** 
  35:..\..\common\lib\lib_TaskTimer/taskAutomat.c **** CY_ISR(TIMER_HANDLER)
  36:..\..\common\lib\lib_TaskTimer/taskAutomat.c **** {
  28              		.loc 1 36 0
  29              		.cfi_startproc
  30              		@ args = 0, pretend = 0, frame = 0
  31              		@ frame_needed = 0, uses_anonymous_args = 0
  32              	.LVL0:
  33 0000 F8B5     		push	{r3, r4, r5, r6, r7, lr}
  34              		.cfi_def_cfa_offset 24
  35              		.cfi_offset 3, -24
  36              		.cfi_offset 4, -20
  37              		.cfi_offset 5, -16
  38              		.cfi_offset 6, -12
  39              		.cfi_offset 7, -8
  40              		.cfi_offset 14, -4
  37:..\..\common\lib\lib_TaskTimer/taskAutomat.c ****     int i;
  38:..\..\common\lib\lib_TaskTimer/taskAutomat.c ****     for(i=0; i<MAX_NUM_OF_TIMERS; i++)
  41              		.loc 1 38 0
  42 0002 0022     		movs	r2, #0
  39:..\..\common\lib\lib_TaskTimer/taskAutomat.c ****     {
  40:..\..\common\lib\lib_TaskTimer/taskAutomat.c ****         if(SoftTimer[i].Number == 255)continue;     /*if timer empty, next timer*/
  41:..\..\common\lib\lib_TaskTimer/taskAutomat.c ****         
  42:..\..\common\lib\lib_TaskTimer/taskAutomat.c ****         if(SoftTimer[i].Time > 0)
  43:..\..\common\lib\lib_TaskTimer/taskAutomat.c ****         {
  44:..\..\common\lib\lib_TaskTimer/taskAutomat.c ****             SoftTimer[i].Time --;
  45:..\..\common\lib\lib_TaskTimer/taskAutomat.c ****         }
  46:..\..\common\lib\lib_TaskTimer/taskAutomat.c ****         else
  47:..\..\common\lib\lib_TaskTimer/taskAutomat.c ****         {
  48:..\..\common\lib\lib_TaskTimer/taskAutomat.c ****             /*set flag*/
  49:..\..\common\lib\lib_TaskTimer/taskAutomat.c ****             flag[SoftTimer[i].Number] = 1;
  43              		.loc 1 49 0
  44 0004 0125     		movs	r5, #1
  50:..\..\common\lib\lib_TaskTimer/taskAutomat.c ****             
  51:..\..\common\lib\lib_TaskTimer/taskAutomat.c ****             /*reset timer*/
  52:..\..\common\lib\lib_TaskTimer/taskAutomat.c ****             SoftTimer[i].Number = 255;
  45              		.loc 1 52 0
  46 0006 FF26     		movs	r6, #255
  40:..\..\common\lib\lib_TaskTimer/taskAutomat.c ****         
  47              		.loc 1 40 0
  48 0008 0D49     		ldr	r1, .L10
  49:..\..\common\lib\lib_TaskTimer/taskAutomat.c ****             
  49              		.loc 1 49 0
  50 000a 0E4C     		ldr	r4, .L10+4
  51              	.LVL1:
  52              	.L4:
  40:..\..\common\lib\lib_TaskTimer/taskAutomat.c ****         
  53              		.loc 1 40 0
  54 000c 9300     		lsls	r3, r2, #2
  55 000e 585C     		ldrb	r0, [r3, r1]
  56 0010 FF28     		cmp	r0, #255
  57 0012 0BD0     		beq	.L2
  42:..\..\common\lib\lib_TaskTimer/taskAutomat.c ****         {
  58              		.loc 1 42 0
ARM GAS  C:\Users\Petro\AppData\Local\Temp\ccGlVrmy.s 			page 3


  59 0014 C818     		adds	r0, r1, r3
  60 0016 4788     		ldrh	r7, [r0, #2]
  61 0018 002F     		cmp	r7, #0
  62 001a 04D0     		beq	.L3
  44:..\..\common\lib\lib_TaskTimer/taskAutomat.c ****         }
  63              		.loc 1 44 0
  64 001c 4388     		ldrh	r3, [r0, #2]
  65 001e 013B     		subs	r3, r3, #1
  66 0020 9BB2     		uxth	r3, r3
  67 0022 4380     		strh	r3, [r0, #2]
  68 0024 02E0     		b	.L2
  69              	.L3:
  49:..\..\common\lib\lib_TaskTimer/taskAutomat.c ****             
  70              		.loc 1 49 0
  71 0026 585C     		ldrb	r0, [r3, r1]
  72              		.loc 1 52 0
  73 0028 5E54     		strb	r6, [r3, r1]
  49:..\..\common\lib\lib_TaskTimer/taskAutomat.c ****             
  74              		.loc 1 49 0
  75 002a 2554     		strb	r5, [r4, r0]
  76              	.L2:
  38:..\..\common\lib\lib_TaskTimer/taskAutomat.c ****     {
  77              		.loc 1 38 0 discriminator 2
  78 002c 0132     		adds	r2, r2, #1
  79              	.LVL2:
  80 002e 052A     		cmp	r2, #5
  81 0030 ECD1     		bne	.L4
  53:..\..\common\lib\lib_TaskTimer/taskAutomat.c ****         }
  54:..\..\common\lib\lib_TaskTimer/taskAutomat.c ****     }
  55:..\..\common\lib\lib_TaskTimer/taskAutomat.c ****     isr_timer_ClearPending();
  82              		.loc 1 55 0
  83 0032 FFF7FEFF 		bl	isr_timer_ClearPending
  84              	.LVL3:
  56:..\..\common\lib\lib_TaskTimer/taskAutomat.c ****     Timer_ClearInterrupt(Timer_INTR_MASK_CC_MATCH);
  85              		.loc 1 56 0
  86 0036 0220     		movs	r0, #2
  87 0038 FFF7FEFF 		bl	Timer_ClearInterrupt
  88              	.LVL4:
  57:..\..\common\lib\lib_TaskTimer/taskAutomat.c **** }
  89              		.loc 1 57 0
  90              		@ sp needed
  91 003c F8BD     		pop	{r3, r4, r5, r6, r7, pc}
  92              	.L11:
  93 003e C046     		.align	2
  94              	.L10:
  95 0040 00000000 		.word	.LANCHOR0
  96 0044 00000000 		.word	flag
  97              		.cfi_endproc
  98              	.LFE63:
  99              		.size	TIMER_HANDLER, .-TIMER_HANDLER
 100              		.section	.text.TaskTimerInit,"ax",%progbits
 101              		.align	1
 102              		.global	TaskTimerInit
 103              		.code	16
 104              		.thumb_func
 105              		.type	TaskTimerInit, %function
 106              	TaskTimerInit:
ARM GAS  C:\Users\Petro\AppData\Local\Temp\ccGlVrmy.s 			page 4


 107              	.LFB65:
  58:..\..\common\lib\lib_TaskTimer/taskAutomat.c **** 
  59:..\..\common\lib\lib_TaskTimer/taskAutomat.c **** /*******************************************************************************
  60:..\..\common\lib\lib_TaskTimer/taskAutomat.c **** * Function Name: TaskCheck
  61:..\..\common\lib\lib_TaskTimer/taskAutomat.c **** ********************************************************************************
  62:..\..\common\lib\lib_TaskTimer/taskAutomat.c **** *
  63:..\..\common\lib\lib_TaskTimer/taskAutomat.c **** * Summary:
  64:..\..\common\lib\lib_TaskTimer/taskAutomat.c **** *   check flag machine
  65:..\..\common\lib\lib_TaskTimer/taskAutomat.c **** *
  66:..\..\common\lib\lib_TaskTimer/taskAutomat.c **** *******************************************************************************/
  67:..\..\common\lib\lib_TaskTimer/taskAutomat.c **** void TaskCheck(void)
  68:..\..\common\lib\lib_TaskTimer/taskAutomat.c **** {
  69:..\..\common\lib\lib_TaskTimer/taskAutomat.c ****     if(flag[ACTION1] == 1)Action1();
  70:..\..\common\lib\lib_TaskTimer/taskAutomat.c ****     if(flag[ACTION2] == 1)Action2();
  71:..\..\common\lib\lib_TaskTimer/taskAutomat.c ****     if(flag[ACTION3] == 1)Action3();
  72:..\..\common\lib\lib_TaskTimer/taskAutomat.c ****     if(flag[ACTION4] == 1)Action4();
  73:..\..\common\lib\lib_TaskTimer/taskAutomat.c ****     if(flag[ACTION5] == 1)Action5();
  74:..\..\common\lib\lib_TaskTimer/taskAutomat.c **** }
  75:..\..\common\lib\lib_TaskTimer/taskAutomat.c **** 
  76:..\..\common\lib\lib_TaskTimer/taskAutomat.c **** /*******************************************************************************
  77:..\..\common\lib\lib_TaskTimer/taskAutomat.c **** * Function Name: TaskTimerInit
  78:..\..\common\lib\lib_TaskTimer/taskAutomat.c **** ********************************************************************************
  79:..\..\common\lib\lib_TaskTimer/taskAutomat.c **** *
  80:..\..\common\lib\lib_TaskTimer/taskAutomat.c **** * Summary:
  81:..\..\common\lib\lib_TaskTimer/taskAutomat.c **** *   init flag machine
  82:..\..\common\lib\lib_TaskTimer/taskAutomat.c **** *
  83:..\..\common\lib\lib_TaskTimer/taskAutomat.c **** *******************************************************************************/
  84:..\..\common\lib\lib_TaskTimer/taskAutomat.c **** void TaskTimerInit(void)
  85:..\..\common\lib\lib_TaskTimer/taskAutomat.c **** {
 108              		.loc 1 85 0
 109              		.cfi_startproc
 110              		@ args = 0, pretend = 0, frame = 0
 111              		@ frame_needed = 0, uses_anonymous_args = 0
 112              	.LVL5:
  86:..\..\common\lib\lib_TaskTimer/taskAutomat.c ****     int i;
  87:..\..\common\lib\lib_TaskTimer/taskAutomat.c ****     for(i=0; i<MAX_NUM_OF_TIMERS; i++)
  88:..\..\common\lib\lib_TaskTimer/taskAutomat.c ****         SoftTimer[i].Number = 255;
 113              		.loc 1 88 0
 114 0000 FF22     		movs	r2, #255
  85:..\..\common\lib\lib_TaskTimer/taskAutomat.c ****     int i;
 115              		.loc 1 85 0
 116 0002 10B5     		push	{r4, lr}
 117              		.cfi_def_cfa_offset 8
 118              		.cfi_offset 4, -8
 119              		.cfi_offset 14, -4
 120              		.loc 1 88 0
 121 0004 054B     		ldr	r3, .L13
  89:..\..\common\lib\lib_TaskTimer/taskAutomat.c ****     
  90:..\..\common\lib\lib_TaskTimer/taskAutomat.c ****     isr_timer_StartEx(TIMER_HANDLER);
 122              		.loc 1 90 0
 123 0006 0648     		ldr	r0, .L13+4
  88:..\..\common\lib\lib_TaskTimer/taskAutomat.c ****     
 124              		.loc 1 88 0
 125 0008 1A70     		strb	r2, [r3]
 126              	.LVL6:
 127 000a 1A71     		strb	r2, [r3, #4]
 128              	.LVL7:
ARM GAS  C:\Users\Petro\AppData\Local\Temp\ccGlVrmy.s 			page 5


 129 000c 1A72     		strb	r2, [r3, #8]
 130              	.LVL8:
 131 000e 1A73     		strb	r2, [r3, #12]
 132              	.LVL9:
 133 0010 1A74     		strb	r2, [r3, #16]
 134              	.LVL10:
 135              		.loc 1 90 0
 136 0012 FFF7FEFF 		bl	isr_timer_StartEx
 137              	.LVL11:
  91:..\..\common\lib\lib_TaskTimer/taskAutomat.c ****     Timer_Start();  
  92:..\..\common\lib\lib_TaskTimer/taskAutomat.c **** }
 138              		.loc 1 92 0
 139              		@ sp needed
  91:..\..\common\lib\lib_TaskTimer/taskAutomat.c ****     Timer_Start();  
 140              		.loc 1 91 0
 141 0016 FFF7FEFF 		bl	Timer_Start
 142              	.LVL12:
 143              		.loc 1 92 0
 144 001a 10BD     		pop	{r4, pc}
 145              	.L14:
 146              		.align	2
 147              	.L13:
 148 001c 00000000 		.word	.LANCHOR0
 149 0020 00000000 		.word	TIMER_HANDLER
 150              		.cfi_endproc
 151              	.LFE65:
 152              		.size	TaskTimerInit, .-TaskTimerInit
 153              		.section	.text.SetTaskTimer,"ax",%progbits
 154              		.align	1
 155              		.global	SetTaskTimer
 156              		.code	16
 157              		.thumb_func
 158              		.type	SetTaskTimer, %function
 159              	SetTaskTimer:
 160              	.LFB66:
  93:..\..\common\lib\lib_TaskTimer/taskAutomat.c **** 
  94:..\..\common\lib\lib_TaskTimer/taskAutomat.c **** /*******************************************************************************
  95:..\..\common\lib\lib_TaskTimer/taskAutomat.c **** * Function Name: SetTaskTimer
  96:..\..\common\lib\lib_TaskTimer/taskAutomat.c **** ********************************************************************************
  97:..\..\common\lib\lib_TaskTimer/taskAutomat.c **** *
  98:..\..\common\lib\lib_TaskTimer/taskAutomat.c **** * Summary:
  99:..\..\common\lib\lib_TaskTimer/taskAutomat.c **** *   set the time for the program timer
 100:..\..\common\lib\lib_TaskTimer/taskAutomat.c **** *
 101:..\..\common\lib\lib_TaskTimer/taskAutomat.c **** * Parameters:
 102:..\..\common\lib\lib_TaskTimer/taskAutomat.c **** *  newNumber - new number task
 103:..\..\common\lib\lib_TaskTimer/taskAutomat.c **** *  newTime - new time from task
 104:..\..\common\lib\lib_TaskTimer/taskAutomat.c **** *
 105:..\..\common\lib\lib_TaskTimer/taskAutomat.c **** *******************************************************************************/
 106:..\..\common\lib\lib_TaskTimer/taskAutomat.c **** void SetTaskTimer(uint8_t newNumber, uint16_t newTime)
 107:..\..\common\lib\lib_TaskTimer/taskAutomat.c **** {
 161              		.loc 1 107 0
 162              		.cfi_startproc
 163              		@ args = 0, pretend = 0, frame = 0
 164              		@ frame_needed = 0, uses_anonymous_args = 0
 165              	.LVL13:
 108:..\..\common\lib\lib_TaskTimer/taskAutomat.c ****     //CyGlobalIntDisable;
 109:..\..\common\lib\lib_TaskTimer/taskAutomat.c ****     int i;
ARM GAS  C:\Users\Petro\AppData\Local\Temp\ccGlVrmy.s 			page 6


 110:..\..\common\lib\lib_TaskTimer/taskAutomat.c ****     
 111:..\..\common\lib\lib_TaskTimer/taskAutomat.c ****     /*search existing timer*/
 112:..\..\common\lib\lib_TaskTimer/taskAutomat.c ****     for(i=0; i< MAX_NUM_OF_TIMERS; i++)
 166              		.loc 1 112 0
 167 0000 0022     		movs	r2, #0
 107:..\..\common\lib\lib_TaskTimer/taskAutomat.c ****     //CyGlobalIntDisable;
 168              		.loc 1 107 0
 169 0002 70B5     		push	{r4, r5, r6, lr}
 170              		.cfi_def_cfa_offset 16
 171              		.cfi_offset 4, -16
 172              		.cfi_offset 5, -12
 173              		.cfi_offset 6, -8
 174              		.cfi_offset 14, -4
 113:..\..\common\lib\lib_TaskTimer/taskAutomat.c ****     {
 114:..\..\common\lib\lib_TaskTimer/taskAutomat.c ****         if(SoftTimer[i].Number == newNumber)
 175              		.loc 1 114 0
 176 0004 0C4B     		ldr	r3, .L23
 177              	.LVL14:
 178              	.L18:
 179 0006 9400     		lsls	r4, r2, #2
 180 0008 E65C     		ldrb	r6, [r4, r3]
 181 000a 1D00     		movs	r5, r3
 182 000c 8642     		cmp	r6, r0
 183 000e 02D1     		bne	.L16
 115:..\..\common\lib\lib_TaskTimer/taskAutomat.c ****         {
 116:..\..\common\lib\lib_TaskTimer/taskAutomat.c ****             /*set new time*/
 117:..\..\common\lib\lib_TaskTimer/taskAutomat.c ****             SoftTimer[i].Time = newTime;
 184              		.loc 1 117 0
 185 0010 1C19     		adds	r4, r3, r4
 186 0012 6180     		strh	r1, [r4, #2]
 118:..\..\common\lib\lib_TaskTimer/taskAutomat.c ****             
 119:..\..\common\lib\lib_TaskTimer/taskAutomat.c ****             //CyGlobalIntEnable;
 120:..\..\common\lib\lib_TaskTimer/taskAutomat.c ****             return;
 187              		.loc 1 120 0
 188 0014 0EE0     		b	.L15
 189              	.L16:
 112:..\..\common\lib\lib_TaskTimer/taskAutomat.c ****     {
 190              		.loc 1 112 0 discriminator 2
 191 0016 0132     		adds	r2, r2, #1
 192              	.LVL15:
 193 0018 052A     		cmp	r2, #5
 194 001a F4D1     		bne	.L18
 195 001c 0022     		movs	r2, #0
 196              	.LVL16:
 197              	.L20:
 121:..\..\common\lib\lib_TaskTimer/taskAutomat.c ****         }
 122:..\..\common\lib\lib_TaskTimer/taskAutomat.c ****     }
 123:..\..\common\lib\lib_TaskTimer/taskAutomat.c ****     
 124:..\..\common\lib\lib_TaskTimer/taskAutomat.c ****     /*search new empty timer*/
 125:..\..\common\lib\lib_TaskTimer/taskAutomat.c ****     for(i=0; i< MAX_NUM_OF_TIMERS; i++)
 126:..\..\common\lib\lib_TaskTimer/taskAutomat.c ****     {
 127:..\..\common\lib\lib_TaskTimer/taskAutomat.c ****         if(SoftTimer[i].Number == 255)
 198              		.loc 1 127 0
 199 001e 9300     		lsls	r3, r2, #2
 200 0020 EC5C     		ldrb	r4, [r5, r3]
 201 0022 FF2C     		cmp	r4, #255
 202 0024 03D1     		bne	.L19
ARM GAS  C:\Users\Petro\AppData\Local\Temp\ccGlVrmy.s 			page 7


 128:..\..\common\lib\lib_TaskTimer/taskAutomat.c ****         {
 129:..\..\common\lib\lib_TaskTimer/taskAutomat.c ****             SoftTimer[i].Number = newNumber;
 203              		.loc 1 129 0
 204 0026 E854     		strb	r0, [r5, r3]
 130:..\..\common\lib\lib_TaskTimer/taskAutomat.c ****             SoftTimer[i].Time = newTime;
 205              		.loc 1 130 0
 206 0028 EB18     		adds	r3, r5, r3
 207 002a 5980     		strh	r1, [r3, #2]
 131:..\..\common\lib\lib_TaskTimer/taskAutomat.c ****             
 132:..\..\common\lib\lib_TaskTimer/taskAutomat.c ****             //CyGlobalIntEnable;
 133:..\..\common\lib\lib_TaskTimer/taskAutomat.c ****             return;
 208              		.loc 1 133 0
 209 002c 02E0     		b	.L15
 210              	.L19:
 125:..\..\common\lib\lib_TaskTimer/taskAutomat.c ****     {
 211              		.loc 1 125 0 discriminator 2
 212 002e 0132     		adds	r2, r2, #1
 213              	.LVL17:
 214 0030 052A     		cmp	r2, #5
 215 0032 F4D1     		bne	.L20
 216              	.L15:
 134:..\..\common\lib\lib_TaskTimer/taskAutomat.c ****         }
 135:..\..\common\lib\lib_TaskTimer/taskAutomat.c ****     }
 136:..\..\common\lib\lib_TaskTimer/taskAutomat.c **** }
 217              		.loc 1 136 0
 218              		@ sp needed
 219 0034 70BD     		pop	{r4, r5, r6, pc}
 220              	.L24:
 221 0036 C046     		.align	2
 222              	.L23:
 223 0038 00000000 		.word	.LANCHOR0
 224              		.cfi_endproc
 225              	.LFE66:
 226              		.size	SetTaskTimer, .-SetTaskTimer
 227              		.section	.text.Action1,"ax",%progbits
 228              		.align	1
 229              		.global	Action1
 230              		.code	16
 231              		.thumb_func
 232              		.type	Action1, %function
 233              	Action1:
 234              	.LFB67:
 137:..\..\common\lib\lib_TaskTimer/taskAutomat.c **** 
 138:..\..\common\lib\lib_TaskTimer/taskAutomat.c **** 
 139:..\..\common\lib\lib_TaskTimer/taskAutomat.c **** #ifdef START_MODULE
 140:..\..\common\lib\lib_TaskTimer/taskAutomat.c **** void Action1(void)
 141:..\..\common\lib\lib_TaskTimer/taskAutomat.c **** {
 142:..\..\common\lib\lib_TaskTimer/taskAutomat.c ****     flag[ACTION1] = 0;
 143:..\..\common\lib\lib_TaskTimer/taskAutomat.c ****     SendData();  
 144:..\..\common\lib\lib_TaskTimer/taskAutomat.c ****     SetTaskTimer(ACTION1,ACTION1_TIMEOUT);
 145:..\..\common\lib\lib_TaskTimer/taskAutomat.c **** }
 146:..\..\common\lib\lib_TaskTimer/taskAutomat.c **** 
 147:..\..\common\lib\lib_TaskTimer/taskAutomat.c **** void Action2(void)
 148:..\..\common\lib\lib_TaskTimer/taskAutomat.c **** {
 149:..\..\common\lib\lib_TaskTimer/taskAutomat.c ****     flag[ACTION2] = 0;
 150:..\..\common\lib\lib_TaskTimer/taskAutomat.c ****     DisplayRealTime();
 151:..\..\common\lib\lib_TaskTimer/taskAutomat.c ****     DisplayBattVoltage(ReadBattVoltage());
ARM GAS  C:\Users\Petro\AppData\Local\Temp\ccGlVrmy.s 			page 8


 152:..\..\common\lib\lib_TaskTimer/taskAutomat.c ****     
 153:..\..\common\lib\lib_TaskTimer/taskAutomat.c ****     ButtCheck();
 154:..\..\common\lib\lib_TaskTimer/taskAutomat.c ****     DisplayIDskier(ReadIdSkier());
 155:..\..\common\lib\lib_TaskTimer/taskAutomat.c ****     
 156:..\..\common\lib\lib_TaskTimer/taskAutomat.c ****     SetTaskTimer(ACTION2, ACTION2_TIMEOUT);
 157:..\..\common\lib\lib_TaskTimer/taskAutomat.c **** }
 158:..\..\common\lib\lib_TaskTimer/taskAutomat.c **** 
 159:..\..\common\lib\lib_TaskTimer/taskAutomat.c **** void Action3(void)
 160:..\..\common\lib\lib_TaskTimer/taskAutomat.c **** {
 161:..\..\common\lib\lib_TaskTimer/taskAutomat.c ****     flag[ACTION3] = 0;
 162:..\..\common\lib\lib_TaskTimer/taskAutomat.c ****     
 163:..\..\common\lib\lib_TaskTimer/taskAutomat.c ****     /*indicator network*/
 164:..\..\common\lib\lib_TaskTimer/taskAutomat.c ****     DisplayNetworkQuality(NetworkQuality());
 165:..\..\common\lib\lib_TaskTimer/taskAutomat.c **** //    if(NetworkStatus() == NETWORK_CONN)
 166:..\..\common\lib\lib_TaskTimer/taskAutomat.c **** //    {
 167:..\..\common\lib\lib_TaskTimer/taskAutomat.c **** //        DisplayIndicatorNetwork(CONNECT);
 168:..\..\common\lib\lib_TaskTimer/taskAutomat.c **** //    }
 169:..\..\common\lib\lib_TaskTimer/taskAutomat.c **** //    else
 170:..\..\common\lib\lib_TaskTimer/taskAutomat.c **** //    {
 171:..\..\common\lib\lib_TaskTimer/taskAutomat.c **** //        DisplayIndicatorNetwork(DISCONNECT);
 172:..\..\common\lib\lib_TaskTimer/taskAutomat.c **** //    }
 173:..\..\common\lib\lib_TaskTimer/taskAutomat.c ****     
 174:..\..\common\lib\lib_TaskTimer/taskAutomat.c ****     SetTaskTimer(ACTION3, ACTION3_TIMEOUT);
 175:..\..\common\lib\lib_TaskTimer/taskAutomat.c **** }
 176:..\..\common\lib\lib_TaskTimer/taskAutomat.c **** 
 177:..\..\common\lib\lib_TaskTimer/taskAutomat.c **** void Action4(void)
 178:..\..\common\lib\lib_TaskTimer/taskAutomat.c **** {
 179:..\..\common\lib\lib_TaskTimer/taskAutomat.c ****     flag[ACTION3] = 0; 
 180:..\..\common\lib\lib_TaskTimer/taskAutomat.c ****     //SetTaskTimer(ACTION4, ACTION4_TIMEOUT);
 181:..\..\common\lib\lib_TaskTimer/taskAutomat.c **** }
 182:..\..\common\lib\lib_TaskTimer/taskAutomat.c **** 
 183:..\..\common\lib\lib_TaskTimer/taskAutomat.c **** void Action5(void)
 184:..\..\common\lib\lib_TaskTimer/taskAutomat.c **** {    
 185:..\..\common\lib\lib_TaskTimer/taskAutomat.c ****     flag[ACTION3] = 0;
 186:..\..\common\lib\lib_TaskTimer/taskAutomat.c ****     //SetTaskTimer(ACTION4, ACTION5_TIMEOUT);
 187:..\..\common\lib\lib_TaskTimer/taskAutomat.c **** }
 188:..\..\common\lib\lib_TaskTimer/taskAutomat.c **** #endif
 189:..\..\common\lib\lib_TaskTimer/taskAutomat.c **** #ifdef FINISH_MODULE
 190:..\..\common\lib\lib_TaskTimer/taskAutomat.c **** void Action1(void)
 191:..\..\common\lib\lib_TaskTimer/taskAutomat.c **** {
 235              		.loc 1 191 0
 236              		.cfi_startproc
 237              		@ args = 0, pretend = 0, frame = 112
 238              		@ frame_needed = 0, uses_anonymous_args = 0
 192:..\..\common\lib\lib_TaskTimer/taskAutomat.c ****     flag[ACTION1] = 0;
 239              		.loc 1 192 0
 240 0000 0022     		movs	r2, #0
 191:..\..\common\lib\lib_TaskTimer/taskAutomat.c ****     flag[ACTION1] = 0;
 241              		.loc 1 191 0
 242 0002 10B5     		push	{r4, lr}
 243              		.cfi_def_cfa_offset 8
 244              		.cfi_offset 4, -8
 245              		.cfi_offset 14, -4
 246              		.loc 1 192 0
 247 0004 274B     		ldr	r3, .L34
 191:..\..\common\lib\lib_TaskTimer/taskAutomat.c ****     flag[ACTION1] = 0;
 248              		.loc 1 191 0
ARM GAS  C:\Users\Petro\AppData\Local\Temp\ccGlVrmy.s 			page 9


 249 0006 A6B0     		sub	sp, sp, #152
 250              		.cfi_def_cfa_offset 160
 251              		.loc 1 192 0
 252 0008 1A70     		strb	r2, [r3]
 193:..\..\common\lib\lib_TaskTimer/taskAutomat.c ****     
 194:..\..\common\lib\lib_TaskTimer/taskAutomat.c ****     /*write result skier on log 
 195:..\..\common\lib\lib_TaskTimer/taskAutomat.c ****     (if there is no memory card that is a record in fifo)*/    
 196:..\..\common\lib\lib_TaskTimer/taskAutomat.c ****     if((FifoGetSize() > 0) || (isLogStarted == LOG_STARTED))
 253              		.loc 1 196 0
 254 000a FFF7FEFF 		bl	FifoGetSize
 255              	.LVL18:
 256 000e 264C     		ldr	r4, .L34+4
 257 0010 0028     		cmp	r0, #0
 258 0012 02D1     		bne	.L26
 259              		.loc 1 196 0 is_stmt 0 discriminator 1
 260 0014 A38A     		ldrh	r3, [r4, #20]
 261 0016 012B     		cmp	r3, #1
 262 0018 3ED1     		bne	.L27
 263              	.L26:
 264              	.LBB2:
 197:..\..\common\lib\lib_TaskTimer/taskAutomat.c ****     {
 198:..\..\common\lib\lib_TaskTimer/taskAutomat.c ****         uint32_t result;
 199:..\..\common\lib\lib_TaskTimer/taskAutomat.c ****         skierDB_El tmpStruct;
 200:..\..\common\lib\lib_TaskTimer/taskAutomat.c ****         static uint32_t lastFifoSize;
 201:..\..\common\lib\lib_TaskTimer/taskAutomat.c ****         
 202:..\..\common\lib\lib_TaskTimer/taskAutomat.c ****         if (isLogStarted == LOG_NOT_STARTED)
 265              		.loc 1 202 0 is_stmt 1
 266 001a A38A     		ldrh	r3, [r4, #20]
 267 001c 002B     		cmp	r3, #0
 268 001e 0ED1     		bne	.L28
 203:..\..\common\lib\lib_TaskTimer/taskAutomat.c ****         {
 204:..\..\common\lib\lib_TaskTimer/taskAutomat.c ****             FifoGet(&tmpStruct);
 269              		.loc 1 204 0
 270 0020 18A8     		add	r0, sp, #96
 271 0022 FFF7FEFF 		bl	FifoGet
 272              	.LVL19:
 205:..\..\common\lib\lib_TaskTimer/taskAutomat.c ****             FifoPushLast(tmpStruct);
 273              		.loc 1 205 0
 274 0026 1CA9     		add	r1, sp, #112
 275 0028 2822     		movs	r2, #40
 276 002a 6846     		mov	r0, sp
 277 002c FFF7FEFF 		bl	memcpy
 278              	.LVL20:
 279 0030 1898     		ldr	r0, [sp, #96]
 280 0032 1999     		ldr	r1, [sp, #100]
 281 0034 1A9A     		ldr	r2, [sp, #104]
 282 0036 1B9B     		ldr	r3, [sp, #108]
 283 0038 FFF7FEFF 		bl	FifoPushLast
 284              	.LVL21:
 285 003c 07E0     		b	.L29
 286              	.L28:
 206:..\..\common\lib\lib_TaskTimer/taskAutomat.c ****         }
 207:..\..\common\lib\lib_TaskTimer/taskAutomat.c ****         else
 208:..\..\common\lib\lib_TaskTimer/taskAutomat.c ****         {
 209:..\..\common\lib\lib_TaskTimer/taskAutomat.c ****             tmpStruct = FifoGetLast();
 287              		.loc 1 209 0
 288 003e 0AA8     		add	r0, sp, #40
ARM GAS  C:\Users\Petro\AppData\Local\Temp\ccGlVrmy.s 			page 10


 289 0040 FFF7FEFF 		bl	FifoGetLast
 290              	.LVL22:
 291 0044 3822     		movs	r2, #56
 292 0046 0AA9     		add	r1, sp, #40
 293 0048 18A8     		add	r0, sp, #96
 294 004a FFF7FEFF 		bl	memcpy
 295              	.LVL23:
 296              	.L29:
 210:..\..\common\lib\lib_TaskTimer/taskAutomat.c ****         }
 211:..\..\common\lib\lib_TaskTimer/taskAutomat.c **** 
 212:..\..\common\lib\lib_TaskTimer/taskAutomat.c ****         
 213:..\..\common\lib\lib_TaskTimer/taskAutomat.c ****         /*send finish skier result by buetooth*/
 214:..\..\common\lib\lib_TaskTimer/taskAutomat.c ****         if(isLogStarted == LOG_NOT_STARTED )
 297              		.loc 1 214 0
 298 004e A38A     		ldrh	r3, [r4, #20]
 299 0050 002B     		cmp	r3, #0
 300 0052 07D1     		bne	.L30
 215:..\..\common\lib\lib_TaskTimer/taskAutomat.c ****         {
 216:..\..\common\lib\lib_TaskTimer/taskAutomat.c ****             /*SD only*/
 217:..\..\common\lib\lib_TaskTimer/taskAutomat.c ****             BLE_sendOneSkierTimeResult(&tmpStruct,SkierOnWay(),MAX_SKIERS_ON_WAY);
 301              		.loc 1 217 0
 302 0054 FFF7FEFF 		bl	SkierOnWay
 303              	.LVL24:
 304 0058 0422     		movs	r2, #4
 305 005a C1B2     		uxtb	r1, r0
 306 005c 18A8     		add	r0, sp, #96
 307 005e FFF7FEFF 		bl	BLE_sendOneSkierTimeResult
 308              	.LVL25:
 309 0062 0EE0     		b	.L31
 310              	.L30:
 218:..\..\common\lib\lib_TaskTimer/taskAutomat.c ****         }
 219:..\..\common\lib\lib_TaskTimer/taskAutomat.c ****         else
 220:..\..\common\lib\lib_TaskTimer/taskAutomat.c ****         {
 221:..\..\common\lib\lib_TaskTimer/taskAutomat.c ****             if(FifoGetSize() != lastFifoSize)
 311              		.loc 1 221 0
 312 0064 FFF7FEFF 		bl	FifoGetSize
 313              	.LVL26:
 314 0068 A369     		ldr	r3, [r4, #24]
 315 006a 9842     		cmp	r0, r3
 316 006c 09D0     		beq	.L31
 222:..\..\common\lib\lib_TaskTimer/taskAutomat.c ****             {
 223:..\..\common\lib\lib_TaskTimer/taskAutomat.c ****                 BLE_sendOneSkierTimeResult(&tmpStruct,SkierOnWay(),MAX_SKIERS_ON_WAY);
 317              		.loc 1 223 0
 318 006e FFF7FEFF 		bl	SkierOnWay
 319              	.LVL27:
 320 0072 0422     		movs	r2, #4
 321 0074 C1B2     		uxtb	r1, r0
 322 0076 18A8     		add	r0, sp, #96
 323 0078 FFF7FEFF 		bl	BLE_sendOneSkierTimeResult
 324              	.LVL28:
 224:..\..\common\lib\lib_TaskTimer/taskAutomat.c ****                 lastFifoSize = FifoGetSize();
 325              		.loc 1 224 0
 326 007c FFF7FEFF 		bl	FifoGetSize
 327              	.LVL29:
 328 0080 A061     		str	r0, [r4, #24]
 329              	.L31:
 225:..\..\common\lib\lib_TaskTimer/taskAutomat.c ****             }
ARM GAS  C:\Users\Petro\AppData\Local\Temp\ccGlVrmy.s 			page 11


 226:..\..\common\lib\lib_TaskTimer/taskAutomat.c ****         }
 227:..\..\common\lib\lib_TaskTimer/taskAutomat.c ****         
 228:..\..\common\lib\lib_TaskTimer/taskAutomat.c ****         /*write data to SD card*/
 229:..\..\common\lib\lib_TaskTimer/taskAutomat.c ****         result = WriteSkierResult(&tmpStruct);
 330              		.loc 1 229 0
 331 0082 18A8     		add	r0, sp, #96
 332 0084 FFF7FEFF 		bl	WriteSkierResult
 333              	.LVL30:
 230:..\..\common\lib\lib_TaskTimer/taskAutomat.c ****         if(result != FR_OK)
 334              		.loc 1 230 0
 335 0088 0028     		cmp	r0, #0
 336 008a 04D0     		beq	.L32
 231:..\..\common\lib\lib_TaskTimer/taskAutomat.c ****         {
 232:..\..\common\lib\lib_TaskTimer/taskAutomat.c ****             LogStart();
 337              		.loc 1 232 0
 338 008c FFF7FEFF 		bl	LogStart
 339              	.LVL31:
 233:..\..\common\lib\lib_TaskTimer/taskAutomat.c ****             isLogStarted = LOG_STARTED;          
 340              		.loc 1 233 0
 341 0090 0123     		movs	r3, #1
 342 0092 A382     		strh	r3, [r4, #20]
 343 0094 00E0     		b	.L27
 344              	.LVL32:
 345              	.L32:
 234:..\..\common\lib\lib_TaskTimer/taskAutomat.c ****         }
 235:..\..\common\lib\lib_TaskTimer/taskAutomat.c ****         else
 236:..\..\common\lib\lib_TaskTimer/taskAutomat.c ****         {
 237:..\..\common\lib\lib_TaskTimer/taskAutomat.c ****             isLogStarted = LOG_NOT_STARTED; 
 346              		.loc 1 237 0
 347 0096 A082     		strh	r0, [r4, #20]
 348              	.LVL33:
 349              	.L27:
 350              	.LBE2:
 238:..\..\common\lib\lib_TaskTimer/taskAutomat.c ****         }      
 239:..\..\common\lib\lib_TaskTimer/taskAutomat.c ****     }
 240:..\..\common\lib\lib_TaskTimer/taskAutomat.c ****     SetTaskTimer(ACTION1, ACTION1_TIMEOUT);
 351              		.loc 1 240 0
 352 0098 0521     		movs	r1, #5
 353 009a 0020     		movs	r0, #0
 354 009c FFF7FEFF 		bl	SetTaskTimer
 355              	.LVL34:
 241:..\..\common\lib\lib_TaskTimer/taskAutomat.c ****     
 242:..\..\common\lib\lib_TaskTimer/taskAutomat.c **** }
 356              		.loc 1 242 0
 357 00a0 26B0     		add	sp, sp, #152
 358              		@ sp needed
 359 00a2 10BD     		pop	{r4, pc}
 360              	.L35:
 361              		.align	2
 362              	.L34:
 363 00a4 00000000 		.word	flag
 364 00a8 00000000 		.word	.LANCHOR0
 365              		.cfi_endproc
 366              	.LFE67:
 367              		.size	Action1, .-Action1
 368              		.section	.text.Action2,"ax",%progbits
 369              		.align	1
ARM GAS  C:\Users\Petro\AppData\Local\Temp\ccGlVrmy.s 			page 12


 370              		.global	Action2
 371              		.code	16
 372              		.thumb_func
 373              		.type	Action2, %function
 374              	Action2:
 375              	.LFB68:
 243:..\..\common\lib\lib_TaskTimer/taskAutomat.c **** 
 244:..\..\common\lib\lib_TaskTimer/taskAutomat.c **** void Action2(void)
 245:..\..\common\lib\lib_TaskTimer/taskAutomat.c **** {   
 376              		.loc 1 245 0
 377              		.cfi_startproc
 378              		@ args = 0, pretend = 0, frame = 0
 379              		@ frame_needed = 0, uses_anonymous_args = 0
 246:..\..\common\lib\lib_TaskTimer/taskAutomat.c ****     flag[ACTION2] = 0;
 380              		.loc 1 246 0
 381 0000 0022     		movs	r2, #0
 245:..\..\common\lib\lib_TaskTimer/taskAutomat.c ****     flag[ACTION2] = 0;
 382              		.loc 1 245 0
 383 0002 10B5     		push	{r4, lr}
 384              		.cfi_def_cfa_offset 8
 385              		.cfi_offset 4, -8
 386              		.cfi_offset 14, -4
 387              		.loc 1 246 0
 388 0004 044B     		ldr	r3, .L37
 247:..\..\common\lib\lib_TaskTimer/taskAutomat.c ****     SendData();  
 248:..\..\common\lib\lib_TaskTimer/taskAutomat.c ****     SetTaskTimer(ACTION2,ACTION2_TIMEOUT);
 249:..\..\common\lib\lib_TaskTimer/taskAutomat.c **** }
 389              		.loc 1 249 0
 390              		@ sp needed
 246:..\..\common\lib\lib_TaskTimer/taskAutomat.c ****     SendData();  
 391              		.loc 1 246 0
 392 0006 5A70     		strb	r2, [r3, #1]
 247:..\..\common\lib\lib_TaskTimer/taskAutomat.c ****     SendData();  
 393              		.loc 1 247 0
 394 0008 FFF7FEFF 		bl	SendData
 395              	.LVL35:
 248:..\..\common\lib\lib_TaskTimer/taskAutomat.c **** }
 396              		.loc 1 248 0
 397 000c 0521     		movs	r1, #5
 398 000e 0120     		movs	r0, #1
 399 0010 FFF7FEFF 		bl	SetTaskTimer
 400              	.LVL36:
 401              		.loc 1 249 0
 402 0014 10BD     		pop	{r4, pc}
 403              	.L38:
 404 0016 C046     		.align	2
 405              	.L37:
 406 0018 00000000 		.word	flag
 407              		.cfi_endproc
 408              	.LFE68:
 409              		.size	Action2, .-Action2
 410              		.section	.text.Action3,"ax",%progbits
 411              		.align	1
 412              		.global	Action3
 413              		.code	16
 414              		.thumb_func
 415              		.type	Action3, %function
ARM GAS  C:\Users\Petro\AppData\Local\Temp\ccGlVrmy.s 			page 13


 416              	Action3:
 417              	.LFB69:
 250:..\..\common\lib\lib_TaskTimer/taskAutomat.c **** 
 251:..\..\common\lib\lib_TaskTimer/taskAutomat.c **** void Action3(void)
 252:..\..\common\lib\lib_TaskTimer/taskAutomat.c **** {
 418              		.loc 1 252 0
 419              		.cfi_startproc
 420              		@ args = 0, pretend = 0, frame = 0
 421              		@ frame_needed = 0, uses_anonymous_args = 0
 253:..\..\common\lib\lib_TaskTimer/taskAutomat.c ****     flag[ACTION3] = 0;
 422              		.loc 1 253 0
 423 0000 0022     		movs	r2, #0
 424 0002 114B     		ldr	r3, .L46
 252:..\..\common\lib\lib_TaskTimer/taskAutomat.c ****     flag[ACTION3] = 0;
 425              		.loc 1 252 0
 426 0004 10B5     		push	{r4, lr}
 427              		.cfi_def_cfa_offset 8
 428              		.cfi_offset 4, -8
 429              		.cfi_offset 14, -4
 430              		.loc 1 253 0
 431 0006 9A70     		strb	r2, [r3, #2]
 254:..\..\common\lib\lib_TaskTimer/taskAutomat.c ****     
 255:..\..\common\lib\lib_TaskTimer/taskAutomat.c ****     /*print indicator SD card*/
 256:..\..\common\lib\lib_TaskTimer/taskAutomat.c ****     if(SDinsert_Read() == 0)
 432              		.loc 1 256 0
 433 0008 FFF7FEFF 		bl	SDinsert_Read
 434              	.LVL37:
 435 000c 041E     		subs	r4, r0, #0
 436 000e 03D1     		bne	.L40
 257:..\..\common\lib\lib_TaskTimer/taskAutomat.c ****     {
 258:..\..\common\lib\lib_TaskTimer/taskAutomat.c ****         DisplayIndicatorSD(SD_INSERT);
 437              		.loc 1 258 0
 438 0010 FFF7FEFF 		bl	DisplayIndicatorSD
 439              	.LVL38:
 259:..\..\common\lib\lib_TaskTimer/taskAutomat.c ****         BLE_sendSDcardStatus(STATUS_OK);
 440              		.loc 1 259 0
 441 0014 2000     		movs	r0, r4
 442 0016 03E0     		b	.L44
 443              	.L40:
 260:..\..\common\lib\lib_TaskTimer/taskAutomat.c ****     }
 261:..\..\common\lib\lib_TaskTimer/taskAutomat.c ****     else
 262:..\..\common\lib\lib_TaskTimer/taskAutomat.c ****     {
 263:..\..\common\lib\lib_TaskTimer/taskAutomat.c ****         DisplayIndicatorSD(SD_NO_INSERT);
 444              		.loc 1 263 0
 445 0018 0120     		movs	r0, #1
 446 001a FFF7FEFF 		bl	DisplayIndicatorSD
 447              	.LVL39:
 264:..\..\common\lib\lib_TaskTimer/taskAutomat.c ****         BLE_sendSDcardStatus(STATUS_ERROR);
 448              		.loc 1 264 0
 449 001e 0120     		movs	r0, #1
 450              	.L44:
 451 0020 FFF7FEFF 		bl	BLE_sendSDcardStatus
 452              	.LVL40:
 265:..\..\common\lib\lib_TaskTimer/taskAutomat.c ****     }
 266:..\..\common\lib\lib_TaskTimer/taskAutomat.c ****     
 267:..\..\common\lib\lib_TaskTimer/taskAutomat.c ****     /*printindicator network*/
 268:..\..\common\lib\lib_TaskTimer/taskAutomat.c ****     DisplayNetworkQuality(NetworkQuality());
ARM GAS  C:\Users\Petro\AppData\Local\Temp\ccGlVrmy.s 			page 14


 453              		.loc 1 268 0
 454 0024 FFF7FEFF 		bl	NetworkQuality
 455              	.LVL41:
 456 0028 FFF7FEFF 		bl	DisplayNetworkQuality
 457              	.LVL42:
 269:..\..\common\lib\lib_TaskTimer/taskAutomat.c ****     if(NetworkStatus() == NETWORK_CONNECT)
 458              		.loc 1 269 0
 459 002c FFF7FEFF 		bl	NetworkStatus
 460              	.LVL43:
 461 0030 0128     		cmp	r0, #1
 462 0032 01D1     		bne	.L42
 270:..\..\common\lib\lib_TaskTimer/taskAutomat.c ****     {
 271:..\..\common\lib\lib_TaskTimer/taskAutomat.c ****         //DisplayIndicatorNetwork(CONNECT);        
 272:..\..\common\lib\lib_TaskTimer/taskAutomat.c ****         BLE_sendNetworkStatus(STATUS_OK);
 463              		.loc 1 272 0
 464 0034 0020     		movs	r0, #0
 465 0036 00E0     		b	.L45
 466              	.L42:
 273:..\..\common\lib\lib_TaskTimer/taskAutomat.c ****     }
 274:..\..\common\lib\lib_TaskTimer/taskAutomat.c ****     else
 275:..\..\common\lib\lib_TaskTimer/taskAutomat.c ****     {
 276:..\..\common\lib\lib_TaskTimer/taskAutomat.c ****         //DisplayIndicatorNetwork(DISCONNECT);
 277:..\..\common\lib\lib_TaskTimer/taskAutomat.c ****         BLE_sendNetworkStatus(STATUS_ERROR);
 467              		.loc 1 277 0
 468 0038 0120     		movs	r0, #1
 469              	.L45:
 470 003a FFF7FEFF 		bl	BLE_sendNetworkStatus
 471              	.LVL44:
 278:..\..\common\lib\lib_TaskTimer/taskAutomat.c ****     }
 279:..\..\common\lib\lib_TaskTimer/taskAutomat.c ****     
 280:..\..\common\lib\lib_TaskTimer/taskAutomat.c ****     SetTaskTimer(ACTION3, ACTION3_TIMEOUT);
 472              		.loc 1 280 0
 473 003e 0521     		movs	r1, #5
 474 0040 0220     		movs	r0, #2
 475 0042 FFF7FEFF 		bl	SetTaskTimer
 476              	.LVL45:
 281:..\..\common\lib\lib_TaskTimer/taskAutomat.c **** }
 477              		.loc 1 281 0
 478              		@ sp needed
 479 0046 10BD     		pop	{r4, pc}
 480              	.L47:
 481              		.align	2
 482              	.L46:
 483 0048 00000000 		.word	flag
 484              		.cfi_endproc
 485              	.LFE69:
 486              		.size	Action3, .-Action3
 487              		.section	.text.Action4,"ax",%progbits
 488              		.align	1
 489              		.global	Action4
 490              		.code	16
 491              		.thumb_func
 492              		.type	Action4, %function
 493              	Action4:
 494              	.LFB70:
 282:..\..\common\lib\lib_TaskTimer/taskAutomat.c **** 
 283:..\..\common\lib\lib_TaskTimer/taskAutomat.c **** void Action4(void)
ARM GAS  C:\Users\Petro\AppData\Local\Temp\ccGlVrmy.s 			page 15


 284:..\..\common\lib\lib_TaskTimer/taskAutomat.c **** {
 495              		.loc 1 284 0
 496              		.cfi_startproc
 497              		@ args = 0, pretend = 0, frame = 0
 498              		@ frame_needed = 0, uses_anonymous_args = 0
 285:..\..\common\lib\lib_TaskTimer/taskAutomat.c ****     flag[ACTION4] = 0;
 499              		.loc 1 285 0
 500 0000 0022     		movs	r2, #0
 284:..\..\common\lib\lib_TaskTimer/taskAutomat.c ****     flag[ACTION4] = 0;
 501              		.loc 1 284 0
 502 0002 10B5     		push	{r4, lr}
 503              		.cfi_def_cfa_offset 8
 504              		.cfi_offset 4, -8
 505              		.cfi_offset 14, -4
 506              		.loc 1 285 0
 507 0004 084B     		ldr	r3, .L49
 286:..\..\common\lib\lib_TaskTimer/taskAutomat.c ****     
 287:..\..\common\lib\lib_TaskTimer/taskAutomat.c ****     /*printf real time and num skier on way*/ 
 288:..\..\common\lib\lib_TaskTimer/taskAutomat.c ****     DisplayRealTime();
 289:..\..\common\lib\lib_TaskTimer/taskAutomat.c ****     DisplayNumSkierOnWay(SkierOnWay());   
 290:..\..\common\lib\lib_TaskTimer/taskAutomat.c ****     DisplayBattVoltage(ReadBattVoltage());
 291:..\..\common\lib\lib_TaskTimer/taskAutomat.c ****     
 292:..\..\common\lib\lib_TaskTimer/taskAutomat.c ****     SetTaskTimer(ACTION4, ACTION4_TIMEOUT);
 293:..\..\common\lib\lib_TaskTimer/taskAutomat.c **** }
 508              		.loc 1 293 0
 509              		@ sp needed
 285:..\..\common\lib\lib_TaskTimer/taskAutomat.c ****     
 510              		.loc 1 285 0
 511 0006 DA70     		strb	r2, [r3, #3]
 288:..\..\common\lib\lib_TaskTimer/taskAutomat.c ****     DisplayNumSkierOnWay(SkierOnWay());   
 512              		.loc 1 288 0
 513 0008 FFF7FEFF 		bl	DisplayRealTime
 514              	.LVL46:
 289:..\..\common\lib\lib_TaskTimer/taskAutomat.c ****     DisplayBattVoltage(ReadBattVoltage());
 515              		.loc 1 289 0
 516 000c FFF7FEFF 		bl	SkierOnWay
 517              	.LVL47:
 518 0010 FFF7FEFF 		bl	DisplayNumSkierOnWay
 519              	.LVL48:
 290:..\..\common\lib\lib_TaskTimer/taskAutomat.c ****     
 520              		.loc 1 290 0
 521 0014 FFF7FEFF 		bl	ReadBattVoltage
 522              	.LVL49:
 523 0018 FFF7FEFF 		bl	DisplayBattVoltage
 524              	.LVL50:
 292:..\..\common\lib\lib_TaskTimer/taskAutomat.c **** }
 525              		.loc 1 292 0
 526 001c 0121     		movs	r1, #1
 527 001e 0320     		movs	r0, #3
 528 0020 FFF7FEFF 		bl	SetTaskTimer
 529              	.LVL51:
 530              		.loc 1 293 0
 531 0024 10BD     		pop	{r4, pc}
 532              	.L50:
 533 0026 C046     		.align	2
 534              	.L49:
 535 0028 00000000 		.word	flag
ARM GAS  C:\Users\Petro\AppData\Local\Temp\ccGlVrmy.s 			page 16


 536              		.cfi_endproc
 537              	.LFE70:
 538              		.size	Action4, .-Action4
 539              		.section	.text.Action5,"ax",%progbits
 540              		.align	1
 541              		.global	Action5
 542              		.code	16
 543              		.thumb_func
 544              		.type	Action5, %function
 545              	Action5:
 546              	.LFB71:
 294:..\..\common\lib\lib_TaskTimer/taskAutomat.c **** 
 295:..\..\common\lib\lib_TaskTimer/taskAutomat.c **** void Action5(void)
 296:..\..\common\lib\lib_TaskTimer/taskAutomat.c **** {
 547              		.loc 1 296 0
 548              		.cfi_startproc
 549              		@ args = 0, pretend = 0, frame = 0
 550              		@ frame_needed = 0, uses_anonymous_args = 0
 551 0000 F8B5     		push	{r3, r4, r5, r6, r7, lr}
 552              		.cfi_def_cfa_offset 24
 553              		.cfi_offset 3, -24
 554              		.cfi_offset 4, -20
 555              		.cfi_offset 5, -16
 556              		.cfi_offset 6, -12
 557              		.cfi_offset 7, -8
 558              		.cfi_offset 14, -4
 297:..\..\common\lib\lib_TaskTimer/taskAutomat.c ****     /*update time*/    
 298:..\..\common\lib\lib_TaskTimer/taskAutomat.c ****     
 299:..\..\common\lib\lib_TaskTimer/taskAutomat.c ****     static uint32_t oldUnixTime;
 300:..\..\common\lib\lib_TaskTimer/taskAutomat.c ****     uint32_t unixTime;
 301:..\..\common\lib\lib_TaskTimer/taskAutomat.c ****     
 302:..\..\common\lib\lib_TaskTimer/taskAutomat.c ****     flag[ACTION5] = 0;
 559              		.loc 1 302 0
 560 0002 0025     		movs	r5, #0
 561 0004 104B     		ldr	r3, .L53
 562 0006 1D71     		strb	r5, [r3, #4]
 303:..\..\common\lib\lib_TaskTimer/taskAutomat.c **** 
 304:..\..\common\lib\lib_TaskTimer/taskAutomat.c ****     BLE_processEvents();
 563              		.loc 1 304 0
 564 0008 FFF7FEFF 		bl	BLE_processEvents
 565              	.LVL52:
 305:..\..\common\lib\lib_TaskTimer/taskAutomat.c ****     
 306:..\..\common\lib\lib_TaskTimer/taskAutomat.c ****     unixTime = BLE_getUnixTime();
 566              		.loc 1 306 0
 567 000c FFF7FEFF 		bl	BLE_getUnixTime
 568              	.LVL53:
 307:..\..\common\lib\lib_TaskTimer/taskAutomat.c ****     if(oldUnixTime != unixTime)
 569              		.loc 1 307 0
 570 0010 0E4E     		ldr	r6, .L53+4
 306:..\..\common\lib\lib_TaskTimer/taskAutomat.c ****     if(oldUnixTime != unixTime)
 571              		.loc 1 306 0
 572 0012 0400     		movs	r4, r0
 573              	.LVL54:
 574              		.loc 1 307 0
 575 0014 F369     		ldr	r3, [r6, #28]
 576 0016 9842     		cmp	r0, r3
 577 0018 10D0     		beq	.L52
ARM GAS  C:\Users\Petro\AppData\Local\Temp\ccGlVrmy.s 			page 17


 578              	.LBB3:
 308:..\..\common\lib\lib_TaskTimer/taskAutomat.c ****     {
 309:..\..\common\lib\lib_TaskTimer/taskAutomat.c ****         /*atomic block*/
 310:..\..\common\lib\lib_TaskTimer/taskAutomat.c ****         uint32 interruptState;
 311:..\..\common\lib\lib_TaskTimer/taskAutomat.c ****         interruptState = CyEnterCriticalSection(); 
 579              		.loc 1 311 0
 580 001a FFF7FEFF 		bl	CyEnterCriticalSection
 581              	.LVL55:
 582 001e 0700     		movs	r7, r0
 583              	.LVL56:
 312:..\..\common\lib\lib_TaskTimer/taskAutomat.c ****         
 313:..\..\common\lib\lib_TaskTimer/taskAutomat.c ****         /*set unix time in RTC DS1307*/
 314:..\..\common\lib\lib_TaskTimer/taskAutomat.c ****         DS1307_SetUnixTime(unixTime);
 584              		.loc 1 314 0
 585 0020 2900     		movs	r1, r5
 586 0022 2000     		movs	r0, r4
 587 0024 FFF7FEFF 		bl	DS1307_SetUnixTime
 588              	.LVL57:
 315:..\..\common\lib\lib_TaskTimer/taskAutomat.c ****         RTC_SetUnixTime(unixTime);
 589              		.loc 1 315 0
 590 0028 2000     		movs	r0, r4
 591 002a 2900     		movs	r1, r5
 592 002c FFF7FEFF 		bl	RTC_SetUnixTime
 593              	.LVL58:
 316:..\..\common\lib\lib_TaskTimer/taskAutomat.c ****         
 317:..\..\common\lib\lib_TaskTimer/taskAutomat.c ****         CyExitCriticalSection(interruptState);
 594              		.loc 1 317 0
 595 0030 3800     		movs	r0, r7
 596 0032 FFF7FEFF 		bl	CyExitCriticalSection
 597              	.LVL59:
 318:..\..\common\lib\lib_TaskTimer/taskAutomat.c ****         /*atomic block*/
 319:..\..\common\lib\lib_TaskTimer/taskAutomat.c ****         
 320:..\..\common\lib\lib_TaskTimer/taskAutomat.c ****         oldUnixTime = unixTime;
 598              		.loc 1 320 0
 599 0036 F461     		str	r4, [r6, #28]
 321:..\..\common\lib\lib_TaskTimer/taskAutomat.c ****         
 322:..\..\common\lib\lib_TaskTimer/taskAutomat.c ****         SetRebootFlag();      
 600              		.loc 1 322 0
 601 0038 FFF7FEFF 		bl	SetRebootFlag
 602              	.LVL60:
 603              	.L52:
 604              	.LBE3:
 323:..\..\common\lib\lib_TaskTimer/taskAutomat.c ****     }
 324:..\..\common\lib\lib_TaskTimer/taskAutomat.c ****     SetTaskTimer(ACTION5, ACTION5_TIMEOUT);
 605              		.loc 1 324 0
 606 003c 0121     		movs	r1, #1
 607 003e 0420     		movs	r0, #4
 608 0040 FFF7FEFF 		bl	SetTaskTimer
 609              	.LVL61:
 325:..\..\common\lib\lib_TaskTimer/taskAutomat.c **** }
 610              		.loc 1 325 0
 611              		@ sp needed
 612              	.LVL62:
 613 0044 F8BD     		pop	{r3, r4, r5, r6, r7, pc}
 614              	.L54:
 615 0046 C046     		.align	2
 616              	.L53:
ARM GAS  C:\Users\Petro\AppData\Local\Temp\ccGlVrmy.s 			page 18


 617 0048 00000000 		.word	flag
 618 004c 00000000 		.word	.LANCHOR0
 619              		.cfi_endproc
 620              	.LFE71:
 621              		.size	Action5, .-Action5
 622              		.section	.text.TaskCheck,"ax",%progbits
 623              		.align	1
 624              		.global	TaskCheck
 625              		.code	16
 626              		.thumb_func
 627              		.type	TaskCheck, %function
 628              	TaskCheck:
 629              	.LFB64:
  68:..\..\common\lib\lib_TaskTimer/taskAutomat.c ****     if(flag[ACTION1] == 1)Action1();
 630              		.loc 1 68 0
 631              		.cfi_startproc
 632              		@ args = 0, pretend = 0, frame = 0
 633              		@ frame_needed = 0, uses_anonymous_args = 0
 634 0000 10B5     		push	{r4, lr}
 635              		.cfi_def_cfa_offset 8
 636              		.cfi_offset 4, -8
 637              		.cfi_offset 14, -4
  69:..\..\common\lib\lib_TaskTimer/taskAutomat.c ****     if(flag[ACTION2] == 1)Action2();
 638              		.loc 1 69 0
 639 0002 0D4C     		ldr	r4, .L61
 640 0004 2378     		ldrb	r3, [r4]
 641 0006 012B     		cmp	r3, #1
 642 0008 01D1     		bne	.L56
  69:..\..\common\lib\lib_TaskTimer/taskAutomat.c ****     if(flag[ACTION2] == 1)Action2();
 643              		.loc 1 69 0 is_stmt 0 discriminator 1
 644 000a FFF7FEFF 		bl	Action1
 645              	.LVL63:
 646              	.L56:
  70:..\..\common\lib\lib_TaskTimer/taskAutomat.c ****     if(flag[ACTION3] == 1)Action3();
 647              		.loc 1 70 0 is_stmt 1
 648 000e 6378     		ldrb	r3, [r4, #1]
 649 0010 012B     		cmp	r3, #1
 650 0012 01D1     		bne	.L57
  70:..\..\common\lib\lib_TaskTimer/taskAutomat.c ****     if(flag[ACTION3] == 1)Action3();
 651              		.loc 1 70 0 is_stmt 0 discriminator 1
 652 0014 FFF7FEFF 		bl	Action2
 653              	.LVL64:
 654              	.L57:
  71:..\..\common\lib\lib_TaskTimer/taskAutomat.c ****     if(flag[ACTION4] == 1)Action4();
 655              		.loc 1 71 0 is_stmt 1
 656 0018 A378     		ldrb	r3, [r4, #2]
 657 001a 012B     		cmp	r3, #1
 658 001c 01D1     		bne	.L58
  71:..\..\common\lib\lib_TaskTimer/taskAutomat.c ****     if(flag[ACTION4] == 1)Action4();
 659              		.loc 1 71 0 is_stmt 0 discriminator 1
 660 001e FFF7FEFF 		bl	Action3
 661              	.LVL65:
 662              	.L58:
  72:..\..\common\lib\lib_TaskTimer/taskAutomat.c ****     if(flag[ACTION5] == 1)Action5();
 663              		.loc 1 72 0 is_stmt 1
 664 0022 E378     		ldrb	r3, [r4, #3]
 665 0024 012B     		cmp	r3, #1
ARM GAS  C:\Users\Petro\AppData\Local\Temp\ccGlVrmy.s 			page 19


 666 0026 01D1     		bne	.L59
  72:..\..\common\lib\lib_TaskTimer/taskAutomat.c ****     if(flag[ACTION5] == 1)Action5();
 667              		.loc 1 72 0 is_stmt 0 discriminator 1
 668 0028 FFF7FEFF 		bl	Action4
 669              	.LVL66:
 670              	.L59:
  73:..\..\common\lib\lib_TaskTimer/taskAutomat.c **** }
 671              		.loc 1 73 0 is_stmt 1
 672 002c 2379     		ldrb	r3, [r4, #4]
 673 002e 012B     		cmp	r3, #1
 674 0030 01D1     		bne	.L55
  73:..\..\common\lib\lib_TaskTimer/taskAutomat.c **** }
 675              		.loc 1 73 0 is_stmt 0 discriminator 1
 676 0032 FFF7FEFF 		bl	Action5
 677              	.LVL67:
 678              	.L55:
  74:..\..\common\lib\lib_TaskTimer/taskAutomat.c **** 
 679              		.loc 1 74 0 is_stmt 1
 680              		@ sp needed
 681 0036 10BD     		pop	{r4, pc}
 682              	.L62:
 683              		.align	2
 684              	.L61:
 685 0038 00000000 		.word	flag
 686              		.cfi_endproc
 687              	.LFE64:
 688              		.size	TaskCheck, .-TaskCheck
 689              		.comm	flag,5,1
 690              		.comm	currentState,1,1
 691              		.bss
 692              		.align	2
 693              		.set	.LANCHOR0,. + 0
 694              		.type	SoftTimer, %object
 695              		.size	SoftTimer, 20
 696              	SoftTimer:
 697 0000 00000000 		.space	20
 697      00000000 
 697      00000000 
 697      00000000 
 697      00000000 
 698              		.type	isLogStarted, %object
 699              		.size	isLogStarted, 2
 700              	isLogStarted:
 701 0014 0000     		.space	2
 702 0016 0000     		.space	2
 703              		.type	lastFifoSize.9885, %object
 704              		.size	lastFifoSize.9885, 4
 705              	lastFifoSize.9885:
 706 0018 00000000 		.space	4
 707              		.type	oldUnixTime.9898, %object
 708              		.size	oldUnixTime.9898, 4
 709              	oldUnixTime.9898:
 710 001c 00000000 		.space	4
 711              		.text
 712              	.Letext0:
 713              		.file 2 "c:\\program files (x86)\\cypress\\psoc creator\\4.1\\psoc creator\\import\\gnu\\arm\\5.4.
 714              		.file 3 "c:\\program files (x86)\\cypress\\psoc creator\\4.1\\psoc creator\\import\\gnu\\arm\\5.4.
ARM GAS  C:\Users\Petro\AppData\Local\Temp\ccGlVrmy.s 			page 20


 715              		.file 4 "Generated_Source\\PSoC4/cytypes.h"
 716              		.file 5 "Generated_Source\\PSoC4/ble_Stack.h"
 717              		.file 6 "./..\\..\\common\\lib\\lib_Display\\display.h"
 718              		.file 7 "./..\\..\\common\\lib\\lib_Fat\\ff.h"
 719              		.file 8 "./..\\..\\common\\lib\\lib_DB\\database.h"
 720              		.file 9 "./..\\..\\common\\lib\\lib_BLE\\bluetooth.h"
 721              		.file 10 "./appGlobal.h"
 722              		.file 11 "./..\\..\\common\\lib\\lib_TaskTimer\\taskAutomat.h"
 723              		.file 12 "Generated_Source\\PSoC4/RTC.h"
 724              		.file 13 "Generated_Source\\PSoC4/isr_timer.h"
 725              		.file 14 "Generated_Source\\PSoC4/Timer.h"
 726              		.file 15 "./..\\..\\common\\lib\\lib_DB\\logResult.h"
 727              		.file 16 "./lib_Network\\network.h"
 728              		.file 17 "Generated_Source\\PSoC4/SDinsert.h"
 729              		.file 18 "./..\\..\\common\\lib\\lib_Batt\\batt.h"
 730              		.file 19 "Generated_Source\\PSoC4/CyLib.h"
 731              		.file 20 "./..\\..\\common\\lib\\lib_DS1307\\DS1307.h"