ARM GAS  C:\Users\Petro\AppData\Local\Temp\ccebLrz4.s 			page 1


   1              		.syntax unified
   2              		.cpu cortex-m0
   3              		.fpu softvfp
   4              		.eabi_attribute 20, 1
   5              		.eabi_attribute 21, 1
   6              		.eabi_attribute 23, 3
   7              		.eabi_attribute 24, 1
   8              		.eabi_attribute 25, 1
   9              		.eabi_attribute 26, 1
  10              		.eabi_attribute 30, 4
  11              		.eabi_attribute 34, 0
  12              		.eabi_attribute 18, 4
  13              		.thumb
  14              		.syntax unified
  15              		.file	"TimerTestMode.c"
  16              		.text
  17              	.Ltext0:
  18              		.cfi_sections	.debug_frame
  19              		.section	.text.TimerTestMode_Init,"ax",%progbits
  20              		.align	1
  21              		.global	TimerTestMode_Init
  22              		.code	16
  23              		.thumb_func
  24              		.type	TimerTestMode_Init, %function
  25              	TimerTestMode_Init:
  26              	.LFB2:
  27              		.file 1 "Generated_Source\\PSoC4\\TimerTestMode.c"
   1:Generated_Source\PSoC4/TimerTestMode.c **** /*******************************************************************************
   2:Generated_Source\PSoC4/TimerTestMode.c **** * File Name: TimerTestMode.c
   3:Generated_Source\PSoC4/TimerTestMode.c **** * Version 2.10
   4:Generated_Source\PSoC4/TimerTestMode.c **** *
   5:Generated_Source\PSoC4/TimerTestMode.c **** * Description:
   6:Generated_Source\PSoC4/TimerTestMode.c **** *  This file provides the source code to the API for the TimerTestMode
   7:Generated_Source\PSoC4/TimerTestMode.c **** *  component
   8:Generated_Source\PSoC4/TimerTestMode.c **** *
   9:Generated_Source\PSoC4/TimerTestMode.c **** * Note:
  10:Generated_Source\PSoC4/TimerTestMode.c **** *  None
  11:Generated_Source\PSoC4/TimerTestMode.c **** *
  12:Generated_Source\PSoC4/TimerTestMode.c **** ********************************************************************************
  13:Generated_Source\PSoC4/TimerTestMode.c **** * Copyright 2013-2015, Cypress Semiconductor Corporation.  All rights reserved.
  14:Generated_Source\PSoC4/TimerTestMode.c **** * You may use this file only in accordance with the license, terms, conditions,
  15:Generated_Source\PSoC4/TimerTestMode.c **** * disclaimers, and limitations in the end user license agreement accompanying
  16:Generated_Source\PSoC4/TimerTestMode.c **** * the software package with which this file was provided.
  17:Generated_Source\PSoC4/TimerTestMode.c **** *******************************************************************************/
  18:Generated_Source\PSoC4/TimerTestMode.c **** 
  19:Generated_Source\PSoC4/TimerTestMode.c **** #include "TimerTestMode.h"
  20:Generated_Source\PSoC4/TimerTestMode.c **** 
  21:Generated_Source\PSoC4/TimerTestMode.c **** uint8 TimerTestMode_initVar = 0u;
  22:Generated_Source\PSoC4/TimerTestMode.c **** 
  23:Generated_Source\PSoC4/TimerTestMode.c **** 
  24:Generated_Source\PSoC4/TimerTestMode.c **** /*******************************************************************************
  25:Generated_Source\PSoC4/TimerTestMode.c **** * Function Name: TimerTestMode_Init
  26:Generated_Source\PSoC4/TimerTestMode.c **** ********************************************************************************
  27:Generated_Source\PSoC4/TimerTestMode.c **** *
  28:Generated_Source\PSoC4/TimerTestMode.c **** * Summary:
  29:Generated_Source\PSoC4/TimerTestMode.c **** *  Initialize/Restore default TimerTestMode configuration.
  30:Generated_Source\PSoC4/TimerTestMode.c **** *
ARM GAS  C:\Users\Petro\AppData\Local\Temp\ccebLrz4.s 			page 2


  31:Generated_Source\PSoC4/TimerTestMode.c **** * Parameters:
  32:Generated_Source\PSoC4/TimerTestMode.c **** *  None
  33:Generated_Source\PSoC4/TimerTestMode.c **** *
  34:Generated_Source\PSoC4/TimerTestMode.c **** * Return:
  35:Generated_Source\PSoC4/TimerTestMode.c **** *  None
  36:Generated_Source\PSoC4/TimerTestMode.c **** *
  37:Generated_Source\PSoC4/TimerTestMode.c **** *******************************************************************************/
  38:Generated_Source\PSoC4/TimerTestMode.c **** void TimerTestMode_Init(void)
  39:Generated_Source\PSoC4/TimerTestMode.c **** {
  28              		.loc 1 39 0
  29              		.cfi_startproc
  30              		@ args = 0, pretend = 0, frame = 0
  31              		@ frame_needed = 0, uses_anonymous_args = 0
  32              		@ link register save eliminated.
  40:Generated_Source\PSoC4/TimerTestMode.c **** 
  41:Generated_Source\PSoC4/TimerTestMode.c ****     /* Set values from customizer to CTRL */
  42:Generated_Source\PSoC4/TimerTestMode.c ****     #if (TimerTestMode__QUAD == TimerTestMode_CONFIG)
  43:Generated_Source\PSoC4/TimerTestMode.c ****         TimerTestMode_CONTROL_REG = TimerTestMode_CTRL_QUAD_BASE_CONFIG;
  44:Generated_Source\PSoC4/TimerTestMode.c ****         
  45:Generated_Source\PSoC4/TimerTestMode.c ****         /* Set values from customizer to CTRL1 */
  46:Generated_Source\PSoC4/TimerTestMode.c ****         TimerTestMode_TRIG_CONTROL1_REG  = TimerTestMode_QUAD_SIGNALS_MODES;
  47:Generated_Source\PSoC4/TimerTestMode.c **** 
  48:Generated_Source\PSoC4/TimerTestMode.c ****         /* Set values from customizer to INTR */
  49:Generated_Source\PSoC4/TimerTestMode.c ****         TimerTestMode_SetInterruptMode(TimerTestMode_QUAD_INTERRUPT_MASK);
  50:Generated_Source\PSoC4/TimerTestMode.c ****         
  51:Generated_Source\PSoC4/TimerTestMode.c ****          /* Set other values */
  52:Generated_Source\PSoC4/TimerTestMode.c ****         TimerTestMode_SetCounterMode(TimerTestMode_COUNT_DOWN);
  53:Generated_Source\PSoC4/TimerTestMode.c ****         TimerTestMode_WritePeriod(TimerTestMode_QUAD_PERIOD_INIT_VALUE);
  54:Generated_Source\PSoC4/TimerTestMode.c ****         TimerTestMode_WriteCounter(TimerTestMode_QUAD_PERIOD_INIT_VALUE);
  55:Generated_Source\PSoC4/TimerTestMode.c ****     #endif  /* (TimerTestMode__QUAD == TimerTestMode_CONFIG) */
  56:Generated_Source\PSoC4/TimerTestMode.c **** 
  57:Generated_Source\PSoC4/TimerTestMode.c ****     #if (TimerTestMode__TIMER == TimerTestMode_CONFIG)
  58:Generated_Source\PSoC4/TimerTestMode.c ****         TimerTestMode_CONTROL_REG = TimerTestMode_CTRL_TIMER_BASE_CONFIG;
  33              		.loc 1 58 0
  34 0000 C022     		movs	r2, #192
  35 0002 094B     		ldr	r3, .L2
  36 0004 D200     		lsls	r2, r2, #3
  37 0006 1A60     		str	r2, [r3]
  59:Generated_Source\PSoC4/TimerTestMode.c ****         
  60:Generated_Source\PSoC4/TimerTestMode.c ****         /* Set values from customizer to CTRL1 */
  61:Generated_Source\PSoC4/TimerTestMode.c ****         TimerTestMode_TRIG_CONTROL1_REG  = TimerTestMode_TIMER_SIGNALS_MODES;
  38              		.loc 1 61 0
  39 0008 0C22     		movs	r2, #12
  40 000a 084B     		ldr	r3, .L2+4
  62:Generated_Source\PSoC4/TimerTestMode.c ****     
  63:Generated_Source\PSoC4/TimerTestMode.c ****         /* Set values from customizer to INTR */
  64:Generated_Source\PSoC4/TimerTestMode.c ****         TimerTestMode_SetInterruptMode(TimerTestMode_TC_INTERRUPT_MASK);
  65:Generated_Source\PSoC4/TimerTestMode.c ****         
  66:Generated_Source\PSoC4/TimerTestMode.c ****         /* Set other values from customizer */
  67:Generated_Source\PSoC4/TimerTestMode.c ****         TimerTestMode_WritePeriod(TimerTestMode_TC_PERIOD_VALUE );
  68:Generated_Source\PSoC4/TimerTestMode.c **** 
  69:Generated_Source\PSoC4/TimerTestMode.c ****         #if (TimerTestMode__COMPARE == TimerTestMode_TC_COMP_CAP_MODE)
  70:Generated_Source\PSoC4/TimerTestMode.c ****             TimerTestMode_WriteCompare(TimerTestMode_TC_COMPARE_VALUE);
  71:Generated_Source\PSoC4/TimerTestMode.c **** 
  72:Generated_Source\PSoC4/TimerTestMode.c ****             #if (1u == TimerTestMode_TC_COMPARE_SWAP)
  73:Generated_Source\PSoC4/TimerTestMode.c ****                 TimerTestMode_SetCompareSwap(1u);
  74:Generated_Source\PSoC4/TimerTestMode.c ****                 TimerTestMode_WriteCompareBuf(TimerTestMode_TC_COMPARE_BUF_VALUE);
ARM GAS  C:\Users\Petro\AppData\Local\Temp\ccebLrz4.s 			page 3


  75:Generated_Source\PSoC4/TimerTestMode.c ****             #endif  /* (1u == TimerTestMode_TC_COMPARE_SWAP) */
  76:Generated_Source\PSoC4/TimerTestMode.c ****         #endif  /* (TimerTestMode__COMPARE == TimerTestMode_TC_COMP_CAP_MODE) */
  77:Generated_Source\PSoC4/TimerTestMode.c **** 
  78:Generated_Source\PSoC4/TimerTestMode.c ****         /* Initialize counter value */
  79:Generated_Source\PSoC4/TimerTestMode.c ****         #if (TimerTestMode_CY_TCPWM_V2 && TimerTestMode_TIMER_UPDOWN_CNT_USED && !TimerTestMode_CY_
  80:Generated_Source\PSoC4/TimerTestMode.c ****             TimerTestMode_WriteCounter(1u);
  81:Generated_Source\PSoC4/TimerTestMode.c ****         #elif(TimerTestMode__COUNT_DOWN == TimerTestMode_TC_COUNTER_MODE)
  82:Generated_Source\PSoC4/TimerTestMode.c ****             TimerTestMode_WriteCounter(TimerTestMode_TC_PERIOD_VALUE);
  83:Generated_Source\PSoC4/TimerTestMode.c ****         #else
  84:Generated_Source\PSoC4/TimerTestMode.c ****             TimerTestMode_WriteCounter(0u);
  85:Generated_Source\PSoC4/TimerTestMode.c ****         #endif /* (TimerTestMode_CY_TCPWM_V2 && TimerTestMode_TIMER_UPDOWN_CNT_USED && !TimerTestMo
  86:Generated_Source\PSoC4/TimerTestMode.c ****     #endif  /* (TimerTestMode__TIMER == TimerTestMode_CONFIG) */
  87:Generated_Source\PSoC4/TimerTestMode.c **** 
  88:Generated_Source\PSoC4/TimerTestMode.c ****     #if (TimerTestMode__PWM_SEL == TimerTestMode_CONFIG)
  89:Generated_Source\PSoC4/TimerTestMode.c ****         TimerTestMode_CONTROL_REG = TimerTestMode_CTRL_PWM_BASE_CONFIG;
  90:Generated_Source\PSoC4/TimerTestMode.c **** 
  91:Generated_Source\PSoC4/TimerTestMode.c ****         #if (TimerTestMode__PWM_PR == TimerTestMode_PWM_MODE)
  92:Generated_Source\PSoC4/TimerTestMode.c ****             TimerTestMode_CONTROL_REG |= TimerTestMode_CTRL_PWM_RUN_MODE;
  93:Generated_Source\PSoC4/TimerTestMode.c ****             TimerTestMode_WriteCounter(TimerTestMode_PWM_PR_INIT_VALUE);
  94:Generated_Source\PSoC4/TimerTestMode.c ****         #else
  95:Generated_Source\PSoC4/TimerTestMode.c ****             TimerTestMode_CONTROL_REG |= TimerTestMode_CTRL_PWM_ALIGN | TimerTestMode_CTRL_PWM_KILL
  96:Generated_Source\PSoC4/TimerTestMode.c ****             
  97:Generated_Source\PSoC4/TimerTestMode.c ****             /* Initialize counter value */
  98:Generated_Source\PSoC4/TimerTestMode.c ****             #if (TimerTestMode_CY_TCPWM_V2 && TimerTestMode_PWM_UPDOWN_CNT_USED && !TimerTestMode_C
  99:Generated_Source\PSoC4/TimerTestMode.c ****                 TimerTestMode_WriteCounter(1u);
 100:Generated_Source\PSoC4/TimerTestMode.c ****             #elif (TimerTestMode__RIGHT == TimerTestMode_PWM_ALIGN)
 101:Generated_Source\PSoC4/TimerTestMode.c ****                 TimerTestMode_WriteCounter(TimerTestMode_PWM_PERIOD_VALUE);
 102:Generated_Source\PSoC4/TimerTestMode.c ****             #else 
 103:Generated_Source\PSoC4/TimerTestMode.c ****                 TimerTestMode_WriteCounter(0u);
 104:Generated_Source\PSoC4/TimerTestMode.c ****             #endif  /* (TimerTestMode_CY_TCPWM_V2 && TimerTestMode_PWM_UPDOWN_CNT_USED && !TimerTes
 105:Generated_Source\PSoC4/TimerTestMode.c ****         #endif  /* (TimerTestMode__PWM_PR == TimerTestMode_PWM_MODE) */
 106:Generated_Source\PSoC4/TimerTestMode.c **** 
 107:Generated_Source\PSoC4/TimerTestMode.c ****         #if (TimerTestMode__PWM_DT == TimerTestMode_PWM_MODE)
 108:Generated_Source\PSoC4/TimerTestMode.c ****             TimerTestMode_CONTROL_REG |= TimerTestMode_CTRL_PWM_DEAD_TIME_CYCLE;
 109:Generated_Source\PSoC4/TimerTestMode.c ****         #endif  /* (TimerTestMode__PWM_DT == TimerTestMode_PWM_MODE) */
 110:Generated_Source\PSoC4/TimerTestMode.c **** 
 111:Generated_Source\PSoC4/TimerTestMode.c ****         #if (TimerTestMode__PWM == TimerTestMode_PWM_MODE)
 112:Generated_Source\PSoC4/TimerTestMode.c ****             TimerTestMode_CONTROL_REG |= TimerTestMode_CTRL_PWM_PRESCALER;
 113:Generated_Source\PSoC4/TimerTestMode.c ****         #endif  /* (TimerTestMode__PWM == TimerTestMode_PWM_MODE) */
 114:Generated_Source\PSoC4/TimerTestMode.c **** 
 115:Generated_Source\PSoC4/TimerTestMode.c ****         /* Set values from customizer to CTRL1 */
 116:Generated_Source\PSoC4/TimerTestMode.c ****         TimerTestMode_TRIG_CONTROL1_REG  = TimerTestMode_PWM_SIGNALS_MODES;
 117:Generated_Source\PSoC4/TimerTestMode.c ****     
 118:Generated_Source\PSoC4/TimerTestMode.c ****         /* Set values from customizer to INTR */
 119:Generated_Source\PSoC4/TimerTestMode.c ****         TimerTestMode_SetInterruptMode(TimerTestMode_PWM_INTERRUPT_MASK);
 120:Generated_Source\PSoC4/TimerTestMode.c **** 
 121:Generated_Source\PSoC4/TimerTestMode.c ****         /* Set values from customizer to CTRL2 */
 122:Generated_Source\PSoC4/TimerTestMode.c ****         #if (TimerTestMode__PWM_PR == TimerTestMode_PWM_MODE)
 123:Generated_Source\PSoC4/TimerTestMode.c ****             TimerTestMode_TRIG_CONTROL2_REG =
 124:Generated_Source\PSoC4/TimerTestMode.c ****                     (TimerTestMode_CC_MATCH_NO_CHANGE    |
 125:Generated_Source\PSoC4/TimerTestMode.c ****                     TimerTestMode_OVERLOW_NO_CHANGE      |
 126:Generated_Source\PSoC4/TimerTestMode.c ****                     TimerTestMode_UNDERFLOW_NO_CHANGE);
 127:Generated_Source\PSoC4/TimerTestMode.c ****         #else
 128:Generated_Source\PSoC4/TimerTestMode.c ****             #if (TimerTestMode__LEFT == TimerTestMode_PWM_ALIGN)
 129:Generated_Source\PSoC4/TimerTestMode.c ****                 TimerTestMode_TRIG_CONTROL2_REG = TimerTestMode_PWM_MODE_LEFT;
 130:Generated_Source\PSoC4/TimerTestMode.c ****             #endif  /* ( TimerTestMode_PWM_LEFT == TimerTestMode_PWM_ALIGN) */
 131:Generated_Source\PSoC4/TimerTestMode.c **** 
ARM GAS  C:\Users\Petro\AppData\Local\Temp\ccebLrz4.s 			page 4


 132:Generated_Source\PSoC4/TimerTestMode.c ****             #if (TimerTestMode__RIGHT == TimerTestMode_PWM_ALIGN)
 133:Generated_Source\PSoC4/TimerTestMode.c ****                 TimerTestMode_TRIG_CONTROL2_REG = TimerTestMode_PWM_MODE_RIGHT;
 134:Generated_Source\PSoC4/TimerTestMode.c ****             #endif  /* ( TimerTestMode_PWM_RIGHT == TimerTestMode_PWM_ALIGN) */
 135:Generated_Source\PSoC4/TimerTestMode.c **** 
 136:Generated_Source\PSoC4/TimerTestMode.c ****             #if (TimerTestMode__CENTER == TimerTestMode_PWM_ALIGN)
 137:Generated_Source\PSoC4/TimerTestMode.c ****                 TimerTestMode_TRIG_CONTROL2_REG = TimerTestMode_PWM_MODE_CENTER;
 138:Generated_Source\PSoC4/TimerTestMode.c ****             #endif  /* ( TimerTestMode_PWM_CENTER == TimerTestMode_PWM_ALIGN) */
 139:Generated_Source\PSoC4/TimerTestMode.c **** 
 140:Generated_Source\PSoC4/TimerTestMode.c ****             #if (TimerTestMode__ASYMMETRIC == TimerTestMode_PWM_ALIGN)
 141:Generated_Source\PSoC4/TimerTestMode.c ****                 TimerTestMode_TRIG_CONTROL2_REG = TimerTestMode_PWM_MODE_ASYM;
 142:Generated_Source\PSoC4/TimerTestMode.c ****             #endif  /* (TimerTestMode__ASYMMETRIC == TimerTestMode_PWM_ALIGN) */
 143:Generated_Source\PSoC4/TimerTestMode.c ****         #endif  /* (TimerTestMode__PWM_PR == TimerTestMode_PWM_MODE) */
 144:Generated_Source\PSoC4/TimerTestMode.c **** 
 145:Generated_Source\PSoC4/TimerTestMode.c ****         /* Set other values from customizer */
 146:Generated_Source\PSoC4/TimerTestMode.c ****         TimerTestMode_WritePeriod(TimerTestMode_PWM_PERIOD_VALUE );
 147:Generated_Source\PSoC4/TimerTestMode.c ****         TimerTestMode_WriteCompare(TimerTestMode_PWM_COMPARE_VALUE);
 148:Generated_Source\PSoC4/TimerTestMode.c **** 
 149:Generated_Source\PSoC4/TimerTestMode.c ****         #if (1u == TimerTestMode_PWM_COMPARE_SWAP)
 150:Generated_Source\PSoC4/TimerTestMode.c ****             TimerTestMode_SetCompareSwap(1u);
 151:Generated_Source\PSoC4/TimerTestMode.c ****             TimerTestMode_WriteCompareBuf(TimerTestMode_PWM_COMPARE_BUF_VALUE);
 152:Generated_Source\PSoC4/TimerTestMode.c ****         #endif  /* (1u == TimerTestMode_PWM_COMPARE_SWAP) */
 153:Generated_Source\PSoC4/TimerTestMode.c **** 
 154:Generated_Source\PSoC4/TimerTestMode.c ****         #if (1u == TimerTestMode_PWM_PERIOD_SWAP)
 155:Generated_Source\PSoC4/TimerTestMode.c ****             TimerTestMode_SetPeriodSwap(1u);
 156:Generated_Source\PSoC4/TimerTestMode.c ****             TimerTestMode_WritePeriodBuf(TimerTestMode_PWM_PERIOD_BUF_VALUE);
 157:Generated_Source\PSoC4/TimerTestMode.c ****         #endif  /* (1u == TimerTestMode_PWM_PERIOD_SWAP) */
 158:Generated_Source\PSoC4/TimerTestMode.c ****     #endif  /* (TimerTestMode__PWM_SEL == TimerTestMode_CONFIG) */
 159:Generated_Source\PSoC4/TimerTestMode.c ****     
 160:Generated_Source\PSoC4/TimerTestMode.c **** }
  41              		.loc 1 160 0
  42              		@ sp needed
  61:Generated_Source\PSoC4/TimerTestMode.c ****     
  43              		.loc 1 61 0
  44 000c 1A60     		str	r2, [r3]
  45              	.LVL0:
  46              	.LBB10:
  47              	.LBB11:
 161:Generated_Source\PSoC4/TimerTestMode.c **** 
 162:Generated_Source\PSoC4/TimerTestMode.c **** 
 163:Generated_Source\PSoC4/TimerTestMode.c **** /*******************************************************************************
 164:Generated_Source\PSoC4/TimerTestMode.c **** * Function Name: TimerTestMode_Enable
 165:Generated_Source\PSoC4/TimerTestMode.c **** ********************************************************************************
 166:Generated_Source\PSoC4/TimerTestMode.c **** *
 167:Generated_Source\PSoC4/TimerTestMode.c **** * Summary:
 168:Generated_Source\PSoC4/TimerTestMode.c **** *  Enables the TimerTestMode.
 169:Generated_Source\PSoC4/TimerTestMode.c **** *
 170:Generated_Source\PSoC4/TimerTestMode.c **** * Parameters:
 171:Generated_Source\PSoC4/TimerTestMode.c **** *  None
 172:Generated_Source\PSoC4/TimerTestMode.c **** *
 173:Generated_Source\PSoC4/TimerTestMode.c **** * Return:
 174:Generated_Source\PSoC4/TimerTestMode.c **** *  None
 175:Generated_Source\PSoC4/TimerTestMode.c **** *
 176:Generated_Source\PSoC4/TimerTestMode.c **** *******************************************************************************/
 177:Generated_Source\PSoC4/TimerTestMode.c **** void TimerTestMode_Enable(void)
 178:Generated_Source\PSoC4/TimerTestMode.c **** {
 179:Generated_Source\PSoC4/TimerTestMode.c ****     uint8 enableInterrupts;
 180:Generated_Source\PSoC4/TimerTestMode.c **** 
ARM GAS  C:\Users\Petro\AppData\Local\Temp\ccebLrz4.s 			page 5


 181:Generated_Source\PSoC4/TimerTestMode.c ****     enableInterrupts = CyEnterCriticalSection();
 182:Generated_Source\PSoC4/TimerTestMode.c ****     TimerTestMode_BLOCK_CONTROL_REG |= TimerTestMode_MASK;
 183:Generated_Source\PSoC4/TimerTestMode.c ****     CyExitCriticalSection(enableInterrupts);
 184:Generated_Source\PSoC4/TimerTestMode.c **** 
 185:Generated_Source\PSoC4/TimerTestMode.c ****     /* Start Timer or PWM if start input is absent */
 186:Generated_Source\PSoC4/TimerTestMode.c ****     #if (TimerTestMode__PWM_SEL == TimerTestMode_CONFIG)
 187:Generated_Source\PSoC4/TimerTestMode.c ****         #if (0u == TimerTestMode_PWM_START_SIGNAL_PRESENT)
 188:Generated_Source\PSoC4/TimerTestMode.c ****             TimerTestMode_TriggerCommand(TimerTestMode_MASK, TimerTestMode_CMD_START);
 189:Generated_Source\PSoC4/TimerTestMode.c ****         #endif /* (0u == TimerTestMode_PWM_START_SIGNAL_PRESENT) */
 190:Generated_Source\PSoC4/TimerTestMode.c ****     #endif /* (TimerTestMode__PWM_SEL == TimerTestMode_CONFIG) */
 191:Generated_Source\PSoC4/TimerTestMode.c **** 
 192:Generated_Source\PSoC4/TimerTestMode.c ****     #if (TimerTestMode__TIMER == TimerTestMode_CONFIG)
 193:Generated_Source\PSoC4/TimerTestMode.c ****         #if (0u == TimerTestMode_TC_START_SIGNAL_PRESENT)
 194:Generated_Source\PSoC4/TimerTestMode.c ****             TimerTestMode_TriggerCommand(TimerTestMode_MASK, TimerTestMode_CMD_START);
 195:Generated_Source\PSoC4/TimerTestMode.c ****         #endif /* (0u == TimerTestMode_TC_START_SIGNAL_PRESENT) */
 196:Generated_Source\PSoC4/TimerTestMode.c ****     #endif /* (TimerTestMode__TIMER == TimerTestMode_CONFIG) */
 197:Generated_Source\PSoC4/TimerTestMode.c ****     
 198:Generated_Source\PSoC4/TimerTestMode.c ****     #if (TimerTestMode__QUAD == TimerTestMode_CONFIG)
 199:Generated_Source\PSoC4/TimerTestMode.c ****         #if (0u != TimerTestMode_QUAD_AUTO_START)
 200:Generated_Source\PSoC4/TimerTestMode.c ****             TimerTestMode_TriggerCommand(TimerTestMode_MASK, TimerTestMode_CMD_RELOAD);
 201:Generated_Source\PSoC4/TimerTestMode.c ****         #endif /* (0u != TimerTestMode_QUAD_AUTO_START) */
 202:Generated_Source\PSoC4/TimerTestMode.c ****     #endif  /* (TimerTestMode__QUAD == TimerTestMode_CONFIG) */
 203:Generated_Source\PSoC4/TimerTestMode.c **** }
 204:Generated_Source\PSoC4/TimerTestMode.c **** 
 205:Generated_Source\PSoC4/TimerTestMode.c **** 
 206:Generated_Source\PSoC4/TimerTestMode.c **** /*******************************************************************************
 207:Generated_Source\PSoC4/TimerTestMode.c **** * Function Name: TimerTestMode_Start
 208:Generated_Source\PSoC4/TimerTestMode.c **** ********************************************************************************
 209:Generated_Source\PSoC4/TimerTestMode.c **** *
 210:Generated_Source\PSoC4/TimerTestMode.c **** * Summary:
 211:Generated_Source\PSoC4/TimerTestMode.c **** *  Initializes the TimerTestMode with default customizer
 212:Generated_Source\PSoC4/TimerTestMode.c **** *  values when called the first time and enables the TimerTestMode.
 213:Generated_Source\PSoC4/TimerTestMode.c **** *  For subsequent calls the configuration is left unchanged and the component is
 214:Generated_Source\PSoC4/TimerTestMode.c **** *  just enabled.
 215:Generated_Source\PSoC4/TimerTestMode.c **** *
 216:Generated_Source\PSoC4/TimerTestMode.c **** * Parameters:
 217:Generated_Source\PSoC4/TimerTestMode.c **** *  None
 218:Generated_Source\PSoC4/TimerTestMode.c **** *
 219:Generated_Source\PSoC4/TimerTestMode.c **** * Return:
 220:Generated_Source\PSoC4/TimerTestMode.c **** *  None
 221:Generated_Source\PSoC4/TimerTestMode.c **** *
 222:Generated_Source\PSoC4/TimerTestMode.c **** * Global variables:
 223:Generated_Source\PSoC4/TimerTestMode.c **** *  TimerTestMode_initVar: global variable is used to indicate initial
 224:Generated_Source\PSoC4/TimerTestMode.c **** *  configuration of this component.  The variable is initialized to zero and set
 225:Generated_Source\PSoC4/TimerTestMode.c **** *  to 1 the first time TimerTestMode_Start() is called. This allows
 226:Generated_Source\PSoC4/TimerTestMode.c **** *  enabling/disabling a component without re-initialization in all subsequent
 227:Generated_Source\PSoC4/TimerTestMode.c **** *  calls to the TimerTestMode_Start() routine.
 228:Generated_Source\PSoC4/TimerTestMode.c **** *
 229:Generated_Source\PSoC4/TimerTestMode.c **** *******************************************************************************/
 230:Generated_Source\PSoC4/TimerTestMode.c **** void TimerTestMode_Start(void)
 231:Generated_Source\PSoC4/TimerTestMode.c **** {
 232:Generated_Source\PSoC4/TimerTestMode.c ****     if (0u == TimerTestMode_initVar)
 233:Generated_Source\PSoC4/TimerTestMode.c ****     {
 234:Generated_Source\PSoC4/TimerTestMode.c ****         TimerTestMode_Init();
 235:Generated_Source\PSoC4/TimerTestMode.c ****         TimerTestMode_initVar = 1u;
 236:Generated_Source\PSoC4/TimerTestMode.c ****     }
 237:Generated_Source\PSoC4/TimerTestMode.c **** 
ARM GAS  C:\Users\Petro\AppData\Local\Temp\ccebLrz4.s 			page 6


 238:Generated_Source\PSoC4/TimerTestMode.c ****     TimerTestMode_Enable();
 239:Generated_Source\PSoC4/TimerTestMode.c **** }
 240:Generated_Source\PSoC4/TimerTestMode.c **** 
 241:Generated_Source\PSoC4/TimerTestMode.c **** 
 242:Generated_Source\PSoC4/TimerTestMode.c **** /*******************************************************************************
 243:Generated_Source\PSoC4/TimerTestMode.c **** * Function Name: TimerTestMode_Stop
 244:Generated_Source\PSoC4/TimerTestMode.c **** ********************************************************************************
 245:Generated_Source\PSoC4/TimerTestMode.c **** *
 246:Generated_Source\PSoC4/TimerTestMode.c **** * Summary:
 247:Generated_Source\PSoC4/TimerTestMode.c **** *  Disables the TimerTestMode.
 248:Generated_Source\PSoC4/TimerTestMode.c **** *
 249:Generated_Source\PSoC4/TimerTestMode.c **** * Parameters:
 250:Generated_Source\PSoC4/TimerTestMode.c **** *  None
 251:Generated_Source\PSoC4/TimerTestMode.c **** *
 252:Generated_Source\PSoC4/TimerTestMode.c **** * Return:
 253:Generated_Source\PSoC4/TimerTestMode.c **** *  None
 254:Generated_Source\PSoC4/TimerTestMode.c **** *
 255:Generated_Source\PSoC4/TimerTestMode.c **** *******************************************************************************/
 256:Generated_Source\PSoC4/TimerTestMode.c **** void TimerTestMode_Stop(void)
 257:Generated_Source\PSoC4/TimerTestMode.c **** {
 258:Generated_Source\PSoC4/TimerTestMode.c ****     uint8 enableInterrupts;
 259:Generated_Source\PSoC4/TimerTestMode.c **** 
 260:Generated_Source\PSoC4/TimerTestMode.c ****     enableInterrupts = CyEnterCriticalSection();
 261:Generated_Source\PSoC4/TimerTestMode.c **** 
 262:Generated_Source\PSoC4/TimerTestMode.c ****     TimerTestMode_BLOCK_CONTROL_REG &= (uint32)~TimerTestMode_MASK;
 263:Generated_Source\PSoC4/TimerTestMode.c **** 
 264:Generated_Source\PSoC4/TimerTestMode.c ****     CyExitCriticalSection(enableInterrupts);
 265:Generated_Source\PSoC4/TimerTestMode.c **** }
 266:Generated_Source\PSoC4/TimerTestMode.c **** 
 267:Generated_Source\PSoC4/TimerTestMode.c **** 
 268:Generated_Source\PSoC4/TimerTestMode.c **** /*******************************************************************************
 269:Generated_Source\PSoC4/TimerTestMode.c **** * Function Name: TimerTestMode_SetMode
 270:Generated_Source\PSoC4/TimerTestMode.c **** ********************************************************************************
 271:Generated_Source\PSoC4/TimerTestMode.c **** *
 272:Generated_Source\PSoC4/TimerTestMode.c **** * Summary:
 273:Generated_Source\PSoC4/TimerTestMode.c **** *  Sets the operation mode of the TimerTestMode. This function is used when
 274:Generated_Source\PSoC4/TimerTestMode.c **** *  configured as a generic TimerTestMode and the actual mode of operation is
 275:Generated_Source\PSoC4/TimerTestMode.c **** *  set at runtime. The mode must be set while the component is disabled.
 276:Generated_Source\PSoC4/TimerTestMode.c **** *
 277:Generated_Source\PSoC4/TimerTestMode.c **** * Parameters:
 278:Generated_Source\PSoC4/TimerTestMode.c **** *  mode: Mode for the TimerTestMode to operate in
 279:Generated_Source\PSoC4/TimerTestMode.c **** *   Values:
 280:Generated_Source\PSoC4/TimerTestMode.c **** *   - TimerTestMode_MODE_TIMER_COMPARE - Timer / Counter with
 281:Generated_Source\PSoC4/TimerTestMode.c **** *                                                 compare capability
 282:Generated_Source\PSoC4/TimerTestMode.c **** *         - TimerTestMode_MODE_TIMER_CAPTURE - Timer / Counter with
 283:Generated_Source\PSoC4/TimerTestMode.c **** *                                                 capture capability
 284:Generated_Source\PSoC4/TimerTestMode.c **** *         - TimerTestMode_MODE_QUAD - Quadrature decoder
 285:Generated_Source\PSoC4/TimerTestMode.c **** *         - TimerTestMode_MODE_PWM - PWM
 286:Generated_Source\PSoC4/TimerTestMode.c **** *         - TimerTestMode_MODE_PWM_DT - PWM with dead time
 287:Generated_Source\PSoC4/TimerTestMode.c **** *         - TimerTestMode_MODE_PWM_PR - PWM with pseudo random capability
 288:Generated_Source\PSoC4/TimerTestMode.c **** *
 289:Generated_Source\PSoC4/TimerTestMode.c **** * Return:
 290:Generated_Source\PSoC4/TimerTestMode.c **** *  None
 291:Generated_Source\PSoC4/TimerTestMode.c **** *
 292:Generated_Source\PSoC4/TimerTestMode.c **** *******************************************************************************/
 293:Generated_Source\PSoC4/TimerTestMode.c **** void TimerTestMode_SetMode(uint32 mode)
 294:Generated_Source\PSoC4/TimerTestMode.c **** {
ARM GAS  C:\Users\Petro\AppData\Local\Temp\ccebLrz4.s 			page 7


 295:Generated_Source\PSoC4/TimerTestMode.c ****     uint8 enableInterrupts;
 296:Generated_Source\PSoC4/TimerTestMode.c **** 
 297:Generated_Source\PSoC4/TimerTestMode.c ****     enableInterrupts = CyEnterCriticalSection();
 298:Generated_Source\PSoC4/TimerTestMode.c **** 
 299:Generated_Source\PSoC4/TimerTestMode.c ****     TimerTestMode_CONTROL_REG &= (uint32)~TimerTestMode_MODE_MASK;
 300:Generated_Source\PSoC4/TimerTestMode.c ****     TimerTestMode_CONTROL_REG |= mode;
 301:Generated_Source\PSoC4/TimerTestMode.c **** 
 302:Generated_Source\PSoC4/TimerTestMode.c ****     CyExitCriticalSection(enableInterrupts);
 303:Generated_Source\PSoC4/TimerTestMode.c **** }
 304:Generated_Source\PSoC4/TimerTestMode.c **** 
 305:Generated_Source\PSoC4/TimerTestMode.c **** 
 306:Generated_Source\PSoC4/TimerTestMode.c **** /*******************************************************************************
 307:Generated_Source\PSoC4/TimerTestMode.c **** * Function Name: TimerTestMode_SetQDMode
 308:Generated_Source\PSoC4/TimerTestMode.c **** ********************************************************************************
 309:Generated_Source\PSoC4/TimerTestMode.c **** *
 310:Generated_Source\PSoC4/TimerTestMode.c **** * Summary:
 311:Generated_Source\PSoC4/TimerTestMode.c **** *  Sets the the Quadrature Decoder to one of the 3 supported modes.
 312:Generated_Source\PSoC4/TimerTestMode.c **** *  Its functionality is only applicable to Quadrature Decoder operation.
 313:Generated_Source\PSoC4/TimerTestMode.c **** *
 314:Generated_Source\PSoC4/TimerTestMode.c **** * Parameters:
 315:Generated_Source\PSoC4/TimerTestMode.c **** *  qdMode: Quadrature Decoder mode
 316:Generated_Source\PSoC4/TimerTestMode.c **** *   Values:
 317:Generated_Source\PSoC4/TimerTestMode.c **** *         - TimerTestMode_MODE_X1 - Counts on phi 1 rising
 318:Generated_Source\PSoC4/TimerTestMode.c **** *         - TimerTestMode_MODE_X2 - Counts on both edges of phi1 (2x faster)
 319:Generated_Source\PSoC4/TimerTestMode.c **** *         - TimerTestMode_MODE_X4 - Counts on both edges of phi1 and phi2
 320:Generated_Source\PSoC4/TimerTestMode.c **** *                                        (4x faster)
 321:Generated_Source\PSoC4/TimerTestMode.c **** *
 322:Generated_Source\PSoC4/TimerTestMode.c **** * Return:
 323:Generated_Source\PSoC4/TimerTestMode.c **** *  None
 324:Generated_Source\PSoC4/TimerTestMode.c **** *
 325:Generated_Source\PSoC4/TimerTestMode.c **** *******************************************************************************/
 326:Generated_Source\PSoC4/TimerTestMode.c **** void TimerTestMode_SetQDMode(uint32 qdMode)
 327:Generated_Source\PSoC4/TimerTestMode.c **** {
 328:Generated_Source\PSoC4/TimerTestMode.c ****     uint8 enableInterrupts;
 329:Generated_Source\PSoC4/TimerTestMode.c **** 
 330:Generated_Source\PSoC4/TimerTestMode.c ****     enableInterrupts = CyEnterCriticalSection();
 331:Generated_Source\PSoC4/TimerTestMode.c **** 
 332:Generated_Source\PSoC4/TimerTestMode.c ****     TimerTestMode_CONTROL_REG &= (uint32)~TimerTestMode_QUAD_MODE_MASK;
 333:Generated_Source\PSoC4/TimerTestMode.c ****     TimerTestMode_CONTROL_REG |= qdMode;
 334:Generated_Source\PSoC4/TimerTestMode.c **** 
 335:Generated_Source\PSoC4/TimerTestMode.c ****     CyExitCriticalSection(enableInterrupts);
 336:Generated_Source\PSoC4/TimerTestMode.c **** }
 337:Generated_Source\PSoC4/TimerTestMode.c **** 
 338:Generated_Source\PSoC4/TimerTestMode.c **** 
 339:Generated_Source\PSoC4/TimerTestMode.c **** /*******************************************************************************
 340:Generated_Source\PSoC4/TimerTestMode.c **** * Function Name: TimerTestMode_SetPrescaler
 341:Generated_Source\PSoC4/TimerTestMode.c **** ********************************************************************************
 342:Generated_Source\PSoC4/TimerTestMode.c **** *
 343:Generated_Source\PSoC4/TimerTestMode.c **** * Summary:
 344:Generated_Source\PSoC4/TimerTestMode.c **** *  Sets the prescaler value that is applied to the clock input.  Not applicable
 345:Generated_Source\PSoC4/TimerTestMode.c **** *  to a PWM with the dead time mode or Quadrature Decoder mode.
 346:Generated_Source\PSoC4/TimerTestMode.c **** *
 347:Generated_Source\PSoC4/TimerTestMode.c **** * Parameters:
 348:Generated_Source\PSoC4/TimerTestMode.c **** *  prescaler: Prescaler divider value
 349:Generated_Source\PSoC4/TimerTestMode.c **** *   Values:
 350:Generated_Source\PSoC4/TimerTestMode.c **** *         - TimerTestMode_PRESCALE_DIVBY1    - Divide by 1 (no prescaling)
 351:Generated_Source\PSoC4/TimerTestMode.c **** *         - TimerTestMode_PRESCALE_DIVBY2    - Divide by 2
ARM GAS  C:\Users\Petro\AppData\Local\Temp\ccebLrz4.s 			page 8


 352:Generated_Source\PSoC4/TimerTestMode.c **** *         - TimerTestMode_PRESCALE_DIVBY4    - Divide by 4
 353:Generated_Source\PSoC4/TimerTestMode.c **** *         - TimerTestMode_PRESCALE_DIVBY8    - Divide by 8
 354:Generated_Source\PSoC4/TimerTestMode.c **** *         - TimerTestMode_PRESCALE_DIVBY16   - Divide by 16
 355:Generated_Source\PSoC4/TimerTestMode.c **** *         - TimerTestMode_PRESCALE_DIVBY32   - Divide by 32
 356:Generated_Source\PSoC4/TimerTestMode.c **** *         - TimerTestMode_PRESCALE_DIVBY64   - Divide by 64
 357:Generated_Source\PSoC4/TimerTestMode.c **** *         - TimerTestMode_PRESCALE_DIVBY128  - Divide by 128
 358:Generated_Source\PSoC4/TimerTestMode.c **** *
 359:Generated_Source\PSoC4/TimerTestMode.c **** * Return:
 360:Generated_Source\PSoC4/TimerTestMode.c **** *  None
 361:Generated_Source\PSoC4/TimerTestMode.c **** *
 362:Generated_Source\PSoC4/TimerTestMode.c **** *******************************************************************************/
 363:Generated_Source\PSoC4/TimerTestMode.c **** void TimerTestMode_SetPrescaler(uint32 prescaler)
 364:Generated_Source\PSoC4/TimerTestMode.c **** {
 365:Generated_Source\PSoC4/TimerTestMode.c ****     uint8 enableInterrupts;
 366:Generated_Source\PSoC4/TimerTestMode.c **** 
 367:Generated_Source\PSoC4/TimerTestMode.c ****     enableInterrupts = CyEnterCriticalSection();
 368:Generated_Source\PSoC4/TimerTestMode.c **** 
 369:Generated_Source\PSoC4/TimerTestMode.c ****     TimerTestMode_CONTROL_REG &= (uint32)~TimerTestMode_PRESCALER_MASK;
 370:Generated_Source\PSoC4/TimerTestMode.c ****     TimerTestMode_CONTROL_REG |= prescaler;
 371:Generated_Source\PSoC4/TimerTestMode.c **** 
 372:Generated_Source\PSoC4/TimerTestMode.c ****     CyExitCriticalSection(enableInterrupts);
 373:Generated_Source\PSoC4/TimerTestMode.c **** }
 374:Generated_Source\PSoC4/TimerTestMode.c **** 
 375:Generated_Source\PSoC4/TimerTestMode.c **** 
 376:Generated_Source\PSoC4/TimerTestMode.c **** /*******************************************************************************
 377:Generated_Source\PSoC4/TimerTestMode.c **** * Function Name: TimerTestMode_SetOneShot
 378:Generated_Source\PSoC4/TimerTestMode.c **** ********************************************************************************
 379:Generated_Source\PSoC4/TimerTestMode.c **** *
 380:Generated_Source\PSoC4/TimerTestMode.c **** * Summary:
 381:Generated_Source\PSoC4/TimerTestMode.c **** *  Writes the register that controls whether the TimerTestMode runs
 382:Generated_Source\PSoC4/TimerTestMode.c **** *  continuously or stops when terminal count is reached.  By default the
 383:Generated_Source\PSoC4/TimerTestMode.c **** *  TimerTestMode operates in the continuous mode.
 384:Generated_Source\PSoC4/TimerTestMode.c **** *
 385:Generated_Source\PSoC4/TimerTestMode.c **** * Parameters:
 386:Generated_Source\PSoC4/TimerTestMode.c **** *  oneShotEnable
 387:Generated_Source\PSoC4/TimerTestMode.c **** *   Values:
 388:Generated_Source\PSoC4/TimerTestMode.c **** *     - 0 - Continuous
 389:Generated_Source\PSoC4/TimerTestMode.c **** *     - 1 - Enable One Shot
 390:Generated_Source\PSoC4/TimerTestMode.c **** *
 391:Generated_Source\PSoC4/TimerTestMode.c **** * Return:
 392:Generated_Source\PSoC4/TimerTestMode.c **** *  None
 393:Generated_Source\PSoC4/TimerTestMode.c **** *
 394:Generated_Source\PSoC4/TimerTestMode.c **** *******************************************************************************/
 395:Generated_Source\PSoC4/TimerTestMode.c **** void TimerTestMode_SetOneShot(uint32 oneShotEnable)
 396:Generated_Source\PSoC4/TimerTestMode.c **** {
 397:Generated_Source\PSoC4/TimerTestMode.c ****     uint8 enableInterrupts;
 398:Generated_Source\PSoC4/TimerTestMode.c **** 
 399:Generated_Source\PSoC4/TimerTestMode.c ****     enableInterrupts = CyEnterCriticalSection();
 400:Generated_Source\PSoC4/TimerTestMode.c **** 
 401:Generated_Source\PSoC4/TimerTestMode.c ****     TimerTestMode_CONTROL_REG &= (uint32)~TimerTestMode_ONESHOT_MASK;
 402:Generated_Source\PSoC4/TimerTestMode.c ****     TimerTestMode_CONTROL_REG |= ((uint32)((oneShotEnable & TimerTestMode_1BIT_MASK) <<
 403:Generated_Source\PSoC4/TimerTestMode.c ****                                                                TimerTestMode_ONESHOT_SHIFT));
 404:Generated_Source\PSoC4/TimerTestMode.c **** 
 405:Generated_Source\PSoC4/TimerTestMode.c ****     CyExitCriticalSection(enableInterrupts);
 406:Generated_Source\PSoC4/TimerTestMode.c **** }
 407:Generated_Source\PSoC4/TimerTestMode.c **** 
 408:Generated_Source\PSoC4/TimerTestMode.c **** 
ARM GAS  C:\Users\Petro\AppData\Local\Temp\ccebLrz4.s 			page 9


 409:Generated_Source\PSoC4/TimerTestMode.c **** /*******************************************************************************
 410:Generated_Source\PSoC4/TimerTestMode.c **** * Function Name: TimerTestMode_SetPWMMode
 411:Generated_Source\PSoC4/TimerTestMode.c **** ********************************************************************************
 412:Generated_Source\PSoC4/TimerTestMode.c **** *
 413:Generated_Source\PSoC4/TimerTestMode.c **** * Summary:
 414:Generated_Source\PSoC4/TimerTestMode.c **** *  Writes the control register that determines what mode of operation the PWM
 415:Generated_Source\PSoC4/TimerTestMode.c **** *  output lines are driven in.  There is a setting for what to do on a
 416:Generated_Source\PSoC4/TimerTestMode.c **** *  comparison match (CC_MATCH), on an overflow (OVERFLOW) and on an underflow
 417:Generated_Source\PSoC4/TimerTestMode.c **** *  (UNDERFLOW).  The value for each of the three must be ORed together to form
 418:Generated_Source\PSoC4/TimerTestMode.c **** *  the mode.
 419:Generated_Source\PSoC4/TimerTestMode.c **** *
 420:Generated_Source\PSoC4/TimerTestMode.c **** * Parameters:
 421:Generated_Source\PSoC4/TimerTestMode.c **** *  modeMask: A combination of three mode settings.  Mask must include a value
 422:Generated_Source\PSoC4/TimerTestMode.c **** *  for each of the three or use one of the preconfigured PWM settings.
 423:Generated_Source\PSoC4/TimerTestMode.c **** *   Values:
 424:Generated_Source\PSoC4/TimerTestMode.c **** *     - CC_MATCH_SET        - Set on comparison match
 425:Generated_Source\PSoC4/TimerTestMode.c **** *     - CC_MATCH_CLEAR      - Clear on comparison match
 426:Generated_Source\PSoC4/TimerTestMode.c **** *     - CC_MATCH_INVERT     - Invert on comparison match
 427:Generated_Source\PSoC4/TimerTestMode.c **** *     - CC_MATCH_NO_CHANGE  - No change on comparison match
 428:Generated_Source\PSoC4/TimerTestMode.c **** *     - OVERLOW_SET         - Set on overflow
 429:Generated_Source\PSoC4/TimerTestMode.c **** *     - OVERLOW_CLEAR       - Clear on  overflow
 430:Generated_Source\PSoC4/TimerTestMode.c **** *     - OVERLOW_INVERT      - Invert on overflow
 431:Generated_Source\PSoC4/TimerTestMode.c **** *     - OVERLOW_NO_CHANGE   - No change on overflow
 432:Generated_Source\PSoC4/TimerTestMode.c **** *     - UNDERFLOW_SET       - Set on underflow
 433:Generated_Source\PSoC4/TimerTestMode.c **** *     - UNDERFLOW_CLEAR     - Clear on underflow
 434:Generated_Source\PSoC4/TimerTestMode.c **** *     - UNDERFLOW_INVERT    - Invert on underflow
 435:Generated_Source\PSoC4/TimerTestMode.c **** *     - UNDERFLOW_NO_CHANGE - No change on underflow
 436:Generated_Source\PSoC4/TimerTestMode.c **** *     - PWM_MODE_LEFT       - Setting for left aligned PWM.  Should be combined
 437:Generated_Source\PSoC4/TimerTestMode.c **** *                             with up counting mode
 438:Generated_Source\PSoC4/TimerTestMode.c **** *     - PWM_MODE_RIGHT      - Setting for right aligned PWM.  Should be combined
 439:Generated_Source\PSoC4/TimerTestMode.c **** *                             with down counting mode
 440:Generated_Source\PSoC4/TimerTestMode.c **** *     - PWM_MODE_CENTER     - Setting for center aligned PWM.  Should be
 441:Generated_Source\PSoC4/TimerTestMode.c **** *                             combined with up/down 0 mode
 442:Generated_Source\PSoC4/TimerTestMode.c **** *     - PWM_MODE_ASYM       - Setting for asymmetric PWM.  Should be combined
 443:Generated_Source\PSoC4/TimerTestMode.c **** *                             with up/down 1 mode
 444:Generated_Source\PSoC4/TimerTestMode.c **** *
 445:Generated_Source\PSoC4/TimerTestMode.c **** * Return:
 446:Generated_Source\PSoC4/TimerTestMode.c **** *  None
 447:Generated_Source\PSoC4/TimerTestMode.c **** *
 448:Generated_Source\PSoC4/TimerTestMode.c **** *******************************************************************************/
 449:Generated_Source\PSoC4/TimerTestMode.c **** void TimerTestMode_SetPWMMode(uint32 modeMask)
 450:Generated_Source\PSoC4/TimerTestMode.c **** {
 451:Generated_Source\PSoC4/TimerTestMode.c ****     TimerTestMode_TRIG_CONTROL2_REG = (modeMask & TimerTestMode_6BIT_MASK);
 452:Generated_Source\PSoC4/TimerTestMode.c **** }
 453:Generated_Source\PSoC4/TimerTestMode.c **** 
 454:Generated_Source\PSoC4/TimerTestMode.c **** 
 455:Generated_Source\PSoC4/TimerTestMode.c **** 
 456:Generated_Source\PSoC4/TimerTestMode.c **** /*******************************************************************************
 457:Generated_Source\PSoC4/TimerTestMode.c **** * Function Name: TimerTestMode_SetPWMSyncKill
 458:Generated_Source\PSoC4/TimerTestMode.c **** ********************************************************************************
 459:Generated_Source\PSoC4/TimerTestMode.c **** *
 460:Generated_Source\PSoC4/TimerTestMode.c **** * Summary:
 461:Generated_Source\PSoC4/TimerTestMode.c **** *  Writes the register that controls whether the PWM kill signal (stop input)
 462:Generated_Source\PSoC4/TimerTestMode.c **** *  causes asynchronous or synchronous kill operation.  By default the kill
 463:Generated_Source\PSoC4/TimerTestMode.c **** *  operation is asynchronous.  This functionality is only applicable to the PWM
 464:Generated_Source\PSoC4/TimerTestMode.c **** *  and PWM with dead time modes.
 465:Generated_Source\PSoC4/TimerTestMode.c **** *
ARM GAS  C:\Users\Petro\AppData\Local\Temp\ccebLrz4.s 			page 10


 466:Generated_Source\PSoC4/TimerTestMode.c **** *  For Synchronous mode the kill signal disables both the line and line_n
 467:Generated_Source\PSoC4/TimerTestMode.c **** *  signals until the next terminal count.
 468:Generated_Source\PSoC4/TimerTestMode.c **** *
 469:Generated_Source\PSoC4/TimerTestMode.c **** *  For Asynchronous mode the kill signal disables both the line and line_n
 470:Generated_Source\PSoC4/TimerTestMode.c **** *  signals when the kill signal is present.  This mode should only be used
 471:Generated_Source\PSoC4/TimerTestMode.c **** *  when the kill signal (stop input) is configured in the pass through mode
 472:Generated_Source\PSoC4/TimerTestMode.c **** *  (Level sensitive signal).
 473:Generated_Source\PSoC4/TimerTestMode.c **** 
 474:Generated_Source\PSoC4/TimerTestMode.c **** *
 475:Generated_Source\PSoC4/TimerTestMode.c **** * Parameters:
 476:Generated_Source\PSoC4/TimerTestMode.c **** *  syncKillEnable
 477:Generated_Source\PSoC4/TimerTestMode.c **** *   Values:
 478:Generated_Source\PSoC4/TimerTestMode.c **** *     - 0 - Asynchronous
 479:Generated_Source\PSoC4/TimerTestMode.c **** *     - 1 - Synchronous
 480:Generated_Source\PSoC4/TimerTestMode.c **** *
 481:Generated_Source\PSoC4/TimerTestMode.c **** * Return:
 482:Generated_Source\PSoC4/TimerTestMode.c **** *  None
 483:Generated_Source\PSoC4/TimerTestMode.c **** *
 484:Generated_Source\PSoC4/TimerTestMode.c **** *******************************************************************************/
 485:Generated_Source\PSoC4/TimerTestMode.c **** void TimerTestMode_SetPWMSyncKill(uint32 syncKillEnable)
 486:Generated_Source\PSoC4/TimerTestMode.c **** {
 487:Generated_Source\PSoC4/TimerTestMode.c ****     uint8 enableInterrupts;
 488:Generated_Source\PSoC4/TimerTestMode.c **** 
 489:Generated_Source\PSoC4/TimerTestMode.c ****     enableInterrupts = CyEnterCriticalSection();
 490:Generated_Source\PSoC4/TimerTestMode.c **** 
 491:Generated_Source\PSoC4/TimerTestMode.c ****     TimerTestMode_CONTROL_REG &= (uint32)~TimerTestMode_PWM_SYNC_KILL_MASK;
 492:Generated_Source\PSoC4/TimerTestMode.c ****     TimerTestMode_CONTROL_REG |= ((uint32)((syncKillEnable & TimerTestMode_1BIT_MASK)  <<
 493:Generated_Source\PSoC4/TimerTestMode.c ****                                                TimerTestMode_PWM_SYNC_KILL_SHIFT));
 494:Generated_Source\PSoC4/TimerTestMode.c **** 
 495:Generated_Source\PSoC4/TimerTestMode.c ****     CyExitCriticalSection(enableInterrupts);
 496:Generated_Source\PSoC4/TimerTestMode.c **** }
 497:Generated_Source\PSoC4/TimerTestMode.c **** 
 498:Generated_Source\PSoC4/TimerTestMode.c **** 
 499:Generated_Source\PSoC4/TimerTestMode.c **** /*******************************************************************************
 500:Generated_Source\PSoC4/TimerTestMode.c **** * Function Name: TimerTestMode_SetPWMStopOnKill
 501:Generated_Source\PSoC4/TimerTestMode.c **** ********************************************************************************
 502:Generated_Source\PSoC4/TimerTestMode.c **** *
 503:Generated_Source\PSoC4/TimerTestMode.c **** * Summary:
 504:Generated_Source\PSoC4/TimerTestMode.c **** *  Writes the register that controls whether the PWM kill signal (stop input)
 505:Generated_Source\PSoC4/TimerTestMode.c **** *  causes the PWM counter to stop.  By default the kill operation does not stop
 506:Generated_Source\PSoC4/TimerTestMode.c **** *  the counter.  This functionality is only applicable to the three PWM modes.
 507:Generated_Source\PSoC4/TimerTestMode.c **** *
 508:Generated_Source\PSoC4/TimerTestMode.c **** *
 509:Generated_Source\PSoC4/TimerTestMode.c **** * Parameters:
 510:Generated_Source\PSoC4/TimerTestMode.c **** *  stopOnKillEnable
 511:Generated_Source\PSoC4/TimerTestMode.c **** *   Values:
 512:Generated_Source\PSoC4/TimerTestMode.c **** *     - 0 - Don't stop
 513:Generated_Source\PSoC4/TimerTestMode.c **** *     - 1 - Stop
 514:Generated_Source\PSoC4/TimerTestMode.c **** *
 515:Generated_Source\PSoC4/TimerTestMode.c **** * Return:
 516:Generated_Source\PSoC4/TimerTestMode.c **** *  None
 517:Generated_Source\PSoC4/TimerTestMode.c **** *
 518:Generated_Source\PSoC4/TimerTestMode.c **** *******************************************************************************/
 519:Generated_Source\PSoC4/TimerTestMode.c **** void TimerTestMode_SetPWMStopOnKill(uint32 stopOnKillEnable)
 520:Generated_Source\PSoC4/TimerTestMode.c **** {
 521:Generated_Source\PSoC4/TimerTestMode.c ****     uint8 enableInterrupts;
 522:Generated_Source\PSoC4/TimerTestMode.c **** 
ARM GAS  C:\Users\Petro\AppData\Local\Temp\ccebLrz4.s 			page 11


 523:Generated_Source\PSoC4/TimerTestMode.c ****     enableInterrupts = CyEnterCriticalSection();
 524:Generated_Source\PSoC4/TimerTestMode.c **** 
 525:Generated_Source\PSoC4/TimerTestMode.c ****     TimerTestMode_CONTROL_REG &= (uint32)~TimerTestMode_PWM_STOP_KILL_MASK;
 526:Generated_Source\PSoC4/TimerTestMode.c ****     TimerTestMode_CONTROL_REG |= ((uint32)((stopOnKillEnable & TimerTestMode_1BIT_MASK)  <<
 527:Generated_Source\PSoC4/TimerTestMode.c ****                                                          TimerTestMode_PWM_STOP_KILL_SHIFT));
 528:Generated_Source\PSoC4/TimerTestMode.c **** 
 529:Generated_Source\PSoC4/TimerTestMode.c ****     CyExitCriticalSection(enableInterrupts);
 530:Generated_Source\PSoC4/TimerTestMode.c **** }
 531:Generated_Source\PSoC4/TimerTestMode.c **** 
 532:Generated_Source\PSoC4/TimerTestMode.c **** 
 533:Generated_Source\PSoC4/TimerTestMode.c **** /*******************************************************************************
 534:Generated_Source\PSoC4/TimerTestMode.c **** * Function Name: TimerTestMode_SetPWMDeadTime
 535:Generated_Source\PSoC4/TimerTestMode.c **** ********************************************************************************
 536:Generated_Source\PSoC4/TimerTestMode.c **** *
 537:Generated_Source\PSoC4/TimerTestMode.c **** * Summary:
 538:Generated_Source\PSoC4/TimerTestMode.c **** *  Writes the dead time control value.  This value delays the rising edge of
 539:Generated_Source\PSoC4/TimerTestMode.c **** *  both the line and line_n signals the designated number of cycles resulting
 540:Generated_Source\PSoC4/TimerTestMode.c **** *  in both signals being inactive for that many cycles.  This functionality is
 541:Generated_Source\PSoC4/TimerTestMode.c **** *  only applicable to the PWM in the dead time mode.
 542:Generated_Source\PSoC4/TimerTestMode.c **** 
 543:Generated_Source\PSoC4/TimerTestMode.c **** *
 544:Generated_Source\PSoC4/TimerTestMode.c **** * Parameters:
 545:Generated_Source\PSoC4/TimerTestMode.c **** *  Dead time to insert
 546:Generated_Source\PSoC4/TimerTestMode.c **** *   Values: 0 to 255
 547:Generated_Source\PSoC4/TimerTestMode.c **** *
 548:Generated_Source\PSoC4/TimerTestMode.c **** * Return:
 549:Generated_Source\PSoC4/TimerTestMode.c **** *  None
 550:Generated_Source\PSoC4/TimerTestMode.c **** *
 551:Generated_Source\PSoC4/TimerTestMode.c **** *******************************************************************************/
 552:Generated_Source\PSoC4/TimerTestMode.c **** void TimerTestMode_SetPWMDeadTime(uint32 deadTime)
 553:Generated_Source\PSoC4/TimerTestMode.c **** {
 554:Generated_Source\PSoC4/TimerTestMode.c ****     uint8 enableInterrupts;
 555:Generated_Source\PSoC4/TimerTestMode.c **** 
 556:Generated_Source\PSoC4/TimerTestMode.c ****     enableInterrupts = CyEnterCriticalSection();
 557:Generated_Source\PSoC4/TimerTestMode.c **** 
 558:Generated_Source\PSoC4/TimerTestMode.c ****     TimerTestMode_CONTROL_REG &= (uint32)~TimerTestMode_PRESCALER_MASK;
 559:Generated_Source\PSoC4/TimerTestMode.c ****     TimerTestMode_CONTROL_REG |= ((uint32)((deadTime & TimerTestMode_8BIT_MASK) <<
 560:Generated_Source\PSoC4/TimerTestMode.c ****                                                           TimerTestMode_PRESCALER_SHIFT));
 561:Generated_Source\PSoC4/TimerTestMode.c **** 
 562:Generated_Source\PSoC4/TimerTestMode.c ****     CyExitCriticalSection(enableInterrupts);
 563:Generated_Source\PSoC4/TimerTestMode.c **** }
 564:Generated_Source\PSoC4/TimerTestMode.c **** 
 565:Generated_Source\PSoC4/TimerTestMode.c **** 
 566:Generated_Source\PSoC4/TimerTestMode.c **** /*******************************************************************************
 567:Generated_Source\PSoC4/TimerTestMode.c **** * Function Name: TimerTestMode_SetPWMInvert
 568:Generated_Source\PSoC4/TimerTestMode.c **** ********************************************************************************
 569:Generated_Source\PSoC4/TimerTestMode.c **** *
 570:Generated_Source\PSoC4/TimerTestMode.c **** * Summary:
 571:Generated_Source\PSoC4/TimerTestMode.c **** *  Writes the bits that control whether the line and line_n outputs are
 572:Generated_Source\PSoC4/TimerTestMode.c **** *  inverted from their normal output values.  This functionality is only
 573:Generated_Source\PSoC4/TimerTestMode.c **** *  applicable to the three PWM modes.
 574:Generated_Source\PSoC4/TimerTestMode.c **** *
 575:Generated_Source\PSoC4/TimerTestMode.c **** * Parameters:
 576:Generated_Source\PSoC4/TimerTestMode.c **** *  mask: Mask of outputs to invert.
 577:Generated_Source\PSoC4/TimerTestMode.c **** *   Values:
 578:Generated_Source\PSoC4/TimerTestMode.c **** *         - TimerTestMode_INVERT_LINE   - Inverts the line output
 579:Generated_Source\PSoC4/TimerTestMode.c **** *         - TimerTestMode_INVERT_LINE_N - Inverts the line_n output
ARM GAS  C:\Users\Petro\AppData\Local\Temp\ccebLrz4.s 			page 12


 580:Generated_Source\PSoC4/TimerTestMode.c **** *
 581:Generated_Source\PSoC4/TimerTestMode.c **** * Return:
 582:Generated_Source\PSoC4/TimerTestMode.c **** *  None
 583:Generated_Source\PSoC4/TimerTestMode.c **** *
 584:Generated_Source\PSoC4/TimerTestMode.c **** *******************************************************************************/
 585:Generated_Source\PSoC4/TimerTestMode.c **** void TimerTestMode_SetPWMInvert(uint32 mask)
 586:Generated_Source\PSoC4/TimerTestMode.c **** {
 587:Generated_Source\PSoC4/TimerTestMode.c ****     uint8 enableInterrupts;
 588:Generated_Source\PSoC4/TimerTestMode.c **** 
 589:Generated_Source\PSoC4/TimerTestMode.c ****     enableInterrupts = CyEnterCriticalSection();
 590:Generated_Source\PSoC4/TimerTestMode.c **** 
 591:Generated_Source\PSoC4/TimerTestMode.c ****     TimerTestMode_CONTROL_REG &= (uint32)~TimerTestMode_INV_OUT_MASK;
 592:Generated_Source\PSoC4/TimerTestMode.c ****     TimerTestMode_CONTROL_REG |= mask;
 593:Generated_Source\PSoC4/TimerTestMode.c **** 
 594:Generated_Source\PSoC4/TimerTestMode.c ****     CyExitCriticalSection(enableInterrupts);
 595:Generated_Source\PSoC4/TimerTestMode.c **** }
 596:Generated_Source\PSoC4/TimerTestMode.c **** 
 597:Generated_Source\PSoC4/TimerTestMode.c **** 
 598:Generated_Source\PSoC4/TimerTestMode.c **** 
 599:Generated_Source\PSoC4/TimerTestMode.c **** /*******************************************************************************
 600:Generated_Source\PSoC4/TimerTestMode.c **** * Function Name: TimerTestMode_WriteCounter
 601:Generated_Source\PSoC4/TimerTestMode.c **** ********************************************************************************
 602:Generated_Source\PSoC4/TimerTestMode.c **** *
 603:Generated_Source\PSoC4/TimerTestMode.c **** * Summary:
 604:Generated_Source\PSoC4/TimerTestMode.c **** *  Writes a new 16bit counter value directly into the counter register, thus
 605:Generated_Source\PSoC4/TimerTestMode.c **** *  setting the counter (not the period) to the value written. It is not
 606:Generated_Source\PSoC4/TimerTestMode.c **** *  advised to write to this field when the counter is running.
 607:Generated_Source\PSoC4/TimerTestMode.c **** *
 608:Generated_Source\PSoC4/TimerTestMode.c **** * Parameters:
 609:Generated_Source\PSoC4/TimerTestMode.c **** *  count: value to write
 610:Generated_Source\PSoC4/TimerTestMode.c **** *
 611:Generated_Source\PSoC4/TimerTestMode.c **** * Return:
 612:Generated_Source\PSoC4/TimerTestMode.c **** *  None
 613:Generated_Source\PSoC4/TimerTestMode.c **** *
 614:Generated_Source\PSoC4/TimerTestMode.c **** *******************************************************************************/
 615:Generated_Source\PSoC4/TimerTestMode.c **** void TimerTestMode_WriteCounter(uint32 count)
 616:Generated_Source\PSoC4/TimerTestMode.c **** {
 617:Generated_Source\PSoC4/TimerTestMode.c ****     TimerTestMode_COUNTER_REG = (count & TimerTestMode_16BIT_MASK);
 618:Generated_Source\PSoC4/TimerTestMode.c **** }
 619:Generated_Source\PSoC4/TimerTestMode.c **** 
 620:Generated_Source\PSoC4/TimerTestMode.c **** 
 621:Generated_Source\PSoC4/TimerTestMode.c **** /*******************************************************************************
 622:Generated_Source\PSoC4/TimerTestMode.c **** * Function Name: TimerTestMode_ReadCounter
 623:Generated_Source\PSoC4/TimerTestMode.c **** ********************************************************************************
 624:Generated_Source\PSoC4/TimerTestMode.c **** *
 625:Generated_Source\PSoC4/TimerTestMode.c **** * Summary:
 626:Generated_Source\PSoC4/TimerTestMode.c **** *  Reads the current counter value.
 627:Generated_Source\PSoC4/TimerTestMode.c **** *
 628:Generated_Source\PSoC4/TimerTestMode.c **** * Parameters:
 629:Generated_Source\PSoC4/TimerTestMode.c **** *  None
 630:Generated_Source\PSoC4/TimerTestMode.c **** *
 631:Generated_Source\PSoC4/TimerTestMode.c **** * Return:
 632:Generated_Source\PSoC4/TimerTestMode.c **** *  Current counter value
 633:Generated_Source\PSoC4/TimerTestMode.c **** *
 634:Generated_Source\PSoC4/TimerTestMode.c **** *******************************************************************************/
 635:Generated_Source\PSoC4/TimerTestMode.c **** uint32 TimerTestMode_ReadCounter(void)
 636:Generated_Source\PSoC4/TimerTestMode.c **** {
ARM GAS  C:\Users\Petro\AppData\Local\Temp\ccebLrz4.s 			page 13


 637:Generated_Source\PSoC4/TimerTestMode.c ****     return (TimerTestMode_COUNTER_REG & TimerTestMode_16BIT_MASK);
 638:Generated_Source\PSoC4/TimerTestMode.c **** }
 639:Generated_Source\PSoC4/TimerTestMode.c **** 
 640:Generated_Source\PSoC4/TimerTestMode.c **** 
 641:Generated_Source\PSoC4/TimerTestMode.c **** /*******************************************************************************
 642:Generated_Source\PSoC4/TimerTestMode.c **** * Function Name: TimerTestMode_SetCounterMode
 643:Generated_Source\PSoC4/TimerTestMode.c **** ********************************************************************************
 644:Generated_Source\PSoC4/TimerTestMode.c **** *
 645:Generated_Source\PSoC4/TimerTestMode.c **** * Summary:
 646:Generated_Source\PSoC4/TimerTestMode.c **** *  Sets the counter mode.  Applicable to all modes except Quadrature Decoder
 647:Generated_Source\PSoC4/TimerTestMode.c **** *  and the PWM with a pseudo random output.
 648:Generated_Source\PSoC4/TimerTestMode.c **** *
 649:Generated_Source\PSoC4/TimerTestMode.c **** * Parameters:
 650:Generated_Source\PSoC4/TimerTestMode.c **** *  counterMode: Enumerated counter type values
 651:Generated_Source\PSoC4/TimerTestMode.c **** *   Values:
 652:Generated_Source\PSoC4/TimerTestMode.c **** *     - TimerTestMode_COUNT_UP       - Counts up
 653:Generated_Source\PSoC4/TimerTestMode.c **** *     - TimerTestMode_COUNT_DOWN     - Counts down
 654:Generated_Source\PSoC4/TimerTestMode.c **** *     - TimerTestMode_COUNT_UPDOWN0  - Counts up and down. Terminal count
 655:Generated_Source\PSoC4/TimerTestMode.c **** *                                         generated when counter reaches 0
 656:Generated_Source\PSoC4/TimerTestMode.c **** *     - TimerTestMode_COUNT_UPDOWN1  - Counts up and down. Terminal count
 657:Generated_Source\PSoC4/TimerTestMode.c **** *                                         generated both when counter reaches 0
 658:Generated_Source\PSoC4/TimerTestMode.c **** *                                         and period
 659:Generated_Source\PSoC4/TimerTestMode.c **** *
 660:Generated_Source\PSoC4/TimerTestMode.c **** * Return:
 661:Generated_Source\PSoC4/TimerTestMode.c **** *  None
 662:Generated_Source\PSoC4/TimerTestMode.c **** *
 663:Generated_Source\PSoC4/TimerTestMode.c **** *******************************************************************************/
 664:Generated_Source\PSoC4/TimerTestMode.c **** void TimerTestMode_SetCounterMode(uint32 counterMode)
 665:Generated_Source\PSoC4/TimerTestMode.c **** {
 666:Generated_Source\PSoC4/TimerTestMode.c ****     uint8 enableInterrupts;
 667:Generated_Source\PSoC4/TimerTestMode.c **** 
 668:Generated_Source\PSoC4/TimerTestMode.c ****     enableInterrupts = CyEnterCriticalSection();
 669:Generated_Source\PSoC4/TimerTestMode.c **** 
 670:Generated_Source\PSoC4/TimerTestMode.c ****     TimerTestMode_CONTROL_REG &= (uint32)~TimerTestMode_UPDOWN_MASK;
 671:Generated_Source\PSoC4/TimerTestMode.c ****     TimerTestMode_CONTROL_REG |= counterMode;
 672:Generated_Source\PSoC4/TimerTestMode.c **** 
 673:Generated_Source\PSoC4/TimerTestMode.c ****     CyExitCriticalSection(enableInterrupts);
 674:Generated_Source\PSoC4/TimerTestMode.c **** }
 675:Generated_Source\PSoC4/TimerTestMode.c **** 
 676:Generated_Source\PSoC4/TimerTestMode.c **** 
 677:Generated_Source\PSoC4/TimerTestMode.c **** /*******************************************************************************
 678:Generated_Source\PSoC4/TimerTestMode.c **** * Function Name: TimerTestMode_WritePeriod
 679:Generated_Source\PSoC4/TimerTestMode.c **** ********************************************************************************
 680:Generated_Source\PSoC4/TimerTestMode.c **** *
 681:Generated_Source\PSoC4/TimerTestMode.c **** * Summary:
 682:Generated_Source\PSoC4/TimerTestMode.c **** *  Writes the 16 bit period register with the new period value.
 683:Generated_Source\PSoC4/TimerTestMode.c **** *  To cause the counter to count for N cycles this register should be written
 684:Generated_Source\PSoC4/TimerTestMode.c **** *  with N-1 (counts from 0 to period inclusive).
 685:Generated_Source\PSoC4/TimerTestMode.c **** *
 686:Generated_Source\PSoC4/TimerTestMode.c **** * Parameters:
 687:Generated_Source\PSoC4/TimerTestMode.c **** *  period: Period value
 688:Generated_Source\PSoC4/TimerTestMode.c **** *
 689:Generated_Source\PSoC4/TimerTestMode.c **** * Return:
 690:Generated_Source\PSoC4/TimerTestMode.c **** *  None
 691:Generated_Source\PSoC4/TimerTestMode.c **** *
 692:Generated_Source\PSoC4/TimerTestMode.c **** *******************************************************************************/
 693:Generated_Source\PSoC4/TimerTestMode.c **** void TimerTestMode_WritePeriod(uint32 period)
ARM GAS  C:\Users\Petro\AppData\Local\Temp\ccebLrz4.s 			page 14


 694:Generated_Source\PSoC4/TimerTestMode.c **** {
 695:Generated_Source\PSoC4/TimerTestMode.c ****     TimerTestMode_PERIOD_REG = (period & TimerTestMode_16BIT_MASK);
 696:Generated_Source\PSoC4/TimerTestMode.c **** }
 697:Generated_Source\PSoC4/TimerTestMode.c **** 
 698:Generated_Source\PSoC4/TimerTestMode.c **** 
 699:Generated_Source\PSoC4/TimerTestMode.c **** /*******************************************************************************
 700:Generated_Source\PSoC4/TimerTestMode.c **** * Function Name: TimerTestMode_ReadPeriod
 701:Generated_Source\PSoC4/TimerTestMode.c **** ********************************************************************************
 702:Generated_Source\PSoC4/TimerTestMode.c **** *
 703:Generated_Source\PSoC4/TimerTestMode.c **** * Summary:
 704:Generated_Source\PSoC4/TimerTestMode.c **** *  Reads the 16 bit period register.
 705:Generated_Source\PSoC4/TimerTestMode.c **** *
 706:Generated_Source\PSoC4/TimerTestMode.c **** * Parameters:
 707:Generated_Source\PSoC4/TimerTestMode.c **** *  None
 708:Generated_Source\PSoC4/TimerTestMode.c **** *
 709:Generated_Source\PSoC4/TimerTestMode.c **** * Return:
 710:Generated_Source\PSoC4/TimerTestMode.c **** *  Period value
 711:Generated_Source\PSoC4/TimerTestMode.c **** *
 712:Generated_Source\PSoC4/TimerTestMode.c **** *******************************************************************************/
 713:Generated_Source\PSoC4/TimerTestMode.c **** uint32 TimerTestMode_ReadPeriod(void)
 714:Generated_Source\PSoC4/TimerTestMode.c **** {
 715:Generated_Source\PSoC4/TimerTestMode.c ****     return (TimerTestMode_PERIOD_REG & TimerTestMode_16BIT_MASK);
 716:Generated_Source\PSoC4/TimerTestMode.c **** }
 717:Generated_Source\PSoC4/TimerTestMode.c **** 
 718:Generated_Source\PSoC4/TimerTestMode.c **** 
 719:Generated_Source\PSoC4/TimerTestMode.c **** /*******************************************************************************
 720:Generated_Source\PSoC4/TimerTestMode.c **** * Function Name: TimerTestMode_SetCompareSwap
 721:Generated_Source\PSoC4/TimerTestMode.c **** ********************************************************************************
 722:Generated_Source\PSoC4/TimerTestMode.c **** *
 723:Generated_Source\PSoC4/TimerTestMode.c **** * Summary:
 724:Generated_Source\PSoC4/TimerTestMode.c **** *  Writes the register that controls whether the compare registers are
 725:Generated_Source\PSoC4/TimerTestMode.c **** *  swapped. When enabled in the Timer/Counter mode(without capture) the swap
 726:Generated_Source\PSoC4/TimerTestMode.c **** *  occurs at a TC event. In the PWM mode the swap occurs at the next TC event
 727:Generated_Source\PSoC4/TimerTestMode.c **** *  following a hardware switch event.
 728:Generated_Source\PSoC4/TimerTestMode.c **** *
 729:Generated_Source\PSoC4/TimerTestMode.c **** * Parameters:
 730:Generated_Source\PSoC4/TimerTestMode.c **** *  swapEnable
 731:Generated_Source\PSoC4/TimerTestMode.c **** *   Values:
 732:Generated_Source\PSoC4/TimerTestMode.c **** *     - 0 - Disable swap
 733:Generated_Source\PSoC4/TimerTestMode.c **** *     - 1 - Enable swap
 734:Generated_Source\PSoC4/TimerTestMode.c **** *
 735:Generated_Source\PSoC4/TimerTestMode.c **** * Return:
 736:Generated_Source\PSoC4/TimerTestMode.c **** *  None
 737:Generated_Source\PSoC4/TimerTestMode.c **** *
 738:Generated_Source\PSoC4/TimerTestMode.c **** *******************************************************************************/
 739:Generated_Source\PSoC4/TimerTestMode.c **** void TimerTestMode_SetCompareSwap(uint32 swapEnable)
 740:Generated_Source\PSoC4/TimerTestMode.c **** {
 741:Generated_Source\PSoC4/TimerTestMode.c ****     uint8 enableInterrupts;
 742:Generated_Source\PSoC4/TimerTestMode.c **** 
 743:Generated_Source\PSoC4/TimerTestMode.c ****     enableInterrupts = CyEnterCriticalSection();
 744:Generated_Source\PSoC4/TimerTestMode.c **** 
 745:Generated_Source\PSoC4/TimerTestMode.c ****     TimerTestMode_CONTROL_REG &= (uint32)~TimerTestMode_RELOAD_CC_MASK;
 746:Generated_Source\PSoC4/TimerTestMode.c ****     TimerTestMode_CONTROL_REG |= (swapEnable & TimerTestMode_1BIT_MASK);
 747:Generated_Source\PSoC4/TimerTestMode.c **** 
 748:Generated_Source\PSoC4/TimerTestMode.c ****     CyExitCriticalSection(enableInterrupts);
 749:Generated_Source\PSoC4/TimerTestMode.c **** }
 750:Generated_Source\PSoC4/TimerTestMode.c **** 
ARM GAS  C:\Users\Petro\AppData\Local\Temp\ccebLrz4.s 			page 15


 751:Generated_Source\PSoC4/TimerTestMode.c **** 
 752:Generated_Source\PSoC4/TimerTestMode.c **** /*******************************************************************************
 753:Generated_Source\PSoC4/TimerTestMode.c **** * Function Name: TimerTestMode_WritePeriodBuf
 754:Generated_Source\PSoC4/TimerTestMode.c **** ********************************************************************************
 755:Generated_Source\PSoC4/TimerTestMode.c **** *
 756:Generated_Source\PSoC4/TimerTestMode.c **** * Summary:
 757:Generated_Source\PSoC4/TimerTestMode.c **** *  Writes the 16 bit period buf register with the new period value.
 758:Generated_Source\PSoC4/TimerTestMode.c **** *
 759:Generated_Source\PSoC4/TimerTestMode.c **** * Parameters:
 760:Generated_Source\PSoC4/TimerTestMode.c **** *  periodBuf: Period value
 761:Generated_Source\PSoC4/TimerTestMode.c **** *
 762:Generated_Source\PSoC4/TimerTestMode.c **** * Return:
 763:Generated_Source\PSoC4/TimerTestMode.c **** *  None
 764:Generated_Source\PSoC4/TimerTestMode.c **** *
 765:Generated_Source\PSoC4/TimerTestMode.c **** *******************************************************************************/
 766:Generated_Source\PSoC4/TimerTestMode.c **** void TimerTestMode_WritePeriodBuf(uint32 periodBuf)
 767:Generated_Source\PSoC4/TimerTestMode.c **** {
 768:Generated_Source\PSoC4/TimerTestMode.c ****     TimerTestMode_PERIOD_BUF_REG = (periodBuf & TimerTestMode_16BIT_MASK);
 769:Generated_Source\PSoC4/TimerTestMode.c **** }
 770:Generated_Source\PSoC4/TimerTestMode.c **** 
 771:Generated_Source\PSoC4/TimerTestMode.c **** 
 772:Generated_Source\PSoC4/TimerTestMode.c **** /*******************************************************************************
 773:Generated_Source\PSoC4/TimerTestMode.c **** * Function Name: TimerTestMode_ReadPeriodBuf
 774:Generated_Source\PSoC4/TimerTestMode.c **** ********************************************************************************
 775:Generated_Source\PSoC4/TimerTestMode.c **** *
 776:Generated_Source\PSoC4/TimerTestMode.c **** * Summary:
 777:Generated_Source\PSoC4/TimerTestMode.c **** *  Reads the 16 bit period buf register.
 778:Generated_Source\PSoC4/TimerTestMode.c **** *
 779:Generated_Source\PSoC4/TimerTestMode.c **** * Parameters:
 780:Generated_Source\PSoC4/TimerTestMode.c **** *  None
 781:Generated_Source\PSoC4/TimerTestMode.c **** *
 782:Generated_Source\PSoC4/TimerTestMode.c **** * Return:
 783:Generated_Source\PSoC4/TimerTestMode.c **** *  Period value
 784:Generated_Source\PSoC4/TimerTestMode.c **** *
 785:Generated_Source\PSoC4/TimerTestMode.c **** *******************************************************************************/
 786:Generated_Source\PSoC4/TimerTestMode.c **** uint32 TimerTestMode_ReadPeriodBuf(void)
 787:Generated_Source\PSoC4/TimerTestMode.c **** {
 788:Generated_Source\PSoC4/TimerTestMode.c ****     return (TimerTestMode_PERIOD_BUF_REG & TimerTestMode_16BIT_MASK);
 789:Generated_Source\PSoC4/TimerTestMode.c **** }
 790:Generated_Source\PSoC4/TimerTestMode.c **** 
 791:Generated_Source\PSoC4/TimerTestMode.c **** 
 792:Generated_Source\PSoC4/TimerTestMode.c **** /*******************************************************************************
 793:Generated_Source\PSoC4/TimerTestMode.c **** * Function Name: TimerTestMode_SetPeriodSwap
 794:Generated_Source\PSoC4/TimerTestMode.c **** ********************************************************************************
 795:Generated_Source\PSoC4/TimerTestMode.c **** *
 796:Generated_Source\PSoC4/TimerTestMode.c **** * Summary:
 797:Generated_Source\PSoC4/TimerTestMode.c **** *  Writes the register that controls whether the period registers are
 798:Generated_Source\PSoC4/TimerTestMode.c **** *  swapped. When enabled in Timer/Counter mode the swap occurs at a TC event.
 799:Generated_Source\PSoC4/TimerTestMode.c **** *  In the PWM mode the swap occurs at the next TC event following a hardware
 800:Generated_Source\PSoC4/TimerTestMode.c **** *  switch event.
 801:Generated_Source\PSoC4/TimerTestMode.c **** *
 802:Generated_Source\PSoC4/TimerTestMode.c **** * Parameters:
 803:Generated_Source\PSoC4/TimerTestMode.c **** *  swapEnable
 804:Generated_Source\PSoC4/TimerTestMode.c **** *   Values:
 805:Generated_Source\PSoC4/TimerTestMode.c **** *     - 0 - Disable swap
 806:Generated_Source\PSoC4/TimerTestMode.c **** *     - 1 - Enable swap
 807:Generated_Source\PSoC4/TimerTestMode.c **** *
ARM GAS  C:\Users\Petro\AppData\Local\Temp\ccebLrz4.s 			page 16


 808:Generated_Source\PSoC4/TimerTestMode.c **** * Return:
 809:Generated_Source\PSoC4/TimerTestMode.c **** *  None
 810:Generated_Source\PSoC4/TimerTestMode.c **** *
 811:Generated_Source\PSoC4/TimerTestMode.c **** *******************************************************************************/
 812:Generated_Source\PSoC4/TimerTestMode.c **** void TimerTestMode_SetPeriodSwap(uint32 swapEnable)
 813:Generated_Source\PSoC4/TimerTestMode.c **** {
 814:Generated_Source\PSoC4/TimerTestMode.c ****     uint8 enableInterrupts;
 815:Generated_Source\PSoC4/TimerTestMode.c **** 
 816:Generated_Source\PSoC4/TimerTestMode.c ****     enableInterrupts = CyEnterCriticalSection();
 817:Generated_Source\PSoC4/TimerTestMode.c **** 
 818:Generated_Source\PSoC4/TimerTestMode.c ****     TimerTestMode_CONTROL_REG &= (uint32)~TimerTestMode_RELOAD_PERIOD_MASK;
 819:Generated_Source\PSoC4/TimerTestMode.c ****     TimerTestMode_CONTROL_REG |= ((uint32)((swapEnable & TimerTestMode_1BIT_MASK) <<
 820:Generated_Source\PSoC4/TimerTestMode.c ****                                                             TimerTestMode_RELOAD_PERIOD_SHIFT));
 821:Generated_Source\PSoC4/TimerTestMode.c **** 
 822:Generated_Source\PSoC4/TimerTestMode.c ****     CyExitCriticalSection(enableInterrupts);
 823:Generated_Source\PSoC4/TimerTestMode.c **** }
 824:Generated_Source\PSoC4/TimerTestMode.c **** 
 825:Generated_Source\PSoC4/TimerTestMode.c **** 
 826:Generated_Source\PSoC4/TimerTestMode.c **** /*******************************************************************************
 827:Generated_Source\PSoC4/TimerTestMode.c **** * Function Name: TimerTestMode_WriteCompare
 828:Generated_Source\PSoC4/TimerTestMode.c **** ********************************************************************************
 829:Generated_Source\PSoC4/TimerTestMode.c **** *
 830:Generated_Source\PSoC4/TimerTestMode.c **** * Summary:
 831:Generated_Source\PSoC4/TimerTestMode.c **** *  Writes the 16 bit compare register with the new compare value. Not
 832:Generated_Source\PSoC4/TimerTestMode.c **** *  applicable for Timer/Counter with Capture or in Quadrature Decoder modes.
 833:Generated_Source\PSoC4/TimerTestMode.c **** *
 834:Generated_Source\PSoC4/TimerTestMode.c **** * Parameters:
 835:Generated_Source\PSoC4/TimerTestMode.c **** *  compare: Compare value
 836:Generated_Source\PSoC4/TimerTestMode.c **** *
 837:Generated_Source\PSoC4/TimerTestMode.c **** * Return:
 838:Generated_Source\PSoC4/TimerTestMode.c **** *  None
 839:Generated_Source\PSoC4/TimerTestMode.c **** *
 840:Generated_Source\PSoC4/TimerTestMode.c **** * Note:
 841:Generated_Source\PSoC4/TimerTestMode.c **** *  It is not recommended to use the value equal to "0" or equal to 
 842:Generated_Source\PSoC4/TimerTestMode.c **** *  "period value" in Center or Asymmetric align PWM modes on the 
 843:Generated_Source\PSoC4/TimerTestMode.c **** *  PSoC 4100/PSoC 4200 devices.
 844:Generated_Source\PSoC4/TimerTestMode.c **** *  PSoC 4000 devices write the 16 bit compare register with the decremented 
 845:Generated_Source\PSoC4/TimerTestMode.c **** *  compare value in the Up counting mode (except 0x0u), and the incremented 
 846:Generated_Source\PSoC4/TimerTestMode.c **** *  compare value in the Down counting mode (except 0xFFFFu).
 847:Generated_Source\PSoC4/TimerTestMode.c **** *
 848:Generated_Source\PSoC4/TimerTestMode.c **** *******************************************************************************/
 849:Generated_Source\PSoC4/TimerTestMode.c **** void TimerTestMode_WriteCompare(uint32 compare)
 850:Generated_Source\PSoC4/TimerTestMode.c **** {
 851:Generated_Source\PSoC4/TimerTestMode.c ****     #if (TimerTestMode_CY_TCPWM_4000)
 852:Generated_Source\PSoC4/TimerTestMode.c ****         uint32 currentMode;
 853:Generated_Source\PSoC4/TimerTestMode.c ****     #endif /* (TimerTestMode_CY_TCPWM_4000) */
 854:Generated_Source\PSoC4/TimerTestMode.c **** 
 855:Generated_Source\PSoC4/TimerTestMode.c ****     #if (TimerTestMode_CY_TCPWM_4000)
 856:Generated_Source\PSoC4/TimerTestMode.c ****         currentMode = ((TimerTestMode_CONTROL_REG & TimerTestMode_UPDOWN_MASK) >> TimerTestMode_UPD
 857:Generated_Source\PSoC4/TimerTestMode.c **** 
 858:Generated_Source\PSoC4/TimerTestMode.c ****         if (((uint32)TimerTestMode__COUNT_DOWN == currentMode) && (0xFFFFu != compare))
 859:Generated_Source\PSoC4/TimerTestMode.c ****         {
 860:Generated_Source\PSoC4/TimerTestMode.c ****             compare++;
 861:Generated_Source\PSoC4/TimerTestMode.c ****         }
 862:Generated_Source\PSoC4/TimerTestMode.c ****         else if (((uint32)TimerTestMode__COUNT_UP == currentMode) && (0u != compare))
 863:Generated_Source\PSoC4/TimerTestMode.c ****         {
 864:Generated_Source\PSoC4/TimerTestMode.c ****             compare--;
ARM GAS  C:\Users\Petro\AppData\Local\Temp\ccebLrz4.s 			page 17


 865:Generated_Source\PSoC4/TimerTestMode.c ****         }
 866:Generated_Source\PSoC4/TimerTestMode.c ****         else
 867:Generated_Source\PSoC4/TimerTestMode.c ****         {
 868:Generated_Source\PSoC4/TimerTestMode.c ****         }
 869:Generated_Source\PSoC4/TimerTestMode.c ****         
 870:Generated_Source\PSoC4/TimerTestMode.c ****     
 871:Generated_Source\PSoC4/TimerTestMode.c ****     #endif /* (TimerTestMode_CY_TCPWM_4000) */
 872:Generated_Source\PSoC4/TimerTestMode.c ****     
 873:Generated_Source\PSoC4/TimerTestMode.c ****     TimerTestMode_COMP_CAP_REG = (compare & TimerTestMode_16BIT_MASK);
 874:Generated_Source\PSoC4/TimerTestMode.c **** }
 875:Generated_Source\PSoC4/TimerTestMode.c **** 
 876:Generated_Source\PSoC4/TimerTestMode.c **** 
 877:Generated_Source\PSoC4/TimerTestMode.c **** /*******************************************************************************
 878:Generated_Source\PSoC4/TimerTestMode.c **** * Function Name: TimerTestMode_ReadCompare
 879:Generated_Source\PSoC4/TimerTestMode.c **** ********************************************************************************
 880:Generated_Source\PSoC4/TimerTestMode.c **** *
 881:Generated_Source\PSoC4/TimerTestMode.c **** * Summary:
 882:Generated_Source\PSoC4/TimerTestMode.c **** *  Reads the compare register. Not applicable for Timer/Counter with Capture
 883:Generated_Source\PSoC4/TimerTestMode.c **** *  or in Quadrature Decoder modes.
 884:Generated_Source\PSoC4/TimerTestMode.c **** *  PSoC 4000 devices read the incremented compare register value in the 
 885:Generated_Source\PSoC4/TimerTestMode.c **** *  Up counting mode (except 0xFFFFu), and the decremented value in the 
 886:Generated_Source\PSoC4/TimerTestMode.c **** *  Down counting mode (except 0x0u).
 887:Generated_Source\PSoC4/TimerTestMode.c **** *
 888:Generated_Source\PSoC4/TimerTestMode.c **** * Parameters:
 889:Generated_Source\PSoC4/TimerTestMode.c **** *  None
 890:Generated_Source\PSoC4/TimerTestMode.c **** *
 891:Generated_Source\PSoC4/TimerTestMode.c **** * Return:
 892:Generated_Source\PSoC4/TimerTestMode.c **** *  Compare value
 893:Generated_Source\PSoC4/TimerTestMode.c **** *
 894:Generated_Source\PSoC4/TimerTestMode.c **** * Note:
 895:Generated_Source\PSoC4/TimerTestMode.c **** *  PSoC 4000 devices read the incremented compare register value in the 
 896:Generated_Source\PSoC4/TimerTestMode.c **** *  Up counting mode (except 0xFFFFu), and the decremented value in the 
 897:Generated_Source\PSoC4/TimerTestMode.c **** *  Down counting mode (except 0x0u).
 898:Generated_Source\PSoC4/TimerTestMode.c **** *
 899:Generated_Source\PSoC4/TimerTestMode.c **** *******************************************************************************/
 900:Generated_Source\PSoC4/TimerTestMode.c **** uint32 TimerTestMode_ReadCompare(void)
 901:Generated_Source\PSoC4/TimerTestMode.c **** {
 902:Generated_Source\PSoC4/TimerTestMode.c ****     #if (TimerTestMode_CY_TCPWM_4000)
 903:Generated_Source\PSoC4/TimerTestMode.c ****         uint32 currentMode;
 904:Generated_Source\PSoC4/TimerTestMode.c ****         uint32 regVal;
 905:Generated_Source\PSoC4/TimerTestMode.c ****     #endif /* (TimerTestMode_CY_TCPWM_4000) */
 906:Generated_Source\PSoC4/TimerTestMode.c **** 
 907:Generated_Source\PSoC4/TimerTestMode.c ****     #if (TimerTestMode_CY_TCPWM_4000)
 908:Generated_Source\PSoC4/TimerTestMode.c ****         currentMode = ((TimerTestMode_CONTROL_REG & TimerTestMode_UPDOWN_MASK) >> TimerTestMode_UPD
 909:Generated_Source\PSoC4/TimerTestMode.c ****         
 910:Generated_Source\PSoC4/TimerTestMode.c ****         regVal = TimerTestMode_COMP_CAP_REG;
 911:Generated_Source\PSoC4/TimerTestMode.c ****         
 912:Generated_Source\PSoC4/TimerTestMode.c ****         if (((uint32)TimerTestMode__COUNT_DOWN == currentMode) && (0u != regVal))
 913:Generated_Source\PSoC4/TimerTestMode.c ****         {
 914:Generated_Source\PSoC4/TimerTestMode.c ****             regVal--;
 915:Generated_Source\PSoC4/TimerTestMode.c ****         }
 916:Generated_Source\PSoC4/TimerTestMode.c ****         else if (((uint32)TimerTestMode__COUNT_UP == currentMode) && (0xFFFFu != regVal))
 917:Generated_Source\PSoC4/TimerTestMode.c ****         {
 918:Generated_Source\PSoC4/TimerTestMode.c ****             regVal++;
 919:Generated_Source\PSoC4/TimerTestMode.c ****         }
 920:Generated_Source\PSoC4/TimerTestMode.c ****         else
 921:Generated_Source\PSoC4/TimerTestMode.c ****         {
ARM GAS  C:\Users\Petro\AppData\Local\Temp\ccebLrz4.s 			page 18


 922:Generated_Source\PSoC4/TimerTestMode.c ****         }
 923:Generated_Source\PSoC4/TimerTestMode.c **** 
 924:Generated_Source\PSoC4/TimerTestMode.c ****         return (regVal & TimerTestMode_16BIT_MASK);
 925:Generated_Source\PSoC4/TimerTestMode.c ****     #else
 926:Generated_Source\PSoC4/TimerTestMode.c ****         return (TimerTestMode_COMP_CAP_REG & TimerTestMode_16BIT_MASK);
 927:Generated_Source\PSoC4/TimerTestMode.c ****     #endif /* (TimerTestMode_CY_TCPWM_4000) */
 928:Generated_Source\PSoC4/TimerTestMode.c **** }
 929:Generated_Source\PSoC4/TimerTestMode.c **** 
 930:Generated_Source\PSoC4/TimerTestMode.c **** 
 931:Generated_Source\PSoC4/TimerTestMode.c **** /*******************************************************************************
 932:Generated_Source\PSoC4/TimerTestMode.c **** * Function Name: TimerTestMode_WriteCompareBuf
 933:Generated_Source\PSoC4/TimerTestMode.c **** ********************************************************************************
 934:Generated_Source\PSoC4/TimerTestMode.c **** *
 935:Generated_Source\PSoC4/TimerTestMode.c **** * Summary:
 936:Generated_Source\PSoC4/TimerTestMode.c **** *  Writes the 16 bit compare buffer register with the new compare value. Not
 937:Generated_Source\PSoC4/TimerTestMode.c **** *  applicable for Timer/Counter with Capture or in Quadrature Decoder modes.
 938:Generated_Source\PSoC4/TimerTestMode.c **** *
 939:Generated_Source\PSoC4/TimerTestMode.c **** * Parameters:
 940:Generated_Source\PSoC4/TimerTestMode.c **** *  compareBuf: Compare value
 941:Generated_Source\PSoC4/TimerTestMode.c **** *
 942:Generated_Source\PSoC4/TimerTestMode.c **** * Return:
 943:Generated_Source\PSoC4/TimerTestMode.c **** *  None
 944:Generated_Source\PSoC4/TimerTestMode.c **** *
 945:Generated_Source\PSoC4/TimerTestMode.c **** * Note:
 946:Generated_Source\PSoC4/TimerTestMode.c **** *  It is not recommended to use the value equal to "0" or equal to 
 947:Generated_Source\PSoC4/TimerTestMode.c **** *  "period value" in Center or Asymmetric align PWM modes on the 
 948:Generated_Source\PSoC4/TimerTestMode.c **** *  PSoC 4100/PSoC 4200 devices.
 949:Generated_Source\PSoC4/TimerTestMode.c **** *  PSoC 4000 devices write the 16 bit compare register with the decremented 
 950:Generated_Source\PSoC4/TimerTestMode.c **** *  compare value in the Up counting mode (except 0x0u), and the incremented 
 951:Generated_Source\PSoC4/TimerTestMode.c **** *  compare value in the Down counting mode (except 0xFFFFu).
 952:Generated_Source\PSoC4/TimerTestMode.c **** *
 953:Generated_Source\PSoC4/TimerTestMode.c **** *******************************************************************************/
 954:Generated_Source\PSoC4/TimerTestMode.c **** void TimerTestMode_WriteCompareBuf(uint32 compareBuf)
 955:Generated_Source\PSoC4/TimerTestMode.c **** {
 956:Generated_Source\PSoC4/TimerTestMode.c ****     #if (TimerTestMode_CY_TCPWM_4000)
 957:Generated_Source\PSoC4/TimerTestMode.c ****         uint32 currentMode;
 958:Generated_Source\PSoC4/TimerTestMode.c ****     #endif /* (TimerTestMode_CY_TCPWM_4000) */
 959:Generated_Source\PSoC4/TimerTestMode.c **** 
 960:Generated_Source\PSoC4/TimerTestMode.c ****     #if (TimerTestMode_CY_TCPWM_4000)
 961:Generated_Source\PSoC4/TimerTestMode.c ****         currentMode = ((TimerTestMode_CONTROL_REG & TimerTestMode_UPDOWN_MASK) >> TimerTestMode_UPD
 962:Generated_Source\PSoC4/TimerTestMode.c **** 
 963:Generated_Source\PSoC4/TimerTestMode.c ****         if (((uint32)TimerTestMode__COUNT_DOWN == currentMode) && (0xFFFFu != compareBuf))
 964:Generated_Source\PSoC4/TimerTestMode.c ****         {
 965:Generated_Source\PSoC4/TimerTestMode.c ****             compareBuf++;
 966:Generated_Source\PSoC4/TimerTestMode.c ****         }
 967:Generated_Source\PSoC4/TimerTestMode.c ****         else if (((uint32)TimerTestMode__COUNT_UP == currentMode) && (0u != compareBuf))
 968:Generated_Source\PSoC4/TimerTestMode.c ****         {
 969:Generated_Source\PSoC4/TimerTestMode.c ****             compareBuf --;
 970:Generated_Source\PSoC4/TimerTestMode.c ****         }
 971:Generated_Source\PSoC4/TimerTestMode.c ****         else
 972:Generated_Source\PSoC4/TimerTestMode.c ****         {
 973:Generated_Source\PSoC4/TimerTestMode.c ****         }
 974:Generated_Source\PSoC4/TimerTestMode.c ****     #endif /* (TimerTestMode_CY_TCPWM_4000) */
 975:Generated_Source\PSoC4/TimerTestMode.c ****     
 976:Generated_Source\PSoC4/TimerTestMode.c ****     TimerTestMode_COMP_CAP_BUF_REG = (compareBuf & TimerTestMode_16BIT_MASK);
 977:Generated_Source\PSoC4/TimerTestMode.c **** }
 978:Generated_Source\PSoC4/TimerTestMode.c **** 
ARM GAS  C:\Users\Petro\AppData\Local\Temp\ccebLrz4.s 			page 19


 979:Generated_Source\PSoC4/TimerTestMode.c **** 
 980:Generated_Source\PSoC4/TimerTestMode.c **** /*******************************************************************************
 981:Generated_Source\PSoC4/TimerTestMode.c **** * Function Name: TimerTestMode_ReadCompareBuf
 982:Generated_Source\PSoC4/TimerTestMode.c **** ********************************************************************************
 983:Generated_Source\PSoC4/TimerTestMode.c **** *
 984:Generated_Source\PSoC4/TimerTestMode.c **** * Summary:
 985:Generated_Source\PSoC4/TimerTestMode.c **** *  Reads the compare buffer register. Not applicable for Timer/Counter with
 986:Generated_Source\PSoC4/TimerTestMode.c **** *  Capture or in Quadrature Decoder modes.
 987:Generated_Source\PSoC4/TimerTestMode.c **** *
 988:Generated_Source\PSoC4/TimerTestMode.c **** * Parameters:
 989:Generated_Source\PSoC4/TimerTestMode.c **** *  None
 990:Generated_Source\PSoC4/TimerTestMode.c **** *
 991:Generated_Source\PSoC4/TimerTestMode.c **** * Return:
 992:Generated_Source\PSoC4/TimerTestMode.c **** *  Compare buffer value
 993:Generated_Source\PSoC4/TimerTestMode.c **** *
 994:Generated_Source\PSoC4/TimerTestMode.c **** * Note:
 995:Generated_Source\PSoC4/TimerTestMode.c **** *  PSoC 4000 devices read the incremented compare register value in the 
 996:Generated_Source\PSoC4/TimerTestMode.c **** *  Up counting mode (except 0xFFFFu), and the decremented value in the 
 997:Generated_Source\PSoC4/TimerTestMode.c **** *  Down counting mode (except 0x0u).
 998:Generated_Source\PSoC4/TimerTestMode.c **** *
 999:Generated_Source\PSoC4/TimerTestMode.c **** *******************************************************************************/
1000:Generated_Source\PSoC4/TimerTestMode.c **** uint32 TimerTestMode_ReadCompareBuf(void)
1001:Generated_Source\PSoC4/TimerTestMode.c **** {
1002:Generated_Source\PSoC4/TimerTestMode.c ****     #if (TimerTestMode_CY_TCPWM_4000)
1003:Generated_Source\PSoC4/TimerTestMode.c ****         uint32 currentMode;
1004:Generated_Source\PSoC4/TimerTestMode.c ****         uint32 regVal;
1005:Generated_Source\PSoC4/TimerTestMode.c ****     #endif /* (TimerTestMode_CY_TCPWM_4000) */
1006:Generated_Source\PSoC4/TimerTestMode.c **** 
1007:Generated_Source\PSoC4/TimerTestMode.c ****     #if (TimerTestMode_CY_TCPWM_4000)
1008:Generated_Source\PSoC4/TimerTestMode.c ****         currentMode = ((TimerTestMode_CONTROL_REG & TimerTestMode_UPDOWN_MASK) >> TimerTestMode_UPD
1009:Generated_Source\PSoC4/TimerTestMode.c **** 
1010:Generated_Source\PSoC4/TimerTestMode.c ****         regVal = TimerTestMode_COMP_CAP_BUF_REG;
1011:Generated_Source\PSoC4/TimerTestMode.c ****         
1012:Generated_Source\PSoC4/TimerTestMode.c ****         if (((uint32)TimerTestMode__COUNT_DOWN == currentMode) && (0u != regVal))
1013:Generated_Source\PSoC4/TimerTestMode.c ****         {
1014:Generated_Source\PSoC4/TimerTestMode.c ****             regVal--;
1015:Generated_Source\PSoC4/TimerTestMode.c ****         }
1016:Generated_Source\PSoC4/TimerTestMode.c ****         else if (((uint32)TimerTestMode__COUNT_UP == currentMode) && (0xFFFFu != regVal))
1017:Generated_Source\PSoC4/TimerTestMode.c ****         {
1018:Generated_Source\PSoC4/TimerTestMode.c ****             regVal++;
1019:Generated_Source\PSoC4/TimerTestMode.c ****         }
1020:Generated_Source\PSoC4/TimerTestMode.c ****         else
1021:Generated_Source\PSoC4/TimerTestMode.c ****         {
1022:Generated_Source\PSoC4/TimerTestMode.c ****         }
1023:Generated_Source\PSoC4/TimerTestMode.c **** 
1024:Generated_Source\PSoC4/TimerTestMode.c ****         return (regVal & TimerTestMode_16BIT_MASK);
1025:Generated_Source\PSoC4/TimerTestMode.c ****     #else
1026:Generated_Source\PSoC4/TimerTestMode.c ****         return (TimerTestMode_COMP_CAP_BUF_REG & TimerTestMode_16BIT_MASK);
1027:Generated_Source\PSoC4/TimerTestMode.c ****     #endif /* (TimerTestMode_CY_TCPWM_4000) */
1028:Generated_Source\PSoC4/TimerTestMode.c **** }
1029:Generated_Source\PSoC4/TimerTestMode.c **** 
1030:Generated_Source\PSoC4/TimerTestMode.c **** 
1031:Generated_Source\PSoC4/TimerTestMode.c **** /*******************************************************************************
1032:Generated_Source\PSoC4/TimerTestMode.c **** * Function Name: TimerTestMode_ReadCapture
1033:Generated_Source\PSoC4/TimerTestMode.c **** ********************************************************************************
1034:Generated_Source\PSoC4/TimerTestMode.c **** *
1035:Generated_Source\PSoC4/TimerTestMode.c **** * Summary:
ARM GAS  C:\Users\Petro\AppData\Local\Temp\ccebLrz4.s 			page 20


1036:Generated_Source\PSoC4/TimerTestMode.c **** *  Reads the captured counter value. This API is applicable only for
1037:Generated_Source\PSoC4/TimerTestMode.c **** *  Timer/Counter with the capture mode and Quadrature Decoder modes.
1038:Generated_Source\PSoC4/TimerTestMode.c **** *
1039:Generated_Source\PSoC4/TimerTestMode.c **** * Parameters:
1040:Generated_Source\PSoC4/TimerTestMode.c **** *  None
1041:Generated_Source\PSoC4/TimerTestMode.c **** *
1042:Generated_Source\PSoC4/TimerTestMode.c **** * Return:
1043:Generated_Source\PSoC4/TimerTestMode.c **** *  Capture value
1044:Generated_Source\PSoC4/TimerTestMode.c **** *
1045:Generated_Source\PSoC4/TimerTestMode.c **** *******************************************************************************/
1046:Generated_Source\PSoC4/TimerTestMode.c **** uint32 TimerTestMode_ReadCapture(void)
1047:Generated_Source\PSoC4/TimerTestMode.c **** {
1048:Generated_Source\PSoC4/TimerTestMode.c ****     return (TimerTestMode_COMP_CAP_REG & TimerTestMode_16BIT_MASK);
1049:Generated_Source\PSoC4/TimerTestMode.c **** }
1050:Generated_Source\PSoC4/TimerTestMode.c **** 
1051:Generated_Source\PSoC4/TimerTestMode.c **** 
1052:Generated_Source\PSoC4/TimerTestMode.c **** /*******************************************************************************
1053:Generated_Source\PSoC4/TimerTestMode.c **** * Function Name: TimerTestMode_ReadCaptureBuf
1054:Generated_Source\PSoC4/TimerTestMode.c **** ********************************************************************************
1055:Generated_Source\PSoC4/TimerTestMode.c **** *
1056:Generated_Source\PSoC4/TimerTestMode.c **** * Summary:
1057:Generated_Source\PSoC4/TimerTestMode.c **** *  Reads the capture buffer register. This API is applicable only for
1058:Generated_Source\PSoC4/TimerTestMode.c **** *  Timer/Counter with the capture mode and Quadrature Decoder modes.
1059:Generated_Source\PSoC4/TimerTestMode.c **** *
1060:Generated_Source\PSoC4/TimerTestMode.c **** * Parameters:
1061:Generated_Source\PSoC4/TimerTestMode.c **** *  None
1062:Generated_Source\PSoC4/TimerTestMode.c **** *
1063:Generated_Source\PSoC4/TimerTestMode.c **** * Return:
1064:Generated_Source\PSoC4/TimerTestMode.c **** *  Capture buffer value
1065:Generated_Source\PSoC4/TimerTestMode.c **** *
1066:Generated_Source\PSoC4/TimerTestMode.c **** *******************************************************************************/
1067:Generated_Source\PSoC4/TimerTestMode.c **** uint32 TimerTestMode_ReadCaptureBuf(void)
1068:Generated_Source\PSoC4/TimerTestMode.c **** {
1069:Generated_Source\PSoC4/TimerTestMode.c ****     return (TimerTestMode_COMP_CAP_BUF_REG & TimerTestMode_16BIT_MASK);
1070:Generated_Source\PSoC4/TimerTestMode.c **** }
1071:Generated_Source\PSoC4/TimerTestMode.c **** 
1072:Generated_Source\PSoC4/TimerTestMode.c **** 
1073:Generated_Source\PSoC4/TimerTestMode.c **** /*******************************************************************************
1074:Generated_Source\PSoC4/TimerTestMode.c **** * Function Name: TimerTestMode_SetCaptureMode
1075:Generated_Source\PSoC4/TimerTestMode.c **** ********************************************************************************
1076:Generated_Source\PSoC4/TimerTestMode.c **** *
1077:Generated_Source\PSoC4/TimerTestMode.c **** * Summary:
1078:Generated_Source\PSoC4/TimerTestMode.c **** *  Sets the capture trigger mode. For PWM mode this is the switch input.
1079:Generated_Source\PSoC4/TimerTestMode.c **** *  This input is not applicable to the Timer/Counter without Capture and
1080:Generated_Source\PSoC4/TimerTestMode.c **** *  Quadrature Decoder modes.
1081:Generated_Source\PSoC4/TimerTestMode.c **** *
1082:Generated_Source\PSoC4/TimerTestMode.c **** * Parameters:
1083:Generated_Source\PSoC4/TimerTestMode.c **** *  triggerMode: Enumerated trigger mode value
1084:Generated_Source\PSoC4/TimerTestMode.c **** *   Values:
1085:Generated_Source\PSoC4/TimerTestMode.c **** *     - TimerTestMode_TRIG_LEVEL     - Level
1086:Generated_Source\PSoC4/TimerTestMode.c **** *     - TimerTestMode_TRIG_RISING    - Rising edge
1087:Generated_Source\PSoC4/TimerTestMode.c **** *     - TimerTestMode_TRIG_FALLING   - Falling edge
1088:Generated_Source\PSoC4/TimerTestMode.c **** *     - TimerTestMode_TRIG_BOTH      - Both rising and falling edge
1089:Generated_Source\PSoC4/TimerTestMode.c **** *
1090:Generated_Source\PSoC4/TimerTestMode.c **** * Return:
1091:Generated_Source\PSoC4/TimerTestMode.c **** *  None
1092:Generated_Source\PSoC4/TimerTestMode.c **** *
ARM GAS  C:\Users\Petro\AppData\Local\Temp\ccebLrz4.s 			page 21


1093:Generated_Source\PSoC4/TimerTestMode.c **** *******************************************************************************/
1094:Generated_Source\PSoC4/TimerTestMode.c **** void TimerTestMode_SetCaptureMode(uint32 triggerMode)
1095:Generated_Source\PSoC4/TimerTestMode.c **** {
1096:Generated_Source\PSoC4/TimerTestMode.c ****     uint8 enableInterrupts;
1097:Generated_Source\PSoC4/TimerTestMode.c **** 
1098:Generated_Source\PSoC4/TimerTestMode.c ****     enableInterrupts = CyEnterCriticalSection();
1099:Generated_Source\PSoC4/TimerTestMode.c **** 
1100:Generated_Source\PSoC4/TimerTestMode.c ****     TimerTestMode_TRIG_CONTROL1_REG &= (uint32)~TimerTestMode_CAPTURE_MASK;
1101:Generated_Source\PSoC4/TimerTestMode.c ****     TimerTestMode_TRIG_CONTROL1_REG |= triggerMode;
1102:Generated_Source\PSoC4/TimerTestMode.c **** 
1103:Generated_Source\PSoC4/TimerTestMode.c ****     CyExitCriticalSection(enableInterrupts);
1104:Generated_Source\PSoC4/TimerTestMode.c **** }
1105:Generated_Source\PSoC4/TimerTestMode.c **** 
1106:Generated_Source\PSoC4/TimerTestMode.c **** 
1107:Generated_Source\PSoC4/TimerTestMode.c **** /*******************************************************************************
1108:Generated_Source\PSoC4/TimerTestMode.c **** * Function Name: TimerTestMode_SetReloadMode
1109:Generated_Source\PSoC4/TimerTestMode.c **** ********************************************************************************
1110:Generated_Source\PSoC4/TimerTestMode.c **** *
1111:Generated_Source\PSoC4/TimerTestMode.c **** * Summary:
1112:Generated_Source\PSoC4/TimerTestMode.c **** *  Sets the reload trigger mode. For Quadrature Decoder mode this is the index
1113:Generated_Source\PSoC4/TimerTestMode.c **** *  input.
1114:Generated_Source\PSoC4/TimerTestMode.c **** *
1115:Generated_Source\PSoC4/TimerTestMode.c **** * Parameters:
1116:Generated_Source\PSoC4/TimerTestMode.c **** *  triggerMode: Enumerated trigger mode value
1117:Generated_Source\PSoC4/TimerTestMode.c **** *   Values:
1118:Generated_Source\PSoC4/TimerTestMode.c **** *     - TimerTestMode_TRIG_LEVEL     - Level
1119:Generated_Source\PSoC4/TimerTestMode.c **** *     - TimerTestMode_TRIG_RISING    - Rising edge
1120:Generated_Source\PSoC4/TimerTestMode.c **** *     - TimerTestMode_TRIG_FALLING   - Falling edge
1121:Generated_Source\PSoC4/TimerTestMode.c **** *     - TimerTestMode_TRIG_BOTH      - Both rising and falling edge
1122:Generated_Source\PSoC4/TimerTestMode.c **** *
1123:Generated_Source\PSoC4/TimerTestMode.c **** * Return:
1124:Generated_Source\PSoC4/TimerTestMode.c **** *  None
1125:Generated_Source\PSoC4/TimerTestMode.c **** *
1126:Generated_Source\PSoC4/TimerTestMode.c **** *******************************************************************************/
1127:Generated_Source\PSoC4/TimerTestMode.c **** void TimerTestMode_SetReloadMode(uint32 triggerMode)
1128:Generated_Source\PSoC4/TimerTestMode.c **** {
1129:Generated_Source\PSoC4/TimerTestMode.c ****     uint8 enableInterrupts;
1130:Generated_Source\PSoC4/TimerTestMode.c **** 
1131:Generated_Source\PSoC4/TimerTestMode.c ****     enableInterrupts = CyEnterCriticalSection();
1132:Generated_Source\PSoC4/TimerTestMode.c **** 
1133:Generated_Source\PSoC4/TimerTestMode.c ****     TimerTestMode_TRIG_CONTROL1_REG &= (uint32)~TimerTestMode_RELOAD_MASK;
1134:Generated_Source\PSoC4/TimerTestMode.c ****     TimerTestMode_TRIG_CONTROL1_REG |= ((uint32)(triggerMode << TimerTestMode_RELOAD_SHIFT));
1135:Generated_Source\PSoC4/TimerTestMode.c **** 
1136:Generated_Source\PSoC4/TimerTestMode.c ****     CyExitCriticalSection(enableInterrupts);
1137:Generated_Source\PSoC4/TimerTestMode.c **** }
1138:Generated_Source\PSoC4/TimerTestMode.c **** 
1139:Generated_Source\PSoC4/TimerTestMode.c **** 
1140:Generated_Source\PSoC4/TimerTestMode.c **** /*******************************************************************************
1141:Generated_Source\PSoC4/TimerTestMode.c **** * Function Name: TimerTestMode_SetStartMode
1142:Generated_Source\PSoC4/TimerTestMode.c **** ********************************************************************************
1143:Generated_Source\PSoC4/TimerTestMode.c **** *
1144:Generated_Source\PSoC4/TimerTestMode.c **** * Summary:
1145:Generated_Source\PSoC4/TimerTestMode.c **** *  Sets the start trigger mode. For Quadrature Decoder mode this is the
1146:Generated_Source\PSoC4/TimerTestMode.c **** *  phiB input.
1147:Generated_Source\PSoC4/TimerTestMode.c **** *
1148:Generated_Source\PSoC4/TimerTestMode.c **** * Parameters:
1149:Generated_Source\PSoC4/TimerTestMode.c **** *  triggerMode: Enumerated trigger mode value
ARM GAS  C:\Users\Petro\AppData\Local\Temp\ccebLrz4.s 			page 22


1150:Generated_Source\PSoC4/TimerTestMode.c **** *   Values:
1151:Generated_Source\PSoC4/TimerTestMode.c **** *     - TimerTestMode_TRIG_LEVEL     - Level
1152:Generated_Source\PSoC4/TimerTestMode.c **** *     - TimerTestMode_TRIG_RISING    - Rising edge
1153:Generated_Source\PSoC4/TimerTestMode.c **** *     - TimerTestMode_TRIG_FALLING   - Falling edge
1154:Generated_Source\PSoC4/TimerTestMode.c **** *     - TimerTestMode_TRIG_BOTH      - Both rising and falling edge
1155:Generated_Source\PSoC4/TimerTestMode.c **** *
1156:Generated_Source\PSoC4/TimerTestMode.c **** * Return:
1157:Generated_Source\PSoC4/TimerTestMode.c **** *  None
1158:Generated_Source\PSoC4/TimerTestMode.c **** *
1159:Generated_Source\PSoC4/TimerTestMode.c **** *******************************************************************************/
1160:Generated_Source\PSoC4/TimerTestMode.c **** void TimerTestMode_SetStartMode(uint32 triggerMode)
1161:Generated_Source\PSoC4/TimerTestMode.c **** {
1162:Generated_Source\PSoC4/TimerTestMode.c ****     uint8 enableInterrupts;
1163:Generated_Source\PSoC4/TimerTestMode.c **** 
1164:Generated_Source\PSoC4/TimerTestMode.c ****     enableInterrupts = CyEnterCriticalSection();
1165:Generated_Source\PSoC4/TimerTestMode.c **** 
1166:Generated_Source\PSoC4/TimerTestMode.c ****     TimerTestMode_TRIG_CONTROL1_REG &= (uint32)~TimerTestMode_START_MASK;
1167:Generated_Source\PSoC4/TimerTestMode.c ****     TimerTestMode_TRIG_CONTROL1_REG |= ((uint32)(triggerMode << TimerTestMode_START_SHIFT));
1168:Generated_Source\PSoC4/TimerTestMode.c **** 
1169:Generated_Source\PSoC4/TimerTestMode.c ****     CyExitCriticalSection(enableInterrupts);
1170:Generated_Source\PSoC4/TimerTestMode.c **** }
1171:Generated_Source\PSoC4/TimerTestMode.c **** 
1172:Generated_Source\PSoC4/TimerTestMode.c **** 
1173:Generated_Source\PSoC4/TimerTestMode.c **** /*******************************************************************************
1174:Generated_Source\PSoC4/TimerTestMode.c **** * Function Name: TimerTestMode_SetStopMode
1175:Generated_Source\PSoC4/TimerTestMode.c **** ********************************************************************************
1176:Generated_Source\PSoC4/TimerTestMode.c **** *
1177:Generated_Source\PSoC4/TimerTestMode.c **** * Summary:
1178:Generated_Source\PSoC4/TimerTestMode.c **** *  Sets the stop trigger mode. For PWM mode this is the kill input.
1179:Generated_Source\PSoC4/TimerTestMode.c **** *
1180:Generated_Source\PSoC4/TimerTestMode.c **** * Parameters:
1181:Generated_Source\PSoC4/TimerTestMode.c **** *  triggerMode: Enumerated trigger mode value
1182:Generated_Source\PSoC4/TimerTestMode.c **** *   Values:
1183:Generated_Source\PSoC4/TimerTestMode.c **** *     - TimerTestMode_TRIG_LEVEL     - Level
1184:Generated_Source\PSoC4/TimerTestMode.c **** *     - TimerTestMode_TRIG_RISING    - Rising edge
1185:Generated_Source\PSoC4/TimerTestMode.c **** *     - TimerTestMode_TRIG_FALLING   - Falling edge
1186:Generated_Source\PSoC4/TimerTestMode.c **** *     - TimerTestMode_TRIG_BOTH      - Both rising and falling edge
1187:Generated_Source\PSoC4/TimerTestMode.c **** *
1188:Generated_Source\PSoC4/TimerTestMode.c **** * Return:
1189:Generated_Source\PSoC4/TimerTestMode.c **** *  None
1190:Generated_Source\PSoC4/TimerTestMode.c **** *
1191:Generated_Source\PSoC4/TimerTestMode.c **** *******************************************************************************/
1192:Generated_Source\PSoC4/TimerTestMode.c **** void TimerTestMode_SetStopMode(uint32 triggerMode)
1193:Generated_Source\PSoC4/TimerTestMode.c **** {
1194:Generated_Source\PSoC4/TimerTestMode.c ****     uint8 enableInterrupts;
1195:Generated_Source\PSoC4/TimerTestMode.c **** 
1196:Generated_Source\PSoC4/TimerTestMode.c ****     enableInterrupts = CyEnterCriticalSection();
1197:Generated_Source\PSoC4/TimerTestMode.c **** 
1198:Generated_Source\PSoC4/TimerTestMode.c ****     TimerTestMode_TRIG_CONTROL1_REG &= (uint32)~TimerTestMode_STOP_MASK;
1199:Generated_Source\PSoC4/TimerTestMode.c ****     TimerTestMode_TRIG_CONTROL1_REG |= ((uint32)(triggerMode << TimerTestMode_STOP_SHIFT));
1200:Generated_Source\PSoC4/TimerTestMode.c **** 
1201:Generated_Source\PSoC4/TimerTestMode.c ****     CyExitCriticalSection(enableInterrupts);
1202:Generated_Source\PSoC4/TimerTestMode.c **** }
1203:Generated_Source\PSoC4/TimerTestMode.c **** 
1204:Generated_Source\PSoC4/TimerTestMode.c **** 
1205:Generated_Source\PSoC4/TimerTestMode.c **** /*******************************************************************************
1206:Generated_Source\PSoC4/TimerTestMode.c **** * Function Name: TimerTestMode_SetCountMode
ARM GAS  C:\Users\Petro\AppData\Local\Temp\ccebLrz4.s 			page 23


1207:Generated_Source\PSoC4/TimerTestMode.c **** ********************************************************************************
1208:Generated_Source\PSoC4/TimerTestMode.c **** *
1209:Generated_Source\PSoC4/TimerTestMode.c **** * Summary:
1210:Generated_Source\PSoC4/TimerTestMode.c **** *  Sets the count trigger mode. For Quadrature Decoder mode this is the phiA
1211:Generated_Source\PSoC4/TimerTestMode.c **** *  input.
1212:Generated_Source\PSoC4/TimerTestMode.c **** *
1213:Generated_Source\PSoC4/TimerTestMode.c **** * Parameters:
1214:Generated_Source\PSoC4/TimerTestMode.c **** *  triggerMode: Enumerated trigger mode value
1215:Generated_Source\PSoC4/TimerTestMode.c **** *   Values:
1216:Generated_Source\PSoC4/TimerTestMode.c **** *     - TimerTestMode_TRIG_LEVEL     - Level
1217:Generated_Source\PSoC4/TimerTestMode.c **** *     - TimerTestMode_TRIG_RISING    - Rising edge
1218:Generated_Source\PSoC4/TimerTestMode.c **** *     - TimerTestMode_TRIG_FALLING   - Falling edge
1219:Generated_Source\PSoC4/TimerTestMode.c **** *     - TimerTestMode_TRIG_BOTH      - Both rising and falling edge
1220:Generated_Source\PSoC4/TimerTestMode.c **** *
1221:Generated_Source\PSoC4/TimerTestMode.c **** * Return:
1222:Generated_Source\PSoC4/TimerTestMode.c **** *  None
1223:Generated_Source\PSoC4/TimerTestMode.c **** *
1224:Generated_Source\PSoC4/TimerTestMode.c **** *******************************************************************************/
1225:Generated_Source\PSoC4/TimerTestMode.c **** void TimerTestMode_SetCountMode(uint32 triggerMode)
1226:Generated_Source\PSoC4/TimerTestMode.c **** {
1227:Generated_Source\PSoC4/TimerTestMode.c ****     uint8 enableInterrupts;
1228:Generated_Source\PSoC4/TimerTestMode.c **** 
1229:Generated_Source\PSoC4/TimerTestMode.c ****     enableInterrupts = CyEnterCriticalSection();
1230:Generated_Source\PSoC4/TimerTestMode.c **** 
1231:Generated_Source\PSoC4/TimerTestMode.c ****     TimerTestMode_TRIG_CONTROL1_REG &= (uint32)~TimerTestMode_COUNT_MASK;
1232:Generated_Source\PSoC4/TimerTestMode.c ****     TimerTestMode_TRIG_CONTROL1_REG |= ((uint32)(triggerMode << TimerTestMode_COUNT_SHIFT));
1233:Generated_Source\PSoC4/TimerTestMode.c **** 
1234:Generated_Source\PSoC4/TimerTestMode.c ****     CyExitCriticalSection(enableInterrupts);
1235:Generated_Source\PSoC4/TimerTestMode.c **** }
1236:Generated_Source\PSoC4/TimerTestMode.c **** 
1237:Generated_Source\PSoC4/TimerTestMode.c **** 
1238:Generated_Source\PSoC4/TimerTestMode.c **** /*******************************************************************************
1239:Generated_Source\PSoC4/TimerTestMode.c **** * Function Name: TimerTestMode_TriggerCommand
1240:Generated_Source\PSoC4/TimerTestMode.c **** ********************************************************************************
1241:Generated_Source\PSoC4/TimerTestMode.c **** *
1242:Generated_Source\PSoC4/TimerTestMode.c **** * Summary:
1243:Generated_Source\PSoC4/TimerTestMode.c **** *  Triggers the designated command to occur on the designated TCPWM instances.
1244:Generated_Source\PSoC4/TimerTestMode.c **** *  The mask can be used to apply this command simultaneously to more than one
1245:Generated_Source\PSoC4/TimerTestMode.c **** *  instance.  This allows multiple TCPWM instances to be synchronized.
1246:Generated_Source\PSoC4/TimerTestMode.c **** *
1247:Generated_Source\PSoC4/TimerTestMode.c **** * Parameters:
1248:Generated_Source\PSoC4/TimerTestMode.c **** *  mask: A combination of mask bits for each instance of the TCPWM that the
1249:Generated_Source\PSoC4/TimerTestMode.c **** *        command should apply to.  This function from one instance can be used
1250:Generated_Source\PSoC4/TimerTestMode.c **** *        to apply the command to any of the instances in the design.
1251:Generated_Source\PSoC4/TimerTestMode.c **** *        The mask value for a specific instance is available with the MASK
1252:Generated_Source\PSoC4/TimerTestMode.c **** *        define.
1253:Generated_Source\PSoC4/TimerTestMode.c **** *  command: Enumerated command values. Capture command only applicable for
1254:Generated_Source\PSoC4/TimerTestMode.c **** *           Timer/Counter with Capture and PWM modes.
1255:Generated_Source\PSoC4/TimerTestMode.c **** *   Values:
1256:Generated_Source\PSoC4/TimerTestMode.c **** *     - TimerTestMode_CMD_CAPTURE    - Trigger Capture/Switch command
1257:Generated_Source\PSoC4/TimerTestMode.c **** *     - TimerTestMode_CMD_RELOAD     - Trigger Reload/Index command
1258:Generated_Source\PSoC4/TimerTestMode.c **** *     - TimerTestMode_CMD_STOP       - Trigger Stop/Kill command
1259:Generated_Source\PSoC4/TimerTestMode.c **** *     - TimerTestMode_CMD_START      - Trigger Start/phiB command
1260:Generated_Source\PSoC4/TimerTestMode.c **** *
1261:Generated_Source\PSoC4/TimerTestMode.c **** * Return:
1262:Generated_Source\PSoC4/TimerTestMode.c **** *  None
1263:Generated_Source\PSoC4/TimerTestMode.c **** *
ARM GAS  C:\Users\Petro\AppData\Local\Temp\ccebLrz4.s 			page 24


1264:Generated_Source\PSoC4/TimerTestMode.c **** *******************************************************************************/
1265:Generated_Source\PSoC4/TimerTestMode.c **** void TimerTestMode_TriggerCommand(uint32 mask, uint32 command)
1266:Generated_Source\PSoC4/TimerTestMode.c **** {
1267:Generated_Source\PSoC4/TimerTestMode.c ****     uint8 enableInterrupts;
1268:Generated_Source\PSoC4/TimerTestMode.c **** 
1269:Generated_Source\PSoC4/TimerTestMode.c ****     enableInterrupts = CyEnterCriticalSection();
1270:Generated_Source\PSoC4/TimerTestMode.c **** 
1271:Generated_Source\PSoC4/TimerTestMode.c ****     TimerTestMode_COMMAND_REG = ((uint32)(mask << command));
1272:Generated_Source\PSoC4/TimerTestMode.c **** 
1273:Generated_Source\PSoC4/TimerTestMode.c ****     CyExitCriticalSection(enableInterrupts);
1274:Generated_Source\PSoC4/TimerTestMode.c **** }
1275:Generated_Source\PSoC4/TimerTestMode.c **** 
1276:Generated_Source\PSoC4/TimerTestMode.c **** 
1277:Generated_Source\PSoC4/TimerTestMode.c **** /*******************************************************************************
1278:Generated_Source\PSoC4/TimerTestMode.c **** * Function Name: TimerTestMode_ReadStatus
1279:Generated_Source\PSoC4/TimerTestMode.c **** ********************************************************************************
1280:Generated_Source\PSoC4/TimerTestMode.c **** *
1281:Generated_Source\PSoC4/TimerTestMode.c **** * Summary:
1282:Generated_Source\PSoC4/TimerTestMode.c **** *  Reads the status of the TimerTestMode.
1283:Generated_Source\PSoC4/TimerTestMode.c **** *
1284:Generated_Source\PSoC4/TimerTestMode.c **** * Parameters:
1285:Generated_Source\PSoC4/TimerTestMode.c **** *  None
1286:Generated_Source\PSoC4/TimerTestMode.c **** *
1287:Generated_Source\PSoC4/TimerTestMode.c **** * Return:
1288:Generated_Source\PSoC4/TimerTestMode.c **** *  Status
1289:Generated_Source\PSoC4/TimerTestMode.c **** *   Values:
1290:Generated_Source\PSoC4/TimerTestMode.c **** *     - TimerTestMode_STATUS_DOWN    - Set if counting down
1291:Generated_Source\PSoC4/TimerTestMode.c **** *     - TimerTestMode_STATUS_RUNNING - Set if counter is running
1292:Generated_Source\PSoC4/TimerTestMode.c **** *
1293:Generated_Source\PSoC4/TimerTestMode.c **** *******************************************************************************/
1294:Generated_Source\PSoC4/TimerTestMode.c **** uint32 TimerTestMode_ReadStatus(void)
1295:Generated_Source\PSoC4/TimerTestMode.c **** {
1296:Generated_Source\PSoC4/TimerTestMode.c ****     return ((TimerTestMode_STATUS_REG >> TimerTestMode_RUNNING_STATUS_SHIFT) |
1297:Generated_Source\PSoC4/TimerTestMode.c ****             (TimerTestMode_STATUS_REG & TimerTestMode_STATUS_DOWN));
1298:Generated_Source\PSoC4/TimerTestMode.c **** }
1299:Generated_Source\PSoC4/TimerTestMode.c **** 
1300:Generated_Source\PSoC4/TimerTestMode.c **** 
1301:Generated_Source\PSoC4/TimerTestMode.c **** /*******************************************************************************
1302:Generated_Source\PSoC4/TimerTestMode.c **** * Function Name: TimerTestMode_SetInterruptMode
1303:Generated_Source\PSoC4/TimerTestMode.c **** ********************************************************************************
1304:Generated_Source\PSoC4/TimerTestMode.c **** *
1305:Generated_Source\PSoC4/TimerTestMode.c **** * Summary:
1306:Generated_Source\PSoC4/TimerTestMode.c **** *  Sets the interrupt mask to control which interrupt
1307:Generated_Source\PSoC4/TimerTestMode.c **** *  requests generate the interrupt signal.
1308:Generated_Source\PSoC4/TimerTestMode.c **** *
1309:Generated_Source\PSoC4/TimerTestMode.c **** * Parameters:
1310:Generated_Source\PSoC4/TimerTestMode.c **** *   interruptMask: Mask of bits to be enabled
1311:Generated_Source\PSoC4/TimerTestMode.c **** *   Values:
1312:Generated_Source\PSoC4/TimerTestMode.c **** *     - TimerTestMode_INTR_MASK_TC       - Terminal count mask
1313:Generated_Source\PSoC4/TimerTestMode.c **** *     - TimerTestMode_INTR_MASK_CC_MATCH - Compare count / capture mask
1314:Generated_Source\PSoC4/TimerTestMode.c **** *
1315:Generated_Source\PSoC4/TimerTestMode.c **** * Return:
1316:Generated_Source\PSoC4/TimerTestMode.c **** *  None
1317:Generated_Source\PSoC4/TimerTestMode.c **** *
1318:Generated_Source\PSoC4/TimerTestMode.c **** *******************************************************************************/
1319:Generated_Source\PSoC4/TimerTestMode.c **** void TimerTestMode_SetInterruptMode(uint32 interruptMask)
1320:Generated_Source\PSoC4/TimerTestMode.c **** {
ARM GAS  C:\Users\Petro\AppData\Local\Temp\ccebLrz4.s 			page 25


1321:Generated_Source\PSoC4/TimerTestMode.c ****     TimerTestMode_INTERRUPT_MASK_REG =  interruptMask;
  48              		.loc 1 1321 0
  49 000e 084B     		ldr	r3, .L2+8
  50 0010 0A3A     		subs	r2, r2, #10
  51 0012 1A60     		str	r2, [r3]
  52              	.LVL1:
  53              	.LBE11:
  54              	.LBE10:
  55              	.LBB12:
  56              	.LBB13:
 695:Generated_Source\PSoC4/TimerTestMode.c **** }
  57              		.loc 1 695 0
  58 0014 074A     		ldr	r2, .L2+12
  59 0016 084B     		ldr	r3, .L2+16
  60 0018 1A60     		str	r2, [r3]
  61              	.LVL2:
  62              	.LBE13:
  63              	.LBE12:
  64              	.LBB14:
  65              	.LBB15:
 873:Generated_Source\PSoC4/TimerTestMode.c **** }
  66              		.loc 1 873 0
  67 001a 084A     		ldr	r2, .L2+20
  68 001c 084B     		ldr	r3, .L2+24
  69 001e 1A60     		str	r2, [r3]
  70              	.LVL3:
  71              	.LBE15:
  72              	.LBE14:
  73              	.LBB16:
  74              	.LBB17:
 617:Generated_Source\PSoC4/TimerTestMode.c **** }
  75              		.loc 1 617 0
  76 0020 0022     		movs	r2, #0
  77 0022 084B     		ldr	r3, .L2+28
  78 0024 1A60     		str	r2, [r3]
  79              	.LVL4:
  80              	.LBE17:
  81              	.LBE16:
 160:Generated_Source\PSoC4/TimerTestMode.c **** 
  82              		.loc 1 160 0
  83 0026 7047     		bx	lr
  84              	.L3:
  85              		.align	2
  86              	.L2:
  87 0028 40012040 		.word	1075839296
  88 002c 64012040 		.word	1075839332
  89 0030 78012040 		.word	1075839352
  90 0034 FFFF0000 		.word	65535
  91 0038 54012040 		.word	1075839316
  92 003c C4090000 		.word	2500
  93 0040 4C012040 		.word	1075839308
  94 0044 48012040 		.word	1075839304
  95              		.cfi_endproc
  96              	.LFE2:
  97              		.size	TimerTestMode_Init, .-TimerTestMode_Init
  98              		.section	.text.TimerTestMode_Stop,"ax",%progbits
  99              		.align	1
ARM GAS  C:\Users\Petro\AppData\Local\Temp\ccebLrz4.s 			page 26


 100              		.global	TimerTestMode_Stop
 101              		.code	16
 102              		.thumb_func
 103              		.type	TimerTestMode_Stop, %function
 104              	TimerTestMode_Stop:
 105              	.LFB5:
 257:Generated_Source\PSoC4/TimerTestMode.c ****     uint8 enableInterrupts;
 106              		.loc 1 257 0
 107              		.cfi_startproc
 108              		@ args = 0, pretend = 0, frame = 0
 109              		@ frame_needed = 0, uses_anonymous_args = 0
 110 0000 10B5     		push	{r4, lr}
 111              		.cfi_def_cfa_offset 8
 112              		.cfi_offset 4, -8
 113              		.cfi_offset 14, -4
 260:Generated_Source\PSoC4/TimerTestMode.c **** 
 114              		.loc 1 260 0
 115 0002 FFF7FEFF 		bl	CyEnterCriticalSection
 116              	.LVL5:
 262:Generated_Source\PSoC4/TimerTestMode.c **** 
 117              		.loc 1 262 0
 118 0006 0221     		movs	r1, #2
 119 0008 034A     		ldr	r2, .L5
 265:Generated_Source\PSoC4/TimerTestMode.c **** 
 120              		.loc 1 265 0
 121              		@ sp needed
 262:Generated_Source\PSoC4/TimerTestMode.c **** 
 122              		.loc 1 262 0
 123 000a 1368     		ldr	r3, [r2]
 124 000c 8B43     		bics	r3, r1
 125 000e 1360     		str	r3, [r2]
 264:Generated_Source\PSoC4/TimerTestMode.c **** }
 126              		.loc 1 264 0
 127 0010 FFF7FEFF 		bl	CyExitCriticalSection
 128              	.LVL6:
 265:Generated_Source\PSoC4/TimerTestMode.c **** 
 129              		.loc 1 265 0
 130 0014 10BD     		pop	{r4, pc}
 131              	.L6:
 132 0016 C046     		.align	2
 133              	.L5:
 134 0018 00002040 		.word	1075838976
 135              		.cfi_endproc
 136              	.LFE5:
 137              		.size	TimerTestMode_Stop, .-TimerTestMode_Stop
 138              		.section	.text.TimerTestMode_SetMode,"ax",%progbits
 139              		.align	1
 140              		.global	TimerTestMode_SetMode
 141              		.code	16
 142              		.thumb_func
 143              		.type	TimerTestMode_SetMode, %function
 144              	TimerTestMode_SetMode:
 145              	.LFB6:
 294:Generated_Source\PSoC4/TimerTestMode.c ****     uint8 enableInterrupts;
 146              		.loc 1 294 0
 147              		.cfi_startproc
 148              		@ args = 0, pretend = 0, frame = 0
ARM GAS  C:\Users\Petro\AppData\Local\Temp\ccebLrz4.s 			page 27


 149              		@ frame_needed = 0, uses_anonymous_args = 0
 150              	.LVL7:
 151 0000 10B5     		push	{r4, lr}
 152              		.cfi_def_cfa_offset 8
 153              		.cfi_offset 4, -8
 154              		.cfi_offset 14, -4
 294:Generated_Source\PSoC4/TimerTestMode.c ****     uint8 enableInterrupts;
 155              		.loc 1 294 0
 156 0002 0400     		movs	r4, r0
 297:Generated_Source\PSoC4/TimerTestMode.c **** 
 157              		.loc 1 297 0
 158 0004 FFF7FEFF 		bl	CyEnterCriticalSection
 159              	.LVL8:
 299:Generated_Source\PSoC4/TimerTestMode.c ****     TimerTestMode_CONTROL_REG |= mode;
 160              		.loc 1 299 0
 161 0008 054B     		ldr	r3, .L8
 162 000a 064A     		ldr	r2, .L8+4
 163 000c 1968     		ldr	r1, [r3]
 303:Generated_Source\PSoC4/TimerTestMode.c **** 
 164              		.loc 1 303 0
 165              		@ sp needed
 299:Generated_Source\PSoC4/TimerTestMode.c ****     TimerTestMode_CONTROL_REG |= mode;
 166              		.loc 1 299 0
 167 000e 0A40     		ands	r2, r1
 168 0010 1A60     		str	r2, [r3]
 300:Generated_Source\PSoC4/TimerTestMode.c **** 
 169              		.loc 1 300 0
 170 0012 1A68     		ldr	r2, [r3]
 171 0014 1443     		orrs	r4, r2
 172              	.LVL9:
 173 0016 1C60     		str	r4, [r3]
 302:Generated_Source\PSoC4/TimerTestMode.c **** }
 174              		.loc 1 302 0
 175 0018 FFF7FEFF 		bl	CyExitCriticalSection
 176              	.LVL10:
 303:Generated_Source\PSoC4/TimerTestMode.c **** 
 177              		.loc 1 303 0
 178 001c 10BD     		pop	{r4, pc}
 179              	.L9:
 180 001e C046     		.align	2
 181              	.L8:
 182 0020 40012040 		.word	1075839296
 183 0024 FFFFFFF8 		.word	-117440513
 184              		.cfi_endproc
 185              	.LFE6:
 186              		.size	TimerTestMode_SetMode, .-TimerTestMode_SetMode
 187              		.section	.text.TimerTestMode_SetQDMode,"ax",%progbits
 188              		.align	1
 189              		.global	TimerTestMode_SetQDMode
 190              		.code	16
 191              		.thumb_func
 192              		.type	TimerTestMode_SetQDMode, %function
 193              	TimerTestMode_SetQDMode:
 194              	.LFB7:
 327:Generated_Source\PSoC4/TimerTestMode.c ****     uint8 enableInterrupts;
 195              		.loc 1 327 0
 196              		.cfi_startproc
ARM GAS  C:\Users\Petro\AppData\Local\Temp\ccebLrz4.s 			page 28


 197              		@ args = 0, pretend = 0, frame = 0
 198              		@ frame_needed = 0, uses_anonymous_args = 0
 199              	.LVL11:
 200 0000 10B5     		push	{r4, lr}
 201              		.cfi_def_cfa_offset 8
 202              		.cfi_offset 4, -8
 203              		.cfi_offset 14, -4
 327:Generated_Source\PSoC4/TimerTestMode.c ****     uint8 enableInterrupts;
 204              		.loc 1 327 0
 205 0002 0400     		movs	r4, r0
 330:Generated_Source\PSoC4/TimerTestMode.c **** 
 206              		.loc 1 330 0
 207 0004 FFF7FEFF 		bl	CyEnterCriticalSection
 208              	.LVL12:
 332:Generated_Source\PSoC4/TimerTestMode.c ****     TimerTestMode_CONTROL_REG |= qdMode;
 209              		.loc 1 332 0
 210 0008 054B     		ldr	r3, .L11
 211 000a 064A     		ldr	r2, .L11+4
 212 000c 1968     		ldr	r1, [r3]
 336:Generated_Source\PSoC4/TimerTestMode.c **** 
 213              		.loc 1 336 0
 214              		@ sp needed
 332:Generated_Source\PSoC4/TimerTestMode.c ****     TimerTestMode_CONTROL_REG |= qdMode;
 215              		.loc 1 332 0
 216 000e 0A40     		ands	r2, r1
 217 0010 1A60     		str	r2, [r3]
 333:Generated_Source\PSoC4/TimerTestMode.c **** 
 218              		.loc 1 333 0
 219 0012 1A68     		ldr	r2, [r3]
 220 0014 1443     		orrs	r4, r2
 221              	.LVL13:
 222 0016 1C60     		str	r4, [r3]
 335:Generated_Source\PSoC4/TimerTestMode.c **** }
 223              		.loc 1 335 0
 224 0018 FFF7FEFF 		bl	CyExitCriticalSection
 225              	.LVL14:
 336:Generated_Source\PSoC4/TimerTestMode.c **** 
 226              		.loc 1 336 0
 227 001c 10BD     		pop	{r4, pc}
 228              	.L12:
 229 001e C046     		.align	2
 230              	.L11:
 231 0020 40012040 		.word	1075839296
 232 0024 FFFF8FFF 		.word	-7340033
 233              		.cfi_endproc
 234              	.LFE7:
 235              		.size	TimerTestMode_SetQDMode, .-TimerTestMode_SetQDMode
 236              		.section	.text.TimerTestMode_SetPrescaler,"ax",%progbits
 237              		.align	1
 238              		.global	TimerTestMode_SetPrescaler
 239              		.code	16
 240              		.thumb_func
 241              		.type	TimerTestMode_SetPrescaler, %function
 242              	TimerTestMode_SetPrescaler:
 243              	.LFB8:
 364:Generated_Source\PSoC4/TimerTestMode.c ****     uint8 enableInterrupts;
 244              		.loc 1 364 0
ARM GAS  C:\Users\Petro\AppData\Local\Temp\ccebLrz4.s 			page 29


 245              		.cfi_startproc
 246              		@ args = 0, pretend = 0, frame = 0
 247              		@ frame_needed = 0, uses_anonymous_args = 0
 248              	.LVL15:
 249 0000 10B5     		push	{r4, lr}
 250              		.cfi_def_cfa_offset 8
 251              		.cfi_offset 4, -8
 252              		.cfi_offset 14, -4
 364:Generated_Source\PSoC4/TimerTestMode.c ****     uint8 enableInterrupts;
 253              		.loc 1 364 0
 254 0002 0400     		movs	r4, r0
 367:Generated_Source\PSoC4/TimerTestMode.c **** 
 255              		.loc 1 367 0
 256 0004 FFF7FEFF 		bl	CyEnterCriticalSection
 257              	.LVL16:
 369:Generated_Source\PSoC4/TimerTestMode.c ****     TimerTestMode_CONTROL_REG |= prescaler;
 258              		.loc 1 369 0
 259 0008 054B     		ldr	r3, .L14
 260 000a 064A     		ldr	r2, .L14+4
 261 000c 1968     		ldr	r1, [r3]
 373:Generated_Source\PSoC4/TimerTestMode.c **** 
 262              		.loc 1 373 0
 263              		@ sp needed
 369:Generated_Source\PSoC4/TimerTestMode.c ****     TimerTestMode_CONTROL_REG |= prescaler;
 264              		.loc 1 369 0
 265 000e 0A40     		ands	r2, r1
 266 0010 1A60     		str	r2, [r3]
 370:Generated_Source\PSoC4/TimerTestMode.c **** 
 267              		.loc 1 370 0
 268 0012 1A68     		ldr	r2, [r3]
 269 0014 1443     		orrs	r4, r2
 270              	.LVL17:
 271 0016 1C60     		str	r4, [r3]
 372:Generated_Source\PSoC4/TimerTestMode.c **** }
 272              		.loc 1 372 0
 273 0018 FFF7FEFF 		bl	CyExitCriticalSection
 274              	.LVL18:
 373:Generated_Source\PSoC4/TimerTestMode.c **** 
 275              		.loc 1 373 0
 276 001c 10BD     		pop	{r4, pc}
 277              	.L15:
 278 001e C046     		.align	2
 279              	.L14:
 280 0020 40012040 		.word	1075839296
 281 0024 FF00FFFF 		.word	-65281
 282              		.cfi_endproc
 283              	.LFE8:
 284              		.size	TimerTestMode_SetPrescaler, .-TimerTestMode_SetPrescaler
 285              		.section	.text.TimerTestMode_SetOneShot,"ax",%progbits
 286              		.align	1
 287              		.global	TimerTestMode_SetOneShot
 288              		.code	16
 289              		.thumb_func
 290              		.type	TimerTestMode_SetOneShot, %function
 291              	TimerTestMode_SetOneShot:
 292              	.LFB9:
 396:Generated_Source\PSoC4/TimerTestMode.c ****     uint8 enableInterrupts;
ARM GAS  C:\Users\Petro\AppData\Local\Temp\ccebLrz4.s 			page 30


 293              		.loc 1 396 0
 294              		.cfi_startproc
 295              		@ args = 0, pretend = 0, frame = 0
 296              		@ frame_needed = 0, uses_anonymous_args = 0
 297              	.LVL19:
 298 0000 10B5     		push	{r4, lr}
 299              		.cfi_def_cfa_offset 8
 300              		.cfi_offset 4, -8
 301              		.cfi_offset 14, -4
 396:Generated_Source\PSoC4/TimerTestMode.c ****     uint8 enableInterrupts;
 302              		.loc 1 396 0
 303 0002 0400     		movs	r4, r0
 399:Generated_Source\PSoC4/TimerTestMode.c **** 
 304              		.loc 1 399 0
 305 0004 FFF7FEFF 		bl	CyEnterCriticalSection
 306              	.LVL20:
 401:Generated_Source\PSoC4/TimerTestMode.c ****     TimerTestMode_CONTROL_REG |= ((uint32)((oneShotEnable & TimerTestMode_1BIT_MASK) <<
 307              		.loc 1 401 0
 308 0008 074B     		ldr	r3, .L17
 309 000a 084A     		ldr	r2, .L17+4
 310 000c 1968     		ldr	r1, [r3]
 406:Generated_Source\PSoC4/TimerTestMode.c **** 
 311              		.loc 1 406 0
 312              		@ sp needed
 401:Generated_Source\PSoC4/TimerTestMode.c ****     TimerTestMode_CONTROL_REG |= ((uint32)((oneShotEnable & TimerTestMode_1BIT_MASK) <<
 313              		.loc 1 401 0
 314 000e 0A40     		ands	r2, r1
 315 0010 1A60     		str	r2, [r3]
 402:Generated_Source\PSoC4/TimerTestMode.c ****                                                                TimerTestMode_ONESHOT_SHIFT));
 316              		.loc 1 402 0
 317 0012 A204     		lsls	r2, r4, #18
 318 0014 8024     		movs	r4, #128
 319              	.LVL21:
 320 0016 1968     		ldr	r1, [r3]
 321 0018 E402     		lsls	r4, r4, #11
 322 001a 2240     		ands	r2, r4
 323 001c 0A43     		orrs	r2, r1
 324 001e 1A60     		str	r2, [r3]
 405:Generated_Source\PSoC4/TimerTestMode.c **** }
 325              		.loc 1 405 0
 326 0020 FFF7FEFF 		bl	CyExitCriticalSection
 327              	.LVL22:
 406:Generated_Source\PSoC4/TimerTestMode.c **** 
 328              		.loc 1 406 0
 329 0024 10BD     		pop	{r4, pc}
 330              	.L18:
 331 0026 C046     		.align	2
 332              	.L17:
 333 0028 40012040 		.word	1075839296
 334 002c FFFFFBFF 		.word	-262145
 335              		.cfi_endproc
 336              	.LFE9:
 337              		.size	TimerTestMode_SetOneShot, .-TimerTestMode_SetOneShot
 338              		.section	.text.TimerTestMode_SetPWMMode,"ax",%progbits
 339              		.align	1
 340              		.global	TimerTestMode_SetPWMMode
 341              		.code	16
ARM GAS  C:\Users\Petro\AppData\Local\Temp\ccebLrz4.s 			page 31


 342              		.thumb_func
 343              		.type	TimerTestMode_SetPWMMode, %function
 344              	TimerTestMode_SetPWMMode:
 345              	.LFB10:
 450:Generated_Source\PSoC4/TimerTestMode.c ****     TimerTestMode_TRIG_CONTROL2_REG = (modeMask & TimerTestMode_6BIT_MASK);
 346              		.loc 1 450 0
 347              		.cfi_startproc
 348              		@ args = 0, pretend = 0, frame = 0
 349              		@ frame_needed = 0, uses_anonymous_args = 0
 350              		@ link register save eliminated.
 351              	.LVL23:
 451:Generated_Source\PSoC4/TimerTestMode.c **** }
 352              		.loc 1 451 0
 353 0000 3F23     		movs	r3, #63
 354 0002 1840     		ands	r0, r3
 355              	.LVL24:
 356 0004 014B     		ldr	r3, .L20
 452:Generated_Source\PSoC4/TimerTestMode.c **** 
 357              		.loc 1 452 0
 358              		@ sp needed
 451:Generated_Source\PSoC4/TimerTestMode.c **** }
 359              		.loc 1 451 0
 360 0006 1860     		str	r0, [r3]
 452:Generated_Source\PSoC4/TimerTestMode.c **** 
 361              		.loc 1 452 0
 362 0008 7047     		bx	lr
 363              	.L21:
 364 000a C046     		.align	2
 365              	.L20:
 366 000c 68012040 		.word	1075839336
 367              		.cfi_endproc
 368              	.LFE10:
 369              		.size	TimerTestMode_SetPWMMode, .-TimerTestMode_SetPWMMode
 370              		.section	.text.TimerTestMode_SetPWMSyncKill,"ax",%progbits
 371              		.align	1
 372              		.global	TimerTestMode_SetPWMSyncKill
 373              		.code	16
 374              		.thumb_func
 375              		.type	TimerTestMode_SetPWMSyncKill, %function
 376              	TimerTestMode_SetPWMSyncKill:
 377              	.LFB11:
 486:Generated_Source\PSoC4/TimerTestMode.c ****     uint8 enableInterrupts;
 378              		.loc 1 486 0
 379              		.cfi_startproc
 380              		@ args = 0, pretend = 0, frame = 0
 381              		@ frame_needed = 0, uses_anonymous_args = 0
 382              	.LVL25:
 383 0000 10B5     		push	{r4, lr}
 384              		.cfi_def_cfa_offset 8
 385              		.cfi_offset 4, -8
 386              		.cfi_offset 14, -4
 486:Generated_Source\PSoC4/TimerTestMode.c ****     uint8 enableInterrupts;
 387              		.loc 1 486 0
 388 0002 0400     		movs	r4, r0
 489:Generated_Source\PSoC4/TimerTestMode.c **** 
 389              		.loc 1 489 0
 390 0004 FFF7FEFF 		bl	CyEnterCriticalSection
ARM GAS  C:\Users\Petro\AppData\Local\Temp\ccebLrz4.s 			page 32


 391              	.LVL26:
 491:Generated_Source\PSoC4/TimerTestMode.c ****     TimerTestMode_CONTROL_REG |= ((uint32)((syncKillEnable & TimerTestMode_1BIT_MASK)  <<
 392              		.loc 1 491 0
 393 0008 0422     		movs	r2, #4
 394 000a 064B     		ldr	r3, .L23
 492:Generated_Source\PSoC4/TimerTestMode.c ****                                                TimerTestMode_PWM_SYNC_KILL_SHIFT));
 395              		.loc 1 492 0
 396 000c A400     		lsls	r4, r4, #2
 397              	.LVL27:
 491:Generated_Source\PSoC4/TimerTestMode.c ****     TimerTestMode_CONTROL_REG |= ((uint32)((syncKillEnable & TimerTestMode_1BIT_MASK)  <<
 398              		.loc 1 491 0
 399 000e 1968     		ldr	r1, [r3]
 496:Generated_Source\PSoC4/TimerTestMode.c **** 
 400              		.loc 1 496 0
 401              		@ sp needed
 491:Generated_Source\PSoC4/TimerTestMode.c ****     TimerTestMode_CONTROL_REG |= ((uint32)((syncKillEnable & TimerTestMode_1BIT_MASK)  <<
 402              		.loc 1 491 0
 403 0010 9143     		bics	r1, r2
 404 0012 1960     		str	r1, [r3]
 492:Generated_Source\PSoC4/TimerTestMode.c ****                                                TimerTestMode_PWM_SYNC_KILL_SHIFT));
 405              		.loc 1 492 0
 406 0014 1968     		ldr	r1, [r3]
 407 0016 2240     		ands	r2, r4
 408 0018 0A43     		orrs	r2, r1
 409 001a 1A60     		str	r2, [r3]
 495:Generated_Source\PSoC4/TimerTestMode.c **** }
 410              		.loc 1 495 0
 411 001c FFF7FEFF 		bl	CyExitCriticalSection
 412              	.LVL28:
 496:Generated_Source\PSoC4/TimerTestMode.c **** 
 413              		.loc 1 496 0
 414 0020 10BD     		pop	{r4, pc}
 415              	.L24:
 416 0022 C046     		.align	2
 417              	.L23:
 418 0024 40012040 		.word	1075839296
 419              		.cfi_endproc
 420              	.LFE11:
 421              		.size	TimerTestMode_SetPWMSyncKill, .-TimerTestMode_SetPWMSyncKill
 422              		.section	.text.TimerTestMode_SetPWMStopOnKill,"ax",%progbits
 423              		.align	1
 424              		.global	TimerTestMode_SetPWMStopOnKill
 425              		.code	16
 426              		.thumb_func
 427              		.type	TimerTestMode_SetPWMStopOnKill, %function
 428              	TimerTestMode_SetPWMStopOnKill:
 429              	.LFB12:
 520:Generated_Source\PSoC4/TimerTestMode.c ****     uint8 enableInterrupts;
 430              		.loc 1 520 0
 431              		.cfi_startproc
 432              		@ args = 0, pretend = 0, frame = 0
 433              		@ frame_needed = 0, uses_anonymous_args = 0
 434              	.LVL29:
 435 0000 10B5     		push	{r4, lr}
 436              		.cfi_def_cfa_offset 8
 437              		.cfi_offset 4, -8
 438              		.cfi_offset 14, -4
ARM GAS  C:\Users\Petro\AppData\Local\Temp\ccebLrz4.s 			page 33


 520:Generated_Source\PSoC4/TimerTestMode.c ****     uint8 enableInterrupts;
 439              		.loc 1 520 0
 440 0002 0400     		movs	r4, r0
 523:Generated_Source\PSoC4/TimerTestMode.c **** 
 441              		.loc 1 523 0
 442 0004 FFF7FEFF 		bl	CyEnterCriticalSection
 443              	.LVL30:
 525:Generated_Source\PSoC4/TimerTestMode.c ****     TimerTestMode_CONTROL_REG |= ((uint32)((stopOnKillEnable & TimerTestMode_1BIT_MASK)  <<
 444              		.loc 1 525 0
 445 0008 0822     		movs	r2, #8
 446 000a 064B     		ldr	r3, .L26
 526:Generated_Source\PSoC4/TimerTestMode.c ****                                                          TimerTestMode_PWM_STOP_KILL_SHIFT));
 447              		.loc 1 526 0
 448 000c E400     		lsls	r4, r4, #3
 449              	.LVL31:
 525:Generated_Source\PSoC4/TimerTestMode.c ****     TimerTestMode_CONTROL_REG |= ((uint32)((stopOnKillEnable & TimerTestMode_1BIT_MASK)  <<
 450              		.loc 1 525 0
 451 000e 1968     		ldr	r1, [r3]
 530:Generated_Source\PSoC4/TimerTestMode.c **** 
 452              		.loc 1 530 0
 453              		@ sp needed
 525:Generated_Source\PSoC4/TimerTestMode.c ****     TimerTestMode_CONTROL_REG |= ((uint32)((stopOnKillEnable & TimerTestMode_1BIT_MASK)  <<
 454              		.loc 1 525 0
 455 0010 9143     		bics	r1, r2
 456 0012 1960     		str	r1, [r3]
 526:Generated_Source\PSoC4/TimerTestMode.c ****                                                          TimerTestMode_PWM_STOP_KILL_SHIFT));
 457              		.loc 1 526 0
 458 0014 1968     		ldr	r1, [r3]
 459 0016 2240     		ands	r2, r4
 460 0018 0A43     		orrs	r2, r1
 461 001a 1A60     		str	r2, [r3]
 529:Generated_Source\PSoC4/TimerTestMode.c **** }
 462              		.loc 1 529 0
 463 001c FFF7FEFF 		bl	CyExitCriticalSection
 464              	.LVL32:
 530:Generated_Source\PSoC4/TimerTestMode.c **** 
 465              		.loc 1 530 0
 466 0020 10BD     		pop	{r4, pc}
 467              	.L27:
 468 0022 C046     		.align	2
 469              	.L26:
 470 0024 40012040 		.word	1075839296
 471              		.cfi_endproc
 472              	.LFE12:
 473              		.size	TimerTestMode_SetPWMStopOnKill, .-TimerTestMode_SetPWMStopOnKill
 474              		.section	.text.TimerTestMode_SetPWMDeadTime,"ax",%progbits
 475              		.align	1
 476              		.global	TimerTestMode_SetPWMDeadTime
 477              		.code	16
 478              		.thumb_func
 479              		.type	TimerTestMode_SetPWMDeadTime, %function
 480              	TimerTestMode_SetPWMDeadTime:
 481              	.LFB13:
 553:Generated_Source\PSoC4/TimerTestMode.c ****     uint8 enableInterrupts;
 482              		.loc 1 553 0
 483              		.cfi_startproc
 484              		@ args = 0, pretend = 0, frame = 0
ARM GAS  C:\Users\Petro\AppData\Local\Temp\ccebLrz4.s 			page 34


 485              		@ frame_needed = 0, uses_anonymous_args = 0
 486              	.LVL33:
 487 0000 10B5     		push	{r4, lr}
 488              		.cfi_def_cfa_offset 8
 489              		.cfi_offset 4, -8
 490              		.cfi_offset 14, -4
 553:Generated_Source\PSoC4/TimerTestMode.c ****     uint8 enableInterrupts;
 491              		.loc 1 553 0
 492 0002 0400     		movs	r4, r0
 556:Generated_Source\PSoC4/TimerTestMode.c **** 
 493              		.loc 1 556 0
 494 0004 FFF7FEFF 		bl	CyEnterCriticalSection
 495              	.LVL34:
 558:Generated_Source\PSoC4/TimerTestMode.c ****     TimerTestMode_CONTROL_REG |= ((uint32)((deadTime & TimerTestMode_8BIT_MASK) <<
 496              		.loc 1 558 0
 497 0008 064B     		ldr	r3, .L29
 498 000a 074A     		ldr	r2, .L29+4
 499 000c 1968     		ldr	r1, [r3]
 559:Generated_Source\PSoC4/TimerTestMode.c ****                                                           TimerTestMode_PRESCALER_SHIFT));
 500              		.loc 1 559 0
 501 000e 2406     		lsls	r4, r4, #24
 502              	.LVL35:
 558:Generated_Source\PSoC4/TimerTestMode.c ****     TimerTestMode_CONTROL_REG |= ((uint32)((deadTime & TimerTestMode_8BIT_MASK) <<
 503              		.loc 1 558 0
 504 0010 0A40     		ands	r2, r1
 505 0012 1A60     		str	r2, [r3]
 559:Generated_Source\PSoC4/TimerTestMode.c ****                                                           TimerTestMode_PRESCALER_SHIFT));
 506              		.loc 1 559 0
 507 0014 1A68     		ldr	r2, [r3]
 508 0016 240C     		lsrs	r4, r4, #16
 509 0018 1443     		orrs	r4, r2
 510 001a 1C60     		str	r4, [r3]
 562:Generated_Source\PSoC4/TimerTestMode.c **** }
 511              		.loc 1 562 0
 512 001c FFF7FEFF 		bl	CyExitCriticalSection
 513              	.LVL36:
 563:Generated_Source\PSoC4/TimerTestMode.c **** 
 514              		.loc 1 563 0
 515              		@ sp needed
 516 0020 10BD     		pop	{r4, pc}
 517              	.L30:
 518 0022 C046     		.align	2
 519              	.L29:
 520 0024 40012040 		.word	1075839296
 521 0028 FF00FFFF 		.word	-65281
 522              		.cfi_endproc
 523              	.LFE13:
 524              		.size	TimerTestMode_SetPWMDeadTime, .-TimerTestMode_SetPWMDeadTime
 525              		.section	.text.TimerTestMode_SetPWMInvert,"ax",%progbits
 526              		.align	1
 527              		.global	TimerTestMode_SetPWMInvert
 528              		.code	16
 529              		.thumb_func
 530              		.type	TimerTestMode_SetPWMInvert, %function
 531              	TimerTestMode_SetPWMInvert:
 532              	.LFB14:
 586:Generated_Source\PSoC4/TimerTestMode.c ****     uint8 enableInterrupts;
ARM GAS  C:\Users\Petro\AppData\Local\Temp\ccebLrz4.s 			page 35


 533              		.loc 1 586 0
 534              		.cfi_startproc
 535              		@ args = 0, pretend = 0, frame = 0
 536              		@ frame_needed = 0, uses_anonymous_args = 0
 537              	.LVL37:
 538 0000 10B5     		push	{r4, lr}
 539              		.cfi_def_cfa_offset 8
 540              		.cfi_offset 4, -8
 541              		.cfi_offset 14, -4
 586:Generated_Source\PSoC4/TimerTestMode.c ****     uint8 enableInterrupts;
 542              		.loc 1 586 0
 543 0002 0400     		movs	r4, r0
 589:Generated_Source\PSoC4/TimerTestMode.c **** 
 544              		.loc 1 589 0
 545 0004 FFF7FEFF 		bl	CyEnterCriticalSection
 546              	.LVL38:
 591:Generated_Source\PSoC4/TimerTestMode.c ****     TimerTestMode_CONTROL_REG |= mask;
 547              		.loc 1 591 0
 548 0008 054B     		ldr	r3, .L32
 549 000a 064A     		ldr	r2, .L32+4
 550 000c 1968     		ldr	r1, [r3]
 595:Generated_Source\PSoC4/TimerTestMode.c **** 
 551              		.loc 1 595 0
 552              		@ sp needed
 591:Generated_Source\PSoC4/TimerTestMode.c ****     TimerTestMode_CONTROL_REG |= mask;
 553              		.loc 1 591 0
 554 000e 0A40     		ands	r2, r1
 555 0010 1A60     		str	r2, [r3]
 592:Generated_Source\PSoC4/TimerTestMode.c **** 
 556              		.loc 1 592 0
 557 0012 1A68     		ldr	r2, [r3]
 558 0014 1443     		orrs	r4, r2
 559              	.LVL39:
 560 0016 1C60     		str	r4, [r3]
 594:Generated_Source\PSoC4/TimerTestMode.c **** }
 561              		.loc 1 594 0
 562 0018 FFF7FEFF 		bl	CyExitCriticalSection
 563              	.LVL40:
 595:Generated_Source\PSoC4/TimerTestMode.c **** 
 564              		.loc 1 595 0
 565 001c 10BD     		pop	{r4, pc}
 566              	.L33:
 567 001e C046     		.align	2
 568              	.L32:
 569 0020 40012040 		.word	1075839296
 570 0024 FFFFCFFF 		.word	-3145729
 571              		.cfi_endproc
 572              	.LFE14:
 573              		.size	TimerTestMode_SetPWMInvert, .-TimerTestMode_SetPWMInvert
 574              		.section	.text.TimerTestMode_WriteCounter,"ax",%progbits
 575              		.align	1
 576              		.global	TimerTestMode_WriteCounter
 577              		.code	16
 578              		.thumb_func
 579              		.type	TimerTestMode_WriteCounter, %function
 580              	TimerTestMode_WriteCounter:
 581              	.LFB15:
ARM GAS  C:\Users\Petro\AppData\Local\Temp\ccebLrz4.s 			page 36


 616:Generated_Source\PSoC4/TimerTestMode.c ****     TimerTestMode_COUNTER_REG = (count & TimerTestMode_16BIT_MASK);
 582              		.loc 1 616 0
 583              		.cfi_startproc
 584              		@ args = 0, pretend = 0, frame = 0
 585              		@ frame_needed = 0, uses_anonymous_args = 0
 586              		@ link register save eliminated.
 587              	.LVL41:
 617:Generated_Source\PSoC4/TimerTestMode.c **** }
 588              		.loc 1 617 0
 589 0000 014B     		ldr	r3, .L35
 590 0002 80B2     		uxth	r0, r0
 591              	.LVL42:
 592 0004 1860     		str	r0, [r3]
 618:Generated_Source\PSoC4/TimerTestMode.c **** 
 593              		.loc 1 618 0
 594              		@ sp needed
 595 0006 7047     		bx	lr
 596              	.L36:
 597              		.align	2
 598              	.L35:
 599 0008 48012040 		.word	1075839304
 600              		.cfi_endproc
 601              	.LFE15:
 602              		.size	TimerTestMode_WriteCounter, .-TimerTestMode_WriteCounter
 603              		.section	.text.TimerTestMode_ReadCounter,"ax",%progbits
 604              		.align	1
 605              		.global	TimerTestMode_ReadCounter
 606              		.code	16
 607              		.thumb_func
 608              		.type	TimerTestMode_ReadCounter, %function
 609              	TimerTestMode_ReadCounter:
 610              	.LFB16:
 636:Generated_Source\PSoC4/TimerTestMode.c ****     return (TimerTestMode_COUNTER_REG & TimerTestMode_16BIT_MASK);
 611              		.loc 1 636 0
 612              		.cfi_startproc
 613              		@ args = 0, pretend = 0, frame = 0
 614              		@ frame_needed = 0, uses_anonymous_args = 0
 615              		@ link register save eliminated.
 637:Generated_Source\PSoC4/TimerTestMode.c **** }
 616              		.loc 1 637 0
 617 0000 014B     		ldr	r3, .L38
 638:Generated_Source\PSoC4/TimerTestMode.c **** 
 618              		.loc 1 638 0
 619              		@ sp needed
 637:Generated_Source\PSoC4/TimerTestMode.c **** }
 620              		.loc 1 637 0
 621 0002 1868     		ldr	r0, [r3]
 622 0004 80B2     		uxth	r0, r0
 638:Generated_Source\PSoC4/TimerTestMode.c **** 
 623              		.loc 1 638 0
 624 0006 7047     		bx	lr
 625              	.L39:
 626              		.align	2
 627              	.L38:
 628 0008 48012040 		.word	1075839304
 629              		.cfi_endproc
 630              	.LFE16:
ARM GAS  C:\Users\Petro\AppData\Local\Temp\ccebLrz4.s 			page 37


 631              		.size	TimerTestMode_ReadCounter, .-TimerTestMode_ReadCounter
 632              		.section	.text.TimerTestMode_SetCounterMode,"ax",%progbits
 633              		.align	1
 634              		.global	TimerTestMode_SetCounterMode
 635              		.code	16
 636              		.thumb_func
 637              		.type	TimerTestMode_SetCounterMode, %function
 638              	TimerTestMode_SetCounterMode:
 639              	.LFB17:
 665:Generated_Source\PSoC4/TimerTestMode.c ****     uint8 enableInterrupts;
 640              		.loc 1 665 0
 641              		.cfi_startproc
 642              		@ args = 0, pretend = 0, frame = 0
 643              		@ frame_needed = 0, uses_anonymous_args = 0
 644              	.LVL43:
 645 0000 10B5     		push	{r4, lr}
 646              		.cfi_def_cfa_offset 8
 647              		.cfi_offset 4, -8
 648              		.cfi_offset 14, -4
 665:Generated_Source\PSoC4/TimerTestMode.c ****     uint8 enableInterrupts;
 649              		.loc 1 665 0
 650 0002 0400     		movs	r4, r0
 668:Generated_Source\PSoC4/TimerTestMode.c **** 
 651              		.loc 1 668 0
 652 0004 FFF7FEFF 		bl	CyEnterCriticalSection
 653              	.LVL44:
 670:Generated_Source\PSoC4/TimerTestMode.c ****     TimerTestMode_CONTROL_REG |= counterMode;
 654              		.loc 1 670 0
 655 0008 054B     		ldr	r3, .L41
 656 000a 064A     		ldr	r2, .L41+4
 657 000c 1968     		ldr	r1, [r3]
 674:Generated_Source\PSoC4/TimerTestMode.c **** 
 658              		.loc 1 674 0
 659              		@ sp needed
 670:Generated_Source\PSoC4/TimerTestMode.c ****     TimerTestMode_CONTROL_REG |= counterMode;
 660              		.loc 1 670 0
 661 000e 0A40     		ands	r2, r1
 662 0010 1A60     		str	r2, [r3]
 671:Generated_Source\PSoC4/TimerTestMode.c **** 
 663              		.loc 1 671 0
 664 0012 1A68     		ldr	r2, [r3]
 665 0014 1443     		orrs	r4, r2
 666              	.LVL45:
 667 0016 1C60     		str	r4, [r3]
 673:Generated_Source\PSoC4/TimerTestMode.c **** }
 668              		.loc 1 673 0
 669 0018 FFF7FEFF 		bl	CyExitCriticalSection
 670              	.LVL46:
 674:Generated_Source\PSoC4/TimerTestMode.c **** 
 671              		.loc 1 674 0
 672 001c 10BD     		pop	{r4, pc}
 673              	.L42:
 674 001e C046     		.align	2
 675              	.L41:
 676 0020 40012040 		.word	1075839296
 677 0024 FFFFFCFF 		.word	-196609
 678              		.cfi_endproc
ARM GAS  C:\Users\Petro\AppData\Local\Temp\ccebLrz4.s 			page 38


 679              	.LFE17:
 680              		.size	TimerTestMode_SetCounterMode, .-TimerTestMode_SetCounterMode
 681              		.section	.text.TimerTestMode_WritePeriod,"ax",%progbits
 682              		.align	1
 683              		.global	TimerTestMode_WritePeriod
 684              		.code	16
 685              		.thumb_func
 686              		.type	TimerTestMode_WritePeriod, %function
 687              	TimerTestMode_WritePeriod:
 688              	.LFB18:
 694:Generated_Source\PSoC4/TimerTestMode.c ****     TimerTestMode_PERIOD_REG = (period & TimerTestMode_16BIT_MASK);
 689              		.loc 1 694 0
 690              		.cfi_startproc
 691              		@ args = 0, pretend = 0, frame = 0
 692              		@ frame_needed = 0, uses_anonymous_args = 0
 693              		@ link register save eliminated.
 694              	.LVL47:
 695:Generated_Source\PSoC4/TimerTestMode.c **** }
 695              		.loc 1 695 0
 696 0000 014B     		ldr	r3, .L44
 697 0002 80B2     		uxth	r0, r0
 698              	.LVL48:
 699 0004 1860     		str	r0, [r3]
 696:Generated_Source\PSoC4/TimerTestMode.c **** 
 700              		.loc 1 696 0
 701              		@ sp needed
 702 0006 7047     		bx	lr
 703              	.L45:
 704              		.align	2
 705              	.L44:
 706 0008 54012040 		.word	1075839316
 707              		.cfi_endproc
 708              	.LFE18:
 709              		.size	TimerTestMode_WritePeriod, .-TimerTestMode_WritePeriod
 710              		.section	.text.TimerTestMode_ReadPeriod,"ax",%progbits
 711              		.align	1
 712              		.global	TimerTestMode_ReadPeriod
 713              		.code	16
 714              		.thumb_func
 715              		.type	TimerTestMode_ReadPeriod, %function
 716              	TimerTestMode_ReadPeriod:
 717              	.LFB19:
 714:Generated_Source\PSoC4/TimerTestMode.c ****     return (TimerTestMode_PERIOD_REG & TimerTestMode_16BIT_MASK);
 718              		.loc 1 714 0
 719              		.cfi_startproc
 720              		@ args = 0, pretend = 0, frame = 0
 721              		@ frame_needed = 0, uses_anonymous_args = 0
 722              		@ link register save eliminated.
 715:Generated_Source\PSoC4/TimerTestMode.c **** }
 723              		.loc 1 715 0
 724 0000 014B     		ldr	r3, .L47
 716:Generated_Source\PSoC4/TimerTestMode.c **** 
 725              		.loc 1 716 0
 726              		@ sp needed
 715:Generated_Source\PSoC4/TimerTestMode.c **** }
 727              		.loc 1 715 0
 728 0002 1868     		ldr	r0, [r3]
ARM GAS  C:\Users\Petro\AppData\Local\Temp\ccebLrz4.s 			page 39


 729 0004 80B2     		uxth	r0, r0
 716:Generated_Source\PSoC4/TimerTestMode.c **** 
 730              		.loc 1 716 0
 731 0006 7047     		bx	lr
 732              	.L48:
 733              		.align	2
 734              	.L47:
 735 0008 54012040 		.word	1075839316
 736              		.cfi_endproc
 737              	.LFE19:
 738              		.size	TimerTestMode_ReadPeriod, .-TimerTestMode_ReadPeriod
 739              		.section	.text.TimerTestMode_SetCompareSwap,"ax",%progbits
 740              		.align	1
 741              		.global	TimerTestMode_SetCompareSwap
 742              		.code	16
 743              		.thumb_func
 744              		.type	TimerTestMode_SetCompareSwap, %function
 745              	TimerTestMode_SetCompareSwap:
 746              	.LFB20:
 740:Generated_Source\PSoC4/TimerTestMode.c ****     uint8 enableInterrupts;
 747              		.loc 1 740 0
 748              		.cfi_startproc
 749              		@ args = 0, pretend = 0, frame = 0
 750              		@ frame_needed = 0, uses_anonymous_args = 0
 751              	.LVL49:
 752 0000 10B5     		push	{r4, lr}
 753              		.cfi_def_cfa_offset 8
 754              		.cfi_offset 4, -8
 755              		.cfi_offset 14, -4
 740:Generated_Source\PSoC4/TimerTestMode.c ****     uint8 enableInterrupts;
 756              		.loc 1 740 0
 757 0002 0400     		movs	r4, r0
 743:Generated_Source\PSoC4/TimerTestMode.c **** 
 758              		.loc 1 743 0
 759 0004 FFF7FEFF 		bl	CyEnterCriticalSection
 760              	.LVL50:
 745:Generated_Source\PSoC4/TimerTestMode.c ****     TimerTestMode_CONTROL_REG |= (swapEnable & TimerTestMode_1BIT_MASK);
 761              		.loc 1 745 0
 762 0008 0122     		movs	r2, #1
 763 000a 054B     		ldr	r3, .L50
 749:Generated_Source\PSoC4/TimerTestMode.c **** 
 764              		.loc 1 749 0
 765              		@ sp needed
 745:Generated_Source\PSoC4/TimerTestMode.c ****     TimerTestMode_CONTROL_REG |= (swapEnable & TimerTestMode_1BIT_MASK);
 766              		.loc 1 745 0
 767 000c 1968     		ldr	r1, [r3]
 768 000e 9143     		bics	r1, r2
 769 0010 1960     		str	r1, [r3]
 746:Generated_Source\PSoC4/TimerTestMode.c **** 
 770              		.loc 1 746 0
 771 0012 1968     		ldr	r1, [r3]
 772 0014 2240     		ands	r2, r4
 773 0016 0A43     		orrs	r2, r1
 774 0018 1A60     		str	r2, [r3]
 748:Generated_Source\PSoC4/TimerTestMode.c **** }
 775              		.loc 1 748 0
 776 001a FFF7FEFF 		bl	CyExitCriticalSection
ARM GAS  C:\Users\Petro\AppData\Local\Temp\ccebLrz4.s 			page 40


 777              	.LVL51:
 778              	.LVL52:
 749:Generated_Source\PSoC4/TimerTestMode.c **** 
 779              		.loc 1 749 0
 780 001e 10BD     		pop	{r4, pc}
 781              	.L51:
 782              		.align	2
 783              	.L50:
 784 0020 40012040 		.word	1075839296
 785              		.cfi_endproc
 786              	.LFE20:
 787              		.size	TimerTestMode_SetCompareSwap, .-TimerTestMode_SetCompareSwap
 788              		.section	.text.TimerTestMode_WritePeriodBuf,"ax",%progbits
 789              		.align	1
 790              		.global	TimerTestMode_WritePeriodBuf
 791              		.code	16
 792              		.thumb_func
 793              		.type	TimerTestMode_WritePeriodBuf, %function
 794              	TimerTestMode_WritePeriodBuf:
 795              	.LFB21:
 767:Generated_Source\PSoC4/TimerTestMode.c ****     TimerTestMode_PERIOD_BUF_REG = (periodBuf & TimerTestMode_16BIT_MASK);
 796              		.loc 1 767 0
 797              		.cfi_startproc
 798              		@ args = 0, pretend = 0, frame = 0
 799              		@ frame_needed = 0, uses_anonymous_args = 0
 800              		@ link register save eliminated.
 801              	.LVL53:
 768:Generated_Source\PSoC4/TimerTestMode.c **** }
 802              		.loc 1 768 0
 803 0000 014B     		ldr	r3, .L53
 804 0002 80B2     		uxth	r0, r0
 805              	.LVL54:
 806 0004 1860     		str	r0, [r3]
 769:Generated_Source\PSoC4/TimerTestMode.c **** 
 807              		.loc 1 769 0
 808              		@ sp needed
 809 0006 7047     		bx	lr
 810              	.L54:
 811              		.align	2
 812              	.L53:
 813 0008 58012040 		.word	1075839320
 814              		.cfi_endproc
 815              	.LFE21:
 816              		.size	TimerTestMode_WritePeriodBuf, .-TimerTestMode_WritePeriodBuf
 817              		.section	.text.TimerTestMode_ReadPeriodBuf,"ax",%progbits
 818              		.align	1
 819              		.global	TimerTestMode_ReadPeriodBuf
 820              		.code	16
 821              		.thumb_func
 822              		.type	TimerTestMode_ReadPeriodBuf, %function
 823              	TimerTestMode_ReadPeriodBuf:
 824              	.LFB22:
 787:Generated_Source\PSoC4/TimerTestMode.c ****     return (TimerTestMode_PERIOD_BUF_REG & TimerTestMode_16BIT_MASK);
 825              		.loc 1 787 0
 826              		.cfi_startproc
 827              		@ args = 0, pretend = 0, frame = 0
 828              		@ frame_needed = 0, uses_anonymous_args = 0
ARM GAS  C:\Users\Petro\AppData\Local\Temp\ccebLrz4.s 			page 41


 829              		@ link register save eliminated.
 788:Generated_Source\PSoC4/TimerTestMode.c **** }
 830              		.loc 1 788 0
 831 0000 014B     		ldr	r3, .L56
 789:Generated_Source\PSoC4/TimerTestMode.c **** 
 832              		.loc 1 789 0
 833              		@ sp needed
 788:Generated_Source\PSoC4/TimerTestMode.c **** }
 834              		.loc 1 788 0
 835 0002 1868     		ldr	r0, [r3]
 836 0004 80B2     		uxth	r0, r0
 789:Generated_Source\PSoC4/TimerTestMode.c **** 
 837              		.loc 1 789 0
 838 0006 7047     		bx	lr
 839              	.L57:
 840              		.align	2
 841              	.L56:
 842 0008 58012040 		.word	1075839320
 843              		.cfi_endproc
 844              	.LFE22:
 845              		.size	TimerTestMode_ReadPeriodBuf, .-TimerTestMode_ReadPeriodBuf
 846              		.section	.text.TimerTestMode_SetPeriodSwap,"ax",%progbits
 847              		.align	1
 848              		.global	TimerTestMode_SetPeriodSwap
 849              		.code	16
 850              		.thumb_func
 851              		.type	TimerTestMode_SetPeriodSwap, %function
 852              	TimerTestMode_SetPeriodSwap:
 853              	.LFB23:
 813:Generated_Source\PSoC4/TimerTestMode.c ****     uint8 enableInterrupts;
 854              		.loc 1 813 0
 855              		.cfi_startproc
 856              		@ args = 0, pretend = 0, frame = 0
 857              		@ frame_needed = 0, uses_anonymous_args = 0
 858              	.LVL55:
 859 0000 10B5     		push	{r4, lr}
 860              		.cfi_def_cfa_offset 8
 861              		.cfi_offset 4, -8
 862              		.cfi_offset 14, -4
 813:Generated_Source\PSoC4/TimerTestMode.c ****     uint8 enableInterrupts;
 863              		.loc 1 813 0
 864 0002 0400     		movs	r4, r0
 816:Generated_Source\PSoC4/TimerTestMode.c **** 
 865              		.loc 1 816 0
 866 0004 FFF7FEFF 		bl	CyEnterCriticalSection
 867              	.LVL56:
 818:Generated_Source\PSoC4/TimerTestMode.c ****     TimerTestMode_CONTROL_REG |= ((uint32)((swapEnable & TimerTestMode_1BIT_MASK) <<
 868              		.loc 1 818 0
 869 0008 0222     		movs	r2, #2
 870 000a 064B     		ldr	r3, .L59
 819:Generated_Source\PSoC4/TimerTestMode.c ****                                                             TimerTestMode_RELOAD_PERIOD_SHIFT));
 871              		.loc 1 819 0
 872 000c 6400     		lsls	r4, r4, #1
 873              	.LVL57:
 818:Generated_Source\PSoC4/TimerTestMode.c ****     TimerTestMode_CONTROL_REG |= ((uint32)((swapEnable & TimerTestMode_1BIT_MASK) <<
 874              		.loc 1 818 0
 875 000e 1968     		ldr	r1, [r3]
ARM GAS  C:\Users\Petro\AppData\Local\Temp\ccebLrz4.s 			page 42


 823:Generated_Source\PSoC4/TimerTestMode.c **** 
 876              		.loc 1 823 0
 877              		@ sp needed
 818:Generated_Source\PSoC4/TimerTestMode.c ****     TimerTestMode_CONTROL_REG |= ((uint32)((swapEnable & TimerTestMode_1BIT_MASK) <<
 878              		.loc 1 818 0
 879 0010 9143     		bics	r1, r2
 880 0012 1960     		str	r1, [r3]
 819:Generated_Source\PSoC4/TimerTestMode.c ****                                                             TimerTestMode_RELOAD_PERIOD_SHIFT));
 881              		.loc 1 819 0
 882 0014 1968     		ldr	r1, [r3]
 883 0016 2240     		ands	r2, r4
 884 0018 0A43     		orrs	r2, r1
 885 001a 1A60     		str	r2, [r3]
 822:Generated_Source\PSoC4/TimerTestMode.c **** }
 886              		.loc 1 822 0
 887 001c FFF7FEFF 		bl	CyExitCriticalSection
 888              	.LVL58:
 823:Generated_Source\PSoC4/TimerTestMode.c **** 
 889              		.loc 1 823 0
 890 0020 10BD     		pop	{r4, pc}
 891              	.L60:
 892 0022 C046     		.align	2
 893              	.L59:
 894 0024 40012040 		.word	1075839296
 895              		.cfi_endproc
 896              	.LFE23:
 897              		.size	TimerTestMode_SetPeriodSwap, .-TimerTestMode_SetPeriodSwap
 898              		.section	.text.TimerTestMode_WriteCompare,"ax",%progbits
 899              		.align	1
 900              		.global	TimerTestMode_WriteCompare
 901              		.code	16
 902              		.thumb_func
 903              		.type	TimerTestMode_WriteCompare, %function
 904              	TimerTestMode_WriteCompare:
 905              	.LFB24:
 850:Generated_Source\PSoC4/TimerTestMode.c ****     #if (TimerTestMode_CY_TCPWM_4000)
 906              		.loc 1 850 0
 907              		.cfi_startproc
 908              		@ args = 0, pretend = 0, frame = 0
 909              		@ frame_needed = 0, uses_anonymous_args = 0
 910              		@ link register save eliminated.
 911              	.LVL59:
 873:Generated_Source\PSoC4/TimerTestMode.c **** }
 912              		.loc 1 873 0
 913 0000 014B     		ldr	r3, .L62
 914 0002 80B2     		uxth	r0, r0
 915              	.LVL60:
 916 0004 1860     		str	r0, [r3]
 874:Generated_Source\PSoC4/TimerTestMode.c **** 
 917              		.loc 1 874 0
 918              		@ sp needed
 919 0006 7047     		bx	lr
 920              	.L63:
 921              		.align	2
 922              	.L62:
 923 0008 4C012040 		.word	1075839308
 924              		.cfi_endproc
ARM GAS  C:\Users\Petro\AppData\Local\Temp\ccebLrz4.s 			page 43


 925              	.LFE24:
 926              		.size	TimerTestMode_WriteCompare, .-TimerTestMode_WriteCompare
 927              		.section	.text.TimerTestMode_ReadCompare,"ax",%progbits
 928              		.align	1
 929              		.global	TimerTestMode_ReadCompare
 930              		.code	16
 931              		.thumb_func
 932              		.type	TimerTestMode_ReadCompare, %function
 933              	TimerTestMode_ReadCompare:
 934              	.LFB45:
 935              		.cfi_startproc
 936              		@ args = 0, pretend = 0, frame = 0
 937              		@ frame_needed = 0, uses_anonymous_args = 0
 938              		@ link register save eliminated.
 939 0000 014B     		ldr	r3, .L65
 940              		@ sp needed
 941 0002 1868     		ldr	r0, [r3]
 942 0004 80B2     		uxth	r0, r0
 943 0006 7047     		bx	lr
 944              	.L66:
 945              		.align	2
 946              	.L65:
 947 0008 4C012040 		.word	1075839308
 948              		.cfi_endproc
 949              	.LFE45:
 950              		.size	TimerTestMode_ReadCompare, .-TimerTestMode_ReadCompare
 951              		.section	.text.TimerTestMode_WriteCompareBuf,"ax",%progbits
 952              		.align	1
 953              		.global	TimerTestMode_WriteCompareBuf
 954              		.code	16
 955              		.thumb_func
 956              		.type	TimerTestMode_WriteCompareBuf, %function
 957              	TimerTestMode_WriteCompareBuf:
 958              	.LFB26:
 955:Generated_Source\PSoC4/TimerTestMode.c ****     #if (TimerTestMode_CY_TCPWM_4000)
 959              		.loc 1 955 0
 960              		.cfi_startproc
 961              		@ args = 0, pretend = 0, frame = 0
 962              		@ frame_needed = 0, uses_anonymous_args = 0
 963              		@ link register save eliminated.
 964              	.LVL61:
 976:Generated_Source\PSoC4/TimerTestMode.c **** }
 965              		.loc 1 976 0
 966 0000 014B     		ldr	r3, .L68
 967 0002 80B2     		uxth	r0, r0
 968              	.LVL62:
 969 0004 1860     		str	r0, [r3]
 977:Generated_Source\PSoC4/TimerTestMode.c **** 
 970              		.loc 1 977 0
 971              		@ sp needed
 972 0006 7047     		bx	lr
 973              	.L69:
 974              		.align	2
 975              	.L68:
 976 0008 50012040 		.word	1075839312
 977              		.cfi_endproc
 978              	.LFE26:
ARM GAS  C:\Users\Petro\AppData\Local\Temp\ccebLrz4.s 			page 44


 979              		.size	TimerTestMode_WriteCompareBuf, .-TimerTestMode_WriteCompareBuf
 980              		.section	.text.TimerTestMode_ReadCompareBuf,"ax",%progbits
 981              		.align	1
 982              		.global	TimerTestMode_ReadCompareBuf
 983              		.code	16
 984              		.thumb_func
 985              		.type	TimerTestMode_ReadCompareBuf, %function
 986              	TimerTestMode_ReadCompareBuf:
 987              	.LFB43:
 988              		.cfi_startproc
 989              		@ args = 0, pretend = 0, frame = 0
 990              		@ frame_needed = 0, uses_anonymous_args = 0
 991              		@ link register save eliminated.
 992 0000 014B     		ldr	r3, .L71
 993              		@ sp needed
 994 0002 1868     		ldr	r0, [r3]
 995 0004 80B2     		uxth	r0, r0
 996 0006 7047     		bx	lr
 997              	.L72:
 998              		.align	2
 999              	.L71:
 1000 0008 50012040 		.word	1075839312
 1001              		.cfi_endproc
 1002              	.LFE43:
 1003              		.size	TimerTestMode_ReadCompareBuf, .-TimerTestMode_ReadCompareBuf
 1004              		.section	.text.TimerTestMode_ReadCapture,"ax",%progbits
 1005              		.align	1
 1006              		.global	TimerTestMode_ReadCapture
 1007              		.code	16
 1008              		.thumb_func
 1009              		.type	TimerTestMode_ReadCapture, %function
 1010              	TimerTestMode_ReadCapture:
 1011              	.LFB28:
1047:Generated_Source\PSoC4/TimerTestMode.c ****     return (TimerTestMode_COMP_CAP_REG & TimerTestMode_16BIT_MASK);
 1012              		.loc 1 1047 0
 1013              		.cfi_startproc
 1014              		@ args = 0, pretend = 0, frame = 0
 1015              		@ frame_needed = 0, uses_anonymous_args = 0
 1016              		@ link register save eliminated.
1048:Generated_Source\PSoC4/TimerTestMode.c **** }
 1017              		.loc 1 1048 0
 1018 0000 014B     		ldr	r3, .L74
1049:Generated_Source\PSoC4/TimerTestMode.c **** 
 1019              		.loc 1 1049 0
 1020              		@ sp needed
1048:Generated_Source\PSoC4/TimerTestMode.c **** }
 1021              		.loc 1 1048 0
 1022 0002 1868     		ldr	r0, [r3]
 1023 0004 80B2     		uxth	r0, r0
1049:Generated_Source\PSoC4/TimerTestMode.c **** 
 1024              		.loc 1 1049 0
 1025 0006 7047     		bx	lr
 1026              	.L75:
 1027              		.align	2
 1028              	.L74:
 1029 0008 4C012040 		.word	1075839308
 1030              		.cfi_endproc
ARM GAS  C:\Users\Petro\AppData\Local\Temp\ccebLrz4.s 			page 45


 1031              	.LFE28:
 1032              		.size	TimerTestMode_ReadCapture, .-TimerTestMode_ReadCapture
 1033              		.section	.text.TimerTestMode_ReadCaptureBuf,"ax",%progbits
 1034              		.align	1
 1035              		.global	TimerTestMode_ReadCaptureBuf
 1036              		.code	16
 1037              		.thumb_func
 1038              		.type	TimerTestMode_ReadCaptureBuf, %function
 1039              	TimerTestMode_ReadCaptureBuf:
 1040              	.LFB29:
1068:Generated_Source\PSoC4/TimerTestMode.c ****     return (TimerTestMode_COMP_CAP_BUF_REG & TimerTestMode_16BIT_MASK);
 1041              		.loc 1 1068 0
 1042              		.cfi_startproc
 1043              		@ args = 0, pretend = 0, frame = 0
 1044              		@ frame_needed = 0, uses_anonymous_args = 0
 1045              		@ link register save eliminated.
1069:Generated_Source\PSoC4/TimerTestMode.c **** }
 1046              		.loc 1 1069 0
 1047 0000 014B     		ldr	r3, .L77
1070:Generated_Source\PSoC4/TimerTestMode.c **** 
 1048              		.loc 1 1070 0
 1049              		@ sp needed
1069:Generated_Source\PSoC4/TimerTestMode.c **** }
 1050              		.loc 1 1069 0
 1051 0002 1868     		ldr	r0, [r3]
 1052 0004 80B2     		uxth	r0, r0
1070:Generated_Source\PSoC4/TimerTestMode.c **** 
 1053              		.loc 1 1070 0
 1054 0006 7047     		bx	lr
 1055              	.L78:
 1056              		.align	2
 1057              	.L77:
 1058 0008 50012040 		.word	1075839312
 1059              		.cfi_endproc
 1060              	.LFE29:
 1061              		.size	TimerTestMode_ReadCaptureBuf, .-TimerTestMode_ReadCaptureBuf
 1062              		.section	.text.TimerTestMode_SetCaptureMode,"ax",%progbits
 1063              		.align	1
 1064              		.global	TimerTestMode_SetCaptureMode
 1065              		.code	16
 1066              		.thumb_func
 1067              		.type	TimerTestMode_SetCaptureMode, %function
 1068              	TimerTestMode_SetCaptureMode:
 1069              	.LFB30:
1095:Generated_Source\PSoC4/TimerTestMode.c ****     uint8 enableInterrupts;
 1070              		.loc 1 1095 0
 1071              		.cfi_startproc
 1072              		@ args = 0, pretend = 0, frame = 0
 1073              		@ frame_needed = 0, uses_anonymous_args = 0
 1074              	.LVL63:
 1075 0000 10B5     		push	{r4, lr}
 1076              		.cfi_def_cfa_offset 8
 1077              		.cfi_offset 4, -8
 1078              		.cfi_offset 14, -4
1095:Generated_Source\PSoC4/TimerTestMode.c ****     uint8 enableInterrupts;
 1079              		.loc 1 1095 0
 1080 0002 0400     		movs	r4, r0
ARM GAS  C:\Users\Petro\AppData\Local\Temp\ccebLrz4.s 			page 46


1098:Generated_Source\PSoC4/TimerTestMode.c **** 
 1081              		.loc 1 1098 0
 1082 0004 FFF7FEFF 		bl	CyEnterCriticalSection
 1083              	.LVL64:
1100:Generated_Source\PSoC4/TimerTestMode.c ****     TimerTestMode_TRIG_CONTROL1_REG |= triggerMode;
 1084              		.loc 1 1100 0
 1085 0008 0321     		movs	r1, #3
 1086 000a 054B     		ldr	r3, .L80
1104:Generated_Source\PSoC4/TimerTestMode.c **** 
 1087              		.loc 1 1104 0
 1088              		@ sp needed
1100:Generated_Source\PSoC4/TimerTestMode.c ****     TimerTestMode_TRIG_CONTROL1_REG |= triggerMode;
 1089              		.loc 1 1100 0
 1090 000c 1A68     		ldr	r2, [r3]
 1091 000e 8A43     		bics	r2, r1
 1092 0010 1A60     		str	r2, [r3]
1101:Generated_Source\PSoC4/TimerTestMode.c **** 
 1093              		.loc 1 1101 0
 1094 0012 1A68     		ldr	r2, [r3]
 1095 0014 1443     		orrs	r4, r2
 1096              	.LVL65:
 1097 0016 1C60     		str	r4, [r3]
1103:Generated_Source\PSoC4/TimerTestMode.c **** }
 1098              		.loc 1 1103 0
 1099 0018 FFF7FEFF 		bl	CyExitCriticalSection
 1100              	.LVL66:
1104:Generated_Source\PSoC4/TimerTestMode.c **** 
 1101              		.loc 1 1104 0
 1102 001c 10BD     		pop	{r4, pc}
 1103              	.L81:
 1104 001e C046     		.align	2
 1105              	.L80:
 1106 0020 64012040 		.word	1075839332
 1107              		.cfi_endproc
 1108              	.LFE30:
 1109              		.size	TimerTestMode_SetCaptureMode, .-TimerTestMode_SetCaptureMode
 1110              		.section	.text.TimerTestMode_SetReloadMode,"ax",%progbits
 1111              		.align	1
 1112              		.global	TimerTestMode_SetReloadMode
 1113              		.code	16
 1114              		.thumb_func
 1115              		.type	TimerTestMode_SetReloadMode, %function
 1116              	TimerTestMode_SetReloadMode:
 1117              	.LFB31:
1128:Generated_Source\PSoC4/TimerTestMode.c ****     uint8 enableInterrupts;
 1118              		.loc 1 1128 0
 1119              		.cfi_startproc
 1120              		@ args = 0, pretend = 0, frame = 0
 1121              		@ frame_needed = 0, uses_anonymous_args = 0
 1122              	.LVL67:
 1123 0000 10B5     		push	{r4, lr}
 1124              		.cfi_def_cfa_offset 8
 1125              		.cfi_offset 4, -8
 1126              		.cfi_offset 14, -4
1128:Generated_Source\PSoC4/TimerTestMode.c ****     uint8 enableInterrupts;
 1127              		.loc 1 1128 0
 1128 0002 0400     		movs	r4, r0
ARM GAS  C:\Users\Petro\AppData\Local\Temp\ccebLrz4.s 			page 47


1131:Generated_Source\PSoC4/TimerTestMode.c **** 
 1129              		.loc 1 1131 0
 1130 0004 FFF7FEFF 		bl	CyEnterCriticalSection
 1131              	.LVL68:
1133:Generated_Source\PSoC4/TimerTestMode.c ****     TimerTestMode_TRIG_CONTROL1_REG |= ((uint32)(triggerMode << TimerTestMode_RELOAD_SHIFT));
 1132              		.loc 1 1133 0
 1133 0008 3021     		movs	r1, #48
 1134 000a 054B     		ldr	r3, .L83
1137:Generated_Source\PSoC4/TimerTestMode.c **** 
 1135              		.loc 1 1137 0
 1136              		@ sp needed
1133:Generated_Source\PSoC4/TimerTestMode.c ****     TimerTestMode_TRIG_CONTROL1_REG |= ((uint32)(triggerMode << TimerTestMode_RELOAD_SHIFT));
 1137              		.loc 1 1133 0
 1138 000c 1A68     		ldr	r2, [r3]
 1139 000e 8A43     		bics	r2, r1
 1140 0010 1A60     		str	r2, [r3]
1134:Generated_Source\PSoC4/TimerTestMode.c **** 
 1141              		.loc 1 1134 0
 1142 0012 1968     		ldr	r1, [r3]
 1143 0014 2201     		lsls	r2, r4, #4
 1144 0016 0A43     		orrs	r2, r1
 1145 0018 1A60     		str	r2, [r3]
1136:Generated_Source\PSoC4/TimerTestMode.c **** }
 1146              		.loc 1 1136 0
 1147 001a FFF7FEFF 		bl	CyExitCriticalSection
 1148              	.LVL69:
 1149              	.LVL70:
1137:Generated_Source\PSoC4/TimerTestMode.c **** 
 1150              		.loc 1 1137 0
 1151 001e 10BD     		pop	{r4, pc}
 1152              	.L84:
 1153              		.align	2
 1154              	.L83:
 1155 0020 64012040 		.word	1075839332
 1156              		.cfi_endproc
 1157              	.LFE31:
 1158              		.size	TimerTestMode_SetReloadMode, .-TimerTestMode_SetReloadMode
 1159              		.section	.text.TimerTestMode_SetStartMode,"ax",%progbits
 1160              		.align	1
 1161              		.global	TimerTestMode_SetStartMode
 1162              		.code	16
 1163              		.thumb_func
 1164              		.type	TimerTestMode_SetStartMode, %function
 1165              	TimerTestMode_SetStartMode:
 1166              	.LFB32:
1161:Generated_Source\PSoC4/TimerTestMode.c ****     uint8 enableInterrupts;
 1167              		.loc 1 1161 0
 1168              		.cfi_startproc
 1169              		@ args = 0, pretend = 0, frame = 0
 1170              		@ frame_needed = 0, uses_anonymous_args = 0
 1171              	.LVL71:
 1172 0000 10B5     		push	{r4, lr}
 1173              		.cfi_def_cfa_offset 8
 1174              		.cfi_offset 4, -8
 1175              		.cfi_offset 14, -4
1161:Generated_Source\PSoC4/TimerTestMode.c ****     uint8 enableInterrupts;
 1176              		.loc 1 1161 0
ARM GAS  C:\Users\Petro\AppData\Local\Temp\ccebLrz4.s 			page 48


 1177 0002 0400     		movs	r4, r0
1164:Generated_Source\PSoC4/TimerTestMode.c **** 
 1178              		.loc 1 1164 0
 1179 0004 FFF7FEFF 		bl	CyEnterCriticalSection
 1180              	.LVL72:
1166:Generated_Source\PSoC4/TimerTestMode.c ****     TimerTestMode_TRIG_CONTROL1_REG |= ((uint32)(triggerMode << TimerTestMode_START_SHIFT));
 1181              		.loc 1 1166 0
 1182 0008 054B     		ldr	r3, .L86
 1183 000a 064A     		ldr	r2, .L86+4
 1184 000c 1968     		ldr	r1, [r3]
1170:Generated_Source\PSoC4/TimerTestMode.c **** 
 1185              		.loc 1 1170 0
 1186              		@ sp needed
1166:Generated_Source\PSoC4/TimerTestMode.c ****     TimerTestMode_TRIG_CONTROL1_REG |= ((uint32)(triggerMode << TimerTestMode_START_SHIFT));
 1187              		.loc 1 1166 0
 1188 000e 0A40     		ands	r2, r1
 1189 0010 1A60     		str	r2, [r3]
1167:Generated_Source\PSoC4/TimerTestMode.c **** 
 1190              		.loc 1 1167 0
 1191 0012 1968     		ldr	r1, [r3]
 1192 0014 2202     		lsls	r2, r4, #8
 1193 0016 0A43     		orrs	r2, r1
 1194 0018 1A60     		str	r2, [r3]
1169:Generated_Source\PSoC4/TimerTestMode.c **** }
 1195              		.loc 1 1169 0
 1196 001a FFF7FEFF 		bl	CyExitCriticalSection
 1197              	.LVL73:
 1198              	.LVL74:
1170:Generated_Source\PSoC4/TimerTestMode.c **** 
 1199              		.loc 1 1170 0
 1200 001e 10BD     		pop	{r4, pc}
 1201              	.L87:
 1202              		.align	2
 1203              	.L86:
 1204 0020 64012040 		.word	1075839332
 1205 0024 FFFCFFFF 		.word	-769
 1206              		.cfi_endproc
 1207              	.LFE32:
 1208              		.size	TimerTestMode_SetStartMode, .-TimerTestMode_SetStartMode
 1209              		.section	.text.TimerTestMode_SetStopMode,"ax",%progbits
 1210              		.align	1
 1211              		.global	TimerTestMode_SetStopMode
 1212              		.code	16
 1213              		.thumb_func
 1214              		.type	TimerTestMode_SetStopMode, %function
 1215              	TimerTestMode_SetStopMode:
 1216              	.LFB33:
1193:Generated_Source\PSoC4/TimerTestMode.c ****     uint8 enableInterrupts;
 1217              		.loc 1 1193 0
 1218              		.cfi_startproc
 1219              		@ args = 0, pretend = 0, frame = 0
 1220              		@ frame_needed = 0, uses_anonymous_args = 0
 1221              	.LVL75:
 1222 0000 10B5     		push	{r4, lr}
 1223              		.cfi_def_cfa_offset 8
 1224              		.cfi_offset 4, -8
 1225              		.cfi_offset 14, -4
ARM GAS  C:\Users\Petro\AppData\Local\Temp\ccebLrz4.s 			page 49


1193:Generated_Source\PSoC4/TimerTestMode.c ****     uint8 enableInterrupts;
 1226              		.loc 1 1193 0
 1227 0002 0400     		movs	r4, r0
1196:Generated_Source\PSoC4/TimerTestMode.c **** 
 1228              		.loc 1 1196 0
 1229 0004 FFF7FEFF 		bl	CyEnterCriticalSection
 1230              	.LVL76:
1198:Generated_Source\PSoC4/TimerTestMode.c ****     TimerTestMode_TRIG_CONTROL1_REG |= ((uint32)(triggerMode << TimerTestMode_STOP_SHIFT));
 1231              		.loc 1 1198 0
 1232 0008 C021     		movs	r1, #192
 1233 000a 054B     		ldr	r3, .L89
1202:Generated_Source\PSoC4/TimerTestMode.c **** 
 1234              		.loc 1 1202 0
 1235              		@ sp needed
1198:Generated_Source\PSoC4/TimerTestMode.c ****     TimerTestMode_TRIG_CONTROL1_REG |= ((uint32)(triggerMode << TimerTestMode_STOP_SHIFT));
 1236              		.loc 1 1198 0
 1237 000c 1A68     		ldr	r2, [r3]
 1238 000e 8A43     		bics	r2, r1
 1239 0010 1A60     		str	r2, [r3]
1199:Generated_Source\PSoC4/TimerTestMode.c **** 
 1240              		.loc 1 1199 0
 1241 0012 1968     		ldr	r1, [r3]
 1242 0014 A201     		lsls	r2, r4, #6
 1243 0016 0A43     		orrs	r2, r1
 1244 0018 1A60     		str	r2, [r3]
1201:Generated_Source\PSoC4/TimerTestMode.c **** }
 1245              		.loc 1 1201 0
 1246 001a FFF7FEFF 		bl	CyExitCriticalSection
 1247              	.LVL77:
 1248              	.LVL78:
1202:Generated_Source\PSoC4/TimerTestMode.c **** 
 1249              		.loc 1 1202 0
 1250 001e 10BD     		pop	{r4, pc}
 1251              	.L90:
 1252              		.align	2
 1253              	.L89:
 1254 0020 64012040 		.word	1075839332
 1255              		.cfi_endproc
 1256              	.LFE33:
 1257              		.size	TimerTestMode_SetStopMode, .-TimerTestMode_SetStopMode
 1258              		.section	.text.TimerTestMode_SetCountMode,"ax",%progbits
 1259              		.align	1
 1260              		.global	TimerTestMode_SetCountMode
 1261              		.code	16
 1262              		.thumb_func
 1263              		.type	TimerTestMode_SetCountMode, %function
 1264              	TimerTestMode_SetCountMode:
 1265              	.LFB34:
1226:Generated_Source\PSoC4/TimerTestMode.c ****     uint8 enableInterrupts;
 1266              		.loc 1 1226 0
 1267              		.cfi_startproc
 1268              		@ args = 0, pretend = 0, frame = 0
 1269              		@ frame_needed = 0, uses_anonymous_args = 0
 1270              	.LVL79:
 1271 0000 10B5     		push	{r4, lr}
 1272              		.cfi_def_cfa_offset 8
 1273              		.cfi_offset 4, -8
ARM GAS  C:\Users\Petro\AppData\Local\Temp\ccebLrz4.s 			page 50


 1274              		.cfi_offset 14, -4
1226:Generated_Source\PSoC4/TimerTestMode.c ****     uint8 enableInterrupts;
 1275              		.loc 1 1226 0
 1276 0002 0400     		movs	r4, r0
1229:Generated_Source\PSoC4/TimerTestMode.c **** 
 1277              		.loc 1 1229 0
 1278 0004 FFF7FEFF 		bl	CyEnterCriticalSection
 1279              	.LVL80:
1231:Generated_Source\PSoC4/TimerTestMode.c ****     TimerTestMode_TRIG_CONTROL1_REG |= ((uint32)(triggerMode << TimerTestMode_COUNT_SHIFT));
 1280              		.loc 1 1231 0
 1281 0008 0C21     		movs	r1, #12
 1282 000a 054B     		ldr	r3, .L92
1235:Generated_Source\PSoC4/TimerTestMode.c **** 
 1283              		.loc 1 1235 0
 1284              		@ sp needed
1231:Generated_Source\PSoC4/TimerTestMode.c ****     TimerTestMode_TRIG_CONTROL1_REG |= ((uint32)(triggerMode << TimerTestMode_COUNT_SHIFT));
 1285              		.loc 1 1231 0
 1286 000c 1A68     		ldr	r2, [r3]
 1287 000e 8A43     		bics	r2, r1
 1288 0010 1A60     		str	r2, [r3]
1232:Generated_Source\PSoC4/TimerTestMode.c **** 
 1289              		.loc 1 1232 0
 1290 0012 1968     		ldr	r1, [r3]
 1291 0014 A200     		lsls	r2, r4, #2
 1292 0016 0A43     		orrs	r2, r1
 1293 0018 1A60     		str	r2, [r3]
1234:Generated_Source\PSoC4/TimerTestMode.c **** }
 1294              		.loc 1 1234 0
 1295 001a FFF7FEFF 		bl	CyExitCriticalSection
 1296              	.LVL81:
 1297              	.LVL82:
1235:Generated_Source\PSoC4/TimerTestMode.c **** 
 1298              		.loc 1 1235 0
 1299 001e 10BD     		pop	{r4, pc}
 1300              	.L93:
 1301              		.align	2
 1302              	.L92:
 1303 0020 64012040 		.word	1075839332
 1304              		.cfi_endproc
 1305              	.LFE34:
 1306              		.size	TimerTestMode_SetCountMode, .-TimerTestMode_SetCountMode
 1307              		.section	.text.TimerTestMode_TriggerCommand,"ax",%progbits
 1308              		.align	1
 1309              		.global	TimerTestMode_TriggerCommand
 1310              		.code	16
 1311              		.thumb_func
 1312              		.type	TimerTestMode_TriggerCommand, %function
 1313              	TimerTestMode_TriggerCommand:
 1314              	.LFB35:
1266:Generated_Source\PSoC4/TimerTestMode.c ****     uint8 enableInterrupts;
 1315              		.loc 1 1266 0
 1316              		.cfi_startproc
 1317              		@ args = 0, pretend = 0, frame = 0
 1318              		@ frame_needed = 0, uses_anonymous_args = 0
 1319              	.LVL83:
 1320 0000 70B5     		push	{r4, r5, r6, lr}
 1321              		.cfi_def_cfa_offset 16
ARM GAS  C:\Users\Petro\AppData\Local\Temp\ccebLrz4.s 			page 51


 1322              		.cfi_offset 4, -16
 1323              		.cfi_offset 5, -12
 1324              		.cfi_offset 6, -8
 1325              		.cfi_offset 14, -4
1266:Generated_Source\PSoC4/TimerTestMode.c ****     uint8 enableInterrupts;
 1326              		.loc 1 1266 0
 1327 0002 0D00     		movs	r5, r1
 1328 0004 0400     		movs	r4, r0
1271:Generated_Source\PSoC4/TimerTestMode.c **** 
 1329              		.loc 1 1271 0
 1330 0006 AC40     		lsls	r4, r4, r5
1269:Generated_Source\PSoC4/TimerTestMode.c **** 
 1331              		.loc 1 1269 0
 1332 0008 FFF7FEFF 		bl	CyEnterCriticalSection
 1333              	.LVL84:
1271:Generated_Source\PSoC4/TimerTestMode.c **** 
 1334              		.loc 1 1271 0
 1335 000c 024B     		ldr	r3, .L95
1274:Generated_Source\PSoC4/TimerTestMode.c **** 
 1336              		.loc 1 1274 0
 1337              		@ sp needed
1271:Generated_Source\PSoC4/TimerTestMode.c **** 
 1338              		.loc 1 1271 0
 1339 000e 1C60     		str	r4, [r3]
1273:Generated_Source\PSoC4/TimerTestMode.c **** }
 1340              		.loc 1 1273 0
 1341 0010 FFF7FEFF 		bl	CyExitCriticalSection
 1342              	.LVL85:
 1343              	.LVL86:
1274:Generated_Source\PSoC4/TimerTestMode.c **** 
 1344              		.loc 1 1274 0
 1345 0014 70BD     		pop	{r4, r5, r6, pc}
 1346              	.L96:
 1347 0016 C046     		.align	2
 1348              	.L95:
 1349 0018 08002040 		.word	1075838984
 1350              		.cfi_endproc
 1351              	.LFE35:
 1352              		.size	TimerTestMode_TriggerCommand, .-TimerTestMode_TriggerCommand
 1353              		.section	.text.TimerTestMode_Enable,"ax",%progbits
 1354              		.align	1
 1355              		.global	TimerTestMode_Enable
 1356              		.code	16
 1357              		.thumb_func
 1358              		.type	TimerTestMode_Enable, %function
 1359              	TimerTestMode_Enable:
 1360              	.LFB3:
 178:Generated_Source\PSoC4/TimerTestMode.c ****     uint8 enableInterrupts;
 1361              		.loc 1 178 0
 1362              		.cfi_startproc
 1363              		@ args = 0, pretend = 0, frame = 0
 1364              		@ frame_needed = 0, uses_anonymous_args = 0
 1365 0000 10B5     		push	{r4, lr}
 1366              		.cfi_def_cfa_offset 8
 1367              		.cfi_offset 4, -8
 1368              		.cfi_offset 14, -4
 182:Generated_Source\PSoC4/TimerTestMode.c ****     CyExitCriticalSection(enableInterrupts);
ARM GAS  C:\Users\Petro\AppData\Local\Temp\ccebLrz4.s 			page 52


 1369              		.loc 1 182 0
 1370 0002 0224     		movs	r4, #2
 181:Generated_Source\PSoC4/TimerTestMode.c ****     TimerTestMode_BLOCK_CONTROL_REG |= TimerTestMode_MASK;
 1371              		.loc 1 181 0
 1372 0004 FFF7FEFF 		bl	CyEnterCriticalSection
 1373              	.LVL87:
 182:Generated_Source\PSoC4/TimerTestMode.c ****     CyExitCriticalSection(enableInterrupts);
 1374              		.loc 1 182 0
 1375 0008 054A     		ldr	r2, .L98
 203:Generated_Source\PSoC4/TimerTestMode.c **** 
 1376              		.loc 1 203 0
 1377              		@ sp needed
 182:Generated_Source\PSoC4/TimerTestMode.c ****     CyExitCriticalSection(enableInterrupts);
 1378              		.loc 1 182 0
 1379 000a 1368     		ldr	r3, [r2]
 1380 000c 2343     		orrs	r3, r4
 1381 000e 1360     		str	r3, [r2]
 183:Generated_Source\PSoC4/TimerTestMode.c **** 
 1382              		.loc 1 183 0
 1383 0010 FFF7FEFF 		bl	CyExitCriticalSection
 1384              	.LVL88:
 194:Generated_Source\PSoC4/TimerTestMode.c ****         #endif /* (0u == TimerTestMode_TC_START_SIGNAL_PRESENT) */
 1385              		.loc 1 194 0
 1386 0014 1821     		movs	r1, #24
 1387 0016 2000     		movs	r0, r4
 1388 0018 FFF7FEFF 		bl	TimerTestMode_TriggerCommand
 1389              	.LVL89:
 203:Generated_Source\PSoC4/TimerTestMode.c **** 
 1390              		.loc 1 203 0
 1391 001c 10BD     		pop	{r4, pc}
 1392              	.L99:
 1393 001e C046     		.align	2
 1394              	.L98:
 1395 0020 00002040 		.word	1075838976
 1396              		.cfi_endproc
 1397              	.LFE3:
 1398              		.size	TimerTestMode_Enable, .-TimerTestMode_Enable
 1399              		.section	.text.TimerTestMode_Start,"ax",%progbits
 1400              		.align	1
 1401              		.global	TimerTestMode_Start
 1402              		.code	16
 1403              		.thumb_func
 1404              		.type	TimerTestMode_Start, %function
 1405              	TimerTestMode_Start:
 1406              	.LFB4:
 231:Generated_Source\PSoC4/TimerTestMode.c ****     if (0u == TimerTestMode_initVar)
 1407              		.loc 1 231 0
 1408              		.cfi_startproc
 1409              		@ args = 0, pretend = 0, frame = 0
 1410              		@ frame_needed = 0, uses_anonymous_args = 0
 1411 0000 10B5     		push	{r4, lr}
 1412              		.cfi_def_cfa_offset 8
 1413              		.cfi_offset 4, -8
 1414              		.cfi_offset 14, -4
 232:Generated_Source\PSoC4/TimerTestMode.c ****     {
 1415              		.loc 1 232 0
 1416 0002 054C     		ldr	r4, .L103
ARM GAS  C:\Users\Petro\AppData\Local\Temp\ccebLrz4.s 			page 53


 1417 0004 2378     		ldrb	r3, [r4]
 1418 0006 002B     		cmp	r3, #0
 1419 0008 03D1     		bne	.L101
 234:Generated_Source\PSoC4/TimerTestMode.c ****         TimerTestMode_initVar = 1u;
 1420              		.loc 1 234 0
 1421 000a FFF7FEFF 		bl	TimerTestMode_Init
 1422              	.LVL90:
 235:Generated_Source\PSoC4/TimerTestMode.c ****     }
 1423              		.loc 1 235 0
 1424 000e 0123     		movs	r3, #1
 1425 0010 2370     		strb	r3, [r4]
 1426              	.L101:
 238:Generated_Source\PSoC4/TimerTestMode.c **** }
 1427              		.loc 1 238 0
 1428 0012 FFF7FEFF 		bl	TimerTestMode_Enable
 1429              	.LVL91:
 239:Generated_Source\PSoC4/TimerTestMode.c **** 
 1430              		.loc 1 239 0
 1431              		@ sp needed
 1432 0016 10BD     		pop	{r4, pc}
 1433              	.L104:
 1434              		.align	2
 1435              	.L103:
 1436 0018 00000000 		.word	.LANCHOR0
 1437              		.cfi_endproc
 1438              	.LFE4:
 1439              		.size	TimerTestMode_Start, .-TimerTestMode_Start
 1440              		.section	.text.TimerTestMode_ReadStatus,"ax",%progbits
 1441              		.align	1
 1442              		.global	TimerTestMode_ReadStatus
 1443              		.code	16
 1444              		.thumb_func
 1445              		.type	TimerTestMode_ReadStatus, %function
 1446              	TimerTestMode_ReadStatus:
 1447              	.LFB36:
1295:Generated_Source\PSoC4/TimerTestMode.c ****     return ((TimerTestMode_STATUS_REG >> TimerTestMode_RUNNING_STATUS_SHIFT) |
 1448              		.loc 1 1295 0
 1449              		.cfi_startproc
 1450              		@ args = 0, pretend = 0, frame = 0
 1451              		@ frame_needed = 0, uses_anonymous_args = 0
 1452              		@ link register save eliminated.
1296:Generated_Source\PSoC4/TimerTestMode.c ****             (TimerTestMode_STATUS_REG & TimerTestMode_STATUS_DOWN));
 1453              		.loc 1 1296 0
 1454 0000 034B     		ldr	r3, .L106
1298:Generated_Source\PSoC4/TimerTestMode.c **** 
 1455              		.loc 1 1298 0
 1456              		@ sp needed
1296:Generated_Source\PSoC4/TimerTestMode.c ****             (TimerTestMode_STATUS_REG & TimerTestMode_STATUS_DOWN));
 1457              		.loc 1 1296 0
 1458 0002 1A68     		ldr	r2, [r3]
1297:Generated_Source\PSoC4/TimerTestMode.c **** }
 1459              		.loc 1 1297 0
 1460 0004 1868     		ldr	r0, [r3]
1296:Generated_Source\PSoC4/TimerTestMode.c ****             (TimerTestMode_STATUS_REG & TimerTestMode_STATUS_DOWN));
 1461              		.loc 1 1296 0
 1462 0006 0123     		movs	r3, #1
 1463 0008 920F     		lsrs	r2, r2, #30
ARM GAS  C:\Users\Petro\AppData\Local\Temp\ccebLrz4.s 			page 54


 1464 000a 1840     		ands	r0, r3
 1465 000c 1043     		orrs	r0, r2
1298:Generated_Source\PSoC4/TimerTestMode.c **** 
 1466              		.loc 1 1298 0
 1467 000e 7047     		bx	lr
 1468              	.L107:
 1469              		.align	2
 1470              	.L106:
 1471 0010 44012040 		.word	1075839300
 1472              		.cfi_endproc
 1473              	.LFE36:
 1474              		.size	TimerTestMode_ReadStatus, .-TimerTestMode_ReadStatus
 1475              		.section	.text.TimerTestMode_SetInterruptMode,"ax",%progbits
 1476              		.align	1
 1477              		.global	TimerTestMode_SetInterruptMode
 1478              		.code	16
 1479              		.thumb_func
 1480              		.type	TimerTestMode_SetInterruptMode, %function
 1481              	TimerTestMode_SetInterruptMode:
 1482              	.LFB37:
1320:Generated_Source\PSoC4/TimerTestMode.c ****     TimerTestMode_INTERRUPT_MASK_REG =  interruptMask;
 1483              		.loc 1 1320 0
 1484              		.cfi_startproc
 1485              		@ args = 0, pretend = 0, frame = 0
 1486              		@ frame_needed = 0, uses_anonymous_args = 0
 1487              		@ link register save eliminated.
 1488              	.LVL92:
 1489              		.loc 1 1321 0
 1490 0000 014B     		ldr	r3, .L109
1322:Generated_Source\PSoC4/TimerTestMode.c **** }
 1491              		.loc 1 1322 0
 1492              		@ sp needed
1321:Generated_Source\PSoC4/TimerTestMode.c **** }
 1493              		.loc 1 1321 0
 1494 0002 1860     		str	r0, [r3]
 1495              		.loc 1 1322 0
 1496 0004 7047     		bx	lr
 1497              	.L110:
 1498 0006 C046     		.align	2
 1499              	.L109:
 1500 0008 78012040 		.word	1075839352
 1501              		.cfi_endproc
 1502              	.LFE37:
 1503              		.size	TimerTestMode_SetInterruptMode, .-TimerTestMode_SetInterruptMode
 1504              		.section	.text.TimerTestMode_GetInterruptSourceMasked,"ax",%progbits
 1505              		.align	1
 1506              		.global	TimerTestMode_GetInterruptSourceMasked
 1507              		.code	16
 1508              		.thumb_func
 1509              		.type	TimerTestMode_GetInterruptSourceMasked, %function
 1510              	TimerTestMode_GetInterruptSourceMasked:
 1511              	.LFB38:
1323:Generated_Source\PSoC4/TimerTestMode.c **** 
1324:Generated_Source\PSoC4/TimerTestMode.c **** 
1325:Generated_Source\PSoC4/TimerTestMode.c **** /*******************************************************************************
1326:Generated_Source\PSoC4/TimerTestMode.c **** * Function Name: TimerTestMode_GetInterruptSourceMasked
1327:Generated_Source\PSoC4/TimerTestMode.c **** ********************************************************************************
ARM GAS  C:\Users\Petro\AppData\Local\Temp\ccebLrz4.s 			page 55


1328:Generated_Source\PSoC4/TimerTestMode.c **** *
1329:Generated_Source\PSoC4/TimerTestMode.c **** * Summary:
1330:Generated_Source\PSoC4/TimerTestMode.c **** *  Gets the interrupt requests masked by the interrupt mask.
1331:Generated_Source\PSoC4/TimerTestMode.c **** *
1332:Generated_Source\PSoC4/TimerTestMode.c **** * Parameters:
1333:Generated_Source\PSoC4/TimerTestMode.c **** *   None
1334:Generated_Source\PSoC4/TimerTestMode.c **** *
1335:Generated_Source\PSoC4/TimerTestMode.c **** * Return:
1336:Generated_Source\PSoC4/TimerTestMode.c **** *  Masked interrupt source
1337:Generated_Source\PSoC4/TimerTestMode.c **** *   Values:
1338:Generated_Source\PSoC4/TimerTestMode.c **** *     - TimerTestMode_INTR_MASK_TC       - Terminal count mask
1339:Generated_Source\PSoC4/TimerTestMode.c **** *     - TimerTestMode_INTR_MASK_CC_MATCH - Compare count / capture mask
1340:Generated_Source\PSoC4/TimerTestMode.c **** *
1341:Generated_Source\PSoC4/TimerTestMode.c **** *******************************************************************************/
1342:Generated_Source\PSoC4/TimerTestMode.c **** uint32 TimerTestMode_GetInterruptSourceMasked(void)
1343:Generated_Source\PSoC4/TimerTestMode.c **** {
 1512              		.loc 1 1343 0
 1513              		.cfi_startproc
 1514              		@ args = 0, pretend = 0, frame = 0
 1515              		@ frame_needed = 0, uses_anonymous_args = 0
 1516              		@ link register save eliminated.
1344:Generated_Source\PSoC4/TimerTestMode.c ****     return (TimerTestMode_INTERRUPT_MASKED_REG);
 1517              		.loc 1 1344 0
 1518 0000 014B     		ldr	r3, .L112
1345:Generated_Source\PSoC4/TimerTestMode.c **** }
 1519              		.loc 1 1345 0
 1520              		@ sp needed
1344:Generated_Source\PSoC4/TimerTestMode.c ****     return (TimerTestMode_INTERRUPT_MASKED_REG);
 1521              		.loc 1 1344 0
 1522 0002 1868     		ldr	r0, [r3]
 1523              		.loc 1 1345 0
 1524 0004 7047     		bx	lr
 1525              	.L113:
 1526 0006 C046     		.align	2
 1527              	.L112:
 1528 0008 7C012040 		.word	1075839356
 1529              		.cfi_endproc
 1530              	.LFE38:
 1531              		.size	TimerTestMode_GetInterruptSourceMasked, .-TimerTestMode_GetInterruptSourceMasked
 1532              		.section	.text.TimerTestMode_GetInterruptSource,"ax",%progbits
 1533              		.align	1
 1534              		.global	TimerTestMode_GetInterruptSource
 1535              		.code	16
 1536              		.thumb_func
 1537              		.type	TimerTestMode_GetInterruptSource, %function
 1538              	TimerTestMode_GetInterruptSource:
 1539              	.LFB39:
1346:Generated_Source\PSoC4/TimerTestMode.c **** 
1347:Generated_Source\PSoC4/TimerTestMode.c **** 
1348:Generated_Source\PSoC4/TimerTestMode.c **** /*******************************************************************************
1349:Generated_Source\PSoC4/TimerTestMode.c **** * Function Name: TimerTestMode_GetInterruptSource
1350:Generated_Source\PSoC4/TimerTestMode.c **** ********************************************************************************
1351:Generated_Source\PSoC4/TimerTestMode.c **** *
1352:Generated_Source\PSoC4/TimerTestMode.c **** * Summary:
1353:Generated_Source\PSoC4/TimerTestMode.c **** *  Gets the interrupt requests (without masking).
1354:Generated_Source\PSoC4/TimerTestMode.c **** *
1355:Generated_Source\PSoC4/TimerTestMode.c **** * Parameters:
ARM GAS  C:\Users\Petro\AppData\Local\Temp\ccebLrz4.s 			page 56


1356:Generated_Source\PSoC4/TimerTestMode.c **** *  None
1357:Generated_Source\PSoC4/TimerTestMode.c **** *
1358:Generated_Source\PSoC4/TimerTestMode.c **** * Return:
1359:Generated_Source\PSoC4/TimerTestMode.c **** *  Interrupt request value
1360:Generated_Source\PSoC4/TimerTestMode.c **** *   Values:
1361:Generated_Source\PSoC4/TimerTestMode.c **** *     - TimerTestMode_INTR_MASK_TC       - Terminal count mask
1362:Generated_Source\PSoC4/TimerTestMode.c **** *     - TimerTestMode_INTR_MASK_CC_MATCH - Compare count / capture mask
1363:Generated_Source\PSoC4/TimerTestMode.c **** *
1364:Generated_Source\PSoC4/TimerTestMode.c **** *******************************************************************************/
1365:Generated_Source\PSoC4/TimerTestMode.c **** uint32 TimerTestMode_GetInterruptSource(void)
1366:Generated_Source\PSoC4/TimerTestMode.c **** {
 1540              		.loc 1 1366 0
 1541              		.cfi_startproc
 1542              		@ args = 0, pretend = 0, frame = 0
 1543              		@ frame_needed = 0, uses_anonymous_args = 0
 1544              		@ link register save eliminated.
1367:Generated_Source\PSoC4/TimerTestMode.c ****     return (TimerTestMode_INTERRUPT_REQ_REG);
 1545              		.loc 1 1367 0
 1546 0000 014B     		ldr	r3, .L115
1368:Generated_Source\PSoC4/TimerTestMode.c **** }
 1547              		.loc 1 1368 0
 1548              		@ sp needed
1367:Generated_Source\PSoC4/TimerTestMode.c ****     return (TimerTestMode_INTERRUPT_REQ_REG);
 1549              		.loc 1 1367 0
 1550 0002 1868     		ldr	r0, [r3]
 1551              		.loc 1 1368 0
 1552 0004 7047     		bx	lr
 1553              	.L116:
 1554 0006 C046     		.align	2
 1555              	.L115:
 1556 0008 70012040 		.word	1075839344
 1557              		.cfi_endproc
 1558              	.LFE39:
 1559              		.size	TimerTestMode_GetInterruptSource, .-TimerTestMode_GetInterruptSource
 1560              		.section	.text.TimerTestMode_ClearInterrupt,"ax",%progbits
 1561              		.align	1
 1562              		.global	TimerTestMode_ClearInterrupt
 1563              		.code	16
 1564              		.thumb_func
 1565              		.type	TimerTestMode_ClearInterrupt, %function
 1566              	TimerTestMode_ClearInterrupt:
 1567              	.LFB40:
1369:Generated_Source\PSoC4/TimerTestMode.c **** 
1370:Generated_Source\PSoC4/TimerTestMode.c **** 
1371:Generated_Source\PSoC4/TimerTestMode.c **** /*******************************************************************************
1372:Generated_Source\PSoC4/TimerTestMode.c **** * Function Name: TimerTestMode_ClearInterrupt
1373:Generated_Source\PSoC4/TimerTestMode.c **** ********************************************************************************
1374:Generated_Source\PSoC4/TimerTestMode.c **** *
1375:Generated_Source\PSoC4/TimerTestMode.c **** * Summary:
1376:Generated_Source\PSoC4/TimerTestMode.c **** *  Clears the interrupt request.
1377:Generated_Source\PSoC4/TimerTestMode.c **** *
1378:Generated_Source\PSoC4/TimerTestMode.c **** * Parameters:
1379:Generated_Source\PSoC4/TimerTestMode.c **** *   interruptMask: Mask of interrupts to clear
1380:Generated_Source\PSoC4/TimerTestMode.c **** *   Values:
1381:Generated_Source\PSoC4/TimerTestMode.c **** *     - TimerTestMode_INTR_MASK_TC       - Terminal count mask
1382:Generated_Source\PSoC4/TimerTestMode.c **** *     - TimerTestMode_INTR_MASK_CC_MATCH - Compare count / capture mask
1383:Generated_Source\PSoC4/TimerTestMode.c **** *
ARM GAS  C:\Users\Petro\AppData\Local\Temp\ccebLrz4.s 			page 57


1384:Generated_Source\PSoC4/TimerTestMode.c **** * Return:
1385:Generated_Source\PSoC4/TimerTestMode.c **** *  None
1386:Generated_Source\PSoC4/TimerTestMode.c **** *
1387:Generated_Source\PSoC4/TimerTestMode.c **** *******************************************************************************/
1388:Generated_Source\PSoC4/TimerTestMode.c **** void TimerTestMode_ClearInterrupt(uint32 interruptMask)
1389:Generated_Source\PSoC4/TimerTestMode.c **** {
 1568              		.loc 1 1389 0
 1569              		.cfi_startproc
 1570              		@ args = 0, pretend = 0, frame = 0
 1571              		@ frame_needed = 0, uses_anonymous_args = 0
 1572              		@ link register save eliminated.
 1573              	.LVL93:
1390:Generated_Source\PSoC4/TimerTestMode.c ****     TimerTestMode_INTERRUPT_REQ_REG = interruptMask;
 1574              		.loc 1 1390 0
 1575 0000 014B     		ldr	r3, .L118
1391:Generated_Source\PSoC4/TimerTestMode.c **** }
 1576              		.loc 1 1391 0
 1577              		@ sp needed
1390:Generated_Source\PSoC4/TimerTestMode.c ****     TimerTestMode_INTERRUPT_REQ_REG = interruptMask;
 1578              		.loc 1 1390 0
 1579 0002 1860     		str	r0, [r3]
 1580              		.loc 1 1391 0
 1581 0004 7047     		bx	lr
 1582              	.L119:
 1583 0006 C046     		.align	2
 1584              	.L118:
 1585 0008 70012040 		.word	1075839344
 1586              		.cfi_endproc
 1587              	.LFE40:
 1588              		.size	TimerTestMode_ClearInterrupt, .-TimerTestMode_ClearInterrupt
 1589              		.section	.text.TimerTestMode_SetInterrupt,"ax",%progbits
 1590              		.align	1
 1591              		.global	TimerTestMode_SetInterrupt
 1592              		.code	16
 1593              		.thumb_func
 1594              		.type	TimerTestMode_SetInterrupt, %function
 1595              	TimerTestMode_SetInterrupt:
 1596              	.LFB41:
1392:Generated_Source\PSoC4/TimerTestMode.c **** 
1393:Generated_Source\PSoC4/TimerTestMode.c **** 
1394:Generated_Source\PSoC4/TimerTestMode.c **** /*******************************************************************************
1395:Generated_Source\PSoC4/TimerTestMode.c **** * Function Name: TimerTestMode_SetInterrupt
1396:Generated_Source\PSoC4/TimerTestMode.c **** ********************************************************************************
1397:Generated_Source\PSoC4/TimerTestMode.c **** *
1398:Generated_Source\PSoC4/TimerTestMode.c **** * Summary:
1399:Generated_Source\PSoC4/TimerTestMode.c **** *  Sets a software interrupt request.
1400:Generated_Source\PSoC4/TimerTestMode.c **** *
1401:Generated_Source\PSoC4/TimerTestMode.c **** * Parameters:
1402:Generated_Source\PSoC4/TimerTestMode.c **** *   interruptMask: Mask of interrupts to set
1403:Generated_Source\PSoC4/TimerTestMode.c **** *   Values:
1404:Generated_Source\PSoC4/TimerTestMode.c **** *     - TimerTestMode_INTR_MASK_TC       - Terminal count mask
1405:Generated_Source\PSoC4/TimerTestMode.c **** *     - TimerTestMode_INTR_MASK_CC_MATCH - Compare count / capture mask
1406:Generated_Source\PSoC4/TimerTestMode.c **** *
1407:Generated_Source\PSoC4/TimerTestMode.c **** * Return:
1408:Generated_Source\PSoC4/TimerTestMode.c **** *  None
1409:Generated_Source\PSoC4/TimerTestMode.c **** *
1410:Generated_Source\PSoC4/TimerTestMode.c **** *******************************************************************************/
ARM GAS  C:\Users\Petro\AppData\Local\Temp\ccebLrz4.s 			page 58


1411:Generated_Source\PSoC4/TimerTestMode.c **** void TimerTestMode_SetInterrupt(uint32 interruptMask)
1412:Generated_Source\PSoC4/TimerTestMode.c **** {
 1597              		.loc 1 1412 0
 1598              		.cfi_startproc
 1599              		@ args = 0, pretend = 0, frame = 0
 1600              		@ frame_needed = 0, uses_anonymous_args = 0
 1601              		@ link register save eliminated.
 1602              	.LVL94:
1413:Generated_Source\PSoC4/TimerTestMode.c ****     TimerTestMode_INTERRUPT_SET_REG = interruptMask;
 1603              		.loc 1 1413 0
 1604 0000 014B     		ldr	r3, .L121
1414:Generated_Source\PSoC4/TimerTestMode.c **** }
 1605              		.loc 1 1414 0
 1606              		@ sp needed
1413:Generated_Source\PSoC4/TimerTestMode.c ****     TimerTestMode_INTERRUPT_SET_REG = interruptMask;
 1607              		.loc 1 1413 0
 1608 0002 1860     		str	r0, [r3]
 1609              		.loc 1 1414 0
 1610 0004 7047     		bx	lr
 1611              	.L122:
 1612 0006 C046     		.align	2
 1613              	.L121:
 1614 0008 74012040 		.word	1075839348
 1615              		.cfi_endproc
 1616              	.LFE41:
 1617              		.size	TimerTestMode_SetInterrupt, .-TimerTestMode_SetInterrupt
 1618              		.global	TimerTestMode_initVar
 1619              		.bss
 1620              		.set	.LANCHOR0,. + 0
 1621              		.type	TimerTestMode_initVar, %object
 1622              		.size	TimerTestMode_initVar, 1
 1623              	TimerTestMode_initVar:
 1624 0000 00       		.space	1
 1625              		.text
 1626              	.Letext0:
 1627              		.file 2 "Generated_Source\\PSoC4\\cytypes.h"
 1628              		.file 3 "Generated_Source\\PSoC4\\CyLib.h"
 1629              		.section	.debug_info,"",%progbits
 1630              	.Ldebug_info0:
 1631 0000 4C090000 		.4byte	0x94c
 1632 0004 0400     		.2byte	0x4
 1633 0006 00000000 		.4byte	.Ldebug_abbrev0
 1634 000a 04       		.byte	0x4
 1635 000b 01       		.uleb128 0x1
 1636 000c 25030000 		.4byte	.LASF77
 1637 0010 0C       		.byte	0xc
 1638 0011 46010000 		.4byte	.LASF78
 1639 0015 70040000 		.4byte	.LASF79
 1640 0019 00000000 		.4byte	.Ldebug_ranges0+0
 1641 001d 00000000 		.4byte	0
 1642 0021 00000000 		.4byte	.Ldebug_line0
 1643 0025 02       		.uleb128 0x2
 1644 0026 01       		.byte	0x1
 1645 0027 06       		.byte	0x6
 1646 0028 A8000000 		.4byte	.LASF0
 1647 002c 02       		.uleb128 0x2
 1648 002d 01       		.byte	0x1
ARM GAS  C:\Users\Petro\AppData\Local\Temp\ccebLrz4.s 			page 59


 1649 002e 08       		.byte	0x8
 1650 002f C8040000 		.4byte	.LASF1
 1651 0033 02       		.uleb128 0x2
 1652 0034 02       		.byte	0x2
 1653 0035 05       		.byte	0x5
 1654 0036 1D050000 		.4byte	.LASF2
 1655 003a 02       		.uleb128 0x2
 1656 003b 02       		.byte	0x2
 1657 003c 07       		.byte	0x7
 1658 003d F4010000 		.4byte	.LASF3
 1659 0041 02       		.uleb128 0x2
 1660 0042 04       		.byte	0x4
 1661 0043 05       		.byte	0x5
 1662 0044 FE000000 		.4byte	.LASF4
 1663 0048 02       		.uleb128 0x2
 1664 0049 04       		.byte	0x4
 1665 004a 07       		.byte	0x7
 1666 004b A6010000 		.4byte	.LASF5
 1667 004f 02       		.uleb128 0x2
 1668 0050 08       		.byte	0x8
 1669 0051 05       		.byte	0x5
 1670 0052 9A000000 		.4byte	.LASF6
 1671 0056 02       		.uleb128 0x2
 1672 0057 08       		.byte	0x8
 1673 0058 07       		.byte	0x7
 1674 0059 5B000000 		.4byte	.LASF7
 1675 005d 03       		.uleb128 0x3
 1676 005e 04       		.byte	0x4
 1677 005f 05       		.byte	0x5
 1678 0060 696E7400 		.ascii	"int\000"
 1679 0064 02       		.uleb128 0x2
 1680 0065 04       		.byte	0x4
 1681 0066 07       		.byte	0x7
 1682 0067 76010000 		.4byte	.LASF8
 1683 006b 04       		.uleb128 0x4
 1684 006c 07010000 		.4byte	.LASF9
 1685 0070 02       		.byte	0x2
 1686 0071 D201     		.2byte	0x1d2
 1687 0073 2C000000 		.4byte	0x2c
 1688 0077 04       		.uleb128 0x4
 1689 0078 2E010000 		.4byte	.LASF10
 1690 007c 02       		.byte	0x2
 1691 007d D401     		.2byte	0x1d4
 1692 007f 48000000 		.4byte	0x48
 1693 0083 02       		.uleb128 0x2
 1694 0084 04       		.byte	0x4
 1695 0085 04       		.byte	0x4
 1696 0086 1D040000 		.4byte	.LASF11
 1697 008a 02       		.uleb128 0x2
 1698 008b 08       		.byte	0x8
 1699 008c 04       		.byte	0x4
 1700 008d 0D010000 		.4byte	.LASF12
 1701 0091 02       		.uleb128 0x2
 1702 0092 01       		.byte	0x1
 1703 0093 08       		.byte	0x8
 1704 0094 9E050000 		.4byte	.LASF13
 1705 0098 04       		.uleb128 0x4
ARM GAS  C:\Users\Petro\AppData\Local\Temp\ccebLrz4.s 			page 60


 1706 0099 CE020000 		.4byte	.LASF14
 1707 009d 02       		.byte	0x2
 1708 009e 7E02     		.2byte	0x27e
 1709 00a0 A4000000 		.4byte	0xa4
 1710 00a4 05       		.uleb128 0x5
 1711 00a5 77000000 		.4byte	0x77
 1712 00a9 02       		.uleb128 0x2
 1713 00aa 08       		.byte	0x8
 1714 00ab 04       		.byte	0x4
 1715 00ac 19030000 		.4byte	.LASF15
 1716 00b0 02       		.uleb128 0x2
 1717 00b1 04       		.byte	0x4
 1718 00b2 07       		.byte	0x7
 1719 00b3 F1020000 		.4byte	.LASF16
 1720 00b7 06       		.uleb128 0x6
 1721 00b8 1C000000 		.4byte	.LASF17
 1722 00bc 01       		.byte	0x1
 1723 00bd 6702     		.2byte	0x267
 1724 00bf 01       		.byte	0x1
 1725 00c0 D1000000 		.4byte	0xd1
 1726 00c4 07       		.uleb128 0x7
 1727 00c5 00000000 		.4byte	.LASF19
 1728 00c9 01       		.byte	0x1
 1729 00ca 6702     		.2byte	0x267
 1730 00cc 77000000 		.4byte	0x77
 1731 00d0 00       		.byte	0
 1732 00d1 06       		.uleb128 0x6
 1733 00d2 54060000 		.4byte	.LASF18
 1734 00d6 01       		.byte	0x1
 1735 00d7 5103     		.2byte	0x351
 1736 00d9 01       		.byte	0x1
 1737 00da EB000000 		.4byte	0xeb
 1738 00de 07       		.uleb128 0x7
 1739 00df E3030000 		.4byte	.LASF20
 1740 00e3 01       		.byte	0x1
 1741 00e4 5103     		.2byte	0x351
 1742 00e6 77000000 		.4byte	0x77
 1743 00ea 00       		.byte	0
 1744 00eb 06       		.uleb128 0x6
 1745 00ec EB030000 		.4byte	.LASF21
 1746 00f0 01       		.byte	0x1
 1747 00f1 B502     		.2byte	0x2b5
 1748 00f3 01       		.byte	0x1
 1749 00f4 05010000 		.4byte	0x105
 1750 00f8 07       		.uleb128 0x7
 1751 00f9 54000000 		.4byte	.LASF22
 1752 00fd 01       		.byte	0x1
 1753 00fe B502     		.2byte	0x2b5
 1754 0100 77000000 		.4byte	0x77
 1755 0104 00       		.byte	0
 1756 0105 06       		.uleb128 0x6
 1757 0106 7F050000 		.4byte	.LASF23
 1758 010a 01       		.byte	0x1
 1759 010b 2705     		.2byte	0x527
 1760 010d 01       		.byte	0x1
 1761 010e 1F010000 		.4byte	0x11f
 1762 0112 07       		.uleb128 0x7
ARM GAS  C:\Users\Petro\AppData\Local\Temp\ccebLrz4.s 			page 61


 1763 0113 27050000 		.4byte	.LASF24
 1764 0117 01       		.byte	0x1
 1765 0118 2705     		.2byte	0x527
 1766 011a 77000000 		.4byte	0x77
 1767 011e 00       		.byte	0
 1768 011f 08       		.uleb128 0x8
 1769 0120 89060000 		.4byte	.LASF25
 1770 0124 01       		.byte	0x1
 1771 0125 26       		.byte	0x26
 1772 0126 00000000 		.4byte	.LFB2
 1773 012a 48000000 		.4byte	.LFE2-.LFB2
 1774 012e 01       		.uleb128 0x1
 1775 012f 9C       		.byte	0x9c
 1776 0130 A5010000 		.4byte	0x1a5
 1777 0134 09       		.uleb128 0x9
 1778 0135 05010000 		.4byte	0x105
 1779 0139 0E000000 		.4byte	.LBB10
 1780 013d 06000000 		.4byte	.LBE10-.LBB10
 1781 0141 01       		.byte	0x1
 1782 0142 40       		.byte	0x40
 1783 0143 51010000 		.4byte	0x151
 1784 0147 0A       		.uleb128 0xa
 1785 0148 12010000 		.4byte	0x112
 1786 014c 00000000 		.4byte	.LLST0
 1787 0150 00       		.byte	0
 1788 0151 09       		.uleb128 0x9
 1789 0152 EB000000 		.4byte	0xeb
 1790 0156 14000000 		.4byte	.LBB12
 1791 015a 06000000 		.4byte	.LBE12-.LBB12
 1792 015e 01       		.byte	0x1
 1793 015f 43       		.byte	0x43
 1794 0160 6E010000 		.4byte	0x16e
 1795 0164 0A       		.uleb128 0xa
 1796 0165 F8000000 		.4byte	0xf8
 1797 0169 14000000 		.4byte	.LLST1
 1798 016d 00       		.byte	0
 1799 016e 09       		.uleb128 0x9
 1800 016f D1000000 		.4byte	0xd1
 1801 0173 1A000000 		.4byte	.LBB14
 1802 0177 06000000 		.4byte	.LBE14-.LBB14
 1803 017b 01       		.byte	0x1
 1804 017c 46       		.byte	0x46
 1805 017d 8B010000 		.4byte	0x18b
 1806 0181 0A       		.uleb128 0xa
 1807 0182 DE000000 		.4byte	0xde
 1808 0186 2A000000 		.4byte	.LLST2
 1809 018a 00       		.byte	0
 1810 018b 0B       		.uleb128 0xb
 1811 018c B7000000 		.4byte	0xb7
 1812 0190 20000000 		.4byte	.LBB16
 1813 0194 06000000 		.4byte	.LBE16-.LBB16
 1814 0198 01       		.byte	0x1
 1815 0199 54       		.byte	0x54
 1816 019a 0A       		.uleb128 0xa
 1817 019b C4000000 		.4byte	0xc4
 1818 019f 40000000 		.4byte	.LLST3
 1819 01a3 00       		.byte	0
ARM GAS  C:\Users\Petro\AppData\Local\Temp\ccebLrz4.s 			page 62


 1820 01a4 00       		.byte	0
 1821 01a5 0C       		.uleb128 0xc
 1822 01a6 D0030000 		.4byte	.LASF26
 1823 01aa 01       		.byte	0x1
 1824 01ab 0001     		.2byte	0x100
 1825 01ad 00000000 		.4byte	.LFB5
 1826 01b1 1C000000 		.4byte	.LFE5-.LFB5
 1827 01b5 01       		.uleb128 0x1
 1828 01b6 9C       		.byte	0x9c
 1829 01b7 DE010000 		.4byte	0x1de
 1830 01bb 0D       		.uleb128 0xd
 1831 01bc 43060000 		.4byte	.LASF28
 1832 01c0 01       		.byte	0x1
 1833 01c1 0201     		.2byte	0x102
 1834 01c3 6B000000 		.4byte	0x6b
 1835 01c7 54000000 		.4byte	.LLST4
 1836 01cb 0E       		.uleb128 0xe
 1837 01cc 06000000 		.4byte	.LVL5
 1838 01d0 39090000 		.4byte	0x939
 1839 01d4 0E       		.uleb128 0xe
 1840 01d5 14000000 		.4byte	.LVL6
 1841 01d9 44090000 		.4byte	0x944
 1842 01dd 00       		.byte	0
 1843 01de 0C       		.uleb128 0xc
 1844 01df 2D060000 		.4byte	.LASF27
 1845 01e3 01       		.byte	0x1
 1846 01e4 2501     		.2byte	0x125
 1847 01e6 00000000 		.4byte	.LFB6
 1848 01ea 28000000 		.4byte	.LFE6-.LFB6
 1849 01ee 01       		.uleb128 0x1
 1850 01ef 9C       		.byte	0x9c
 1851 01f0 27020000 		.4byte	0x227
 1852 01f4 0F       		.uleb128 0xf
 1853 01f5 A3050000 		.4byte	.LASF30
 1854 01f9 01       		.byte	0x1
 1855 01fa 2501     		.2byte	0x125
 1856 01fc 77000000 		.4byte	0x77
 1857 0200 67000000 		.4byte	.LLST5
 1858 0204 0D       		.uleb128 0xd
 1859 0205 43060000 		.4byte	.LASF28
 1860 0209 01       		.byte	0x1
 1861 020a 2701     		.2byte	0x127
 1862 020c 6B000000 		.4byte	0x6b
 1863 0210 93000000 		.4byte	.LLST6
 1864 0214 0E       		.uleb128 0xe
 1865 0215 08000000 		.4byte	.LVL8
 1866 0219 39090000 		.4byte	0x939
 1867 021d 0E       		.uleb128 0xe
 1868 021e 1C000000 		.4byte	.LVL10
 1869 0222 44090000 		.4byte	0x944
 1870 0226 00       		.byte	0
 1871 0227 0C       		.uleb128 0xc
 1872 0228 05040000 		.4byte	.LASF29
 1873 022c 01       		.byte	0x1
 1874 022d 4601     		.2byte	0x146
 1875 022f 00000000 		.4byte	.LFB7
 1876 0233 28000000 		.4byte	.LFE7-.LFB7
ARM GAS  C:\Users\Petro\AppData\Local\Temp\ccebLrz4.s 			page 63


 1877 0237 01       		.uleb128 0x1
 1878 0238 9C       		.byte	0x9c
 1879 0239 70020000 		.4byte	0x270
 1880 023d 0F       		.uleb128 0xf
 1881 023e 72000000 		.4byte	.LASF31
 1882 0242 01       		.byte	0x1
 1883 0243 4601     		.2byte	0x146
 1884 0245 77000000 		.4byte	0x77
 1885 0249 A6000000 		.4byte	.LLST7
 1886 024d 0D       		.uleb128 0xd
 1887 024e 43060000 		.4byte	.LASF28
 1888 0252 01       		.byte	0x1
 1889 0253 4801     		.2byte	0x148
 1890 0255 6B000000 		.4byte	0x6b
 1891 0259 D2000000 		.4byte	.LLST8
 1892 025d 0E       		.uleb128 0xe
 1893 025e 08000000 		.4byte	.LVL12
 1894 0262 39090000 		.4byte	0x939
 1895 0266 0E       		.uleb128 0xe
 1896 0267 1C000000 		.4byte	.LVL14
 1897 026b 44090000 		.4byte	0x944
 1898 026f 00       		.byte	0
 1899 0270 0C       		.uleb128 0xc
 1900 0271 83010000 		.4byte	.LASF32
 1901 0275 01       		.byte	0x1
 1902 0276 6B01     		.2byte	0x16b
 1903 0278 00000000 		.4byte	.LFB8
 1904 027c 28000000 		.4byte	.LFE8-.LFB8
 1905 0280 01       		.uleb128 0x1
 1906 0281 9C       		.byte	0x9c
 1907 0282 B9020000 		.4byte	0x2b9
 1908 0286 0F       		.uleb128 0xf
 1909 0287 23040000 		.4byte	.LASF33
 1910 028b 01       		.byte	0x1
 1911 028c 6B01     		.2byte	0x16b
 1912 028e 77000000 		.4byte	0x77
 1913 0292 E5000000 		.4byte	.LLST9
 1914 0296 0D       		.uleb128 0xd
 1915 0297 43060000 		.4byte	.LASF28
 1916 029b 01       		.byte	0x1
 1917 029c 6D01     		.2byte	0x16d
 1918 029e 6B000000 		.4byte	0x6b
 1919 02a2 11010000 		.4byte	.LLST10
 1920 02a6 0E       		.uleb128 0xe
 1921 02a7 08000000 		.4byte	.LVL16
 1922 02ab 39090000 		.4byte	0x939
 1923 02af 0E       		.uleb128 0xe
 1924 02b0 1C000000 		.4byte	.LVL18
 1925 02b4 44090000 		.4byte	0x944
 1926 02b8 00       		.byte	0
 1927 02b9 0C       		.uleb128 0xc
 1928 02ba 07020000 		.4byte	.LASF34
 1929 02be 01       		.byte	0x1
 1930 02bf 8B01     		.2byte	0x18b
 1931 02c1 00000000 		.4byte	.LFB9
 1932 02c5 30000000 		.4byte	.LFE9-.LFB9
 1933 02c9 01       		.uleb128 0x1
ARM GAS  C:\Users\Petro\AppData\Local\Temp\ccebLrz4.s 			page 64


 1934 02ca 9C       		.byte	0x9c
 1935 02cb 02030000 		.4byte	0x302
 1936 02cf 0F       		.uleb128 0xf
 1937 02d0 20020000 		.4byte	.LASF35
 1938 02d4 01       		.byte	0x1
 1939 02d5 8B01     		.2byte	0x18b
 1940 02d7 77000000 		.4byte	0x77
 1941 02db 24010000 		.4byte	.LLST11
 1942 02df 0D       		.uleb128 0xd
 1943 02e0 43060000 		.4byte	.LASF28
 1944 02e4 01       		.byte	0x1
 1945 02e5 8D01     		.2byte	0x18d
 1946 02e7 6B000000 		.4byte	0x6b
 1947 02eb 50010000 		.4byte	.LLST12
 1948 02ef 0E       		.uleb128 0xe
 1949 02f0 08000000 		.4byte	.LVL20
 1950 02f4 39090000 		.4byte	0x939
 1951 02f8 0E       		.uleb128 0xe
 1952 02f9 24000000 		.4byte	.LVL22
 1953 02fd 44090000 		.4byte	0x944
 1954 0301 00       		.byte	0
 1955 0302 0C       		.uleb128 0xc
 1956 0303 CF050000 		.4byte	.LASF36
 1957 0307 01       		.byte	0x1
 1958 0308 C101     		.2byte	0x1c1
 1959 030a 00000000 		.4byte	.LFB10
 1960 030e 10000000 		.4byte	.LFE10-.LFB10
 1961 0312 01       		.uleb128 0x1
 1962 0313 9C       		.byte	0x9c
 1963 0314 29030000 		.4byte	0x329
 1964 0318 0F       		.uleb128 0xf
 1965 0319 B8010000 		.4byte	.LASF37
 1966 031d 01       		.byte	0x1
 1967 031e C101     		.2byte	0x1c1
 1968 0320 77000000 		.4byte	0x77
 1969 0324 63010000 		.4byte	.LLST13
 1970 0328 00       		.byte	0
 1971 0329 0C       		.uleb128 0xc
 1972 032a B3030000 		.4byte	.LASF38
 1973 032e 01       		.byte	0x1
 1974 032f E501     		.2byte	0x1e5
 1975 0331 00000000 		.4byte	.LFB11
 1976 0335 28000000 		.4byte	.LFE11-.LFB11
 1977 0339 01       		.uleb128 0x1
 1978 033a 9C       		.byte	0x9c
 1979 033b 72030000 		.4byte	0x372
 1980 033f 0F       		.uleb128 0xf
 1981 0340 6F060000 		.4byte	.LASF39
 1982 0344 01       		.byte	0x1
 1983 0345 E501     		.2byte	0x1e5
 1984 0347 77000000 		.4byte	0x77
 1985 034b 84010000 		.4byte	.LLST14
 1986 034f 0D       		.uleb128 0xd
 1987 0350 43060000 		.4byte	.LASF28
 1988 0354 01       		.byte	0x1
 1989 0355 E701     		.2byte	0x1e7
 1990 0357 6B000000 		.4byte	0x6b
ARM GAS  C:\Users\Petro\AppData\Local\Temp\ccebLrz4.s 			page 65


 1991 035b B0010000 		.4byte	.LLST15
 1992 035f 0E       		.uleb128 0xe
 1993 0360 08000000 		.4byte	.LVL26
 1994 0364 39090000 		.4byte	0x939
 1995 0368 0E       		.uleb128 0xe
 1996 0369 20000000 		.4byte	.LVL28
 1997 036d 44090000 		.4byte	0x944
 1998 0371 00       		.byte	0
 1999 0372 0C       		.uleb128 0xc
 2000 0373 FA020000 		.4byte	.LASF40
 2001 0377 01       		.byte	0x1
 2002 0378 0702     		.2byte	0x207
 2003 037a 00000000 		.4byte	.LFB12
 2004 037e 28000000 		.4byte	.LFE12-.LFB12
 2005 0382 01       		.uleb128 0x1
 2006 0383 9C       		.byte	0x9c
 2007 0384 BB030000 		.4byte	0x3bb
 2008 0388 0F       		.uleb128 0xf
 2009 0389 EF040000 		.4byte	.LASF41
 2010 038d 01       		.byte	0x1
 2011 038e 0702     		.2byte	0x207
 2012 0390 77000000 		.4byte	0x77
 2013 0394 C3010000 		.4byte	.LLST16
 2014 0398 0D       		.uleb128 0xd
 2015 0399 43060000 		.4byte	.LASF28
 2016 039d 01       		.byte	0x1
 2017 039e 0902     		.2byte	0x209
 2018 03a0 6B000000 		.4byte	0x6b
 2019 03a4 EF010000 		.4byte	.LLST17
 2020 03a8 0E       		.uleb128 0xe
 2021 03a9 08000000 		.4byte	.LVL30
 2022 03ad 39090000 		.4byte	0x939
 2023 03b1 0E       		.uleb128 0xe
 2024 03b2 20000000 		.4byte	.LVL32
 2025 03b6 44090000 		.4byte	0x944
 2026 03ba 00       		.byte	0
 2027 03bb 0C       		.uleb128 0xc
 2028 03bc E8050000 		.4byte	.LASF42
 2029 03c0 01       		.byte	0x1
 2030 03c1 2802     		.2byte	0x228
 2031 03c3 00000000 		.4byte	.LFB13
 2032 03c7 2C000000 		.4byte	.LFE13-.LFB13
 2033 03cb 01       		.uleb128 0x1
 2034 03cc 9C       		.byte	0x9c
 2035 03cd 04040000 		.4byte	0x404
 2036 03d1 0F       		.uleb128 0xf
 2037 03d2 6D010000 		.4byte	.LASF43
 2038 03d6 01       		.byte	0x1
 2039 03d7 2802     		.2byte	0x228
 2040 03d9 77000000 		.4byte	0x77
 2041 03dd 02020000 		.4byte	.LLST18
 2042 03e1 0D       		.uleb128 0xd
 2043 03e2 43060000 		.4byte	.LASF28
 2044 03e6 01       		.byte	0x1
 2045 03e7 2A02     		.2byte	0x22a
 2046 03e9 6B000000 		.4byte	0x6b
 2047 03ed 2E020000 		.4byte	.LLST19
ARM GAS  C:\Users\Petro\AppData\Local\Temp\ccebLrz4.s 			page 66


 2048 03f1 0E       		.uleb128 0xe
 2049 03f2 08000000 		.4byte	.LVL34
 2050 03f6 39090000 		.4byte	0x939
 2051 03fa 0E       		.uleb128 0xe
 2052 03fb 20000000 		.4byte	.LVL36
 2053 03ff 44090000 		.4byte	0x944
 2054 0403 00       		.byte	0
 2055 0404 0C       		.uleb128 0xc
 2056 0405 B4000000 		.4byte	.LASF44
 2057 0409 01       		.byte	0x1
 2058 040a 4902     		.2byte	0x249
 2059 040c 00000000 		.4byte	.LFB14
 2060 0410 28000000 		.4byte	.LFE14-.LFB14
 2061 0414 01       		.uleb128 0x1
 2062 0415 9C       		.byte	0x9c
 2063 0416 4D040000 		.4byte	0x44d
 2064 041a 0F       		.uleb128 0xf
 2065 041b 41010000 		.4byte	.LASF45
 2066 041f 01       		.byte	0x1
 2067 0420 4902     		.2byte	0x249
 2068 0422 77000000 		.4byte	0x77
 2069 0426 41020000 		.4byte	.LLST20
 2070 042a 0D       		.uleb128 0xd
 2071 042b 43060000 		.4byte	.LASF28
 2072 042f 01       		.byte	0x1
 2073 0430 4B02     		.2byte	0x24b
 2074 0432 6B000000 		.4byte	0x6b
 2075 0436 6D020000 		.4byte	.LLST21
 2076 043a 0E       		.uleb128 0xe
 2077 043b 08000000 		.4byte	.LVL38
 2078 043f 39090000 		.4byte	0x939
 2079 0443 0E       		.uleb128 0xe
 2080 0444 1C000000 		.4byte	.LVL40
 2081 0448 44090000 		.4byte	0x944
 2082 044c 00       		.byte	0
 2083 044d 10       		.uleb128 0x10
 2084 044e B7000000 		.4byte	0xb7
 2085 0452 00000000 		.4byte	.LFB15
 2086 0456 0C000000 		.4byte	.LFE15-.LFB15
 2087 045a 01       		.uleb128 0x1
 2088 045b 9C       		.byte	0x9c
 2089 045c 6A040000 		.4byte	0x46a
 2090 0460 0A       		.uleb128 0xa
 2091 0461 C4000000 		.4byte	0xc4
 2092 0465 80020000 		.4byte	.LLST22
 2093 0469 00       		.byte	0
 2094 046a 11       		.uleb128 0x11
 2095 046b 14010000 		.4byte	.LASF48
 2096 046f 01       		.byte	0x1
 2097 0470 7B02     		.2byte	0x27b
 2098 0472 77000000 		.4byte	0x77
 2099 0476 00000000 		.4byte	.LFB16
 2100 047a 0C000000 		.4byte	.LFE16-.LFB16
 2101 047e 01       		.uleb128 0x1
 2102 047f 9C       		.byte	0x9c
 2103 0480 0C       		.uleb128 0xc
 2104 0481 D4020000 		.4byte	.LASF46
ARM GAS  C:\Users\Petro\AppData\Local\Temp\ccebLrz4.s 			page 67


 2105 0485 01       		.byte	0x1
 2106 0486 9802     		.2byte	0x298
 2107 0488 00000000 		.4byte	.LFB17
 2108 048c 28000000 		.4byte	.LFE17-.LFB17
 2109 0490 01       		.uleb128 0x1
 2110 0491 9C       		.byte	0x9c
 2111 0492 C9040000 		.4byte	0x4c9
 2112 0496 0F       		.uleb128 0xf
 2113 0497 A8050000 		.4byte	.LASF47
 2114 049b 01       		.byte	0x1
 2115 049c 9802     		.2byte	0x298
 2116 049e 77000000 		.4byte	0x77
 2117 04a2 A1020000 		.4byte	.LLST23
 2118 04a6 0D       		.uleb128 0xd
 2119 04a7 43060000 		.4byte	.LASF28
 2120 04ab 01       		.byte	0x1
 2121 04ac 9A02     		.2byte	0x29a
 2122 04ae 6B000000 		.4byte	0x6b
 2123 04b2 CD020000 		.4byte	.LLST24
 2124 04b6 0E       		.uleb128 0xe
 2125 04b7 08000000 		.4byte	.LVL44
 2126 04bb 39090000 		.4byte	0x939
 2127 04bf 0E       		.uleb128 0xe
 2128 04c0 1C000000 		.4byte	.LVL46
 2129 04c4 44090000 		.4byte	0x944
 2130 04c8 00       		.byte	0
 2131 04c9 10       		.uleb128 0x10
 2132 04ca EB000000 		.4byte	0xeb
 2133 04ce 00000000 		.4byte	.LFB18
 2134 04d2 0C000000 		.4byte	.LFE18-.LFB18
 2135 04d6 01       		.uleb128 0x1
 2136 04d7 9C       		.byte	0x9c
 2137 04d8 E6040000 		.4byte	0x4e6
 2138 04dc 0A       		.uleb128 0xa
 2139 04dd F8000000 		.4byte	0xf8
 2140 04e1 E0020000 		.4byte	.LLST25
 2141 04e5 00       		.byte	0
 2142 04e6 11       		.uleb128 0x11
 2143 04e7 D6040000 		.4byte	.LASF49
 2144 04eb 01       		.byte	0x1
 2145 04ec C902     		.2byte	0x2c9
 2146 04ee 77000000 		.4byte	0x77
 2147 04f2 00000000 		.4byte	.LFB19
 2148 04f6 0C000000 		.4byte	.LFE19-.LFB19
 2149 04fa 01       		.uleb128 0x1
 2150 04fb 9C       		.byte	0x9c
 2151 04fc 0C       		.uleb128 0xc
 2152 04fd 5E020000 		.4byte	.LASF50
 2153 0501 01       		.byte	0x1
 2154 0502 E302     		.2byte	0x2e3
 2155 0504 00000000 		.4byte	.LFB20
 2156 0508 24000000 		.4byte	.LFE20-.LFB20
 2157 050c 01       		.uleb128 0x1
 2158 050d 9C       		.byte	0x9c
 2159 050e 45050000 		.4byte	0x545
 2160 0512 0F       		.uleb128 0xf
 2161 0513 7E060000 		.4byte	.LASF51
ARM GAS  C:\Users\Petro\AppData\Local\Temp\ccebLrz4.s 			page 68


 2162 0517 01       		.byte	0x1
 2163 0518 E302     		.2byte	0x2e3
 2164 051a 77000000 		.4byte	0x77
 2165 051e 01030000 		.4byte	.LLST26
 2166 0522 0D       		.uleb128 0xd
 2167 0523 43060000 		.4byte	.LASF28
 2168 0527 01       		.byte	0x1
 2169 0528 E502     		.2byte	0x2e5
 2170 052a 6B000000 		.4byte	0x6b
 2171 052e 2D030000 		.4byte	.LLST27
 2172 0532 0E       		.uleb128 0xe
 2173 0533 08000000 		.4byte	.LVL50
 2174 0537 39090000 		.4byte	0x939
 2175 053b 0E       		.uleb128 0xe
 2176 053c 1E000000 		.4byte	.LVL51
 2177 0540 44090000 		.4byte	0x944
 2178 0544 00       		.byte	0
 2179 0545 0C       		.uleb128 0xc
 2180 0546 9C060000 		.4byte	.LASF52
 2181 054a 01       		.byte	0x1
 2182 054b FE02     		.2byte	0x2fe
 2183 054d 00000000 		.4byte	.LFB21
 2184 0551 0C000000 		.4byte	.LFE21-.LFB21
 2185 0555 01       		.uleb128 0x1
 2186 0556 9C       		.byte	0x9c
 2187 0557 6C050000 		.4byte	0x56c
 2188 055b 0F       		.uleb128 0xf
 2189 055c B9060000 		.4byte	.LASF53
 2190 0560 01       		.byte	0x1
 2191 0561 FE02     		.2byte	0x2fe
 2192 0563 77000000 		.4byte	0x77
 2193 0567 40030000 		.4byte	.LLST28
 2194 056b 00       		.byte	0
 2195 056c 11       		.uleb128 0x11
 2196 056d D8010000 		.4byte	.LASF54
 2197 0571 01       		.byte	0x1
 2198 0572 1203     		.2byte	0x312
 2199 0574 77000000 		.4byte	0x77
 2200 0578 00000000 		.4byte	.LFB22
 2201 057c 0C000000 		.4byte	.LFE22-.LFB22
 2202 0580 01       		.uleb128 0x1
 2203 0581 9C       		.byte	0x9c
 2204 0582 0C       		.uleb128 0xc
 2205 0583 7B020000 		.4byte	.LASF55
 2206 0587 01       		.byte	0x1
 2207 0588 2C03     		.2byte	0x32c
 2208 058a 00000000 		.4byte	.LFB23
 2209 058e 28000000 		.4byte	.LFE23-.LFB23
 2210 0592 01       		.uleb128 0x1
 2211 0593 9C       		.byte	0x9c
 2212 0594 CB050000 		.4byte	0x5cb
 2213 0598 0F       		.uleb128 0xf
 2214 0599 7E060000 		.4byte	.LASF51
 2215 059d 01       		.byte	0x1
 2216 059e 2C03     		.2byte	0x32c
 2217 05a0 77000000 		.4byte	0x77
 2218 05a4 61030000 		.4byte	.LLST29
ARM GAS  C:\Users\Petro\AppData\Local\Temp\ccebLrz4.s 			page 69


 2219 05a8 0D       		.uleb128 0xd
 2220 05a9 43060000 		.4byte	.LASF28
 2221 05ad 01       		.byte	0x1
 2222 05ae 2E03     		.2byte	0x32e
 2223 05b0 6B000000 		.4byte	0x6b
 2224 05b4 8D030000 		.4byte	.LLST30
 2225 05b8 0E       		.uleb128 0xe
 2226 05b9 08000000 		.4byte	.LVL56
 2227 05bd 39090000 		.4byte	0x939
 2228 05c1 0E       		.uleb128 0xe
 2229 05c2 20000000 		.4byte	.LVL58
 2230 05c6 44090000 		.4byte	0x944
 2231 05ca 00       		.byte	0
 2232 05cb 10       		.uleb128 0x10
 2233 05cc D1000000 		.4byte	0xd1
 2234 05d0 00000000 		.4byte	.LFB24
 2235 05d4 0C000000 		.4byte	.LFE24-.LFB24
 2236 05d8 01       		.uleb128 0x1
 2237 05d9 9C       		.byte	0x9c
 2238 05da E8050000 		.4byte	0x5e8
 2239 05de 0A       		.uleb128 0xa
 2240 05df DE000000 		.4byte	0xde
 2241 05e3 A0030000 		.4byte	.LLST31
 2242 05e7 00       		.byte	0
 2243 05e8 0C       		.uleb128 0xc
 2244 05e9 B0020000 		.4byte	.LASF56
 2245 05ed 01       		.byte	0x1
 2246 05ee BA03     		.2byte	0x3ba
 2247 05f0 00000000 		.4byte	.LFB26
 2248 05f4 0C000000 		.4byte	.LFE26-.LFB26
 2249 05f8 01       		.uleb128 0x1
 2250 05f9 9C       		.byte	0x9c
 2251 05fa 0F060000 		.4byte	0x60f
 2252 05fe 0F       		.uleb128 0xf
 2253 05ff 05060000 		.4byte	.LASF57
 2254 0603 01       		.byte	0x1
 2255 0604 BA03     		.2byte	0x3ba
 2256 0606 77000000 		.4byte	0x77
 2257 060a C1030000 		.4byte	.LLST32
 2258 060e 00       		.byte	0
 2259 060f 12       		.uleb128 0x12
 2260 0610 65050000 		.4byte	.LASF58
 2261 0614 01       		.byte	0x1
 2262 0615 1604     		.2byte	0x416
 2263 0617 77000000 		.4byte	0x77
 2264 061b 01       		.byte	0x1
 2265 061c 13       		.uleb128 0x13
 2266 061d 0F060000 		.4byte	0x60f
 2267 0621 00000000 		.4byte	.LFB28
 2268 0625 0C000000 		.4byte	.LFE28-.LFB28
 2269 0629 01       		.uleb128 0x1
 2270 062a 9C       		.byte	0x9c
 2271 062b 12       		.uleb128 0x12
 2272 062c 37000000 		.4byte	.LASF59
 2273 0630 01       		.byte	0x1
 2274 0631 2B04     		.2byte	0x42b
 2275 0633 77000000 		.4byte	0x77
ARM GAS  C:\Users\Petro\AppData\Local\Temp\ccebLrz4.s 			page 70


 2276 0637 01       		.byte	0x1
 2277 0638 13       		.uleb128 0x13
 2278 0639 2B060000 		.4byte	0x62b
 2279 063d 00000000 		.4byte	.LFB29
 2280 0641 0C000000 		.4byte	.LFE29-.LFB29
 2281 0645 01       		.uleb128 0x1
 2282 0646 9C       		.byte	0x9c
 2283 0647 0C       		.uleb128 0xc
 2284 0648 10060000 		.4byte	.LASF60
 2285 064c 01       		.byte	0x1
 2286 064d 4604     		.2byte	0x446
 2287 064f 00000000 		.4byte	.LFB30
 2288 0653 24000000 		.4byte	.LFE30-.LFB30
 2289 0657 01       		.uleb128 0x1
 2290 0658 9C       		.byte	0x9c
 2291 0659 90060000 		.4byte	0x690
 2292 065d 0F       		.uleb128 0xf
 2293 065e 35010000 		.4byte	.LASF61
 2294 0662 01       		.byte	0x1
 2295 0663 4604     		.2byte	0x446
 2296 0665 77000000 		.4byte	0x77
 2297 0669 E2030000 		.4byte	.LLST33
 2298 066d 0D       		.uleb128 0xd
 2299 066e 43060000 		.4byte	.LASF28
 2300 0672 01       		.byte	0x1
 2301 0673 4804     		.2byte	0x448
 2302 0675 6B000000 		.4byte	0x6b
 2303 0679 0E040000 		.4byte	.LLST34
 2304 067d 0E       		.uleb128 0xe
 2305 067e 08000000 		.4byte	.LVL64
 2306 0682 39090000 		.4byte	0x939
 2307 0686 0E       		.uleb128 0xe
 2308 0687 1C000000 		.4byte	.LVL66
 2309 068b 44090000 		.4byte	0x944
 2310 068f 00       		.byte	0
 2311 0690 0C       		.uleb128 0xc
 2312 0691 54040000 		.4byte	.LASF62
 2313 0695 01       		.byte	0x1
 2314 0696 6704     		.2byte	0x467
 2315 0698 00000000 		.4byte	.LFB31
 2316 069c 24000000 		.4byte	.LFE31-.LFB31
 2317 06a0 01       		.uleb128 0x1
 2318 06a1 9C       		.byte	0x9c
 2319 06a2 D9060000 		.4byte	0x6d9
 2320 06a6 0F       		.uleb128 0xf
 2321 06a7 35010000 		.4byte	.LASF61
 2322 06ab 01       		.byte	0x1
 2323 06ac 6704     		.2byte	0x467
 2324 06ae 77000000 		.4byte	0x77
 2325 06b2 21040000 		.4byte	.LLST35
 2326 06b6 0D       		.uleb128 0xd
 2327 06b7 43060000 		.4byte	.LASF28
 2328 06bb 01       		.byte	0x1
 2329 06bc 6904     		.2byte	0x469
 2330 06be 6B000000 		.4byte	0x6b
 2331 06c2 4D040000 		.4byte	.LLST36
 2332 06c6 0E       		.uleb128 0xe
ARM GAS  C:\Users\Petro\AppData\Local\Temp\ccebLrz4.s 			page 71


 2333 06c7 08000000 		.4byte	.LVL68
 2334 06cb 39090000 		.4byte	0x939
 2335 06cf 0E       		.uleb128 0xe
 2336 06d0 1E000000 		.4byte	.LVL69
 2337 06d4 44090000 		.4byte	0x944
 2338 06d8 00       		.byte	0
 2339 06d9 0C       		.uleb128 0xc
 2340 06da E3000000 		.4byte	.LASF63
 2341 06de 01       		.byte	0x1
 2342 06df 8804     		.2byte	0x488
 2343 06e1 00000000 		.4byte	.LFB32
 2344 06e5 28000000 		.4byte	.LFE32-.LFB32
 2345 06e9 01       		.uleb128 0x1
 2346 06ea 9C       		.byte	0x9c
 2347 06eb 22070000 		.4byte	0x722
 2348 06ef 0F       		.uleb128 0xf
 2349 06f0 35010000 		.4byte	.LASF61
 2350 06f4 01       		.byte	0x1
 2351 06f5 8804     		.2byte	0x488
 2352 06f7 77000000 		.4byte	0x77
 2353 06fb 60040000 		.4byte	.LLST37
 2354 06ff 0D       		.uleb128 0xd
 2355 0700 43060000 		.4byte	.LASF28
 2356 0704 01       		.byte	0x1
 2357 0705 8A04     		.2byte	0x48a
 2358 0707 6B000000 		.4byte	0x6b
 2359 070b 8C040000 		.4byte	.LLST38
 2360 070f 0E       		.uleb128 0xe
 2361 0710 08000000 		.4byte	.LVL72
 2362 0714 39090000 		.4byte	0x939
 2363 0718 0E       		.uleb128 0xe
 2364 0719 1E000000 		.4byte	.LVL73
 2365 071d 44090000 		.4byte	0x944
 2366 0721 00       		.byte	0
 2367 0722 0C       		.uleb128 0xc
 2368 0723 2E020000 		.4byte	.LASF64
 2369 0727 01       		.byte	0x1
 2370 0728 A804     		.2byte	0x4a8
 2371 072a 00000000 		.4byte	.LFB33
 2372 072e 24000000 		.4byte	.LFE33-.LFB33
 2373 0732 01       		.uleb128 0x1
 2374 0733 9C       		.byte	0x9c
 2375 0734 6B070000 		.4byte	0x76b
 2376 0738 0F       		.uleb128 0xf
 2377 0739 35010000 		.4byte	.LASF61
 2378 073d 01       		.byte	0x1
 2379 073e A804     		.2byte	0x4a8
 2380 0740 77000000 		.4byte	0x77
 2381 0744 9F040000 		.4byte	.LLST39
 2382 0748 0D       		.uleb128 0xd
 2383 0749 43060000 		.4byte	.LASF28
 2384 074d 01       		.byte	0x1
 2385 074e AA04     		.2byte	0x4aa
 2386 0750 6B000000 		.4byte	0x6b
 2387 0754 CB040000 		.4byte	.LLST40
 2388 0758 0E       		.uleb128 0xe
 2389 0759 08000000 		.4byte	.LVL76
ARM GAS  C:\Users\Petro\AppData\Local\Temp\ccebLrz4.s 			page 72


 2390 075d 39090000 		.4byte	0x939
 2391 0761 0E       		.uleb128 0xe
 2392 0762 1E000000 		.4byte	.LVL77
 2393 0766 44090000 		.4byte	0x944
 2394 076a 00       		.byte	0
 2395 076b 0C       		.uleb128 0xc
 2396 076c B4050000 		.4byte	.LASF65
 2397 0770 01       		.byte	0x1
 2398 0771 C904     		.2byte	0x4c9
 2399 0773 00000000 		.4byte	.LFB34
 2400 0777 24000000 		.4byte	.LFE34-.LFB34
 2401 077b 01       		.uleb128 0x1
 2402 077c 9C       		.byte	0x9c
 2403 077d B4070000 		.4byte	0x7b4
 2404 0781 0F       		.uleb128 0xf
 2405 0782 35010000 		.4byte	.LASF61
 2406 0786 01       		.byte	0x1
 2407 0787 C904     		.2byte	0x4c9
 2408 0789 77000000 		.4byte	0x77
 2409 078d DE040000 		.4byte	.LLST41
 2410 0791 0D       		.uleb128 0xd
 2411 0792 43060000 		.4byte	.LASF28
 2412 0796 01       		.byte	0x1
 2413 0797 CB04     		.2byte	0x4cb
 2414 0799 6B000000 		.4byte	0x6b
 2415 079d 0A050000 		.4byte	.LLST42
 2416 07a1 0E       		.uleb128 0xe
 2417 07a2 08000000 		.4byte	.LVL80
 2418 07a6 39090000 		.4byte	0x939
 2419 07aa 0E       		.uleb128 0xe
 2420 07ab 1E000000 		.4byte	.LVL81
 2421 07af 44090000 		.4byte	0x944
 2422 07b3 00       		.byte	0
 2423 07b4 0C       		.uleb128 0xc
 2424 07b5 AB040000 		.4byte	.LASF66
 2425 07b9 01       		.byte	0x1
 2426 07ba F104     		.2byte	0x4f1
 2427 07bc 00000000 		.4byte	.LFB35
 2428 07c0 1C000000 		.4byte	.LFE35-.LFB35
 2429 07c4 01       		.uleb128 0x1
 2430 07c5 9C       		.byte	0x9c
 2431 07c6 0D080000 		.4byte	0x80d
 2432 07ca 0F       		.uleb128 0xf
 2433 07cb 41010000 		.4byte	.LASF45
 2434 07cf 01       		.byte	0x1
 2435 07d0 F104     		.2byte	0x4f1
 2436 07d2 77000000 		.4byte	0x77
 2437 07d6 1D050000 		.4byte	.LLST43
 2438 07da 0F       		.uleb128 0xf
 2439 07db 9E010000 		.4byte	.LASF67
 2440 07df 01       		.byte	0x1
 2441 07e0 F104     		.2byte	0x4f1
 2442 07e2 77000000 		.4byte	0x77
 2443 07e6 3E050000 		.4byte	.LLST44
 2444 07ea 0D       		.uleb128 0xd
 2445 07eb 43060000 		.4byte	.LASF28
 2446 07ef 01       		.byte	0x1
ARM GAS  C:\Users\Petro\AppData\Local\Temp\ccebLrz4.s 			page 73


 2447 07f0 F304     		.2byte	0x4f3
 2448 07f2 6B000000 		.4byte	0x6b
 2449 07f6 6A050000 		.4byte	.LLST45
 2450 07fa 0E       		.uleb128 0xe
 2451 07fb 0C000000 		.4byte	.LVL84
 2452 07ff 39090000 		.4byte	0x939
 2453 0803 0E       		.uleb128 0xe
 2454 0804 14000000 		.4byte	.LVL85
 2455 0808 44090000 		.4byte	0x944
 2456 080c 00       		.byte	0
 2457 080d 08       		.uleb128 0x8
 2458 080e 50050000 		.4byte	.LASF68
 2459 0812 01       		.byte	0x1
 2460 0813 B1       		.byte	0xb1
 2461 0814 00000000 		.4byte	.LFB3
 2462 0818 24000000 		.4byte	.LFE3-.LFB3
 2463 081c 01       		.uleb128 0x1
 2464 081d 9C       		.byte	0x9c
 2465 081e 59080000 		.4byte	0x859
 2466 0822 14       		.uleb128 0x14
 2467 0823 43060000 		.4byte	.LASF28
 2468 0827 01       		.byte	0x1
 2469 0828 B3       		.byte	0xb3
 2470 0829 6B000000 		.4byte	0x6b
 2471 082d 7D050000 		.4byte	.LLST46
 2472 0831 0E       		.uleb128 0xe
 2473 0832 08000000 		.4byte	.LVL87
 2474 0836 39090000 		.4byte	0x939
 2475 083a 0E       		.uleb128 0xe
 2476 083b 14000000 		.4byte	.LVL88
 2477 083f 44090000 		.4byte	0x944
 2478 0843 15       		.uleb128 0x15
 2479 0844 1C000000 		.4byte	.LVL89
 2480 0848 B4070000 		.4byte	0x7b4
 2481 084c 16       		.uleb128 0x16
 2482 084d 01       		.uleb128 0x1
 2483 084e 50       		.byte	0x50
 2484 084f 02       		.uleb128 0x2
 2485 0850 74       		.byte	0x74
 2486 0851 00       		.sleb128 0
 2487 0852 16       		.uleb128 0x16
 2488 0853 01       		.uleb128 0x1
 2489 0854 51       		.byte	0x51
 2490 0855 01       		.uleb128 0x1
 2491 0856 48       		.byte	0x48
 2492 0857 00       		.byte	0
 2493 0858 00       		.byte	0
 2494 0859 08       		.uleb128 0x8
 2495 085a CF000000 		.4byte	.LASF69
 2496 085e 01       		.byte	0x1
 2497 085f E6       		.byte	0xe6
 2498 0860 00000000 		.4byte	.LFB4
 2499 0864 1C000000 		.4byte	.LFE4-.LFB4
 2500 0868 01       		.uleb128 0x1
 2501 0869 9C       		.byte	0x9c
 2502 086a 81080000 		.4byte	0x881
 2503 086e 0E       		.uleb128 0xe
ARM GAS  C:\Users\Petro\AppData\Local\Temp\ccebLrz4.s 			page 74


 2504 086f 0E000000 		.4byte	.LVL90
 2505 0873 1F010000 		.4byte	0x11f
 2506 0877 0E       		.uleb128 0xe
 2507 0878 16000000 		.4byte	.LVL91
 2508 087c 0D080000 		.4byte	0x80d
 2509 0880 00       		.byte	0
 2510 0881 11       		.uleb128 0x11
 2511 0882 97020000 		.4byte	.LASF70
 2512 0886 01       		.byte	0x1
 2513 0887 0E05     		.2byte	0x50e
 2514 0889 77000000 		.4byte	0x77
 2515 088d 00000000 		.4byte	.LFB36
 2516 0891 14000000 		.4byte	.LFE36-.LFB36
 2517 0895 01       		.uleb128 0x1
 2518 0896 9C       		.byte	0x9c
 2519 0897 10       		.uleb128 0x10
 2520 0898 05010000 		.4byte	0x105
 2521 089c 00000000 		.4byte	.LFB37
 2522 08a0 0C000000 		.4byte	.LFE37-.LFB37
 2523 08a4 01       		.uleb128 0x1
 2524 08a5 9C       		.byte	0x9c
 2525 08a6 B2080000 		.4byte	0x8b2
 2526 08aa 17       		.uleb128 0x17
 2527 08ab 12010000 		.4byte	0x112
 2528 08af 01       		.uleb128 0x1
 2529 08b0 50       		.byte	0x50
 2530 08b1 00       		.byte	0
 2531 08b2 11       		.uleb128 0x11
 2532 08b3 2D040000 		.4byte	.LASF71
 2533 08b7 01       		.byte	0x1
 2534 08b8 3E05     		.2byte	0x53e
 2535 08ba 77000000 		.4byte	0x77
 2536 08be 00000000 		.4byte	.LFB38
 2537 08c2 0C000000 		.4byte	.LFE38-.LFB38
 2538 08c6 01       		.uleb128 0x1
 2539 08c7 9C       		.byte	0x9c
 2540 08c8 11       		.uleb128 0x11
 2541 08c9 79000000 		.4byte	.LASF72
 2542 08cd 01       		.byte	0x1
 2543 08ce 5505     		.2byte	0x555
 2544 08d0 77000000 		.4byte	0x77
 2545 08d4 00000000 		.4byte	.LFB39
 2546 08d8 0C000000 		.4byte	.LFE39-.LFB39
 2547 08dc 01       		.uleb128 0x1
 2548 08dd 9C       		.byte	0x9c
 2549 08de 0C       		.uleb128 0xc
 2550 08df 00050000 		.4byte	.LASF73
 2551 08e3 01       		.byte	0x1
 2552 08e4 6C05     		.2byte	0x56c
 2553 08e6 00000000 		.4byte	.LFB40
 2554 08ea 0C000000 		.4byte	.LFE40-.LFB40
 2555 08ee 01       		.uleb128 0x1
 2556 08ef 9C       		.byte	0x9c
 2557 08f0 03090000 		.4byte	0x903
 2558 08f4 18       		.uleb128 0x18
 2559 08f5 27050000 		.4byte	.LASF24
 2560 08f9 01       		.byte	0x1
ARM GAS  C:\Users\Petro\AppData\Local\Temp\ccebLrz4.s 			page 75


 2561 08fa 6C05     		.2byte	0x56c
 2562 08fc 77000000 		.4byte	0x77
 2563 0900 01       		.uleb128 0x1
 2564 0901 50       		.byte	0x50
 2565 0902 00       		.byte	0
 2566 0903 0C       		.uleb128 0xc
 2567 0904 35050000 		.4byte	.LASF74
 2568 0908 01       		.byte	0x1
 2569 0909 8305     		.2byte	0x583
 2570 090b 00000000 		.4byte	.LFB41
 2571 090f 0C000000 		.4byte	.LFE41-.LFB41
 2572 0913 01       		.uleb128 0x1
 2573 0914 9C       		.byte	0x9c
 2574 0915 28090000 		.4byte	0x928
 2575 0919 18       		.uleb128 0x18
 2576 091a 27050000 		.4byte	.LASF24
 2577 091e 01       		.byte	0x1
 2578 091f 8305     		.2byte	0x583
 2579 0921 77000000 		.4byte	0x77
 2580 0925 01       		.uleb128 0x1
 2581 0926 50       		.byte	0x50
 2582 0927 00       		.byte	0
 2583 0928 19       		.uleb128 0x19
 2584 0929 48020000 		.4byte	.LASF80
 2585 092d 01       		.byte	0x1
 2586 092e 15       		.byte	0x15
 2587 092f 6B000000 		.4byte	0x6b
 2588 0933 05       		.uleb128 0x5
 2589 0934 03       		.byte	0x3
 2590 0935 00000000 		.4byte	TimerTestMode_initVar
 2591 0939 1A       		.uleb128 0x1a
 2592 093a C1010000 		.4byte	.LASF75
 2593 093e C1010000 		.4byte	.LASF75
 2594 0942 03       		.byte	0x3
 2595 0943 E5       		.byte	0xe5
 2596 0944 1A       		.uleb128 0x1a
 2597 0945 06000000 		.4byte	.LASF76
 2598 0949 06000000 		.4byte	.LASF76
 2599 094d 03       		.byte	0x3
 2600 094e E6       		.byte	0xe6
 2601 094f 00       		.byte	0
 2602              		.section	.debug_abbrev,"",%progbits
 2603              	.Ldebug_abbrev0:
 2604 0000 01       		.uleb128 0x1
 2605 0001 11       		.uleb128 0x11
 2606 0002 01       		.byte	0x1
 2607 0003 25       		.uleb128 0x25
 2608 0004 0E       		.uleb128 0xe
 2609 0005 13       		.uleb128 0x13
 2610 0006 0B       		.uleb128 0xb
 2611 0007 03       		.uleb128 0x3
 2612 0008 0E       		.uleb128 0xe
 2613 0009 1B       		.uleb128 0x1b
 2614 000a 0E       		.uleb128 0xe
 2615 000b 55       		.uleb128 0x55
 2616 000c 17       		.uleb128 0x17
 2617 000d 11       		.uleb128 0x11
ARM GAS  C:\Users\Petro\AppData\Local\Temp\ccebLrz4.s 			page 76


 2618 000e 01       		.uleb128 0x1
 2619 000f 10       		.uleb128 0x10
 2620 0010 17       		.uleb128 0x17
 2621 0011 00       		.byte	0
 2622 0012 00       		.byte	0
 2623 0013 02       		.uleb128 0x2
 2624 0014 24       		.uleb128 0x24
 2625 0015 00       		.byte	0
 2626 0016 0B       		.uleb128 0xb
 2627 0017 0B       		.uleb128 0xb
 2628 0018 3E       		.uleb128 0x3e
 2629 0019 0B       		.uleb128 0xb
 2630 001a 03       		.uleb128 0x3
 2631 001b 0E       		.uleb128 0xe
 2632 001c 00       		.byte	0
 2633 001d 00       		.byte	0
 2634 001e 03       		.uleb128 0x3
 2635 001f 24       		.uleb128 0x24
 2636 0020 00       		.byte	0
 2637 0021 0B       		.uleb128 0xb
 2638 0022 0B       		.uleb128 0xb
 2639 0023 3E       		.uleb128 0x3e
 2640 0024 0B       		.uleb128 0xb
 2641 0025 03       		.uleb128 0x3
 2642 0026 08       		.uleb128 0x8
 2643 0027 00       		.byte	0
 2644 0028 00       		.byte	0
 2645 0029 04       		.uleb128 0x4
 2646 002a 16       		.uleb128 0x16
 2647 002b 00       		.byte	0
 2648 002c 03       		.uleb128 0x3
 2649 002d 0E       		.uleb128 0xe
 2650 002e 3A       		.uleb128 0x3a
 2651 002f 0B       		.uleb128 0xb
 2652 0030 3B       		.uleb128 0x3b
 2653 0031 05       		.uleb128 0x5
 2654 0032 49       		.uleb128 0x49
 2655 0033 13       		.uleb128 0x13
 2656 0034 00       		.byte	0
 2657 0035 00       		.byte	0
 2658 0036 05       		.uleb128 0x5
 2659 0037 35       		.uleb128 0x35
 2660 0038 00       		.byte	0
 2661 0039 49       		.uleb128 0x49
 2662 003a 13       		.uleb128 0x13
 2663 003b 00       		.byte	0
 2664 003c 00       		.byte	0
 2665 003d 06       		.uleb128 0x6
 2666 003e 2E       		.uleb128 0x2e
 2667 003f 01       		.byte	0x1
 2668 0040 3F       		.uleb128 0x3f
 2669 0041 19       		.uleb128 0x19
 2670 0042 03       		.uleb128 0x3
 2671 0043 0E       		.uleb128 0xe
 2672 0044 3A       		.uleb128 0x3a
 2673 0045 0B       		.uleb128 0xb
 2674 0046 3B       		.uleb128 0x3b
ARM GAS  C:\Users\Petro\AppData\Local\Temp\ccebLrz4.s 			page 77


 2675 0047 05       		.uleb128 0x5
 2676 0048 27       		.uleb128 0x27
 2677 0049 19       		.uleb128 0x19
 2678 004a 20       		.uleb128 0x20
 2679 004b 0B       		.uleb128 0xb
 2680 004c 01       		.uleb128 0x1
 2681 004d 13       		.uleb128 0x13
 2682 004e 00       		.byte	0
 2683 004f 00       		.byte	0
 2684 0050 07       		.uleb128 0x7
 2685 0051 05       		.uleb128 0x5
 2686 0052 00       		.byte	0
 2687 0053 03       		.uleb128 0x3
 2688 0054 0E       		.uleb128 0xe
 2689 0055 3A       		.uleb128 0x3a
 2690 0056 0B       		.uleb128 0xb
 2691 0057 3B       		.uleb128 0x3b
 2692 0058 05       		.uleb128 0x5
 2693 0059 49       		.uleb128 0x49
 2694 005a 13       		.uleb128 0x13
 2695 005b 00       		.byte	0
 2696 005c 00       		.byte	0
 2697 005d 08       		.uleb128 0x8
 2698 005e 2E       		.uleb128 0x2e
 2699 005f 01       		.byte	0x1
 2700 0060 3F       		.uleb128 0x3f
 2701 0061 19       		.uleb128 0x19
 2702 0062 03       		.uleb128 0x3
 2703 0063 0E       		.uleb128 0xe
 2704 0064 3A       		.uleb128 0x3a
 2705 0065 0B       		.uleb128 0xb
 2706 0066 3B       		.uleb128 0x3b
 2707 0067 0B       		.uleb128 0xb
 2708 0068 27       		.uleb128 0x27
 2709 0069 19       		.uleb128 0x19
 2710 006a 11       		.uleb128 0x11
 2711 006b 01       		.uleb128 0x1
 2712 006c 12       		.uleb128 0x12
 2713 006d 06       		.uleb128 0x6
 2714 006e 40       		.uleb128 0x40
 2715 006f 18       		.uleb128 0x18
 2716 0070 9742     		.uleb128 0x2117
 2717 0072 19       		.uleb128 0x19
 2718 0073 01       		.uleb128 0x1
 2719 0074 13       		.uleb128 0x13
 2720 0075 00       		.byte	0
 2721 0076 00       		.byte	0
 2722 0077 09       		.uleb128 0x9
 2723 0078 1D       		.uleb128 0x1d
 2724 0079 01       		.byte	0x1
 2725 007a 31       		.uleb128 0x31
 2726 007b 13       		.uleb128 0x13
 2727 007c 11       		.uleb128 0x11
 2728 007d 01       		.uleb128 0x1
 2729 007e 12       		.uleb128 0x12
 2730 007f 06       		.uleb128 0x6
 2731 0080 58       		.uleb128 0x58
ARM GAS  C:\Users\Petro\AppData\Local\Temp\ccebLrz4.s 			page 78


 2732 0081 0B       		.uleb128 0xb
 2733 0082 59       		.uleb128 0x59
 2734 0083 0B       		.uleb128 0xb
 2735 0084 01       		.uleb128 0x1
 2736 0085 13       		.uleb128 0x13
 2737 0086 00       		.byte	0
 2738 0087 00       		.byte	0
 2739 0088 0A       		.uleb128 0xa
 2740 0089 05       		.uleb128 0x5
 2741 008a 00       		.byte	0
 2742 008b 31       		.uleb128 0x31
 2743 008c 13       		.uleb128 0x13
 2744 008d 02       		.uleb128 0x2
 2745 008e 17       		.uleb128 0x17
 2746 008f 00       		.byte	0
 2747 0090 00       		.byte	0
 2748 0091 0B       		.uleb128 0xb
 2749 0092 1D       		.uleb128 0x1d
 2750 0093 01       		.byte	0x1
 2751 0094 31       		.uleb128 0x31
 2752 0095 13       		.uleb128 0x13
 2753 0096 11       		.uleb128 0x11
 2754 0097 01       		.uleb128 0x1
 2755 0098 12       		.uleb128 0x12
 2756 0099 06       		.uleb128 0x6
 2757 009a 58       		.uleb128 0x58
 2758 009b 0B       		.uleb128 0xb
 2759 009c 59       		.uleb128 0x59
 2760 009d 0B       		.uleb128 0xb
 2761 009e 00       		.byte	0
 2762 009f 00       		.byte	0
 2763 00a0 0C       		.uleb128 0xc
 2764 00a1 2E       		.uleb128 0x2e
 2765 00a2 01       		.byte	0x1
 2766 00a3 3F       		.uleb128 0x3f
 2767 00a4 19       		.uleb128 0x19
 2768 00a5 03       		.uleb128 0x3
 2769 00a6 0E       		.uleb128 0xe
 2770 00a7 3A       		.uleb128 0x3a
 2771 00a8 0B       		.uleb128 0xb
 2772 00a9 3B       		.uleb128 0x3b
 2773 00aa 05       		.uleb128 0x5
 2774 00ab 27       		.uleb128 0x27
 2775 00ac 19       		.uleb128 0x19
 2776 00ad 11       		.uleb128 0x11
 2777 00ae 01       		.uleb128 0x1
 2778 00af 12       		.uleb128 0x12
 2779 00b0 06       		.uleb128 0x6
 2780 00b1 40       		.uleb128 0x40
 2781 00b2 18       		.uleb128 0x18
 2782 00b3 9742     		.uleb128 0x2117
 2783 00b5 19       		.uleb128 0x19
 2784 00b6 01       		.uleb128 0x1
 2785 00b7 13       		.uleb128 0x13
 2786 00b8 00       		.byte	0
 2787 00b9 00       		.byte	0
 2788 00ba 0D       		.uleb128 0xd
ARM GAS  C:\Users\Petro\AppData\Local\Temp\ccebLrz4.s 			page 79


 2789 00bb 34       		.uleb128 0x34
 2790 00bc 00       		.byte	0
 2791 00bd 03       		.uleb128 0x3
 2792 00be 0E       		.uleb128 0xe
 2793 00bf 3A       		.uleb128 0x3a
 2794 00c0 0B       		.uleb128 0xb
 2795 00c1 3B       		.uleb128 0x3b
 2796 00c2 05       		.uleb128 0x5
 2797 00c3 49       		.uleb128 0x49
 2798 00c4 13       		.uleb128 0x13
 2799 00c5 02       		.uleb128 0x2
 2800 00c6 17       		.uleb128 0x17
 2801 00c7 00       		.byte	0
 2802 00c8 00       		.byte	0
 2803 00c9 0E       		.uleb128 0xe
 2804 00ca 898201   		.uleb128 0x4109
 2805 00cd 00       		.byte	0
 2806 00ce 11       		.uleb128 0x11
 2807 00cf 01       		.uleb128 0x1
 2808 00d0 31       		.uleb128 0x31
 2809 00d1 13       		.uleb128 0x13
 2810 00d2 00       		.byte	0
 2811 00d3 00       		.byte	0
 2812 00d4 0F       		.uleb128 0xf
 2813 00d5 05       		.uleb128 0x5
 2814 00d6 00       		.byte	0
 2815 00d7 03       		.uleb128 0x3
 2816 00d8 0E       		.uleb128 0xe
 2817 00d9 3A       		.uleb128 0x3a
 2818 00da 0B       		.uleb128 0xb
 2819 00db 3B       		.uleb128 0x3b
 2820 00dc 05       		.uleb128 0x5
 2821 00dd 49       		.uleb128 0x49
 2822 00de 13       		.uleb128 0x13
 2823 00df 02       		.uleb128 0x2
 2824 00e0 17       		.uleb128 0x17
 2825 00e1 00       		.byte	0
 2826 00e2 00       		.byte	0
 2827 00e3 10       		.uleb128 0x10
 2828 00e4 2E       		.uleb128 0x2e
 2829 00e5 01       		.byte	0x1
 2830 00e6 31       		.uleb128 0x31
 2831 00e7 13       		.uleb128 0x13
 2832 00e8 11       		.uleb128 0x11
 2833 00e9 01       		.uleb128 0x1
 2834 00ea 12       		.uleb128 0x12
 2835 00eb 06       		.uleb128 0x6
 2836 00ec 40       		.uleb128 0x40
 2837 00ed 18       		.uleb128 0x18
 2838 00ee 9742     		.uleb128 0x2117
 2839 00f0 19       		.uleb128 0x19
 2840 00f1 01       		.uleb128 0x1
 2841 00f2 13       		.uleb128 0x13
 2842 00f3 00       		.byte	0
 2843 00f4 00       		.byte	0
 2844 00f5 11       		.uleb128 0x11
 2845 00f6 2E       		.uleb128 0x2e
ARM GAS  C:\Users\Petro\AppData\Local\Temp\ccebLrz4.s 			page 80


 2846 00f7 00       		.byte	0
 2847 00f8 3F       		.uleb128 0x3f
 2848 00f9 19       		.uleb128 0x19
 2849 00fa 03       		.uleb128 0x3
 2850 00fb 0E       		.uleb128 0xe
 2851 00fc 3A       		.uleb128 0x3a
 2852 00fd 0B       		.uleb128 0xb
 2853 00fe 3B       		.uleb128 0x3b
 2854 00ff 05       		.uleb128 0x5
 2855 0100 27       		.uleb128 0x27
 2856 0101 19       		.uleb128 0x19
 2857 0102 49       		.uleb128 0x49
 2858 0103 13       		.uleb128 0x13
 2859 0104 11       		.uleb128 0x11
 2860 0105 01       		.uleb128 0x1
 2861 0106 12       		.uleb128 0x12
 2862 0107 06       		.uleb128 0x6
 2863 0108 40       		.uleb128 0x40
 2864 0109 18       		.uleb128 0x18
 2865 010a 9742     		.uleb128 0x2117
 2866 010c 19       		.uleb128 0x19
 2867 010d 00       		.byte	0
 2868 010e 00       		.byte	0
 2869 010f 12       		.uleb128 0x12
 2870 0110 2E       		.uleb128 0x2e
 2871 0111 00       		.byte	0
 2872 0112 3F       		.uleb128 0x3f
 2873 0113 19       		.uleb128 0x19
 2874 0114 03       		.uleb128 0x3
 2875 0115 0E       		.uleb128 0xe
 2876 0116 3A       		.uleb128 0x3a
 2877 0117 0B       		.uleb128 0xb
 2878 0118 3B       		.uleb128 0x3b
 2879 0119 05       		.uleb128 0x5
 2880 011a 27       		.uleb128 0x27
 2881 011b 19       		.uleb128 0x19
 2882 011c 49       		.uleb128 0x49
 2883 011d 13       		.uleb128 0x13
 2884 011e 20       		.uleb128 0x20
 2885 011f 0B       		.uleb128 0xb
 2886 0120 00       		.byte	0
 2887 0121 00       		.byte	0
 2888 0122 13       		.uleb128 0x13
 2889 0123 2E       		.uleb128 0x2e
 2890 0124 00       		.byte	0
 2891 0125 31       		.uleb128 0x31
 2892 0126 13       		.uleb128 0x13
 2893 0127 11       		.uleb128 0x11
 2894 0128 01       		.uleb128 0x1
 2895 0129 12       		.uleb128 0x12
 2896 012a 06       		.uleb128 0x6
 2897 012b 40       		.uleb128 0x40
 2898 012c 18       		.uleb128 0x18
 2899 012d 9742     		.uleb128 0x2117
 2900 012f 19       		.uleb128 0x19
 2901 0130 00       		.byte	0
 2902 0131 00       		.byte	0
ARM GAS  C:\Users\Petro\AppData\Local\Temp\ccebLrz4.s 			page 81


 2903 0132 14       		.uleb128 0x14
 2904 0133 34       		.uleb128 0x34
 2905 0134 00       		.byte	0
 2906 0135 03       		.uleb128 0x3
 2907 0136 0E       		.uleb128 0xe
 2908 0137 3A       		.uleb128 0x3a
 2909 0138 0B       		.uleb128 0xb
 2910 0139 3B       		.uleb128 0x3b
 2911 013a 0B       		.uleb128 0xb
 2912 013b 49       		.uleb128 0x49
 2913 013c 13       		.uleb128 0x13
 2914 013d 02       		.uleb128 0x2
 2915 013e 17       		.uleb128 0x17
 2916 013f 00       		.byte	0
 2917 0140 00       		.byte	0
 2918 0141 15       		.uleb128 0x15
 2919 0142 898201   		.uleb128 0x4109
 2920 0145 01       		.byte	0x1
 2921 0146 11       		.uleb128 0x11
 2922 0147 01       		.uleb128 0x1
 2923 0148 31       		.uleb128 0x31
 2924 0149 13       		.uleb128 0x13
 2925 014a 00       		.byte	0
 2926 014b 00       		.byte	0
 2927 014c 16       		.uleb128 0x16
 2928 014d 8A8201   		.uleb128 0x410a
 2929 0150 00       		.byte	0
 2930 0151 02       		.uleb128 0x2
 2931 0152 18       		.uleb128 0x18
 2932 0153 9142     		.uleb128 0x2111
 2933 0155 18       		.uleb128 0x18
 2934 0156 00       		.byte	0
 2935 0157 00       		.byte	0
 2936 0158 17       		.uleb128 0x17
 2937 0159 05       		.uleb128 0x5
 2938 015a 00       		.byte	0
 2939 015b 31       		.uleb128 0x31
 2940 015c 13       		.uleb128 0x13
 2941 015d 02       		.uleb128 0x2
 2942 015e 18       		.uleb128 0x18
 2943 015f 00       		.byte	0
 2944 0160 00       		.byte	0
 2945 0161 18       		.uleb128 0x18
 2946 0162 05       		.uleb128 0x5
 2947 0163 00       		.byte	0
 2948 0164 03       		.uleb128 0x3
 2949 0165 0E       		.uleb128 0xe
 2950 0166 3A       		.uleb128 0x3a
 2951 0167 0B       		.uleb128 0xb
 2952 0168 3B       		.uleb128 0x3b
 2953 0169 05       		.uleb128 0x5
 2954 016a 49       		.uleb128 0x49
 2955 016b 13       		.uleb128 0x13
 2956 016c 02       		.uleb128 0x2
 2957 016d 18       		.uleb128 0x18
 2958 016e 00       		.byte	0
 2959 016f 00       		.byte	0
ARM GAS  C:\Users\Petro\AppData\Local\Temp\ccebLrz4.s 			page 82


 2960 0170 19       		.uleb128 0x19
 2961 0171 34       		.uleb128 0x34
 2962 0172 00       		.byte	0
 2963 0173 03       		.uleb128 0x3
 2964 0174 0E       		.uleb128 0xe
 2965 0175 3A       		.uleb128 0x3a
 2966 0176 0B       		.uleb128 0xb
 2967 0177 3B       		.uleb128 0x3b
 2968 0178 0B       		.uleb128 0xb
 2969 0179 49       		.uleb128 0x49
 2970 017a 13       		.uleb128 0x13
 2971 017b 3F       		.uleb128 0x3f
 2972 017c 19       		.uleb128 0x19
 2973 017d 02       		.uleb128 0x2
 2974 017e 18       		.uleb128 0x18
 2975 017f 00       		.byte	0
 2976 0180 00       		.byte	0
 2977 0181 1A       		.uleb128 0x1a
 2978 0182 2E       		.uleb128 0x2e
 2979 0183 00       		.byte	0
 2980 0184 3F       		.uleb128 0x3f
 2981 0185 19       		.uleb128 0x19
 2982 0186 3C       		.uleb128 0x3c
 2983 0187 19       		.uleb128 0x19
 2984 0188 6E       		.uleb128 0x6e
 2985 0189 0E       		.uleb128 0xe
 2986 018a 03       		.uleb128 0x3
 2987 018b 0E       		.uleb128 0xe
 2988 018c 3A       		.uleb128 0x3a
 2989 018d 0B       		.uleb128 0xb
 2990 018e 3B       		.uleb128 0x3b
 2991 018f 0B       		.uleb128 0xb
 2992 0190 00       		.byte	0
 2993 0191 00       		.byte	0
 2994 0192 00       		.byte	0
 2995              		.section	.debug_loc,"",%progbits
 2996              	.Ldebug_loc0:
 2997              	.LLST0:
 2998 0000 0E000000 		.4byte	.LVL0
 2999 0004 14000000 		.4byte	.LVL1
 3000 0008 0200     		.2byte	0x2
 3001 000a 32       		.byte	0x32
 3002 000b 9F       		.byte	0x9f
 3003 000c 00000000 		.4byte	0
 3004 0010 00000000 		.4byte	0
 3005              	.LLST1:
 3006 0014 14000000 		.4byte	.LVL1
 3007 0018 1A000000 		.4byte	.LVL2
 3008 001c 0400     		.2byte	0x4
 3009 001e 0A       		.byte	0xa
 3010 001f FFFF     		.2byte	0xffff
 3011 0021 9F       		.byte	0x9f
 3012 0022 00000000 		.4byte	0
 3013 0026 00000000 		.4byte	0
 3014              	.LLST2:
 3015 002a 1A000000 		.4byte	.LVL2
 3016 002e 20000000 		.4byte	.LVL3
ARM GAS  C:\Users\Petro\AppData\Local\Temp\ccebLrz4.s 			page 83


 3017 0032 0400     		.2byte	0x4
 3018 0034 0A       		.byte	0xa
 3019 0035 C409     		.2byte	0x9c4
 3020 0037 9F       		.byte	0x9f
 3021 0038 00000000 		.4byte	0
 3022 003c 00000000 		.4byte	0
 3023              	.LLST3:
 3024 0040 20000000 		.4byte	.LVL3
 3025 0044 26000000 		.4byte	.LVL4
 3026 0048 0200     		.2byte	0x2
 3027 004a 30       		.byte	0x30
 3028 004b 9F       		.byte	0x9f
 3029 004c 00000000 		.4byte	0
 3030 0050 00000000 		.4byte	0
 3031              	.LLST4:
 3032 0054 06000000 		.4byte	.LVL5
 3033 0058 13000000 		.4byte	.LVL6-1
 3034 005c 0100     		.2byte	0x1
 3035 005e 50       		.byte	0x50
 3036 005f 00000000 		.4byte	0
 3037 0063 00000000 		.4byte	0
 3038              	.LLST5:
 3039 0067 00000000 		.4byte	.LVL7
 3040 006b 07000000 		.4byte	.LVL8-1
 3041 006f 0100     		.2byte	0x1
 3042 0071 50       		.byte	0x50
 3043 0072 07000000 		.4byte	.LVL8-1
 3044 0076 16000000 		.4byte	.LVL9
 3045 007a 0100     		.2byte	0x1
 3046 007c 54       		.byte	0x54
 3047 007d 16000000 		.4byte	.LVL9
 3048 0081 28000000 		.4byte	.LFE6
 3049 0085 0400     		.2byte	0x4
 3050 0087 F3       		.byte	0xf3
 3051 0088 01       		.uleb128 0x1
 3052 0089 50       		.byte	0x50
 3053 008a 9F       		.byte	0x9f
 3054 008b 00000000 		.4byte	0
 3055 008f 00000000 		.4byte	0
 3056              	.LLST6:
 3057 0093 08000000 		.4byte	.LVL8
 3058 0097 1B000000 		.4byte	.LVL10-1
 3059 009b 0100     		.2byte	0x1
 3060 009d 50       		.byte	0x50
 3061 009e 00000000 		.4byte	0
 3062 00a2 00000000 		.4byte	0
 3063              	.LLST7:
 3064 00a6 00000000 		.4byte	.LVL11
 3065 00aa 07000000 		.4byte	.LVL12-1
 3066 00ae 0100     		.2byte	0x1
 3067 00b0 50       		.byte	0x50
 3068 00b1 07000000 		.4byte	.LVL12-1
 3069 00b5 16000000 		.4byte	.LVL13
 3070 00b9 0100     		.2byte	0x1
 3071 00bb 54       		.byte	0x54
 3072 00bc 16000000 		.4byte	.LVL13
 3073 00c0 28000000 		.4byte	.LFE7
ARM GAS  C:\Users\Petro\AppData\Local\Temp\ccebLrz4.s 			page 84


 3074 00c4 0400     		.2byte	0x4
 3075 00c6 F3       		.byte	0xf3
 3076 00c7 01       		.uleb128 0x1
 3077 00c8 50       		.byte	0x50
 3078 00c9 9F       		.byte	0x9f
 3079 00ca 00000000 		.4byte	0
 3080 00ce 00000000 		.4byte	0
 3081              	.LLST8:
 3082 00d2 08000000 		.4byte	.LVL12
 3083 00d6 1B000000 		.4byte	.LVL14-1
 3084 00da 0100     		.2byte	0x1
 3085 00dc 50       		.byte	0x50
 3086 00dd 00000000 		.4byte	0
 3087 00e1 00000000 		.4byte	0
 3088              	.LLST9:
 3089 00e5 00000000 		.4byte	.LVL15
 3090 00e9 07000000 		.4byte	.LVL16-1
 3091 00ed 0100     		.2byte	0x1
 3092 00ef 50       		.byte	0x50
 3093 00f0 07000000 		.4byte	.LVL16-1
 3094 00f4 16000000 		.4byte	.LVL17
 3095 00f8 0100     		.2byte	0x1
 3096 00fa 54       		.byte	0x54
 3097 00fb 16000000 		.4byte	.LVL17
 3098 00ff 28000000 		.4byte	.LFE8
 3099 0103 0400     		.2byte	0x4
 3100 0105 F3       		.byte	0xf3
 3101 0106 01       		.uleb128 0x1
 3102 0107 50       		.byte	0x50
 3103 0108 9F       		.byte	0x9f
 3104 0109 00000000 		.4byte	0
 3105 010d 00000000 		.4byte	0
 3106              	.LLST10:
 3107 0111 08000000 		.4byte	.LVL16
 3108 0115 1B000000 		.4byte	.LVL18-1
 3109 0119 0100     		.2byte	0x1
 3110 011b 50       		.byte	0x50
 3111 011c 00000000 		.4byte	0
 3112 0120 00000000 		.4byte	0
 3113              	.LLST11:
 3114 0124 00000000 		.4byte	.LVL19
 3115 0128 07000000 		.4byte	.LVL20-1
 3116 012c 0100     		.2byte	0x1
 3117 012e 50       		.byte	0x50
 3118 012f 07000000 		.4byte	.LVL20-1
 3119 0133 16000000 		.4byte	.LVL21
 3120 0137 0100     		.2byte	0x1
 3121 0139 54       		.byte	0x54
 3122 013a 16000000 		.4byte	.LVL21
 3123 013e 30000000 		.4byte	.LFE9
 3124 0142 0400     		.2byte	0x4
 3125 0144 F3       		.byte	0xf3
 3126 0145 01       		.uleb128 0x1
 3127 0146 50       		.byte	0x50
 3128 0147 9F       		.byte	0x9f
 3129 0148 00000000 		.4byte	0
 3130 014c 00000000 		.4byte	0
ARM GAS  C:\Users\Petro\AppData\Local\Temp\ccebLrz4.s 			page 85


 3131              	.LLST12:
 3132 0150 08000000 		.4byte	.LVL20
 3133 0154 23000000 		.4byte	.LVL22-1
 3134 0158 0100     		.2byte	0x1
 3135 015a 50       		.byte	0x50
 3136 015b 00000000 		.4byte	0
 3137 015f 00000000 		.4byte	0
 3138              	.LLST13:
 3139 0163 00000000 		.4byte	.LVL23
 3140 0167 04000000 		.4byte	.LVL24
 3141 016b 0100     		.2byte	0x1
 3142 016d 50       		.byte	0x50
 3143 016e 04000000 		.4byte	.LVL24
 3144 0172 10000000 		.4byte	.LFE10
 3145 0176 0400     		.2byte	0x4
 3146 0178 F3       		.byte	0xf3
 3147 0179 01       		.uleb128 0x1
 3148 017a 50       		.byte	0x50
 3149 017b 9F       		.byte	0x9f
 3150 017c 00000000 		.4byte	0
 3151 0180 00000000 		.4byte	0
 3152              	.LLST14:
 3153 0184 00000000 		.4byte	.LVL25
 3154 0188 07000000 		.4byte	.LVL26-1
 3155 018c 0100     		.2byte	0x1
 3156 018e 50       		.byte	0x50
 3157 018f 07000000 		.4byte	.LVL26-1
 3158 0193 0E000000 		.4byte	.LVL27
 3159 0197 0100     		.2byte	0x1
 3160 0199 54       		.byte	0x54
 3161 019a 0E000000 		.4byte	.LVL27
 3162 019e 28000000 		.4byte	.LFE11
 3163 01a2 0400     		.2byte	0x4
 3164 01a4 F3       		.byte	0xf3
 3165 01a5 01       		.uleb128 0x1
 3166 01a6 50       		.byte	0x50
 3167 01a7 9F       		.byte	0x9f
 3168 01a8 00000000 		.4byte	0
 3169 01ac 00000000 		.4byte	0
 3170              	.LLST15:
 3171 01b0 08000000 		.4byte	.LVL26
 3172 01b4 1F000000 		.4byte	.LVL28-1
 3173 01b8 0100     		.2byte	0x1
 3174 01ba 50       		.byte	0x50
 3175 01bb 00000000 		.4byte	0
 3176 01bf 00000000 		.4byte	0
 3177              	.LLST16:
 3178 01c3 00000000 		.4byte	.LVL29
 3179 01c7 07000000 		.4byte	.LVL30-1
 3180 01cb 0100     		.2byte	0x1
 3181 01cd 50       		.byte	0x50
 3182 01ce 07000000 		.4byte	.LVL30-1
 3183 01d2 0E000000 		.4byte	.LVL31
 3184 01d6 0100     		.2byte	0x1
 3185 01d8 54       		.byte	0x54
 3186 01d9 0E000000 		.4byte	.LVL31
 3187 01dd 28000000 		.4byte	.LFE12
ARM GAS  C:\Users\Petro\AppData\Local\Temp\ccebLrz4.s 			page 86


 3188 01e1 0400     		.2byte	0x4
 3189 01e3 F3       		.byte	0xf3
 3190 01e4 01       		.uleb128 0x1
 3191 01e5 50       		.byte	0x50
 3192 01e6 9F       		.byte	0x9f
 3193 01e7 00000000 		.4byte	0
 3194 01eb 00000000 		.4byte	0
 3195              	.LLST17:
 3196 01ef 08000000 		.4byte	.LVL30
 3197 01f3 1F000000 		.4byte	.LVL32-1
 3198 01f7 0100     		.2byte	0x1
 3199 01f9 50       		.byte	0x50
 3200 01fa 00000000 		.4byte	0
 3201 01fe 00000000 		.4byte	0
 3202              	.LLST18:
 3203 0202 00000000 		.4byte	.LVL33
 3204 0206 07000000 		.4byte	.LVL34-1
 3205 020a 0100     		.2byte	0x1
 3206 020c 50       		.byte	0x50
 3207 020d 07000000 		.4byte	.LVL34-1
 3208 0211 10000000 		.4byte	.LVL35
 3209 0215 0100     		.2byte	0x1
 3210 0217 54       		.byte	0x54
 3211 0218 10000000 		.4byte	.LVL35
 3212 021c 2C000000 		.4byte	.LFE13
 3213 0220 0400     		.2byte	0x4
 3214 0222 F3       		.byte	0xf3
 3215 0223 01       		.uleb128 0x1
 3216 0224 50       		.byte	0x50
 3217 0225 9F       		.byte	0x9f
 3218 0226 00000000 		.4byte	0
 3219 022a 00000000 		.4byte	0
 3220              	.LLST19:
 3221 022e 08000000 		.4byte	.LVL34
 3222 0232 1F000000 		.4byte	.LVL36-1
 3223 0236 0100     		.2byte	0x1
 3224 0238 50       		.byte	0x50
 3225 0239 00000000 		.4byte	0
 3226 023d 00000000 		.4byte	0
 3227              	.LLST20:
 3228 0241 00000000 		.4byte	.LVL37
 3229 0245 07000000 		.4byte	.LVL38-1
 3230 0249 0100     		.2byte	0x1
 3231 024b 50       		.byte	0x50
 3232 024c 07000000 		.4byte	.LVL38-1
 3233 0250 16000000 		.4byte	.LVL39
 3234 0254 0100     		.2byte	0x1
 3235 0256 54       		.byte	0x54
 3236 0257 16000000 		.4byte	.LVL39
 3237 025b 28000000 		.4byte	.LFE14
 3238 025f 0400     		.2byte	0x4
 3239 0261 F3       		.byte	0xf3
 3240 0262 01       		.uleb128 0x1
 3241 0263 50       		.byte	0x50
 3242 0264 9F       		.byte	0x9f
 3243 0265 00000000 		.4byte	0
 3244 0269 00000000 		.4byte	0
ARM GAS  C:\Users\Petro\AppData\Local\Temp\ccebLrz4.s 			page 87


 3245              	.LLST21:
 3246 026d 08000000 		.4byte	.LVL38
 3247 0271 1B000000 		.4byte	.LVL40-1
 3248 0275 0100     		.2byte	0x1
 3249 0277 50       		.byte	0x50
 3250 0278 00000000 		.4byte	0
 3251 027c 00000000 		.4byte	0
 3252              	.LLST22:
 3253 0280 00000000 		.4byte	.LVL41
 3254 0284 04000000 		.4byte	.LVL42
 3255 0288 0100     		.2byte	0x1
 3256 028a 50       		.byte	0x50
 3257 028b 04000000 		.4byte	.LVL42
 3258 028f 0C000000 		.4byte	.LFE15
 3259 0293 0400     		.2byte	0x4
 3260 0295 F3       		.byte	0xf3
 3261 0296 01       		.uleb128 0x1
 3262 0297 50       		.byte	0x50
 3263 0298 9F       		.byte	0x9f
 3264 0299 00000000 		.4byte	0
 3265 029d 00000000 		.4byte	0
 3266              	.LLST23:
 3267 02a1 00000000 		.4byte	.LVL43
 3268 02a5 07000000 		.4byte	.LVL44-1
 3269 02a9 0100     		.2byte	0x1
 3270 02ab 50       		.byte	0x50
 3271 02ac 07000000 		.4byte	.LVL44-1
 3272 02b0 16000000 		.4byte	.LVL45
 3273 02b4 0100     		.2byte	0x1
 3274 02b6 54       		.byte	0x54
 3275 02b7 16000000 		.4byte	.LVL45
 3276 02bb 28000000 		.4byte	.LFE17
 3277 02bf 0400     		.2byte	0x4
 3278 02c1 F3       		.byte	0xf3
 3279 02c2 01       		.uleb128 0x1
 3280 02c3 50       		.byte	0x50
 3281 02c4 9F       		.byte	0x9f
 3282 02c5 00000000 		.4byte	0
 3283 02c9 00000000 		.4byte	0
 3284              	.LLST24:
 3285 02cd 08000000 		.4byte	.LVL44
 3286 02d1 1B000000 		.4byte	.LVL46-1
 3287 02d5 0100     		.2byte	0x1
 3288 02d7 50       		.byte	0x50
 3289 02d8 00000000 		.4byte	0
 3290 02dc 00000000 		.4byte	0
 3291              	.LLST25:
 3292 02e0 00000000 		.4byte	.LVL47
 3293 02e4 04000000 		.4byte	.LVL48
 3294 02e8 0100     		.2byte	0x1
 3295 02ea 50       		.byte	0x50
 3296 02eb 04000000 		.4byte	.LVL48
 3297 02ef 0C000000 		.4byte	.LFE18
 3298 02f3 0400     		.2byte	0x4
 3299 02f5 F3       		.byte	0xf3
 3300 02f6 01       		.uleb128 0x1
 3301 02f7 50       		.byte	0x50
ARM GAS  C:\Users\Petro\AppData\Local\Temp\ccebLrz4.s 			page 88


 3302 02f8 9F       		.byte	0x9f
 3303 02f9 00000000 		.4byte	0
 3304 02fd 00000000 		.4byte	0
 3305              	.LLST26:
 3306 0301 00000000 		.4byte	.LVL49
 3307 0305 07000000 		.4byte	.LVL50-1
 3308 0309 0100     		.2byte	0x1
 3309 030b 50       		.byte	0x50
 3310 030c 07000000 		.4byte	.LVL50-1
 3311 0310 1E000000 		.4byte	.LVL52
 3312 0314 0100     		.2byte	0x1
 3313 0316 54       		.byte	0x54
 3314 0317 1E000000 		.4byte	.LVL52
 3315 031b 24000000 		.4byte	.LFE20
 3316 031f 0400     		.2byte	0x4
 3317 0321 F3       		.byte	0xf3
 3318 0322 01       		.uleb128 0x1
 3319 0323 50       		.byte	0x50
 3320 0324 9F       		.byte	0x9f
 3321 0325 00000000 		.4byte	0
 3322 0329 00000000 		.4byte	0
 3323              	.LLST27:
 3324 032d 08000000 		.4byte	.LVL50
 3325 0331 1D000000 		.4byte	.LVL51-1
 3326 0335 0100     		.2byte	0x1
 3327 0337 50       		.byte	0x50
 3328 0338 00000000 		.4byte	0
 3329 033c 00000000 		.4byte	0
 3330              	.LLST28:
 3331 0340 00000000 		.4byte	.LVL53
 3332 0344 04000000 		.4byte	.LVL54
 3333 0348 0100     		.2byte	0x1
 3334 034a 50       		.byte	0x50
 3335 034b 04000000 		.4byte	.LVL54
 3336 034f 0C000000 		.4byte	.LFE21
 3337 0353 0400     		.2byte	0x4
 3338 0355 F3       		.byte	0xf3
 3339 0356 01       		.uleb128 0x1
 3340 0357 50       		.byte	0x50
 3341 0358 9F       		.byte	0x9f
 3342 0359 00000000 		.4byte	0
 3343 035d 00000000 		.4byte	0
 3344              	.LLST29:
 3345 0361 00000000 		.4byte	.LVL55
 3346 0365 07000000 		.4byte	.LVL56-1
 3347 0369 0100     		.2byte	0x1
 3348 036b 50       		.byte	0x50
 3349 036c 07000000 		.4byte	.LVL56-1
 3350 0370 0E000000 		.4byte	.LVL57
 3351 0374 0100     		.2byte	0x1
 3352 0376 54       		.byte	0x54
 3353 0377 0E000000 		.4byte	.LVL57
 3354 037b 28000000 		.4byte	.LFE23
 3355 037f 0400     		.2byte	0x4
 3356 0381 F3       		.byte	0xf3
 3357 0382 01       		.uleb128 0x1
 3358 0383 50       		.byte	0x50
ARM GAS  C:\Users\Petro\AppData\Local\Temp\ccebLrz4.s 			page 89


 3359 0384 9F       		.byte	0x9f
 3360 0385 00000000 		.4byte	0
 3361 0389 00000000 		.4byte	0
 3362              	.LLST30:
 3363 038d 08000000 		.4byte	.LVL56
 3364 0391 1F000000 		.4byte	.LVL58-1
 3365 0395 0100     		.2byte	0x1
 3366 0397 50       		.byte	0x50
 3367 0398 00000000 		.4byte	0
 3368 039c 00000000 		.4byte	0
 3369              	.LLST31:
 3370 03a0 00000000 		.4byte	.LVL59
 3371 03a4 04000000 		.4byte	.LVL60
 3372 03a8 0100     		.2byte	0x1
 3373 03aa 50       		.byte	0x50
 3374 03ab 04000000 		.4byte	.LVL60
 3375 03af 0C000000 		.4byte	.LFE24
 3376 03b3 0400     		.2byte	0x4
 3377 03b5 F3       		.byte	0xf3
 3378 03b6 01       		.uleb128 0x1
 3379 03b7 50       		.byte	0x50
 3380 03b8 9F       		.byte	0x9f
 3381 03b9 00000000 		.4byte	0
 3382 03bd 00000000 		.4byte	0
 3383              	.LLST32:
 3384 03c1 00000000 		.4byte	.LVL61
 3385 03c5 04000000 		.4byte	.LVL62
 3386 03c9 0100     		.2byte	0x1
 3387 03cb 50       		.byte	0x50
 3388 03cc 04000000 		.4byte	.LVL62
 3389 03d0 0C000000 		.4byte	.LFE26
 3390 03d4 0400     		.2byte	0x4
 3391 03d6 F3       		.byte	0xf3
 3392 03d7 01       		.uleb128 0x1
 3393 03d8 50       		.byte	0x50
 3394 03d9 9F       		.byte	0x9f
 3395 03da 00000000 		.4byte	0
 3396 03de 00000000 		.4byte	0
 3397              	.LLST33:
 3398 03e2 00000000 		.4byte	.LVL63
 3399 03e6 07000000 		.4byte	.LVL64-1
 3400 03ea 0100     		.2byte	0x1
 3401 03ec 50       		.byte	0x50
 3402 03ed 07000000 		.4byte	.LVL64-1
 3403 03f1 16000000 		.4byte	.LVL65
 3404 03f5 0100     		.2byte	0x1
 3405 03f7 54       		.byte	0x54
 3406 03f8 16000000 		.4byte	.LVL65
 3407 03fc 24000000 		.4byte	.LFE30
 3408 0400 0400     		.2byte	0x4
 3409 0402 F3       		.byte	0xf3
 3410 0403 01       		.uleb128 0x1
 3411 0404 50       		.byte	0x50
 3412 0405 9F       		.byte	0x9f
 3413 0406 00000000 		.4byte	0
 3414 040a 00000000 		.4byte	0
 3415              	.LLST34:
ARM GAS  C:\Users\Petro\AppData\Local\Temp\ccebLrz4.s 			page 90


 3416 040e 08000000 		.4byte	.LVL64
 3417 0412 1B000000 		.4byte	.LVL66-1
 3418 0416 0100     		.2byte	0x1
 3419 0418 50       		.byte	0x50
 3420 0419 00000000 		.4byte	0
 3421 041d 00000000 		.4byte	0
 3422              	.LLST35:
 3423 0421 00000000 		.4byte	.LVL67
 3424 0425 07000000 		.4byte	.LVL68-1
 3425 0429 0100     		.2byte	0x1
 3426 042b 50       		.byte	0x50
 3427 042c 07000000 		.4byte	.LVL68-1
 3428 0430 1E000000 		.4byte	.LVL70
 3429 0434 0100     		.2byte	0x1
 3430 0436 54       		.byte	0x54
 3431 0437 1E000000 		.4byte	.LVL70
 3432 043b 24000000 		.4byte	.LFE31
 3433 043f 0400     		.2byte	0x4
 3434 0441 F3       		.byte	0xf3
 3435 0442 01       		.uleb128 0x1
 3436 0443 50       		.byte	0x50
 3437 0444 9F       		.byte	0x9f
 3438 0445 00000000 		.4byte	0
 3439 0449 00000000 		.4byte	0
 3440              	.LLST36:
 3441 044d 08000000 		.4byte	.LVL68
 3442 0451 1D000000 		.4byte	.LVL69-1
 3443 0455 0100     		.2byte	0x1
 3444 0457 50       		.byte	0x50
 3445 0458 00000000 		.4byte	0
 3446 045c 00000000 		.4byte	0
 3447              	.LLST37:
 3448 0460 00000000 		.4byte	.LVL71
 3449 0464 07000000 		.4byte	.LVL72-1
 3450 0468 0100     		.2byte	0x1
 3451 046a 50       		.byte	0x50
 3452 046b 07000000 		.4byte	.LVL72-1
 3453 046f 1E000000 		.4byte	.LVL74
 3454 0473 0100     		.2byte	0x1
 3455 0475 54       		.byte	0x54
 3456 0476 1E000000 		.4byte	.LVL74
 3457 047a 28000000 		.4byte	.LFE32
 3458 047e 0400     		.2byte	0x4
 3459 0480 F3       		.byte	0xf3
 3460 0481 01       		.uleb128 0x1
 3461 0482 50       		.byte	0x50
 3462 0483 9F       		.byte	0x9f
 3463 0484 00000000 		.4byte	0
 3464 0488 00000000 		.4byte	0
 3465              	.LLST38:
 3466 048c 08000000 		.4byte	.LVL72
 3467 0490 1D000000 		.4byte	.LVL73-1
 3468 0494 0100     		.2byte	0x1
 3469 0496 50       		.byte	0x50
 3470 0497 00000000 		.4byte	0
 3471 049b 00000000 		.4byte	0
 3472              	.LLST39:
ARM GAS  C:\Users\Petro\AppData\Local\Temp\ccebLrz4.s 			page 91


 3473 049f 00000000 		.4byte	.LVL75
 3474 04a3 07000000 		.4byte	.LVL76-1
 3475 04a7 0100     		.2byte	0x1
 3476 04a9 50       		.byte	0x50
 3477 04aa 07000000 		.4byte	.LVL76-1
 3478 04ae 1E000000 		.4byte	.LVL78
 3479 04b2 0100     		.2byte	0x1
 3480 04b4 54       		.byte	0x54
 3481 04b5 1E000000 		.4byte	.LVL78
 3482 04b9 24000000 		.4byte	.LFE33
 3483 04bd 0400     		.2byte	0x4
 3484 04bf F3       		.byte	0xf3
 3485 04c0 01       		.uleb128 0x1
 3486 04c1 50       		.byte	0x50
 3487 04c2 9F       		.byte	0x9f
 3488 04c3 00000000 		.4byte	0
 3489 04c7 00000000 		.4byte	0
 3490              	.LLST40:
 3491 04cb 08000000 		.4byte	.LVL76
 3492 04cf 1D000000 		.4byte	.LVL77-1
 3493 04d3 0100     		.2byte	0x1
 3494 04d5 50       		.byte	0x50
 3495 04d6 00000000 		.4byte	0
 3496 04da 00000000 		.4byte	0
 3497              	.LLST41:
 3498 04de 00000000 		.4byte	.LVL79
 3499 04e2 07000000 		.4byte	.LVL80-1
 3500 04e6 0100     		.2byte	0x1
 3501 04e8 50       		.byte	0x50
 3502 04e9 07000000 		.4byte	.LVL80-1
 3503 04ed 1E000000 		.4byte	.LVL82
 3504 04f1 0100     		.2byte	0x1
 3505 04f3 54       		.byte	0x54
 3506 04f4 1E000000 		.4byte	.LVL82
 3507 04f8 24000000 		.4byte	.LFE34
 3508 04fc 0400     		.2byte	0x4
 3509 04fe F3       		.byte	0xf3
 3510 04ff 01       		.uleb128 0x1
 3511 0500 50       		.byte	0x50
 3512 0501 9F       		.byte	0x9f
 3513 0502 00000000 		.4byte	0
 3514 0506 00000000 		.4byte	0
 3515              	.LLST42:
 3516 050a 08000000 		.4byte	.LVL80
 3517 050e 1D000000 		.4byte	.LVL81-1
 3518 0512 0100     		.2byte	0x1
 3519 0514 50       		.byte	0x50
 3520 0515 00000000 		.4byte	0
 3521 0519 00000000 		.4byte	0
 3522              	.LLST43:
 3523 051d 00000000 		.4byte	.LVL83
 3524 0521 0B000000 		.4byte	.LVL84-1
 3525 0525 0100     		.2byte	0x1
 3526 0527 50       		.byte	0x50
 3527 0528 0B000000 		.4byte	.LVL84-1
 3528 052c 1C000000 		.4byte	.LFE35
 3529 0530 0400     		.2byte	0x4
ARM GAS  C:\Users\Petro\AppData\Local\Temp\ccebLrz4.s 			page 92


 3530 0532 F3       		.byte	0xf3
 3531 0533 01       		.uleb128 0x1
 3532 0534 50       		.byte	0x50
 3533 0535 9F       		.byte	0x9f
 3534 0536 00000000 		.4byte	0
 3535 053a 00000000 		.4byte	0
 3536              	.LLST44:
 3537 053e 00000000 		.4byte	.LVL83
 3538 0542 0B000000 		.4byte	.LVL84-1
 3539 0546 0100     		.2byte	0x1
 3540 0548 51       		.byte	0x51
 3541 0549 0B000000 		.4byte	.LVL84-1
 3542 054d 14000000 		.4byte	.LVL86
 3543 0551 0100     		.2byte	0x1
 3544 0553 55       		.byte	0x55
 3545 0554 14000000 		.4byte	.LVL86
 3546 0558 1C000000 		.4byte	.LFE35
 3547 055c 0400     		.2byte	0x4
 3548 055e F3       		.byte	0xf3
 3549 055f 01       		.uleb128 0x1
 3550 0560 51       		.byte	0x51
 3551 0561 9F       		.byte	0x9f
 3552 0562 00000000 		.4byte	0
 3553 0566 00000000 		.4byte	0
 3554              	.LLST45:
 3555 056a 0C000000 		.4byte	.LVL84
 3556 056e 13000000 		.4byte	.LVL85-1
 3557 0572 0100     		.2byte	0x1
 3558 0574 50       		.byte	0x50
 3559 0575 00000000 		.4byte	0
 3560 0579 00000000 		.4byte	0
 3561              	.LLST46:
 3562 057d 08000000 		.4byte	.LVL87
 3563 0581 13000000 		.4byte	.LVL88-1
 3564 0585 0100     		.2byte	0x1
 3565 0587 50       		.byte	0x50
 3566 0588 00000000 		.4byte	0
 3567 058c 00000000 		.4byte	0
 3568              		.section	.debug_aranges,"",%progbits
 3569 0000 44010000 		.4byte	0x144
 3570 0004 0200     		.2byte	0x2
 3571 0006 00000000 		.4byte	.Ldebug_info0
 3572 000a 04       		.byte	0x4
 3573 000b 00       		.byte	0
 3574 000c 0000     		.2byte	0
 3575 000e 0000     		.2byte	0
 3576 0010 00000000 		.4byte	.LFB2
 3577 0014 48000000 		.4byte	.LFE2-.LFB2
 3578 0018 00000000 		.4byte	.LFB5
 3579 001c 1C000000 		.4byte	.LFE5-.LFB5
 3580 0020 00000000 		.4byte	.LFB6
 3581 0024 28000000 		.4byte	.LFE6-.LFB6
 3582 0028 00000000 		.4byte	.LFB7
 3583 002c 28000000 		.4byte	.LFE7-.LFB7
 3584 0030 00000000 		.4byte	.LFB8
 3585 0034 28000000 		.4byte	.LFE8-.LFB8
 3586 0038 00000000 		.4byte	.LFB9
ARM GAS  C:\Users\Petro\AppData\Local\Temp\ccebLrz4.s 			page 93


 3587 003c 30000000 		.4byte	.LFE9-.LFB9
 3588 0040 00000000 		.4byte	.LFB10
 3589 0044 10000000 		.4byte	.LFE10-.LFB10
 3590 0048 00000000 		.4byte	.LFB11
 3591 004c 28000000 		.4byte	.LFE11-.LFB11
 3592 0050 00000000 		.4byte	.LFB12
 3593 0054 28000000 		.4byte	.LFE12-.LFB12
 3594 0058 00000000 		.4byte	.LFB13
 3595 005c 2C000000 		.4byte	.LFE13-.LFB13
 3596 0060 00000000 		.4byte	.LFB14
 3597 0064 28000000 		.4byte	.LFE14-.LFB14
 3598 0068 00000000 		.4byte	.LFB15
 3599 006c 0C000000 		.4byte	.LFE15-.LFB15
 3600 0070 00000000 		.4byte	.LFB16
 3601 0074 0C000000 		.4byte	.LFE16-.LFB16
 3602 0078 00000000 		.4byte	.LFB17
 3603 007c 28000000 		.4byte	.LFE17-.LFB17
 3604 0080 00000000 		.4byte	.LFB18
 3605 0084 0C000000 		.4byte	.LFE18-.LFB18
 3606 0088 00000000 		.4byte	.LFB19
 3607 008c 0C000000 		.4byte	.LFE19-.LFB19
 3608 0090 00000000 		.4byte	.LFB20
 3609 0094 24000000 		.4byte	.LFE20-.LFB20
 3610 0098 00000000 		.4byte	.LFB21
 3611 009c 0C000000 		.4byte	.LFE21-.LFB21
 3612 00a0 00000000 		.4byte	.LFB22
 3613 00a4 0C000000 		.4byte	.LFE22-.LFB22
 3614 00a8 00000000 		.4byte	.LFB23
 3615 00ac 28000000 		.4byte	.LFE23-.LFB23
 3616 00b0 00000000 		.4byte	.LFB24
 3617 00b4 0C000000 		.4byte	.LFE24-.LFB24
 3618 00b8 00000000 		.4byte	.LFB26
 3619 00bc 0C000000 		.4byte	.LFE26-.LFB26
 3620 00c0 00000000 		.4byte	.LFB28
 3621 00c4 0C000000 		.4byte	.LFE28-.LFB28
 3622 00c8 00000000 		.4byte	.LFB29
 3623 00cc 0C000000 		.4byte	.LFE29-.LFB29
 3624 00d0 00000000 		.4byte	.LFB30
 3625 00d4 24000000 		.4byte	.LFE30-.LFB30
 3626 00d8 00000000 		.4byte	.LFB31
 3627 00dc 24000000 		.4byte	.LFE31-.LFB31
 3628 00e0 00000000 		.4byte	.LFB32
 3629 00e4 28000000 		.4byte	.LFE32-.LFB32
 3630 00e8 00000000 		.4byte	.LFB33
 3631 00ec 24000000 		.4byte	.LFE33-.LFB33
 3632 00f0 00000000 		.4byte	.LFB34
 3633 00f4 24000000 		.4byte	.LFE34-.LFB34
 3634 00f8 00000000 		.4byte	.LFB35
 3635 00fc 1C000000 		.4byte	.LFE35-.LFB35
 3636 0100 00000000 		.4byte	.LFB3
 3637 0104 24000000 		.4byte	.LFE3-.LFB3
 3638 0108 00000000 		.4byte	.LFB4
 3639 010c 1C000000 		.4byte	.LFE4-.LFB4
 3640 0110 00000000 		.4byte	.LFB36
 3641 0114 14000000 		.4byte	.LFE36-.LFB36
 3642 0118 00000000 		.4byte	.LFB37
 3643 011c 0C000000 		.4byte	.LFE37-.LFB37
ARM GAS  C:\Users\Petro\AppData\Local\Temp\ccebLrz4.s 			page 94


 3644 0120 00000000 		.4byte	.LFB38
 3645 0124 0C000000 		.4byte	.LFE38-.LFB38
 3646 0128 00000000 		.4byte	.LFB39
 3647 012c 0C000000 		.4byte	.LFE39-.LFB39
 3648 0130 00000000 		.4byte	.LFB40
 3649 0134 0C000000 		.4byte	.LFE40-.LFB40
 3650 0138 00000000 		.4byte	.LFB41
 3651 013c 0C000000 		.4byte	.LFE41-.LFB41
 3652 0140 00000000 		.4byte	0
 3653 0144 00000000 		.4byte	0
 3654              		.section	.debug_ranges,"",%progbits
 3655              	.Ldebug_ranges0:
 3656 0000 00000000 		.4byte	.LFB2
 3657 0004 48000000 		.4byte	.LFE2
 3658 0008 00000000 		.4byte	.LFB5
 3659 000c 1C000000 		.4byte	.LFE5
 3660 0010 00000000 		.4byte	.LFB6
 3661 0014 28000000 		.4byte	.LFE6
 3662 0018 00000000 		.4byte	.LFB7
 3663 001c 28000000 		.4byte	.LFE7
 3664 0020 00000000 		.4byte	.LFB8
 3665 0024 28000000 		.4byte	.LFE8
 3666 0028 00000000 		.4byte	.LFB9
 3667 002c 30000000 		.4byte	.LFE9
 3668 0030 00000000 		.4byte	.LFB10
 3669 0034 10000000 		.4byte	.LFE10
 3670 0038 00000000 		.4byte	.LFB11
 3671 003c 28000000 		.4byte	.LFE11
 3672 0040 00000000 		.4byte	.LFB12
 3673 0044 28000000 		.4byte	.LFE12
 3674 0048 00000000 		.4byte	.LFB13
 3675 004c 2C000000 		.4byte	.LFE13
 3676 0050 00000000 		.4byte	.LFB14
 3677 0054 28000000 		.4byte	.LFE14
 3678 0058 00000000 		.4byte	.LFB15
 3679 005c 0C000000 		.4byte	.LFE15
 3680 0060 00000000 		.4byte	.LFB16
 3681 0064 0C000000 		.4byte	.LFE16
 3682 0068 00000000 		.4byte	.LFB17
 3683 006c 28000000 		.4byte	.LFE17
 3684 0070 00000000 		.4byte	.LFB18
 3685 0074 0C000000 		.4byte	.LFE18
 3686 0078 00000000 		.4byte	.LFB19
 3687 007c 0C000000 		.4byte	.LFE19
 3688 0080 00000000 		.4byte	.LFB20
 3689 0084 24000000 		.4byte	.LFE20
 3690 0088 00000000 		.4byte	.LFB21
 3691 008c 0C000000 		.4byte	.LFE21
 3692 0090 00000000 		.4byte	.LFB22
 3693 0094 0C000000 		.4byte	.LFE22
 3694 0098 00000000 		.4byte	.LFB23
 3695 009c 28000000 		.4byte	.LFE23
 3696 00a0 00000000 		.4byte	.LFB24
 3697 00a4 0C000000 		.4byte	.LFE24
 3698 00a8 00000000 		.4byte	.LFB26
 3699 00ac 0C000000 		.4byte	.LFE26
 3700 00b0 00000000 		.4byte	.LFB28
ARM GAS  C:\Users\Petro\AppData\Local\Temp\ccebLrz4.s 			page 95


 3701 00b4 0C000000 		.4byte	.LFE28
 3702 00b8 00000000 		.4byte	.LFB29
 3703 00bc 0C000000 		.4byte	.LFE29
 3704 00c0 00000000 		.4byte	.LFB30
 3705 00c4 24000000 		.4byte	.LFE30
 3706 00c8 00000000 		.4byte	.LFB31
 3707 00cc 24000000 		.4byte	.LFE31
 3708 00d0 00000000 		.4byte	.LFB32
 3709 00d4 28000000 		.4byte	.LFE32
 3710 00d8 00000000 		.4byte	.LFB33
 3711 00dc 24000000 		.4byte	.LFE33
 3712 00e0 00000000 		.4byte	.LFB34
 3713 00e4 24000000 		.4byte	.LFE34
 3714 00e8 00000000 		.4byte	.LFB35
 3715 00ec 1C000000 		.4byte	.LFE35
 3716 00f0 00000000 		.4byte	.LFB3
 3717 00f4 24000000 		.4byte	.LFE3
 3718 00f8 00000000 		.4byte	.LFB4
 3719 00fc 1C000000 		.4byte	.LFE4
 3720 0100 00000000 		.4byte	.LFB36
 3721 0104 14000000 		.4byte	.LFE36
 3722 0108 00000000 		.4byte	.LFB37
 3723 010c 0C000000 		.4byte	.LFE37
 3724 0110 00000000 		.4byte	.LFB38
 3725 0114 0C000000 		.4byte	.LFE38
 3726 0118 00000000 		.4byte	.LFB39
 3727 011c 0C000000 		.4byte	.LFE39
 3728 0120 00000000 		.4byte	.LFB40
 3729 0124 0C000000 		.4byte	.LFE40
 3730 0128 00000000 		.4byte	.LFB41
 3731 012c 0C000000 		.4byte	.LFE41
 3732 0130 00000000 		.4byte	0
 3733 0134 00000000 		.4byte	0
 3734              		.section	.debug_line,"",%progbits
 3735              	.Ldebug_line0:
 3736 0000 C2030000 		.section	.debug_str,"MS",%progbits,1
 3736      02005500 
 3736      00000201 
 3736      FB0E0D00 
 3736      01010101 
 3737              	.LASF19:
 3738 0000 636F756E 		.ascii	"count\000"
 3738      7400
 3739              	.LASF76:
 3740 0006 43794578 		.ascii	"CyExitCriticalSection\000"
 3740      69744372 
 3740      69746963 
 3740      616C5365 
 3740      6374696F 
 3741              	.LASF17:
 3742 001c 54696D65 		.ascii	"TimerTestMode_WriteCounter\000"
 3742      72546573 
 3742      744D6F64 
 3742      655F5772 
 3742      69746543 
 3743              	.LASF59:
 3744 0037 54696D65 		.ascii	"TimerTestMode_ReadCaptureBuf\000"
ARM GAS  C:\Users\Petro\AppData\Local\Temp\ccebLrz4.s 			page 96


 3744      72546573 
 3744      744D6F64 
 3744      655F5265 
 3744      61644361 
 3745              	.LASF22:
 3746 0054 70657269 		.ascii	"period\000"
 3746      6F6400
 3747              	.LASF7:
 3748 005b 6C6F6E67 		.ascii	"long long unsigned int\000"
 3748      206C6F6E 
 3748      6720756E 
 3748      7369676E 
 3748      65642069 
 3749              	.LASF31:
 3750 0072 71644D6F 		.ascii	"qdMode\000"
 3750      646500
 3751              	.LASF72:
 3752 0079 54696D65 		.ascii	"TimerTestMode_GetInterruptSource\000"
 3752      72546573 
 3752      744D6F64 
 3752      655F4765 
 3752      74496E74 
 3753              	.LASF6:
 3754 009a 6C6F6E67 		.ascii	"long long int\000"
 3754      206C6F6E 
 3754      6720696E 
 3754      7400
 3755              	.LASF0:
 3756 00a8 7369676E 		.ascii	"signed char\000"
 3756      65642063 
 3756      68617200 
 3757              	.LASF44:
 3758 00b4 54696D65 		.ascii	"TimerTestMode_SetPWMInvert\000"
 3758      72546573 
 3758      744D6F64 
 3758      655F5365 
 3758      7450574D 
 3759              	.LASF69:
 3760 00cf 54696D65 		.ascii	"TimerTestMode_Start\000"
 3760      72546573 
 3760      744D6F64 
 3760      655F5374 
 3760      61727400 
 3761              	.LASF63:
 3762 00e3 54696D65 		.ascii	"TimerTestMode_SetStartMode\000"
 3762      72546573 
 3762      744D6F64 
 3762      655F5365 
 3762      74537461 
 3763              	.LASF4:
 3764 00fe 6C6F6E67 		.ascii	"long int\000"
 3764      20696E74 
 3764      00
 3765              	.LASF9:
 3766 0107 75696E74 		.ascii	"uint8\000"
 3766      3800
 3767              	.LASF12:
ARM GAS  C:\Users\Petro\AppData\Local\Temp\ccebLrz4.s 			page 97


 3768 010d 646F7562 		.ascii	"double\000"
 3768      6C6500
 3769              	.LASF48:
 3770 0114 54696D65 		.ascii	"TimerTestMode_ReadCounter\000"
 3770      72546573 
 3770      744D6F64 
 3770      655F5265 
 3770      6164436F 
 3771              	.LASF10:
 3772 012e 75696E74 		.ascii	"uint32\000"
 3772      333200
 3773              	.LASF61:
 3774 0135 74726967 		.ascii	"triggerMode\000"
 3774      6765724D 
 3774      6F646500 
 3775              	.LASF45:
 3776 0141 6D61736B 		.ascii	"mask\000"
 3776      00
 3777              	.LASF78:
 3778 0146 47656E65 		.ascii	"Generated_Source\\PSoC4\\TimerTestMode.c\000"
 3778      72617465 
 3778      645F536F 
 3778      75726365 
 3778      5C50536F 
 3779              	.LASF43:
 3780 016d 64656164 		.ascii	"deadTime\000"
 3780      54696D65 
 3780      00
 3781              	.LASF8:
 3782 0176 756E7369 		.ascii	"unsigned int\000"
 3782      676E6564 
 3782      20696E74 
 3782      00
 3783              	.LASF32:
 3784 0183 54696D65 		.ascii	"TimerTestMode_SetPrescaler\000"
 3784      72546573 
 3784      744D6F64 
 3784      655F5365 
 3784      74507265 
 3785              	.LASF67:
 3786 019e 636F6D6D 		.ascii	"command\000"
 3786      616E6400 
 3787              	.LASF5:
 3788 01a6 6C6F6E67 		.ascii	"long unsigned int\000"
 3788      20756E73 
 3788      69676E65 
 3788      6420696E 
 3788      7400
 3789              	.LASF37:
 3790 01b8 6D6F6465 		.ascii	"modeMask\000"
 3790      4D61736B 
 3790      00
 3791              	.LASF75:
 3792 01c1 4379456E 		.ascii	"CyEnterCriticalSection\000"
 3792      74657243 
 3792      72697469 
 3792      63616C53 
ARM GAS  C:\Users\Petro\AppData\Local\Temp\ccebLrz4.s 			page 98


 3792      65637469 
 3793              	.LASF54:
 3794 01d8 54696D65 		.ascii	"TimerTestMode_ReadPeriodBuf\000"
 3794      72546573 
 3794      744D6F64 
 3794      655F5265 
 3794      61645065 
 3795              	.LASF3:
 3796 01f4 73686F72 		.ascii	"short unsigned int\000"
 3796      7420756E 
 3796      7369676E 
 3796      65642069 
 3796      6E7400
 3797              	.LASF34:
 3798 0207 54696D65 		.ascii	"TimerTestMode_SetOneShot\000"
 3798      72546573 
 3798      744D6F64 
 3798      655F5365 
 3798      744F6E65 
 3799              	.LASF35:
 3800 0220 6F6E6553 		.ascii	"oneShotEnable\000"
 3800      686F7445 
 3800      6E61626C 
 3800      6500
 3801              	.LASF64:
 3802 022e 54696D65 		.ascii	"TimerTestMode_SetStopMode\000"
 3802      72546573 
 3802      744D6F64 
 3802      655F5365 
 3802      7453746F 
 3803              	.LASF80:
 3804 0248 54696D65 		.ascii	"TimerTestMode_initVar\000"
 3804      72546573 
 3804      744D6F64 
 3804      655F696E 
 3804      69745661 
 3805              	.LASF50:
 3806 025e 54696D65 		.ascii	"TimerTestMode_SetCompareSwap\000"
 3806      72546573 
 3806      744D6F64 
 3806      655F5365 
 3806      74436F6D 
 3807              	.LASF55:
 3808 027b 54696D65 		.ascii	"TimerTestMode_SetPeriodSwap\000"
 3808      72546573 
 3808      744D6F64 
 3808      655F5365 
 3808      74506572 
 3809              	.LASF70:
 3810 0297 54696D65 		.ascii	"TimerTestMode_ReadStatus\000"
 3810      72546573 
 3810      744D6F64 
 3810      655F5265 
 3810      61645374 
 3811              	.LASF56:
 3812 02b0 54696D65 		.ascii	"TimerTestMode_WriteCompareBuf\000"
 3812      72546573 
ARM GAS  C:\Users\Petro\AppData\Local\Temp\ccebLrz4.s 			page 99


 3812      744D6F64 
 3812      655F5772 
 3812      69746543 
 3813              	.LASF14:
 3814 02ce 72656733 		.ascii	"reg32\000"
 3814      3200
 3815              	.LASF46:
 3816 02d4 54696D65 		.ascii	"TimerTestMode_SetCounterMode\000"
 3816      72546573 
 3816      744D6F64 
 3816      655F5365 
 3816      74436F75 
 3817              	.LASF16:
 3818 02f1 73697A65 		.ascii	"sizetype\000"
 3818      74797065 
 3818      00
 3819              	.LASF40:
 3820 02fa 54696D65 		.ascii	"TimerTestMode_SetPWMStopOnKill\000"
 3820      72546573 
 3820      744D6F64 
 3820      655F5365 
 3820      7450574D 
 3821              	.LASF15:
 3822 0319 6C6F6E67 		.ascii	"long double\000"
 3822      20646F75 
 3822      626C6500 
 3823              	.LASF77:
 3824 0325 474E5520 		.ascii	"GNU C11 5.4.1 20160609 (release) [ARM/embedded-5-br"
 3824      43313120 
 3824      352E342E 
 3824      31203230 
 3824      31363036 
 3825 0358 616E6368 		.ascii	"anch revision 237715] -mcpu=cortex-m0 -mthumb -g -O"
 3825      20726576 
 3825      6973696F 
 3825      6E203233 
 3825      37373135 
 3826 038b 73202D66 		.ascii	"s -ffunction-sections -ffat-lto-objects\000"
 3826      66756E63 
 3826      74696F6E 
 3826      2D736563 
 3826      74696F6E 
 3827              	.LASF38:
 3828 03b3 54696D65 		.ascii	"TimerTestMode_SetPWMSyncKill\000"
 3828      72546573 
 3828      744D6F64 
 3828      655F5365 
 3828      7450574D 
 3829              	.LASF26:
 3830 03d0 54696D65 		.ascii	"TimerTestMode_Stop\000"
 3830      72546573 
 3830      744D6F64 
 3830      655F5374 
 3830      6F7000
 3831              	.LASF20:
 3832 03e3 636F6D70 		.ascii	"compare\000"
 3832      61726500 
ARM GAS  C:\Users\Petro\AppData\Local\Temp\ccebLrz4.s 			page 100


 3833              	.LASF21:
 3834 03eb 54696D65 		.ascii	"TimerTestMode_WritePeriod\000"
 3834      72546573 
 3834      744D6F64 
 3834      655F5772 
 3834      69746550 
 3835              	.LASF29:
 3836 0405 54696D65 		.ascii	"TimerTestMode_SetQDMode\000"
 3836      72546573 
 3836      744D6F64 
 3836      655F5365 
 3836      7451444D 
 3837              	.LASF11:
 3838 041d 666C6F61 		.ascii	"float\000"
 3838      7400
 3839              	.LASF33:
 3840 0423 70726573 		.ascii	"prescaler\000"
 3840      63616C65 
 3840      7200
 3841              	.LASF71:
 3842 042d 54696D65 		.ascii	"TimerTestMode_GetInterruptSourceMasked\000"
 3842      72546573 
 3842      744D6F64 
 3842      655F4765 
 3842      74496E74 
 3843              	.LASF62:
 3844 0454 54696D65 		.ascii	"TimerTestMode_SetReloadMode\000"
 3844      72546573 
 3844      744D6F64 
 3844      655F5365 
 3844      7452656C 
 3845              	.LASF79:
 3846 0470 443A5C43 		.ascii	"D:\\Cypress\\system-start-finish\\dev\\FW\\finish\\"
 3846      79707265 
 3846      73735C73 
 3846      79737465 
 3846      6D2D7374 
 3847 049d 66696E5F 		.ascii	"fin_v11.cydsn\000"
 3847      7631312E 
 3847      63796473 
 3847      6E00
 3848              	.LASF66:
 3849 04ab 54696D65 		.ascii	"TimerTestMode_TriggerCommand\000"
 3849      72546573 
 3849      744D6F64 
 3849      655F5472 
 3849      69676765 
 3850              	.LASF1:
 3851 04c8 756E7369 		.ascii	"unsigned char\000"
 3851      676E6564 
 3851      20636861 
 3851      7200
 3852              	.LASF49:
 3853 04d6 54696D65 		.ascii	"TimerTestMode_ReadPeriod\000"
 3853      72546573 
 3853      744D6F64 
 3853      655F5265 
ARM GAS  C:\Users\Petro\AppData\Local\Temp\ccebLrz4.s 			page 101


 3853      61645065 
 3854              	.LASF41:
 3855 04ef 73746F70 		.ascii	"stopOnKillEnable\000"
 3855      4F6E4B69 
 3855      6C6C456E 
 3855      61626C65 
 3855      00
 3856              	.LASF73:
 3857 0500 54696D65 		.ascii	"TimerTestMode_ClearInterrupt\000"
 3857      72546573 
 3857      744D6F64 
 3857      655F436C 
 3857      65617249 
 3858              	.LASF2:
 3859 051d 73686F72 		.ascii	"short int\000"
 3859      7420696E 
 3859      7400
 3860              	.LASF24:
 3861 0527 696E7465 		.ascii	"interruptMask\000"
 3861      72727570 
 3861      744D6173 
 3861      6B00
 3862              	.LASF74:
 3863 0535 54696D65 		.ascii	"TimerTestMode_SetInterrupt\000"
 3863      72546573 
 3863      744D6F64 
 3863      655F5365 
 3863      74496E74 
 3864              	.LASF68:
 3865 0550 54696D65 		.ascii	"TimerTestMode_Enable\000"
 3865      72546573 
 3865      744D6F64 
 3865      655F456E 
 3865      61626C65 
 3866              	.LASF58:
 3867 0565 54696D65 		.ascii	"TimerTestMode_ReadCapture\000"
 3867      72546573 
 3867      744D6F64 
 3867      655F5265 
 3867      61644361 
 3868              	.LASF23:
 3869 057f 54696D65 		.ascii	"TimerTestMode_SetInterruptMode\000"
 3869      72546573 
 3869      744D6F64 
 3869      655F5365 
 3869      74496E74 
 3870              	.LASF13:
 3871 059e 63686172 		.ascii	"char\000"
 3871      00
 3872              	.LASF30:
 3873 05a3 6D6F6465 		.ascii	"mode\000"
 3873      00
 3874              	.LASF47:
 3875 05a8 636F756E 		.ascii	"counterMode\000"
 3875      7465724D 
 3875      6F646500 
 3876              	.LASF65:
ARM GAS  C:\Users\Petro\AppData\Local\Temp\ccebLrz4.s 			page 102


 3877 05b4 54696D65 		.ascii	"TimerTestMode_SetCountMode\000"
 3877      72546573 
 3877      744D6F64 
 3877      655F5365 
 3877      74436F75 
 3878              	.LASF36:
 3879 05cf 54696D65 		.ascii	"TimerTestMode_SetPWMMode\000"
 3879      72546573 
 3879      744D6F64 
 3879      655F5365 
 3879      7450574D 
 3880              	.LASF42:
 3881 05e8 54696D65 		.ascii	"TimerTestMode_SetPWMDeadTime\000"
 3881      72546573 
 3881      744D6F64 
 3881      655F5365 
 3881      7450574D 
 3882              	.LASF57:
 3883 0605 636F6D70 		.ascii	"compareBuf\000"
 3883      61726542 
 3883      756600
 3884              	.LASF60:
 3885 0610 54696D65 		.ascii	"TimerTestMode_SetCaptureMode\000"
 3885      72546573 
 3885      744D6F64 
 3885      655F5365 
 3885      74436170 
 3886              	.LASF27:
 3887 062d 54696D65 		.ascii	"TimerTestMode_SetMode\000"
 3887      72546573 
 3887      744D6F64 
 3887      655F5365 
 3887      744D6F64 
 3888              	.LASF28:
 3889 0643 656E6162 		.ascii	"enableInterrupts\000"
 3889      6C65496E 
 3889      74657272 
 3889      75707473 
 3889      00
 3890              	.LASF18:
 3891 0654 54696D65 		.ascii	"TimerTestMode_WriteCompare\000"
 3891      72546573 
 3891      744D6F64 
 3891      655F5772 
 3891      69746543 
 3892              	.LASF39:
 3893 066f 73796E63 		.ascii	"syncKillEnable\000"
 3893      4B696C6C 
 3893      456E6162 
 3893      6C6500
 3894              	.LASF51:
 3895 067e 73776170 		.ascii	"swapEnable\000"
 3895      456E6162 
 3895      6C6500
 3896              	.LASF25:
 3897 0689 54696D65 		.ascii	"TimerTestMode_Init\000"
 3897      72546573 
ARM GAS  C:\Users\Petro\AppData\Local\Temp\ccebLrz4.s 			page 103


 3897      744D6F64 
 3897      655F496E 
 3897      697400
 3898              	.LASF52:
 3899 069c 54696D65 		.ascii	"TimerTestMode_WritePeriodBuf\000"
 3899      72546573 
 3899      744D6F64 
 3899      655F5772 
 3899      69746550 
 3900              	.LASF53:
 3901 06b9 70657269 		.ascii	"periodBuf\000"
 3901      6F644275 
 3901      6600
 3902              		.ident	"GCC: (GNU Tools for ARM Embedded Processors) 5.4.1 20160609 (release) [ARM/embedded-5-bran
