ARM GAS  C:\Users\Petro\AppData\Local\Temp\ccMxjuYg.s 			page 1


   1              		.cpu cortex-m0
   2              		.fpu softvfp
   3              		.eabi_attribute 20, 1
   4              		.eabi_attribute 21, 1
   5              		.eabi_attribute 23, 3
   6              		.eabi_attribute 24, 1
   7              		.eabi_attribute 25, 1
   8              		.eabi_attribute 26, 1
   9              		.eabi_attribute 30, 1
  10              		.eabi_attribute 34, 0
  11              		.eabi_attribute 18, 4
  12              		.code	16
  13              		.file	"UART_1_UART.c"
  14              		.text
  15              	.Ltext0:
  16              		.cfi_sections	.debug_frame
  17              		.section	.text.UART_1_UartInit,"ax",%progbits
  18              		.align	2
  19              		.global	UART_1_UartInit
  20              		.code	16
  21              		.thumb_func
  22              		.type	UART_1_UartInit, %function
  23              	UART_1_UartInit:
  24              	.LFB0:
  25              		.file 1 ".\\Generated_Source\\PSoC4\\UART_1_UART.c"
   1:.\Generated_Source\PSoC4/UART_1_UART.c **** /*******************************************************************************
   2:.\Generated_Source\PSoC4/UART_1_UART.c **** * File Name: UART_1_UART.c
   3:.\Generated_Source\PSoC4/UART_1_UART.c **** * Version 3.10
   4:.\Generated_Source\PSoC4/UART_1_UART.c **** *
   5:.\Generated_Source\PSoC4/UART_1_UART.c **** * Description:
   6:.\Generated_Source\PSoC4/UART_1_UART.c **** *  This file provides the source code to the API for the SCB Component in
   7:.\Generated_Source\PSoC4/UART_1_UART.c **** *  UART mode.
   8:.\Generated_Source\PSoC4/UART_1_UART.c **** *
   9:.\Generated_Source\PSoC4/UART_1_UART.c **** * Note:
  10:.\Generated_Source\PSoC4/UART_1_UART.c **** *
  11:.\Generated_Source\PSoC4/UART_1_UART.c **** *******************************************************************************
  12:.\Generated_Source\PSoC4/UART_1_UART.c **** * Copyright 2013-2015, Cypress Semiconductor Corporation.  All rights reserved.
  13:.\Generated_Source\PSoC4/UART_1_UART.c **** * You may use this file only in accordance with the license, terms, conditions,
  14:.\Generated_Source\PSoC4/UART_1_UART.c **** * disclaimers, and limitations in the end user license agreement accompanying
  15:.\Generated_Source\PSoC4/UART_1_UART.c **** * the software package with which this file was provided.
  16:.\Generated_Source\PSoC4/UART_1_UART.c **** *******************************************************************************/
  17:.\Generated_Source\PSoC4/UART_1_UART.c **** 
  18:.\Generated_Source\PSoC4/UART_1_UART.c **** #include "UART_1_PVT.h"
  19:.\Generated_Source\PSoC4/UART_1_UART.c **** #include "UART_1_SPI_UART_PVT.h"
  20:.\Generated_Source\PSoC4/UART_1_UART.c **** #include "cyapicallbacks.h"
  21:.\Generated_Source\PSoC4/UART_1_UART.c **** 
  22:.\Generated_Source\PSoC4/UART_1_UART.c **** #if(UART_1_SCB_MODE_UNCONFIG_CONST_CFG)
  23:.\Generated_Source\PSoC4/UART_1_UART.c **** 
  24:.\Generated_Source\PSoC4/UART_1_UART.c ****     /***************************************
  25:.\Generated_Source\PSoC4/UART_1_UART.c ****     *  Configuration Structure Initialization
  26:.\Generated_Source\PSoC4/UART_1_UART.c ****     ***************************************/
  27:.\Generated_Source\PSoC4/UART_1_UART.c **** 
  28:.\Generated_Source\PSoC4/UART_1_UART.c ****     const UART_1_UART_INIT_STRUCT UART_1_configUart =
  29:.\Generated_Source\PSoC4/UART_1_UART.c ****     {
  30:.\Generated_Source\PSoC4/UART_1_UART.c ****         UART_1_UART_SUB_MODE,
  31:.\Generated_Source\PSoC4/UART_1_UART.c ****         UART_1_UART_DIRECTION,
  32:.\Generated_Source\PSoC4/UART_1_UART.c ****         UART_1_UART_DATA_BITS_NUM,
ARM GAS  C:\Users\Petro\AppData\Local\Temp\ccMxjuYg.s 			page 2


  33:.\Generated_Source\PSoC4/UART_1_UART.c ****         UART_1_UART_PARITY_TYPE,
  34:.\Generated_Source\PSoC4/UART_1_UART.c ****         UART_1_UART_STOP_BITS_NUM,
  35:.\Generated_Source\PSoC4/UART_1_UART.c ****         UART_1_UART_OVS_FACTOR,
  36:.\Generated_Source\PSoC4/UART_1_UART.c ****         UART_1_UART_IRDA_LOW_POWER,
  37:.\Generated_Source\PSoC4/UART_1_UART.c ****         UART_1_UART_MEDIAN_FILTER_ENABLE,
  38:.\Generated_Source\PSoC4/UART_1_UART.c ****         UART_1_UART_RETRY_ON_NACK,
  39:.\Generated_Source\PSoC4/UART_1_UART.c ****         UART_1_UART_IRDA_POLARITY,
  40:.\Generated_Source\PSoC4/UART_1_UART.c ****         UART_1_UART_DROP_ON_PARITY_ERR,
  41:.\Generated_Source\PSoC4/UART_1_UART.c ****         UART_1_UART_DROP_ON_FRAME_ERR,
  42:.\Generated_Source\PSoC4/UART_1_UART.c ****         UART_1_UART_WAKE_ENABLE,
  43:.\Generated_Source\PSoC4/UART_1_UART.c ****         0u,
  44:.\Generated_Source\PSoC4/UART_1_UART.c ****         NULL,
  45:.\Generated_Source\PSoC4/UART_1_UART.c ****         0u,
  46:.\Generated_Source\PSoC4/UART_1_UART.c ****         NULL,
  47:.\Generated_Source\PSoC4/UART_1_UART.c ****         UART_1_UART_MP_MODE_ENABLE,
  48:.\Generated_Source\PSoC4/UART_1_UART.c ****         UART_1_UART_MP_ACCEPT_ADDRESS,
  49:.\Generated_Source\PSoC4/UART_1_UART.c ****         UART_1_UART_MP_RX_ADDRESS,
  50:.\Generated_Source\PSoC4/UART_1_UART.c ****         UART_1_UART_MP_RX_ADDRESS_MASK,
  51:.\Generated_Source\PSoC4/UART_1_UART.c ****         (uint32) UART_1_SCB_IRQ_INTERNAL,
  52:.\Generated_Source\PSoC4/UART_1_UART.c ****         UART_1_UART_INTR_RX_MASK,
  53:.\Generated_Source\PSoC4/UART_1_UART.c ****         UART_1_UART_RX_TRIGGER_LEVEL,
  54:.\Generated_Source\PSoC4/UART_1_UART.c ****         UART_1_UART_INTR_TX_MASK,
  55:.\Generated_Source\PSoC4/UART_1_UART.c ****         UART_1_UART_TX_TRIGGER_LEVEL,
  56:.\Generated_Source\PSoC4/UART_1_UART.c ****         (uint8) UART_1_UART_BYTE_MODE_ENABLE,
  57:.\Generated_Source\PSoC4/UART_1_UART.c ****         (uint8) UART_1_UART_CTS_ENABLE,
  58:.\Generated_Source\PSoC4/UART_1_UART.c ****         (uint8) UART_1_UART_CTS_POLARITY,
  59:.\Generated_Source\PSoC4/UART_1_UART.c ****         (uint8) UART_1_UART_RTS_POLARITY,
  60:.\Generated_Source\PSoC4/UART_1_UART.c ****         (uint8) UART_1_UART_RTS_FIFO_LEVEL
  61:.\Generated_Source\PSoC4/UART_1_UART.c ****     };
  62:.\Generated_Source\PSoC4/UART_1_UART.c **** 
  63:.\Generated_Source\PSoC4/UART_1_UART.c **** 
  64:.\Generated_Source\PSoC4/UART_1_UART.c ****     /*******************************************************************************
  65:.\Generated_Source\PSoC4/UART_1_UART.c ****     * Function Name: UART_1_UartInit
  66:.\Generated_Source\PSoC4/UART_1_UART.c ****     ********************************************************************************
  67:.\Generated_Source\PSoC4/UART_1_UART.c ****     *
  68:.\Generated_Source\PSoC4/UART_1_UART.c ****     * Summary:
  69:.\Generated_Source\PSoC4/UART_1_UART.c ****     *  Configures the SCB for the UART operation.
  70:.\Generated_Source\PSoC4/UART_1_UART.c ****     *
  71:.\Generated_Source\PSoC4/UART_1_UART.c ****     * Parameters:
  72:.\Generated_Source\PSoC4/UART_1_UART.c ****     *  config:  Pointer to a structure that contains the following ordered list of
  73:.\Generated_Source\PSoC4/UART_1_UART.c ****     *           fields. These fields match the selections available in the
  74:.\Generated_Source\PSoC4/UART_1_UART.c ****     *           customizer.
  75:.\Generated_Source\PSoC4/UART_1_UART.c ****     *
  76:.\Generated_Source\PSoC4/UART_1_UART.c ****     * Return:
  77:.\Generated_Source\PSoC4/UART_1_UART.c ****     *  None
  78:.\Generated_Source\PSoC4/UART_1_UART.c ****     *
  79:.\Generated_Source\PSoC4/UART_1_UART.c ****     *******************************************************************************/
  80:.\Generated_Source\PSoC4/UART_1_UART.c ****     void UART_1_UartInit(const UART_1_UART_INIT_STRUCT *config)
  81:.\Generated_Source\PSoC4/UART_1_UART.c ****     {
  82:.\Generated_Source\PSoC4/UART_1_UART.c ****         uint32 pinsConfig;
  83:.\Generated_Source\PSoC4/UART_1_UART.c **** 
  84:.\Generated_Source\PSoC4/UART_1_UART.c ****         if (NULL == config)
  85:.\Generated_Source\PSoC4/UART_1_UART.c ****         {
  86:.\Generated_Source\PSoC4/UART_1_UART.c ****             CYASSERT(0u != 0u); /* Halt execution due to bad function parameter */
  87:.\Generated_Source\PSoC4/UART_1_UART.c ****         }
  88:.\Generated_Source\PSoC4/UART_1_UART.c ****         else
  89:.\Generated_Source\PSoC4/UART_1_UART.c ****         {
ARM GAS  C:\Users\Petro\AppData\Local\Temp\ccMxjuYg.s 			page 3


  90:.\Generated_Source\PSoC4/UART_1_UART.c ****             /* Get direction to configure UART pins: TX, RX or TX+RX */
  91:.\Generated_Source\PSoC4/UART_1_UART.c ****             pinsConfig  = config->direction;
  92:.\Generated_Source\PSoC4/UART_1_UART.c **** 
  93:.\Generated_Source\PSoC4/UART_1_UART.c ****         #if !(UART_1_CY_SCBIP_V0 || UART_1_CY_SCBIP_V1)
  94:.\Generated_Source\PSoC4/UART_1_UART.c ****             /* Add RTS and CTS pins to configure */
  95:.\Generated_Source\PSoC4/UART_1_UART.c ****             pinsConfig |= (0u != config->rtsRxFifoLevel) ? (UART_1_UART_RTS_PIN_ENABLE) : (0u);
  96:.\Generated_Source\PSoC4/UART_1_UART.c ****             pinsConfig |= (0u != config->enableCts)      ? (UART_1_UART_CTS_PIN_ENABLE) : (0u);
  97:.\Generated_Source\PSoC4/UART_1_UART.c ****         #endif /* !(UART_1_CY_SCBIP_V0 || UART_1_CY_SCBIP_V1) */
  98:.\Generated_Source\PSoC4/UART_1_UART.c **** 
  99:.\Generated_Source\PSoC4/UART_1_UART.c ****             /* Configure pins */
 100:.\Generated_Source\PSoC4/UART_1_UART.c ****             UART_1_SetPins(UART_1_SCB_MODE_UART, config->mode, pinsConfig);
 101:.\Generated_Source\PSoC4/UART_1_UART.c **** 
 102:.\Generated_Source\PSoC4/UART_1_UART.c ****             /* Store internal configuration */
 103:.\Generated_Source\PSoC4/UART_1_UART.c ****             UART_1_scbMode       = (uint8) UART_1_SCB_MODE_UART;
 104:.\Generated_Source\PSoC4/UART_1_UART.c ****             UART_1_scbEnableWake = (uint8) config->enableWake;
 105:.\Generated_Source\PSoC4/UART_1_UART.c ****             UART_1_scbEnableIntr = (uint8) config->enableInterrupt;
 106:.\Generated_Source\PSoC4/UART_1_UART.c **** 
 107:.\Generated_Source\PSoC4/UART_1_UART.c ****             /* Set RX direction internal variables */
 108:.\Generated_Source\PSoC4/UART_1_UART.c ****             UART_1_rxBuffer      =         config->rxBuffer;
 109:.\Generated_Source\PSoC4/UART_1_UART.c ****             UART_1_rxDataBits    = (uint8) config->dataBits;
 110:.\Generated_Source\PSoC4/UART_1_UART.c ****             UART_1_rxBufferSize  = (uint8) config->rxBufferSize;
 111:.\Generated_Source\PSoC4/UART_1_UART.c **** 
 112:.\Generated_Source\PSoC4/UART_1_UART.c ****             /* Set TX direction internal variables */
 113:.\Generated_Source\PSoC4/UART_1_UART.c ****             UART_1_txBuffer      =         config->txBuffer;
 114:.\Generated_Source\PSoC4/UART_1_UART.c ****             UART_1_txDataBits    = (uint8) config->dataBits;
 115:.\Generated_Source\PSoC4/UART_1_UART.c ****             UART_1_txBufferSize  = (uint8) config->txBufferSize;
 116:.\Generated_Source\PSoC4/UART_1_UART.c **** 
 117:.\Generated_Source\PSoC4/UART_1_UART.c ****             /* Configure UART interface */
 118:.\Generated_Source\PSoC4/UART_1_UART.c ****             if(UART_1_UART_MODE_IRDA == config->mode)
 119:.\Generated_Source\PSoC4/UART_1_UART.c ****             {
 120:.\Generated_Source\PSoC4/UART_1_UART.c ****                 /* OVS settings: IrDA */
 121:.\Generated_Source\PSoC4/UART_1_UART.c ****                 UART_1_CTRL_REG  = ((0u != config->enableIrdaLowPower) ?
 122:.\Generated_Source\PSoC4/UART_1_UART.c ****                                                 (UART_1_UART_GET_CTRL_OVS_IRDA_LP(config->oversampl
 123:.\Generated_Source\PSoC4/UART_1_UART.c ****                                                 (UART_1_CTRL_OVS_IRDA_OVS16));
 124:.\Generated_Source\PSoC4/UART_1_UART.c ****             }
 125:.\Generated_Source\PSoC4/UART_1_UART.c ****             else
 126:.\Generated_Source\PSoC4/UART_1_UART.c ****             {
 127:.\Generated_Source\PSoC4/UART_1_UART.c ****                 /* OVS settings: UART and SmartCard */
 128:.\Generated_Source\PSoC4/UART_1_UART.c ****                 UART_1_CTRL_REG  = UART_1_GET_CTRL_OVS(config->oversample);
 129:.\Generated_Source\PSoC4/UART_1_UART.c ****             }
 130:.\Generated_Source\PSoC4/UART_1_UART.c **** 
 131:.\Generated_Source\PSoC4/UART_1_UART.c ****             UART_1_CTRL_REG     |= UART_1_GET_CTRL_BYTE_MODE  (config->enableByteMode)      |
 132:.\Generated_Source\PSoC4/UART_1_UART.c ****                                              UART_1_GET_CTRL_ADDR_ACCEPT(config->multiprocAcceptAdd
 133:.\Generated_Source\PSoC4/UART_1_UART.c ****                                              UART_1_CTRL_UART;
 134:.\Generated_Source\PSoC4/UART_1_UART.c **** 
 135:.\Generated_Source\PSoC4/UART_1_UART.c ****             /* Configure sub-mode: UART, SmartCard or IrDA */
 136:.\Generated_Source\PSoC4/UART_1_UART.c ****             UART_1_UART_CTRL_REG = UART_1_GET_UART_CTRL_MODE(config->mode);
 137:.\Generated_Source\PSoC4/UART_1_UART.c **** 
 138:.\Generated_Source\PSoC4/UART_1_UART.c ****             /* Configure RX direction */
 139:.\Generated_Source\PSoC4/UART_1_UART.c ****             UART_1_UART_RX_CTRL_REG = UART_1_GET_UART_RX_CTRL_MODE(config->stopBits)              |
 140:.\Generated_Source\PSoC4/UART_1_UART.c ****                                         UART_1_GET_UART_RX_CTRL_POLARITY(config->enableInvertedRx) 
 141:.\Generated_Source\PSoC4/UART_1_UART.c ****                                         UART_1_GET_UART_RX_CTRL_MP_MODE(config->enableMultiproc)   
 142:.\Generated_Source\PSoC4/UART_1_UART.c ****                                         UART_1_GET_UART_RX_CTRL_DROP_ON_PARITY_ERR(config->dropOnPa
 143:.\Generated_Source\PSoC4/UART_1_UART.c ****                                         UART_1_GET_UART_RX_CTRL_DROP_ON_FRAME_ERR(config->dropOnFra
 144:.\Generated_Source\PSoC4/UART_1_UART.c **** 
 145:.\Generated_Source\PSoC4/UART_1_UART.c ****             if(UART_1_UART_PARITY_NONE != config->parity)
 146:.\Generated_Source\PSoC4/UART_1_UART.c ****             {
ARM GAS  C:\Users\Petro\AppData\Local\Temp\ccMxjuYg.s 			page 4


 147:.\Generated_Source\PSoC4/UART_1_UART.c ****                UART_1_UART_RX_CTRL_REG |= UART_1_GET_UART_RX_CTRL_PARITY(config->parity) |
 148:.\Generated_Source\PSoC4/UART_1_UART.c ****                                                     UART_1_UART_RX_CTRL_PARITY_ENABLED;
 149:.\Generated_Source\PSoC4/UART_1_UART.c ****             }
 150:.\Generated_Source\PSoC4/UART_1_UART.c **** 
 151:.\Generated_Source\PSoC4/UART_1_UART.c ****             UART_1_RX_CTRL_REG      = UART_1_GET_RX_CTRL_DATA_WIDTH(config->dataBits)       |
 152:.\Generated_Source\PSoC4/UART_1_UART.c ****                                                 UART_1_GET_RX_CTRL_MEDIAN(config->enableMedianFilte
 153:.\Generated_Source\PSoC4/UART_1_UART.c ****                                                 UART_1_GET_UART_RX_CTRL_ENABLED(config->direction);
 154:.\Generated_Source\PSoC4/UART_1_UART.c **** 
 155:.\Generated_Source\PSoC4/UART_1_UART.c ****             UART_1_RX_FIFO_CTRL_REG = UART_1_GET_RX_FIFO_CTRL_TRIGGER_LEVEL(config->rxTriggerLevel)
 156:.\Generated_Source\PSoC4/UART_1_UART.c **** 
 157:.\Generated_Source\PSoC4/UART_1_UART.c ****             /* Configure MP address */
 158:.\Generated_Source\PSoC4/UART_1_UART.c ****             UART_1_RX_MATCH_REG     = UART_1_GET_RX_MATCH_ADDR(config->multiprocAddr) |
 159:.\Generated_Source\PSoC4/UART_1_UART.c ****                                                 UART_1_GET_RX_MATCH_MASK(config->multiprocAddrMask)
 160:.\Generated_Source\PSoC4/UART_1_UART.c **** 
 161:.\Generated_Source\PSoC4/UART_1_UART.c ****             /* Configure RX direction */
 162:.\Generated_Source\PSoC4/UART_1_UART.c ****             UART_1_UART_TX_CTRL_REG = UART_1_GET_UART_TX_CTRL_MODE(config->stopBits) |
 163:.\Generated_Source\PSoC4/UART_1_UART.c ****                                                 UART_1_GET_UART_TX_CTRL_RETRY_NACK(config->enableRe
 164:.\Generated_Source\PSoC4/UART_1_UART.c **** 
 165:.\Generated_Source\PSoC4/UART_1_UART.c ****             if(UART_1_UART_PARITY_NONE != config->parity)
 166:.\Generated_Source\PSoC4/UART_1_UART.c ****             {
 167:.\Generated_Source\PSoC4/UART_1_UART.c ****                UART_1_UART_TX_CTRL_REG |= UART_1_GET_UART_TX_CTRL_PARITY(config->parity) |
 168:.\Generated_Source\PSoC4/UART_1_UART.c ****                                                     UART_1_UART_TX_CTRL_PARITY_ENABLED;
 169:.\Generated_Source\PSoC4/UART_1_UART.c ****             }
 170:.\Generated_Source\PSoC4/UART_1_UART.c **** 
 171:.\Generated_Source\PSoC4/UART_1_UART.c ****             UART_1_TX_CTRL_REG      = UART_1_GET_TX_CTRL_DATA_WIDTH(config->dataBits)    |
 172:.\Generated_Source\PSoC4/UART_1_UART.c ****                                                 UART_1_GET_UART_TX_CTRL_ENABLED(config->direction);
 173:.\Generated_Source\PSoC4/UART_1_UART.c **** 
 174:.\Generated_Source\PSoC4/UART_1_UART.c ****             UART_1_TX_FIFO_CTRL_REG = UART_1_GET_TX_FIFO_CTRL_TRIGGER_LEVEL(config->txTriggerLevel)
 175:.\Generated_Source\PSoC4/UART_1_UART.c **** 
 176:.\Generated_Source\PSoC4/UART_1_UART.c ****         #if !(UART_1_CY_SCBIP_V0 || UART_1_CY_SCBIP_V1)
 177:.\Generated_Source\PSoC4/UART_1_UART.c ****             UART_1_UART_FLOW_CTRL_REG = UART_1_GET_UART_FLOW_CTRL_CTS_ENABLE(config->enableCts) | \
 178:.\Generated_Source\PSoC4/UART_1_UART.c ****                                             UART_1_GET_UART_FLOW_CTRL_CTS_POLARITY (config->ctsPola
 179:.\Generated_Source\PSoC4/UART_1_UART.c ****                                             UART_1_GET_UART_FLOW_CTRL_RTS_POLARITY (config->rtsPola
 180:.\Generated_Source\PSoC4/UART_1_UART.c ****                                             UART_1_GET_UART_FLOW_CTRL_TRIGGER_LEVEL(config->rtsRxFi
 181:.\Generated_Source\PSoC4/UART_1_UART.c ****         #endif /* !(UART_1_CY_SCBIP_V0 || UART_1_CY_SCBIP_V1) */
 182:.\Generated_Source\PSoC4/UART_1_UART.c **** 
 183:.\Generated_Source\PSoC4/UART_1_UART.c ****             /* Configure interrupt with UART handler but do not enable it */
 184:.\Generated_Source\PSoC4/UART_1_UART.c ****             CyIntDisable    (UART_1_ISR_NUMBER);
 185:.\Generated_Source\PSoC4/UART_1_UART.c ****             CyIntSetPriority(UART_1_ISR_NUMBER, UART_1_ISR_PRIORITY);
 186:.\Generated_Source\PSoC4/UART_1_UART.c ****             (void) CyIntSetVector(UART_1_ISR_NUMBER, &UART_1_SPI_UART_ISR);
 187:.\Generated_Source\PSoC4/UART_1_UART.c **** 
 188:.\Generated_Source\PSoC4/UART_1_UART.c ****             /* Configure WAKE interrupt */
 189:.\Generated_Source\PSoC4/UART_1_UART.c ****         #if(UART_1_UART_RX_WAKEUP_IRQ)
 190:.\Generated_Source\PSoC4/UART_1_UART.c ****             CyIntDisable    (UART_1_RX_WAKE_ISR_NUMBER);
 191:.\Generated_Source\PSoC4/UART_1_UART.c ****             CyIntSetPriority(UART_1_RX_WAKE_ISR_NUMBER, UART_1_RX_WAKE_ISR_PRIORITY);
 192:.\Generated_Source\PSoC4/UART_1_UART.c ****             (void) CyIntSetVector(UART_1_RX_WAKE_ISR_NUMBER, &UART_1_UART_WAKEUP_ISR);
 193:.\Generated_Source\PSoC4/UART_1_UART.c ****         #endif /* (UART_1_UART_RX_WAKEUP_IRQ) */
 194:.\Generated_Source\PSoC4/UART_1_UART.c **** 
 195:.\Generated_Source\PSoC4/UART_1_UART.c ****             /* Configure interrupt sources */
 196:.\Generated_Source\PSoC4/UART_1_UART.c ****             UART_1_INTR_I2C_EC_MASK_REG = UART_1_NO_INTR_SOURCES;
 197:.\Generated_Source\PSoC4/UART_1_UART.c ****             UART_1_INTR_SPI_EC_MASK_REG = UART_1_NO_INTR_SOURCES;
 198:.\Generated_Source\PSoC4/UART_1_UART.c ****             UART_1_INTR_SLAVE_MASK_REG  = UART_1_NO_INTR_SOURCES;
 199:.\Generated_Source\PSoC4/UART_1_UART.c ****             UART_1_INTR_MASTER_MASK_REG = UART_1_NO_INTR_SOURCES;
 200:.\Generated_Source\PSoC4/UART_1_UART.c ****             UART_1_INTR_RX_MASK_REG     = config->rxInterruptMask;
 201:.\Generated_Source\PSoC4/UART_1_UART.c ****             UART_1_INTR_TX_MASK_REG     = config->txInterruptMask;
 202:.\Generated_Source\PSoC4/UART_1_UART.c **** 
 203:.\Generated_Source\PSoC4/UART_1_UART.c ****             /* Clear RX buffer indexes */
ARM GAS  C:\Users\Petro\AppData\Local\Temp\ccMxjuYg.s 			page 5


 204:.\Generated_Source\PSoC4/UART_1_UART.c ****             UART_1_rxBufferHead     = 0u;
 205:.\Generated_Source\PSoC4/UART_1_UART.c ****             UART_1_rxBufferTail     = 0u;
 206:.\Generated_Source\PSoC4/UART_1_UART.c ****             UART_1_rxBufferOverflow = 0u;
 207:.\Generated_Source\PSoC4/UART_1_UART.c **** 
 208:.\Generated_Source\PSoC4/UART_1_UART.c ****             /* Clear TX buffer indexes */
 209:.\Generated_Source\PSoC4/UART_1_UART.c ****             UART_1_txBufferHead = 0u;
 210:.\Generated_Source\PSoC4/UART_1_UART.c ****             UART_1_txBufferTail = 0u;
 211:.\Generated_Source\PSoC4/UART_1_UART.c ****         }
 212:.\Generated_Source\PSoC4/UART_1_UART.c ****     }
 213:.\Generated_Source\PSoC4/UART_1_UART.c **** 
 214:.\Generated_Source\PSoC4/UART_1_UART.c **** #else
 215:.\Generated_Source\PSoC4/UART_1_UART.c **** 
 216:.\Generated_Source\PSoC4/UART_1_UART.c ****     /*******************************************************************************
 217:.\Generated_Source\PSoC4/UART_1_UART.c ****     * Function Name: UART_1_UartInit
 218:.\Generated_Source\PSoC4/UART_1_UART.c ****     ********************************************************************************
 219:.\Generated_Source\PSoC4/UART_1_UART.c ****     *
 220:.\Generated_Source\PSoC4/UART_1_UART.c ****     * Summary:
 221:.\Generated_Source\PSoC4/UART_1_UART.c ****     *  Configures the SCB for the UART operation.
 222:.\Generated_Source\PSoC4/UART_1_UART.c ****     *
 223:.\Generated_Source\PSoC4/UART_1_UART.c ****     * Parameters:
 224:.\Generated_Source\PSoC4/UART_1_UART.c ****     *  None
 225:.\Generated_Source\PSoC4/UART_1_UART.c ****     *
 226:.\Generated_Source\PSoC4/UART_1_UART.c ****     * Return:
 227:.\Generated_Source\PSoC4/UART_1_UART.c ****     *  None
 228:.\Generated_Source\PSoC4/UART_1_UART.c ****     *
 229:.\Generated_Source\PSoC4/UART_1_UART.c ****     *******************************************************************************/
 230:.\Generated_Source\PSoC4/UART_1_UART.c ****     void UART_1_UartInit(void)
 231:.\Generated_Source\PSoC4/UART_1_UART.c ****     {
  26              		.loc 1 231 0
  27              		.cfi_startproc
  28 0000 10B5     		push	{r4, lr}
  29              		.cfi_def_cfa_offset 8
  30              		.cfi_offset 4, -8
  31              		.cfi_offset 14, -4
 232:.\Generated_Source\PSoC4/UART_1_UART.c ****         /* Configure UART interface */
 233:.\Generated_Source\PSoC4/UART_1_UART.c ****         UART_1_CTRL_REG = UART_1_UART_DEFAULT_CTRL;
  32              		.loc 1 233 0
  33 0002 124A     		ldr	r2, .L2
  34 0004 124B     		ldr	r3, .L2+4
  35 0006 1A60     		str	r2, [r3]
 234:.\Generated_Source\PSoC4/UART_1_UART.c **** 
 235:.\Generated_Source\PSoC4/UART_1_UART.c ****         /* Configure sub-mode: UART, SmartCard or IrDA */
 236:.\Generated_Source\PSoC4/UART_1_UART.c ****         UART_1_UART_CTRL_REG = UART_1_UART_DEFAULT_UART_CTRL;
  36              		.loc 1 236 0
  37 0008 0023     		mov	r3, #0
  38 000a 124A     		ldr	r2, .L2+8
  39 000c 1360     		str	r3, [r2]
 237:.\Generated_Source\PSoC4/UART_1_UART.c **** 
 238:.\Generated_Source\PSoC4/UART_1_UART.c ****         /* Configure RX direction */
 239:.\Generated_Source\PSoC4/UART_1_UART.c ****         UART_1_UART_RX_CTRL_REG = UART_1_UART_DEFAULT_UART_RX_CTRL;
  40              		.loc 1 239 0
  41 000e 0121     		mov	r1, #1
  42 0010 114A     		ldr	r2, .L2+12
  43 0012 1160     		str	r1, [r2]
 240:.\Generated_Source\PSoC4/UART_1_UART.c ****         UART_1_RX_CTRL_REG      = UART_1_UART_DEFAULT_RX_CTRL;
  44              		.loc 1 240 0
  45 0014 114A     		ldr	r2, .L2+16
ARM GAS  C:\Users\Petro\AppData\Local\Temp\ccMxjuYg.s 			page 6


  46 0016 1248     		ldr	r0, .L2+20
  47 0018 0260     		str	r2, [r0]
 241:.\Generated_Source\PSoC4/UART_1_UART.c ****         UART_1_RX_FIFO_CTRL_REG = UART_1_UART_DEFAULT_RX_FIFO_CTRL;
  48              		.loc 1 241 0
  49 001a 0724     		mov	r4, #7
  50 001c 1148     		ldr	r0, .L2+24
  51 001e 0460     		str	r4, [r0]
 242:.\Generated_Source\PSoC4/UART_1_UART.c ****         UART_1_RX_MATCH_REG     = UART_1_UART_DEFAULT_RX_MATCH_REG;
  52              		.loc 1 242 0
  53 0020 1148     		ldr	r0, .L2+28
  54 0022 0360     		str	r3, [r0]
 243:.\Generated_Source\PSoC4/UART_1_UART.c **** 
 244:.\Generated_Source\PSoC4/UART_1_UART.c ****         /* Configure TX direction */
 245:.\Generated_Source\PSoC4/UART_1_UART.c ****         UART_1_UART_TX_CTRL_REG = UART_1_UART_DEFAULT_UART_TX_CTRL;
  55              		.loc 1 245 0
  56 0024 1148     		ldr	r0, .L2+32
  57 0026 0160     		str	r1, [r0]
 246:.\Generated_Source\PSoC4/UART_1_UART.c ****         UART_1_TX_CTRL_REG      = UART_1_UART_DEFAULT_TX_CTRL;
  58              		.loc 1 246 0
  59 0028 1149     		ldr	r1, .L2+36
  60 002a 0A60     		str	r2, [r1]
 247:.\Generated_Source\PSoC4/UART_1_UART.c ****         UART_1_TX_FIFO_CTRL_REG = UART_1_UART_DEFAULT_TX_FIFO_CTRL;
  61              		.loc 1 247 0
  62 002c 114A     		ldr	r2, .L2+40
  63 002e 1360     		str	r3, [r2]
 248:.\Generated_Source\PSoC4/UART_1_UART.c **** 
 249:.\Generated_Source\PSoC4/UART_1_UART.c ****     #if !(UART_1_CY_SCBIP_V0 || UART_1_CY_SCBIP_V1)
 250:.\Generated_Source\PSoC4/UART_1_UART.c ****         UART_1_UART_FLOW_CTRL_REG = UART_1_UART_DEFAULT_FLOW_CTRL;
 251:.\Generated_Source\PSoC4/UART_1_UART.c ****     #endif /* !(UART_1_CY_SCBIP_V0 || UART_1_CY_SCBIP_V1) */
 252:.\Generated_Source\PSoC4/UART_1_UART.c **** 
 253:.\Generated_Source\PSoC4/UART_1_UART.c ****         /* Configure interrupt with UART handler but do not enable it */
 254:.\Generated_Source\PSoC4/UART_1_UART.c ****     #if(UART_1_SCB_IRQ_INTERNAL)
 255:.\Generated_Source\PSoC4/UART_1_UART.c ****         CyIntDisable    (UART_1_ISR_NUMBER);
 256:.\Generated_Source\PSoC4/UART_1_UART.c ****         CyIntSetPriority(UART_1_ISR_NUMBER, UART_1_ISR_PRIORITY);
 257:.\Generated_Source\PSoC4/UART_1_UART.c ****         (void) CyIntSetVector(UART_1_ISR_NUMBER, &UART_1_SPI_UART_ISR);
 258:.\Generated_Source\PSoC4/UART_1_UART.c ****     #endif /* (UART_1_SCB_IRQ_INTERNAL) */
 259:.\Generated_Source\PSoC4/UART_1_UART.c **** 
 260:.\Generated_Source\PSoC4/UART_1_UART.c ****         /* Configure WAKE interrupt */
 261:.\Generated_Source\PSoC4/UART_1_UART.c ****     #if(UART_1_UART_RX_WAKEUP_IRQ)
 262:.\Generated_Source\PSoC4/UART_1_UART.c ****         CyIntDisable    (UART_1_RX_WAKE_ISR_NUMBER);
 263:.\Generated_Source\PSoC4/UART_1_UART.c ****         CyIntSetPriority(UART_1_RX_WAKE_ISR_NUMBER, UART_1_RX_WAKE_ISR_PRIORITY);
 264:.\Generated_Source\PSoC4/UART_1_UART.c ****         (void) CyIntSetVector(UART_1_RX_WAKE_ISR_NUMBER, &UART_1_UART_WAKEUP_ISR);
 265:.\Generated_Source\PSoC4/UART_1_UART.c ****     #endif /* (UART_1_UART_RX_WAKEUP_IRQ) */
 266:.\Generated_Source\PSoC4/UART_1_UART.c **** 
 267:.\Generated_Source\PSoC4/UART_1_UART.c ****         /* Configure interrupt sources */
 268:.\Generated_Source\PSoC4/UART_1_UART.c ****         UART_1_INTR_I2C_EC_MASK_REG = UART_1_UART_DEFAULT_INTR_I2C_EC_MASK;
  64              		.loc 1 268 0
  65 0030 114A     		ldr	r2, .L2+44
  66 0032 1360     		str	r3, [r2]
 269:.\Generated_Source\PSoC4/UART_1_UART.c ****         UART_1_INTR_SPI_EC_MASK_REG = UART_1_UART_DEFAULT_INTR_SPI_EC_MASK;
  67              		.loc 1 269 0
  68 0034 114A     		ldr	r2, .L2+48
  69 0036 1360     		str	r3, [r2]
 270:.\Generated_Source\PSoC4/UART_1_UART.c ****         UART_1_INTR_SLAVE_MASK_REG  = UART_1_UART_DEFAULT_INTR_SLAVE_MASK;
  70              		.loc 1 270 0
  71 0038 114A     		ldr	r2, .L2+52
  72 003a 1360     		str	r3, [r2]
ARM GAS  C:\Users\Petro\AppData\Local\Temp\ccMxjuYg.s 			page 7


 271:.\Generated_Source\PSoC4/UART_1_UART.c ****         UART_1_INTR_MASTER_MASK_REG = UART_1_UART_DEFAULT_INTR_MASTER_MASK;
  73              		.loc 1 271 0
  74 003c 114A     		ldr	r2, .L2+56
  75 003e 1360     		str	r3, [r2]
 272:.\Generated_Source\PSoC4/UART_1_UART.c ****         UART_1_INTR_RX_MASK_REG     = UART_1_UART_DEFAULT_INTR_RX_MASK;
  76              		.loc 1 272 0
  77 0040 114A     		ldr	r2, .L2+60
  78 0042 1360     		str	r3, [r2]
 273:.\Generated_Source\PSoC4/UART_1_UART.c ****         UART_1_INTR_TX_MASK_REG     = UART_1_UART_DEFAULT_INTR_TX_MASK;
  79              		.loc 1 273 0
  80 0044 114A     		ldr	r2, .L2+64
  81 0046 1360     		str	r3, [r2]
 274:.\Generated_Source\PSoC4/UART_1_UART.c **** 
 275:.\Generated_Source\PSoC4/UART_1_UART.c ****     #if(UART_1_INTERNAL_RX_SW_BUFFER_CONST)
 276:.\Generated_Source\PSoC4/UART_1_UART.c ****         UART_1_rxBufferHead     = 0u;
 277:.\Generated_Source\PSoC4/UART_1_UART.c ****         UART_1_rxBufferTail     = 0u;
 278:.\Generated_Source\PSoC4/UART_1_UART.c ****         UART_1_rxBufferOverflow = 0u;
 279:.\Generated_Source\PSoC4/UART_1_UART.c ****     #endif /* (UART_1_INTERNAL_RX_SW_BUFFER_CONST) */
 280:.\Generated_Source\PSoC4/UART_1_UART.c **** 
 281:.\Generated_Source\PSoC4/UART_1_UART.c ****     #if(UART_1_INTERNAL_TX_SW_BUFFER_CONST)
 282:.\Generated_Source\PSoC4/UART_1_UART.c ****         UART_1_txBufferHead = 0u;
 283:.\Generated_Source\PSoC4/UART_1_UART.c ****         UART_1_txBufferTail = 0u;
 284:.\Generated_Source\PSoC4/UART_1_UART.c ****     #endif /* (UART_1_INTERNAL_TX_SW_BUFFER_CONST) */
 285:.\Generated_Source\PSoC4/UART_1_UART.c ****     }
  82              		.loc 1 285 0
  83              		@ sp needed
  84 0048 10BD     		pop	{r4, pc}
  85              	.L3:
  86 004a C046     		.align	2
  87              	.L2:
  88 004c 0B000002 		.word	33554443
  89 0050 00000640 		.word	1074135040
  90 0054 40000640 		.word	1074135104
  91 0058 48000640 		.word	1074135112
  92 005c 07000080 		.word	-2147483641
  93 0060 00030640 		.word	1074135808
  94 0064 04030640 		.word	1074135812
  95 0068 10030640 		.word	1074135824
  96 006c 44000640 		.word	1074135108
  97 0070 00020640 		.word	1074135552
  98 0074 04020640 		.word	1074135556
  99 0078 880E0640 		.word	1074138760
 100 007c C80E0640 		.word	1074138824
 101 0080 480F0640 		.word	1074138952
 102 0084 080F0640 		.word	1074138888
 103 0088 C80F0640 		.word	1074139080
 104 008c 880F0640 		.word	1074139016
 105              		.cfi_endproc
 106              	.LFE0:
 107              		.size	UART_1_UartInit, .-UART_1_UartInit
 108              		.section	.text.UART_1_UartPostEnable,"ax",%progbits
 109              		.align	2
 110              		.global	UART_1_UartPostEnable
 111              		.code	16
 112              		.thumb_func
 113              		.type	UART_1_UartPostEnable, %function
 114              	UART_1_UartPostEnable:
ARM GAS  C:\Users\Petro\AppData\Local\Temp\ccMxjuYg.s 			page 8


 115              	.LFB1:
 286:.\Generated_Source\PSoC4/UART_1_UART.c **** #endif /* (UART_1_SCB_MODE_UNCONFIG_CONST_CFG) */
 287:.\Generated_Source\PSoC4/UART_1_UART.c **** 
 288:.\Generated_Source\PSoC4/UART_1_UART.c **** 
 289:.\Generated_Source\PSoC4/UART_1_UART.c **** /*******************************************************************************
 290:.\Generated_Source\PSoC4/UART_1_UART.c **** * Function Name: UART_1_UartPostEnable
 291:.\Generated_Source\PSoC4/UART_1_UART.c **** ********************************************************************************
 292:.\Generated_Source\PSoC4/UART_1_UART.c **** *
 293:.\Generated_Source\PSoC4/UART_1_UART.c **** * Summary:
 294:.\Generated_Source\PSoC4/UART_1_UART.c **** *  Restores HSIOM settings for the UART output pins (TX and/or RTS) to be 
 295:.\Generated_Source\PSoC4/UART_1_UART.c **** *  controlled by the SCB UART.
 296:.\Generated_Source\PSoC4/UART_1_UART.c **** *
 297:.\Generated_Source\PSoC4/UART_1_UART.c **** * Parameters:
 298:.\Generated_Source\PSoC4/UART_1_UART.c **** *  None
 299:.\Generated_Source\PSoC4/UART_1_UART.c **** *
 300:.\Generated_Source\PSoC4/UART_1_UART.c **** * Return:
 301:.\Generated_Source\PSoC4/UART_1_UART.c **** *  None
 302:.\Generated_Source\PSoC4/UART_1_UART.c **** *
 303:.\Generated_Source\PSoC4/UART_1_UART.c **** *******************************************************************************/
 304:.\Generated_Source\PSoC4/UART_1_UART.c **** void UART_1_UartPostEnable(void)
 305:.\Generated_Source\PSoC4/UART_1_UART.c **** {
 116              		.loc 1 305 0
 117              		.cfi_startproc
 306:.\Generated_Source\PSoC4/UART_1_UART.c **** #if (UART_1_SCB_MODE_UNCONFIG_CONST_CFG)
 307:.\Generated_Source\PSoC4/UART_1_UART.c **** 
 308:.\Generated_Source\PSoC4/UART_1_UART.c **** #if (UART_1_TX_SDA_MISO_PIN)
 309:.\Generated_Source\PSoC4/UART_1_UART.c ****     if (UART_1_CHECK_TX_SDA_MISO_PIN_USED)
 310:.\Generated_Source\PSoC4/UART_1_UART.c ****     {
 311:.\Generated_Source\PSoC4/UART_1_UART.c ****         /* Set SCB UART to drive the output pin */
 312:.\Generated_Source\PSoC4/UART_1_UART.c ****         UART_1_SET_HSIOM_SEL(UART_1_TX_SDA_MISO_HSIOM_REG, UART_1_TX_SDA_MISO_HSIOM_MASK,
 313:.\Generated_Source\PSoC4/UART_1_UART.c ****                                        UART_1_TX_SDA_MISO_HSIOM_POS, UART_1_HSIOM_UART_SEL);
 314:.\Generated_Source\PSoC4/UART_1_UART.c ****     }
 315:.\Generated_Source\PSoC4/UART_1_UART.c **** #endif /* (UART_1_TX_SDA_MISO_PIN_PIN) */
 316:.\Generated_Source\PSoC4/UART_1_UART.c **** 
 317:.\Generated_Source\PSoC4/UART_1_UART.c **** #if (UART_1_SS0_PIN)
 318:.\Generated_Source\PSoC4/UART_1_UART.c ****     if (UART_1_CHECK_SS0_PIN_USED)
 319:.\Generated_Source\PSoC4/UART_1_UART.c ****     {
 320:.\Generated_Source\PSoC4/UART_1_UART.c ****         /* Set SCB UART to drive the output pin */
 321:.\Generated_Source\PSoC4/UART_1_UART.c ****         UART_1_SET_HSIOM_SEL(UART_1_SS0_HSIOM_REG, UART_1_SS0_HSIOM_MASK,
 322:.\Generated_Source\PSoC4/UART_1_UART.c ****                                        UART_1_SS0_HSIOM_POS, UART_1_HSIOM_UART_SEL);
 323:.\Generated_Source\PSoC4/UART_1_UART.c ****     }
 324:.\Generated_Source\PSoC4/UART_1_UART.c **** #endif /* (UART_1_SS0_PIN) */
 325:.\Generated_Source\PSoC4/UART_1_UART.c **** 
 326:.\Generated_Source\PSoC4/UART_1_UART.c **** #else
 327:.\Generated_Source\PSoC4/UART_1_UART.c **** #if (UART_1_UART_TX_PIN)
 328:.\Generated_Source\PSoC4/UART_1_UART.c ****      /* Set SCB UART to drive the output pin */
 329:.\Generated_Source\PSoC4/UART_1_UART.c ****     UART_1_SET_HSIOM_SEL(UART_1_TX_HSIOM_REG, UART_1_TX_HSIOM_MASK,
 118              		.loc 1 329 0
 119 0000 0349     		ldr	r1, .L5
 120 0002 0B68     		ldr	r3, [r1]
 121 0004 F022     		mov	r2, #240
 122 0006 9343     		bic	r3, r2
 123 0008 603A     		sub	r2, r2, #96
 124 000a 1343     		orr	r3, r2
 125 000c 0B60     		str	r3, [r1]
 330:.\Generated_Source\PSoC4/UART_1_UART.c ****                                    UART_1_TX_HSIOM_POS, UART_1_HSIOM_UART_SEL);
 331:.\Generated_Source\PSoC4/UART_1_UART.c **** #endif /* (UART_1_UART_TX_PIN) */
ARM GAS  C:\Users\Petro\AppData\Local\Temp\ccMxjuYg.s 			page 9


 332:.\Generated_Source\PSoC4/UART_1_UART.c **** 
 333:.\Generated_Source\PSoC4/UART_1_UART.c **** #if (UART_1_UART_RTS_PIN)
 334:.\Generated_Source\PSoC4/UART_1_UART.c ****     /* Set SCB UART to drive the output pin */
 335:.\Generated_Source\PSoC4/UART_1_UART.c ****     UART_1_SET_HSIOM_SEL(UART_1_RTS_HSIOM_REG, UART_1_RTS_HSIOM_MASK,
 336:.\Generated_Source\PSoC4/UART_1_UART.c ****                                    UART_1_RTS_HSIOM_POS, UART_1_HSIOM_UART_SEL);
 337:.\Generated_Source\PSoC4/UART_1_UART.c **** #endif /* (UART_1_UART_RTS_PIN) */
 338:.\Generated_Source\PSoC4/UART_1_UART.c **** 
 339:.\Generated_Source\PSoC4/UART_1_UART.c **** #endif /* (UART_1_SCB_MODE_UNCONFIG_CONST_CFG) */
 340:.\Generated_Source\PSoC4/UART_1_UART.c **** }
 126              		.loc 1 340 0
 127              		@ sp needed
 128 000e 7047     		bx	lr
 129              	.L6:
 130              		.align	2
 131              	.L5:
 132 0010 10000140 		.word	1073807376
 133              		.cfi_endproc
 134              	.LFE1:
 135              		.size	UART_1_UartPostEnable, .-UART_1_UartPostEnable
 136              		.section	.text.UART_1_UartStop,"ax",%progbits
 137              		.align	2
 138              		.global	UART_1_UartStop
 139              		.code	16
 140              		.thumb_func
 141              		.type	UART_1_UartStop, %function
 142              	UART_1_UartStop:
 143              	.LFB2:
 341:.\Generated_Source\PSoC4/UART_1_UART.c **** 
 342:.\Generated_Source\PSoC4/UART_1_UART.c **** 
 343:.\Generated_Source\PSoC4/UART_1_UART.c **** /*******************************************************************************
 344:.\Generated_Source\PSoC4/UART_1_UART.c **** * Function Name: UART_1_UartStop
 345:.\Generated_Source\PSoC4/UART_1_UART.c **** ********************************************************************************
 346:.\Generated_Source\PSoC4/UART_1_UART.c **** *
 347:.\Generated_Source\PSoC4/UART_1_UART.c **** * Summary:
 348:.\Generated_Source\PSoC4/UART_1_UART.c **** *  Changes the HSIOM settings for the UART output pins (TX and/or RTS) to keep
 349:.\Generated_Source\PSoC4/UART_1_UART.c **** *  them inactive after the block is disabled. The output pins are controlled by
 350:.\Generated_Source\PSoC4/UART_1_UART.c **** *  the GPIO data register. Also, the function disables the skip start feature to
 351:.\Generated_Source\PSoC4/UART_1_UART.c **** *  not cause it to trigger after the component is enabled.
 352:.\Generated_Source\PSoC4/UART_1_UART.c **** *
 353:.\Generated_Source\PSoC4/UART_1_UART.c **** * Parameters:
 354:.\Generated_Source\PSoC4/UART_1_UART.c **** *  None
 355:.\Generated_Source\PSoC4/UART_1_UART.c **** *
 356:.\Generated_Source\PSoC4/UART_1_UART.c **** * Return:
 357:.\Generated_Source\PSoC4/UART_1_UART.c **** *  None
 358:.\Generated_Source\PSoC4/UART_1_UART.c **** *
 359:.\Generated_Source\PSoC4/UART_1_UART.c **** *******************************************************************************/
 360:.\Generated_Source\PSoC4/UART_1_UART.c **** void UART_1_UartStop(void)
 361:.\Generated_Source\PSoC4/UART_1_UART.c **** {
 144              		.loc 1 361 0
 145              		.cfi_startproc
 362:.\Generated_Source\PSoC4/UART_1_UART.c **** #if(UART_1_SCB_MODE_UNCONFIG_CONST_CFG)
 363:.\Generated_Source\PSoC4/UART_1_UART.c ****     #if (UART_1_TX_SDA_MISO_PIN)
 364:.\Generated_Source\PSoC4/UART_1_UART.c ****         if (UART_1_CHECK_TX_SDA_MISO_PIN_USED)
 365:.\Generated_Source\PSoC4/UART_1_UART.c ****         {
 366:.\Generated_Source\PSoC4/UART_1_UART.c ****             /* Set GPIO to drive output pin */
 367:.\Generated_Source\PSoC4/UART_1_UART.c ****             UART_1_SET_HSIOM_SEL(UART_1_TX_SDA_MISO_HSIOM_REG, UART_1_TX_SDA_MISO_HSIOM_MASK,
 368:.\Generated_Source\PSoC4/UART_1_UART.c ****                                            UART_1_TX_SDA_MISO_HSIOM_POS, UART_1_HSIOM_GPIO_SEL);
ARM GAS  C:\Users\Petro\AppData\Local\Temp\ccMxjuYg.s 			page 10


 369:.\Generated_Source\PSoC4/UART_1_UART.c ****         }
 370:.\Generated_Source\PSoC4/UART_1_UART.c ****     #endif /* (UART_1_TX_SDA_MISO_PIN_PIN) */
 371:.\Generated_Source\PSoC4/UART_1_UART.c **** 
 372:.\Generated_Source\PSoC4/UART_1_UART.c ****     #if (UART_1_SS0_PIN)
 373:.\Generated_Source\PSoC4/UART_1_UART.c ****         if (UART_1_CHECK_SS0_PIN_USED)
 374:.\Generated_Source\PSoC4/UART_1_UART.c ****         {
 375:.\Generated_Source\PSoC4/UART_1_UART.c ****             /* Set output pin state after block is disabled */
 376:.\Generated_Source\PSoC4/UART_1_UART.c ****             UART_1_spi_ss0_Write(UART_1_GET_UART_RTS_INACTIVE);
 377:.\Generated_Source\PSoC4/UART_1_UART.c **** 
 378:.\Generated_Source\PSoC4/UART_1_UART.c ****             /* Set GPIO to drive output pin */
 379:.\Generated_Source\PSoC4/UART_1_UART.c ****             UART_1_SET_HSIOM_SEL(UART_1_SS0_HSIOM_REG, UART_1_SS0_HSIOM_MASK,
 380:.\Generated_Source\PSoC4/UART_1_UART.c ****                                            UART_1_SS0_HSIOM_POS, UART_1_HSIOM_GPIO_SEL);
 381:.\Generated_Source\PSoC4/UART_1_UART.c ****         }
 382:.\Generated_Source\PSoC4/UART_1_UART.c ****     #endif /* (UART_1_SS0_PIN) */
 383:.\Generated_Source\PSoC4/UART_1_UART.c **** 
 384:.\Generated_Source\PSoC4/UART_1_UART.c **** #else
 385:.\Generated_Source\PSoC4/UART_1_UART.c ****     #if (UART_1_UART_TX_PIN)
 386:.\Generated_Source\PSoC4/UART_1_UART.c ****         /* Set GPIO to drive output pin */
 387:.\Generated_Source\PSoC4/UART_1_UART.c ****         UART_1_SET_HSIOM_SEL(UART_1_TX_HSIOM_REG, UART_1_TX_HSIOM_MASK,
 146              		.loc 1 387 0
 147 0000 024A     		ldr	r2, .L8
 148 0002 1368     		ldr	r3, [r2]
 149 0004 F021     		mov	r1, #240
 150 0006 8B43     		bic	r3, r1
 151 0008 1360     		str	r3, [r2]
 388:.\Generated_Source\PSoC4/UART_1_UART.c ****                                        UART_1_TX_HSIOM_POS, UART_1_HSIOM_GPIO_SEL);
 389:.\Generated_Source\PSoC4/UART_1_UART.c ****     #endif /* (UART_1_UART_TX_PIN) */
 390:.\Generated_Source\PSoC4/UART_1_UART.c **** 
 391:.\Generated_Source\PSoC4/UART_1_UART.c ****     #if (UART_1_UART_RTS_PIN)
 392:.\Generated_Source\PSoC4/UART_1_UART.c ****         /* Set output pin state after block is disabled */
 393:.\Generated_Source\PSoC4/UART_1_UART.c ****         UART_1_rts_Write(UART_1_GET_UART_RTS_INACTIVE);
 394:.\Generated_Source\PSoC4/UART_1_UART.c **** 
 395:.\Generated_Source\PSoC4/UART_1_UART.c ****         /* Set GPIO to drive output pin */
 396:.\Generated_Source\PSoC4/UART_1_UART.c ****         UART_1_SET_HSIOM_SEL(UART_1_RTS_HSIOM_REG, UART_1_RTS_HSIOM_MASK,
 397:.\Generated_Source\PSoC4/UART_1_UART.c ****                                        UART_1_RTS_HSIOM_POS, UART_1_HSIOM_GPIO_SEL);
 398:.\Generated_Source\PSoC4/UART_1_UART.c ****     #endif /* (UART_1_UART_RTS_PIN) */
 399:.\Generated_Source\PSoC4/UART_1_UART.c **** 
 400:.\Generated_Source\PSoC4/UART_1_UART.c **** #endif /* (UART_1_SCB_MODE_UNCONFIG_CONST_CFG) */
 401:.\Generated_Source\PSoC4/UART_1_UART.c **** 
 402:.\Generated_Source\PSoC4/UART_1_UART.c **** #if (UART_1_UART_WAKE_ENABLE_CONST)
 403:.\Generated_Source\PSoC4/UART_1_UART.c ****     /* Disable skip start feature used for wakeup */
 404:.\Generated_Source\PSoC4/UART_1_UART.c ****     UART_1_UART_RX_CTRL_REG &= (uint32) ~UART_1_UART_RX_CTRL_SKIP_START;
 405:.\Generated_Source\PSoC4/UART_1_UART.c **** #endif /* (UART_1_UART_WAKE_ENABLE_CONST) */
 406:.\Generated_Source\PSoC4/UART_1_UART.c **** }
 152              		.loc 1 406 0
 153              		@ sp needed
 154 000a 7047     		bx	lr
 155              	.L9:
 156              		.align	2
 157              	.L8:
 158 000c 10000140 		.word	1073807376
 159              		.cfi_endproc
 160              	.LFE2:
 161              		.size	UART_1_UartStop, .-UART_1_UartStop
 162              		.section	.text.UART_1_UartSetRxAddress,"ax",%progbits
 163              		.align	2
 164              		.global	UART_1_UartSetRxAddress
ARM GAS  C:\Users\Petro\AppData\Local\Temp\ccMxjuYg.s 			page 11


 165              		.code	16
 166              		.thumb_func
 167              		.type	UART_1_UartSetRxAddress, %function
 168              	UART_1_UartSetRxAddress:
 169              	.LFB3:
 407:.\Generated_Source\PSoC4/UART_1_UART.c **** 
 408:.\Generated_Source\PSoC4/UART_1_UART.c **** 
 409:.\Generated_Source\PSoC4/UART_1_UART.c **** /*******************************************************************************
 410:.\Generated_Source\PSoC4/UART_1_UART.c **** * Function Name: UART_1_UartSetRxAddress
 411:.\Generated_Source\PSoC4/UART_1_UART.c **** ********************************************************************************
 412:.\Generated_Source\PSoC4/UART_1_UART.c **** *
 413:.\Generated_Source\PSoC4/UART_1_UART.c **** * Summary:
 414:.\Generated_Source\PSoC4/UART_1_UART.c **** *  Sets the hardware detectable receiver address for the UART in the
 415:.\Generated_Source\PSoC4/UART_1_UART.c **** *  Multiprocessor mode.
 416:.\Generated_Source\PSoC4/UART_1_UART.c **** *
 417:.\Generated_Source\PSoC4/UART_1_UART.c **** * Parameters:
 418:.\Generated_Source\PSoC4/UART_1_UART.c **** *  address: Address for hardware address detection.
 419:.\Generated_Source\PSoC4/UART_1_UART.c **** *
 420:.\Generated_Source\PSoC4/UART_1_UART.c **** * Return:
 421:.\Generated_Source\PSoC4/UART_1_UART.c **** *  None
 422:.\Generated_Source\PSoC4/UART_1_UART.c **** *
 423:.\Generated_Source\PSoC4/UART_1_UART.c **** *******************************************************************************/
 424:.\Generated_Source\PSoC4/UART_1_UART.c **** void UART_1_UartSetRxAddress(uint32 address)
 425:.\Generated_Source\PSoC4/UART_1_UART.c **** {
 170              		.loc 1 425 0
 171              		.cfi_startproc
 172              	.LVL0:
 426:.\Generated_Source\PSoC4/UART_1_UART.c ****      uint32 matchReg;
 427:.\Generated_Source\PSoC4/UART_1_UART.c **** 
 428:.\Generated_Source\PSoC4/UART_1_UART.c ****     matchReg = UART_1_RX_MATCH_REG;
 173              		.loc 1 428 0
 174 0000 034A     		ldr	r2, .L11
 175 0002 1368     		ldr	r3, [r2]
 176              	.LVL1:
 429:.\Generated_Source\PSoC4/UART_1_UART.c **** 
 430:.\Generated_Source\PSoC4/UART_1_UART.c ****     matchReg &= ((uint32) ~UART_1_RX_MATCH_ADDR_MASK); /* Clear address bits */
 177              		.loc 1 430 0
 178 0004 FF21     		mov	r1, #255
 179 0006 8B43     		bic	r3, r1
 180              	.LVL2:
 431:.\Generated_Source\PSoC4/UART_1_UART.c ****     matchReg |= ((uint32)  (address & UART_1_RX_MATCH_ADDR_MASK)); /* Set address  */
 181              		.loc 1 431 0
 182 0008 0840     		and	r0, r1
 183              	.LVL3:
 184 000a 1843     		orr	r0, r3
 185              	.LVL4:
 432:.\Generated_Source\PSoC4/UART_1_UART.c **** 
 433:.\Generated_Source\PSoC4/UART_1_UART.c ****     UART_1_RX_MATCH_REG = matchReg;
 186              		.loc 1 433 0
 187 000c 1060     		str	r0, [r2]
 434:.\Generated_Source\PSoC4/UART_1_UART.c **** }
 188              		.loc 1 434 0
 189              		@ sp needed
 190 000e 7047     		bx	lr
 191              	.L12:
 192              		.align	2
 193              	.L11:
ARM GAS  C:\Users\Petro\AppData\Local\Temp\ccMxjuYg.s 			page 12


 194 0010 10030640 		.word	1074135824
 195              		.cfi_endproc
 196              	.LFE3:
 197              		.size	UART_1_UartSetRxAddress, .-UART_1_UartSetRxAddress
 198              		.section	.text.UART_1_UartSetRxAddressMask,"ax",%progbits
 199              		.align	2
 200              		.global	UART_1_UartSetRxAddressMask
 201              		.code	16
 202              		.thumb_func
 203              		.type	UART_1_UartSetRxAddressMask, %function
 204              	UART_1_UartSetRxAddressMask:
 205              	.LFB4:
 435:.\Generated_Source\PSoC4/UART_1_UART.c **** 
 436:.\Generated_Source\PSoC4/UART_1_UART.c **** 
 437:.\Generated_Source\PSoC4/UART_1_UART.c **** /*******************************************************************************
 438:.\Generated_Source\PSoC4/UART_1_UART.c **** * Function Name: UART_1_UartSetRxAddressMask
 439:.\Generated_Source\PSoC4/UART_1_UART.c **** ********************************************************************************
 440:.\Generated_Source\PSoC4/UART_1_UART.c **** *
 441:.\Generated_Source\PSoC4/UART_1_UART.c **** * Summary:
 442:.\Generated_Source\PSoC4/UART_1_UART.c **** *  Sets the hardware address mask for the UART in the Multiprocessor mode.
 443:.\Generated_Source\PSoC4/UART_1_UART.c **** *
 444:.\Generated_Source\PSoC4/UART_1_UART.c **** * Parameters:
 445:.\Generated_Source\PSoC4/UART_1_UART.c **** *  addressMask: Address mask.
 446:.\Generated_Source\PSoC4/UART_1_UART.c **** *   0 - address bit does not care while comparison.
 447:.\Generated_Source\PSoC4/UART_1_UART.c **** *   1 - address bit is significant while comparison.
 448:.\Generated_Source\PSoC4/UART_1_UART.c **** *
 449:.\Generated_Source\PSoC4/UART_1_UART.c **** * Return:
 450:.\Generated_Source\PSoC4/UART_1_UART.c **** *  None
 451:.\Generated_Source\PSoC4/UART_1_UART.c **** *
 452:.\Generated_Source\PSoC4/UART_1_UART.c **** *******************************************************************************/
 453:.\Generated_Source\PSoC4/UART_1_UART.c **** void UART_1_UartSetRxAddressMask(uint32 addressMask)
 454:.\Generated_Source\PSoC4/UART_1_UART.c **** {
 206              		.loc 1 454 0
 207              		.cfi_startproc
 208              	.LVL5:
 455:.\Generated_Source\PSoC4/UART_1_UART.c ****     uint32 matchReg;
 456:.\Generated_Source\PSoC4/UART_1_UART.c **** 
 457:.\Generated_Source\PSoC4/UART_1_UART.c ****     matchReg = UART_1_RX_MATCH_REG;
 209              		.loc 1 457 0
 210 0000 034A     		ldr	r2, .L14
 211 0002 1168     		ldr	r1, [r2]
 212              	.LVL6:
 458:.\Generated_Source\PSoC4/UART_1_UART.c **** 
 459:.\Generated_Source\PSoC4/UART_1_UART.c ****     matchReg &= ((uint32) ~UART_1_RX_MATCH_MASK_MASK); /* Clear address mask bits */
 213              		.loc 1 459 0
 214 0004 034B     		ldr	r3, .L14+4
 215 0006 0B40     		and	r3, r1
 216              	.LVL7:
 460:.\Generated_Source\PSoC4/UART_1_UART.c ****     matchReg |= ((uint32) (addressMask << UART_1_RX_MATCH_MASK_POS));
 217              		.loc 1 460 0
 218 0008 0004     		lsl	r0, r0, #16
 219              	.LVL8:
 220 000a 1843     		orr	r0, r3
 221              	.LVL9:
 461:.\Generated_Source\PSoC4/UART_1_UART.c **** 
 462:.\Generated_Source\PSoC4/UART_1_UART.c ****     UART_1_RX_MATCH_REG = matchReg;
 222              		.loc 1 462 0
ARM GAS  C:\Users\Petro\AppData\Local\Temp\ccMxjuYg.s 			page 13


 223 000c 1060     		str	r0, [r2]
 463:.\Generated_Source\PSoC4/UART_1_UART.c **** }
 224              		.loc 1 463 0
 225              		@ sp needed
 226 000e 7047     		bx	lr
 227              	.L15:
 228              		.align	2
 229              	.L14:
 230 0010 10030640 		.word	1074135824
 231 0014 FFFF00FF 		.word	-16711681
 232              		.cfi_endproc
 233              	.LFE4:
 234              		.size	UART_1_UartSetRxAddressMask, .-UART_1_UartSetRxAddressMask
 235              		.section	.text.UART_1_UartGetChar,"ax",%progbits
 236              		.align	2
 237              		.global	UART_1_UartGetChar
 238              		.code	16
 239              		.thumb_func
 240              		.type	UART_1_UartGetChar, %function
 241              	UART_1_UartGetChar:
 242              	.LFB5:
 464:.\Generated_Source\PSoC4/UART_1_UART.c **** 
 465:.\Generated_Source\PSoC4/UART_1_UART.c **** 
 466:.\Generated_Source\PSoC4/UART_1_UART.c **** #if(UART_1_UART_RX_DIRECTION)
 467:.\Generated_Source\PSoC4/UART_1_UART.c ****     /*******************************************************************************
 468:.\Generated_Source\PSoC4/UART_1_UART.c ****     * Function Name: UART_1_UartGetChar
 469:.\Generated_Source\PSoC4/UART_1_UART.c ****     ********************************************************************************
 470:.\Generated_Source\PSoC4/UART_1_UART.c ****     *
 471:.\Generated_Source\PSoC4/UART_1_UART.c ****     * Summary:
 472:.\Generated_Source\PSoC4/UART_1_UART.c ****     *  Retrieves the next data element from the receive buffer.
 473:.\Generated_Source\PSoC4/UART_1_UART.c ****     *  This function is designed for ASCII characters and returns a char
 474:.\Generated_Source\PSoC4/UART_1_UART.c ****     *  where 1 to 255 are valid characters and 0 indicates an error occurred or
 475:.\Generated_Source\PSoC4/UART_1_UART.c ****     *  no data present.
 476:.\Generated_Source\PSoC4/UART_1_UART.c ****     *  - The RX software buffer is disabled: returns the data element
 477:.\Generated_Source\PSoC4/UART_1_UART.c ****     *    retrieved from the RX FIFO.
 478:.\Generated_Source\PSoC4/UART_1_UART.c ****     *    Undefined data will be returned if the RX FIFO is empty.
 479:.\Generated_Source\PSoC4/UART_1_UART.c ****     *  - The RX software buffer is enabled: returns the data element from
 480:.\Generated_Source\PSoC4/UART_1_UART.c ****     *    the software receive buffer.
 481:.\Generated_Source\PSoC4/UART_1_UART.c ****     *
 482:.\Generated_Source\PSoC4/UART_1_UART.c ****     * Parameters:
 483:.\Generated_Source\PSoC4/UART_1_UART.c ****     *  None
 484:.\Generated_Source\PSoC4/UART_1_UART.c ****     *
 485:.\Generated_Source\PSoC4/UART_1_UART.c ****     * Return:
 486:.\Generated_Source\PSoC4/UART_1_UART.c ****     *  The next data element from the receive buffer.
 487:.\Generated_Source\PSoC4/UART_1_UART.c ****     *  ASCII character values from 1 to 255 are valid.
 488:.\Generated_Source\PSoC4/UART_1_UART.c ****     *  A returned zero signifies an error condition or no data available.
 489:.\Generated_Source\PSoC4/UART_1_UART.c ****     *
 490:.\Generated_Source\PSoC4/UART_1_UART.c ****     * Side Effects:
 491:.\Generated_Source\PSoC4/UART_1_UART.c ****     *  The errors bits may not correspond with reading characters due to RX FIFO
 492:.\Generated_Source\PSoC4/UART_1_UART.c ****     *  and software buffer usage.
 493:.\Generated_Source\PSoC4/UART_1_UART.c ****     *  RX software buffer is enabled: The internal software buffer overflow
 494:.\Generated_Source\PSoC4/UART_1_UART.c ****     *  does not treat as an error condition.
 495:.\Generated_Source\PSoC4/UART_1_UART.c ****     *  Check SCB_rxBufferOverflow to capture that error condition.
 496:.\Generated_Source\PSoC4/UART_1_UART.c ****     *
 497:.\Generated_Source\PSoC4/UART_1_UART.c ****     *******************************************************************************/
 498:.\Generated_Source\PSoC4/UART_1_UART.c ****     uint32 UART_1_UartGetChar(void)
 499:.\Generated_Source\PSoC4/UART_1_UART.c ****     {
ARM GAS  C:\Users\Petro\AppData\Local\Temp\ccMxjuYg.s 			page 14


 243              		.loc 1 499 0
 244              		.cfi_startproc
 245 0000 08B5     		push	{r3, lr}
 246              		.cfi_def_cfa_offset 8
 247              		.cfi_offset 3, -8
 248              		.cfi_offset 14, -4
 249              	.LVL10:
 500:.\Generated_Source\PSoC4/UART_1_UART.c ****         uint32 rxData = 0u;
 501:.\Generated_Source\PSoC4/UART_1_UART.c **** 
 502:.\Generated_Source\PSoC4/UART_1_UART.c ****         /* Reads data only if there is data to read */
 503:.\Generated_Source\PSoC4/UART_1_UART.c ****         if (0u != UART_1_SpiUartGetRxBufferSize())
 250              		.loc 1 503 0
 251 0002 FFF7FEFF 		bl	UART_1_SpiUartGetRxBufferSize
 252              	.LVL11:
 253 0006 0028     		cmp	r0, #0
 254 0008 02D0     		beq	.L19
 504:.\Generated_Source\PSoC4/UART_1_UART.c ****         {
 505:.\Generated_Source\PSoC4/UART_1_UART.c ****             rxData = UART_1_SpiUartReadRxData();
 255              		.loc 1 505 0
 256 000a FFF7FEFF 		bl	UART_1_SpiUartReadRxData
 257              	.LVL12:
 258 000e 00E0     		b	.L17
 259              	.LVL13:
 260              	.L19:
 500:.\Generated_Source\PSoC4/UART_1_UART.c ****         uint32 rxData = 0u;
 261              		.loc 1 500 0
 262 0010 0020     		mov	r0, #0
 263              	.LVL14:
 264              	.L17:
 506:.\Generated_Source\PSoC4/UART_1_UART.c ****         }
 507:.\Generated_Source\PSoC4/UART_1_UART.c **** 
 508:.\Generated_Source\PSoC4/UART_1_UART.c ****         if (UART_1_CHECK_INTR_RX(UART_1_INTR_RX_ERR))
 265              		.loc 1 508 0
 266 0012 054B     		ldr	r3, .L20
 267 0014 1A68     		ldr	r2, [r3]
 268 0016 D823     		mov	r3, #216
 269 0018 9B00     		lsl	r3, r3, #2
 270 001a 1A42     		tst	r2, r3
 271 001c 03D0     		beq	.L18
 272              	.LVL15:
 509:.\Generated_Source\PSoC4/UART_1_UART.c ****         {
 510:.\Generated_Source\PSoC4/UART_1_UART.c ****             rxData = 0u; /* Error occurred: returns zero */
 511:.\Generated_Source\PSoC4/UART_1_UART.c ****             UART_1_ClearRxInterruptSource(UART_1_INTR_RX_ERR);
 273              		.loc 1 511 0
 274 001e 1A1C     		mov	r2, r3
 275 0020 014B     		ldr	r3, .L20
 276 0022 1A60     		str	r2, [r3]
 510:.\Generated_Source\PSoC4/UART_1_UART.c ****             UART_1_ClearRxInterruptSource(UART_1_INTR_RX_ERR);
 277              		.loc 1 510 0
 278 0024 0020     		mov	r0, #0
 279              	.LVL16:
 280              	.L18:
 512:.\Generated_Source\PSoC4/UART_1_UART.c ****         }
 513:.\Generated_Source\PSoC4/UART_1_UART.c **** 
 514:.\Generated_Source\PSoC4/UART_1_UART.c ****         return (rxData);
 515:.\Generated_Source\PSoC4/UART_1_UART.c ****     }
 281              		.loc 1 515 0
ARM GAS  C:\Users\Petro\AppData\Local\Temp\ccMxjuYg.s 			page 15


 282              		@ sp needed
 283 0026 08BD     		pop	{r3, pc}
 284              	.L21:
 285              		.align	2
 286              	.L20:
 287 0028 C00F0640 		.word	1074139072
 288              		.cfi_endproc
 289              	.LFE5:
 290              		.size	UART_1_UartGetChar, .-UART_1_UartGetChar
 291              		.section	.text.UART_1_UartGetByte,"ax",%progbits
 292              		.align	2
 293              		.global	UART_1_UartGetByte
 294              		.code	16
 295              		.thumb_func
 296              		.type	UART_1_UartGetByte, %function
 297              	UART_1_UartGetByte:
 298              	.LFB6:
 516:.\Generated_Source\PSoC4/UART_1_UART.c **** 
 517:.\Generated_Source\PSoC4/UART_1_UART.c **** 
 518:.\Generated_Source\PSoC4/UART_1_UART.c ****     /*******************************************************************************
 519:.\Generated_Source\PSoC4/UART_1_UART.c ****     * Function Name: UART_1_UartGetByte
 520:.\Generated_Source\PSoC4/UART_1_UART.c ****     ********************************************************************************
 521:.\Generated_Source\PSoC4/UART_1_UART.c ****     *
 522:.\Generated_Source\PSoC4/UART_1_UART.c ****     * Summary:
 523:.\Generated_Source\PSoC4/UART_1_UART.c ****     *  Retrieves the next data element from the receive buffer, returns the
 524:.\Generated_Source\PSoC4/UART_1_UART.c ****     *  received byte and error condition.
 525:.\Generated_Source\PSoC4/UART_1_UART.c ****     *   - The RX software buffer is disabled: returns the data element retrieved
 526:.\Generated_Source\PSoC4/UART_1_UART.c ****     *     from the RX FIFO. Undefined data will be returned if the RX FIFO is
 527:.\Generated_Source\PSoC4/UART_1_UART.c ****     *     empty.
 528:.\Generated_Source\PSoC4/UART_1_UART.c ****     *   - The RX software buffer is enabled: returns data element from the
 529:.\Generated_Source\PSoC4/UART_1_UART.c ****     *     software receive buffer.
 530:.\Generated_Source\PSoC4/UART_1_UART.c ****     *
 531:.\Generated_Source\PSoC4/UART_1_UART.c ****     * Parameters:
 532:.\Generated_Source\PSoC4/UART_1_UART.c ****     *  None
 533:.\Generated_Source\PSoC4/UART_1_UART.c ****     *
 534:.\Generated_Source\PSoC4/UART_1_UART.c ****     * Return:
 535:.\Generated_Source\PSoC4/UART_1_UART.c ****     *  Bits 7-0 contain the next data element from the receive buffer and
 536:.\Generated_Source\PSoC4/UART_1_UART.c ****     *  other bits contain the error condition.
 537:.\Generated_Source\PSoC4/UART_1_UART.c ****     *
 538:.\Generated_Source\PSoC4/UART_1_UART.c ****     * Side Effects:
 539:.\Generated_Source\PSoC4/UART_1_UART.c ****     *  The errors bits may not correspond with reading characters due to RX FIFO
 540:.\Generated_Source\PSoC4/UART_1_UART.c ****     *  and software buffer usage.
 541:.\Generated_Source\PSoC4/UART_1_UART.c ****     *  RX software buffer is disabled: The internal software buffer overflow
 542:.\Generated_Source\PSoC4/UART_1_UART.c ****     *  is not returned as status by this function.
 543:.\Generated_Source\PSoC4/UART_1_UART.c ****     *  Check SCB_rxBufferOverflow to capture that error condition.
 544:.\Generated_Source\PSoC4/UART_1_UART.c ****     *
 545:.\Generated_Source\PSoC4/UART_1_UART.c ****     *******************************************************************************/
 546:.\Generated_Source\PSoC4/UART_1_UART.c ****     uint32 UART_1_UartGetByte(void)
 547:.\Generated_Source\PSoC4/UART_1_UART.c ****     {
 299              		.loc 1 547 0
 300              		.cfi_startproc
 301 0000 08B5     		push	{r3, lr}
 302              		.cfi_def_cfa_offset 8
 303              		.cfi_offset 3, -8
 304              		.cfi_offset 14, -4
 548:.\Generated_Source\PSoC4/UART_1_UART.c ****         uint32 rxData;
 549:.\Generated_Source\PSoC4/UART_1_UART.c ****         uint32 tmpStatus;
ARM GAS  C:\Users\Petro\AppData\Local\Temp\ccMxjuYg.s 			page 16


 550:.\Generated_Source\PSoC4/UART_1_UART.c **** 
 551:.\Generated_Source\PSoC4/UART_1_UART.c ****         #if (UART_1_CHECK_RX_SW_BUFFER)
 552:.\Generated_Source\PSoC4/UART_1_UART.c ****         {
 553:.\Generated_Source\PSoC4/UART_1_UART.c ****             UART_1_DisableInt();
 554:.\Generated_Source\PSoC4/UART_1_UART.c ****         }
 555:.\Generated_Source\PSoC4/UART_1_UART.c ****         #endif
 556:.\Generated_Source\PSoC4/UART_1_UART.c **** 
 557:.\Generated_Source\PSoC4/UART_1_UART.c ****         if (0u != UART_1_SpiUartGetRxBufferSize())
 305              		.loc 1 557 0
 306 0002 FFF7FEFF 		bl	UART_1_SpiUartGetRxBufferSize
 307              	.LVL17:
 308 0006 0028     		cmp	r0, #0
 309 0008 02D0     		beq	.L23
 558:.\Generated_Source\PSoC4/UART_1_UART.c ****         {
 559:.\Generated_Source\PSoC4/UART_1_UART.c ****             /* Enables interrupt to receive more bytes: at least one byte is in
 560:.\Generated_Source\PSoC4/UART_1_UART.c ****             * buffer.
 561:.\Generated_Source\PSoC4/UART_1_UART.c ****             */
 562:.\Generated_Source\PSoC4/UART_1_UART.c ****             #if (UART_1_CHECK_RX_SW_BUFFER)
 563:.\Generated_Source\PSoC4/UART_1_UART.c ****             {            
 564:.\Generated_Source\PSoC4/UART_1_UART.c ****                 UART_1_EnableInt();
 565:.\Generated_Source\PSoC4/UART_1_UART.c ****             }
 566:.\Generated_Source\PSoC4/UART_1_UART.c ****             #endif
 567:.\Generated_Source\PSoC4/UART_1_UART.c **** 
 568:.\Generated_Source\PSoC4/UART_1_UART.c ****             /* Get received byte */
 569:.\Generated_Source\PSoC4/UART_1_UART.c ****             rxData = UART_1_SpiUartReadRxData();
 310              		.loc 1 569 0
 311 000a FFF7FEFF 		bl	UART_1_SpiUartReadRxData
 312              	.LVL18:
 313 000e 01E0     		b	.L24
 314              	.LVL19:
 315              	.L23:
 570:.\Generated_Source\PSoC4/UART_1_UART.c ****         }
 571:.\Generated_Source\PSoC4/UART_1_UART.c ****         else
 572:.\Generated_Source\PSoC4/UART_1_UART.c ****         {
 573:.\Generated_Source\PSoC4/UART_1_UART.c ****             /* Reads a byte directly from RX FIFO: underflow is raised in the case
 574:.\Generated_Source\PSoC4/UART_1_UART.c ****             * of empty. Otherwise the first received byte will be read.
 575:.\Generated_Source\PSoC4/UART_1_UART.c ****             */
 576:.\Generated_Source\PSoC4/UART_1_UART.c ****             rxData = UART_1_RX_FIFO_RD_REG;
 316              		.loc 1 576 0
 317 0010 054B     		ldr	r3, .L25
 318 0012 1868     		ldr	r0, [r3]
 319              	.LVL20:
 320              	.L24:
 577:.\Generated_Source\PSoC4/UART_1_UART.c **** 
 578:.\Generated_Source\PSoC4/UART_1_UART.c ****             /* Enables interrupt to receive more bytes.
 579:.\Generated_Source\PSoC4/UART_1_UART.c ****             * The RX_NOT_EMPTY interrupt is cleared by the interrupt routine
 580:.\Generated_Source\PSoC4/UART_1_UART.c ****             * in case the byte was received and read by code above.
 581:.\Generated_Source\PSoC4/UART_1_UART.c ****             */
 582:.\Generated_Source\PSoC4/UART_1_UART.c ****             #if (UART_1_CHECK_RX_SW_BUFFER)
 583:.\Generated_Source\PSoC4/UART_1_UART.c ****             {
 584:.\Generated_Source\PSoC4/UART_1_UART.c ****                 UART_1_EnableInt();
 585:.\Generated_Source\PSoC4/UART_1_UART.c ****             }
 586:.\Generated_Source\PSoC4/UART_1_UART.c ****             #endif
 587:.\Generated_Source\PSoC4/UART_1_UART.c ****         }
 588:.\Generated_Source\PSoC4/UART_1_UART.c **** 
 589:.\Generated_Source\PSoC4/UART_1_UART.c ****         /* Get and clear RX error mask */
 590:.\Generated_Source\PSoC4/UART_1_UART.c ****         tmpStatus = (UART_1_GetRxInterruptSource() & UART_1_INTR_RX_ERR);
ARM GAS  C:\Users\Petro\AppData\Local\Temp\ccMxjuYg.s 			page 17


 321              		.loc 1 590 0
 322 0014 054A     		ldr	r2, .L25+4
 323 0016 1368     		ldr	r3, [r2]
 324 0018 D821     		mov	r1, #216
 325 001a 8900     		lsl	r1, r1, #2
 326 001c 0B40     		and	r3, r1
 327              	.LVL21:
 591:.\Generated_Source\PSoC4/UART_1_UART.c ****         UART_1_ClearRxInterruptSource(UART_1_INTR_RX_ERR);
 328              		.loc 1 591 0
 329 001e 1160     		str	r1, [r2]
 592:.\Generated_Source\PSoC4/UART_1_UART.c **** 
 593:.\Generated_Source\PSoC4/UART_1_UART.c ****         /* Puts together data and error status:
 594:.\Generated_Source\PSoC4/UART_1_UART.c ****         * MP mode and accept address: 9th bit is set to notify mark.
 595:.\Generated_Source\PSoC4/UART_1_UART.c ****         */
 596:.\Generated_Source\PSoC4/UART_1_UART.c ****         rxData |= ((uint32) (tmpStatus << 8u));
 330              		.loc 1 596 0
 331 0020 1B02     		lsl	r3, r3, #8
 332              	.LVL22:
 333 0022 1843     		orr	r0, r3
 334              	.LVL23:
 597:.\Generated_Source\PSoC4/UART_1_UART.c **** 
 598:.\Generated_Source\PSoC4/UART_1_UART.c ****         return (rxData);
 599:.\Generated_Source\PSoC4/UART_1_UART.c ****     }
 335              		.loc 1 599 0
 336              		@ sp needed
 337 0024 08BD     		pop	{r3, pc}
 338              	.L26:
 339 0026 C046     		.align	2
 340              	.L25:
 341 0028 40030640 		.word	1074135872
 342 002c C00F0640 		.word	1074139072
 343              		.cfi_endproc
 344              	.LFE6:
 345              		.size	UART_1_UartGetByte, .-UART_1_UartGetByte
 346              		.section	.text.UART_1_UartPutString,"ax",%progbits
 347              		.align	2
 348              		.global	UART_1_UartPutString
 349              		.code	16
 350              		.thumb_func
 351              		.type	UART_1_UartPutString, %function
 352              	UART_1_UartPutString:
 353              	.LFB7:
 600:.\Generated_Source\PSoC4/UART_1_UART.c **** 
 601:.\Generated_Source\PSoC4/UART_1_UART.c **** 
 602:.\Generated_Source\PSoC4/UART_1_UART.c ****     #if !(UART_1_CY_SCBIP_V0 || UART_1_CY_SCBIP_V1)
 603:.\Generated_Source\PSoC4/UART_1_UART.c ****         /*******************************************************************************
 604:.\Generated_Source\PSoC4/UART_1_UART.c ****         * Function Name: UART_1_UartSetRtsPolarity
 605:.\Generated_Source\PSoC4/UART_1_UART.c ****         ********************************************************************************
 606:.\Generated_Source\PSoC4/UART_1_UART.c ****         *
 607:.\Generated_Source\PSoC4/UART_1_UART.c ****         * Summary:
 608:.\Generated_Source\PSoC4/UART_1_UART.c ****         *  Sets active polarity of RTS output signal.
 609:.\Generated_Source\PSoC4/UART_1_UART.c ****         *
 610:.\Generated_Source\PSoC4/UART_1_UART.c ****         * Parameters:
 611:.\Generated_Source\PSoC4/UART_1_UART.c ****         *  polarity: Active polarity of RTS output signal.
 612:.\Generated_Source\PSoC4/UART_1_UART.c ****         *   UART_1_UART_RTS_ACTIVE_LOW  - RTS signal is active low.
 613:.\Generated_Source\PSoC4/UART_1_UART.c ****         *   UART_1_UART_RTS_ACTIVE_HIGH - RTS signal is active high.
 614:.\Generated_Source\PSoC4/UART_1_UART.c ****         *
ARM GAS  C:\Users\Petro\AppData\Local\Temp\ccMxjuYg.s 			page 18


 615:.\Generated_Source\PSoC4/UART_1_UART.c ****         * Return:
 616:.\Generated_Source\PSoC4/UART_1_UART.c ****         *  None
 617:.\Generated_Source\PSoC4/UART_1_UART.c ****         *
 618:.\Generated_Source\PSoC4/UART_1_UART.c ****         *******************************************************************************/
 619:.\Generated_Source\PSoC4/UART_1_UART.c ****         void UART_1_UartSetRtsPolarity(uint32 polarity)
 620:.\Generated_Source\PSoC4/UART_1_UART.c ****         {
 621:.\Generated_Source\PSoC4/UART_1_UART.c ****             if(0u != polarity)
 622:.\Generated_Source\PSoC4/UART_1_UART.c ****             {
 623:.\Generated_Source\PSoC4/UART_1_UART.c ****                 UART_1_UART_FLOW_CTRL_REG |= (uint32)  UART_1_UART_FLOW_CTRL_RTS_POLARITY;
 624:.\Generated_Source\PSoC4/UART_1_UART.c ****             }
 625:.\Generated_Source\PSoC4/UART_1_UART.c ****             else
 626:.\Generated_Source\PSoC4/UART_1_UART.c ****             {
 627:.\Generated_Source\PSoC4/UART_1_UART.c ****                 UART_1_UART_FLOW_CTRL_REG &= (uint32) ~UART_1_UART_FLOW_CTRL_RTS_POLARITY;
 628:.\Generated_Source\PSoC4/UART_1_UART.c ****             }
 629:.\Generated_Source\PSoC4/UART_1_UART.c ****         }
 630:.\Generated_Source\PSoC4/UART_1_UART.c **** 
 631:.\Generated_Source\PSoC4/UART_1_UART.c **** 
 632:.\Generated_Source\PSoC4/UART_1_UART.c ****         /*******************************************************************************
 633:.\Generated_Source\PSoC4/UART_1_UART.c ****         * Function Name: UART_1_UartSetRtsFifoLevel
 634:.\Generated_Source\PSoC4/UART_1_UART.c ****         ********************************************************************************
 635:.\Generated_Source\PSoC4/UART_1_UART.c ****         *
 636:.\Generated_Source\PSoC4/UART_1_UART.c ****         * Summary:
 637:.\Generated_Source\PSoC4/UART_1_UART.c ****         *  Sets level in the RX FIFO for RTS signal activation.
 638:.\Generated_Source\PSoC4/UART_1_UART.c ****         *  While the RX FIFO has fewer entries than the RX FIFO level the RTS signal
 639:.\Generated_Source\PSoC4/UART_1_UART.c ****         *  remains active, otherwise the RTS signal becomes inactive.
 640:.\Generated_Source\PSoC4/UART_1_UART.c ****         *
 641:.\Generated_Source\PSoC4/UART_1_UART.c ****         * Parameters:
 642:.\Generated_Source\PSoC4/UART_1_UART.c ****         *  level: Level in the RX FIFO for RTS signal activation.
 643:.\Generated_Source\PSoC4/UART_1_UART.c ****         *         The range of valid level values is between 0 and RX FIFO depth - 1.
 644:.\Generated_Source\PSoC4/UART_1_UART.c ****         *         Setting level value to 0 disables RTS signal activation.
 645:.\Generated_Source\PSoC4/UART_1_UART.c ****         *
 646:.\Generated_Source\PSoC4/UART_1_UART.c ****         * Return:
 647:.\Generated_Source\PSoC4/UART_1_UART.c ****         *  None
 648:.\Generated_Source\PSoC4/UART_1_UART.c ****         *
 649:.\Generated_Source\PSoC4/UART_1_UART.c ****         *******************************************************************************/
 650:.\Generated_Source\PSoC4/UART_1_UART.c ****         void UART_1_UartSetRtsFifoLevel(uint32 level)
 651:.\Generated_Source\PSoC4/UART_1_UART.c ****         {
 652:.\Generated_Source\PSoC4/UART_1_UART.c ****             uint32 uartFlowCtrl;
 653:.\Generated_Source\PSoC4/UART_1_UART.c **** 
 654:.\Generated_Source\PSoC4/UART_1_UART.c ****             uartFlowCtrl = UART_1_UART_FLOW_CTRL_REG;
 655:.\Generated_Source\PSoC4/UART_1_UART.c **** 
 656:.\Generated_Source\PSoC4/UART_1_UART.c ****             uartFlowCtrl &= ((uint32) ~UART_1_UART_FLOW_CTRL_TRIGGER_LEVEL_MASK); /* Clear level ma
 657:.\Generated_Source\PSoC4/UART_1_UART.c ****             uartFlowCtrl |= ((uint32) (UART_1_UART_FLOW_CTRL_TRIGGER_LEVEL_MASK & level));
 658:.\Generated_Source\PSoC4/UART_1_UART.c **** 
 659:.\Generated_Source\PSoC4/UART_1_UART.c ****             UART_1_UART_FLOW_CTRL_REG = uartFlowCtrl;
 660:.\Generated_Source\PSoC4/UART_1_UART.c ****         }
 661:.\Generated_Source\PSoC4/UART_1_UART.c ****     #endif /* !(UART_1_CY_SCBIP_V0 || UART_1_CY_SCBIP_V1) */
 662:.\Generated_Source\PSoC4/UART_1_UART.c **** 
 663:.\Generated_Source\PSoC4/UART_1_UART.c **** #endif /* (UART_1_UART_RX_DIRECTION) */
 664:.\Generated_Source\PSoC4/UART_1_UART.c **** 
 665:.\Generated_Source\PSoC4/UART_1_UART.c **** 
 666:.\Generated_Source\PSoC4/UART_1_UART.c **** #if(UART_1_UART_TX_DIRECTION)
 667:.\Generated_Source\PSoC4/UART_1_UART.c ****     /*******************************************************************************
 668:.\Generated_Source\PSoC4/UART_1_UART.c ****     * Function Name: UART_1_UartPutString
 669:.\Generated_Source\PSoC4/UART_1_UART.c ****     ********************************************************************************
 670:.\Generated_Source\PSoC4/UART_1_UART.c ****     *
 671:.\Generated_Source\PSoC4/UART_1_UART.c ****     * Summary:
ARM GAS  C:\Users\Petro\AppData\Local\Temp\ccMxjuYg.s 			page 19


 672:.\Generated_Source\PSoC4/UART_1_UART.c ****     *  Places a NULL terminated string in the transmit buffer to be sent at the
 673:.\Generated_Source\PSoC4/UART_1_UART.c ****     *  next available bus time.
 674:.\Generated_Source\PSoC4/UART_1_UART.c ****     *  This function is blocking and waits until there is space available to put
 675:.\Generated_Source\PSoC4/UART_1_UART.c ****     *  all the requested data into the  transmit buffer.
 676:.\Generated_Source\PSoC4/UART_1_UART.c ****     *
 677:.\Generated_Source\PSoC4/UART_1_UART.c ****     * Parameters:
 678:.\Generated_Source\PSoC4/UART_1_UART.c ****     *  string: pointer to the null terminated string array to be placed in the
 679:.\Generated_Source\PSoC4/UART_1_UART.c ****     *          transmit buffer.
 680:.\Generated_Source\PSoC4/UART_1_UART.c ****     *
 681:.\Generated_Source\PSoC4/UART_1_UART.c ****     * Return:
 682:.\Generated_Source\PSoC4/UART_1_UART.c ****     *  None
 683:.\Generated_Source\PSoC4/UART_1_UART.c ****     *
 684:.\Generated_Source\PSoC4/UART_1_UART.c ****     *******************************************************************************/
 685:.\Generated_Source\PSoC4/UART_1_UART.c ****     void UART_1_UartPutString(const char8 string[])
 686:.\Generated_Source\PSoC4/UART_1_UART.c ****     {
 354              		.loc 1 686 0
 355              		.cfi_startproc
 356              	.LVL24:
 357 0000 38B5     		push	{r3, r4, r5, lr}
 358              		.cfi_def_cfa_offset 16
 359              		.cfi_offset 3, -16
 360              		.cfi_offset 4, -12
 361              		.cfi_offset 5, -8
 362              		.cfi_offset 14, -4
 363 0002 051C     		mov	r5, r0
 364              	.LVL25:
 687:.\Generated_Source\PSoC4/UART_1_UART.c ****         uint32 bufIndex;
 688:.\Generated_Source\PSoC4/UART_1_UART.c **** 
 689:.\Generated_Source\PSoC4/UART_1_UART.c ****         bufIndex = 0u;
 365              		.loc 1 689 0
 366 0004 0024     		mov	r4, #0
 690:.\Generated_Source\PSoC4/UART_1_UART.c **** 
 691:.\Generated_Source\PSoC4/UART_1_UART.c ****         /* Blocks the control flow until all data has been sent */
 692:.\Generated_Source\PSoC4/UART_1_UART.c ****         while(string[bufIndex] != ((char8) 0))
 367              		.loc 1 692 0
 368 0006 02E0     		b	.L28
 369              	.LVL26:
 370              	.L29:
 693:.\Generated_Source\PSoC4/UART_1_UART.c ****         {
 694:.\Generated_Source\PSoC4/UART_1_UART.c ****             UART_1_UartPutChar((uint32) string[bufIndex]);
 371              		.loc 1 694 0
 372 0008 FFF7FEFF 		bl	UART_1_SpiUartWriteTxData
 373              	.LVL27:
 695:.\Generated_Source\PSoC4/UART_1_UART.c ****             bufIndex++;
 374              		.loc 1 695 0
 375 000c 0134     		add	r4, r4, #1
 376              	.LVL28:
 377              	.L28:
 692:.\Generated_Source\PSoC4/UART_1_UART.c ****         {
 378              		.loc 1 692 0
 379 000e 285D     		ldrb	r0, [r5, r4]
 380 0010 0028     		cmp	r0, #0
 381 0012 F9D1     		bne	.L29
 696:.\Generated_Source\PSoC4/UART_1_UART.c ****         }
 697:.\Generated_Source\PSoC4/UART_1_UART.c ****     }
 382              		.loc 1 697 0
 383              		@ sp needed
ARM GAS  C:\Users\Petro\AppData\Local\Temp\ccMxjuYg.s 			page 20


 384              	.LVL29:
 385              	.LVL30:
 386 0014 38BD     		pop	{r3, r4, r5, pc}
 387              		.cfi_endproc
 388              	.LFE7:
 389              		.size	UART_1_UartPutString, .-UART_1_UartPutString
 390 0016 C046     		.section	.text.UART_1_UartPutCRLF,"ax",%progbits
 391              		.align	2
 392              		.global	UART_1_UartPutCRLF
 393              		.code	16
 394              		.thumb_func
 395              		.type	UART_1_UartPutCRLF, %function
 396              	UART_1_UartPutCRLF:
 397              	.LFB8:
 698:.\Generated_Source\PSoC4/UART_1_UART.c **** 
 699:.\Generated_Source\PSoC4/UART_1_UART.c **** 
 700:.\Generated_Source\PSoC4/UART_1_UART.c ****     /*******************************************************************************
 701:.\Generated_Source\PSoC4/UART_1_UART.c ****     * Function Name: UART_1_UartPutCRLF
 702:.\Generated_Source\PSoC4/UART_1_UART.c ****     ********************************************************************************
 703:.\Generated_Source\PSoC4/UART_1_UART.c ****     *
 704:.\Generated_Source\PSoC4/UART_1_UART.c ****     * Summary:
 705:.\Generated_Source\PSoC4/UART_1_UART.c ****     *  Places a byte of data followed by a carriage return (0x0D) and
 706:.\Generated_Source\PSoC4/UART_1_UART.c ****     *  line feed (0x0A) into the transmit buffer.
 707:.\Generated_Source\PSoC4/UART_1_UART.c ****     *  This function is blocking and waits until there is space available to put
 708:.\Generated_Source\PSoC4/UART_1_UART.c ****     *  all the requested data into the  transmit buffer.
 709:.\Generated_Source\PSoC4/UART_1_UART.c ****     *
 710:.\Generated_Source\PSoC4/UART_1_UART.c ****     * Parameters:
 711:.\Generated_Source\PSoC4/UART_1_UART.c ****     *  txDataByte : the data to be transmitted.
 712:.\Generated_Source\PSoC4/UART_1_UART.c ****     *
 713:.\Generated_Source\PSoC4/UART_1_UART.c ****     * Return:
 714:.\Generated_Source\PSoC4/UART_1_UART.c ****     *  None
 715:.\Generated_Source\PSoC4/UART_1_UART.c ****     *
 716:.\Generated_Source\PSoC4/UART_1_UART.c ****     *******************************************************************************/
 717:.\Generated_Source\PSoC4/UART_1_UART.c ****     void UART_1_UartPutCRLF(uint32 txDataByte)
 718:.\Generated_Source\PSoC4/UART_1_UART.c ****     {
 398              		.loc 1 718 0
 399              		.cfi_startproc
 400              	.LVL31:
 401 0000 08B5     		push	{r3, lr}
 402              		.cfi_def_cfa_offset 8
 403              		.cfi_offset 3, -8
 404              		.cfi_offset 14, -4
 719:.\Generated_Source\PSoC4/UART_1_UART.c ****         UART_1_UartPutChar(txDataByte);  /* Blocks control flow until all data has been sent */
 405              		.loc 1 719 0
 406 0002 FFF7FEFF 		bl	UART_1_SpiUartWriteTxData
 407              	.LVL32:
 720:.\Generated_Source\PSoC4/UART_1_UART.c ****         UART_1_UartPutChar(0x0Du);       /* Blocks control flow until all data has been sent */
 408              		.loc 1 720 0
 409 0006 0D20     		mov	r0, #13
 410 0008 FFF7FEFF 		bl	UART_1_SpiUartWriteTxData
 411              	.LVL33:
 721:.\Generated_Source\PSoC4/UART_1_UART.c ****         UART_1_UartPutChar(0x0Au);       /* Blocks control flow until all data has been sent */
 412              		.loc 1 721 0
 413 000c 0A20     		mov	r0, #10
 414 000e FFF7FEFF 		bl	UART_1_SpiUartWriteTxData
 415              	.LVL34:
 722:.\Generated_Source\PSoC4/UART_1_UART.c ****     }
ARM GAS  C:\Users\Petro\AppData\Local\Temp\ccMxjuYg.s 			page 21


 416              		.loc 1 722 0
 417              		@ sp needed
 418 0012 08BD     		pop	{r3, pc}
 419              		.cfi_endproc
 420              	.LFE8:
 421              		.size	UART_1_UartPutCRLF, .-UART_1_UartPutCRLF
 422              		.text
 423              	.Letext0:
 424              		.file 2 "Generated_Source\\PSoC4/cytypes.h"
 425              		.file 3 ".\\Generated_Source\\PSoC4\\UART_1_SPI_UART.h"