ARM GAS  C:\Users\Petro\AppData\Local\Temp\cc4k19PF.s 			page 1


   1              		.cpu cortex-m0
   2              		.fpu softvfp
   3              		.eabi_attribute 20, 1
   4              		.eabi_attribute 21, 1
   5              		.eabi_attribute 23, 3
   6              		.eabi_attribute 24, 1
   7              		.eabi_attribute 25, 1
   8              		.eabi_attribute 26, 1
   9              		.eabi_attribute 30, 6
  10              		.eabi_attribute 34, 0
  11              		.eabi_attribute 18, 4
  12              		.code	16
  13              		.file	"bluetooth.c"
  14              		.text
  15              	.Ltext0:
  16              		.cfi_sections	.debug_frame
  17              		.section	.text.RTC_GetSecond,"ax",%progbits
  18              		.align	2
  19              		.code	16
  20              		.thumb_func
  21              		.type	RTC_GetSecond, %function
  22              	RTC_GetSecond:
  23              	.LFB4:
  24              		.file 1 "Generated_Source\\PSoC4/RTC.h"
   1:Generated_Source\PSoC4/RTC.h **** /***************************************************************************//**
   2:Generated_Source\PSoC4/RTC.h **** * \file Name: RTC.h
   3:Generated_Source\PSoC4/RTC.h **** * \version 1.10
   4:Generated_Source\PSoC4/RTC.h **** *
   5:Generated_Source\PSoC4/RTC.h **** * \brief
   6:Generated_Source\PSoC4/RTC.h **** *  This file provides constants and parameter values for the RTC_P4 Component.
   7:Generated_Source\PSoC4/RTC.h **** *
   8:Generated_Source\PSoC4/RTC.h **** ********************************************************************************
   9:Generated_Source\PSoC4/RTC.h **** * Copyright 2015-2016, Cypress Semiconductor Corporation.  All rights reserved.
  10:Generated_Source\PSoC4/RTC.h **** * You may use this file only in accordance with the license, terms, conditions,
  11:Generated_Source\PSoC4/RTC.h **** * disclaimers, and limitations in the end user license agreement accompanying
  12:Generated_Source\PSoC4/RTC.h **** * the software package with which this file was provided.
  13:Generated_Source\PSoC4/RTC.h **** *******************************************************************************/
  14:Generated_Source\PSoC4/RTC.h **** 
  15:Generated_Source\PSoC4/RTC.h **** #if !defined(CY_RTC_P4_RTC_H)
  16:Generated_Source\PSoC4/RTC.h **** #define CY_RTC_P4_RTC_H
  17:Generated_Source\PSoC4/RTC.h **** 
  18:Generated_Source\PSoC4/RTC.h **** #include <cytypes.h>
  19:Generated_Source\PSoC4/RTC.h **** #include <CyLib.h>
  20:Generated_Source\PSoC4/RTC.h **** 
  21:Generated_Source\PSoC4/RTC.h **** 
  22:Generated_Source\PSoC4/RTC.h **** /*******************************************************************************
  23:Generated_Source\PSoC4/RTC.h **** *    Data types definition
  24:Generated_Source\PSoC4/RTC.h **** *******************************************************************************/
  25:Generated_Source\PSoC4/RTC.h **** 
  26:Generated_Source\PSoC4/RTC.h **** typedef enum
  27:Generated_Source\PSoC4/RTC.h **** {
  28:Generated_Source\PSoC4/RTC.h ****     RTC_DST_DATE_RELATIVE = 0u,
  29:Generated_Source\PSoC4/RTC.h ****     RTC_DST_DATE_FIXED = 1u
  30:Generated_Source\PSoC4/RTC.h **** }RTC_DST_DATETYPE_ENUM;
  31:Generated_Source\PSoC4/RTC.h **** 
  32:Generated_Source\PSoC4/RTC.h **** /**
  33:Generated_Source\PSoC4/RTC.h **** * \addtogroup group_structures
ARM GAS  C:\Users\Petro\AppData\Local\Temp\cc4k19PF.s 			page 2


  34:Generated_Source\PSoC4/RTC.h **** * @{
  35:Generated_Source\PSoC4/RTC.h **** */
  36:Generated_Source\PSoC4/RTC.h **** 
  37:Generated_Source\PSoC4/RTC.h **** /**
  38:Generated_Source\PSoC4/RTC.h **** * This is the data structure that is used to save the current time and date 
  39:Generated_Source\PSoC4/RTC.h **** * (RTC_currentTimeDate), and Alarm time and date (RTC_alarmCfgTimeDate).
  40:Generated_Source\PSoC4/RTC.h **** */
  41:Generated_Source\PSoC4/RTC.h **** typedef struct
  42:Generated_Source\PSoC4/RTC.h **** {
  43:Generated_Source\PSoC4/RTC.h ****     uint32 time;
  44:Generated_Source\PSoC4/RTC.h ****     uint32 date;
  45:Generated_Source\PSoC4/RTC.h ****     uint32 dayOfWeek;
  46:Generated_Source\PSoC4/RTC.h ****     uint32 status;
  47:Generated_Source\PSoC4/RTC.h **** }RTC_DATE_TIME;
  48:Generated_Source\PSoC4/RTC.h **** 
  49:Generated_Source\PSoC4/RTC.h **** /**
  50:Generated_Source\PSoC4/RTC.h **** * This is the data structure that is used to save time and date values for 
  51:Generated_Source\PSoC4/RTC.h **** * Daylight Savings Time Start and Stop (RTC_dstTimeDateStart and 
  52:Generated_Source\PSoC4/RTC.h **** * RTC_dstTimeDateStop).
  53:Generated_Source\PSoC4/RTC.h **** */
  54:Generated_Source\PSoC4/RTC.h **** typedef struct
  55:Generated_Source\PSoC4/RTC.h **** {
  56:Generated_Source\PSoC4/RTC.h ****     uint32 hour;
  57:Generated_Source\PSoC4/RTC.h ****     uint32 dayOfWeek;
  58:Generated_Source\PSoC4/RTC.h ****     uint32 dayOfMonth;
  59:Generated_Source\PSoC4/RTC.h ****     uint32 weekOfMonth;
  60:Generated_Source\PSoC4/RTC.h ****     uint32 month;
  61:Generated_Source\PSoC4/RTC.h ****     uint8  timeFormat;
  62:Generated_Source\PSoC4/RTC.h **** }RTC_DST_TIME;
  63:Generated_Source\PSoC4/RTC.h **** 
  64:Generated_Source\PSoC4/RTC.h **** /** @} structures */
  65:Generated_Source\PSoC4/RTC.h **** 
  66:Generated_Source\PSoC4/RTC.h **** /*******************************************************************************
  67:Generated_Source\PSoC4/RTC.h **** *    Enumerated Types and Parameters
  68:Generated_Source\PSoC4/RTC.h **** *******************************************************************************/
  69:Generated_Source\PSoC4/RTC.h **** /* Time Format setting constants */
  70:Generated_Source\PSoC4/RTC.h **** #define RTC__HOUR_12 1
  71:Generated_Source\PSoC4/RTC.h **** #define RTC__HOUR_24 0
  72:Generated_Source\PSoC4/RTC.h **** 
  73:Generated_Source\PSoC4/RTC.h **** /*  Date Format setting constants */
  74:Generated_Source\PSoC4/RTC.h **** #define RTC__MM_DD_YYYY 0
  75:Generated_Source\PSoC4/RTC.h **** #define RTC__DD_MM_YYYY 1
  76:Generated_Source\PSoC4/RTC.h **** #define RTC__YYYY_MM_DD 2
  77:Generated_Source\PSoC4/RTC.h **** 
  78:Generated_Source\PSoC4/RTC.h **** /* Date Type setting constants */
  79:Generated_Source\PSoC4/RTC.h **** #define RTC__RELATIVE 0
  80:Generated_Source\PSoC4/RTC.h **** #define RTC__FIXED 1
  81:Generated_Source\PSoC4/RTC.h **** 
  82:Generated_Source\PSoC4/RTC.h **** /* DST Hour setting constants */
  83:Generated_Source\PSoC4/RTC.h **** #define RTC__H0000 0
  84:Generated_Source\PSoC4/RTC.h **** #define RTC__H0100 1
  85:Generated_Source\PSoC4/RTC.h **** #define RTC__H0200 2
  86:Generated_Source\PSoC4/RTC.h **** #define RTC__H0300 3
  87:Generated_Source\PSoC4/RTC.h **** #define RTC__H0400 4
  88:Generated_Source\PSoC4/RTC.h **** #define RTC__H0500 5
  89:Generated_Source\PSoC4/RTC.h **** #define RTC__H0600 6
  90:Generated_Source\PSoC4/RTC.h **** #define RTC__H0700 7
ARM GAS  C:\Users\Petro\AppData\Local\Temp\cc4k19PF.s 			page 3


  91:Generated_Source\PSoC4/RTC.h **** #define RTC__H0800 8
  92:Generated_Source\PSoC4/RTC.h **** #define RTC__H0900 9
  93:Generated_Source\PSoC4/RTC.h **** #define RTC__H1000 10
  94:Generated_Source\PSoC4/RTC.h **** #define RTC__H1100 11
  95:Generated_Source\PSoC4/RTC.h **** #define RTC__H1200 12
  96:Generated_Source\PSoC4/RTC.h **** #define RTC__H1300 13
  97:Generated_Source\PSoC4/RTC.h **** #define RTC__H1400 14
  98:Generated_Source\PSoC4/RTC.h **** #define RTC__H1500 15
  99:Generated_Source\PSoC4/RTC.h **** #define RTC__H1600 16
 100:Generated_Source\PSoC4/RTC.h **** #define RTC__H1700 17
 101:Generated_Source\PSoC4/RTC.h **** #define RTC__H1800 18
 102:Generated_Source\PSoC4/RTC.h **** #define RTC__H1900 19
 103:Generated_Source\PSoC4/RTC.h **** #define RTC__H2000 20
 104:Generated_Source\PSoC4/RTC.h **** #define RTC__H2100 21
 105:Generated_Source\PSoC4/RTC.h **** #define RTC__H2200 22
 106:Generated_Source\PSoC4/RTC.h **** #define RTC__H2300 23
 107:Generated_Source\PSoC4/RTC.h **** 
 108:Generated_Source\PSoC4/RTC.h **** /* DST DayOfWeek setting constants */
 109:Generated_Source\PSoC4/RTC.h **** #define RTC__SUNDAY 1
 110:Generated_Source\PSoC4/RTC.h **** #define RTC__MONDAY 2
 111:Generated_Source\PSoC4/RTC.h **** #define RTC__TUESDAY 3
 112:Generated_Source\PSoC4/RTC.h **** #define RTC__WEDNESDAY 4
 113:Generated_Source\PSoC4/RTC.h **** #define RTC__THURSDAY 5
 114:Generated_Source\PSoC4/RTC.h **** #define RTC__FRIDAY 6
 115:Generated_Source\PSoC4/RTC.h **** #define RTC__SATURDAY 7
 116:Generated_Source\PSoC4/RTC.h **** 
 117:Generated_Source\PSoC4/RTC.h **** /* DST Month setting constants */
 118:Generated_Source\PSoC4/RTC.h **** #define RTC__JAN 1
 119:Generated_Source\PSoC4/RTC.h **** #define RTC__FEB 2
 120:Generated_Source\PSoC4/RTC.h **** #define RTC__MAR 3
 121:Generated_Source\PSoC4/RTC.h **** #define RTC__APR 4
 122:Generated_Source\PSoC4/RTC.h **** #define RTC__MAY 5
 123:Generated_Source\PSoC4/RTC.h **** #define RTC__JUN 6
 124:Generated_Source\PSoC4/RTC.h **** #define RTC__JUL 7
 125:Generated_Source\PSoC4/RTC.h **** #define RTC__AUG 8
 126:Generated_Source\PSoC4/RTC.h **** #define RTC__SEP 9
 127:Generated_Source\PSoC4/RTC.h **** #define RTC__OCT 10
 128:Generated_Source\PSoC4/RTC.h **** #define RTC__NOV 11
 129:Generated_Source\PSoC4/RTC.h **** #define RTC__DEC 12
 130:Generated_Source\PSoC4/RTC.h **** 
 131:Generated_Source\PSoC4/RTC.h **** /* DST WeekOfMonth setting constants */
 132:Generated_Source\PSoC4/RTC.h **** #define RTC__FIRST 1
 133:Generated_Source\PSoC4/RTC.h **** #define RTC__SECOND 2
 134:Generated_Source\PSoC4/RTC.h **** #define RTC__THIRD 3
 135:Generated_Source\PSoC4/RTC.h **** #define RTC__FOURTH 4
 136:Generated_Source\PSoC4/RTC.h **** #define RTC__FIFTH 5
 137:Generated_Source\PSoC4/RTC.h **** #define RTC__LAST 6
 138:Generated_Source\PSoC4/RTC.h **** 
 139:Generated_Source\PSoC4/RTC.h **** 
 140:Generated_Source\PSoC4/RTC.h **** #define RTC_INITIAL_DATA_FORMAT     (0u)
 141:Generated_Source\PSoC4/RTC.h **** #define RTC_INITIAL_TIME_FORMAT     (0u)
 142:Generated_Source\PSoC4/RTC.h **** #define RTC_INITIAL_UPDATE_MODE     (0u)
 143:Generated_Source\PSoC4/RTC.h **** #define RTC_INITIAL_SECOND          (0u)
 144:Generated_Source\PSoC4/RTC.h **** #define RTC_INITIAL_MINUTE          (16u)
 145:Generated_Source\PSoC4/RTC.h **** #define RTC_INITIAL_HOUR            (10u)
 146:Generated_Source\PSoC4/RTC.h **** #define RTC_INITIAL_DAY             (9u)
 147:Generated_Source\PSoC4/RTC.h **** #define RTC_INITIAL_MONTH           (8u)
ARM GAS  C:\Users\Petro\AppData\Local\Temp\cc4k19PF.s 			page 4


 148:Generated_Source\PSoC4/RTC.h **** #define RTC_INITIAL_YEAR            (2016u)
 149:Generated_Source\PSoC4/RTC.h **** 
 150:Generated_Source\PSoC4/RTC.h **** #define RTC_INITIAL_ALARM_STATUS    (0u)
 151:Generated_Source\PSoC4/RTC.h **** 
 152:Generated_Source\PSoC4/RTC.h **** #define RTC_INITIAL_DST_STATUS      (0u)
 153:Generated_Source\PSoC4/RTC.h **** #define RTC_INITIAL_DST_DATE_TYPE   (0u)
 154:Generated_Source\PSoC4/RTC.h **** #define RTC_INITIAL_DST_START_MONTH (3uL)
 155:Generated_Source\PSoC4/RTC.h **** #define RTC_INITIAL_DST_START_WOM   (6uL)
 156:Generated_Source\PSoC4/RTC.h **** #define RTC_INITIAL_DST_START_DOM   (22uL)
 157:Generated_Source\PSoC4/RTC.h **** #define RTC_INITIAL_DST_START_DOW   (1uL)
 158:Generated_Source\PSoC4/RTC.h **** #define RTC_INITIAL_DST_START_HRS   (0uL)
 159:Generated_Source\PSoC4/RTC.h **** #define RTC_INITIAL_DST_STOP_MONTH  (10uL)
 160:Generated_Source\PSoC4/RTC.h **** #define RTC_INITIAL_DST_STOP_DOM    (22uL)
 161:Generated_Source\PSoC4/RTC.h **** #define RTC_INITIAL_DST_STOP_DOW    (1uL)
 162:Generated_Source\PSoC4/RTC.h **** #define RTC_INITIAL_DST_STOP_WOM    (6uL)
 163:Generated_Source\PSoC4/RTC.h **** #define RTC_INITIAL_DST_STOP_HRS    (0uL)
 164:Generated_Source\PSoC4/RTC.h **** 
 165:Generated_Source\PSoC4/RTC.h **** /* Day of week definitions */
 166:Generated_Source\PSoC4/RTC.h **** #define RTC_SUNDAY     (RTC__SUNDAY)
 167:Generated_Source\PSoC4/RTC.h **** #define RTC_MONDAY     (RTC__MONDAY)
 168:Generated_Source\PSoC4/RTC.h **** #define RTC_TUESDAY    (RTC__TUESDAY)
 169:Generated_Source\PSoC4/RTC.h **** #define RTC_WEDNESDAY  (RTC__WEDNESDAY)
 170:Generated_Source\PSoC4/RTC.h **** #define RTC_THURSDAY   (RTC__THURSDAY)
 171:Generated_Source\PSoC4/RTC.h **** #define RTC_FRIDAY     (RTC__FRIDAY)
 172:Generated_Source\PSoC4/RTC.h **** #define RTC_SATURDAY   (RTC__SATURDAY)
 173:Generated_Source\PSoC4/RTC.h **** 
 174:Generated_Source\PSoC4/RTC.h **** /* DST WeekOfMonth setting constants definitions */
 175:Generated_Source\PSoC4/RTC.h **** #define RTC_FIRST      (RTC__FIRST)
 176:Generated_Source\PSoC4/RTC.h **** #define RTC_SECOND     (RTC__SECOND)
 177:Generated_Source\PSoC4/RTC.h **** #define RTC_THIRD      (RTC__THIRD)
 178:Generated_Source\PSoC4/RTC.h **** #define RTC_FOURTH     (RTC__FOURTH)
 179:Generated_Source\PSoC4/RTC.h **** #define RTC_FIFTH      (RTC__FIFTH)
 180:Generated_Source\PSoC4/RTC.h **** #define RTC_LAST       (RTC__LAST)
 181:Generated_Source\PSoC4/RTC.h **** 
 182:Generated_Source\PSoC4/RTC.h **** /* Month definitions */
 183:Generated_Source\PSoC4/RTC.h **** #define RTC_JANUARY    (RTC__JAN)
 184:Generated_Source\PSoC4/RTC.h **** #define RTC_FEBRUARY   (RTC__FEB)
 185:Generated_Source\PSoC4/RTC.h **** #define RTC_MARCH      (RTC__MAR)
 186:Generated_Source\PSoC4/RTC.h **** #define RTC_APRIL      (RTC__APR)
 187:Generated_Source\PSoC4/RTC.h **** #define RTC_MAY        (RTC__MAY)
 188:Generated_Source\PSoC4/RTC.h **** #define RTC_JUNE       (RTC__JUN)
 189:Generated_Source\PSoC4/RTC.h **** #define RTC_JULY       (RTC__JUL)
 190:Generated_Source\PSoC4/RTC.h **** #define RTC_AUGUST     (RTC__AUG)
 191:Generated_Source\PSoC4/RTC.h **** #define RTC_SEPTEMBER  (RTC__SEP)
 192:Generated_Source\PSoC4/RTC.h **** #define RTC_OCTOBER    (RTC__OCT)
 193:Generated_Source\PSoC4/RTC.h **** #define RTC_NOVEMBER   (RTC__NOV)
 194:Generated_Source\PSoC4/RTC.h **** #define RTC_DECEMBER   (RTC__DEC)
 195:Generated_Source\PSoC4/RTC.h **** 
 196:Generated_Source\PSoC4/RTC.h **** #define RTC_DAYS_PER_WEEK       (7u)
 197:Generated_Source\PSoC4/RTC.h **** 
 198:Generated_Source\PSoC4/RTC.h **** /* Number of days in month definitions */
 199:Generated_Source\PSoC4/RTC.h **** #define RTC_DAYS_IN_JANUARY     (31u)
 200:Generated_Source\PSoC4/RTC.h **** #define RTC_DAYS_IN_FEBRUARY    (28u)
 201:Generated_Source\PSoC4/RTC.h **** #define RTC_DAYS_IN_MARCH       (31u)
 202:Generated_Source\PSoC4/RTC.h **** #define RTC_DAYS_IN_APRIL       (30u)
 203:Generated_Source\PSoC4/RTC.h **** #define RTC_DAYS_IN_MAY         (31u)
 204:Generated_Source\PSoC4/RTC.h **** #define RTC_DAYS_IN_JUNE        (30u)
ARM GAS  C:\Users\Petro\AppData\Local\Temp\cc4k19PF.s 			page 5


 205:Generated_Source\PSoC4/RTC.h **** #define RTC_DAYS_IN_JULY        (31u)
 206:Generated_Source\PSoC4/RTC.h **** #define RTC_DAYS_IN_AUGUST      (31u)
 207:Generated_Source\PSoC4/RTC.h **** #define RTC_DAYS_IN_SEPTEMBER   (30u)
 208:Generated_Source\PSoC4/RTC.h **** #define RTC_DAYS_IN_OCTOBER     (31u)
 209:Generated_Source\PSoC4/RTC.h **** #define RTC_DAYS_IN_NOVEMBER    (30u)
 210:Generated_Source\PSoC4/RTC.h **** #define RTC_DAYS_IN_DECEMBER    (31u)
 211:Generated_Source\PSoC4/RTC.h **** 
 212:Generated_Source\PSoC4/RTC.h **** #define RTC_MONTHS_PER_YEAR     (12uL)
 213:Generated_Source\PSoC4/RTC.h **** 
 214:Generated_Source\PSoC4/RTC.h **** #define RTC_HOURS_PER_DAY       (24uL)
 215:Generated_Source\PSoC4/RTC.h **** #define RTC_HOURS_PER_HALF_DAY  (12uL)
 216:Generated_Source\PSoC4/RTC.h **** 
 217:Generated_Source\PSoC4/RTC.h **** #define RTC_SECONDS_PER_MINUTE  (60uL)
 218:Generated_Source\PSoC4/RTC.h **** #define RTC_SECONDS_PER_HOUR    (3600uL)
 219:Generated_Source\PSoC4/RTC.h **** #define RTC_SECONDS_PER_DAY     (24uL * 3600uL)
 220:Generated_Source\PSoC4/RTC.h **** 
 221:Generated_Source\PSoC4/RTC.h **** #define RTC_SECONDS_PER_LEAP_YEAR    (366uL * 24uL * 3600uL)
 222:Generated_Source\PSoC4/RTC.h **** #define RTC_SECONDS_PER_NONLEAP_YEAR (365uL * 24uL * 3600uL)
 223:Generated_Source\PSoC4/RTC.h **** 
 224:Generated_Source\PSoC4/RTC.h **** #define RTC_UNIX_TIME_PM   ((12uL * 3600uL) + 1uL)
 225:Generated_Source\PSoC4/RTC.h **** 
 226:Generated_Source\PSoC4/RTC.h **** /* AM/PM status definitions */
 227:Generated_Source\PSoC4/RTC.h **** #define RTC_AM                 (0u)
 228:Generated_Source\PSoC4/RTC.h **** #define RTC_PM                 (1u)
 229:Generated_Source\PSoC4/RTC.h **** 
 230:Generated_Source\PSoC4/RTC.h **** /* Time format definitions */
 231:Generated_Source\PSoC4/RTC.h **** #define RTC_12_HOURS_FORMAT    (RTC__HOUR_12)
 232:Generated_Source\PSoC4/RTC.h **** #define RTC_24_HOURS_FORMAT    (RTC__HOUR_24)
 233:Generated_Source\PSoC4/RTC.h **** 
 234:Generated_Source\PSoC4/RTC.h **** /* UNIX time begins in 1970 year.  */
 235:Generated_Source\PSoC4/RTC.h **** #define RTC_YEAR_0             (1970u)
 236:Generated_Source\PSoC4/RTC.h **** 
 237:Generated_Source\PSoC4/RTC.h **** /* Definition of date register fields */
 238:Generated_Source\PSoC4/RTC.h **** #if(RTC_INITIAL_DATA_FORMAT == RTC__MM_DD_YYYY)
 239:Generated_Source\PSoC4/RTC.h ****     #define RTC_10_MONTH_OFFSET   (28u)
 240:Generated_Source\PSoC4/RTC.h ****     #define RTC_MONTH_OFFSET      (24u)
 241:Generated_Source\PSoC4/RTC.h ****     #define RTC_10_DAY_OFFSET     (20u)
 242:Generated_Source\PSoC4/RTC.h ****     #define RTC_DAY_OFFSET        (16u)
 243:Generated_Source\PSoC4/RTC.h ****     #define RTC_1000_YEAR_OFFSET  (12u)
 244:Generated_Source\PSoC4/RTC.h ****     #define RTC_100_YEAR_OFFSET   (8u)
 245:Generated_Source\PSoC4/RTC.h ****     #define RTC_10_YEAR_OFFSET    (4u)
 246:Generated_Source\PSoC4/RTC.h ****     #define RTC_YEAR_OFFSET       (0u)
 247:Generated_Source\PSoC4/RTC.h **** #elif(RTC_INITIAL_DATA_FORMAT == RTC__DD_MM_YYYY)
 248:Generated_Source\PSoC4/RTC.h ****     #define RTC_10_MONTH_OFFSET   (20u)
 249:Generated_Source\PSoC4/RTC.h ****     #define RTC_MONTH_OFFSET      (16u)
 250:Generated_Source\PSoC4/RTC.h ****     #define RTC_10_DAY_OFFSET     (28u)
 251:Generated_Source\PSoC4/RTC.h ****     #define RTC_DAY_OFFSET        (24u)
 252:Generated_Source\PSoC4/RTC.h ****     #define RTC_1000_YEAR_OFFSET  (12u)
 253:Generated_Source\PSoC4/RTC.h ****     #define RTC_100_YEAR_OFFSET   (8u)
 254:Generated_Source\PSoC4/RTC.h ****     #define RTC_10_YEAR_OFFSET    (4u)
 255:Generated_Source\PSoC4/RTC.h ****     #define RTC_YEAR_OFFSET       (0u)
 256:Generated_Source\PSoC4/RTC.h **** #else
 257:Generated_Source\PSoC4/RTC.h ****     #define RTC_10_MONTH_OFFSET   (12u)
 258:Generated_Source\PSoC4/RTC.h ****     #define RTC_MONTH_OFFSET      (8u)
 259:Generated_Source\PSoC4/RTC.h ****     #define RTC_10_DAY_OFFSET     (4u)
 260:Generated_Source\PSoC4/RTC.h ****     #define RTC_DAY_OFFSET        (0u)
 261:Generated_Source\PSoC4/RTC.h ****     #define RTC_1000_YEAR_OFFSET  (28u)
ARM GAS  C:\Users\Petro\AppData\Local\Temp\cc4k19PF.s 			page 6


 262:Generated_Source\PSoC4/RTC.h ****     #define RTC_100_YEAR_OFFSET   (24u)
 263:Generated_Source\PSoC4/RTC.h ****     #define RTC_10_YEAR_OFFSET    (20u)
 264:Generated_Source\PSoC4/RTC.h ****     #define RTC_YEAR_OFFSET       (16u)
 265:Generated_Source\PSoC4/RTC.h **** #endif /* (RTC_INITIAL_DATA_FORMAT == RTC__MM_DD_YYYY) */
 266:Generated_Source\PSoC4/RTC.h **** 
 267:Generated_Source\PSoC4/RTC.h **** #define RTC_10_MONTH_MASK          (0x00000001uL << RTC_10_MONTH_OFFSET)
 268:Generated_Source\PSoC4/RTC.h **** #define RTC_MONTH_MASK             (0x0000000FuL << RTC_MONTH_OFFSET)
 269:Generated_Source\PSoC4/RTC.h **** #define RTC_10_DAY_MASK            (0x00000003uL << RTC_10_DAY_OFFSET)
 270:Generated_Source\PSoC4/RTC.h **** #define RTC_DAY_MASK               (0x0000000FuL << RTC_DAY_OFFSET)
 271:Generated_Source\PSoC4/RTC.h **** #define RTC_1000_YEAR_MASK         (0x00000003uL << RTC_1000_YEAR_OFFSET)
 272:Generated_Source\PSoC4/RTC.h **** #define RTC_100_YEAR_MASK          (0x0000000FuL << RTC_100_YEAR_OFFSET)
 273:Generated_Source\PSoC4/RTC.h **** #define RTC_10_YEAR_MASK           (0x0000000FuL << RTC_10_YEAR_OFFSET)
 274:Generated_Source\PSoC4/RTC.h **** #define RTC_YEAR_MASK              (0x0000000FuL << RTC_YEAR_OFFSET)
 275:Generated_Source\PSoC4/RTC.h **** 
 276:Generated_Source\PSoC4/RTC.h **** #define  RTC_MONTH_FULL_MASK       (RTC_10_MONTH_MASK  | RTC_MONTH_MASK)
 277:Generated_Source\PSoC4/RTC.h **** #define  RTC_DAY_FULL_MASK         (RTC_10_DAY_MASK    | RTC_DAY_MASK)
 278:Generated_Source\PSoC4/RTC.h **** #define  RTC_YEAR_FULL_MASK        (RTC_1000_YEAR_MASK | RTC_100_YEAR_MASK |\
 279:Generated_Source\PSoC4/RTC.h ****                                                  RTC_10_YEAR_MASK   | RTC_YEAR_MASK)
 280:Generated_Source\PSoC4/RTC.h **** 
 281:Generated_Source\PSoC4/RTC.h **** 
 282:Generated_Source\PSoC4/RTC.h **** /* Definition of time register fields */
 283:Generated_Source\PSoC4/RTC.h **** #define RTC_TIME_FORMAT_OFFSET     (23u)
 284:Generated_Source\PSoC4/RTC.h **** #define RTC_PERIOD_OF_DAY_OFFSET   (22u)
 285:Generated_Source\PSoC4/RTC.h **** #define RTC_10_HOURS_OFFSET        (20u)
 286:Generated_Source\PSoC4/RTC.h **** #define RTC_HOURS_OFFSET           (16u)
 287:Generated_Source\PSoC4/RTC.h **** #define RTC_10_MINUTES_OFFSET      (12u)
 288:Generated_Source\PSoC4/RTC.h **** #define RTC_MINUTES_OFFSET         (8u)
 289:Generated_Source\PSoC4/RTC.h **** #define RTC_10_SECONDS_OFFSET      (4u)
 290:Generated_Source\PSoC4/RTC.h **** #define RTC_SECONDS_OFFSET         (0u)
 291:Generated_Source\PSoC4/RTC.h **** 
 292:Generated_Source\PSoC4/RTC.h **** #define RTC_TIME_FORMAT_MASK       (0x00000001uL << RTC_TIME_FORMAT_OFFSET)
 293:Generated_Source\PSoC4/RTC.h **** #define RTC_PERIOD_OF_DAY_MASK     (0x00000001uL << RTC_PERIOD_OF_DAY_OFFSET)
 294:Generated_Source\PSoC4/RTC.h **** #define RTC_10_HOURS_MASK          (0x00000003uL << RTC_10_HOURS_OFFSET)
 295:Generated_Source\PSoC4/RTC.h **** #define RTC_HOURS_MASK             (0x0000000FuL << RTC_HOURS_OFFSET)
 296:Generated_Source\PSoC4/RTC.h **** #define RTC_10_MINUTES_MASK        (0x00000007uL << RTC_10_MINUTES_OFFSET)
 297:Generated_Source\PSoC4/RTC.h **** #define RTC_MINUTES_MASK           (0x0000000FuL << RTC_MINUTES_OFFSET)
 298:Generated_Source\PSoC4/RTC.h **** #define RTC_10_SECONDS_MASK        (0x00000007uL << RTC_10_SECONDS_OFFSET)
 299:Generated_Source\PSoC4/RTC.h **** #define RTC_SECONDS_MASK           (0x0000000FuL << RTC_SECONDS_OFFSET)
 300:Generated_Source\PSoC4/RTC.h **** 
 301:Generated_Source\PSoC4/RTC.h **** #define RTC_HOURS_FULL_MASK        (RTC_10_HOURS_MASK   | RTC_HOURS_MASK)
 302:Generated_Source\PSoC4/RTC.h **** #define RTC_MINUTES_FULL_MASK      (RTC_10_MINUTES_MASK | RTC_MINUTES_MASK)
 303:Generated_Source\PSoC4/RTC.h **** #define RTC_SECONDS_FULL_MASK      (RTC_10_SECONDS_MASK | RTC_SECONDS_MASK)
 304:Generated_Source\PSoC4/RTC.h **** 
 305:Generated_Source\PSoC4/RTC.h **** #define RTC_ALARM_SEC_MASK         (0x00000001uL)
 306:Generated_Source\PSoC4/RTC.h **** #define RTC_ALARM_MIN_MASK         (0x00000002uL)
 307:Generated_Source\PSoC4/RTC.h **** #define RTC_ALARM_HOUR_MASK        (0x00000004uL)
 308:Generated_Source\PSoC4/RTC.h **** #define RTC_ALARM_DAYOFWEEK_MASK   (0x00000008uL)
 309:Generated_Source\PSoC4/RTC.h **** #define RTC_ALARM_DAYOFMONTH_MASK  (0x00000010uL)
 310:Generated_Source\PSoC4/RTC.h **** #define RTC_ALARM_MONTH_MASK       (0x00000020uL)
 311:Generated_Source\PSoC4/RTC.h **** #define RTC_ALARM_YEAR_MASK        (0x00000040uL)
 312:Generated_Source\PSoC4/RTC.h **** 
 313:Generated_Source\PSoC4/RTC.h **** #define RTC_STATUS_DST_OFFSET      (1u)
 314:Generated_Source\PSoC4/RTC.h **** #define RTC_STATUS_ALARM_OFFSET    (2u)
 315:Generated_Source\PSoC4/RTC.h **** #define RTC_STATUS_LY_OFFSET       (3u)
 316:Generated_Source\PSoC4/RTC.h **** #define RTC_STATUS_AM_PM_OFFSET    (4u)
 317:Generated_Source\PSoC4/RTC.h **** 
 318:Generated_Source\PSoC4/RTC.h **** /* Definition of the RTC status values. */
ARM GAS  C:\Users\Petro\AppData\Local\Temp\cc4k19PF.s 			page 7


 319:Generated_Source\PSoC4/RTC.h **** #define RTC_STATUS_DST             (1uL << RTC_STATUS_DST_OFFSET)
 320:Generated_Source\PSoC4/RTC.h **** #define RTC_STATUS_LY              (1uL << RTC_STATUS_LY_OFFSET)
 321:Generated_Source\PSoC4/RTC.h **** #define RTC_STATUS_AM_PM           (1uL << RTC_STATUS_AM_PM_OFFSET)
 322:Generated_Source\PSoC4/RTC.h **** 
 323:Generated_Source\PSoC4/RTC.h **** /* Number of bits per one BCD digit. */
 324:Generated_Source\PSoC4/RTC.h **** #define RTC_BCD_NUMBER_SIZE        (4u)
 325:Generated_Source\PSoC4/RTC.h **** #define RTC_BCD_ONE_DIGIT_MASK     (0x0000000FuL)
 326:Generated_Source\PSoC4/RTC.h **** 
 327:Generated_Source\PSoC4/RTC.h **** /*******************************************************************************
 328:Generated_Source\PSoC4/RTC.h **** *    Function Prototypes
 329:Generated_Source\PSoC4/RTC.h **** *******************************************************************************/
 330:Generated_Source\PSoC4/RTC.h **** /**
 331:Generated_Source\PSoC4/RTC.h **** * \addtogroup group_api
 332:Generated_Source\PSoC4/RTC.h **** * @{
 333:Generated_Source\PSoC4/RTC.h **** */
 334:Generated_Source\PSoC4/RTC.h **** void   RTC_Start(void);
 335:Generated_Source\PSoC4/RTC.h **** void   RTC_Stop(void);
 336:Generated_Source\PSoC4/RTC.h **** void   RTC_Init(void);
 337:Generated_Source\PSoC4/RTC.h **** void   RTC_SetUnixTime(uint64 unixTime);
 338:Generated_Source\PSoC4/RTC.h **** uint64 RTC_GetUnixTime(void);
 339:Generated_Source\PSoC4/RTC.h **** void   RTC_SetPeriod(uint32 ticks, uint32 refOneSecTicks);
 340:Generated_Source\PSoC4/RTC.h **** uint32 RTC_GetPeriod(void);
 341:Generated_Source\PSoC4/RTC.h **** uint32 RTC_GetRefOneSec(void);
 342:Generated_Source\PSoC4/RTC.h **** void   RTC_SetDateAndTime(uint32 inputTime, uint32 inputDate);
 343:Generated_Source\PSoC4/RTC.h **** void   RTC_GetDateAndTime(RTC_DATE_TIME* dateTime);
 344:Generated_Source\PSoC4/RTC.h **** uint32 RTC_GetTime(void);
 345:Generated_Source\PSoC4/RTC.h **** uint32 RTC_GetDate(void);
 346:Generated_Source\PSoC4/RTC.h **** void   RTC_SetAlarmDateAndTime(const RTC_DATE_TIME* alarmTime);
 347:Generated_Source\PSoC4/RTC.h **** void   RTC_GetAlarmDateAndTime(RTC_DATE_TIME* alarmTimeDate);
 348:Generated_Source\PSoC4/RTC.h **** void   RTC_SetAlarmMask(uint32 mask);
 349:Generated_Source\PSoC4/RTC.h **** uint32 RTC_GetAlarmMask(void);
 350:Generated_Source\PSoC4/RTC.h **** uint32 RTC_ReadStatus(void);
 351:Generated_Source\PSoC4/RTC.h **** uint32 RTC_GetAlarmStatus(void);
 352:Generated_Source\PSoC4/RTC.h **** void   RTC_ClearAlarmStatus(void);
 353:Generated_Source\PSoC4/RTC.h **** void   RTC_SetDSTStartTime(const RTC_DST_TIME* dstStartTime,
 354:Generated_Source\PSoC4/RTC.h ****                                               RTC_DST_DATETYPE_ENUM type);
 355:Generated_Source\PSoC4/RTC.h **** void   RTC_SetDSTStopTime(const RTC_DST_TIME* dstStopTime,
 356:Generated_Source\PSoC4/RTC.h ****                                              RTC_DST_DATETYPE_ENUM type);
 357:Generated_Source\PSoC4/RTC.h **** uint32 RTC_ConvertBCDToDec(uint32 bcdNum);
 358:Generated_Source\PSoC4/RTC.h **** uint32 RTC_ConvertDecToBCD(uint32 decNum);
 359:Generated_Source\PSoC4/RTC.h **** void   RTC_Update(void);
 360:Generated_Source\PSoC4/RTC.h **** void*  RTC_SetAlarmHandler(void (*CallbackFunction)(void));
 361:Generated_Source\PSoC4/RTC.h **** 
 362:Generated_Source\PSoC4/RTC.h **** static uint32 RTC_ConstructDate(uint32 month, uint32 day, uint32 year);
 363:Generated_Source\PSoC4/RTC.h **** static uint32 RTC_ConstructTime(uint32 timeFormat, uint32 stateAmPm, uint32 hour, uint32 min, uint3
 364:Generated_Source\PSoC4/RTC.h **** /** @} api */
 365:Generated_Source\PSoC4/RTC.h **** 
 366:Generated_Source\PSoC4/RTC.h **** static uint32 RTC_GetTimeFormat(uint32 inputTime);
 367:Generated_Source\PSoC4/RTC.h **** static uint32 RTC_SetTimeFormat(uint32 inputTime, uint32 timeFormat);
 368:Generated_Source\PSoC4/RTC.h **** 
 369:Generated_Source\PSoC4/RTC.h **** /**
 370:Generated_Source\PSoC4/RTC.h **** * \addtogroup group_api
 371:Generated_Source\PSoC4/RTC.h **** * @{
 372:Generated_Source\PSoC4/RTC.h **** */
 373:Generated_Source\PSoC4/RTC.h **** static uint32 RTC_LeapYear(uint32 year);
 374:Generated_Source\PSoC4/RTC.h **** static uint32 RTC_IsBitSet(uint32 var, uint32 mask);
 375:Generated_Source\PSoC4/RTC.h **** static uint32 RTC_GetSecond(uint32 inputTime);
ARM GAS  C:\Users\Petro\AppData\Local\Temp\cc4k19PF.s 			page 8


 376:Generated_Source\PSoC4/RTC.h **** static uint32 RTC_GetMinutes(uint32 inputTime);
 377:Generated_Source\PSoC4/RTC.h **** static uint32 RTC_GetHours(uint32 inputTime);
 378:Generated_Source\PSoC4/RTC.h **** static uint32 RTC_GetAmPm(uint32 inputTime);
 379:Generated_Source\PSoC4/RTC.h **** static uint32 RTC_GetDay(uint32 date);
 380:Generated_Source\PSoC4/RTC.h **** static uint32 RTC_GetMonth(uint32 date);
 381:Generated_Source\PSoC4/RTC.h **** static uint32 RTC_GetYear(uint32 date);
 382:Generated_Source\PSoC4/RTC.h **** /** @} api */
 383:Generated_Source\PSoC4/RTC.h **** 
 384:Generated_Source\PSoC4/RTC.h **** static uint32 RTC_SetSecond(uint32 inputTime, uint32 inputSecond);
 385:Generated_Source\PSoC4/RTC.h **** static uint32 RTC_SetMinutes(uint32 inputTime, uint32 inputMinute);
 386:Generated_Source\PSoC4/RTC.h **** static uint32 RTC_SetHours(uint32 inputTime, uint32 inputHours);
 387:Generated_Source\PSoC4/RTC.h **** static uint32 RTC_SetAmPm(uint32 inputTime, uint32 periodOfDay);
 388:Generated_Source\PSoC4/RTC.h **** static uint32 RTC_SetDay(uint32 inputDate, uint32 inputDay);
 389:Generated_Source\PSoC4/RTC.h **** static uint32 RTC_SetMonth(uint32 inputDate, uint32 inputMonth);
 390:Generated_Source\PSoC4/RTC.h **** static uint32 RTC_SetYear(uint32 inputDate, uint32 inputYear);
 391:Generated_Source\PSoC4/RTC.h **** 
 392:Generated_Source\PSoC4/RTC.h **** uint64 RTC_ConstructUnixAlarmTime(const RTC_DATE_TIME* alarmTime, uint8 alarmCfgMask);
 393:Generated_Source\PSoC4/RTC.h **** uint64 RTC_GetDstUnixTime(const RTC_DST_TIME* dstTime);
 394:Generated_Source\PSoC4/RTC.h **** uint64 RTC_GetNexAlarmTime(uint64 curUnixTime, uint8 alarmCfgMask);
 395:Generated_Source\PSoC4/RTC.h **** 
 396:Generated_Source\PSoC4/RTC.h **** static uint32 RTC_GetNextMinSec(uint32 curVal);
 397:Generated_Source\PSoC4/RTC.h **** static uint32 RTC_GetNextHour(uint32 curVal);
 398:Generated_Source\PSoC4/RTC.h **** static uint32 RTC_GetNextDay(uint32 curYear, uint32 curMonth, uint32 curDay, uint32 alarmCfgMask);
 399:Generated_Source\PSoC4/RTC.h **** static uint32 RTC_GetNextMonth(uint32 curMonth);
 400:Generated_Source\PSoC4/RTC.h **** static uint32 RTC_GetNextYear(uint32 curYear);
 401:Generated_Source\PSoC4/RTC.h **** static uint32 RTC_GetDayOfWeek(uint32 day, uint32 month, uint32 year);
 402:Generated_Source\PSoC4/RTC.h **** 
 403:Generated_Source\PSoC4/RTC.h **** uint32 RTC_DaysInMonth(uint32 month, uint32 year);
 404:Generated_Source\PSoC4/RTC.h **** uint32 RTC_DaysBeforeMonth(uint32 month, uint32 year);
 405:Generated_Source\PSoC4/RTC.h **** 
 406:Generated_Source\PSoC4/RTC.h **** /**
 407:Generated_Source\PSoC4/RTC.h **** * \addtogroup group_api
 408:Generated_Source\PSoC4/RTC.h **** * @{
 409:Generated_Source\PSoC4/RTC.h **** */
 410:Generated_Source\PSoC4/RTC.h **** void   RTC_UnixToDateTime(RTC_DATE_TIME* dateTime, uint64 unixTime, uint32 timeFormat);
 411:Generated_Source\PSoC4/RTC.h **** uint64 RTC_DateTimeToUnix(uint32 inputDate, uint32 inputTime);
 412:Generated_Source\PSoC4/RTC.h **** /** @} api */
 413:Generated_Source\PSoC4/RTC.h **** 
 414:Generated_Source\PSoC4/RTC.h **** uint32 RTC_RelativeToFixed(uint32 dayOfWeek, uint32 weekOfMonth, uint32 month, uint32 year);
 415:Generated_Source\PSoC4/RTC.h **** 
 416:Generated_Source\PSoC4/RTC.h **** 
 417:Generated_Source\PSoC4/RTC.h **** #if defined(CYDEV_RTC_SOURCE_WDT)
 418:Generated_Source\PSoC4/RTC.h ****     #if((0u != CYDEV_WDT_GENERATE_ISR) && (0u == RTC_INITIAL_UPDATE_MODE))
 419:Generated_Source\PSoC4/RTC.h ****         static void RTC_CySysRtcSetCallback(uint32 wdtNumber);
 420:Generated_Source\PSoC4/RTC.h ****         static void RTC_CySysRtcResetCallback(uint32 wdtNumber);
 421:Generated_Source\PSoC4/RTC.h ****     #endif /* ((0u != CYDEV_WDT_GENERATE_ISR) && (0u == RTC_INITIAL_UPDATE_MODE)) */
 422:Generated_Source\PSoC4/RTC.h **** #endif /* (CYDEV_RTC_SOURCE_WDT) */
 423:Generated_Source\PSoC4/RTC.h **** 
 424:Generated_Source\PSoC4/RTC.h **** /*******************************************************************************
 425:Generated_Source\PSoC4/RTC.h **** * Function Name: RTC_IsBitSet
 426:Generated_Source\PSoC4/RTC.h **** ****************************************************************************//**
 427:Generated_Source\PSoC4/RTC.h **** *
 428:Generated_Source\PSoC4/RTC.h **** * \brief
 429:Generated_Source\PSoC4/RTC.h **** *  Checks the state of a bit passed through parameter.
 430:Generated_Source\PSoC4/RTC.h **** *
 431:Generated_Source\PSoC4/RTC.h **** * \param
 432:Generated_Source\PSoC4/RTC.h **** *  var The variable to be checked.
ARM GAS  C:\Users\Petro\AppData\Local\Temp\cc4k19PF.s 			page 9


 433:Generated_Source\PSoC4/RTC.h **** * \param
 434:Generated_Source\PSoC4/RTC.h **** *  mask The mask for a bit to be checked.
 435:Generated_Source\PSoC4/RTC.h **** *
 436:Generated_Source\PSoC4/RTC.h **** * \return
 437:Generated_Source\PSoC4/RTC.h **** *  0u - Bit is not set.
 438:Generated_Source\PSoC4/RTC.h **** * \return
 439:Generated_Source\PSoC4/RTC.h **** *  1u - Bit is set.
 440:Generated_Source\PSoC4/RTC.h **** *
 441:Generated_Source\PSoC4/RTC.h **** *******************************************************************************/
 442:Generated_Source\PSoC4/RTC.h **** static CY_INLINE uint32 RTC_IsBitSet(uint32 var, uint32 mask)
 443:Generated_Source\PSoC4/RTC.h **** {
 444:Generated_Source\PSoC4/RTC.h ****     return ((mask == (var & mask)) ? 1Lu : 0Lu);
 445:Generated_Source\PSoC4/RTC.h **** }
 446:Generated_Source\PSoC4/RTC.h **** 
 447:Generated_Source\PSoC4/RTC.h **** 
 448:Generated_Source\PSoC4/RTC.h **** /*******************************************************************************
 449:Generated_Source\PSoC4/RTC.h **** * Function Name: RTC_LeapYear
 450:Generated_Source\PSoC4/RTC.h **** ****************************************************************************//**
 451:Generated_Source\PSoC4/RTC.h **** *
 452:Generated_Source\PSoC4/RTC.h **** * \brief
 453:Generated_Source\PSoC4/RTC.h **** * Checks whether the year passed through the parameter is
 454:Generated_Source\PSoC4/RTC.h **** * leap or no.
 455:Generated_Source\PSoC4/RTC.h **** *
 456:Generated_Source\PSoC4/RTC.h **** * \param
 457:Generated_Source\PSoC4/RTC.h **** *  year The year to be checked.
 458:Generated_Source\PSoC4/RTC.h **** *
 459:Generated_Source\PSoC4/RTC.h **** *
 460:Generated_Source\PSoC4/RTC.h **** * \return
 461:Generated_Source\PSoC4/RTC.h **** *  0u - The year is not leap.
 462:Generated_Source\PSoC4/RTC.h **** * \return
 463:Generated_Source\PSoC4/RTC.h **** *  1u - The year is leap.
 464:Generated_Source\PSoC4/RTC.h **** *
 465:Generated_Source\PSoC4/RTC.h **** *******************************************************************************/
 466:Generated_Source\PSoC4/RTC.h **** static CY_INLINE uint32 RTC_LeapYear(uint32 year)
 467:Generated_Source\PSoC4/RTC.h **** {
 468:Generated_Source\PSoC4/RTC.h ****     uint32 retVal;
 469:Generated_Source\PSoC4/RTC.h **** 
 470:Generated_Source\PSoC4/RTC.h ****     if(((0u == (year % 4Lu)) && (0u != (year % 100Lu))) || (0u == (year % 400Lu)))
 471:Generated_Source\PSoC4/RTC.h ****     {
 472:Generated_Source\PSoC4/RTC.h ****         retVal = 1uL;
 473:Generated_Source\PSoC4/RTC.h ****     }
 474:Generated_Source\PSoC4/RTC.h ****     else
 475:Generated_Source\PSoC4/RTC.h ****     {
 476:Generated_Source\PSoC4/RTC.h ****         retVal = 0uL;
 477:Generated_Source\PSoC4/RTC.h ****     }
 478:Generated_Source\PSoC4/RTC.h **** 
 479:Generated_Source\PSoC4/RTC.h ****     return(retVal);
 480:Generated_Source\PSoC4/RTC.h **** }
 481:Generated_Source\PSoC4/RTC.h **** 
 482:Generated_Source\PSoC4/RTC.h **** 
 483:Generated_Source\PSoC4/RTC.h **** /*******************************************************************************
 484:Generated_Source\PSoC4/RTC.h **** * Function Name: RTC_GetSecond
 485:Generated_Source\PSoC4/RTC.h **** ****************************************************************************//**
 486:Generated_Source\PSoC4/RTC.h **** *
 487:Generated_Source\PSoC4/RTC.h **** * \brief
 488:Generated_Source\PSoC4/RTC.h **** *  Returns the seconds value from the time value that is passed as a/the parameter.
 489:Generated_Source\PSoC4/RTC.h **** *
ARM GAS  C:\Users\Petro\AppData\Local\Temp\cc4k19PF.s 			page 10


 490:Generated_Source\PSoC4/RTC.h **** * \param
 491:Generated_Source\PSoC4/RTC.h **** *  time The time value.
 492:Generated_Source\PSoC4/RTC.h **** *
 493:Generated_Source\PSoC4/RTC.h **** * \return
 494:Generated_Source\PSoC4/RTC.h **** *  The seconds value.
 495:Generated_Source\PSoC4/RTC.h **** *
 496:Generated_Source\PSoC4/RTC.h **** *******************************************************************************/
 497:Generated_Source\PSoC4/RTC.h **** static CY_INLINE uint32 RTC_GetSecond(uint32 inputTime)
 498:Generated_Source\PSoC4/RTC.h **** {
  25              		.loc 1 498 0
  26              		.cfi_startproc
  27 0000 80B5     		push	{r7, lr}
  28              		.cfi_def_cfa_offset 8
  29              		.cfi_offset 7, -8
  30              		.cfi_offset 14, -4
  31 0002 84B0     		sub	sp, sp, #16
  32              		.cfi_def_cfa_offset 24
  33 0004 00AF     		add	r7, sp, #0
  34              		.cfi_def_cfa_register 7
  35 0006 7860     		str	r0, [r7, #4]
 499:Generated_Source\PSoC4/RTC.h ****     uint32 retVal;
 500:Generated_Source\PSoC4/RTC.h **** 
 501:Generated_Source\PSoC4/RTC.h ****     retVal  = ((inputTime & RTC_10_SECONDS_MASK) >> RTC_10_SECONDS_OFFSET) * 10u;
  36              		.loc 1 501 0
  37 0008 7B68     		ldr	r3, [r7, #4]
  38 000a 7022     		mov	r2, #112
  39 000c 1340     		and	r3, r2
  40 000e 1A09     		lsr	r2, r3, #4
  41 0010 131C     		mov	r3, r2
  42 0012 9B00     		lsl	r3, r3, #2
  43 0014 9B18     		add	r3, r3, r2
  44 0016 5B00     		lsl	r3, r3, #1
  45 0018 FB60     		str	r3, [r7, #12]
 502:Generated_Source\PSoC4/RTC.h ****     retVal += (inputTime & RTC_SECONDS_MASK) >> RTC_SECONDS_OFFSET;
  46              		.loc 1 502 0
  47 001a 7B68     		ldr	r3, [r7, #4]
  48 001c 0F22     		mov	r2, #15
  49 001e 1340     		and	r3, r2
  50 0020 FA68     		ldr	r2, [r7, #12]
  51 0022 D318     		add	r3, r2, r3
  52 0024 FB60     		str	r3, [r7, #12]
 503:Generated_Source\PSoC4/RTC.h **** 
 504:Generated_Source\PSoC4/RTC.h ****     return (retVal);
  53              		.loc 1 504 0
  54 0026 FB68     		ldr	r3, [r7, #12]
 505:Generated_Source\PSoC4/RTC.h **** }
  55              		.loc 1 505 0
  56 0028 181C     		mov	r0, r3
  57 002a BD46     		mov	sp, r7
  58 002c 04B0     		add	sp, sp, #16
  59              		@ sp needed
  60 002e 80BD     		pop	{r7, pc}
  61              		.cfi_endproc
  62              	.LFE4:
  63              		.size	RTC_GetSecond, .-RTC_GetSecond
  64              		.section	.text.RTC_GetMinutes,"ax",%progbits
  65              		.align	2
ARM GAS  C:\Users\Petro\AppData\Local\Temp\cc4k19PF.s 			page 11


  66              		.code	16
  67              		.thumb_func
  68              		.type	RTC_GetMinutes, %function
  69              	RTC_GetMinutes:
  70              	.LFB5:
 506:Generated_Source\PSoC4/RTC.h **** 
 507:Generated_Source\PSoC4/RTC.h **** 
 508:Generated_Source\PSoC4/RTC.h **** /*******************************************************************************
 509:Generated_Source\PSoC4/RTC.h **** * Function Name: RTC_GetMinutes
 510:Generated_Source\PSoC4/RTC.h **** ****************************************************************************//**
 511:Generated_Source\PSoC4/RTC.h **** *
 512:Generated_Source\PSoC4/RTC.h **** * \brief
 513:Generated_Source\PSoC4/RTC.h **** *  Returns the minutes value from the time value that is passed as a/the 
 514:Generated_Source\PSoC4/RTC.h **** * parameter.
 515:Generated_Source\PSoC4/RTC.h **** *
 516:Generated_Source\PSoC4/RTC.h **** * \param
 517:Generated_Source\PSoC4/RTC.h **** *  time The time value.
 518:Generated_Source\PSoC4/RTC.h **** *
 519:Generated_Source\PSoC4/RTC.h **** * \return
 520:Generated_Source\PSoC4/RTC.h **** *  The minutes value.
 521:Generated_Source\PSoC4/RTC.h **** *
 522:Generated_Source\PSoC4/RTC.h **** *******************************************************************************/
 523:Generated_Source\PSoC4/RTC.h **** static CY_INLINE uint32 RTC_GetMinutes(uint32 inputTime)
 524:Generated_Source\PSoC4/RTC.h **** {
  71              		.loc 1 524 0
  72              		.cfi_startproc
  73 0000 80B5     		push	{r7, lr}
  74              		.cfi_def_cfa_offset 8
  75              		.cfi_offset 7, -8
  76              		.cfi_offset 14, -4
  77 0002 84B0     		sub	sp, sp, #16
  78              		.cfi_def_cfa_offset 24
  79 0004 00AF     		add	r7, sp, #0
  80              		.cfi_def_cfa_register 7
  81 0006 7860     		str	r0, [r7, #4]
 525:Generated_Source\PSoC4/RTC.h ****     uint32 retVal;
 526:Generated_Source\PSoC4/RTC.h **** 
 527:Generated_Source\PSoC4/RTC.h ****     retVal  = ((inputTime & RTC_10_MINUTES_MASK) >> RTC_10_MINUTES_OFFSET) * 10u;
  82              		.loc 1 527 0
  83 0008 7A68     		ldr	r2, [r7, #4]
  84 000a E023     		mov	r3, #224
  85 000c DB01     		lsl	r3, r3, #7
  86 000e 1340     		and	r3, r2
  87 0010 1A0B     		lsr	r2, r3, #12
  88 0012 131C     		mov	r3, r2
  89 0014 9B00     		lsl	r3, r3, #2
  90 0016 9B18     		add	r3, r3, r2
  91 0018 5B00     		lsl	r3, r3, #1
  92 001a FB60     		str	r3, [r7, #12]
 528:Generated_Source\PSoC4/RTC.h ****     retVal += (inputTime & RTC_MINUTES_MASK) >> RTC_MINUTES_OFFSET;
  93              		.loc 1 528 0
  94 001c 7A68     		ldr	r2, [r7, #4]
  95 001e F023     		mov	r3, #240
  96 0020 1B01     		lsl	r3, r3, #4
  97 0022 1340     		and	r3, r2
  98 0024 1B0A     		lsr	r3, r3, #8
  99 0026 FA68     		ldr	r2, [r7, #12]
ARM GAS  C:\Users\Petro\AppData\Local\Temp\cc4k19PF.s 			page 12


 100 0028 D318     		add	r3, r2, r3
 101 002a FB60     		str	r3, [r7, #12]
 529:Generated_Source\PSoC4/RTC.h **** 
 530:Generated_Source\PSoC4/RTC.h ****     return (retVal);
 102              		.loc 1 530 0
 103 002c FB68     		ldr	r3, [r7, #12]
 531:Generated_Source\PSoC4/RTC.h **** }
 104              		.loc 1 531 0
 105 002e 181C     		mov	r0, r3
 106 0030 BD46     		mov	sp, r7
 107 0032 04B0     		add	sp, sp, #16
 108              		@ sp needed
 109 0034 80BD     		pop	{r7, pc}
 110              		.cfi_endproc
 111              	.LFE5:
 112              		.size	RTC_GetMinutes, .-RTC_GetMinutes
 113 0036 C046     		.section	.text.RTC_GetHours,"ax",%progbits
 114              		.align	2
 115              		.code	16
 116              		.thumb_func
 117              		.type	RTC_GetHours, %function
 118              	RTC_GetHours:
 119              	.LFB6:
 532:Generated_Source\PSoC4/RTC.h **** 
 533:Generated_Source\PSoC4/RTC.h **** 
 534:Generated_Source\PSoC4/RTC.h **** /*******************************************************************************
 535:Generated_Source\PSoC4/RTC.h **** * Function Name: RTC_GetHours
 536:Generated_Source\PSoC4/RTC.h **** ****************************************************************************//**
 537:Generated_Source\PSoC4/RTC.h **** *
 538:Generated_Source\PSoC4/RTC.h **** * \brief
 539:Generated_Source\PSoC4/RTC.h **** *  Returns the hours value from the time value that is passed as a/the parameter.
 540:Generated_Source\PSoC4/RTC.h **** *
 541:Generated_Source\PSoC4/RTC.h **** * \param
 542:Generated_Source\PSoC4/RTC.h **** *  time The time value.
 543:Generated_Source\PSoC4/RTC.h **** *
 544:Generated_Source\PSoC4/RTC.h **** * \return
 545:Generated_Source\PSoC4/RTC.h **** *  The hours value.
 546:Generated_Source\PSoC4/RTC.h **** *
 547:Generated_Source\PSoC4/RTC.h **** *******************************************************************************/
 548:Generated_Source\PSoC4/RTC.h **** static CY_INLINE uint32 RTC_GetHours(uint32 inputTime)
 549:Generated_Source\PSoC4/RTC.h **** {
 120              		.loc 1 549 0
 121              		.cfi_startproc
 122 0000 80B5     		push	{r7, lr}
 123              		.cfi_def_cfa_offset 8
 124              		.cfi_offset 7, -8
 125              		.cfi_offset 14, -4
 126 0002 84B0     		sub	sp, sp, #16
 127              		.cfi_def_cfa_offset 24
 128 0004 00AF     		add	r7, sp, #0
 129              		.cfi_def_cfa_register 7
 130 0006 7860     		str	r0, [r7, #4]
 550:Generated_Source\PSoC4/RTC.h ****     uint32 retVal;
 551:Generated_Source\PSoC4/RTC.h **** 
 552:Generated_Source\PSoC4/RTC.h ****     retVal  = ((inputTime & RTC_10_HOURS_MASK) >> RTC_10_HOURS_OFFSET) * 10u;
 131              		.loc 1 552 0
 132 0008 7A68     		ldr	r2, [r7, #4]
ARM GAS  C:\Users\Petro\AppData\Local\Temp\cc4k19PF.s 			page 13


 133 000a C023     		mov	r3, #192
 134 000c 9B03     		lsl	r3, r3, #14
 135 000e 1340     		and	r3, r2
 136 0010 1A0D     		lsr	r2, r3, #20
 137 0012 131C     		mov	r3, r2
 138 0014 9B00     		lsl	r3, r3, #2
 139 0016 9B18     		add	r3, r3, r2
 140 0018 5B00     		lsl	r3, r3, #1
 141 001a FB60     		str	r3, [r7, #12]
 553:Generated_Source\PSoC4/RTC.h ****     retVal += (inputTime & RTC_HOURS_MASK) >> RTC_HOURS_OFFSET;
 142              		.loc 1 553 0
 143 001c 7A68     		ldr	r2, [r7, #4]
 144 001e F023     		mov	r3, #240
 145 0020 1B03     		lsl	r3, r3, #12
 146 0022 1340     		and	r3, r2
 147 0024 1B0C     		lsr	r3, r3, #16
 148 0026 FA68     		ldr	r2, [r7, #12]
 149 0028 D318     		add	r3, r2, r3
 150 002a FB60     		str	r3, [r7, #12]
 554:Generated_Source\PSoC4/RTC.h **** 
 555:Generated_Source\PSoC4/RTC.h ****     return (retVal);
 151              		.loc 1 555 0
 152 002c FB68     		ldr	r3, [r7, #12]
 556:Generated_Source\PSoC4/RTC.h **** }
 153              		.loc 1 556 0
 154 002e 181C     		mov	r0, r3
 155 0030 BD46     		mov	sp, r7
 156 0032 04B0     		add	sp, sp, #16
 157              		@ sp needed
 158 0034 80BD     		pop	{r7, pc}
 159              		.cfi_endproc
 160              	.LFE6:
 161              		.size	RTC_GetHours, .-RTC_GetHours
 162              		.comm	notifycaiton,4,4
 163              		.global	bleUnixTime
 164 0036 C046     		.bss
 165              		.align	2
 166              		.type	bleUnixTime, %object
 167              		.size	bleUnixTime, 4
 168              	bleUnixTime:
 169 0000 00000000 		.space	4
 170              		.global	sendIdSkier
 171              		.align	1
 172              		.type	sendIdSkier, %object
 173              		.size	sendIdSkier, 2
 174              	sendIdSkier:
 175 0004 0000     		.space	2
 176              		.comm	sendBufferStart,8,4
 177              		.comm	sendBufferFinish,8,4
 178              		.comm	sendBufferResult,8,4
 179              		.comm	sendBufferStatus,7,4
 180              		.comm	uartBuffer,30,4
 181 0006 0000     		.section	.rodata
 182              		.align	2
 183              	.LC4:
 184 0000 756E6978 		.ascii	"unix: %d\000"
 184      3A202564 
ARM GAS  C:\Users\Petro\AppData\Local\Temp\cc4k19PF.s 			page 14


 184      00
 185              		.section	.text.BleCallBack,"ax",%progbits
 186              		.align	2
 187              		.global	BleCallBack
 188              		.code	16
 189              		.thumb_func
 190              		.type	BleCallBack, %function
 191              	BleCallBack:
 192              	.LFB63:
 193              		.file 2 "lib_BLE\\bluetooth.c"
   1:lib_BLE/bluetooth.c **** #include <lib_BLE/bluetooth.h>
   2:lib_BLE/bluetooth.c **** #include "stdio.h"
   3:lib_BLE/bluetooth.c **** #include "project.h"
   4:lib_BLE/bluetooth.c **** 
   5:lib_BLE/bluetooth.c **** #define LENGHT_DATA_BUFFER 4
   6:lib_BLE/bluetooth.c **** #define LENGHT_STATUS_BUFFER 7
   7:lib_BLE/bluetooth.c **** 
   8:lib_BLE/bluetooth.c **** int notifycaiton;
   9:lib_BLE/bluetooth.c **** uint32_t bleUnixTime = 0;
  10:lib_BLE/bluetooth.c **** 
  11:lib_BLE/bluetooth.c **** uint16_t sendIdSkier = 0;
  12:lib_BLE/bluetooth.c **** uint16_t sendBufferStart[LENGHT_DATA_BUFFER];
  13:lib_BLE/bluetooth.c **** uint16_t sendBufferFinish[LENGHT_DATA_BUFFER];
  14:lib_BLE/bluetooth.c **** uint16_t sendBufferResult[LENGHT_DATA_BUFFER];
  15:lib_BLE/bluetooth.c **** uint8_t sendBufferStatus[LENGHT_STATUS_BUFFER];
  16:lib_BLE/bluetooth.c **** 
  17:lib_BLE/bluetooth.c **** char uartBuffer[30];
  18:lib_BLE/bluetooth.c **** 
  19:lib_BLE/bluetooth.c **** void updateData(void);
  20:lib_BLE/bluetooth.c **** 
  21:lib_BLE/bluetooth.c **** 
  22:lib_BLE/bluetooth.c **** void BleCallBack(uint32 event, void* eventParam)
  23:lib_BLE/bluetooth.c **** {
 194              		.loc 2 23 0
 195              		.cfi_startproc
 196 0000 80B5     		push	{r7, lr}
 197              		.cfi_def_cfa_offset 8
 198              		.cfi_offset 7, -8
 199              		.cfi_offset 14, -4
 200 0002 86B0     		sub	sp, sp, #24
 201              		.cfi_def_cfa_offset 32
 202 0004 00AF     		add	r7, sp, #0
 203              		.cfi_def_cfa_register 7
 204 0006 7860     		str	r0, [r7, #4]
 205 0008 3960     		str	r1, [r7]
  24:lib_BLE/bluetooth.c ****     CYBLE_GATTS_WRITE_REQ_PARAM_T *wrReqParam;
  25:lib_BLE/bluetooth.c **** 
  26:lib_BLE/bluetooth.c ****     switch(event)
 206              		.loc 2 26 0
 207 000a 7B68     		ldr	r3, [r7, #4]
 208 000c 282B     		cmp	r3, #40
 209 000e 08D0     		beq	.L9
 210 0010 02D8     		bhi	.L10
 211 0012 012B     		cmp	r3, #1
 212 0014 05D0     		beq	.L9
  27:lib_BLE/bluetooth.c ****     {
  28:lib_BLE/bluetooth.c ****         /* if there is a disconnect or the stack just turned on from a reset then start the adverti
ARM GAS  C:\Users\Petro\AppData\Local\Temp\cc4k19PF.s 			page 15


  29:lib_BLE/bluetooth.c ****         case CYBLE_EVT_STACK_ON:
  30:lib_BLE/bluetooth.c ****         case CYBLE_EVT_GAP_DEVICE_DISCONNECTED:
  31:lib_BLE/bluetooth.c ****             notifycaiton = 0;
  32:lib_BLE/bluetooth.c ****             CyBle_GappStartAdvertisement(CYBLE_ADVERTISING_FAST);
  33:lib_BLE/bluetooth.c ****             pwm_Start();
  34:lib_BLE/bluetooth.c ****         break;
  35:lib_BLE/bluetooth.c ****         
  36:lib_BLE/bluetooth.c ****         /* when a connection is made*/    
  37:lib_BLE/bluetooth.c ****         case CYBLE_EVT_GATT_CONNECT_IND:
  38:lib_BLE/bluetooth.c ****             pwm_Stop();
  39:lib_BLE/bluetooth.c ****             updateData();
  40:lib_BLE/bluetooth.c **** 		break;
  41:lib_BLE/bluetooth.c **** 
  42:lib_BLE/bluetooth.c ****         /* handle a write request */
  43:lib_BLE/bluetooth.c ****         case CYBLE_EVT_GATTS_WRITE_REQ:
  44:lib_BLE/bluetooth.c ****             wrReqParam = (CYBLE_GATTS_WRITE_REQ_PARAM_T *) eventParam;	
  45:lib_BLE/bluetooth.c ****             
  46:lib_BLE/bluetooth.c ****             /* request write the unixTime value */
  47:lib_BLE/bluetooth.c ****             if(wrReqParam->handleValPair.attrHandle == CYBLE_SFSYSTEMSERVICE_UNIXTIME_CHAR_HANDLE)
  48:lib_BLE/bluetooth.c ****             {
  49:lib_BLE/bluetooth.c ****                 /* only update the value and write the response if the requested write is allowed *
  50:lib_BLE/bluetooth.c ****                 if(CYBLE_GATT_ERR_NONE == CyBle_GattsWriteAttributeValue(&wrReqParam->handleValPair
  51:lib_BLE/bluetooth.c ****                 {
  52:lib_BLE/bluetooth.c ****                     int i;
  53:lib_BLE/bluetooth.c ****                     bleUnixTime = 0;
  54:lib_BLE/bluetooth.c ****                     for(i=3;i>=0;i--)
  55:lib_BLE/bluetooth.c ****                     {
  56:lib_BLE/bluetooth.c ****                         uint8_t tmpData;
  57:lib_BLE/bluetooth.c ****                         tmpData = wrReqParam->handleValPair.value.val[i];
  58:lib_BLE/bluetooth.c ****                         bleUnixTime = (bleUnixTime << 8) | tmpData;
  59:lib_BLE/bluetooth.c ****                     }
  60:lib_BLE/bluetooth.c ****                     
  61:lib_BLE/bluetooth.c ****                     #ifdef DEBUG_BLE
  62:lib_BLE/bluetooth.c ****                         sprintf(uartBuffer,"unix: %d",bleUnixTime);
  63:lib_BLE/bluetooth.c ****                         SW_UART_DEBUG_PutString(uartBuffer);
  64:lib_BLE/bluetooth.c ****                     #endif
  65:lib_BLE/bluetooth.c ****                     
  66:lib_BLE/bluetooth.c ****                     CyBle_GattsWriteRsp(cyBle_connHandle);
  67:lib_BLE/bluetooth.c ****                 }
  68:lib_BLE/bluetooth.c ****             }
  69:lib_BLE/bluetooth.c ****             
  70:lib_BLE/bluetooth.c ****             /* request to update the  notification */
  71:lib_BLE/bluetooth.c ****             if(wrReqParam->handleValPair.attrHandle == CYBLE_SFSYSTEMSERVICE_ID_ID_CCCD_DESC_HANDLE
  72:lib_BLE/bluetooth.c ****             wrReqParam->handleValPair.attrHandle == CYBLE_SFSYSTEMSERVICE_TIME_START_TIMESTARTCCCD_
  73:lib_BLE/bluetooth.c ****             wrReqParam->handleValPair.attrHandle == CYBLE_SFSYSTEMSERVICE_TIME_FINISH_TIMEFINISHCCC
  74:lib_BLE/bluetooth.c ****             wrReqParam->handleValPair.attrHandle == CYBLE_SFSYSTEMSERVICE_TIME_RESULT_TIMERESULTCCC
  75:lib_BLE/bluetooth.c ****             wrReqParam->handleValPair.attrHandle == CYBLE_SFSYSTEMSERVICE_SYSTEM_STATUS_STATUSCCCD_
  76:lib_BLE/bluetooth.c ****             {
  77:lib_BLE/bluetooth.c ****                 CyBle_GattsWriteAttributeValue(&wrReqParam->handleValPair, 0, &cyBle_connHandle, CY
  78:lib_BLE/bluetooth.c ****                 notifycaiton = wrReqParam->handleValPair.value.val[0] & 0x01;
  79:lib_BLE/bluetooth.c ****                 CyBle_GattsWriteRsp(cyBle_connHandle);
  80:lib_BLE/bluetooth.c ****             }
  81:lib_BLE/bluetooth.c **** 			break;  
  82:lib_BLE/bluetooth.c ****         
  83:lib_BLE/bluetooth.c ****         default:
  84:lib_BLE/bluetooth.c ****             break;
 213              		.loc 2 84 0
ARM GAS  C:\Users\Petro\AppData\Local\Temp\cc4k19PF.s 			page 16


 214 0016 90E0     		b	.L7
 215              	.L10:
  26:lib_BLE/bluetooth.c ****     {
 216              		.loc 2 26 0
 217 0018 412B     		cmp	r3, #65
 218 001a 0BD0     		beq	.L11
 219 001c 4C2B     		cmp	r3, #76
 220 001e 0ED0     		beq	.L12
 221              		.loc 2 84 0
 222 0020 8BE0     		b	.L7
 223              	.L9:
  31:lib_BLE/bluetooth.c ****             CyBle_GappStartAdvertisement(CYBLE_ADVERTISING_FAST);
 224              		.loc 2 31 0
 225 0022 474B     		ldr	r3, .L20
 226 0024 0022     		mov	r2, #0
 227 0026 1A60     		str	r2, [r3]
  32:lib_BLE/bluetooth.c ****             pwm_Start();
 228              		.loc 2 32 0
 229 0028 0020     		mov	r0, #0
 230 002a FFF7FEFF 		bl	CyBle_GappStartAdvertisement
  33:lib_BLE/bluetooth.c ****         break;
 231              		.loc 2 33 0
 232 002e FFF7FEFF 		bl	pwm_Start
  34:lib_BLE/bluetooth.c ****         
 233              		.loc 2 34 0
 234 0032 82E0     		b	.L7
 235              	.L11:
  38:lib_BLE/bluetooth.c ****             updateData();
 236              		.loc 2 38 0
 237 0034 FFF7FEFF 		bl	pwm_Stop
  39:lib_BLE/bluetooth.c **** 		break;
 238              		.loc 2 39 0
 239 0038 FFF7FEFF 		bl	updateData
  40:lib_BLE/bluetooth.c **** 
 240              		.loc 2 40 0
 241 003c 7DE0     		b	.L7
 242              	.L12:
  44:lib_BLE/bluetooth.c ****             
 243              		.loc 2 44 0
 244 003e 3B68     		ldr	r3, [r7]
 245 0040 3B61     		str	r3, [r7, #16]
  47:lib_BLE/bluetooth.c ****             {
 246              		.loc 2 47 0
 247 0042 3B69     		ldr	r3, [r7, #16]
 248 0044 9B89     		ldrh	r3, [r3, #12]
 249 0046 222B     		cmp	r3, #34
 250 0048 42D1     		bne	.L14
  50:lib_BLE/bluetooth.c ****                 {
 251              		.loc 2 50 0
 252 004a 3B69     		ldr	r3, [r7, #16]
 253 004c 1A1D     		add	r2, r3, #4
 254 004e 3D4B     		ldr	r3, .L20+4
 255 0050 101C     		mov	r0, r2
 256 0052 0021     		mov	r1, #0
 257 0054 1A1C     		mov	r2, r3
 258 0056 4023     		mov	r3, #64
 259 0058 FFF7FEFF 		bl	CyBle_GattsWriteAttributeValue
ARM GAS  C:\Users\Petro\AppData\Local\Temp\cc4k19PF.s 			page 17


 260 005c 031E     		sub	r3, r0, #0
 261 005e 37D1     		bne	.L14
 262              	.LBB2:
  53:lib_BLE/bluetooth.c ****                     for(i=3;i>=0;i--)
 263              		.loc 2 53 0
 264 0060 394B     		ldr	r3, .L20+8
 265 0062 0022     		mov	r2, #0
 266 0064 1A60     		str	r2, [r3]
  54:lib_BLE/bluetooth.c ****                     {
 267              		.loc 2 54 0
 268 0066 0323     		mov	r3, #3
 269 0068 7B61     		str	r3, [r7, #20]
 270 006a 13E0     		b	.L15
 271              	.L16:
 272              	.LBB3:
  57:lib_BLE/bluetooth.c ****                         bleUnixTime = (bleUnixTime << 8) | tmpData;
 273              		.loc 2 57 0 discriminator 3
 274 006c 3B69     		ldr	r3, [r7, #16]
 275 006e 5A68     		ldr	r2, [r3, #4]
 276 0070 7B69     		ldr	r3, [r7, #20]
 277 0072 D218     		add	r2, r2, r3
 278 0074 0F23     		mov	r3, #15
 279 0076 FB18     		add	r3, r7, r3
 280 0078 1278     		ldrb	r2, [r2]
 281 007a 1A70     		strb	r2, [r3]
  58:lib_BLE/bluetooth.c ****                     }
 282              		.loc 2 58 0 discriminator 3
 283 007c 324B     		ldr	r3, .L20+8
 284 007e 1B68     		ldr	r3, [r3]
 285 0080 1A02     		lsl	r2, r3, #8
 286 0082 0F23     		mov	r3, #15
 287 0084 FB18     		add	r3, r7, r3
 288 0086 1B78     		ldrb	r3, [r3]
 289 0088 1A43     		orr	r2, r3
 290 008a 2F4B     		ldr	r3, .L20+8
 291 008c 1A60     		str	r2, [r3]
 292              	.LBE3:
  54:lib_BLE/bluetooth.c ****                     {
 293              		.loc 2 54 0 discriminator 3
 294 008e 7B69     		ldr	r3, [r7, #20]
 295 0090 013B     		sub	r3, r3, #1
 296 0092 7B61     		str	r3, [r7, #20]
 297              	.L15:
  54:lib_BLE/bluetooth.c ****                     {
 298              		.loc 2 54 0 is_stmt 0 discriminator 1
 299 0094 7B69     		ldr	r3, [r7, #20]
 300 0096 002B     		cmp	r3, #0
 301 0098 E8DA     		bge	.L16
  62:lib_BLE/bluetooth.c ****                         SW_UART_DEBUG_PutString(uartBuffer);
 302              		.loc 2 62 0 is_stmt 1
 303 009a 2B4B     		ldr	r3, .L20+8
 304 009c 1B68     		ldr	r3, [r3]
 305 009e 2B49     		ldr	r1, .L20+12
 306 00a0 2B4A     		ldr	r2, .L20+16
 307 00a2 081C     		mov	r0, r1
 308 00a4 111C     		mov	r1, r2
 309 00a6 1A1C     		mov	r2, r3
ARM GAS  C:\Users\Petro\AppData\Local\Temp\cc4k19PF.s 			page 18


 310 00a8 FFF7FEFF 		bl	sprintf
  63:lib_BLE/bluetooth.c ****                     #endif
 311              		.loc 2 63 0
 312 00ac 274B     		ldr	r3, .L20+12
 313 00ae 181C     		mov	r0, r3
 314 00b0 FFF7FEFF 		bl	SW_UART_DEBUG_PutString
  66:lib_BLE/bluetooth.c ****                 }
 315              		.loc 2 66 0
 316 00b4 234B     		ldr	r3, .L20+4
 317 00b6 1A78     		ldrb	r2, [r3]
 318 00b8 5B78     		ldrb	r3, [r3, #1]
 319 00ba 1B02     		lsl	r3, r3, #8
 320 00bc 1A43     		orr	r2, r3
 321 00be 0023     		mov	r3, #0
 322 00c0 1204     		lsl	r2, r2, #16
 323 00c2 120C     		lsr	r2, r2, #16
 324 00c4 1B0C     		lsr	r3, r3, #16
 325 00c6 1B04     		lsl	r3, r3, #16
 326 00c8 1343     		orr	r3, r2
 327 00ca 181C     		mov	r0, r3
 328 00cc FFF7FEFF 		bl	CyBle_GattsWriteRsp
 329              	.L14:
 330              	.LBE2:
  71:lib_BLE/bluetooth.c ****             wrReqParam->handleValPair.attrHandle == CYBLE_SFSYSTEMSERVICE_TIME_START_TIMESTARTCCCD_
 331              		.loc 2 71 0
 332 00d0 3B69     		ldr	r3, [r7, #16]
 333 00d2 9B89     		ldrh	r3, [r3, #12]
 334 00d4 102B     		cmp	r3, #16
 335 00d6 0FD0     		beq	.L17
  72:lib_BLE/bluetooth.c ****             wrReqParam->handleValPair.attrHandle == CYBLE_SFSYSTEMSERVICE_TIME_FINISH_TIMEFINISHCCC
 336              		.loc 2 72 0 discriminator 1
 337 00d8 3B69     		ldr	r3, [r7, #16]
 338 00da 9B89     		ldrh	r3, [r3, #12]
  71:lib_BLE/bluetooth.c ****             wrReqParam->handleValPair.attrHandle == CYBLE_SFSYSTEMSERVICE_TIME_START_TIMESTARTCCCD_
 339              		.loc 2 71 0 discriminator 1
 340 00dc 142B     		cmp	r3, #20
 341 00de 0BD0     		beq	.L17
  73:lib_BLE/bluetooth.c ****             wrReqParam->handleValPair.attrHandle == CYBLE_SFSYSTEMSERVICE_TIME_RESULT_TIMERESULTCCC
 342              		.loc 2 73 0
 343 00e0 3B69     		ldr	r3, [r7, #16]
 344 00e2 9B89     		ldrh	r3, [r3, #12]
  72:lib_BLE/bluetooth.c ****             wrReqParam->handleValPair.attrHandle == CYBLE_SFSYSTEMSERVICE_TIME_FINISH_TIMEFINISHCCC
 345              		.loc 2 72 0
 346 00e4 182B     		cmp	r3, #24
 347 00e6 07D0     		beq	.L17
  74:lib_BLE/bluetooth.c ****             wrReqParam->handleValPair.attrHandle == CYBLE_SFSYSTEMSERVICE_SYSTEM_STATUS_STATUSCCCD_
 348              		.loc 2 74 0
 349 00e8 3B69     		ldr	r3, [r7, #16]
 350 00ea 9B89     		ldrh	r3, [r3, #12]
  73:lib_BLE/bluetooth.c ****             wrReqParam->handleValPair.attrHandle == CYBLE_SFSYSTEMSERVICE_TIME_RESULT_TIMERESULTCCC
 351              		.loc 2 73 0
 352 00ec 1C2B     		cmp	r3, #28
 353 00ee 03D0     		beq	.L17
  75:lib_BLE/bluetooth.c ****             {
 354              		.loc 2 75 0
 355 00f0 3B69     		ldr	r3, [r7, #16]
 356 00f2 9B89     		ldrh	r3, [r3, #12]
ARM GAS  C:\Users\Petro\AppData\Local\Temp\cc4k19PF.s 			page 19


  74:lib_BLE/bluetooth.c ****             wrReqParam->handleValPair.attrHandle == CYBLE_SFSYSTEMSERVICE_SYSTEM_STATUS_STATUSCCCD_
 357              		.loc 2 74 0
 358 00f4 202B     		cmp	r3, #32
 359 00f6 1FD1     		bne	.L18
 360              	.L17:
  77:lib_BLE/bluetooth.c ****                 notifycaiton = wrReqParam->handleValPair.value.val[0] & 0x01;
 361              		.loc 2 77 0
 362 00f8 3B69     		ldr	r3, [r7, #16]
 363 00fa 1A1D     		add	r2, r3, #4
 364 00fc 114B     		ldr	r3, .L20+4
 365 00fe 101C     		mov	r0, r2
 366 0100 0021     		mov	r1, #0
 367 0102 1A1C     		mov	r2, r3
 368 0104 4023     		mov	r3, #64
 369 0106 FFF7FEFF 		bl	CyBle_GattsWriteAttributeValue
  78:lib_BLE/bluetooth.c ****                 CyBle_GattsWriteRsp(cyBle_connHandle);
 370              		.loc 2 78 0
 371 010a 3B69     		ldr	r3, [r7, #16]
 372 010c 5B68     		ldr	r3, [r3, #4]
 373 010e 1B78     		ldrb	r3, [r3]
 374 0110 1A1C     		mov	r2, r3
 375 0112 0123     		mov	r3, #1
 376 0114 1A40     		and	r2, r3
 377 0116 0A4B     		ldr	r3, .L20
 378 0118 1A60     		str	r2, [r3]
  79:lib_BLE/bluetooth.c ****             }
 379              		.loc 2 79 0
 380 011a 0A4B     		ldr	r3, .L20+4
 381 011c 1A78     		ldrb	r2, [r3]
 382 011e 5B78     		ldrb	r3, [r3, #1]
 383 0120 1B02     		lsl	r3, r3, #8
 384 0122 1A43     		orr	r2, r3
 385 0124 0023     		mov	r3, #0
 386 0126 1204     		lsl	r2, r2, #16
 387 0128 120C     		lsr	r2, r2, #16
 388 012a 1B0C     		lsr	r3, r3, #16
 389 012c 1B04     		lsl	r3, r3, #16
 390 012e 1343     		orr	r3, r2
 391 0130 181C     		mov	r0, r3
 392 0132 FFF7FEFF 		bl	CyBle_GattsWriteRsp
  81:lib_BLE/bluetooth.c ****         
 393              		.loc 2 81 0
 394 0136 FFE7     		b	.L19
 395              	.L18:
 396              	.L19:
 397 0138 C046     		mov	r8, r8
 398              	.L7:
  85:lib_BLE/bluetooth.c ****     }
  86:lib_BLE/bluetooth.c **** } 
 399              		.loc 2 86 0
 400 013a BD46     		mov	sp, r7
 401 013c 06B0     		add	sp, sp, #24
 402              		@ sp needed
 403 013e 80BD     		pop	{r7, pc}
 404              	.L21:
 405              		.align	2
 406              	.L20:
ARM GAS  C:\Users\Petro\AppData\Local\Temp\cc4k19PF.s 			page 20


 407 0140 00000000 		.word	notifycaiton
 408 0144 00000000 		.word	cyBle_connHandle
 409 0148 00000000 		.word	bleUnixTime
 410 014c 00000000 		.word	uartBuffer
 411 0150 00000000 		.word	.LC4
 412              		.cfi_endproc
 413              	.LFE63:
 414              		.size	BleCallBack, .-BleCallBack
 415              		.section	.text.updateData,"ax",%progbits
 416              		.align	2
 417              		.global	updateData
 418              		.code	16
 419              		.thumb_func
 420              		.type	updateData, %function
 421              	updateData:
 422              	.LFB64:
  87:lib_BLE/bluetooth.c **** 
  88:lib_BLE/bluetooth.c **** /***************************************************************
  89:lib_BLE/bluetooth.c ****  * Function to update the id skier state in the GATT database
  90:lib_BLE/bluetooth.c ****  **************************************************************/
  91:lib_BLE/bluetooth.c **** void updateData(void)
  92:lib_BLE/bluetooth.c **** {
 423              		.loc 2 92 0
 424              		.cfi_startproc
 425 0000 80B5     		push	{r7, lr}
 426              		.cfi_def_cfa_offset 8
 427              		.cfi_offset 7, -8
 428              		.cfi_offset 14, -4
 429 0002 84B0     		sub	sp, sp, #16
 430              		.cfi_def_cfa_offset 24
 431 0004 00AF     		add	r7, sp, #0
 432              		.cfi_def_cfa_register 7
  93:lib_BLE/bluetooth.c ****     CYBLE_GATTS_HANDLE_VALUE_NTF_T 	tempHandle;
  94:lib_BLE/bluetooth.c ****     
  95:lib_BLE/bluetooth.c ****     if(CyBle_GetState() != CYBLE_STATE_CONNECTED)
 433              		.loc 2 95 0
 434 0006 5E4B     		ldr	r3, .L30
 435 0008 1B78     		ldrb	r3, [r3]
 436 000a 022B     		cmp	r3, #2
 437 000c 00D0     		beq	.LCB352
 438 000e B3E0     		b	.L22	@long jump
 439              	.LCB352:
  96:lib_BLE/bluetooth.c ****         return;
  97:lib_BLE/bluetooth.c ****     
  98:lib_BLE/bluetooth.c ****     tempHandle.attrHandle = CYBLE_SFSYSTEMSERVICE_ID_CHAR_HANDLE;
 440              		.loc 2 98 0
 441 0010 3B1D     		add	r3, r7, #4
 442 0012 0E22     		mov	r2, #14
 443 0014 1A81     		strh	r2, [r3, #8]
  99:lib_BLE/bluetooth.c ****   	tempHandle.value.val = (uint8 *) &sendIdSkier;
 444              		.loc 2 99 0
 445 0016 3B1D     		add	r3, r7, #4
 446 0018 5A4A     		ldr	r2, .L30+4
 447 001a 1A60     		str	r2, [r3]
 100:lib_BLE/bluetooth.c ****     tempHandle.value.len = 2;
 448              		.loc 2 100 0
 449 001c 3B1D     		add	r3, r7, #4
ARM GAS  C:\Users\Petro\AppData\Local\Temp\cc4k19PF.s 			page 21


 450 001e 0222     		mov	r2, #2
 451 0020 9A80     		strh	r2, [r3, #4]
 101:lib_BLE/bluetooth.c ****     CyBle_GattsWriteAttributeValue(&tempHandle,0,&cyBle_connHandle,CYBLE_GATT_DB_LOCALLY_INITIATED 
 452              		.loc 2 101 0
 453 0022 3A1D     		add	r2, r7, #4
 454 0024 584B     		ldr	r3, .L30+8
 455 0026 101C     		mov	r0, r2
 456 0028 0021     		mov	r1, #0
 457 002a 1A1C     		mov	r2, r3
 458 002c 0023     		mov	r3, #0
 459 002e FFF7FEFF 		bl	CyBle_GattsWriteAttributeValue
 102:lib_BLE/bluetooth.c ****     if (notifycaiton  )
 460              		.loc 2 102 0
 461 0032 564B     		ldr	r3, .L30+12
 462 0034 1B68     		ldr	r3, [r3]
 463 0036 002B     		cmp	r3, #0
 464 0038 0ED0     		beq	.L25
 103:lib_BLE/bluetooth.c ****         CyBle_GattsNotification(cyBle_connHandle,&tempHandle);
 465              		.loc 2 103 0
 466 003a 534B     		ldr	r3, .L30+8
 467 003c 391D     		add	r1, r7, #4
 468 003e 1A78     		ldrb	r2, [r3]
 469 0040 5B78     		ldrb	r3, [r3, #1]
 470 0042 1B02     		lsl	r3, r3, #8
 471 0044 1A43     		orr	r2, r3
 472 0046 0023     		mov	r3, #0
 473 0048 1204     		lsl	r2, r2, #16
 474 004a 120C     		lsr	r2, r2, #16
 475 004c 1B0C     		lsr	r3, r3, #16
 476 004e 1B04     		lsl	r3, r3, #16
 477 0050 1343     		orr	r3, r2
 478 0052 181C     		mov	r0, r3
 479 0054 FFF7FEFF 		bl	CyBle_GattsNotification
 480              	.L25:
 104:lib_BLE/bluetooth.c ****         
 105:lib_BLE/bluetooth.c ****     tempHandle.attrHandle = CYBLE_SFSYSTEMSERVICE_TIME_START_CHAR_HANDLE;
 481              		.loc 2 105 0
 482 0058 3B1D     		add	r3, r7, #4
 483 005a 1222     		mov	r2, #18
 484 005c 1A81     		strh	r2, [r3, #8]
 106:lib_BLE/bluetooth.c ****   	tempHandle.value.val = (uint8 *) &sendBufferStart;
 485              		.loc 2 106 0
 486 005e 3B1D     		add	r3, r7, #4
 487 0060 4B4A     		ldr	r2, .L30+16
 488 0062 1A60     		str	r2, [r3]
 107:lib_BLE/bluetooth.c ****     tempHandle.value.len = 8;
 489              		.loc 2 107 0
 490 0064 3B1D     		add	r3, r7, #4
 491 0066 0822     		mov	r2, #8
 492 0068 9A80     		strh	r2, [r3, #4]
 108:lib_BLE/bluetooth.c ****     CyBle_GattsWriteAttributeValue(&tempHandle,0,&cyBle_connHandle,CYBLE_GATT_DB_LOCALLY_INITIATED 
 493              		.loc 2 108 0
 494 006a 3A1D     		add	r2, r7, #4
 495 006c 464B     		ldr	r3, .L30+8
 496 006e 101C     		mov	r0, r2
 497 0070 0021     		mov	r1, #0
 498 0072 1A1C     		mov	r2, r3
ARM GAS  C:\Users\Petro\AppData\Local\Temp\cc4k19PF.s 			page 22


 499 0074 0023     		mov	r3, #0
 500 0076 FFF7FEFF 		bl	CyBle_GattsWriteAttributeValue
 109:lib_BLE/bluetooth.c ****     if (notifycaiton  )
 501              		.loc 2 109 0
 502 007a 444B     		ldr	r3, .L30+12
 503 007c 1B68     		ldr	r3, [r3]
 504 007e 002B     		cmp	r3, #0
 505 0080 0ED0     		beq	.L26
 110:lib_BLE/bluetooth.c ****         CyBle_GattsNotification(cyBle_connHandle,&tempHandle);
 506              		.loc 2 110 0
 507 0082 414B     		ldr	r3, .L30+8
 508 0084 391D     		add	r1, r7, #4
 509 0086 1A78     		ldrb	r2, [r3]
 510 0088 5B78     		ldrb	r3, [r3, #1]
 511 008a 1B02     		lsl	r3, r3, #8
 512 008c 1A43     		orr	r2, r3
 513 008e 0023     		mov	r3, #0
 514 0090 1204     		lsl	r2, r2, #16
 515 0092 120C     		lsr	r2, r2, #16
 516 0094 1B0C     		lsr	r3, r3, #16
 517 0096 1B04     		lsl	r3, r3, #16
 518 0098 1343     		orr	r3, r2
 519 009a 181C     		mov	r0, r3
 520 009c FFF7FEFF 		bl	CyBle_GattsNotification
 521              	.L26:
 111:lib_BLE/bluetooth.c ****     
 112:lib_BLE/bluetooth.c ****     tempHandle.attrHandle = CYBLE_SFSYSTEMSERVICE_TIME_FINISH_CHAR_HANDLE;
 522              		.loc 2 112 0
 523 00a0 3B1D     		add	r3, r7, #4
 524 00a2 1622     		mov	r2, #22
 525 00a4 1A81     		strh	r2, [r3, #8]
 113:lib_BLE/bluetooth.c ****   	tempHandle.value.val = (uint8 *) &sendBufferFinish;
 526              		.loc 2 113 0
 527 00a6 3B1D     		add	r3, r7, #4
 528 00a8 3A4A     		ldr	r2, .L30+20
 529 00aa 1A60     		str	r2, [r3]
 114:lib_BLE/bluetooth.c ****     tempHandle.value.len = 8;
 530              		.loc 2 114 0
 531 00ac 3B1D     		add	r3, r7, #4
 532 00ae 0822     		mov	r2, #8
 533 00b0 9A80     		strh	r2, [r3, #4]
 115:lib_BLE/bluetooth.c ****     CyBle_GattsWriteAttributeValue(&tempHandle,0,&cyBle_connHandle,CYBLE_GATT_DB_LOCALLY_INITIATED 
 534              		.loc 2 115 0
 535 00b2 3A1D     		add	r2, r7, #4
 536 00b4 344B     		ldr	r3, .L30+8
 537 00b6 101C     		mov	r0, r2
 538 00b8 0021     		mov	r1, #0
 539 00ba 1A1C     		mov	r2, r3
 540 00bc 0023     		mov	r3, #0
 541 00be FFF7FEFF 		bl	CyBle_GattsWriteAttributeValue
 116:lib_BLE/bluetooth.c ****     if (notifycaiton  )
 542              		.loc 2 116 0
 543 00c2 324B     		ldr	r3, .L30+12
 544 00c4 1B68     		ldr	r3, [r3]
 545 00c6 002B     		cmp	r3, #0
 546 00c8 0ED0     		beq	.L27
 117:lib_BLE/bluetooth.c ****         CyBle_GattsNotification(cyBle_connHandle,&tempHandle); 
ARM GAS  C:\Users\Petro\AppData\Local\Temp\cc4k19PF.s 			page 23


 547              		.loc 2 117 0
 548 00ca 2F4B     		ldr	r3, .L30+8
 549 00cc 391D     		add	r1, r7, #4
 550 00ce 1A78     		ldrb	r2, [r3]
 551 00d0 5B78     		ldrb	r3, [r3, #1]
 552 00d2 1B02     		lsl	r3, r3, #8
 553 00d4 1A43     		orr	r2, r3
 554 00d6 0023     		mov	r3, #0
 555 00d8 1204     		lsl	r2, r2, #16
 556 00da 120C     		lsr	r2, r2, #16
 557 00dc 1B0C     		lsr	r3, r3, #16
 558 00de 1B04     		lsl	r3, r3, #16
 559 00e0 1343     		orr	r3, r2
 560 00e2 181C     		mov	r0, r3
 561 00e4 FFF7FEFF 		bl	CyBle_GattsNotification
 562              	.L27:
 118:lib_BLE/bluetooth.c ****     
 119:lib_BLE/bluetooth.c ****     tempHandle.attrHandle = CYBLE_SFSYSTEMSERVICE_TIME_RESULT_CHAR_HANDLE;
 563              		.loc 2 119 0
 564 00e8 3B1D     		add	r3, r7, #4
 565 00ea 1A22     		mov	r2, #26
 566 00ec 1A81     		strh	r2, [r3, #8]
 120:lib_BLE/bluetooth.c ****   	tempHandle.value.val = (uint8 *) &sendBufferResult;
 567              		.loc 2 120 0
 568 00ee 3B1D     		add	r3, r7, #4
 569 00f0 294A     		ldr	r2, .L30+24
 570 00f2 1A60     		str	r2, [r3]
 121:lib_BLE/bluetooth.c ****     tempHandle.value.len = 8;
 571              		.loc 2 121 0
 572 00f4 3B1D     		add	r3, r7, #4
 573 00f6 0822     		mov	r2, #8
 574 00f8 9A80     		strh	r2, [r3, #4]
 122:lib_BLE/bluetooth.c ****     CyBle_GattsWriteAttributeValue(&tempHandle,0,&cyBle_connHandle,CYBLE_GATT_DB_LOCALLY_INITIATED 
 575              		.loc 2 122 0
 576 00fa 3A1D     		add	r2, r7, #4
 577 00fc 224B     		ldr	r3, .L30+8
 578 00fe 101C     		mov	r0, r2
 579 0100 0021     		mov	r1, #0
 580 0102 1A1C     		mov	r2, r3
 581 0104 0023     		mov	r3, #0
 582 0106 FFF7FEFF 		bl	CyBle_GattsWriteAttributeValue
 123:lib_BLE/bluetooth.c ****     if (notifycaiton  )
 583              		.loc 2 123 0
 584 010a 204B     		ldr	r3, .L30+12
 585 010c 1B68     		ldr	r3, [r3]
 586 010e 002B     		cmp	r3, #0
 587 0110 0ED0     		beq	.L28
 124:lib_BLE/bluetooth.c ****         CyBle_GattsNotification(cyBle_connHandle,&tempHandle);
 588              		.loc 2 124 0
 589 0112 1D4B     		ldr	r3, .L30+8
 590 0114 391D     		add	r1, r7, #4
 591 0116 1A78     		ldrb	r2, [r3]
 592 0118 5B78     		ldrb	r3, [r3, #1]
 593 011a 1B02     		lsl	r3, r3, #8
 594 011c 1A43     		orr	r2, r3
 595 011e 0023     		mov	r3, #0
 596 0120 1204     		lsl	r2, r2, #16
ARM GAS  C:\Users\Petro\AppData\Local\Temp\cc4k19PF.s 			page 24


 597 0122 120C     		lsr	r2, r2, #16
 598 0124 1B0C     		lsr	r3, r3, #16
 599 0126 1B04     		lsl	r3, r3, #16
 600 0128 1343     		orr	r3, r2
 601 012a 181C     		mov	r0, r3
 602 012c FFF7FEFF 		bl	CyBle_GattsNotification
 603              	.L28:
 125:lib_BLE/bluetooth.c ****         
 126:lib_BLE/bluetooth.c ****     tempHandle.attrHandle = CYBLE_SFSYSTEMSERVICE_SYSTEM_STATUS_CHAR_HANDLE;
 604              		.loc 2 126 0
 605 0130 3B1D     		add	r3, r7, #4
 606 0132 1E22     		mov	r2, #30
 607 0134 1A81     		strh	r2, [r3, #8]
 127:lib_BLE/bluetooth.c ****   	tempHandle.value.val = (uint8 *) &sendBufferStatus;
 608              		.loc 2 127 0
 609 0136 3B1D     		add	r3, r7, #4
 610 0138 184A     		ldr	r2, .L30+28
 611 013a 1A60     		str	r2, [r3]
 128:lib_BLE/bluetooth.c ****     tempHandle.value.len = 7;
 612              		.loc 2 128 0
 613 013c 3B1D     		add	r3, r7, #4
 614 013e 0722     		mov	r2, #7
 615 0140 9A80     		strh	r2, [r3, #4]
 129:lib_BLE/bluetooth.c ****     CyBle_GattsWriteAttributeValue(&tempHandle,0,&cyBle_connHandle,CYBLE_GATT_DB_LOCALLY_INITIATED 
 616              		.loc 2 129 0
 617 0142 3A1D     		add	r2, r7, #4
 618 0144 104B     		ldr	r3, .L30+8
 619 0146 101C     		mov	r0, r2
 620 0148 0021     		mov	r1, #0
 621 014a 1A1C     		mov	r2, r3
 622 014c 0023     		mov	r3, #0
 623 014e FFF7FEFF 		bl	CyBle_GattsWriteAttributeValue
 130:lib_BLE/bluetooth.c ****     if (notifycaiton  )
 624              		.loc 2 130 0
 625 0152 0E4B     		ldr	r3, .L30+12
 626 0154 1B68     		ldr	r3, [r3]
 627 0156 002B     		cmp	r3, #0
 628 0158 0ED0     		beq	.L22
 131:lib_BLE/bluetooth.c ****         CyBle_GattsNotification(cyBle_connHandle,&tempHandle);
 629              		.loc 2 131 0
 630 015a 0B4B     		ldr	r3, .L30+8
 631 015c 391D     		add	r1, r7, #4
 632 015e 1A78     		ldrb	r2, [r3]
 633 0160 5B78     		ldrb	r3, [r3, #1]
 634 0162 1B02     		lsl	r3, r3, #8
 635 0164 1A43     		orr	r2, r3
 636 0166 0023     		mov	r3, #0
 637 0168 1204     		lsl	r2, r2, #16
 638 016a 120C     		lsr	r2, r2, #16
 639 016c 1B0C     		lsr	r3, r3, #16
 640 016e 1B04     		lsl	r3, r3, #16
 641 0170 1343     		orr	r3, r2
 642 0172 181C     		mov	r0, r3
 643 0174 FFF7FEFF 		bl	CyBle_GattsNotification
 644              	.L22:
 132:lib_BLE/bluetooth.c **** }
 645              		.loc 2 132 0
ARM GAS  C:\Users\Petro\AppData\Local\Temp\cc4k19PF.s 			page 25


 646 0178 BD46     		mov	sp, r7
 647 017a 04B0     		add	sp, sp, #16
 648              		@ sp needed
 649 017c 80BD     		pop	{r7, pc}
 650              	.L31:
 651 017e C046     		.align	2
 652              	.L30:
 653 0180 00000000 		.word	cyBle_state
 654 0184 00000000 		.word	sendIdSkier
 655 0188 00000000 		.word	cyBle_connHandle
 656 018c 00000000 		.word	notifycaiton
 657 0190 00000000 		.word	sendBufferStart
 658 0194 00000000 		.word	sendBufferFinish
 659 0198 00000000 		.word	sendBufferResult
 660 019c 00000000 		.word	sendBufferStatus
 661              		.cfi_endproc
 662              	.LFE64:
 663              		.size	updateData, .-updateData
 664              		.section	.text.updateTimeOneSkier,"ax",%progbits
 665              		.align	2
 666              		.code	16
 667              		.thumb_func
 668              		.type	updateTimeOneSkier, %function
 669              	updateTimeOneSkier:
 670              	.LFB65:
 133:lib_BLE/bluetooth.c **** 
 134:lib_BLE/bluetooth.c **** static void updateTimeOneSkier(void)
 135:lib_BLE/bluetooth.c **** {
 671              		.loc 2 135 0
 672              		.cfi_startproc
 673 0000 80B5     		push	{r7, lr}
 674              		.cfi_def_cfa_offset 8
 675              		.cfi_offset 7, -8
 676              		.cfi_offset 14, -4
 677 0002 84B0     		sub	sp, sp, #16
 678              		.cfi_def_cfa_offset 24
 679 0004 00AF     		add	r7, sp, #0
 680              		.cfi_def_cfa_register 7
 136:lib_BLE/bluetooth.c ****     CYBLE_GATTS_HANDLE_VALUE_NTF_T 	tempHandle;
 137:lib_BLE/bluetooth.c ****     
 138:lib_BLE/bluetooth.c ****     if(CyBle_GetState() != CYBLE_STATE_CONNECTED)
 681              		.loc 2 138 0
 682 0006 4C4B     		ldr	r3, .L39
 683 0008 1B78     		ldrb	r3, [r3]
 684 000a 022B     		cmp	r3, #2
 685 000c 00D0     		beq	.LCB570
 686 000e 8FE0     		b	.L32	@long jump
 687              	.LCB570:
 139:lib_BLE/bluetooth.c ****         return;
 140:lib_BLE/bluetooth.c ****     
 141:lib_BLE/bluetooth.c ****     tempHandle.attrHandle = CYBLE_SFSYSTEMSERVICE_ID_CHAR_HANDLE;
 688              		.loc 2 141 0
 689 0010 3B1D     		add	r3, r7, #4
 690 0012 0E22     		mov	r2, #14
 691 0014 1A81     		strh	r2, [r3, #8]
 142:lib_BLE/bluetooth.c ****   	tempHandle.value.val = (uint8 *) &sendIdSkier;
 692              		.loc 2 142 0
ARM GAS  C:\Users\Petro\AppData\Local\Temp\cc4k19PF.s 			page 26


 693 0016 3B1D     		add	r3, r7, #4
 694 0018 484A     		ldr	r2, .L39+4
 695 001a 1A60     		str	r2, [r3]
 143:lib_BLE/bluetooth.c ****     tempHandle.value.len = 2;
 696              		.loc 2 143 0
 697 001c 3B1D     		add	r3, r7, #4
 698 001e 0222     		mov	r2, #2
 699 0020 9A80     		strh	r2, [r3, #4]
 144:lib_BLE/bluetooth.c ****     CyBle_GattsWriteAttributeValue(&tempHandle,0,&cyBle_connHandle,CYBLE_GATT_DB_LOCALLY_INITIATED 
 700              		.loc 2 144 0
 701 0022 3A1D     		add	r2, r7, #4
 702 0024 464B     		ldr	r3, .L39+8
 703 0026 101C     		mov	r0, r2
 704 0028 0021     		mov	r1, #0
 705 002a 1A1C     		mov	r2, r3
 706 002c 0023     		mov	r3, #0
 707 002e FFF7FEFF 		bl	CyBle_GattsWriteAttributeValue
 145:lib_BLE/bluetooth.c ****     if (notifycaiton  )
 708              		.loc 2 145 0
 709 0032 444B     		ldr	r3, .L39+12
 710 0034 1B68     		ldr	r3, [r3]
 711 0036 002B     		cmp	r3, #0
 712 0038 0ED0     		beq	.L35
 146:lib_BLE/bluetooth.c ****         CyBle_GattsNotification(cyBle_connHandle,&tempHandle);
 713              		.loc 2 146 0
 714 003a 414B     		ldr	r3, .L39+8
 715 003c 391D     		add	r1, r7, #4
 716 003e 1A78     		ldrb	r2, [r3]
 717 0040 5B78     		ldrb	r3, [r3, #1]
 718 0042 1B02     		lsl	r3, r3, #8
 719 0044 1A43     		orr	r2, r3
 720 0046 0023     		mov	r3, #0
 721 0048 1204     		lsl	r2, r2, #16
 722 004a 120C     		lsr	r2, r2, #16
 723 004c 1B0C     		lsr	r3, r3, #16
 724 004e 1B04     		lsl	r3, r3, #16
 725 0050 1343     		orr	r3, r2
 726 0052 181C     		mov	r0, r3
 727 0054 FFF7FEFF 		bl	CyBle_GattsNotification
 728              	.L35:
 147:lib_BLE/bluetooth.c ****         
 148:lib_BLE/bluetooth.c ****     tempHandle.attrHandle = CYBLE_SFSYSTEMSERVICE_TIME_START_CHAR_HANDLE;
 729              		.loc 2 148 0
 730 0058 3B1D     		add	r3, r7, #4
 731 005a 1222     		mov	r2, #18
 732 005c 1A81     		strh	r2, [r3, #8]
 149:lib_BLE/bluetooth.c ****   	tempHandle.value.val = (uint8 *) &sendBufferStart;
 733              		.loc 2 149 0
 734 005e 3B1D     		add	r3, r7, #4
 735 0060 394A     		ldr	r2, .L39+16
 736 0062 1A60     		str	r2, [r3]
 150:lib_BLE/bluetooth.c ****     tempHandle.value.len = 8;
 737              		.loc 2 150 0
 738 0064 3B1D     		add	r3, r7, #4
 739 0066 0822     		mov	r2, #8
 740 0068 9A80     		strh	r2, [r3, #4]
 151:lib_BLE/bluetooth.c ****     CyBle_GattsWriteAttributeValue(&tempHandle,0,&cyBle_connHandle,CYBLE_GATT_DB_LOCALLY_INITIATED 
ARM GAS  C:\Users\Petro\AppData\Local\Temp\cc4k19PF.s 			page 27


 741              		.loc 2 151 0
 742 006a 3A1D     		add	r2, r7, #4
 743 006c 344B     		ldr	r3, .L39+8
 744 006e 101C     		mov	r0, r2
 745 0070 0021     		mov	r1, #0
 746 0072 1A1C     		mov	r2, r3
 747 0074 0023     		mov	r3, #0
 748 0076 FFF7FEFF 		bl	CyBle_GattsWriteAttributeValue
 152:lib_BLE/bluetooth.c ****     if (notifycaiton  )
 749              		.loc 2 152 0
 750 007a 324B     		ldr	r3, .L39+12
 751 007c 1B68     		ldr	r3, [r3]
 752 007e 002B     		cmp	r3, #0
 753 0080 0ED0     		beq	.L36
 153:lib_BLE/bluetooth.c ****         CyBle_GattsNotification(cyBle_connHandle,&tempHandle);
 754              		.loc 2 153 0
 755 0082 2F4B     		ldr	r3, .L39+8
 756 0084 391D     		add	r1, r7, #4
 757 0086 1A78     		ldrb	r2, [r3]
 758 0088 5B78     		ldrb	r3, [r3, #1]
 759 008a 1B02     		lsl	r3, r3, #8
 760 008c 1A43     		orr	r2, r3
 761 008e 0023     		mov	r3, #0
 762 0090 1204     		lsl	r2, r2, #16
 763 0092 120C     		lsr	r2, r2, #16
 764 0094 1B0C     		lsr	r3, r3, #16
 765 0096 1B04     		lsl	r3, r3, #16
 766 0098 1343     		orr	r3, r2
 767 009a 181C     		mov	r0, r3
 768 009c FFF7FEFF 		bl	CyBle_GattsNotification
 769              	.L36:
 154:lib_BLE/bluetooth.c ****     
 155:lib_BLE/bluetooth.c ****     tempHandle.attrHandle = CYBLE_SFSYSTEMSERVICE_TIME_FINISH_CHAR_HANDLE;
 770              		.loc 2 155 0
 771 00a0 3B1D     		add	r3, r7, #4
 772 00a2 1622     		mov	r2, #22
 773 00a4 1A81     		strh	r2, [r3, #8]
 156:lib_BLE/bluetooth.c ****   	tempHandle.value.val = (uint8 *) &sendBufferFinish;
 774              		.loc 2 156 0
 775 00a6 3B1D     		add	r3, r7, #4
 776 00a8 284A     		ldr	r2, .L39+20
 777 00aa 1A60     		str	r2, [r3]
 157:lib_BLE/bluetooth.c ****     tempHandle.value.len = 8;
 778              		.loc 2 157 0
 779 00ac 3B1D     		add	r3, r7, #4
 780 00ae 0822     		mov	r2, #8
 781 00b0 9A80     		strh	r2, [r3, #4]
 158:lib_BLE/bluetooth.c ****     CyBle_GattsWriteAttributeValue(&tempHandle,0,&cyBle_connHandle,CYBLE_GATT_DB_LOCALLY_INITIATED 
 782              		.loc 2 158 0
 783 00b2 3A1D     		add	r2, r7, #4
 784 00b4 224B     		ldr	r3, .L39+8
 785 00b6 101C     		mov	r0, r2
 786 00b8 0021     		mov	r1, #0
 787 00ba 1A1C     		mov	r2, r3
 788 00bc 0023     		mov	r3, #0
 789 00be FFF7FEFF 		bl	CyBle_GattsWriteAttributeValue
 159:lib_BLE/bluetooth.c ****     if (notifycaiton  )
ARM GAS  C:\Users\Petro\AppData\Local\Temp\cc4k19PF.s 			page 28


 790              		.loc 2 159 0
 791 00c2 204B     		ldr	r3, .L39+12
 792 00c4 1B68     		ldr	r3, [r3]
 793 00c6 002B     		cmp	r3, #0
 794 00c8 0ED0     		beq	.L37
 160:lib_BLE/bluetooth.c ****         CyBle_GattsNotification(cyBle_connHandle,&tempHandle); 
 795              		.loc 2 160 0
 796 00ca 1D4B     		ldr	r3, .L39+8
 797 00cc 391D     		add	r1, r7, #4
 798 00ce 1A78     		ldrb	r2, [r3]
 799 00d0 5B78     		ldrb	r3, [r3, #1]
 800 00d2 1B02     		lsl	r3, r3, #8
 801 00d4 1A43     		orr	r2, r3
 802 00d6 0023     		mov	r3, #0
 803 00d8 1204     		lsl	r2, r2, #16
 804 00da 120C     		lsr	r2, r2, #16
 805 00dc 1B0C     		lsr	r3, r3, #16
 806 00de 1B04     		lsl	r3, r3, #16
 807 00e0 1343     		orr	r3, r2
 808 00e2 181C     		mov	r0, r3
 809 00e4 FFF7FEFF 		bl	CyBle_GattsNotification
 810              	.L37:
 161:lib_BLE/bluetooth.c ****     
 162:lib_BLE/bluetooth.c ****     tempHandle.attrHandle = CYBLE_SFSYSTEMSERVICE_TIME_RESULT_CHAR_HANDLE;
 811              		.loc 2 162 0
 812 00e8 3B1D     		add	r3, r7, #4
 813 00ea 1A22     		mov	r2, #26
 814 00ec 1A81     		strh	r2, [r3, #8]
 163:lib_BLE/bluetooth.c ****   	tempHandle.value.val = (uint8 *) &sendBufferResult;
 815              		.loc 2 163 0
 816 00ee 3B1D     		add	r3, r7, #4
 817 00f0 174A     		ldr	r2, .L39+24
 818 00f2 1A60     		str	r2, [r3]
 164:lib_BLE/bluetooth.c ****     tempHandle.value.len = 8;
 819              		.loc 2 164 0
 820 00f4 3B1D     		add	r3, r7, #4
 821 00f6 0822     		mov	r2, #8
 822 00f8 9A80     		strh	r2, [r3, #4]
 165:lib_BLE/bluetooth.c ****     CyBle_GattsWriteAttributeValue(&tempHandle,0,&cyBle_connHandle,CYBLE_GATT_DB_LOCALLY_INITIATED 
 823              		.loc 2 165 0
 824 00fa 3A1D     		add	r2, r7, #4
 825 00fc 104B     		ldr	r3, .L39+8
 826 00fe 101C     		mov	r0, r2
 827 0100 0021     		mov	r1, #0
 828 0102 1A1C     		mov	r2, r3
 829 0104 0023     		mov	r3, #0
 830 0106 FFF7FEFF 		bl	CyBle_GattsWriteAttributeValue
 166:lib_BLE/bluetooth.c ****     if (notifycaiton  )
 831              		.loc 2 166 0
 832 010a 0E4B     		ldr	r3, .L39+12
 833 010c 1B68     		ldr	r3, [r3]
 834 010e 002B     		cmp	r3, #0
 835 0110 0ED0     		beq	.L32
 167:lib_BLE/bluetooth.c ****         CyBle_GattsNotification(cyBle_connHandle,&tempHandle);
 836              		.loc 2 167 0
 837 0112 0B4B     		ldr	r3, .L39+8
 838 0114 391D     		add	r1, r7, #4
ARM GAS  C:\Users\Petro\AppData\Local\Temp\cc4k19PF.s 			page 29


 839 0116 1A78     		ldrb	r2, [r3]
 840 0118 5B78     		ldrb	r3, [r3, #1]
 841 011a 1B02     		lsl	r3, r3, #8
 842 011c 1A43     		orr	r2, r3
 843 011e 0023     		mov	r3, #0
 844 0120 1204     		lsl	r2, r2, #16
 845 0122 120C     		lsr	r2, r2, #16
 846 0124 1B0C     		lsr	r3, r3, #16
 847 0126 1B04     		lsl	r3, r3, #16
 848 0128 1343     		orr	r3, r2
 849 012a 181C     		mov	r0, r3
 850 012c FFF7FEFF 		bl	CyBle_GattsNotification
 851              	.L32:
 168:lib_BLE/bluetooth.c **** }
 852              		.loc 2 168 0
 853 0130 BD46     		mov	sp, r7
 854 0132 04B0     		add	sp, sp, #16
 855              		@ sp needed
 856 0134 80BD     		pop	{r7, pc}
 857              	.L40:
 858 0136 C046     		.align	2
 859              	.L39:
 860 0138 00000000 		.word	cyBle_state
 861 013c 00000000 		.word	sendIdSkier
 862 0140 00000000 		.word	cyBle_connHandle
 863 0144 00000000 		.word	notifycaiton
 864 0148 00000000 		.word	sendBufferStart
 865 014c 00000000 		.word	sendBufferFinish
 866 0150 00000000 		.word	sendBufferResult
 867              		.cfi_endproc
 868              	.LFE65:
 869              		.size	updateTimeOneSkier, .-updateTimeOneSkier
 870              		.section	.rodata
 871 0009 000000   		.align	2
 872              	.LC22:
 873 000c 496D2072 		.ascii	"Im ready\012\015\000"
 873      65616479 
 873      0A0D00
 874 0017 00       		.section	.text.BLE_start,"ax",%progbits
 875              		.align	2
 876              		.global	BLE_start
 877              		.code	16
 878              		.thumb_func
 879              		.type	BLE_start, %function
 880              	BLE_start:
 881              	.LFB66:
 169:lib_BLE/bluetooth.c **** 
 170:lib_BLE/bluetooth.c **** void BLE_start(void)
 171:lib_BLE/bluetooth.c **** {
 882              		.loc 2 171 0
 883              		.cfi_startproc
 884 0000 80B5     		push	{r7, lr}
 885              		.cfi_def_cfa_offset 8
 886              		.cfi_offset 7, -8
 887              		.cfi_offset 14, -4
 888 0002 00AF     		add	r7, sp, #0
 889              		.cfi_def_cfa_register 7
ARM GAS  C:\Users\Petro\AppData\Local\Temp\cc4k19PF.s 			page 30


 172:lib_BLE/bluetooth.c ****     CyBle_Start(BleCallBack);
 890              		.loc 2 172 0
 891 0004 054B     		ldr	r3, .L42
 892 0006 181C     		mov	r0, r3
 893 0008 FFF7FEFF 		bl	CyBle_Start
 173:lib_BLE/bluetooth.c ****     
 174:lib_BLE/bluetooth.c ****     #ifdef DEBUG_BLE
 175:lib_BLE/bluetooth.c ****         SW_UART_DEBUG_Start();
 894              		.loc 2 175 0
 895 000c FFF7FEFF 		bl	SW_UART_DEBUG_Start
 176:lib_BLE/bluetooth.c ****         SW_UART_DEBUG_PutString("Im ready\n\r");
 896              		.loc 2 176 0
 897 0010 034B     		ldr	r3, .L42+4
 898 0012 181C     		mov	r0, r3
 899 0014 FFF7FEFF 		bl	SW_UART_DEBUG_PutString
 177:lib_BLE/bluetooth.c ****     #endif
 178:lib_BLE/bluetooth.c **** }
 900              		.loc 2 178 0
 901 0018 BD46     		mov	sp, r7
 902              		@ sp needed
 903 001a 80BD     		pop	{r7, pc}
 904              	.L43:
 905              		.align	2
 906              	.L42:
 907 001c 00000000 		.word	BleCallBack
 908 0020 0C000000 		.word	.LC22
 909              		.cfi_endproc
 910              	.LFE66:
 911              		.size	BLE_start, .-BLE_start
 912              		.section	.text.BLE_processEvents,"ax",%progbits
 913              		.align	2
 914              		.global	BLE_processEvents
 915              		.code	16
 916              		.thumb_func
 917              		.type	BLE_processEvents, %function
 918              	BLE_processEvents:
 919              	.LFB67:
 179:lib_BLE/bluetooth.c **** 
 180:lib_BLE/bluetooth.c **** 
 181:lib_BLE/bluetooth.c **** void BLE_processEvents(void)
 182:lib_BLE/bluetooth.c **** {
 920              		.loc 2 182 0
 921              		.cfi_startproc
 922 0000 80B5     		push	{r7, lr}
 923              		.cfi_def_cfa_offset 8
 924              		.cfi_offset 7, -8
 925              		.cfi_offset 14, -4
 926 0002 00AF     		add	r7, sp, #0
 927              		.cfi_def_cfa_register 7
 183:lib_BLE/bluetooth.c ****     CyBle_ProcessEvents();
 928              		.loc 2 183 0
 929 0004 FFF7FEFF 		bl	CyBle_ProcessEvents
 184:lib_BLE/bluetooth.c ****     CyBle_EnterLPM(CYBLE_BLESS_DEEPSLEEP);
 930              		.loc 2 184 0
 931 0008 0320     		mov	r0, #3
 932 000a FFF7FEFF 		bl	CyBle_EnterLPM
 185:lib_BLE/bluetooth.c **** }
ARM GAS  C:\Users\Petro\AppData\Local\Temp\cc4k19PF.s 			page 31


 933              		.loc 2 185 0
 934 000e BD46     		mov	sp, r7
 935              		@ sp needed
 936 0010 80BD     		pop	{r7, pc}
 937              		.cfi_endproc
 938              	.LFE67:
 939              		.size	BLE_processEvents, .-BLE_processEvents
 940 0012 C046     		.section	.text.BLE_getUnixTime,"ax",%progbits
 941              		.align	2
 942              		.global	BLE_getUnixTime
 943              		.code	16
 944              		.thumb_func
 945              		.type	BLE_getUnixTime, %function
 946              	BLE_getUnixTime:
 947              	.LFB68:
 186:lib_BLE/bluetooth.c **** 
 187:lib_BLE/bluetooth.c **** 
 188:lib_BLE/bluetooth.c **** uint32_t BLE_getUnixTime(void)
 189:lib_BLE/bluetooth.c **** {
 948              		.loc 2 189 0
 949              		.cfi_startproc
 950 0000 80B5     		push	{r7, lr}
 951              		.cfi_def_cfa_offset 8
 952              		.cfi_offset 7, -8
 953              		.cfi_offset 14, -4
 954 0002 00AF     		add	r7, sp, #0
 955              		.cfi_def_cfa_register 7
 190:lib_BLE/bluetooth.c ****     if(bleUnixTime == 0)
 956              		.loc 2 190 0
 957 0004 054B     		ldr	r3, .L48
 958 0006 1B68     		ldr	r3, [r3]
 959 0008 002B     		cmp	r3, #0
 960 000a 01D1     		bne	.L46
 191:lib_BLE/bluetooth.c ****     {
 192:lib_BLE/bluetooth.c ****         return 0;
 961              		.loc 2 192 0
 962 000c 0023     		mov	r3, #0
 963 000e 01E0     		b	.L47
 964              	.L46:
 193:lib_BLE/bluetooth.c ****     }
 194:lib_BLE/bluetooth.c ****     else
 195:lib_BLE/bluetooth.c ****     {
 196:lib_BLE/bluetooth.c ****         return bleUnixTime;
 965              		.loc 2 196 0
 966 0010 024B     		ldr	r3, .L48
 967 0012 1B68     		ldr	r3, [r3]
 968              	.L47:
 197:lib_BLE/bluetooth.c ****     }
 198:lib_BLE/bluetooth.c **** }
 969              		.loc 2 198 0
 970 0014 181C     		mov	r0, r3
 971 0016 BD46     		mov	sp, r7
 972              		@ sp needed
 973 0018 80BD     		pop	{r7, pc}
 974              	.L49:
 975 001a C046     		.align	2
 976              	.L48:
ARM GAS  C:\Users\Petro\AppData\Local\Temp\cc4k19PF.s 			page 32


 977 001c 00000000 		.word	bleUnixTime
 978              		.cfi_endproc
 979              	.LFE68:
 980              		.size	BLE_getUnixTime, .-BLE_getUnixTime
 981              		.global	__aeabi_uldivmod
 982              		.section	.text.BLE_sendOneSkierTime,"ax",%progbits
 983              		.align	2
 984              		.global	BLE_sendOneSkierTime
 985              		.code	16
 986              		.thumb_func
 987              		.type	BLE_sendOneSkierTime, %function
 988              	BLE_sendOneSkierTime:
 989              	.LFB69:
 199:lib_BLE/bluetooth.c **** 
 200:lib_BLE/bluetooth.c **** void BLE_sendOneSkierTime(skierDB_El *data)
 201:lib_BLE/bluetooth.c **** {   
 990              		.loc 2 201 0
 991              		.cfi_startproc
 992 0000 90B5     		push	{r4, r7, lr}
 993              		.cfi_def_cfa_offset 12
 994              		.cfi_offset 4, -12
 995              		.cfi_offset 7, -8
 996              		.cfi_offset 14, -4
 997 0002 8BB0     		sub	sp, sp, #44
 998              		.cfi_def_cfa_offset 56
 999 0004 02AF     		add	r7, sp, #8
 1000              		.cfi_def_cfa 7, 48
 1001 0006 7860     		str	r0, [r7, #4]
 202:lib_BLE/bluetooth.c ****     RTC_DATE_TIME time;
 203:lib_BLE/bluetooth.c ****     
 204:lib_BLE/bluetooth.c ****     /*read unix time*/
 205:lib_BLE/bluetooth.c ****     RTC_UnixToDateTime(&time, data->unixStartSkier, RTC_24_HOURS_FORMAT);
 1002              		.loc 2 205 0
 1003 0008 7B68     		ldr	r3, [r7, #4]
 1004 000a 5C68     		ldr	r4, [r3, #4]
 1005 000c 1B68     		ldr	r3, [r3]
 1006 000e 0C22     		mov	r2, #12
 1007 0010 B918     		add	r1, r7, r2
 1008 0012 0022     		mov	r2, #0
 1009 0014 0092     		str	r2, [sp]
 1010 0016 081C     		mov	r0, r1
 1011 0018 1A1C     		mov	r2, r3
 1012 001a 231C     		mov	r3, r4
 1013 001c FFF7FEFF 		bl	RTC_UnixToDateTime
 206:lib_BLE/bluetooth.c ****     sendBufferStart[BLE_SEND_HOUR] = RTC_GetHours(time.time);
 1014              		.loc 2 206 0
 1015 0020 0C23     		mov	r3, #12
 1016 0022 FB18     		add	r3, r7, r3
 1017 0024 1B68     		ldr	r3, [r3]
 1018 0026 181C     		mov	r0, r3
 1019 0028 FFF7FEFF 		bl	RTC_GetHours
 1020 002c 031C     		mov	r3, r0
 1021 002e 9AB2     		uxth	r2, r3
 1022 0030 3B4B     		ldr	r3, .L51
 1023 0032 1A80     		strh	r2, [r3]
 207:lib_BLE/bluetooth.c ****     sendBufferStart[BLE_SEND_MIN] = RTC_GetMinutes(time.time);
 1024              		.loc 2 207 0
ARM GAS  C:\Users\Petro\AppData\Local\Temp\cc4k19PF.s 			page 33


 1025 0034 0C23     		mov	r3, #12
 1026 0036 FB18     		add	r3, r7, r3
 1027 0038 1B68     		ldr	r3, [r3]
 1028 003a 181C     		mov	r0, r3
 1029 003c FFF7FEFF 		bl	RTC_GetMinutes
 1030 0040 031C     		mov	r3, r0
 1031 0042 9AB2     		uxth	r2, r3
 1032 0044 364B     		ldr	r3, .L51
 1033 0046 5A80     		strh	r2, [r3, #2]
 208:lib_BLE/bluetooth.c ****     sendBufferStart[BLE_SEND_SEC] = RTC_GetSecond(time.time);
 1034              		.loc 2 208 0
 1035 0048 0C23     		mov	r3, #12
 1036 004a FB18     		add	r3, r7, r3
 1037 004c 1B68     		ldr	r3, [r3]
 1038 004e 181C     		mov	r0, r3
 1039 0050 FFF7FEFF 		bl	RTC_GetSecond
 1040 0054 031C     		mov	r3, r0
 1041 0056 9AB2     		uxth	r2, r3
 1042 0058 314B     		ldr	r3, .L51
 1043 005a 9A80     		strh	r2, [r3, #4]
 209:lib_BLE/bluetooth.c ****     sendBufferStart[BLE_SEND_MS] = data->millsStartSkier;
 1044              		.loc 2 209 0
 1045 005c 7B68     		ldr	r3, [r7, #4]
 1046 005e 1A89     		ldrh	r2, [r3, #8]
 1047 0060 2F4B     		ldr	r3, .L51
 1048 0062 DA80     		strh	r2, [r3, #6]
 210:lib_BLE/bluetooth.c ****     
 211:lib_BLE/bluetooth.c ****     RTC_UnixToDateTime(&time, data->unixFinishSkier, RTC_24_HOURS_FORMAT);
 1049              		.loc 2 211 0
 1050 0064 7B68     		ldr	r3, [r7, #4]
 1051 0066 5C69     		ldr	r4, [r3, #20]
 1052 0068 1B69     		ldr	r3, [r3, #16]
 1053 006a 0C22     		mov	r2, #12
 1054 006c B918     		add	r1, r7, r2
 1055 006e 0022     		mov	r2, #0
 1056 0070 0092     		str	r2, [sp]
 1057 0072 081C     		mov	r0, r1
 1058 0074 1A1C     		mov	r2, r3
 1059 0076 231C     		mov	r3, r4
 1060 0078 FFF7FEFF 		bl	RTC_UnixToDateTime
 212:lib_BLE/bluetooth.c ****     sendBufferFinish[BLE_SEND_HOUR] = RTC_GetHours(time.time);
 1061              		.loc 2 212 0
 1062 007c 0C23     		mov	r3, #12
 1063 007e FB18     		add	r3, r7, r3
 1064 0080 1B68     		ldr	r3, [r3]
 1065 0082 181C     		mov	r0, r3
 1066 0084 FFF7FEFF 		bl	RTC_GetHours
 1067 0088 031C     		mov	r3, r0
 1068 008a 9AB2     		uxth	r2, r3
 1069 008c 254B     		ldr	r3, .L51+4
 1070 008e 1A80     		strh	r2, [r3]
 213:lib_BLE/bluetooth.c ****     sendBufferFinish[BLE_SEND_MIN] = RTC_GetMinutes(time.time);
 1071              		.loc 2 213 0
 1072 0090 0C23     		mov	r3, #12
 1073 0092 FB18     		add	r3, r7, r3
 1074 0094 1B68     		ldr	r3, [r3]
 1075 0096 181C     		mov	r0, r3
ARM GAS  C:\Users\Petro\AppData\Local\Temp\cc4k19PF.s 			page 34


 1076 0098 FFF7FEFF 		bl	RTC_GetMinutes
 1077 009c 031C     		mov	r3, r0
 1078 009e 9AB2     		uxth	r2, r3
 1079 00a0 204B     		ldr	r3, .L51+4
 1080 00a2 5A80     		strh	r2, [r3, #2]
 214:lib_BLE/bluetooth.c ****     sendBufferFinish[BLE_SEND_SEC] = RTC_GetSecond(time.time);
 1081              		.loc 2 214 0
 1082 00a4 0C23     		mov	r3, #12
 1083 00a6 FB18     		add	r3, r7, r3
 1084 00a8 1B68     		ldr	r3, [r3]
 1085 00aa 181C     		mov	r0, r3
 1086 00ac FFF7FEFF 		bl	RTC_GetSecond
 1087 00b0 031C     		mov	r3, r0
 1088 00b2 9AB2     		uxth	r2, r3
 1089 00b4 1B4B     		ldr	r3, .L51+4
 1090 00b6 9A80     		strh	r2, [r3, #4]
 215:lib_BLE/bluetooth.c ****     sendBufferFinish[BLE_SEND_MS] = data->millsFinishSkier;
 1091              		.loc 2 215 0
 1092 00b8 7B68     		ldr	r3, [r7, #4]
 1093 00ba 1A8B     		ldrh	r2, [r3, #24]
 1094 00bc 194B     		ldr	r3, .L51+4
 1095 00be DA80     		strh	r2, [r3, #6]
 216:lib_BLE/bluetooth.c ****     
 217:lib_BLE/bluetooth.c ****     uint16_t minResult = (data->secondsWay)/60;
 1096              		.loc 2 217 0
 1097 00c0 7B68     		ldr	r3, [r7, #4]
 1098 00c2 5C6A     		ldr	r4, [r3, #36]
 1099 00c4 1B6A     		ldr	r3, [r3, #32]
 1100 00c6 181C     		mov	r0, r3
 1101 00c8 211C     		mov	r1, r4
 1102 00ca 3C22     		mov	r2, #60
 1103 00cc 0023     		mov	r3, #0
 1104 00ce FFF7FEFF 		bl	__aeabi_uldivmod
 1105 00d2 031C     		mov	r3, r0
 1106 00d4 0C1C     		mov	r4, r1
 1107 00d6 191C     		mov	r1, r3
 1108 00d8 221C     		mov	r2, r4
 1109 00da 1E23     		mov	r3, #30
 1110 00dc FB18     		add	r3, r7, r3
 1111 00de 0A1C     		add	r2, r1, #0
 1112 00e0 1A80     		strh	r2, [r3]
 218:lib_BLE/bluetooth.c ****     sendBufferResult[BLE_SEND_HOUR] = 0;
 1113              		.loc 2 218 0
 1114 00e2 114B     		ldr	r3, .L51+8
 1115 00e4 0022     		mov	r2, #0
 1116 00e6 1A80     		strh	r2, [r3]
 219:lib_BLE/bluetooth.c ****     sendBufferResult[BLE_SEND_MIN] = minResult;
 1117              		.loc 2 219 0
 1118 00e8 0F4B     		ldr	r3, .L51+8
 1119 00ea 1E22     		mov	r2, #30
 1120 00ec BA18     		add	r2, r7, r2
 1121 00ee 1288     		ldrh	r2, [r2]
 1122 00f0 5A80     		strh	r2, [r3, #2]
 220:lib_BLE/bluetooth.c ****     sendBufferResult[BLE_SEND_SEC] = (data->secondsWay) - minResult*60;
 1123              		.loc 2 220 0
 1124 00f2 7B68     		ldr	r3, [r7, #4]
 1125 00f4 5C6A     		ldr	r4, [r3, #36]
ARM GAS  C:\Users\Petro\AppData\Local\Temp\cc4k19PF.s 			page 35


 1126 00f6 1B6A     		ldr	r3, [r3, #32]
 1127 00f8 9AB2     		uxth	r2, r3
 1128 00fa 1E23     		mov	r3, #30
 1129 00fc FB18     		add	r3, r7, r3
 1130 00fe 1B88     		ldrh	r3, [r3]
 1131 0100 3C21     		mov	r1, #60
 1132 0102 4B43     		mul	r3, r1
 1133 0104 9BB2     		uxth	r3, r3
 1134 0106 D31A     		sub	r3, r2, r3
 1135 0108 9AB2     		uxth	r2, r3
 1136 010a 074B     		ldr	r3, .L51+8
 1137 010c 9A80     		strh	r2, [r3, #4]
 221:lib_BLE/bluetooth.c ****     sendBufferResult[BLE_SEND_MS] = data->millsWay;
 1138              		.loc 2 221 0
 1139 010e 7B68     		ldr	r3, [r7, #4]
 1140 0110 1A8D     		ldrh	r2, [r3, #40]
 1141 0112 054B     		ldr	r3, .L51+8
 1142 0114 DA80     		strh	r2, [r3, #6]
 222:lib_BLE/bluetooth.c ****     
 223:lib_BLE/bluetooth.c ****     //updateTimeOneSkier();
 224:lib_BLE/bluetooth.c ****     updateData();
 1143              		.loc 2 224 0
 1144 0116 FFF7FEFF 		bl	updateData
 225:lib_BLE/bluetooth.c **** }
 1145              		.loc 2 225 0
 1146 011a BD46     		mov	sp, r7
 1147 011c 09B0     		add	sp, sp, #36
 1148              		@ sp needed
 1149 011e 90BD     		pop	{r4, r7, pc}
 1150              	.L52:
 1151              		.align	2
 1152              	.L51:
 1153 0120 00000000 		.word	sendBufferStart
 1154 0124 00000000 		.word	sendBufferFinish
 1155 0128 00000000 		.word	sendBufferResult
 1156              		.cfi_endproc
 1157              	.LFE69:
 1158              		.size	BLE_sendOneSkierTime, .-BLE_sendOneSkierTime
 1159              		.section	.text.BLE_sendOneSkierTimeStart,"ax",%progbits
 1160              		.align	2
 1161              		.global	BLE_sendOneSkierTimeStart
 1162              		.code	16
 1163              		.thumb_func
 1164              		.type	BLE_sendOneSkierTimeStart, %function
 1165              	BLE_sendOneSkierTimeStart:
 1166              	.LFB70:
 226:lib_BLE/bluetooth.c **** 
 227:lib_BLE/bluetooth.c **** void BLE_sendOneSkierTimeStart(uint64_t unixTime, uint16_t mills)
 228:lib_BLE/bluetooth.c **** {
 1167              		.loc 2 228 0
 1168              		.cfi_startproc
 1169 0000 90B5     		push	{r4, r7, lr}
 1170              		.cfi_def_cfa_offset 12
 1171              		.cfi_offset 4, -12
 1172              		.cfi_offset 7, -8
 1173              		.cfi_offset 14, -4
 1174 0002 8BB0     		sub	sp, sp, #44
ARM GAS  C:\Users\Petro\AppData\Local\Temp\cc4k19PF.s 			page 36


 1175              		.cfi_def_cfa_offset 56
 1176 0004 02AF     		add	r7, sp, #8
 1177              		.cfi_def_cfa 7, 48
 1178 0006 B860     		str	r0, [r7, #8]
 1179 0008 F960     		str	r1, [r7, #12]
 1180 000a BB1D     		add	r3, r7, #6
 1181 000c 1A80     		strh	r2, [r3]
 229:lib_BLE/bluetooth.c ****     RTC_DATE_TIME time;
 230:lib_BLE/bluetooth.c ****     
 231:lib_BLE/bluetooth.c ****     /*read unix time*/
 232:lib_BLE/bluetooth.c ****     RTC_UnixToDateTime(&time, unixTime, RTC_24_HOURS_FORMAT);
 1182              		.loc 2 232 0
 1183 000e 1023     		mov	r3, #16
 1184 0010 F918     		add	r1, r7, r3
 1185 0012 BB68     		ldr	r3, [r7, #8]
 1186 0014 FC68     		ldr	r4, [r7, #12]
 1187 0016 0022     		mov	r2, #0
 1188 0018 0092     		str	r2, [sp]
 1189 001a 081C     		mov	r0, r1
 1190 001c 1A1C     		mov	r2, r3
 1191 001e 231C     		mov	r3, r4
 1192 0020 FFF7FEFF 		bl	RTC_UnixToDateTime
 233:lib_BLE/bluetooth.c ****     sendBufferStart[0] = RTC_GetHours(time.time);
 1193              		.loc 2 233 0
 1194 0024 1023     		mov	r3, #16
 1195 0026 FB18     		add	r3, r7, r3
 1196 0028 1B68     		ldr	r3, [r3]
 1197 002a 181C     		mov	r0, r3
 1198 002c FFF7FEFF 		bl	RTC_GetHours
 1199 0030 031C     		mov	r3, r0
 1200 0032 9AB2     		uxth	r2, r3
 1201 0034 1B4B     		ldr	r3, .L54
 1202 0036 1A80     		strh	r2, [r3]
 234:lib_BLE/bluetooth.c ****     sendBufferStart[1] = RTC_GetMinutes(time.time);
 1203              		.loc 2 234 0
 1204 0038 1023     		mov	r3, #16
 1205 003a FB18     		add	r3, r7, r3
 1206 003c 1B68     		ldr	r3, [r3]
 1207 003e 181C     		mov	r0, r3
 1208 0040 FFF7FEFF 		bl	RTC_GetMinutes
 1209 0044 031C     		mov	r3, r0
 1210 0046 9AB2     		uxth	r2, r3
 1211 0048 164B     		ldr	r3, .L54
 1212 004a 5A80     		strh	r2, [r3, #2]
 235:lib_BLE/bluetooth.c ****     sendBufferStart[2] = RTC_GetSecond(time.time);
 1213              		.loc 2 235 0
 1214 004c 1023     		mov	r3, #16
 1215 004e FB18     		add	r3, r7, r3
 1216 0050 1B68     		ldr	r3, [r3]
 1217 0052 181C     		mov	r0, r3
 1218 0054 FFF7FEFF 		bl	RTC_GetSecond
 1219 0058 031C     		mov	r3, r0
 1220 005a 9AB2     		uxth	r2, r3
 1221 005c 114B     		ldr	r3, .L54
 1222 005e 9A80     		strh	r2, [r3, #4]
 236:lib_BLE/bluetooth.c ****     sendBufferStart[3] = mills;
 1223              		.loc 2 236 0
ARM GAS  C:\Users\Petro\AppData\Local\Temp\cc4k19PF.s 			page 37


 1224 0060 104B     		ldr	r3, .L54
 1225 0062 BA1D     		add	r2, r7, #6
 1226 0064 1288     		ldrh	r2, [r2]
 1227 0066 DA80     		strh	r2, [r3, #6]
 237:lib_BLE/bluetooth.c ****     
 238:lib_BLE/bluetooth.c ****     sendBufferFinish[0] = 0;
 1228              		.loc 2 238 0
 1229 0068 0F4B     		ldr	r3, .L54+4
 1230 006a 0022     		mov	r2, #0
 1231 006c 1A80     		strh	r2, [r3]
 239:lib_BLE/bluetooth.c ****     sendBufferFinish[1] = 0;
 1232              		.loc 2 239 0
 1233 006e 0E4B     		ldr	r3, .L54+4
 1234 0070 0022     		mov	r2, #0
 1235 0072 5A80     		strh	r2, [r3, #2]
 240:lib_BLE/bluetooth.c ****     sendBufferFinish[2] = 0;
 1236              		.loc 2 240 0
 1237 0074 0C4B     		ldr	r3, .L54+4
 1238 0076 0022     		mov	r2, #0
 1239 0078 9A80     		strh	r2, [r3, #4]
 241:lib_BLE/bluetooth.c ****     sendBufferFinish[3] = 0;
 1240              		.loc 2 241 0
 1241 007a 0B4B     		ldr	r3, .L54+4
 1242 007c 0022     		mov	r2, #0
 1243 007e DA80     		strh	r2, [r3, #6]
 242:lib_BLE/bluetooth.c ****     
 243:lib_BLE/bluetooth.c ****     sendBufferResult[0] = 0;
 1244              		.loc 2 243 0
 1245 0080 0A4B     		ldr	r3, .L54+8
 1246 0082 0022     		mov	r2, #0
 1247 0084 1A80     		strh	r2, [r3]
 244:lib_BLE/bluetooth.c ****     sendBufferResult[1] = 0;
 1248              		.loc 2 244 0
 1249 0086 094B     		ldr	r3, .L54+8
 1250 0088 0022     		mov	r2, #0
 1251 008a 5A80     		strh	r2, [r3, #2]
 245:lib_BLE/bluetooth.c ****     sendBufferResult[2] = 0;
 1252              		.loc 2 245 0
 1253 008c 074B     		ldr	r3, .L54+8
 1254 008e 0022     		mov	r2, #0
 1255 0090 9A80     		strh	r2, [r3, #4]
 246:lib_BLE/bluetooth.c ****     sendBufferResult[3] = 0;
 1256              		.loc 2 246 0
 1257 0092 064B     		ldr	r3, .L54+8
 1258 0094 0022     		mov	r2, #0
 1259 0096 DA80     		strh	r2, [r3, #6]
 247:lib_BLE/bluetooth.c ****     
 248:lib_BLE/bluetooth.c ****     //updateTimeOneSkier();
 249:lib_BLE/bluetooth.c ****     updateData();
 1260              		.loc 2 249 0
 1261 0098 FFF7FEFF 		bl	updateData
 250:lib_BLE/bluetooth.c **** }
 1262              		.loc 2 250 0
 1263 009c BD46     		mov	sp, r7
 1264 009e 09B0     		add	sp, sp, #36
 1265              		@ sp needed
 1266 00a0 90BD     		pop	{r4, r7, pc}
ARM GAS  C:\Users\Petro\AppData\Local\Temp\cc4k19PF.s 			page 38


 1267              	.L55:
 1268 00a2 C046     		.align	2
 1269              	.L54:
 1270 00a4 00000000 		.word	sendBufferStart
 1271 00a8 00000000 		.word	sendBufferFinish
 1272 00ac 00000000 		.word	sendBufferResult
 1273              		.cfi_endproc
 1274              	.LFE70:
 1275              		.size	BLE_sendOneSkierTimeStart, .-BLE_sendOneSkierTimeStart
 1276              		.section	.text.BLE_sendAllSkierTime,"ax",%progbits
 1277              		.align	2
 1278              		.global	BLE_sendAllSkierTime
 1279              		.code	16
 1280              		.thumb_func
 1281              		.type	BLE_sendAllSkierTime, %function
 1282              	BLE_sendAllSkierTime:
 1283              	.LFB71:
 251:lib_BLE/bluetooth.c **** 
 252:lib_BLE/bluetooth.c **** 
 253:lib_BLE/bluetooth.c **** void BLE_sendAllSkierTime(uint16_t IdSkier,uint16_t sendStartTime[],uint16_t sendFinishTime[],
 254:lib_BLE/bluetooth.c ****                           uint16_t sendResultTime[],uint8_t sendStatus[])
 255:lib_BLE/bluetooth.c **** {
 1284              		.loc 2 255 0
 1285              		.cfi_startproc
 1286 0000 80B5     		push	{r7, lr}
 1287              		.cfi_def_cfa_offset 8
 1288              		.cfi_offset 7, -8
 1289              		.cfi_offset 14, -4
 1290 0002 84B0     		sub	sp, sp, #16
 1291              		.cfi_def_cfa_offset 24
 1292 0004 00AF     		add	r7, sp, #0
 1293              		.cfi_def_cfa_register 7
 1294 0006 B960     		str	r1, [r7, #8]
 1295 0008 7A60     		str	r2, [r7, #4]
 1296 000a 3B60     		str	r3, [r7]
 1297 000c 0E23     		mov	r3, #14
 1298 000e FB18     		add	r3, r7, r3
 1299 0010 021C     		add	r2, r0, #0
 1300 0012 1A80     		strh	r2, [r3]
 256:lib_BLE/bluetooth.c ****     sendIdSkier = IdSkier;
 1301              		.loc 2 256 0
 1302 0014 2A4B     		ldr	r3, .L57
 1303 0016 0E22     		mov	r2, #14
 1304 0018 BA18     		add	r2, r7, r2
 1305 001a 1288     		ldrh	r2, [r2]
 1306 001c 1A80     		strh	r2, [r3]
 257:lib_BLE/bluetooth.c ****     
 258:lib_BLE/bluetooth.c ****     sendBufferStart[0] = sendStartTime[0];
 1307              		.loc 2 258 0
 1308 001e BB68     		ldr	r3, [r7, #8]
 1309 0020 1A88     		ldrh	r2, [r3]
 1310 0022 284B     		ldr	r3, .L57+4
 1311 0024 1A80     		strh	r2, [r3]
 259:lib_BLE/bluetooth.c ****     sendBufferStart[1] = sendStartTime[1];
 1312              		.loc 2 259 0
 1313 0026 BB68     		ldr	r3, [r7, #8]
 1314 0028 5A88     		ldrh	r2, [r3, #2]
ARM GAS  C:\Users\Petro\AppData\Local\Temp\cc4k19PF.s 			page 39


 1315 002a 264B     		ldr	r3, .L57+4
 1316 002c 5A80     		strh	r2, [r3, #2]
 260:lib_BLE/bluetooth.c ****     sendBufferStart[2] = sendStartTime[2];
 1317              		.loc 2 260 0
 1318 002e BB68     		ldr	r3, [r7, #8]
 1319 0030 9A88     		ldrh	r2, [r3, #4]
 1320 0032 244B     		ldr	r3, .L57+4
 1321 0034 9A80     		strh	r2, [r3, #4]
 261:lib_BLE/bluetooth.c ****     sendBufferStart[3] = sendStartTime[3];
 1322              		.loc 2 261 0
 1323 0036 BB68     		ldr	r3, [r7, #8]
 1324 0038 DA88     		ldrh	r2, [r3, #6]
 1325 003a 224B     		ldr	r3, .L57+4
 1326 003c DA80     		strh	r2, [r3, #6]
 262:lib_BLE/bluetooth.c ****     
 263:lib_BLE/bluetooth.c ****     sendBufferFinish[0] = sendFinishTime[0];
 1327              		.loc 2 263 0
 1328 003e 7B68     		ldr	r3, [r7, #4]
 1329 0040 1A88     		ldrh	r2, [r3]
 1330 0042 214B     		ldr	r3, .L57+8
 1331 0044 1A80     		strh	r2, [r3]
 264:lib_BLE/bluetooth.c ****     sendBufferFinish[1] = sendFinishTime[1];
 1332              		.loc 2 264 0
 1333 0046 7B68     		ldr	r3, [r7, #4]
 1334 0048 5A88     		ldrh	r2, [r3, #2]
 1335 004a 1F4B     		ldr	r3, .L57+8
 1336 004c 5A80     		strh	r2, [r3, #2]
 265:lib_BLE/bluetooth.c ****     sendBufferFinish[2] = sendFinishTime[2];
 1337              		.loc 2 265 0
 1338 004e 7B68     		ldr	r3, [r7, #4]
 1339 0050 9A88     		ldrh	r2, [r3, #4]
 1340 0052 1D4B     		ldr	r3, .L57+8
 1341 0054 9A80     		strh	r2, [r3, #4]
 266:lib_BLE/bluetooth.c ****     sendBufferFinish[3] = sendFinishTime[3];
 1342              		.loc 2 266 0
 1343 0056 7B68     		ldr	r3, [r7, #4]
 1344 0058 DA88     		ldrh	r2, [r3, #6]
 1345 005a 1B4B     		ldr	r3, .L57+8
 1346 005c DA80     		strh	r2, [r3, #6]
 267:lib_BLE/bluetooth.c ****     
 268:lib_BLE/bluetooth.c ****     sendBufferResult[0] = sendResultTime[0];
 1347              		.loc 2 268 0
 1348 005e 3B68     		ldr	r3, [r7]
 1349 0060 1A88     		ldrh	r2, [r3]
 1350 0062 1A4B     		ldr	r3, .L57+12
 1351 0064 1A80     		strh	r2, [r3]
 269:lib_BLE/bluetooth.c ****     sendBufferResult[1] = sendResultTime[1];
 1352              		.loc 2 269 0
 1353 0066 3B68     		ldr	r3, [r7]
 1354 0068 5A88     		ldrh	r2, [r3, #2]
 1355 006a 184B     		ldr	r3, .L57+12
 1356 006c 5A80     		strh	r2, [r3, #2]
 270:lib_BLE/bluetooth.c ****     sendBufferResult[2] = sendResultTime[2];
 1357              		.loc 2 270 0
 1358 006e 3B68     		ldr	r3, [r7]
 1359 0070 9A88     		ldrh	r2, [r3, #4]
 1360 0072 164B     		ldr	r3, .L57+12
ARM GAS  C:\Users\Petro\AppData\Local\Temp\cc4k19PF.s 			page 40


 1361 0074 9A80     		strh	r2, [r3, #4]
 271:lib_BLE/bluetooth.c ****     sendBufferResult[3] = sendResultTime[3];
 1362              		.loc 2 271 0
 1363 0076 3B68     		ldr	r3, [r7]
 1364 0078 DA88     		ldrh	r2, [r3, #6]
 1365 007a 144B     		ldr	r3, .L57+12
 1366 007c DA80     		strh	r2, [r3, #6]
 272:lib_BLE/bluetooth.c ****     
 273:lib_BLE/bluetooth.c ****     sendBufferStatus[0] = sendStatus[0];
 1367              		.loc 2 273 0
 1368 007e BB69     		ldr	r3, [r7, #24]
 1369 0080 1A78     		ldrb	r2, [r3]
 1370 0082 134B     		ldr	r3, .L57+16
 1371 0084 1A70     		strb	r2, [r3]
 274:lib_BLE/bluetooth.c ****     sendBufferStatus[1] = sendStatus[1];
 1372              		.loc 2 274 0
 1373 0086 BB69     		ldr	r3, [r7, #24]
 1374 0088 5A78     		ldrb	r2, [r3, #1]
 1375 008a 114B     		ldr	r3, .L57+16
 1376 008c 5A70     		strb	r2, [r3, #1]
 275:lib_BLE/bluetooth.c ****     sendBufferStatus[2] = sendStatus[2];
 1377              		.loc 2 275 0
 1378 008e BB69     		ldr	r3, [r7, #24]
 1379 0090 9A78     		ldrb	r2, [r3, #2]
 1380 0092 0F4B     		ldr	r3, .L57+16
 1381 0094 9A70     		strb	r2, [r3, #2]
 276:lib_BLE/bluetooth.c ****     sendBufferStatus[3] = sendStatus[3];
 1382              		.loc 2 276 0
 1383 0096 BB69     		ldr	r3, [r7, #24]
 1384 0098 DA78     		ldrb	r2, [r3, #3]
 1385 009a 0D4B     		ldr	r3, .L57+16
 1386 009c DA70     		strb	r2, [r3, #3]
 277:lib_BLE/bluetooth.c ****     sendBufferStatus[4] = sendStatus[4];
 1387              		.loc 2 277 0
 1388 009e BB69     		ldr	r3, [r7, #24]
 1389 00a0 1A79     		ldrb	r2, [r3, #4]
 1390 00a2 0B4B     		ldr	r3, .L57+16
 1391 00a4 1A71     		strb	r2, [r3, #4]
 278:lib_BLE/bluetooth.c ****     sendBufferStatus[5] = sendStatus[5];
 1392              		.loc 2 278 0
 1393 00a6 BB69     		ldr	r3, [r7, #24]
 1394 00a8 5A79     		ldrb	r2, [r3, #5]
 1395 00aa 094B     		ldr	r3, .L57+16
 1396 00ac 5A71     		strb	r2, [r3, #5]
 279:lib_BLE/bluetooth.c ****     sendBufferStatus[6] = sendStatus[6];
 1397              		.loc 2 279 0
 1398 00ae BB69     		ldr	r3, [r7, #24]
 1399 00b0 9A79     		ldrb	r2, [r3, #6]
 1400 00b2 074B     		ldr	r3, .L57+16
 1401 00b4 9A71     		strb	r2, [r3, #6]
 280:lib_BLE/bluetooth.c ****     
 281:lib_BLE/bluetooth.c ****     updateData();
 1402              		.loc 2 281 0
 1403 00b6 FFF7FEFF 		bl	updateData
 282:lib_BLE/bluetooth.c **** }
 1404              		.loc 2 282 0
 1405 00ba BD46     		mov	sp, r7
ARM GAS  C:\Users\Petro\AppData\Local\Temp\cc4k19PF.s 			page 41


 1406 00bc 04B0     		add	sp, sp, #16
 1407              		@ sp needed
 1408 00be 80BD     		pop	{r7, pc}
 1409              	.L58:
 1410              		.align	2
 1411              	.L57:
 1412 00c0 00000000 		.word	sendIdSkier
 1413 00c4 00000000 		.word	sendBufferStart
 1414 00c8 00000000 		.word	sendBufferFinish
 1415 00cc 00000000 		.word	sendBufferResult
 1416 00d0 00000000 		.word	sendBufferStatus
 1417              		.cfi_endproc
 1418              	.LFE71:
 1419              		.size	BLE_sendAllSkierTime, .-BLE_sendAllSkierTime
 1420              		.text
 1421              	.Letext0:
 1422              		.file 3 "c:\\program files (x86)\\cypress\\psoc creator\\4.0\\psoc creator\\import\\gnu\\arm\\4.9.
 1423              		.file 4 "c:\\program files (x86)\\cypress\\psoc creator\\4.0\\psoc creator\\import\\gnu\\arm\\4.9.
 1424              		.file 5 "Generated_Source\\PSoC4/cytypes.h"
 1425              		.file 6 "Generated_Source\\PSoC4/ble_Stack.h"
 1426              		.file 7 "Generated_Source\\PSoC4/ble_StackGatt.h"
 1427              		.file 8 "Generated_Source\\PSoC4/ble_StackGattServer.h"
 1428              		.file 9 "Generated_Source\\PSoC4/ble_eventHandler.h"
 1429              		.file 10 "./lib_DB\\database.h"
 1430              		.section	.debug_info,"",%progbits
 1431              	.Ldebug_info0:
 1432 0000 B9080000 		.4byte	0x8b9
 1433 0004 0400     		.2byte	0x4
 1434 0006 00000000 		.4byte	.Ldebug_abbrev0
 1435 000a 04       		.byte	0x4
 1436 000b 01       		.uleb128 0x1
 1437 000c E0100000 		.4byte	.LASF189
 1438 0010 01       		.byte	0x1
 1439 0011 E2040000 		.4byte	.LASF190
 1440 0015 80080000 		.4byte	.LASF191
 1441 0019 00000000 		.4byte	.Ldebug_ranges0+0
 1442 001d 00000000 		.4byte	0
 1443 0021 00000000 		.4byte	.Ldebug_line0
 1444 0025 02       		.uleb128 0x2
 1445 0026 01       		.byte	0x1
 1446 0027 06       		.byte	0x6
 1447 0028 4E030000 		.4byte	.LASF0
 1448 002c 03       		.uleb128 0x3
 1449 002d 6A010000 		.4byte	.LASF3
 1450 0031 03       		.byte	0x3
 1451 0032 1D       		.byte	0x1d
 1452 0033 37000000 		.4byte	0x37
 1453 0037 02       		.uleb128 0x2
 1454 0038 01       		.byte	0x1
 1455 0039 08       		.byte	0x8
 1456 003a 6E0C0000 		.4byte	.LASF1
 1457 003e 02       		.uleb128 0x2
 1458 003f 02       		.byte	0x2
 1459 0040 05       		.byte	0x5
 1460 0041 E50C0000 		.4byte	.LASF2
 1461 0045 03       		.uleb128 0x3
 1462 0046 750E0000 		.4byte	.LASF4
ARM GAS  C:\Users\Petro\AppData\Local\Temp\cc4k19PF.s 			page 42


 1463 004a 03       		.byte	0x3
 1464 004b 2B       		.byte	0x2b
 1465 004c 50000000 		.4byte	0x50
 1466 0050 02       		.uleb128 0x2
 1467 0051 02       		.byte	0x2
 1468 0052 07       		.byte	0x7
 1469 0053 9F0F0000 		.4byte	.LASF5
 1470 0057 02       		.uleb128 0x2
 1471 0058 04       		.byte	0x4
 1472 0059 05       		.byte	0x5
 1473 005a 91010000 		.4byte	.LASF6
 1474 005e 03       		.uleb128 0x3
 1475 005f 20050000 		.4byte	.LASF7
 1476 0063 03       		.byte	0x3
 1477 0064 41       		.byte	0x41
 1478 0065 69000000 		.4byte	0x69
 1479 0069 02       		.uleb128 0x2
 1480 006a 04       		.byte	0x4
 1481 006b 07       		.byte	0x7
 1482 006c 8F060000 		.4byte	.LASF8
 1483 0070 02       		.uleb128 0x2
 1484 0071 08       		.byte	0x8
 1485 0072 05       		.byte	0x5
 1486 0073 40030000 		.4byte	.LASF9
 1487 0077 03       		.uleb128 0x3
 1488 0078 C90B0000 		.4byte	.LASF10
 1489 007c 03       		.byte	0x3
 1490 007d 5B       		.byte	0x5b
 1491 007e 82000000 		.4byte	0x82
 1492 0082 02       		.uleb128 0x2
 1493 0083 08       		.byte	0x8
 1494 0084 07       		.byte	0x7
 1495 0085 6D030000 		.4byte	.LASF11
 1496 0089 04       		.uleb128 0x4
 1497 008a 04       		.byte	0x4
 1498 008b 05       		.byte	0x5
 1499 008c 696E7400 		.ascii	"int\000"
 1500 0090 02       		.uleb128 0x2
 1501 0091 04       		.byte	0x4
 1502 0092 07       		.byte	0x7
 1503 0093 F5050000 		.4byte	.LASF12
 1504 0097 03       		.uleb128 0x3
 1505 0098 8E100000 		.4byte	.LASF13
 1506 009c 04       		.byte	0x4
 1507 009d 15       		.byte	0x15
 1508 009e 2C000000 		.4byte	0x2c
 1509 00a2 03       		.uleb128 0x3
 1510 00a3 2C060000 		.4byte	.LASF14
 1511 00a7 04       		.byte	0x4
 1512 00a8 21       		.byte	0x21
 1513 00a9 45000000 		.4byte	0x45
 1514 00ad 03       		.uleb128 0x3
 1515 00ae C40D0000 		.4byte	.LASF15
 1516 00b2 04       		.byte	0x4
 1517 00b3 2D       		.byte	0x2d
 1518 00b4 5E000000 		.4byte	0x5e
 1519 00b8 03       		.uleb128 0x3
ARM GAS  C:\Users\Petro\AppData\Local\Temp\cc4k19PF.s 			page 43


 1520 00b9 42010000 		.4byte	.LASF16
 1521 00bd 04       		.byte	0x4
 1522 00be 39       		.byte	0x39
 1523 00bf 77000000 		.4byte	0x77
 1524 00c3 05       		.uleb128 0x5
 1525 00c4 6F040000 		.4byte	.LASF17
 1526 00c8 05       		.byte	0x5
 1527 00c9 9801     		.2byte	0x198
 1528 00cb 37000000 		.4byte	0x37
 1529 00cf 05       		.uleb128 0x5
 1530 00d0 5C050000 		.4byte	.LASF18
 1531 00d4 05       		.byte	0x5
 1532 00d5 9901     		.2byte	0x199
 1533 00d7 50000000 		.4byte	0x50
 1534 00db 05       		.uleb128 0x5
 1535 00dc F6040000 		.4byte	.LASF19
 1536 00e0 05       		.byte	0x5
 1537 00e1 9A01     		.2byte	0x19a
 1538 00e3 69000000 		.4byte	0x69
 1539 00e7 02       		.uleb128 0x2
 1540 00e8 04       		.byte	0x4
 1541 00e9 04       		.byte	0x4
 1542 00ea FB0B0000 		.4byte	.LASF20
 1543 00ee 02       		.uleb128 0x2
 1544 00ef 08       		.byte	0x8
 1545 00f0 04       		.byte	0x4
 1546 00f1 94040000 		.4byte	.LASF21
 1547 00f5 02       		.uleb128 0x2
 1548 00f6 01       		.byte	0x1
 1549 00f7 08       		.byte	0x8
 1550 00f8 2F0E0000 		.4byte	.LASF22
 1551 00fc 02       		.uleb128 0x2
 1552 00fd 04       		.byte	0x4
 1553 00fe 07       		.byte	0x7
 1554 00ff F6090000 		.4byte	.LASF23
 1555 0103 06       		.uleb128 0x6
 1556 0104 04       		.byte	0x4
 1557 0105 07       		.uleb128 0x7
 1558 0106 10       		.byte	0x10
 1559 0107 01       		.byte	0x1
 1560 0108 29       		.byte	0x29
 1561 0109 3E010000 		.4byte	0x13e
 1562 010d 08       		.uleb128 0x8
 1563 010e 550B0000 		.4byte	.LASF24
 1564 0112 01       		.byte	0x1
 1565 0113 2B       		.byte	0x2b
 1566 0114 DB000000 		.4byte	0xdb
 1567 0118 00       		.byte	0
 1568 0119 08       		.uleb128 0x8
 1569 011a 54070000 		.4byte	.LASF25
 1570 011e 01       		.byte	0x1
 1571 011f 2C       		.byte	0x2c
 1572 0120 DB000000 		.4byte	0xdb
 1573 0124 04       		.byte	0x4
 1574 0125 08       		.uleb128 0x8
 1575 0126 D40A0000 		.4byte	.LASF26
 1576 012a 01       		.byte	0x1
ARM GAS  C:\Users\Petro\AppData\Local\Temp\cc4k19PF.s 			page 44


 1577 012b 2D       		.byte	0x2d
 1578 012c DB000000 		.4byte	0xdb
 1579 0130 08       		.byte	0x8
 1580 0131 08       		.uleb128 0x8
 1581 0132 65100000 		.4byte	.LASF27
 1582 0136 01       		.byte	0x1
 1583 0137 2E       		.byte	0x2e
 1584 0138 DB000000 		.4byte	0xdb
 1585 013c 0C       		.byte	0xc
 1586 013d 00       		.byte	0
 1587 013e 03       		.uleb128 0x3
 1588 013f 210E0000 		.4byte	.LASF28
 1589 0143 01       		.byte	0x1
 1590 0144 2F       		.byte	0x2f
 1591 0145 05010000 		.4byte	0x105
 1592 0149 09       		.uleb128 0x9
 1593 014a 04       		.byte	0x4
 1594 014b C3000000 		.4byte	0xc3
 1595 014f 0A       		.uleb128 0xa
 1596 0150 01       		.byte	0x1
 1597 0151 06       		.byte	0x6
 1598 0152 A4       		.byte	0xa4
 1599 0153 D4020000 		.4byte	0x2d4
 1600 0157 0B       		.uleb128 0xb
 1601 0158 59070000 		.4byte	.LASF29
 1602 015c 00       		.sleb128 0
 1603 015d 0B       		.uleb128 0xb
 1604 015e 5A030000 		.4byte	.LASF30
 1605 0162 01       		.sleb128 1
 1606 0163 0B       		.uleb128 0xb
 1607 0164 7F010000 		.4byte	.LASF31
 1608 0168 02       		.sleb128 2
 1609 0169 0B       		.uleb128 0xb
 1610 016a 860F0000 		.4byte	.LASF32
 1611 016e 03       		.sleb128 3
 1612 016f 0B       		.uleb128 0xb
 1613 0170 D6010000 		.4byte	.LASF33
 1614 0174 04       		.sleb128 4
 1615 0175 0B       		.uleb128 0xb
 1616 0176 23000000 		.4byte	.LASF34
 1617 017a 05       		.sleb128 5
 1618 017b 0B       		.uleb128 0xb
 1619 017c 60090000 		.4byte	.LASF35
 1620 0180 20       		.sleb128 32
 1621 0181 0B       		.uleb128 0xb
 1622 0182 AD030000 		.4byte	.LASF36
 1623 0186 21       		.sleb128 33
 1624 0187 0B       		.uleb128 0xb
 1625 0188 D1070000 		.4byte	.LASF37
 1626 018c 22       		.sleb128 34
 1627 018d 0B       		.uleb128 0xb
 1628 018e 2A0F0000 		.4byte	.LASF38
 1629 0192 23       		.sleb128 35
 1630 0193 0B       		.uleb128 0xb
 1631 0194 080B0000 		.4byte	.LASF39
 1632 0198 24       		.sleb128 36
 1633 0199 0B       		.uleb128 0xb
ARM GAS  C:\Users\Petro\AppData\Local\Temp\cc4k19PF.s 			page 45


 1634 019a 7A0A0000 		.4byte	.LASF40
 1635 019e 25       		.sleb128 37
 1636 019f 0B       		.uleb128 0xb
 1637 01a0 47040000 		.4byte	.LASF41
 1638 01a4 26       		.sleb128 38
 1639 01a5 0B       		.uleb128 0xb
 1640 01a6 F5070000 		.4byte	.LASF42
 1641 01aa 27       		.sleb128 39
 1642 01ab 0B       		.uleb128 0xb
 1643 01ac 530E0000 		.4byte	.LASF43
 1644 01b0 28       		.sleb128 40
 1645 01b1 0B       		.uleb128 0xb
 1646 01b2 78020000 		.4byte	.LASF44
 1647 01b6 29       		.sleb128 41
 1648 01b7 0B       		.uleb128 0xb
 1649 01b8 EE000000 		.4byte	.LASF45
 1650 01bc 2A       		.sleb128 42
 1651 01bd 0B       		.uleb128 0xb
 1652 01be 84030000 		.4byte	.LASF46
 1653 01c2 2B       		.sleb128 43
 1654 01c3 0B       		.uleb128 0xb
 1655 01c4 95110000 		.4byte	.LASF47
 1656 01c8 2C       		.sleb128 44
 1657 01c9 0B       		.uleb128 0xb
 1658 01ca B20F0000 		.4byte	.LASF48
 1659 01ce C000     		.sleb128 64
 1660 01d0 0B       		.uleb128 0xb
 1661 01d1 E4080000 		.4byte	.LASF49
 1662 01d5 C100     		.sleb128 65
 1663 01d7 0B       		.uleb128 0xb
 1664 01d8 340C0000 		.4byte	.LASF50
 1665 01dc C200     		.sleb128 66
 1666 01de 0B       		.uleb128 0xb
 1667 01df 3C100000 		.4byte	.LASF51
 1668 01e3 C300     		.sleb128 67
 1669 01e5 0B       		.uleb128 0xb
 1670 01e6 E2060000 		.4byte	.LASF52
 1671 01ea C400     		.sleb128 68
 1672 01ec 0B       		.uleb128 0xb
 1673 01ed D40B0000 		.4byte	.LASF53
 1674 01f1 C500     		.sleb128 69
 1675 01f3 0B       		.uleb128 0xb
 1676 01f4 D5090000 		.4byte	.LASF54
 1677 01f8 C600     		.sleb128 70
 1678 01fa 0B       		.uleb128 0xb
 1679 01fb 70070000 		.4byte	.LASF55
 1680 01ff C700     		.sleb128 71
 1681 0201 0B       		.uleb128 0xb
 1682 0202 6E110000 		.4byte	.LASF56
 1683 0206 C800     		.sleb128 72
 1684 0208 0B       		.uleb128 0xb
 1685 0209 C4030000 		.4byte	.LASF57
 1686 020d C900     		.sleb128 73
 1687 020f 0B       		.uleb128 0xb
 1688 0210 CC0E0000 		.4byte	.LASF58
 1689 0214 CA00     		.sleb128 74
 1690 0216 0B       		.uleb128 0xb
ARM GAS  C:\Users\Petro\AppData\Local\Temp\cc4k19PF.s 			page 46


 1691 0217 4B010000 		.4byte	.LASF59
 1692 021b CB00     		.sleb128 75
 1693 021d 0B       		.uleb128 0xb
 1694 021e 25080000 		.4byte	.LASF60
 1695 0222 CC00     		.sleb128 76
 1696 0224 0B       		.uleb128 0xb
 1697 0225 A40A0000 		.4byte	.LASF61
 1698 0229 CD00     		.sleb128 77
 1699 022b 0B       		.uleb128 0xb
 1700 022c 05040000 		.4byte	.LASF62
 1701 0230 CE00     		.sleb128 78
 1702 0232 0B       		.uleb128 0xb
 1703 0233 3D0D0000 		.4byte	.LASF63
 1704 0237 CF00     		.sleb128 79
 1705 0239 0B       		.uleb128 0xb
 1706 023a 8E070000 		.4byte	.LASF64
 1707 023e D000     		.sleb128 80
 1708 0240 0B       		.uleb128 0xb
 1709 0241 75040000 		.4byte	.LASF65
 1710 0245 D100     		.sleb128 81
 1711 0247 0B       		.uleb128 0xb
 1712 0248 340B0000 		.4byte	.LASF66
 1713 024c D200     		.sleb128 82
 1714 024e 0B       		.uleb128 0xb
 1715 024f EF0C0000 		.4byte	.LASF67
 1716 0253 D300     		.sleb128 83
 1717 0255 0B       		.uleb128 0xb
 1718 0256 790D0000 		.4byte	.LASF68
 1719 025a D400     		.sleb128 84
 1720 025c 0B       		.uleb128 0xb
 1721 025d 00070000 		.4byte	.LASF69
 1722 0261 D500     		.sleb128 85
 1723 0263 0B       		.uleb128 0xb
 1724 0264 D3050000 		.4byte	.LASF70
 1725 0268 D600     		.sleb128 86
 1726 026a 0B       		.uleb128 0xb
 1727 026b 800E0000 		.4byte	.LASF71
 1728 026f D700     		.sleb128 87
 1729 0271 0B       		.uleb128 0xb
 1730 0272 52020000 		.4byte	.LASF72
 1731 0276 F000     		.sleb128 112
 1732 0278 0B       		.uleb128 0xb
 1733 0279 D3110000 		.4byte	.LASF73
 1734 027d F100     		.sleb128 113
 1735 027f 0B       		.uleb128 0xb
 1736 0280 0D090000 		.4byte	.LASF74
 1737 0284 F200     		.sleb128 114
 1738 0286 0B       		.uleb128 0xb
 1739 0287 B7090000 		.4byte	.LASF75
 1740 028b F300     		.sleb128 115
 1741 028d 0B       		.uleb128 0xb
 1742 028e 790B0000 		.4byte	.LASF76
 1743 0292 F400     		.sleb128 116
 1744 0294 0B       		.uleb128 0xb
 1745 0295 9B040000 		.4byte	.LASF77
 1746 0299 F500     		.sleb128 117
 1747 029b 0B       		.uleb128 0xb
ARM GAS  C:\Users\Petro\AppData\Local\Temp\cc4k19PF.s 			page 47


 1748 029c 21010000 		.4byte	.LASF78
 1749 02a0 F600     		.sleb128 118
 1750 02a2 0B       		.uleb128 0xb
 1751 02a3 5A000000 		.4byte	.LASF79
 1752 02a7 F700     		.sleb128 119
 1753 02a9 0B       		.uleb128 0xb
 1754 02aa 00000000 		.4byte	.LASF80
 1755 02ae F800     		.sleb128 120
 1756 02b0 0B       		.uleb128 0xb
 1757 02b1 A90E0000 		.4byte	.LASF81
 1758 02b5 F900     		.sleb128 121
 1759 02b7 0B       		.uleb128 0xb
 1760 02b8 63050000 		.4byte	.LASF82
 1761 02bc FA00     		.sleb128 122
 1762 02be 0B       		.uleb128 0xb
 1763 02bf 11020000 		.4byte	.LASF83
 1764 02c3 FA01     		.sleb128 250
 1765 02c5 0B       		.uleb128 0xb
 1766 02c6 0D060000 		.4byte	.LASF84
 1767 02ca FB01     		.sleb128 251
 1768 02cc 0B       		.uleb128 0xb
 1769 02cd 12050000 		.4byte	.LASF85
 1770 02d1 FF01     		.sleb128 255
 1771 02d3 00       		.byte	0
 1772 02d4 0C       		.uleb128 0xc
 1773 02d5 01       		.byte	0x1
 1774 02d6 06       		.byte	0x6
 1775 02d7 6D02     		.2byte	0x26d
 1776 02d9 FD020000 		.4byte	0x2fd
 1777 02dd 0B       		.uleb128 0xb
 1778 02de F9110000 		.4byte	.LASF86
 1779 02e2 01       		.sleb128 1
 1780 02e3 0B       		.uleb128 0xb
 1781 02e4 340E0000 		.4byte	.LASF87
 1782 02e8 02       		.sleb128 2
 1783 02e9 0B       		.uleb128 0xb
 1784 02ea CA100000 		.4byte	.LASF88
 1785 02ee 03       		.sleb128 3
 1786 02ef 0B       		.uleb128 0xb
 1787 02f0 BE0A0000 		.4byte	.LASF89
 1788 02f4 04       		.sleb128 4
 1789 02f5 0B       		.uleb128 0xb
 1790 02f6 CE060000 		.4byte	.LASF90
 1791 02fa FF01     		.sleb128 255
 1792 02fc 00       		.byte	0
 1793 02fd 0A       		.uleb128 0xa
 1794 02fe 01       		.byte	0x1
 1795 02ff 07       		.byte	0x7
 1796 0300 AA       		.byte	0xaa
 1797 0301 F0030000 		.4byte	0x3f0
 1798 0305 0B       		.uleb128 0xb
 1799 0306 6C100000 		.4byte	.LASF91
 1800 030a 00       		.sleb128 0
 1801 030b 0B       		.uleb128 0xb
 1802 030c 8A090000 		.4byte	.LASF92
 1803 0310 01       		.sleb128 1
 1804 0311 0B       		.uleb128 0xb
ARM GAS  C:\Users\Petro\AppData\Local\Temp\cc4k19PF.s 			page 48


 1805 0312 3A050000 		.4byte	.LASF93
 1806 0316 02       		.sleb128 2
 1807 0317 0B       		.uleb128 0xb
 1808 0318 2F020000 		.4byte	.LASF94
 1809 031c 03       		.sleb128 3
 1810 031d 0B       		.uleb128 0xb
 1811 031e DD030000 		.4byte	.LASF95
 1812 0322 04       		.sleb128 4
 1813 0323 0B       		.uleb128 0xb
 1814 0324 ED020000 		.4byte	.LASF96
 1815 0328 05       		.sleb128 5
 1816 0329 0B       		.uleb128 0xb
 1817 032a C1000000 		.4byte	.LASF97
 1818 032e 06       		.sleb128 6
 1819 032f 0B       		.uleb128 0xb
 1820 0330 96100000 		.4byte	.LASF98
 1821 0334 07       		.sleb128 7
 1822 0335 0B       		.uleb128 0xb
 1823 0336 DE0A0000 		.4byte	.LASF99
 1824 033a 08       		.sleb128 8
 1825 033b 0B       		.uleb128 0xb
 1826 033c 010C0000 		.4byte	.LASF100
 1827 0340 09       		.sleb128 9
 1828 0341 0B       		.uleb128 0xb
 1829 0342 A1060000 		.4byte	.LASF101
 1830 0346 0A       		.sleb128 10
 1831 0347 0B       		.uleb128 0xb
 1832 0348 32070000 		.4byte	.LASF102
 1833 034c 0B       		.sleb128 11
 1834 034d 0B       		.uleb128 0xb
 1835 034e 8D000000 		.4byte	.LASF103
 1836 0352 0C       		.sleb128 12
 1837 0353 0B       		.uleb128 0xb
 1838 0354 8B0C0000 		.4byte	.LASF104
 1839 0358 0D       		.sleb128 13
 1840 0359 0B       		.uleb128 0xb
 1841 035a EA0E0000 		.4byte	.LASF105
 1842 035e 0E       		.sleb128 14
 1843 035f 0B       		.uleb128 0xb
 1844 0360 28120000 		.4byte	.LASF106
 1845 0364 0F       		.sleb128 15
 1846 0365 0B       		.uleb128 0xb
 1847 0366 BC040000 		.4byte	.LASF107
 1848 036a 10       		.sleb128 16
 1849 036b 0B       		.uleb128 0xb
 1850 036c FF090000 		.4byte	.LASF108
 1851 0370 11       		.sleb128 17
 1852 0371 0B       		.uleb128 0xb
 1853 0372 E00D0000 		.4byte	.LASF109
 1854 0376 8001     		.sleb128 128
 1855 0378 0B       		.uleb128 0xb
 1856 0379 FD0F0000 		.4byte	.LASF110
 1857 037d 8001     		.sleb128 128
 1858 037f 0B       		.uleb128 0xb
 1859 0380 29090000 		.4byte	.LASF111
 1860 0384 8001     		.sleb128 128
 1861 0386 0B       		.uleb128 0xb
ARM GAS  C:\Users\Petro\AppData\Local\Temp\cc4k19PF.s 			page 49


 1862 0387 54080000 		.4byte	.LASF112
 1863 038b 8001     		.sleb128 128
 1864 038d 0B       		.uleb128 0xb
 1865 038e 50060000 		.4byte	.LASF113
 1866 0392 8001     		.sleb128 128
 1867 0394 0B       		.uleb128 0xb
 1868 0395 C8020000 		.4byte	.LASF114
 1869 0399 8001     		.sleb128 128
 1870 039b 0B       		.uleb128 0xb
 1871 039c 100D0000 		.4byte	.LASF115
 1872 03a0 8001     		.sleb128 128
 1873 03a2 0B       		.uleb128 0xb
 1874 03a3 B00C0000 		.4byte	.LASF116
 1875 03a7 8101     		.sleb128 129
 1876 03a9 0B       		.uleb128 0xb
 1877 03aa F0010000 		.4byte	.LASF117
 1878 03ae 8101     		.sleb128 129
 1879 03b0 0B       		.uleb128 0xb
 1880 03b1 35060000 		.4byte	.LASF118
 1881 03b5 8101     		.sleb128 129
 1882 03b7 0B       		.uleb128 0xb
 1883 03b8 92050000 		.4byte	.LASF119
 1884 03bc A001     		.sleb128 160
 1885 03be 0B       		.uleb128 0xb
 1886 03bf AD070000 		.4byte	.LASF120
 1887 03c3 A001     		.sleb128 160
 1888 03c5 0B       		.uleb128 0xb
 1889 03c6 A4020000 		.4byte	.LASF121
 1890 03ca A101     		.sleb128 161
 1891 03cc 0B       		.uleb128 0xb
 1892 03cd A30B0000 		.4byte	.LASF122
 1893 03d1 A201     		.sleb128 162
 1894 03d3 0B       		.uleb128 0xb
 1895 03d4 080F0000 		.4byte	.LASF123
 1896 03d8 A301     		.sleb128 163
 1897 03da 0B       		.uleb128 0xb
 1898 03db 9A0D0000 		.4byte	.LASF124
 1899 03df FD01     		.sleb128 253
 1900 03e1 0B       		.uleb128 0xb
 1901 03e2 500F0000 		.4byte	.LASF125
 1902 03e6 FE01     		.sleb128 254
 1903 03e8 0B       		.uleb128 0xb
 1904 03e9 520C0000 		.4byte	.LASF126
 1905 03ed FF01     		.sleb128 255
 1906 03ef 00       		.byte	0
 1907 03f0 05       		.uleb128 0x5
 1908 03f1 0C120000 		.4byte	.LASF127
 1909 03f5 07       		.byte	0x7
 1910 03f6 8801     		.2byte	0x188
 1911 03f8 CF000000 		.4byte	0xcf
 1912 03fc 0D       		.uleb128 0xd
 1913 03fd 02       		.byte	0x2
 1914 03fe 07       		.byte	0x7
 1915 03ff 9201     		.2byte	0x192
 1916 0401 20040000 		.4byte	0x420
 1917 0405 0E       		.uleb128 0xe
 1918 0406 B9110000 		.4byte	.LASF128
ARM GAS  C:\Users\Petro\AppData\Local\Temp\cc4k19PF.s 			page 50


 1919 040a 07       		.byte	0x7
 1920 040b 9901     		.2byte	0x199
 1921 040d C3000000 		.4byte	0xc3
 1922 0411 00       		.byte	0
 1923 0412 0E       		.uleb128 0xe
 1924 0413 84090000 		.4byte	.LASF129
 1925 0417 07       		.byte	0x7
 1926 0418 9F01     		.2byte	0x19f
 1927 041a C3000000 		.4byte	0xc3
 1928 041e 01       		.byte	0x1
 1929 041f 00       		.byte	0
 1930 0420 05       		.uleb128 0x5
 1931 0421 79000000 		.4byte	.LASF130
 1932 0425 07       		.byte	0x7
 1933 0426 A101     		.2byte	0x1a1
 1934 0428 FC030000 		.4byte	0x3fc
 1935 042c 0D       		.uleb128 0xd
 1936 042d 08       		.byte	0x8
 1937 042e 07       		.byte	0x7
 1938 042f BD01     		.2byte	0x1bd
 1939 0431 5D040000 		.4byte	0x45d
 1940 0435 0F       		.uleb128 0xf
 1941 0436 76616C00 		.ascii	"val\000"
 1942 043a 07       		.byte	0x7
 1943 043b C001     		.2byte	0x1c0
 1944 043d 49010000 		.4byte	0x149
 1945 0441 00       		.byte	0
 1946 0442 0F       		.uleb128 0xf
 1947 0443 6C656E00 		.ascii	"len\000"
 1948 0447 07       		.byte	0x7
 1949 0448 C301     		.2byte	0x1c3
 1950 044a CF000000 		.4byte	0xcf
 1951 044e 04       		.byte	0x4
 1952 044f 0E       		.uleb128 0xe
 1953 0450 A3030000 		.4byte	.LASF131
 1954 0454 07       		.byte	0x7
 1955 0455 CA01     		.2byte	0x1ca
 1956 0457 CF000000 		.4byte	0xcf
 1957 045b 06       		.byte	0x6
 1958 045c 00       		.byte	0
 1959 045d 05       		.uleb128 0x5
 1960 045e B5010000 		.4byte	.LASF132
 1961 0462 07       		.byte	0x7
 1962 0463 CC01     		.2byte	0x1cc
 1963 0465 2C040000 		.4byte	0x42c
 1964 0469 0D       		.uleb128 0xd
 1965 046a 0C       		.byte	0xc
 1966 046b 07       		.byte	0x7
 1967 046c CF01     		.2byte	0x1cf
 1968 046e 8D040000 		.4byte	0x48d
 1969 0472 0E       		.uleb128 0xe
 1970 0473 BB050000 		.4byte	.LASF133
 1971 0477 07       		.byte	0x7
 1972 0478 D201     		.2byte	0x1d2
 1973 047a 5D040000 		.4byte	0x45d
 1974 047e 00       		.byte	0
 1975 047f 0E       		.uleb128 0xe
ARM GAS  C:\Users\Petro\AppData\Local\Temp\cc4k19PF.s 			page 51


 1976 0480 87050000 		.4byte	.LASF134
 1977 0484 07       		.byte	0x7
 1978 0485 D501     		.2byte	0x1d5
 1979 0487 F0030000 		.4byte	0x3f0
 1980 048b 08       		.byte	0x8
 1981 048c 00       		.byte	0
 1982 048d 05       		.uleb128 0x5
 1983 048e 5A0B0000 		.4byte	.LASF135
 1984 0492 07       		.byte	0x7
 1985 0493 D701     		.2byte	0x1d7
 1986 0495 69040000 		.4byte	0x469
 1987 0499 03       		.uleb128 0x3
 1988 049a 420A0000 		.4byte	.LASF136
 1989 049e 08       		.byte	0x8
 1990 049f 34       		.byte	0x34
 1991 04a0 8D040000 		.4byte	0x48d
 1992 04a4 07       		.uleb128 0x7
 1993 04a5 10       		.byte	0x10
 1994 04a6 08       		.byte	0x8
 1995 04a7 8A       		.byte	0x8a
 1996 04a8 C5040000 		.4byte	0x4c5
 1997 04ac 08       		.uleb128 0x8
 1998 04ad B6000000 		.4byte	.LASF137
 1999 04b1 08       		.byte	0x8
 2000 04b2 8D       		.byte	0x8d
 2001 04b3 20040000 		.4byte	0x420
 2002 04b7 00       		.byte	0
 2003 04b8 08       		.uleb128 0x8
 2004 04b9 CC0F0000 		.4byte	.LASF138
 2005 04bd 08       		.byte	0x8
 2006 04be 90       		.byte	0x90
 2007 04bf 8D040000 		.4byte	0x48d
 2008 04c3 04       		.byte	0x4
 2009 04c4 00       		.byte	0
 2010 04c5 03       		.uleb128 0x3
 2011 04c6 240A0000 		.4byte	.LASF139
 2012 04ca 08       		.byte	0x8
 2013 04cb 92       		.byte	0x92
 2014 04cc A4040000 		.4byte	0x4a4
 2015 04d0 0C       		.uleb128 0xc
 2016 04d1 01       		.byte	0x1
 2017 04d2 09       		.byte	0x9
 2018 04d3 3707     		.2byte	0x737
 2019 04d5 F8040000 		.4byte	0x4f8
 2020 04d9 0B       		.uleb128 0xb
 2021 04da 3F000000 		.4byte	.LASF140
 2022 04de 00       		.sleb128 0
 2023 04df 0B       		.uleb128 0xb
 2024 04e0 610A0000 		.4byte	.LASF141
 2025 04e4 01       		.sleb128 1
 2026 04e5 0B       		.uleb128 0xb
 2027 04e6 B4100000 		.4byte	.LASF142
 2028 04ea 02       		.sleb128 2
 2029 04eb 0B       		.uleb128 0xb
 2030 04ec 18030000 		.4byte	.LASF143
 2031 04f0 03       		.sleb128 3
 2032 04f1 0B       		.uleb128 0xb
ARM GAS  C:\Users\Petro\AppData\Local\Temp\cc4k19PF.s 			page 52


 2033 04f2 2E040000 		.4byte	.LASF144
 2034 04f6 04       		.sleb128 4
 2035 04f7 00       		.byte	0
 2036 04f8 05       		.uleb128 0x5
 2037 04f9 80100000 		.4byte	.LASF145
 2038 04fd 09       		.byte	0x9
 2039 04fe 4507     		.2byte	0x745
 2040 0500 D0040000 		.4byte	0x4d0
 2041 0504 07       		.uleb128 0x7
 2042 0505 30       		.byte	0x30
 2043 0506 0A       		.byte	0xa
 2044 0507 0E       		.byte	0xe
 2045 0508 55050000 		.4byte	0x555
 2046 050c 08       		.uleb128 0x8
 2047 050d A8090000 		.4byte	.LASF146
 2048 0511 0A       		.byte	0xa
 2049 0512 10       		.byte	0x10
 2050 0513 B8000000 		.4byte	0xb8
 2051 0517 00       		.byte	0
 2052 0518 08       		.uleb128 0x8
 2053 0519 A5010000 		.4byte	.LASF147
 2054 051d 0A       		.byte	0xa
 2055 051e 11       		.byte	0x11
 2056 051f A2000000 		.4byte	0xa2
 2057 0523 08       		.byte	0x8
 2058 0524 08       		.uleb128 0x8
 2059 0525 240B0000 		.4byte	.LASF148
 2060 0529 0A       		.byte	0xa
 2061 052a 12       		.byte	0x12
 2062 052b B8000000 		.4byte	0xb8
 2063 052f 10       		.byte	0x10
 2064 0530 08       		.uleb128 0x8
 2065 0531 680D0000 		.4byte	.LASF149
 2066 0535 0A       		.byte	0xa
 2067 0536 13       		.byte	0x13
 2068 0537 A2000000 		.4byte	0xa2
 2069 053b 18       		.byte	0x18
 2070 053c 08       		.uleb128 0x8
 2071 053d 02060000 		.4byte	.LASF150
 2072 0541 0A       		.byte	0xa
 2073 0542 14       		.byte	0x14
 2074 0543 B8000000 		.4byte	0xb8
 2075 0547 20       		.byte	0x20
 2076 0548 08       		.uleb128 0x8
 2077 0549 7D0F0000 		.4byte	.LASF151
 2078 054d 0A       		.byte	0xa
 2079 054e 15       		.byte	0x15
 2080 054f A2000000 		.4byte	0xa2
 2081 0553 28       		.byte	0x28
 2082 0554 00       		.byte	0
 2083 0555 03       		.uleb128 0x3
 2084 0556 23040000 		.4byte	.LASF152
 2085 055a 0A       		.byte	0xa
 2086 055b 16       		.byte	0x16
 2087 055c 04050000 		.4byte	0x504
 2088 0560 10       		.uleb128 0x10
 2089 0561 FF080000 		.4byte	.LASF153
ARM GAS  C:\Users\Petro\AppData\Local\Temp\cc4k19PF.s 			page 53


 2090 0565 01       		.byte	0x1
 2091 0566 F101     		.2byte	0x1f1
 2092 0568 DB000000 		.4byte	0xdb
 2093 056c 00000000 		.4byte	.LFB4
 2094 0570 30000000 		.4byte	.LFE4-.LFB4
 2095 0574 01       		.uleb128 0x1
 2096 0575 9C       		.byte	0x9c
 2097 0576 99050000 		.4byte	0x599
 2098 057a 11       		.uleb128 0x11
 2099 057b DB0C0000 		.4byte	.LASF155
 2100 057f 01       		.byte	0x1
 2101 0580 F101     		.2byte	0x1f1
 2102 0582 DB000000 		.4byte	0xdb
 2103 0586 02       		.uleb128 0x2
 2104 0587 91       		.byte	0x91
 2105 0588 6C       		.sleb128 -20
 2106 0589 12       		.uleb128 0x12
 2107 058a 53000000 		.4byte	.LASF156
 2108 058e 01       		.byte	0x1
 2109 058f F301     		.2byte	0x1f3
 2110 0591 DB000000 		.4byte	0xdb
 2111 0595 02       		.uleb128 0x2
 2112 0596 91       		.byte	0x91
 2113 0597 74       		.sleb128 -12
 2114 0598 00       		.byte	0
 2115 0599 10       		.uleb128 0x10
 2116 059a 2B050000 		.4byte	.LASF154
 2117 059e 01       		.byte	0x1
 2118 059f 0B02     		.2byte	0x20b
 2119 05a1 DB000000 		.4byte	0xdb
 2120 05a5 00000000 		.4byte	.LFB5
 2121 05a9 36000000 		.4byte	.LFE5-.LFB5
 2122 05ad 01       		.uleb128 0x1
 2123 05ae 9C       		.byte	0x9c
 2124 05af D2050000 		.4byte	0x5d2
 2125 05b3 11       		.uleb128 0x11
 2126 05b4 DB0C0000 		.4byte	.LASF155
 2127 05b8 01       		.byte	0x1
 2128 05b9 0B02     		.2byte	0x20b
 2129 05bb DB000000 		.4byte	0xdb
 2130 05bf 02       		.uleb128 0x2
 2131 05c0 91       		.byte	0x91
 2132 05c1 6C       		.sleb128 -20
 2133 05c2 12       		.uleb128 0x12
 2134 05c3 53000000 		.4byte	.LASF156
 2135 05c7 01       		.byte	0x1
 2136 05c8 0D02     		.2byte	0x20d
 2137 05ca DB000000 		.4byte	0xdb
 2138 05ce 02       		.uleb128 0x2
 2139 05cf 91       		.byte	0x91
 2140 05d0 74       		.sleb128 -12
 2141 05d1 00       		.byte	0
 2142 05d2 10       		.uleb128 0x10
 2143 05d3 F8030000 		.4byte	.LASF157
 2144 05d7 01       		.byte	0x1
 2145 05d8 2402     		.2byte	0x224
 2146 05da DB000000 		.4byte	0xdb
ARM GAS  C:\Users\Petro\AppData\Local\Temp\cc4k19PF.s 			page 54


 2147 05de 00000000 		.4byte	.LFB6
 2148 05e2 36000000 		.4byte	.LFE6-.LFB6
 2149 05e6 01       		.uleb128 0x1
 2150 05e7 9C       		.byte	0x9c
 2151 05e8 0B060000 		.4byte	0x60b
 2152 05ec 11       		.uleb128 0x11
 2153 05ed DB0C0000 		.4byte	.LASF155
 2154 05f1 01       		.byte	0x1
 2155 05f2 2402     		.2byte	0x224
 2156 05f4 DB000000 		.4byte	0xdb
 2157 05f8 02       		.uleb128 0x2
 2158 05f9 91       		.byte	0x91
 2159 05fa 6C       		.sleb128 -20
 2160 05fb 12       		.uleb128 0x12
 2161 05fc 53000000 		.4byte	.LASF156
 2162 0600 01       		.byte	0x1
 2163 0601 2602     		.2byte	0x226
 2164 0603 DB000000 		.4byte	0xdb
 2165 0607 02       		.uleb128 0x2
 2166 0608 91       		.byte	0x91
 2167 0609 74       		.sleb128 -12
 2168 060a 00       		.byte	0
 2169 060b 13       		.uleb128 0x13
 2170 060c C7050000 		.4byte	.LASF162
 2171 0610 02       		.byte	0x2
 2172 0611 16       		.byte	0x16
 2173 0612 00000000 		.4byte	.LFB63
 2174 0616 54010000 		.4byte	.LFE63-.LFB63
 2175 061a 01       		.uleb128 0x1
 2176 061b 9C       		.byte	0x9c
 2177 061c 79060000 		.4byte	0x679
 2178 0620 14       		.uleb128 0x14
 2179 0621 2C070000 		.4byte	.LASF158
 2180 0625 02       		.byte	0x2
 2181 0626 16       		.byte	0x16
 2182 0627 DB000000 		.4byte	0xdb
 2183 062b 02       		.uleb128 0x2
 2184 062c 91       		.byte	0x91
 2185 062d 64       		.sleb128 -28
 2186 062e 14       		.uleb128 0x14
 2187 062f 5A100000 		.4byte	.LASF159
 2188 0633 02       		.byte	0x2
 2189 0634 16       		.byte	0x16
 2190 0635 03010000 		.4byte	0x103
 2191 0639 02       		.uleb128 0x2
 2192 063a 91       		.byte	0x91
 2193 063b 60       		.sleb128 -32
 2194 063c 15       		.uleb128 0x15
 2195 063d 74010000 		.4byte	.LASF160
 2196 0641 02       		.byte	0x2
 2197 0642 18       		.byte	0x18
 2198 0643 79060000 		.4byte	0x679
 2199 0647 02       		.uleb128 0x2
 2200 0648 91       		.byte	0x91
 2201 0649 70       		.sleb128 -16
 2202 064a 16       		.uleb128 0x16
 2203 064b 60000000 		.4byte	.LBB2
ARM GAS  C:\Users\Petro\AppData\Local\Temp\cc4k19PF.s 			page 55


 2204 064f 70000000 		.4byte	.LBE2-.LBB2
 2205 0653 17       		.uleb128 0x17
 2206 0654 6900     		.ascii	"i\000"
 2207 0656 02       		.byte	0x2
 2208 0657 34       		.byte	0x34
 2209 0658 89000000 		.4byte	0x89
 2210 065c 02       		.uleb128 0x2
 2211 065d 91       		.byte	0x91
 2212 065e 74       		.sleb128 -12
 2213 065f 16       		.uleb128 0x16
 2214 0660 6C000000 		.4byte	.LBB3
 2215 0664 22000000 		.4byte	.LBE3-.LBB3
 2216 0668 15       		.uleb128 0x15
 2217 0669 E6000000 		.4byte	.LASF161
 2218 066d 02       		.byte	0x2
 2219 066e 38       		.byte	0x38
 2220 066f 97000000 		.4byte	0x97
 2221 0673 02       		.uleb128 0x2
 2222 0674 91       		.byte	0x91
 2223 0675 6F       		.sleb128 -17
 2224 0676 00       		.byte	0
 2225 0677 00       		.byte	0
 2226 0678 00       		.byte	0
 2227 0679 09       		.uleb128 0x9
 2228 067a 04       		.byte	0x4
 2229 067b C5040000 		.4byte	0x4c5
 2230 067f 13       		.uleb128 0x13
 2231 0680 4F120000 		.4byte	.LASF163
 2232 0684 02       		.byte	0x2
 2233 0685 5B       		.byte	0x5b
 2234 0686 00000000 		.4byte	.LFB64
 2235 068a A0010000 		.4byte	.LFE64-.LFB64
 2236 068e 01       		.uleb128 0x1
 2237 068f 9C       		.byte	0x9c
 2238 0690 A3060000 		.4byte	0x6a3
 2239 0694 15       		.uleb128 0x15
 2240 0695 290C0000 		.4byte	.LASF164
 2241 0699 02       		.byte	0x2
 2242 069a 5D       		.byte	0x5d
 2243 069b 99040000 		.4byte	0x499
 2244 069f 02       		.uleb128 0x2
 2245 06a0 91       		.byte	0x91
 2246 06a1 6C       		.sleb128 -20
 2247 06a2 00       		.byte	0
 2248 06a3 18       		.uleb128 0x18
 2249 06a4 CD0D0000 		.4byte	.LASF192
 2250 06a8 02       		.byte	0x2
 2251 06a9 86       		.byte	0x86
 2252 06aa 00000000 		.4byte	.LFB65
 2253 06ae 54010000 		.4byte	.LFE65-.LFB65
 2254 06b2 01       		.uleb128 0x1
 2255 06b3 9C       		.byte	0x9c
 2256 06b4 C7060000 		.4byte	0x6c7
 2257 06b8 15       		.uleb128 0x15
 2258 06b9 290C0000 		.4byte	.LASF164
 2259 06bd 02       		.byte	0x2
 2260 06be 88       		.byte	0x88
ARM GAS  C:\Users\Petro\AppData\Local\Temp\cc4k19PF.s 			page 56


 2261 06bf 99040000 		.4byte	0x499
 2262 06c3 02       		.uleb128 0x2
 2263 06c4 91       		.byte	0x91
 2264 06c5 6C       		.sleb128 -20
 2265 06c6 00       		.byte	0
 2266 06c7 19       		.uleb128 0x19
 2267 06c8 C4060000 		.4byte	.LASF165
 2268 06cc 02       		.byte	0x2
 2269 06cd AA       		.byte	0xaa
 2270 06ce 00000000 		.4byte	.LFB66
 2271 06d2 24000000 		.4byte	.LFE66-.LFB66
 2272 06d6 01       		.uleb128 0x1
 2273 06d7 9C       		.byte	0x9c
 2274 06d8 19       		.uleb128 0x19
 2275 06d9 2B0D0000 		.4byte	.LASF166
 2276 06dd 02       		.byte	0x2
 2277 06de B5       		.byte	0xb5
 2278 06df 00000000 		.4byte	.LFB67
 2279 06e3 12000000 		.4byte	.LFE67-.LFB67
 2280 06e7 01       		.uleb128 0x1
 2281 06e8 9C       		.byte	0x9c
 2282 06e9 1A       		.uleb128 0x1a
 2283 06ea 940A0000 		.4byte	.LASF193
 2284 06ee 02       		.byte	0x2
 2285 06ef BC       		.byte	0xbc
 2286 06f0 AD000000 		.4byte	0xad
 2287 06f4 00000000 		.4byte	.LFB68
 2288 06f8 20000000 		.4byte	.LFE68-.LFB68
 2289 06fc 01       		.uleb128 0x1
 2290 06fd 9C       		.byte	0x9c
 2291 06fe 13       		.uleb128 0x13
 2292 06ff 3F080000 		.4byte	.LASF167
 2293 0703 02       		.byte	0x2
 2294 0704 C8       		.byte	0xc8
 2295 0705 00000000 		.4byte	.LFB69
 2296 0709 2C010000 		.4byte	.LFE69-.LFB69
 2297 070d 01       		.uleb128 0x1
 2298 070e 9C       		.byte	0x9c
 2299 070f 3E070000 		.4byte	0x73e
 2300 0713 14       		.uleb128 0x14
 2301 0714 EB010000 		.4byte	.LASF168
 2302 0718 02       		.byte	0x2
 2303 0719 C8       		.byte	0xc8
 2304 071a 3E070000 		.4byte	0x73e
 2305 071e 02       		.uleb128 0x2
 2306 071f 91       		.byte	0x91
 2307 0720 54       		.sleb128 -44
 2308 0721 15       		.uleb128 0x15
 2309 0722 550B0000 		.4byte	.LASF24
 2310 0726 02       		.byte	0x2
 2311 0727 CA       		.byte	0xca
 2312 0728 3E010000 		.4byte	0x13e
 2313 072c 02       		.uleb128 0x2
 2314 072d 91       		.byte	0x91
 2315 072e 5C       		.sleb128 -36
 2316 072f 15       		.uleb128 0x15
 2317 0730 17010000 		.4byte	.LASF169
ARM GAS  C:\Users\Petro\AppData\Local\Temp\cc4k19PF.s 			page 57


 2318 0734 02       		.byte	0x2
 2319 0735 D9       		.byte	0xd9
 2320 0736 A2000000 		.4byte	0xa2
 2321 073a 02       		.uleb128 0x2
 2322 073b 91       		.byte	0x91
 2323 073c 6E       		.sleb128 -18
 2324 073d 00       		.byte	0
 2325 073e 09       		.uleb128 0x9
 2326 073f 04       		.byte	0x4
 2327 0740 55050000 		.4byte	0x555
 2328 0744 13       		.uleb128 0x13
 2329 0745 DA0F0000 		.4byte	.LASF170
 2330 0749 02       		.byte	0x2
 2331 074a E3       		.byte	0xe3
 2332 074b 00000000 		.4byte	.LFB70
 2333 074f B0000000 		.4byte	.LFE70-.LFB70
 2334 0753 01       		.uleb128 0x1
 2335 0754 9C       		.byte	0x9c
 2336 0755 84070000 		.4byte	0x784
 2337 0759 14       		.uleb128 0x14
 2338 075a F40F0000 		.4byte	.LASF171
 2339 075e 02       		.byte	0x2
 2340 075f E3       		.byte	0xe3
 2341 0760 B8000000 		.4byte	0xb8
 2342 0764 02       		.uleb128 0x2
 2343 0765 91       		.byte	0x91
 2344 0766 58       		.sleb128 -40
 2345 0767 14       		.uleb128 0x14
 2346 0768 C1050000 		.4byte	.LASF172
 2347 076c 02       		.byte	0x2
 2348 076d E3       		.byte	0xe3
 2349 076e A2000000 		.4byte	0xa2
 2350 0772 02       		.uleb128 0x2
 2351 0773 91       		.byte	0x91
 2352 0774 56       		.sleb128 -42
 2353 0775 15       		.uleb128 0x15
 2354 0776 550B0000 		.4byte	.LASF24
 2355 077a 02       		.byte	0x2
 2356 077b E5       		.byte	0xe5
 2357 077c 3E010000 		.4byte	0x13e
 2358 0780 02       		.uleb128 0x2
 2359 0781 91       		.byte	0x91
 2360 0782 60       		.sleb128 -32
 2361 0783 00       		.byte	0
 2362 0784 13       		.uleb128 0x13
 2363 0785 FD040000 		.4byte	.LASF173
 2364 0789 02       		.byte	0x2
 2365 078a FD       		.byte	0xfd
 2366 078b 00000000 		.4byte	.LFB71
 2367 078f D4000000 		.4byte	.LFE71-.LFB71
 2368 0793 01       		.uleb128 0x1
 2369 0794 9C       		.byte	0x9c
 2370 0795 E0070000 		.4byte	0x7e0
 2371 0799 14       		.uleb128 0x14
 2372 079a 24070000 		.4byte	.LASF174
 2373 079e 02       		.byte	0x2
 2374 079f FD       		.byte	0xfd
ARM GAS  C:\Users\Petro\AppData\Local\Temp\cc4k19PF.s 			page 58


 2375 07a0 A2000000 		.4byte	0xa2
 2376 07a4 02       		.uleb128 0x2
 2377 07a5 91       		.byte	0x91
 2378 07a6 76       		.sleb128 -10
 2379 07a7 14       		.uleb128 0x14
 2380 07a8 C8010000 		.4byte	.LASF175
 2381 07ac 02       		.byte	0x2
 2382 07ad FD       		.byte	0xfd
 2383 07ae E0070000 		.4byte	0x7e0
 2384 07b2 02       		.uleb128 0x2
 2385 07b3 91       		.byte	0x91
 2386 07b4 70       		.sleb128 -16
 2387 07b5 14       		.uleb128 0x14
 2388 07b6 95020000 		.4byte	.LASF176
 2389 07ba 02       		.byte	0x2
 2390 07bb FD       		.byte	0xfd
 2391 07bc E0070000 		.4byte	0x7e0
 2392 07c0 02       		.uleb128 0x2
 2393 07c1 91       		.byte	0x91
 2394 07c2 6C       		.sleb128 -20
 2395 07c3 14       		.uleb128 0x14
 2396 07c4 7C0C0000 		.4byte	.LASF177
 2397 07c8 02       		.byte	0x2
 2398 07c9 FE       		.byte	0xfe
 2399 07ca E0070000 		.4byte	0x7e0
 2400 07ce 02       		.uleb128 0x2
 2401 07cf 91       		.byte	0x91
 2402 07d0 68       		.sleb128 -24
 2403 07d1 14       		.uleb128 0x14
 2404 07d2 9A010000 		.4byte	.LASF178
 2405 07d6 02       		.byte	0x2
 2406 07d7 FE       		.byte	0xfe
 2407 07d8 E6070000 		.4byte	0x7e6
 2408 07dc 02       		.uleb128 0x2
 2409 07dd 91       		.byte	0x91
 2410 07de 00       		.sleb128 0
 2411 07df 00       		.byte	0
 2412 07e0 09       		.uleb128 0x9
 2413 07e1 04       		.byte	0x4
 2414 07e2 A2000000 		.4byte	0xa2
 2415 07e6 09       		.uleb128 0x9
 2416 07e7 04       		.byte	0x4
 2417 07e8 97000000 		.4byte	0x97
 2418 07ec 1B       		.uleb128 0x1b
 2419 07ed 74080000 		.4byte	.LASF179
 2420 07f1 09       		.byte	0x9
 2421 07f2 2C09     		.2byte	0x92c
 2422 07f4 F8040000 		.4byte	0x4f8
 2423 07f8 1B       		.uleb128 0x1b
 2424 07f9 7E060000 		.4byte	.LASF180
 2425 07fd 09       		.byte	0x9
 2426 07fe 2D09     		.2byte	0x92d
 2427 0800 20040000 		.4byte	0x420
 2428 0804 1C       		.uleb128 0x1c
 2429 0805 460E0000 		.4byte	.LASF181
 2430 0809 02       		.byte	0x2
 2431 080a 08       		.byte	0x8
ARM GAS  C:\Users\Petro\AppData\Local\Temp\cc4k19PF.s 			page 59


 2432 080b 89000000 		.4byte	0x89
 2433 080f 05       		.uleb128 0x5
 2434 0810 03       		.byte	0x3
 2435 0811 00000000 		.4byte	notifycaiton
 2436 0815 1C       		.uleb128 0x1c
 2437 0816 970B0000 		.4byte	.LASF182
 2438 081a 02       		.byte	0x2
 2439 081b 09       		.byte	0x9
 2440 081c AD000000 		.4byte	0xad
 2441 0820 05       		.uleb128 0x5
 2442 0821 03       		.byte	0x3
 2443 0822 00000000 		.4byte	bleUnixTime
 2444 0826 1C       		.uleb128 0x1c
 2445 0827 5C0D0000 		.4byte	.LASF183
 2446 082b 02       		.byte	0x2
 2447 082c 0B       		.byte	0xb
 2448 082d A2000000 		.4byte	0xa2
 2449 0831 05       		.uleb128 0x5
 2450 0832 03       		.byte	0x3
 2451 0833 00000000 		.4byte	sendIdSkier
 2452 0837 1D       		.uleb128 0x1d
 2453 0838 A2000000 		.4byte	0xa2
 2454 083c 47080000 		.4byte	0x847
 2455 0840 1E       		.uleb128 0x1e
 2456 0841 FC000000 		.4byte	0xfc
 2457 0845 03       		.byte	0x3
 2458 0846 00       		.byte	0
 2459 0847 1C       		.uleb128 0x1c
 2460 0848 30030000 		.4byte	.LASF184
 2461 084c 02       		.byte	0x2
 2462 084d 0C       		.byte	0xc
 2463 084e 37080000 		.4byte	0x837
 2464 0852 05       		.uleb128 0x5
 2465 0853 03       		.byte	0x3
 2466 0854 00000000 		.4byte	sendBufferStart
 2467 0858 1C       		.uleb128 0x1c
 2468 0859 14080000 		.4byte	.LASF185
 2469 085d 02       		.byte	0x2
 2470 085e 0D       		.byte	0xd
 2471 085f 37080000 		.4byte	0x837
 2472 0863 05       		.uleb128 0x5
 2473 0864 03       		.byte	0x3
 2474 0865 00000000 		.4byte	sendBufferFinish
 2475 0869 1C       		.uleb128 0x1c
 2476 086a C2110000 		.4byte	.LASF186
 2477 086e 02       		.byte	0x2
 2478 086f 0E       		.byte	0xe
 2479 0870 37080000 		.4byte	0x837
 2480 0874 05       		.uleb128 0x5
 2481 0875 03       		.byte	0x3
 2482 0876 00000000 		.4byte	sendBufferResult
 2483 087a 1D       		.uleb128 0x1d
 2484 087b 97000000 		.4byte	0x97
 2485 087f 8A080000 		.4byte	0x88a
 2486 0883 1E       		.uleb128 0x1e
 2487 0884 FC000000 		.4byte	0xfc
 2488 0888 06       		.byte	0x6
ARM GAS  C:\Users\Petro\AppData\Local\Temp\cc4k19PF.s 			page 60


 2489 0889 00       		.byte	0
 2490 088a 1C       		.uleb128 0x1c
 2491 088b 2B100000 		.4byte	.LASF187
 2492 088f 02       		.byte	0x2
 2493 0890 0F       		.byte	0xf
 2494 0891 7A080000 		.4byte	0x87a
 2495 0895 05       		.uleb128 0x5
 2496 0896 03       		.byte	0x3
 2497 0897 00000000 		.4byte	sendBufferStatus
 2498 089b 1D       		.uleb128 0x1d
 2499 089c F5000000 		.4byte	0xf5
 2500 08a0 AB080000 		.4byte	0x8ab
 2501 08a4 1E       		.uleb128 0x1e
 2502 08a5 FC000000 		.4byte	0xfc
 2503 08a9 1D       		.byte	0x1d
 2504 08aa 00       		.byte	0
 2505 08ab 1C       		.uleb128 0x1c
 2506 08ac 160E0000 		.4byte	.LASF188
 2507 08b0 02       		.byte	0x2
 2508 08b1 11       		.byte	0x11
 2509 08b2 9B080000 		.4byte	0x89b
 2510 08b6 05       		.uleb128 0x5
 2511 08b7 03       		.byte	0x3
 2512 08b8 00000000 		.4byte	uartBuffer
 2513 08bc 00       		.byte	0
 2514              		.section	.debug_abbrev,"",%progbits
 2515              	.Ldebug_abbrev0:
 2516 0000 01       		.uleb128 0x1
 2517 0001 11       		.uleb128 0x11
 2518 0002 01       		.byte	0x1
 2519 0003 25       		.uleb128 0x25
 2520 0004 0E       		.uleb128 0xe
 2521 0005 13       		.uleb128 0x13
 2522 0006 0B       		.uleb128 0xb
 2523 0007 03       		.uleb128 0x3
 2524 0008 0E       		.uleb128 0xe
 2525 0009 1B       		.uleb128 0x1b
 2526 000a 0E       		.uleb128 0xe
 2527 000b 55       		.uleb128 0x55
 2528 000c 17       		.uleb128 0x17
 2529 000d 11       		.uleb128 0x11
 2530 000e 01       		.uleb128 0x1
 2531 000f 10       		.uleb128 0x10
 2532 0010 17       		.uleb128 0x17
 2533 0011 00       		.byte	0
 2534 0012 00       		.byte	0
 2535 0013 02       		.uleb128 0x2
 2536 0014 24       		.uleb128 0x24
 2537 0015 00       		.byte	0
 2538 0016 0B       		.uleb128 0xb
 2539 0017 0B       		.uleb128 0xb
 2540 0018 3E       		.uleb128 0x3e
 2541 0019 0B       		.uleb128 0xb
 2542 001a 03       		.uleb128 0x3
 2543 001b 0E       		.uleb128 0xe
 2544 001c 00       		.byte	0
 2545 001d 00       		.byte	0
ARM GAS  C:\Users\Petro\AppData\Local\Temp\cc4k19PF.s 			page 61


 2546 001e 03       		.uleb128 0x3
 2547 001f 16       		.uleb128 0x16
 2548 0020 00       		.byte	0
 2549 0021 03       		.uleb128 0x3
 2550 0022 0E       		.uleb128 0xe
 2551 0023 3A       		.uleb128 0x3a
 2552 0024 0B       		.uleb128 0xb
 2553 0025 3B       		.uleb128 0x3b
 2554 0026 0B       		.uleb128 0xb
 2555 0027 49       		.uleb128 0x49
 2556 0028 13       		.uleb128 0x13
 2557 0029 00       		.byte	0
 2558 002a 00       		.byte	0
 2559 002b 04       		.uleb128 0x4
 2560 002c 24       		.uleb128 0x24
 2561 002d 00       		.byte	0
 2562 002e 0B       		.uleb128 0xb
 2563 002f 0B       		.uleb128 0xb
 2564 0030 3E       		.uleb128 0x3e
 2565 0031 0B       		.uleb128 0xb
 2566 0032 03       		.uleb128 0x3
 2567 0033 08       		.uleb128 0x8
 2568 0034 00       		.byte	0
 2569 0035 00       		.byte	0
 2570 0036 05       		.uleb128 0x5
 2571 0037 16       		.uleb128 0x16
 2572 0038 00       		.byte	0
 2573 0039 03       		.uleb128 0x3
 2574 003a 0E       		.uleb128 0xe
 2575 003b 3A       		.uleb128 0x3a
 2576 003c 0B       		.uleb128 0xb
 2577 003d 3B       		.uleb128 0x3b
 2578 003e 05       		.uleb128 0x5
 2579 003f 49       		.uleb128 0x49
 2580 0040 13       		.uleb128 0x13
 2581 0041 00       		.byte	0
 2582 0042 00       		.byte	0
 2583 0043 06       		.uleb128 0x6
 2584 0044 0F       		.uleb128 0xf
 2585 0045 00       		.byte	0
 2586 0046 0B       		.uleb128 0xb
 2587 0047 0B       		.uleb128 0xb
 2588 0048 00       		.byte	0
 2589 0049 00       		.byte	0
 2590 004a 07       		.uleb128 0x7
 2591 004b 13       		.uleb128 0x13
 2592 004c 01       		.byte	0x1
 2593 004d 0B       		.uleb128 0xb
 2594 004e 0B       		.uleb128 0xb
 2595 004f 3A       		.uleb128 0x3a
 2596 0050 0B       		.uleb128 0xb
 2597 0051 3B       		.uleb128 0x3b
 2598 0052 0B       		.uleb128 0xb
 2599 0053 01       		.uleb128 0x1
 2600 0054 13       		.uleb128 0x13
 2601 0055 00       		.byte	0
 2602 0056 00       		.byte	0
ARM GAS  C:\Users\Petro\AppData\Local\Temp\cc4k19PF.s 			page 62


 2603 0057 08       		.uleb128 0x8
 2604 0058 0D       		.uleb128 0xd
 2605 0059 00       		.byte	0
 2606 005a 03       		.uleb128 0x3
 2607 005b 0E       		.uleb128 0xe
 2608 005c 3A       		.uleb128 0x3a
 2609 005d 0B       		.uleb128 0xb
 2610 005e 3B       		.uleb128 0x3b
 2611 005f 0B       		.uleb128 0xb
 2612 0060 49       		.uleb128 0x49
 2613 0061 13       		.uleb128 0x13
 2614 0062 38       		.uleb128 0x38
 2615 0063 0B       		.uleb128 0xb
 2616 0064 00       		.byte	0
 2617 0065 00       		.byte	0
 2618 0066 09       		.uleb128 0x9
 2619 0067 0F       		.uleb128 0xf
 2620 0068 00       		.byte	0
 2621 0069 0B       		.uleb128 0xb
 2622 006a 0B       		.uleb128 0xb
 2623 006b 49       		.uleb128 0x49
 2624 006c 13       		.uleb128 0x13
 2625 006d 00       		.byte	0
 2626 006e 00       		.byte	0
 2627 006f 0A       		.uleb128 0xa
 2628 0070 04       		.uleb128 0x4
 2629 0071 01       		.byte	0x1
 2630 0072 0B       		.uleb128 0xb
 2631 0073 0B       		.uleb128 0xb
 2632 0074 3A       		.uleb128 0x3a
 2633 0075 0B       		.uleb128 0xb
 2634 0076 3B       		.uleb128 0x3b
 2635 0077 0B       		.uleb128 0xb
 2636 0078 01       		.uleb128 0x1
 2637 0079 13       		.uleb128 0x13
 2638 007a 00       		.byte	0
 2639 007b 00       		.byte	0
 2640 007c 0B       		.uleb128 0xb
 2641 007d 28       		.uleb128 0x28
 2642 007e 00       		.byte	0
 2643 007f 03       		.uleb128 0x3
 2644 0080 0E       		.uleb128 0xe
 2645 0081 1C       		.uleb128 0x1c
 2646 0082 0D       		.uleb128 0xd
 2647 0083 00       		.byte	0
 2648 0084 00       		.byte	0
 2649 0085 0C       		.uleb128 0xc
 2650 0086 04       		.uleb128 0x4
 2651 0087 01       		.byte	0x1
 2652 0088 0B       		.uleb128 0xb
 2653 0089 0B       		.uleb128 0xb
 2654 008a 3A       		.uleb128 0x3a
 2655 008b 0B       		.uleb128 0xb
 2656 008c 3B       		.uleb128 0x3b
 2657 008d 05       		.uleb128 0x5
 2658 008e 01       		.uleb128 0x1
 2659 008f 13       		.uleb128 0x13
ARM GAS  C:\Users\Petro\AppData\Local\Temp\cc4k19PF.s 			page 63


 2660 0090 00       		.byte	0
 2661 0091 00       		.byte	0
 2662 0092 0D       		.uleb128 0xd
 2663 0093 13       		.uleb128 0x13
 2664 0094 01       		.byte	0x1
 2665 0095 0B       		.uleb128 0xb
 2666 0096 0B       		.uleb128 0xb
 2667 0097 3A       		.uleb128 0x3a
 2668 0098 0B       		.uleb128 0xb
 2669 0099 3B       		.uleb128 0x3b
 2670 009a 05       		.uleb128 0x5
 2671 009b 01       		.uleb128 0x1
 2672 009c 13       		.uleb128 0x13
 2673 009d 00       		.byte	0
 2674 009e 00       		.byte	0
 2675 009f 0E       		.uleb128 0xe
 2676 00a0 0D       		.uleb128 0xd
 2677 00a1 00       		.byte	0
 2678 00a2 03       		.uleb128 0x3
 2679 00a3 0E       		.uleb128 0xe
 2680 00a4 3A       		.uleb128 0x3a
 2681 00a5 0B       		.uleb128 0xb
 2682 00a6 3B       		.uleb128 0x3b
 2683 00a7 05       		.uleb128 0x5
 2684 00a8 49       		.uleb128 0x49
 2685 00a9 13       		.uleb128 0x13
 2686 00aa 38       		.uleb128 0x38
 2687 00ab 0B       		.uleb128 0xb
 2688 00ac 00       		.byte	0
 2689 00ad 00       		.byte	0
 2690 00ae 0F       		.uleb128 0xf
 2691 00af 0D       		.uleb128 0xd
 2692 00b0 00       		.byte	0
 2693 00b1 03       		.uleb128 0x3
 2694 00b2 08       		.uleb128 0x8
 2695 00b3 3A       		.uleb128 0x3a
 2696 00b4 0B       		.uleb128 0xb
 2697 00b5 3B       		.uleb128 0x3b
 2698 00b6 05       		.uleb128 0x5
 2699 00b7 49       		.uleb128 0x49
 2700 00b8 13       		.uleb128 0x13
 2701 00b9 38       		.uleb128 0x38
 2702 00ba 0B       		.uleb128 0xb
 2703 00bb 00       		.byte	0
 2704 00bc 00       		.byte	0
 2705 00bd 10       		.uleb128 0x10
 2706 00be 2E       		.uleb128 0x2e
 2707 00bf 01       		.byte	0x1
 2708 00c0 03       		.uleb128 0x3
 2709 00c1 0E       		.uleb128 0xe
 2710 00c2 3A       		.uleb128 0x3a
 2711 00c3 0B       		.uleb128 0xb
 2712 00c4 3B       		.uleb128 0x3b
 2713 00c5 05       		.uleb128 0x5
 2714 00c6 27       		.uleb128 0x27
 2715 00c7 19       		.uleb128 0x19
 2716 00c8 49       		.uleb128 0x49
ARM GAS  C:\Users\Petro\AppData\Local\Temp\cc4k19PF.s 			page 64


 2717 00c9 13       		.uleb128 0x13
 2718 00ca 11       		.uleb128 0x11
 2719 00cb 01       		.uleb128 0x1
 2720 00cc 12       		.uleb128 0x12
 2721 00cd 06       		.uleb128 0x6
 2722 00ce 40       		.uleb128 0x40
 2723 00cf 18       		.uleb128 0x18
 2724 00d0 9742     		.uleb128 0x2117
 2725 00d2 19       		.uleb128 0x19
 2726 00d3 01       		.uleb128 0x1
 2727 00d4 13       		.uleb128 0x13
 2728 00d5 00       		.byte	0
 2729 00d6 00       		.byte	0
 2730 00d7 11       		.uleb128 0x11
 2731 00d8 05       		.uleb128 0x5
 2732 00d9 00       		.byte	0
 2733 00da 03       		.uleb128 0x3
 2734 00db 0E       		.uleb128 0xe
 2735 00dc 3A       		.uleb128 0x3a
 2736 00dd 0B       		.uleb128 0xb
 2737 00de 3B       		.uleb128 0x3b
 2738 00df 05       		.uleb128 0x5
 2739 00e0 49       		.uleb128 0x49
 2740 00e1 13       		.uleb128 0x13
 2741 00e2 02       		.uleb128 0x2
 2742 00e3 18       		.uleb128 0x18
 2743 00e4 00       		.byte	0
 2744 00e5 00       		.byte	0
 2745 00e6 12       		.uleb128 0x12
 2746 00e7 34       		.uleb128 0x34
 2747 00e8 00       		.byte	0
 2748 00e9 03       		.uleb128 0x3
 2749 00ea 0E       		.uleb128 0xe
 2750 00eb 3A       		.uleb128 0x3a
 2751 00ec 0B       		.uleb128 0xb
 2752 00ed 3B       		.uleb128 0x3b
 2753 00ee 05       		.uleb128 0x5
 2754 00ef 49       		.uleb128 0x49
 2755 00f0 13       		.uleb128 0x13
 2756 00f1 02       		.uleb128 0x2
 2757 00f2 18       		.uleb128 0x18
 2758 00f3 00       		.byte	0
 2759 00f4 00       		.byte	0
 2760 00f5 13       		.uleb128 0x13
 2761 00f6 2E       		.uleb128 0x2e
 2762 00f7 01       		.byte	0x1
 2763 00f8 3F       		.uleb128 0x3f
 2764 00f9 19       		.uleb128 0x19
 2765 00fa 03       		.uleb128 0x3
 2766 00fb 0E       		.uleb128 0xe
 2767 00fc 3A       		.uleb128 0x3a
 2768 00fd 0B       		.uleb128 0xb
 2769 00fe 3B       		.uleb128 0x3b
 2770 00ff 0B       		.uleb128 0xb
 2771 0100 27       		.uleb128 0x27
 2772 0101 19       		.uleb128 0x19
 2773 0102 11       		.uleb128 0x11
ARM GAS  C:\Users\Petro\AppData\Local\Temp\cc4k19PF.s 			page 65


 2774 0103 01       		.uleb128 0x1
 2775 0104 12       		.uleb128 0x12
 2776 0105 06       		.uleb128 0x6
 2777 0106 40       		.uleb128 0x40
 2778 0107 18       		.uleb128 0x18
 2779 0108 9642     		.uleb128 0x2116
 2780 010a 19       		.uleb128 0x19
 2781 010b 01       		.uleb128 0x1
 2782 010c 13       		.uleb128 0x13
 2783 010d 00       		.byte	0
 2784 010e 00       		.byte	0
 2785 010f 14       		.uleb128 0x14
 2786 0110 05       		.uleb128 0x5
 2787 0111 00       		.byte	0
 2788 0112 03       		.uleb128 0x3
 2789 0113 0E       		.uleb128 0xe
 2790 0114 3A       		.uleb128 0x3a
 2791 0115 0B       		.uleb128 0xb
 2792 0116 3B       		.uleb128 0x3b
 2793 0117 0B       		.uleb128 0xb
 2794 0118 49       		.uleb128 0x49
 2795 0119 13       		.uleb128 0x13
 2796 011a 02       		.uleb128 0x2
 2797 011b 18       		.uleb128 0x18
 2798 011c 00       		.byte	0
 2799 011d 00       		.byte	0
 2800 011e 15       		.uleb128 0x15
 2801 011f 34       		.uleb128 0x34
 2802 0120 00       		.byte	0
 2803 0121 03       		.uleb128 0x3
 2804 0122 0E       		.uleb128 0xe
 2805 0123 3A       		.uleb128 0x3a
 2806 0124 0B       		.uleb128 0xb
 2807 0125 3B       		.uleb128 0x3b
 2808 0126 0B       		.uleb128 0xb
 2809 0127 49       		.uleb128 0x49
 2810 0128 13       		.uleb128 0x13
 2811 0129 02       		.uleb128 0x2
 2812 012a 18       		.uleb128 0x18
 2813 012b 00       		.byte	0
 2814 012c 00       		.byte	0
 2815 012d 16       		.uleb128 0x16
 2816 012e 0B       		.uleb128 0xb
 2817 012f 01       		.byte	0x1
 2818 0130 11       		.uleb128 0x11
 2819 0131 01       		.uleb128 0x1
 2820 0132 12       		.uleb128 0x12
 2821 0133 06       		.uleb128 0x6
 2822 0134 00       		.byte	0
 2823 0135 00       		.byte	0
 2824 0136 17       		.uleb128 0x17
 2825 0137 34       		.uleb128 0x34
 2826 0138 00       		.byte	0
 2827 0139 03       		.uleb128 0x3
 2828 013a 08       		.uleb128 0x8
 2829 013b 3A       		.uleb128 0x3a
 2830 013c 0B       		.uleb128 0xb
ARM GAS  C:\Users\Petro\AppData\Local\Temp\cc4k19PF.s 			page 66


 2831 013d 3B       		.uleb128 0x3b
 2832 013e 0B       		.uleb128 0xb
 2833 013f 49       		.uleb128 0x49
 2834 0140 13       		.uleb128 0x13
 2835 0141 02       		.uleb128 0x2
 2836 0142 18       		.uleb128 0x18
 2837 0143 00       		.byte	0
 2838 0144 00       		.byte	0
 2839 0145 18       		.uleb128 0x18
 2840 0146 2E       		.uleb128 0x2e
 2841 0147 01       		.byte	0x1
 2842 0148 03       		.uleb128 0x3
 2843 0149 0E       		.uleb128 0xe
 2844 014a 3A       		.uleb128 0x3a
 2845 014b 0B       		.uleb128 0xb
 2846 014c 3B       		.uleb128 0x3b
 2847 014d 0B       		.uleb128 0xb
 2848 014e 27       		.uleb128 0x27
 2849 014f 19       		.uleb128 0x19
 2850 0150 11       		.uleb128 0x11
 2851 0151 01       		.uleb128 0x1
 2852 0152 12       		.uleb128 0x12
 2853 0153 06       		.uleb128 0x6
 2854 0154 40       		.uleb128 0x40
 2855 0155 18       		.uleb128 0x18
 2856 0156 9642     		.uleb128 0x2116
 2857 0158 19       		.uleb128 0x19
 2858 0159 01       		.uleb128 0x1
 2859 015a 13       		.uleb128 0x13
 2860 015b 00       		.byte	0
 2861 015c 00       		.byte	0
 2862 015d 19       		.uleb128 0x19
 2863 015e 2E       		.uleb128 0x2e
 2864 015f 00       		.byte	0
 2865 0160 3F       		.uleb128 0x3f
 2866 0161 19       		.uleb128 0x19
 2867 0162 03       		.uleb128 0x3
 2868 0163 0E       		.uleb128 0xe
 2869 0164 3A       		.uleb128 0x3a
 2870 0165 0B       		.uleb128 0xb
 2871 0166 3B       		.uleb128 0x3b
 2872 0167 0B       		.uleb128 0xb
 2873 0168 27       		.uleb128 0x27
 2874 0169 19       		.uleb128 0x19
 2875 016a 11       		.uleb128 0x11
 2876 016b 01       		.uleb128 0x1
 2877 016c 12       		.uleb128 0x12
 2878 016d 06       		.uleb128 0x6
 2879 016e 40       		.uleb128 0x40
 2880 016f 18       		.uleb128 0x18
 2881 0170 9642     		.uleb128 0x2116
 2882 0172 19       		.uleb128 0x19
 2883 0173 00       		.byte	0
 2884 0174 00       		.byte	0
 2885 0175 1A       		.uleb128 0x1a
 2886 0176 2E       		.uleb128 0x2e
 2887 0177 00       		.byte	0
ARM GAS  C:\Users\Petro\AppData\Local\Temp\cc4k19PF.s 			page 67


 2888 0178 3F       		.uleb128 0x3f
 2889 0179 19       		.uleb128 0x19
 2890 017a 03       		.uleb128 0x3
 2891 017b 0E       		.uleb128 0xe
 2892 017c 3A       		.uleb128 0x3a
 2893 017d 0B       		.uleb128 0xb
 2894 017e 3B       		.uleb128 0x3b
 2895 017f 0B       		.uleb128 0xb
 2896 0180 27       		.uleb128 0x27
 2897 0181 19       		.uleb128 0x19
 2898 0182 49       		.uleb128 0x49
 2899 0183 13       		.uleb128 0x13
 2900 0184 11       		.uleb128 0x11
 2901 0185 01       		.uleb128 0x1
 2902 0186 12       		.uleb128 0x12
 2903 0187 06       		.uleb128 0x6
 2904 0188 40       		.uleb128 0x40
 2905 0189 18       		.uleb128 0x18
 2906 018a 9742     		.uleb128 0x2117
 2907 018c 19       		.uleb128 0x19
 2908 018d 00       		.byte	0
 2909 018e 00       		.byte	0
 2910 018f 1B       		.uleb128 0x1b
 2911 0190 34       		.uleb128 0x34
 2912 0191 00       		.byte	0
 2913 0192 03       		.uleb128 0x3
 2914 0193 0E       		.uleb128 0xe
 2915 0194 3A       		.uleb128 0x3a
 2916 0195 0B       		.uleb128 0xb
 2917 0196 3B       		.uleb128 0x3b
 2918 0197 05       		.uleb128 0x5
 2919 0198 49       		.uleb128 0x49
 2920 0199 13       		.uleb128 0x13
 2921 019a 3F       		.uleb128 0x3f
 2922 019b 19       		.uleb128 0x19
 2923 019c 3C       		.uleb128 0x3c
 2924 019d 19       		.uleb128 0x19
 2925 019e 00       		.byte	0
 2926 019f 00       		.byte	0
 2927 01a0 1C       		.uleb128 0x1c
 2928 01a1 34       		.uleb128 0x34
 2929 01a2 00       		.byte	0
 2930 01a3 03       		.uleb128 0x3
 2931 01a4 0E       		.uleb128 0xe
 2932 01a5 3A       		.uleb128 0x3a
 2933 01a6 0B       		.uleb128 0xb
 2934 01a7 3B       		.uleb128 0x3b
 2935 01a8 0B       		.uleb128 0xb
 2936 01a9 49       		.uleb128 0x49
 2937 01aa 13       		.uleb128 0x13
 2938 01ab 3F       		.uleb128 0x3f
 2939 01ac 19       		.uleb128 0x19
 2940 01ad 02       		.uleb128 0x2
 2941 01ae 18       		.uleb128 0x18
 2942 01af 00       		.byte	0
 2943 01b0 00       		.byte	0
 2944 01b1 1D       		.uleb128 0x1d
ARM GAS  C:\Users\Petro\AppData\Local\Temp\cc4k19PF.s 			page 68


 2945 01b2 01       		.uleb128 0x1
 2946 01b3 01       		.byte	0x1
 2947 01b4 49       		.uleb128 0x49
 2948 01b5 13       		.uleb128 0x13
 2949 01b6 01       		.uleb128 0x1
 2950 01b7 13       		.uleb128 0x13
 2951 01b8 00       		.byte	0
 2952 01b9 00       		.byte	0
 2953 01ba 1E       		.uleb128 0x1e
 2954 01bb 21       		.uleb128 0x21
 2955 01bc 00       		.byte	0
 2956 01bd 49       		.uleb128 0x49
 2957 01be 13       		.uleb128 0x13
 2958 01bf 2F       		.uleb128 0x2f
 2959 01c0 0B       		.uleb128 0xb
 2960 01c1 00       		.byte	0
 2961 01c2 00       		.byte	0
 2962 01c3 00       		.byte	0
 2963              		.section	.debug_aranges,"",%progbits
 2964 0000 74000000 		.4byte	0x74
 2965 0004 0200     		.2byte	0x2
 2966 0006 00000000 		.4byte	.Ldebug_info0
 2967 000a 04       		.byte	0x4
 2968 000b 00       		.byte	0
 2969 000c 0000     		.2byte	0
 2970 000e 0000     		.2byte	0
 2971 0010 00000000 		.4byte	.LFB4
 2972 0014 30000000 		.4byte	.LFE4-.LFB4
 2973 0018 00000000 		.4byte	.LFB5
 2974 001c 36000000 		.4byte	.LFE5-.LFB5
 2975 0020 00000000 		.4byte	.LFB6
 2976 0024 36000000 		.4byte	.LFE6-.LFB6
 2977 0028 00000000 		.4byte	.LFB63
 2978 002c 54010000 		.4byte	.LFE63-.LFB63
 2979 0030 00000000 		.4byte	.LFB64
 2980 0034 A0010000 		.4byte	.LFE64-.LFB64
 2981 0038 00000000 		.4byte	.LFB65
 2982 003c 54010000 		.4byte	.LFE65-.LFB65
 2983 0040 00000000 		.4byte	.LFB66
 2984 0044 24000000 		.4byte	.LFE66-.LFB66
 2985 0048 00000000 		.4byte	.LFB67
 2986 004c 12000000 		.4byte	.LFE67-.LFB67
 2987 0050 00000000 		.4byte	.LFB68
 2988 0054 20000000 		.4byte	.LFE68-.LFB68
 2989 0058 00000000 		.4byte	.LFB69
 2990 005c 2C010000 		.4byte	.LFE69-.LFB69
 2991 0060 00000000 		.4byte	.LFB70
 2992 0064 B0000000 		.4byte	.LFE70-.LFB70
 2993 0068 00000000 		.4byte	.LFB71
 2994 006c D4000000 		.4byte	.LFE71-.LFB71
 2995 0070 00000000 		.4byte	0
 2996 0074 00000000 		.4byte	0
 2997              		.section	.debug_ranges,"",%progbits
 2998              	.Ldebug_ranges0:
 2999 0000 00000000 		.4byte	.LFB4
 3000 0004 30000000 		.4byte	.LFE4
 3001 0008 00000000 		.4byte	.LFB5
ARM GAS  C:\Users\Petro\AppData\Local\Temp\cc4k19PF.s 			page 69


 3002 000c 36000000 		.4byte	.LFE5
 3003 0010 00000000 		.4byte	.LFB6
 3004 0014 36000000 		.4byte	.LFE6
 3005 0018 00000000 		.4byte	.LFB63
 3006 001c 54010000 		.4byte	.LFE63
 3007 0020 00000000 		.4byte	.LFB64
 3008 0024 A0010000 		.4byte	.LFE64
 3009 0028 00000000 		.4byte	.LFB65
 3010 002c 54010000 		.4byte	.LFE65
 3011 0030 00000000 		.4byte	.LFB66
 3012 0034 24000000 		.4byte	.LFE66
 3013 0038 00000000 		.4byte	.LFB67
 3014 003c 12000000 		.4byte	.LFE67
 3015 0040 00000000 		.4byte	.LFB68
 3016 0044 20000000 		.4byte	.LFE68
 3017 0048 00000000 		.4byte	.LFB69
 3018 004c 2C010000 		.4byte	.LFE69
 3019 0050 00000000 		.4byte	.LFB70
 3020 0054 B0000000 		.4byte	.LFE70
 3021 0058 00000000 		.4byte	.LFB71
 3022 005c D4000000 		.4byte	.LFE71
 3023 0060 00000000 		.4byte	0
 3024 0064 00000000 		.4byte	0
 3025              		.section	.debug_line,"",%progbits
 3026              	.Ldebug_line0:
 3027 0000 5D030000 		.section	.debug_str,"MS",%progbits,1
 3027      0200B701 
 3027      00000201 
 3027      FB0E0D00 
 3027      01010101 
 3028              	.LASF80:
 3029 0000 4359424C 		.ascii	"CYBLE_EVT_L2CAP_CBFC_RX_CREDIT_IND\000"
 3029      455F4556 
 3029      545F4C32 
 3029      4341505F 
 3029      43424643 
 3030              	.LASF34:
 3031 0023 4359424C 		.ascii	"CYBLE_EVT_STACK_BUSY_STATUS\000"
 3031      455F4556 
 3031      545F5354 
 3031      41434B5F 
 3031      42555359 
 3032              	.LASF140:
 3033 003f 4359424C 		.ascii	"CYBLE_STATE_STOPPED\000"
 3033      455F5354 
 3033      4154455F 
 3033      53544F50 
 3033      50454400 
 3034              	.LASF156:
 3035 0053 72657456 		.ascii	"retVal\000"
 3035      616C00
 3036              	.LASF79:
 3037 005a 4359424C 		.ascii	"CYBLE_EVT_L2CAP_CBFC_DATA_READ\000"
 3037      455F4556 
 3037      545F4C32 
 3037      4341505F 
 3037      43424643 
ARM GAS  C:\Users\Petro\AppData\Local\Temp\cc4k19PF.s 			page 70


 3038              	.LASF130:
 3039 0079 4359424C 		.ascii	"CYBLE_CONN_HANDLE_T\000"
 3039      455F434F 
 3039      4E4E5F48 
 3039      414E444C 
 3039      455F5400 
 3040              	.LASF103:
 3041 008d 4359424C 		.ascii	"CYBLE_GATT_ERR_INSUFFICIENT_ENC_KEY_SIZE\000"
 3041      455F4741 
 3041      54545F45 
 3041      52525F49 
 3041      4E535546 
 3042              	.LASF137:
 3043 00b6 636F6E6E 		.ascii	"connHandle\000"
 3043      48616E64 
 3043      6C6500
 3044              	.LASF97:
 3045 00c1 4359424C 		.ascii	"CYBLE_GATT_ERR_REQUEST_NOT_SUPPORTED\000"
 3045      455F4741 
 3045      54545F45 
 3045      52525F52 
 3045      45515545 
 3046              	.LASF161:
 3047 00e6 746D7044 		.ascii	"tmpData\000"
 3047      61746100 
 3048              	.LASF45:
 3049 00ee 4359424C 		.ascii	"CYBLE_EVT_GAP_CONNECTION_UPDATE_COMPLETE\000"
 3049      455F4556 
 3049      545F4741 
 3049      505F434F 
 3049      4E4E4543 
 3050              	.LASF169:
 3051 0117 6D696E52 		.ascii	"minResult\000"
 3051      6573756C 
 3051      7400
 3052              	.LASF78:
 3053 0121 4359424C 		.ascii	"CYBLE_EVT_L2CAP_CBFC_DISCONN_CNF\000"
 3053      455F4556 
 3053      545F4C32 
 3053      4341505F 
 3053      43424643 
 3054              	.LASF16:
 3055 0142 75696E74 		.ascii	"uint64_t\000"
 3055      36345F74 
 3055      00
 3056              	.LASF59:
 3057 014b 4359424C 		.ascii	"CYBLE_EVT_GATTC_READ_MULTI_RSP\000"
 3057      455F4556 
 3057      545F4741 
 3057      5454435F 
 3057      52454144 
 3058              	.LASF3:
 3059 016a 5F5F7569 		.ascii	"__uint8_t\000"
 3059      6E74385F 
 3059      7400
 3060              	.LASF160:
 3061 0174 77725265 		.ascii	"wrReqParam\000"
ARM GAS  C:\Users\Petro\AppData\Local\Temp\cc4k19PF.s 			page 71


 3061      71506172 
 3061      616D00
 3062              	.LASF31:
 3063 017f 4359424C 		.ascii	"CYBLE_EVT_TIMEOUT\000"
 3063      455F4556 
 3063      545F5449 
 3063      4D454F55 
 3063      5400
 3064              	.LASF6:
 3065 0191 6C6F6E67 		.ascii	"long int\000"
 3065      20696E74 
 3065      00
 3066              	.LASF178:
 3067 019a 73656E64 		.ascii	"sendStatus\000"
 3067      53746174 
 3067      757300
 3068              	.LASF147:
 3069 01a5 6D696C6C 		.ascii	"millsStartSkier\000"
 3069      73537461 
 3069      7274536B 
 3069      69657200 
 3070              	.LASF132:
 3071 01b5 4359424C 		.ascii	"CYBLE_GATT_VALUE_T\000"
 3071      455F4741 
 3071      54545F56 
 3071      414C5545 
 3071      5F5400
 3072              	.LASF175:
 3073 01c8 73656E64 		.ascii	"sendStartTime\000"
 3073      53746172 
 3073      7454696D 
 3073      6500
 3074              	.LASF33:
 3075 01d6 4359424C 		.ascii	"CYBLE_EVT_HCI_STATUS\000"
 3075      455F4556 
 3075      545F4843 
 3075      495F5354 
 3075      41545553 
 3076              	.LASF168:
 3077 01eb 64617461 		.ascii	"data\000"
 3077      00
 3078              	.LASF117:
 3079 01f0 4359424C 		.ascii	"CYBLE_GATTS_ERR_OPERATION_FAILED\000"
 3079      455F4741 
 3079      5454535F 
 3079      4552525F 
 3079      4F504552 
 3080              	.LASF83:
 3081 0211 4359424C 		.ascii	"CYBLE_EVT_PENDING_FLASH_WRITE\000"
 3081      455F4556 
 3081      545F5045 
 3081      4E44494E 
 3081      475F464C 
 3082              	.LASF94:
 3083 022f 4359424C 		.ascii	"CYBLE_GATT_ERR_WRITE_NOT_PERMITTED\000"
 3083      455F4741 
 3083      54545F45 
ARM GAS  C:\Users\Petro\AppData\Local\Temp\cc4k19PF.s 			page 72


 3083      52525F57 
 3083      52495445 
 3084              	.LASF72:
 3085 0252 4359424C 		.ascii	"CYBLE_EVT_L2CAP_CONN_PARAM_UPDATE_REQ\000"
 3085      455F4556 
 3085      545F4C32 
 3085      4341505F 
 3085      434F4E4E 
 3086              	.LASF44:
 3087 0278 4359424C 		.ascii	"CYBLE_EVT_GAP_ENCRYPT_CHANGE\000"
 3087      455F4556 
 3087      545F4741 
 3087      505F454E 
 3087      43525950 
 3088              	.LASF176:
 3089 0295 73656E64 		.ascii	"sendFinishTime\000"
 3089      46696E69 
 3089      73685469 
 3089      6D6500
 3090              	.LASF121:
 3091 02a4 4359424C 		.ascii	"CYBLE_GATT_ERR_ANCS_INVALID_COMMAND\000"
 3091      455F4741 
 3091      54545F45 
 3091      52525F41 
 3091      4E43535F 
 3092              	.LASF114:
 3093 02c8 4359424C 		.ascii	"CYBLE_GATT_ERR_OP_CODE_NOT_SUPPORTED\000"
 3093      455F4741 
 3093      54545F45 
 3093      52525F4F 
 3093      505F434F 
 3094              	.LASF96:
 3095 02ed 4359424C 		.ascii	"CYBLE_GATT_ERR_INSUFFICIENT_AUTHENTICATION\000"
 3095      455F4741 
 3095      54545F45 
 3095      52525F49 
 3095      4E535546 
 3096              	.LASF143:
 3097 0318 4359424C 		.ascii	"CYBLE_STATE_ADVERTISING\000"
 3097      455F5354 
 3097      4154455F 
 3097      41445645 
 3097      52544953 
 3098              	.LASF184:
 3099 0330 73656E64 		.ascii	"sendBufferStart\000"
 3099      42756666 
 3099      65725374 
 3099      61727400 
 3100              	.LASF9:
 3101 0340 6C6F6E67 		.ascii	"long long int\000"
 3101      206C6F6E 
 3101      6720696E 
 3101      7400
 3102              	.LASF0:
 3103 034e 7369676E 		.ascii	"signed char\000"
 3103      65642063 
 3103      68617200 
ARM GAS  C:\Users\Petro\AppData\Local\Temp\cc4k19PF.s 			page 73


 3104              	.LASF30:
 3105 035a 4359424C 		.ascii	"CYBLE_EVT_STACK_ON\000"
 3105      455F4556 
 3105      545F5354 
 3105      41434B5F 
 3105      4F4E00
 3106              	.LASF11:
 3107 036d 6C6F6E67 		.ascii	"long long unsigned int\000"
 3107      206C6F6E 
 3107      6720756E 
 3107      7369676E 
 3107      65642069 
 3108              	.LASF46:
 3109 0384 4359424C 		.ascii	"CYBLE_EVT_GAPC_SCAN_START_STOP\000"
 3109      455F4556 
 3109      545F4741 
 3109      50435F53 
 3109      43414E5F 
 3110              	.LASF131:
 3111 03a3 61637475 		.ascii	"actualLen\000"
 3111      616C4C65 
 3111      6E00
 3112              	.LASF36:
 3113 03ad 4359424C 		.ascii	"CYBLE_EVT_GAP_AUTH_REQ\000"
 3113      455F4556 
 3113      545F4741 
 3113      505F4155 
 3113      54485F52 
 3114              	.LASF57:
 3115 03c4 4359424C 		.ascii	"CYBLE_EVT_GATTC_READ_RSP\000"
 3115      455F4556 
 3115      545F4741 
 3115      5454435F 
 3115      52454144 
 3116              	.LASF95:
 3117 03dd 4359424C 		.ascii	"CYBLE_GATT_ERR_INVALID_PDU\000"
 3117      455F4741 
 3117      54545F45 
 3117      52525F49 
 3117      4E56414C 
 3118              	.LASF157:
 3119 03f8 5254435F 		.ascii	"RTC_GetHours\000"
 3119      47657448 
 3119      6F757273 
 3119      00
 3120              	.LASF62:
 3121 0405 4359424C 		.ascii	"CYBLE_EVT_GATTS_WRITE_CMD_REQ\000"
 3121      455F4556 
 3121      545F4741 
 3121      5454535F 
 3121      57524954 
 3122              	.LASF152:
 3123 0423 736B6965 		.ascii	"skierDB_El\000"
 3123      7244425F 
 3123      456C00
 3124              	.LASF144:
 3125 042e 4359424C 		.ascii	"CYBLE_STATE_DISCONNECTED\000"
ARM GAS  C:\Users\Petro\AppData\Local\Temp\cc4k19PF.s 			page 74


 3125      455F5354 
 3125      4154455F 
 3125      44495343 
 3125      4F4E4E45 
 3126              	.LASF41:
 3127 0447 4359424C 		.ascii	"CYBLE_EVT_GAPP_ADVERTISEMENT_START_STOP\000"
 3127      455F4556 
 3127      545F4741 
 3127      50505F41 
 3127      44564552 
 3128              	.LASF17:
 3129 046f 75696E74 		.ascii	"uint8\000"
 3129      3800
 3130              	.LASF65:
 3131 0475 4359424C 		.ascii	"CYBLE_EVT_GATTC_EXEC_WRITE_RSP\000"
 3131      455F4556 
 3131      545F4741 
 3131      5454435F 
 3131      45584543 
 3132              	.LASF21:
 3133 0494 646F7562 		.ascii	"double\000"
 3133      6C6500
 3134              	.LASF77:
 3135 049b 4359424C 		.ascii	"CYBLE_EVT_L2CAP_CBFC_DISCONN_IND\000"
 3135      455F4556 
 3135      545F4C32 
 3135      4341505F 
 3135      43424643 
 3136              	.LASF107:
 3137 04bc 4359424C 		.ascii	"CYBLE_GATT_ERR_UNSUPPORTED_GROUP_TYPE\000"
 3137      455F4741 
 3137      54545F45 
 3137      52525F55 
 3137      4E535550 
 3138              	.LASF190:
 3139 04e2 6C69625F 		.ascii	"lib_BLE\\bluetooth.c\000"
 3139      424C455C 
 3139      626C7565 
 3139      746F6F74 
 3139      682E6300 
 3140              	.LASF19:
 3141 04f6 75696E74 		.ascii	"uint32\000"
 3141      333200
 3142              	.LASF173:
 3143 04fd 424C455F 		.ascii	"BLE_sendAllSkierTime\000"
 3143      73656E64 
 3143      416C6C53 
 3143      6B696572 
 3143      54696D65 
 3144              	.LASF85:
 3145 0512 4359424C 		.ascii	"CYBLE_EVT_MAX\000"
 3145      455F4556 
 3145      545F4D41 
 3145      5800
 3146              	.LASF7:
 3147 0520 5F5F7569 		.ascii	"__uint32_t\000"
 3147      6E743332 
ARM GAS  C:\Users\Petro\AppData\Local\Temp\cc4k19PF.s 			page 75


 3147      5F7400
 3148              	.LASF154:
 3149 052b 5254435F 		.ascii	"RTC_GetMinutes\000"
 3149      4765744D 
 3149      696E7574 
 3149      657300
 3150              	.LASF93:
 3151 053a 4359424C 		.ascii	"CYBLE_GATT_ERR_READ_NOT_PERMITTED\000"
 3151      455F4741 
 3151      54545F45 
 3151      52525F52 
 3151      4541445F 
 3152              	.LASF18:
 3153 055c 75696E74 		.ascii	"uint16\000"
 3153      313600
 3154              	.LASF82:
 3155 0563 4359424C 		.ascii	"CYBLE_EVT_L2CAP_CBFC_DATA_WRITE_IND\000"
 3155      455F4556 
 3155      545F4C32 
 3155      4341505F 
 3155      43424643 
 3156              	.LASF134:
 3157 0587 61747472 		.ascii	"attrHandle\000"
 3157      48616E64 
 3157      6C6500
 3158              	.LASF119:
 3159 0592 4359424C 		.ascii	"CYBLE_GATT_ERR_ANS_COMMAND_NOT_SUPPORTED\000"
 3159      455F4741 
 3159      54545F45 
 3159      52525F41 
 3159      4E535F43 
 3160              	.LASF133:
 3161 05bb 76616C75 		.ascii	"value\000"
 3161      6500
 3162              	.LASF172:
 3163 05c1 6D696C6C 		.ascii	"mills\000"
 3163      7300
 3164              	.LASF162:
 3165 05c7 426C6543 		.ascii	"BleCallBack\000"
 3165      616C6C42 
 3165      61636B00 
 3166              	.LASF70:
 3167 05d3 4359424C 		.ascii	"CYBLE_EVT_GATTC_STOP_CMD_COMPLETE\000"
 3167      455F4556 
 3167      545F4741 
 3167      5454435F 
 3167      53544F50 
 3168              	.LASF12:
 3169 05f5 756E7369 		.ascii	"unsigned int\000"
 3169      676E6564 
 3169      20696E74 
 3169      00
 3170              	.LASF150:
 3171 0602 7365636F 		.ascii	"secondsWay\000"
 3171      6E647357 
 3171      617900
 3172              	.LASF84:
ARM GAS  C:\Users\Petro\AppData\Local\Temp\cc4k19PF.s 			page 76


 3173 060d 4359424C 		.ascii	"CYBLE_EVT_LE_PING_AUTH_TIMEOUT\000"
 3173      455F4556 
 3173      545F4C45 
 3173      5F50494E 
 3173      475F4155 
 3174              	.LASF14:
 3175 062c 75696E74 		.ascii	"uint16_t\000"
 3175      31365F74 
 3175      00
 3176              	.LASF118:
 3177 0635 4359424C 		.ascii	"CYBLE_GATT_ERR_INVALID_CRC\000"
 3177      455F4741 
 3177      54545F45 
 3177      52525F49 
 3177      4E56414C 
 3178              	.LASF113:
 3179 0650 4359424C 		.ascii	"CYBLE_GATTS_ERR_PROCEDURE_ALREADY_IN_PROGRESS\000"
 3179      455F4741 
 3179      5454535F 
 3179      4552525F 
 3179      50524F43 
 3180              	.LASF180:
 3181 067e 6379426C 		.ascii	"cyBle_connHandle\000"
 3181      655F636F 
 3181      6E6E4861 
 3181      6E646C65 
 3181      00
 3182              	.LASF8:
 3183 068f 6C6F6E67 		.ascii	"long unsigned int\000"
 3183      20756E73 
 3183      69676E65 
 3183      6420696E 
 3183      7400
 3184              	.LASF101:
 3185 06a1 4359424C 		.ascii	"CYBLE_GATT_ERR_ATTRIBUTE_NOT_FOUND\000"
 3185      455F4741 
 3185      54545F45 
 3185      52525F41 
 3185      54545249 
 3186              	.LASF165:
 3187 06c4 424C455F 		.ascii	"BLE_start\000"
 3187      73746172 
 3187      7400
 3188              	.LASF90:
 3189 06ce 4359424C 		.ascii	"CYBLE_BLESS_INVALID\000"
 3189      455F424C 
 3189      4553535F 
 3189      494E5641 
 3189      4C494400 
 3190              	.LASF52:
 3191 06e2 4359424C 		.ascii	"CYBLE_EVT_GATTC_XCHNG_MTU_RSP\000"
 3191      455F4556 
 3191      545F4741 
 3191      5454435F 
 3191      5843484E 
 3192              	.LASF69:
 3193 0700 4359424C 		.ascii	"CYBLE_EVT_GATTS_DATA_SIGNED_CMD_REQ\000"
ARM GAS  C:\Users\Petro\AppData\Local\Temp\cc4k19PF.s 			page 77


 3193      455F4556 
 3193      545F4741 
 3193      5454535F 
 3193      44415441 
 3194              	.LASF174:
 3195 0724 4964536B 		.ascii	"IdSkier\000"
 3195      69657200 
 3196              	.LASF158:
 3197 072c 6576656E 		.ascii	"event\000"
 3197      7400
 3198              	.LASF102:
 3199 0732 4359424C 		.ascii	"CYBLE_GATT_ERR_ATTRIBUTE_NOT_LONG\000"
 3199      455F4741 
 3199      54545F45 
 3199      52525F41 
 3199      54545249 
 3200              	.LASF25:
 3201 0754 64617465 		.ascii	"date\000"
 3201      00
 3202              	.LASF29:
 3203 0759 4359424C 		.ascii	"CYBLE_EVT_HOST_INVALID\000"
 3203      455F4556 
 3203      545F484F 
 3203      53545F49 
 3203      4E56414C 
 3204              	.LASF55:
 3205 0770 4359424C 		.ascii	"CYBLE_EVT_GATTC_FIND_INFO_RSP\000"
 3205      455F4556 
 3205      545F4741 
 3205      5454435F 
 3205      46494E44 
 3206              	.LASF64:
 3207 078e 4359424C 		.ascii	"CYBLE_EVT_GATTS_EXEC_WRITE_REQ\000"
 3207      455F4556 
 3207      545F4741 
 3207      5454535F 
 3207      45584543 
 3208              	.LASF120:
 3209 07ad 4359424C 		.ascii	"CYBLE_GATT_ERR_ANCS_UNKNOWN_COMMAND\000"
 3209      455F4741 
 3209      54545F45 
 3209      52525F41 
 3209      4E43535F 
 3210              	.LASF37:
 3211 07d1 4359424C 		.ascii	"CYBLE_EVT_GAP_PASSKEY_ENTRY_REQUEST\000"
 3211      455F4556 
 3211      545F4741 
 3211      505F5041 
 3211      53534B45 
 3212              	.LASF42:
 3213 07f5 4359424C 		.ascii	"CYBLE_EVT_GAP_DEVICE_CONNECTED\000"
 3213      455F4556 
 3213      545F4741 
 3213      505F4445 
 3213      56494345 
 3214              	.LASF185:
 3215 0814 73656E64 		.ascii	"sendBufferFinish\000"
ARM GAS  C:\Users\Petro\AppData\Local\Temp\cc4k19PF.s 			page 78


 3215      42756666 
 3215      65724669 
 3215      6E697368 
 3215      00
 3216              	.LASF60:
 3217 0825 4359424C 		.ascii	"CYBLE_EVT_GATTS_WRITE_REQ\000"
 3217      455F4556 
 3217      545F4741 
 3217      5454535F 
 3217      57524954 
 3218              	.LASF167:
 3219 083f 424C455F 		.ascii	"BLE_sendOneSkierTime\000"
 3219      73656E64 
 3219      4F6E6553 
 3219      6B696572 
 3219      54696D65 
 3220              	.LASF112:
 3221 0854 4359424C 		.ascii	"CYBLE_GATT_ERR_HTS_OUT_OF_RANGE\000"
 3221      455F4741 
 3221      54545F45 
 3221      52525F48 
 3221      54535F4F 
 3222              	.LASF179:
 3223 0874 6379426C 		.ascii	"cyBle_state\000"
 3223      655F7374 
 3223      61746500 
 3224              	.LASF191:
 3225 0880 443A5C43 		.ascii	"D:\\Cypress\\system-start-finish\\vesion 2\\fw\\fin"
 3225      79707265 
 3225      73735C73 
 3225      79737465 
 3225      6D2D7374 
 3226 08ae 6973685C 		.ascii	"ish\\sandbox\\v6_ble\\Finish(state machine)\\fin_v0"
 3226      73616E64 
 3226      626F785C 
 3226      76365F62 
 3226      6C655C46 
 3227 08dd 2E637964 		.ascii	".cydsn\000"
 3227      736E00
 3228              	.LASF49:
 3229 08e4 4359424C 		.ascii	"CYBLE_EVT_GATT_CONNECT_IND\000"
 3229      455F4556 
 3229      545F4741 
 3229      54545F43 
 3229      4F4E4E45 
 3230              	.LASF153:
 3231 08ff 5254435F 		.ascii	"RTC_GetSecond\000"
 3231      47657453 
 3231      65636F6E 
 3231      6400
 3232              	.LASF74:
 3233 090d 4359424C 		.ascii	"CYBLE_EVT_L2CAP_COMMAND_REJ\000"
 3233      455F4556 
 3233      545F4C32 
 3233      4341505F 
 3233      434F4D4D 
 3234              	.LASF111:
ARM GAS  C:\Users\Petro\AppData\Local\Temp\cc4k19PF.s 			page 79


 3235 0929 4359424C 		.ascii	"CYBLE_GATT_ERR_CPS_INAPPROPRIATE_CONNECTION_PARAMET"
 3235      455F4741 
 3235      54545F45 
 3235      52525F43 
 3235      50535F49 
 3236 095c 45525300 		.ascii	"ERS\000"
 3237              	.LASF35:
 3238 0960 4359424C 		.ascii	"CYBLE_EVT_GAPC_SCAN_PROGRESS_RESULT\000"
 3238      455F4556 
 3238      545F4741 
 3238      50435F53 
 3238      43414E5F 
 3239              	.LASF129:
 3240 0984 61747449 		.ascii	"attId\000"
 3240      6400
 3241              	.LASF92:
 3242 098a 4359424C 		.ascii	"CYBLE_GATT_ERR_INVALID_HANDLE\000"
 3242      455F4741 
 3242      54545F45 
 3242      52525F49 
 3242      4E56414C 
 3243              	.LASF146:
 3244 09a8 756E6978 		.ascii	"unixStartSkier\000"
 3244      53746172 
 3244      74536B69 
 3244      657200
 3245              	.LASF75:
 3246 09b7 4359424C 		.ascii	"CYBLE_EVT_L2CAP_CBFC_CONN_IND\000"
 3246      455F4556 
 3246      545F4C32 
 3246      4341505F 
 3246      43424643 
 3247              	.LASF54:
 3248 09d5 4359424C 		.ascii	"CYBLE_EVT_GATTC_READ_BY_TYPE_RSP\000"
 3248      455F4556 
 3248      545F4741 
 3248      5454435F 
 3248      52454144 
 3249              	.LASF23:
 3250 09f6 73697A65 		.ascii	"sizetype\000"
 3250      74797065 
 3250      00
 3251              	.LASF108:
 3252 09ff 4359424C 		.ascii	"CYBLE_GATT_ERR_INSUFFICIENT_RESOURCE\000"
 3252      455F4741 
 3252      54545F45 
 3252      52525F49 
 3252      4E535546 
 3253              	.LASF139:
 3254 0a24 4359424C 		.ascii	"CYBLE_GATTS_WRITE_REQ_PARAM_T\000"
 3254      455F4741 
 3254      5454535F 
 3254      57524954 
 3254      455F5245 
 3255              	.LASF136:
 3256 0a42 4359424C 		.ascii	"CYBLE_GATTS_HANDLE_VALUE_NTF_T\000"
 3256      455F4741 
ARM GAS  C:\Users\Petro\AppData\Local\Temp\cc4k19PF.s 			page 80


 3256      5454535F 
 3256      48414E44 
 3256      4C455F56 
 3257              	.LASF141:
 3258 0a61 4359424C 		.ascii	"CYBLE_STATE_INITIALIZING\000"
 3258      455F5354 
 3258      4154455F 
 3258      494E4954 
 3258      49414C49 
 3259              	.LASF40:
 3260 0a7a 4359424C 		.ascii	"CYBLE_EVT_GAP_AUTH_FAILED\000"
 3260      455F4556 
 3260      545F4741 
 3260      505F4155 
 3260      54485F46 
 3261              	.LASF193:
 3262 0a94 424C455F 		.ascii	"BLE_getUnixTime\000"
 3262      67657455 
 3262      6E697854 
 3262      696D6500 
 3263              	.LASF61:
 3264 0aa4 4359424C 		.ascii	"CYBLE_EVT_GATTC_WRITE_RSP\000"
 3264      455F4556 
 3264      545F4741 
 3264      5454435F 
 3264      57524954 
 3265              	.LASF89:
 3266 0abe 4359424C 		.ascii	"CYBLE_BLESS_HIBERNATE\000"
 3266      455F424C 
 3266      4553535F 
 3266      48494245 
 3266      524E4154 
 3267              	.LASF26:
 3268 0ad4 6461794F 		.ascii	"dayOfWeek\000"
 3268      66576565 
 3268      6B00
 3269              	.LASF99:
 3270 0ade 4359424C 		.ascii	"CYBLE_GATT_ERR_INSUFFICIENT_AUTHORIZATION\000"
 3270      455F4741 
 3270      54545F45 
 3270      52525F49 
 3270      4E535546 
 3271              	.LASF39:
 3272 0b08 4359424C 		.ascii	"CYBLE_EVT_GAP_AUTH_COMPLETE\000"
 3272      455F4556 
 3272      545F4741 
 3272      505F4155 
 3272      54485F43 
 3273              	.LASF148:
 3274 0b24 756E6978 		.ascii	"unixFinishSkier\000"
 3274      46696E69 
 3274      7368536B 
 3274      69657200 
 3275              	.LASF66:
 3276 0b34 4359424C 		.ascii	"CYBLE_EVT_GATTC_HANDLE_VALUE_NTF\000"
 3276      455F4556 
 3276      545F4741 
ARM GAS  C:\Users\Petro\AppData\Local\Temp\cc4k19PF.s 			page 81


 3276      5454435F 
 3276      48414E44 
 3277              	.LASF24:
 3278 0b55 74696D65 		.ascii	"time\000"
 3278      00
 3279              	.LASF135:
 3280 0b5a 4359424C 		.ascii	"CYBLE_GATT_HANDLE_VALUE_PAIR_T\000"
 3280      455F4741 
 3280      54545F48 
 3280      414E444C 
 3280      455F5641 
 3281              	.LASF76:
 3282 0b79 4359424C 		.ascii	"CYBLE_EVT_L2CAP_CBFC_CONN_CNF\000"
 3282      455F4556 
 3282      545F4C32 
 3282      4341505F 
 3282      43424643 
 3283              	.LASF182:
 3284 0b97 626C6555 		.ascii	"bleUnixTime\000"
 3284      6E697854 
 3284      696D6500 
 3285              	.LASF122:
 3286 0ba3 4359424C 		.ascii	"CYBLE_GATT_ERR_ANCS_INVALID_PARAMETER\000"
 3286      455F4741 
 3286      54545F45 
 3286      52525F41 
 3286      4E43535F 
 3287              	.LASF10:
 3288 0bc9 5F5F7569 		.ascii	"__uint64_t\000"
 3288      6E743634 
 3288      5F7400
 3289              	.LASF53:
 3290 0bd4 4359424C 		.ascii	"CYBLE_EVT_GATTC_READ_BY_GROUP_TYPE_RSP\000"
 3290      455F4556 
 3290      545F4741 
 3290      5454435F 
 3290      52454144 
 3291              	.LASF20:
 3292 0bfb 666C6F61 		.ascii	"float\000"
 3292      7400
 3293              	.LASF100:
 3294 0c01 4359424C 		.ascii	"CYBLE_GATT_ERR_PREPARE_WRITE_QUEUE_FULL\000"
 3294      455F4741 
 3294      54545F45 
 3294      52525F50 
 3294      52455041 
 3295              	.LASF164:
 3296 0c29 74656D70 		.ascii	"tempHandle\000"
 3296      48616E64 
 3296      6C6500
 3297              	.LASF50:
 3298 0c34 4359424C 		.ascii	"CYBLE_EVT_GATT_DISCONNECT_IND\000"
 3298      455F4556 
 3298      545F4741 
 3298      54545F44 
 3298      4953434F 
 3299              	.LASF126:
ARM GAS  C:\Users\Petro\AppData\Local\Temp\cc4k19PF.s 			page 82


 3300 0c52 4359424C 		.ascii	"CYBLE_GATT_ERR_OUT_OF_RANGE\000"
 3300      455F4741 
 3300      54545F45 
 3300      52525F4F 
 3300      55545F4F 
 3301              	.LASF1:
 3302 0c6e 756E7369 		.ascii	"unsigned char\000"
 3302      676E6564 
 3302      20636861 
 3302      7200
 3303              	.LASF177:
 3304 0c7c 73656E64 		.ascii	"sendResultTime\000"
 3304      52657375 
 3304      6C745469 
 3304      6D6500
 3305              	.LASF104:
 3306 0c8b 4359424C 		.ascii	"CYBLE_GATT_ERR_INVALID_ATTRIBUTE_LEN\000"
 3306      455F4741 
 3306      54545F45 
 3306      52525F49 
 3306      4E56414C 
 3307              	.LASF116:
 3308 0cb0 4359424C 		.ascii	"CYBLE_GATTS_ERR_CCCD_IMPROPERLY_CONFIGURED\000"
 3308      455F4741 
 3308      5454535F 
 3308      4552525F 
 3308      43434344 
 3309              	.LASF155:
 3310 0cdb 696E7075 		.ascii	"inputTime\000"
 3310      7454696D 
 3310      6500
 3311              	.LASF2:
 3312 0ce5 73686F72 		.ascii	"short int\000"
 3312      7420696E 
 3312      7400
 3313              	.LASF67:
 3314 0cef 4359424C 		.ascii	"CYBLE_EVT_GATTC_HANDLE_VALUE_IND\000"
 3314      455F4556 
 3314      545F4741 
 3314      5454435F 
 3314      48414E44 
 3315              	.LASF115:
 3316 0d10 4359424C 		.ascii	"CYBLE_GATT_ERR_MISSING_CRC\000"
 3316      455F4741 
 3316      54545F45 
 3316      52525F4D 
 3316      49535349 
 3317              	.LASF166:
 3318 0d2b 424C455F 		.ascii	"BLE_processEvents\000"
 3318      70726F63 
 3318      65737345 
 3318      76656E74 
 3318      7300
 3319              	.LASF63:
 3320 0d3d 4359424C 		.ascii	"CYBLE_EVT_GATTS_PREP_WRITE_REQ\000"
 3320      455F4556 
 3320      545F4741 
ARM GAS  C:\Users\Petro\AppData\Local\Temp\cc4k19PF.s 			page 83


 3320      5454535F 
 3320      50524550 
 3321              	.LASF183:
 3322 0d5c 73656E64 		.ascii	"sendIdSkier\000"
 3322      4964536B 
 3322      69657200 
 3323              	.LASF149:
 3324 0d68 6D696C6C 		.ascii	"millsFinishSkier\000"
 3324      7346696E 
 3324      69736853 
 3324      6B696572 
 3324      00
 3325              	.LASF68:
 3326 0d79 4359424C 		.ascii	"CYBLE_EVT_GATTS_HANDLE_VALUE_CNF\000"
 3326      455F4556 
 3326      545F4741 
 3326      5454535F 
 3326      48414E44 
 3327              	.LASF124:
 3328 0d9a 4359424C 		.ascii	"CYBLE_GATT_ERR_CCCD_IMPROPERLY_CONFIGURED\000"
 3328      455F4741 
 3328      54545F45 
 3328      52525F43 
 3328      4343445F 
 3329              	.LASF15:
 3330 0dc4 75696E74 		.ascii	"uint32_t\000"
 3330      33325F74 
 3330      00
 3331              	.LASF192:
 3332 0dcd 75706461 		.ascii	"updateTimeOneSkier\000"
 3332      74655469 
 3332      6D654F6E 
 3332      65536B69 
 3332      657200
 3333              	.LASF109:
 3334 0de0 4359424C 		.ascii	"CYBLE_GATT_ERR_HEART_RATE_CONTROL_POINT_NOT_SUPPORT"
 3334      455F4741 
 3334      54545F45 
 3334      52525F48 
 3334      45415254 
 3335 0e13 454400   		.ascii	"ED\000"
 3336              	.LASF188:
 3337 0e16 75617274 		.ascii	"uartBuffer\000"
 3337      42756666 
 3337      657200
 3338              	.LASF28:
 3339 0e21 5254435F 		.ascii	"RTC_DATE_TIME\000"
 3339      44415445 
 3339      5F54494D 
 3339      4500
 3340              	.LASF22:
 3341 0e2f 63686172 		.ascii	"char\000"
 3341      00
 3342              	.LASF87:
 3343 0e34 4359424C 		.ascii	"CYBLE_BLESS_SLEEP\000"
 3343      455F424C 
 3343      4553535F 
ARM GAS  C:\Users\Petro\AppData\Local\Temp\cc4k19PF.s 			page 84


 3343      534C4545 
 3343      5000
 3344              	.LASF181:
 3345 0e46 6E6F7469 		.ascii	"notifycaiton\000"
 3345      66796361 
 3345      69746F6E 
 3345      00
 3346              	.LASF43:
 3347 0e53 4359424C 		.ascii	"CYBLE_EVT_GAP_DEVICE_DISCONNECTED\000"
 3347      455F4556 
 3347      545F4741 
 3347      505F4445 
 3347      56494345 
 3348              	.LASF4:
 3349 0e75 5F5F7569 		.ascii	"__uint16_t\000"
 3349      6E743136 
 3349      5F7400
 3350              	.LASF71:
 3351 0e80 4359424C 		.ascii	"CYBLE_EVT_GATTS_READ_CHAR_VAL_ACCESS_REQ\000"
 3351      455F4556 
 3351      545F4741 
 3351      5454535F 
 3351      52454144 
 3352              	.LASF81:
 3353 0ea9 4359424C 		.ascii	"CYBLE_EVT_L2CAP_CBFC_TX_CREDIT_IND\000"
 3353      455F4556 
 3353      545F4C32 
 3353      4341505F 
 3353      43424643 
 3354              	.LASF58:
 3355 0ecc 4359424C 		.ascii	"CYBLE_EVT_GATTC_READ_BLOB_RSP\000"
 3355      455F4556 
 3355      545F4741 
 3355      5454435F 
 3355      52454144 
 3356              	.LASF105:
 3357 0eea 4359424C 		.ascii	"CYBLE_GATT_ERR_UNLIKELY_ERROR\000"
 3357      455F4741 
 3357      54545F45 
 3357      52525F55 
 3357      4E4C494B 
 3358              	.LASF123:
 3359 0f08 4359424C 		.ascii	"CYBLE_GATT_ERR_ANCS_ACTION_FAILED\000"
 3359      455F4741 
 3359      54545F45 
 3359      52525F41 
 3359      4E43535F 
 3360              	.LASF38:
 3361 0f2a 4359424C 		.ascii	"CYBLE_EVT_GAP_PASSKEY_DISPLAY_REQUEST\000"
 3361      455F4556 
 3361      545F4741 
 3361      505F5041 
 3361      53534B45 
 3362              	.LASF125:
 3363 0f50 4359424C 		.ascii	"CYBLE_GATT_ERR_PROCEDURE_ALREADY_IN_PROGRESS\000"
 3363      455F4741 
 3363      54545F45 
ARM GAS  C:\Users\Petro\AppData\Local\Temp\cc4k19PF.s 			page 85


 3363      52525F50 
 3363      524F4345 
 3364              	.LASF151:
 3365 0f7d 6D696C6C 		.ascii	"millsWay\000"
 3365      73576179 
 3365      00
 3366              	.LASF32:
 3367 0f86 4359424C 		.ascii	"CYBLE_EVT_HARDWARE_ERROR\000"
 3367      455F4556 
 3367      545F4841 
 3367      52445741 
 3367      52455F45 
 3368              	.LASF5:
 3369 0f9f 73686F72 		.ascii	"short unsigned int\000"
 3369      7420756E 
 3369      7369676E 
 3369      65642069 
 3369      6E7400
 3370              	.LASF48:
 3371 0fb2 4359424C 		.ascii	"CYBLE_EVT_GATTC_ERROR_RSP\000"
 3371      455F4556 
 3371      545F4741 
 3371      5454435F 
 3371      4552524F 
 3372              	.LASF138:
 3373 0fcc 68616E64 		.ascii	"handleValPair\000"
 3373      6C655661 
 3373      6C506169 
 3373      7200
 3374              	.LASF170:
 3375 0fda 424C455F 		.ascii	"BLE_sendOneSkierTimeStart\000"
 3375      73656E64 
 3375      4F6E6553 
 3375      6B696572 
 3375      54696D65 
 3376              	.LASF171:
 3377 0ff4 756E6978 		.ascii	"unixTime\000"
 3377      54696D65 
 3377      00
 3378              	.LASF110:
 3379 0ffd 4359424C 		.ascii	"CYBLE_GATT_ERR_USER_DATA_ACCESS_NOT_PERMITTED\000"
 3379      455F4741 
 3379      54545F45 
 3379      52525F55 
 3379      5345525F 
 3380              	.LASF187:
 3381 102b 73656E64 		.ascii	"sendBufferStatus\000"
 3381      42756666 
 3381      65725374 
 3381      61747573 
 3381      00
 3382              	.LASF51:
 3383 103c 4359424C 		.ascii	"CYBLE_EVT_GATTS_XCNHG_MTU_REQ\000"
 3383      455F4556 
 3383      545F4741 
 3383      5454535F 
 3383      58434E48 
ARM GAS  C:\Users\Petro\AppData\Local\Temp\cc4k19PF.s 			page 86


 3384              	.LASF159:
 3385 105a 6576656E 		.ascii	"eventParam\000"
 3385      74506172 
 3385      616D00
 3386              	.LASF27:
 3387 1065 73746174 		.ascii	"status\000"
 3387      757300
 3388              	.LASF91:
 3389 106c 4359424C 		.ascii	"CYBLE_GATT_ERR_NONE\000"
 3389      455F4741 
 3389      54545F45 
 3389      52525F4E 
 3389      4F4E4500 
 3390              	.LASF145:
 3391 1080 4359424C 		.ascii	"CYBLE_STATE_T\000"
 3391      455F5354 
 3391      4154455F 
 3391      5400
 3392              	.LASF13:
 3393 108e 75696E74 		.ascii	"uint8_t\000"
 3393      385F7400 
 3394              	.LASF98:
 3395 1096 4359424C 		.ascii	"CYBLE_GATT_ERR_INVALID_OFFSET\000"
 3395      455F4741 
 3395      54545F45 
 3395      52525F49 
 3395      4E56414C 
 3396              	.LASF142:
 3397 10b4 4359424C 		.ascii	"CYBLE_STATE_CONNECTED\000"
 3397      455F5354 
 3397      4154455F 
 3397      434F4E4E 
 3397      45435445 
 3398              	.LASF88:
 3399 10ca 4359424C 		.ascii	"CYBLE_BLESS_DEEPSLEEP\000"
 3399      455F424C 
 3399      4553535F 
 3399      44454550 
 3399      534C4545 
 3400              	.LASF189:
 3401 10e0 474E5520 		.ascii	"GNU C 4.9.3 20150303 (release) [ARM/embedded-4_9-br"
 3401      4320342E 
 3401      392E3320 
 3401      32303135 
 3401      30333033 
 3402 1113 616E6368 		.ascii	"anch revision 221220] -mcpu=cortex-m0 -mthumb -g -O"
 3402      20726576 
 3402      6973696F 
 3402      6E203232 
 3402      31323230 
 3403 1146 30202D66 		.ascii	"0 -ffunction-sections -ffat-lto-objects\000"
 3403      66756E63 
 3403      74696F6E 
 3403      2D736563 
 3403      74696F6E 
 3404              	.LASF56:
 3405 116e 4359424C 		.ascii	"CYBLE_EVT_GATTC_FIND_BY_TYPE_VALUE_RSP\000"
ARM GAS  C:\Users\Petro\AppData\Local\Temp\cc4k19PF.s 			page 87


 3405      455F4556 
 3405      545F4741 
 3405      5454435F 
 3405      46494E44 
 3406              	.LASF47:
 3407 1195 4359424C 		.ascii	"CYBLE_EVT_GAP_KEYINFO_EXCHNGE_CMPLT\000"
 3407      455F4556 
 3407      545F4741 
 3407      505F4B45 
 3407      59494E46 
 3408              	.LASF128:
 3409 11b9 62644861 		.ascii	"bdHandle\000"
 3409      6E646C65 
 3409      00
 3410              	.LASF186:
 3411 11c2 73656E64 		.ascii	"sendBufferResult\000"
 3411      42756666 
 3411      65725265 
 3411      73756C74 
 3411      00
 3412              	.LASF73:
 3413 11d3 4359424C 		.ascii	"CYBLE_EVT_L2CAP_CONN_PARAM_UPDATE_RSP\000"
 3413      455F4556 
 3413      545F4C32 
 3413      4341505F 
 3413      434F4E4E 
 3414              	.LASF86:
 3415 11f9 4359424C 		.ascii	"CYBLE_BLESS_ACTIVE\000"
 3415      455F424C 
 3415      4553535F 
 3415      41435449 
 3415      564500
 3416              	.LASF127:
 3417 120c 4359424C 		.ascii	"CYBLE_GATT_DB_ATTR_HANDLE_T\000"
 3417      455F4741 
 3417      54545F44 
 3417      425F4154 
 3417      54525F48 
 3418              	.LASF106:
 3419 1228 4359424C 		.ascii	"CYBLE_GATT_ERR_INSUFFICIENT_ENCRYPTION\000"
 3419      455F4741 
 3419      54545F45 
 3419      52525F49 
 3419      4E535546 
 3420              	.LASF163:
 3421 124f 75706461 		.ascii	"updateData\000"
 3421      74654461 
 3421      746100
 3422              		.ident	"GCC: (GNU Tools for ARM Embedded Processors) 4.9.3 20150303 (release) [ARM/embedded-4_9-br
