ARM GAS  C:\Users\Petro\AppData\Local\Temp\ccKADxhi.s 			page 1


   1              		.cpu cortex-m0
   2              		.fpu softvfp
   3              		.eabi_attribute 20, 1
   4              		.eabi_attribute 21, 1
   5              		.eabi_attribute 23, 3
   6              		.eabi_attribute 24, 1
   7              		.eabi_attribute 25, 1
   8              		.eabi_attribute 26, 1
   9              		.eabi_attribute 30, 6
  10              		.eabi_attribute 34, 0
  11              		.eabi_attribute 18, 4
  12              		.code	16
  13              		.file	"bluetooth.c"
  14              		.text
  15              	.Ltext0:
  16              		.cfi_sections	.debug_frame
  17              		.section	.text.RTC_GetSecond,"ax",%progbits
  18              		.align	2
  19              		.code	16
  20              		.thumb_func
  21              		.type	RTC_GetSecond, %function
  22              	RTC_GetSecond:
  23              	.LFB4:
  24              		.file 1 "Generated_Source\\PSoC4/RTC.h"
   1:Generated_Source\PSoC4/RTC.h **** /***************************************************************************//**
   2:Generated_Source\PSoC4/RTC.h **** * \file Name: RTC.h
   3:Generated_Source\PSoC4/RTC.h **** * \version 1.10
   4:Generated_Source\PSoC4/RTC.h **** *
   5:Generated_Source\PSoC4/RTC.h **** * \brief
   6:Generated_Source\PSoC4/RTC.h **** *  This file provides constants and parameter values for the RTC_P4 Component.
   7:Generated_Source\PSoC4/RTC.h **** *
   8:Generated_Source\PSoC4/RTC.h **** ********************************************************************************
   9:Generated_Source\PSoC4/RTC.h **** * Copyright 2015-2016, Cypress Semiconductor Corporation.  All rights reserved.
  10:Generated_Source\PSoC4/RTC.h **** * You may use this file only in accordance with the license, terms, conditions,
  11:Generated_Source\PSoC4/RTC.h **** * disclaimers, and limitations in the end user license agreement accompanying
  12:Generated_Source\PSoC4/RTC.h **** * the software package with which this file was provided.
  13:Generated_Source\PSoC4/RTC.h **** *******************************************************************************/
  14:Generated_Source\PSoC4/RTC.h **** 
  15:Generated_Source\PSoC4/RTC.h **** #if !defined(CY_RTC_P4_RTC_H)
  16:Generated_Source\PSoC4/RTC.h **** #define CY_RTC_P4_RTC_H
  17:Generated_Source\PSoC4/RTC.h **** 
  18:Generated_Source\PSoC4/RTC.h **** #include <cytypes.h>
  19:Generated_Source\PSoC4/RTC.h **** #include <CyLib.h>
  20:Generated_Source\PSoC4/RTC.h **** 
  21:Generated_Source\PSoC4/RTC.h **** 
  22:Generated_Source\PSoC4/RTC.h **** /*******************************************************************************
  23:Generated_Source\PSoC4/RTC.h **** *    Data types definition
  24:Generated_Source\PSoC4/RTC.h **** *******************************************************************************/
  25:Generated_Source\PSoC4/RTC.h **** 
  26:Generated_Source\PSoC4/RTC.h **** typedef enum
  27:Generated_Source\PSoC4/RTC.h **** {
  28:Generated_Source\PSoC4/RTC.h ****     RTC_DST_DATE_RELATIVE = 0u,
  29:Generated_Source\PSoC4/RTC.h ****     RTC_DST_DATE_FIXED = 1u
  30:Generated_Source\PSoC4/RTC.h **** }RTC_DST_DATETYPE_ENUM;
  31:Generated_Source\PSoC4/RTC.h **** 
  32:Generated_Source\PSoC4/RTC.h **** /**
  33:Generated_Source\PSoC4/RTC.h **** * \addtogroup group_structures
ARM GAS  C:\Users\Petro\AppData\Local\Temp\ccKADxhi.s 			page 2


  34:Generated_Source\PSoC4/RTC.h **** * @{
  35:Generated_Source\PSoC4/RTC.h **** */
  36:Generated_Source\PSoC4/RTC.h **** 
  37:Generated_Source\PSoC4/RTC.h **** /**
  38:Generated_Source\PSoC4/RTC.h **** * This is the data structure that is used to save the current time and date 
  39:Generated_Source\PSoC4/RTC.h **** * (RTC_currentTimeDate), and Alarm time and date (RTC_alarmCfgTimeDate).
  40:Generated_Source\PSoC4/RTC.h **** */
  41:Generated_Source\PSoC4/RTC.h **** typedef struct
  42:Generated_Source\PSoC4/RTC.h **** {
  43:Generated_Source\PSoC4/RTC.h ****     uint32 time;
  44:Generated_Source\PSoC4/RTC.h ****     uint32 date;
  45:Generated_Source\PSoC4/RTC.h ****     uint32 dayOfWeek;
  46:Generated_Source\PSoC4/RTC.h ****     uint32 status;
  47:Generated_Source\PSoC4/RTC.h **** }RTC_DATE_TIME;
  48:Generated_Source\PSoC4/RTC.h **** 
  49:Generated_Source\PSoC4/RTC.h **** /**
  50:Generated_Source\PSoC4/RTC.h **** * This is the data structure that is used to save time and date values for 
  51:Generated_Source\PSoC4/RTC.h **** * Daylight Savings Time Start and Stop (RTC_dstTimeDateStart and 
  52:Generated_Source\PSoC4/RTC.h **** * RTC_dstTimeDateStop).
  53:Generated_Source\PSoC4/RTC.h **** */
  54:Generated_Source\PSoC4/RTC.h **** typedef struct
  55:Generated_Source\PSoC4/RTC.h **** {
  56:Generated_Source\PSoC4/RTC.h ****     uint32 hour;
  57:Generated_Source\PSoC4/RTC.h ****     uint32 dayOfWeek;
  58:Generated_Source\PSoC4/RTC.h ****     uint32 dayOfMonth;
  59:Generated_Source\PSoC4/RTC.h ****     uint32 weekOfMonth;
  60:Generated_Source\PSoC4/RTC.h ****     uint32 month;
  61:Generated_Source\PSoC4/RTC.h ****     uint8  timeFormat;
  62:Generated_Source\PSoC4/RTC.h **** }RTC_DST_TIME;
  63:Generated_Source\PSoC4/RTC.h **** 
  64:Generated_Source\PSoC4/RTC.h **** /** @} structures */
  65:Generated_Source\PSoC4/RTC.h **** 
  66:Generated_Source\PSoC4/RTC.h **** /*******************************************************************************
  67:Generated_Source\PSoC4/RTC.h **** *    Enumerated Types and Parameters
  68:Generated_Source\PSoC4/RTC.h **** *******************************************************************************/
  69:Generated_Source\PSoC4/RTC.h **** /* Time Format setting constants */
  70:Generated_Source\PSoC4/RTC.h **** #define RTC__HOUR_12 1
  71:Generated_Source\PSoC4/RTC.h **** #define RTC__HOUR_24 0
  72:Generated_Source\PSoC4/RTC.h **** 
  73:Generated_Source\PSoC4/RTC.h **** /*  Date Format setting constants */
  74:Generated_Source\PSoC4/RTC.h **** #define RTC__MM_DD_YYYY 0
  75:Generated_Source\PSoC4/RTC.h **** #define RTC__DD_MM_YYYY 1
  76:Generated_Source\PSoC4/RTC.h **** #define RTC__YYYY_MM_DD 2
  77:Generated_Source\PSoC4/RTC.h **** 
  78:Generated_Source\PSoC4/RTC.h **** /* Date Type setting constants */
  79:Generated_Source\PSoC4/RTC.h **** #define RTC__RELATIVE 0
  80:Generated_Source\PSoC4/RTC.h **** #define RTC__FIXED 1
  81:Generated_Source\PSoC4/RTC.h **** 
  82:Generated_Source\PSoC4/RTC.h **** /* DST Hour setting constants */
  83:Generated_Source\PSoC4/RTC.h **** #define RTC__H0000 0
  84:Generated_Source\PSoC4/RTC.h **** #define RTC__H0100 1
  85:Generated_Source\PSoC4/RTC.h **** #define RTC__H0200 2
  86:Generated_Source\PSoC4/RTC.h **** #define RTC__H0300 3
  87:Generated_Source\PSoC4/RTC.h **** #define RTC__H0400 4
  88:Generated_Source\PSoC4/RTC.h **** #define RTC__H0500 5
  89:Generated_Source\PSoC4/RTC.h **** #define RTC__H0600 6
  90:Generated_Source\PSoC4/RTC.h **** #define RTC__H0700 7
ARM GAS  C:\Users\Petro\AppData\Local\Temp\ccKADxhi.s 			page 3


  91:Generated_Source\PSoC4/RTC.h **** #define RTC__H0800 8
  92:Generated_Source\PSoC4/RTC.h **** #define RTC__H0900 9
  93:Generated_Source\PSoC4/RTC.h **** #define RTC__H1000 10
  94:Generated_Source\PSoC4/RTC.h **** #define RTC__H1100 11
  95:Generated_Source\PSoC4/RTC.h **** #define RTC__H1200 12
  96:Generated_Source\PSoC4/RTC.h **** #define RTC__H1300 13
  97:Generated_Source\PSoC4/RTC.h **** #define RTC__H1400 14
  98:Generated_Source\PSoC4/RTC.h **** #define RTC__H1500 15
  99:Generated_Source\PSoC4/RTC.h **** #define RTC__H1600 16
 100:Generated_Source\PSoC4/RTC.h **** #define RTC__H1700 17
 101:Generated_Source\PSoC4/RTC.h **** #define RTC__H1800 18
 102:Generated_Source\PSoC4/RTC.h **** #define RTC__H1900 19
 103:Generated_Source\PSoC4/RTC.h **** #define RTC__H2000 20
 104:Generated_Source\PSoC4/RTC.h **** #define RTC__H2100 21
 105:Generated_Source\PSoC4/RTC.h **** #define RTC__H2200 22
 106:Generated_Source\PSoC4/RTC.h **** #define RTC__H2300 23
 107:Generated_Source\PSoC4/RTC.h **** 
 108:Generated_Source\PSoC4/RTC.h **** /* DST DayOfWeek setting constants */
 109:Generated_Source\PSoC4/RTC.h **** #define RTC__SUNDAY 1
 110:Generated_Source\PSoC4/RTC.h **** #define RTC__MONDAY 2
 111:Generated_Source\PSoC4/RTC.h **** #define RTC__TUESDAY 3
 112:Generated_Source\PSoC4/RTC.h **** #define RTC__WEDNESDAY 4
 113:Generated_Source\PSoC4/RTC.h **** #define RTC__THURSDAY 5
 114:Generated_Source\PSoC4/RTC.h **** #define RTC__FRIDAY 6
 115:Generated_Source\PSoC4/RTC.h **** #define RTC__SATURDAY 7
 116:Generated_Source\PSoC4/RTC.h **** 
 117:Generated_Source\PSoC4/RTC.h **** /* DST Month setting constants */
 118:Generated_Source\PSoC4/RTC.h **** #define RTC__JAN 1
 119:Generated_Source\PSoC4/RTC.h **** #define RTC__FEB 2
 120:Generated_Source\PSoC4/RTC.h **** #define RTC__MAR 3
 121:Generated_Source\PSoC4/RTC.h **** #define RTC__APR 4
 122:Generated_Source\PSoC4/RTC.h **** #define RTC__MAY 5
 123:Generated_Source\PSoC4/RTC.h **** #define RTC__JUN 6
 124:Generated_Source\PSoC4/RTC.h **** #define RTC__JUL 7
 125:Generated_Source\PSoC4/RTC.h **** #define RTC__AUG 8
 126:Generated_Source\PSoC4/RTC.h **** #define RTC__SEP 9
 127:Generated_Source\PSoC4/RTC.h **** #define RTC__OCT 10
 128:Generated_Source\PSoC4/RTC.h **** #define RTC__NOV 11
 129:Generated_Source\PSoC4/RTC.h **** #define RTC__DEC 12
 130:Generated_Source\PSoC4/RTC.h **** 
 131:Generated_Source\PSoC4/RTC.h **** /* DST WeekOfMonth setting constants */
 132:Generated_Source\PSoC4/RTC.h **** #define RTC__FIRST 1
 133:Generated_Source\PSoC4/RTC.h **** #define RTC__SECOND 2
 134:Generated_Source\PSoC4/RTC.h **** #define RTC__THIRD 3
 135:Generated_Source\PSoC4/RTC.h **** #define RTC__FOURTH 4
 136:Generated_Source\PSoC4/RTC.h **** #define RTC__FIFTH 5
 137:Generated_Source\PSoC4/RTC.h **** #define RTC__LAST 6
 138:Generated_Source\PSoC4/RTC.h **** 
 139:Generated_Source\PSoC4/RTC.h **** 
 140:Generated_Source\PSoC4/RTC.h **** #define RTC_INITIAL_DATA_FORMAT     (0u)
 141:Generated_Source\PSoC4/RTC.h **** #define RTC_INITIAL_TIME_FORMAT     (0u)
 142:Generated_Source\PSoC4/RTC.h **** #define RTC_INITIAL_UPDATE_MODE     (0u)
 143:Generated_Source\PSoC4/RTC.h **** #define RTC_INITIAL_SECOND          (0u)
 144:Generated_Source\PSoC4/RTC.h **** #define RTC_INITIAL_MINUTE          (16u)
 145:Generated_Source\PSoC4/RTC.h **** #define RTC_INITIAL_HOUR            (10u)
 146:Generated_Source\PSoC4/RTC.h **** #define RTC_INITIAL_DAY             (9u)
 147:Generated_Source\PSoC4/RTC.h **** #define RTC_INITIAL_MONTH           (8u)
ARM GAS  C:\Users\Petro\AppData\Local\Temp\ccKADxhi.s 			page 4


 148:Generated_Source\PSoC4/RTC.h **** #define RTC_INITIAL_YEAR            (2016u)
 149:Generated_Source\PSoC4/RTC.h **** 
 150:Generated_Source\PSoC4/RTC.h **** #define RTC_INITIAL_ALARM_STATUS    (0u)
 151:Generated_Source\PSoC4/RTC.h **** 
 152:Generated_Source\PSoC4/RTC.h **** #define RTC_INITIAL_DST_STATUS      (0u)
 153:Generated_Source\PSoC4/RTC.h **** #define RTC_INITIAL_DST_DATE_TYPE   (0u)
 154:Generated_Source\PSoC4/RTC.h **** #define RTC_INITIAL_DST_START_MONTH (3uL)
 155:Generated_Source\PSoC4/RTC.h **** #define RTC_INITIAL_DST_START_WOM   (6uL)
 156:Generated_Source\PSoC4/RTC.h **** #define RTC_INITIAL_DST_START_DOM   (22uL)
 157:Generated_Source\PSoC4/RTC.h **** #define RTC_INITIAL_DST_START_DOW   (1uL)
 158:Generated_Source\PSoC4/RTC.h **** #define RTC_INITIAL_DST_START_HRS   (0uL)
 159:Generated_Source\PSoC4/RTC.h **** #define RTC_INITIAL_DST_STOP_MONTH  (10uL)
 160:Generated_Source\PSoC4/RTC.h **** #define RTC_INITIAL_DST_STOP_DOM    (22uL)
 161:Generated_Source\PSoC4/RTC.h **** #define RTC_INITIAL_DST_STOP_DOW    (1uL)
 162:Generated_Source\PSoC4/RTC.h **** #define RTC_INITIAL_DST_STOP_WOM    (6uL)
 163:Generated_Source\PSoC4/RTC.h **** #define RTC_INITIAL_DST_STOP_HRS    (0uL)
 164:Generated_Source\PSoC4/RTC.h **** 
 165:Generated_Source\PSoC4/RTC.h **** /* Day of week definitions */
 166:Generated_Source\PSoC4/RTC.h **** #define RTC_SUNDAY     (RTC__SUNDAY)
 167:Generated_Source\PSoC4/RTC.h **** #define RTC_MONDAY     (RTC__MONDAY)
 168:Generated_Source\PSoC4/RTC.h **** #define RTC_TUESDAY    (RTC__TUESDAY)
 169:Generated_Source\PSoC4/RTC.h **** #define RTC_WEDNESDAY  (RTC__WEDNESDAY)
 170:Generated_Source\PSoC4/RTC.h **** #define RTC_THURSDAY   (RTC__THURSDAY)
 171:Generated_Source\PSoC4/RTC.h **** #define RTC_FRIDAY     (RTC__FRIDAY)
 172:Generated_Source\PSoC4/RTC.h **** #define RTC_SATURDAY   (RTC__SATURDAY)
 173:Generated_Source\PSoC4/RTC.h **** 
 174:Generated_Source\PSoC4/RTC.h **** /* DST WeekOfMonth setting constants definitions */
 175:Generated_Source\PSoC4/RTC.h **** #define RTC_FIRST      (RTC__FIRST)
 176:Generated_Source\PSoC4/RTC.h **** #define RTC_SECOND     (RTC__SECOND)
 177:Generated_Source\PSoC4/RTC.h **** #define RTC_THIRD      (RTC__THIRD)
 178:Generated_Source\PSoC4/RTC.h **** #define RTC_FOURTH     (RTC__FOURTH)
 179:Generated_Source\PSoC4/RTC.h **** #define RTC_FIFTH      (RTC__FIFTH)
 180:Generated_Source\PSoC4/RTC.h **** #define RTC_LAST       (RTC__LAST)
 181:Generated_Source\PSoC4/RTC.h **** 
 182:Generated_Source\PSoC4/RTC.h **** /* Month definitions */
 183:Generated_Source\PSoC4/RTC.h **** #define RTC_JANUARY    (RTC__JAN)
 184:Generated_Source\PSoC4/RTC.h **** #define RTC_FEBRUARY   (RTC__FEB)
 185:Generated_Source\PSoC4/RTC.h **** #define RTC_MARCH      (RTC__MAR)
 186:Generated_Source\PSoC4/RTC.h **** #define RTC_APRIL      (RTC__APR)
 187:Generated_Source\PSoC4/RTC.h **** #define RTC_MAY        (RTC__MAY)
 188:Generated_Source\PSoC4/RTC.h **** #define RTC_JUNE       (RTC__JUN)
 189:Generated_Source\PSoC4/RTC.h **** #define RTC_JULY       (RTC__JUL)
 190:Generated_Source\PSoC4/RTC.h **** #define RTC_AUGUST     (RTC__AUG)
 191:Generated_Source\PSoC4/RTC.h **** #define RTC_SEPTEMBER  (RTC__SEP)
 192:Generated_Source\PSoC4/RTC.h **** #define RTC_OCTOBER    (RTC__OCT)
 193:Generated_Source\PSoC4/RTC.h **** #define RTC_NOVEMBER   (RTC__NOV)
 194:Generated_Source\PSoC4/RTC.h **** #define RTC_DECEMBER   (RTC__DEC)
 195:Generated_Source\PSoC4/RTC.h **** 
 196:Generated_Source\PSoC4/RTC.h **** #define RTC_DAYS_PER_WEEK       (7u)
 197:Generated_Source\PSoC4/RTC.h **** 
 198:Generated_Source\PSoC4/RTC.h **** /* Number of days in month definitions */
 199:Generated_Source\PSoC4/RTC.h **** #define RTC_DAYS_IN_JANUARY     (31u)
 200:Generated_Source\PSoC4/RTC.h **** #define RTC_DAYS_IN_FEBRUARY    (28u)
 201:Generated_Source\PSoC4/RTC.h **** #define RTC_DAYS_IN_MARCH       (31u)
 202:Generated_Source\PSoC4/RTC.h **** #define RTC_DAYS_IN_APRIL       (30u)
 203:Generated_Source\PSoC4/RTC.h **** #define RTC_DAYS_IN_MAY         (31u)
 204:Generated_Source\PSoC4/RTC.h **** #define RTC_DAYS_IN_JUNE        (30u)
ARM GAS  C:\Users\Petro\AppData\Local\Temp\ccKADxhi.s 			page 5


 205:Generated_Source\PSoC4/RTC.h **** #define RTC_DAYS_IN_JULY        (31u)
 206:Generated_Source\PSoC4/RTC.h **** #define RTC_DAYS_IN_AUGUST      (31u)
 207:Generated_Source\PSoC4/RTC.h **** #define RTC_DAYS_IN_SEPTEMBER   (30u)
 208:Generated_Source\PSoC4/RTC.h **** #define RTC_DAYS_IN_OCTOBER     (31u)
 209:Generated_Source\PSoC4/RTC.h **** #define RTC_DAYS_IN_NOVEMBER    (30u)
 210:Generated_Source\PSoC4/RTC.h **** #define RTC_DAYS_IN_DECEMBER    (31u)
 211:Generated_Source\PSoC4/RTC.h **** 
 212:Generated_Source\PSoC4/RTC.h **** #define RTC_MONTHS_PER_YEAR     (12uL)
 213:Generated_Source\PSoC4/RTC.h **** 
 214:Generated_Source\PSoC4/RTC.h **** #define RTC_HOURS_PER_DAY       (24uL)
 215:Generated_Source\PSoC4/RTC.h **** #define RTC_HOURS_PER_HALF_DAY  (12uL)
 216:Generated_Source\PSoC4/RTC.h **** 
 217:Generated_Source\PSoC4/RTC.h **** #define RTC_SECONDS_PER_MINUTE  (60uL)
 218:Generated_Source\PSoC4/RTC.h **** #define RTC_SECONDS_PER_HOUR    (3600uL)
 219:Generated_Source\PSoC4/RTC.h **** #define RTC_SECONDS_PER_DAY     (24uL * 3600uL)
 220:Generated_Source\PSoC4/RTC.h **** 
 221:Generated_Source\PSoC4/RTC.h **** #define RTC_SECONDS_PER_LEAP_YEAR    (366uL * 24uL * 3600uL)
 222:Generated_Source\PSoC4/RTC.h **** #define RTC_SECONDS_PER_NONLEAP_YEAR (365uL * 24uL * 3600uL)
 223:Generated_Source\PSoC4/RTC.h **** 
 224:Generated_Source\PSoC4/RTC.h **** #define RTC_UNIX_TIME_PM   ((12uL * 3600uL) + 1uL)
 225:Generated_Source\PSoC4/RTC.h **** 
 226:Generated_Source\PSoC4/RTC.h **** /* AM/PM status definitions */
 227:Generated_Source\PSoC4/RTC.h **** #define RTC_AM                 (0u)
 228:Generated_Source\PSoC4/RTC.h **** #define RTC_PM                 (1u)
 229:Generated_Source\PSoC4/RTC.h **** 
 230:Generated_Source\PSoC4/RTC.h **** /* Time format definitions */
 231:Generated_Source\PSoC4/RTC.h **** #define RTC_12_HOURS_FORMAT    (RTC__HOUR_12)
 232:Generated_Source\PSoC4/RTC.h **** #define RTC_24_HOURS_FORMAT    (RTC__HOUR_24)
 233:Generated_Source\PSoC4/RTC.h **** 
 234:Generated_Source\PSoC4/RTC.h **** /* UNIX time begins in 1970 year.  */
 235:Generated_Source\PSoC4/RTC.h **** #define RTC_YEAR_0             (1970u)
 236:Generated_Source\PSoC4/RTC.h **** 
 237:Generated_Source\PSoC4/RTC.h **** /* Definition of date register fields */
 238:Generated_Source\PSoC4/RTC.h **** #if(RTC_INITIAL_DATA_FORMAT == RTC__MM_DD_YYYY)
 239:Generated_Source\PSoC4/RTC.h ****     #define RTC_10_MONTH_OFFSET   (28u)
 240:Generated_Source\PSoC4/RTC.h ****     #define RTC_MONTH_OFFSET      (24u)
 241:Generated_Source\PSoC4/RTC.h ****     #define RTC_10_DAY_OFFSET     (20u)
 242:Generated_Source\PSoC4/RTC.h ****     #define RTC_DAY_OFFSET        (16u)
 243:Generated_Source\PSoC4/RTC.h ****     #define RTC_1000_YEAR_OFFSET  (12u)
 244:Generated_Source\PSoC4/RTC.h ****     #define RTC_100_YEAR_OFFSET   (8u)
 245:Generated_Source\PSoC4/RTC.h ****     #define RTC_10_YEAR_OFFSET    (4u)
 246:Generated_Source\PSoC4/RTC.h ****     #define RTC_YEAR_OFFSET       (0u)
 247:Generated_Source\PSoC4/RTC.h **** #elif(RTC_INITIAL_DATA_FORMAT == RTC__DD_MM_YYYY)
 248:Generated_Source\PSoC4/RTC.h ****     #define RTC_10_MONTH_OFFSET   (20u)
 249:Generated_Source\PSoC4/RTC.h ****     #define RTC_MONTH_OFFSET      (16u)
 250:Generated_Source\PSoC4/RTC.h ****     #define RTC_10_DAY_OFFSET     (28u)
 251:Generated_Source\PSoC4/RTC.h ****     #define RTC_DAY_OFFSET        (24u)
 252:Generated_Source\PSoC4/RTC.h ****     #define RTC_1000_YEAR_OFFSET  (12u)
 253:Generated_Source\PSoC4/RTC.h ****     #define RTC_100_YEAR_OFFSET   (8u)
 254:Generated_Source\PSoC4/RTC.h ****     #define RTC_10_YEAR_OFFSET    (4u)
 255:Generated_Source\PSoC4/RTC.h ****     #define RTC_YEAR_OFFSET       (0u)
 256:Generated_Source\PSoC4/RTC.h **** #else
 257:Generated_Source\PSoC4/RTC.h ****     #define RTC_10_MONTH_OFFSET   (12u)
 258:Generated_Source\PSoC4/RTC.h ****     #define RTC_MONTH_OFFSET      (8u)
 259:Generated_Source\PSoC4/RTC.h ****     #define RTC_10_DAY_OFFSET     (4u)
 260:Generated_Source\PSoC4/RTC.h ****     #define RTC_DAY_OFFSET        (0u)
 261:Generated_Source\PSoC4/RTC.h ****     #define RTC_1000_YEAR_OFFSET  (28u)
ARM GAS  C:\Users\Petro\AppData\Local\Temp\ccKADxhi.s 			page 6


 262:Generated_Source\PSoC4/RTC.h ****     #define RTC_100_YEAR_OFFSET   (24u)
 263:Generated_Source\PSoC4/RTC.h ****     #define RTC_10_YEAR_OFFSET    (20u)
 264:Generated_Source\PSoC4/RTC.h ****     #define RTC_YEAR_OFFSET       (16u)
 265:Generated_Source\PSoC4/RTC.h **** #endif /* (RTC_INITIAL_DATA_FORMAT == RTC__MM_DD_YYYY) */
 266:Generated_Source\PSoC4/RTC.h **** 
 267:Generated_Source\PSoC4/RTC.h **** #define RTC_10_MONTH_MASK          (0x00000001uL << RTC_10_MONTH_OFFSET)
 268:Generated_Source\PSoC4/RTC.h **** #define RTC_MONTH_MASK             (0x0000000FuL << RTC_MONTH_OFFSET)
 269:Generated_Source\PSoC4/RTC.h **** #define RTC_10_DAY_MASK            (0x00000003uL << RTC_10_DAY_OFFSET)
 270:Generated_Source\PSoC4/RTC.h **** #define RTC_DAY_MASK               (0x0000000FuL << RTC_DAY_OFFSET)
 271:Generated_Source\PSoC4/RTC.h **** #define RTC_1000_YEAR_MASK         (0x00000003uL << RTC_1000_YEAR_OFFSET)
 272:Generated_Source\PSoC4/RTC.h **** #define RTC_100_YEAR_MASK          (0x0000000FuL << RTC_100_YEAR_OFFSET)
 273:Generated_Source\PSoC4/RTC.h **** #define RTC_10_YEAR_MASK           (0x0000000FuL << RTC_10_YEAR_OFFSET)
 274:Generated_Source\PSoC4/RTC.h **** #define RTC_YEAR_MASK              (0x0000000FuL << RTC_YEAR_OFFSET)
 275:Generated_Source\PSoC4/RTC.h **** 
 276:Generated_Source\PSoC4/RTC.h **** #define  RTC_MONTH_FULL_MASK       (RTC_10_MONTH_MASK  | RTC_MONTH_MASK)
 277:Generated_Source\PSoC4/RTC.h **** #define  RTC_DAY_FULL_MASK         (RTC_10_DAY_MASK    | RTC_DAY_MASK)
 278:Generated_Source\PSoC4/RTC.h **** #define  RTC_YEAR_FULL_MASK        (RTC_1000_YEAR_MASK | RTC_100_YEAR_MASK |\
 279:Generated_Source\PSoC4/RTC.h ****                                                  RTC_10_YEAR_MASK   | RTC_YEAR_MASK)
 280:Generated_Source\PSoC4/RTC.h **** 
 281:Generated_Source\PSoC4/RTC.h **** 
 282:Generated_Source\PSoC4/RTC.h **** /* Definition of time register fields */
 283:Generated_Source\PSoC4/RTC.h **** #define RTC_TIME_FORMAT_OFFSET     (23u)
 284:Generated_Source\PSoC4/RTC.h **** #define RTC_PERIOD_OF_DAY_OFFSET   (22u)
 285:Generated_Source\PSoC4/RTC.h **** #define RTC_10_HOURS_OFFSET        (20u)
 286:Generated_Source\PSoC4/RTC.h **** #define RTC_HOURS_OFFSET           (16u)
 287:Generated_Source\PSoC4/RTC.h **** #define RTC_10_MINUTES_OFFSET      (12u)
 288:Generated_Source\PSoC4/RTC.h **** #define RTC_MINUTES_OFFSET         (8u)
 289:Generated_Source\PSoC4/RTC.h **** #define RTC_10_SECONDS_OFFSET      (4u)
 290:Generated_Source\PSoC4/RTC.h **** #define RTC_SECONDS_OFFSET         (0u)
 291:Generated_Source\PSoC4/RTC.h **** 
 292:Generated_Source\PSoC4/RTC.h **** #define RTC_TIME_FORMAT_MASK       (0x00000001uL << RTC_TIME_FORMAT_OFFSET)
 293:Generated_Source\PSoC4/RTC.h **** #define RTC_PERIOD_OF_DAY_MASK     (0x00000001uL << RTC_PERIOD_OF_DAY_OFFSET)
 294:Generated_Source\PSoC4/RTC.h **** #define RTC_10_HOURS_MASK          (0x00000003uL << RTC_10_HOURS_OFFSET)
 295:Generated_Source\PSoC4/RTC.h **** #define RTC_HOURS_MASK             (0x0000000FuL << RTC_HOURS_OFFSET)
 296:Generated_Source\PSoC4/RTC.h **** #define RTC_10_MINUTES_MASK        (0x00000007uL << RTC_10_MINUTES_OFFSET)
 297:Generated_Source\PSoC4/RTC.h **** #define RTC_MINUTES_MASK           (0x0000000FuL << RTC_MINUTES_OFFSET)
 298:Generated_Source\PSoC4/RTC.h **** #define RTC_10_SECONDS_MASK        (0x00000007uL << RTC_10_SECONDS_OFFSET)
 299:Generated_Source\PSoC4/RTC.h **** #define RTC_SECONDS_MASK           (0x0000000FuL << RTC_SECONDS_OFFSET)
 300:Generated_Source\PSoC4/RTC.h **** 
 301:Generated_Source\PSoC4/RTC.h **** #define RTC_HOURS_FULL_MASK        (RTC_10_HOURS_MASK   | RTC_HOURS_MASK)
 302:Generated_Source\PSoC4/RTC.h **** #define RTC_MINUTES_FULL_MASK      (RTC_10_MINUTES_MASK | RTC_MINUTES_MASK)
 303:Generated_Source\PSoC4/RTC.h **** #define RTC_SECONDS_FULL_MASK      (RTC_10_SECONDS_MASK | RTC_SECONDS_MASK)
 304:Generated_Source\PSoC4/RTC.h **** 
 305:Generated_Source\PSoC4/RTC.h **** #define RTC_ALARM_SEC_MASK         (0x00000001uL)
 306:Generated_Source\PSoC4/RTC.h **** #define RTC_ALARM_MIN_MASK         (0x00000002uL)
 307:Generated_Source\PSoC4/RTC.h **** #define RTC_ALARM_HOUR_MASK        (0x00000004uL)
 308:Generated_Source\PSoC4/RTC.h **** #define RTC_ALARM_DAYOFWEEK_MASK   (0x00000008uL)
 309:Generated_Source\PSoC4/RTC.h **** #define RTC_ALARM_DAYOFMONTH_MASK  (0x00000010uL)
 310:Generated_Source\PSoC4/RTC.h **** #define RTC_ALARM_MONTH_MASK       (0x00000020uL)
 311:Generated_Source\PSoC4/RTC.h **** #define RTC_ALARM_YEAR_MASK        (0x00000040uL)
 312:Generated_Source\PSoC4/RTC.h **** 
 313:Generated_Source\PSoC4/RTC.h **** #define RTC_STATUS_DST_OFFSET      (1u)
 314:Generated_Source\PSoC4/RTC.h **** #define RTC_STATUS_ALARM_OFFSET    (2u)
 315:Generated_Source\PSoC4/RTC.h **** #define RTC_STATUS_LY_OFFSET       (3u)
 316:Generated_Source\PSoC4/RTC.h **** #define RTC_STATUS_AM_PM_OFFSET    (4u)
 317:Generated_Source\PSoC4/RTC.h **** 
 318:Generated_Source\PSoC4/RTC.h **** /* Definition of the RTC status values. */
ARM GAS  C:\Users\Petro\AppData\Local\Temp\ccKADxhi.s 			page 7


 319:Generated_Source\PSoC4/RTC.h **** #define RTC_STATUS_DST             (1uL << RTC_STATUS_DST_OFFSET)
 320:Generated_Source\PSoC4/RTC.h **** #define RTC_STATUS_LY              (1uL << RTC_STATUS_LY_OFFSET)
 321:Generated_Source\PSoC4/RTC.h **** #define RTC_STATUS_AM_PM           (1uL << RTC_STATUS_AM_PM_OFFSET)
 322:Generated_Source\PSoC4/RTC.h **** 
 323:Generated_Source\PSoC4/RTC.h **** /* Number of bits per one BCD digit. */
 324:Generated_Source\PSoC4/RTC.h **** #define RTC_BCD_NUMBER_SIZE        (4u)
 325:Generated_Source\PSoC4/RTC.h **** #define RTC_BCD_ONE_DIGIT_MASK     (0x0000000FuL)
 326:Generated_Source\PSoC4/RTC.h **** 
 327:Generated_Source\PSoC4/RTC.h **** /*******************************************************************************
 328:Generated_Source\PSoC4/RTC.h **** *    Function Prototypes
 329:Generated_Source\PSoC4/RTC.h **** *******************************************************************************/
 330:Generated_Source\PSoC4/RTC.h **** /**
 331:Generated_Source\PSoC4/RTC.h **** * \addtogroup group_api
 332:Generated_Source\PSoC4/RTC.h **** * @{
 333:Generated_Source\PSoC4/RTC.h **** */
 334:Generated_Source\PSoC4/RTC.h **** void   RTC_Start(void);
 335:Generated_Source\PSoC4/RTC.h **** void   RTC_Stop(void);
 336:Generated_Source\PSoC4/RTC.h **** void   RTC_Init(void);
 337:Generated_Source\PSoC4/RTC.h **** void   RTC_SetUnixTime(uint64 unixTime);
 338:Generated_Source\PSoC4/RTC.h **** uint64 RTC_GetUnixTime(void);
 339:Generated_Source\PSoC4/RTC.h **** void   RTC_SetPeriod(uint32 ticks, uint32 refOneSecTicks);
 340:Generated_Source\PSoC4/RTC.h **** uint32 RTC_GetPeriod(void);
 341:Generated_Source\PSoC4/RTC.h **** uint32 RTC_GetRefOneSec(void);
 342:Generated_Source\PSoC4/RTC.h **** void   RTC_SetDateAndTime(uint32 inputTime, uint32 inputDate);
 343:Generated_Source\PSoC4/RTC.h **** void   RTC_GetDateAndTime(RTC_DATE_TIME* dateTime);
 344:Generated_Source\PSoC4/RTC.h **** uint32 RTC_GetTime(void);
 345:Generated_Source\PSoC4/RTC.h **** uint32 RTC_GetDate(void);
 346:Generated_Source\PSoC4/RTC.h **** void   RTC_SetAlarmDateAndTime(const RTC_DATE_TIME* alarmTime);
 347:Generated_Source\PSoC4/RTC.h **** void   RTC_GetAlarmDateAndTime(RTC_DATE_TIME* alarmTimeDate);
 348:Generated_Source\PSoC4/RTC.h **** void   RTC_SetAlarmMask(uint32 mask);
 349:Generated_Source\PSoC4/RTC.h **** uint32 RTC_GetAlarmMask(void);
 350:Generated_Source\PSoC4/RTC.h **** uint32 RTC_ReadStatus(void);
 351:Generated_Source\PSoC4/RTC.h **** uint32 RTC_GetAlarmStatus(void);
 352:Generated_Source\PSoC4/RTC.h **** void   RTC_ClearAlarmStatus(void);
 353:Generated_Source\PSoC4/RTC.h **** void   RTC_SetDSTStartTime(const RTC_DST_TIME* dstStartTime,
 354:Generated_Source\PSoC4/RTC.h ****                                               RTC_DST_DATETYPE_ENUM type);
 355:Generated_Source\PSoC4/RTC.h **** void   RTC_SetDSTStopTime(const RTC_DST_TIME* dstStopTime,
 356:Generated_Source\PSoC4/RTC.h ****                                              RTC_DST_DATETYPE_ENUM type);
 357:Generated_Source\PSoC4/RTC.h **** uint32 RTC_ConvertBCDToDec(uint32 bcdNum);
 358:Generated_Source\PSoC4/RTC.h **** uint32 RTC_ConvertDecToBCD(uint32 decNum);
 359:Generated_Source\PSoC4/RTC.h **** void   RTC_Update(void);
 360:Generated_Source\PSoC4/RTC.h **** void*  RTC_SetAlarmHandler(void (*CallbackFunction)(void));
 361:Generated_Source\PSoC4/RTC.h **** 
 362:Generated_Source\PSoC4/RTC.h **** static uint32 RTC_ConstructDate(uint32 month, uint32 day, uint32 year);
 363:Generated_Source\PSoC4/RTC.h **** static uint32 RTC_ConstructTime(uint32 timeFormat, uint32 stateAmPm, uint32 hour, uint32 min, uint3
 364:Generated_Source\PSoC4/RTC.h **** /** @} api */
 365:Generated_Source\PSoC4/RTC.h **** 
 366:Generated_Source\PSoC4/RTC.h **** static uint32 RTC_GetTimeFormat(uint32 inputTime);
 367:Generated_Source\PSoC4/RTC.h **** static uint32 RTC_SetTimeFormat(uint32 inputTime, uint32 timeFormat);
 368:Generated_Source\PSoC4/RTC.h **** 
 369:Generated_Source\PSoC4/RTC.h **** /**
 370:Generated_Source\PSoC4/RTC.h **** * \addtogroup group_api
 371:Generated_Source\PSoC4/RTC.h **** * @{
 372:Generated_Source\PSoC4/RTC.h **** */
 373:Generated_Source\PSoC4/RTC.h **** static uint32 RTC_LeapYear(uint32 year);
 374:Generated_Source\PSoC4/RTC.h **** static uint32 RTC_IsBitSet(uint32 var, uint32 mask);
 375:Generated_Source\PSoC4/RTC.h **** static uint32 RTC_GetSecond(uint32 inputTime);
ARM GAS  C:\Users\Petro\AppData\Local\Temp\ccKADxhi.s 			page 8


 376:Generated_Source\PSoC4/RTC.h **** static uint32 RTC_GetMinutes(uint32 inputTime);
 377:Generated_Source\PSoC4/RTC.h **** static uint32 RTC_GetHours(uint32 inputTime);
 378:Generated_Source\PSoC4/RTC.h **** static uint32 RTC_GetAmPm(uint32 inputTime);
 379:Generated_Source\PSoC4/RTC.h **** static uint32 RTC_GetDay(uint32 date);
 380:Generated_Source\PSoC4/RTC.h **** static uint32 RTC_GetMonth(uint32 date);
 381:Generated_Source\PSoC4/RTC.h **** static uint32 RTC_GetYear(uint32 date);
 382:Generated_Source\PSoC4/RTC.h **** /** @} api */
 383:Generated_Source\PSoC4/RTC.h **** 
 384:Generated_Source\PSoC4/RTC.h **** static uint32 RTC_SetSecond(uint32 inputTime, uint32 inputSecond);
 385:Generated_Source\PSoC4/RTC.h **** static uint32 RTC_SetMinutes(uint32 inputTime, uint32 inputMinute);
 386:Generated_Source\PSoC4/RTC.h **** static uint32 RTC_SetHours(uint32 inputTime, uint32 inputHours);
 387:Generated_Source\PSoC4/RTC.h **** static uint32 RTC_SetAmPm(uint32 inputTime, uint32 periodOfDay);
 388:Generated_Source\PSoC4/RTC.h **** static uint32 RTC_SetDay(uint32 inputDate, uint32 inputDay);
 389:Generated_Source\PSoC4/RTC.h **** static uint32 RTC_SetMonth(uint32 inputDate, uint32 inputMonth);
 390:Generated_Source\PSoC4/RTC.h **** static uint32 RTC_SetYear(uint32 inputDate, uint32 inputYear);
 391:Generated_Source\PSoC4/RTC.h **** 
 392:Generated_Source\PSoC4/RTC.h **** uint64 RTC_ConstructUnixAlarmTime(const RTC_DATE_TIME* alarmTime, uint8 alarmCfgMask);
 393:Generated_Source\PSoC4/RTC.h **** uint64 RTC_GetDstUnixTime(const RTC_DST_TIME* dstTime);
 394:Generated_Source\PSoC4/RTC.h **** uint64 RTC_GetNexAlarmTime(uint64 curUnixTime, uint8 alarmCfgMask);
 395:Generated_Source\PSoC4/RTC.h **** 
 396:Generated_Source\PSoC4/RTC.h **** static uint32 RTC_GetNextMinSec(uint32 curVal);
 397:Generated_Source\PSoC4/RTC.h **** static uint32 RTC_GetNextHour(uint32 curVal);
 398:Generated_Source\PSoC4/RTC.h **** static uint32 RTC_GetNextDay(uint32 curYear, uint32 curMonth, uint32 curDay, uint32 alarmCfgMask);
 399:Generated_Source\PSoC4/RTC.h **** static uint32 RTC_GetNextMonth(uint32 curMonth);
 400:Generated_Source\PSoC4/RTC.h **** static uint32 RTC_GetNextYear(uint32 curYear);
 401:Generated_Source\PSoC4/RTC.h **** static uint32 RTC_GetDayOfWeek(uint32 day, uint32 month, uint32 year);
 402:Generated_Source\PSoC4/RTC.h **** 
 403:Generated_Source\PSoC4/RTC.h **** uint32 RTC_DaysInMonth(uint32 month, uint32 year);
 404:Generated_Source\PSoC4/RTC.h **** uint32 RTC_DaysBeforeMonth(uint32 month, uint32 year);
 405:Generated_Source\PSoC4/RTC.h **** 
 406:Generated_Source\PSoC4/RTC.h **** /**
 407:Generated_Source\PSoC4/RTC.h **** * \addtogroup group_api
 408:Generated_Source\PSoC4/RTC.h **** * @{
 409:Generated_Source\PSoC4/RTC.h **** */
 410:Generated_Source\PSoC4/RTC.h **** void   RTC_UnixToDateTime(RTC_DATE_TIME* dateTime, uint64 unixTime, uint32 timeFormat);
 411:Generated_Source\PSoC4/RTC.h **** uint64 RTC_DateTimeToUnix(uint32 inputDate, uint32 inputTime);
 412:Generated_Source\PSoC4/RTC.h **** /** @} api */
 413:Generated_Source\PSoC4/RTC.h **** 
 414:Generated_Source\PSoC4/RTC.h **** uint32 RTC_RelativeToFixed(uint32 dayOfWeek, uint32 weekOfMonth, uint32 month, uint32 year);
 415:Generated_Source\PSoC4/RTC.h **** 
 416:Generated_Source\PSoC4/RTC.h **** 
 417:Generated_Source\PSoC4/RTC.h **** #if defined(CYDEV_RTC_SOURCE_WDT)
 418:Generated_Source\PSoC4/RTC.h ****     #if((0u != CYDEV_WDT_GENERATE_ISR) && (0u == RTC_INITIAL_UPDATE_MODE))
 419:Generated_Source\PSoC4/RTC.h ****         static void RTC_CySysRtcSetCallback(uint32 wdtNumber);
 420:Generated_Source\PSoC4/RTC.h ****         static void RTC_CySysRtcResetCallback(uint32 wdtNumber);
 421:Generated_Source\PSoC4/RTC.h ****     #endif /* ((0u != CYDEV_WDT_GENERATE_ISR) && (0u == RTC_INITIAL_UPDATE_MODE)) */
 422:Generated_Source\PSoC4/RTC.h **** #endif /* (CYDEV_RTC_SOURCE_WDT) */
 423:Generated_Source\PSoC4/RTC.h **** 
 424:Generated_Source\PSoC4/RTC.h **** /*******************************************************************************
 425:Generated_Source\PSoC4/RTC.h **** * Function Name: RTC_IsBitSet
 426:Generated_Source\PSoC4/RTC.h **** ****************************************************************************//**
 427:Generated_Source\PSoC4/RTC.h **** *
 428:Generated_Source\PSoC4/RTC.h **** * \brief
 429:Generated_Source\PSoC4/RTC.h **** *  Checks the state of a bit passed through parameter.
 430:Generated_Source\PSoC4/RTC.h **** *
 431:Generated_Source\PSoC4/RTC.h **** * \param
 432:Generated_Source\PSoC4/RTC.h **** *  var The variable to be checked.
ARM GAS  C:\Users\Petro\AppData\Local\Temp\ccKADxhi.s 			page 9


 433:Generated_Source\PSoC4/RTC.h **** * \param
 434:Generated_Source\PSoC4/RTC.h **** *  mask The mask for a bit to be checked.
 435:Generated_Source\PSoC4/RTC.h **** *
 436:Generated_Source\PSoC4/RTC.h **** * \return
 437:Generated_Source\PSoC4/RTC.h **** *  0u - Bit is not set.
 438:Generated_Source\PSoC4/RTC.h **** * \return
 439:Generated_Source\PSoC4/RTC.h **** *  1u - Bit is set.
 440:Generated_Source\PSoC4/RTC.h **** *
 441:Generated_Source\PSoC4/RTC.h **** *******************************************************************************/
 442:Generated_Source\PSoC4/RTC.h **** static CY_INLINE uint32 RTC_IsBitSet(uint32 var, uint32 mask)
 443:Generated_Source\PSoC4/RTC.h **** {
 444:Generated_Source\PSoC4/RTC.h ****     return ((mask == (var & mask)) ? 1Lu : 0Lu);
 445:Generated_Source\PSoC4/RTC.h **** }
 446:Generated_Source\PSoC4/RTC.h **** 
 447:Generated_Source\PSoC4/RTC.h **** 
 448:Generated_Source\PSoC4/RTC.h **** /*******************************************************************************
 449:Generated_Source\PSoC4/RTC.h **** * Function Name: RTC_LeapYear
 450:Generated_Source\PSoC4/RTC.h **** ****************************************************************************//**
 451:Generated_Source\PSoC4/RTC.h **** *
 452:Generated_Source\PSoC4/RTC.h **** * \brief
 453:Generated_Source\PSoC4/RTC.h **** * Checks whether the year passed through the parameter is
 454:Generated_Source\PSoC4/RTC.h **** * leap or no.
 455:Generated_Source\PSoC4/RTC.h **** *
 456:Generated_Source\PSoC4/RTC.h **** * \param
 457:Generated_Source\PSoC4/RTC.h **** *  year The year to be checked.
 458:Generated_Source\PSoC4/RTC.h **** *
 459:Generated_Source\PSoC4/RTC.h **** *
 460:Generated_Source\PSoC4/RTC.h **** * \return
 461:Generated_Source\PSoC4/RTC.h **** *  0u - The year is not leap.
 462:Generated_Source\PSoC4/RTC.h **** * \return
 463:Generated_Source\PSoC4/RTC.h **** *  1u - The year is leap.
 464:Generated_Source\PSoC4/RTC.h **** *
 465:Generated_Source\PSoC4/RTC.h **** *******************************************************************************/
 466:Generated_Source\PSoC4/RTC.h **** static CY_INLINE uint32 RTC_LeapYear(uint32 year)
 467:Generated_Source\PSoC4/RTC.h **** {
 468:Generated_Source\PSoC4/RTC.h ****     uint32 retVal;
 469:Generated_Source\PSoC4/RTC.h **** 
 470:Generated_Source\PSoC4/RTC.h ****     if(((0u == (year % 4Lu)) && (0u != (year % 100Lu))) || (0u == (year % 400Lu)))
 471:Generated_Source\PSoC4/RTC.h ****     {
 472:Generated_Source\PSoC4/RTC.h ****         retVal = 1uL;
 473:Generated_Source\PSoC4/RTC.h ****     }
 474:Generated_Source\PSoC4/RTC.h ****     else
 475:Generated_Source\PSoC4/RTC.h ****     {
 476:Generated_Source\PSoC4/RTC.h ****         retVal = 0uL;
 477:Generated_Source\PSoC4/RTC.h ****     }
 478:Generated_Source\PSoC4/RTC.h **** 
 479:Generated_Source\PSoC4/RTC.h ****     return(retVal);
 480:Generated_Source\PSoC4/RTC.h **** }
 481:Generated_Source\PSoC4/RTC.h **** 
 482:Generated_Source\PSoC4/RTC.h **** 
 483:Generated_Source\PSoC4/RTC.h **** /*******************************************************************************
 484:Generated_Source\PSoC4/RTC.h **** * Function Name: RTC_GetSecond
 485:Generated_Source\PSoC4/RTC.h **** ****************************************************************************//**
 486:Generated_Source\PSoC4/RTC.h **** *
 487:Generated_Source\PSoC4/RTC.h **** * \brief
 488:Generated_Source\PSoC4/RTC.h **** *  Returns the seconds value from the time value that is passed as a/the parameter.
 489:Generated_Source\PSoC4/RTC.h **** *
ARM GAS  C:\Users\Petro\AppData\Local\Temp\ccKADxhi.s 			page 10


 490:Generated_Source\PSoC4/RTC.h **** * \param
 491:Generated_Source\PSoC4/RTC.h **** *  time The time value.
 492:Generated_Source\PSoC4/RTC.h **** *
 493:Generated_Source\PSoC4/RTC.h **** * \return
 494:Generated_Source\PSoC4/RTC.h **** *  The seconds value.
 495:Generated_Source\PSoC4/RTC.h **** *
 496:Generated_Source\PSoC4/RTC.h **** *******************************************************************************/
 497:Generated_Source\PSoC4/RTC.h **** static CY_INLINE uint32 RTC_GetSecond(uint32 inputTime)
 498:Generated_Source\PSoC4/RTC.h **** {
  25              		.loc 1 498 0
  26              		.cfi_startproc
  27 0000 80B5     		push	{r7, lr}
  28              		.cfi_def_cfa_offset 8
  29              		.cfi_offset 7, -8
  30              		.cfi_offset 14, -4
  31 0002 84B0     		sub	sp, sp, #16
  32              		.cfi_def_cfa_offset 24
  33 0004 00AF     		add	r7, sp, #0
  34              		.cfi_def_cfa_register 7
  35 0006 7860     		str	r0, [r7, #4]
 499:Generated_Source\PSoC4/RTC.h ****     uint32 retVal;
 500:Generated_Source\PSoC4/RTC.h **** 
 501:Generated_Source\PSoC4/RTC.h ****     retVal  = ((inputTime & RTC_10_SECONDS_MASK) >> RTC_10_SECONDS_OFFSET) * 10u;
  36              		.loc 1 501 0
  37 0008 7B68     		ldr	r3, [r7, #4]
  38 000a 7022     		mov	r2, #112
  39 000c 1340     		and	r3, r2
  40 000e 1A09     		lsr	r2, r3, #4
  41 0010 131C     		mov	r3, r2
  42 0012 9B00     		lsl	r3, r3, #2
  43 0014 9B18     		add	r3, r3, r2
  44 0016 5B00     		lsl	r3, r3, #1
  45 0018 FB60     		str	r3, [r7, #12]
 502:Generated_Source\PSoC4/RTC.h ****     retVal += (inputTime & RTC_SECONDS_MASK) >> RTC_SECONDS_OFFSET;
  46              		.loc 1 502 0
  47 001a 7B68     		ldr	r3, [r7, #4]
  48 001c 0F22     		mov	r2, #15
  49 001e 1340     		and	r3, r2
  50 0020 FA68     		ldr	r2, [r7, #12]
  51 0022 D318     		add	r3, r2, r3
  52 0024 FB60     		str	r3, [r7, #12]
 503:Generated_Source\PSoC4/RTC.h **** 
 504:Generated_Source\PSoC4/RTC.h ****     return (retVal);
  53              		.loc 1 504 0
  54 0026 FB68     		ldr	r3, [r7, #12]
 505:Generated_Source\PSoC4/RTC.h **** }
  55              		.loc 1 505 0
  56 0028 181C     		mov	r0, r3
  57 002a BD46     		mov	sp, r7
  58 002c 04B0     		add	sp, sp, #16
  59              		@ sp needed
  60 002e 80BD     		pop	{r7, pc}
  61              		.cfi_endproc
  62              	.LFE4:
  63              		.size	RTC_GetSecond, .-RTC_GetSecond
  64              		.section	.text.RTC_GetMinutes,"ax",%progbits
  65              		.align	2
ARM GAS  C:\Users\Petro\AppData\Local\Temp\ccKADxhi.s 			page 11


  66              		.code	16
  67              		.thumb_func
  68              		.type	RTC_GetMinutes, %function
  69              	RTC_GetMinutes:
  70              	.LFB5:
 506:Generated_Source\PSoC4/RTC.h **** 
 507:Generated_Source\PSoC4/RTC.h **** 
 508:Generated_Source\PSoC4/RTC.h **** /*******************************************************************************
 509:Generated_Source\PSoC4/RTC.h **** * Function Name: RTC_GetMinutes
 510:Generated_Source\PSoC4/RTC.h **** ****************************************************************************//**
 511:Generated_Source\PSoC4/RTC.h **** *
 512:Generated_Source\PSoC4/RTC.h **** * \brief
 513:Generated_Source\PSoC4/RTC.h **** *  Returns the minutes value from the time value that is passed as a/the 
 514:Generated_Source\PSoC4/RTC.h **** * parameter.
 515:Generated_Source\PSoC4/RTC.h **** *
 516:Generated_Source\PSoC4/RTC.h **** * \param
 517:Generated_Source\PSoC4/RTC.h **** *  time The time value.
 518:Generated_Source\PSoC4/RTC.h **** *
 519:Generated_Source\PSoC4/RTC.h **** * \return
 520:Generated_Source\PSoC4/RTC.h **** *  The minutes value.
 521:Generated_Source\PSoC4/RTC.h **** *
 522:Generated_Source\PSoC4/RTC.h **** *******************************************************************************/
 523:Generated_Source\PSoC4/RTC.h **** static CY_INLINE uint32 RTC_GetMinutes(uint32 inputTime)
 524:Generated_Source\PSoC4/RTC.h **** {
  71              		.loc 1 524 0
  72              		.cfi_startproc
  73 0000 80B5     		push	{r7, lr}
  74              		.cfi_def_cfa_offset 8
  75              		.cfi_offset 7, -8
  76              		.cfi_offset 14, -4
  77 0002 84B0     		sub	sp, sp, #16
  78              		.cfi_def_cfa_offset 24
  79 0004 00AF     		add	r7, sp, #0
  80              		.cfi_def_cfa_register 7
  81 0006 7860     		str	r0, [r7, #4]
 525:Generated_Source\PSoC4/RTC.h ****     uint32 retVal;
 526:Generated_Source\PSoC4/RTC.h **** 
 527:Generated_Source\PSoC4/RTC.h ****     retVal  = ((inputTime & RTC_10_MINUTES_MASK) >> RTC_10_MINUTES_OFFSET) * 10u;
  82              		.loc 1 527 0
  83 0008 7A68     		ldr	r2, [r7, #4]
  84 000a E023     		mov	r3, #224
  85 000c DB01     		lsl	r3, r3, #7
  86 000e 1340     		and	r3, r2
  87 0010 1A0B     		lsr	r2, r3, #12
  88 0012 131C     		mov	r3, r2
  89 0014 9B00     		lsl	r3, r3, #2
  90 0016 9B18     		add	r3, r3, r2
  91 0018 5B00     		lsl	r3, r3, #1
  92 001a FB60     		str	r3, [r7, #12]
 528:Generated_Source\PSoC4/RTC.h ****     retVal += (inputTime & RTC_MINUTES_MASK) >> RTC_MINUTES_OFFSET;
  93              		.loc 1 528 0
  94 001c 7A68     		ldr	r2, [r7, #4]
  95 001e F023     		mov	r3, #240
  96 0020 1B01     		lsl	r3, r3, #4
  97 0022 1340     		and	r3, r2
  98 0024 1B0A     		lsr	r3, r3, #8
  99 0026 FA68     		ldr	r2, [r7, #12]
ARM GAS  C:\Users\Petro\AppData\Local\Temp\ccKADxhi.s 			page 12


 100 0028 D318     		add	r3, r2, r3
 101 002a FB60     		str	r3, [r7, #12]
 529:Generated_Source\PSoC4/RTC.h **** 
 530:Generated_Source\PSoC4/RTC.h ****     return (retVal);
 102              		.loc 1 530 0
 103 002c FB68     		ldr	r3, [r7, #12]
 531:Generated_Source\PSoC4/RTC.h **** }
 104              		.loc 1 531 0
 105 002e 181C     		mov	r0, r3
 106 0030 BD46     		mov	sp, r7
 107 0032 04B0     		add	sp, sp, #16
 108              		@ sp needed
 109 0034 80BD     		pop	{r7, pc}
 110              		.cfi_endproc
 111              	.LFE5:
 112              		.size	RTC_GetMinutes, .-RTC_GetMinutes
 113 0036 C046     		.section	.text.RTC_GetHours,"ax",%progbits
 114              		.align	2
 115              		.code	16
 116              		.thumb_func
 117              		.type	RTC_GetHours, %function
 118              	RTC_GetHours:
 119              	.LFB6:
 532:Generated_Source\PSoC4/RTC.h **** 
 533:Generated_Source\PSoC4/RTC.h **** 
 534:Generated_Source\PSoC4/RTC.h **** /*******************************************************************************
 535:Generated_Source\PSoC4/RTC.h **** * Function Name: RTC_GetHours
 536:Generated_Source\PSoC4/RTC.h **** ****************************************************************************//**
 537:Generated_Source\PSoC4/RTC.h **** *
 538:Generated_Source\PSoC4/RTC.h **** * \brief
 539:Generated_Source\PSoC4/RTC.h **** *  Returns the hours value from the time value that is passed as a/the parameter.
 540:Generated_Source\PSoC4/RTC.h **** *
 541:Generated_Source\PSoC4/RTC.h **** * \param
 542:Generated_Source\PSoC4/RTC.h **** *  time The time value.
 543:Generated_Source\PSoC4/RTC.h **** *
 544:Generated_Source\PSoC4/RTC.h **** * \return
 545:Generated_Source\PSoC4/RTC.h **** *  The hours value.
 546:Generated_Source\PSoC4/RTC.h **** *
 547:Generated_Source\PSoC4/RTC.h **** *******************************************************************************/
 548:Generated_Source\PSoC4/RTC.h **** static CY_INLINE uint32 RTC_GetHours(uint32 inputTime)
 549:Generated_Source\PSoC4/RTC.h **** {
 120              		.loc 1 549 0
 121              		.cfi_startproc
 122 0000 80B5     		push	{r7, lr}
 123              		.cfi_def_cfa_offset 8
 124              		.cfi_offset 7, -8
 125              		.cfi_offset 14, -4
 126 0002 84B0     		sub	sp, sp, #16
 127              		.cfi_def_cfa_offset 24
 128 0004 00AF     		add	r7, sp, #0
 129              		.cfi_def_cfa_register 7
 130 0006 7860     		str	r0, [r7, #4]
 550:Generated_Source\PSoC4/RTC.h ****     uint32 retVal;
 551:Generated_Source\PSoC4/RTC.h **** 
 552:Generated_Source\PSoC4/RTC.h ****     retVal  = ((inputTime & RTC_10_HOURS_MASK) >> RTC_10_HOURS_OFFSET) * 10u;
 131              		.loc 1 552 0
 132 0008 7A68     		ldr	r2, [r7, #4]
ARM GAS  C:\Users\Petro\AppData\Local\Temp\ccKADxhi.s 			page 13


 133 000a C023     		mov	r3, #192
 134 000c 9B03     		lsl	r3, r3, #14
 135 000e 1340     		and	r3, r2
 136 0010 1A0D     		lsr	r2, r3, #20
 137 0012 131C     		mov	r3, r2
 138 0014 9B00     		lsl	r3, r3, #2
 139 0016 9B18     		add	r3, r3, r2
 140 0018 5B00     		lsl	r3, r3, #1
 141 001a FB60     		str	r3, [r7, #12]
 553:Generated_Source\PSoC4/RTC.h ****     retVal += (inputTime & RTC_HOURS_MASK) >> RTC_HOURS_OFFSET;
 142              		.loc 1 553 0
 143 001c 7A68     		ldr	r2, [r7, #4]
 144 001e F023     		mov	r3, #240
 145 0020 1B03     		lsl	r3, r3, #12
 146 0022 1340     		and	r3, r2
 147 0024 1B0C     		lsr	r3, r3, #16
 148 0026 FA68     		ldr	r2, [r7, #12]
 149 0028 D318     		add	r3, r2, r3
 150 002a FB60     		str	r3, [r7, #12]
 554:Generated_Source\PSoC4/RTC.h **** 
 555:Generated_Source\PSoC4/RTC.h ****     return (retVal);
 151              		.loc 1 555 0
 152 002c FB68     		ldr	r3, [r7, #12]
 556:Generated_Source\PSoC4/RTC.h **** }
 153              		.loc 1 556 0
 154 002e 181C     		mov	r0, r3
 155 0030 BD46     		mov	sp, r7
 156 0032 04B0     		add	sp, sp, #16
 157              		@ sp needed
 158 0034 80BD     		pop	{r7, pc}
 159              		.cfi_endproc
 160              	.LFE6:
 161              		.size	RTC_GetHours, .-RTC_GetHours
 162              		.comm	notifycaiton,4,4
 163              		.global	bleUnixTime
 164 0036 C046     		.bss
 165              		.align	2
 166              		.type	bleUnixTime, %object
 167              		.size	bleUnixTime, 4
 168              	bleUnixTime:
 169 0000 00000000 		.space	4
 170              		.global	adminIsOnly
 171              		.type	adminIsOnly, %object
 172              		.size	adminIsOnly, 1
 173              	adminIsOnly:
 174 0004 00       		.space	1
 175              		.global	sendIdSkier
 176 0005 00       		.align	1
 177              		.type	sendIdSkier, %object
 178              		.size	sendIdSkier, 2
 179              	sendIdSkier:
 180 0006 0000     		.space	2
 181              		.comm	sendBufferStart,8,4
 182              		.comm	sendBufferFinish,8,4
 183              		.comm	sendBufferResult,8,4
 184              		.comm	sendBufferStatus,7,4
 185              		.comm	uartBuffer,30,4
ARM GAS  C:\Users\Petro\AppData\Local\Temp\ccKADxhi.s 			page 14


 186              		.section	.text.BleCallBack,"ax",%progbits
 187              		.align	2
 188              		.global	BleCallBack
 189              		.code	16
 190              		.thumb_func
 191              		.type	BleCallBack, %function
 192              	BleCallBack:
 193              	.LFB63:
 194              		.file 2 "lib_BLE\\bluetooth.c"
   1:lib_BLE/bluetooth.c **** #include <lib_BLE/bluetooth.h>
   2:lib_BLE/bluetooth.c **** #include "stdio.h"
   3:lib_BLE/bluetooth.c **** #include "project.h"
   4:lib_BLE/bluetooth.c **** 
   5:lib_BLE/bluetooth.c **** #define LENGHT_DATA_BUFFER 4
   6:lib_BLE/bluetooth.c **** #define LENGHT_STATUS_BUFFER 7
   7:lib_BLE/bluetooth.c **** 
   8:lib_BLE/bluetooth.c **** int notifycaiton;
   9:lib_BLE/bluetooth.c **** uint32_t bleUnixTime = 0;
  10:lib_BLE/bluetooth.c **** uint8_t adminIsOnly = 0;
  11:lib_BLE/bluetooth.c **** 
  12:lib_BLE/bluetooth.c **** uint16_t sendIdSkier = 0;
  13:lib_BLE/bluetooth.c **** uint16_t sendBufferStart[LENGHT_DATA_BUFFER];
  14:lib_BLE/bluetooth.c **** uint16_t sendBufferFinish[LENGHT_DATA_BUFFER];
  15:lib_BLE/bluetooth.c **** uint16_t sendBufferResult[LENGHT_DATA_BUFFER];
  16:lib_BLE/bluetooth.c **** uint8_t sendBufferStatus[LENGHT_STATUS_BUFFER];
  17:lib_BLE/bluetooth.c **** 
  18:lib_BLE/bluetooth.c **** char uartBuffer[30];
  19:lib_BLE/bluetooth.c **** 
  20:lib_BLE/bluetooth.c **** void updateData(void);
  21:lib_BLE/bluetooth.c **** 
  22:lib_BLE/bluetooth.c **** 
  23:lib_BLE/bluetooth.c **** void BleCallBack(uint32 event, void* eventParam)
  24:lib_BLE/bluetooth.c **** {
 195              		.loc 2 24 0
 196              		.cfi_startproc
 197 0000 80B5     		push	{r7, lr}
 198              		.cfi_def_cfa_offset 8
 199              		.cfi_offset 7, -8
 200              		.cfi_offset 14, -4
 201 0002 86B0     		sub	sp, sp, #24
 202              		.cfi_def_cfa_offset 32
 203 0004 00AF     		add	r7, sp, #0
 204              		.cfi_def_cfa_register 7
 205 0006 7860     		str	r0, [r7, #4]
 206 0008 3960     		str	r1, [r7]
  25:lib_BLE/bluetooth.c ****     CYBLE_GATTS_WRITE_REQ_PARAM_T *wrReqParam;
  26:lib_BLE/bluetooth.c **** 
  27:lib_BLE/bluetooth.c ****     switch(event)
 207              		.loc 2 27 0
 208 000a 7B68     		ldr	r3, [r7, #4]
 209 000c 282B     		cmp	r3, #40
 210 000e 08D0     		beq	.L9
 211 0010 02D8     		bhi	.L10
 212 0012 012B     		cmp	r3, #1
 213 0014 05D0     		beq	.L9
  28:lib_BLE/bluetooth.c ****     {
  29:lib_BLE/bluetooth.c ****         /* if there is a disconnect or the stack just turned on from a reset then start the adverti
ARM GAS  C:\Users\Petro\AppData\Local\Temp\ccKADxhi.s 			page 15


  30:lib_BLE/bluetooth.c ****         case CYBLE_EVT_STACK_ON:
  31:lib_BLE/bluetooth.c ****         case CYBLE_EVT_GAP_DEVICE_DISCONNECTED:
  32:lib_BLE/bluetooth.c ****             notifycaiton = 0;
  33:lib_BLE/bluetooth.c ****             CyBle_GappStartAdvertisement(CYBLE_ADVERTISING_FAST);
  34:lib_BLE/bluetooth.c ****             pwm_Start();
  35:lib_BLE/bluetooth.c ****         break;
  36:lib_BLE/bluetooth.c ****         
  37:lib_BLE/bluetooth.c ****         /* when a connection is made*/    
  38:lib_BLE/bluetooth.c ****         case CYBLE_EVT_GATT_CONNECT_IND:
  39:lib_BLE/bluetooth.c ****             pwm_Stop();
  40:lib_BLE/bluetooth.c ****             updateData();
  41:lib_BLE/bluetooth.c **** 		break;
  42:lib_BLE/bluetooth.c **** 
  43:lib_BLE/bluetooth.c ****         /* handle a write request */
  44:lib_BLE/bluetooth.c ****         case CYBLE_EVT_GATTS_WRITE_REQ:
  45:lib_BLE/bluetooth.c ****             wrReqParam = (CYBLE_GATTS_WRITE_REQ_PARAM_T *) eventParam;	
  46:lib_BLE/bluetooth.c ****             
  47:lib_BLE/bluetooth.c ****             /* request write the unixTime value */
  48:lib_BLE/bluetooth.c ****             if(wrReqParam->handleValPair.attrHandle == CYBLE_SFSYSTEMSERVICE_UNIXTIME_CHAR_HANDLE)
  49:lib_BLE/bluetooth.c ****             {
  50:lib_BLE/bluetooth.c ****                 /* only update the value and write the response if the requested write is allowed *
  51:lib_BLE/bluetooth.c ****                 if(CYBLE_GATT_ERR_NONE == CyBle_GattsWriteAttributeValue(&wrReqParam->handleValPair
  52:lib_BLE/bluetooth.c ****                 {
  53:lib_BLE/bluetooth.c ****                     int i;
  54:lib_BLE/bluetooth.c ****                     bleUnixTime = 0;
  55:lib_BLE/bluetooth.c ****                     for(i=3;i>=0;i--)
  56:lib_BLE/bluetooth.c ****                     {
  57:lib_BLE/bluetooth.c ****                         uint8_t tmpData;
  58:lib_BLE/bluetooth.c ****                         tmpData = wrReqParam->handleValPair.value.val[i];
  59:lib_BLE/bluetooth.c ****                         bleUnixTime = (bleUnixTime << 8) | tmpData;
  60:lib_BLE/bluetooth.c ****                     }
  61:lib_BLE/bluetooth.c ****                     
  62:lib_BLE/bluetooth.c ****                     #ifdef DEBUG_BLE
  63:lib_BLE/bluetooth.c ****                         sprintf(uartBuffer,"unix: %d",bleUnixTime);
  64:lib_BLE/bluetooth.c ****                         SW_UART_DEBUG_PutString(uartBuffer);
  65:lib_BLE/bluetooth.c ****                     #endif
  66:lib_BLE/bluetooth.c ****                     
  67:lib_BLE/bluetooth.c ****                     CyBle_GattsWriteRsp(cyBle_connHandle);
  68:lib_BLE/bluetooth.c ****                 }
  69:lib_BLE/bluetooth.c ****             }
  70:lib_BLE/bluetooth.c ****             
  71:lib_BLE/bluetooth.c **** //            /* request write the Admin only value */
  72:lib_BLE/bluetooth.c ****             if(wrReqParam->handleValPair.attrHandle == CYBLE_SFSYSTEMSERVICE_ADMINONLY_CHAR_HANDLE)
  73:lib_BLE/bluetooth.c ****             {
  74:lib_BLE/bluetooth.c ****                 /* only update the value and write the response if the requested write is allowed *
  75:lib_BLE/bluetooth.c ****                 if(CYBLE_GATT_ERR_NONE == CyBle_GattsWriteAttributeValue(&wrReqParam->handleValPair
  76:lib_BLE/bluetooth.c ****                 {
  77:lib_BLE/bluetooth.c ****                     adminIsOnly = wrReqParam->handleValPair.value.val[0];
  78:lib_BLE/bluetooth.c ****                     CyBle_GattsWriteRsp(cyBle_connHandle);
  79:lib_BLE/bluetooth.c ****                 }
  80:lib_BLE/bluetooth.c ****             }
  81:lib_BLE/bluetooth.c ****             
  82:lib_BLE/bluetooth.c ****             /* request to update the  notification */
  83:lib_BLE/bluetooth.c ****             if(wrReqParam->handleValPair.attrHandle == CYBLE_SFSYSTEMSERVICE_ID_ID_CCCD_DESC_HANDLE
  84:lib_BLE/bluetooth.c ****             wrReqParam->handleValPair.attrHandle == CYBLE_SFSYSTEMSERVICE_TIME_START_TIMESTARTCCCD_
  85:lib_BLE/bluetooth.c ****             wrReqParam->handleValPair.attrHandle == CYBLE_SFSYSTEMSERVICE_TIME_FINISH_TIMEFINISHCCC
  86:lib_BLE/bluetooth.c ****             wrReqParam->handleValPair.attrHandle == CYBLE_SFSYSTEMSERVICE_TIME_RESULT_TIMERESULTCCC
ARM GAS  C:\Users\Petro\AppData\Local\Temp\ccKADxhi.s 			page 16


  87:lib_BLE/bluetooth.c ****             wrReqParam->handleValPair.attrHandle == CYBLE_SFSYSTEMSERVICE_SYSTEM_STATUS_STATUSCCCD_
  88:lib_BLE/bluetooth.c ****             {
  89:lib_BLE/bluetooth.c ****                 CyBle_GattsWriteAttributeValue(&wrReqParam->handleValPair, 0, &cyBle_connHandle, CY
  90:lib_BLE/bluetooth.c ****                 notifycaiton = wrReqParam->handleValPair.value.val[0] & 0x01;
  91:lib_BLE/bluetooth.c ****                 CyBle_GattsWriteRsp(cyBle_connHandle);
  92:lib_BLE/bluetooth.c ****             }
  93:lib_BLE/bluetooth.c **** 			break;  
  94:lib_BLE/bluetooth.c ****         
  95:lib_BLE/bluetooth.c ****         default:
  96:lib_BLE/bluetooth.c ****             break;
 214              		.loc 2 96 0
 215 0016 A5E0     		b	.L7
 216              	.L10:
  27:lib_BLE/bluetooth.c ****     {
 217              		.loc 2 27 0
 218 0018 412B     		cmp	r3, #65
 219 001a 0BD0     		beq	.L11
 220 001c 4C2B     		cmp	r3, #76
 221 001e 0ED0     		beq	.L12
 222              		.loc 2 96 0
 223 0020 A0E0     		b	.L7
 224              	.L9:
  32:lib_BLE/bluetooth.c ****             CyBle_GappStartAdvertisement(CYBLE_ADVERTISING_FAST);
 225              		.loc 2 32 0
 226 0022 524B     		ldr	r3, .L21
 227 0024 0022     		mov	r2, #0
 228 0026 1A60     		str	r2, [r3]
  33:lib_BLE/bluetooth.c ****             pwm_Start();
 229              		.loc 2 33 0
 230 0028 0020     		mov	r0, #0
 231 002a FFF7FEFF 		bl	CyBle_GappStartAdvertisement
  34:lib_BLE/bluetooth.c ****         break;
 232              		.loc 2 34 0
 233 002e FFF7FEFF 		bl	pwm_Start
  35:lib_BLE/bluetooth.c ****         
 234              		.loc 2 35 0
 235 0032 97E0     		b	.L7
 236              	.L11:
  39:lib_BLE/bluetooth.c ****             updateData();
 237              		.loc 2 39 0
 238 0034 FFF7FEFF 		bl	pwm_Stop
  40:lib_BLE/bluetooth.c **** 		break;
 239              		.loc 2 40 0
 240 0038 FFF7FEFF 		bl	updateData
  41:lib_BLE/bluetooth.c **** 
 241              		.loc 2 41 0
 242 003c 92E0     		b	.L7
 243              	.L12:
  45:lib_BLE/bluetooth.c ****             
 244              		.loc 2 45 0
 245 003e 3B68     		ldr	r3, [r7]
 246 0040 3B61     		str	r3, [r7, #16]
  48:lib_BLE/bluetooth.c ****             {
 247              		.loc 2 48 0
 248 0042 3B69     		ldr	r3, [r7, #16]
 249 0044 9B89     		ldrh	r3, [r3, #12]
 250 0046 222B     		cmp	r3, #34
ARM GAS  C:\Users\Petro\AppData\Local\Temp\ccKADxhi.s 			page 17


 251 0048 35D1     		bne	.L14
  51:lib_BLE/bluetooth.c ****                 {
 252              		.loc 2 51 0
 253 004a 3B69     		ldr	r3, [r7, #16]
 254 004c 1A1D     		add	r2, r3, #4
 255 004e 484B     		ldr	r3, .L21+4
 256 0050 101C     		mov	r0, r2
 257 0052 0021     		mov	r1, #0
 258 0054 1A1C     		mov	r2, r3
 259 0056 4023     		mov	r3, #64
 260 0058 FFF7FEFF 		bl	CyBle_GattsWriteAttributeValue
 261 005c 031E     		sub	r3, r0, #0
 262 005e 2AD1     		bne	.L14
 263              	.LBB2:
  54:lib_BLE/bluetooth.c ****                     for(i=3;i>=0;i--)
 264              		.loc 2 54 0
 265 0060 444B     		ldr	r3, .L21+8
 266 0062 0022     		mov	r2, #0
 267 0064 1A60     		str	r2, [r3]
  55:lib_BLE/bluetooth.c ****                     {
 268              		.loc 2 55 0
 269 0066 0323     		mov	r3, #3
 270 0068 7B61     		str	r3, [r7, #20]
 271 006a 13E0     		b	.L15
 272              	.L16:
 273              	.LBB3:
  58:lib_BLE/bluetooth.c ****                         bleUnixTime = (bleUnixTime << 8) | tmpData;
 274              		.loc 2 58 0 discriminator 3
 275 006c 3B69     		ldr	r3, [r7, #16]
 276 006e 5A68     		ldr	r2, [r3, #4]
 277 0070 7B69     		ldr	r3, [r7, #20]
 278 0072 D218     		add	r2, r2, r3
 279 0074 0F23     		mov	r3, #15
 280 0076 FB18     		add	r3, r7, r3
 281 0078 1278     		ldrb	r2, [r2]
 282 007a 1A70     		strb	r2, [r3]
  59:lib_BLE/bluetooth.c ****                     }
 283              		.loc 2 59 0 discriminator 3
 284 007c 3D4B     		ldr	r3, .L21+8
 285 007e 1B68     		ldr	r3, [r3]
 286 0080 1A02     		lsl	r2, r3, #8
 287 0082 0F23     		mov	r3, #15
 288 0084 FB18     		add	r3, r7, r3
 289 0086 1B78     		ldrb	r3, [r3]
 290 0088 1A43     		orr	r2, r3
 291 008a 3A4B     		ldr	r3, .L21+8
 292 008c 1A60     		str	r2, [r3]
 293              	.LBE3:
  55:lib_BLE/bluetooth.c ****                     {
 294              		.loc 2 55 0 discriminator 3
 295 008e 7B69     		ldr	r3, [r7, #20]
 296 0090 013B     		sub	r3, r3, #1
 297 0092 7B61     		str	r3, [r7, #20]
 298              	.L15:
  55:lib_BLE/bluetooth.c ****                     {
 299              		.loc 2 55 0 is_stmt 0 discriminator 1
 300 0094 7B69     		ldr	r3, [r7, #20]
ARM GAS  C:\Users\Petro\AppData\Local\Temp\ccKADxhi.s 			page 18


 301 0096 002B     		cmp	r3, #0
 302 0098 E8DA     		bge	.L16
  67:lib_BLE/bluetooth.c ****                 }
 303              		.loc 2 67 0 is_stmt 1
 304 009a 354B     		ldr	r3, .L21+4
 305 009c 1A78     		ldrb	r2, [r3]
 306 009e 5B78     		ldrb	r3, [r3, #1]
 307 00a0 1B02     		lsl	r3, r3, #8
 308 00a2 1A43     		orr	r2, r3
 309 00a4 0023     		mov	r3, #0
 310 00a6 1204     		lsl	r2, r2, #16
 311 00a8 120C     		lsr	r2, r2, #16
 312 00aa 1B0C     		lsr	r3, r3, #16
 313 00ac 1B04     		lsl	r3, r3, #16
 314 00ae 1343     		orr	r3, r2
 315 00b0 181C     		mov	r0, r3
 316 00b2 FFF7FEFF 		bl	CyBle_GattsWriteRsp
 317              	.L14:
 318              	.LBE2:
  72:lib_BLE/bluetooth.c ****             {
 319              		.loc 2 72 0
 320 00b6 3B69     		ldr	r3, [r7, #16]
 321 00b8 9B89     		ldrh	r3, [r3, #12]
 322 00ba 252B     		cmp	r3, #37
 323 00bc 1DD1     		bne	.L17
  75:lib_BLE/bluetooth.c ****                 {
 324              		.loc 2 75 0
 325 00be 3B69     		ldr	r3, [r7, #16]
 326 00c0 1A1D     		add	r2, r3, #4
 327 00c2 2B4B     		ldr	r3, .L21+4
 328 00c4 101C     		mov	r0, r2
 329 00c6 0021     		mov	r1, #0
 330 00c8 1A1C     		mov	r2, r3
 331 00ca 4023     		mov	r3, #64
 332 00cc FFF7FEFF 		bl	CyBle_GattsWriteAttributeValue
 333 00d0 031E     		sub	r3, r0, #0
 334 00d2 12D1     		bne	.L17
  77:lib_BLE/bluetooth.c ****                     CyBle_GattsWriteRsp(cyBle_connHandle);
 335              		.loc 2 77 0
 336 00d4 3B69     		ldr	r3, [r7, #16]
 337 00d6 5B68     		ldr	r3, [r3, #4]
 338 00d8 1A78     		ldrb	r2, [r3]
 339 00da 274B     		ldr	r3, .L21+12
 340 00dc 1A70     		strb	r2, [r3]
  78:lib_BLE/bluetooth.c ****                 }
 341              		.loc 2 78 0
 342 00de 244B     		ldr	r3, .L21+4
 343 00e0 1A78     		ldrb	r2, [r3]
 344 00e2 5B78     		ldrb	r3, [r3, #1]
 345 00e4 1B02     		lsl	r3, r3, #8
 346 00e6 1A43     		orr	r2, r3
 347 00e8 0023     		mov	r3, #0
 348 00ea 1204     		lsl	r2, r2, #16
 349 00ec 120C     		lsr	r2, r2, #16
 350 00ee 1B0C     		lsr	r3, r3, #16
 351 00f0 1B04     		lsl	r3, r3, #16
 352 00f2 1343     		orr	r3, r2
ARM GAS  C:\Users\Petro\AppData\Local\Temp\ccKADxhi.s 			page 19


 353 00f4 181C     		mov	r0, r3
 354 00f6 FFF7FEFF 		bl	CyBle_GattsWriteRsp
 355              	.L17:
  83:lib_BLE/bluetooth.c ****             wrReqParam->handleValPair.attrHandle == CYBLE_SFSYSTEMSERVICE_TIME_START_TIMESTARTCCCD_
 356              		.loc 2 83 0
 357 00fa 3B69     		ldr	r3, [r7, #16]
 358 00fc 9B89     		ldrh	r3, [r3, #12]
 359 00fe 102B     		cmp	r3, #16
 360 0100 0FD0     		beq	.L18
  84:lib_BLE/bluetooth.c ****             wrReqParam->handleValPair.attrHandle == CYBLE_SFSYSTEMSERVICE_TIME_FINISH_TIMEFINISHCCC
 361              		.loc 2 84 0 discriminator 1
 362 0102 3B69     		ldr	r3, [r7, #16]
 363 0104 9B89     		ldrh	r3, [r3, #12]
  83:lib_BLE/bluetooth.c ****             wrReqParam->handleValPair.attrHandle == CYBLE_SFSYSTEMSERVICE_TIME_START_TIMESTARTCCCD_
 364              		.loc 2 83 0 discriminator 1
 365 0106 142B     		cmp	r3, #20
 366 0108 0BD0     		beq	.L18
  85:lib_BLE/bluetooth.c ****             wrReqParam->handleValPair.attrHandle == CYBLE_SFSYSTEMSERVICE_TIME_RESULT_TIMERESULTCCC
 367              		.loc 2 85 0
 368 010a 3B69     		ldr	r3, [r7, #16]
 369 010c 9B89     		ldrh	r3, [r3, #12]
  84:lib_BLE/bluetooth.c ****             wrReqParam->handleValPair.attrHandle == CYBLE_SFSYSTEMSERVICE_TIME_FINISH_TIMEFINISHCCC
 370              		.loc 2 84 0
 371 010e 182B     		cmp	r3, #24
 372 0110 07D0     		beq	.L18
  86:lib_BLE/bluetooth.c ****             wrReqParam->handleValPair.attrHandle == CYBLE_SFSYSTEMSERVICE_SYSTEM_STATUS_STATUSCCCD_
 373              		.loc 2 86 0
 374 0112 3B69     		ldr	r3, [r7, #16]
 375 0114 9B89     		ldrh	r3, [r3, #12]
  85:lib_BLE/bluetooth.c ****             wrReqParam->handleValPair.attrHandle == CYBLE_SFSYSTEMSERVICE_TIME_RESULT_TIMERESULTCCC
 376              		.loc 2 85 0
 377 0116 1C2B     		cmp	r3, #28
 378 0118 03D0     		beq	.L18
  87:lib_BLE/bluetooth.c ****             {
 379              		.loc 2 87 0
 380 011a 3B69     		ldr	r3, [r7, #16]
 381 011c 9B89     		ldrh	r3, [r3, #12]
  86:lib_BLE/bluetooth.c ****             wrReqParam->handleValPair.attrHandle == CYBLE_SFSYSTEMSERVICE_SYSTEM_STATUS_STATUSCCCD_
 382              		.loc 2 86 0
 383 011e 202B     		cmp	r3, #32
 384 0120 1FD1     		bne	.L19
 385              	.L18:
  89:lib_BLE/bluetooth.c ****                 notifycaiton = wrReqParam->handleValPair.value.val[0] & 0x01;
 386              		.loc 2 89 0
 387 0122 3B69     		ldr	r3, [r7, #16]
 388 0124 1A1D     		add	r2, r3, #4
 389 0126 124B     		ldr	r3, .L21+4
 390 0128 101C     		mov	r0, r2
 391 012a 0021     		mov	r1, #0
 392 012c 1A1C     		mov	r2, r3
 393 012e 4023     		mov	r3, #64
 394 0130 FFF7FEFF 		bl	CyBle_GattsWriteAttributeValue
  90:lib_BLE/bluetooth.c ****                 CyBle_GattsWriteRsp(cyBle_connHandle);
 395              		.loc 2 90 0
 396 0134 3B69     		ldr	r3, [r7, #16]
 397 0136 5B68     		ldr	r3, [r3, #4]
 398 0138 1B78     		ldrb	r3, [r3]
ARM GAS  C:\Users\Petro\AppData\Local\Temp\ccKADxhi.s 			page 20


 399 013a 1A1C     		mov	r2, r3
 400 013c 0123     		mov	r3, #1
 401 013e 1A40     		and	r2, r3
 402 0140 0A4B     		ldr	r3, .L21
 403 0142 1A60     		str	r2, [r3]
  91:lib_BLE/bluetooth.c ****             }
 404              		.loc 2 91 0
 405 0144 0A4B     		ldr	r3, .L21+4
 406 0146 1A78     		ldrb	r2, [r3]
 407 0148 5B78     		ldrb	r3, [r3, #1]
 408 014a 1B02     		lsl	r3, r3, #8
 409 014c 1A43     		orr	r2, r3
 410 014e 0023     		mov	r3, #0
 411 0150 1204     		lsl	r2, r2, #16
 412 0152 120C     		lsr	r2, r2, #16
 413 0154 1B0C     		lsr	r3, r3, #16
 414 0156 1B04     		lsl	r3, r3, #16
 415 0158 1343     		orr	r3, r2
 416 015a 181C     		mov	r0, r3
 417 015c FFF7FEFF 		bl	CyBle_GattsWriteRsp
  93:lib_BLE/bluetooth.c ****         
 418              		.loc 2 93 0
 419 0160 FFE7     		b	.L20
 420              	.L19:
 421              	.L20:
 422 0162 C046     		mov	r8, r8
 423              	.L7:
  97:lib_BLE/bluetooth.c ****     }
  98:lib_BLE/bluetooth.c **** } 
 424              		.loc 2 98 0
 425 0164 BD46     		mov	sp, r7
 426 0166 06B0     		add	sp, sp, #24
 427              		@ sp needed
 428 0168 80BD     		pop	{r7, pc}
 429              	.L22:
 430 016a C046     		.align	2
 431              	.L21:
 432 016c 00000000 		.word	notifycaiton
 433 0170 00000000 		.word	cyBle_connHandle
 434 0174 00000000 		.word	bleUnixTime
 435 0178 00000000 		.word	adminIsOnly
 436              		.cfi_endproc
 437              	.LFE63:
 438              		.size	BleCallBack, .-BleCallBack
 439              		.section	.text.updateData,"ax",%progbits
 440              		.align	2
 441              		.global	updateData
 442              		.code	16
 443              		.thumb_func
 444              		.type	updateData, %function
 445              	updateData:
 446              	.LFB64:
  99:lib_BLE/bluetooth.c **** 
 100:lib_BLE/bluetooth.c **** /***************************************************************
 101:lib_BLE/bluetooth.c ****  * Function to update the id skier state in the GATT database
 102:lib_BLE/bluetooth.c ****  **************************************************************/
 103:lib_BLE/bluetooth.c **** void updateData(void)
ARM GAS  C:\Users\Petro\AppData\Local\Temp\ccKADxhi.s 			page 21


 104:lib_BLE/bluetooth.c **** {
 447              		.loc 2 104 0
 448              		.cfi_startproc
 449 0000 80B5     		push	{r7, lr}
 450              		.cfi_def_cfa_offset 8
 451              		.cfi_offset 7, -8
 452              		.cfi_offset 14, -4
 453 0002 84B0     		sub	sp, sp, #16
 454              		.cfi_def_cfa_offset 24
 455 0004 00AF     		add	r7, sp, #0
 456              		.cfi_def_cfa_register 7
 105:lib_BLE/bluetooth.c ****     CYBLE_GATTS_HANDLE_VALUE_NTF_T 	tempHandle;
 106:lib_BLE/bluetooth.c ****     
 107:lib_BLE/bluetooth.c ****     if(CyBle_GetState() != CYBLE_STATE_CONNECTED)
 457              		.loc 2 107 0
 458 0006 654B     		ldr	r3, .L31
 459 0008 1B78     		ldrb	r3, [r3]
 460 000a 022B     		cmp	r3, #2
 461 000c 00D0     		beq	.LCB375
 462 000e C1E0     		b	.L23	@long jump
 463              	.LCB375:
 108:lib_BLE/bluetooth.c ****         return;
 109:lib_BLE/bluetooth.c ****     
 110:lib_BLE/bluetooth.c ****     tempHandle.attrHandle = CYBLE_SFSYSTEMSERVICE_ID_CHAR_HANDLE;
 464              		.loc 2 110 0
 465 0010 3B1D     		add	r3, r7, #4
 466 0012 0E22     		mov	r2, #14
 467 0014 1A81     		strh	r2, [r3, #8]
 111:lib_BLE/bluetooth.c ****   	tempHandle.value.val = (uint8 *) &sendIdSkier;
 468              		.loc 2 111 0
 469 0016 3B1D     		add	r3, r7, #4
 470 0018 614A     		ldr	r2, .L31+4
 471 001a 1A60     		str	r2, [r3]
 112:lib_BLE/bluetooth.c ****     tempHandle.value.len = 2;
 472              		.loc 2 112 0
 473 001c 3B1D     		add	r3, r7, #4
 474 001e 0222     		mov	r2, #2
 475 0020 9A80     		strh	r2, [r3, #4]
 113:lib_BLE/bluetooth.c ****     CyBle_GattsWriteAttributeValue(&tempHandle,0,&cyBle_connHandle,CYBLE_GATT_DB_LOCALLY_INITIATED 
 476              		.loc 2 113 0
 477 0022 3A1D     		add	r2, r7, #4
 478 0024 5F4B     		ldr	r3, .L31+8
 479 0026 101C     		mov	r0, r2
 480 0028 0021     		mov	r1, #0
 481 002a 1A1C     		mov	r2, r3
 482 002c 0023     		mov	r3, #0
 483 002e FFF7FEFF 		bl	CyBle_GattsWriteAttributeValue
 114:lib_BLE/bluetooth.c ****     if (notifycaiton  )
 484              		.loc 2 114 0
 485 0032 5D4B     		ldr	r3, .L31+12
 486 0034 1B68     		ldr	r3, [r3]
 487 0036 002B     		cmp	r3, #0
 488 0038 0ED0     		beq	.L26
 115:lib_BLE/bluetooth.c ****         CyBle_GattsNotification(cyBle_connHandle,&tempHandle);
 489              		.loc 2 115 0
 490 003a 5A4B     		ldr	r3, .L31+8
 491 003c 391D     		add	r1, r7, #4
ARM GAS  C:\Users\Petro\AppData\Local\Temp\ccKADxhi.s 			page 22


 492 003e 1A78     		ldrb	r2, [r3]
 493 0040 5B78     		ldrb	r3, [r3, #1]
 494 0042 1B02     		lsl	r3, r3, #8
 495 0044 1A43     		orr	r2, r3
 496 0046 0023     		mov	r3, #0
 497 0048 1204     		lsl	r2, r2, #16
 498 004a 120C     		lsr	r2, r2, #16
 499 004c 1B0C     		lsr	r3, r3, #16
 500 004e 1B04     		lsl	r3, r3, #16
 501 0050 1343     		orr	r3, r2
 502 0052 181C     		mov	r0, r3
 503 0054 FFF7FEFF 		bl	CyBle_GattsNotification
 504              	.L26:
 116:lib_BLE/bluetooth.c ****         
 117:lib_BLE/bluetooth.c ****     CyDelay(50);
 505              		.loc 2 117 0
 506 0058 3220     		mov	r0, #50
 507 005a FFF7FEFF 		bl	CyDelay
 118:lib_BLE/bluetooth.c ****         
 119:lib_BLE/bluetooth.c ****     tempHandle.attrHandle = CYBLE_SFSYSTEMSERVICE_TIME_START_CHAR_HANDLE;
 508              		.loc 2 119 0
 509 005e 3B1D     		add	r3, r7, #4
 510 0060 1222     		mov	r2, #18
 511 0062 1A81     		strh	r2, [r3, #8]
 120:lib_BLE/bluetooth.c ****   	tempHandle.value.val = (uint8 *) &sendBufferStart;
 512              		.loc 2 120 0
 513 0064 3B1D     		add	r3, r7, #4
 514 0066 514A     		ldr	r2, .L31+16
 515 0068 1A60     		str	r2, [r3]
 121:lib_BLE/bluetooth.c ****     tempHandle.value.len = 8;
 516              		.loc 2 121 0
 517 006a 3B1D     		add	r3, r7, #4
 518 006c 0822     		mov	r2, #8
 519 006e 9A80     		strh	r2, [r3, #4]
 122:lib_BLE/bluetooth.c ****     CyBle_GattsWriteAttributeValue(&tempHandle,0,&cyBle_connHandle,CYBLE_GATT_DB_LOCALLY_INITIATED 
 520              		.loc 2 122 0
 521 0070 3A1D     		add	r2, r7, #4
 522 0072 4C4B     		ldr	r3, .L31+8
 523 0074 101C     		mov	r0, r2
 524 0076 0021     		mov	r1, #0
 525 0078 1A1C     		mov	r2, r3
 526 007a 0023     		mov	r3, #0
 527 007c FFF7FEFF 		bl	CyBle_GattsWriteAttributeValue
 123:lib_BLE/bluetooth.c ****     if (notifycaiton  )
 528              		.loc 2 123 0
 529 0080 494B     		ldr	r3, .L31+12
 530 0082 1B68     		ldr	r3, [r3]
 531 0084 002B     		cmp	r3, #0
 532 0086 0ED0     		beq	.L27
 124:lib_BLE/bluetooth.c ****         CyBle_GattsNotification(cyBle_connHandle,&tempHandle);
 533              		.loc 2 124 0
 534 0088 464B     		ldr	r3, .L31+8
 535 008a 391D     		add	r1, r7, #4
 536 008c 1A78     		ldrb	r2, [r3]
 537 008e 5B78     		ldrb	r3, [r3, #1]
 538 0090 1B02     		lsl	r3, r3, #8
 539 0092 1A43     		orr	r2, r3
ARM GAS  C:\Users\Petro\AppData\Local\Temp\ccKADxhi.s 			page 23


 540 0094 0023     		mov	r3, #0
 541 0096 1204     		lsl	r2, r2, #16
 542 0098 120C     		lsr	r2, r2, #16
 543 009a 1B0C     		lsr	r3, r3, #16
 544 009c 1B04     		lsl	r3, r3, #16
 545 009e 1343     		orr	r3, r2
 546 00a0 181C     		mov	r0, r3
 547 00a2 FFF7FEFF 		bl	CyBle_GattsNotification
 548              	.L27:
 125:lib_BLE/bluetooth.c ****         
 126:lib_BLE/bluetooth.c ****     CyDelay(50);
 549              		.loc 2 126 0
 550 00a6 3220     		mov	r0, #50
 551 00a8 FFF7FEFF 		bl	CyDelay
 127:lib_BLE/bluetooth.c ****     
 128:lib_BLE/bluetooth.c ****     tempHandle.attrHandle = CYBLE_SFSYSTEMSERVICE_TIME_FINISH_CHAR_HANDLE;
 552              		.loc 2 128 0
 553 00ac 3B1D     		add	r3, r7, #4
 554 00ae 1622     		mov	r2, #22
 555 00b0 1A81     		strh	r2, [r3, #8]
 129:lib_BLE/bluetooth.c ****   	tempHandle.value.val = (uint8 *) &sendBufferFinish;
 556              		.loc 2 129 0
 557 00b2 3B1D     		add	r3, r7, #4
 558 00b4 3E4A     		ldr	r2, .L31+20
 559 00b6 1A60     		str	r2, [r3]
 130:lib_BLE/bluetooth.c ****     tempHandle.value.len = 8;
 560              		.loc 2 130 0
 561 00b8 3B1D     		add	r3, r7, #4
 562 00ba 0822     		mov	r2, #8
 563 00bc 9A80     		strh	r2, [r3, #4]
 131:lib_BLE/bluetooth.c ****     CyBle_GattsWriteAttributeValue(&tempHandle,0,&cyBle_connHandle,CYBLE_GATT_DB_LOCALLY_INITIATED 
 564              		.loc 2 131 0
 565 00be 3A1D     		add	r2, r7, #4
 566 00c0 384B     		ldr	r3, .L31+8
 567 00c2 101C     		mov	r0, r2
 568 00c4 0021     		mov	r1, #0
 569 00c6 1A1C     		mov	r2, r3
 570 00c8 0023     		mov	r3, #0
 571 00ca FFF7FEFF 		bl	CyBle_GattsWriteAttributeValue
 132:lib_BLE/bluetooth.c ****     if (notifycaiton  )
 572              		.loc 2 132 0
 573 00ce 364B     		ldr	r3, .L31+12
 574 00d0 1B68     		ldr	r3, [r3]
 575 00d2 002B     		cmp	r3, #0
 576 00d4 0ED0     		beq	.L28
 133:lib_BLE/bluetooth.c ****         CyBle_GattsNotification(cyBle_connHandle,&tempHandle); 
 577              		.loc 2 133 0
 578 00d6 334B     		ldr	r3, .L31+8
 579 00d8 391D     		add	r1, r7, #4
 580 00da 1A78     		ldrb	r2, [r3]
 581 00dc 5B78     		ldrb	r3, [r3, #1]
 582 00de 1B02     		lsl	r3, r3, #8
 583 00e0 1A43     		orr	r2, r3
 584 00e2 0023     		mov	r3, #0
 585 00e4 1204     		lsl	r2, r2, #16
 586 00e6 120C     		lsr	r2, r2, #16
 587 00e8 1B0C     		lsr	r3, r3, #16
ARM GAS  C:\Users\Petro\AppData\Local\Temp\ccKADxhi.s 			page 24


 588 00ea 1B04     		lsl	r3, r3, #16
 589 00ec 1343     		orr	r3, r2
 590 00ee 181C     		mov	r0, r3
 591 00f0 FFF7FEFF 		bl	CyBle_GattsNotification
 592              	.L28:
 134:lib_BLE/bluetooth.c ****         
 135:lib_BLE/bluetooth.c ****     CyDelay(50);
 593              		.loc 2 135 0
 594 00f4 3220     		mov	r0, #50
 595 00f6 FFF7FEFF 		bl	CyDelay
 136:lib_BLE/bluetooth.c ****     CyBle_ProcessEvents();
 596              		.loc 2 136 0
 597 00fa FFF7FEFF 		bl	CyBle_ProcessEvents
 137:lib_BLE/bluetooth.c ****     
 138:lib_BLE/bluetooth.c ****     tempHandle.attrHandle = CYBLE_SFSYSTEMSERVICE_TIME_RESULT_CHAR_HANDLE;
 598              		.loc 2 138 0
 599 00fe 3B1D     		add	r3, r7, #4
 600 0100 1A22     		mov	r2, #26
 601 0102 1A81     		strh	r2, [r3, #8]
 139:lib_BLE/bluetooth.c ****   	tempHandle.value.val = (uint8 *) &sendBufferResult;
 602              		.loc 2 139 0
 603 0104 3B1D     		add	r3, r7, #4
 604 0106 2B4A     		ldr	r2, .L31+24
 605 0108 1A60     		str	r2, [r3]
 140:lib_BLE/bluetooth.c ****     tempHandle.value.len = 8;
 606              		.loc 2 140 0
 607 010a 3B1D     		add	r3, r7, #4
 608 010c 0822     		mov	r2, #8
 609 010e 9A80     		strh	r2, [r3, #4]
 141:lib_BLE/bluetooth.c ****     CyBle_GattsWriteAttributeValue(&tempHandle,0,&cyBle_connHandle,CYBLE_GATT_DB_LOCALLY_INITIATED 
 610              		.loc 2 141 0
 611 0110 3A1D     		add	r2, r7, #4
 612 0112 244B     		ldr	r3, .L31+8
 613 0114 101C     		mov	r0, r2
 614 0116 0021     		mov	r1, #0
 615 0118 1A1C     		mov	r2, r3
 616 011a 0023     		mov	r3, #0
 617 011c FFF7FEFF 		bl	CyBle_GattsWriteAttributeValue
 142:lib_BLE/bluetooth.c ****     if (notifycaiton  )
 618              		.loc 2 142 0
 619 0120 214B     		ldr	r3, .L31+12
 620 0122 1B68     		ldr	r3, [r3]
 621 0124 002B     		cmp	r3, #0
 622 0126 0ED0     		beq	.L29
 143:lib_BLE/bluetooth.c ****         CyBle_GattsNotification(cyBle_connHandle,&tempHandle);
 623              		.loc 2 143 0
 624 0128 1E4B     		ldr	r3, .L31+8
 625 012a 391D     		add	r1, r7, #4
 626 012c 1A78     		ldrb	r2, [r3]
 627 012e 5B78     		ldrb	r3, [r3, #1]
 628 0130 1B02     		lsl	r3, r3, #8
 629 0132 1A43     		orr	r2, r3
 630 0134 0023     		mov	r3, #0
 631 0136 1204     		lsl	r2, r2, #16
 632 0138 120C     		lsr	r2, r2, #16
 633 013a 1B0C     		lsr	r3, r3, #16
 634 013c 1B04     		lsl	r3, r3, #16
ARM GAS  C:\Users\Petro\AppData\Local\Temp\ccKADxhi.s 			page 25


 635 013e 1343     		orr	r3, r2
 636 0140 181C     		mov	r0, r3
 637 0142 FFF7FEFF 		bl	CyBle_GattsNotification
 638              	.L29:
 144:lib_BLE/bluetooth.c ****         
 145:lib_BLE/bluetooth.c ****     CyDelay(50);
 639              		.loc 2 145 0
 640 0146 3220     		mov	r0, #50
 641 0148 FFF7FEFF 		bl	CyDelay
 146:lib_BLE/bluetooth.c ****         
 147:lib_BLE/bluetooth.c ****     tempHandle.attrHandle = CYBLE_SFSYSTEMSERVICE_SYSTEM_STATUS_CHAR_HANDLE;
 642              		.loc 2 147 0
 643 014c 3B1D     		add	r3, r7, #4
 644 014e 1E22     		mov	r2, #30
 645 0150 1A81     		strh	r2, [r3, #8]
 148:lib_BLE/bluetooth.c ****   	tempHandle.value.val = (uint8 *) &sendBufferStatus;
 646              		.loc 2 148 0
 647 0152 3B1D     		add	r3, r7, #4
 648 0154 184A     		ldr	r2, .L31+28
 649 0156 1A60     		str	r2, [r3]
 149:lib_BLE/bluetooth.c ****     tempHandle.value.len = 7;
 650              		.loc 2 149 0
 651 0158 3B1D     		add	r3, r7, #4
 652 015a 0722     		mov	r2, #7
 653 015c 9A80     		strh	r2, [r3, #4]
 150:lib_BLE/bluetooth.c ****     CyBle_GattsWriteAttributeValue(&tempHandle,0,&cyBle_connHandle,CYBLE_GATT_DB_LOCALLY_INITIATED 
 654              		.loc 2 150 0
 655 015e 3A1D     		add	r2, r7, #4
 656 0160 104B     		ldr	r3, .L31+8
 657 0162 101C     		mov	r0, r2
 658 0164 0021     		mov	r1, #0
 659 0166 1A1C     		mov	r2, r3
 660 0168 0023     		mov	r3, #0
 661 016a FFF7FEFF 		bl	CyBle_GattsWriteAttributeValue
 151:lib_BLE/bluetooth.c ****     if (notifycaiton  )
 662              		.loc 2 151 0
 663 016e 0E4B     		ldr	r3, .L31+12
 664 0170 1B68     		ldr	r3, [r3]
 665 0172 002B     		cmp	r3, #0
 666 0174 0ED0     		beq	.L23
 152:lib_BLE/bluetooth.c ****         CyBle_GattsNotification(cyBle_connHandle,&tempHandle);
 667              		.loc 2 152 0
 668 0176 0B4B     		ldr	r3, .L31+8
 669 0178 391D     		add	r1, r7, #4
 670 017a 1A78     		ldrb	r2, [r3]
 671 017c 5B78     		ldrb	r3, [r3, #1]
 672 017e 1B02     		lsl	r3, r3, #8
 673 0180 1A43     		orr	r2, r3
 674 0182 0023     		mov	r3, #0
 675 0184 1204     		lsl	r2, r2, #16
 676 0186 120C     		lsr	r2, r2, #16
 677 0188 1B0C     		lsr	r3, r3, #16
 678 018a 1B04     		lsl	r3, r3, #16
 679 018c 1343     		orr	r3, r2
 680 018e 181C     		mov	r0, r3
 681 0190 FFF7FEFF 		bl	CyBle_GattsNotification
 682              	.L23:
ARM GAS  C:\Users\Petro\AppData\Local\Temp\ccKADxhi.s 			page 26


 153:lib_BLE/bluetooth.c **** }
 683              		.loc 2 153 0
 684 0194 BD46     		mov	sp, r7
 685 0196 04B0     		add	sp, sp, #16
 686              		@ sp needed
 687 0198 80BD     		pop	{r7, pc}
 688              	.L32:
 689 019a C046     		.align	2
 690              	.L31:
 691 019c 00000000 		.word	cyBle_state
 692 01a0 00000000 		.word	sendIdSkier
 693 01a4 00000000 		.word	cyBle_connHandle
 694 01a8 00000000 		.word	notifycaiton
 695 01ac 00000000 		.word	sendBufferStart
 696 01b0 00000000 		.word	sendBufferFinish
 697 01b4 00000000 		.word	sendBufferResult
 698 01b8 00000000 		.word	sendBufferStatus
 699              		.cfi_endproc
 700              	.LFE64:
 701              		.size	updateData, .-updateData
 702              		.section	.text.updateStatusData,"ax",%progbits
 703              		.align	2
 704              		.global	updateStatusData
 705              		.code	16
 706              		.thumb_func
 707              		.type	updateStatusData, %function
 708              	updateStatusData:
 709              	.LFB65:
 154:lib_BLE/bluetooth.c **** 
 155:lib_BLE/bluetooth.c **** 
 156:lib_BLE/bluetooth.c **** /***************************************************************
 157:lib_BLE/bluetooth.c ****  * Function to update the id skier state in the GATT database
 158:lib_BLE/bluetooth.c ****  **************************************************************/
 159:lib_BLE/bluetooth.c **** void updateStatusData(void)
 160:lib_BLE/bluetooth.c **** {
 710              		.loc 2 160 0
 711              		.cfi_startproc
 712 0000 80B5     		push	{r7, lr}
 713              		.cfi_def_cfa_offset 8
 714              		.cfi_offset 7, -8
 715              		.cfi_offset 14, -4
 716 0002 84B0     		sub	sp, sp, #16
 717              		.cfi_def_cfa_offset 24
 718 0004 00AF     		add	r7, sp, #0
 719              		.cfi_def_cfa_register 7
 161:lib_BLE/bluetooth.c ****     CYBLE_GATTS_HANDLE_VALUE_NTF_T 	tempHandle;
 162:lib_BLE/bluetooth.c ****     
 163:lib_BLE/bluetooth.c ****     if(CyBle_GetState() != CYBLE_STATE_CONNECTED)
 720              		.loc 2 163 0
 721 0006 154B     		ldr	r3, .L37
 722 0008 1B78     		ldrb	r3, [r3]
 723 000a 022B     		cmp	r3, #2
 724 000c 23D1     		bne	.L33
 164:lib_BLE/bluetooth.c ****         return;
 165:lib_BLE/bluetooth.c ****            
 166:lib_BLE/bluetooth.c ****     tempHandle.attrHandle = CYBLE_SFSYSTEMSERVICE_SYSTEM_STATUS_CHAR_HANDLE;
 725              		.loc 2 166 0
ARM GAS  C:\Users\Petro\AppData\Local\Temp\ccKADxhi.s 			page 27


 726 000e 3B1D     		add	r3, r7, #4
 727 0010 1E22     		mov	r2, #30
 728 0012 1A81     		strh	r2, [r3, #8]
 167:lib_BLE/bluetooth.c ****   	tempHandle.value.val = (uint8 *) &sendBufferStatus;
 729              		.loc 2 167 0
 730 0014 3B1D     		add	r3, r7, #4
 731 0016 124A     		ldr	r2, .L37+4
 732 0018 1A60     		str	r2, [r3]
 168:lib_BLE/bluetooth.c ****     tempHandle.value.len = 7;
 733              		.loc 2 168 0
 734 001a 3B1D     		add	r3, r7, #4
 735 001c 0722     		mov	r2, #7
 736 001e 9A80     		strh	r2, [r3, #4]
 169:lib_BLE/bluetooth.c ****     CyBle_GattsWriteAttributeValue(&tempHandle,0,&cyBle_connHandle,CYBLE_GATT_DB_LOCALLY_INITIATED 
 737              		.loc 2 169 0
 738 0020 3A1D     		add	r2, r7, #4
 739 0022 104B     		ldr	r3, .L37+8
 740 0024 101C     		mov	r0, r2
 741 0026 0021     		mov	r1, #0
 742 0028 1A1C     		mov	r2, r3
 743 002a 0023     		mov	r3, #0
 744 002c FFF7FEFF 		bl	CyBle_GattsWriteAttributeValue
 170:lib_BLE/bluetooth.c ****     if (notifycaiton  )
 745              		.loc 2 170 0
 746 0030 0D4B     		ldr	r3, .L37+12
 747 0032 1B68     		ldr	r3, [r3]
 748 0034 002B     		cmp	r3, #0
 749 0036 0ED0     		beq	.L33
 171:lib_BLE/bluetooth.c ****         CyBle_GattsNotification(cyBle_connHandle,&tempHandle);
 750              		.loc 2 171 0
 751 0038 0A4B     		ldr	r3, .L37+8
 752 003a 391D     		add	r1, r7, #4
 753 003c 1A78     		ldrb	r2, [r3]
 754 003e 5B78     		ldrb	r3, [r3, #1]
 755 0040 1B02     		lsl	r3, r3, #8
 756 0042 1A43     		orr	r2, r3
 757 0044 0023     		mov	r3, #0
 758 0046 1204     		lsl	r2, r2, #16
 759 0048 120C     		lsr	r2, r2, #16
 760 004a 1B0C     		lsr	r3, r3, #16
 761 004c 1B04     		lsl	r3, r3, #16
 762 004e 1343     		orr	r3, r2
 763 0050 181C     		mov	r0, r3
 764 0052 FFF7FEFF 		bl	CyBle_GattsNotification
 765              	.L33:
 172:lib_BLE/bluetooth.c **** }
 766              		.loc 2 172 0
 767 0056 BD46     		mov	sp, r7
 768 0058 04B0     		add	sp, sp, #16
 769              		@ sp needed
 770 005a 80BD     		pop	{r7, pc}
 771              	.L38:
 772              		.align	2
 773              	.L37:
 774 005c 00000000 		.word	cyBle_state
 775 0060 00000000 		.word	sendBufferStatus
 776 0064 00000000 		.word	cyBle_connHandle
ARM GAS  C:\Users\Petro\AppData\Local\Temp\ccKADxhi.s 			page 28


 777 0068 00000000 		.word	notifycaiton
 778              		.cfi_endproc
 779              	.LFE65:
 780              		.size	updateStatusData, .-updateStatusData
 781              		.section	.text.BLE_start,"ax",%progbits
 782              		.align	2
 783              		.global	BLE_start
 784              		.code	16
 785              		.thumb_func
 786              		.type	BLE_start, %function
 787              	BLE_start:
 788              	.LFB66:
 173:lib_BLE/bluetooth.c **** 
 174:lib_BLE/bluetooth.c **** void BLE_start(void)
 175:lib_BLE/bluetooth.c **** {
 789              		.loc 2 175 0
 790              		.cfi_startproc
 791 0000 80B5     		push	{r7, lr}
 792              		.cfi_def_cfa_offset 8
 793              		.cfi_offset 7, -8
 794              		.cfi_offset 14, -4
 795 0002 00AF     		add	r7, sp, #0
 796              		.cfi_def_cfa_register 7
 176:lib_BLE/bluetooth.c ****     CyBle_Start(BleCallBack);
 797              		.loc 2 176 0
 798 0004 024B     		ldr	r3, .L40
 799 0006 181C     		mov	r0, r3
 800 0008 FFF7FEFF 		bl	CyBle_Start
 177:lib_BLE/bluetooth.c ****     
 178:lib_BLE/bluetooth.c ****     #ifdef DEBUG_BLE
 179:lib_BLE/bluetooth.c ****         SW_UART_DEBUG_Start();
 180:lib_BLE/bluetooth.c ****         SW_UART_DEBUG_PutString("Im ready\n\r");
 181:lib_BLE/bluetooth.c ****     #endif
 182:lib_BLE/bluetooth.c **** }
 801              		.loc 2 182 0
 802 000c BD46     		mov	sp, r7
 803              		@ sp needed
 804 000e 80BD     		pop	{r7, pc}
 805              	.L41:
 806              		.align	2
 807              	.L40:
 808 0010 00000000 		.word	BleCallBack
 809              		.cfi_endproc
 810              	.LFE66:
 811              		.size	BLE_start, .-BLE_start
 812              		.section	.text.BLE_processEvents,"ax",%progbits
 813              		.align	2
 814              		.global	BLE_processEvents
 815              		.code	16
 816              		.thumb_func
 817              		.type	BLE_processEvents, %function
 818              	BLE_processEvents:
 819              	.LFB67:
 183:lib_BLE/bluetooth.c **** 
 184:lib_BLE/bluetooth.c **** 
 185:lib_BLE/bluetooth.c **** void BLE_processEvents(void)
 186:lib_BLE/bluetooth.c **** {
ARM GAS  C:\Users\Petro\AppData\Local\Temp\ccKADxhi.s 			page 29


 820              		.loc 2 186 0
 821              		.cfi_startproc
 822 0000 80B5     		push	{r7, lr}
 823              		.cfi_def_cfa_offset 8
 824              		.cfi_offset 7, -8
 825              		.cfi_offset 14, -4
 826 0002 00AF     		add	r7, sp, #0
 827              		.cfi_def_cfa_register 7
 187:lib_BLE/bluetooth.c ****     CyBle_ProcessEvents();
 828              		.loc 2 187 0
 829 0004 FFF7FEFF 		bl	CyBle_ProcessEvents
 188:lib_BLE/bluetooth.c ****     CyBle_EnterLPM(CYBLE_BLESS_DEEPSLEEP);
 830              		.loc 2 188 0
 831 0008 0320     		mov	r0, #3
 832 000a FFF7FEFF 		bl	CyBle_EnterLPM
 189:lib_BLE/bluetooth.c **** }
 833              		.loc 2 189 0
 834 000e BD46     		mov	sp, r7
 835              		@ sp needed
 836 0010 80BD     		pop	{r7, pc}
 837              		.cfi_endproc
 838              	.LFE67:
 839              		.size	BLE_processEvents, .-BLE_processEvents
 840 0012 C046     		.section	.text.BLE_getUnixTime,"ax",%progbits
 841              		.align	2
 842              		.global	BLE_getUnixTime
 843              		.code	16
 844              		.thumb_func
 845              		.type	BLE_getUnixTime, %function
 846              	BLE_getUnixTime:
 847              	.LFB68:
 190:lib_BLE/bluetooth.c **** 
 191:lib_BLE/bluetooth.c **** 
 192:lib_BLE/bluetooth.c **** uint32_t BLE_getUnixTime(void)
 193:lib_BLE/bluetooth.c **** {
 848              		.loc 2 193 0
 849              		.cfi_startproc
 850 0000 80B5     		push	{r7, lr}
 851              		.cfi_def_cfa_offset 8
 852              		.cfi_offset 7, -8
 853              		.cfi_offset 14, -4
 854 0002 00AF     		add	r7, sp, #0
 855              		.cfi_def_cfa_register 7
 194:lib_BLE/bluetooth.c ****     if(bleUnixTime == 0)
 856              		.loc 2 194 0
 857 0004 054B     		ldr	r3, .L46
 858 0006 1B68     		ldr	r3, [r3]
 859 0008 002B     		cmp	r3, #0
 860 000a 01D1     		bne	.L44
 195:lib_BLE/bluetooth.c ****     {
 196:lib_BLE/bluetooth.c ****         return 0;
 861              		.loc 2 196 0
 862 000c 0023     		mov	r3, #0
 863 000e 01E0     		b	.L45
 864              	.L44:
 197:lib_BLE/bluetooth.c ****     }
 198:lib_BLE/bluetooth.c ****     else
ARM GAS  C:\Users\Petro\AppData\Local\Temp\ccKADxhi.s 			page 30


 199:lib_BLE/bluetooth.c ****     {
 200:lib_BLE/bluetooth.c ****         return bleUnixTime;
 865              		.loc 2 200 0
 866 0010 024B     		ldr	r3, .L46
 867 0012 1B68     		ldr	r3, [r3]
 868              	.L45:
 201:lib_BLE/bluetooth.c ****     }
 202:lib_BLE/bluetooth.c **** }
 869              		.loc 2 202 0
 870 0014 181C     		mov	r0, r3
 871 0016 BD46     		mov	sp, r7
 872              		@ sp needed
 873 0018 80BD     		pop	{r7, pc}
 874              	.L47:
 875 001a C046     		.align	2
 876              	.L46:
 877 001c 00000000 		.word	bleUnixTime
 878              		.cfi_endproc
 879              	.LFE68:
 880              		.size	BLE_getUnixTime, .-BLE_getUnixTime
 881              		.section	.text.BLE_getFlagAdminOnly,"ax",%progbits
 882              		.align	2
 883              		.global	BLE_getFlagAdminOnly
 884              		.code	16
 885              		.thumb_func
 886              		.type	BLE_getFlagAdminOnly, %function
 887              	BLE_getFlagAdminOnly:
 888              	.LFB69:
 203:lib_BLE/bluetooth.c **** 
 204:lib_BLE/bluetooth.c **** uint8_t BLE_getFlagAdminOnly(void)
 205:lib_BLE/bluetooth.c **** {
 889              		.loc 2 205 0
 890              		.cfi_startproc
 891 0000 80B5     		push	{r7, lr}
 892              		.cfi_def_cfa_offset 8
 893              		.cfi_offset 7, -8
 894              		.cfi_offset 14, -4
 895 0002 00AF     		add	r7, sp, #0
 896              		.cfi_def_cfa_register 7
 206:lib_BLE/bluetooth.c **** //    if((CyBle_GetState() != CYBLE_STATE_CONNECTED) || statusBLE == 0)
 207:lib_BLE/bluetooth.c **** //        return 0;
 208:lib_BLE/bluetooth.c ****     
 209:lib_BLE/bluetooth.c ****     if(adminIsOnly == 0)
 897              		.loc 2 209 0
 898 0004 064B     		ldr	r3, .L51
 899 0006 1B78     		ldrb	r3, [r3]
 900 0008 002B     		cmp	r3, #0
 901 000a 01D1     		bne	.L49
 210:lib_BLE/bluetooth.c ****     {
 211:lib_BLE/bluetooth.c ****         #ifdef DEBUG_BLE
 212:lib_BLE/bluetooth.c ****         SW_UART_DEBUG_PutString("admin only 0\n\r");
 213:lib_BLE/bluetooth.c ****         #endif
 214:lib_BLE/bluetooth.c ****         return 0;
 902              		.loc 2 214 0
 903 000c 0023     		mov	r3, #0
 904 000e 03E0     		b	.L50
 905              	.L49:
ARM GAS  C:\Users\Petro\AppData\Local\Temp\ccKADxhi.s 			page 31


 215:lib_BLE/bluetooth.c ****     }
 216:lib_BLE/bluetooth.c ****     else
 217:lib_BLE/bluetooth.c ****     {
 218:lib_BLE/bluetooth.c ****         adminIsOnly = 0;
 906              		.loc 2 218 0
 907 0010 034B     		ldr	r3, .L51
 908 0012 0022     		mov	r2, #0
 909 0014 1A70     		strb	r2, [r3]
 219:lib_BLE/bluetooth.c ****         #ifdef DEBUG_BLE
 220:lib_BLE/bluetooth.c ****         SW_UART_DEBUG_PutString("admin only 1\n\r");
 221:lib_BLE/bluetooth.c ****         #endif
 222:lib_BLE/bluetooth.c ****         return 1;
 910              		.loc 2 222 0
 911 0016 0123     		mov	r3, #1
 912              	.L50:
 223:lib_BLE/bluetooth.c ****     }
 224:lib_BLE/bluetooth.c **** }
 913              		.loc 2 224 0
 914 0018 181C     		mov	r0, r3
 915 001a BD46     		mov	sp, r7
 916              		@ sp needed
 917 001c 80BD     		pop	{r7, pc}
 918              	.L52:
 919 001e C046     		.align	2
 920              	.L51:
 921 0020 00000000 		.word	adminIsOnly
 922              		.cfi_endproc
 923              	.LFE69:
 924              		.size	BLE_getFlagAdminOnly, .-BLE_getFlagAdminOnly
 925              		.global	__aeabi_uldivmod
 926              		.global	__aeabi_uidiv
 927              		.global	__aeabi_uidivmod
 928              		.section	.text.BLE_sendOneSkierTimeResult,"ax",%progbits
 929              		.align	2
 930              		.global	BLE_sendOneSkierTimeResult
 931              		.code	16
 932              		.thumb_func
 933              		.type	BLE_sendOneSkierTimeResult, %function
 934              	BLE_sendOneSkierTimeResult:
 935              	.LFB70:
 225:lib_BLE/bluetooth.c **** 
 226:lib_BLE/bluetooth.c **** void BLE_sendOneSkierTimeResult(skierDB_El *data, uint8_t idSkier,
 227:lib_BLE/bluetooth.c ****                             uint8_t numSkierOnWay, uint8_t maxSkierOnWay)
 228:lib_BLE/bluetooth.c **** {   
 936              		.loc 2 228 0
 937              		.cfi_startproc
 938 0000 90B5     		push	{r4, r7, lr}
 939              		.cfi_def_cfa_offset 12
 940              		.cfi_offset 4, -12
 941              		.cfi_offset 7, -8
 942              		.cfi_offset 14, -4
 943 0002 8BB0     		sub	sp, sp, #44
 944              		.cfi_def_cfa_offset 56
 945 0004 02AF     		add	r7, sp, #8
 946              		.cfi_def_cfa 7, 48
 947 0006 7860     		str	r0, [r7, #4]
 948 0008 0C1C     		mov	r4, r1
ARM GAS  C:\Users\Petro\AppData\Local\Temp\ccKADxhi.s 			page 32


 949 000a 101C     		mov	r0, r2
 950 000c 191C     		mov	r1, r3
 951 000e FB1C     		add	r3, r7, #3
 952 0010 221C     		add	r2, r4, #0
 953 0012 1A70     		strb	r2, [r3]
 954 0014 BB1C     		add	r3, r7, #2
 955 0016 021C     		add	r2, r0, #0
 956 0018 1A70     		strb	r2, [r3]
 957 001a 7B1C     		add	r3, r7, #1
 958 001c 0A1C     		add	r2, r1, #0
 959 001e 1A70     		strb	r2, [r3]
 229:lib_BLE/bluetooth.c ****     RTC_DATE_TIME time;
 230:lib_BLE/bluetooth.c ****     
 231:lib_BLE/bluetooth.c ****     /*read unix time*/
 232:lib_BLE/bluetooth.c ****     RTC_UnixToDateTime(&time, data->unixStartSkier, RTC_24_HOURS_FORMAT);
 960              		.loc 2 232 0
 961 0020 7B68     		ldr	r3, [r7, #4]
 962 0022 5C68     		ldr	r4, [r3, #4]
 963 0024 1B68     		ldr	r3, [r3]
 964 0026 0C22     		mov	r2, #12
 965 0028 B918     		add	r1, r7, r2
 966 002a 0022     		mov	r2, #0
 967 002c 0092     		str	r2, [sp]
 968 002e 081C     		mov	r0, r1
 969 0030 1A1C     		mov	r2, r3
 970 0032 231C     		mov	r3, r4
 971 0034 FFF7FEFF 		bl	RTC_UnixToDateTime
 233:lib_BLE/bluetooth.c ****     sendBufferStart[BLE_SEND_HOUR] = RTC_GetHours(time.time);
 972              		.loc 2 233 0
 973 0038 0C23     		mov	r3, #12
 974 003a FB18     		add	r3, r7, r3
 975 003c 1B68     		ldr	r3, [r3]
 976 003e 181C     		mov	r0, r3
 977 0040 FFF7FEFF 		bl	RTC_GetHours
 978 0044 031C     		mov	r3, r0
 979 0046 9AB2     		uxth	r2, r3
 980 0048 524B     		ldr	r3, .L54
 981 004a 1A80     		strh	r2, [r3]
 234:lib_BLE/bluetooth.c ****     sendBufferStart[BLE_SEND_MIN] = RTC_GetMinutes(time.time);
 982              		.loc 2 234 0
 983 004c 0C23     		mov	r3, #12
 984 004e FB18     		add	r3, r7, r3
 985 0050 1B68     		ldr	r3, [r3]
 986 0052 181C     		mov	r0, r3
 987 0054 FFF7FEFF 		bl	RTC_GetMinutes
 988 0058 031C     		mov	r3, r0
 989 005a 9AB2     		uxth	r2, r3
 990 005c 4D4B     		ldr	r3, .L54
 991 005e 5A80     		strh	r2, [r3, #2]
 235:lib_BLE/bluetooth.c ****     sendBufferStart[BLE_SEND_SEC] = RTC_GetSecond(time.time);
 992              		.loc 2 235 0
 993 0060 0C23     		mov	r3, #12
 994 0062 FB18     		add	r3, r7, r3
 995 0064 1B68     		ldr	r3, [r3]
 996 0066 181C     		mov	r0, r3
 997 0068 FFF7FEFF 		bl	RTC_GetSecond
 998 006c 031C     		mov	r3, r0
ARM GAS  C:\Users\Petro\AppData\Local\Temp\ccKADxhi.s 			page 33


 999 006e 9AB2     		uxth	r2, r3
 1000 0070 484B     		ldr	r3, .L54
 1001 0072 9A80     		strh	r2, [r3, #4]
 236:lib_BLE/bluetooth.c ****     sendBufferStart[BLE_SEND_MS] = data->millsStartSkier;
 1002              		.loc 2 236 0
 1003 0074 7B68     		ldr	r3, [r7, #4]
 1004 0076 1A89     		ldrh	r2, [r3, #8]
 1005 0078 464B     		ldr	r3, .L54
 1006 007a DA80     		strh	r2, [r3, #6]
 237:lib_BLE/bluetooth.c ****     
 238:lib_BLE/bluetooth.c ****     RTC_UnixToDateTime(&time, data->unixFinishSkier, RTC_24_HOURS_FORMAT);
 1007              		.loc 2 238 0
 1008 007c 7B68     		ldr	r3, [r7, #4]
 1009 007e 5C69     		ldr	r4, [r3, #20]
 1010 0080 1B69     		ldr	r3, [r3, #16]
 1011 0082 0C22     		mov	r2, #12
 1012 0084 B918     		add	r1, r7, r2
 1013 0086 0022     		mov	r2, #0
 1014 0088 0092     		str	r2, [sp]
 1015 008a 081C     		mov	r0, r1
 1016 008c 1A1C     		mov	r2, r3
 1017 008e 231C     		mov	r3, r4
 1018 0090 FFF7FEFF 		bl	RTC_UnixToDateTime
 239:lib_BLE/bluetooth.c ****     sendBufferFinish[BLE_SEND_HOUR] = RTC_GetHours(time.time);
 1019              		.loc 2 239 0
 1020 0094 0C23     		mov	r3, #12
 1021 0096 FB18     		add	r3, r7, r3
 1022 0098 1B68     		ldr	r3, [r3]
 1023 009a 181C     		mov	r0, r3
 1024 009c FFF7FEFF 		bl	RTC_GetHours
 1025 00a0 031C     		mov	r3, r0
 1026 00a2 9AB2     		uxth	r2, r3
 1027 00a4 3C4B     		ldr	r3, .L54+4
 1028 00a6 1A80     		strh	r2, [r3]
 240:lib_BLE/bluetooth.c ****     sendBufferFinish[BLE_SEND_MIN] = RTC_GetMinutes(time.time);
 1029              		.loc 2 240 0
 1030 00a8 0C23     		mov	r3, #12
 1031 00aa FB18     		add	r3, r7, r3
 1032 00ac 1B68     		ldr	r3, [r3]
 1033 00ae 181C     		mov	r0, r3
 1034 00b0 FFF7FEFF 		bl	RTC_GetMinutes
 1035 00b4 031C     		mov	r3, r0
 1036 00b6 9AB2     		uxth	r2, r3
 1037 00b8 374B     		ldr	r3, .L54+4
 1038 00ba 5A80     		strh	r2, [r3, #2]
 241:lib_BLE/bluetooth.c ****     sendBufferFinish[BLE_SEND_SEC] = RTC_GetSecond(time.time);
 1039              		.loc 2 241 0
 1040 00bc 0C23     		mov	r3, #12
 1041 00be FB18     		add	r3, r7, r3
 1042 00c0 1B68     		ldr	r3, [r3]
 1043 00c2 181C     		mov	r0, r3
 1044 00c4 FFF7FEFF 		bl	RTC_GetSecond
 1045 00c8 031C     		mov	r3, r0
 1046 00ca 9AB2     		uxth	r2, r3
 1047 00cc 324B     		ldr	r3, .L54+4
 1048 00ce 9A80     		strh	r2, [r3, #4]
 242:lib_BLE/bluetooth.c ****     sendBufferFinish[BLE_SEND_MS] = data->millsFinishSkier;
ARM GAS  C:\Users\Petro\AppData\Local\Temp\ccKADxhi.s 			page 34


 1049              		.loc 2 242 0
 1050 00d0 7B68     		ldr	r3, [r7, #4]
 1051 00d2 1A8B     		ldrh	r2, [r3, #24]
 1052 00d4 304B     		ldr	r3, .L54+4
 1053 00d6 DA80     		strh	r2, [r3, #6]
 243:lib_BLE/bluetooth.c ****     
 244:lib_BLE/bluetooth.c ****     uint16_t minResult = (data->secondsWay)/60;
 1054              		.loc 2 244 0
 1055 00d8 7B68     		ldr	r3, [r7, #4]
 1056 00da 5C6A     		ldr	r4, [r3, #36]
 1057 00dc 1B6A     		ldr	r3, [r3, #32]
 1058 00de 181C     		mov	r0, r3
 1059 00e0 211C     		mov	r1, r4
 1060 00e2 3C22     		mov	r2, #60
 1061 00e4 0023     		mov	r3, #0
 1062 00e6 FFF7FEFF 		bl	__aeabi_uldivmod
 1063 00ea 031C     		mov	r3, r0
 1064 00ec 0C1C     		mov	r4, r1
 1065 00ee 191C     		mov	r1, r3
 1066 00f0 221C     		mov	r2, r4
 1067 00f2 1E23     		mov	r3, #30
 1068 00f4 FB18     		add	r3, r7, r3
 1069 00f6 0A1C     		add	r2, r1, #0
 1070 00f8 1A80     		strh	r2, [r3]
 245:lib_BLE/bluetooth.c ****     sendBufferResult[BLE_SEND_HOUR] = 0;
 1071              		.loc 2 245 0
 1072 00fa 284B     		ldr	r3, .L54+8
 1073 00fc 0022     		mov	r2, #0
 1074 00fe 1A80     		strh	r2, [r3]
 246:lib_BLE/bluetooth.c ****     sendBufferResult[BLE_SEND_MIN] = minResult;
 1075              		.loc 2 246 0
 1076 0100 264B     		ldr	r3, .L54+8
 1077 0102 1E22     		mov	r2, #30
 1078 0104 BA18     		add	r2, r7, r2
 1079 0106 1288     		ldrh	r2, [r2]
 1080 0108 5A80     		strh	r2, [r3, #2]
 247:lib_BLE/bluetooth.c ****     sendBufferResult[BLE_SEND_SEC] = (data->secondsWay) - minResult*60;
 1081              		.loc 2 247 0
 1082 010a 7B68     		ldr	r3, [r7, #4]
 1083 010c 5C6A     		ldr	r4, [r3, #36]
 1084 010e 1B6A     		ldr	r3, [r3, #32]
 1085 0110 9AB2     		uxth	r2, r3
 1086 0112 1E23     		mov	r3, #30
 1087 0114 FB18     		add	r3, r7, r3
 1088 0116 1B88     		ldrh	r3, [r3]
 1089 0118 3C21     		mov	r1, #60
 1090 011a 4B43     		mul	r3, r1
 1091 011c 9BB2     		uxth	r3, r3
 1092 011e D31A     		sub	r3, r2, r3
 1093 0120 9AB2     		uxth	r2, r3
 1094 0122 1E4B     		ldr	r3, .L54+8
 1095 0124 9A80     		strh	r2, [r3, #4]
 248:lib_BLE/bluetooth.c ****     sendBufferResult[BLE_SEND_MS] = data->millsWay;
 1096              		.loc 2 248 0
 1097 0126 7B68     		ldr	r3, [r7, #4]
 1098 0128 1A8D     		ldrh	r2, [r3, #40]
 1099 012a 1C4B     		ldr	r3, .L54+8
ARM GAS  C:\Users\Petro\AppData\Local\Temp\ccKADxhi.s 			page 35


 1100 012c DA80     		strh	r2, [r3, #6]
 249:lib_BLE/bluetooth.c ****     
 250:lib_BLE/bluetooth.c ****     sendIdSkier = idSkier;
 1101              		.loc 2 250 0
 1102 012e FB1C     		add	r3, r7, #3
 1103 0130 1B78     		ldrb	r3, [r3]
 1104 0132 9AB2     		uxth	r2, r3
 1105 0134 1A4B     		ldr	r3, .L54+12
 1106 0136 1A80     		strh	r2, [r3]
 251:lib_BLE/bluetooth.c ****     
 252:lib_BLE/bluetooth.c ****     sendBufferStatus[3] = numSkierOnWay/10;
 1107              		.loc 2 252 0
 1108 0138 BB1C     		add	r3, r7, #2
 1109 013a 1B78     		ldrb	r3, [r3]
 1110 013c 181C     		mov	r0, r3
 1111 013e 0A21     		mov	r1, #10
 1112 0140 FFF7FEFF 		bl	__aeabi_uidiv
 1113 0144 031C     		mov	r3, r0
 1114 0146 DAB2     		uxtb	r2, r3
 1115 0148 164B     		ldr	r3, .L54+16
 1116 014a DA70     		strb	r2, [r3, #3]
 253:lib_BLE/bluetooth.c ****     sendBufferStatus[4] = numSkierOnWay%10;
 1117              		.loc 2 253 0
 1118 014c BB1C     		add	r3, r7, #2
 1119 014e 1B78     		ldrb	r3, [r3]
 1120 0150 181C     		mov	r0, r3
 1121 0152 0A21     		mov	r1, #10
 1122 0154 FFF7FEFF 		bl	__aeabi_uidivmod
 1123 0158 0B1C     		mov	r3, r1
 1124 015a DAB2     		uxtb	r2, r3
 1125 015c 114B     		ldr	r3, .L54+16
 1126 015e 1A71     		strb	r2, [r3, #4]
 254:lib_BLE/bluetooth.c ****     sendBufferStatus[5] = maxSkierOnWay/10;
 1127              		.loc 2 254 0
 1128 0160 7B1C     		add	r3, r7, #1
 1129 0162 1B78     		ldrb	r3, [r3]
 1130 0164 181C     		mov	r0, r3
 1131 0166 0A21     		mov	r1, #10
 1132 0168 FFF7FEFF 		bl	__aeabi_uidiv
 1133 016c 031C     		mov	r3, r0
 1134 016e DAB2     		uxtb	r2, r3
 1135 0170 0C4B     		ldr	r3, .L54+16
 1136 0172 5A71     		strb	r2, [r3, #5]
 255:lib_BLE/bluetooth.c ****     sendBufferStatus[6] = maxSkierOnWay%10;
 1137              		.loc 2 255 0
 1138 0174 7B1C     		add	r3, r7, #1
 1139 0176 1B78     		ldrb	r3, [r3]
 1140 0178 181C     		mov	r0, r3
 1141 017a 0A21     		mov	r1, #10
 1142 017c FFF7FEFF 		bl	__aeabi_uidivmod
 1143 0180 0B1C     		mov	r3, r1
 1144 0182 DAB2     		uxtb	r2, r3
 1145 0184 074B     		ldr	r3, .L54+16
 1146 0186 9A71     		strb	r2, [r3, #6]
 256:lib_BLE/bluetooth.c **** 
 257:lib_BLE/bluetooth.c ****     updateData();
 1147              		.loc 2 257 0
ARM GAS  C:\Users\Petro\AppData\Local\Temp\ccKADxhi.s 			page 36


 1148 0188 FFF7FEFF 		bl	updateData
 258:lib_BLE/bluetooth.c **** 
 259:lib_BLE/bluetooth.c **** }
 1149              		.loc 2 259 0
 1150 018c BD46     		mov	sp, r7
 1151 018e 09B0     		add	sp, sp, #36
 1152              		@ sp needed
 1153 0190 90BD     		pop	{r4, r7, pc}
 1154              	.L55:
 1155 0192 C046     		.align	2
 1156              	.L54:
 1157 0194 00000000 		.word	sendBufferStart
 1158 0198 00000000 		.word	sendBufferFinish
 1159 019c 00000000 		.word	sendBufferResult
 1160 01a0 00000000 		.word	sendIdSkier
 1161 01a4 00000000 		.word	sendBufferStatus
 1162              		.cfi_endproc
 1163              	.LFE70:
 1164              		.size	BLE_sendOneSkierTimeResult, .-BLE_sendOneSkierTimeResult
 1165              		.section	.text.BLE_sendOneSkierTimeStart,"ax",%progbits
 1166              		.align	2
 1167              		.global	BLE_sendOneSkierTimeStart
 1168              		.code	16
 1169              		.thumb_func
 1170              		.type	BLE_sendOneSkierTimeStart, %function
 1171              	BLE_sendOneSkierTimeStart:
 1172              	.LFB71:
 260:lib_BLE/bluetooth.c **** 
 261:lib_BLE/bluetooth.c **** void BLE_sendOneSkierTimeStart(uint64_t unixTime, uint16_t mills, uint8_t idSkier,
 262:lib_BLE/bluetooth.c ****                                     uint8_t numSkierOnWay, uint8_t maxSkierOnWay)
 263:lib_BLE/bluetooth.c **** {
 1173              		.loc 2 263 0
 1174              		.cfi_startproc
 1175 0000 90B5     		push	{r4, r7, lr}
 1176              		.cfi_def_cfa_offset 12
 1177              		.cfi_offset 4, -12
 1178              		.cfi_offset 7, -8
 1179              		.cfi_offset 14, -4
 1180 0002 8DB0     		sub	sp, sp, #52
 1181              		.cfi_def_cfa_offset 64
 1182 0004 02AF     		add	r7, sp, #8
 1183              		.cfi_def_cfa 7, 56
 1184 0006 B860     		str	r0, [r7, #8]
 1185 0008 F960     		str	r1, [r7, #12]
 1186 000a 191C     		mov	r1, r3
 1187 000c BB1D     		add	r3, r7, #6
 1188 000e 1A80     		strh	r2, [r3]
 1189 0010 7B1D     		add	r3, r7, #5
 1190 0012 0A1C     		add	r2, r1, #0
 1191 0014 1A70     		strb	r2, [r3]
 264:lib_BLE/bluetooth.c ****     RTC_DATE_TIME time;
 265:lib_BLE/bluetooth.c ****     
 266:lib_BLE/bluetooth.c ****     /*read unix time*/
 267:lib_BLE/bluetooth.c ****     RTC_UnixToDateTime(&time, unixTime, RTC_24_HOURS_FORMAT);
 1192              		.loc 2 267 0
 1193 0016 1423     		mov	r3, #20
 1194 0018 F918     		add	r1, r7, r3
ARM GAS  C:\Users\Petro\AppData\Local\Temp\ccKADxhi.s 			page 37


 1195 001a BB68     		ldr	r3, [r7, #8]
 1196 001c FC68     		ldr	r4, [r7, #12]
 1197 001e 0022     		mov	r2, #0
 1198 0020 0092     		str	r2, [sp]
 1199 0022 081C     		mov	r0, r1
 1200 0024 1A1C     		mov	r2, r3
 1201 0026 231C     		mov	r3, r4
 1202 0028 FFF7FEFF 		bl	RTC_UnixToDateTime
 268:lib_BLE/bluetooth.c ****     sendBufferStart[0] = RTC_GetHours(time.time);
 1203              		.loc 2 268 0
 1204 002c 1423     		mov	r3, #20
 1205 002e FB18     		add	r3, r7, r3
 1206 0030 1B68     		ldr	r3, [r3]
 1207 0032 181C     		mov	r0, r3
 1208 0034 FFF7FEFF 		bl	RTC_GetHours
 1209 0038 031C     		mov	r3, r0
 1210 003a 9AB2     		uxth	r2, r3
 1211 003c 314B     		ldr	r3, .L59
 1212 003e 1A80     		strh	r2, [r3]
 269:lib_BLE/bluetooth.c ****     sendBufferStart[1] = RTC_GetMinutes(time.time);
 1213              		.loc 2 269 0
 1214 0040 1423     		mov	r3, #20
 1215 0042 FB18     		add	r3, r7, r3
 1216 0044 1B68     		ldr	r3, [r3]
 1217 0046 181C     		mov	r0, r3
 1218 0048 FFF7FEFF 		bl	RTC_GetMinutes
 1219 004c 031C     		mov	r3, r0
 1220 004e 9AB2     		uxth	r2, r3
 1221 0050 2C4B     		ldr	r3, .L59
 1222 0052 5A80     		strh	r2, [r3, #2]
 270:lib_BLE/bluetooth.c ****     sendBufferStart[2] = RTC_GetSecond(time.time);
 1223              		.loc 2 270 0
 1224 0054 1423     		mov	r3, #20
 1225 0056 FB18     		add	r3, r7, r3
 1226 0058 1B68     		ldr	r3, [r3]
 1227 005a 181C     		mov	r0, r3
 1228 005c FFF7FEFF 		bl	RTC_GetSecond
 1229 0060 031C     		mov	r3, r0
 1230 0062 9AB2     		uxth	r2, r3
 1231 0064 274B     		ldr	r3, .L59
 1232 0066 9A80     		strh	r2, [r3, #4]
 271:lib_BLE/bluetooth.c ****     sendBufferStart[3] = mills;
 1233              		.loc 2 271 0
 1234 0068 264B     		ldr	r3, .L59
 1235 006a BA1D     		add	r2, r7, #6
 1236 006c 1288     		ldrh	r2, [r2]
 1237 006e DA80     		strh	r2, [r3, #6]
 272:lib_BLE/bluetooth.c ****     
 273:lib_BLE/bluetooth.c ****     int i;
 274:lib_BLE/bluetooth.c ****     for(i=0;i<4;i++)
 1238              		.loc 2 274 0
 1239 0070 0023     		mov	r3, #0
 1240 0072 7B62     		str	r3, [r7, #36]
 1241 0074 0CE0     		b	.L57
 1242              	.L58:
 275:lib_BLE/bluetooth.c ****     {
 276:lib_BLE/bluetooth.c ****         sendBufferFinish[i] = 0;
ARM GAS  C:\Users\Petro\AppData\Local\Temp\ccKADxhi.s 			page 38


 1243              		.loc 2 276 0 discriminator 3
 1244 0076 244B     		ldr	r3, .L59+4
 1245 0078 7A6A     		ldr	r2, [r7, #36]
 1246 007a 5200     		lsl	r2, r2, #1
 1247 007c 0021     		mov	r1, #0
 1248 007e D152     		strh	r1, [r2, r3]
 277:lib_BLE/bluetooth.c ****         sendBufferResult[i] = 0;
 1249              		.loc 2 277 0 discriminator 3
 1250 0080 224B     		ldr	r3, .L59+8
 1251 0082 7A6A     		ldr	r2, [r7, #36]
 1252 0084 5200     		lsl	r2, r2, #1
 1253 0086 0021     		mov	r1, #0
 1254 0088 D152     		strh	r1, [r2, r3]
 274:lib_BLE/bluetooth.c ****     {
 1255              		.loc 2 274 0 discriminator 3
 1256 008a 7B6A     		ldr	r3, [r7, #36]
 1257 008c 0133     		add	r3, r3, #1
 1258 008e 7B62     		str	r3, [r7, #36]
 1259              	.L57:
 274:lib_BLE/bluetooth.c ****     {
 1260              		.loc 2 274 0 is_stmt 0 discriminator 1
 1261 0090 7B6A     		ldr	r3, [r7, #36]
 1262 0092 032B     		cmp	r3, #3
 1263 0094 EFDD     		ble	.L58
 278:lib_BLE/bluetooth.c ****     }
 279:lib_BLE/bluetooth.c ****     
 280:lib_BLE/bluetooth.c ****     sendIdSkier = idSkier;
 1264              		.loc 2 280 0 is_stmt 1
 1265 0096 7B1D     		add	r3, r7, #5
 1266 0098 1B78     		ldrb	r3, [r3]
 1267 009a 9AB2     		uxth	r2, r3
 1268 009c 1C4B     		ldr	r3, .L59+12
 1269 009e 1A80     		strh	r2, [r3]
 281:lib_BLE/bluetooth.c ****     
 282:lib_BLE/bluetooth.c ****     sendBufferStatus[3] = numSkierOnWay/10;
 1270              		.loc 2 282 0
 1271 00a0 3823     		mov	r3, #56
 1272 00a2 FB18     		add	r3, r7, r3
 1273 00a4 1B78     		ldrb	r3, [r3]
 1274 00a6 181C     		mov	r0, r3
 1275 00a8 0A21     		mov	r1, #10
 1276 00aa FFF7FEFF 		bl	__aeabi_uidiv
 1277 00ae 031C     		mov	r3, r0
 1278 00b0 DAB2     		uxtb	r2, r3
 1279 00b2 184B     		ldr	r3, .L59+16
 1280 00b4 DA70     		strb	r2, [r3, #3]
 283:lib_BLE/bluetooth.c ****     sendBufferStatus[4] = numSkierOnWay%10;
 1281              		.loc 2 283 0
 1282 00b6 3823     		mov	r3, #56
 1283 00b8 FB18     		add	r3, r7, r3
 1284 00ba 1B78     		ldrb	r3, [r3]
 1285 00bc 181C     		mov	r0, r3
 1286 00be 0A21     		mov	r1, #10
 1287 00c0 FFF7FEFF 		bl	__aeabi_uidivmod
 1288 00c4 0B1C     		mov	r3, r1
 1289 00c6 DAB2     		uxtb	r2, r3
 1290 00c8 124B     		ldr	r3, .L59+16
ARM GAS  C:\Users\Petro\AppData\Local\Temp\ccKADxhi.s 			page 39


 1291 00ca 1A71     		strb	r2, [r3, #4]
 284:lib_BLE/bluetooth.c ****     sendBufferStatus[5] = maxSkierOnWay/10;
 1292              		.loc 2 284 0
 1293 00cc 3C23     		mov	r3, #60
 1294 00ce FB18     		add	r3, r7, r3
 1295 00d0 1B78     		ldrb	r3, [r3]
 1296 00d2 181C     		mov	r0, r3
 1297 00d4 0A21     		mov	r1, #10
 1298 00d6 FFF7FEFF 		bl	__aeabi_uidiv
 1299 00da 031C     		mov	r3, r0
 1300 00dc DAB2     		uxtb	r2, r3
 1301 00de 0D4B     		ldr	r3, .L59+16
 1302 00e0 5A71     		strb	r2, [r3, #5]
 285:lib_BLE/bluetooth.c ****     sendBufferStatus[6] = maxSkierOnWay%10;
 1303              		.loc 2 285 0
 1304 00e2 3C23     		mov	r3, #60
 1305 00e4 FB18     		add	r3, r7, r3
 1306 00e6 1B78     		ldrb	r3, [r3]
 1307 00e8 181C     		mov	r0, r3
 1308 00ea 0A21     		mov	r1, #10
 1309 00ec FFF7FEFF 		bl	__aeabi_uidivmod
 1310 00f0 0B1C     		mov	r3, r1
 1311 00f2 DAB2     		uxtb	r2, r3
 1312 00f4 074B     		ldr	r3, .L59+16
 1313 00f6 9A71     		strb	r2, [r3, #6]
 286:lib_BLE/bluetooth.c ****     
 287:lib_BLE/bluetooth.c ****     updateData();
 1314              		.loc 2 287 0
 1315 00f8 FFF7FEFF 		bl	updateData
 288:lib_BLE/bluetooth.c **** }
 1316              		.loc 2 288 0
 1317 00fc BD46     		mov	sp, r7
 1318 00fe 0BB0     		add	sp, sp, #44
 1319              		@ sp needed
 1320 0100 90BD     		pop	{r4, r7, pc}
 1321              	.L60:
 1322 0102 C046     		.align	2
 1323              	.L59:
 1324 0104 00000000 		.word	sendBufferStart
 1325 0108 00000000 		.word	sendBufferFinish
 1326 010c 00000000 		.word	sendBufferResult
 1327 0110 00000000 		.word	sendIdSkier
 1328 0114 00000000 		.word	sendBufferStatus
 1329              		.cfi_endproc
 1330              	.LFE71:
 1331              		.size	BLE_sendOneSkierTimeStart, .-BLE_sendOneSkierTimeStart
 1332              		.section	.text.BLE_sendOneSkierTimeAll,"ax",%progbits
 1333              		.align	2
 1334              		.global	BLE_sendOneSkierTimeAll
 1335              		.code	16
 1336              		.thumb_func
 1337              		.type	BLE_sendOneSkierTimeAll, %function
 1338              	BLE_sendOneSkierTimeAll:
 1339              	.LFB72:
 289:lib_BLE/bluetooth.c **** 
 290:lib_BLE/bluetooth.c **** 
 291:lib_BLE/bluetooth.c **** void BLE_sendOneSkierTimeAll(uint16_t IdSkier,uint16_t sendStartTime[],uint16_t sendFinishTime[],
ARM GAS  C:\Users\Petro\AppData\Local\Temp\ccKADxhi.s 			page 40


 292:lib_BLE/bluetooth.c ****                           uint16_t sendResultTime[])
 293:lib_BLE/bluetooth.c **** {
 1340              		.loc 2 293 0
 1341              		.cfi_startproc
 1342 0000 80B5     		push	{r7, lr}
 1343              		.cfi_def_cfa_offset 8
 1344              		.cfi_offset 7, -8
 1345              		.cfi_offset 14, -4
 1346 0002 84B0     		sub	sp, sp, #16
 1347              		.cfi_def_cfa_offset 24
 1348 0004 00AF     		add	r7, sp, #0
 1349              		.cfi_def_cfa_register 7
 1350 0006 B960     		str	r1, [r7, #8]
 1351 0008 7A60     		str	r2, [r7, #4]
 1352 000a 3B60     		str	r3, [r7]
 1353 000c 0E23     		mov	r3, #14
 1354 000e FB18     		add	r3, r7, r3
 1355 0010 021C     		add	r2, r0, #0
 1356 0012 1A80     		strh	r2, [r3]
 294:lib_BLE/bluetooth.c ****     sendIdSkier = IdSkier;
 1357              		.loc 2 294 0
 1358 0014 1C4B     		ldr	r3, .L62
 1359 0016 0E22     		mov	r2, #14
 1360 0018 BA18     		add	r2, r7, r2
 1361 001a 1288     		ldrh	r2, [r2]
 1362 001c 1A80     		strh	r2, [r3]
 295:lib_BLE/bluetooth.c ****   
 296:lib_BLE/bluetooth.c ****     sendBufferStart[0] = sendStartTime[0];
 1363              		.loc 2 296 0
 1364 001e BB68     		ldr	r3, [r7, #8]
 1365 0020 1A88     		ldrh	r2, [r3]
 1366 0022 1A4B     		ldr	r3, .L62+4
 1367 0024 1A80     		strh	r2, [r3]
 297:lib_BLE/bluetooth.c ****     sendBufferStart[1] = sendStartTime[1];
 1368              		.loc 2 297 0
 1369 0026 BB68     		ldr	r3, [r7, #8]
 1370 0028 5A88     		ldrh	r2, [r3, #2]
 1371 002a 184B     		ldr	r3, .L62+4
 1372 002c 5A80     		strh	r2, [r3, #2]
 298:lib_BLE/bluetooth.c ****     sendBufferStart[2] = sendStartTime[2];
 1373              		.loc 2 298 0
 1374 002e BB68     		ldr	r3, [r7, #8]
 1375 0030 9A88     		ldrh	r2, [r3, #4]
 1376 0032 164B     		ldr	r3, .L62+4
 1377 0034 9A80     		strh	r2, [r3, #4]
 299:lib_BLE/bluetooth.c ****     sendBufferStart[3] = sendStartTime[3];
 1378              		.loc 2 299 0
 1379 0036 BB68     		ldr	r3, [r7, #8]
 1380 0038 DA88     		ldrh	r2, [r3, #6]
 1381 003a 144B     		ldr	r3, .L62+4
 1382 003c DA80     		strh	r2, [r3, #6]
 300:lib_BLE/bluetooth.c ****     
 301:lib_BLE/bluetooth.c ****     sendBufferFinish[0] = sendFinishTime[0];
 1383              		.loc 2 301 0
 1384 003e 7B68     		ldr	r3, [r7, #4]
 1385 0040 1A88     		ldrh	r2, [r3]
 1386 0042 134B     		ldr	r3, .L62+8
ARM GAS  C:\Users\Petro\AppData\Local\Temp\ccKADxhi.s 			page 41


 1387 0044 1A80     		strh	r2, [r3]
 302:lib_BLE/bluetooth.c ****     sendBufferFinish[1] = sendFinishTime[1];
 1388              		.loc 2 302 0
 1389 0046 7B68     		ldr	r3, [r7, #4]
 1390 0048 5A88     		ldrh	r2, [r3, #2]
 1391 004a 114B     		ldr	r3, .L62+8
 1392 004c 5A80     		strh	r2, [r3, #2]
 303:lib_BLE/bluetooth.c ****     sendBufferFinish[2] = sendFinishTime[2];
 1393              		.loc 2 303 0
 1394 004e 7B68     		ldr	r3, [r7, #4]
 1395 0050 9A88     		ldrh	r2, [r3, #4]
 1396 0052 0F4B     		ldr	r3, .L62+8
 1397 0054 9A80     		strh	r2, [r3, #4]
 304:lib_BLE/bluetooth.c ****     sendBufferFinish[3] = sendFinishTime[3];
 1398              		.loc 2 304 0
 1399 0056 7B68     		ldr	r3, [r7, #4]
 1400 0058 DA88     		ldrh	r2, [r3, #6]
 1401 005a 0D4B     		ldr	r3, .L62+8
 1402 005c DA80     		strh	r2, [r3, #6]
 305:lib_BLE/bluetooth.c ****     
 306:lib_BLE/bluetooth.c ****     sendBufferResult[0] = sendResultTime[0];
 1403              		.loc 2 306 0
 1404 005e 3B68     		ldr	r3, [r7]
 1405 0060 1A88     		ldrh	r2, [r3]
 1406 0062 0C4B     		ldr	r3, .L62+12
 1407 0064 1A80     		strh	r2, [r3]
 307:lib_BLE/bluetooth.c ****     sendBufferResult[1] = sendResultTime[1];
 1408              		.loc 2 307 0
 1409 0066 3B68     		ldr	r3, [r7]
 1410 0068 5A88     		ldrh	r2, [r3, #2]
 1411 006a 0A4B     		ldr	r3, .L62+12
 1412 006c 5A80     		strh	r2, [r3, #2]
 308:lib_BLE/bluetooth.c ****     sendBufferResult[2] = sendResultTime[2];
 1413              		.loc 2 308 0
 1414 006e 3B68     		ldr	r3, [r7]
 1415 0070 9A88     		ldrh	r2, [r3, #4]
 1416 0072 084B     		ldr	r3, .L62+12
 1417 0074 9A80     		strh	r2, [r3, #4]
 309:lib_BLE/bluetooth.c ****     sendBufferResult[3] = sendResultTime[3];
 1418              		.loc 2 309 0
 1419 0076 3B68     		ldr	r3, [r7]
 1420 0078 DA88     		ldrh	r2, [r3, #6]
 1421 007a 064B     		ldr	r3, .L62+12
 1422 007c DA80     		strh	r2, [r3, #6]
 310:lib_BLE/bluetooth.c ****       
 311:lib_BLE/bluetooth.c ****     updateData();
 1423              		.loc 2 311 0
 1424 007e FFF7FEFF 		bl	updateData
 312:lib_BLE/bluetooth.c **** }
 1425              		.loc 2 312 0
 1426 0082 BD46     		mov	sp, r7
 1427 0084 04B0     		add	sp, sp, #16
 1428              		@ sp needed
 1429 0086 80BD     		pop	{r7, pc}
 1430              	.L63:
 1431              		.align	2
 1432              	.L62:
ARM GAS  C:\Users\Petro\AppData\Local\Temp\ccKADxhi.s 			page 42


 1433 0088 00000000 		.word	sendIdSkier
 1434 008c 00000000 		.word	sendBufferStart
 1435 0090 00000000 		.word	sendBufferFinish
 1436 0094 00000000 		.word	sendBufferResult
 1437              		.cfi_endproc
 1438              	.LFE72:
 1439              		.size	BLE_sendOneSkierTimeAll, .-BLE_sendOneSkierTimeAll
 1440              		.section	.text.BLE_sendSystemStatus,"ax",%progbits
 1441              		.align	2
 1442              		.global	BLE_sendSystemStatus
 1443              		.code	16
 1444              		.thumb_func
 1445              		.type	BLE_sendSystemStatus, %function
 1446              	BLE_sendSystemStatus:
 1447              	.LFB73:
 313:lib_BLE/bluetooth.c **** 
 314:lib_BLE/bluetooth.c **** void BLE_sendSystemStatus(BLEStatusFlag systemStatus)
 315:lib_BLE/bluetooth.c **** {
 1448              		.loc 2 315 0
 1449              		.cfi_startproc
 1450 0000 80B5     		push	{r7, lr}
 1451              		.cfi_def_cfa_offset 8
 1452              		.cfi_offset 7, -8
 1453              		.cfi_offset 14, -4
 1454 0002 82B0     		sub	sp, sp, #8
 1455              		.cfi_def_cfa_offset 16
 1456 0004 00AF     		add	r7, sp, #0
 1457              		.cfi_def_cfa_register 7
 1458 0006 021C     		mov	r2, r0
 1459 0008 FB1D     		add	r3, r7, #7
 1460 000a 1A70     		strb	r2, [r3]
 316:lib_BLE/bluetooth.c ****     static uint8_t oldSystemStatus;
 317:lib_BLE/bluetooth.c ****     
 318:lib_BLE/bluetooth.c ****     if(systemStatus == STATUS_OK)
 1461              		.loc 2 318 0
 1462 000c FB1D     		add	r3, r7, #7
 1463 000e 1B78     		ldrb	r3, [r3]
 1464 0010 002B     		cmp	r3, #0
 1465 0012 03D1     		bne	.L65
 319:lib_BLE/bluetooth.c ****         sendBufferStatus[BLE_SEND_SYSTEM_STATUS] = 1;
 1466              		.loc 2 319 0
 1467 0014 0A4B     		ldr	r3, .L68
 1468 0016 0122     		mov	r2, #1
 1469 0018 1A70     		strb	r2, [r3]
 1470 001a 02E0     		b	.L66
 1471              	.L65:
 320:lib_BLE/bluetooth.c ****     else
 321:lib_BLE/bluetooth.c ****         sendBufferStatus[BLE_SEND_SYSTEM_STATUS] = 0;
 1472              		.loc 2 321 0
 1473 001c 084B     		ldr	r3, .L68
 1474 001e 0022     		mov	r2, #0
 1475 0020 1A70     		strb	r2, [r3]
 1476              	.L66:
 322:lib_BLE/bluetooth.c ****     
 323:lib_BLE/bluetooth.c ****     /*if new status, status update*/
 324:lib_BLE/bluetooth.c ****     if(oldSystemStatus != sendBufferStatus[BLE_SEND_SYSTEM_STATUS])
 1477              		.loc 2 324 0
ARM GAS  C:\Users\Petro\AppData\Local\Temp\ccKADxhi.s 			page 43


 1478 0022 074B     		ldr	r3, .L68
 1479 0024 1A78     		ldrb	r2, [r3]
 1480 0026 074B     		ldr	r3, .L68+4
 1481 0028 1B78     		ldrb	r3, [r3]
 1482 002a 9A42     		cmp	r2, r3
 1483 002c 05D0     		beq	.L64
 325:lib_BLE/bluetooth.c ****     {
 326:lib_BLE/bluetooth.c ****         updateStatusData();
 1484              		.loc 2 326 0
 1485 002e FFF7FEFF 		bl	updateStatusData
 327:lib_BLE/bluetooth.c ****         oldSystemStatus =  sendBufferStatus[BLE_SEND_SYSTEM_STATUS];
 1486              		.loc 2 327 0
 1487 0032 034B     		ldr	r3, .L68
 1488 0034 1A78     		ldrb	r2, [r3]
 1489 0036 034B     		ldr	r3, .L68+4
 1490 0038 1A70     		strb	r2, [r3]
 1491              	.L64:
 328:lib_BLE/bluetooth.c ****     }
 329:lib_BLE/bluetooth.c **** }
 1492              		.loc 2 329 0
 1493 003a BD46     		mov	sp, r7
 1494 003c 02B0     		add	sp, sp, #8
 1495              		@ sp needed
 1496 003e 80BD     		pop	{r7, pc}
 1497              	.L69:
 1498              		.align	2
 1499              	.L68:
 1500 0040 00000000 		.word	sendBufferStatus
 1501 0044 08000000 		.word	oldSystemStatus.8717
 1502              		.cfi_endproc
 1503              	.LFE73:
 1504              		.size	BLE_sendSystemStatus, .-BLE_sendSystemStatus
 1505              		.section	.text.BLE_sendSDcardStatus,"ax",%progbits
 1506              		.align	2
 1507              		.global	BLE_sendSDcardStatus
 1508              		.code	16
 1509              		.thumb_func
 1510              		.type	BLE_sendSDcardStatus, %function
 1511              	BLE_sendSDcardStatus:
 1512              	.LFB74:
 330:lib_BLE/bluetooth.c **** 
 331:lib_BLE/bluetooth.c **** void BLE_sendSDcardStatus(BLEStatusFlag SDStatus)
 332:lib_BLE/bluetooth.c **** {
 1513              		.loc 2 332 0
 1514              		.cfi_startproc
 1515 0000 80B5     		push	{r7, lr}
 1516              		.cfi_def_cfa_offset 8
 1517              		.cfi_offset 7, -8
 1518              		.cfi_offset 14, -4
 1519 0002 82B0     		sub	sp, sp, #8
 1520              		.cfi_def_cfa_offset 16
 1521 0004 00AF     		add	r7, sp, #0
 1522              		.cfi_def_cfa_register 7
 1523 0006 021C     		mov	r2, r0
 1524 0008 FB1D     		add	r3, r7, #7
 1525 000a 1A70     		strb	r2, [r3]
 333:lib_BLE/bluetooth.c ****     static uint8_t oldSDStatus ;
ARM GAS  C:\Users\Petro\AppData\Local\Temp\ccKADxhi.s 			page 44


 334:lib_BLE/bluetooth.c ****     
 335:lib_BLE/bluetooth.c ****     if(SDStatus == STATUS_OK)
 1526              		.loc 2 335 0
 1527 000c FB1D     		add	r3, r7, #7
 1528 000e 1B78     		ldrb	r3, [r3]
 1529 0010 002B     		cmp	r3, #0
 1530 0012 03D1     		bne	.L71
 336:lib_BLE/bluetooth.c ****         sendBufferStatus[BLE_SEND_SD_STATUS] = 1;
 1531              		.loc 2 336 0
 1532 0014 0A4B     		ldr	r3, .L74
 1533 0016 0122     		mov	r2, #1
 1534 0018 9A70     		strb	r2, [r3, #2]
 1535 001a 02E0     		b	.L72
 1536              	.L71:
 337:lib_BLE/bluetooth.c ****     else
 338:lib_BLE/bluetooth.c ****         sendBufferStatus[BLE_SEND_SD_STATUS] = 0;
 1537              		.loc 2 338 0
 1538 001c 084B     		ldr	r3, .L74
 1539 001e 0022     		mov	r2, #0
 1540 0020 9A70     		strb	r2, [r3, #2]
 1541              	.L72:
 339:lib_BLE/bluetooth.c ****     
 340:lib_BLE/bluetooth.c ****     /*if new status, status update*/
 341:lib_BLE/bluetooth.c ****     if(oldSDStatus != sendBufferStatus[BLE_SEND_SD_STATUS])
 1542              		.loc 2 341 0
 1543 0022 074B     		ldr	r3, .L74
 1544 0024 9A78     		ldrb	r2, [r3, #2]
 1545 0026 074B     		ldr	r3, .L74+4
 1546 0028 1B78     		ldrb	r3, [r3]
 1547 002a 9A42     		cmp	r2, r3
 1548 002c 05D0     		beq	.L70
 342:lib_BLE/bluetooth.c ****     {
 343:lib_BLE/bluetooth.c ****         updateStatusData();
 1549              		.loc 2 343 0
 1550 002e FFF7FEFF 		bl	updateStatusData
 344:lib_BLE/bluetooth.c ****         oldSDStatus =  sendBufferStatus[BLE_SEND_SD_STATUS];
 1551              		.loc 2 344 0
 1552 0032 034B     		ldr	r3, .L74
 1553 0034 9A78     		ldrb	r2, [r3, #2]
 1554 0036 034B     		ldr	r3, .L74+4
 1555 0038 1A70     		strb	r2, [r3]
 1556              	.L70:
 345:lib_BLE/bluetooth.c ****     }
 346:lib_BLE/bluetooth.c **** }
 1557              		.loc 2 346 0
 1558 003a BD46     		mov	sp, r7
 1559 003c 02B0     		add	sp, sp, #8
 1560              		@ sp needed
 1561 003e 80BD     		pop	{r7, pc}
 1562              	.L75:
 1563              		.align	2
 1564              	.L74:
 1565 0040 00000000 		.word	sendBufferStatus
 1566 0044 09000000 		.word	oldSDStatus.8721
 1567              		.cfi_endproc
 1568              	.LFE74:
 1569              		.size	BLE_sendSDcardStatus, .-BLE_sendSDcardStatus
ARM GAS  C:\Users\Petro\AppData\Local\Temp\ccKADxhi.s 			page 45


 1570              		.section	.text.BLE_sendNetworkStatus,"ax",%progbits
 1571              		.align	2
 1572              		.global	BLE_sendNetworkStatus
 1573              		.code	16
 1574              		.thumb_func
 1575              		.type	BLE_sendNetworkStatus, %function
 1576              	BLE_sendNetworkStatus:
 1577              	.LFB75:
 347:lib_BLE/bluetooth.c **** 
 348:lib_BLE/bluetooth.c **** void BLE_sendNetworkStatus(BLEStatusFlag NerworkStatus)
 349:lib_BLE/bluetooth.c **** {
 1578              		.loc 2 349 0
 1579              		.cfi_startproc
 1580 0000 80B5     		push	{r7, lr}
 1581              		.cfi_def_cfa_offset 8
 1582              		.cfi_offset 7, -8
 1583              		.cfi_offset 14, -4
 1584 0002 82B0     		sub	sp, sp, #8
 1585              		.cfi_def_cfa_offset 16
 1586 0004 00AF     		add	r7, sp, #0
 1587              		.cfi_def_cfa_register 7
 1588 0006 021C     		mov	r2, r0
 1589 0008 FB1D     		add	r3, r7, #7
 1590 000a 1A70     		strb	r2, [r3]
 350:lib_BLE/bluetooth.c ****     static uint8_t oldNetworkStatus ;
 351:lib_BLE/bluetooth.c ****     
 352:lib_BLE/bluetooth.c ****     if(NerworkStatus == STATUS_OK)
 1591              		.loc 2 352 0
 1592 000c FB1D     		add	r3, r7, #7
 1593 000e 1B78     		ldrb	r3, [r3]
 1594 0010 002B     		cmp	r3, #0
 1595 0012 03D1     		bne	.L77
 353:lib_BLE/bluetooth.c ****         sendBufferStatus[BLE_SEND_NETWORK_STATUS] = 1; 
 1596              		.loc 2 353 0
 1597 0014 0A4B     		ldr	r3, .L80
 1598 0016 0122     		mov	r2, #1
 1599 0018 5A70     		strb	r2, [r3, #1]
 1600 001a 02E0     		b	.L78
 1601              	.L77:
 354:lib_BLE/bluetooth.c ****     else
 355:lib_BLE/bluetooth.c ****         sendBufferStatus[BLE_SEND_NETWORK_STATUS] = 0;    
 1602              		.loc 2 355 0
 1603 001c 084B     		ldr	r3, .L80
 1604 001e 0022     		mov	r2, #0
 1605 0020 5A70     		strb	r2, [r3, #1]
 1606              	.L78:
 356:lib_BLE/bluetooth.c ****     
 357:lib_BLE/bluetooth.c ****     /*if new status, status update*/
 358:lib_BLE/bluetooth.c ****     if(oldNetworkStatus != sendBufferStatus[BLE_SEND_NETWORK_STATUS])
 1607              		.loc 2 358 0
 1608 0022 074B     		ldr	r3, .L80
 1609 0024 5A78     		ldrb	r2, [r3, #1]
 1610 0026 074B     		ldr	r3, .L80+4
 1611 0028 1B78     		ldrb	r3, [r3]
 1612 002a 9A42     		cmp	r2, r3
 1613 002c 05D0     		beq	.L76
 359:lib_BLE/bluetooth.c ****     {
ARM GAS  C:\Users\Petro\AppData\Local\Temp\ccKADxhi.s 			page 46


 360:lib_BLE/bluetooth.c ****         updateStatusData();
 1614              		.loc 2 360 0
 1615 002e FFF7FEFF 		bl	updateStatusData
 361:lib_BLE/bluetooth.c ****         oldNetworkStatus =  sendBufferStatus[BLE_SEND_NETWORK_STATUS];
 1616              		.loc 2 361 0
 1617 0032 034B     		ldr	r3, .L80
 1618 0034 5A78     		ldrb	r2, [r3, #1]
 1619 0036 034B     		ldr	r3, .L80+4
 1620 0038 1A70     		strb	r2, [r3]
 1621              	.L76:
 362:lib_BLE/bluetooth.c ****     }
 363:lib_BLE/bluetooth.c **** }
 1622              		.loc 2 363 0
 1623 003a BD46     		mov	sp, r7
 1624 003c 02B0     		add	sp, sp, #8
 1625              		@ sp needed
 1626 003e 80BD     		pop	{r7, pc}
 1627              	.L81:
 1628              		.align	2
 1629              	.L80:
 1630 0040 00000000 		.word	sendBufferStatus
 1631 0044 0A000000 		.word	oldNetworkStatus.8725
 1632              		.cfi_endproc
 1633              	.LFE75:
 1634              		.size	BLE_sendNetworkStatus, .-BLE_sendNetworkStatus
 1635              		.bss
 1636              	oldSystemStatus.8717:
 1637 0008 00       		.space	1
 1638              	oldSDStatus.8721:
 1639 0009 00       		.space	1
 1640              	oldNetworkStatus.8725:
 1641 000a 00       		.space	1
 1642 000b 00       		.text
 1643              	.Letext0:
 1644              		.file 3 "c:\\program files (x86)\\cypress\\psoc creator\\4.0\\psoc creator\\import\\gnu\\arm\\4.9.
 1645              		.file 4 "c:\\program files (x86)\\cypress\\psoc creator\\4.0\\psoc creator\\import\\gnu\\arm\\4.9.
 1646              		.file 5 "Generated_Source\\PSoC4/cytypes.h"
 1647              		.file 6 "Generated_Source\\PSoC4/ble_Stack.h"
 1648              		.file 7 "Generated_Source\\PSoC4/ble_StackGatt.h"
 1649              		.file 8 "Generated_Source\\PSoC4/ble_StackGattServer.h"
 1650              		.file 9 "Generated_Source\\PSoC4/ble_eventHandler.h"
 1651              		.file 10 "./lib_DB\\database.h"
 1652              		.file 11 "./lib_BLE/bluetooth.h"