ARM GAS  C:\Users\Petro\AppData\Local\Temp\ccOsH0Vc.s 			page 1


   1              		.cpu cortex-m0
   2              		.fpu softvfp
   3              		.eabi_attribute 20, 1
   4              		.eabi_attribute 21, 1
   5              		.eabi_attribute 23, 3
   6              		.eabi_attribute 24, 1
   7              		.eabi_attribute 25, 1
   8              		.eabi_attribute 26, 1
   9              		.eabi_attribute 30, 6
  10              		.eabi_attribute 34, 0
  11              		.eabi_attribute 18, 4
  12              		.code	16
  13              		.file	"cyfitter_cfg.c"
  14              		.text
  15              	.Ltext0:
  16              		.cfi_sections	.debug_frame
  17              		.section	.text.CYMEMZERO,"ax",%progbits
  18              		.align	2
  19              		.code	16
  20              		.thumb_func
  21              		.type	CYMEMZERO, %function
  22              	CYMEMZERO:
  23              	.LFB2:
  24              		.file 1 "Generated_Source\\PSoC4\\cyfitter_cfg.c"
   1:Generated_Source\PSoC4/cyfitter_cfg.c **** /*******************************************************************************
   2:Generated_Source\PSoC4/cyfitter_cfg.c **** * File Name: cyfitter_cfg.c
   3:Generated_Source\PSoC4/cyfitter_cfg.c **** * 
   4:Generated_Source\PSoC4/cyfitter_cfg.c **** * PSoC Creator  4.0
   5:Generated_Source\PSoC4/cyfitter_cfg.c **** *
   6:Generated_Source\PSoC4/cyfitter_cfg.c **** * Description:
   7:Generated_Source\PSoC4/cyfitter_cfg.c **** * This file contains device initialization code.
   8:Generated_Source\PSoC4/cyfitter_cfg.c **** * Except for the user defined sections in CyClockStartupError(), this file should not be modified.
   9:Generated_Source\PSoC4/cyfitter_cfg.c **** * This file is automatically generated by PSoC Creator.
  10:Generated_Source\PSoC4/cyfitter_cfg.c **** *
  11:Generated_Source\PSoC4/cyfitter_cfg.c **** ********************************************************************************
  12:Generated_Source\PSoC4/cyfitter_cfg.c **** * Copyright (c) 2007-2016 Cypress Semiconductor.  All rights reserved.
  13:Generated_Source\PSoC4/cyfitter_cfg.c **** * You may use this file only in accordance with the license, terms, conditions, 
  14:Generated_Source\PSoC4/cyfitter_cfg.c **** * disclaimers, and limitations in the end user license agreement accompanying 
  15:Generated_Source\PSoC4/cyfitter_cfg.c **** * the software package with which this file was provided.
  16:Generated_Source\PSoC4/cyfitter_cfg.c **** ********************************************************************************/
  17:Generated_Source\PSoC4/cyfitter_cfg.c **** 
  18:Generated_Source\PSoC4/cyfitter_cfg.c **** #include <string.h>
  19:Generated_Source\PSoC4/cyfitter_cfg.c **** #include "cytypes.h"
  20:Generated_Source\PSoC4/cyfitter_cfg.c **** #include "cydevice_trm.h"
  21:Generated_Source\PSoC4/cyfitter_cfg.c **** #include "cyfitter.h"
  22:Generated_Source\PSoC4/cyfitter_cfg.c **** #include "CyLib.h"
  23:Generated_Source\PSoC4/cyfitter_cfg.c **** #include "CyLFClk.h"
  24:Generated_Source\PSoC4/cyfitter_cfg.c **** #include "cyfitter_cfg.h"
  25:Generated_Source\PSoC4/cyfitter_cfg.c **** #include "cyapicallbacks.h"
  26:Generated_Source\PSoC4/cyfitter_cfg.c **** 
  27:Generated_Source\PSoC4/cyfitter_cfg.c **** 
  28:Generated_Source\PSoC4/cyfitter_cfg.c **** #if defined(__GNUC__) || defined(__ARMCC_VERSION)
  29:Generated_Source\PSoC4/cyfitter_cfg.c ****     #define CYPACKED 
  30:Generated_Source\PSoC4/cyfitter_cfg.c ****     #define CYPACKED_ATTR __attribute__ ((packed))
  31:Generated_Source\PSoC4/cyfitter_cfg.c ****     #define CYALIGNED __attribute__ ((aligned))
  32:Generated_Source\PSoC4/cyfitter_cfg.c ****     #define CY_CFG_UNUSED __attribute__ ((unused))
  33:Generated_Source\PSoC4/cyfitter_cfg.c ****     #ifndef CY_CFG_SECTION
ARM GAS  C:\Users\Petro\AppData\Local\Temp\ccOsH0Vc.s 			page 2


  34:Generated_Source\PSoC4/cyfitter_cfg.c ****         #define CY_CFG_SECTION __attribute__ ((section(".psocinit")))
  35:Generated_Source\PSoC4/cyfitter_cfg.c ****     #endif
  36:Generated_Source\PSoC4/cyfitter_cfg.c ****     
  37:Generated_Source\PSoC4/cyfitter_cfg.c ****     #if defined(__ARMCC_VERSION)
  38:Generated_Source\PSoC4/cyfitter_cfg.c ****         #define CY_CFG_MEMORY_BARRIER() __memory_changed()
  39:Generated_Source\PSoC4/cyfitter_cfg.c ****     #else
  40:Generated_Source\PSoC4/cyfitter_cfg.c ****         #define CY_CFG_MEMORY_BARRIER() __sync_synchronize()
  41:Generated_Source\PSoC4/cyfitter_cfg.c ****     #endif
  42:Generated_Source\PSoC4/cyfitter_cfg.c ****     
  43:Generated_Source\PSoC4/cyfitter_cfg.c **** #elif defined(__ICCARM__)
  44:Generated_Source\PSoC4/cyfitter_cfg.c ****     #include <intrinsics.h>
  45:Generated_Source\PSoC4/cyfitter_cfg.c **** 
  46:Generated_Source\PSoC4/cyfitter_cfg.c ****     #define CYPACKED __packed
  47:Generated_Source\PSoC4/cyfitter_cfg.c ****     #define CYPACKED_ATTR 
  48:Generated_Source\PSoC4/cyfitter_cfg.c ****     #define CYALIGNED _Pragma("data_alignment=4")
  49:Generated_Source\PSoC4/cyfitter_cfg.c ****     #define CY_CFG_UNUSED _Pragma("diag_suppress=Pe177")
  50:Generated_Source\PSoC4/cyfitter_cfg.c ****     #define CY_CFG_SECTION _Pragma("location=\".psocinit\"")
  51:Generated_Source\PSoC4/cyfitter_cfg.c ****     
  52:Generated_Source\PSoC4/cyfitter_cfg.c ****     #define CY_CFG_MEMORY_BARRIER() __DMB()
  53:Generated_Source\PSoC4/cyfitter_cfg.c ****     
  54:Generated_Source\PSoC4/cyfitter_cfg.c **** #else
  55:Generated_Source\PSoC4/cyfitter_cfg.c ****     #error Unsupported toolchain
  56:Generated_Source\PSoC4/cyfitter_cfg.c **** #endif
  57:Generated_Source\PSoC4/cyfitter_cfg.c **** 
  58:Generated_Source\PSoC4/cyfitter_cfg.c **** 
  59:Generated_Source\PSoC4/cyfitter_cfg.c **** CY_CFG_UNUSED
  60:Generated_Source\PSoC4/cyfitter_cfg.c **** static void CYMEMZERO(void *s, size_t n);
  61:Generated_Source\PSoC4/cyfitter_cfg.c **** CY_CFG_UNUSED
  62:Generated_Source\PSoC4/cyfitter_cfg.c **** static void CYMEMZERO(void *s, size_t n)
  63:Generated_Source\PSoC4/cyfitter_cfg.c **** {
  25              		.loc 1 63 0
  26              		.cfi_startproc
  27 0000 80B5     		push	{r7, lr}
  28              		.cfi_def_cfa_offset 8
  29              		.cfi_offset 7, -8
  30              		.cfi_offset 14, -4
  31 0002 82B0     		sub	sp, sp, #8
  32              		.cfi_def_cfa_offset 16
  33 0004 00AF     		add	r7, sp, #0
  34              		.cfi_def_cfa_register 7
  35 0006 7860     		str	r0, [r7, #4]
  36 0008 3960     		str	r1, [r7]
  64:Generated_Source\PSoC4/cyfitter_cfg.c **** 	(void)memset(s, 0, n);
  37              		.loc 1 64 0
  38 000a 7A68     		ldr	r2, [r7, #4]
  39 000c 3B68     		ldr	r3, [r7]
  40 000e 101C     		mov	r0, r2
  41 0010 0021     		mov	r1, #0
  42 0012 1A1C     		mov	r2, r3
  43 0014 FFF7FEFF 		bl	memset
  65:Generated_Source\PSoC4/cyfitter_cfg.c **** }
  44              		.loc 1 65 0
  45 0018 BD46     		mov	sp, r7
  46 001a 02B0     		add	sp, sp, #8
  47              		@ sp needed
  48 001c 80BD     		pop	{r7, pc}
  49              		.cfi_endproc
ARM GAS  C:\Users\Petro\AppData\Local\Temp\ccOsH0Vc.s 			page 3


  50              	.LFE2:
  51              		.size	CYMEMZERO, .-CYMEMZERO
  52 001e C046     		.section	.text.CYCONFIGCPY,"ax",%progbits
  53              		.align	2
  54              		.code	16
  55              		.thumb_func
  56              		.type	CYCONFIGCPY, %function
  57              	CYCONFIGCPY:
  58              	.LFB3:
  66:Generated_Source\PSoC4/cyfitter_cfg.c **** CY_CFG_UNUSED
  67:Generated_Source\PSoC4/cyfitter_cfg.c **** static void CYCONFIGCPY(void *dest, const void *src, size_t n);
  68:Generated_Source\PSoC4/cyfitter_cfg.c **** CY_CFG_UNUSED
  69:Generated_Source\PSoC4/cyfitter_cfg.c **** static void CYCONFIGCPY(void *dest, const void *src, size_t n)
  70:Generated_Source\PSoC4/cyfitter_cfg.c **** {
  59              		.loc 1 70 0
  60              		.cfi_startproc
  61 0000 80B5     		push	{r7, lr}
  62              		.cfi_def_cfa_offset 8
  63              		.cfi_offset 7, -8
  64              		.cfi_offset 14, -4
  65 0002 84B0     		sub	sp, sp, #16
  66              		.cfi_def_cfa_offset 24
  67 0004 00AF     		add	r7, sp, #0
  68              		.cfi_def_cfa_register 7
  69 0006 F860     		str	r0, [r7, #12]
  70 0008 B960     		str	r1, [r7, #8]
  71 000a 7A60     		str	r2, [r7, #4]
  71:Generated_Source\PSoC4/cyfitter_cfg.c **** 	(void)memcpy(dest, src, n);
  72              		.loc 1 71 0
  73 000c F968     		ldr	r1, [r7, #12]
  74 000e BA68     		ldr	r2, [r7, #8]
  75 0010 7B68     		ldr	r3, [r7, #4]
  76 0012 081C     		mov	r0, r1
  77 0014 111C     		mov	r1, r2
  78 0016 1A1C     		mov	r2, r3
  79 0018 FFF7FEFF 		bl	memcpy
  72:Generated_Source\PSoC4/cyfitter_cfg.c **** }
  80              		.loc 1 72 0
  81 001c BD46     		mov	sp, r7
  82 001e 04B0     		add	sp, sp, #16
  83              		@ sp needed
  84 0020 80BD     		pop	{r7, pc}
  85              		.cfi_endproc
  86              	.LFE3:
  87              		.size	CYCONFIGCPY, .-CYCONFIGCPY
  88 0022 C046     		.section	.text.CYCONFIGCPYCODE,"ax",%progbits
  89              		.align	2
  90              		.code	16
  91              		.thumb_func
  92              		.type	CYCONFIGCPYCODE, %function
  93              	CYCONFIGCPYCODE:
  94              	.LFB4:
  73:Generated_Source\PSoC4/cyfitter_cfg.c **** CY_CFG_UNUSED
  74:Generated_Source\PSoC4/cyfitter_cfg.c **** static void CYCONFIGCPYCODE(void *dest, const void *src, size_t n);
  75:Generated_Source\PSoC4/cyfitter_cfg.c **** CY_CFG_UNUSED
  76:Generated_Source\PSoC4/cyfitter_cfg.c **** static void CYCONFIGCPYCODE(void *dest, const void *src, size_t n)
  77:Generated_Source\PSoC4/cyfitter_cfg.c **** {
ARM GAS  C:\Users\Petro\AppData\Local\Temp\ccOsH0Vc.s 			page 4


  95              		.loc 1 77 0
  96              		.cfi_startproc
  97 0000 80B5     		push	{r7, lr}
  98              		.cfi_def_cfa_offset 8
  99              		.cfi_offset 7, -8
 100              		.cfi_offset 14, -4
 101 0002 84B0     		sub	sp, sp, #16
 102              		.cfi_def_cfa_offset 24
 103 0004 00AF     		add	r7, sp, #0
 104              		.cfi_def_cfa_register 7
 105 0006 F860     		str	r0, [r7, #12]
 106 0008 B960     		str	r1, [r7, #8]
 107 000a 7A60     		str	r2, [r7, #4]
  78:Generated_Source\PSoC4/cyfitter_cfg.c **** 	(void)memcpy(dest, src, n);
 108              		.loc 1 78 0
 109 000c F968     		ldr	r1, [r7, #12]
 110 000e BA68     		ldr	r2, [r7, #8]
 111 0010 7B68     		ldr	r3, [r7, #4]
 112 0012 081C     		mov	r0, r1
 113 0014 111C     		mov	r1, r2
 114 0016 1A1C     		mov	r2, r3
 115 0018 FFF7FEFF 		bl	memcpy
  79:Generated_Source\PSoC4/cyfitter_cfg.c **** }
 116              		.loc 1 79 0
 117 001c BD46     		mov	sp, r7
 118 001e 04B0     		add	sp, sp, #16
 119              		@ sp needed
 120 0020 80BD     		pop	{r7, pc}
 121              		.cfi_endproc
 122              	.LFE4:
 123              		.size	CYCONFIGCPYCODE, .-CYCONFIGCPYCODE
 124 0022 C046     		.section	.text.cfg_write_bytes32,"ax",%progbits
 125              		.align	2
 126              		.code	16
 127              		.thumb_func
 128              		.type	cfg_write_bytes32, %function
 129              	cfg_write_bytes32:
 130              	.LFB5:
  80:Generated_Source\PSoC4/cyfitter_cfg.c **** 
  81:Generated_Source\PSoC4/cyfitter_cfg.c **** 
  82:Generated_Source\PSoC4/cyfitter_cfg.c **** 
  83:Generated_Source\PSoC4/cyfitter_cfg.c **** 
  84:Generated_Source\PSoC4/cyfitter_cfg.c **** /* Clock startup error codes                                                   */
  85:Generated_Source\PSoC4/cyfitter_cfg.c **** #define CYCLOCKSTART_NO_ERROR    0u
  86:Generated_Source\PSoC4/cyfitter_cfg.c **** #define CYCLOCKSTART_XTAL_ERROR  1u
  87:Generated_Source\PSoC4/cyfitter_cfg.c **** #define CYCLOCKSTART_32KHZ_ERROR 2u
  88:Generated_Source\PSoC4/cyfitter_cfg.c **** #define CYCLOCKSTART_PLL_ERROR   3u
  89:Generated_Source\PSoC4/cyfitter_cfg.c **** 
  90:Generated_Source\PSoC4/cyfitter_cfg.c **** 
  91:Generated_Source\PSoC4/cyfitter_cfg.c **** #ifdef CY_NEED_CYCLOCKSTARTUPERROR
  92:Generated_Source\PSoC4/cyfitter_cfg.c **** /*******************************************************************************
  93:Generated_Source\PSoC4/cyfitter_cfg.c **** * Function Name: CyClockStartupError
  94:Generated_Source\PSoC4/cyfitter_cfg.c **** ********************************************************************************
  95:Generated_Source\PSoC4/cyfitter_cfg.c **** * Summary:
  96:Generated_Source\PSoC4/cyfitter_cfg.c **** *  If an error is encountered during clock configuration (crystal startup error,
  97:Generated_Source\PSoC4/cyfitter_cfg.c **** *  PLL lock error, etc.), the system will end up here.  Unless reimplemented by
  98:Generated_Source\PSoC4/cyfitter_cfg.c **** *  the customer, this function will stop in an infinite loop.
ARM GAS  C:\Users\Petro\AppData\Local\Temp\ccOsH0Vc.s 			page 5


  99:Generated_Source\PSoC4/cyfitter_cfg.c **** *
 100:Generated_Source\PSoC4/cyfitter_cfg.c **** * Parameters:
 101:Generated_Source\PSoC4/cyfitter_cfg.c **** *   void
 102:Generated_Source\PSoC4/cyfitter_cfg.c **** *
 103:Generated_Source\PSoC4/cyfitter_cfg.c **** * Return:
 104:Generated_Source\PSoC4/cyfitter_cfg.c **** *   void
 105:Generated_Source\PSoC4/cyfitter_cfg.c **** *
 106:Generated_Source\PSoC4/cyfitter_cfg.c **** *******************************************************************************/
 107:Generated_Source\PSoC4/cyfitter_cfg.c **** CY_CFG_UNUSED
 108:Generated_Source\PSoC4/cyfitter_cfg.c **** static void CyClockStartupError(uint8 errorCode);
 109:Generated_Source\PSoC4/cyfitter_cfg.c **** CY_CFG_UNUSED
 110:Generated_Source\PSoC4/cyfitter_cfg.c **** static void CyClockStartupError(uint8 errorCode)
 111:Generated_Source\PSoC4/cyfitter_cfg.c **** {
 112:Generated_Source\PSoC4/cyfitter_cfg.c ****     /* To remove the compiler warning if errorCode not used.                */
 113:Generated_Source\PSoC4/cyfitter_cfg.c ****     errorCode = errorCode;
 114:Generated_Source\PSoC4/cyfitter_cfg.c **** 
 115:Generated_Source\PSoC4/cyfitter_cfg.c ****     /* If we have a clock startup error (bad MHz crystal, PLL lock, etc.),  */
 116:Generated_Source\PSoC4/cyfitter_cfg.c ****     /* we will end up here to allow the customer to implement something to  */
 117:Generated_Source\PSoC4/cyfitter_cfg.c ****     /* deal with the clock condition.                                       */
 118:Generated_Source\PSoC4/cyfitter_cfg.c **** 
 119:Generated_Source\PSoC4/cyfitter_cfg.c **** #ifdef CY_CFG_CLOCK_STARTUP_ERROR_CALLBACK
 120:Generated_Source\PSoC4/cyfitter_cfg.c **** 	CY_CFG_Clock_Startup_ErrorCallback();
 121:Generated_Source\PSoC4/cyfitter_cfg.c **** #else
 122:Generated_Source\PSoC4/cyfitter_cfg.c **** 	/*  If not using CY_CFG_CLOCK_STARTUP_ERROR_CALLBACK, place your clock startup code here. */
 123:Generated_Source\PSoC4/cyfitter_cfg.c ****     /* `#START CyClockStartupError` */
 124:Generated_Source\PSoC4/cyfitter_cfg.c **** 
 125:Generated_Source\PSoC4/cyfitter_cfg.c ****     /* If we have a clock startup error (bad MHz crystal, PLL lock, etc.),  */
 126:Generated_Source\PSoC4/cyfitter_cfg.c ****     /* we will end up here to allow the customer to implement something to  */
 127:Generated_Source\PSoC4/cyfitter_cfg.c ****     /* deal with the clock condition.                                       */
 128:Generated_Source\PSoC4/cyfitter_cfg.c **** 
 129:Generated_Source\PSoC4/cyfitter_cfg.c ****     /* `#END` */
 130:Generated_Source\PSoC4/cyfitter_cfg.c **** 
 131:Generated_Source\PSoC4/cyfitter_cfg.c ****     /* If nothing else, stop here since the clocks have not started         */
 132:Generated_Source\PSoC4/cyfitter_cfg.c ****     /* correctly.                                                           */
 133:Generated_Source\PSoC4/cyfitter_cfg.c ****     while(1) {}
 134:Generated_Source\PSoC4/cyfitter_cfg.c **** #endif /* CY_CFG_CLOCK_STARTUP_ERROR_CALLBACK */ 
 135:Generated_Source\PSoC4/cyfitter_cfg.c **** }
 136:Generated_Source\PSoC4/cyfitter_cfg.c **** #endif
 137:Generated_Source\PSoC4/cyfitter_cfg.c **** 
 138:Generated_Source\PSoC4/cyfitter_cfg.c **** #define CY_CFG_BASE_ADDR_COUNT 10u
 139:Generated_Source\PSoC4/cyfitter_cfg.c **** CYPACKED typedef struct
 140:Generated_Source\PSoC4/cyfitter_cfg.c **** {
 141:Generated_Source\PSoC4/cyfitter_cfg.c **** 	uint8 offset;
 142:Generated_Source\PSoC4/cyfitter_cfg.c **** 	uint8 value;
 143:Generated_Source\PSoC4/cyfitter_cfg.c **** } CYPACKED_ATTR cy_cfg_addrvalue_t;
 144:Generated_Source\PSoC4/cyfitter_cfg.c **** 
 145:Generated_Source\PSoC4/cyfitter_cfg.c **** 
 146:Generated_Source\PSoC4/cyfitter_cfg.c **** 
 147:Generated_Source\PSoC4/cyfitter_cfg.c **** /*******************************************************************************
 148:Generated_Source\PSoC4/cyfitter_cfg.c **** * Function Name: cfg_write_bytes32
 149:Generated_Source\PSoC4/cyfitter_cfg.c **** ********************************************************************************
 150:Generated_Source\PSoC4/cyfitter_cfg.c **** * Summary:
 151:Generated_Source\PSoC4/cyfitter_cfg.c **** *  This function is used for setting up the chip configuration areas that
 152:Generated_Source\PSoC4/cyfitter_cfg.c **** *  contain relatively sparse data.
 153:Generated_Source\PSoC4/cyfitter_cfg.c **** *
 154:Generated_Source\PSoC4/cyfitter_cfg.c **** * Parameters:
 155:Generated_Source\PSoC4/cyfitter_cfg.c **** *   void
ARM GAS  C:\Users\Petro\AppData\Local\Temp\ccOsH0Vc.s 			page 6


 156:Generated_Source\PSoC4/cyfitter_cfg.c **** *
 157:Generated_Source\PSoC4/cyfitter_cfg.c **** * Return:
 158:Generated_Source\PSoC4/cyfitter_cfg.c **** *   void
 159:Generated_Source\PSoC4/cyfitter_cfg.c **** *
 160:Generated_Source\PSoC4/cyfitter_cfg.c **** *******************************************************************************/
 161:Generated_Source\PSoC4/cyfitter_cfg.c **** static void cfg_write_bytes32(const uint32 addr_table[], const cy_cfg_addrvalue_t data_table[]);
 162:Generated_Source\PSoC4/cyfitter_cfg.c **** static void cfg_write_bytes32(const uint32 addr_table[], const cy_cfg_addrvalue_t data_table[])
 163:Generated_Source\PSoC4/cyfitter_cfg.c **** {
 131              		.loc 1 163 0
 132              		.cfi_startproc
 133 0000 80B5     		push	{r7, lr}
 134              		.cfi_def_cfa_offset 8
 135              		.cfi_offset 7, -8
 136              		.cfi_offset 14, -4
 137 0002 86B0     		sub	sp, sp, #24
 138              		.cfi_def_cfa_offset 32
 139 0004 00AF     		add	r7, sp, #0
 140              		.cfi_def_cfa_register 7
 141 0006 7860     		str	r0, [r7, #4]
 142 0008 3960     		str	r1, [r7]
 164:Generated_Source\PSoC4/cyfitter_cfg.c **** 	/* For 32-bit little-endian architectures */
 165:Generated_Source\PSoC4/cyfitter_cfg.c **** 	uint32 i, j = 0u;
 143              		.loc 1 165 0
 144 000a 0023     		mov	r3, #0
 145 000c 3B61     		str	r3, [r7, #16]
 166:Generated_Source\PSoC4/cyfitter_cfg.c **** 	for (i = 0u; i < CY_CFG_BASE_ADDR_COUNT; i++)
 146              		.loc 1 166 0
 147 000e 0023     		mov	r3, #0
 148 0010 7B61     		str	r3, [r7, #20]
 149 0012 2FE0     		b	.L5
 150              	.L8:
 151              	.LBB2:
 167:Generated_Source\PSoC4/cyfitter_cfg.c **** 	{
 168:Generated_Source\PSoC4/cyfitter_cfg.c **** 		uint32 baseAddr = addr_table[i];
 152              		.loc 1 168 0
 153 0014 7B69     		ldr	r3, [r7, #20]
 154 0016 9B00     		lsl	r3, r3, #2
 155 0018 7A68     		ldr	r2, [r7, #4]
 156 001a D318     		add	r3, r2, r3
 157 001c 1B68     		ldr	r3, [r3]
 158 001e BB60     		str	r3, [r7, #8]
 169:Generated_Source\PSoC4/cyfitter_cfg.c **** 		uint8 count = (uint8)baseAddr;
 159              		.loc 1 169 0
 160 0020 0F23     		mov	r3, #15
 161 0022 FB18     		add	r3, r7, r3
 162 0024 BA68     		ldr	r2, [r7, #8]
 163 0026 1A70     		strb	r2, [r3]
 170:Generated_Source\PSoC4/cyfitter_cfg.c **** 		baseAddr &= 0xFFFFFF00u;
 164              		.loc 1 170 0
 165 0028 BB68     		ldr	r3, [r7, #8]
 166 002a FF22     		mov	r2, #255
 167 002c 9343     		bic	r3, r2
 168 002e BB60     		str	r3, [r7, #8]
 171:Generated_Source\PSoC4/cyfitter_cfg.c **** 		while (count != 0u)
 169              		.loc 1 171 0
 170 0030 18E0     		b	.L6
 171              	.L7:
ARM GAS  C:\Users\Petro\AppData\Local\Temp\ccOsH0Vc.s 			page 7


 172:Generated_Source\PSoC4/cyfitter_cfg.c **** 		{
 173:Generated_Source\PSoC4/cyfitter_cfg.c **** 			CY_SET_XTND_REG8((void CYFAR *)(baseAddr + data_table[j].offset), data_table[j].value);
 172              		.loc 1 173 0
 173 0032 3B69     		ldr	r3, [r7, #16]
 174 0034 5B00     		lsl	r3, r3, #1
 175 0036 3A68     		ldr	r2, [r7]
 176 0038 D318     		add	r3, r2, r3
 177 003a 1B78     		ldrb	r3, [r3]
 178 003c 1A1C     		mov	r2, r3
 179 003e BB68     		ldr	r3, [r7, #8]
 180 0040 D318     		add	r3, r2, r3
 181 0042 191C     		mov	r1, r3
 182 0044 3B69     		ldr	r3, [r7, #16]
 183 0046 5B00     		lsl	r3, r3, #1
 184 0048 3A68     		ldr	r2, [r7]
 185 004a D318     		add	r3, r2, r3
 186 004c 5B78     		ldrb	r3, [r3, #1]
 187 004e 0B70     		strb	r3, [r1]
 174:Generated_Source\PSoC4/cyfitter_cfg.c **** 			j++;
 188              		.loc 1 174 0
 189 0050 3B69     		ldr	r3, [r7, #16]
 190 0052 0133     		add	r3, r3, #1
 191 0054 3B61     		str	r3, [r7, #16]
 175:Generated_Source\PSoC4/cyfitter_cfg.c **** 			count--;
 192              		.loc 1 175 0
 193 0056 0F23     		mov	r3, #15
 194 0058 FB18     		add	r3, r7, r3
 195 005a 1A78     		ldrb	r2, [r3]
 196 005c 0F23     		mov	r3, #15
 197 005e FB18     		add	r3, r7, r3
 198 0060 013A     		sub	r2, r2, #1
 199 0062 1A70     		strb	r2, [r3]
 200              	.L6:
 171:Generated_Source\PSoC4/cyfitter_cfg.c **** 		{
 201              		.loc 1 171 0
 202 0064 0F23     		mov	r3, #15
 203 0066 FB18     		add	r3, r7, r3
 204 0068 1B78     		ldrb	r3, [r3]
 205 006a 002B     		cmp	r3, #0
 206 006c E1D1     		bne	.L7
 207              	.LBE2:
 166:Generated_Source\PSoC4/cyfitter_cfg.c **** 	{
 208              		.loc 1 166 0 discriminator 2
 209 006e 7B69     		ldr	r3, [r7, #20]
 210 0070 0133     		add	r3, r3, #1
 211 0072 7B61     		str	r3, [r7, #20]
 212              	.L5:
 166:Generated_Source\PSoC4/cyfitter_cfg.c **** 	{
 213              		.loc 1 166 0 is_stmt 0 discriminator 1
 214 0074 7B69     		ldr	r3, [r7, #20]
 215 0076 092B     		cmp	r3, #9
 216 0078 CCD9     		bls	.L8
 176:Generated_Source\PSoC4/cyfitter_cfg.c **** 		}
 177:Generated_Source\PSoC4/cyfitter_cfg.c **** 	}
 178:Generated_Source\PSoC4/cyfitter_cfg.c **** }
 217              		.loc 1 178 0 is_stmt 1
 218 007a BD46     		mov	sp, r7
ARM GAS  C:\Users\Petro\AppData\Local\Temp\ccOsH0Vc.s 			page 8


 219 007c 06B0     		add	sp, sp, #24
 220              		@ sp needed
 221 007e 80BD     		pop	{r7, pc}
 222              		.cfi_endproc
 223              	.LFE5:
 224              		.size	cfg_write_bytes32, .-cfg_write_bytes32
 225              		.section	.psocinit,"ax",%progbits
 226              		.align	2
 227              		.code	16
 228              		.thumb_func
 229              		.type	ClockSetup, %function
 230              	ClockSetup:
 231              	.LFB6:
 179:Generated_Source\PSoC4/cyfitter_cfg.c **** 
 180:Generated_Source\PSoC4/cyfitter_cfg.c **** 
 181:Generated_Source\PSoC4/cyfitter_cfg.c **** /*******************************************************************************
 182:Generated_Source\PSoC4/cyfitter_cfg.c **** * Function Name: ClockSetup
 183:Generated_Source\PSoC4/cyfitter_cfg.c **** ********************************************************************************
 184:Generated_Source\PSoC4/cyfitter_cfg.c **** *
 185:Generated_Source\PSoC4/cyfitter_cfg.c **** * Summary:
 186:Generated_Source\PSoC4/cyfitter_cfg.c **** *   Performs the initialization of all of the clocks in the device based on the
 187:Generated_Source\PSoC4/cyfitter_cfg.c **** *   settings in the Clock tab of the DWR.  This includes enabling the requested
 188:Generated_Source\PSoC4/cyfitter_cfg.c **** *   clocks and setting the necessary dividers to produce the desired frequency. 
 189:Generated_Source\PSoC4/cyfitter_cfg.c **** *
 190:Generated_Source\PSoC4/cyfitter_cfg.c **** * Parameters:
 191:Generated_Source\PSoC4/cyfitter_cfg.c **** *   void
 192:Generated_Source\PSoC4/cyfitter_cfg.c **** *
 193:Generated_Source\PSoC4/cyfitter_cfg.c **** * Return:
 194:Generated_Source\PSoC4/cyfitter_cfg.c **** *   void
 195:Generated_Source\PSoC4/cyfitter_cfg.c **** *
 196:Generated_Source\PSoC4/cyfitter_cfg.c **** *******************************************************************************/
 197:Generated_Source\PSoC4/cyfitter_cfg.c **** static void ClockSetup(void);
 198:Generated_Source\PSoC4/cyfitter_cfg.c **** CY_CFG_SECTION
 199:Generated_Source\PSoC4/cyfitter_cfg.c **** static void ClockSetup(void)
 200:Generated_Source\PSoC4/cyfitter_cfg.c **** {
 232              		.loc 1 200 0
 233              		.cfi_startproc
 234 0000 80B5     		push	{r7, lr}
 235              		.cfi_def_cfa_offset 8
 236              		.cfi_offset 7, -8
 237              		.cfi_offset 14, -4
 238 0002 00AF     		add	r7, sp, #0
 239              		.cfi_def_cfa_register 7
 201:Generated_Source\PSoC4/cyfitter_cfg.c **** 
 202:Generated_Source\PSoC4/cyfitter_cfg.c **** 	/* Set Flash Cycles based on max possible frequency in case a glitch occurs during ClockSetup(). *
 203:Generated_Source\PSoC4/cyfitter_cfg.c **** 	CY_SET_REG32((void CYXDATA *)(CYREG_CPUSS_FLASH_CTL), (0x0012u));
 240              		.loc 1 203 0
 241 0004 3D4B     		ldr	r3, .L11
 242 0006 1222     		mov	r2, #18
 243 0008 1A60     		str	r2, [r3]
 204:Generated_Source\PSoC4/cyfitter_cfg.c **** 
 205:Generated_Source\PSoC4/cyfitter_cfg.c **** 	/* Start the WCO */
 206:Generated_Source\PSoC4/cyfitter_cfg.c **** 	CySysClkWcoStart();
 244              		.loc 1 206 0
 245 000a FFF7FEFF 		bl	CySysClkWcoStart
 207:Generated_Source\PSoC4/cyfitter_cfg.c **** 	CyDelayCycles(12000000u); /* WCO may take up to 500ms to start */
 246              		.loc 1 207 0
ARM GAS  C:\Users\Petro\AppData\Local\Temp\ccOsH0Vc.s 			page 9


 247 000e 3C4B     		ldr	r3, .L11+4
 248 0010 181C     		mov	r0, r3
 249 0012 FFF7FEFF 		bl	CyDelayCycles
 208:Generated_Source\PSoC4/cyfitter_cfg.c **** 	(void)CySysClkWcoSetPowerMode(CY_SYS_CLK_WCO_LPM);    /* Switch to the low power mode */
 250              		.loc 1 208 0
 251 0016 0120     		mov	r0, #1
 252 0018 FFF7FEFF 		bl	CySysClkWcoSetPowerMode
 209:Generated_Source\PSoC4/cyfitter_cfg.c **** 
 210:Generated_Source\PSoC4/cyfitter_cfg.c **** 	/* Setup and trim IMO based on desired frequency. */
 211:Generated_Source\PSoC4/cyfitter_cfg.c **** 	CySysClkWriteImoFreq(48u);
 253              		.loc 1 211 0
 254 001c 3020     		mov	r0, #48
 255 001e FFF7FEFF 		bl	CySysClkWriteImoFreq
 212:Generated_Source\PSoC4/cyfitter_cfg.c **** 	/* CYDEV_CLK_ILO_CONFIG Starting address: CYDEV_CLK_ILO_CONFIG */
 213:Generated_Source\PSoC4/cyfitter_cfg.c **** 	CY_SET_XTND_REG32((void CYFAR *)(CYREG_CLK_ILO_CONFIG), 0x80000006u);
 256              		.loc 1 213 0
 257 0022 384B     		ldr	r3, .L11+8
 258 0024 384A     		ldr	r2, .L11+12
 259 0026 1A60     		str	r2, [r3]
 214:Generated_Source\PSoC4/cyfitter_cfg.c **** 
 215:Generated_Source\PSoC4/cyfitter_cfg.c **** 	/* CYDEV_WDT_CONFIG Starting address: CYDEV_WDT_CONFIG */
 216:Generated_Source\PSoC4/cyfitter_cfg.c **** 	CY_SET_XTND_REG32((void CYFAR *)(CYREG_WDT_CONFIG), 0x40000000u);
 260              		.loc 1 216 0
 261 0028 384B     		ldr	r3, .L11+16
 262 002a 8022     		mov	r2, #128
 263 002c D205     		lsl	r2, r2, #23
 264 002e 1A60     		str	r2, [r3]
 217:Generated_Source\PSoC4/cyfitter_cfg.c **** 
 218:Generated_Source\PSoC4/cyfitter_cfg.c **** 
 219:Generated_Source\PSoC4/cyfitter_cfg.c **** 	/* Enable fast start mode for XO */
 220:Generated_Source\PSoC4/cyfitter_cfg.c **** 	CY_SET_REG32((void*)CYREG_BLE_BLERD_BB_XO, CY_GET_REG32((void*)CYREG_BLE_BLERD_BB_XO) | (uint32)0x
 265              		.loc 1 220 0
 266 0030 374B     		ldr	r3, .L11+20
 267 0032 374A     		ldr	r2, .L11+20
 268 0034 1268     		ldr	r2, [r2]
 269 0036 0221     		mov	r1, #2
 270 0038 0A43     		orr	r2, r1
 271 003a 1A60     		str	r2, [r3]
 221:Generated_Source\PSoC4/cyfitter_cfg.c **** 	CY_SET_XTND_REG32((void CYFAR *)(CYREG_BLE_BLERD_BB_XO_CAPTRIM), 0x00003E2Du);
 272              		.loc 1 221 0
 273 003c 354B     		ldr	r3, .L11+24
 274 003e 364A     		ldr	r2, .L11+28
 275 0040 1A60     		str	r2, [r3]
 222:Generated_Source\PSoC4/cyfitter_cfg.c **** 	/*Set XTAL(ECO) divider*/
 223:Generated_Source\PSoC4/cyfitter_cfg.c **** 	CY_SET_XTND_REG32((void CYFAR *)(CYREG_BLE_BLESS_XTAL_CLK_DIV_CONFIG), 0x00000000u);
 276              		.loc 1 223 0
 277 0042 364B     		ldr	r3, .L11+32
 278 0044 0022     		mov	r2, #0
 279 0046 1A60     		str	r2, [r3]
 224:Generated_Source\PSoC4/cyfitter_cfg.c **** 	/* Disable Crystal Stable Interrupt before enabling ECO */
 225:Generated_Source\PSoC4/cyfitter_cfg.c **** 	CY_SET_REG32((void*)CYREG_BLE_BLESS_LL_DSM_CTRL, CY_GET_REG32((void*)CYREG_BLE_BLESS_LL_DSM_CTRL) 
 280              		.loc 1 225 0
 281 0048 354B     		ldr	r3, .L11+36
 282 004a 354A     		ldr	r2, .L11+36
 283 004c 1268     		ldr	r2, [r2]
 284 004e 0821     		mov	r1, #8
 285 0050 8A43     		bic	r2, r1
ARM GAS  C:\Users\Petro\AppData\Local\Temp\ccOsH0Vc.s 			page 10


 286 0052 1A60     		str	r2, [r3]
 226:Generated_Source\PSoC4/cyfitter_cfg.c **** 	/* Start the ECO and do not check status since it is not needed for HFCLK */
 227:Generated_Source\PSoC4/cyfitter_cfg.c **** 	(void)CySysClkEcoStart(2000u);
 287              		.loc 1 227 0
 288 0054 FA23     		mov	r3, #250
 289 0056 DB00     		lsl	r3, r3, #3
 290 0058 181C     		mov	r0, r3
 291 005a FFF7FEFF 		bl	CySysClkEcoStart
 228:Generated_Source\PSoC4/cyfitter_cfg.c **** 	CyDelayUs(1500u); /* Wait to stabalize */
 292              		.loc 1 228 0
 293 005e 314B     		ldr	r3, .L11+40
 294 0060 181C     		mov	r0, r3
 295 0062 FFF7FEFF 		bl	CyDelayUs
 229:Generated_Source\PSoC4/cyfitter_cfg.c **** 
 230:Generated_Source\PSoC4/cyfitter_cfg.c **** 	/* Setup phase aligned clocks */
 231:Generated_Source\PSoC4/cyfitter_cfg.c **** 	CY_SET_REG32((void *)CYREG_PERI_DIV_16_CTL3, 0x00BB7F00u);
 296              		.loc 1 231 0
 297 0066 304B     		ldr	r3, .L11+44
 298 0068 304A     		ldr	r2, .L11+48
 299 006a 1A60     		str	r2, [r3]
 232:Generated_Source\PSoC4/cyfitter_cfg.c **** 	CY_SET_REG32((void *)CYREG_PERI_DIV_CMD, 0x8000FF43u);
 300              		.loc 1 232 0
 301 006c 304B     		ldr	r3, .L11+52
 302 006e 314A     		ldr	r2, .L11+56
 303 0070 1A60     		str	r2, [r3]
 233:Generated_Source\PSoC4/cyfitter_cfg.c **** 	CY_SET_REG32((void *)CYREG_PERI_DIV_16_CTL2, 0x00BB7F00u);
 304              		.loc 1 233 0
 305 0072 314B     		ldr	r3, .L11+60
 306 0074 2D4A     		ldr	r2, .L11+48
 307 0076 1A60     		str	r2, [r3]
 234:Generated_Source\PSoC4/cyfitter_cfg.c **** 	CY_SET_REG32((void *)CYREG_PERI_DIV_CMD, 0x8000FF42u);
 308              		.loc 1 234 0
 309 0078 2D4B     		ldr	r3, .L11+52
 310 007a 304A     		ldr	r2, .L11+64
 311 007c 1A60     		str	r2, [r3]
 235:Generated_Source\PSoC4/cyfitter_cfg.c **** 	CY_SET_REG32((void *)CYREG_PERI_DIV_16_CTL1, 0x0001A000u);
 312              		.loc 1 235 0
 313 007e 304B     		ldr	r3, .L11+68
 314 0080 D022     		mov	r2, #208
 315 0082 5202     		lsl	r2, r2, #9
 316 0084 1A60     		str	r2, [r3]
 236:Generated_Source\PSoC4/cyfitter_cfg.c **** 	CY_SET_REG32((void *)CYREG_PERI_DIV_CMD, 0x8000FF41u);
 317              		.loc 1 236 0
 318 0086 2A4B     		ldr	r3, .L11+52
 319 0088 2E4A     		ldr	r2, .L11+72
 320 008a 1A60     		str	r2, [r3]
 237:Generated_Source\PSoC4/cyfitter_cfg.c **** 	CY_SET_REG32((void *)CYREG_PERI_DIV_16_CTL0, 0x00001D00u);
 321              		.loc 1 237 0
 322 008c 2E4B     		ldr	r3, .L11+76
 323 008e E822     		mov	r2, #232
 324 0090 5201     		lsl	r2, r2, #5
 325 0092 1A60     		str	r2, [r3]
 238:Generated_Source\PSoC4/cyfitter_cfg.c **** 	CY_SET_REG32((void *)CYREG_PERI_DIV_CMD, 0x8000FF40u);
 326              		.loc 1 238 0
 327 0094 264B     		ldr	r3, .L11+52
 328 0096 2D4A     		ldr	r2, .L11+80
 329 0098 1A60     		str	r2, [r3]
ARM GAS  C:\Users\Petro\AppData\Local\Temp\ccOsH0Vc.s 			page 11


 239:Generated_Source\PSoC4/cyfitter_cfg.c **** 
 240:Generated_Source\PSoC4/cyfitter_cfg.c **** 	/* CYDEV_CLK_IMO_CONFIG Starting address: CYDEV_CLK_IMO_CONFIG */
 241:Generated_Source\PSoC4/cyfitter_cfg.c **** 	CY_SET_XTND_REG32((void CYFAR *)(CYREG_CLK_IMO_CONFIG), 0x80000000u);
 330              		.loc 1 241 0
 331 009a 2D4B     		ldr	r3, .L11+84
 332 009c 8022     		mov	r2, #128
 333 009e 1206     		lsl	r2, r2, #24
 334 00a0 1A60     		str	r2, [r3]
 242:Generated_Source\PSoC4/cyfitter_cfg.c **** 
 243:Generated_Source\PSoC4/cyfitter_cfg.c **** 	/* CYDEV_CLK_SELECT Starting address: CYDEV_CLK_SELECT */
 244:Generated_Source\PSoC4/cyfitter_cfg.c **** 	CY_SET_XTND_REG32((void CYFAR *)(CYREG_CLK_SELECT), 0x00040000u);
 335              		.loc 1 244 0
 336 00a2 2C4B     		ldr	r3, .L11+88
 337 00a4 8022     		mov	r2, #128
 338 00a6 D202     		lsl	r2, r2, #11
 339 00a8 1A60     		str	r2, [r3]
 245:Generated_Source\PSoC4/cyfitter_cfg.c **** 
 246:Generated_Source\PSoC4/cyfitter_cfg.c **** 	/* CYDEV_PERI_PCLK_CTL11 Starting address: CYDEV_PERI_PCLK_CTL11 */
 247:Generated_Source\PSoC4/cyfitter_cfg.c **** 	CY_SET_XTND_REG32((void CYFAR *)(CYREG_PERI_PCLK_CTL11), 0x00000043u);
 340              		.loc 1 247 0
 341 00aa 2B4B     		ldr	r3, .L11+92
 342 00ac 4322     		mov	r2, #67
 343 00ae 1A60     		str	r2, [r3]
 248:Generated_Source\PSoC4/cyfitter_cfg.c **** 
 249:Generated_Source\PSoC4/cyfitter_cfg.c **** 	/* CYDEV_PERI_PCLK_CTL7 Starting address: CYDEV_PERI_PCLK_CTL7 */
 250:Generated_Source\PSoC4/cyfitter_cfg.c **** 	CY_SET_XTND_REG32((void CYFAR *)(CYREG_PERI_PCLK_CTL7), 0x00000042u);
 344              		.loc 1 250 0
 345 00b0 2A4B     		ldr	r3, .L11+96
 346 00b2 4222     		mov	r2, #66
 347 00b4 1A60     		str	r2, [r3]
 251:Generated_Source\PSoC4/cyfitter_cfg.c **** 
 252:Generated_Source\PSoC4/cyfitter_cfg.c **** 	/* CYDEV_PERI_PCLK_CTL2 Starting address: CYDEV_PERI_PCLK_CTL2 */
 253:Generated_Source\PSoC4/cyfitter_cfg.c **** 	CY_SET_XTND_REG32((void CYFAR *)(CYREG_PERI_PCLK_CTL2), 0x00000041u);
 348              		.loc 1 253 0
 349 00b6 2A4B     		ldr	r3, .L11+100
 350 00b8 4122     		mov	r2, #65
 351 00ba 1A60     		str	r2, [r3]
 254:Generated_Source\PSoC4/cyfitter_cfg.c **** 
 255:Generated_Source\PSoC4/cyfitter_cfg.c **** 	/* CYDEV_PERI_PCLK_CTL1 Starting address: CYDEV_PERI_PCLK_CTL1 */
 256:Generated_Source\PSoC4/cyfitter_cfg.c **** 	CY_SET_XTND_REG32((void CYFAR *)(CYREG_PERI_PCLK_CTL1), 0x00000040u);
 352              		.loc 1 256 0
 353 00bc 294B     		ldr	r3, .L11+104
 354 00be 4022     		mov	r2, #64
 355 00c0 1A60     		str	r2, [r3]
 257:Generated_Source\PSoC4/cyfitter_cfg.c **** 
 258:Generated_Source\PSoC4/cyfitter_cfg.c **** 	(void)CyIntSetVector(8u, &CySysWdtIsr);
 356              		.loc 1 258 0
 357 00c2 294B     		ldr	r3, .L11+108
 358 00c4 0820     		mov	r0, #8
 359 00c6 191C     		mov	r1, r3
 360 00c8 FFF7FEFF 		bl	CyIntSetVector
 259:Generated_Source\PSoC4/cyfitter_cfg.c **** 	CyIntEnable(8u);
 361              		.loc 1 259 0
 362 00cc 0820     		mov	r0, #8
 363 00ce FFF7FEFF 		bl	CyIntEnable
 260:Generated_Source\PSoC4/cyfitter_cfg.c **** 	CY_SET_XTND_REG32((void CYFAR *)(CYREG_WDT_MATCH), 0x00000020u);
 364              		.loc 1 260 0
ARM GAS  C:\Users\Petro\AppData\Local\Temp\ccOsH0Vc.s 			page 12


 365 00d2 264B     		ldr	r3, .L11+112
 366 00d4 2022     		mov	r2, #32
 367 00d6 1A60     		str	r2, [r3]
 261:Generated_Source\PSoC4/cyfitter_cfg.c **** 	CY_SET_XTND_REG32((void CYFAR *)(CYREG_WDT_CONFIG), 0x40000005u);
 368              		.loc 1 261 0
 369 00d8 0C4B     		ldr	r3, .L11+16
 370 00da 254A     		ldr	r2, .L11+116
 371 00dc 1A60     		str	r2, [r3]
 262:Generated_Source\PSoC4/cyfitter_cfg.c **** 	CY_SET_XTND_REG32((void CYFAR *)(CYREG_WDT_CONTROL), 0x00000008u);
 372              		.loc 1 262 0
 373 00de 254B     		ldr	r3, .L11+120
 374 00e0 0822     		mov	r2, #8
 375 00e2 1A60     		str	r2, [r3]
 263:Generated_Source\PSoC4/cyfitter_cfg.c **** 	while ((CY_GET_XTND_REG32((void CYFAR *)(CYREG_WDT_CONTROL)) & 0x00000008u) != 0u) { }
 376              		.loc 1 263 0
 377 00e4 C046     		mov	r8, r8
 378              	.L10:
 379              		.loc 1 263 0 is_stmt 0 discriminator 1
 380 00e6 234B     		ldr	r3, .L11+120
 381 00e8 1B68     		ldr	r3, [r3]
 382 00ea 0822     		mov	r2, #8
 383 00ec 1340     		and	r3, r2
 384 00ee FAD1     		bne	.L10
 264:Generated_Source\PSoC4/cyfitter_cfg.c **** 	CY_SET_XTND_REG32((void CYFAR *)(CYREG_WDT_CONTROL), 0x00000001u);
 385              		.loc 1 264 0 is_stmt 1
 386 00f0 204B     		ldr	r3, .L11+120
 387 00f2 0122     		mov	r2, #1
 388 00f4 1A60     		str	r2, [r3]
 265:Generated_Source\PSoC4/cyfitter_cfg.c **** }
 389              		.loc 1 265 0
 390 00f6 BD46     		mov	sp, r7
 391              		@ sp needed
 392 00f8 80BD     		pop	{r7, pc}
 393              	.L12:
 394 00fa C046     		.align	2
 395              	.L11:
 396 00fc 30001040 		.word	1074790448
 397 0100 001BB700 		.word	12000000
 398 0104 04010B40 		.word	1074462980
 399 0108 06000080 		.word	-2147483642
 400 010c 0C020B40 		.word	1074463244
 401 0110 78002E40 		.word	1076756600
 402 0114 7C002E40 		.word	1076756604
 403 0118 2D3E0000 		.word	15917
 404 011c 64F02E40 		.word	1076818020
 405 0120 6CF02E40 		.word	1076818028
 406 0124 DC050000 		.word	1500
 407 0128 0C030140 		.word	1073808140
 408 012c 007FBB00 		.word	12287744
 409 0130 00000140 		.word	1073807360
 410 0134 43FF0080 		.word	-2147418301
 411 0138 08030140 		.word	1073808136
 412 013c 42FF0080 		.word	-2147418302
 413 0140 04030140 		.word	1073808132
 414 0144 41FF0080 		.word	-2147418303
 415 0148 00030140 		.word	1073808128
 416 014c 40FF0080 		.word	-2147418304
ARM GAS  C:\Users\Petro\AppData\Local\Temp\ccOsH0Vc.s 			page 13


 417 0150 08010B40 		.word	1074462984
 418 0154 00010B40 		.word	1074462976
 419 0158 2C010140 		.word	1073807660
 420 015c 1C010140 		.word	1073807644
 421 0160 08010140 		.word	1073807624
 422 0164 04010140 		.word	1073807620
 423 0168 00000000 		.word	CySysWdtIsr
 424 016c 08020B40 		.word	1074463240
 425 0170 05000040 		.word	1073741829
 426 0174 10020B40 		.word	1074463248
 427              		.cfi_endproc
 428              	.LFE6:
 429              		.size	ClockSetup, .-ClockSetup
 430              		.section	.text.AnalogSetDefault,"ax",%progbits
 431              		.align	2
 432              		.code	16
 433              		.thumb_func
 434              		.type	AnalogSetDefault, %function
 435              	AnalogSetDefault:
 436              	.LFB7:
 266:Generated_Source\PSoC4/cyfitter_cfg.c **** 
 267:Generated_Source\PSoC4/cyfitter_cfg.c **** 
 268:Generated_Source\PSoC4/cyfitter_cfg.c **** /* Analog API Functions */
 269:Generated_Source\PSoC4/cyfitter_cfg.c **** 
 270:Generated_Source\PSoC4/cyfitter_cfg.c **** 
 271:Generated_Source\PSoC4/cyfitter_cfg.c **** /*******************************************************************************
 272:Generated_Source\PSoC4/cyfitter_cfg.c **** * Function Name: AnalogSetDefault
 273:Generated_Source\PSoC4/cyfitter_cfg.c **** ********************************************************************************
 274:Generated_Source\PSoC4/cyfitter_cfg.c **** *
 275:Generated_Source\PSoC4/cyfitter_cfg.c **** * Summary:
 276:Generated_Source\PSoC4/cyfitter_cfg.c **** *  Sets up the analog portions of the chip to default values based on chip
 277:Generated_Source\PSoC4/cyfitter_cfg.c **** *  configuration options from the project.
 278:Generated_Source\PSoC4/cyfitter_cfg.c **** *
 279:Generated_Source\PSoC4/cyfitter_cfg.c **** * Parameters:
 280:Generated_Source\PSoC4/cyfitter_cfg.c **** *  void
 281:Generated_Source\PSoC4/cyfitter_cfg.c **** *
 282:Generated_Source\PSoC4/cyfitter_cfg.c **** * Return:
 283:Generated_Source\PSoC4/cyfitter_cfg.c **** *  void
 284:Generated_Source\PSoC4/cyfitter_cfg.c **** *
 285:Generated_Source\PSoC4/cyfitter_cfg.c **** *******************************************************************************/
 286:Generated_Source\PSoC4/cyfitter_cfg.c **** static void AnalogSetDefault(void);
 287:Generated_Source\PSoC4/cyfitter_cfg.c **** static void AnalogSetDefault(void)
 288:Generated_Source\PSoC4/cyfitter_cfg.c **** {
 437              		.loc 1 288 0
 438              		.cfi_startproc
 439 0000 80B5     		push	{r7, lr}
 440              		.cfi_def_cfa_offset 8
 441              		.cfi_offset 7, -8
 442              		.cfi_offset 14, -4
 443 0002 00AF     		add	r7, sp, #0
 444              		.cfi_def_cfa_register 7
 289:Generated_Source\PSoC4/cyfitter_cfg.c **** 	CY_SET_XTND_REG32((void CYFAR *)CYREG_CTBM0_DFT_CTRL, 0x00000003u);
 445              		.loc 1 289 0
 446 0004 054B     		ldr	r3, .L14
 447 0006 0322     		mov	r2, #3
 448 0008 1A60     		str	r2, [r3]
 290:Generated_Source\PSoC4/cyfitter_cfg.c **** 	CY_SET_XTND_REG32((void CYFAR *)CYREG_CTBM1_DFT_CTRL, 0x00000003u);
ARM GAS  C:\Users\Petro\AppData\Local\Temp\ccOsH0Vc.s 			page 14


 449              		.loc 1 290 0
 450 000a 054B     		ldr	r3, .L14+4
 451 000c 0322     		mov	r2, #3
 452 000e 1A60     		str	r2, [r3]
 291:Generated_Source\PSoC4/cyfitter_cfg.c **** 	CY_SET_XTND_REG32((void CYFAR *)CYREG_PASS_DSAB_DSAB_CTRL, 0x00000000u);
 453              		.loc 1 291 0
 454 0010 044B     		ldr	r3, .L14+8
 455 0012 0022     		mov	r2, #0
 456 0014 1A60     		str	r2, [r3]
 292:Generated_Source\PSoC4/cyfitter_cfg.c **** }
 457              		.loc 1 292 0
 458 0016 BD46     		mov	sp, r7
 459              		@ sp needed
 460 0018 80BD     		pop	{r7, pc}
 461              	.L15:
 462 001a C046     		.align	2
 463              	.L14:
 464 001c 30003040 		.word	1076887600
 465 0020 30003140 		.word	1076953136
 466 0024 000E3F40 		.word	1077874176
 467              		.cfi_endproc
 468              	.LFE7:
 469              		.size	AnalogSetDefault, .-AnalogSetDefault
 470              		.section	.psocinit
 471              		.align	2
 472              		.global	cyfitter_cfg
 473              		.code	16
 474              		.thumb_func
 475              		.type	cyfitter_cfg, %function
 476              	cyfitter_cfg:
 477              	.LFB8:
 293:Generated_Source\PSoC4/cyfitter_cfg.c **** 
 294:Generated_Source\PSoC4/cyfitter_cfg.c **** #define CY_AMUX_UNUSED CYREG_CM0_ROM_DWT
 295:Generated_Source\PSoC4/cyfitter_cfg.c **** 
 296:Generated_Source\PSoC4/cyfitter_cfg.c **** 
 297:Generated_Source\PSoC4/cyfitter_cfg.c **** /*******************************************************************************
 298:Generated_Source\PSoC4/cyfitter_cfg.c **** * Function Name: cyfitter_cfg
 299:Generated_Source\PSoC4/cyfitter_cfg.c **** ********************************************************************************
 300:Generated_Source\PSoC4/cyfitter_cfg.c **** * Summary:
 301:Generated_Source\PSoC4/cyfitter_cfg.c **** *  This function is called by the start-up code for the selected device. It
 302:Generated_Source\PSoC4/cyfitter_cfg.c **** *  performs all of the necessary device configuration based on the design
 303:Generated_Source\PSoC4/cyfitter_cfg.c **** *  settings.  This includes settings from the Design Wide Resources (DWR) such
 304:Generated_Source\PSoC4/cyfitter_cfg.c **** *  as Clocks and Pins as well as any component configuration that is necessary.
 305:Generated_Source\PSoC4/cyfitter_cfg.c **** *
 306:Generated_Source\PSoC4/cyfitter_cfg.c **** * Parameters:  
 307:Generated_Source\PSoC4/cyfitter_cfg.c **** *   void
 308:Generated_Source\PSoC4/cyfitter_cfg.c **** *
 309:Generated_Source\PSoC4/cyfitter_cfg.c **** * Return:
 310:Generated_Source\PSoC4/cyfitter_cfg.c **** *   void
 311:Generated_Source\PSoC4/cyfitter_cfg.c **** *
 312:Generated_Source\PSoC4/cyfitter_cfg.c **** *******************************************************************************/
 313:Generated_Source\PSoC4/cyfitter_cfg.c **** CY_CFG_SECTION
 314:Generated_Source\PSoC4/cyfitter_cfg.c **** void cyfitter_cfg(void)
 315:Generated_Source\PSoC4/cyfitter_cfg.c **** {
 478              		.loc 1 315 0
 479              		.cfi_startproc
 480 0178 80B5     		push	{r7, lr}
ARM GAS  C:\Users\Petro\AppData\Local\Temp\ccOsH0Vc.s 			page 15


 481              		.cfi_def_cfa_offset 8
 482              		.cfi_offset 7, -8
 483              		.cfi_offset 14, -4
 484 017a 82B0     		sub	sp, sp, #8
 485              		.cfi_def_cfa_offset 16
 486 017c 00AF     		add	r7, sp, #0
 487              		.cfi_def_cfa_register 7
 316:Generated_Source\PSoC4/cyfitter_cfg.c **** 	/* Disable interrupts by default. Let user enable if/when they want. */
 317:Generated_Source\PSoC4/cyfitter_cfg.c **** 	CyGlobalIntDisable;
 488              		.loc 1 317 0
 489              	@ 317 "Generated_Source\PSoC4\cyfitter_cfg.c" 1
 490 017e 72B6     		CPSID   i
 491              	@ 0 "" 2
 318:Generated_Source\PSoC4/cyfitter_cfg.c **** 
 319:Generated_Source\PSoC4/cyfitter_cfg.c **** 	CY_SET_XTND_REG32((void CYFAR *)(CYREG_BLE_BLESS_LL_DSM_CTRL), 0x00000000u);
 492              		.loc 1 319 0
 493              		.code	16
 494 0180 4C4B     		ldr	r3, .L19
 495 0182 0022     		mov	r2, #0
 496 0184 1A60     		str	r2, [r3]
 320:Generated_Source\PSoC4/cyfitter_cfg.c **** 
 321:Generated_Source\PSoC4/cyfitter_cfg.c **** 	/* Enable the clock in the interrupt controller for the routed interrupts */
 322:Generated_Source\PSoC4/cyfitter_cfg.c **** 	CY_SET_REG8((void *)CYREG_UDB_UDBIF_INT_CLK_CTL, 0x01u);
 497              		.loc 1 322 0
 498 0186 4C4B     		ldr	r3, .L19+4
 499 0188 0122     		mov	r2, #1
 500 018a 1A70     		strb	r2, [r3]
 501              	.LBB3:
 323:Generated_Source\PSoC4/cyfitter_cfg.c **** 	{
 324:Generated_Source\PSoC4/cyfitter_cfg.c **** 		static const uint32 CYCODE cy_cfg_addr_table[] = {
 325:Generated_Source\PSoC4/cyfitter_cfg.c **** 			0x400F0002u, /* Base address: 0x400F0000 Count: 2 */
 326:Generated_Source\PSoC4/cyfitter_cfg.c **** 			0x400F303Eu, /* Base address: 0x400F3000 Count: 62 */
 327:Generated_Source\PSoC4/cyfitter_cfg.c **** 			0x400F311Bu, /* Base address: 0x400F3100 Count: 27 */
 328:Generated_Source\PSoC4/cyfitter_cfg.c **** 			0x400F3244u, /* Base address: 0x400F3200 Count: 68 */
 329:Generated_Source\PSoC4/cyfitter_cfg.c **** 			0x400F332Au, /* Base address: 0x400F3300 Count: 42 */
 330:Generated_Source\PSoC4/cyfitter_cfg.c **** 			0x400F4002u, /* Base address: 0x400F4000 Count: 2 */
 331:Generated_Source\PSoC4/cyfitter_cfg.c **** 			0x400F4106u, /* Base address: 0x400F4100 Count: 6 */
 332:Generated_Source\PSoC4/cyfitter_cfg.c **** 			0x400F4204u, /* Base address: 0x400F4200 Count: 4 */
 333:Generated_Source\PSoC4/cyfitter_cfg.c **** 			0x400F4303u, /* Base address: 0x400F4300 Count: 3 */
 334:Generated_Source\PSoC4/cyfitter_cfg.c **** 			0x400F6002u, /* Base address: 0x400F6000 Count: 2 */
 335:Generated_Source\PSoC4/cyfitter_cfg.c **** 		};
 336:Generated_Source\PSoC4/cyfitter_cfg.c **** 
 337:Generated_Source\PSoC4/cyfitter_cfg.c **** 		static const cy_cfg_addrvalue_t CYCODE cy_cfg_data_table[] = {
 338:Generated_Source\PSoC4/cyfitter_cfg.c **** 			{0x82u, 0x0Du},
 339:Generated_Source\PSoC4/cyfitter_cfg.c **** 			{0x83u, 0x0Du},
 340:Generated_Source\PSoC4/cyfitter_cfg.c **** 			{0x40u, 0x41u},
 341:Generated_Source\PSoC4/cyfitter_cfg.c **** 			{0x49u, 0xFFu},
 342:Generated_Source\PSoC4/cyfitter_cfg.c **** 			{0x4Au, 0xFFu},
 343:Generated_Source\PSoC4/cyfitter_cfg.c **** 			{0x4Bu, 0xFFu},
 344:Generated_Source\PSoC4/cyfitter_cfg.c **** 			{0x4Fu, 0x01u},
 345:Generated_Source\PSoC4/cyfitter_cfg.c **** 			{0x50u, 0x18u},
 346:Generated_Source\PSoC4/cyfitter_cfg.c **** 			{0x56u, 0x08u},
 347:Generated_Source\PSoC4/cyfitter_cfg.c **** 			{0x5Au, 0x0Au},
 348:Generated_Source\PSoC4/cyfitter_cfg.c **** 			{0x5Bu, 0x04u},
 349:Generated_Source\PSoC4/cyfitter_cfg.c **** 			{0x5Du, 0x99u},
 350:Generated_Source\PSoC4/cyfitter_cfg.c **** 			{0x5Fu, 0x01u},
 351:Generated_Source\PSoC4/cyfitter_cfg.c **** 			{0x60u, 0x40u},
ARM GAS  C:\Users\Petro\AppData\Local\Temp\ccOsH0Vc.s 			page 16


 352:Generated_Source\PSoC4/cyfitter_cfg.c **** 			{0x62u, 0x40u},
 353:Generated_Source\PSoC4/cyfitter_cfg.c **** 			{0x64u, 0x40u},
 354:Generated_Source\PSoC4/cyfitter_cfg.c **** 			{0x65u, 0x40u},
 355:Generated_Source\PSoC4/cyfitter_cfg.c **** 			{0x66u, 0x80u},
 356:Generated_Source\PSoC4/cyfitter_cfg.c **** 			{0x68u, 0x80u},
 357:Generated_Source\PSoC4/cyfitter_cfg.c **** 			{0x6Au, 0x80u},
 358:Generated_Source\PSoC4/cyfitter_cfg.c **** 			{0x6Cu, 0x80u},
 359:Generated_Source\PSoC4/cyfitter_cfg.c **** 			{0x6Eu, 0x80u},
 360:Generated_Source\PSoC4/cyfitter_cfg.c **** 			{0x83u, 0x2Eu},
 361:Generated_Source\PSoC4/cyfitter_cfg.c **** 			{0x8Du, 0x02u},
 362:Generated_Source\PSoC4/cyfitter_cfg.c **** 			{0x8Fu, 0x10u},
 363:Generated_Source\PSoC4/cyfitter_cfg.c **** 			{0x90u, 0x01u},
 364:Generated_Source\PSoC4/cyfitter_cfg.c **** 			{0x95u, 0x1Eu},
 365:Generated_Source\PSoC4/cyfitter_cfg.c **** 			{0x99u, 0x04u},
 366:Generated_Source\PSoC4/cyfitter_cfg.c **** 			{0x9Bu, 0x11u},
 367:Generated_Source\PSoC4/cyfitter_cfg.c **** 			{0xA9u, 0x08u},
 368:Generated_Source\PSoC4/cyfitter_cfg.c **** 			{0xABu, 0x11u},
 369:Generated_Source\PSoC4/cyfitter_cfg.c **** 			{0xB1u, 0x0Eu},
 370:Generated_Source\PSoC4/cyfitter_cfg.c **** 			{0xB3u, 0x20u},
 371:Generated_Source\PSoC4/cyfitter_cfg.c **** 			{0xB5u, 0x10u},
 372:Generated_Source\PSoC4/cyfitter_cfg.c **** 			{0xB6u, 0x01u},
 373:Generated_Source\PSoC4/cyfitter_cfg.c **** 			{0xB7u, 0x01u},
 374:Generated_Source\PSoC4/cyfitter_cfg.c **** 			{0xBBu, 0x20u},
 375:Generated_Source\PSoC4/cyfitter_cfg.c **** 			{0xBEu, 0x40u},
 376:Generated_Source\PSoC4/cyfitter_cfg.c **** 			{0xBFu, 0x40u},
 377:Generated_Source\PSoC4/cyfitter_cfg.c **** 			{0xC0u, 0x13u},
 378:Generated_Source\PSoC4/cyfitter_cfg.c **** 			{0xC9u, 0xFFu},
 379:Generated_Source\PSoC4/cyfitter_cfg.c **** 			{0xCAu, 0xFFu},
 380:Generated_Source\PSoC4/cyfitter_cfg.c **** 			{0xCBu, 0xFFu},
 381:Generated_Source\PSoC4/cyfitter_cfg.c **** 			{0xCDu, 0x83u},
 382:Generated_Source\PSoC4/cyfitter_cfg.c **** 			{0xCEu, 0x03u},
 383:Generated_Source\PSoC4/cyfitter_cfg.c **** 			{0xCFu, 0x01u},
 384:Generated_Source\PSoC4/cyfitter_cfg.c **** 			{0xD0u, 0x18u},
 385:Generated_Source\PSoC4/cyfitter_cfg.c **** 			{0xD2u, 0x80u},
 386:Generated_Source\PSoC4/cyfitter_cfg.c **** 			{0xD8u, 0x04u},
 387:Generated_Source\PSoC4/cyfitter_cfg.c **** 			{0xD9u, 0x0Au},
 388:Generated_Source\PSoC4/cyfitter_cfg.c **** 			{0xDAu, 0x0Au},
 389:Generated_Source\PSoC4/cyfitter_cfg.c **** 			{0xDBu, 0x0Bu},
 390:Generated_Source\PSoC4/cyfitter_cfg.c **** 			{0xDCu, 0x90u},
 391:Generated_Source\PSoC4/cyfitter_cfg.c **** 			{0xDDu, 0x99u},
 392:Generated_Source\PSoC4/cyfitter_cfg.c **** 			{0xDFu, 0x01u},
 393:Generated_Source\PSoC4/cyfitter_cfg.c **** 			{0xE0u, 0x40u},
 394:Generated_Source\PSoC4/cyfitter_cfg.c **** 			{0xE2u, 0x40u},
 395:Generated_Source\PSoC4/cyfitter_cfg.c **** 			{0xE4u, 0x40u},
 396:Generated_Source\PSoC4/cyfitter_cfg.c **** 			{0xE5u, 0x40u},
 397:Generated_Source\PSoC4/cyfitter_cfg.c **** 			{0xE6u, 0x80u},
 398:Generated_Source\PSoC4/cyfitter_cfg.c **** 			{0xE8u, 0x80u},
 399:Generated_Source\PSoC4/cyfitter_cfg.c **** 			{0xEAu, 0x80u},
 400:Generated_Source\PSoC4/cyfitter_cfg.c **** 			{0xECu, 0x80u},
 401:Generated_Source\PSoC4/cyfitter_cfg.c **** 			{0xEEu, 0x80u},
 402:Generated_Source\PSoC4/cyfitter_cfg.c **** 			{0x0Fu, 0x80u},
 403:Generated_Source\PSoC4/cyfitter_cfg.c **** 			{0x1Fu, 0x80u},
 404:Generated_Source\PSoC4/cyfitter_cfg.c **** 			{0x24u, 0x40u},
 405:Generated_Source\PSoC4/cyfitter_cfg.c **** 			{0x26u, 0x40u},
 406:Generated_Source\PSoC4/cyfitter_cfg.c **** 			{0x27u, 0x68u},
 407:Generated_Source\PSoC4/cyfitter_cfg.c **** 			{0x2Fu, 0x08u},
 408:Generated_Source\PSoC4/cyfitter_cfg.c **** 			{0x37u, 0x28u},
ARM GAS  C:\Users\Petro\AppData\Local\Temp\ccOsH0Vc.s 			page 17


 409:Generated_Source\PSoC4/cyfitter_cfg.c **** 			{0x3Cu, 0x42u},
 410:Generated_Source\PSoC4/cyfitter_cfg.c **** 			{0x40u, 0x40u},
 411:Generated_Source\PSoC4/cyfitter_cfg.c **** 			{0x42u, 0x02u},
 412:Generated_Source\PSoC4/cyfitter_cfg.c **** 			{0x46u, 0x20u},
 413:Generated_Source\PSoC4/cyfitter_cfg.c **** 			{0x47u, 0x40u},
 414:Generated_Source\PSoC4/cyfitter_cfg.c **** 			{0x58u, 0xA0u},
 415:Generated_Source\PSoC4/cyfitter_cfg.c **** 			{0x60u, 0x08u},
 416:Generated_Source\PSoC4/cyfitter_cfg.c **** 			{0x62u, 0xA0u},
 417:Generated_Source\PSoC4/cyfitter_cfg.c **** 			{0x74u, 0x01u},
 418:Generated_Source\PSoC4/cyfitter_cfg.c **** 			{0x78u, 0x08u},
 419:Generated_Source\PSoC4/cyfitter_cfg.c **** 			{0x7Eu, 0xA0u},
 420:Generated_Source\PSoC4/cyfitter_cfg.c **** 			{0x8Cu, 0xA0u},
 421:Generated_Source\PSoC4/cyfitter_cfg.c **** 			{0xC2u, 0x10u},
 422:Generated_Source\PSoC4/cyfitter_cfg.c **** 			{0xCAu, 0x20u},
 423:Generated_Source\PSoC4/cyfitter_cfg.c **** 			{0xCCu, 0x60u},
 424:Generated_Source\PSoC4/cyfitter_cfg.c **** 			{0xCEu, 0x90u},
 425:Generated_Source\PSoC4/cyfitter_cfg.c **** 			{0xD0u, 0x59u},
 426:Generated_Source\PSoC4/cyfitter_cfg.c **** 			{0xD6u, 0x0Cu},
 427:Generated_Source\PSoC4/cyfitter_cfg.c **** 			{0xD8u, 0x0Cu},
 428:Generated_Source\PSoC4/cyfitter_cfg.c **** 			{0xDEu, 0xC2u},
 429:Generated_Source\PSoC4/cyfitter_cfg.c **** 			{0x40u, 0x15u},
 430:Generated_Source\PSoC4/cyfitter_cfg.c **** 			{0x45u, 0xECu},
 431:Generated_Source\PSoC4/cyfitter_cfg.c **** 			{0x46u, 0x22u},
 432:Generated_Source\PSoC4/cyfitter_cfg.c **** 			{0x47u, 0x22u},
 433:Generated_Source\PSoC4/cyfitter_cfg.c **** 			{0x48u, 0x3Fu},
 434:Generated_Source\PSoC4/cyfitter_cfg.c **** 			{0x49u, 0xFFu},
 435:Generated_Source\PSoC4/cyfitter_cfg.c **** 			{0x4Au, 0xFFu},
 436:Generated_Source\PSoC4/cyfitter_cfg.c **** 			{0x4Bu, 0xFFu},
 437:Generated_Source\PSoC4/cyfitter_cfg.c **** 			{0x4Du, 0x83u},
 438:Generated_Source\PSoC4/cyfitter_cfg.c **** 			{0x4Eu, 0x03u},
 439:Generated_Source\PSoC4/cyfitter_cfg.c **** 			{0x4Fu, 0x01u},
 440:Generated_Source\PSoC4/cyfitter_cfg.c **** 			{0x50u, 0x18u},
 441:Generated_Source\PSoC4/cyfitter_cfg.c **** 			{0x54u, 0x01u},
 442:Generated_Source\PSoC4/cyfitter_cfg.c **** 			{0x5Au, 0x0Au},
 443:Generated_Source\PSoC4/cyfitter_cfg.c **** 			{0x5Bu, 0x0Au},
 444:Generated_Source\PSoC4/cyfitter_cfg.c **** 			{0x5Du, 0x99u},
 445:Generated_Source\PSoC4/cyfitter_cfg.c **** 			{0x5Fu, 0x01u},
 446:Generated_Source\PSoC4/cyfitter_cfg.c **** 			{0x60u, 0x40u},
 447:Generated_Source\PSoC4/cyfitter_cfg.c **** 			{0x62u, 0x40u},
 448:Generated_Source\PSoC4/cyfitter_cfg.c **** 			{0x64u, 0x40u},
 449:Generated_Source\PSoC4/cyfitter_cfg.c **** 			{0x65u, 0x40u},
 450:Generated_Source\PSoC4/cyfitter_cfg.c **** 			{0x66u, 0x80u},
 451:Generated_Source\PSoC4/cyfitter_cfg.c **** 			{0x68u, 0x80u},
 452:Generated_Source\PSoC4/cyfitter_cfg.c **** 			{0x6Au, 0x80u},
 453:Generated_Source\PSoC4/cyfitter_cfg.c **** 			{0x6Cu, 0x80u},
 454:Generated_Source\PSoC4/cyfitter_cfg.c **** 			{0x6Eu, 0x80u},
 455:Generated_Source\PSoC4/cyfitter_cfg.c **** 			{0x86u, 0x02u},
 456:Generated_Source\PSoC4/cyfitter_cfg.c **** 			{0x88u, 0x01u},
 457:Generated_Source\PSoC4/cyfitter_cfg.c **** 			{0x8Du, 0x04u},
 458:Generated_Source\PSoC4/cyfitter_cfg.c **** 			{0x9Au, 0x02u},
 459:Generated_Source\PSoC4/cyfitter_cfg.c **** 			{0x9Bu, 0x01u},
 460:Generated_Source\PSoC4/cyfitter_cfg.c **** 			{0xA7u, 0x07u},
 461:Generated_Source\PSoC4/cyfitter_cfg.c **** 			{0xAFu, 0x08u},
 462:Generated_Source\PSoC4/cyfitter_cfg.c **** 			{0xB1u, 0x02u},
 463:Generated_Source\PSoC4/cyfitter_cfg.c **** 			{0xB2u, 0x02u},
 464:Generated_Source\PSoC4/cyfitter_cfg.c **** 			{0xB3u, 0x01u},
 465:Generated_Source\PSoC4/cyfitter_cfg.c **** 			{0xB5u, 0x08u},
ARM GAS  C:\Users\Petro\AppData\Local\Temp\ccOsH0Vc.s 			page 18


 466:Generated_Source\PSoC4/cyfitter_cfg.c **** 			{0xB6u, 0x01u},
 467:Generated_Source\PSoC4/cyfitter_cfg.c **** 			{0xB7u, 0x04u},
 468:Generated_Source\PSoC4/cyfitter_cfg.c **** 			{0xBEu, 0x44u},
 469:Generated_Source\PSoC4/cyfitter_cfg.c **** 			{0xC0u, 0x20u},
 470:Generated_Source\PSoC4/cyfitter_cfg.c **** 			{0xC1u, 0x06u},
 471:Generated_Source\PSoC4/cyfitter_cfg.c **** 			{0xC5u, 0xD0u},
 472:Generated_Source\PSoC4/cyfitter_cfg.c **** 			{0xC6u, 0x20u},
 473:Generated_Source\PSoC4/cyfitter_cfg.c **** 			{0xC7u, 0x01u},
 474:Generated_Source\PSoC4/cyfitter_cfg.c **** 			{0xC8u, 0x1Au},
 475:Generated_Source\PSoC4/cyfitter_cfg.c **** 			{0xC9u, 0xFFu},
 476:Generated_Source\PSoC4/cyfitter_cfg.c **** 			{0xCAu, 0xFFu},
 477:Generated_Source\PSoC4/cyfitter_cfg.c **** 			{0xCBu, 0xFFu},
 478:Generated_Source\PSoC4/cyfitter_cfg.c **** 			{0xCDu, 0xA0u},
 479:Generated_Source\PSoC4/cyfitter_cfg.c **** 			{0xCFu, 0x04u},
 480:Generated_Source\PSoC4/cyfitter_cfg.c **** 			{0xD0u, 0x18u},
 481:Generated_Source\PSoC4/cyfitter_cfg.c **** 			{0xD2u, 0x80u},
 482:Generated_Source\PSoC4/cyfitter_cfg.c **** 			{0xD4u, 0x05u},
 483:Generated_Source\PSoC4/cyfitter_cfg.c **** 			{0xD8u, 0x04u},
 484:Generated_Source\PSoC4/cyfitter_cfg.c **** 			{0xD9u, 0x04u},
 485:Generated_Source\PSoC4/cyfitter_cfg.c **** 			{0xDAu, 0x04u},
 486:Generated_Source\PSoC4/cyfitter_cfg.c **** 			{0xDBu, 0x04u},
 487:Generated_Source\PSoC4/cyfitter_cfg.c **** 			{0xDFu, 0x01u},
 488:Generated_Source\PSoC4/cyfitter_cfg.c **** 			{0xE0u, 0x40u},
 489:Generated_Source\PSoC4/cyfitter_cfg.c **** 			{0xE2u, 0xC0u},
 490:Generated_Source\PSoC4/cyfitter_cfg.c **** 			{0xE4u, 0x40u},
 491:Generated_Source\PSoC4/cyfitter_cfg.c **** 			{0xE5u, 0x40u},
 492:Generated_Source\PSoC4/cyfitter_cfg.c **** 			{0xE6u, 0xC0u},
 493:Generated_Source\PSoC4/cyfitter_cfg.c **** 			{0xE8u, 0xC0u},
 494:Generated_Source\PSoC4/cyfitter_cfg.c **** 			{0xEAu, 0xC0u},
 495:Generated_Source\PSoC4/cyfitter_cfg.c **** 			{0xECu, 0xC0u},
 496:Generated_Source\PSoC4/cyfitter_cfg.c **** 			{0xEEu, 0xC0u},
 497:Generated_Source\PSoC4/cyfitter_cfg.c **** 			{0x00u, 0x10u},
 498:Generated_Source\PSoC4/cyfitter_cfg.c **** 			{0x03u, 0x20u},
 499:Generated_Source\PSoC4/cyfitter_cfg.c **** 			{0x09u, 0x20u},
 500:Generated_Source\PSoC4/cyfitter_cfg.c **** 			{0x19u, 0x04u},
 501:Generated_Source\PSoC4/cyfitter_cfg.c **** 			{0x1Bu, 0x80u},
 502:Generated_Source\PSoC4/cyfitter_cfg.c **** 			{0x20u, 0x50u},
 503:Generated_Source\PSoC4/cyfitter_cfg.c **** 			{0x21u, 0x20u},
 504:Generated_Source\PSoC4/cyfitter_cfg.c **** 			{0x22u, 0x40u},
 505:Generated_Source\PSoC4/cyfitter_cfg.c **** 			{0x2Au, 0x84u},
 506:Generated_Source\PSoC4/cyfitter_cfg.c **** 			{0x31u, 0x20u},
 507:Generated_Source\PSoC4/cyfitter_cfg.c **** 			{0x38u, 0x40u},
 508:Generated_Source\PSoC4/cyfitter_cfg.c **** 			{0x41u, 0x20u},
 509:Generated_Source\PSoC4/cyfitter_cfg.c **** 			{0x47u, 0x40u},
 510:Generated_Source\PSoC4/cyfitter_cfg.c **** 			{0x49u, 0x01u},
 511:Generated_Source\PSoC4/cyfitter_cfg.c **** 			{0x4Bu, 0x20u},
 512:Generated_Source\PSoC4/cyfitter_cfg.c **** 			{0x4Fu, 0x85u},
 513:Generated_Source\PSoC4/cyfitter_cfg.c **** 			{0x52u, 0x04u},
 514:Generated_Source\PSoC4/cyfitter_cfg.c **** 			{0x53u, 0x30u},
 515:Generated_Source\PSoC4/cyfitter_cfg.c **** 			{0x56u, 0x22u},
 516:Generated_Source\PSoC4/cyfitter_cfg.c **** 			{0x57u, 0x48u},
 517:Generated_Source\PSoC4/cyfitter_cfg.c **** 			{0x59u, 0x05u},
 518:Generated_Source\PSoC4/cyfitter_cfg.c **** 			{0x5Au, 0x80u},
 519:Generated_Source\PSoC4/cyfitter_cfg.c **** 			{0x5Eu, 0x80u},
 520:Generated_Source\PSoC4/cyfitter_cfg.c **** 			{0x5Fu, 0x05u},
 521:Generated_Source\PSoC4/cyfitter_cfg.c **** 			{0x72u, 0x80u},
 522:Generated_Source\PSoC4/cyfitter_cfg.c **** 			{0x7Eu, 0x20u},
ARM GAS  C:\Users\Petro\AppData\Local\Temp\ccOsH0Vc.s 			page 19


 523:Generated_Source\PSoC4/cyfitter_cfg.c **** 			{0x83u, 0x80u},
 524:Generated_Source\PSoC4/cyfitter_cfg.c **** 			{0x9Bu, 0x40u},
 525:Generated_Source\PSoC4/cyfitter_cfg.c **** 			{0x9Eu, 0x22u},
 526:Generated_Source\PSoC4/cyfitter_cfg.c **** 			{0xA2u, 0x60u},
 527:Generated_Source\PSoC4/cyfitter_cfg.c **** 			{0xA7u, 0x08u},
 528:Generated_Source\PSoC4/cyfitter_cfg.c **** 			{0xABu, 0xC0u},
 529:Generated_Source\PSoC4/cyfitter_cfg.c **** 			{0xC0u, 0x06u},
 530:Generated_Source\PSoC4/cyfitter_cfg.c **** 			{0xC2u, 0x02u},
 531:Generated_Source\PSoC4/cyfitter_cfg.c **** 			{0xCAu, 0x0Au},
 532:Generated_Source\PSoC4/cyfitter_cfg.c **** 			{0xCCu, 0x04u},
 533:Generated_Source\PSoC4/cyfitter_cfg.c **** 			{0xCEu, 0x08u},
 534:Generated_Source\PSoC4/cyfitter_cfg.c **** 			{0xD0u, 0x14u},
 535:Generated_Source\PSoC4/cyfitter_cfg.c **** 			{0xD2u, 0x14u},
 536:Generated_Source\PSoC4/cyfitter_cfg.c **** 			{0xD6u, 0xDBu},
 537:Generated_Source\PSoC4/cyfitter_cfg.c **** 			{0xDEu, 0x40u},
 538:Generated_Source\PSoC4/cyfitter_cfg.c **** 			{0xE4u, 0x04u},
 539:Generated_Source\PSoC4/cyfitter_cfg.c **** 			{0x03u, 0x02u},
 540:Generated_Source\PSoC4/cyfitter_cfg.c **** 			{0xC0u, 0x40u},
 541:Generated_Source\PSoC4/cyfitter_cfg.c **** 			{0x6Fu, 0x20u},
 542:Generated_Source\PSoC4/cyfitter_cfg.c **** 			{0xA3u, 0x20u},
 543:Generated_Source\PSoC4/cyfitter_cfg.c **** 			{0xABu, 0x22u},
 544:Generated_Source\PSoC4/cyfitter_cfg.c **** 			{0xDAu, 0x80u},
 545:Generated_Source\PSoC4/cyfitter_cfg.c **** 			{0xE8u, 0x20u},
 546:Generated_Source\PSoC4/cyfitter_cfg.c **** 			{0xEEu, 0x20u},
 547:Generated_Source\PSoC4/cyfitter_cfg.c **** 			{0x24u, 0x50u},
 548:Generated_Source\PSoC4/cyfitter_cfg.c **** 			{0x8Cu, 0x50u},
 549:Generated_Source\PSoC4/cyfitter_cfg.c **** 			{0xC8u, 0x01u},
 550:Generated_Source\PSoC4/cyfitter_cfg.c **** 			{0xE2u, 0x0Au},
 551:Generated_Source\PSoC4/cyfitter_cfg.c **** 			{0x67u, 0x02u},
 552:Generated_Source\PSoC4/cyfitter_cfg.c **** 			{0x83u, 0x01u},
 553:Generated_Source\PSoC4/cyfitter_cfg.c **** 			{0xD6u, 0x01u},
 554:Generated_Source\PSoC4/cyfitter_cfg.c **** 			{0x10u, 0x01u},
 555:Generated_Source\PSoC4/cyfitter_cfg.c **** 			{0x11u, 0x01u},
 556:Generated_Source\PSoC4/cyfitter_cfg.c **** 		};
 557:Generated_Source\PSoC4/cyfitter_cfg.c **** 
 558:Generated_Source\PSoC4/cyfitter_cfg.c **** 
 559:Generated_Source\PSoC4/cyfitter_cfg.c **** 
 560:Generated_Source\PSoC4/cyfitter_cfg.c **** 		CYPACKED typedef struct {
 561:Generated_Source\PSoC4/cyfitter_cfg.c **** 			void CYFAR *address;
 562:Generated_Source\PSoC4/cyfitter_cfg.c **** 			uint16 size;
 563:Generated_Source\PSoC4/cyfitter_cfg.c **** 		} CYPACKED_ATTR cfg_memset_t;
 564:Generated_Source\PSoC4/cyfitter_cfg.c **** 
 565:Generated_Source\PSoC4/cyfitter_cfg.c **** 		static const cfg_memset_t CYCODE cfg_memset_list [] = {
 566:Generated_Source\PSoC4/cyfitter_cfg.c **** 			/* address, size */
 567:Generated_Source\PSoC4/cyfitter_cfg.c **** 			{(void CYFAR *)(CYDEV_UDB_P0_U0_BASE), 1024u},
 568:Generated_Source\PSoC4/cyfitter_cfg.c **** 			{(void CYFAR *)(CYDEV_UDB_DSI0_BASE), 1024u},
 569:Generated_Source\PSoC4/cyfitter_cfg.c **** 		};
 570:Generated_Source\PSoC4/cyfitter_cfg.c **** 
 571:Generated_Source\PSoC4/cyfitter_cfg.c **** 		uint8 CYDATA i;
 572:Generated_Source\PSoC4/cyfitter_cfg.c **** 
 573:Generated_Source\PSoC4/cyfitter_cfg.c **** 		/* Zero out critical memory blocks before beginning configuration */
 574:Generated_Source\PSoC4/cyfitter_cfg.c **** 		for (i = 0u; i < (sizeof(cfg_memset_list)/sizeof(cfg_memset_list[0])); i++)
 502              		.loc 1 574 0
 503 018c FB1D     		add	r3, r7, #7
 504 018e 0022     		mov	r2, #0
 505 0190 1A70     		strb	r2, [r3]
 506 0192 23E0     		b	.L17
ARM GAS  C:\Users\Petro\AppData\Local\Temp\ccOsH0Vc.s 			page 20


 507              	.L18:
 508              	.LBB4:
 575:Generated_Source\PSoC4/cyfitter_cfg.c **** 		{
 576:Generated_Source\PSoC4/cyfitter_cfg.c **** 			const cfg_memset_t CYCODE * CYDATA ms = &cfg_memset_list[i];
 509              		.loc 1 576 0 discriminator 3
 510 0194 FB1D     		add	r3, r7, #7
 511 0196 1A78     		ldrb	r2, [r3]
 512 0198 131C     		mov	r3, r2
 513 019a 5B00     		lsl	r3, r3, #1
 514 019c 9B18     		add	r3, r3, r2
 515 019e 5B00     		lsl	r3, r3, #1
 516 01a0 464A     		ldr	r2, .L19+8
 517 01a2 9B18     		add	r3, r3, r2
 518 01a4 3B60     		str	r3, [r7]
 577:Generated_Source\PSoC4/cyfitter_cfg.c **** 			CYMEMZERO(ms->address, (size_t)(uint32)(ms->size));
 519              		.loc 1 577 0 discriminator 3
 520 01a6 3B68     		ldr	r3, [r7]
 521 01a8 1A78     		ldrb	r2, [r3]
 522 01aa 5978     		ldrb	r1, [r3, #1]
 523 01ac 0902     		lsl	r1, r1, #8
 524 01ae 0A43     		orr	r2, r1
 525 01b0 9978     		ldrb	r1, [r3, #2]
 526 01b2 0904     		lsl	r1, r1, #16
 527 01b4 0A43     		orr	r2, r1
 528 01b6 DB78     		ldrb	r3, [r3, #3]
 529 01b8 1B06     		lsl	r3, r3, #24
 530 01ba 1343     		orr	r3, r2
 531 01bc 191C     		mov	r1, r3
 532 01be 3B68     		ldr	r3, [r7]
 533 01c0 1A79     		ldrb	r2, [r3, #4]
 534 01c2 5B79     		ldrb	r3, [r3, #5]
 535 01c4 1B02     		lsl	r3, r3, #8
 536 01c6 1343     		orr	r3, r2
 537 01c8 9BB2     		uxth	r3, r3
 538 01ca 081C     		mov	r0, r1
 539 01cc 191C     		mov	r1, r3
 540 01ce FFF7FEFF 		bl	CYMEMZERO
 541              	.LBE4:
 574:Generated_Source\PSoC4/cyfitter_cfg.c **** 		{
 542              		.loc 1 574 0 discriminator 3
 543 01d2 FB1D     		add	r3, r7, #7
 544 01d4 1A78     		ldrb	r2, [r3]
 545 01d6 FB1D     		add	r3, r7, #7
 546 01d8 0132     		add	r2, r2, #1
 547 01da 1A70     		strb	r2, [r3]
 548              	.L17:
 574:Generated_Source\PSoC4/cyfitter_cfg.c **** 		{
 549              		.loc 1 574 0 is_stmt 0 discriminator 1
 550 01dc FB1D     		add	r3, r7, #7
 551 01de 1B78     		ldrb	r3, [r3]
 552 01e0 012B     		cmp	r3, #1
 553 01e2 D7D9     		bls	.L18
 578:Generated_Source\PSoC4/cyfitter_cfg.c **** 		}
 579:Generated_Source\PSoC4/cyfitter_cfg.c **** 
 580:Generated_Source\PSoC4/cyfitter_cfg.c **** 		cfg_write_bytes32(cy_cfg_addr_table, cy_cfg_data_table);
 554              		.loc 1 580 0 is_stmt 1
 555 01e4 364A     		ldr	r2, .L19+12
ARM GAS  C:\Users\Petro\AppData\Local\Temp\ccOsH0Vc.s 			page 21


 556 01e6 374B     		ldr	r3, .L19+16
 557 01e8 101C     		mov	r0, r2
 558 01ea 191C     		mov	r1, r3
 559 01ec FFF7FEFF 		bl	cfg_write_bytes32
 581:Generated_Source\PSoC4/cyfitter_cfg.c **** 
 582:Generated_Source\PSoC4/cyfitter_cfg.c **** 		/* Perform normal device configuration. Order is not critical for these items. */
 583:Generated_Source\PSoC4/cyfitter_cfg.c **** 		CY_SET_XTND_REG16((void CYFAR *)(CYREG_UDB_BCTL0_DRV), 0x0100u);
 560              		.loc 1 583 0
 561 01f0 354B     		ldr	r3, .L19+20
 562 01f2 8022     		mov	r2, #128
 563 01f4 5200     		lsl	r2, r2, #1
 564 01f6 1A80     		strh	r2, [r3]
 584:Generated_Source\PSoC4/cyfitter_cfg.c **** 		CY_SET_XTND_REG8((void CYFAR *)(CYREG_UDB_BCTL0_DRV + 0x2u), 0x01u);
 565              		.loc 1 584 0
 566 01f8 344B     		ldr	r3, .L19+24
 567 01fa 0122     		mov	r2, #1
 568 01fc 1A70     		strb	r2, [r3]
 585:Generated_Source\PSoC4/cyfitter_cfg.c **** 
 586:Generated_Source\PSoC4/cyfitter_cfg.c **** 		/* HSIOM Starting address: CYDEV_HSIOM_BASE */
 587:Generated_Source\PSoC4/cyfitter_cfg.c **** 		CY_SET_XTND_REG32((void CYFAR *)(CYDEV_HSIOM_BASE), 0xEE000099u);
 569              		.loc 1 587 0
 570 01fe 344B     		ldr	r3, .L19+28
 571 0200 344A     		ldr	r2, .L19+32
 572 0202 1A60     		str	r2, [r3]
 588:Generated_Source\PSoC4/cyfitter_cfg.c **** 		CY_SET_XTND_REG32((void CYFAR *)(CYREG_HSIOM_PORT_SEL3), 0x300000EEu);
 573              		.loc 1 588 0
 574 0204 344B     		ldr	r3, .L19+36
 575 0206 354A     		ldr	r2, .L19+40
 576 0208 1A60     		str	r2, [r3]
 589:Generated_Source\PSoC4/cyfitter_cfg.c **** 
 590:Generated_Source\PSoC4/cyfitter_cfg.c **** 		/* UDB_PA_0 Starting address: CYDEV_UDB_PA0_BASE */
 591:Generated_Source\PSoC4/cyfitter_cfg.c **** 		CY_SET_XTND_REG32((void CYFAR *)(CYDEV_UDB_PA0_BASE), 0x00990000u);
 577              		.loc 1 591 0
 578 020a 354B     		ldr	r3, .L19+44
 579 020c 9922     		mov	r2, #153
 580 020e 1204     		lsl	r2, r2, #16
 581 0210 1A60     		str	r2, [r3]
 592:Generated_Source\PSoC4/cyfitter_cfg.c **** 
 593:Generated_Source\PSoC4/cyfitter_cfg.c **** 		/* UDB_PA_1 Starting address: CYDEV_UDB_PA1_BASE */
 594:Generated_Source\PSoC4/cyfitter_cfg.c **** 		CY_SET_XTND_REG32((void CYFAR *)(CYDEV_UDB_PA1_BASE), 0x00990000u);
 582              		.loc 1 594 0
 583 0212 344B     		ldr	r3, .L19+48
 584 0214 9922     		mov	r2, #153
 585 0216 1204     		lsl	r2, r2, #16
 586 0218 1A60     		str	r2, [r3]
 595:Generated_Source\PSoC4/cyfitter_cfg.c **** 
 596:Generated_Source\PSoC4/cyfitter_cfg.c **** 		/* UDB_PA_2 Starting address: CYDEV_UDB_PA2_BASE */
 597:Generated_Source\PSoC4/cyfitter_cfg.c **** 		CY_SET_XTND_REG32((void CYFAR *)(CYDEV_UDB_PA2_BASE), 0x00990000u);
 587              		.loc 1 597 0
 588 021a 334B     		ldr	r3, .L19+52
 589 021c 9922     		mov	r2, #153
 590 021e 1204     		lsl	r2, r2, #16
 591 0220 1A60     		str	r2, [r3]
 598:Generated_Source\PSoC4/cyfitter_cfg.c **** 
 599:Generated_Source\PSoC4/cyfitter_cfg.c **** 		/* UDB_PA_3 Starting address: CYDEV_UDB_PA3_BASE */
 600:Generated_Source\PSoC4/cyfitter_cfg.c **** 		CY_SET_XTND_REG32((void CYFAR *)(CYDEV_UDB_PA3_BASE), 0x00990000u);
 592              		.loc 1 600 0
ARM GAS  C:\Users\Petro\AppData\Local\Temp\ccOsH0Vc.s 			page 22


 593 0222 324B     		ldr	r3, .L19+56
 594 0224 9922     		mov	r2, #153
 595 0226 1204     		lsl	r2, r2, #16
 596 0228 1A60     		str	r2, [r3]
 601:Generated_Source\PSoC4/cyfitter_cfg.c **** 		CY_SET_XTND_REG32((void CYFAR *)(CYREG_UDB_PA3_CFG8), 0x40000000u);
 597              		.loc 1 601 0
 598 022a 314B     		ldr	r3, .L19+60
 599 022c 8022     		mov	r2, #128
 600 022e D205     		lsl	r2, r2, #23
 601 0230 1A60     		str	r2, [r3]
 602:Generated_Source\PSoC4/cyfitter_cfg.c **** 
 603:Generated_Source\PSoC4/cyfitter_cfg.c **** 		/* INT_SELECT Starting address: CYDEV_CPUSS_INT_SEL */
 604:Generated_Source\PSoC4/cyfitter_cfg.c **** 		CY_SET_XTND_REG32((void CYFAR *)(CYREG_CPUSS_INT_SEL), 0x00000002u);
 602              		.loc 1 604 0
 603 0232 304B     		ldr	r3, .L19+64
 604 0234 0222     		mov	r2, #2
 605 0236 1A60     		str	r2, [r3]
 605:Generated_Source\PSoC4/cyfitter_cfg.c **** 
 606:Generated_Source\PSoC4/cyfitter_cfg.c **** 		/* INT_CONFIG Starting address: CYDEV_UDB_INT_CFG */
 607:Generated_Source\PSoC4/cyfitter_cfg.c **** 		CY_SET_XTND_REG32((void CYFAR *)(CYREG_UDB_INT_CFG), 0x00000002u);
 606              		.loc 1 607 0
 607 0238 2F4B     		ldr	r3, .L19+68
 608 023a 0222     		mov	r2, #2
 609 023c 1A60     		str	r2, [r3]
 608:Generated_Source\PSoC4/cyfitter_cfg.c **** 
 609:Generated_Source\PSoC4/cyfitter_cfg.c **** 		/* Enable digital routing */
 610:Generated_Source\PSoC4/cyfitter_cfg.c **** 		CY_SET_XTND_REG8((void *)CYREG_UDB_UDBIF_BANK_CTL, CY_GET_XTND_REG8((void *)CYREG_UDB_UDBIF_BANK_
 610              		.loc 1 610 0
 611 023e 2F4A     		ldr	r2, .L19+72
 612 0240 2E4B     		ldr	r3, .L19+72
 613 0242 1B78     		ldrb	r3, [r3]
 614 0244 DBB2     		uxtb	r3, r3
 615 0246 0221     		mov	r1, #2
 616 0248 0B43     		orr	r3, r1
 617 024a DBB2     		uxtb	r3, r3
 618 024c 1370     		strb	r3, [r2]
 611:Generated_Source\PSoC4/cyfitter_cfg.c **** 
 612:Generated_Source\PSoC4/cyfitter_cfg.c **** 		/* Enable UDB array */
 613:Generated_Source\PSoC4/cyfitter_cfg.c **** 		CY_SET_XTND_REG8((void *)CYREG_UDB_UDBIF_WAIT_CFG, (uint8)((CY_GET_XTND_REG8((void *)CYREG_UDB_UD
 619              		.loc 1 613 0
 620 024e 2C4A     		ldr	r2, .L19+76
 621 0250 2B4B     		ldr	r3, .L19+76
 622 0252 1B78     		ldrb	r3, [r3]
 623 0254 DBB2     		uxtb	r3, r3
 624 0256 3C21     		mov	r1, #60
 625 0258 8B43     		bic	r3, r1
 626 025a DBB2     		uxtb	r3, r3
 627 025c 1421     		mov	r1, #20
 628 025e 0B43     		orr	r3, r1
 629 0260 DBB2     		uxtb	r3, r3
 630 0262 1370     		strb	r3, [r2]
 614:Generated_Source\PSoC4/cyfitter_cfg.c **** 		CY_SET_XTND_REG8((void *)CYREG_UDB_UDBIF_BANK_CTL, (uint8)(CY_GET_XTND_REG8((void *)CYREG_UDB_UDB
 631              		.loc 1 614 0
 632 0264 254A     		ldr	r2, .L19+72
 633 0266 254B     		ldr	r3, .L19+72
 634 0268 1B78     		ldrb	r3, [r3]
 635 026a DBB2     		uxtb	r3, r3
ARM GAS  C:\Users\Petro\AppData\Local\Temp\ccOsH0Vc.s 			page 23


 636 026c 1621     		mov	r1, #22
 637 026e 0B43     		orr	r3, r1
 638 0270 DBB2     		uxtb	r3, r3
 639 0272 1370     		strb	r3, [r2]
 640              	.LBE3:
 615:Generated_Source\PSoC4/cyfitter_cfg.c **** 	}
 616:Generated_Source\PSoC4/cyfitter_cfg.c **** 
 617:Generated_Source\PSoC4/cyfitter_cfg.c **** 	/* Perform second pass device configuration. These items must be configured in specific order afte
 618:Generated_Source\PSoC4/cyfitter_cfg.c **** 	/* IOPINS0_0 Starting address: CYDEV_GPIO_PRT0_BASE */
 619:Generated_Source\PSoC4/cyfitter_cfg.c **** 	CY_SET_XTND_REG32((void CYFAR *)(CYDEV_GPIO_PRT0_BASE), 0x00000006u);
 641              		.loc 1 619 0
 642 0274 234B     		ldr	r3, .L19+80
 643 0276 0622     		mov	r2, #6
 644 0278 1A60     		str	r2, [r3]
 620:Generated_Source\PSoC4/cyfitter_cfg.c **** 	CY_SET_XTND_REG32((void CYFAR *)(CYREG_GPIO_PRT0_PC), 0x00D836B1u);
 645              		.loc 1 620 0
 646 027a 234B     		ldr	r3, .L19+84
 647 027c 234A     		ldr	r2, .L19+88
 648 027e 1A60     		str	r2, [r3]
 621:Generated_Source\PSoC4/cyfitter_cfg.c **** 	CY_SET_XTND_REG32((void CYFAR *)(CYREG_GPIO_PRT0_PC2), 0x00000002u);
 649              		.loc 1 621 0
 650 0280 234B     		ldr	r3, .L19+92
 651 0282 0222     		mov	r2, #2
 652 0284 1A60     		str	r2, [r3]
 622:Generated_Source\PSoC4/cyfitter_cfg.c **** 
 623:Generated_Source\PSoC4/cyfitter_cfg.c **** 	/* IOPINS0_1 Starting address: CYDEV_GPIO_PRT1_BASE */
 624:Generated_Source\PSoC4/cyfitter_cfg.c **** 	CY_SET_XTND_REG32((void CYFAR *)(CYREG_GPIO_PRT1_PC), 0x007B6DB6u);
 653              		.loc 1 624 0
 654 0286 234B     		ldr	r3, .L19+96
 655 0288 234A     		ldr	r2, .L19+100
 656 028a 1A60     		str	r2, [r3]
 625:Generated_Source\PSoC4/cyfitter_cfg.c **** 
 626:Generated_Source\PSoC4/cyfitter_cfg.c **** 	/* IOPINS0_2 Starting address: CYDEV_GPIO_PRT2_BASE */
 627:Generated_Source\PSoC4/cyfitter_cfg.c **** 	CY_SET_XTND_REG32((void CYFAR *)(CYDEV_GPIO_PRT2_BASE), 0x00000010u);
 657              		.loc 1 627 0
 658 028c 234B     		ldr	r3, .L19+104
 659 028e 1022     		mov	r2, #16
 660 0290 1A60     		str	r2, [r3]
 628:Generated_Source\PSoC4/cyfitter_cfg.c **** 	CY_SET_XTND_REG32((void CYFAR *)(CYREG_GPIO_PRT2_PC), 0x000323B6u);
 661              		.loc 1 628 0
 662 0292 234B     		ldr	r3, .L19+108
 663 0294 234A     		ldr	r2, .L19+112
 664 0296 1A60     		str	r2, [r3]
 629:Generated_Source\PSoC4/cyfitter_cfg.c **** 
 630:Generated_Source\PSoC4/cyfitter_cfg.c **** 	/* IOPINS0_3 Starting address: CYDEV_GPIO_PRT3_BASE */
 631:Generated_Source\PSoC4/cyfitter_cfg.c **** 	CY_SET_XTND_REG32((void CYFAR *)(CYDEV_GPIO_PRT3_BASE), 0x00000083u);
 665              		.loc 1 631 0
 666 0298 234B     		ldr	r3, .L19+116
 667 029a 8322     		mov	r2, #131
 668 029c 1A60     		str	r2, [r3]
 632:Generated_Source\PSoC4/cyfitter_cfg.c **** 	CY_SET_XTND_REG32((void CYFAR *)(CYREG_GPIO_PRT3_PC), 0x00C00024u);
 669              		.loc 1 632 0
 670 029e 234B     		ldr	r3, .L19+120
 671 02a0 234A     		ldr	r2, .L19+124
 672 02a2 1A60     		str	r2, [r3]
 633:Generated_Source\PSoC4/cyfitter_cfg.c **** 
 634:Generated_Source\PSoC4/cyfitter_cfg.c **** 
ARM GAS  C:\Users\Petro\AppData\Local\Temp\ccOsH0Vc.s 			page 24


 635:Generated_Source\PSoC4/cyfitter_cfg.c **** 	/* Setup clocks based on selections from Clock DWR */
 636:Generated_Source\PSoC4/cyfitter_cfg.c **** 	ClockSetup();
 673              		.loc 1 636 0
 674 02a4 FFF7ACFE 		bl	ClockSetup
 637:Generated_Source\PSoC4/cyfitter_cfg.c **** 
 638:Generated_Source\PSoC4/cyfitter_cfg.c **** 	/* Perform basic analog initialization to defaults */
 639:Generated_Source\PSoC4/cyfitter_cfg.c **** 	AnalogSetDefault();
 675              		.loc 1 639 0
 676 02a8 FFF7FEFF 		bl	AnalogSetDefault
 640:Generated_Source\PSoC4/cyfitter_cfg.c **** 
 641:Generated_Source\PSoC4/cyfitter_cfg.c **** }
 677              		.loc 1 641 0
 678 02ac BD46     		mov	sp, r7
 679 02ae 02B0     		add	sp, sp, #8
 680              		@ sp needed
 681 02b0 80BD     		pop	{r7, pc}
 682              	.L20:
 683 02b2 C046     		.align	2
 684              	.L19:
 685 02b4 6CF02E40 		.word	1076818028
 686 02b8 1C700F40 		.word	1074753564
 687 02bc 00000000 		.word	cfg_memset_list.4784
 688 02c0 0C000000 		.word	cy_cfg_addr_table.4778
 689 02c4 34000000 		.word	cy_cfg_data_table.4779
 690 02c8 00600F40 		.word	1074749440
 691 02cc 02600F40 		.word	1074749442
 692 02d0 00000240 		.word	1073872896
 693 02d4 990000EE 		.word	-301989735
 694 02d8 00030240 		.word	1073873664
 695 02dc EE000030 		.word	805306606
 696 02e0 00500F40 		.word	1074745344
 697 02e4 10500F40 		.word	1074745360
 698 02e8 20500F40 		.word	1074745376
 699 02ec 30500F40 		.word	1074745392
 700 02f0 38500F40 		.word	1074745400
 701 02f4 20001040 		.word	1074790432
 702 02f8 00800F40 		.word	1074757632
 703 02fc 00700F40 		.word	1074753536
 704 0300 01700F40 		.word	1074753537
 705 0304 00000440 		.word	1074003968
 706 0308 08000440 		.word	1074003976
 707 030c B136D800 		.word	14169777
 708 0310 18000440 		.word	1074003992
 709 0314 08010440 		.word	1074004232
 710 0318 B66D7B00 		.word	8089014
 711 031c 00020440 		.word	1074004480
 712 0320 08020440 		.word	1074004488
 713 0324 B6230300 		.word	205750
 714 0328 00030440 		.word	1074004736
 715 032c 08030440 		.word	1074004744
 716 0330 2400C000 		.word	12582948
 717              		.cfi_endproc
 718              	.LFE8:
 719              		.size	cyfitter_cfg, .-cyfitter_cfg
 720              		.section	.rodata
 721              		.align	2
 722              		.type	cfg_memset_list.4784, %object
ARM GAS  C:\Users\Petro\AppData\Local\Temp\ccOsH0Vc.s 			page 25


 723              		.size	cfg_memset_list.4784, 12
 724              	cfg_memset_list.4784:
 725 0000 00300F40 		.word	1074737152
 726 0004 0004     		.short	1024
 727 0006 00400F40 		.4byte	1074741248
 728 000a 0004     		.short	1024
 729              		.align	2
 730              		.type	cy_cfg_addr_table.4778, %object
 731              		.size	cy_cfg_addr_table.4778, 40
 732              	cy_cfg_addr_table.4778:
 733 000c 02000F40 		.word	1074724866
 734 0010 3E300F40 		.word	1074737214
 735 0014 1B310F40 		.word	1074737435
 736 0018 44320F40 		.word	1074737732
 737 001c 2A330F40 		.word	1074737962
 738 0020 02400F40 		.word	1074741250
 739 0024 06410F40 		.word	1074741510
 740 0028 04420F40 		.word	1074741764
 741 002c 03430F40 		.word	1074742019
 742 0030 02600F40 		.word	1074749442
 743              		.align	2
 744              		.type	cy_cfg_data_table.4779, %object
 745              		.size	cy_cfg_data_table.4779, 436
 746              	cy_cfg_data_table.4779:
 747 0034 82       		.byte	-126
 748 0035 0D       		.byte	13
 749 0036 83       		.byte	-125
 750 0037 0D       		.byte	13
 751 0038 40       		.byte	64
 752 0039 41       		.byte	65
 753 003a 49       		.byte	73
 754 003b FF       		.byte	-1
 755 003c 4A       		.byte	74
 756 003d FF       		.byte	-1
 757 003e 4B       		.byte	75
 758 003f FF       		.byte	-1
 759 0040 4F       		.byte	79
 760 0041 01       		.byte	1
 761 0042 50       		.byte	80
 762 0043 18       		.byte	24
 763 0044 56       		.byte	86
 764 0045 08       		.byte	8
 765 0046 5A       		.byte	90
 766 0047 0A       		.byte	10
 767 0048 5B       		.byte	91
 768 0049 04       		.byte	4
 769 004a 5D       		.byte	93
 770 004b 99       		.byte	-103
 771 004c 5F       		.byte	95
 772 004d 01       		.byte	1
 773 004e 60       		.byte	96
 774 004f 40       		.byte	64
 775 0050 62       		.byte	98
 776 0051 40       		.byte	64
 777 0052 64       		.byte	100
 778 0053 40       		.byte	64
 779 0054 65       		.byte	101
ARM GAS  C:\Users\Petro\AppData\Local\Temp\ccOsH0Vc.s 			page 26


 780 0055 40       		.byte	64
 781 0056 66       		.byte	102
 782 0057 80       		.byte	-128
 783 0058 68       		.byte	104
 784 0059 80       		.byte	-128
 785 005a 6A       		.byte	106
 786 005b 80       		.byte	-128
 787 005c 6C       		.byte	108
 788 005d 80       		.byte	-128
 789 005e 6E       		.byte	110
 790 005f 80       		.byte	-128
 791 0060 83       		.byte	-125
 792 0061 2E       		.byte	46
 793 0062 8D       		.byte	-115
 794 0063 02       		.byte	2
 795 0064 8F       		.byte	-113
 796 0065 10       		.byte	16
 797 0066 90       		.byte	-112
 798 0067 01       		.byte	1
 799 0068 95       		.byte	-107
 800 0069 1E       		.byte	30
 801 006a 99       		.byte	-103
 802 006b 04       		.byte	4
 803 006c 9B       		.byte	-101
 804 006d 11       		.byte	17
 805 006e A9       		.byte	-87
 806 006f 08       		.byte	8
 807 0070 AB       		.byte	-85
 808 0071 11       		.byte	17
 809 0072 B1       		.byte	-79
 810 0073 0E       		.byte	14
 811 0074 B3       		.byte	-77
 812 0075 20       		.byte	32
 813 0076 B5       		.byte	-75
 814 0077 10       		.byte	16
 815 0078 B6       		.byte	-74
 816 0079 01       		.byte	1
 817 007a B7       		.byte	-73
 818 007b 01       		.byte	1
 819 007c BB       		.byte	-69
 820 007d 20       		.byte	32
 821 007e BE       		.byte	-66
 822 007f 40       		.byte	64
 823 0080 BF       		.byte	-65
 824 0081 40       		.byte	64
 825 0082 C0       		.byte	-64
 826 0083 13       		.byte	19
 827 0084 C9       		.byte	-55
 828 0085 FF       		.byte	-1
 829 0086 CA       		.byte	-54
 830 0087 FF       		.byte	-1
 831 0088 CB       		.byte	-53
 832 0089 FF       		.byte	-1
 833 008a CD       		.byte	-51
 834 008b 83       		.byte	-125
 835 008c CE       		.byte	-50
 836 008d 03       		.byte	3
ARM GAS  C:\Users\Petro\AppData\Local\Temp\ccOsH0Vc.s 			page 27


 837 008e CF       		.byte	-49
 838 008f 01       		.byte	1
 839 0090 D0       		.byte	-48
 840 0091 18       		.byte	24
 841 0092 D2       		.byte	-46
 842 0093 80       		.byte	-128
 843 0094 D8       		.byte	-40
 844 0095 04       		.byte	4
 845 0096 D9       		.byte	-39
 846 0097 0A       		.byte	10
 847 0098 DA       		.byte	-38
 848 0099 0A       		.byte	10
 849 009a DB       		.byte	-37
 850 009b 0B       		.byte	11
 851 009c DC       		.byte	-36
 852 009d 90       		.byte	-112
 853 009e DD       		.byte	-35
 854 009f 99       		.byte	-103
 855 00a0 DF       		.byte	-33
 856 00a1 01       		.byte	1
 857 00a2 E0       		.byte	-32
 858 00a3 40       		.byte	64
 859 00a4 E2       		.byte	-30
 860 00a5 40       		.byte	64
 861 00a6 E4       		.byte	-28
 862 00a7 40       		.byte	64
 863 00a8 E5       		.byte	-27
 864 00a9 40       		.byte	64
 865 00aa E6       		.byte	-26
 866 00ab 80       		.byte	-128
 867 00ac E8       		.byte	-24
 868 00ad 80       		.byte	-128
 869 00ae EA       		.byte	-22
 870 00af 80       		.byte	-128
 871 00b0 EC       		.byte	-20
 872 00b1 80       		.byte	-128
 873 00b2 EE       		.byte	-18
 874 00b3 80       		.byte	-128
 875 00b4 0F       		.byte	15
 876 00b5 80       		.byte	-128
 877 00b6 1F       		.byte	31
 878 00b7 80       		.byte	-128
 879 00b8 24       		.byte	36
 880 00b9 40       		.byte	64
 881 00ba 26       		.byte	38
 882 00bb 40       		.byte	64
 883 00bc 27       		.byte	39
 884 00bd 68       		.byte	104
 885 00be 2F       		.byte	47
 886 00bf 08       		.byte	8
 887 00c0 37       		.byte	55
 888 00c1 28       		.byte	40
 889 00c2 3C       		.byte	60
 890 00c3 42       		.byte	66
 891 00c4 40       		.byte	64
 892 00c5 40       		.byte	64
 893 00c6 42       		.byte	66
ARM GAS  C:\Users\Petro\AppData\Local\Temp\ccOsH0Vc.s 			page 28


 894 00c7 02       		.byte	2
 895 00c8 46       		.byte	70
 896 00c9 20       		.byte	32
 897 00ca 47       		.byte	71
 898 00cb 40       		.byte	64
 899 00cc 58       		.byte	88
 900 00cd A0       		.byte	-96
 901 00ce 60       		.byte	96
 902 00cf 08       		.byte	8
 903 00d0 62       		.byte	98
 904 00d1 A0       		.byte	-96
 905 00d2 74       		.byte	116
 906 00d3 01       		.byte	1
 907 00d4 78       		.byte	120
 908 00d5 08       		.byte	8
 909 00d6 7E       		.byte	126
 910 00d7 A0       		.byte	-96
 911 00d8 8C       		.byte	-116
 912 00d9 A0       		.byte	-96
 913 00da C2       		.byte	-62
 914 00db 10       		.byte	16
 915 00dc CA       		.byte	-54
 916 00dd 20       		.byte	32
 917 00de CC       		.byte	-52
 918 00df 60       		.byte	96
 919 00e0 CE       		.byte	-50
 920 00e1 90       		.byte	-112
 921 00e2 D0       		.byte	-48
 922 00e3 59       		.byte	89
 923 00e4 D6       		.byte	-42
 924 00e5 0C       		.byte	12
 925 00e6 D8       		.byte	-40
 926 00e7 0C       		.byte	12
 927 00e8 DE       		.byte	-34
 928 00e9 C2       		.byte	-62
 929 00ea 40       		.byte	64
 930 00eb 15       		.byte	21
 931 00ec 45       		.byte	69
 932 00ed EC       		.byte	-20
 933 00ee 46       		.byte	70
 934 00ef 22       		.byte	34
 935 00f0 47       		.byte	71
 936 00f1 22       		.byte	34
 937 00f2 48       		.byte	72
 938 00f3 3F       		.byte	63
 939 00f4 49       		.byte	73
 940 00f5 FF       		.byte	-1
 941 00f6 4A       		.byte	74
 942 00f7 FF       		.byte	-1
 943 00f8 4B       		.byte	75
 944 00f9 FF       		.byte	-1
 945 00fa 4D       		.byte	77
 946 00fb 83       		.byte	-125
 947 00fc 4E       		.byte	78
 948 00fd 03       		.byte	3
 949 00fe 4F       		.byte	79
 950 00ff 01       		.byte	1
ARM GAS  C:\Users\Petro\AppData\Local\Temp\ccOsH0Vc.s 			page 29


 951 0100 50       		.byte	80
 952 0101 18       		.byte	24
 953 0102 54       		.byte	84
 954 0103 01       		.byte	1
 955 0104 5A       		.byte	90
 956 0105 0A       		.byte	10
 957 0106 5B       		.byte	91
 958 0107 0A       		.byte	10
 959 0108 5D       		.byte	93
 960 0109 99       		.byte	-103
 961 010a 5F       		.byte	95
 962 010b 01       		.byte	1
 963 010c 60       		.byte	96
 964 010d 40       		.byte	64
 965 010e 62       		.byte	98
 966 010f 40       		.byte	64
 967 0110 64       		.byte	100
 968 0111 40       		.byte	64
 969 0112 65       		.byte	101
 970 0113 40       		.byte	64
 971 0114 66       		.byte	102
 972 0115 80       		.byte	-128
 973 0116 68       		.byte	104
 974 0117 80       		.byte	-128
 975 0118 6A       		.byte	106
 976 0119 80       		.byte	-128
 977 011a 6C       		.byte	108
 978 011b 80       		.byte	-128
 979 011c 6E       		.byte	110
 980 011d 80       		.byte	-128
 981 011e 86       		.byte	-122
 982 011f 02       		.byte	2
 983 0120 88       		.byte	-120
 984 0121 01       		.byte	1
 985 0122 8D       		.byte	-115
 986 0123 04       		.byte	4
 987 0124 9A       		.byte	-102
 988 0125 02       		.byte	2
 989 0126 9B       		.byte	-101
 990 0127 01       		.byte	1
 991 0128 A7       		.byte	-89
 992 0129 07       		.byte	7
 993 012a AF       		.byte	-81
 994 012b 08       		.byte	8
 995 012c B1       		.byte	-79
 996 012d 02       		.byte	2
 997 012e B2       		.byte	-78
 998 012f 02       		.byte	2
 999 0130 B3       		.byte	-77
 1000 0131 01       		.byte	1
 1001 0132 B5       		.byte	-75
 1002 0133 08       		.byte	8
 1003 0134 B6       		.byte	-74
 1004 0135 01       		.byte	1
 1005 0136 B7       		.byte	-73
 1006 0137 04       		.byte	4
 1007 0138 BE       		.byte	-66
ARM GAS  C:\Users\Petro\AppData\Local\Temp\ccOsH0Vc.s 			page 30


 1008 0139 44       		.byte	68
 1009 013a C0       		.byte	-64
 1010 013b 20       		.byte	32
 1011 013c C1       		.byte	-63
 1012 013d 06       		.byte	6
 1013 013e C5       		.byte	-59
 1014 013f D0       		.byte	-48
 1015 0140 C6       		.byte	-58
 1016 0141 20       		.byte	32
 1017 0142 C7       		.byte	-57
 1018 0143 01       		.byte	1
 1019 0144 C8       		.byte	-56
 1020 0145 1A       		.byte	26
 1021 0146 C9       		.byte	-55
 1022 0147 FF       		.byte	-1
 1023 0148 CA       		.byte	-54
 1024 0149 FF       		.byte	-1
 1025 014a CB       		.byte	-53
 1026 014b FF       		.byte	-1
 1027 014c CD       		.byte	-51
 1028 014d A0       		.byte	-96
 1029 014e CF       		.byte	-49
 1030 014f 04       		.byte	4
 1031 0150 D0       		.byte	-48
 1032 0151 18       		.byte	24
 1033 0152 D2       		.byte	-46
 1034 0153 80       		.byte	-128
 1035 0154 D4       		.byte	-44
 1036 0155 05       		.byte	5
 1037 0156 D8       		.byte	-40
 1038 0157 04       		.byte	4
 1039 0158 D9       		.byte	-39
 1040 0159 04       		.byte	4
 1041 015a DA       		.byte	-38
 1042 015b 04       		.byte	4
 1043 015c DB       		.byte	-37
 1044 015d 04       		.byte	4
 1045 015e DF       		.byte	-33
 1046 015f 01       		.byte	1
 1047 0160 E0       		.byte	-32
 1048 0161 40       		.byte	64
 1049 0162 E2       		.byte	-30
 1050 0163 C0       		.byte	-64
 1051 0164 E4       		.byte	-28
 1052 0165 40       		.byte	64
 1053 0166 E5       		.byte	-27
 1054 0167 40       		.byte	64
 1055 0168 E6       		.byte	-26
 1056 0169 C0       		.byte	-64
 1057 016a E8       		.byte	-24
 1058 016b C0       		.byte	-64
 1059 016c EA       		.byte	-22
 1060 016d C0       		.byte	-64
 1061 016e EC       		.byte	-20
 1062 016f C0       		.byte	-64
 1063 0170 EE       		.byte	-18
 1064 0171 C0       		.byte	-64
ARM GAS  C:\Users\Petro\AppData\Local\Temp\ccOsH0Vc.s 			page 31


 1065 0172 00       		.byte	0
 1066 0173 10       		.byte	16
 1067 0174 03       		.byte	3
 1068 0175 20       		.byte	32
 1069 0176 09       		.byte	9
 1070 0177 20       		.byte	32
 1071 0178 19       		.byte	25
 1072 0179 04       		.byte	4
 1073 017a 1B       		.byte	27
 1074 017b 80       		.byte	-128
 1075 017c 20       		.byte	32
 1076 017d 50       		.byte	80
 1077 017e 21       		.byte	33
 1078 017f 20       		.byte	32
 1079 0180 22       		.byte	34
 1080 0181 40       		.byte	64
 1081 0182 2A       		.byte	42
 1082 0183 84       		.byte	-124
 1083 0184 31       		.byte	49
 1084 0185 20       		.byte	32
 1085 0186 38       		.byte	56
 1086 0187 40       		.byte	64
 1087 0188 41       		.byte	65
 1088 0189 20       		.byte	32
 1089 018a 47       		.byte	71
 1090 018b 40       		.byte	64
 1091 018c 49       		.byte	73
 1092 018d 01       		.byte	1
 1093 018e 4B       		.byte	75
 1094 018f 20       		.byte	32
 1095 0190 4F       		.byte	79
 1096 0191 85       		.byte	-123
 1097 0192 52       		.byte	82
 1098 0193 04       		.byte	4
 1099 0194 53       		.byte	83
 1100 0195 30       		.byte	48
 1101 0196 56       		.byte	86
 1102 0197 22       		.byte	34
 1103 0198 57       		.byte	87
 1104 0199 48       		.byte	72
 1105 019a 59       		.byte	89
 1106 019b 05       		.byte	5
 1107 019c 5A       		.byte	90
 1108 019d 80       		.byte	-128
 1109 019e 5E       		.byte	94
 1110 019f 80       		.byte	-128
 1111 01a0 5F       		.byte	95
 1112 01a1 05       		.byte	5
 1113 01a2 72       		.byte	114
 1114 01a3 80       		.byte	-128
 1115 01a4 7E       		.byte	126
 1116 01a5 20       		.byte	32
 1117 01a6 83       		.byte	-125
 1118 01a7 80       		.byte	-128
 1119 01a8 9B       		.byte	-101
 1120 01a9 40       		.byte	64
 1121 01aa 9E       		.byte	-98
ARM GAS  C:\Users\Petro\AppData\Local\Temp\ccOsH0Vc.s 			page 32


 1122 01ab 22       		.byte	34
 1123 01ac A2       		.byte	-94
 1124 01ad 60       		.byte	96
 1125 01ae A7       		.byte	-89
 1126 01af 08       		.byte	8
 1127 01b0 AB       		.byte	-85
 1128 01b1 C0       		.byte	-64
 1129 01b2 C0       		.byte	-64
 1130 01b3 06       		.byte	6
 1131 01b4 C2       		.byte	-62
 1132 01b5 02       		.byte	2
 1133 01b6 CA       		.byte	-54
 1134 01b7 0A       		.byte	10
 1135 01b8 CC       		.byte	-52
 1136 01b9 04       		.byte	4
 1137 01ba CE       		.byte	-50
 1138 01bb 08       		.byte	8
 1139 01bc D0       		.byte	-48
 1140 01bd 14       		.byte	20
 1141 01be D2       		.byte	-46
 1142 01bf 14       		.byte	20
 1143 01c0 D6       		.byte	-42
 1144 01c1 DB       		.byte	-37
 1145 01c2 DE       		.byte	-34
 1146 01c3 40       		.byte	64
 1147 01c4 E4       		.byte	-28
 1148 01c5 04       		.byte	4
 1149 01c6 03       		.byte	3
 1150 01c7 02       		.byte	2
 1151 01c8 C0       		.byte	-64
 1152 01c9 40       		.byte	64
 1153 01ca 6F       		.byte	111
 1154 01cb 20       		.byte	32
 1155 01cc A3       		.byte	-93
 1156 01cd 20       		.byte	32
 1157 01ce AB       		.byte	-85
 1158 01cf 22       		.byte	34
 1159 01d0 DA       		.byte	-38
 1160 01d1 80       		.byte	-128
 1161 01d2 E8       		.byte	-24
 1162 01d3 20       		.byte	32
 1163 01d4 EE       		.byte	-18
 1164 01d5 20       		.byte	32
 1165 01d6 24       		.byte	36
 1166 01d7 50       		.byte	80
 1167 01d8 8C       		.byte	-116
 1168 01d9 50       		.byte	80
 1169 01da C8       		.byte	-56
 1170 01db 01       		.byte	1
 1171 01dc E2       		.byte	-30
 1172 01dd 0A       		.byte	10
 1173 01de 67       		.byte	103
 1174 01df 02       		.byte	2
 1175 01e0 83       		.byte	-125
 1176 01e1 01       		.byte	1
 1177 01e2 D6       		.byte	-42
 1178 01e3 01       		.byte	1
ARM GAS  C:\Users\Petro\AppData\Local\Temp\ccOsH0Vc.s 			page 33


 1179 01e4 10       		.byte	16
 1180 01e5 01       		.byte	1
 1181 01e6 11       		.byte	17
 1182 01e7 01       		.byte	1
 1183              		.text
 1184              	.Letext0:
 1185              		.file 2 "c:\\program files (x86)\\cypress\\psoc creator\\4.0\\psoc creator\\import\\gnu\\arm\\4.9.
 1186              		.file 3 "Generated_Source\\PSoC4\\cytypes.h"