ARM GAS  C:\Users\Petro\AppData\Local\Temp\ccd3b28V.s 			page 1


   1              		.cpu cortex-m0
   2              		.fpu softvfp
   3              		.eabi_attribute 20, 1
   4              		.eabi_attribute 21, 1
   5              		.eabi_attribute 23, 3
   6              		.eabi_attribute 24, 1
   7              		.eabi_attribute 25, 1
   8              		.eabi_attribute 26, 1
   9              		.eabi_attribute 30, 6
  10              		.eabi_attribute 34, 0
  11              		.eabi_attribute 18, 4
  12              		.code	16
  13              		.file	"logResult.c"
  14              		.text
  15              	.Ltext0:
  16              		.cfi_sections	.debug_frame
  17              		.section	.text.RTC_GetSecond,"ax",%progbits
  18              		.align	2
  19              		.code	16
  20              		.thumb_func
  21              		.type	RTC_GetSecond, %function
  22              	RTC_GetSecond:
  23              	.LFB4:
  24              		.file 1 "Generated_Source\\PSoC4/RTC.h"
   1:Generated_Source\PSoC4/RTC.h **** /***************************************************************************//**
   2:Generated_Source\PSoC4/RTC.h **** * \file Name: RTC.h
   3:Generated_Source\PSoC4/RTC.h **** * \version 1.10
   4:Generated_Source\PSoC4/RTC.h **** *
   5:Generated_Source\PSoC4/RTC.h **** * \brief
   6:Generated_Source\PSoC4/RTC.h **** *  This file provides constants and parameter values for the RTC_P4 Component.
   7:Generated_Source\PSoC4/RTC.h **** *
   8:Generated_Source\PSoC4/RTC.h **** ********************************************************************************
   9:Generated_Source\PSoC4/RTC.h **** * Copyright 2015-2016, Cypress Semiconductor Corporation.  All rights reserved.
  10:Generated_Source\PSoC4/RTC.h **** * You may use this file only in accordance with the license, terms, conditions,
  11:Generated_Source\PSoC4/RTC.h **** * disclaimers, and limitations in the end user license agreement accompanying
  12:Generated_Source\PSoC4/RTC.h **** * the software package with which this file was provided.
  13:Generated_Source\PSoC4/RTC.h **** *******************************************************************************/
  14:Generated_Source\PSoC4/RTC.h **** 
  15:Generated_Source\PSoC4/RTC.h **** #if !defined(CY_RTC_P4_RTC_H)
  16:Generated_Source\PSoC4/RTC.h **** #define CY_RTC_P4_RTC_H
  17:Generated_Source\PSoC4/RTC.h **** 
  18:Generated_Source\PSoC4/RTC.h **** #include <cytypes.h>
  19:Generated_Source\PSoC4/RTC.h **** #include <CyLib.h>
  20:Generated_Source\PSoC4/RTC.h **** 
  21:Generated_Source\PSoC4/RTC.h **** 
  22:Generated_Source\PSoC4/RTC.h **** /*******************************************************************************
  23:Generated_Source\PSoC4/RTC.h **** *    Data types definition
  24:Generated_Source\PSoC4/RTC.h **** *******************************************************************************/
  25:Generated_Source\PSoC4/RTC.h **** 
  26:Generated_Source\PSoC4/RTC.h **** typedef enum
  27:Generated_Source\PSoC4/RTC.h **** {
  28:Generated_Source\PSoC4/RTC.h ****     RTC_DST_DATE_RELATIVE = 0u,
  29:Generated_Source\PSoC4/RTC.h ****     RTC_DST_DATE_FIXED = 1u
  30:Generated_Source\PSoC4/RTC.h **** }RTC_DST_DATETYPE_ENUM;
  31:Generated_Source\PSoC4/RTC.h **** 
  32:Generated_Source\PSoC4/RTC.h **** /**
  33:Generated_Source\PSoC4/RTC.h **** * \addtogroup group_structures
ARM GAS  C:\Users\Petro\AppData\Local\Temp\ccd3b28V.s 			page 2


  34:Generated_Source\PSoC4/RTC.h **** * @{
  35:Generated_Source\PSoC4/RTC.h **** */
  36:Generated_Source\PSoC4/RTC.h **** 
  37:Generated_Source\PSoC4/RTC.h **** /**
  38:Generated_Source\PSoC4/RTC.h **** * This is the data structure that is used to save the current time and date 
  39:Generated_Source\PSoC4/RTC.h **** * (RTC_currentTimeDate), and Alarm time and date (RTC_alarmCfgTimeDate).
  40:Generated_Source\PSoC4/RTC.h **** */
  41:Generated_Source\PSoC4/RTC.h **** typedef struct
  42:Generated_Source\PSoC4/RTC.h **** {
  43:Generated_Source\PSoC4/RTC.h ****     uint32 time;
  44:Generated_Source\PSoC4/RTC.h ****     uint32 date;
  45:Generated_Source\PSoC4/RTC.h ****     uint32 dayOfWeek;
  46:Generated_Source\PSoC4/RTC.h ****     uint32 status;
  47:Generated_Source\PSoC4/RTC.h **** }RTC_DATE_TIME;
  48:Generated_Source\PSoC4/RTC.h **** 
  49:Generated_Source\PSoC4/RTC.h **** /**
  50:Generated_Source\PSoC4/RTC.h **** * This is the data structure that is used to save time and date values for 
  51:Generated_Source\PSoC4/RTC.h **** * Daylight Savings Time Start and Stop (RTC_dstTimeDateStart and 
  52:Generated_Source\PSoC4/RTC.h **** * RTC_dstTimeDateStop).
  53:Generated_Source\PSoC4/RTC.h **** */
  54:Generated_Source\PSoC4/RTC.h **** typedef struct
  55:Generated_Source\PSoC4/RTC.h **** {
  56:Generated_Source\PSoC4/RTC.h ****     uint32 hour;
  57:Generated_Source\PSoC4/RTC.h ****     uint32 dayOfWeek;
  58:Generated_Source\PSoC4/RTC.h ****     uint32 dayOfMonth;
  59:Generated_Source\PSoC4/RTC.h ****     uint32 weekOfMonth;
  60:Generated_Source\PSoC4/RTC.h ****     uint32 month;
  61:Generated_Source\PSoC4/RTC.h ****     uint8  timeFormat;
  62:Generated_Source\PSoC4/RTC.h **** }RTC_DST_TIME;
  63:Generated_Source\PSoC4/RTC.h **** 
  64:Generated_Source\PSoC4/RTC.h **** /** @} structures */
  65:Generated_Source\PSoC4/RTC.h **** 
  66:Generated_Source\PSoC4/RTC.h **** /*******************************************************************************
  67:Generated_Source\PSoC4/RTC.h **** *    Enumerated Types and Parameters
  68:Generated_Source\PSoC4/RTC.h **** *******************************************************************************/
  69:Generated_Source\PSoC4/RTC.h **** /* Time Format setting constants */
  70:Generated_Source\PSoC4/RTC.h **** #define RTC__HOUR_12 1
  71:Generated_Source\PSoC4/RTC.h **** #define RTC__HOUR_24 0
  72:Generated_Source\PSoC4/RTC.h **** 
  73:Generated_Source\PSoC4/RTC.h **** /*  Date Format setting constants */
  74:Generated_Source\PSoC4/RTC.h **** #define RTC__MM_DD_YYYY 0
  75:Generated_Source\PSoC4/RTC.h **** #define RTC__DD_MM_YYYY 1
  76:Generated_Source\PSoC4/RTC.h **** #define RTC__YYYY_MM_DD 2
  77:Generated_Source\PSoC4/RTC.h **** 
  78:Generated_Source\PSoC4/RTC.h **** /* Date Type setting constants */
  79:Generated_Source\PSoC4/RTC.h **** #define RTC__RELATIVE 0
  80:Generated_Source\PSoC4/RTC.h **** #define RTC__FIXED 1
  81:Generated_Source\PSoC4/RTC.h **** 
  82:Generated_Source\PSoC4/RTC.h **** /* DST Hour setting constants */
  83:Generated_Source\PSoC4/RTC.h **** #define RTC__H0000 0
  84:Generated_Source\PSoC4/RTC.h **** #define RTC__H0100 1
  85:Generated_Source\PSoC4/RTC.h **** #define RTC__H0200 2
  86:Generated_Source\PSoC4/RTC.h **** #define RTC__H0300 3
  87:Generated_Source\PSoC4/RTC.h **** #define RTC__H0400 4
  88:Generated_Source\PSoC4/RTC.h **** #define RTC__H0500 5
  89:Generated_Source\PSoC4/RTC.h **** #define RTC__H0600 6
  90:Generated_Source\PSoC4/RTC.h **** #define RTC__H0700 7
ARM GAS  C:\Users\Petro\AppData\Local\Temp\ccd3b28V.s 			page 3


  91:Generated_Source\PSoC4/RTC.h **** #define RTC__H0800 8
  92:Generated_Source\PSoC4/RTC.h **** #define RTC__H0900 9
  93:Generated_Source\PSoC4/RTC.h **** #define RTC__H1000 10
  94:Generated_Source\PSoC4/RTC.h **** #define RTC__H1100 11
  95:Generated_Source\PSoC4/RTC.h **** #define RTC__H1200 12
  96:Generated_Source\PSoC4/RTC.h **** #define RTC__H1300 13
  97:Generated_Source\PSoC4/RTC.h **** #define RTC__H1400 14
  98:Generated_Source\PSoC4/RTC.h **** #define RTC__H1500 15
  99:Generated_Source\PSoC4/RTC.h **** #define RTC__H1600 16
 100:Generated_Source\PSoC4/RTC.h **** #define RTC__H1700 17
 101:Generated_Source\PSoC4/RTC.h **** #define RTC__H1800 18
 102:Generated_Source\PSoC4/RTC.h **** #define RTC__H1900 19
 103:Generated_Source\PSoC4/RTC.h **** #define RTC__H2000 20
 104:Generated_Source\PSoC4/RTC.h **** #define RTC__H2100 21
 105:Generated_Source\PSoC4/RTC.h **** #define RTC__H2200 22
 106:Generated_Source\PSoC4/RTC.h **** #define RTC__H2300 23
 107:Generated_Source\PSoC4/RTC.h **** 
 108:Generated_Source\PSoC4/RTC.h **** /* DST DayOfWeek setting constants */
 109:Generated_Source\PSoC4/RTC.h **** #define RTC__SUNDAY 1
 110:Generated_Source\PSoC4/RTC.h **** #define RTC__MONDAY 2
 111:Generated_Source\PSoC4/RTC.h **** #define RTC__TUESDAY 3
 112:Generated_Source\PSoC4/RTC.h **** #define RTC__WEDNESDAY 4
 113:Generated_Source\PSoC4/RTC.h **** #define RTC__THURSDAY 5
 114:Generated_Source\PSoC4/RTC.h **** #define RTC__FRIDAY 6
 115:Generated_Source\PSoC4/RTC.h **** #define RTC__SATURDAY 7
 116:Generated_Source\PSoC4/RTC.h **** 
 117:Generated_Source\PSoC4/RTC.h **** /* DST Month setting constants */
 118:Generated_Source\PSoC4/RTC.h **** #define RTC__JAN 1
 119:Generated_Source\PSoC4/RTC.h **** #define RTC__FEB 2
 120:Generated_Source\PSoC4/RTC.h **** #define RTC__MAR 3
 121:Generated_Source\PSoC4/RTC.h **** #define RTC__APR 4
 122:Generated_Source\PSoC4/RTC.h **** #define RTC__MAY 5
 123:Generated_Source\PSoC4/RTC.h **** #define RTC__JUN 6
 124:Generated_Source\PSoC4/RTC.h **** #define RTC__JUL 7
 125:Generated_Source\PSoC4/RTC.h **** #define RTC__AUG 8
 126:Generated_Source\PSoC4/RTC.h **** #define RTC__SEP 9
 127:Generated_Source\PSoC4/RTC.h **** #define RTC__OCT 10
 128:Generated_Source\PSoC4/RTC.h **** #define RTC__NOV 11
 129:Generated_Source\PSoC4/RTC.h **** #define RTC__DEC 12
 130:Generated_Source\PSoC4/RTC.h **** 
 131:Generated_Source\PSoC4/RTC.h **** /* DST WeekOfMonth setting constants */
 132:Generated_Source\PSoC4/RTC.h **** #define RTC__FIRST 1
 133:Generated_Source\PSoC4/RTC.h **** #define RTC__SECOND 2
 134:Generated_Source\PSoC4/RTC.h **** #define RTC__THIRD 3
 135:Generated_Source\PSoC4/RTC.h **** #define RTC__FOURTH 4
 136:Generated_Source\PSoC4/RTC.h **** #define RTC__FIFTH 5
 137:Generated_Source\PSoC4/RTC.h **** #define RTC__LAST 6
 138:Generated_Source\PSoC4/RTC.h **** 
 139:Generated_Source\PSoC4/RTC.h **** 
 140:Generated_Source\PSoC4/RTC.h **** #define RTC_INITIAL_DATA_FORMAT     (0u)
 141:Generated_Source\PSoC4/RTC.h **** #define RTC_INITIAL_TIME_FORMAT     (0u)
 142:Generated_Source\PSoC4/RTC.h **** #define RTC_INITIAL_UPDATE_MODE     (0u)
 143:Generated_Source\PSoC4/RTC.h **** #define RTC_INITIAL_SECOND          (0u)
 144:Generated_Source\PSoC4/RTC.h **** #define RTC_INITIAL_MINUTE          (16u)
 145:Generated_Source\PSoC4/RTC.h **** #define RTC_INITIAL_HOUR            (10u)
 146:Generated_Source\PSoC4/RTC.h **** #define RTC_INITIAL_DAY             (9u)
 147:Generated_Source\PSoC4/RTC.h **** #define RTC_INITIAL_MONTH           (8u)
ARM GAS  C:\Users\Petro\AppData\Local\Temp\ccd3b28V.s 			page 4


 148:Generated_Source\PSoC4/RTC.h **** #define RTC_INITIAL_YEAR            (2016u)
 149:Generated_Source\PSoC4/RTC.h **** 
 150:Generated_Source\PSoC4/RTC.h **** #define RTC_INITIAL_ALARM_STATUS    (0u)
 151:Generated_Source\PSoC4/RTC.h **** 
 152:Generated_Source\PSoC4/RTC.h **** #define RTC_INITIAL_DST_STATUS      (0u)
 153:Generated_Source\PSoC4/RTC.h **** #define RTC_INITIAL_DST_DATE_TYPE   (0u)
 154:Generated_Source\PSoC4/RTC.h **** #define RTC_INITIAL_DST_START_MONTH (3uL)
 155:Generated_Source\PSoC4/RTC.h **** #define RTC_INITIAL_DST_START_WOM   (6uL)
 156:Generated_Source\PSoC4/RTC.h **** #define RTC_INITIAL_DST_START_DOM   (22uL)
 157:Generated_Source\PSoC4/RTC.h **** #define RTC_INITIAL_DST_START_DOW   (1uL)
 158:Generated_Source\PSoC4/RTC.h **** #define RTC_INITIAL_DST_START_HRS   (0uL)
 159:Generated_Source\PSoC4/RTC.h **** #define RTC_INITIAL_DST_STOP_MONTH  (10uL)
 160:Generated_Source\PSoC4/RTC.h **** #define RTC_INITIAL_DST_STOP_DOM    (22uL)
 161:Generated_Source\PSoC4/RTC.h **** #define RTC_INITIAL_DST_STOP_DOW    (1uL)
 162:Generated_Source\PSoC4/RTC.h **** #define RTC_INITIAL_DST_STOP_WOM    (6uL)
 163:Generated_Source\PSoC4/RTC.h **** #define RTC_INITIAL_DST_STOP_HRS    (0uL)
 164:Generated_Source\PSoC4/RTC.h **** 
 165:Generated_Source\PSoC4/RTC.h **** /* Day of week definitions */
 166:Generated_Source\PSoC4/RTC.h **** #define RTC_SUNDAY     (RTC__SUNDAY)
 167:Generated_Source\PSoC4/RTC.h **** #define RTC_MONDAY     (RTC__MONDAY)
 168:Generated_Source\PSoC4/RTC.h **** #define RTC_TUESDAY    (RTC__TUESDAY)
 169:Generated_Source\PSoC4/RTC.h **** #define RTC_WEDNESDAY  (RTC__WEDNESDAY)
 170:Generated_Source\PSoC4/RTC.h **** #define RTC_THURSDAY   (RTC__THURSDAY)
 171:Generated_Source\PSoC4/RTC.h **** #define RTC_FRIDAY     (RTC__FRIDAY)
 172:Generated_Source\PSoC4/RTC.h **** #define RTC_SATURDAY   (RTC__SATURDAY)
 173:Generated_Source\PSoC4/RTC.h **** 
 174:Generated_Source\PSoC4/RTC.h **** /* DST WeekOfMonth setting constants definitions */
 175:Generated_Source\PSoC4/RTC.h **** #define RTC_FIRST      (RTC__FIRST)
 176:Generated_Source\PSoC4/RTC.h **** #define RTC_SECOND     (RTC__SECOND)
 177:Generated_Source\PSoC4/RTC.h **** #define RTC_THIRD      (RTC__THIRD)
 178:Generated_Source\PSoC4/RTC.h **** #define RTC_FOURTH     (RTC__FOURTH)
 179:Generated_Source\PSoC4/RTC.h **** #define RTC_FIFTH      (RTC__FIFTH)
 180:Generated_Source\PSoC4/RTC.h **** #define RTC_LAST       (RTC__LAST)
 181:Generated_Source\PSoC4/RTC.h **** 
 182:Generated_Source\PSoC4/RTC.h **** /* Month definitions */
 183:Generated_Source\PSoC4/RTC.h **** #define RTC_JANUARY    (RTC__JAN)
 184:Generated_Source\PSoC4/RTC.h **** #define RTC_FEBRUARY   (RTC__FEB)
 185:Generated_Source\PSoC4/RTC.h **** #define RTC_MARCH      (RTC__MAR)
 186:Generated_Source\PSoC4/RTC.h **** #define RTC_APRIL      (RTC__APR)
 187:Generated_Source\PSoC4/RTC.h **** #define RTC_MAY        (RTC__MAY)
 188:Generated_Source\PSoC4/RTC.h **** #define RTC_JUNE       (RTC__JUN)
 189:Generated_Source\PSoC4/RTC.h **** #define RTC_JULY       (RTC__JUL)
 190:Generated_Source\PSoC4/RTC.h **** #define RTC_AUGUST     (RTC__AUG)
 191:Generated_Source\PSoC4/RTC.h **** #define RTC_SEPTEMBER  (RTC__SEP)
 192:Generated_Source\PSoC4/RTC.h **** #define RTC_OCTOBER    (RTC__OCT)
 193:Generated_Source\PSoC4/RTC.h **** #define RTC_NOVEMBER   (RTC__NOV)
 194:Generated_Source\PSoC4/RTC.h **** #define RTC_DECEMBER   (RTC__DEC)
 195:Generated_Source\PSoC4/RTC.h **** 
 196:Generated_Source\PSoC4/RTC.h **** #define RTC_DAYS_PER_WEEK       (7u)
 197:Generated_Source\PSoC4/RTC.h **** 
 198:Generated_Source\PSoC4/RTC.h **** /* Number of days in month definitions */
 199:Generated_Source\PSoC4/RTC.h **** #define RTC_DAYS_IN_JANUARY     (31u)
 200:Generated_Source\PSoC4/RTC.h **** #define RTC_DAYS_IN_FEBRUARY    (28u)
 201:Generated_Source\PSoC4/RTC.h **** #define RTC_DAYS_IN_MARCH       (31u)
 202:Generated_Source\PSoC4/RTC.h **** #define RTC_DAYS_IN_APRIL       (30u)
 203:Generated_Source\PSoC4/RTC.h **** #define RTC_DAYS_IN_MAY         (31u)
 204:Generated_Source\PSoC4/RTC.h **** #define RTC_DAYS_IN_JUNE        (30u)
ARM GAS  C:\Users\Petro\AppData\Local\Temp\ccd3b28V.s 			page 5


 205:Generated_Source\PSoC4/RTC.h **** #define RTC_DAYS_IN_JULY        (31u)
 206:Generated_Source\PSoC4/RTC.h **** #define RTC_DAYS_IN_AUGUST      (31u)
 207:Generated_Source\PSoC4/RTC.h **** #define RTC_DAYS_IN_SEPTEMBER   (30u)
 208:Generated_Source\PSoC4/RTC.h **** #define RTC_DAYS_IN_OCTOBER     (31u)
 209:Generated_Source\PSoC4/RTC.h **** #define RTC_DAYS_IN_NOVEMBER    (30u)
 210:Generated_Source\PSoC4/RTC.h **** #define RTC_DAYS_IN_DECEMBER    (31u)
 211:Generated_Source\PSoC4/RTC.h **** 
 212:Generated_Source\PSoC4/RTC.h **** #define RTC_MONTHS_PER_YEAR     (12uL)
 213:Generated_Source\PSoC4/RTC.h **** 
 214:Generated_Source\PSoC4/RTC.h **** #define RTC_HOURS_PER_DAY       (24uL)
 215:Generated_Source\PSoC4/RTC.h **** #define RTC_HOURS_PER_HALF_DAY  (12uL)
 216:Generated_Source\PSoC4/RTC.h **** 
 217:Generated_Source\PSoC4/RTC.h **** #define RTC_SECONDS_PER_MINUTE  (60uL)
 218:Generated_Source\PSoC4/RTC.h **** #define RTC_SECONDS_PER_HOUR    (3600uL)
 219:Generated_Source\PSoC4/RTC.h **** #define RTC_SECONDS_PER_DAY     (24uL * 3600uL)
 220:Generated_Source\PSoC4/RTC.h **** 
 221:Generated_Source\PSoC4/RTC.h **** #define RTC_SECONDS_PER_LEAP_YEAR    (366uL * 24uL * 3600uL)
 222:Generated_Source\PSoC4/RTC.h **** #define RTC_SECONDS_PER_NONLEAP_YEAR (365uL * 24uL * 3600uL)
 223:Generated_Source\PSoC4/RTC.h **** 
 224:Generated_Source\PSoC4/RTC.h **** #define RTC_UNIX_TIME_PM   ((12uL * 3600uL) + 1uL)
 225:Generated_Source\PSoC4/RTC.h **** 
 226:Generated_Source\PSoC4/RTC.h **** /* AM/PM status definitions */
 227:Generated_Source\PSoC4/RTC.h **** #define RTC_AM                 (0u)
 228:Generated_Source\PSoC4/RTC.h **** #define RTC_PM                 (1u)
 229:Generated_Source\PSoC4/RTC.h **** 
 230:Generated_Source\PSoC4/RTC.h **** /* Time format definitions */
 231:Generated_Source\PSoC4/RTC.h **** #define RTC_12_HOURS_FORMAT    (RTC__HOUR_12)
 232:Generated_Source\PSoC4/RTC.h **** #define RTC_24_HOURS_FORMAT    (RTC__HOUR_24)
 233:Generated_Source\PSoC4/RTC.h **** 
 234:Generated_Source\PSoC4/RTC.h **** /* UNIX time begins in 1970 year.  */
 235:Generated_Source\PSoC4/RTC.h **** #define RTC_YEAR_0             (1970u)
 236:Generated_Source\PSoC4/RTC.h **** 
 237:Generated_Source\PSoC4/RTC.h **** /* Definition of date register fields */
 238:Generated_Source\PSoC4/RTC.h **** #if(RTC_INITIAL_DATA_FORMAT == RTC__MM_DD_YYYY)
 239:Generated_Source\PSoC4/RTC.h ****     #define RTC_10_MONTH_OFFSET   (28u)
 240:Generated_Source\PSoC4/RTC.h ****     #define RTC_MONTH_OFFSET      (24u)
 241:Generated_Source\PSoC4/RTC.h ****     #define RTC_10_DAY_OFFSET     (20u)
 242:Generated_Source\PSoC4/RTC.h ****     #define RTC_DAY_OFFSET        (16u)
 243:Generated_Source\PSoC4/RTC.h ****     #define RTC_1000_YEAR_OFFSET  (12u)
 244:Generated_Source\PSoC4/RTC.h ****     #define RTC_100_YEAR_OFFSET   (8u)
 245:Generated_Source\PSoC4/RTC.h ****     #define RTC_10_YEAR_OFFSET    (4u)
 246:Generated_Source\PSoC4/RTC.h ****     #define RTC_YEAR_OFFSET       (0u)
 247:Generated_Source\PSoC4/RTC.h **** #elif(RTC_INITIAL_DATA_FORMAT == RTC__DD_MM_YYYY)
 248:Generated_Source\PSoC4/RTC.h ****     #define RTC_10_MONTH_OFFSET   (20u)
 249:Generated_Source\PSoC4/RTC.h ****     #define RTC_MONTH_OFFSET      (16u)
 250:Generated_Source\PSoC4/RTC.h ****     #define RTC_10_DAY_OFFSET     (28u)
 251:Generated_Source\PSoC4/RTC.h ****     #define RTC_DAY_OFFSET        (24u)
 252:Generated_Source\PSoC4/RTC.h ****     #define RTC_1000_YEAR_OFFSET  (12u)
 253:Generated_Source\PSoC4/RTC.h ****     #define RTC_100_YEAR_OFFSET   (8u)
 254:Generated_Source\PSoC4/RTC.h ****     #define RTC_10_YEAR_OFFSET    (4u)
 255:Generated_Source\PSoC4/RTC.h ****     #define RTC_YEAR_OFFSET       (0u)
 256:Generated_Source\PSoC4/RTC.h **** #else
 257:Generated_Source\PSoC4/RTC.h ****     #define RTC_10_MONTH_OFFSET   (12u)
 258:Generated_Source\PSoC4/RTC.h ****     #define RTC_MONTH_OFFSET      (8u)
 259:Generated_Source\PSoC4/RTC.h ****     #define RTC_10_DAY_OFFSET     (4u)
 260:Generated_Source\PSoC4/RTC.h ****     #define RTC_DAY_OFFSET        (0u)
 261:Generated_Source\PSoC4/RTC.h ****     #define RTC_1000_YEAR_OFFSET  (28u)
ARM GAS  C:\Users\Petro\AppData\Local\Temp\ccd3b28V.s 			page 6


 262:Generated_Source\PSoC4/RTC.h ****     #define RTC_100_YEAR_OFFSET   (24u)
 263:Generated_Source\PSoC4/RTC.h ****     #define RTC_10_YEAR_OFFSET    (20u)
 264:Generated_Source\PSoC4/RTC.h ****     #define RTC_YEAR_OFFSET       (16u)
 265:Generated_Source\PSoC4/RTC.h **** #endif /* (RTC_INITIAL_DATA_FORMAT == RTC__MM_DD_YYYY) */
 266:Generated_Source\PSoC4/RTC.h **** 
 267:Generated_Source\PSoC4/RTC.h **** #define RTC_10_MONTH_MASK          (0x00000001uL << RTC_10_MONTH_OFFSET)
 268:Generated_Source\PSoC4/RTC.h **** #define RTC_MONTH_MASK             (0x0000000FuL << RTC_MONTH_OFFSET)
 269:Generated_Source\PSoC4/RTC.h **** #define RTC_10_DAY_MASK            (0x00000003uL << RTC_10_DAY_OFFSET)
 270:Generated_Source\PSoC4/RTC.h **** #define RTC_DAY_MASK               (0x0000000FuL << RTC_DAY_OFFSET)
 271:Generated_Source\PSoC4/RTC.h **** #define RTC_1000_YEAR_MASK         (0x00000003uL << RTC_1000_YEAR_OFFSET)
 272:Generated_Source\PSoC4/RTC.h **** #define RTC_100_YEAR_MASK          (0x0000000FuL << RTC_100_YEAR_OFFSET)
 273:Generated_Source\PSoC4/RTC.h **** #define RTC_10_YEAR_MASK           (0x0000000FuL << RTC_10_YEAR_OFFSET)
 274:Generated_Source\PSoC4/RTC.h **** #define RTC_YEAR_MASK              (0x0000000FuL << RTC_YEAR_OFFSET)
 275:Generated_Source\PSoC4/RTC.h **** 
 276:Generated_Source\PSoC4/RTC.h **** #define  RTC_MONTH_FULL_MASK       (RTC_10_MONTH_MASK  | RTC_MONTH_MASK)
 277:Generated_Source\PSoC4/RTC.h **** #define  RTC_DAY_FULL_MASK         (RTC_10_DAY_MASK    | RTC_DAY_MASK)
 278:Generated_Source\PSoC4/RTC.h **** #define  RTC_YEAR_FULL_MASK        (RTC_1000_YEAR_MASK | RTC_100_YEAR_MASK |\
 279:Generated_Source\PSoC4/RTC.h ****                                                  RTC_10_YEAR_MASK   | RTC_YEAR_MASK)
 280:Generated_Source\PSoC4/RTC.h **** 
 281:Generated_Source\PSoC4/RTC.h **** 
 282:Generated_Source\PSoC4/RTC.h **** /* Definition of time register fields */
 283:Generated_Source\PSoC4/RTC.h **** #define RTC_TIME_FORMAT_OFFSET     (23u)
 284:Generated_Source\PSoC4/RTC.h **** #define RTC_PERIOD_OF_DAY_OFFSET   (22u)
 285:Generated_Source\PSoC4/RTC.h **** #define RTC_10_HOURS_OFFSET        (20u)
 286:Generated_Source\PSoC4/RTC.h **** #define RTC_HOURS_OFFSET           (16u)
 287:Generated_Source\PSoC4/RTC.h **** #define RTC_10_MINUTES_OFFSET      (12u)
 288:Generated_Source\PSoC4/RTC.h **** #define RTC_MINUTES_OFFSET         (8u)
 289:Generated_Source\PSoC4/RTC.h **** #define RTC_10_SECONDS_OFFSET      (4u)
 290:Generated_Source\PSoC4/RTC.h **** #define RTC_SECONDS_OFFSET         (0u)
 291:Generated_Source\PSoC4/RTC.h **** 
 292:Generated_Source\PSoC4/RTC.h **** #define RTC_TIME_FORMAT_MASK       (0x00000001uL << RTC_TIME_FORMAT_OFFSET)
 293:Generated_Source\PSoC4/RTC.h **** #define RTC_PERIOD_OF_DAY_MASK     (0x00000001uL << RTC_PERIOD_OF_DAY_OFFSET)
 294:Generated_Source\PSoC4/RTC.h **** #define RTC_10_HOURS_MASK          (0x00000003uL << RTC_10_HOURS_OFFSET)
 295:Generated_Source\PSoC4/RTC.h **** #define RTC_HOURS_MASK             (0x0000000FuL << RTC_HOURS_OFFSET)
 296:Generated_Source\PSoC4/RTC.h **** #define RTC_10_MINUTES_MASK        (0x00000007uL << RTC_10_MINUTES_OFFSET)
 297:Generated_Source\PSoC4/RTC.h **** #define RTC_MINUTES_MASK           (0x0000000FuL << RTC_MINUTES_OFFSET)
 298:Generated_Source\PSoC4/RTC.h **** #define RTC_10_SECONDS_MASK        (0x00000007uL << RTC_10_SECONDS_OFFSET)
 299:Generated_Source\PSoC4/RTC.h **** #define RTC_SECONDS_MASK           (0x0000000FuL << RTC_SECONDS_OFFSET)
 300:Generated_Source\PSoC4/RTC.h **** 
 301:Generated_Source\PSoC4/RTC.h **** #define RTC_HOURS_FULL_MASK        (RTC_10_HOURS_MASK   | RTC_HOURS_MASK)
 302:Generated_Source\PSoC4/RTC.h **** #define RTC_MINUTES_FULL_MASK      (RTC_10_MINUTES_MASK | RTC_MINUTES_MASK)
 303:Generated_Source\PSoC4/RTC.h **** #define RTC_SECONDS_FULL_MASK      (RTC_10_SECONDS_MASK | RTC_SECONDS_MASK)
 304:Generated_Source\PSoC4/RTC.h **** 
 305:Generated_Source\PSoC4/RTC.h **** #define RTC_ALARM_SEC_MASK         (0x00000001uL)
 306:Generated_Source\PSoC4/RTC.h **** #define RTC_ALARM_MIN_MASK         (0x00000002uL)
 307:Generated_Source\PSoC4/RTC.h **** #define RTC_ALARM_HOUR_MASK        (0x00000004uL)
 308:Generated_Source\PSoC4/RTC.h **** #define RTC_ALARM_DAYOFWEEK_MASK   (0x00000008uL)
 309:Generated_Source\PSoC4/RTC.h **** #define RTC_ALARM_DAYOFMONTH_MASK  (0x00000010uL)
 310:Generated_Source\PSoC4/RTC.h **** #define RTC_ALARM_MONTH_MASK       (0x00000020uL)
 311:Generated_Source\PSoC4/RTC.h **** #define RTC_ALARM_YEAR_MASK        (0x00000040uL)
 312:Generated_Source\PSoC4/RTC.h **** 
 313:Generated_Source\PSoC4/RTC.h **** #define RTC_STATUS_DST_OFFSET      (1u)
 314:Generated_Source\PSoC4/RTC.h **** #define RTC_STATUS_ALARM_OFFSET    (2u)
 315:Generated_Source\PSoC4/RTC.h **** #define RTC_STATUS_LY_OFFSET       (3u)
 316:Generated_Source\PSoC4/RTC.h **** #define RTC_STATUS_AM_PM_OFFSET    (4u)
 317:Generated_Source\PSoC4/RTC.h **** 
 318:Generated_Source\PSoC4/RTC.h **** /* Definition of the RTC status values. */
ARM GAS  C:\Users\Petro\AppData\Local\Temp\ccd3b28V.s 			page 7


 319:Generated_Source\PSoC4/RTC.h **** #define RTC_STATUS_DST             (1uL << RTC_STATUS_DST_OFFSET)
 320:Generated_Source\PSoC4/RTC.h **** #define RTC_STATUS_LY              (1uL << RTC_STATUS_LY_OFFSET)
 321:Generated_Source\PSoC4/RTC.h **** #define RTC_STATUS_AM_PM           (1uL << RTC_STATUS_AM_PM_OFFSET)
 322:Generated_Source\PSoC4/RTC.h **** 
 323:Generated_Source\PSoC4/RTC.h **** /* Number of bits per one BCD digit. */
 324:Generated_Source\PSoC4/RTC.h **** #define RTC_BCD_NUMBER_SIZE        (4u)
 325:Generated_Source\PSoC4/RTC.h **** #define RTC_BCD_ONE_DIGIT_MASK     (0x0000000FuL)
 326:Generated_Source\PSoC4/RTC.h **** 
 327:Generated_Source\PSoC4/RTC.h **** /*******************************************************************************
 328:Generated_Source\PSoC4/RTC.h **** *    Function Prototypes
 329:Generated_Source\PSoC4/RTC.h **** *******************************************************************************/
 330:Generated_Source\PSoC4/RTC.h **** /**
 331:Generated_Source\PSoC4/RTC.h **** * \addtogroup group_api
 332:Generated_Source\PSoC4/RTC.h **** * @{
 333:Generated_Source\PSoC4/RTC.h **** */
 334:Generated_Source\PSoC4/RTC.h **** void   RTC_Start(void);
 335:Generated_Source\PSoC4/RTC.h **** void   RTC_Stop(void);
 336:Generated_Source\PSoC4/RTC.h **** void   RTC_Init(void);
 337:Generated_Source\PSoC4/RTC.h **** void   RTC_SetUnixTime(uint64 unixTime);
 338:Generated_Source\PSoC4/RTC.h **** uint64 RTC_GetUnixTime(void);
 339:Generated_Source\PSoC4/RTC.h **** void   RTC_SetPeriod(uint32 ticks, uint32 refOneSecTicks);
 340:Generated_Source\PSoC4/RTC.h **** uint32 RTC_GetPeriod(void);
 341:Generated_Source\PSoC4/RTC.h **** uint32 RTC_GetRefOneSec(void);
 342:Generated_Source\PSoC4/RTC.h **** void   RTC_SetDateAndTime(uint32 inputTime, uint32 inputDate);
 343:Generated_Source\PSoC4/RTC.h **** void   RTC_GetDateAndTime(RTC_DATE_TIME* dateTime);
 344:Generated_Source\PSoC4/RTC.h **** uint32 RTC_GetTime(void);
 345:Generated_Source\PSoC4/RTC.h **** uint32 RTC_GetDate(void);
 346:Generated_Source\PSoC4/RTC.h **** void   RTC_SetAlarmDateAndTime(const RTC_DATE_TIME* alarmTime);
 347:Generated_Source\PSoC4/RTC.h **** void   RTC_GetAlarmDateAndTime(RTC_DATE_TIME* alarmTimeDate);
 348:Generated_Source\PSoC4/RTC.h **** void   RTC_SetAlarmMask(uint32 mask);
 349:Generated_Source\PSoC4/RTC.h **** uint32 RTC_GetAlarmMask(void);
 350:Generated_Source\PSoC4/RTC.h **** uint32 RTC_ReadStatus(void);
 351:Generated_Source\PSoC4/RTC.h **** uint32 RTC_GetAlarmStatus(void);
 352:Generated_Source\PSoC4/RTC.h **** void   RTC_ClearAlarmStatus(void);
 353:Generated_Source\PSoC4/RTC.h **** void   RTC_SetDSTStartTime(const RTC_DST_TIME* dstStartTime,
 354:Generated_Source\PSoC4/RTC.h ****                                               RTC_DST_DATETYPE_ENUM type);
 355:Generated_Source\PSoC4/RTC.h **** void   RTC_SetDSTStopTime(const RTC_DST_TIME* dstStopTime,
 356:Generated_Source\PSoC4/RTC.h ****                                              RTC_DST_DATETYPE_ENUM type);
 357:Generated_Source\PSoC4/RTC.h **** uint32 RTC_ConvertBCDToDec(uint32 bcdNum);
 358:Generated_Source\PSoC4/RTC.h **** uint32 RTC_ConvertDecToBCD(uint32 decNum);
 359:Generated_Source\PSoC4/RTC.h **** void   RTC_Update(void);
 360:Generated_Source\PSoC4/RTC.h **** void*  RTC_SetAlarmHandler(void (*CallbackFunction)(void));
 361:Generated_Source\PSoC4/RTC.h **** 
 362:Generated_Source\PSoC4/RTC.h **** static uint32 RTC_ConstructDate(uint32 month, uint32 day, uint32 year);
 363:Generated_Source\PSoC4/RTC.h **** static uint32 RTC_ConstructTime(uint32 timeFormat, uint32 stateAmPm, uint32 hour, uint32 min, uint3
 364:Generated_Source\PSoC4/RTC.h **** /** @} api */
 365:Generated_Source\PSoC4/RTC.h **** 
 366:Generated_Source\PSoC4/RTC.h **** static uint32 RTC_GetTimeFormat(uint32 inputTime);
 367:Generated_Source\PSoC4/RTC.h **** static uint32 RTC_SetTimeFormat(uint32 inputTime, uint32 timeFormat);
 368:Generated_Source\PSoC4/RTC.h **** 
 369:Generated_Source\PSoC4/RTC.h **** /**
 370:Generated_Source\PSoC4/RTC.h **** * \addtogroup group_api
 371:Generated_Source\PSoC4/RTC.h **** * @{
 372:Generated_Source\PSoC4/RTC.h **** */
 373:Generated_Source\PSoC4/RTC.h **** static uint32 RTC_LeapYear(uint32 year);
 374:Generated_Source\PSoC4/RTC.h **** static uint32 RTC_IsBitSet(uint32 var, uint32 mask);
 375:Generated_Source\PSoC4/RTC.h **** static uint32 RTC_GetSecond(uint32 inputTime);
ARM GAS  C:\Users\Petro\AppData\Local\Temp\ccd3b28V.s 			page 8


 376:Generated_Source\PSoC4/RTC.h **** static uint32 RTC_GetMinutes(uint32 inputTime);
 377:Generated_Source\PSoC4/RTC.h **** static uint32 RTC_GetHours(uint32 inputTime);
 378:Generated_Source\PSoC4/RTC.h **** static uint32 RTC_GetAmPm(uint32 inputTime);
 379:Generated_Source\PSoC4/RTC.h **** static uint32 RTC_GetDay(uint32 date);
 380:Generated_Source\PSoC4/RTC.h **** static uint32 RTC_GetMonth(uint32 date);
 381:Generated_Source\PSoC4/RTC.h **** static uint32 RTC_GetYear(uint32 date);
 382:Generated_Source\PSoC4/RTC.h **** /** @} api */
 383:Generated_Source\PSoC4/RTC.h **** 
 384:Generated_Source\PSoC4/RTC.h **** static uint32 RTC_SetSecond(uint32 inputTime, uint32 inputSecond);
 385:Generated_Source\PSoC4/RTC.h **** static uint32 RTC_SetMinutes(uint32 inputTime, uint32 inputMinute);
 386:Generated_Source\PSoC4/RTC.h **** static uint32 RTC_SetHours(uint32 inputTime, uint32 inputHours);
 387:Generated_Source\PSoC4/RTC.h **** static uint32 RTC_SetAmPm(uint32 inputTime, uint32 periodOfDay);
 388:Generated_Source\PSoC4/RTC.h **** static uint32 RTC_SetDay(uint32 inputDate, uint32 inputDay);
 389:Generated_Source\PSoC4/RTC.h **** static uint32 RTC_SetMonth(uint32 inputDate, uint32 inputMonth);
 390:Generated_Source\PSoC4/RTC.h **** static uint32 RTC_SetYear(uint32 inputDate, uint32 inputYear);
 391:Generated_Source\PSoC4/RTC.h **** 
 392:Generated_Source\PSoC4/RTC.h **** uint64 RTC_ConstructUnixAlarmTime(const RTC_DATE_TIME* alarmTime, uint8 alarmCfgMask);
 393:Generated_Source\PSoC4/RTC.h **** uint64 RTC_GetDstUnixTime(const RTC_DST_TIME* dstTime);
 394:Generated_Source\PSoC4/RTC.h **** uint64 RTC_GetNexAlarmTime(uint64 curUnixTime, uint8 alarmCfgMask);
 395:Generated_Source\PSoC4/RTC.h **** 
 396:Generated_Source\PSoC4/RTC.h **** static uint32 RTC_GetNextMinSec(uint32 curVal);
 397:Generated_Source\PSoC4/RTC.h **** static uint32 RTC_GetNextHour(uint32 curVal);
 398:Generated_Source\PSoC4/RTC.h **** static uint32 RTC_GetNextDay(uint32 curYear, uint32 curMonth, uint32 curDay, uint32 alarmCfgMask);
 399:Generated_Source\PSoC4/RTC.h **** static uint32 RTC_GetNextMonth(uint32 curMonth);
 400:Generated_Source\PSoC4/RTC.h **** static uint32 RTC_GetNextYear(uint32 curYear);
 401:Generated_Source\PSoC4/RTC.h **** static uint32 RTC_GetDayOfWeek(uint32 day, uint32 month, uint32 year);
 402:Generated_Source\PSoC4/RTC.h **** 
 403:Generated_Source\PSoC4/RTC.h **** uint32 RTC_DaysInMonth(uint32 month, uint32 year);
 404:Generated_Source\PSoC4/RTC.h **** uint32 RTC_DaysBeforeMonth(uint32 month, uint32 year);
 405:Generated_Source\PSoC4/RTC.h **** 
 406:Generated_Source\PSoC4/RTC.h **** /**
 407:Generated_Source\PSoC4/RTC.h **** * \addtogroup group_api
 408:Generated_Source\PSoC4/RTC.h **** * @{
 409:Generated_Source\PSoC4/RTC.h **** */
 410:Generated_Source\PSoC4/RTC.h **** void   RTC_UnixToDateTime(RTC_DATE_TIME* dateTime, uint64 unixTime, uint32 timeFormat);
 411:Generated_Source\PSoC4/RTC.h **** uint64 RTC_DateTimeToUnix(uint32 inputDate, uint32 inputTime);
 412:Generated_Source\PSoC4/RTC.h **** /** @} api */
 413:Generated_Source\PSoC4/RTC.h **** 
 414:Generated_Source\PSoC4/RTC.h **** uint32 RTC_RelativeToFixed(uint32 dayOfWeek, uint32 weekOfMonth, uint32 month, uint32 year);
 415:Generated_Source\PSoC4/RTC.h **** 
 416:Generated_Source\PSoC4/RTC.h **** 
 417:Generated_Source\PSoC4/RTC.h **** #if defined(CYDEV_RTC_SOURCE_WDT)
 418:Generated_Source\PSoC4/RTC.h ****     #if((0u != CYDEV_WDT_GENERATE_ISR) && (0u == RTC_INITIAL_UPDATE_MODE))
 419:Generated_Source\PSoC4/RTC.h ****         static void RTC_CySysRtcSetCallback(uint32 wdtNumber);
 420:Generated_Source\PSoC4/RTC.h ****         static void RTC_CySysRtcResetCallback(uint32 wdtNumber);
 421:Generated_Source\PSoC4/RTC.h ****     #endif /* ((0u != CYDEV_WDT_GENERATE_ISR) && (0u == RTC_INITIAL_UPDATE_MODE)) */
 422:Generated_Source\PSoC4/RTC.h **** #endif /* (CYDEV_RTC_SOURCE_WDT) */
 423:Generated_Source\PSoC4/RTC.h **** 
 424:Generated_Source\PSoC4/RTC.h **** /*******************************************************************************
 425:Generated_Source\PSoC4/RTC.h **** * Function Name: RTC_IsBitSet
 426:Generated_Source\PSoC4/RTC.h **** ****************************************************************************//**
 427:Generated_Source\PSoC4/RTC.h **** *
 428:Generated_Source\PSoC4/RTC.h **** * \brief
 429:Generated_Source\PSoC4/RTC.h **** *  Checks the state of a bit passed through parameter.
 430:Generated_Source\PSoC4/RTC.h **** *
 431:Generated_Source\PSoC4/RTC.h **** * \param
 432:Generated_Source\PSoC4/RTC.h **** *  var The variable to be checked.
ARM GAS  C:\Users\Petro\AppData\Local\Temp\ccd3b28V.s 			page 9


 433:Generated_Source\PSoC4/RTC.h **** * \param
 434:Generated_Source\PSoC4/RTC.h **** *  mask The mask for a bit to be checked.
 435:Generated_Source\PSoC4/RTC.h **** *
 436:Generated_Source\PSoC4/RTC.h **** * \return
 437:Generated_Source\PSoC4/RTC.h **** *  0u - Bit is not set.
 438:Generated_Source\PSoC4/RTC.h **** * \return
 439:Generated_Source\PSoC4/RTC.h **** *  1u - Bit is set.
 440:Generated_Source\PSoC4/RTC.h **** *
 441:Generated_Source\PSoC4/RTC.h **** *******************************************************************************/
 442:Generated_Source\PSoC4/RTC.h **** static CY_INLINE uint32 RTC_IsBitSet(uint32 var, uint32 mask)
 443:Generated_Source\PSoC4/RTC.h **** {
 444:Generated_Source\PSoC4/RTC.h ****     return ((mask == (var & mask)) ? 1Lu : 0Lu);
 445:Generated_Source\PSoC4/RTC.h **** }
 446:Generated_Source\PSoC4/RTC.h **** 
 447:Generated_Source\PSoC4/RTC.h **** 
 448:Generated_Source\PSoC4/RTC.h **** /*******************************************************************************
 449:Generated_Source\PSoC4/RTC.h **** * Function Name: RTC_LeapYear
 450:Generated_Source\PSoC4/RTC.h **** ****************************************************************************//**
 451:Generated_Source\PSoC4/RTC.h **** *
 452:Generated_Source\PSoC4/RTC.h **** * \brief
 453:Generated_Source\PSoC4/RTC.h **** * Checks whether the year passed through the parameter is
 454:Generated_Source\PSoC4/RTC.h **** * leap or no.
 455:Generated_Source\PSoC4/RTC.h **** *
 456:Generated_Source\PSoC4/RTC.h **** * \param
 457:Generated_Source\PSoC4/RTC.h **** *  year The year to be checked.
 458:Generated_Source\PSoC4/RTC.h **** *
 459:Generated_Source\PSoC4/RTC.h **** *
 460:Generated_Source\PSoC4/RTC.h **** * \return
 461:Generated_Source\PSoC4/RTC.h **** *  0u - The year is not leap.
 462:Generated_Source\PSoC4/RTC.h **** * \return
 463:Generated_Source\PSoC4/RTC.h **** *  1u - The year is leap.
 464:Generated_Source\PSoC4/RTC.h **** *
 465:Generated_Source\PSoC4/RTC.h **** *******************************************************************************/
 466:Generated_Source\PSoC4/RTC.h **** static CY_INLINE uint32 RTC_LeapYear(uint32 year)
 467:Generated_Source\PSoC4/RTC.h **** {
 468:Generated_Source\PSoC4/RTC.h ****     uint32 retVal;
 469:Generated_Source\PSoC4/RTC.h **** 
 470:Generated_Source\PSoC4/RTC.h ****     if(((0u == (year % 4Lu)) && (0u != (year % 100Lu))) || (0u == (year % 400Lu)))
 471:Generated_Source\PSoC4/RTC.h ****     {
 472:Generated_Source\PSoC4/RTC.h ****         retVal = 1uL;
 473:Generated_Source\PSoC4/RTC.h ****     }
 474:Generated_Source\PSoC4/RTC.h ****     else
 475:Generated_Source\PSoC4/RTC.h ****     {
 476:Generated_Source\PSoC4/RTC.h ****         retVal = 0uL;
 477:Generated_Source\PSoC4/RTC.h ****     }
 478:Generated_Source\PSoC4/RTC.h **** 
 479:Generated_Source\PSoC4/RTC.h ****     return(retVal);
 480:Generated_Source\PSoC4/RTC.h **** }
 481:Generated_Source\PSoC4/RTC.h **** 
 482:Generated_Source\PSoC4/RTC.h **** 
 483:Generated_Source\PSoC4/RTC.h **** /*******************************************************************************
 484:Generated_Source\PSoC4/RTC.h **** * Function Name: RTC_GetSecond
 485:Generated_Source\PSoC4/RTC.h **** ****************************************************************************//**
 486:Generated_Source\PSoC4/RTC.h **** *
 487:Generated_Source\PSoC4/RTC.h **** * \brief
 488:Generated_Source\PSoC4/RTC.h **** *  Returns the seconds value from the time value that is passed as a/the parameter.
 489:Generated_Source\PSoC4/RTC.h **** *
ARM GAS  C:\Users\Petro\AppData\Local\Temp\ccd3b28V.s 			page 10


 490:Generated_Source\PSoC4/RTC.h **** * \param
 491:Generated_Source\PSoC4/RTC.h **** *  time The time value.
 492:Generated_Source\PSoC4/RTC.h **** *
 493:Generated_Source\PSoC4/RTC.h **** * \return
 494:Generated_Source\PSoC4/RTC.h **** *  The seconds value.
 495:Generated_Source\PSoC4/RTC.h **** *
 496:Generated_Source\PSoC4/RTC.h **** *******************************************************************************/
 497:Generated_Source\PSoC4/RTC.h **** static CY_INLINE uint32 RTC_GetSecond(uint32 inputTime)
 498:Generated_Source\PSoC4/RTC.h **** {
  25              		.loc 1 498 0
  26              		.cfi_startproc
  27 0000 80B5     		push	{r7, lr}
  28              		.cfi_def_cfa_offset 8
  29              		.cfi_offset 7, -8
  30              		.cfi_offset 14, -4
  31 0002 84B0     		sub	sp, sp, #16
  32              		.cfi_def_cfa_offset 24
  33 0004 00AF     		add	r7, sp, #0
  34              		.cfi_def_cfa_register 7
  35 0006 7860     		str	r0, [r7, #4]
 499:Generated_Source\PSoC4/RTC.h ****     uint32 retVal;
 500:Generated_Source\PSoC4/RTC.h **** 
 501:Generated_Source\PSoC4/RTC.h ****     retVal  = ((inputTime & RTC_10_SECONDS_MASK) >> RTC_10_SECONDS_OFFSET) * 10u;
  36              		.loc 1 501 0
  37 0008 7B68     		ldr	r3, [r7, #4]
  38 000a 7022     		mov	r2, #112
  39 000c 1340     		and	r3, r2
  40 000e 1A09     		lsr	r2, r3, #4
  41 0010 131C     		mov	r3, r2
  42 0012 9B00     		lsl	r3, r3, #2
  43 0014 9B18     		add	r3, r3, r2
  44 0016 5B00     		lsl	r3, r3, #1
  45 0018 FB60     		str	r3, [r7, #12]
 502:Generated_Source\PSoC4/RTC.h ****     retVal += (inputTime & RTC_SECONDS_MASK) >> RTC_SECONDS_OFFSET;
  46              		.loc 1 502 0
  47 001a 7B68     		ldr	r3, [r7, #4]
  48 001c 0F22     		mov	r2, #15
  49 001e 1340     		and	r3, r2
  50 0020 FA68     		ldr	r2, [r7, #12]
  51 0022 D318     		add	r3, r2, r3
  52 0024 FB60     		str	r3, [r7, #12]
 503:Generated_Source\PSoC4/RTC.h **** 
 504:Generated_Source\PSoC4/RTC.h ****     return (retVal);
  53              		.loc 1 504 0
  54 0026 FB68     		ldr	r3, [r7, #12]
 505:Generated_Source\PSoC4/RTC.h **** }
  55              		.loc 1 505 0
  56 0028 181C     		mov	r0, r3
  57 002a BD46     		mov	sp, r7
  58 002c 04B0     		add	sp, sp, #16
  59              		@ sp needed
  60 002e 80BD     		pop	{r7, pc}
  61              		.cfi_endproc
  62              	.LFE4:
  63              		.size	RTC_GetSecond, .-RTC_GetSecond
  64              		.section	.text.RTC_GetMinutes,"ax",%progbits
  65              		.align	2
ARM GAS  C:\Users\Petro\AppData\Local\Temp\ccd3b28V.s 			page 11


  66              		.code	16
  67              		.thumb_func
  68              		.type	RTC_GetMinutes, %function
  69              	RTC_GetMinutes:
  70              	.LFB5:
 506:Generated_Source\PSoC4/RTC.h **** 
 507:Generated_Source\PSoC4/RTC.h **** 
 508:Generated_Source\PSoC4/RTC.h **** /*******************************************************************************
 509:Generated_Source\PSoC4/RTC.h **** * Function Name: RTC_GetMinutes
 510:Generated_Source\PSoC4/RTC.h **** ****************************************************************************//**
 511:Generated_Source\PSoC4/RTC.h **** *
 512:Generated_Source\PSoC4/RTC.h **** * \brief
 513:Generated_Source\PSoC4/RTC.h **** *  Returns the minutes value from the time value that is passed as a/the 
 514:Generated_Source\PSoC4/RTC.h **** * parameter.
 515:Generated_Source\PSoC4/RTC.h **** *
 516:Generated_Source\PSoC4/RTC.h **** * \param
 517:Generated_Source\PSoC4/RTC.h **** *  time The time value.
 518:Generated_Source\PSoC4/RTC.h **** *
 519:Generated_Source\PSoC4/RTC.h **** * \return
 520:Generated_Source\PSoC4/RTC.h **** *  The minutes value.
 521:Generated_Source\PSoC4/RTC.h **** *
 522:Generated_Source\PSoC4/RTC.h **** *******************************************************************************/
 523:Generated_Source\PSoC4/RTC.h **** static CY_INLINE uint32 RTC_GetMinutes(uint32 inputTime)
 524:Generated_Source\PSoC4/RTC.h **** {
  71              		.loc 1 524 0
  72              		.cfi_startproc
  73 0000 80B5     		push	{r7, lr}
  74              		.cfi_def_cfa_offset 8
  75              		.cfi_offset 7, -8
  76              		.cfi_offset 14, -4
  77 0002 84B0     		sub	sp, sp, #16
  78              		.cfi_def_cfa_offset 24
  79 0004 00AF     		add	r7, sp, #0
  80              		.cfi_def_cfa_register 7
  81 0006 7860     		str	r0, [r7, #4]
 525:Generated_Source\PSoC4/RTC.h ****     uint32 retVal;
 526:Generated_Source\PSoC4/RTC.h **** 
 527:Generated_Source\PSoC4/RTC.h ****     retVal  = ((inputTime & RTC_10_MINUTES_MASK) >> RTC_10_MINUTES_OFFSET) * 10u;
  82              		.loc 1 527 0
  83 0008 7A68     		ldr	r2, [r7, #4]
  84 000a E023     		mov	r3, #224
  85 000c DB01     		lsl	r3, r3, #7
  86 000e 1340     		and	r3, r2
  87 0010 1A0B     		lsr	r2, r3, #12
  88 0012 131C     		mov	r3, r2
  89 0014 9B00     		lsl	r3, r3, #2
  90 0016 9B18     		add	r3, r3, r2
  91 0018 5B00     		lsl	r3, r3, #1
  92 001a FB60     		str	r3, [r7, #12]
 528:Generated_Source\PSoC4/RTC.h ****     retVal += (inputTime & RTC_MINUTES_MASK) >> RTC_MINUTES_OFFSET;
  93              		.loc 1 528 0
  94 001c 7A68     		ldr	r2, [r7, #4]
  95 001e F023     		mov	r3, #240
  96 0020 1B01     		lsl	r3, r3, #4
  97 0022 1340     		and	r3, r2
  98 0024 1B0A     		lsr	r3, r3, #8
  99 0026 FA68     		ldr	r2, [r7, #12]
ARM GAS  C:\Users\Petro\AppData\Local\Temp\ccd3b28V.s 			page 12


 100 0028 D318     		add	r3, r2, r3
 101 002a FB60     		str	r3, [r7, #12]
 529:Generated_Source\PSoC4/RTC.h **** 
 530:Generated_Source\PSoC4/RTC.h ****     return (retVal);
 102              		.loc 1 530 0
 103 002c FB68     		ldr	r3, [r7, #12]
 531:Generated_Source\PSoC4/RTC.h **** }
 104              		.loc 1 531 0
 105 002e 181C     		mov	r0, r3
 106 0030 BD46     		mov	sp, r7
 107 0032 04B0     		add	sp, sp, #16
 108              		@ sp needed
 109 0034 80BD     		pop	{r7, pc}
 110              		.cfi_endproc
 111              	.LFE5:
 112              		.size	RTC_GetMinutes, .-RTC_GetMinutes
 113 0036 C046     		.section	.text.RTC_GetHours,"ax",%progbits
 114              		.align	2
 115              		.code	16
 116              		.thumb_func
 117              		.type	RTC_GetHours, %function
 118              	RTC_GetHours:
 119              	.LFB6:
 532:Generated_Source\PSoC4/RTC.h **** 
 533:Generated_Source\PSoC4/RTC.h **** 
 534:Generated_Source\PSoC4/RTC.h **** /*******************************************************************************
 535:Generated_Source\PSoC4/RTC.h **** * Function Name: RTC_GetHours
 536:Generated_Source\PSoC4/RTC.h **** ****************************************************************************//**
 537:Generated_Source\PSoC4/RTC.h **** *
 538:Generated_Source\PSoC4/RTC.h **** * \brief
 539:Generated_Source\PSoC4/RTC.h **** *  Returns the hours value from the time value that is passed as a/the parameter.
 540:Generated_Source\PSoC4/RTC.h **** *
 541:Generated_Source\PSoC4/RTC.h **** * \param
 542:Generated_Source\PSoC4/RTC.h **** *  time The time value.
 543:Generated_Source\PSoC4/RTC.h **** *
 544:Generated_Source\PSoC4/RTC.h **** * \return
 545:Generated_Source\PSoC4/RTC.h **** *  The hours value.
 546:Generated_Source\PSoC4/RTC.h **** *
 547:Generated_Source\PSoC4/RTC.h **** *******************************************************************************/
 548:Generated_Source\PSoC4/RTC.h **** static CY_INLINE uint32 RTC_GetHours(uint32 inputTime)
 549:Generated_Source\PSoC4/RTC.h **** {
 120              		.loc 1 549 0
 121              		.cfi_startproc
 122 0000 80B5     		push	{r7, lr}
 123              		.cfi_def_cfa_offset 8
 124              		.cfi_offset 7, -8
 125              		.cfi_offset 14, -4
 126 0002 84B0     		sub	sp, sp, #16
 127              		.cfi_def_cfa_offset 24
 128 0004 00AF     		add	r7, sp, #0
 129              		.cfi_def_cfa_register 7
 130 0006 7860     		str	r0, [r7, #4]
 550:Generated_Source\PSoC4/RTC.h ****     uint32 retVal;
 551:Generated_Source\PSoC4/RTC.h **** 
 552:Generated_Source\PSoC4/RTC.h ****     retVal  = ((inputTime & RTC_10_HOURS_MASK) >> RTC_10_HOURS_OFFSET) * 10u;
 131              		.loc 1 552 0
 132 0008 7A68     		ldr	r2, [r7, #4]
ARM GAS  C:\Users\Petro\AppData\Local\Temp\ccd3b28V.s 			page 13


 133 000a C023     		mov	r3, #192
 134 000c 9B03     		lsl	r3, r3, #14
 135 000e 1340     		and	r3, r2
 136 0010 1A0D     		lsr	r2, r3, #20
 137 0012 131C     		mov	r3, r2
 138 0014 9B00     		lsl	r3, r3, #2
 139 0016 9B18     		add	r3, r3, r2
 140 0018 5B00     		lsl	r3, r3, #1
 141 001a FB60     		str	r3, [r7, #12]
 553:Generated_Source\PSoC4/RTC.h ****     retVal += (inputTime & RTC_HOURS_MASK) >> RTC_HOURS_OFFSET;
 142              		.loc 1 553 0
 143 001c 7A68     		ldr	r2, [r7, #4]
 144 001e F023     		mov	r3, #240
 145 0020 1B03     		lsl	r3, r3, #12
 146 0022 1340     		and	r3, r2
 147 0024 1B0C     		lsr	r3, r3, #16
 148 0026 FA68     		ldr	r2, [r7, #12]
 149 0028 D318     		add	r3, r2, r3
 150 002a FB60     		str	r3, [r7, #12]
 554:Generated_Source\PSoC4/RTC.h **** 
 555:Generated_Source\PSoC4/RTC.h ****     return (retVal);
 151              		.loc 1 555 0
 152 002c FB68     		ldr	r3, [r7, #12]
 556:Generated_Source\PSoC4/RTC.h **** }
 153              		.loc 1 556 0
 154 002e 181C     		mov	r0, r3
 155 0030 BD46     		mov	sp, r7
 156 0032 04B0     		add	sp, sp, #16
 157              		@ sp needed
 158 0034 80BD     		pop	{r7, pc}
 159              		.cfi_endproc
 160              	.LFE6:
 161              		.size	RTC_GetHours, .-RTC_GetHours
 162 0036 C046     		.section	.text.RTC_GetDay,"ax",%progbits
 163              		.align	2
 164              		.code	16
 165              		.thumb_func
 166              		.type	RTC_GetDay, %function
 167              	RTC_GetDay:
 168              	.LFB8:
 557:Generated_Source\PSoC4/RTC.h **** 
 558:Generated_Source\PSoC4/RTC.h **** 
 559:Generated_Source\PSoC4/RTC.h **** /*******************************************************************************
 560:Generated_Source\PSoC4/RTC.h **** * Function Name: RTC_GetAmPm
 561:Generated_Source\PSoC4/RTC.h **** ****************************************************************************//**
 562:Generated_Source\PSoC4/RTC.h **** *
 563:Generated_Source\PSoC4/RTC.h **** * \brief
 564:Generated_Source\PSoC4/RTC.h **** *  Returns the AM/PM status from the time value that is passed as parameter.
 565:Generated_Source\PSoC4/RTC.h **** *
 566:Generated_Source\PSoC4/RTC.h **** * \param
 567:Generated_Source\PSoC4/RTC.h **** *  time The time value.
 568:Generated_Source\PSoC4/RTC.h **** *
 569:Generated_Source\PSoC4/RTC.h **** * \return
 570:Generated_Source\PSoC4/RTC.h **** *  RTC_AM - AM.
 571:Generated_Source\PSoC4/RTC.h **** * \return
 572:Generated_Source\PSoC4/RTC.h **** *  RTC_PM - PM.
 573:Generated_Source\PSoC4/RTC.h **** *
ARM GAS  C:\Users\Petro\AppData\Local\Temp\ccd3b28V.s 			page 14


 574:Generated_Source\PSoC4/RTC.h **** *******************************************************************************/
 575:Generated_Source\PSoC4/RTC.h **** static CY_INLINE uint32 RTC_GetAmPm(uint32 inputTime)
 576:Generated_Source\PSoC4/RTC.h **** {
 577:Generated_Source\PSoC4/RTC.h ****     return (RTC_IsBitSet(inputTime, RTC_PERIOD_OF_DAY_MASK));
 578:Generated_Source\PSoC4/RTC.h **** }
 579:Generated_Source\PSoC4/RTC.h **** 
 580:Generated_Source\PSoC4/RTC.h **** 
 581:Generated_Source\PSoC4/RTC.h **** /*******************************************************************************
 582:Generated_Source\PSoC4/RTC.h **** * Function Name: RTC_GetDay
 583:Generated_Source\PSoC4/RTC.h **** ****************************************************************************//**
 584:Generated_Source\PSoC4/RTC.h **** *
 585:Generated_Source\PSoC4/RTC.h **** * \brief
 586:Generated_Source\PSoC4/RTC.h **** *  Returns the day value from the date value that is passed as parameter.
 587:Generated_Source\PSoC4/RTC.h **** *
 588:Generated_Source\PSoC4/RTC.h **** * \param
 589:Generated_Source\PSoC4/RTC.h **** *  date The date value.
 590:Generated_Source\PSoC4/RTC.h **** *
 591:Generated_Source\PSoC4/RTC.h **** * \return
 592:Generated_Source\PSoC4/RTC.h **** *  The day value.
 593:Generated_Source\PSoC4/RTC.h **** *
 594:Generated_Source\PSoC4/RTC.h **** *******************************************************************************/
 595:Generated_Source\PSoC4/RTC.h **** static CY_INLINE uint32 RTC_GetDay(uint32 date)
 596:Generated_Source\PSoC4/RTC.h **** {
 169              		.loc 1 596 0
 170              		.cfi_startproc
 171 0000 80B5     		push	{r7, lr}
 172              		.cfi_def_cfa_offset 8
 173              		.cfi_offset 7, -8
 174              		.cfi_offset 14, -4
 175 0002 84B0     		sub	sp, sp, #16
 176              		.cfi_def_cfa_offset 24
 177 0004 00AF     		add	r7, sp, #0
 178              		.cfi_def_cfa_register 7
 179 0006 7860     		str	r0, [r7, #4]
 597:Generated_Source\PSoC4/RTC.h ****     uint32 retVal;
 598:Generated_Source\PSoC4/RTC.h **** 
 599:Generated_Source\PSoC4/RTC.h ****     retVal  = ((date & RTC_10_DAY_MASK) >> RTC_10_DAY_OFFSET) * 10u;
 180              		.loc 1 599 0
 181 0008 7A68     		ldr	r2, [r7, #4]
 182 000a C023     		mov	r3, #192
 183 000c 9B03     		lsl	r3, r3, #14
 184 000e 1340     		and	r3, r2
 185 0010 1A0D     		lsr	r2, r3, #20
 186 0012 131C     		mov	r3, r2
 187 0014 9B00     		lsl	r3, r3, #2
 188 0016 9B18     		add	r3, r3, r2
 189 0018 5B00     		lsl	r3, r3, #1
 190 001a FB60     		str	r3, [r7, #12]
 600:Generated_Source\PSoC4/RTC.h ****     retVal += (date & RTC_DAY_MASK) >> RTC_DAY_OFFSET;
 191              		.loc 1 600 0
 192 001c 7A68     		ldr	r2, [r7, #4]
 193 001e F023     		mov	r3, #240
 194 0020 1B03     		lsl	r3, r3, #12
 195 0022 1340     		and	r3, r2
 196 0024 1B0C     		lsr	r3, r3, #16
 197 0026 FA68     		ldr	r2, [r7, #12]
 198 0028 D318     		add	r3, r2, r3
ARM GAS  C:\Users\Petro\AppData\Local\Temp\ccd3b28V.s 			page 15


 199 002a FB60     		str	r3, [r7, #12]
 601:Generated_Source\PSoC4/RTC.h **** 
 602:Generated_Source\PSoC4/RTC.h ****     return (retVal);
 200              		.loc 1 602 0
 201 002c FB68     		ldr	r3, [r7, #12]
 603:Generated_Source\PSoC4/RTC.h **** }
 202              		.loc 1 603 0
 203 002e 181C     		mov	r0, r3
 204 0030 BD46     		mov	sp, r7
 205 0032 04B0     		add	sp, sp, #16
 206              		@ sp needed
 207 0034 80BD     		pop	{r7, pc}
 208              		.cfi_endproc
 209              	.LFE8:
 210              		.size	RTC_GetDay, .-RTC_GetDay
 211 0036 C046     		.section	.text.RTC_GetMonth,"ax",%progbits
 212              		.align	2
 213              		.code	16
 214              		.thumb_func
 215              		.type	RTC_GetMonth, %function
 216              	RTC_GetMonth:
 217              	.LFB9:
 604:Generated_Source\PSoC4/RTC.h **** 
 605:Generated_Source\PSoC4/RTC.h **** 
 606:Generated_Source\PSoC4/RTC.h **** /*******************************************************************************
 607:Generated_Source\PSoC4/RTC.h **** * Function Name: RTC_GetMonth
 608:Generated_Source\PSoC4/RTC.h **** ****************************************************************************//**
 609:Generated_Source\PSoC4/RTC.h **** *
 610:Generated_Source\PSoC4/RTC.h **** * \brief
 611:Generated_Source\PSoC4/RTC.h **** *  Returns the month value from the date value that is passed as parameter.
 612:Generated_Source\PSoC4/RTC.h **** *
 613:Generated_Source\PSoC4/RTC.h **** * \param
 614:Generated_Source\PSoC4/RTC.h **** *  date The date value.
 615:Generated_Source\PSoC4/RTC.h **** *
 616:Generated_Source\PSoC4/RTC.h **** * \return
 617:Generated_Source\PSoC4/RTC.h **** *  The month value.
 618:Generated_Source\PSoC4/RTC.h **** *
 619:Generated_Source\PSoC4/RTC.h **** *******************************************************************************/
 620:Generated_Source\PSoC4/RTC.h **** static CY_INLINE uint32 RTC_GetMonth(uint32 date)
 621:Generated_Source\PSoC4/RTC.h **** {
 218              		.loc 1 621 0
 219              		.cfi_startproc
 220 0000 80B5     		push	{r7, lr}
 221              		.cfi_def_cfa_offset 8
 222              		.cfi_offset 7, -8
 223              		.cfi_offset 14, -4
 224 0002 84B0     		sub	sp, sp, #16
 225              		.cfi_def_cfa_offset 24
 226 0004 00AF     		add	r7, sp, #0
 227              		.cfi_def_cfa_register 7
 228 0006 7860     		str	r0, [r7, #4]
 622:Generated_Source\PSoC4/RTC.h ****     uint32 retVal;
 623:Generated_Source\PSoC4/RTC.h **** 
 624:Generated_Source\PSoC4/RTC.h ****     retVal  = ((date & RTC_10_MONTH_MASK) >> RTC_10_MONTH_OFFSET) * 10u;
 229              		.loc 1 624 0
 230 0008 7A68     		ldr	r2, [r7, #4]
 231 000a 8023     		mov	r3, #128
ARM GAS  C:\Users\Petro\AppData\Local\Temp\ccd3b28V.s 			page 16


 232 000c 5B05     		lsl	r3, r3, #21
 233 000e 1340     		and	r3, r2
 234 0010 1A0F     		lsr	r2, r3, #28
 235 0012 131C     		mov	r3, r2
 236 0014 9B00     		lsl	r3, r3, #2
 237 0016 9B18     		add	r3, r3, r2
 238 0018 5B00     		lsl	r3, r3, #1
 239 001a FB60     		str	r3, [r7, #12]
 625:Generated_Source\PSoC4/RTC.h ****     retVal += (date & RTC_MONTH_MASK) >> RTC_MONTH_OFFSET;
 240              		.loc 1 625 0
 241 001c 7A68     		ldr	r2, [r7, #4]
 242 001e F023     		mov	r3, #240
 243 0020 1B05     		lsl	r3, r3, #20
 244 0022 1340     		and	r3, r2
 245 0024 1B0E     		lsr	r3, r3, #24
 246 0026 FA68     		ldr	r2, [r7, #12]
 247 0028 D318     		add	r3, r2, r3
 248 002a FB60     		str	r3, [r7, #12]
 626:Generated_Source\PSoC4/RTC.h **** 
 627:Generated_Source\PSoC4/RTC.h ****     return (retVal);
 249              		.loc 1 627 0
 250 002c FB68     		ldr	r3, [r7, #12]
 628:Generated_Source\PSoC4/RTC.h **** }
 251              		.loc 1 628 0
 252 002e 181C     		mov	r0, r3
 253 0030 BD46     		mov	sp, r7
 254 0032 04B0     		add	sp, sp, #16
 255              		@ sp needed
 256 0034 80BD     		pop	{r7, pc}
 257              		.cfi_endproc
 258              	.LFE9:
 259              		.size	RTC_GetMonth, .-RTC_GetMonth
 260 0036 C046     		.section	.text.RTC_GetYear,"ax",%progbits
 261              		.align	2
 262              		.code	16
 263              		.thumb_func
 264              		.type	RTC_GetYear, %function
 265              	RTC_GetYear:
 266              	.LFB10:
 629:Generated_Source\PSoC4/RTC.h **** 
 630:Generated_Source\PSoC4/RTC.h **** 
 631:Generated_Source\PSoC4/RTC.h **** /*******************************************************************************
 632:Generated_Source\PSoC4/RTC.h **** * Function Name: RTC_GetYear
 633:Generated_Source\PSoC4/RTC.h **** ****************************************************************************//**
 634:Generated_Source\PSoC4/RTC.h **** *
 635:Generated_Source\PSoC4/RTC.h **** * \brief
 636:Generated_Source\PSoC4/RTC.h **** *  Returns the year value from the date value that is passed as parameter.
 637:Generated_Source\PSoC4/RTC.h **** *
 638:Generated_Source\PSoC4/RTC.h **** * \param
 639:Generated_Source\PSoC4/RTC.h **** *  date The date value.
 640:Generated_Source\PSoC4/RTC.h **** *
 641:Generated_Source\PSoC4/RTC.h **** * \return
 642:Generated_Source\PSoC4/RTC.h **** *  The year value.
 643:Generated_Source\PSoC4/RTC.h **** *
 644:Generated_Source\PSoC4/RTC.h **** *******************************************************************************/
 645:Generated_Source\PSoC4/RTC.h **** static CY_INLINE uint32 RTC_GetYear(uint32 date)
 646:Generated_Source\PSoC4/RTC.h **** {
ARM GAS  C:\Users\Petro\AppData\Local\Temp\ccd3b28V.s 			page 17


 267              		.loc 1 646 0
 268              		.cfi_startproc
 269 0000 80B5     		push	{r7, lr}
 270              		.cfi_def_cfa_offset 8
 271              		.cfi_offset 7, -8
 272              		.cfi_offset 14, -4
 273 0002 84B0     		sub	sp, sp, #16
 274              		.cfi_def_cfa_offset 24
 275 0004 00AF     		add	r7, sp, #0
 276              		.cfi_def_cfa_register 7
 277 0006 7860     		str	r0, [r7, #4]
 647:Generated_Source\PSoC4/RTC.h ****     uint32 retVal;
 648:Generated_Source\PSoC4/RTC.h **** 
 649:Generated_Source\PSoC4/RTC.h ****     retVal  = ((date & RTC_1000_YEAR_MASK) >> RTC_1000_YEAR_OFFSET) * 1000u;
 278              		.loc 1 649 0
 279 0008 7A68     		ldr	r2, [r7, #4]
 280 000a C023     		mov	r3, #192
 281 000c 9B01     		lsl	r3, r3, #6
 282 000e 1340     		and	r3, r2
 283 0010 1B0B     		lsr	r3, r3, #12
 284 0012 FA22     		mov	r2, #250
 285 0014 9200     		lsl	r2, r2, #2
 286 0016 5343     		mul	r3, r2
 287 0018 FB60     		str	r3, [r7, #12]
 650:Generated_Source\PSoC4/RTC.h ****     retVal += ((date & RTC_100_YEAR_MASK) >> RTC_100_YEAR_OFFSET) * 100u;
 288              		.loc 1 650 0
 289 001a 7A68     		ldr	r2, [r7, #4]
 290 001c F023     		mov	r3, #240
 291 001e 1B01     		lsl	r3, r3, #4
 292 0020 1340     		and	r3, r2
 293 0022 1B0A     		lsr	r3, r3, #8
 294 0024 6422     		mov	r2, #100
 295 0026 5343     		mul	r3, r2
 296 0028 FA68     		ldr	r2, [r7, #12]
 297 002a D318     		add	r3, r2, r3
 298 002c FB60     		str	r3, [r7, #12]
 651:Generated_Source\PSoC4/RTC.h ****     retVal += ((date & RTC_10_YEAR_MASK) >> RTC_10_YEAR_OFFSET) * 10u;
 299              		.loc 1 651 0
 300 002e 7B68     		ldr	r3, [r7, #4]
 301 0030 F022     		mov	r2, #240
 302 0032 1340     		and	r3, r2
 303 0034 1A09     		lsr	r2, r3, #4
 304 0036 131C     		mov	r3, r2
 305 0038 9B00     		lsl	r3, r3, #2
 306 003a 9B18     		add	r3, r3, r2
 307 003c 5B00     		lsl	r3, r3, #1
 308 003e 1A1C     		mov	r2, r3
 309 0040 FB68     		ldr	r3, [r7, #12]
 310 0042 9B18     		add	r3, r3, r2
 311 0044 FB60     		str	r3, [r7, #12]
 652:Generated_Source\PSoC4/RTC.h ****     retVal += (date & RTC_YEAR_MASK) >> RTC_YEAR_OFFSET;
 312              		.loc 1 652 0
 313 0046 7B68     		ldr	r3, [r7, #4]
 314 0048 0F22     		mov	r2, #15
 315 004a 1340     		and	r3, r2
 316 004c FA68     		ldr	r2, [r7, #12]
 317 004e D318     		add	r3, r2, r3
ARM GAS  C:\Users\Petro\AppData\Local\Temp\ccd3b28V.s 			page 18


 318 0050 FB60     		str	r3, [r7, #12]
 653:Generated_Source\PSoC4/RTC.h **** 
 654:Generated_Source\PSoC4/RTC.h ****     return (retVal);
 319              		.loc 1 654 0
 320 0052 FB68     		ldr	r3, [r7, #12]
 655:Generated_Source\PSoC4/RTC.h **** }
 321              		.loc 1 655 0
 322 0054 181C     		mov	r0, r3
 323 0056 BD46     		mov	sp, r7
 324 0058 04B0     		add	sp, sp, #16
 325              		@ sp needed
 326 005a 80BD     		pop	{r7, pc}
 327              		.cfi_endproc
 328              	.LFE10:
 329              		.size	RTC_GetYear, .-RTC_GetYear
 330              		.comm	fatFs,560,4
 331              		.comm	fileO,552,4
 332              		.comm	createFlag,4,4
 333              		.bss
 334              		.align	2
 335              	nameFile:
 336 0000 00000000 		.space	20
 336      00000000 
 336      00000000 
 336      00000000 
 336      00000000 
 337              		.data
 338              		.align	2
 339              		.type	idSkier, %object
 340              		.size	idSkier, 4
 341              	idSkier:
 342 0000 01000000 		.word	1
 343              		.align	2
 344              		.type	position, %object
 345              		.size	position, 4
 346              	position:
 347 0004 01000000 		.word	1
 348              		.section	.rodata
 349              		.align	2
 350              	.LC1:
 351 0000 00       		.ascii	"\000"
 352              		.section	.text.LogStart,"ax",%progbits
 353              		.align	2
 354              		.global	LogStart
 355              		.code	16
 356              		.thumb_func
 357              		.type	LogStart, %function
 358              	LogStart:
 359              	.LFB63:
 360              		.file 2 "lib_DB\\logResult.c"
   1:lib_DB/logResult.c **** #include <CyLib.h>
   2:lib_DB/logResult.c **** #include <stdio.h>
   3:lib_DB/logResult.c **** #include <RTC.h>
   4:lib_DB/logResult.c **** #include <project.h>
   5:lib_DB/logResult.c **** 
   6:lib_DB/logResult.c **** #include "lib_Fat\diskio.h"
   7:lib_DB/logResult.c **** #include <lib_BLE/bluetooth.h>
ARM GAS  C:\Users\Petro\AppData\Local\Temp\ccd3b28V.s 			page 19


   8:lib_DB/logResult.c **** #include "logResult.h"
   9:lib_DB/logResult.c **** 
  10:lib_DB/logResult.c **** /* lenth name .txt file */
  11:lib_DB/logResult.c **** #define LEN_NAME        20
  12:lib_DB/logResult.c **** 
  13:lib_DB/logResult.c **** /* lenth buffer from time skier */
  14:lib_DB/logResult.c **** #define LEN_DATA        20
  15:lib_DB/logResult.c **** 
  16:lib_DB/logResult.c **** /* len buffer to save information on SD card */
  17:lib_DB/logResult.c **** #define LEN_DATA_ALL    100
  18:lib_DB/logResult.c **** 
  19:lib_DB/logResult.c **** 
  20:lib_DB/logResult.c **** FATFS fatFs;    /* File object */
  21:lib_DB/logResult.c **** FIL fileO;      /* File info */
  22:lib_DB/logResult.c **** 
  23:lib_DB/logResult.c **** /* flag who shows that the establishment of the file */
  24:lib_DB/logResult.c **** DWORD createFlag;  
  25:lib_DB/logResult.c **** 
  26:lib_DB/logResult.c **** static char nameFile[LEN_NAME];
  27:lib_DB/logResult.c **** static uint32_t idSkier = 1;
  28:lib_DB/logResult.c **** static uint32_t position = 1;
  29:lib_DB/logResult.c **** 
  30:lib_DB/logResult.c **** /*******************************************************************************
  31:lib_DB/logResult.c **** * Function Name: LogStart
  32:lib_DB/logResult.c **** ********************************************************************************
  33:lib_DB/logResult.c **** *
  34:lib_DB/logResult.c **** * Summary:
  35:lib_DB/logResult.c **** *  Start log system(mount fat)
  36:lib_DB/logResult.c **** *
  37:lib_DB/logResult.c **** * Return:
  38:lib_DB/logResult.c **** *   resultF - result mount FAT system (from enum FRESULT)
  39:lib_DB/logResult.c **** *
  40:lib_DB/logResult.c **** *******************************************************************************/
  41:lib_DB/logResult.c **** uint32_t LogStart(void)
  42:lib_DB/logResult.c **** {
 361              		.loc 2 42 0
 362              		.cfi_startproc
 363 0000 90B5     		push	{r4, r7, lr}
 364              		.cfi_def_cfa_offset 12
 365              		.cfi_offset 4, -12
 366              		.cfi_offset 7, -8
 367              		.cfi_offset 14, -4
 368 0002 83B0     		sub	sp, sp, #12
 369              		.cfi_def_cfa_offset 24
 370 0004 00AF     		add	r7, sp, #0
 371              		.cfi_def_cfa_register 7
  43:lib_DB/logResult.c ****     uint8 resultF;
  44:lib_DB/logResult.c ****     
  45:lib_DB/logResult.c ****     /* Register work area to the default drive */
  46:lib_DB/logResult.c ****     resultF = f_mount(&fatFs, "", 1);
 372              		.loc 2 46 0
 373 0006 FC1D     		add	r4, r7, #7
 374 0008 074A     		ldr	r2, .L15
 375 000a 084B     		ldr	r3, .L15+4
 376 000c 101C     		mov	r0, r2
 377 000e 191C     		mov	r1, r3
 378 0010 0122     		mov	r2, #1
ARM GAS  C:\Users\Petro\AppData\Local\Temp\ccd3b28V.s 			page 20


 379 0012 FFF7FEFF 		bl	f_mount
 380 0016 031C     		mov	r3, r0
 381 0018 2370     		strb	r3, [r4]
  47:lib_DB/logResult.c ****     
  48:lib_DB/logResult.c ****     return resultF;   
 382              		.loc 2 48 0
 383 001a FB1D     		add	r3, r7, #7
 384 001c 1B78     		ldrb	r3, [r3]
  49:lib_DB/logResult.c **** }
 385              		.loc 2 49 0
 386 001e 181C     		mov	r0, r3
 387 0020 BD46     		mov	sp, r7
 388 0022 03B0     		add	sp, sp, #12
 389              		@ sp needed
 390 0024 90BD     		pop	{r4, r7, pc}
 391              	.L16:
 392 0026 C046     		.align	2
 393              	.L15:
 394 0028 00000000 		.word	fatFs
 395 002c 00000000 		.word	.LC1
 396              		.cfi_endproc
 397              	.LFE63:
 398              		.size	LogStart, .-LogStart
 399              		.section	.rodata
 400 0001 000000   		.align	2
 401              	.LC4:
 402 0004 25303264 		.ascii	"%02d_%02d_%d.txt\000"
 402      5F253032 
 402      645F2564 
 402      2E747874 
 402      00
 403 0015 000000   		.align	2
 404              	.LC8:
 405 0018 09092530 		.ascii	"\011\011%02lu:%02lu:%02lu:%03u\000"
 405      326C753A 
 405      2530326C 
 405      753A2530 
 405      326C753A 
 406 0031 000000   		.align	2
 407              	.LC10:
 408 0034 09092530 		.ascii	"\011\011%02lu:%03u\000"
 408      326C753A 
 408      25303375 
 408      00
 409 0041 000000   		.align	2
 410              	.LC13:
 411 0044 0A0D2564 		.ascii	"\012\015%d%s%s%s\012\015\000"
 411      25732573 
 411      25730A0D 
 411      00
 412 0051 000000   		.align	2
 413              	.LC15:
 414 0054 0D0A5379 		.ascii	"\015\012System started %02d:%02d:%02d\012\015\000"
 414      7374656D 
 414      20737461 
 414      72746564 
 414      20253032 
ARM GAS  C:\Users\Petro\AppData\Local\Temp\ccd3b28V.s 			page 21


 415 0076 0000     		.align	2
 416              	.LC17:
 417 0078 2D2D2D2D 		.ascii	"--------------------------------------------------\012"
 417      2D2D2D2D 
 417      2D2D2D2D 
 417      2D2D2D2D 
 417      2D2D2D2D 
 418 00ab 0D00     		.ascii	"\015\000"
 419 00ad 000000   		.align	2
 420              	.LC19:
 421 00b0 4E554D09 		.ascii	"NUM\011\011START\011\011\011FINISH\011\011\011RESUL"
 421      09535441 
 421      52540909 
 421      0946494E 
 421      49534809 
 422 00cb 540A0D00 		.ascii	"T\012\015\000"
 423              		.section	.text.WriteSkierResult,"ax",%progbits
 424              		.align	2
 425              		.global	WriteSkierResult
 426              		.code	16
 427              		.thumb_func
 428              		.type	WriteSkierResult, %function
 429              	WriteSkierResult:
 430              	.LFB64:
  50:lib_DB/logResult.c **** 
  51:lib_DB/logResult.c **** 
  52:lib_DB/logResult.c **** /*******************************************************************************
  53:lib_DB/logResult.c **** * Function Name: WriteSkierResult
  54:lib_DB/logResult.c **** ********************************************************************************
  55:lib_DB/logResult.c **** *
  56:lib_DB/logResult.c **** * Summary:
  57:lib_DB/logResult.c **** *  Start log system(mount fat)
  58:lib_DB/logResult.c **** *
  59:lib_DB/logResult.c **** * Parametrs:
  60:lib_DB/logResult.c **** *   *data - pointer from result skiers
  61:lib_DB/logResult.c **** * Return:
  62:lib_DB/logResult.c **** *   resultF - result mount FAT system (from enum FRESULT)
  63:lib_DB/logResult.c **** *
  64:lib_DB/logResult.c **** *******************************************************************************/
  65:lib_DB/logResult.c **** uint32_t WriteSkierResult(skierDB_El *data)
  66:lib_DB/logResult.c **** {
 431              		.loc 2 66 0
 432              		.cfi_startproc
 433 0000 B0B5     		push	{r4, r5, r7, lr}
 434              		.cfi_def_cfa_offset 16
 435              		.cfi_offset 4, -16
 436              		.cfi_offset 5, -12
 437              		.cfi_offset 7, -8
 438              		.cfi_offset 14, -4
 439 0002 B8B0     		sub	sp, sp, #224
 440              		.cfi_def_cfa_offset 240
 441 0004 02AF     		add	r7, sp, #8
 442              		.cfi_def_cfa 7, 232
 443 0006 7860     		str	r0, [r7, #4]
  67:lib_DB/logResult.c ****     uint8 resultF;
  68:lib_DB/logResult.c ****     uint count;
  69:lib_DB/logResult.c ****     
ARM GAS  C:\Users\Petro\AppData\Local\Temp\ccd3b28V.s 			page 22


  70:lib_DB/logResult.c ****     uint32_t nameYear;
  71:lib_DB/logResult.c ****     uint32_t nameMonth;
  72:lib_DB/logResult.c ****     uint32_t nameDay;
  73:lib_DB/logResult.c ****     uint32_t date;
  74:lib_DB/logResult.c ****     
  75:lib_DB/logResult.c ****     /*get date from RTC*/
  76:lib_DB/logResult.c ****     date = RTC_GetDate();
 444              		.loc 2 76 0
 445 0008 FFF7FEFF 		bl	RTC_GetDate
 446 000c 031C     		mov	r3, r0
 447 000e D022     		mov	r2, #208
 448 0010 BA18     		add	r2, r7, r2
 449 0012 1360     		str	r3, [r2]
  77:lib_DB/logResult.c ****     nameYear = RTC_GetYear(date)-2000;
 450              		.loc 2 77 0
 451 0014 D023     		mov	r3, #208
 452 0016 FB18     		add	r3, r7, r3
 453 0018 1B68     		ldr	r3, [r3]
 454 001a 181C     		mov	r0, r3
 455 001c FFF7FEFF 		bl	RTC_GetYear
 456 0020 031C     		mov	r3, r0
 457 0022 904A     		ldr	r2, .L22
 458 0024 9446     		mov	ip, r2
 459 0026 6344     		add	r3, r3, ip
 460 0028 CC22     		mov	r2, #204
 461 002a BA18     		add	r2, r7, r2
 462 002c 1360     		str	r3, [r2]
  78:lib_DB/logResult.c ****     nameMonth = RTC_GetMonth(date);
 463              		.loc 2 78 0
 464 002e D023     		mov	r3, #208
 465 0030 FB18     		add	r3, r7, r3
 466 0032 1B68     		ldr	r3, [r3]
 467 0034 181C     		mov	r0, r3
 468 0036 FFF7FEFF 		bl	RTC_GetMonth
 469 003a 031C     		mov	r3, r0
 470 003c C822     		mov	r2, #200
 471 003e BA18     		add	r2, r7, r2
 472 0040 1360     		str	r3, [r2]
  79:lib_DB/logResult.c ****     nameDay = RTC_GetDay(date);
 473              		.loc 2 79 0
 474 0042 D023     		mov	r3, #208
 475 0044 FB18     		add	r3, r7, r3
 476 0046 1B68     		ldr	r3, [r3]
 477 0048 181C     		mov	r0, r3
 478 004a FFF7FEFF 		bl	RTC_GetDay
 479 004e 031C     		mov	r3, r0
 480 0050 C422     		mov	r2, #196
 481 0052 BA18     		add	r2, r7, r2
 482 0054 1360     		str	r3, [r2]
  80:lib_DB/logResult.c ****     
  81:lib_DB/logResult.c ****     /*Construct name of file in format dd_mm_yyyy*/
  82:lib_DB/logResult.c ****     sprintf(nameFile,"%02d_%02d_%d.txt",nameDay,nameMonth,nameYear);
 483              		.loc 2 82 0
 484 0056 8448     		ldr	r0, .L22+4
 485 0058 8449     		ldr	r1, .L22+8
 486 005a C423     		mov	r3, #196
 487 005c FB18     		add	r3, r7, r3
ARM GAS  C:\Users\Petro\AppData\Local\Temp\ccd3b28V.s 			page 23


 488 005e 1A68     		ldr	r2, [r3]
 489 0060 C823     		mov	r3, #200
 490 0062 FB18     		add	r3, r7, r3
 491 0064 1C68     		ldr	r4, [r3]
 492 0066 CC23     		mov	r3, #204
 493 0068 FB18     		add	r3, r7, r3
 494 006a 1B68     		ldr	r3, [r3]
 495 006c 0093     		str	r3, [sp]
 496 006e 231C     		mov	r3, r4
 497 0070 FFF7FEFF 		bl	sprintf
  83:lib_DB/logResult.c ****     createFlag = 0;
 498              		.loc 2 83 0
 499 0074 7E4B     		ldr	r3, .L22+12
 500 0076 0022     		mov	r2, #0
 501 0078 1A60     		str	r2, [r3]
  84:lib_DB/logResult.c ****     resultF = f_open(&fileO, nameFile, FA_WRITE | FA_OPEN_APPEND, &createFlag);
 502              		.loc 2 84 0
 503 007a D723     		mov	r3, #215
 504 007c FC18     		add	r4, r7, r3
 505 007e 7D49     		ldr	r1, .L22+16
 506 0080 794A     		ldr	r2, .L22+4
 507 0082 7B4B     		ldr	r3, .L22+12
 508 0084 081C     		mov	r0, r1
 509 0086 111C     		mov	r1, r2
 510 0088 3222     		mov	r2, #50
 511 008a FFF7FEFF 		bl	f_open
 512 008e 031C     		mov	r3, r0
 513 0090 2370     		strb	r3, [r4]
  85:lib_DB/logResult.c ****     
  86:lib_DB/logResult.c ****     if(resultF == RES_OK)
 514              		.loc 2 86 0
 515 0092 D723     		mov	r3, #215
 516 0094 FB18     		add	r3, r7, r3
 517 0096 1B78     		ldrb	r3, [r3]
 518 0098 002B     		cmp	r3, #0
 519 009a 00D0     		beq	.LCB405
 520 009c DAE0     		b	.L18	@long jump
 521              	.LCB405:
 522              	.LBB2:
  87:lib_DB/logResult.c ****     {
  88:lib_DB/logResult.c ****         /*Construct save data*/
  89:lib_DB/logResult.c ****         char start[LEN_DATA];
  90:lib_DB/logResult.c ****         char finish[LEN_DATA];
  91:lib_DB/logResult.c ****         char result[LEN_DATA];
  92:lib_DB/logResult.c ****         char writeData[LEN_DATA_ALL];
  93:lib_DB/logResult.c ****         
  94:lib_DB/logResult.c ****         RTC_DATE_TIME time;
  95:lib_DB/logResult.c ****         
  96:lib_DB/logResult.c ****         
  97:lib_DB/logResult.c ****         /*read unix time*/
  98:lib_DB/logResult.c ****         RTC_UnixToDateTime(&time, data->unixStartSkier, RTC_24_HOURS_FORMAT);
 523              		.loc 2 98 0
 524 009e 7B68     		ldr	r3, [r7, #4]
 525 00a0 5C68     		ldr	r4, [r3, #4]
 526 00a2 1B68     		ldr	r3, [r3]
 527 00a4 7022     		mov	r2, #112
 528 00a6 B918     		add	r1, r7, r2
ARM GAS  C:\Users\Petro\AppData\Local\Temp\ccd3b28V.s 			page 24


 529 00a8 0022     		mov	r2, #0
 530 00aa 0092     		str	r2, [sp]
 531 00ac 081C     		mov	r0, r1
 532 00ae 1A1C     		mov	r2, r3
 533 00b0 231C     		mov	r3, r4
 534 00b2 FFF7FEFF 		bl	RTC_UnixToDateTime
  99:lib_DB/logResult.c ****         sprintf(start, "\t\t%02lu:%02lu:%02lu:%03u",RTC_GetHours(time.time),RTC_GetMinutes(time.tim
 535              		.loc 2 99 0
 536 00b6 7023     		mov	r3, #112
 537 00b8 FB18     		add	r3, r7, r3
 538 00ba 1B68     		ldr	r3, [r3]
 539 00bc 181C     		mov	r0, r3
 540 00be FFF7FEFF 		bl	RTC_GetHours
 541 00c2 051C     		mov	r5, r0
 542 00c4 7023     		mov	r3, #112
 543 00c6 FB18     		add	r3, r7, r3
 544 00c8 1B68     		ldr	r3, [r3]
 545 00ca 181C     		mov	r0, r3
 546 00cc FFF7FEFF 		bl	RTC_GetMinutes
 547 00d0 041C     		mov	r4, r0
 548 00d2 7023     		mov	r3, #112
 549 00d4 FB18     		add	r3, r7, r3
 550 00d6 1B68     		ldr	r3, [r3]
 551 00d8 181C     		mov	r0, r3
 552 00da FFF7FEFF 		bl	RTC_GetSecond
 553 00de 7B68     		ldr	r3, [r7, #4]
 554 00e0 1B89     		ldrh	r3, [r3, #8]
 555 00e2 191C     		mov	r1, r3
 556 00e4 A823     		mov	r3, #168
 557 00e6 FA18     		add	r2, r7, r3
 558 00e8 634B     		ldr	r3, .L22+20
 559 00ea 0090     		str	r0, [sp]
 560 00ec 0191     		str	r1, [sp, #4]
 561 00ee 101C     		mov	r0, r2
 562 00f0 191C     		mov	r1, r3
 563 00f2 2A1C     		mov	r2, r5
 564 00f4 231C     		mov	r3, r4
 565 00f6 FFF7FEFF 		bl	sprintf
 100:lib_DB/logResult.c ****         RTC_UnixToDateTime(&time, data->unixFinishSkier, RTC_24_HOURS_FORMAT);
 566              		.loc 2 100 0
 567 00fa 7B68     		ldr	r3, [r7, #4]
 568 00fc 5C69     		ldr	r4, [r3, #20]
 569 00fe 1B69     		ldr	r3, [r3, #16]
 570 0100 7022     		mov	r2, #112
 571 0102 B918     		add	r1, r7, r2
 572 0104 0022     		mov	r2, #0
 573 0106 0092     		str	r2, [sp]
 574 0108 081C     		mov	r0, r1
 575 010a 1A1C     		mov	r2, r3
 576 010c 231C     		mov	r3, r4
 577 010e FFF7FEFF 		bl	RTC_UnixToDateTime
 101:lib_DB/logResult.c ****         sprintf(finish, "\t\t%02lu:%02lu:%02lu:%03u",RTC_GetHours(time.time),RTC_GetMinutes(time.ti
 578              		.loc 2 101 0
 579 0112 7023     		mov	r3, #112
 580 0114 FB18     		add	r3, r7, r3
 581 0116 1B68     		ldr	r3, [r3]
 582 0118 181C     		mov	r0, r3
ARM GAS  C:\Users\Petro\AppData\Local\Temp\ccd3b28V.s 			page 25


 583 011a FFF7FEFF 		bl	RTC_GetHours
 584 011e 051C     		mov	r5, r0
 585 0120 7023     		mov	r3, #112
 586 0122 FB18     		add	r3, r7, r3
 587 0124 1B68     		ldr	r3, [r3]
 588 0126 181C     		mov	r0, r3
 589 0128 FFF7FEFF 		bl	RTC_GetMinutes
 590 012c 041C     		mov	r4, r0
 591 012e 7023     		mov	r3, #112
 592 0130 FB18     		add	r3, r7, r3
 593 0132 1B68     		ldr	r3, [r3]
 594 0134 181C     		mov	r0, r3
 595 0136 FFF7FEFF 		bl	RTC_GetSecond
 596 013a 7B68     		ldr	r3, [r7, #4]
 597 013c 1B8B     		ldrh	r3, [r3, #24]
 598 013e 191C     		mov	r1, r3
 599 0140 9423     		mov	r3, #148
 600 0142 FA18     		add	r2, r7, r3
 601 0144 4C4B     		ldr	r3, .L22+20
 602 0146 0090     		str	r0, [sp]
 603 0148 0191     		str	r1, [sp, #4]
 604 014a 101C     		mov	r0, r2
 605 014c 191C     		mov	r1, r3
 606 014e 2A1C     		mov	r2, r5
 607 0150 231C     		mov	r3, r4
 608 0152 FFF7FEFF 		bl	sprintf
 102:lib_DB/logResult.c ****         sprintf(result, "\t\t%02lu:%03u",(uint32)data->secondsWay,data->millsWay);
 609              		.loc 2 102 0
 610 0156 7B68     		ldr	r3, [r7, #4]
 611 0158 5C6A     		ldr	r4, [r3, #36]
 612 015a 1B6A     		ldr	r3, [r3, #32]
 613 015c 1D1C     		mov	r5, r3
 614 015e 7B68     		ldr	r3, [r7, #4]
 615 0160 1B8D     		ldrh	r3, [r3, #40]
 616 0162 1C1C     		mov	r4, r3
 617 0164 8023     		mov	r3, #128
 618 0166 FA18     		add	r2, r7, r3
 619 0168 444B     		ldr	r3, .L22+24
 620 016a 101C     		mov	r0, r2
 621 016c 191C     		mov	r1, r3
 622 016e 2A1C     		mov	r2, r5
 623 0170 231C     		mov	r3, r4
 624 0172 FFF7FEFF 		bl	sprintf
 103:lib_DB/logResult.c ****         sprintf(writeData,"\n\r%d%s%s%s\n\r",position, start, finish, result);
 625              		.loc 2 103 0
 626 0176 424B     		ldr	r3, .L22+28
 627 0178 1A68     		ldr	r2, [r3]
 628 017a 0C23     		mov	r3, #12
 629 017c F818     		add	r0, r7, r3
 630 017e 4149     		ldr	r1, .L22+32
 631 0180 A823     		mov	r3, #168
 632 0182 FC18     		add	r4, r7, r3
 633 0184 9423     		mov	r3, #148
 634 0186 FB18     		add	r3, r7, r3
 635 0188 0093     		str	r3, [sp]
 636 018a 8023     		mov	r3, #128
 637 018c FB18     		add	r3, r7, r3
ARM GAS  C:\Users\Petro\AppData\Local\Temp\ccd3b28V.s 			page 26


 638 018e 0193     		str	r3, [sp, #4]
 639 0190 231C     		mov	r3, r4
 640 0192 FFF7FEFF 		bl	sprintf
 104:lib_DB/logResult.c ****               
 105:lib_DB/logResult.c ****         if((position == 1) || (createFlag == 1))
 641              		.loc 2 105 0
 642 0196 3A4B     		ldr	r3, .L22+28
 643 0198 1B68     		ldr	r3, [r3]
 644 019a 012B     		cmp	r3, #1
 645 019c 03D0     		beq	.L19
 646              		.loc 2 105 0 is_stmt 0 discriminator 1
 647 019e 344B     		ldr	r3, .L22+12
 648 01a0 1B68     		ldr	r3, [r3]
 649 01a2 012B     		cmp	r3, #1
 650 01a4 35D1     		bne	.L20
 651              	.L19:
 652              	.LBB3:
 106:lib_DB/logResult.c ****         {
 107:lib_DB/logResult.c ****             /*write new "cap"*/
 108:lib_DB/logResult.c ****             uint32_t tmpTime ;
 109:lib_DB/logResult.c ****             
 110:lib_DB/logResult.c ****             tmpTime = RTC_GetTime();
 653              		.loc 2 110 0 is_stmt 1
 654 01a6 FFF7FEFF 		bl	RTC_GetTime
 655 01aa 031C     		mov	r3, r0
 656 01ac C022     		mov	r2, #192
 657 01ae BA18     		add	r2, r7, r2
 658 01b0 1360     		str	r3, [r2]
 111:lib_DB/logResult.c ****             f_printf(&fileO,"\r\nSystem started %02d:%02d:%02d\n\r", RTC_GetHours(tmpTime),RTC_GetM
 659              		.loc 2 111 0
 660 01b2 C023     		mov	r3, #192
 661 01b4 FB18     		add	r3, r7, r3
 662 01b6 1B68     		ldr	r3, [r3]
 663 01b8 181C     		mov	r0, r3
 664 01ba FFF7FEFF 		bl	RTC_GetHours
 665 01be 051C     		mov	r5, r0
 666 01c0 C023     		mov	r3, #192
 667 01c2 FB18     		add	r3, r7, r3
 668 01c4 1B68     		ldr	r3, [r3]
 669 01c6 181C     		mov	r0, r3
 670 01c8 FFF7FEFF 		bl	RTC_GetMinutes
 671 01cc 041C     		mov	r4, r0
 672 01ce C023     		mov	r3, #192
 673 01d0 FB18     		add	r3, r7, r3
 674 01d2 1B68     		ldr	r3, [r3]
 675 01d4 181C     		mov	r0, r3
 676 01d6 FFF7FEFF 		bl	RTC_GetSecond
 677 01da 011C     		mov	r1, r0
 678 01dc 254A     		ldr	r2, .L22+16
 679 01de 2A4B     		ldr	r3, .L22+36
 680 01e0 0091     		str	r1, [sp]
 681 01e2 101C     		mov	r0, r2
 682 01e4 191C     		mov	r1, r3
 683 01e6 2A1C     		mov	r2, r5
 684 01e8 231C     		mov	r3, r4
 685 01ea FFF7FEFF 		bl	f_printf
 112:lib_DB/logResult.c ****             f_printf(&fileO,"--------------------------------------------------\n\r");
ARM GAS  C:\Users\Petro\AppData\Local\Temp\ccd3b28V.s 			page 27


 686              		.loc 2 112 0
 687 01ee 214A     		ldr	r2, .L22+16
 688 01f0 264B     		ldr	r3, .L22+40
 689 01f2 101C     		mov	r0, r2
 690 01f4 191C     		mov	r1, r3
 691 01f6 FFF7FEFF 		bl	f_printf
 113:lib_DB/logResult.c ****             f_printf(&fileO,"NUM\t\tSTART\t\t\tFINISH\t\t\tRESULT\n\r");
 692              		.loc 2 113 0
 693 01fa 1E4A     		ldr	r2, .L22+16
 694 01fc 244B     		ldr	r3, .L22+44
 695 01fe 101C     		mov	r0, r2
 696 0200 191C     		mov	r1, r3
 697 0202 FFF7FEFF 		bl	f_printf
 114:lib_DB/logResult.c ****             f_printf(&fileO,"--------------------------------------------------\n\r");
 698              		.loc 2 114 0
 699 0206 1B4A     		ldr	r2, .L22+16
 700 0208 204B     		ldr	r3, .L22+40
 701 020a 101C     		mov	r0, r2
 702 020c 191C     		mov	r1, r3
 703 020e FFF7FEFF 		bl	f_printf
 704              	.L20:
 705              	.LBE3:
 115:lib_DB/logResult.c ****             
 116:lib_DB/logResult.c ****         }
 117:lib_DB/logResult.c ****         
 118:lib_DB/logResult.c ****         /*write data*/
 119:lib_DB/logResult.c ****         resultF = f_write(&fileO, writeData, strlen(writeData),&count);
 706              		.loc 2 119 0
 707 0212 0C23     		mov	r3, #12
 708 0214 FB18     		add	r3, r7, r3
 709 0216 181C     		mov	r0, r3
 710 0218 FFF7FEFF 		bl	strlen
 711 021c 051C     		mov	r5, r0
 712 021e D723     		mov	r3, #215
 713 0220 FC18     		add	r4, r7, r3
 714 0222 1449     		ldr	r1, .L22+16
 715 0224 0C23     		mov	r3, #12
 716 0226 FA18     		add	r2, r7, r3
 717 0228 BC23     		mov	r3, #188
 718 022a FB18     		add	r3, r7, r3
 719 022c 081C     		mov	r0, r1
 720 022e 111C     		mov	r1, r2
 721 0230 2A1C     		mov	r2, r5
 722 0232 FFF7FEFF 		bl	f_write
 723 0236 031C     		mov	r3, r0
 724 0238 2370     		strb	r3, [r4]
 120:lib_DB/logResult.c ****         resultF = f_close(&fileO);
 725              		.loc 2 120 0
 726 023a D723     		mov	r3, #215
 727 023c FC18     		add	r4, r7, r3
 728 023e 0D4B     		ldr	r3, .L22+16
 729 0240 181C     		mov	r0, r3
 730 0242 FFF7FEFF 		bl	f_close
 731 0246 031C     		mov	r3, r0
 732 0248 2370     		strb	r3, [r4]
 121:lib_DB/logResult.c ****         position++;
 733              		.loc 2 121 0
ARM GAS  C:\Users\Petro\AppData\Local\Temp\ccd3b28V.s 			page 28


 734 024a 0D4B     		ldr	r3, .L22+28
 735 024c 1B68     		ldr	r3, [r3]
 736 024e 5A1C     		add	r2, r3, #1
 737 0250 0B4B     		ldr	r3, .L22+28
 738 0252 1A60     		str	r2, [r3]
 739              	.L18:
 740              	.LBE2:
 122:lib_DB/logResult.c ****     }
 123:lib_DB/logResult.c ****     
 124:lib_DB/logResult.c ****     return resultF;
 741              		.loc 2 124 0
 742 0254 D723     		mov	r3, #215
 743 0256 FB18     		add	r3, r7, r3
 744 0258 1B78     		ldrb	r3, [r3]
 125:lib_DB/logResult.c **** }
 745              		.loc 2 125 0
 746 025a 181C     		mov	r0, r3
 747 025c BD46     		mov	sp, r7
 748 025e 36B0     		add	sp, sp, #216
 749              		@ sp needed
 750 0260 B0BD     		pop	{r4, r5, r7, pc}
 751              	.L23:
 752 0262 C046     		.align	2
 753              	.L22:
 754 0264 30F8FFFF 		.word	-2000
 755 0268 00000000 		.word	nameFile
 756 026c 04000000 		.word	.LC4
 757 0270 00000000 		.word	createFlag
 758 0274 00000000 		.word	fileO
 759 0278 18000000 		.word	.LC8
 760 027c 34000000 		.word	.LC10
 761 0280 04000000 		.word	position
 762 0284 44000000 		.word	.LC13
 763 0288 54000000 		.word	.LC15
 764 028c 78000000 		.word	.LC17
 765 0290 B0000000 		.word	.LC19
 766              		.cfi_endproc
 767              	.LFE64:
 768              		.size	WriteSkierResult, .-WriteSkierResult
 769              		.section	.rodata
 770 00cf 00       		.align	2
 771              	.LC24:
 772 00d0 72656164 		.ascii	"read file\012\015\000"
 772      2066696C 
 772      650A0D00 
 773              		.align	2
 774              	.LC27:
 775 00dc 0A0D00   		.ascii	"\012\015\000"
 776 00df 00       		.section	.text.ReadSkierResultAndSendBLE,"ax",%progbits
 777              		.align	2
 778              		.global	ReadSkierResultAndSendBLE
 779              		.code	16
 780              		.thumb_func
 781              		.type	ReadSkierResultAndSendBLE, %function
 782              	ReadSkierResultAndSendBLE:
 783              	.LFB65:
 126:lib_DB/logResult.c **** 
ARM GAS  C:\Users\Petro\AppData\Local\Temp\ccd3b28V.s 			page 29


 127:lib_DB/logResult.c **** /*read and send bluetooth skier result*/
 128:lib_DB/logResult.c **** uint32_t ReadSkierResultAndSendBLE(void)
 129:lib_DB/logResult.c **** {
 784              		.loc 2 129 0
 785              		.cfi_startproc
 786 0000 80B5     		push	{r7, lr}
 787              		.cfi_def_cfa_offset 8
 788              		.cfi_offset 7, -8
 789              		.cfi_offset 14, -4
 790 0002 A2B0     		sub	sp, sp, #136
 791              		.cfi_def_cfa_offset 144
 792 0004 00AF     		add	r7, sp, #0
 793              		.cfi_def_cfa_register 7
 130:lib_DB/logResult.c ****     uint32_t resultF;
 131:lib_DB/logResult.c ****     char line[82];
 132:lib_DB/logResult.c ****     
 133:lib_DB/logResult.c ****     /*for send to buetooth*/
 134:lib_DB/logResult.c ****     uint16_t sendIdSkier ;
 135:lib_DB/logResult.c ****     uint16_t sendStartTime[LENGHT_DATA_BUFFER];
 136:lib_DB/logResult.c ****     uint16_t sendFinishTime[LENGHT_DATA_BUFFER];
 137:lib_DB/logResult.c ****     uint16_t sendResultTime[LENGHT_DATA_BUFFER];
 138:lib_DB/logResult.c ****     
 139:lib_DB/logResult.c ****     createFlag = 0;    
 794              		.loc 2 139 0
 795 0006 C34B     		ldr	r3, .L46
 796 0008 0022     		mov	r2, #0
 797 000a 1A60     		str	r2, [r3]
 140:lib_DB/logResult.c ****     resultF = f_open(&fileO, nameFile, FA_READ , &createFlag);
 798              		.loc 2 140 0
 799 000c C249     		ldr	r1, .L46+4
 800 000e C34A     		ldr	r2, .L46+8
 801 0010 C04B     		ldr	r3, .L46
 802 0012 081C     		mov	r0, r1
 803 0014 111C     		mov	r1, r2
 804 0016 0122     		mov	r2, #1
 805 0018 FFF7FEFF 		bl	f_open
 806 001c 031C     		mov	r3, r0
 807 001e 3B67     		str	r3, [r7, #112]
 141:lib_DB/logResult.c ****     
 142:lib_DB/logResult.c ****     SW_UART_DEBUG_PutString("read file\n\r");
 808              		.loc 2 142 0
 809 0020 BF4B     		ldr	r3, .L46+12
 810 0022 181C     		mov	r0, r3
 811 0024 FFF7FEFF 		bl	SW_UART_DEBUG_PutString
 143:lib_DB/logResult.c ****     while (f_gets(line, sizeof line, &fileO))
 812              		.loc 2 143 0
 813 0028 5EE1     		b	.L25
 814              	.L44:
 815              	.LBB4:
 144:lib_DB/logResult.c ****     {    
 145:lib_DB/logResult.c ****         uint32_t pointer = 0;
 816              		.loc 2 145 0
 817 002a 0023     		mov	r3, #0
 818 002c 8022     		mov	r2, #128
 819 002e BA18     		add	r2, r7, r2
 820 0030 1360     		str	r3, [r2]
 146:lib_DB/logResult.c ****         uint32_t coeff = 1;
ARM GAS  C:\Users\Petro\AppData\Local\Temp\ccd3b28V.s 			page 30


 821              		.loc 2 146 0
 822 0032 0123     		mov	r3, #1
 823 0034 FB67     		str	r3, [r7, #124]
 147:lib_DB/logResult.c ****         uint8_t counterMas = 0;
 824              		.loc 2 147 0
 825 0036 7B23     		mov	r3, #123
 826 0038 FB18     		add	r3, r7, r3
 827 003a 0022     		mov	r2, #0
 828 003c 1A70     		strb	r2, [r3]
 148:lib_DB/logResult.c ****         
 149:lib_DB/logResult.c ****         typedef enum {MAS_START_TIME,MAS_FINISH_TIME, MAS_RESULT_TIME}numMas;
 150:lib_DB/logResult.c ****         numMas currentMas ;
 151:lib_DB/logResult.c ****         
 152:lib_DB/logResult.c ****         if(isdigit(line[pointer]))
 829              		.loc 2 152 0
 830 003e B94B     		ldr	r3, .L46+16
 831 0040 1A68     		ldr	r2, [r3]
 832 0042 1C23     		mov	r3, #28
 833 0044 F918     		add	r1, r7, r3
 834 0046 8023     		mov	r3, #128
 835 0048 FB18     		add	r3, r7, r3
 836 004a 1B68     		ldr	r3, [r3]
 837 004c CB18     		add	r3, r1, r3
 838 004e 1B78     		ldrb	r3, [r3]
 839 0050 0133     		add	r3, r3, #1
 840 0052 D318     		add	r3, r2, r3
 841 0054 1B78     		ldrb	r3, [r3]
 842 0056 1A1C     		mov	r2, r3
 843 0058 0423     		mov	r3, #4
 844 005a 1340     		and	r3, r2
 845 005c 00D1     		bne	.LCB699
 846 005e 43E1     		b	.L25	@long jump
 847              	.LCB699:
 848              	.LBB5:
 153:lib_DB/logResult.c ****         {
 154:lib_DB/logResult.c ****             /*clear buffer*/
 155:lib_DB/logResult.c ****             int i;
 156:lib_DB/logResult.c ****             for(i=0;i<4; i++)
 849              		.loc 2 156 0
 850 0060 0023     		mov	r3, #0
 851 0062 7B67     		str	r3, [r7, #116]
 852 0064 13E0     		b	.L26
 853              	.L27:
 157:lib_DB/logResult.c ****             {
 158:lib_DB/logResult.c ****                 sendStartTime[i] = 0;
 854              		.loc 2 158 0 discriminator 3
 855 0066 1423     		mov	r3, #20
 856 0068 FB18     		add	r3, r7, r3
 857 006a 7A6F     		ldr	r2, [r7, #116]
 858 006c 5200     		lsl	r2, r2, #1
 859 006e 0021     		mov	r1, #0
 860 0070 D152     		strh	r1, [r2, r3]
 159:lib_DB/logResult.c ****                 sendFinishTime[i] = 0;
 861              		.loc 2 159 0 discriminator 3
 862 0072 0C23     		mov	r3, #12
 863 0074 FB18     		add	r3, r7, r3
 864 0076 7A6F     		ldr	r2, [r7, #116]
ARM GAS  C:\Users\Petro\AppData\Local\Temp\ccd3b28V.s 			page 31


 865 0078 5200     		lsl	r2, r2, #1
 866 007a 0021     		mov	r1, #0
 867 007c D152     		strh	r1, [r2, r3]
 160:lib_DB/logResult.c ****                 sendResultTime[i] = 0;
 868              		.loc 2 160 0 discriminator 3
 869 007e 3B1D     		add	r3, r7, #4
 870 0080 7A6F     		ldr	r2, [r7, #116]
 871 0082 5200     		lsl	r2, r2, #1
 872 0084 0021     		mov	r1, #0
 873 0086 D152     		strh	r1, [r2, r3]
 156:lib_DB/logResult.c ****             {
 874              		.loc 2 156 0 discriminator 3
 875 0088 7B6F     		ldr	r3, [r7, #116]
 876 008a 0133     		add	r3, r3, #1
 877 008c 7B67     		str	r3, [r7, #116]
 878              	.L26:
 156:lib_DB/logResult.c ****             {
 879              		.loc 2 156 0 is_stmt 0 discriminator 1
 880 008e 7B6F     		ldr	r3, [r7, #116]
 881 0090 032B     		cmp	r3, #3
 882 0092 E8DD     		ble	.L27
 161:lib_DB/logResult.c ****             }
 162:lib_DB/logResult.c ****             
 163:lib_DB/logResult.c ****             /*write id skier*/
 164:lib_DB/logResult.c ****             sendIdSkier = 0;
 883              		.loc 2 164 0 is_stmt 1
 884 0094 8623     		mov	r3, #134
 885 0096 FB18     		add	r3, r7, r3
 886 0098 0022     		mov	r2, #0
 887 009a 1A80     		strh	r2, [r3]
 165:lib_DB/logResult.c ****             while(isdigit(line[pointer]))
 888              		.loc 2 165 0
 889 009c 21E0     		b	.L28
 890              	.L29:
 166:lib_DB/logResult.c ****             {
 167:lib_DB/logResult.c ****                 sendIdSkier = sendIdSkier*coeff + (line[pointer]-'0');
 891              		.loc 2 167 0
 892 009e FB6F     		ldr	r3, [r7, #124]
 893 00a0 9BB2     		uxth	r3, r3
 894 00a2 8622     		mov	r2, #134
 895 00a4 BA18     		add	r2, r7, r2
 896 00a6 1288     		ldrh	r2, [r2]
 897 00a8 5343     		mul	r3, r2
 898 00aa 9AB2     		uxth	r2, r3
 899 00ac 1C23     		mov	r3, #28
 900 00ae F918     		add	r1, r7, r3
 901 00b0 8023     		mov	r3, #128
 902 00b2 FB18     		add	r3, r7, r3
 903 00b4 1B68     		ldr	r3, [r3]
 904 00b6 CB18     		add	r3, r1, r3
 905 00b8 1B78     		ldrb	r3, [r3]
 906 00ba 9BB2     		uxth	r3, r3
 907 00bc D318     		add	r3, r2, r3
 908 00be 9AB2     		uxth	r2, r3
 909 00c0 8623     		mov	r3, #134
 910 00c2 FB18     		add	r3, r7, r3
 911 00c4 303A     		sub	r2, r2, #48
ARM GAS  C:\Users\Petro\AppData\Local\Temp\ccd3b28V.s 			page 32


 912 00c6 1A80     		strh	r2, [r3]
 168:lib_DB/logResult.c ****                 pointer++;
 913              		.loc 2 168 0
 914 00c8 8023     		mov	r3, #128
 915 00ca FB18     		add	r3, r7, r3
 916 00cc 1B68     		ldr	r3, [r3]
 917 00ce 0133     		add	r3, r3, #1
 918 00d0 8022     		mov	r2, #128
 919 00d2 BA18     		add	r2, r7, r2
 920 00d4 1360     		str	r3, [r2]
 169:lib_DB/logResult.c ****                 coeff *= 10;
 921              		.loc 2 169 0
 922 00d6 FA6F     		ldr	r2, [r7, #124]
 923 00d8 131C     		mov	r3, r2
 924 00da 9B00     		lsl	r3, r3, #2
 925 00dc 9B18     		add	r3, r3, r2
 926 00de 5B00     		lsl	r3, r3, #1
 927 00e0 FB67     		str	r3, [r7, #124]
 928              	.L28:
 165:lib_DB/logResult.c ****             {
 929              		.loc 2 165 0
 930 00e2 904B     		ldr	r3, .L46+16
 931 00e4 1A68     		ldr	r2, [r3]
 932 00e6 1C23     		mov	r3, #28
 933 00e8 F918     		add	r1, r7, r3
 934 00ea 8023     		mov	r3, #128
 935 00ec FB18     		add	r3, r7, r3
 936 00ee 1B68     		ldr	r3, [r3]
 937 00f0 CB18     		add	r3, r1, r3
 938 00f2 1B78     		ldrb	r3, [r3]
 939 00f4 0133     		add	r3, r3, #1
 940 00f6 D318     		add	r3, r2, r3
 941 00f8 1B78     		ldrb	r3, [r3]
 942 00fa 1A1C     		mov	r2, r3
 943 00fc 0423     		mov	r3, #4
 944 00fe 1340     		and	r3, r2
 945 0100 CDD1     		bne	.L29
 170:lib_DB/logResult.c ****             }
 171:lib_DB/logResult.c ****             
 172:lib_DB/logResult.c ****             currentMas = MAS_START_TIME;
 946              		.loc 2 172 0
 947 0102 7A23     		mov	r3, #122
 948 0104 FB18     		add	r3, r7, r3
 949 0106 0022     		mov	r2, #0
 950 0108 1A70     		strb	r2, [r3]
 173:lib_DB/logResult.c ****             while((line[pointer] != '\n') && (line[pointer] != '\r'))
 951              		.loc 2 173 0
 952 010a C2E0     		b	.L30
 953              	.L43:
 174:lib_DB/logResult.c ****             {            
 175:lib_DB/logResult.c ****                 /*write time start skier*/
 176:lib_DB/logResult.c ****                 coeff = 1;
 954              		.loc 2 176 0
 955 010c 0123     		mov	r3, #1
 956 010e FB67     		str	r3, [r7, #124]
 177:lib_DB/logResult.c ****                 counterMas = 0;
 957              		.loc 2 177 0
ARM GAS  C:\Users\Petro\AppData\Local\Temp\ccd3b28V.s 			page 33


 958 0110 7B23     		mov	r3, #123
 959 0112 FB18     		add	r3, r7, r3
 960 0114 0022     		mov	r2, #0
 961 0116 1A70     		strb	r2, [r3]
 178:lib_DB/logResult.c ****                 while(isdigit(line[pointer]) || (line[pointer] == ':'))
 962              		.loc 2 178 0
 963 0118 81E0     		b	.L31
 964              	.L38:
 179:lib_DB/logResult.c ****                 {
 180:lib_DB/logResult.c ****                     if(line[pointer] == ':')
 965              		.loc 2 180 0
 966 011a 1C23     		mov	r3, #28
 967 011c FA18     		add	r2, r7, r3
 968 011e 8023     		mov	r3, #128
 969 0120 FB18     		add	r3, r7, r3
 970 0122 1B68     		ldr	r3, [r3]
 971 0124 D318     		add	r3, r2, r3
 972 0126 1B78     		ldrb	r3, [r3]
 973 0128 3A2B     		cmp	r3, #58
 974 012a 09D1     		bne	.L32
 181:lib_DB/logResult.c ****                     {
 182:lib_DB/logResult.c ****                         counterMas++;
 975              		.loc 2 182 0
 976 012c 7B23     		mov	r3, #123
 977 012e FB18     		add	r3, r7, r3
 978 0130 1A78     		ldrb	r2, [r3]
 979 0132 7B23     		mov	r3, #123
 980 0134 FB18     		add	r3, r7, r3
 981 0136 0132     		add	r2, r2, #1
 982 0138 1A70     		strb	r2, [r3]
 183:lib_DB/logResult.c ****                         coeff = 1;
 983              		.loc 2 183 0
 984 013a 0123     		mov	r3, #1
 985 013c FB67     		str	r3, [r7, #124]
 986 013e 67E0     		b	.L33
 987              	.L32:
 184:lib_DB/logResult.c ****                     }
 185:lib_DB/logResult.c ****                     else
 186:lib_DB/logResult.c ****                     {
 187:lib_DB/logResult.c ****                         switch (currentMas){
 988              		.loc 2 187 0
 989 0140 7A23     		mov	r3, #122
 990 0142 FB18     		add	r3, r7, r3
 991 0144 1B78     		ldrb	r3, [r3]
 992 0146 012B     		cmp	r3, #1
 993 0148 22D0     		beq	.L35
 994 014a 022B     		cmp	r3, #2
 995 014c 3FD0     		beq	.L36
 996 014e 002B     		cmp	r3, #0
 997 0150 5CD1     		bne	.L34
 188:lib_DB/logResult.c ****                             case MAS_START_TIME:
 189:lib_DB/logResult.c ****                                 sendStartTime[counterMas] = sendStartTime[counterMas]*coeff + (line
 998              		.loc 2 189 0
 999 0152 7B23     		mov	r3, #123
 1000 0154 FB18     		add	r3, r7, r3
 1001 0156 1A78     		ldrb	r2, [r3]
 1002 0158 7B23     		mov	r3, #123
ARM GAS  C:\Users\Petro\AppData\Local\Temp\ccd3b28V.s 			page 34


 1003 015a FB18     		add	r3, r7, r3
 1004 015c 1978     		ldrb	r1, [r3]
 1005 015e 1423     		mov	r3, #20
 1006 0160 FB18     		add	r3, r7, r3
 1007 0162 4900     		lsl	r1, r1, #1
 1008 0164 CB5A     		ldrh	r3, [r1, r3]
 1009 0166 F96F     		ldr	r1, [r7, #124]
 1010 0168 89B2     		uxth	r1, r1
 1011 016a 4B43     		mul	r3, r1
 1012 016c 99B2     		uxth	r1, r3
 1013 016e 1C23     		mov	r3, #28
 1014 0170 F818     		add	r0, r7, r3
 1015 0172 8023     		mov	r3, #128
 1016 0174 FB18     		add	r3, r7, r3
 1017 0176 1B68     		ldr	r3, [r3]
 1018 0178 C318     		add	r3, r0, r3
 1019 017a 1B78     		ldrb	r3, [r3]
 1020 017c 9BB2     		uxth	r3, r3
 1021 017e CB18     		add	r3, r1, r3
 1022 0180 9BB2     		uxth	r3, r3
 1023 0182 303B     		sub	r3, r3, #48
 1024 0184 99B2     		uxth	r1, r3
 1025 0186 1423     		mov	r3, #20
 1026 0188 FB18     		add	r3, r7, r3
 1027 018a 5200     		lsl	r2, r2, #1
 1028 018c D152     		strh	r1, [r2, r3]
 190:lib_DB/logResult.c ****                                 break;
 1029              		.loc 2 190 0
 1030 018e 3DE0     		b	.L34
 1031              	.L35:
 191:lib_DB/logResult.c ****                             case MAS_FINISH_TIME:
 192:lib_DB/logResult.c ****                                 sendFinishTime[counterMas] = sendFinishTime[counterMas]*coeff + (li
 1032              		.loc 2 192 0
 1033 0190 7B23     		mov	r3, #123
 1034 0192 FB18     		add	r3, r7, r3
 1035 0194 1A78     		ldrb	r2, [r3]
 1036 0196 7B23     		mov	r3, #123
 1037 0198 FB18     		add	r3, r7, r3
 1038 019a 1978     		ldrb	r1, [r3]
 1039 019c 0C23     		mov	r3, #12
 1040 019e FB18     		add	r3, r7, r3
 1041 01a0 4900     		lsl	r1, r1, #1
 1042 01a2 CB5A     		ldrh	r3, [r1, r3]
 1043 01a4 F96F     		ldr	r1, [r7, #124]
 1044 01a6 89B2     		uxth	r1, r1
 1045 01a8 4B43     		mul	r3, r1
 1046 01aa 99B2     		uxth	r1, r3
 1047 01ac 1C23     		mov	r3, #28
 1048 01ae F818     		add	r0, r7, r3
 1049 01b0 8023     		mov	r3, #128
 1050 01b2 FB18     		add	r3, r7, r3
 1051 01b4 1B68     		ldr	r3, [r3]
 1052 01b6 C318     		add	r3, r0, r3
 1053 01b8 1B78     		ldrb	r3, [r3]
 1054 01ba 9BB2     		uxth	r3, r3
 1055 01bc CB18     		add	r3, r1, r3
 1056 01be 9BB2     		uxth	r3, r3
ARM GAS  C:\Users\Petro\AppData\Local\Temp\ccd3b28V.s 			page 35


 1057 01c0 303B     		sub	r3, r3, #48
 1058 01c2 99B2     		uxth	r1, r3
 1059 01c4 0C23     		mov	r3, #12
 1060 01c6 FB18     		add	r3, r7, r3
 1061 01c8 5200     		lsl	r2, r2, #1
 1062 01ca D152     		strh	r1, [r2, r3]
 193:lib_DB/logResult.c ****                                 break;
 1063              		.loc 2 193 0
 1064 01cc 1EE0     		b	.L34
 1065              	.L36:
 194:lib_DB/logResult.c ****                             case MAS_RESULT_TIME:
 195:lib_DB/logResult.c ****                                 sendResultTime[counterMas+2] = sendResultTime[counterMas+2]*coeff +
 1066              		.loc 2 195 0
 1067 01ce 7B23     		mov	r3, #123
 1068 01d0 FB18     		add	r3, r7, r3
 1069 01d2 1B78     		ldrb	r3, [r3]
 1070 01d4 9A1C     		add	r2, r3, #2
 1071 01d6 7B23     		mov	r3, #123
 1072 01d8 FB18     		add	r3, r7, r3
 1073 01da 1B78     		ldrb	r3, [r3]
 1074 01dc 991C     		add	r1, r3, #2
 1075 01de 3B1D     		add	r3, r7, #4
 1076 01e0 4900     		lsl	r1, r1, #1
 1077 01e2 CB5A     		ldrh	r3, [r1, r3]
 1078 01e4 F96F     		ldr	r1, [r7, #124]
 1079 01e6 89B2     		uxth	r1, r1
 1080 01e8 4B43     		mul	r3, r1
 1081 01ea 99B2     		uxth	r1, r3
 1082 01ec 1C23     		mov	r3, #28
 1083 01ee F818     		add	r0, r7, r3
 1084 01f0 8023     		mov	r3, #128
 1085 01f2 FB18     		add	r3, r7, r3
 1086 01f4 1B68     		ldr	r3, [r3]
 1087 01f6 C318     		add	r3, r0, r3
 1088 01f8 1B78     		ldrb	r3, [r3]
 1089 01fa 9BB2     		uxth	r3, r3
 1090 01fc CB18     		add	r3, r1, r3
 1091 01fe 9BB2     		uxth	r3, r3
 1092 0200 303B     		sub	r3, r3, #48
 1093 0202 99B2     		uxth	r1, r3
 1094 0204 3B1D     		add	r3, r7, #4
 1095 0206 5200     		lsl	r2, r2, #1
 1096 0208 D152     		strh	r1, [r2, r3]
 196:lib_DB/logResult.c ****                                 break;
 1097              		.loc 2 196 0
 1098 020a C046     		mov	r8, r8
 1099              	.L34:
 197:lib_DB/logResult.c ****                         }
 198:lib_DB/logResult.c ****                         coeff = 10;
 1100              		.loc 2 198 0
 1101 020c 0A23     		mov	r3, #10
 1102 020e FB67     		str	r3, [r7, #124]
 1103              	.L33:
 199:lib_DB/logResult.c ****                     }
 200:lib_DB/logResult.c ****                     pointer++;
 1104              		.loc 2 200 0
 1105 0210 8023     		mov	r3, #128
ARM GAS  C:\Users\Petro\AppData\Local\Temp\ccd3b28V.s 			page 36


 1106 0212 FB18     		add	r3, r7, r3
 1107 0214 1B68     		ldr	r3, [r3]
 1108 0216 0133     		add	r3, r3, #1
 1109 0218 8022     		mov	r2, #128
 1110 021a BA18     		add	r2, r7, r2
 1111 021c 1360     		str	r3, [r2]
 1112              	.L31:
 178:lib_DB/logResult.c ****                 {
 1113              		.loc 2 178 0
 1114 021e 414B     		ldr	r3, .L46+16
 1115 0220 1A68     		ldr	r2, [r3]
 1116 0222 1C23     		mov	r3, #28
 1117 0224 F918     		add	r1, r7, r3
 1118 0226 8023     		mov	r3, #128
 1119 0228 FB18     		add	r3, r7, r3
 1120 022a 1B68     		ldr	r3, [r3]
 1121 022c CB18     		add	r3, r1, r3
 1122 022e 1B78     		ldrb	r3, [r3]
 1123 0230 0133     		add	r3, r3, #1
 1124 0232 D318     		add	r3, r2, r3
 1125 0234 1B78     		ldrb	r3, [r3]
 1126 0236 1A1C     		mov	r2, r3
 1127 0238 0423     		mov	r3, #4
 1128 023a 1340     		and	r3, r2
 1129 023c 00D0     		beq	.LCB972
 1130 023e 6CE7     		b	.L38	@long jump
 1131              	.LCB972:
 178:lib_DB/logResult.c ****                 {
 1132              		.loc 2 178 0 is_stmt 0 discriminator 1
 1133 0240 1C23     		mov	r3, #28
 1134 0242 FA18     		add	r2, r7, r3
 1135 0244 8023     		mov	r3, #128
 1136 0246 FB18     		add	r3, r7, r3
 1137 0248 1B68     		ldr	r3, [r3]
 1138 024a D318     		add	r3, r2, r3
 1139 024c 1B78     		ldrb	r3, [r3]
 1140 024e 3A2B     		cmp	r3, #58
 1141 0250 00D1     		bne	.LCB981
 1142 0252 62E7     		b	.L38	@long jump
 1143              	.LCB981:
 201:lib_DB/logResult.c ****                 }
 202:lib_DB/logResult.c ****                 if(coeff != 1)
 1144              		.loc 2 202 0 is_stmt 1
 1145 0254 FB6F     		ldr	r3, [r7, #124]
 1146 0256 012B     		cmp	r3, #1
 1147 0258 14D0     		beq	.L39
 203:lib_DB/logResult.c ****                 {
 204:lib_DB/logResult.c ****                     if(currentMas == MAS_RESULT_TIME)
 1148              		.loc 2 204 0
 1149 025a 7A23     		mov	r3, #122
 1150 025c FB18     		add	r3, r7, r3
 1151 025e 1B78     		ldrb	r3, [r3]
 1152 0260 022B     		cmp	r3, #2
 1153 0262 04D1     		bne	.L40
 205:lib_DB/logResult.c ****                     {
 206:lib_DB/logResult.c ****                         currentMas = MAS_START_TIME;
 1154              		.loc 2 206 0
ARM GAS  C:\Users\Petro\AppData\Local\Temp\ccd3b28V.s 			page 37


 1155 0264 7A23     		mov	r3, #122
 1156 0266 FB18     		add	r3, r7, r3
 1157 0268 0022     		mov	r2, #0
 1158 026a 1A70     		strb	r2, [r3]
 1159 026c 06E0     		b	.L41
 1160              	.L40:
 207:lib_DB/logResult.c ****                     }else{
 208:lib_DB/logResult.c ****                         currentMas++;
 1161              		.loc 2 208 0
 1162 026e 7A23     		mov	r3, #122
 1163 0270 FB18     		add	r3, r7, r3
 1164 0272 1A78     		ldrb	r2, [r3]
 1165 0274 7A23     		mov	r3, #122
 1166 0276 FB18     		add	r3, r7, r3
 1167 0278 0132     		add	r2, r2, #1
 1168 027a 1A70     		strb	r2, [r3]
 1169              	.L41:
 209:lib_DB/logResult.c ****                     }
 210:lib_DB/logResult.c ****                     
 211:lib_DB/logResult.c ****                     counterMas = 0;
 1170              		.loc 2 211 0
 1171 027c 7B23     		mov	r3, #123
 1172 027e FB18     		add	r3, r7, r3
 1173 0280 0022     		mov	r2, #0
 1174 0282 1A70     		strb	r2, [r3]
 1175              	.L39:
 212:lib_DB/logResult.c ****                     
 213:lib_DB/logResult.c ****                 }
 214:lib_DB/logResult.c ****                 pointer++;
 1176              		.loc 2 214 0
 1177 0284 8023     		mov	r3, #128
 1178 0286 FB18     		add	r3, r7, r3
 1179 0288 1B68     		ldr	r3, [r3]
 1180 028a 0133     		add	r3, r3, #1
 1181 028c 8022     		mov	r2, #128
 1182 028e BA18     		add	r2, r7, r2
 1183 0290 1360     		str	r3, [r2]
 1184              	.L30:
 173:lib_DB/logResult.c ****             {            
 1185              		.loc 2 173 0
 1186 0292 1C23     		mov	r3, #28
 1187 0294 FA18     		add	r2, r7, r3
 1188 0296 8023     		mov	r3, #128
 1189 0298 FB18     		add	r3, r7, r3
 1190 029a 1B68     		ldr	r3, [r3]
 1191 029c D318     		add	r3, r2, r3
 1192 029e 1B78     		ldrb	r3, [r3]
 1193 02a0 0A2B     		cmp	r3, #10
 1194 02a2 09D0     		beq	.L42
 173:lib_DB/logResult.c ****             {            
 1195              		.loc 2 173 0 is_stmt 0 discriminator 1
 1196 02a4 1C23     		mov	r3, #28
 1197 02a6 FA18     		add	r2, r7, r3
 1198 02a8 8023     		mov	r3, #128
 1199 02aa FB18     		add	r3, r7, r3
 1200 02ac 1B68     		ldr	r3, [r3]
 1201 02ae D318     		add	r3, r2, r3
ARM GAS  C:\Users\Petro\AppData\Local\Temp\ccd3b28V.s 			page 38


 1202 02b0 1B78     		ldrb	r3, [r3]
 1203 02b2 0D2B     		cmp	r3, #13
 1204 02b4 00D0     		beq	.LCB1039
 1205 02b6 29E7     		b	.L43	@long jump
 1206              	.LCB1039:
 1207              	.L42:
 215:lib_DB/logResult.c ****             }
 216:lib_DB/logResult.c ****                         
 217:lib_DB/logResult.c ****             SW_UART_DEBUG_PutString(line);
 1208              		.loc 2 217 0 is_stmt 1
 1209 02b8 1C23     		mov	r3, #28
 1210 02ba FB18     		add	r3, r7, r3
 1211 02bc 181C     		mov	r0, r3
 1212 02be FFF7FEFF 		bl	SW_UART_DEBUG_PutString
 218:lib_DB/logResult.c ****             SW_UART_DEBUG_PutString("\n\r");
 1213              		.loc 2 218 0
 1214 02c2 194B     		ldr	r3, .L46+20
 1215 02c4 181C     		mov	r0, r3
 1216 02c6 FFF7FEFF 		bl	SW_UART_DEBUG_PutString
 219:lib_DB/logResult.c ****             
 220:lib_DB/logResult.c ****             BLE_sendOneSkierTimeAll(sendIdSkier, sendStartTime, sendFinishTime, sendResultTime);
 1217              		.loc 2 220 0
 1218 02ca 8623     		mov	r3, #134
 1219 02cc FB18     		add	r3, r7, r3
 1220 02ce 1888     		ldrh	r0, [r3]
 1221 02d0 1423     		mov	r3, #20
 1222 02d2 F918     		add	r1, r7, r3
 1223 02d4 0C23     		mov	r3, #12
 1224 02d6 FA18     		add	r2, r7, r3
 1225 02d8 3B1D     		add	r3, r7, #4
 1226 02da FFF7FEFF 		bl	BLE_sendOneSkierTimeAll
 221:lib_DB/logResult.c ****             BLE_processEvents();
 1227              		.loc 2 221 0
 1228 02de FFF7FEFF 		bl	BLE_processEvents
 222:lib_DB/logResult.c ****             CyDelay(100);
 1229              		.loc 2 222 0
 1230 02e2 6420     		mov	r0, #100
 1231 02e4 FFF7FEFF 		bl	CyDelay
 1232              	.L25:
 1233              	.LBE5:
 1234              	.LBE4:
 143:lib_DB/logResult.c ****     {    
 1235              		.loc 2 143 0
 1236 02e8 1C23     		mov	r3, #28
 1237 02ea FA18     		add	r2, r7, r3
 1238 02ec 0A4B     		ldr	r3, .L46+4
 1239 02ee 101C     		mov	r0, r2
 1240 02f0 5221     		mov	r1, #82
 1241 02f2 1A1C     		mov	r2, r3
 1242 02f4 FFF7FEFF 		bl	f_gets
 1243 02f8 031E     		sub	r3, r0, #0
 1244 02fa 00D0     		beq	.LCB1073
 1245 02fc 95E6     		b	.L44	@long jump
 1246              	.LCB1073:
 223:lib_DB/logResult.c ****         }
 224:lib_DB/logResult.c ****     }
 225:lib_DB/logResult.c ****     resultF = f_close(&fileO);
ARM GAS  C:\Users\Petro\AppData\Local\Temp\ccd3b28V.s 			page 39


 1247              		.loc 2 225 0
 1248 02fe 064B     		ldr	r3, .L46+4
 1249 0300 181C     		mov	r0, r3
 1250 0302 FFF7FEFF 		bl	f_close
 1251 0306 031C     		mov	r3, r0
 1252 0308 3B67     		str	r3, [r7, #112]
 226:lib_DB/logResult.c ****         
 227:lib_DB/logResult.c ****     return resultF;
 1253              		.loc 2 227 0
 1254 030a 3B6F     		ldr	r3, [r7, #112]
 228:lib_DB/logResult.c **** }
 1255              		.loc 2 228 0
 1256 030c 181C     		mov	r0, r3
 1257 030e BD46     		mov	sp, r7
 1258 0310 22B0     		add	sp, sp, #136
 1259              		@ sp needed
 1260 0312 80BD     		pop	{r7, pc}
 1261              	.L47:
 1262              		.align	2
 1263              	.L46:
 1264 0314 00000000 		.word	createFlag
 1265 0318 00000000 		.word	fileO
 1266 031c 00000000 		.word	nameFile
 1267 0320 D0000000 		.word	.LC24
 1268 0324 00000000 		.word	__ctype_ptr__
 1269 0328 DC000000 		.word	.LC27
 1270              		.cfi_endproc
 1271              	.LFE65:
 1272              		.size	ReadSkierResultAndSendBLE, .-ReadSkierResultAndSendBLE
 1273              		.section	.text.GetIDskierStarted,"ax",%progbits
 1274              		.align	2
 1275              		.global	GetIDskierStarted
 1276              		.code	16
 1277              		.thumb_func
 1278              		.type	GetIDskierStarted, %function
 1279              	GetIDskierStarted:
 1280              	.LFB66:
 229:lib_DB/logResult.c **** 
 230:lib_DB/logResult.c **** uint32_t GetIDskierStarted(void)
 231:lib_DB/logResult.c **** {
 1281              		.loc 2 231 0
 1282              		.cfi_startproc
 1283 0000 80B5     		push	{r7, lr}
 1284              		.cfi_def_cfa_offset 8
 1285              		.cfi_offset 7, -8
 1286              		.cfi_offset 14, -4
 1287 0002 00AF     		add	r7, sp, #0
 1288              		.cfi_def_cfa_register 7
 232:lib_DB/logResult.c ****     return idSkier;
 1289              		.loc 2 232 0
 1290 0004 024B     		ldr	r3, .L50
 1291 0006 1B68     		ldr	r3, [r3]
 233:lib_DB/logResult.c **** }
 1292              		.loc 2 233 0
 1293 0008 181C     		mov	r0, r3
 1294 000a BD46     		mov	sp, r7
 1295              		@ sp needed
ARM GAS  C:\Users\Petro\AppData\Local\Temp\ccd3b28V.s 			page 40


 1296 000c 80BD     		pop	{r7, pc}
 1297              	.L51:
 1298 000e C046     		.align	2
 1299              	.L50:
 1300 0010 00000000 		.word	idSkier
 1301              		.cfi_endproc
 1302              	.LFE66:
 1303              		.size	GetIDskierStarted, .-GetIDskierStarted
 1304              		.section	.text.GetIDskierFinished,"ax",%progbits
 1305              		.align	2
 1306              		.global	GetIDskierFinished
 1307              		.code	16
 1308              		.thumb_func
 1309              		.type	GetIDskierFinished, %function
 1310              	GetIDskierFinished:
 1311              	.LFB67:
 234:lib_DB/logResult.c **** 
 235:lib_DB/logResult.c **** uint32_t GetIDskierFinished(void)
 236:lib_DB/logResult.c **** {
 1312              		.loc 2 236 0
 1313              		.cfi_startproc
 1314 0000 80B5     		push	{r7, lr}
 1315              		.cfi_def_cfa_offset 8
 1316              		.cfi_offset 7, -8
 1317              		.cfi_offset 14, -4
 1318 0002 00AF     		add	r7, sp, #0
 1319              		.cfi_def_cfa_register 7
 237:lib_DB/logResult.c ****     return position-1;
 1320              		.loc 2 237 0
 1321 0004 024B     		ldr	r3, .L54
 1322 0006 1B68     		ldr	r3, [r3]
 1323 0008 013B     		sub	r3, r3, #1
 238:lib_DB/logResult.c **** }
 1324              		.loc 2 238 0
 1325 000a 181C     		mov	r0, r3
 1326 000c BD46     		mov	sp, r7
 1327              		@ sp needed
 1328 000e 80BD     		pop	{r7, pc}
 1329              	.L55:
 1330              		.align	2
 1331              	.L54:
 1332 0010 04000000 		.word	position
 1333              		.cfi_endproc
 1334              	.LFE67:
 1335              		.size	GetIDskierFinished, .-GetIDskierFinished
 1336              		.section	.text.IncrementID,"ax",%progbits
 1337              		.align	2
 1338              		.global	IncrementID
 1339              		.code	16
 1340              		.thumb_func
 1341              		.type	IncrementID, %function
 1342              	IncrementID:
 1343              	.LFB68:
 239:lib_DB/logResult.c **** 
 240:lib_DB/logResult.c **** void IncrementID(void)
 241:lib_DB/logResult.c **** {
 1344              		.loc 2 241 0
ARM GAS  C:\Users\Petro\AppData\Local\Temp\ccd3b28V.s 			page 41


 1345              		.cfi_startproc
 1346 0000 80B5     		push	{r7, lr}
 1347              		.cfi_def_cfa_offset 8
 1348              		.cfi_offset 7, -8
 1349              		.cfi_offset 14, -4
 1350 0002 00AF     		add	r7, sp, #0
 1351              		.cfi_def_cfa_register 7
 242:lib_DB/logResult.c ****     idSkier++;
 1352              		.loc 2 242 0
 1353 0004 034B     		ldr	r3, .L57
 1354 0006 1B68     		ldr	r3, [r3]
 1355 0008 5A1C     		add	r2, r3, #1
 1356 000a 024B     		ldr	r3, .L57
 1357 000c 1A60     		str	r2, [r3]
 243:lib_DB/logResult.c **** }
 1358              		.loc 2 243 0
 1359 000e BD46     		mov	sp, r7
 1360              		@ sp needed
 1361 0010 80BD     		pop	{r7, pc}
 1362              	.L58:
 1363 0012 C046     		.align	2
 1364              	.L57:
 1365 0014 00000000 		.word	idSkier
 1366              		.cfi_endproc
 1367              	.LFE68:
 1368              		.size	IncrementID, .-IncrementID
 1369              		.text
 1370              	.Letext0:
 1371              		.file 3 "c:\\program files (x86)\\cypress\\psoc creator\\4.0\\psoc creator\\import\\gnu\\arm\\4.9.
 1372              		.file 4 "c:\\program files (x86)\\cypress\\psoc creator\\4.0\\psoc creator\\import\\gnu\\arm\\4.9.
 1373              		.file 5 "Generated_Source\\PSoC4/cytypes.h"
 1374              		.file 6 "c:\\program files (x86)\\cypress\\psoc creator\\4.0\\psoc creator\\import\\gnu\\arm\\4.9.
 1375              		.file 7 "./lib_Fat\\integer.h"
 1376              		.file 8 "Generated_Source\\PSoC4/ble_Stack.h"
 1377              		.file 9 "./lib_Fat\\diskio.h"
 1378              		.file 10 "./lib_DB\\database.h"
 1379              		.file 11 "./lib_Fat\\ff.h"
 1380              		.file 12 "c:\\program files (x86)\\cypress\\psoc creator\\4.0\\psoc creator\\import\\gnu\\arm\\4.9
 1381              		.section	.debug_info,"",%progbits
 1382              	.Ldebug_info0:
 1383 0000 AF090000 		.4byte	0x9af
 1384 0004 0400     		.2byte	0x4
 1385 0006 00000000 		.4byte	.Ldebug_abbrev0
 1386 000a 04       		.byte	0x4
 1387 000b 01       		.uleb128 0x1
 1388 000c F90A0000 		.4byte	.LASF173
 1389 0010 01       		.byte	0x1
 1390 0011 91050000 		.4byte	.LASF174
 1391 0015 C6050000 		.4byte	.LASF175
 1392 0019 00000000 		.4byte	.Ldebug_ranges0+0
 1393 001d 00000000 		.4byte	0
 1394 0021 00000000 		.4byte	.Ldebug_line0
 1395 0025 02       		.uleb128 0x2
 1396 0026 01       		.byte	0x1
 1397 0027 06       		.byte	0x6
 1398 0028 F0010000 		.4byte	.LASF0
 1399 002c 03       		.uleb128 0x3
ARM GAS  C:\Users\Petro\AppData\Local\Temp\ccd3b28V.s 			page 42


 1400 002d 10010000 		.4byte	.LASF3
 1401 0031 03       		.byte	0x3
 1402 0032 1D       		.byte	0x1d
 1403 0033 37000000 		.4byte	0x37
 1404 0037 02       		.uleb128 0x2
 1405 0038 01       		.byte	0x1
 1406 0039 08       		.byte	0x8
 1407 003a 22080000 		.4byte	.LASF1
 1408 003e 02       		.uleb128 0x2
 1409 003f 02       		.byte	0x2
 1410 0040 05       		.byte	0x5
 1411 0041 BC050000 		.4byte	.LASF2
 1412 0045 03       		.uleb128 0x3
 1413 0046 7C090000 		.4byte	.LASF4
 1414 004a 03       		.byte	0x3
 1415 004b 2B       		.byte	0x2b
 1416 004c 50000000 		.4byte	0x50
 1417 0050 02       		.uleb128 0x2
 1418 0051 02       		.byte	0x2
 1419 0052 07       		.byte	0x7
 1420 0053 500A0000 		.4byte	.LASF5
 1421 0057 02       		.uleb128 0x2
 1422 0058 04       		.byte	0x4
 1423 0059 05       		.byte	0x5
 1424 005a 3D010000 		.4byte	.LASF6
 1425 005e 03       		.uleb128 0x3
 1426 005f 58030000 		.4byte	.LASF7
 1427 0063 03       		.byte	0x3
 1428 0064 41       		.byte	0x41
 1429 0065 69000000 		.4byte	0x69
 1430 0069 02       		.uleb128 0x2
 1431 006a 04       		.byte	0x4
 1432 006b 07       		.byte	0x7
 1433 006c 48040000 		.4byte	.LASF8
 1434 0070 02       		.uleb128 0x2
 1435 0071 08       		.byte	0x8
 1436 0072 05       		.byte	0x5
 1437 0073 E2010000 		.4byte	.LASF9
 1438 0077 03       		.uleb128 0x3
 1439 0078 DA070000 		.4byte	.LASF10
 1440 007c 03       		.byte	0x3
 1441 007d 5B       		.byte	0x5b
 1442 007e 82000000 		.4byte	0x82
 1443 0082 02       		.uleb128 0x2
 1444 0083 08       		.byte	0x8
 1445 0084 07       		.byte	0x7
 1446 0085 0F020000 		.4byte	.LASF11
 1447 0089 04       		.uleb128 0x4
 1448 008a 04       		.byte	0x4
 1449 008b 05       		.byte	0x5
 1450 008c 696E7400 		.ascii	"int\000"
 1451 0090 02       		.uleb128 0x2
 1452 0091 04       		.byte	0x4
 1453 0092 07       		.byte	0x7
 1454 0093 DA030000 		.4byte	.LASF12
 1455 0097 03       		.uleb128 0x3
 1456 0098 D90A0000 		.4byte	.LASF13
ARM GAS  C:\Users\Petro\AppData\Local\Temp\ccd3b28V.s 			page 43


 1457 009c 04       		.byte	0x4
 1458 009d 15       		.byte	0x15
 1459 009e 2C000000 		.4byte	0x2c
 1460 00a2 03       		.uleb128 0x3
 1461 00a3 11040000 		.4byte	.LASF14
 1462 00a7 04       		.byte	0x4
 1463 00a8 21       		.byte	0x21
 1464 00a9 45000000 		.4byte	0x45
 1465 00ad 03       		.uleb128 0x3
 1466 00ae 2C090000 		.4byte	.LASF15
 1467 00b2 04       		.byte	0x4
 1468 00b3 2D       		.byte	0x2d
 1469 00b4 5E000000 		.4byte	0x5e
 1470 00b8 03       		.uleb128 0x3
 1471 00b9 2B070000 		.4byte	.LASF16
 1472 00bd 04       		.byte	0x4
 1473 00be 39       		.byte	0x39
 1474 00bf 77000000 		.4byte	0x77
 1475 00c3 05       		.uleb128 0x5
 1476 00c4 BF020000 		.4byte	.LASF17
 1477 00c8 05       		.byte	0x5
 1478 00c9 9801     		.2byte	0x198
 1479 00cb 37000000 		.4byte	0x37
 1480 00cf 05       		.uleb128 0x5
 1481 00d0 38030000 		.4byte	.LASF18
 1482 00d4 05       		.byte	0x5
 1483 00d5 9A01     		.2byte	0x19a
 1484 00d7 69000000 		.4byte	0x69
 1485 00db 02       		.uleb128 0x2
 1486 00dc 04       		.byte	0x4
 1487 00dd 04       		.byte	0x4
 1488 00de 0C080000 		.4byte	.LASF19
 1489 00e2 02       		.uleb128 0x2
 1490 00e3 08       		.byte	0x8
 1491 00e4 04       		.byte	0x4
 1492 00e5 FE020000 		.4byte	.LASF20
 1493 00e9 02       		.uleb128 0x2
 1494 00ea 01       		.byte	0x1
 1495 00eb 08       		.byte	0x8
 1496 00ec 55090000 		.4byte	.LASF21
 1497 00f0 02       		.uleb128 0x2
 1498 00f1 04       		.byte	0x4
 1499 00f2 07       		.byte	0x7
 1500 00f3 EE060000 		.4byte	.LASF22
 1501 00f7 06       		.uleb128 0x6
 1502 00f8 04       		.byte	0x4
 1503 00f9 FD000000 		.4byte	0xfd
 1504 00fd 07       		.uleb128 0x7
 1505 00fe E9000000 		.4byte	0xe9
 1506 0102 03       		.uleb128 0x3
 1507 0103 1D080000 		.4byte	.LASF23
 1508 0107 06       		.byte	0x6
 1509 0108 70       		.byte	0x70
 1510 0109 90000000 		.4byte	0x90
 1511 010d 08       		.uleb128 0x8
 1512 010e 10       		.byte	0x10
 1513 010f 01       		.byte	0x1
ARM GAS  C:\Users\Petro\AppData\Local\Temp\ccd3b28V.s 			page 44


 1514 0110 29       		.byte	0x29
 1515 0111 46010000 		.4byte	0x146
 1516 0115 09       		.uleb128 0x9
 1517 0116 A2070000 		.4byte	.LASF24
 1518 011a 01       		.byte	0x1
 1519 011b 2B       		.byte	0x2b
 1520 011c CF000000 		.4byte	0xcf
 1521 0120 00       		.byte	0
 1522 0121 09       		.uleb128 0x9
 1523 0122 8E010000 		.4byte	.LASF25
 1524 0126 01       		.byte	0x1
 1525 0127 2C       		.byte	0x2c
 1526 0128 CF000000 		.4byte	0xcf
 1527 012c 04       		.byte	0x4
 1528 012d 09       		.uleb128 0x9
 1529 012e 34070000 		.4byte	.LASF26
 1530 0132 01       		.byte	0x1
 1531 0133 2D       		.byte	0x2d
 1532 0134 CF000000 		.4byte	0xcf
 1533 0138 08       		.byte	0x8
 1534 0139 09       		.uleb128 0x9
 1535 013a BA0A0000 		.4byte	.LASF27
 1536 013e 01       		.byte	0x1
 1537 013f 2E       		.byte	0x2e
 1538 0140 CF000000 		.4byte	0xcf
 1539 0144 0C       		.byte	0xc
 1540 0145 00       		.byte	0
 1541 0146 03       		.uleb128 0x3
 1542 0147 35090000 		.4byte	.LASF28
 1543 014b 01       		.byte	0x1
 1544 014c 2F       		.byte	0x2f
 1545 014d 0D010000 		.4byte	0x10d
 1546 0151 0A       		.uleb128 0xa
 1547 0152 01       		.byte	0x1
 1548 0153 08       		.byte	0x8
 1549 0154 A4       		.byte	0xa4
 1550 0155 D6020000 		.4byte	0x2d6
 1551 0159 0B       		.uleb128 0xb
 1552 015a F0040000 		.4byte	.LASF29
 1553 015e 00       		.sleb128 0
 1554 015f 0B       		.uleb128 0xb
 1555 0160 FC010000 		.4byte	.LASF30
 1556 0164 01       		.sleb128 1
 1557 0165 0B       		.uleb128 0xb
 1558 0166 43090000 		.4byte	.LASF31
 1559 016a 02       		.sleb128 2
 1560 016b 0B       		.uleb128 0xb
 1561 016c 370A0000 		.4byte	.LASF32
 1562 0170 03       		.sleb128 3
 1563 0171 0B       		.uleb128 0xb
 1564 0172 64010000 		.4byte	.LASF33
 1565 0176 04       		.sleb128 4
 1566 0177 0B       		.uleb128 0xb
 1567 0178 23000000 		.4byte	.LASF34
 1568 017c 05       		.sleb128 5
 1569 017d 0B       		.uleb128 0xb
 1570 017e 77060000 		.4byte	.LASF35
ARM GAS  C:\Users\Petro\AppData\Local\Temp\ccd3b28V.s 			page 45


 1571 0182 20       		.sleb128 32
 1572 0183 0B       		.uleb128 0xb
 1573 0184 4B020000 		.4byte	.LASF36
 1574 0188 21       		.sleb128 33
 1575 0189 0B       		.uleb128 0xb
 1576 018a 44050000 		.4byte	.LASF37
 1577 018e 22       		.sleb128 34
 1578 018f 0B       		.uleb128 0xb
 1579 0190 080A0000 		.4byte	.LASF38
 1580 0194 23       		.sleb128 35
 1581 0195 0B       		.uleb128 0xb
 1582 0196 55070000 		.4byte	.LASF39
 1583 019a 24       		.sleb128 36
 1584 019b 0B       		.uleb128 0xb
 1585 019c F7060000 		.4byte	.LASF40
 1586 01a0 25       		.sleb128 37
 1587 01a1 0B       		.uleb128 0xb
 1588 01a2 6C0A0000 		.4byte	.LASF41
 1589 01a6 26       		.sleb128 38
 1590 01a7 0B       		.uleb128 0xb
 1591 01a8 68050000 		.4byte	.LASF42
 1592 01ac 27       		.sleb128 39
 1593 01ad 0B       		.uleb128 0xb
 1594 01ae 5A090000 		.4byte	.LASF43
 1595 01b2 28       		.sleb128 40
 1596 01b3 0B       		.uleb128 0xb
 1597 01b4 A3080000 		.4byte	.LASF44
 1598 01b8 29       		.sleb128 41
 1599 01b9 0B       		.uleb128 0xb
 1600 01ba 8D000000 		.4byte	.LASF45
 1601 01be 2A       		.sleb128 42
 1602 01bf 0B       		.uleb128 0xb
 1603 01c0 26020000 		.4byte	.LASF46
 1604 01c4 2B       		.sleb128 43
 1605 01c5 0B       		.uleb128 0xb
 1606 01c6 AE0B0000 		.4byte	.LASF47
 1607 01ca 2C       		.sleb128 44
 1608 01cb 0B       		.uleb128 0xb
 1609 01cc 12090000 		.4byte	.LASF48
 1610 01d0 C000     		.sleb128 64
 1611 01d2 0B       		.uleb128 0xb
 1612 01d3 32060000 		.4byte	.LASF49
 1613 01d7 C100     		.sleb128 65
 1614 01d9 0B       		.uleb128 0xb
 1615 01da 440C0000 		.4byte	.LASF50
 1616 01de C200     		.sleb128 66
 1617 01e0 0B       		.uleb128 0xb
 1618 01e1 940A0000 		.4byte	.LASF51
 1619 01e5 C300     		.sleb128 67
 1620 01e7 0B       		.uleb128 0xb
 1621 01e8 81040000 		.4byte	.LASF52
 1622 01ec C400     		.sleb128 68
 1623 01ee 0B       		.uleb128 0xb
 1624 01ef E5070000 		.4byte	.LASF53
 1625 01f3 C500     		.sleb128 69
 1626 01f5 0B       		.uleb128 0xb
 1627 01f6 CD060000 		.4byte	.LASF54
ARM GAS  C:\Users\Petro\AppData\Local\Temp\ccd3b28V.s 			page 46


 1628 01fa C600     		.sleb128 70
 1629 01fc 0B       		.uleb128 0xb
 1630 01fd 07050000 		.4byte	.LASF55
 1631 0201 C700     		.sleb128 71
 1632 0203 0B       		.uleb128 0xb
 1633 0204 870B0000 		.4byte	.LASF56
 1634 0208 C800     		.sleb128 72
 1635 020a 0B       		.uleb128 0xb
 1636 020b 62020000 		.4byte	.LASF57
 1637 020f C900     		.sleb128 73
 1638 0211 0B       		.uleb128 0xb
 1639 0212 D3090000 		.4byte	.LASF58
 1640 0216 CA00     		.sleb128 74
 1641 0218 0B       		.uleb128 0xb
 1642 0219 23040000 		.4byte	.LASF59
 1643 021d CB00     		.sleb128 75
 1644 021f 0B       		.uleb128 0xb
 1645 0220 67040000 		.4byte	.LASF60
 1646 0224 CC00     		.sleb128 76
 1647 0226 0B       		.uleb128 0xb
 1648 0227 11070000 		.4byte	.LASF61
 1649 022b CD00     		.sleb128 77
 1650 022d 0B       		.uleb128 0xb
 1651 022e 84020000 		.4byte	.LASF62
 1652 0232 CE00     		.sleb128 78
 1653 0234 0B       		.uleb128 0xb
 1654 0235 84080000 		.4byte	.LASF63
 1655 0239 CF00     		.sleb128 79
 1656 023b 0B       		.uleb128 0xb
 1657 023c 25050000 		.4byte	.LASF64
 1658 0240 D000     		.sleb128 80
 1659 0242 0B       		.uleb128 0xb
 1660 0243 DF020000 		.4byte	.LASF65
 1661 0247 D100     		.sleb128 81
 1662 0249 0B       		.uleb128 0xb
 1663 024a 81070000 		.4byte	.LASF66
 1664 024e D200     		.sleb128 82
 1665 0250 0B       		.uleb128 0xb
 1666 0251 51080000 		.4byte	.LASF67
 1667 0255 D300     		.sleb128 83
 1668 0257 0B       		.uleb128 0xb
 1669 0258 F1080000 		.4byte	.LASF68
 1670 025c D400     		.sleb128 84
 1671 025e 0B       		.uleb128 0xb
 1672 025f 9F040000 		.4byte	.LASF69
 1673 0263 D500     		.sleb128 85
 1674 0265 0B       		.uleb128 0xb
 1675 0266 B8030000 		.4byte	.LASF70
 1676 026a D600     		.sleb128 86
 1677 026c 0B       		.uleb128 0xb
 1678 026d 87090000 		.4byte	.LASF71
 1679 0271 D700     		.sleb128 87
 1680 0273 0B       		.uleb128 0xb
 1681 0274 9B010000 		.4byte	.LASF72
 1682 0278 F000     		.sleb128 112
 1683 027a 0B       		.uleb128 0xb
 1684 027b 170C0000 		.4byte	.LASF73
ARM GAS  C:\Users\Petro\AppData\Local\Temp\ccd3b28V.s 			page 47


 1685 027f F100     		.sleb128 113
 1686 0281 0B       		.uleb128 0xb
 1687 0282 5B060000 		.4byte	.LASF74
 1688 0286 F200     		.sleb128 114
 1689 0288 0B       		.uleb128 0xb
 1690 0289 AF060000 		.4byte	.LASF75
 1691 028d F300     		.sleb128 115
 1692 028f 0B       		.uleb128 0xb
 1693 0290 B2070000 		.4byte	.LASF76
 1694 0294 F400     		.sleb128 116
 1695 0296 0B       		.uleb128 0xb
 1696 0297 D20B0000 		.4byte	.LASF77
 1697 029b F500     		.sleb128 117
 1698 029d 0B       		.uleb128 0xb
 1699 029e B6000000 		.4byte	.LASF78
 1700 02a2 F600     		.sleb128 118
 1701 02a4 0B       		.uleb128 0xb
 1702 02a5 5D000000 		.4byte	.LASF79
 1703 02a9 F700     		.sleb128 119
 1704 02ab 0B       		.uleb128 0xb
 1705 02ac 00000000 		.4byte	.LASF80
 1706 02b0 F800     		.sleb128 120
 1707 02b2 0B       		.uleb128 0xb
 1708 02b3 B0090000 		.4byte	.LASF81
 1709 02b7 F900     		.sleb128 121
 1710 02b9 0B       		.uleb128 0xb
 1711 02ba 78030000 		.4byte	.LASF82
 1712 02be FA00     		.sleb128 122
 1713 02c0 0B       		.uleb128 0xb
 1714 02c1 F90B0000 		.4byte	.LASF83
 1715 02c5 FA01     		.sleb128 250
 1716 02c7 0B       		.uleb128 0xb
 1717 02c8 F2030000 		.4byte	.LASF84
 1718 02cc FB01     		.sleb128 251
 1719 02ce 0B       		.uleb128 0xb
 1720 02cf 4A030000 		.4byte	.LASF85
 1721 02d3 FF01     		.sleb128 255
 1722 02d5 00       		.byte	0
 1723 02d6 03       		.uleb128 0x3
 1724 02d7 A6030000 		.4byte	.LASF86
 1725 02db 07       		.byte	0x7
 1726 02dc 10       		.byte	0x10
 1727 02dd 37000000 		.4byte	0x37
 1728 02e1 03       		.uleb128 0x3
 1729 02e2 CE040000 		.4byte	.LASF87
 1730 02e6 07       		.byte	0x7
 1731 02e7 14       		.byte	0x14
 1732 02e8 50000000 		.4byte	0x50
 1733 02ec 03       		.uleb128 0x3
 1734 02ed 0D030000 		.4byte	.LASF88
 1735 02f1 07       		.byte	0x7
 1736 02f2 1D       		.byte	0x1d
 1737 02f3 69000000 		.4byte	0x69
 1738 02f7 0A       		.uleb128 0xa
 1739 02f8 01       		.byte	0x1
 1740 02f9 09       		.byte	0x9
 1741 02fa 16       		.byte	0x16
ARM GAS  C:\Users\Petro\AppData\Local\Temp\ccd3b28V.s 			page 48


 1742 02fb 1E030000 		.4byte	0x31e
 1743 02ff 0B       		.uleb128 0xb
 1744 0300 13030000 		.4byte	.LASF89
 1745 0304 00       		.sleb128 0
 1746 0305 0B       		.uleb128 0xb
 1747 0306 EF0A0000 		.4byte	.LASF90
 1748 030a 01       		.sleb128 1
 1749 030b 0B       		.uleb128 0xb
 1750 030c 4C000000 		.4byte	.LASF91
 1751 0310 02       		.sleb128 2
 1752 0311 0B       		.uleb128 0xb
 1753 0312 28010000 		.4byte	.LASF92
 1754 0316 03       		.sleb128 3
 1755 0317 0B       		.uleb128 0xb
 1756 0318 AD020000 		.4byte	.LASF93
 1757 031c 04       		.sleb128 4
 1758 031d 00       		.byte	0
 1759 031e 08       		.uleb128 0x8
 1760 031f 30       		.byte	0x30
 1761 0320 0A       		.byte	0xa
 1762 0321 0E       		.byte	0xe
 1763 0322 6F030000 		.4byte	0x36f
 1764 0326 09       		.uleb128 0x9
 1765 0327 9B060000 		.4byte	.LASF94
 1766 032b 0A       		.byte	0xa
 1767 032c 10       		.byte	0x10
 1768 032d B8000000 		.4byte	0xb8
 1769 0331 00       		.byte	0
 1770 0332 09       		.uleb128 0x9
 1771 0333 46010000 		.4byte	.LASF95
 1772 0337 0A       		.byte	0xa
 1773 0338 11       		.byte	0x11
 1774 0339 A2000000 		.4byte	0xa2
 1775 033d 08       		.byte	0x8
 1776 033e 09       		.uleb128 0x9
 1777 033f 71070000 		.4byte	.LASF96
 1778 0343 0A       		.byte	0xa
 1779 0344 12       		.byte	0x12
 1780 0345 B8000000 		.4byte	0xb8
 1781 0349 10       		.byte	0x10
 1782 034a 09       		.uleb128 0x9
 1783 034b D8080000 		.4byte	.LASF97
 1784 034f 0A       		.byte	0xa
 1785 0350 13       		.byte	0x13
 1786 0351 A2000000 		.4byte	0xa2
 1787 0355 18       		.byte	0x18
 1788 0356 09       		.uleb128 0x9
 1789 0357 E7030000 		.4byte	.LASF98
 1790 035b 0A       		.byte	0xa
 1791 035c 14       		.byte	0x14
 1792 035d B8000000 		.4byte	0xb8
 1793 0361 20       		.byte	0x20
 1794 0362 09       		.uleb128 0x9
 1795 0363 2E0A0000 		.4byte	.LASF99
 1796 0367 0A       		.byte	0xa
 1797 0368 15       		.byte	0x15
 1798 0369 A2000000 		.4byte	0xa2
ARM GAS  C:\Users\Petro\AppData\Local\Temp\ccd3b28V.s 			page 49


 1799 036d 28       		.byte	0x28
 1800 036e 00       		.byte	0
 1801 036f 03       		.uleb128 0x3
 1802 0370 A2020000 		.4byte	.LASF100
 1803 0374 0A       		.byte	0xa
 1804 0375 16       		.byte	0x16
 1805 0376 1E030000 		.4byte	0x31e
 1806 037a 03       		.uleb128 0x3
 1807 037b 26030000 		.4byte	.LASF101
 1808 037f 0B       		.byte	0xb
 1809 0380 55       		.byte	0x55
 1810 0381 EC020000 		.4byte	0x2ec
 1811 0385 0C       		.uleb128 0xc
 1812 0386 3002     		.2byte	0x230
 1813 0388 0B       		.byte	0xb
 1814 0389 5C       		.byte	0x5c
 1815 038a 66040000 		.4byte	0x466
 1816 038e 09       		.uleb128 0x9
 1817 038f 85000000 		.4byte	.LASF102
 1818 0393 0B       		.byte	0xb
 1819 0394 5D       		.byte	0x5d
 1820 0395 D6020000 		.4byte	0x2d6
 1821 0399 00       		.byte	0
 1822 039a 0D       		.uleb128 0xd
 1823 039b 64727600 		.ascii	"drv\000"
 1824 039f 0B       		.byte	0xb
 1825 03a0 5E       		.byte	0x5e
 1826 03a1 D6020000 		.4byte	0x2d6
 1827 03a5 01       		.byte	0x1
 1828 03a6 09       		.uleb128 0x9
 1829 03a7 B8020000 		.4byte	.LASF103
 1830 03ab 0B       		.byte	0xb
 1831 03ac 5F       		.byte	0x5f
 1832 03ad D6020000 		.4byte	0x2d6
 1833 03b1 02       		.byte	0x2
 1834 03b2 09       		.uleb128 0x9
 1835 03b3 7E080000 		.4byte	.LASF104
 1836 03b7 0B       		.byte	0xb
 1837 03b8 60       		.byte	0x60
 1838 03b9 D6020000 		.4byte	0x2d6
 1839 03bd 03       		.byte	0x3
 1840 03be 09       		.uleb128 0x9
 1841 03bf 630A0000 		.4byte	.LASF105
 1842 03c3 0B       		.byte	0xb
 1843 03c4 61       		.byte	0x61
 1844 03c5 D6020000 		.4byte	0x2d6
 1845 03c9 04       		.byte	0x4
 1846 03ca 0D       		.uleb128 0xd
 1847 03cb 696400   		.ascii	"id\000"
 1848 03ce 0B       		.byte	0xb
 1849 03cf 62       		.byte	0x62
 1850 03d0 E1020000 		.4byte	0x2e1
 1851 03d4 06       		.byte	0x6
 1852 03d5 09       		.uleb128 0x9
 1853 03d6 33010000 		.4byte	.LASF106
 1854 03da 0B       		.byte	0xb
 1855 03db 63       		.byte	0x63
ARM GAS  C:\Users\Petro\AppData\Local\Temp\ccd3b28V.s 			page 50


 1856 03dc E1020000 		.4byte	0x2e1
 1857 03e0 08       		.byte	0x8
 1858 03e1 09       		.uleb128 0x9
 1859 03e2 72030000 		.4byte	.LASF107
 1860 03e6 0B       		.byte	0xb
 1861 03e7 64       		.byte	0x64
 1862 03e8 E1020000 		.4byte	0x2e1
 1863 03ec 0A       		.byte	0xa
 1864 03ed 09       		.uleb128 0x9
 1865 03ee D0070000 		.4byte	.LASF108
 1866 03f2 0B       		.byte	0xb
 1867 03f3 72       		.byte	0x72
 1868 03f4 EC020000 		.4byte	0x2ec
 1869 03f8 0C       		.byte	0xc
 1870 03f9 09       		.uleb128 0x9
 1871 03fa 9C030000 		.4byte	.LASF109
 1872 03fe 0B       		.byte	0xb
 1873 03ff 73       		.byte	0x73
 1874 0400 EC020000 		.4byte	0x2ec
 1875 0404 10       		.byte	0x10
 1876 0405 09       		.uleb128 0x9
 1877 0406 7B020000 		.4byte	.LASF110
 1878 040a 0B       		.byte	0xb
 1879 040b 7D       		.byte	0x7d
 1880 040c EC020000 		.4byte	0x2ec
 1881 0410 14       		.byte	0x14
 1882 0411 09       		.uleb128 0x9
 1883 0412 45020000 		.4byte	.LASF111
 1884 0416 0B       		.byte	0xb
 1885 0417 7E       		.byte	0x7e
 1886 0418 EC020000 		.4byte	0x2ec
 1887 041c 18       		.byte	0x18
 1888 041d 09       		.uleb128 0x9
 1889 041e 49080000 		.4byte	.LASF112
 1890 0422 0B       		.byte	0xb
 1891 0423 7F       		.byte	0x7f
 1892 0424 EC020000 		.4byte	0x2ec
 1893 0428 1C       		.byte	0x1c
 1894 0429 09       		.uleb128 0x9
 1895 042a 05030000 		.4byte	.LASF113
 1896 042e 0B       		.byte	0xb
 1897 042f 80       		.byte	0x80
 1898 0430 EC020000 		.4byte	0x2ec
 1899 0434 20       		.byte	0x20
 1900 0435 09       		.uleb128 0x9
 1901 0436 3E070000 		.4byte	.LASF114
 1902 043a 0B       		.byte	0xb
 1903 043b 81       		.byte	0x81
 1904 043c EC020000 		.4byte	0x2ec
 1905 0440 24       		.byte	0x24
 1906 0441 09       		.uleb128 0x9
 1907 0442 E7040000 		.4byte	.LASF115
 1908 0446 0B       		.byte	0xb
 1909 0447 82       		.byte	0x82
 1910 0448 EC020000 		.4byte	0x2ec
 1911 044c 28       		.byte	0x28
 1912 044d 09       		.uleb128 0x9
ARM GAS  C:\Users\Petro\AppData\Local\Temp\ccd3b28V.s 			page 51


 1913 044e A4050000 		.4byte	.LASF116
 1914 0452 0B       		.byte	0xb
 1915 0453 83       		.byte	0x83
 1916 0454 EC020000 		.4byte	0x2ec
 1917 0458 2C       		.byte	0x2c
 1918 0459 0D       		.uleb128 0xd
 1919 045a 77696E00 		.ascii	"win\000"
 1920 045e 0B       		.byte	0xb
 1921 045f 84       		.byte	0x84
 1922 0460 66040000 		.4byte	0x466
 1923 0464 30       		.byte	0x30
 1924 0465 00       		.byte	0
 1925 0466 0E       		.uleb128 0xe
 1926 0467 D6020000 		.4byte	0x2d6
 1927 046b 77040000 		.4byte	0x477
 1928 046f 0F       		.uleb128 0xf
 1929 0470 F0000000 		.4byte	0xf0
 1930 0474 FF01     		.2byte	0x1ff
 1931 0476 00       		.byte	0
 1932 0477 03       		.uleb128 0x3
 1933 0478 FC090000 		.4byte	.LASF117
 1934 047c 0B       		.byte	0xb
 1935 047d 85       		.byte	0x85
 1936 047e 85030000 		.4byte	0x385
 1937 0482 08       		.uleb128 0x8
 1938 0483 10       		.byte	0x10
 1939 0484 0B       		.byte	0xb
 1940 0485 8B       		.byte	0x8b
 1941 0486 D1040000 		.4byte	0x4d1
 1942 048a 0D       		.uleb128 0xd
 1943 048b 667300   		.ascii	"fs\000"
 1944 048e 0B       		.byte	0xb
 1945 048f 8C       		.byte	0x8c
 1946 0490 D1040000 		.4byte	0x4d1
 1947 0494 00       		.byte	0
 1948 0495 0D       		.uleb128 0xd
 1949 0496 696400   		.ascii	"id\000"
 1950 0499 0B       		.byte	0xb
 1951 049a 8D       		.byte	0x8d
 1952 049b E1020000 		.4byte	0x2e1
 1953 049f 04       		.byte	0x4
 1954 04a0 09       		.uleb128 0x9
 1955 04a1 B3030000 		.4byte	.LASF118
 1956 04a5 0B       		.byte	0xb
 1957 04a6 8E       		.byte	0x8e
 1958 04a7 D6020000 		.4byte	0x2d6
 1959 04ab 06       		.byte	0x6
 1960 04ac 09       		.uleb128 0x9
 1961 04ad CA010000 		.4byte	.LASF119
 1962 04b1 0B       		.byte	0xb
 1963 04b2 8F       		.byte	0x8f
 1964 04b3 D6020000 		.4byte	0x2d6
 1965 04b7 07       		.byte	0x7
 1966 04b8 09       		.uleb128 0x9
 1967 04b9 46070000 		.4byte	.LASF120
 1968 04bd 0B       		.byte	0xb
 1969 04be 90       		.byte	0x90
ARM GAS  C:\Users\Petro\AppData\Local\Temp\ccd3b28V.s 			page 52


 1970 04bf EC020000 		.4byte	0x2ec
 1971 04c3 08       		.byte	0x8
 1972 04c4 09       		.uleb128 0x9
 1973 04c5 E9080000 		.4byte	.LASF121
 1974 04c9 0B       		.byte	0xb
 1975 04ca 91       		.byte	0x91
 1976 04cb 7A030000 		.4byte	0x37a
 1977 04cf 0C       		.byte	0xc
 1978 04d0 00       		.byte	0
 1979 04d1 06       		.uleb128 0x6
 1980 04d2 04       		.byte	0x4
 1981 04d3 77040000 		.4byte	0x477
 1982 04d7 03       		.uleb128 0x3
 1983 04d8 D30A0000 		.4byte	.LASF122
 1984 04dc 0B       		.byte	0xb
 1985 04dd 9B       		.byte	0x9b
 1986 04de 82040000 		.4byte	0x482
 1987 04e2 0C       		.uleb128 0xc
 1988 04e3 2802     		.2byte	0x228
 1989 04e5 0B       		.byte	0xb
 1990 04e6 A1       		.byte	0xa1
 1991 04e7 58050000 		.4byte	0x558
 1992 04eb 0D       		.uleb128 0xd
 1993 04ec 6F626A00 		.ascii	"obj\000"
 1994 04f0 0B       		.byte	0xb
 1995 04f1 A2       		.byte	0xa2
 1996 04f2 D7040000 		.4byte	0x4d7
 1997 04f6 00       		.byte	0
 1998 04f7 09       		.uleb128 0x9
 1999 04f8 72080000 		.4byte	.LASF123
 2000 04fc 0B       		.byte	0xb
 2001 04fd A3       		.byte	0xa3
 2002 04fe D6020000 		.4byte	0x2d6
 2003 0502 10       		.byte	0x10
 2004 0503 0D       		.uleb128 0xd
 2005 0504 65727200 		.ascii	"err\000"
 2006 0508 0B       		.byte	0xb
 2007 0509 A4       		.byte	0xa4
 2008 050a D6020000 		.4byte	0x2d6
 2009 050e 11       		.byte	0x11
 2010 050f 09       		.uleb128 0x9
 2011 0510 AA060000 		.4byte	.LASF124
 2012 0514 0B       		.byte	0xb
 2013 0515 A5       		.byte	0xa5
 2014 0516 7A030000 		.4byte	0x37a
 2015 051a 14       		.byte	0x14
 2016 051b 09       		.uleb128 0x9
 2017 051c 620C0000 		.4byte	.LASF125
 2018 0520 0B       		.byte	0xb
 2019 0521 A6       		.byte	0xa6
 2020 0522 EC020000 		.4byte	0x2ec
 2021 0526 18       		.byte	0x18
 2022 0527 09       		.uleb128 0x9
 2023 0528 89010000 		.4byte	.LASF126
 2024 052c 0B       		.byte	0xb
 2025 052d A7       		.byte	0xa7
 2026 052e EC020000 		.4byte	0x2ec
ARM GAS  C:\Users\Petro\AppData\Local\Temp\ccd3b28V.s 			page 53


 2027 0532 1C       		.byte	0x1c
 2028 0533 09       		.uleb128 0x9
 2029 0534 C1010000 		.4byte	.LASF127
 2030 0538 0B       		.byte	0xb
 2031 0539 A9       		.byte	0xa9
 2032 053a EC020000 		.4byte	0x2ec
 2033 053e 20       		.byte	0x20
 2034 053f 09       		.uleb128 0x9
 2035 0540 AB030000 		.4byte	.LASF128
 2036 0544 0B       		.byte	0xb
 2037 0545 AA       		.byte	0xaa
 2038 0546 58050000 		.4byte	0x558
 2039 054a 24       		.byte	0x24
 2040 054b 0D       		.uleb128 0xd
 2041 054c 62756600 		.ascii	"buf\000"
 2042 0550 0B       		.byte	0xb
 2043 0551 B0       		.byte	0xb0
 2044 0552 66040000 		.4byte	0x466
 2045 0556 28       		.byte	0x28
 2046 0557 00       		.byte	0
 2047 0558 06       		.uleb128 0x6
 2048 0559 04       		.byte	0x4
 2049 055a D6020000 		.4byte	0x2d6
 2050 055e 10       		.uleb128 0x10
 2051 055f 46494C00 		.ascii	"FIL\000"
 2052 0563 0B       		.byte	0xb
 2053 0564 B2       		.byte	0xb2
 2054 0565 E2040000 		.4byte	0x4e2
 2055 0569 11       		.uleb128 0x11
 2056 056a 4D060000 		.4byte	.LASF129
 2057 056e 01       		.byte	0x1
 2058 056f F101     		.2byte	0x1f1
 2059 0571 CF000000 		.4byte	0xcf
 2060 0575 00000000 		.4byte	.LFB4
 2061 0579 30000000 		.4byte	.LFE4-.LFB4
 2062 057d 01       		.uleb128 0x1
 2063 057e 9C       		.byte	0x9c
 2064 057f A2050000 		.4byte	0x5a2
 2065 0583 12       		.uleb128 0x12
 2066 0584 3F080000 		.4byte	.LASF131
 2067 0588 01       		.byte	0x1
 2068 0589 F101     		.2byte	0x1f1
 2069 058b CF000000 		.4byte	0xcf
 2070 058f 02       		.uleb128 0x2
 2071 0590 91       		.byte	0x91
 2072 0591 6C       		.sleb128 -20
 2073 0592 13       		.uleb128 0x13
 2074 0593 56000000 		.4byte	.LASF132
 2075 0597 01       		.byte	0x1
 2076 0598 F301     		.2byte	0x1f3
 2077 059a CF000000 		.4byte	0xcf
 2078 059e 02       		.uleb128 0x2
 2079 059f 91       		.byte	0x91
 2080 05a0 74       		.sleb128 -12
 2081 05a1 00       		.byte	0
 2082 05a2 11       		.uleb128 0x11
 2083 05a3 63030000 		.4byte	.LASF130
ARM GAS  C:\Users\Petro\AppData\Local\Temp\ccd3b28V.s 			page 54


 2084 05a7 01       		.byte	0x1
 2085 05a8 0B02     		.2byte	0x20b
 2086 05aa CF000000 		.4byte	0xcf
 2087 05ae 00000000 		.4byte	.LFB5
 2088 05b2 36000000 		.4byte	.LFE5-.LFB5
 2089 05b6 01       		.uleb128 0x1
 2090 05b7 9C       		.byte	0x9c
 2091 05b8 DB050000 		.4byte	0x5db
 2092 05bc 12       		.uleb128 0x12
 2093 05bd 3F080000 		.4byte	.LASF131
 2094 05c1 01       		.byte	0x1
 2095 05c2 0B02     		.2byte	0x20b
 2096 05c4 CF000000 		.4byte	0xcf
 2097 05c8 02       		.uleb128 0x2
 2098 05c9 91       		.byte	0x91
 2099 05ca 6C       		.sleb128 -20
 2100 05cb 13       		.uleb128 0x13
 2101 05cc 56000000 		.4byte	.LASF132
 2102 05d0 01       		.byte	0x1
 2103 05d1 0D02     		.2byte	0x20d
 2104 05d3 CF000000 		.4byte	0xcf
 2105 05d7 02       		.uleb128 0x2
 2106 05d8 91       		.byte	0x91
 2107 05d9 74       		.sleb128 -12
 2108 05da 00       		.byte	0
 2109 05db 11       		.uleb128 0x11
 2110 05dc 5A040000 		.4byte	.LASF133
 2111 05e0 01       		.byte	0x1
 2112 05e1 2402     		.2byte	0x224
 2113 05e3 CF000000 		.4byte	0xcf
 2114 05e7 00000000 		.4byte	.LFB6
 2115 05eb 36000000 		.4byte	.LFE6-.LFB6
 2116 05ef 01       		.uleb128 0x1
 2117 05f0 9C       		.byte	0x9c
 2118 05f1 14060000 		.4byte	0x614
 2119 05f5 12       		.uleb128 0x12
 2120 05f6 3F080000 		.4byte	.LASF131
 2121 05fa 01       		.byte	0x1
 2122 05fb 2402     		.2byte	0x224
 2123 05fd CF000000 		.4byte	0xcf
 2124 0601 02       		.uleb128 0x2
 2125 0602 91       		.byte	0x91
 2126 0603 6C       		.sleb128 -20
 2127 0604 13       		.uleb128 0x13
 2128 0605 56000000 		.4byte	.LASF132
 2129 0609 01       		.byte	0x1
 2130 060a 2602     		.2byte	0x226
 2131 060c CF000000 		.4byte	0xcf
 2132 0610 02       		.uleb128 0x2
 2133 0611 91       		.byte	0x91
 2134 0612 74       		.sleb128 -12
 2135 0613 00       		.byte	0
 2136 0614 11       		.uleb128 0x11
 2137 0615 F1090000 		.4byte	.LASF134
 2138 0619 01       		.byte	0x1
 2139 061a 5302     		.2byte	0x253
 2140 061c CF000000 		.4byte	0xcf
ARM GAS  C:\Users\Petro\AppData\Local\Temp\ccd3b28V.s 			page 55


 2141 0620 00000000 		.4byte	.LFB8
 2142 0624 36000000 		.4byte	.LFE8-.LFB8
 2143 0628 01       		.uleb128 0x1
 2144 0629 9C       		.byte	0x9c
 2145 062a 4D060000 		.4byte	0x64d
 2146 062e 12       		.uleb128 0x12
 2147 062f 8E010000 		.4byte	.LASF25
 2148 0633 01       		.byte	0x1
 2149 0634 5302     		.2byte	0x253
 2150 0636 CF000000 		.4byte	0xcf
 2151 063a 02       		.uleb128 0x2
 2152 063b 91       		.byte	0x91
 2153 063c 6C       		.sleb128 -20
 2154 063d 13       		.uleb128 0x13
 2155 063e 56000000 		.4byte	.LASF132
 2156 0642 01       		.byte	0x1
 2157 0643 5502     		.2byte	0x255
 2158 0645 CF000000 		.4byte	0xcf
 2159 0649 02       		.uleb128 0x2
 2160 064a 91       		.byte	0x91
 2161 064b 74       		.sleb128 -12
 2162 064c 00       		.byte	0
 2163 064d 11       		.uleb128 0x11
 2164 064e 3F000000 		.4byte	.LASF135
 2165 0652 01       		.byte	0x1
 2166 0653 6C02     		.2byte	0x26c
 2167 0655 CF000000 		.4byte	0xcf
 2168 0659 00000000 		.4byte	.LFB9
 2169 065d 36000000 		.4byte	.LFE9-.LFB9
 2170 0661 01       		.uleb128 0x1
 2171 0662 9C       		.byte	0x9c
 2172 0663 86060000 		.4byte	0x686
 2173 0667 12       		.uleb128 0x12
 2174 0668 8E010000 		.4byte	.LASF25
 2175 066c 01       		.byte	0x1
 2176 066d 6C02     		.2byte	0x26c
 2177 066f CF000000 		.4byte	0xcf
 2178 0673 02       		.uleb128 0x2
 2179 0674 91       		.byte	0x91
 2180 0675 6C       		.sleb128 -20
 2181 0676 13       		.uleb128 0x13
 2182 0677 56000000 		.4byte	.LASF132
 2183 067b 01       		.byte	0x1
 2184 067c 6E02     		.2byte	0x26e
 2185 067e CF000000 		.4byte	0xcf
 2186 0682 02       		.uleb128 0x2
 2187 0683 91       		.byte	0x91
 2188 0684 74       		.sleb128 -12
 2189 0685 00       		.byte	0
 2190 0686 11       		.uleb128 0x11
 2191 0687 1A030000 		.4byte	.LASF136
 2192 068b 01       		.byte	0x1
 2193 068c 8502     		.2byte	0x285
 2194 068e CF000000 		.4byte	0xcf
 2195 0692 00000000 		.4byte	.LFB10
 2196 0696 5C000000 		.4byte	.LFE10-.LFB10
 2197 069a 01       		.uleb128 0x1
ARM GAS  C:\Users\Petro\AppData\Local\Temp\ccd3b28V.s 			page 56


 2198 069b 9C       		.byte	0x9c
 2199 069c BF060000 		.4byte	0x6bf
 2200 06a0 12       		.uleb128 0x12
 2201 06a1 8E010000 		.4byte	.LASF25
 2202 06a5 01       		.byte	0x1
 2203 06a6 8502     		.2byte	0x285
 2204 06a8 CF000000 		.4byte	0xcf
 2205 06ac 02       		.uleb128 0x2
 2206 06ad 91       		.byte	0x91
 2207 06ae 6C       		.sleb128 -20
 2208 06af 13       		.uleb128 0x13
 2209 06b0 56000000 		.4byte	.LASF132
 2210 06b4 01       		.byte	0x1
 2211 06b5 8702     		.2byte	0x287
 2212 06b7 CF000000 		.4byte	0xcf
 2213 06bb 02       		.uleb128 0x2
 2214 06bc 91       		.byte	0x91
 2215 06bd 74       		.sleb128 -12
 2216 06be 00       		.byte	0
 2217 06bf 14       		.uleb128 0x14
 2218 06c0 7C000000 		.4byte	.LASF138
 2219 06c4 02       		.byte	0x2
 2220 06c5 29       		.byte	0x29
 2221 06c6 AD000000 		.4byte	0xad
 2222 06ca 00000000 		.4byte	.LFB63
 2223 06ce 30000000 		.4byte	.LFE63-.LFB63
 2224 06d2 01       		.uleb128 0x1
 2225 06d3 9C       		.byte	0x9c
 2226 06d4 E7060000 		.4byte	0x6e7
 2227 06d8 15       		.uleb128 0x15
 2228 06d9 B20A0000 		.4byte	.LASF137
 2229 06dd 02       		.byte	0x2
 2230 06de 2B       		.byte	0x2b
 2231 06df C3000000 		.4byte	0xc3
 2232 06e3 02       		.uleb128 0x2
 2233 06e4 91       		.byte	0x91
 2234 06e5 6F       		.sleb128 -17
 2235 06e6 00       		.byte	0
 2236 06e7 14       		.uleb128 0x14
 2237 06e8 C5020000 		.4byte	.LASF139
 2238 06ec 02       		.byte	0x2
 2239 06ed 41       		.byte	0x41
 2240 06ee AD000000 		.4byte	0xad
 2241 06f2 00000000 		.4byte	.LFB64
 2242 06f6 94020000 		.4byte	.LFE64-.LFB64
 2243 06fa 01       		.uleb128 0x1
 2244 06fb 9C       		.byte	0x9c
 2245 06fc D0070000 		.4byte	0x7d0
 2246 0700 16       		.uleb128 0x16
 2247 0701 D3040000 		.4byte	.LASF140
 2248 0705 02       		.byte	0x2
 2249 0706 41       		.byte	0x41
 2250 0707 D0070000 		.4byte	0x7d0
 2251 070b 03       		.uleb128 0x3
 2252 070c 91       		.byte	0x91
 2253 070d 9C7E     		.sleb128 -228
 2254 070f 15       		.uleb128 0x15
ARM GAS  C:\Users\Petro\AppData\Local\Temp\ccd3b28V.s 			page 57


 2255 0710 B20A0000 		.4byte	.LASF137
 2256 0714 02       		.byte	0x2
 2257 0715 43       		.byte	0x43
 2258 0716 C3000000 		.4byte	0xc3
 2259 071a 02       		.uleb128 0x2
 2260 071b 91       		.byte	0x91
 2261 071c 6F       		.sleb128 -17
 2262 071d 15       		.uleb128 0x15
 2263 071e 3F030000 		.4byte	.LASF141
 2264 0722 02       		.byte	0x2
 2265 0723 44       		.byte	0x44
 2266 0724 02010000 		.4byte	0x102
 2267 0728 02       		.uleb128 0x2
 2268 0729 91       		.byte	0x91
 2269 072a 54       		.sleb128 -44
 2270 072b 15       		.uleb128 0x15
 2271 072c AC050000 		.4byte	.LASF142
 2272 0730 02       		.byte	0x2
 2273 0731 46       		.byte	0x46
 2274 0732 AD000000 		.4byte	0xad
 2275 0736 02       		.uleb128 0x2
 2276 0737 91       		.byte	0x91
 2277 0738 64       		.sleb128 -28
 2278 0739 15       		.uleb128 0x15
 2279 073a 2E030000 		.4byte	.LASF143
 2280 073e 02       		.byte	0x2
 2281 073f 47       		.byte	0x47
 2282 0740 AD000000 		.4byte	0xad
 2283 0744 02       		.uleb128 0x2
 2284 0745 91       		.byte	0x91
 2285 0746 60       		.sleb128 -32
 2286 0747 15       		.uleb128 0x15
 2287 0748 4D070000 		.4byte	.LASF144
 2288 074c 02       		.byte	0x2
 2289 074d 48       		.byte	0x48
 2290 074e AD000000 		.4byte	0xad
 2291 0752 02       		.uleb128 0x2
 2292 0753 91       		.byte	0x91
 2293 0754 5C       		.sleb128 -36
 2294 0755 15       		.uleb128 0x15
 2295 0756 8E010000 		.4byte	.LASF25
 2296 075a 02       		.byte	0x2
 2297 075b 49       		.byte	0x49
 2298 075c AD000000 		.4byte	0xad
 2299 0760 02       		.uleb128 0x2
 2300 0761 91       		.byte	0x91
 2301 0762 68       		.sleb128 -24
 2302 0763 17       		.uleb128 0x17
 2303 0764 9E000000 		.4byte	.LBB2
 2304 0768 B6010000 		.4byte	.LBE2-.LBB2
 2305 076c 15       		.uleb128 0x15
 2306 076d F30B0000 		.4byte	.LASF145
 2307 0771 02       		.byte	0x2
 2308 0772 59       		.byte	0x59
 2309 0773 D6070000 		.4byte	0x7d6
 2310 0777 02       		.uleb128 0x2
 2311 0778 91       		.byte	0x91
ARM GAS  C:\Users\Petro\AppData\Local\Temp\ccd3b28V.s 			page 58


 2312 0779 40       		.sleb128 -64
 2313 077a 15       		.uleb128 0x15
 2314 077b B5050000 		.4byte	.LASF146
 2315 077f 02       		.byte	0x2
 2316 0780 5A       		.byte	0x5a
 2317 0781 D6070000 		.4byte	0x7d6
 2318 0785 03       		.uleb128 0x3
 2319 0786 91       		.byte	0x91
 2320 0787 AC7F     		.sleb128 -84
 2321 0789 15       		.uleb128 0x15
 2322 078a 3D0C0000 		.4byte	.LASF147
 2323 078e 02       		.byte	0x2
 2324 078f 5B       		.byte	0x5b
 2325 0790 D6070000 		.4byte	0x7d6
 2326 0794 03       		.uleb128 0x3
 2327 0795 91       		.byte	0x91
 2328 0796 987F     		.sleb128 -104
 2329 0798 15       		.uleb128 0x15
 2330 0799 87050000 		.4byte	.LASF148
 2331 079d 02       		.byte	0x2
 2332 079e 5C       		.byte	0x5c
 2333 079f E6070000 		.4byte	0x7e6
 2334 07a3 03       		.uleb128 0x3
 2335 07a4 91       		.byte	0x91
 2336 07a5 A47E     		.sleb128 -220
 2337 07a7 15       		.uleb128 0x15
 2338 07a8 A2070000 		.4byte	.LASF24
 2339 07ac 02       		.byte	0x2
 2340 07ad 5E       		.byte	0x5e
 2341 07ae 46010000 		.4byte	0x146
 2342 07b2 03       		.uleb128 0x3
 2343 07b3 91       		.byte	0x91
 2344 07b4 887F     		.sleb128 -120
 2345 07b6 17       		.uleb128 0x17
 2346 07b7 A6010000 		.4byte	.LBB3
 2347 07bb 6C000000 		.4byte	.LBE3-.LBB3
 2348 07bf 15       		.uleb128 0x15
 2349 07c0 E10A0000 		.4byte	.LASF149
 2350 07c4 02       		.byte	0x2
 2351 07c5 6C       		.byte	0x6c
 2352 07c6 AD000000 		.4byte	0xad
 2353 07ca 02       		.uleb128 0x2
 2354 07cb 91       		.byte	0x91
 2355 07cc 58       		.sleb128 -40
 2356 07cd 00       		.byte	0
 2357 07ce 00       		.byte	0
 2358 07cf 00       		.byte	0
 2359 07d0 06       		.uleb128 0x6
 2360 07d1 04       		.byte	0x4
 2361 07d2 6F030000 		.4byte	0x36f
 2362 07d6 0E       		.uleb128 0xe
 2363 07d7 E9000000 		.4byte	0xe9
 2364 07db E6070000 		.4byte	0x7e6
 2365 07df 18       		.uleb128 0x18
 2366 07e0 F0000000 		.4byte	0xf0
 2367 07e4 13       		.byte	0x13
 2368 07e5 00       		.byte	0
ARM GAS  C:\Users\Petro\AppData\Local\Temp\ccd3b28V.s 			page 59


 2369 07e6 0E       		.uleb128 0xe
 2370 07e7 E9000000 		.4byte	0xe9
 2371 07eb F6070000 		.4byte	0x7f6
 2372 07ef 18       		.uleb128 0x18
 2373 07f0 F0000000 		.4byte	0xf0
 2374 07f4 63       		.byte	0x63
 2375 07f5 00       		.byte	0
 2376 07f6 14       		.uleb128 0x14
 2377 07f7 D7000000 		.4byte	.LASF150
 2378 07fb 02       		.byte	0x2
 2379 07fc 80       		.byte	0x80
 2380 07fd AD000000 		.4byte	0xad
 2381 0801 00000000 		.4byte	.LFB65
 2382 0805 2C030000 		.4byte	.LFE65-.LFB65
 2383 0809 01       		.uleb128 0x1
 2384 080a 9C       		.byte	0x9c
 2385 080b E6080000 		.4byte	0x8e6
 2386 080f 15       		.uleb128 0x15
 2387 0810 B20A0000 		.4byte	.LASF137
 2388 0814 02       		.byte	0x2
 2389 0815 82       		.byte	0x82
 2390 0816 AD000000 		.4byte	0xad
 2391 081a 02       		.uleb128 0x2
 2392 081b 91       		.byte	0x91
 2393 081c 60       		.sleb128 -32
 2394 081d 15       		.uleb128 0x15
 2395 081e 45030000 		.4byte	.LASF151
 2396 0822 02       		.byte	0x2
 2397 0823 83       		.byte	0x83
 2398 0824 E6080000 		.4byte	0x8e6
 2399 0828 03       		.uleb128 0x3
 2400 0829 91       		.byte	0x91
 2401 082a 8C7F     		.sleb128 -116
 2402 082c 15       		.uleb128 0x15
 2403 082d C0080000 		.4byte	.LASF152
 2404 0831 02       		.byte	0x2
 2405 0832 86       		.byte	0x86
 2406 0833 A2000000 		.4byte	0xa2
 2407 0837 02       		.uleb128 0x2
 2408 0838 91       		.byte	0x91
 2409 0839 76       		.sleb128 -10
 2410 083a 15       		.uleb128 0x15
 2411 083b 56010000 		.4byte	.LASF153
 2412 083f 02       		.byte	0x2
 2413 0840 87       		.byte	0x87
 2414 0841 F6080000 		.4byte	0x8f6
 2415 0845 03       		.uleb128 0x3
 2416 0846 91       		.byte	0x91
 2417 0847 847F     		.sleb128 -124
 2418 0849 15       		.uleb128 0x15
 2419 084a D8040000 		.4byte	.LASF154
 2420 084e 02       		.byte	0x2
 2421 084f 88       		.byte	0x88
 2422 0850 F6080000 		.4byte	0x8f6
 2423 0854 03       		.uleb128 0x3
 2424 0855 91       		.byte	0x91
 2425 0856 FC7E     		.sleb128 -132
ARM GAS  C:\Users\Petro\AppData\Local\Temp\ccd3b28V.s 			page 60


 2426 0858 15       		.uleb128 0x15
 2427 0859 30080000 		.4byte	.LASF155
 2428 085d 02       		.byte	0x2
 2429 085e 89       		.byte	0x89
 2430 085f F6080000 		.4byte	0x8f6
 2431 0863 03       		.uleb128 0x3
 2432 0864 91       		.byte	0x91
 2433 0865 F47E     		.sleb128 -140
 2434 0867 17       		.uleb128 0x17
 2435 0868 2A000000 		.4byte	.LBB4
 2436 086c BE020000 		.4byte	.LBE4-.LBB4
 2437 0870 15       		.uleb128 0x15
 2438 0871 93010000 		.4byte	.LASF156
 2439 0875 02       		.byte	0x2
 2440 0876 91       		.byte	0x91
 2441 0877 AD000000 		.4byte	0xad
 2442 087b 02       		.uleb128 0x2
 2443 087c 91       		.byte	0x91
 2444 087d 70       		.sleb128 -16
 2445 087e 15       		.uleb128 0x15
 2446 087f 020A0000 		.4byte	.LASF157
 2447 0883 02       		.byte	0x2
 2448 0884 92       		.byte	0x92
 2449 0885 AD000000 		.4byte	0xad
 2450 0889 02       		.uleb128 0x2
 2451 088a 91       		.byte	0x91
 2452 088b 6C       		.sleb128 -20
 2453 088c 15       		.uleb128 0x15
 2454 088d 12080000 		.4byte	.LASF158
 2455 0891 02       		.byte	0x2
 2456 0892 93       		.byte	0x93
 2457 0893 97000000 		.4byte	0x97
 2458 0897 02       		.uleb128 0x2
 2459 0898 91       		.byte	0x91
 2460 0899 6B       		.sleb128 -21
 2461 089a 0A       		.uleb128 0xa
 2462 089b 01       		.byte	0x1
 2463 089c 02       		.byte	0x2
 2464 089d 95       		.byte	0x95
 2465 089e B5080000 		.4byte	0x8b5
 2466 08a2 0B       		.uleb128 0xb
 2467 08a3 F1000000 		.4byte	.LASF159
 2468 08a7 00       		.sleb128 0
 2469 08a8 0B       		.uleb128 0xb
 2470 08a9 00010000 		.4byte	.LASF160
 2471 08ad 01       		.sleb128 1
 2472 08ae 0B       		.uleb128 0xb
 2473 08af 79010000 		.4byte	.LASF161
 2474 08b3 02       		.sleb128 2
 2475 08b4 00       		.byte	0
 2476 08b5 03       		.uleb128 0x3
 2477 08b6 77080000 		.4byte	.LASF162
 2478 08ba 02       		.byte	0x2
 2479 08bb 95       		.byte	0x95
 2480 08bc 9A080000 		.4byte	0x89a
 2481 08c0 15       		.uleb128 0x15
 2482 08c1 A7070000 		.4byte	.LASF163
ARM GAS  C:\Users\Petro\AppData\Local\Temp\ccd3b28V.s 			page 61


 2483 08c5 02       		.byte	0x2
 2484 08c6 96       		.byte	0x96
 2485 08c7 B5080000 		.4byte	0x8b5
 2486 08cb 02       		.uleb128 0x2
 2487 08cc 91       		.byte	0x91
 2488 08cd 6A       		.sleb128 -22
 2489 08ce 17       		.uleb128 0x17
 2490 08cf 60000000 		.4byte	.LBB5
 2491 08d3 88020000 		.4byte	.LBE5-.LBB5
 2492 08d7 19       		.uleb128 0x19
 2493 08d8 6900     		.ascii	"i\000"
 2494 08da 02       		.byte	0x2
 2495 08db 9B       		.byte	0x9b
 2496 08dc 89000000 		.4byte	0x89
 2497 08e0 02       		.uleb128 0x2
 2498 08e1 91       		.byte	0x91
 2499 08e2 64       		.sleb128 -28
 2500 08e3 00       		.byte	0
 2501 08e4 00       		.byte	0
 2502 08e5 00       		.byte	0
 2503 08e6 0E       		.uleb128 0xe
 2504 08e7 E9000000 		.4byte	0xe9
 2505 08eb F6080000 		.4byte	0x8f6
 2506 08ef 18       		.uleb128 0x18
 2507 08f0 F0000000 		.4byte	0xf0
 2508 08f4 51       		.byte	0x51
 2509 08f5 00       		.byte	0
 2510 08f6 0E       		.uleb128 0xe
 2511 08f7 A2000000 		.4byte	0xa2
 2512 08fb 06090000 		.4byte	0x906
 2513 08ff 18       		.uleb128 0x18
 2514 0900 F0000000 		.4byte	0xf0
 2515 0904 03       		.byte	0x3
 2516 0905 00       		.byte	0
 2517 0906 1A       		.uleb128 0x1a
 2518 0907 C10A0000 		.4byte	.LASF164
 2519 090b 02       		.byte	0x2
 2520 090c E6       		.byte	0xe6
 2521 090d AD000000 		.4byte	0xad
 2522 0911 00000000 		.4byte	.LFB66
 2523 0915 14000000 		.4byte	.LFE66-.LFB66
 2524 0919 01       		.uleb128 0x1
 2525 091a 9C       		.byte	0x9c
 2526 091b 1A       		.uleb128 0x1a
 2527 091c CF010000 		.4byte	.LASF165
 2528 0920 02       		.byte	0x2
 2529 0921 EB       		.byte	0xeb
 2530 0922 AD000000 		.4byte	0xad
 2531 0926 00000000 		.4byte	.LFB67
 2532 092a 14000000 		.4byte	.LFE67-.LFB67
 2533 092e 01       		.uleb128 0x1
 2534 092f 9C       		.byte	0x9c
 2535 0930 1B       		.uleb128 0x1b
 2536 0931 CC080000 		.4byte	.LASF176
 2537 0935 02       		.byte	0x2
 2538 0936 F0       		.byte	0xf0
 2539 0937 00000000 		.4byte	.LFB68
ARM GAS  C:\Users\Petro\AppData\Local\Temp\ccd3b28V.s 			page 62


 2540 093b 18000000 		.4byte	.LFE68-.LFB68
 2541 093f 01       		.uleb128 0x1
 2542 0940 9C       		.byte	0x9c
 2543 0941 15       		.uleb128 0x15
 2544 0942 D6020000 		.4byte	.LASF166
 2545 0946 02       		.byte	0x2
 2546 0947 1A       		.byte	0x1a
 2547 0948 D6070000 		.4byte	0x7d6
 2548 094c 05       		.uleb128 0x5
 2549 094d 03       		.byte	0x3
 2550 094e 00000000 		.4byte	nameFile
 2551 0952 15       		.uleb128 0x15
 2552 0953 2A060000 		.4byte	.LASF167
 2553 0957 02       		.byte	0x2
 2554 0958 1B       		.byte	0x1b
 2555 0959 AD000000 		.4byte	0xad
 2556 095d 05       		.uleb128 0x5
 2557 095e 03       		.byte	0x3
 2558 095f 00000000 		.4byte	idSkier
 2559 0963 15       		.uleb128 0x15
 2560 0964 1A040000 		.4byte	.LASF168
 2561 0968 02       		.byte	0x2
 2562 0969 1C       		.byte	0x1c
 2563 096a AD000000 		.4byte	0xad
 2564 096e 05       		.uleb128 0x5
 2565 096f 03       		.byte	0x3
 2566 0970 04000000 		.4byte	position
 2567 0974 1C       		.uleb128 0x1c
 2568 0975 1A010000 		.4byte	.LASF169
 2569 0979 0C       		.byte	0xc
 2570 097a 2D       		.byte	0x2d
 2571 097b F7000000 		.4byte	0xf7
 2572 097f 1D       		.uleb128 0x1d
 2573 0980 42040000 		.4byte	.LASF170
 2574 0984 02       		.byte	0x2
 2575 0985 14       		.byte	0x14
 2576 0986 77040000 		.4byte	0x477
 2577 098a 05       		.uleb128 0x5
 2578 098b 03       		.byte	0x3
 2579 098c 00000000 		.4byte	fatFs
 2580 0990 1D       		.uleb128 0x1d
 2581 0991 E90A0000 		.4byte	.LASF171
 2582 0995 02       		.byte	0x2
 2583 0996 15       		.byte	0x15
 2584 0997 5E050000 		.4byte	0x55e
 2585 099b 05       		.uleb128 0x5
 2586 099c 03       		.byte	0x3
 2587 099d 00000000 		.4byte	fileO
 2588 09a1 1D       		.uleb128 0x1d
 2589 09a2 C3040000 		.4byte	.LASF172
 2590 09a6 02       		.byte	0x2
 2591 09a7 18       		.byte	0x18
 2592 09a8 EC020000 		.4byte	0x2ec
 2593 09ac 05       		.uleb128 0x5
 2594 09ad 03       		.byte	0x3
 2595 09ae 00000000 		.4byte	createFlag
 2596 09b2 00       		.byte	0
ARM GAS  C:\Users\Petro\AppData\Local\Temp\ccd3b28V.s 			page 63


 2597              		.section	.debug_abbrev,"",%progbits
 2598              	.Ldebug_abbrev0:
 2599 0000 01       		.uleb128 0x1
 2600 0001 11       		.uleb128 0x11
 2601 0002 01       		.byte	0x1
 2602 0003 25       		.uleb128 0x25
 2603 0004 0E       		.uleb128 0xe
 2604 0005 13       		.uleb128 0x13
 2605 0006 0B       		.uleb128 0xb
 2606 0007 03       		.uleb128 0x3
 2607 0008 0E       		.uleb128 0xe
 2608 0009 1B       		.uleb128 0x1b
 2609 000a 0E       		.uleb128 0xe
 2610 000b 55       		.uleb128 0x55
 2611 000c 17       		.uleb128 0x17
 2612 000d 11       		.uleb128 0x11
 2613 000e 01       		.uleb128 0x1
 2614 000f 10       		.uleb128 0x10
 2615 0010 17       		.uleb128 0x17
 2616 0011 00       		.byte	0
 2617 0012 00       		.byte	0
 2618 0013 02       		.uleb128 0x2
 2619 0014 24       		.uleb128 0x24
 2620 0015 00       		.byte	0
 2621 0016 0B       		.uleb128 0xb
 2622 0017 0B       		.uleb128 0xb
 2623 0018 3E       		.uleb128 0x3e
 2624 0019 0B       		.uleb128 0xb
 2625 001a 03       		.uleb128 0x3
 2626 001b 0E       		.uleb128 0xe
 2627 001c 00       		.byte	0
 2628 001d 00       		.byte	0
 2629 001e 03       		.uleb128 0x3
 2630 001f 16       		.uleb128 0x16
 2631 0020 00       		.byte	0
 2632 0021 03       		.uleb128 0x3
 2633 0022 0E       		.uleb128 0xe
 2634 0023 3A       		.uleb128 0x3a
 2635 0024 0B       		.uleb128 0xb
 2636 0025 3B       		.uleb128 0x3b
 2637 0026 0B       		.uleb128 0xb
 2638 0027 49       		.uleb128 0x49
 2639 0028 13       		.uleb128 0x13
 2640 0029 00       		.byte	0
 2641 002a 00       		.byte	0
 2642 002b 04       		.uleb128 0x4
 2643 002c 24       		.uleb128 0x24
 2644 002d 00       		.byte	0
 2645 002e 0B       		.uleb128 0xb
 2646 002f 0B       		.uleb128 0xb
 2647 0030 3E       		.uleb128 0x3e
 2648 0031 0B       		.uleb128 0xb
 2649 0032 03       		.uleb128 0x3
 2650 0033 08       		.uleb128 0x8
 2651 0034 00       		.byte	0
 2652 0035 00       		.byte	0
 2653 0036 05       		.uleb128 0x5
ARM GAS  C:\Users\Petro\AppData\Local\Temp\ccd3b28V.s 			page 64


 2654 0037 16       		.uleb128 0x16
 2655 0038 00       		.byte	0
 2656 0039 03       		.uleb128 0x3
 2657 003a 0E       		.uleb128 0xe
 2658 003b 3A       		.uleb128 0x3a
 2659 003c 0B       		.uleb128 0xb
 2660 003d 3B       		.uleb128 0x3b
 2661 003e 05       		.uleb128 0x5
 2662 003f 49       		.uleb128 0x49
 2663 0040 13       		.uleb128 0x13
 2664 0041 00       		.byte	0
 2665 0042 00       		.byte	0
 2666 0043 06       		.uleb128 0x6
 2667 0044 0F       		.uleb128 0xf
 2668 0045 00       		.byte	0
 2669 0046 0B       		.uleb128 0xb
 2670 0047 0B       		.uleb128 0xb
 2671 0048 49       		.uleb128 0x49
 2672 0049 13       		.uleb128 0x13
 2673 004a 00       		.byte	0
 2674 004b 00       		.byte	0
 2675 004c 07       		.uleb128 0x7
 2676 004d 26       		.uleb128 0x26
 2677 004e 00       		.byte	0
 2678 004f 49       		.uleb128 0x49
 2679 0050 13       		.uleb128 0x13
 2680 0051 00       		.byte	0
 2681 0052 00       		.byte	0
 2682 0053 08       		.uleb128 0x8
 2683 0054 13       		.uleb128 0x13
 2684 0055 01       		.byte	0x1
 2685 0056 0B       		.uleb128 0xb
 2686 0057 0B       		.uleb128 0xb
 2687 0058 3A       		.uleb128 0x3a
 2688 0059 0B       		.uleb128 0xb
 2689 005a 3B       		.uleb128 0x3b
 2690 005b 0B       		.uleb128 0xb
 2691 005c 01       		.uleb128 0x1
 2692 005d 13       		.uleb128 0x13
 2693 005e 00       		.byte	0
 2694 005f 00       		.byte	0
 2695 0060 09       		.uleb128 0x9
 2696 0061 0D       		.uleb128 0xd
 2697 0062 00       		.byte	0
 2698 0063 03       		.uleb128 0x3
 2699 0064 0E       		.uleb128 0xe
 2700 0065 3A       		.uleb128 0x3a
 2701 0066 0B       		.uleb128 0xb
 2702 0067 3B       		.uleb128 0x3b
 2703 0068 0B       		.uleb128 0xb
 2704 0069 49       		.uleb128 0x49
 2705 006a 13       		.uleb128 0x13
 2706 006b 38       		.uleb128 0x38
 2707 006c 0B       		.uleb128 0xb
 2708 006d 00       		.byte	0
 2709 006e 00       		.byte	0
 2710 006f 0A       		.uleb128 0xa
ARM GAS  C:\Users\Petro\AppData\Local\Temp\ccd3b28V.s 			page 65


 2711 0070 04       		.uleb128 0x4
 2712 0071 01       		.byte	0x1
 2713 0072 0B       		.uleb128 0xb
 2714 0073 0B       		.uleb128 0xb
 2715 0074 3A       		.uleb128 0x3a
 2716 0075 0B       		.uleb128 0xb
 2717 0076 3B       		.uleb128 0x3b
 2718 0077 0B       		.uleb128 0xb
 2719 0078 01       		.uleb128 0x1
 2720 0079 13       		.uleb128 0x13
 2721 007a 00       		.byte	0
 2722 007b 00       		.byte	0
 2723 007c 0B       		.uleb128 0xb
 2724 007d 28       		.uleb128 0x28
 2725 007e 00       		.byte	0
 2726 007f 03       		.uleb128 0x3
 2727 0080 0E       		.uleb128 0xe
 2728 0081 1C       		.uleb128 0x1c
 2729 0082 0D       		.uleb128 0xd
 2730 0083 00       		.byte	0
 2731 0084 00       		.byte	0
 2732 0085 0C       		.uleb128 0xc
 2733 0086 13       		.uleb128 0x13
 2734 0087 01       		.byte	0x1
 2735 0088 0B       		.uleb128 0xb
 2736 0089 05       		.uleb128 0x5
 2737 008a 3A       		.uleb128 0x3a
 2738 008b 0B       		.uleb128 0xb
 2739 008c 3B       		.uleb128 0x3b
 2740 008d 0B       		.uleb128 0xb
 2741 008e 01       		.uleb128 0x1
 2742 008f 13       		.uleb128 0x13
 2743 0090 00       		.byte	0
 2744 0091 00       		.byte	0
 2745 0092 0D       		.uleb128 0xd
 2746 0093 0D       		.uleb128 0xd
 2747 0094 00       		.byte	0
 2748 0095 03       		.uleb128 0x3
 2749 0096 08       		.uleb128 0x8
 2750 0097 3A       		.uleb128 0x3a
 2751 0098 0B       		.uleb128 0xb
 2752 0099 3B       		.uleb128 0x3b
 2753 009a 0B       		.uleb128 0xb
 2754 009b 49       		.uleb128 0x49
 2755 009c 13       		.uleb128 0x13
 2756 009d 38       		.uleb128 0x38
 2757 009e 0B       		.uleb128 0xb
 2758 009f 00       		.byte	0
 2759 00a0 00       		.byte	0
 2760 00a1 0E       		.uleb128 0xe
 2761 00a2 01       		.uleb128 0x1
 2762 00a3 01       		.byte	0x1
 2763 00a4 49       		.uleb128 0x49
 2764 00a5 13       		.uleb128 0x13
 2765 00a6 01       		.uleb128 0x1
 2766 00a7 13       		.uleb128 0x13
 2767 00a8 00       		.byte	0
ARM GAS  C:\Users\Petro\AppData\Local\Temp\ccd3b28V.s 			page 66


 2768 00a9 00       		.byte	0
 2769 00aa 0F       		.uleb128 0xf
 2770 00ab 21       		.uleb128 0x21
 2771 00ac 00       		.byte	0
 2772 00ad 49       		.uleb128 0x49
 2773 00ae 13       		.uleb128 0x13
 2774 00af 2F       		.uleb128 0x2f
 2775 00b0 05       		.uleb128 0x5
 2776 00b1 00       		.byte	0
 2777 00b2 00       		.byte	0
 2778 00b3 10       		.uleb128 0x10
 2779 00b4 16       		.uleb128 0x16
 2780 00b5 00       		.byte	0
 2781 00b6 03       		.uleb128 0x3
 2782 00b7 08       		.uleb128 0x8
 2783 00b8 3A       		.uleb128 0x3a
 2784 00b9 0B       		.uleb128 0xb
 2785 00ba 3B       		.uleb128 0x3b
 2786 00bb 0B       		.uleb128 0xb
 2787 00bc 49       		.uleb128 0x49
 2788 00bd 13       		.uleb128 0x13
 2789 00be 00       		.byte	0
 2790 00bf 00       		.byte	0
 2791 00c0 11       		.uleb128 0x11
 2792 00c1 2E       		.uleb128 0x2e
 2793 00c2 01       		.byte	0x1
 2794 00c3 03       		.uleb128 0x3
 2795 00c4 0E       		.uleb128 0xe
 2796 00c5 3A       		.uleb128 0x3a
 2797 00c6 0B       		.uleb128 0xb
 2798 00c7 3B       		.uleb128 0x3b
 2799 00c8 05       		.uleb128 0x5
 2800 00c9 27       		.uleb128 0x27
 2801 00ca 19       		.uleb128 0x19
 2802 00cb 49       		.uleb128 0x49
 2803 00cc 13       		.uleb128 0x13
 2804 00cd 11       		.uleb128 0x11
 2805 00ce 01       		.uleb128 0x1
 2806 00cf 12       		.uleb128 0x12
 2807 00d0 06       		.uleb128 0x6
 2808 00d1 40       		.uleb128 0x40
 2809 00d2 18       		.uleb128 0x18
 2810 00d3 9742     		.uleb128 0x2117
 2811 00d5 19       		.uleb128 0x19
 2812 00d6 01       		.uleb128 0x1
 2813 00d7 13       		.uleb128 0x13
 2814 00d8 00       		.byte	0
 2815 00d9 00       		.byte	0
 2816 00da 12       		.uleb128 0x12
 2817 00db 05       		.uleb128 0x5
 2818 00dc 00       		.byte	0
 2819 00dd 03       		.uleb128 0x3
 2820 00de 0E       		.uleb128 0xe
 2821 00df 3A       		.uleb128 0x3a
 2822 00e0 0B       		.uleb128 0xb
 2823 00e1 3B       		.uleb128 0x3b
 2824 00e2 05       		.uleb128 0x5
ARM GAS  C:\Users\Petro\AppData\Local\Temp\ccd3b28V.s 			page 67


 2825 00e3 49       		.uleb128 0x49
 2826 00e4 13       		.uleb128 0x13
 2827 00e5 02       		.uleb128 0x2
 2828 00e6 18       		.uleb128 0x18
 2829 00e7 00       		.byte	0
 2830 00e8 00       		.byte	0
 2831 00e9 13       		.uleb128 0x13
 2832 00ea 34       		.uleb128 0x34
 2833 00eb 00       		.byte	0
 2834 00ec 03       		.uleb128 0x3
 2835 00ed 0E       		.uleb128 0xe
 2836 00ee 3A       		.uleb128 0x3a
 2837 00ef 0B       		.uleb128 0xb
 2838 00f0 3B       		.uleb128 0x3b
 2839 00f1 05       		.uleb128 0x5
 2840 00f2 49       		.uleb128 0x49
 2841 00f3 13       		.uleb128 0x13
 2842 00f4 02       		.uleb128 0x2
 2843 00f5 18       		.uleb128 0x18
 2844 00f6 00       		.byte	0
 2845 00f7 00       		.byte	0
 2846 00f8 14       		.uleb128 0x14
 2847 00f9 2E       		.uleb128 0x2e
 2848 00fa 01       		.byte	0x1
 2849 00fb 3F       		.uleb128 0x3f
 2850 00fc 19       		.uleb128 0x19
 2851 00fd 03       		.uleb128 0x3
 2852 00fe 0E       		.uleb128 0xe
 2853 00ff 3A       		.uleb128 0x3a
 2854 0100 0B       		.uleb128 0xb
 2855 0101 3B       		.uleb128 0x3b
 2856 0102 0B       		.uleb128 0xb
 2857 0103 27       		.uleb128 0x27
 2858 0104 19       		.uleb128 0x19
 2859 0105 49       		.uleb128 0x49
 2860 0106 13       		.uleb128 0x13
 2861 0107 11       		.uleb128 0x11
 2862 0108 01       		.uleb128 0x1
 2863 0109 12       		.uleb128 0x12
 2864 010a 06       		.uleb128 0x6
 2865 010b 40       		.uleb128 0x40
 2866 010c 18       		.uleb128 0x18
 2867 010d 9642     		.uleb128 0x2116
 2868 010f 19       		.uleb128 0x19
 2869 0110 01       		.uleb128 0x1
 2870 0111 13       		.uleb128 0x13
 2871 0112 00       		.byte	0
 2872 0113 00       		.byte	0
 2873 0114 15       		.uleb128 0x15
 2874 0115 34       		.uleb128 0x34
 2875 0116 00       		.byte	0
 2876 0117 03       		.uleb128 0x3
 2877 0118 0E       		.uleb128 0xe
 2878 0119 3A       		.uleb128 0x3a
 2879 011a 0B       		.uleb128 0xb
 2880 011b 3B       		.uleb128 0x3b
 2881 011c 0B       		.uleb128 0xb
ARM GAS  C:\Users\Petro\AppData\Local\Temp\ccd3b28V.s 			page 68


 2882 011d 49       		.uleb128 0x49
 2883 011e 13       		.uleb128 0x13
 2884 011f 02       		.uleb128 0x2
 2885 0120 18       		.uleb128 0x18
 2886 0121 00       		.byte	0
 2887 0122 00       		.byte	0
 2888 0123 16       		.uleb128 0x16
 2889 0124 05       		.uleb128 0x5
 2890 0125 00       		.byte	0
 2891 0126 03       		.uleb128 0x3
 2892 0127 0E       		.uleb128 0xe
 2893 0128 3A       		.uleb128 0x3a
 2894 0129 0B       		.uleb128 0xb
 2895 012a 3B       		.uleb128 0x3b
 2896 012b 0B       		.uleb128 0xb
 2897 012c 49       		.uleb128 0x49
 2898 012d 13       		.uleb128 0x13
 2899 012e 02       		.uleb128 0x2
 2900 012f 18       		.uleb128 0x18
 2901 0130 00       		.byte	0
 2902 0131 00       		.byte	0
 2903 0132 17       		.uleb128 0x17
 2904 0133 0B       		.uleb128 0xb
 2905 0134 01       		.byte	0x1
 2906 0135 11       		.uleb128 0x11
 2907 0136 01       		.uleb128 0x1
 2908 0137 12       		.uleb128 0x12
 2909 0138 06       		.uleb128 0x6
 2910 0139 00       		.byte	0
 2911 013a 00       		.byte	0
 2912 013b 18       		.uleb128 0x18
 2913 013c 21       		.uleb128 0x21
 2914 013d 00       		.byte	0
 2915 013e 49       		.uleb128 0x49
 2916 013f 13       		.uleb128 0x13
 2917 0140 2F       		.uleb128 0x2f
 2918 0141 0B       		.uleb128 0xb
 2919 0142 00       		.byte	0
 2920 0143 00       		.byte	0
 2921 0144 19       		.uleb128 0x19
 2922 0145 34       		.uleb128 0x34
 2923 0146 00       		.byte	0
 2924 0147 03       		.uleb128 0x3
 2925 0148 08       		.uleb128 0x8
 2926 0149 3A       		.uleb128 0x3a
 2927 014a 0B       		.uleb128 0xb
 2928 014b 3B       		.uleb128 0x3b
 2929 014c 0B       		.uleb128 0xb
 2930 014d 49       		.uleb128 0x49
 2931 014e 13       		.uleb128 0x13
 2932 014f 02       		.uleb128 0x2
 2933 0150 18       		.uleb128 0x18
 2934 0151 00       		.byte	0
 2935 0152 00       		.byte	0
 2936 0153 1A       		.uleb128 0x1a
 2937 0154 2E       		.uleb128 0x2e
 2938 0155 00       		.byte	0
ARM GAS  C:\Users\Petro\AppData\Local\Temp\ccd3b28V.s 			page 69


 2939 0156 3F       		.uleb128 0x3f
 2940 0157 19       		.uleb128 0x19
 2941 0158 03       		.uleb128 0x3
 2942 0159 0E       		.uleb128 0xe
 2943 015a 3A       		.uleb128 0x3a
 2944 015b 0B       		.uleb128 0xb
 2945 015c 3B       		.uleb128 0x3b
 2946 015d 0B       		.uleb128 0xb
 2947 015e 27       		.uleb128 0x27
 2948 015f 19       		.uleb128 0x19
 2949 0160 49       		.uleb128 0x49
 2950 0161 13       		.uleb128 0x13
 2951 0162 11       		.uleb128 0x11
 2952 0163 01       		.uleb128 0x1
 2953 0164 12       		.uleb128 0x12
 2954 0165 06       		.uleb128 0x6
 2955 0166 40       		.uleb128 0x40
 2956 0167 18       		.uleb128 0x18
 2957 0168 9742     		.uleb128 0x2117
 2958 016a 19       		.uleb128 0x19
 2959 016b 00       		.byte	0
 2960 016c 00       		.byte	0
 2961 016d 1B       		.uleb128 0x1b
 2962 016e 2E       		.uleb128 0x2e
 2963 016f 00       		.byte	0
 2964 0170 3F       		.uleb128 0x3f
 2965 0171 19       		.uleb128 0x19
 2966 0172 03       		.uleb128 0x3
 2967 0173 0E       		.uleb128 0xe
 2968 0174 3A       		.uleb128 0x3a
 2969 0175 0B       		.uleb128 0xb
 2970 0176 3B       		.uleb128 0x3b
 2971 0177 0B       		.uleb128 0xb
 2972 0178 27       		.uleb128 0x27
 2973 0179 19       		.uleb128 0x19
 2974 017a 11       		.uleb128 0x11
 2975 017b 01       		.uleb128 0x1
 2976 017c 12       		.uleb128 0x12
 2977 017d 06       		.uleb128 0x6
 2978 017e 40       		.uleb128 0x40
 2979 017f 18       		.uleb128 0x18
 2980 0180 9742     		.uleb128 0x2117
 2981 0182 19       		.uleb128 0x19
 2982 0183 00       		.byte	0
 2983 0184 00       		.byte	0
 2984 0185 1C       		.uleb128 0x1c
 2985 0186 34       		.uleb128 0x34
 2986 0187 00       		.byte	0
 2987 0188 03       		.uleb128 0x3
 2988 0189 0E       		.uleb128 0xe
 2989 018a 3A       		.uleb128 0x3a
 2990 018b 0B       		.uleb128 0xb
 2991 018c 3B       		.uleb128 0x3b
 2992 018d 0B       		.uleb128 0xb
 2993 018e 49       		.uleb128 0x49
 2994 018f 13       		.uleb128 0x13
 2995 0190 3F       		.uleb128 0x3f
ARM GAS  C:\Users\Petro\AppData\Local\Temp\ccd3b28V.s 			page 70


 2996 0191 19       		.uleb128 0x19
 2997 0192 3C       		.uleb128 0x3c
 2998 0193 19       		.uleb128 0x19
 2999 0194 00       		.byte	0
 3000 0195 00       		.byte	0
 3001 0196 1D       		.uleb128 0x1d
 3002 0197 34       		.uleb128 0x34
 3003 0198 00       		.byte	0
 3004 0199 03       		.uleb128 0x3
 3005 019a 0E       		.uleb128 0xe
 3006 019b 3A       		.uleb128 0x3a
 3007 019c 0B       		.uleb128 0xb
 3008 019d 3B       		.uleb128 0x3b
 3009 019e 0B       		.uleb128 0xb
 3010 019f 49       		.uleb128 0x49
 3011 01a0 13       		.uleb128 0x13
 3012 01a1 3F       		.uleb128 0x3f
 3013 01a2 19       		.uleb128 0x19
 3014 01a3 02       		.uleb128 0x2
 3015 01a4 18       		.uleb128 0x18
 3016 01a5 00       		.byte	0
 3017 01a6 00       		.byte	0
 3018 01a7 00       		.byte	0
 3019              		.section	.debug_aranges,"",%progbits
 3020 0000 74000000 		.4byte	0x74
 3021 0004 0200     		.2byte	0x2
 3022 0006 00000000 		.4byte	.Ldebug_info0
 3023 000a 04       		.byte	0x4
 3024 000b 00       		.byte	0
 3025 000c 0000     		.2byte	0
 3026 000e 0000     		.2byte	0
 3027 0010 00000000 		.4byte	.LFB4
 3028 0014 30000000 		.4byte	.LFE4-.LFB4
 3029 0018 00000000 		.4byte	.LFB5
 3030 001c 36000000 		.4byte	.LFE5-.LFB5
 3031 0020 00000000 		.4byte	.LFB6
 3032 0024 36000000 		.4byte	.LFE6-.LFB6
 3033 0028 00000000 		.4byte	.LFB8
 3034 002c 36000000 		.4byte	.LFE8-.LFB8
 3035 0030 00000000 		.4byte	.LFB9
 3036 0034 36000000 		.4byte	.LFE9-.LFB9
 3037 0038 00000000 		.4byte	.LFB10
 3038 003c 5C000000 		.4byte	.LFE10-.LFB10
 3039 0040 00000000 		.4byte	.LFB63
 3040 0044 30000000 		.4byte	.LFE63-.LFB63
 3041 0048 00000000 		.4byte	.LFB64
 3042 004c 94020000 		.4byte	.LFE64-.LFB64
 3043 0050 00000000 		.4byte	.LFB65
 3044 0054 2C030000 		.4byte	.LFE65-.LFB65
 3045 0058 00000000 		.4byte	.LFB66
 3046 005c 14000000 		.4byte	.LFE66-.LFB66
 3047 0060 00000000 		.4byte	.LFB67
 3048 0064 14000000 		.4byte	.LFE67-.LFB67
 3049 0068 00000000 		.4byte	.LFB68
 3050 006c 18000000 		.4byte	.LFE68-.LFB68
 3051 0070 00000000 		.4byte	0
 3052 0074 00000000 		.4byte	0
ARM GAS  C:\Users\Petro\AppData\Local\Temp\ccd3b28V.s 			page 71


 3053              		.section	.debug_ranges,"",%progbits
 3054              	.Ldebug_ranges0:
 3055 0000 00000000 		.4byte	.LFB4
 3056 0004 30000000 		.4byte	.LFE4
 3057 0008 00000000 		.4byte	.LFB5
 3058 000c 36000000 		.4byte	.LFE5
 3059 0010 00000000 		.4byte	.LFB6
 3060 0014 36000000 		.4byte	.LFE6
 3061 0018 00000000 		.4byte	.LFB8
 3062 001c 36000000 		.4byte	.LFE8
 3063 0020 00000000 		.4byte	.LFB9
 3064 0024 36000000 		.4byte	.LFE9
 3065 0028 00000000 		.4byte	.LFB10
 3066 002c 5C000000 		.4byte	.LFE10
 3067 0030 00000000 		.4byte	.LFB63
 3068 0034 30000000 		.4byte	.LFE63
 3069 0038 00000000 		.4byte	.LFB64
 3070 003c 94020000 		.4byte	.LFE64
 3071 0040 00000000 		.4byte	.LFB65
 3072 0044 2C030000 		.4byte	.LFE65
 3073 0048 00000000 		.4byte	.LFB66
 3074 004c 14000000 		.4byte	.LFE66
 3075 0050 00000000 		.4byte	.LFB67
 3076 0054 14000000 		.4byte	.LFE67
 3077 0058 00000000 		.4byte	.LFB68
 3078 005c 18000000 		.4byte	.LFE68
 3079 0060 00000000 		.4byte	0
 3080 0064 00000000 		.4byte	0
 3081              		.section	.debug_line,"",%progbits
 3082              	.Ldebug_line0:
 3083 0000 AF030000 		.section	.debug_str,"MS",%progbits,1
 3083      02002102 
 3083      00000201 
 3083      FB0E0D00 
 3083      01010101 
 3084              	.LASF80:
 3085 0000 4359424C 		.ascii	"CYBLE_EVT_L2CAP_CBFC_RX_CREDIT_IND\000"
 3085      455F4556 
 3085      545F4C32 
 3085      4341505F 
 3085      43424643 
 3086              	.LASF34:
 3087 0023 4359424C 		.ascii	"CYBLE_EVT_STACK_BUSY_STATUS\000"
 3087      455F4556 
 3087      545F5354 
 3087      41434B5F 
 3087      42555359 
 3088              	.LASF135:
 3089 003f 5254435F 		.ascii	"RTC_GetMonth\000"
 3089      4765744D 
 3089      6F6E7468 
 3089      00
 3090              	.LASF91:
 3091 004c 5245535F 		.ascii	"RES_WRPRT\000"
 3091      57525052 
 3091      5400
 3092              	.LASF132:
ARM GAS  C:\Users\Petro\AppData\Local\Temp\ccd3b28V.s 			page 72


 3093 0056 72657456 		.ascii	"retVal\000"
 3093      616C00
 3094              	.LASF79:
 3095 005d 4359424C 		.ascii	"CYBLE_EVT_L2CAP_CBFC_DATA_READ\000"
 3095      455F4556 
 3095      545F4C32 
 3095      4341505F 
 3095      43424643 
 3096              	.LASF138:
 3097 007c 4C6F6753 		.ascii	"LogStart\000"
 3097      74617274 
 3097      00
 3098              	.LASF102:
 3099 0085 66735F74 		.ascii	"fs_type\000"
 3099      79706500 
 3100              	.LASF45:
 3101 008d 4359424C 		.ascii	"CYBLE_EVT_GAP_CONNECTION_UPDATE_COMPLETE\000"
 3101      455F4556 
 3101      545F4741 
 3101      505F434F 
 3101      4E4E4543 
 3102              	.LASF78:
 3103 00b6 4359424C 		.ascii	"CYBLE_EVT_L2CAP_CBFC_DISCONN_CNF\000"
 3103      455F4556 
 3103      545F4C32 
 3103      4341505F 
 3103      43424643 
 3104              	.LASF150:
 3105 00d7 52656164 		.ascii	"ReadSkierResultAndSendBLE\000"
 3105      536B6965 
 3105      72526573 
 3105      756C7441 
 3105      6E645365 
 3106              	.LASF159:
 3107 00f1 4D41535F 		.ascii	"MAS_START_TIME\000"
 3107      53544152 
 3107      545F5449 
 3107      4D4500
 3108              	.LASF160:
 3109 0100 4D41535F 		.ascii	"MAS_FINISH_TIME\000"
 3109      46494E49 
 3109      53485F54 
 3109      494D4500 
 3110              	.LASF3:
 3111 0110 5F5F7569 		.ascii	"__uint8_t\000"
 3111      6E74385F 
 3111      7400
 3112              	.LASF169:
 3113 011a 5F5F6374 		.ascii	"__ctype_ptr__\000"
 3113      7970655F 
 3113      7074725F 
 3113      5F00
 3114              	.LASF92:
 3115 0128 5245535F 		.ascii	"RES_NOTRDY\000"
 3115      4E4F5452 
 3115      445900
 3116              	.LASF106:
ARM GAS  C:\Users\Petro\AppData\Local\Temp\ccd3b28V.s 			page 73


 3117 0133 6E5F726F 		.ascii	"n_rootdir\000"
 3117      6F746469 
 3117      7200
 3118              	.LASF6:
 3119 013d 6C6F6E67 		.ascii	"long int\000"
 3119      20696E74 
 3119      00
 3120              	.LASF95:
 3121 0146 6D696C6C 		.ascii	"millsStartSkier\000"
 3121      73537461 
 3121      7274536B 
 3121      69657200 
 3122              	.LASF153:
 3123 0156 73656E64 		.ascii	"sendStartTime\000"
 3123      53746172 
 3123      7454696D 
 3123      6500
 3124              	.LASF33:
 3125 0164 4359424C 		.ascii	"CYBLE_EVT_HCI_STATUS\000"
 3125      455F4556 
 3125      545F4843 
 3125      495F5354 
 3125      41545553 
 3126              	.LASF161:
 3127 0179 4D41535F 		.ascii	"MAS_RESULT_TIME\000"
 3127      52455355 
 3127      4C545F54 
 3127      494D4500 
 3128              	.LASF126:
 3129 0189 73656374 		.ascii	"sect\000"
 3129      00
 3130              	.LASF25:
 3131 018e 64617465 		.ascii	"date\000"
 3131      00
 3132              	.LASF156:
 3133 0193 706F696E 		.ascii	"pointer\000"
 3133      74657200 
 3134              	.LASF72:
 3135 019b 4359424C 		.ascii	"CYBLE_EVT_L2CAP_CONN_PARAM_UPDATE_REQ\000"
 3135      455F4556 
 3135      545F4C32 
 3135      4341505F 
 3135      434F4E4E 
 3136              	.LASF127:
 3137 01c1 6469725F 		.ascii	"dir_sect\000"
 3137      73656374 
 3137      00
 3138              	.LASF119:
 3139 01ca 73746174 		.ascii	"stat\000"
 3139      00
 3140              	.LASF165:
 3141 01cf 47657449 		.ascii	"GetIDskierFinished\000"
 3141      44736B69 
 3141      65724669 
 3141      6E697368 
 3141      656400
 3142              	.LASF9:
ARM GAS  C:\Users\Petro\AppData\Local\Temp\ccd3b28V.s 			page 74


 3143 01e2 6C6F6E67 		.ascii	"long long int\000"
 3143      206C6F6E 
 3143      6720696E 
 3143      7400
 3144              	.LASF0:
 3145 01f0 7369676E 		.ascii	"signed char\000"
 3145      65642063 
 3145      68617200 
 3146              	.LASF30:
 3147 01fc 4359424C 		.ascii	"CYBLE_EVT_STACK_ON\000"
 3147      455F4556 
 3147      545F5354 
 3147      41434B5F 
 3147      4F4E00
 3148              	.LASF11:
 3149 020f 6C6F6E67 		.ascii	"long long unsigned int\000"
 3149      206C6F6E 
 3149      6720756E 
 3149      7369676E 
 3149      65642069 
 3150              	.LASF46:
 3151 0226 4359424C 		.ascii	"CYBLE_EVT_GAPC_SCAN_START_STOP\000"
 3151      455F4556 
 3151      545F4741 
 3151      50435F53 
 3151      43414E5F 
 3152              	.LASF111:
 3153 0245 6673697A 		.ascii	"fsize\000"
 3153      6500
 3154              	.LASF36:
 3155 024b 4359424C 		.ascii	"CYBLE_EVT_GAP_AUTH_REQ\000"
 3155      455F4556 
 3155      545F4741 
 3155      505F4155 
 3155      54485F52 
 3156              	.LASF57:
 3157 0262 4359424C 		.ascii	"CYBLE_EVT_GATTC_READ_RSP\000"
 3157      455F4556 
 3157      545F4741 
 3157      5454435F 
 3157      52454144 
 3158              	.LASF110:
 3159 027b 6E5F6661 		.ascii	"n_fatent\000"
 3159      74656E74 
 3159      00
 3160              	.LASF62:
 3161 0284 4359424C 		.ascii	"CYBLE_EVT_GATTS_WRITE_CMD_REQ\000"
 3161      455F4556 
 3161      545F4741 
 3161      5454535F 
 3161      57524954 
 3162              	.LASF100:
 3163 02a2 736B6965 		.ascii	"skierDB_El\000"
 3163      7244425F 
 3163      456C00
 3164              	.LASF93:
 3165 02ad 5245535F 		.ascii	"RES_PARERR\000"
ARM GAS  C:\Users\Petro\AppData\Local\Temp\ccd3b28V.s 			page 75


 3165      50415245 
 3165      525200
 3166              	.LASF103:
 3167 02b8 6E5F6661 		.ascii	"n_fats\000"
 3167      747300
 3168              	.LASF17:
 3169 02bf 75696E74 		.ascii	"uint8\000"
 3169      3800
 3170              	.LASF139:
 3171 02c5 57726974 		.ascii	"WriteSkierResult\000"
 3171      65536B69 
 3171      65725265 
 3171      73756C74 
 3171      00
 3172              	.LASF166:
 3173 02d6 6E616D65 		.ascii	"nameFile\000"
 3173      46696C65 
 3173      00
 3174              	.LASF65:
 3175 02df 4359424C 		.ascii	"CYBLE_EVT_GATTC_EXEC_WRITE_RSP\000"
 3175      455F4556 
 3175      545F4741 
 3175      5454435F 
 3175      45584543 
 3176              	.LASF20:
 3177 02fe 646F7562 		.ascii	"double\000"
 3177      6C6500
 3178              	.LASF113:
 3179 0305 66617462 		.ascii	"fatbase\000"
 3179      61736500 
 3180              	.LASF88:
 3181 030d 44574F52 		.ascii	"DWORD\000"
 3181      4400
 3182              	.LASF89:
 3183 0313 5245535F 		.ascii	"RES_OK\000"
 3183      4F4B00
 3184              	.LASF136:
 3185 031a 5254435F 		.ascii	"RTC_GetYear\000"
 3185      47657459 
 3185      65617200 
 3186              	.LASF101:
 3187 0326 4653495A 		.ascii	"FSIZE_t\000"
 3187      455F7400 
 3188              	.LASF143:
 3189 032e 6E616D65 		.ascii	"nameMonth\000"
 3189      4D6F6E74 
 3189      6800
 3190              	.LASF18:
 3191 0338 75696E74 		.ascii	"uint32\000"
 3191      333200
 3192              	.LASF141:
 3193 033f 636F756E 		.ascii	"count\000"
 3193      7400
 3194              	.LASF151:
 3195 0345 6C696E65 		.ascii	"line\000"
 3195      00
 3196              	.LASF85:
ARM GAS  C:\Users\Petro\AppData\Local\Temp\ccd3b28V.s 			page 76


 3197 034a 4359424C 		.ascii	"CYBLE_EVT_MAX\000"
 3197      455F4556 
 3197      545F4D41 
 3197      5800
 3198              	.LASF7:
 3199 0358 5F5F7569 		.ascii	"__uint32_t\000"
 3199      6E743332 
 3199      5F7400
 3200              	.LASF130:
 3201 0363 5254435F 		.ascii	"RTC_GetMinutes\000"
 3201      4765744D 
 3201      696E7574 
 3201      657300
 3202              	.LASF107:
 3203 0372 6373697A 		.ascii	"csize\000"
 3203      6500
 3204              	.LASF82:
 3205 0378 4359424C 		.ascii	"CYBLE_EVT_L2CAP_CBFC_DATA_WRITE_IND\000"
 3205      455F4556 
 3205      545F4C32 
 3205      4341505F 
 3205      43424643 
 3206              	.LASF109:
 3207 039c 66726565 		.ascii	"free_clst\000"
 3207      5F636C73 
 3207      7400
 3208              	.LASF86:
 3209 03a6 42595445 		.ascii	"BYTE\000"
 3209      00
 3210              	.LASF128:
 3211 03ab 6469725F 		.ascii	"dir_ptr\000"
 3211      70747200 
 3212              	.LASF118:
 3213 03b3 61747472 		.ascii	"attr\000"
 3213      00
 3214              	.LASF70:
 3215 03b8 4359424C 		.ascii	"CYBLE_EVT_GATTC_STOP_CMD_COMPLETE\000"
 3215      455F4556 
 3215      545F4741 
 3215      5454435F 
 3215      53544F50 
 3216              	.LASF12:
 3217 03da 756E7369 		.ascii	"unsigned int\000"
 3217      676E6564 
 3217      20696E74 
 3217      00
 3218              	.LASF98:
 3219 03e7 7365636F 		.ascii	"secondsWay\000"
 3219      6E647357 
 3219      617900
 3220              	.LASF84:
 3221 03f2 4359424C 		.ascii	"CYBLE_EVT_LE_PING_AUTH_TIMEOUT\000"
 3221      455F4556 
 3221      545F4C45 
 3221      5F50494E 
 3221      475F4155 
 3222              	.LASF14:
ARM GAS  C:\Users\Petro\AppData\Local\Temp\ccd3b28V.s 			page 77


 3223 0411 75696E74 		.ascii	"uint16_t\000"
 3223      31365F74 
 3223      00
 3224              	.LASF168:
 3225 041a 706F7369 		.ascii	"position\000"
 3225      74696F6E 
 3225      00
 3226              	.LASF59:
 3227 0423 4359424C 		.ascii	"CYBLE_EVT_GATTC_READ_MULTI_RSP\000"
 3227      455F4556 
 3227      545F4741 
 3227      5454435F 
 3227      52454144 
 3228              	.LASF170:
 3229 0442 66617446 		.ascii	"fatFs\000"
 3229      7300
 3230              	.LASF8:
 3231 0448 6C6F6E67 		.ascii	"long unsigned int\000"
 3231      20756E73 
 3231      69676E65 
 3231      6420696E 
 3231      7400
 3232              	.LASF133:
 3233 045a 5254435F 		.ascii	"RTC_GetHours\000"
 3233      47657448 
 3233      6F757273 
 3233      00
 3234              	.LASF60:
 3235 0467 4359424C 		.ascii	"CYBLE_EVT_GATTS_WRITE_REQ\000"
 3235      455F4556 
 3235      545F4741 
 3235      5454535F 
 3235      57524954 
 3236              	.LASF52:
 3237 0481 4359424C 		.ascii	"CYBLE_EVT_GATTC_XCHNG_MTU_RSP\000"
 3237      455F4556 
 3237      545F4741 
 3237      5454435F 
 3237      5843484E 
 3238              	.LASF69:
 3239 049f 4359424C 		.ascii	"CYBLE_EVT_GATTS_DATA_SIGNED_CMD_REQ\000"
 3239      455F4556 
 3239      545F4741 
 3239      5454535F 
 3239      44415441 
 3240              	.LASF172:
 3241 04c3 63726561 		.ascii	"createFlag\000"
 3241      7465466C 
 3241      616700
 3242              	.LASF87:
 3243 04ce 574F5244 		.ascii	"WORD\000"
 3243      00
 3244              	.LASF140:
 3245 04d3 64617461 		.ascii	"data\000"
 3245      00
 3246              	.LASF154:
 3247 04d8 73656E64 		.ascii	"sendFinishTime\000"
ARM GAS  C:\Users\Petro\AppData\Local\Temp\ccd3b28V.s 			page 78


 3247      46696E69 
 3247      73685469 
 3247      6D6500
 3248              	.LASF115:
 3249 04e7 64617461 		.ascii	"database\000"
 3249      62617365 
 3249      00
 3250              	.LASF29:
 3251 04f0 4359424C 		.ascii	"CYBLE_EVT_HOST_INVALID\000"
 3251      455F4556 
 3251      545F484F 
 3251      53545F49 
 3251      4E56414C 
 3252              	.LASF55:
 3253 0507 4359424C 		.ascii	"CYBLE_EVT_GATTC_FIND_INFO_RSP\000"
 3253      455F4556 
 3253      545F4741 
 3253      5454435F 
 3253      46494E44 
 3254              	.LASF64:
 3255 0525 4359424C 		.ascii	"CYBLE_EVT_GATTS_EXEC_WRITE_REQ\000"
 3255      455F4556 
 3255      545F4741 
 3255      5454535F 
 3255      45584543 
 3256              	.LASF37:
 3257 0544 4359424C 		.ascii	"CYBLE_EVT_GAP_PASSKEY_ENTRY_REQUEST\000"
 3257      455F4556 
 3257      545F4741 
 3257      505F5041 
 3257      53534B45 
 3258              	.LASF42:
 3259 0568 4359424C 		.ascii	"CYBLE_EVT_GAP_DEVICE_CONNECTED\000"
 3259      455F4556 
 3259      545F4741 
 3259      505F4445 
 3259      56494345 
 3260              	.LASF148:
 3261 0587 77726974 		.ascii	"writeData\000"
 3261      65446174 
 3261      6100
 3262              	.LASF174:
 3263 0591 6C69625F 		.ascii	"lib_DB\\logResult.c\000"
 3263      44425C6C 
 3263      6F675265 
 3263      73756C74 
 3263      2E6300
 3264              	.LASF116:
 3265 05a4 77696E73 		.ascii	"winsect\000"
 3265      65637400 
 3266              	.LASF142:
 3267 05ac 6E616D65 		.ascii	"nameYear\000"
 3267      59656172 
 3267      00
 3268              	.LASF146:
 3269 05b5 66696E69 		.ascii	"finish\000"
 3269      736800
ARM GAS  C:\Users\Petro\AppData\Local\Temp\ccd3b28V.s 			page 79


 3270              	.LASF2:
 3271 05bc 73686F72 		.ascii	"short int\000"
 3271      7420696E 
 3271      7400
 3272              	.LASF175:
 3273 05c6 443A5C43 		.ascii	"D:\\Cypress\\system-start-finish\\vesion 2\\fw\\fin"
 3273      79707265 
 3273      73735C73 
 3273      79737465 
 3273      6D2D7374 
 3274 05f4 6973685C 		.ascii	"ish\\sandbox\\v6_ble\\Finish(state machine)\\fin_v0"
 3274      73616E64 
 3274      626F785C 
 3274      76365F62 
 3274      6C655C46 
 3275 0623 2E637964 		.ascii	".cydsn\000"
 3275      736E00
 3276              	.LASF167:
 3277 062a 6964536B 		.ascii	"idSkier\000"
 3277      69657200 
 3278              	.LASF49:
 3279 0632 4359424C 		.ascii	"CYBLE_EVT_GATT_CONNECT_IND\000"
 3279      455F4556 
 3279      545F4741 
 3279      54545F43 
 3279      4F4E4E45 
 3280              	.LASF129:
 3281 064d 5254435F 		.ascii	"RTC_GetSecond\000"
 3281      47657453 
 3281      65636F6E 
 3281      6400
 3282              	.LASF74:
 3283 065b 4359424C 		.ascii	"CYBLE_EVT_L2CAP_COMMAND_REJ\000"
 3283      455F4556 
 3283      545F4C32 
 3283      4341505F 
 3283      434F4D4D 
 3284              	.LASF35:
 3285 0677 4359424C 		.ascii	"CYBLE_EVT_GAPC_SCAN_PROGRESS_RESULT\000"
 3285      455F4556 
 3285      545F4741 
 3285      50435F53 
 3285      43414E5F 
 3286              	.LASF94:
 3287 069b 756E6978 		.ascii	"unixStartSkier\000"
 3287      53746172 
 3287      74536B69 
 3287      657200
 3288              	.LASF124:
 3289 06aa 66707472 		.ascii	"fptr\000"
 3289      00
 3290              	.LASF75:
 3291 06af 4359424C 		.ascii	"CYBLE_EVT_L2CAP_CBFC_CONN_IND\000"
 3291      455F4556 
 3291      545F4C32 
 3291      4341505F 
 3291      43424643 
ARM GAS  C:\Users\Petro\AppData\Local\Temp\ccd3b28V.s 			page 80


 3292              	.LASF54:
 3293 06cd 4359424C 		.ascii	"CYBLE_EVT_GATTC_READ_BY_TYPE_RSP\000"
 3293      455F4556 
 3293      545F4741 
 3293      5454435F 
 3293      52454144 
 3294              	.LASF22:
 3295 06ee 73697A65 		.ascii	"sizetype\000"
 3295      74797065 
 3295      00
 3296              	.LASF40:
 3297 06f7 4359424C 		.ascii	"CYBLE_EVT_GAP_AUTH_FAILED\000"
 3297      455F4556 
 3297      545F4741 
 3297      505F4155 
 3297      54485F46 
 3298              	.LASF61:
 3299 0711 4359424C 		.ascii	"CYBLE_EVT_GATTC_WRITE_RSP\000"
 3299      455F4556 
 3299      545F4741 
 3299      5454435F 
 3299      57524954 
 3300              	.LASF16:
 3301 072b 75696E74 		.ascii	"uint64_t\000"
 3301      36345F74 
 3301      00
 3302              	.LASF26:
 3303 0734 6461794F 		.ascii	"dayOfWeek\000"
 3303      66576565 
 3303      6B00
 3304              	.LASF114:
 3305 073e 64697262 		.ascii	"dirbase\000"
 3305      61736500 
 3306              	.LASF120:
 3307 0746 73636C75 		.ascii	"sclust\000"
 3307      737400
 3308              	.LASF144:
 3309 074d 6E616D65 		.ascii	"nameDay\000"
 3309      44617900 
 3310              	.LASF39:
 3311 0755 4359424C 		.ascii	"CYBLE_EVT_GAP_AUTH_COMPLETE\000"
 3311      455F4556 
 3311      545F4741 
 3311      505F4155 
 3311      54485F43 
 3312              	.LASF96:
 3313 0771 756E6978 		.ascii	"unixFinishSkier\000"
 3313      46696E69 
 3313      7368536B 
 3313      69657200 
 3314              	.LASF66:
 3315 0781 4359424C 		.ascii	"CYBLE_EVT_GATTC_HANDLE_VALUE_NTF\000"
 3315      455F4556 
 3315      545F4741 
 3315      5454435F 
 3315      48414E44 
 3316              	.LASF24:
ARM GAS  C:\Users\Petro\AppData\Local\Temp\ccd3b28V.s 			page 81


 3317 07a2 74696D65 		.ascii	"time\000"
 3317      00
 3318              	.LASF163:
 3319 07a7 63757272 		.ascii	"currentMas\000"
 3319      656E744D 
 3319      617300
 3320              	.LASF76:
 3321 07b2 4359424C 		.ascii	"CYBLE_EVT_L2CAP_CBFC_CONN_CNF\000"
 3321      455F4556 
 3321      545F4C32 
 3321      4341505F 
 3321      43424643 
 3322              	.LASF108:
 3323 07d0 6C617374 		.ascii	"last_clst\000"
 3323      5F636C73 
 3323      7400
 3324              	.LASF10:
 3325 07da 5F5F7569 		.ascii	"__uint64_t\000"
 3325      6E743634 
 3325      5F7400
 3326              	.LASF53:
 3327 07e5 4359424C 		.ascii	"CYBLE_EVT_GATTC_READ_BY_GROUP_TYPE_RSP\000"
 3327      455F4556 
 3327      545F4741 
 3327      5454435F 
 3327      52454144 
 3328              	.LASF19:
 3329 080c 666C6F61 		.ascii	"float\000"
 3329      7400
 3330              	.LASF158:
 3331 0812 636F756E 		.ascii	"counterMas\000"
 3331      7465724D 
 3331      617300
 3332              	.LASF23:
 3333 081d 75696E74 		.ascii	"uint\000"
 3333      00
 3334              	.LASF1:
 3335 0822 756E7369 		.ascii	"unsigned char\000"
 3335      676E6564 
 3335      20636861 
 3335      7200
 3336              	.LASF155:
 3337 0830 73656E64 		.ascii	"sendResultTime\000"
 3337      52657375 
 3337      6C745469 
 3337      6D6500
 3338              	.LASF131:
 3339 083f 696E7075 		.ascii	"inputTime\000"
 3339      7454696D 
 3339      6500
 3340              	.LASF112:
 3341 0849 766F6C62 		.ascii	"volbase\000"
 3341      61736500 
 3342              	.LASF67:
 3343 0851 4359424C 		.ascii	"CYBLE_EVT_GATTC_HANDLE_VALUE_IND\000"
 3343      455F4556 
 3343      545F4741 
ARM GAS  C:\Users\Petro\AppData\Local\Temp\ccd3b28V.s 			page 82


 3343      5454435F 
 3343      48414E44 
 3344              	.LASF123:
 3345 0872 666C6167 		.ascii	"flag\000"
 3345      00
 3346              	.LASF162:
 3347 0877 6E756D4D 		.ascii	"numMas\000"
 3347      617300
 3348              	.LASF104:
 3349 087e 77666C61 		.ascii	"wflag\000"
 3349      6700
 3350              	.LASF63:
 3351 0884 4359424C 		.ascii	"CYBLE_EVT_GATTS_PREP_WRITE_REQ\000"
 3351      455F4556 
 3351      545F4741 
 3351      5454535F 
 3351      50524550 
 3352              	.LASF44:
 3353 08a3 4359424C 		.ascii	"CYBLE_EVT_GAP_ENCRYPT_CHANGE\000"
 3353      455F4556 
 3353      545F4741 
 3353      505F454E 
 3353      43525950 
 3354              	.LASF152:
 3355 08c0 73656E64 		.ascii	"sendIdSkier\000"
 3355      4964536B 
 3355      69657200 
 3356              	.LASF176:
 3357 08cc 496E6372 		.ascii	"IncrementID\000"
 3357      656D656E 
 3357      74494400 
 3358              	.LASF97:
 3359 08d8 6D696C6C 		.ascii	"millsFinishSkier\000"
 3359      7346696E 
 3359      69736853 
 3359      6B696572 
 3359      00
 3360              	.LASF121:
 3361 08e9 6F626A73 		.ascii	"objsize\000"
 3361      697A6500 
 3362              	.LASF68:
 3363 08f1 4359424C 		.ascii	"CYBLE_EVT_GATTS_HANDLE_VALUE_CNF\000"
 3363      455F4556 
 3363      545F4741 
 3363      5454535F 
 3363      48414E44 
 3364              	.LASF48:
 3365 0912 4359424C 		.ascii	"CYBLE_EVT_GATTC_ERROR_RSP\000"
 3365      455F4556 
 3365      545F4741 
 3365      5454435F 
 3365      4552524F 
 3366              	.LASF15:
 3367 092c 75696E74 		.ascii	"uint32_t\000"
 3367      33325F74 
 3367      00
 3368              	.LASF28:
ARM GAS  C:\Users\Petro\AppData\Local\Temp\ccd3b28V.s 			page 83


 3369 0935 5254435F 		.ascii	"RTC_DATE_TIME\000"
 3369      44415445 
 3369      5F54494D 
 3369      4500
 3370              	.LASF31:
 3371 0943 4359424C 		.ascii	"CYBLE_EVT_TIMEOUT\000"
 3371      455F4556 
 3371      545F5449 
 3371      4D454F55 
 3371      5400
 3372              	.LASF21:
 3373 0955 63686172 		.ascii	"char\000"
 3373      00
 3374              	.LASF43:
 3375 095a 4359424C 		.ascii	"CYBLE_EVT_GAP_DEVICE_DISCONNECTED\000"
 3375      455F4556 
 3375      545F4741 
 3375      505F4445 
 3375      56494345 
 3376              	.LASF4:
 3377 097c 5F5F7569 		.ascii	"__uint16_t\000"
 3377      6E743136 
 3377      5F7400
 3378              	.LASF71:
 3379 0987 4359424C 		.ascii	"CYBLE_EVT_GATTS_READ_CHAR_VAL_ACCESS_REQ\000"
 3379      455F4556 
 3379      545F4741 
 3379      5454535F 
 3379      52454144 
 3380              	.LASF81:
 3381 09b0 4359424C 		.ascii	"CYBLE_EVT_L2CAP_CBFC_TX_CREDIT_IND\000"
 3381      455F4556 
 3381      545F4C32 
 3381      4341505F 
 3381      43424643 
 3382              	.LASF58:
 3383 09d3 4359424C 		.ascii	"CYBLE_EVT_GATTC_READ_BLOB_RSP\000"
 3383      455F4556 
 3383      545F4741 
 3383      5454435F 
 3383      52454144 
 3384              	.LASF134:
 3385 09f1 5254435F 		.ascii	"RTC_GetDay\000"
 3385      47657444 
 3385      617900
 3386              	.LASF117:
 3387 09fc 46415446 		.ascii	"FATFS\000"
 3387      5300
 3388              	.LASF157:
 3389 0a02 636F6566 		.ascii	"coeff\000"
 3389      6600
 3390              	.LASF38:
 3391 0a08 4359424C 		.ascii	"CYBLE_EVT_GAP_PASSKEY_DISPLAY_REQUEST\000"
 3391      455F4556 
 3391      545F4741 
 3391      505F5041 
 3391      53534B45 
ARM GAS  C:\Users\Petro\AppData\Local\Temp\ccd3b28V.s 			page 84


 3392              	.LASF99:
 3393 0a2e 6D696C6C 		.ascii	"millsWay\000"
 3393      73576179 
 3393      00
 3394              	.LASF32:
 3395 0a37 4359424C 		.ascii	"CYBLE_EVT_HARDWARE_ERROR\000"
 3395      455F4556 
 3395      545F4841 
 3395      52445741 
 3395      52455F45 
 3396              	.LASF5:
 3397 0a50 73686F72 		.ascii	"short unsigned int\000"
 3397      7420756E 
 3397      7369676E 
 3397      65642069 
 3397      6E7400
 3398              	.LASF105:
 3399 0a63 6673695F 		.ascii	"fsi_flag\000"
 3399      666C6167 
 3399      00
 3400              	.LASF41:
 3401 0a6c 4359424C 		.ascii	"CYBLE_EVT_GAPP_ADVERTISEMENT_START_STOP\000"
 3401      455F4556 
 3401      545F4741 
 3401      50505F41 
 3401      44564552 
 3402              	.LASF51:
 3403 0a94 4359424C 		.ascii	"CYBLE_EVT_GATTS_XCNHG_MTU_REQ\000"
 3403      455F4556 
 3403      545F4741 
 3403      5454535F 
 3403      58434E48 
 3404              	.LASF137:
 3405 0ab2 72657375 		.ascii	"resultF\000"
 3405      6C744600 
 3406              	.LASF27:
 3407 0aba 73746174 		.ascii	"status\000"
 3407      757300
 3408              	.LASF164:
 3409 0ac1 47657449 		.ascii	"GetIDskierStarted\000"
 3409      44736B69 
 3409      65725374 
 3409      61727465 
 3409      6400
 3410              	.LASF122:
 3411 0ad3 5F464449 		.ascii	"_FDID\000"
 3411      4400
 3412              	.LASF13:
 3413 0ad9 75696E74 		.ascii	"uint8_t\000"
 3413      385F7400 
 3414              	.LASF149:
 3415 0ae1 746D7054 		.ascii	"tmpTime\000"
 3415      696D6500 
 3416              	.LASF171:
 3417 0ae9 66696C65 		.ascii	"fileO\000"
 3417      4F00
 3418              	.LASF90:
ARM GAS  C:\Users\Petro\AppData\Local\Temp\ccd3b28V.s 			page 85


 3419 0aef 5245535F 		.ascii	"RES_ERROR\000"
 3419      4552524F 
 3419      5200
 3420              	.LASF173:
 3421 0af9 474E5520 		.ascii	"GNU C 4.9.3 20150303 (release) [ARM/embedded-4_9-br"
 3421      4320342E 
 3421      392E3320 
 3421      32303135 
 3421      30333033 
 3422 0b2c 616E6368 		.ascii	"anch revision 221220] -mcpu=cortex-m0 -mthumb -g -O"
 3422      20726576 
 3422      6973696F 
 3422      6E203232 
 3422      31323230 
 3423 0b5f 30202D66 		.ascii	"0 -ffunction-sections -ffat-lto-objects\000"
 3423      66756E63 
 3423      74696F6E 
 3423      2D736563 
 3423      74696F6E 
 3424              	.LASF56:
 3425 0b87 4359424C 		.ascii	"CYBLE_EVT_GATTC_FIND_BY_TYPE_VALUE_RSP\000"
 3425      455F4556 
 3425      545F4741 
 3425      5454435F 
 3425      46494E44 
 3426              	.LASF47:
 3427 0bae 4359424C 		.ascii	"CYBLE_EVT_GAP_KEYINFO_EXCHNGE_CMPLT\000"
 3427      455F4556 
 3427      545F4741 
 3427      505F4B45 
 3427      59494E46 
 3428              	.LASF77:
 3429 0bd2 4359424C 		.ascii	"CYBLE_EVT_L2CAP_CBFC_DISCONN_IND\000"
 3429      455F4556 
 3429      545F4C32 
 3429      4341505F 
 3429      43424643 
 3430              	.LASF145:
 3431 0bf3 73746172 		.ascii	"start\000"
 3431      7400
 3432              	.LASF83:
 3433 0bf9 4359424C 		.ascii	"CYBLE_EVT_PENDING_FLASH_WRITE\000"
 3433      455F4556 
 3433      545F5045 
 3433      4E44494E 
 3433      475F464C 
 3434              	.LASF73:
 3435 0c17 4359424C 		.ascii	"CYBLE_EVT_L2CAP_CONN_PARAM_UPDATE_RSP\000"
 3435      455F4556 
 3435      545F4C32 
 3435      4341505F 
 3435      434F4E4E 
 3436              	.LASF147:
 3437 0c3d 72657375 		.ascii	"result\000"
 3437      6C7400
 3438              	.LASF50:
 3439 0c44 4359424C 		.ascii	"CYBLE_EVT_GATT_DISCONNECT_IND\000"
ARM GAS  C:\Users\Petro\AppData\Local\Temp\ccd3b28V.s 			page 86


 3439      455F4556 
 3439      545F4741 
 3439      54545F44 
 3439      4953434F 
 3440              	.LASF125:
 3441 0c62 636C7573 		.ascii	"clust\000"
 3441      7400
 3442              		.ident	"GCC: (GNU Tools for ARM Embedded Processors) 4.9.3 20150303 (release) [ARM/embedded-4_9-br
