ARM GAS  C:\Users\Petro\AppData\Local\Temp\ccd3b28V.s 			page 1


   1              		.cpu cortex-m0
   2              		.fpu softvfp
   3              		.eabi_attribute 20, 1
   4              		.eabi_attribute 21, 1
   5              		.eabi_attribute 23, 3
   6              		.eabi_attribute 24, 1
   7              		.eabi_attribute 25, 1
   8              		.eabi_attribute 26, 1
   9              		.eabi_attribute 30, 6
  10              		.eabi_attribute 34, 0
  11              		.eabi_attribute 18, 4
  12              		.code	16
  13              		.file	"logResult.c"
  14              		.text
  15              	.Ltext0:
  16              		.cfi_sections	.debug_frame
  17              		.section	.text.RTC_GetSecond,"ax",%progbits
  18              		.align	2
  19              		.code	16
  20              		.thumb_func
  21              		.type	RTC_GetSecond, %function
  22              	RTC_GetSecond:
  23              	.LFB4:
  24              		.file 1 "Generated_Source\\PSoC4/RTC.h"
   1:Generated_Source\PSoC4/RTC.h **** /***************************************************************************//**
   2:Generated_Source\PSoC4/RTC.h **** * \file Name: RTC.h
   3:Generated_Source\PSoC4/RTC.h **** * \version 1.10
   4:Generated_Source\PSoC4/RTC.h **** *
   5:Generated_Source\PSoC4/RTC.h **** * \brief
   6:Generated_Source\PSoC4/RTC.h **** *  This file provides constants and parameter values for the RTC_P4 Component.
   7:Generated_Source\PSoC4/RTC.h **** *
   8:Generated_Source\PSoC4/RTC.h **** ********************************************************************************
   9:Generated_Source\PSoC4/RTC.h **** * Copyright 2015-2016, Cypress Semiconductor Corporation.  All rights reserved.
  10:Generated_Source\PSoC4/RTC.h **** * You may use this file only in accordance with the license, terms, conditions,
  11:Generated_Source\PSoC4/RTC.h **** * disclaimers, and limitations in the end user license agreement accompanying
  12:Generated_Source\PSoC4/RTC.h **** * the software package with which this file was provided.
  13:Generated_Source\PSoC4/RTC.h **** *******************************************************************************/
  14:Generated_Source\PSoC4/RTC.h **** 
  15:Generated_Source\PSoC4/RTC.h **** #if !defined(CY_RTC_P4_RTC_H)
  16:Generated_Source\PSoC4/RTC.h **** #define CY_RTC_P4_RTC_H
  17:Generated_Source\PSoC4/RTC.h **** 
  18:Generated_Source\PSoC4/RTC.h **** #include <cytypes.h>
  19:Generated_Source\PSoC4/RTC.h **** #include <CyLib.h>
  20:Generated_Source\PSoC4/RTC.h **** 
  21:Generated_Source\PSoC4/RTC.h **** 
  22:Generated_Source\PSoC4/RTC.h **** /*******************************************************************************
  23:Generated_Source\PSoC4/RTC.h **** *    Data types definition
  24:Generated_Source\PSoC4/RTC.h **** *******************************************************************************/
  25:Generated_Source\PSoC4/RTC.h **** 
  26:Generated_Source\PSoC4/RTC.h **** typedef enum
  27:Generated_Source\PSoC4/RTC.h **** {
  28:Generated_Source\PSoC4/RTC.h ****     RTC_DST_DATE_RELATIVE = 0u,
  29:Generated_Source\PSoC4/RTC.h ****     RTC_DST_DATE_FIXED = 1u
  30:Generated_Source\PSoC4/RTC.h **** }RTC_DST_DATETYPE_ENUM;
  31:Generated_Source\PSoC4/RTC.h **** 
  32:Generated_Source\PSoC4/RTC.h **** /**
  33:Generated_Source\PSoC4/RTC.h **** * \addtogroup group_structures
ARM GAS  C:\Users\Petro\AppData\Local\Temp\ccd3b28V.s 			page 2


  34:Generated_Source\PSoC4/RTC.h **** * @{
  35:Generated_Source\PSoC4/RTC.h **** */
  36:Generated_Source\PSoC4/RTC.h **** 
  37:Generated_Source\PSoC4/RTC.h **** /**
  38:Generated_Source\PSoC4/RTC.h **** * This is the data structure that is used to save the current time and date 
  39:Generated_Source\PSoC4/RTC.h **** * (RTC_currentTimeDate), and Alarm time and date (RTC_alarmCfgTimeDate).
  40:Generated_Source\PSoC4/RTC.h **** */
  41:Generated_Source\PSoC4/RTC.h **** typedef struct
  42:Generated_Source\PSoC4/RTC.h **** {
  43:Generated_Source\PSoC4/RTC.h ****     uint32 time;
  44:Generated_Source\PSoC4/RTC.h ****     uint32 date;
  45:Generated_Source\PSoC4/RTC.h ****     uint32 dayOfWeek;
  46:Generated_Source\PSoC4/RTC.h ****     uint32 status;
  47:Generated_Source\PSoC4/RTC.h **** }RTC_DATE_TIME;
  48:Generated_Source\PSoC4/RTC.h **** 
  49:Generated_Source\PSoC4/RTC.h **** /**
  50:Generated_Source\PSoC4/RTC.h **** * This is the data structure that is used to save time and date values for 
  51:Generated_Source\PSoC4/RTC.h **** * Daylight Savings Time Start and Stop (RTC_dstTimeDateStart and 
  52:Generated_Source\PSoC4/RTC.h **** * RTC_dstTimeDateStop).
  53:Generated_Source\PSoC4/RTC.h **** */
  54:Generated_Source\PSoC4/RTC.h **** typedef struct
  55:Generated_Source\PSoC4/RTC.h **** {
  56:Generated_Source\PSoC4/RTC.h ****     uint32 hour;
  57:Generated_Source\PSoC4/RTC.h ****     uint32 dayOfWeek;
  58:Generated_Source\PSoC4/RTC.h ****     uint32 dayOfMonth;
  59:Generated_Source\PSoC4/RTC.h ****     uint32 weekOfMonth;
  60:Generated_Source\PSoC4/RTC.h ****     uint32 month;
  61:Generated_Source\PSoC4/RTC.h ****     uint8  timeFormat;
  62:Generated_Source\PSoC4/RTC.h **** }RTC_DST_TIME;
  63:Generated_Source\PSoC4/RTC.h **** 
  64:Generated_Source\PSoC4/RTC.h **** /** @} structures */
  65:Generated_Source\PSoC4/RTC.h **** 
  66:Generated_Source\PSoC4/RTC.h **** /*******************************************************************************
  67:Generated_Source\PSoC4/RTC.h **** *    Enumerated Types and Parameters
  68:Generated_Source\PSoC4/RTC.h **** *******************************************************************************/
  69:Generated_Source\PSoC4/RTC.h **** /* Time Format setting constants */
  70:Generated_Source\PSoC4/RTC.h **** #define RTC__HOUR_12 1
  71:Generated_Source\PSoC4/RTC.h **** #define RTC__HOUR_24 0
  72:Generated_Source\PSoC4/RTC.h **** 
  73:Generated_Source\PSoC4/RTC.h **** /*  Date Format setting constants */
  74:Generated_Source\PSoC4/RTC.h **** #define RTC__MM_DD_YYYY 0
  75:Generated_Source\PSoC4/RTC.h **** #define RTC__DD_MM_YYYY 1
  76:Generated_Source\PSoC4/RTC.h **** #define RTC__YYYY_MM_DD 2
  77:Generated_Source\PSoC4/RTC.h **** 
  78:Generated_Source\PSoC4/RTC.h **** /* Date Type setting constants */
  79:Generated_Source\PSoC4/RTC.h **** #define RTC__RELATIVE 0
  80:Generated_Source\PSoC4/RTC.h **** #define RTC__FIXED 1
  81:Generated_Source\PSoC4/RTC.h **** 
  82:Generated_Source\PSoC4/RTC.h **** /* DST Hour setting constants */
  83:Generated_Source\PSoC4/RTC.h **** #define RTC__H0000 0
  84:Generated_Source\PSoC4/RTC.h **** #define RTC__H0100 1
  85:Generated_Source\PSoC4/RTC.h **** #define RTC__H0200 2
  86:Generated_Source\PSoC4/RTC.h **** #define RTC__H0300 3
  87:Generated_Source\PSoC4/RTC.h **** #define RTC__H0400 4
  88:Generated_Source\PSoC4/RTC.h **** #define RTC__H0500 5
  89:Generated_Source\PSoC4/RTC.h **** #define RTC__H0600 6
  90:Generated_Source\PSoC4/RTC.h **** #define RTC__H0700 7
ARM GAS  C:\Users\Petro\AppData\Local\Temp\ccd3b28V.s 			page 3


  91:Generated_Source\PSoC4/RTC.h **** #define RTC__H0800 8
  92:Generated_Source\PSoC4/RTC.h **** #define RTC__H0900 9
  93:Generated_Source\PSoC4/RTC.h **** #define RTC__H1000 10
  94:Generated_Source\PSoC4/RTC.h **** #define RTC__H1100 11
  95:Generated_Source\PSoC4/RTC.h **** #define RTC__H1200 12
  96:Generated_Source\PSoC4/RTC.h **** #define RTC__H1300 13
  97:Generated_Source\PSoC4/RTC.h **** #define RTC__H1400 14
  98:Generated_Source\PSoC4/RTC.h **** #define RTC__H1500 15
  99:Generated_Source\PSoC4/RTC.h **** #define RTC__H1600 16
 100:Generated_Source\PSoC4/RTC.h **** #define RTC__H1700 17
 101:Generated_Source\PSoC4/RTC.h **** #define RTC__H1800 18
 102:Generated_Source\PSoC4/RTC.h **** #define RTC__H1900 19
 103:Generated_Source\PSoC4/RTC.h **** #define RTC__H2000 20
 104:Generated_Source\PSoC4/RTC.h **** #define RTC__H2100 21
 105:Generated_Source\PSoC4/RTC.h **** #define RTC__H2200 22
 106:Generated_Source\PSoC4/RTC.h **** #define RTC__H2300 23
 107:Generated_Source\PSoC4/RTC.h **** 
 108:Generated_Source\PSoC4/RTC.h **** /* DST DayOfWeek setting constants */
 109:Generated_Source\PSoC4/RTC.h **** #define RTC__SUNDAY 1
 110:Generated_Source\PSoC4/RTC.h **** #define RTC__MONDAY 2
 111:Generated_Source\PSoC4/RTC.h **** #define RTC__TUESDAY 3
 112:Generated_Source\PSoC4/RTC.h **** #define RTC__WEDNESDAY 4
 113:Generated_Source\PSoC4/RTC.h **** #define RTC__THURSDAY 5
 114:Generated_Source\PSoC4/RTC.h **** #define RTC__FRIDAY 6
 115:Generated_Source\PSoC4/RTC.h **** #define RTC__SATURDAY 7
 116:Generated_Source\PSoC4/RTC.h **** 
 117:Generated_Source\PSoC4/RTC.h **** /* DST Month setting constants */
 118:Generated_Source\PSoC4/RTC.h **** #define RTC__JAN 1
 119:Generated_Source\PSoC4/RTC.h **** #define RTC__FEB 2
 120:Generated_Source\PSoC4/RTC.h **** #define RTC__MAR 3
 121:Generated_Source\PSoC4/RTC.h **** #define RTC__APR 4
 122:Generated_Source\PSoC4/RTC.h **** #define RTC__MAY 5
 123:Generated_Source\PSoC4/RTC.h **** #define RTC__JUN 6
 124:Generated_Source\PSoC4/RTC.h **** #define RTC__JUL 7
 125:Generated_Source\PSoC4/RTC.h **** #define RTC__AUG 8
 126:Generated_Source\PSoC4/RTC.h **** #define RTC__SEP 9
 127:Generated_Source\PSoC4/RTC.h **** #define RTC__OCT 10
 128:Generated_Source\PSoC4/RTC.h **** #define RTC__NOV 11
 129:Generated_Source\PSoC4/RTC.h **** #define RTC__DEC 12
 130:Generated_Source\PSoC4/RTC.h **** 
 131:Generated_Source\PSoC4/RTC.h **** /* DST WeekOfMonth setting constants */
 132:Generated_Source\PSoC4/RTC.h **** #define RTC__FIRST 1
 133:Generated_Source\PSoC4/RTC.h **** #define RTC__SECOND 2
 134:Generated_Source\PSoC4/RTC.h **** #define RTC__THIRD 3
 135:Generated_Source\PSoC4/RTC.h **** #define RTC__FOURTH 4
 136:Generated_Source\PSoC4/RTC.h **** #define RTC__FIFTH 5
 137:Generated_Source\PSoC4/RTC.h **** #define RTC__LAST 6
 138:Generated_Source\PSoC4/RTC.h **** 
 139:Generated_Source\PSoC4/RTC.h **** 
 140:Generated_Source\PSoC4/RTC.h **** #define RTC_INITIAL_DATA_FORMAT     (0u)
 141:Generated_Source\PSoC4/RTC.h **** #define RTC_INITIAL_TIME_FORMAT     (0u)
 142:Generated_Source\PSoC4/RTC.h **** #define RTC_INITIAL_UPDATE_MODE     (0u)
 143:Generated_Source\PSoC4/RTC.h **** #define RTC_INITIAL_SECOND          (0u)
 144:Generated_Source\PSoC4/RTC.h **** #define RTC_INITIAL_MINUTE          (16u)
 145:Generated_Source\PSoC4/RTC.h **** #define RTC_INITIAL_HOUR            (10u)
 146:Generated_Source\PSoC4/RTC.h **** #define RTC_INITIAL_DAY             (9u)
 147:Generated_Source\PSoC4/RTC.h **** #define RTC_INITIAL_MONTH           (8u)
ARM GAS  C:\Users\Petro\AppData\Local\Temp\ccd3b28V.s 			page 4


 148:Generated_Source\PSoC4/RTC.h **** #define RTC_INITIAL_YEAR            (2016u)
 149:Generated_Source\PSoC4/RTC.h **** 
 150:Generated_Source\PSoC4/RTC.h **** #define RTC_INITIAL_ALARM_STATUS    (0u)
 151:Generated_Source\PSoC4/RTC.h **** 
 152:Generated_Source\PSoC4/RTC.h **** #define RTC_INITIAL_DST_STATUS      (0u)
 153:Generated_Source\PSoC4/RTC.h **** #define RTC_INITIAL_DST_DATE_TYPE   (0u)
 154:Generated_Source\PSoC4/RTC.h **** #define RTC_INITIAL_DST_START_MONTH (3uL)
 155:Generated_Source\PSoC4/RTC.h **** #define RTC_INITIAL_DST_START_WOM   (6uL)
 156:Generated_Source\PSoC4/RTC.h **** #define RTC_INITIAL_DST_START_DOM   (22uL)
 157:Generated_Source\PSoC4/RTC.h **** #define RTC_INITIAL_DST_START_DOW   (1uL)
 158:Generated_Source\PSoC4/RTC.h **** #define RTC_INITIAL_DST_START_HRS   (0uL)
 159:Generated_Source\PSoC4/RTC.h **** #define RTC_INITIAL_DST_STOP_MONTH  (10uL)
 160:Generated_Source\PSoC4/RTC.h **** #define RTC_INITIAL_DST_STOP_DOM    (22uL)
 161:Generated_Source\PSoC4/RTC.h **** #define RTC_INITIAL_DST_STOP_DOW    (1uL)
 162:Generated_Source\PSoC4/RTC.h **** #define RTC_INITIAL_DST_STOP_WOM    (6uL)
 163:Generated_Source\PSoC4/RTC.h **** #define RTC_INITIAL_DST_STOP_HRS    (0uL)
 164:Generated_Source\PSoC4/RTC.h **** 
 165:Generated_Source\PSoC4/RTC.h **** /* Day of week definitions */
 166:Generated_Source\PSoC4/RTC.h **** #define RTC_SUNDAY     (RTC__SUNDAY)
 167:Generated_Source\PSoC4/RTC.h **** #define RTC_MONDAY     (RTC__MONDAY)
 168:Generated_Source\PSoC4/RTC.h **** #define RTC_TUESDAY    (RTC__TUESDAY)
 169:Generated_Source\PSoC4/RTC.h **** #define RTC_WEDNESDAY  (RTC__WEDNESDAY)
 170:Generated_Source\PSoC4/RTC.h **** #define RTC_THURSDAY   (RTC__THURSDAY)
 171:Generated_Source\PSoC4/RTC.h **** #define RTC_FRIDAY     (RTC__FRIDAY)
 172:Generated_Source\PSoC4/RTC.h **** #define RTC_SATURDAY   (RTC__SATURDAY)
 173:Generated_Source\PSoC4/RTC.h **** 
 174:Generated_Source\PSoC4/RTC.h **** /* DST WeekOfMonth setting constants definitions */
 175:Generated_Source\PSoC4/RTC.h **** #define RTC_FIRST      (RTC__FIRST)
 176:Generated_Source\PSoC4/RTC.h **** #define RTC_SECOND     (RTC__SECOND)
 177:Generated_Source\PSoC4/RTC.h **** #define RTC_THIRD      (RTC__THIRD)
 178:Generated_Source\PSoC4/RTC.h **** #define RTC_FOURTH     (RTC__FOURTH)
 179:Generated_Source\PSoC4/RTC.h **** #define RTC_FIFTH      (RTC__FIFTH)
 180:Generated_Source\PSoC4/RTC.h **** #define RTC_LAST       (RTC__LAST)
 181:Generated_Source\PSoC4/RTC.h **** 
 182:Generated_Source\PSoC4/RTC.h **** /* Month definitions */
 183:Generated_Source\PSoC4/RTC.h **** #define RTC_JANUARY    (RTC__JAN)
 184:Generated_Source\PSoC4/RTC.h **** #define RTC_FEBRUARY   (RTC__FEB)
 185:Generated_Source\PSoC4/RTC.h **** #define RTC_MARCH      (RTC__MAR)
 186:Generated_Source\PSoC4/RTC.h **** #define RTC_APRIL      (RTC__APR)
 187:Generated_Source\PSoC4/RTC.h **** #define RTC_MAY        (RTC__MAY)
 188:Generated_Source\PSoC4/RTC.h **** #define RTC_JUNE       (RTC__JUN)
 189:Generated_Source\PSoC4/RTC.h **** #define RTC_JULY       (RTC__JUL)
 190:Generated_Source\PSoC4/RTC.h **** #define RTC_AUGUST     (RTC__AUG)
 191:Generated_Source\PSoC4/RTC.h **** #define RTC_SEPTEMBER  (RTC__SEP)
 192:Generated_Source\PSoC4/RTC.h **** #define RTC_OCTOBER    (RTC__OCT)
 193:Generated_Source\PSoC4/RTC.h **** #define RTC_NOVEMBER   (RTC__NOV)
 194:Generated_Source\PSoC4/RTC.h **** #define RTC_DECEMBER   (RTC__DEC)
 195:Generated_Source\PSoC4/RTC.h **** 
 196:Generated_Source\PSoC4/RTC.h **** #define RTC_DAYS_PER_WEEK       (7u)
 197:Generated_Source\PSoC4/RTC.h **** 
 198:Generated_Source\PSoC4/RTC.h **** /* Number of days in month definitions */
 199:Generated_Source\PSoC4/RTC.h **** #define RTC_DAYS_IN_JANUARY     (31u)
 200:Generated_Source\PSoC4/RTC.h **** #define RTC_DAYS_IN_FEBRUARY    (28u)
 201:Generated_Source\PSoC4/RTC.h **** #define RTC_DAYS_IN_MARCH       (31u)
 202:Generated_Source\PSoC4/RTC.h **** #define RTC_DAYS_IN_APRIL       (30u)
 203:Generated_Source\PSoC4/RTC.h **** #define RTC_DAYS_IN_MAY         (31u)
 204:Generated_Source\PSoC4/RTC.h **** #define RTC_DAYS_IN_JUNE        (30u)
ARM GAS  C:\Users\Petro\AppData\Local\Temp\ccd3b28V.s 			page 5


 205:Generated_Source\PSoC4/RTC.h **** #define RTC_DAYS_IN_JULY        (31u)
 206:Generated_Source\PSoC4/RTC.h **** #define RTC_DAYS_IN_AUGUST      (31u)
 207:Generated_Source\PSoC4/RTC.h **** #define RTC_DAYS_IN_SEPTEMBER   (30u)
 208:Generated_Source\PSoC4/RTC.h **** #define RTC_DAYS_IN_OCTOBER     (31u)
 209:Generated_Source\PSoC4/RTC.h **** #define RTC_DAYS_IN_NOVEMBER    (30u)
 210:Generated_Source\PSoC4/RTC.h **** #define RTC_DAYS_IN_DECEMBER    (31u)
 211:Generated_Source\PSoC4/RTC.h **** 
 212:Generated_Source\PSoC4/RTC.h **** #define RTC_MONTHS_PER_YEAR     (12uL)
 213:Generated_Source\PSoC4/RTC.h **** 
 214:Generated_Source\PSoC4/RTC.h **** #define RTC_HOURS_PER_DAY       (24uL)
 215:Generated_Source\PSoC4/RTC.h **** #define RTC_HOURS_PER_HALF_DAY  (12uL)
 216:Generated_Source\PSoC4/RTC.h **** 
 217:Generated_Source\PSoC4/RTC.h **** #define RTC_SECONDS_PER_MINUTE  (60uL)
 218:Generated_Source\PSoC4/RTC.h **** #define RTC_SECONDS_PER_HOUR    (3600uL)
 219:Generated_Source\PSoC4/RTC.h **** #define RTC_SECONDS_PER_DAY     (24uL * 3600uL)
 220:Generated_Source\PSoC4/RTC.h **** 
 221:Generated_Source\PSoC4/RTC.h **** #define RTC_SECONDS_PER_LEAP_YEAR    (366uL * 24uL * 3600uL)
 222:Generated_Source\PSoC4/RTC.h **** #define RTC_SECONDS_PER_NONLEAP_YEAR (365uL * 24uL * 3600uL)
 223:Generated_Source\PSoC4/RTC.h **** 
 224:Generated_Source\PSoC4/RTC.h **** #define RTC_UNIX_TIME_PM   ((12uL * 3600uL) + 1uL)
 225:Generated_Source\PSoC4/RTC.h **** 
 226:Generated_Source\PSoC4/RTC.h **** /* AM/PM status definitions */
 227:Generated_Source\PSoC4/RTC.h **** #define RTC_AM                 (0u)
 228:Generated_Source\PSoC4/RTC.h **** #define RTC_PM                 (1u)
 229:Generated_Source\PSoC4/RTC.h **** 
 230:Generated_Source\PSoC4/RTC.h **** /* Time format definitions */
 231:Generated_Source\PSoC4/RTC.h **** #define RTC_12_HOURS_FORMAT    (RTC__HOUR_12)
 232:Generated_Source\PSoC4/RTC.h **** #define RTC_24_HOURS_FORMAT    (RTC__HOUR_24)
 233:Generated_Source\PSoC4/RTC.h **** 
 234:Generated_Source\PSoC4/RTC.h **** /* UNIX time begins in 1970 year.  */
 235:Generated_Source\PSoC4/RTC.h **** #define RTC_YEAR_0             (1970u)
 236:Generated_Source\PSoC4/RTC.h **** 
 237:Generated_Source\PSoC4/RTC.h **** /* Definition of date register fields */
 238:Generated_Source\PSoC4/RTC.h **** #if(RTC_INITIAL_DATA_FORMAT == RTC__MM_DD_YYYY)
 239:Generated_Source\PSoC4/RTC.h ****     #define RTC_10_MONTH_OFFSET   (28u)
 240:Generated_Source\PSoC4/RTC.h ****     #define RTC_MONTH_OFFSET      (24u)
 241:Generated_Source\PSoC4/RTC.h ****     #define RTC_10_DAY_OFFSET     (20u)
 242:Generated_Source\PSoC4/RTC.h ****     #define RTC_DAY_OFFSET        (16u)
 243:Generated_Source\PSoC4/RTC.h ****     #define RTC_1000_YEAR_OFFSET  (12u)
 244:Generated_Source\PSoC4/RTC.h ****     #define RTC_100_YEAR_OFFSET   (8u)
 245:Generated_Source\PSoC4/RTC.h ****     #define RTC_10_YEAR_OFFSET    (4u)
 246:Generated_Source\PSoC4/RTC.h ****     #define RTC_YEAR_OFFSET       (0u)
 247:Generated_Source\PSoC4/RTC.h **** #elif(RTC_INITIAL_DATA_FORMAT == RTC__DD_MM_YYYY)
 248:Generated_Source\PSoC4/RTC.h ****     #define RTC_10_MONTH_OFFSET   (20u)
 249:Generated_Source\PSoC4/RTC.h ****     #define RTC_MONTH_OFFSET      (16u)
 250:Generated_Source\PSoC4/RTC.h ****     #define RTC_10_DAY_OFFSET     (28u)
 251:Generated_Source\PSoC4/RTC.h ****     #define RTC_DAY_OFFSET        (24u)
 252:Generated_Source\PSoC4/RTC.h ****     #define RTC_1000_YEAR_OFFSET  (12u)
 253:Generated_Source\PSoC4/RTC.h ****     #define RTC_100_YEAR_OFFSET   (8u)
 254:Generated_Source\PSoC4/RTC.h ****     #define RTC_10_YEAR_OFFSET    (4u)
 255:Generated_Source\PSoC4/RTC.h ****     #define RTC_YEAR_OFFSET       (0u)
 256:Generated_Source\PSoC4/RTC.h **** #else
 257:Generated_Source\PSoC4/RTC.h ****     #define RTC_10_MONTH_OFFSET   (12u)
 258:Generated_Source\PSoC4/RTC.h ****     #define RTC_MONTH_OFFSET      (8u)
 259:Generated_Source\PSoC4/RTC.h ****     #define RTC_10_DAY_OFFSET     (4u)
 260:Generated_Source\PSoC4/RTC.h ****     #define RTC_DAY_OFFSET        (0u)
 261:Generated_Source\PSoC4/RTC.h ****     #define RTC_1000_YEAR_OFFSET  (28u)
ARM GAS  C:\Users\Petro\AppData\Local\Temp\ccd3b28V.s 			page 6


 262:Generated_Source\PSoC4/RTC.h ****     #define RTC_100_YEAR_OFFSET   (24u)
 263:Generated_Source\PSoC4/RTC.h ****     #define RTC_10_YEAR_OFFSET    (20u)
 264:Generated_Source\PSoC4/RTC.h ****     #define RTC_YEAR_OFFSET       (16u)
 265:Generated_Source\PSoC4/RTC.h **** #endif /* (RTC_INITIAL_DATA_FORMAT == RTC__MM_DD_YYYY) */
 266:Generated_Source\PSoC4/RTC.h **** 
 267:Generated_Source\PSoC4/RTC.h **** #define RTC_10_MONTH_MASK          (0x00000001uL << RTC_10_MONTH_OFFSET)
 268:Generated_Source\PSoC4/RTC.h **** #define RTC_MONTH_MASK             (0x0000000FuL << RTC_MONTH_OFFSET)
 269:Generated_Source\PSoC4/RTC.h **** #define RTC_10_DAY_MASK            (0x00000003uL << RTC_10_DAY_OFFSET)
 270:Generated_Source\PSoC4/RTC.h **** #define RTC_DAY_MASK               (0x0000000FuL << RTC_DAY_OFFSET)
 271:Generated_Source\PSoC4/RTC.h **** #define RTC_1000_YEAR_MASK         (0x00000003uL << RTC_1000_YEAR_OFFSET)
 272:Generated_Source\PSoC4/RTC.h **** #define RTC_100_YEAR_MASK          (0x0000000FuL << RTC_100_YEAR_OFFSET)
 273:Generated_Source\PSoC4/RTC.h **** #define RTC_10_YEAR_MASK           (0x0000000FuL << RTC_10_YEAR_OFFSET)
 274:Generated_Source\PSoC4/RTC.h **** #define RTC_YEAR_MASK              (0x0000000FuL << RTC_YEAR_OFFSET)
 275:Generated_Source\PSoC4/RTC.h **** 
 276:Generated_Source\PSoC4/RTC.h **** #define  RTC_MONTH_FULL_MASK       (RTC_10_MONTH_MASK  | RTC_MONTH_MASK)
 277:Generated_Source\PSoC4/RTC.h **** #define  RTC_DAY_FULL_MASK         (RTC_10_DAY_MASK    | RTC_DAY_MASK)
 278:Generated_Source\PSoC4/RTC.h **** #define  RTC_YEAR_FULL_MASK        (RTC_1000_YEAR_MASK | RTC_100_YEAR_MASK |\
 279:Generated_Source\PSoC4/RTC.h ****                                                  RTC_10_YEAR_MASK   | RTC_YEAR_MASK)
 280:Generated_Source\PSoC4/RTC.h **** 
 281:Generated_Source\PSoC4/RTC.h **** 
 282:Generated_Source\PSoC4/RTC.h **** /* Definition of time register fields */
 283:Generated_Source\PSoC4/RTC.h **** #define RTC_TIME_FORMAT_OFFSET     (23u)
 284:Generated_Source\PSoC4/RTC.h **** #define RTC_PERIOD_OF_DAY_OFFSET   (22u)
 285:Generated_Source\PSoC4/RTC.h **** #define RTC_10_HOURS_OFFSET        (20u)
 286:Generated_Source\PSoC4/RTC.h **** #define RTC_HOURS_OFFSET           (16u)
 287:Generated_Source\PSoC4/RTC.h **** #define RTC_10_MINUTES_OFFSET      (12u)
 288:Generated_Source\PSoC4/RTC.h **** #define RTC_MINUTES_OFFSET         (8u)
 289:Generated_Source\PSoC4/RTC.h **** #define RTC_10_SECONDS_OFFSET      (4u)
 290:Generated_Source\PSoC4/RTC.h **** #define RTC_SECONDS_OFFSET         (0u)
 291:Generated_Source\PSoC4/RTC.h **** 
 292:Generated_Source\PSoC4/RTC.h **** #define RTC_TIME_FORMAT_MASK       (0x00000001uL << RTC_TIME_FORMAT_OFFSET)
 293:Generated_Source\PSoC4/RTC.h **** #define RTC_PERIOD_OF_DAY_MASK     (0x00000001uL << RTC_PERIOD_OF_DAY_OFFSET)
 294:Generated_Source\PSoC4/RTC.h **** #define RTC_10_HOURS_MASK          (0x00000003uL << RTC_10_HOURS_OFFSET)
 295:Generated_Source\PSoC4/RTC.h **** #define RTC_HOURS_MASK             (0x0000000FuL << RTC_HOURS_OFFSET)
 296:Generated_Source\PSoC4/RTC.h **** #define RTC_10_MINUTES_MASK        (0x00000007uL << RTC_10_MINUTES_OFFSET)
 297:Generated_Source\PSoC4/RTC.h **** #define RTC_MINUTES_MASK           (0x0000000FuL << RTC_MINUTES_OFFSET)
 298:Generated_Source\PSoC4/RTC.h **** #define RTC_10_SECONDS_MASK        (0x00000007uL << RTC_10_SECONDS_OFFSET)
 299:Generated_Source\PSoC4/RTC.h **** #define RTC_SECONDS_MASK           (0x0000000FuL << RTC_SECONDS_OFFSET)
 300:Generated_Source\PSoC4/RTC.h **** 
 301:Generated_Source\PSoC4/RTC.h **** #define RTC_HOURS_FULL_MASK        (RTC_10_HOURS_MASK   | RTC_HOURS_MASK)
 302:Generated_Source\PSoC4/RTC.h **** #define RTC_MINUTES_FULL_MASK      (RTC_10_MINUTES_MASK | RTC_MINUTES_MASK)
 303:Generated_Source\PSoC4/RTC.h **** #define RTC_SECONDS_FULL_MASK      (RTC_10_SECONDS_MASK | RTC_SECONDS_MASK)
 304:Generated_Source\PSoC4/RTC.h **** 
 305:Generated_Source\PSoC4/RTC.h **** #define RTC_ALARM_SEC_MASK         (0x00000001uL)
 306:Generated_Source\PSoC4/RTC.h **** #define RTC_ALARM_MIN_MASK         (0x00000002uL)
 307:Generated_Source\PSoC4/RTC.h **** #define RTC_ALARM_HOUR_MASK        (0x00000004uL)
 308:Generated_Source\PSoC4/RTC.h **** #define RTC_ALARM_DAYOFWEEK_MASK   (0x00000008uL)
 309:Generated_Source\PSoC4/RTC.h **** #define RTC_ALARM_DAYOFMONTH_MASK  (0x00000010uL)
 310:Generated_Source\PSoC4/RTC.h **** #define RTC_ALARM_MONTH_MASK       (0x00000020uL)
 311:Generated_Source\PSoC4/RTC.h **** #define RTC_ALARM_YEAR_MASK        (0x00000040uL)
 312:Generated_Source\PSoC4/RTC.h **** 
 313:Generated_Source\PSoC4/RTC.h **** #define RTC_STATUS_DST_OFFSET      (1u)
 314:Generated_Source\PSoC4/RTC.h **** #define RTC_STATUS_ALARM_OFFSET    (2u)
 315:Generated_Source\PSoC4/RTC.h **** #define RTC_STATUS_LY_OFFSET       (3u)
 316:Generated_Source\PSoC4/RTC.h **** #define RTC_STATUS_AM_PM_OFFSET    (4u)
 317:Generated_Source\PSoC4/RTC.h **** 
 318:Generated_Source\PSoC4/RTC.h **** /* Definition of the RTC status values. */
ARM GAS  C:\Users\Petro\AppData\Local\Temp\ccd3b28V.s 			page 7


 319:Generated_Source\PSoC4/RTC.h **** #define RTC_STATUS_DST             (1uL << RTC_STATUS_DST_OFFSET)
 320:Generated_Source\PSoC4/RTC.h **** #define RTC_STATUS_LY              (1uL << RTC_STATUS_LY_OFFSET)
 321:Generated_Source\PSoC4/RTC.h **** #define RTC_STATUS_AM_PM           (1uL << RTC_STATUS_AM_PM_OFFSET)
 322:Generated_Source\PSoC4/RTC.h **** 
 323:Generated_Source\PSoC4/RTC.h **** /* Number of bits per one BCD digit. */
 324:Generated_Source\PSoC4/RTC.h **** #define RTC_BCD_NUMBER_SIZE        (4u)
 325:Generated_Source\PSoC4/RTC.h **** #define RTC_BCD_ONE_DIGIT_MASK     (0x0000000FuL)
 326:Generated_Source\PSoC4/RTC.h **** 
 327:Generated_Source\PSoC4/RTC.h **** /*******************************************************************************
 328:Generated_Source\PSoC4/RTC.h **** *    Function Prototypes
 329:Generated_Source\PSoC4/RTC.h **** *******************************************************************************/
 330:Generated_Source\PSoC4/RTC.h **** /**
 331:Generated_Source\PSoC4/RTC.h **** * \addtogroup group_api
 332:Generated_Source\PSoC4/RTC.h **** * @{
 333:Generated_Source\PSoC4/RTC.h **** */
 334:Generated_Source\PSoC4/RTC.h **** void   RTC_Start(void);
 335:Generated_Source\PSoC4/RTC.h **** void   RTC_Stop(void);
 336:Generated_Source\PSoC4/RTC.h **** void   RTC_Init(void);
 337:Generated_Source\PSoC4/RTC.h **** void   RTC_SetUnixTime(uint64 unixTime);
 338:Generated_Source\PSoC4/RTC.h **** uint64 RTC_GetUnixTime(void);
 339:Generated_Source\PSoC4/RTC.h **** void   RTC_SetPeriod(uint32 ticks, uint32 refOneSecTicks);
 340:Generated_Source\PSoC4/RTC.h **** uint32 RTC_GetPeriod(void);
 341:Generated_Source\PSoC4/RTC.h **** uint32 RTC_GetRefOneSec(void);
 342:Generated_Source\PSoC4/RTC.h **** void   RTC_SetDateAndTime(uint32 inputTime, uint32 inputDate);
 343:Generated_Source\PSoC4/RTC.h **** void   RTC_GetDateAndTime(RTC_DATE_TIME* dateTime);
 344:Generated_Source\PSoC4/RTC.h **** uint32 RTC_GetTime(void);
 345:Generated_Source\PSoC4/RTC.h **** uint32 RTC_GetDate(void);
 346:Generated_Source\PSoC4/RTC.h **** void   RTC_SetAlarmDateAndTime(const RTC_DATE_TIME* alarmTime);
 347:Generated_Source\PSoC4/RTC.h **** void   RTC_GetAlarmDateAndTime(RTC_DATE_TIME* alarmTimeDate);
 348:Generated_Source\PSoC4/RTC.h **** void   RTC_SetAlarmMask(uint32 mask);
 349:Generated_Source\PSoC4/RTC.h **** uint32 RTC_GetAlarmMask(void);
 350:Generated_Source\PSoC4/RTC.h **** uint32 RTC_ReadStatus(void);
 351:Generated_Source\PSoC4/RTC.h **** uint32 RTC_GetAlarmStatus(void);
 352:Generated_Source\PSoC4/RTC.h **** void   RTC_ClearAlarmStatus(void);
 353:Generated_Source\PSoC4/RTC.h **** void   RTC_SetDSTStartTime(const RTC_DST_TIME* dstStartTime,
 354:Generated_Source\PSoC4/RTC.h ****                                               RTC_DST_DATETYPE_ENUM type);
 355:Generated_Source\PSoC4/RTC.h **** void   RTC_SetDSTStopTime(const RTC_DST_TIME* dstStopTime,
 356:Generated_Source\PSoC4/RTC.h ****                                              RTC_DST_DATETYPE_ENUM type);
 357:Generated_Source\PSoC4/RTC.h **** uint32 RTC_ConvertBCDToDec(uint32 bcdNum);
 358:Generated_Source\PSoC4/RTC.h **** uint32 RTC_ConvertDecToBCD(uint32 decNum);
 359:Generated_Source\PSoC4/RTC.h **** void   RTC_Update(void);
 360:Generated_Source\PSoC4/RTC.h **** void*  RTC_SetAlarmHandler(void (*CallbackFunction)(void));
 361:Generated_Source\PSoC4/RTC.h **** 
 362:Generated_Source\PSoC4/RTC.h **** static uint32 RTC_ConstructDate(uint32 month, uint32 day, uint32 year);
 363:Generated_Source\PSoC4/RTC.h **** static uint32 RTC_ConstructTime(uint32 timeFormat, uint32 stateAmPm, uint32 hour, uint32 min, uint3
 364:Generated_Source\PSoC4/RTC.h **** /** @} api */
 365:Generated_Source\PSoC4/RTC.h **** 
 366:Generated_Source\PSoC4/RTC.h **** static uint32 RTC_GetTimeFormat(uint32 inputTime);
 367:Generated_Source\PSoC4/RTC.h **** static uint32 RTC_SetTimeFormat(uint32 inputTime, uint32 timeFormat);
 368:Generated_Source\PSoC4/RTC.h **** 
 369:Generated_Source\PSoC4/RTC.h **** /**
 370:Generated_Source\PSoC4/RTC.h **** * \addtogroup group_api
 371:Generated_Source\PSoC4/RTC.h **** * @{
 372:Generated_Source\PSoC4/RTC.h **** */
 373:Generated_Source\PSoC4/RTC.h **** static uint32 RTC_LeapYear(uint32 year);
 374:Generated_Source\PSoC4/RTC.h **** static uint32 RTC_IsBitSet(uint32 var, uint32 mask);
 375:Generated_Source\PSoC4/RTC.h **** static uint32 RTC_GetSecond(uint32 inputTime);
ARM GAS  C:\Users\Petro\AppData\Local\Temp\ccd3b28V.s 			page 8


 376:Generated_Source\PSoC4/RTC.h **** static uint32 RTC_GetMinutes(uint32 inputTime);
 377:Generated_Source\PSoC4/RTC.h **** static uint32 RTC_GetHours(uint32 inputTime);
 378:Generated_Source\PSoC4/RTC.h **** static uint32 RTC_GetAmPm(uint32 inputTime);
 379:Generated_Source\PSoC4/RTC.h **** static uint32 RTC_GetDay(uint32 date);
 380:Generated_Source\PSoC4/RTC.h **** static uint32 RTC_GetMonth(uint32 date);
 381:Generated_Source\PSoC4/RTC.h **** static uint32 RTC_GetYear(uint32 date);
 382:Generated_Source\PSoC4/RTC.h **** /** @} api */
 383:Generated_Source\PSoC4/RTC.h **** 
 384:Generated_Source\PSoC4/RTC.h **** static uint32 RTC_SetSecond(uint32 inputTime, uint32 inputSecond);
 385:Generated_Source\PSoC4/RTC.h **** static uint32 RTC_SetMinutes(uint32 inputTime, uint32 inputMinute);
 386:Generated_Source\PSoC4/RTC.h **** static uint32 RTC_SetHours(uint32 inputTime, uint32 inputHours);
 387:Generated_Source\PSoC4/RTC.h **** static uint32 RTC_SetAmPm(uint32 inputTime, uint32 periodOfDay);
 388:Generated_Source\PSoC4/RTC.h **** static uint32 RTC_SetDay(uint32 inputDate, uint32 inputDay);
 389:Generated_Source\PSoC4/RTC.h **** static uint32 RTC_SetMonth(uint32 inputDate, uint32 inputMonth);
 390:Generated_Source\PSoC4/RTC.h **** static uint32 RTC_SetYear(uint32 inputDate, uint32 inputYear);
 391:Generated_Source\PSoC4/RTC.h **** 
 392:Generated_Source\PSoC4/RTC.h **** uint64 RTC_ConstructUnixAlarmTime(const RTC_DATE_TIME* alarmTime, uint8 alarmCfgMask);
 393:Generated_Source\PSoC4/RTC.h **** uint64 RTC_GetDstUnixTime(const RTC_DST_TIME* dstTime);
 394:Generated_Source\PSoC4/RTC.h **** uint64 RTC_GetNexAlarmTime(uint64 curUnixTime, uint8 alarmCfgMask);
 395:Generated_Source\PSoC4/RTC.h **** 
 396:Generated_Source\PSoC4/RTC.h **** static uint32 RTC_GetNextMinSec(uint32 curVal);
 397:Generated_Source\PSoC4/RTC.h **** static uint32 RTC_GetNextHour(uint32 curVal);
 398:Generated_Source\PSoC4/RTC.h **** static uint32 RTC_GetNextDay(uint32 curYear, uint32 curMonth, uint32 curDay, uint32 alarmCfgMask);
 399:Generated_Source\PSoC4/RTC.h **** static uint32 RTC_GetNextMonth(uint32 curMonth);
 400:Generated_Source\PSoC4/RTC.h **** static uint32 RTC_GetNextYear(uint32 curYear);
 401:Generated_Source\PSoC4/RTC.h **** static uint32 RTC_GetDayOfWeek(uint32 day, uint32 month, uint32 year);
 402:Generated_Source\PSoC4/RTC.h **** 
 403:Generated_Source\PSoC4/RTC.h **** uint32 RTC_DaysInMonth(uint32 month, uint32 year);
 404:Generated_Source\PSoC4/RTC.h **** uint32 RTC_DaysBeforeMonth(uint32 month, uint32 year);
 405:Generated_Source\PSoC4/RTC.h **** 
 406:Generated_Source\PSoC4/RTC.h **** /**
 407:Generated_Source\PSoC4/RTC.h **** * \addtogroup group_api
 408:Generated_Source\PSoC4/RTC.h **** * @{
 409:Generated_Source\PSoC4/RTC.h **** */
 410:Generated_Source\PSoC4/RTC.h **** void   RTC_UnixToDateTime(RTC_DATE_TIME* dateTime, uint64 unixTime, uint32 timeFormat);
 411:Generated_Source\PSoC4/RTC.h **** uint64 RTC_DateTimeToUnix(uint32 inputDate, uint32 inputTime);
 412:Generated_Source\PSoC4/RTC.h **** /** @} api */
 413:Generated_Source\PSoC4/RTC.h **** 
 414:Generated_Source\PSoC4/RTC.h **** uint32 RTC_RelativeToFixed(uint32 dayOfWeek, uint32 weekOfMonth, uint32 month, uint32 year);
 415:Generated_Source\PSoC4/RTC.h **** 
 416:Generated_Source\PSoC4/RTC.h **** 
 417:Generated_Source\PSoC4/RTC.h **** #if defined(CYDEV_RTC_SOURCE_WDT)
 418:Generated_Source\PSoC4/RTC.h ****     #if((0u != CYDEV_WDT_GENERATE_ISR) && (0u == RTC_INITIAL_UPDATE_MODE))
 419:Generated_Source\PSoC4/RTC.h ****         static void RTC_CySysRtcSetCallback(uint32 wdtNumber);
 420:Generated_Source\PSoC4/RTC.h ****         static void RTC_CySysRtcResetCallback(uint32 wdtNumber);
 421:Generated_Source\PSoC4/RTC.h ****     #endif /* ((0u != CYDEV_WDT_GENERATE_ISR) && (0u == RTC_INITIAL_UPDATE_MODE)) */
 422:Generated_Source\PSoC4/RTC.h **** #endif /* (CYDEV_RTC_SOURCE_WDT) */
 423:Generated_Source\PSoC4/RTC.h **** 
 424:Generated_Source\PSoC4/RTC.h **** /*******************************************************************************
 425:Generated_Source\PSoC4/RTC.h **** * Function Name: RTC_IsBitSet
 426:Generated_Source\PSoC4/RTC.h **** ****************************************************************************//**
 427:Generated_Source\PSoC4/RTC.h **** *
 428:Generated_Source\PSoC4/RTC.h **** * \brief
 429:Generated_Source\PSoC4/RTC.h **** *  Checks the state of a bit passed through parameter.
 430:Generated_Source\PSoC4/RTC.h **** *
 431:Generated_Source\PSoC4/RTC.h **** * \param
 432:Generated_Source\PSoC4/RTC.h **** *  var The variable to be checked.
ARM GAS  C:\Users\Petro\AppData\Local\Temp\ccd3b28V.s 			page 9


 433:Generated_Source\PSoC4/RTC.h **** * \param
 434:Generated_Source\PSoC4/RTC.h **** *  mask The mask for a bit to be checked.
 435:Generated_Source\PSoC4/RTC.h **** *
 436:Generated_Source\PSoC4/RTC.h **** * \return
 437:Generated_Source\PSoC4/RTC.h **** *  0u - Bit is not set.
 438:Generated_Source\PSoC4/RTC.h **** * \return
 439:Generated_Source\PSoC4/RTC.h **** *  1u - Bit is set.
 440:Generated_Source\PSoC4/RTC.h **** *
 441:Generated_Source\PSoC4/RTC.h **** *******************************************************************************/
 442:Generated_Source\PSoC4/RTC.h **** static CY_INLINE uint32 RTC_IsBitSet(uint32 var, uint32 mask)
 443:Generated_Source\PSoC4/RTC.h **** {
 444:Generated_Source\PSoC4/RTC.h ****     return ((mask == (var & mask)) ? 1Lu : 0Lu);
 445:Generated_Source\PSoC4/RTC.h **** }
 446:Generated_Source\PSoC4/RTC.h **** 
 447:Generated_Source\PSoC4/RTC.h **** 
 448:Generated_Source\PSoC4/RTC.h **** /*******************************************************************************
 449:Generated_Source\PSoC4/RTC.h **** * Function Name: RTC_LeapYear
 450:Generated_Source\PSoC4/RTC.h **** ****************************************************************************//**
 451:Generated_Source\PSoC4/RTC.h **** *
 452:Generated_Source\PSoC4/RTC.h **** * \brief
 453:Generated_Source\PSoC4/RTC.h **** * Checks whether the year passed through the parameter is
 454:Generated_Source\PSoC4/RTC.h **** * leap or no.
 455:Generated_Source\PSoC4/RTC.h **** *
 456:Generated_Source\PSoC4/RTC.h **** * \param
 457:Generated_Source\PSoC4/RTC.h **** *  year The year to be checked.
 458:Generated_Source\PSoC4/RTC.h **** *
 459:Generated_Source\PSoC4/RTC.h **** *
 460:Generated_Source\PSoC4/RTC.h **** * \return
 461:Generated_Source\PSoC4/RTC.h **** *  0u - The year is not leap.
 462:Generated_Source\PSoC4/RTC.h **** * \return
 463:Generated_Source\PSoC4/RTC.h **** *  1u - The year is leap.
 464:Generated_Source\PSoC4/RTC.h **** *
 465:Generated_Source\PSoC4/RTC.h **** *******************************************************************************/
 466:Generated_Source\PSoC4/RTC.h **** static CY_INLINE uint32 RTC_LeapYear(uint32 year)
 467:Generated_Source\PSoC4/RTC.h **** {
 468:Generated_Source\PSoC4/RTC.h ****     uint32 retVal;
 469:Generated_Source\PSoC4/RTC.h **** 
 470:Generated_Source\PSoC4/RTC.h ****     if(((0u == (year % 4Lu)) && (0u != (year % 100Lu))) || (0u == (year % 400Lu)))
 471:Generated_Source\PSoC4/RTC.h ****     {
 472:Generated_Source\PSoC4/RTC.h ****         retVal = 1uL;
 473:Generated_Source\PSoC4/RTC.h ****     }
 474:Generated_Source\PSoC4/RTC.h ****     else
 475:Generated_Source\PSoC4/RTC.h ****     {
 476:Generated_Source\PSoC4/RTC.h ****         retVal = 0uL;
 477:Generated_Source\PSoC4/RTC.h ****     }
 478:Generated_Source\PSoC4/RTC.h **** 
 479:Generated_Source\PSoC4/RTC.h ****     return(retVal);
 480:Generated_Source\PSoC4/RTC.h **** }
 481:Generated_Source\PSoC4/RTC.h **** 
 482:Generated_Source\PSoC4/RTC.h **** 
 483:Generated_Source\PSoC4/RTC.h **** /*******************************************************************************
 484:Generated_Source\PSoC4/RTC.h **** * Function Name: RTC_GetSecond
 485:Generated_Source\PSoC4/RTC.h **** ****************************************************************************//**
 486:Generated_Source\PSoC4/RTC.h **** *
 487:Generated_Source\PSoC4/RTC.h **** * \brief
 488:Generated_Source\PSoC4/RTC.h **** *  Returns the seconds value from the time value that is passed as a/the parameter.
 489:Generated_Source\PSoC4/RTC.h **** *
ARM GAS  C:\Users\Petro\AppData\Local\Temp\ccd3b28V.s 			page 10


 490:Generated_Source\PSoC4/RTC.h **** * \param
 491:Generated_Source\PSoC4/RTC.h **** *  time The time value.
 492:Generated_Source\PSoC4/RTC.h **** *
 493:Generated_Source\PSoC4/RTC.h **** * \return
 494:Generated_Source\PSoC4/RTC.h **** *  The seconds value.
 495:Generated_Source\PSoC4/RTC.h **** *
 496:Generated_Source\PSoC4/RTC.h **** *******************************************************************************/
 497:Generated_Source\PSoC4/RTC.h **** static CY_INLINE uint32 RTC_GetSecond(uint32 inputTime)
 498:Generated_Source\PSoC4/RTC.h **** {
  25              		.loc 1 498 0
  26              		.cfi_startproc
  27 0000 80B5     		push	{r7, lr}
  28              		.cfi_def_cfa_offset 8
  29              		.cfi_offset 7, -8
  30              		.cfi_offset 14, -4
  31 0002 84B0     		sub	sp, sp, #16
  32              		.cfi_def_cfa_offset 24
  33 0004 00AF     		add	r7, sp, #0
  34              		.cfi_def_cfa_register 7
  35 0006 7860     		str	r0, [r7, #4]
 499:Generated_Source\PSoC4/RTC.h ****     uint32 retVal;
 500:Generated_Source\PSoC4/RTC.h **** 
 501:Generated_Source\PSoC4/RTC.h ****     retVal  = ((inputTime & RTC_10_SECONDS_MASK) >> RTC_10_SECONDS_OFFSET) * 10u;
  36              		.loc 1 501 0
  37 0008 7B68     		ldr	r3, [r7, #4]
  38 000a 7022     		mov	r2, #112
  39 000c 1340     		and	r3, r2
  40 000e 1A09     		lsr	r2, r3, #4
  41 0010 131C     		mov	r3, r2
  42 0012 9B00     		lsl	r3, r3, #2
  43 0014 9B18     		add	r3, r3, r2
  44 0016 5B00     		lsl	r3, r3, #1
  45 0018 FB60     		str	r3, [r7, #12]
 502:Generated_Source\PSoC4/RTC.h ****     retVal += (inputTime & RTC_SECONDS_MASK) >> RTC_SECONDS_OFFSET;
  46              		.loc 1 502 0
  47 001a 7B68     		ldr	r3, [r7, #4]
  48 001c 0F22     		mov	r2, #15
  49 001e 1340     		and	r3, r2
  50 0020 FA68     		ldr	r2, [r7, #12]
  51 0022 D318     		add	r3, r2, r3
  52 0024 FB60     		str	r3, [r7, #12]
 503:Generated_Source\PSoC4/RTC.h **** 
 504:Generated_Source\PSoC4/RTC.h ****     return (retVal);
  53              		.loc 1 504 0
  54 0026 FB68     		ldr	r3, [r7, #12]
 505:Generated_Source\PSoC4/RTC.h **** }
  55              		.loc 1 505 0
  56 0028 181C     		mov	r0, r3
  57 002a BD46     		mov	sp, r7
  58 002c 04B0     		add	sp, sp, #16
  59              		@ sp needed
  60 002e 80BD     		pop	{r7, pc}
  61              		.cfi_endproc
  62              	.LFE4:
  63              		.size	RTC_GetSecond, .-RTC_GetSecond
  64              		.section	.text.RTC_GetMinutes,"ax",%progbits
  65              		.align	2
ARM GAS  C:\Users\Petro\AppData\Local\Temp\ccd3b28V.s 			page 11


  66              		.code	16
  67              		.thumb_func
  68              		.type	RTC_GetMinutes, %function
  69              	RTC_GetMinutes:
  70              	.LFB5:
 506:Generated_Source\PSoC4/RTC.h **** 
 507:Generated_Source\PSoC4/RTC.h **** 
 508:Generated_Source\PSoC4/RTC.h **** /*******************************************************************************
 509:Generated_Source\PSoC4/RTC.h **** * Function Name: RTC_GetMinutes
 510:Generated_Source\PSoC4/RTC.h **** ****************************************************************************//**
 511:Generated_Source\PSoC4/RTC.h **** *
 512:Generated_Source\PSoC4/RTC.h **** * \brief
 513:Generated_Source\PSoC4/RTC.h **** *  Returns the minutes value from the time value that is passed as a/the 
 514:Generated_Source\PSoC4/RTC.h **** * parameter.
 515:Generated_Source\PSoC4/RTC.h **** *
 516:Generated_Source\PSoC4/RTC.h **** * \param
 517:Generated_Source\PSoC4/RTC.h **** *  time The time value.
 518:Generated_Source\PSoC4/RTC.h **** *
 519:Generated_Source\PSoC4/RTC.h **** * \return
 520:Generated_Source\PSoC4/RTC.h **** *  The minutes value.
 521:Generated_Source\PSoC4/RTC.h **** *
 522:Generated_Source\PSoC4/RTC.h **** *******************************************************************************/
 523:Generated_Source\PSoC4/RTC.h **** static CY_INLINE uint32 RTC_GetMinutes(uint32 inputTime)
 524:Generated_Source\PSoC4/RTC.h **** {
  71              		.loc 1 524 0
  72              		.cfi_startproc
  73 0000 80B5     		push	{r7, lr}
  74              		.cfi_def_cfa_offset 8
  75              		.cfi_offset 7, -8
  76              		.cfi_offset 14, -4
  77 0002 84B0     		sub	sp, sp, #16
  78              		.cfi_def_cfa_offset 24
  79 0004 00AF     		add	r7, sp, #0
  80              		.cfi_def_cfa_register 7
  81 0006 7860     		str	r0, [r7, #4]
 525:Generated_Source\PSoC4/RTC.h ****     uint32 retVal;
 526:Generated_Source\PSoC4/RTC.h **** 
 527:Generated_Source\PSoC4/RTC.h ****     retVal  = ((inputTime & RTC_10_MINUTES_MASK) >> RTC_10_MINUTES_OFFSET) * 10u;
  82              		.loc 1 527 0
  83 0008 7A68     		ldr	r2, [r7, #4]
  84 000a E023     		mov	r3, #224
  85 000c DB01     		lsl	r3, r3, #7
  86 000e 1340     		and	r3, r2
  87 0010 1A0B     		lsr	r2, r3, #12
  88 0012 131C     		mov	r3, r2
  89 0014 9B00     		lsl	r3, r3, #2
  90 0016 9B18     		add	r3, r3, r2
  91 0018 5B00     		lsl	r3, r3, #1
  92 001a FB60     		str	r3, [r7, #12]
 528:Generated_Source\PSoC4/RTC.h ****     retVal += (inputTime & RTC_MINUTES_MASK) >> RTC_MINUTES_OFFSET;
  93              		.loc 1 528 0
  94 001c 7A68     		ldr	r2, [r7, #4]
  95 001e F023     		mov	r3, #240
  96 0020 1B01     		lsl	r3, r3, #4
  97 0022 1340     		and	r3, r2
  98 0024 1B0A     		lsr	r3, r3, #8
  99 0026 FA68     		ldr	r2, [r7, #12]
ARM GAS  C:\Users\Petro\AppData\Local\Temp\ccd3b28V.s 			page 12


 100 0028 D318     		add	r3, r2, r3
 101 002a FB60     		str	r3, [r7, #12]
 529:Generated_Source\PSoC4/RTC.h **** 
 530:Generated_Source\PSoC4/RTC.h ****     return (retVal);
 102              		.loc 1 530 0
 103 002c FB68     		ldr	r3, [r7, #12]
 531:Generated_Source\PSoC4/RTC.h **** }
 104              		.loc 1 531 0
 105 002e 181C     		mov	r0, r3
 106 0030 BD46     		mov	sp, r7
 107 0032 04B0     		add	sp, sp, #16
 108              		@ sp needed
 109 0034 80BD     		pop	{r7, pc}
 110              		.cfi_endproc
 111              	.LFE5:
 112              		.size	RTC_GetMinutes, .-RTC_GetMinutes
 113 0036 C046     		.section	.text.RTC_GetHours,"ax",%progbits
 114              		.align	2
 115              		.code	16
 116              		.thumb_func
 117              		.type	RTC_GetHours, %function
 118              	RTC_GetHours:
 119              	.LFB6:
 532:Generated_Source\PSoC4/RTC.h **** 
 533:Generated_Source\PSoC4/RTC.h **** 
 534:Generated_Source\PSoC4/RTC.h **** /*******************************************************************************
 535:Generated_Source\PSoC4/RTC.h **** * Function Name: RTC_GetHours
 536:Generated_Source\PSoC4/RTC.h **** ****************************************************************************//**
 537:Generated_Source\PSoC4/RTC.h **** *
 538:Generated_Source\PSoC4/RTC.h **** * \brief
 539:Generated_Source\PSoC4/RTC.h **** *  Returns the hours value from the time value that is passed as a/the parameter.
 540:Generated_Source\PSoC4/RTC.h **** *
 541:Generated_Source\PSoC4/RTC.h **** * \param
 542:Generated_Source\PSoC4/RTC.h **** *  time The time value.
 543:Generated_Source\PSoC4/RTC.h **** *
 544:Generated_Source\PSoC4/RTC.h **** * \return
 545:Generated_Source\PSoC4/RTC.h **** *  The hours value.
 546:Generated_Source\PSoC4/RTC.h **** *
 547:Generated_Source\PSoC4/RTC.h **** *******************************************************************************/
 548:Generated_Source\PSoC4/RTC.h **** static CY_INLINE uint32 RTC_GetHours(uint32 inputTime)
 549:Generated_Source\PSoC4/RTC.h **** {
 120              		.loc 1 549 0
 121              		.cfi_startproc
 122 0000 80B5     		push	{r7, lr}
 123              		.cfi_def_cfa_offset 8
 124              		.cfi_offset 7, -8
 125              		.cfi_offset 14, -4
 126 0002 84B0     		sub	sp, sp, #16
 127              		.cfi_def_cfa_offset 24
 128 0004 00AF     		add	r7, sp, #0
 129              		.cfi_def_cfa_register 7
 130 0006 7860     		str	r0, [r7, #4]
 550:Generated_Source\PSoC4/RTC.h ****     uint32 retVal;
 551:Generated_Source\PSoC4/RTC.h **** 
 552:Generated_Source\PSoC4/RTC.h ****     retVal  = ((inputTime & RTC_10_HOURS_MASK) >> RTC_10_HOURS_OFFSET) * 10u;
 131              		.loc 1 552 0
 132 0008 7A68     		ldr	r2, [r7, #4]
ARM GAS  C:\Users\Petro\AppData\Local\Temp\ccd3b28V.s 			page 13


 133 000a C023     		mov	r3, #192
 134 000c 9B03     		lsl	r3, r3, #14
 135 000e 1340     		and	r3, r2
 136 0010 1A0D     		lsr	r2, r3, #20
 137 0012 131C     		mov	r3, r2
 138 0014 9B00     		lsl	r3, r3, #2
 139 0016 9B18     		add	r3, r3, r2
 140 0018 5B00     		lsl	r3, r3, #1
 141 001a FB60     		str	r3, [r7, #12]
 553:Generated_Source\PSoC4/RTC.h ****     retVal += (inputTime & RTC_HOURS_MASK) >> RTC_HOURS_OFFSET;
 142              		.loc 1 553 0
 143 001c 7A68     		ldr	r2, [r7, #4]
 144 001e F023     		mov	r3, #240
 145 0020 1B03     		lsl	r3, r3, #12
 146 0022 1340     		and	r3, r2
 147 0024 1B0C     		lsr	r3, r3, #16
 148 0026 FA68     		ldr	r2, [r7, #12]
 149 0028 D318     		add	r3, r2, r3
 150 002a FB60     		str	r3, [r7, #12]
 554:Generated_Source\PSoC4/RTC.h **** 
 555:Generated_Source\PSoC4/RTC.h ****     return (retVal);
 151              		.loc 1 555 0
 152 002c FB68     		ldr	r3, [r7, #12]
 556:Generated_Source\PSoC4/RTC.h **** }
 153              		.loc 1 556 0
 154 002e 181C     		mov	r0, r3
 155 0030 BD46     		mov	sp, r7
 156 0032 04B0     		add	sp, sp, #16
 157              		@ sp needed
 158 0034 80BD     		pop	{r7, pc}
 159              		.cfi_endproc
 160              	.LFE6:
 161              		.size	RTC_GetHours, .-RTC_GetHours
 162 0036 C046     		.section	.text.RTC_GetDay,"ax",%progbits
 163              		.align	2
 164              		.code	16
 165              		.thumb_func
 166              		.type	RTC_GetDay, %function
 167              	RTC_GetDay:
 168              	.LFB8:
 557:Generated_Source\PSoC4/RTC.h **** 
 558:Generated_Source\PSoC4/RTC.h **** 
 559:Generated_Source\PSoC4/RTC.h **** /*******************************************************************************
 560:Generated_Source\PSoC4/RTC.h **** * Function Name: RTC_GetAmPm
 561:Generated_Source\PSoC4/RTC.h **** ****************************************************************************//**
 562:Generated_Source\PSoC4/RTC.h **** *
 563:Generated_Source\PSoC4/RTC.h **** * \brief
 564:Generated_Source\PSoC4/RTC.h **** *  Returns the AM/PM status from the time value that is passed as parameter.
 565:Generated_Source\PSoC4/RTC.h **** *
 566:Generated_Source\PSoC4/RTC.h **** * \param
 567:Generated_Source\PSoC4/RTC.h **** *  time The time value.
 568:Generated_Source\PSoC4/RTC.h **** *
 569:Generated_Source\PSoC4/RTC.h **** * \return
 570:Generated_Source\PSoC4/RTC.h **** *  RTC_AM - AM.
 571:Generated_Source\PSoC4/RTC.h **** * \return
 572:Generated_Source\PSoC4/RTC.h **** *  RTC_PM - PM.
 573:Generated_Source\PSoC4/RTC.h **** *
ARM GAS  C:\Users\Petro\AppData\Local\Temp\ccd3b28V.s 			page 14


 574:Generated_Source\PSoC4/RTC.h **** *******************************************************************************/
 575:Generated_Source\PSoC4/RTC.h **** static CY_INLINE uint32 RTC_GetAmPm(uint32 inputTime)
 576:Generated_Source\PSoC4/RTC.h **** {
 577:Generated_Source\PSoC4/RTC.h ****     return (RTC_IsBitSet(inputTime, RTC_PERIOD_OF_DAY_MASK));
 578:Generated_Source\PSoC4/RTC.h **** }
 579:Generated_Source\PSoC4/RTC.h **** 
 580:Generated_Source\PSoC4/RTC.h **** 
 581:Generated_Source\PSoC4/RTC.h **** /*******************************************************************************
 582:Generated_Source\PSoC4/RTC.h **** * Function Name: RTC_GetDay
 583:Generated_Source\PSoC4/RTC.h **** ****************************************************************************//**
 584:Generated_Source\PSoC4/RTC.h **** *
 585:Generated_Source\PSoC4/RTC.h **** * \brief
 586:Generated_Source\PSoC4/RTC.h **** *  Returns the day value from the date value that is passed as parameter.
 587:Generated_Source\PSoC4/RTC.h **** *
 588:Generated_Source\PSoC4/RTC.h **** * \param
 589:Generated_Source\PSoC4/RTC.h **** *  date The date value.
 590:Generated_Source\PSoC4/RTC.h **** *
 591:Generated_Source\PSoC4/RTC.h **** * \return
 592:Generated_Source\PSoC4/RTC.h **** *  The day value.
 593:Generated_Source\PSoC4/RTC.h **** *
 594:Generated_Source\PSoC4/RTC.h **** *******************************************************************************/
 595:Generated_Source\PSoC4/RTC.h **** static CY_INLINE uint32 RTC_GetDay(uint32 date)
 596:Generated_Source\PSoC4/RTC.h **** {
 169              		.loc 1 596 0
 170              		.cfi_startproc
 171 0000 80B5     		push	{r7, lr}
 172              		.cfi_def_cfa_offset 8
 173              		.cfi_offset 7, -8
 174              		.cfi_offset 14, -4
 175 0002 84B0     		sub	sp, sp, #16
 176              		.cfi_def_cfa_offset 24
 177 0004 00AF     		add	r7, sp, #0
 178              		.cfi_def_cfa_register 7
 179 0006 7860     		str	r0, [r7, #4]
 597:Generated_Source\PSoC4/RTC.h ****     uint32 retVal;
 598:Generated_Source\PSoC4/RTC.h **** 
 599:Generated_Source\PSoC4/RTC.h ****     retVal  = ((date & RTC_10_DAY_MASK) >> RTC_10_DAY_OFFSET) * 10u;
 180              		.loc 1 599 0
 181 0008 7A68     		ldr	r2, [r7, #4]
 182 000a C023     		mov	r3, #192
 183 000c 9B03     		lsl	r3, r3, #14
 184 000e 1340     		and	r3, r2
 185 0010 1A0D     		lsr	r2, r3, #20
 186 0012 131C     		mov	r3, r2
 187 0014 9B00     		lsl	r3, r3, #2
 188 0016 9B18     		add	r3, r3, r2
 189 0018 5B00     		lsl	r3, r3, #1
 190 001a FB60     		str	r3, [r7, #12]
 600:Generated_Source\PSoC4/RTC.h ****     retVal += (date & RTC_DAY_MASK) >> RTC_DAY_OFFSET;
 191              		.loc 1 600 0
 192 001c 7A68     		ldr	r2, [r7, #4]
 193 001e F023     		mov	r3, #240
 194 0020 1B03     		lsl	r3, r3, #12
 195 0022 1340     		and	r3, r2
 196 0024 1B0C     		lsr	r3, r3, #16
 197 0026 FA68     		ldr	r2, [r7, #12]
 198 0028 D318     		add	r3, r2, r3
ARM GAS  C:\Users\Petro\AppData\Local\Temp\ccd3b28V.s 			page 15


 199 002a FB60     		str	r3, [r7, #12]
 601:Generated_Source\PSoC4/RTC.h **** 
 602:Generated_Source\PSoC4/RTC.h ****     return (retVal);
 200              		.loc 1 602 0
 201 002c FB68     		ldr	r3, [r7, #12]
 603:Generated_Source\PSoC4/RTC.h **** }
 202              		.loc 1 603 0
 203 002e 181C     		mov	r0, r3
 204 0030 BD46     		mov	sp, r7
 205 0032 04B0     		add	sp, sp, #16
 206              		@ sp needed
 207 0034 80BD     		pop	{r7, pc}
 208              		.cfi_endproc
 209              	.LFE8:
 210              		.size	RTC_GetDay, .-RTC_GetDay
 211 0036 C046     		.section	.text.RTC_GetMonth,"ax",%progbits
 212              		.align	2
 213              		.code	16
 214              		.thumb_func
 215              		.type	RTC_GetMonth, %function
 216              	RTC_GetMonth:
 217              	.LFB9:
 604:Generated_Source\PSoC4/RTC.h **** 
 605:Generated_Source\PSoC4/RTC.h **** 
 606:Generated_Source\PSoC4/RTC.h **** /*******************************************************************************
 607:Generated_Source\PSoC4/RTC.h **** * Function Name: RTC_GetMonth
 608:Generated_Source\PSoC4/RTC.h **** ****************************************************************************//**
 609:Generated_Source\PSoC4/RTC.h **** *
 610:Generated_Source\PSoC4/RTC.h **** * \brief
 611:Generated_Source\PSoC4/RTC.h **** *  Returns the month value from the date value that is passed as parameter.
 612:Generated_Source\PSoC4/RTC.h **** *
 613:Generated_Source\PSoC4/RTC.h **** * \param
 614:Generated_Source\PSoC4/RTC.h **** *  date The date value.
 615:Generated_Source\PSoC4/RTC.h **** *
 616:Generated_Source\PSoC4/RTC.h **** * \return
 617:Generated_Source\PSoC4/RTC.h **** *  The month value.
 618:Generated_Source\PSoC4/RTC.h **** *
 619:Generated_Source\PSoC4/RTC.h **** *******************************************************************************/
 620:Generated_Source\PSoC4/RTC.h **** static CY_INLINE uint32 RTC_GetMonth(uint32 date)
 621:Generated_Source\PSoC4/RTC.h **** {
 218              		.loc 1 621 0
 219              		.cfi_startproc
 220 0000 80B5     		push	{r7, lr}
 221              		.cfi_def_cfa_offset 8
 222              		.cfi_offset 7, -8
 223              		.cfi_offset 14, -4
 224 0002 84B0     		sub	sp, sp, #16
 225              		.cfi_def_cfa_offset 24
 226 0004 00AF     		add	r7, sp, #0
 227              		.cfi_def_cfa_register 7
 228 0006 7860     		str	r0, [r7, #4]
 622:Generated_Source\PSoC4/RTC.h ****     uint32 retVal;
 623:Generated_Source\PSoC4/RTC.h **** 
 624:Generated_Source\PSoC4/RTC.h ****     retVal  = ((date & RTC_10_MONTH_MASK) >> RTC_10_MONTH_OFFSET) * 10u;
 229              		.loc 1 624 0
 230 0008 7A68     		ldr	r2, [r7, #4]
 231 000a 8023     		mov	r3, #128
ARM GAS  C:\Users\Petro\AppData\Local\Temp\ccd3b28V.s 			page 16


 232 000c 5B05     		lsl	r3, r3, #21
 233 000e 1340     		and	r3, r2
 234 0010 1A0F     		lsr	r2, r3, #28
 235 0012 131C     		mov	r3, r2
 236 0014 9B00     		lsl	r3, r3, #2
 237 0016 9B18     		add	r3, r3, r2
 238 0018 5B00     		lsl	r3, r3, #1
 239 001a FB60     		str	r3, [r7, #12]
 625:Generated_Source\PSoC4/RTC.h ****     retVal += (date & RTC_MONTH_MASK) >> RTC_MONTH_OFFSET;
 240              		.loc 1 625 0
 241 001c 7A68     		ldr	r2, [r7, #4]
 242 001e F023     		mov	r3, #240
 243 0020 1B05     		lsl	r3, r3, #20
 244 0022 1340     		and	r3, r2
 245 0024 1B0E     		lsr	r3, r3, #24
 246 0026 FA68     		ldr	r2, [r7, #12]
 247 0028 D318     		add	r3, r2, r3
 248 002a FB60     		str	r3, [r7, #12]
 626:Generated_Source\PSoC4/RTC.h **** 
 627:Generated_Source\PSoC4/RTC.h ****     return (retVal);
 249              		.loc 1 627 0
 250 002c FB68     		ldr	r3, [r7, #12]
 628:Generated_Source\PSoC4/RTC.h **** }
 251              		.loc 1 628 0
 252 002e 181C     		mov	r0, r3
 253 0030 BD46     		mov	sp, r7
 254 0032 04B0     		add	sp, sp, #16
 255              		@ sp needed
 256 0034 80BD     		pop	{r7, pc}
 257              		.cfi_endproc
 258              	.LFE9:
 259              		.size	RTC_GetMonth, .-RTC_GetMonth
 260 0036 C046     		.section	.text.RTC_GetYear,"ax",%progbits
 261              		.align	2
 262              		.code	16
 263              		.thumb_func
 264              		.type	RTC_GetYear, %function
 265              	RTC_GetYear:
 266              	.LFB10:
 629:Generated_Source\PSoC4/RTC.h **** 
 630:Generated_Source\PSoC4/RTC.h **** 
 631:Generated_Source\PSoC4/RTC.h **** /*******************************************************************************
 632:Generated_Source\PSoC4/RTC.h **** * Function Name: RTC_GetYear
 633:Generated_Source\PSoC4/RTC.h **** ****************************************************************************//**
 634:Generated_Source\PSoC4/RTC.h **** *
 635:Generated_Source\PSoC4/RTC.h **** * \brief
 636:Generated_Source\PSoC4/RTC.h **** *  Returns the year value from the date value that is passed as parameter.
 637:Generated_Source\PSoC4/RTC.h **** *
 638:Generated_Source\PSoC4/RTC.h **** * \param
 639:Generated_Source\PSoC4/RTC.h **** *  date The date value.
 640:Generated_Source\PSoC4/RTC.h **** *
 641:Generated_Source\PSoC4/RTC.h **** * \return
 642:Generated_Source\PSoC4/RTC.h **** *  The year value.
 643:Generated_Source\PSoC4/RTC.h **** *
 644:Generated_Source\PSoC4/RTC.h **** *******************************************************************************/
 645:Generated_Source\PSoC4/RTC.h **** static CY_INLINE uint32 RTC_GetYear(uint32 date)
 646:Generated_Source\PSoC4/RTC.h **** {
ARM GAS  C:\Users\Petro\AppData\Local\Temp\ccd3b28V.s 			page 17


 267              		.loc 1 646 0
 268              		.cfi_startproc
 269 0000 80B5     		push	{r7, lr}
 270              		.cfi_def_cfa_offset 8
 271              		.cfi_offset 7, -8
 272              		.cfi_offset 14, -4
 273 0002 84B0     		sub	sp, sp, #16
 274              		.cfi_def_cfa_offset 24
 275 0004 00AF     		add	r7, sp, #0
 276              		.cfi_def_cfa_register 7
 277 0006 7860     		str	r0, [r7, #4]
 647:Generated_Source\PSoC4/RTC.h ****     uint32 retVal;
 648:Generated_Source\PSoC4/RTC.h **** 
 649:Generated_Source\PSoC4/RTC.h ****     retVal  = ((date & RTC_1000_YEAR_MASK) >> RTC_1000_YEAR_OFFSET) * 1000u;
 278              		.loc 1 649 0
 279 0008 7A68     		ldr	r2, [r7, #4]
 280 000a C023     		mov	r3, #192
 281 000c 9B01     		lsl	r3, r3, #6
 282 000e 1340     		and	r3, r2
 283 0010 1B0B     		lsr	r3, r3, #12
 284 0012 FA22     		mov	r2, #250
 285 0014 9200     		lsl	r2, r2, #2
 286 0016 5343     		mul	r3, r2
 287 0018 FB60     		str	r3, [r7, #12]
 650:Generated_Source\PSoC4/RTC.h ****     retVal += ((date & RTC_100_YEAR_MASK) >> RTC_100_YEAR_OFFSET) * 100u;
 288              		.loc 1 650 0
 289 001a 7A68     		ldr	r2, [r7, #4]
 290 001c F023     		mov	r3, #240
 291 001e 1B01     		lsl	r3, r3, #4
 292 0020 1340     		and	r3, r2
 293 0022 1B0A     		lsr	r3, r3, #8
 294 0024 6422     		mov	r2, #100
 295 0026 5343     		mul	r3, r2
 296 0028 FA68     		ldr	r2, [r7, #12]
 297 002a D318     		add	r3, r2, r3
 298 002c FB60     		str	r3, [r7, #12]
 651:Generated_Source\PSoC4/RTC.h ****     retVal += ((date & RTC_10_YEAR_MASK) >> RTC_10_YEAR_OFFSET) * 10u;
 299              		.loc 1 651 0
 300 002e 7B68     		ldr	r3, [r7, #4]
 301 0030 F022     		mov	r2, #240
 302 0032 1340     		and	r3, r2
 303 0034 1A09     		lsr	r2, r3, #4
 304 0036 131C     		mov	r3, r2
 305 0038 9B00     		lsl	r3, r3, #2
 306 003a 9B18     		add	r3, r3, r2
 307 003c 5B00     		lsl	r3, r3, #1
 308 003e 1A1C     		mov	r2, r3
 309 0040 FB68     		ldr	r3, [r7, #12]
 310 0042 9B18     		add	r3, r3, r2
 311 0044 FB60     		str	r3, [r7, #12]
 652:Generated_Source\PSoC4/RTC.h ****     retVal += (date & RTC_YEAR_MASK) >> RTC_YEAR_OFFSET;
 312              		.loc 1 652 0
 313 0046 7B68     		ldr	r3, [r7, #4]
 314 0048 0F22     		mov	r2, #15
 315 004a 1340     		and	r3, r2
 316 004c FA68     		ldr	r2, [r7, #12]
 317 004e D318     		add	r3, r2, r3
ARM GAS  C:\Users\Petro\AppData\Local\Temp\ccd3b28V.s 			page 18


 318 0050 FB60     		str	r3, [r7, #12]
 653:Generated_Source\PSoC4/RTC.h **** 
 654:Generated_Source\PSoC4/RTC.h ****     return (retVal);
 319              		.loc 1 654 0
 320 0052 FB68     		ldr	r3, [r7, #12]
 655:Generated_Source\PSoC4/RTC.h **** }
 321              		.loc 1 655 0
 322 0054 181C     		mov	r0, r3
 323 0056 BD46     		mov	sp, r7
 324 0058 04B0     		add	sp, sp, #16
 325              		@ sp needed
 326 005a 80BD     		pop	{r7, pc}
 327              		.cfi_endproc
 328              	.LFE10:
 329              		.size	RTC_GetYear, .-RTC_GetYear
 330              		.comm	fatFs,560,4
 331              		.comm	fileO,552,4
 332              		.comm	createFlag,4,4
 333              		.bss
 334              		.align	2
 335              	nameFile:
 336 0000 00000000 		.space	20
 336      00000000 
 336      00000000 
 336      00000000 
 336      00000000 
 337              		.data
 338              		.align	2
 339              		.type	idSkier, %object
 340              		.size	idSkier, 4
 341              	idSkier:
 342 0000 01000000 		.word	1
 343              		.align	2
 344              		.type	position, %object
 345              		.size	position, 4
 346              	position:
 347 0004 01000000 		.word	1
 348              		.section	.rodata
 349              		.align	2
 350              	.LC1:
 351 0000 00       		.ascii	"\000"
 352              		.section	.text.LogStart,"ax",%progbits
 353              		.align	2
 354              		.global	LogStart
 355              		.code	16
 356              		.thumb_func
 357              		.type	LogStart, %function
 358              	LogStart:
 359              	.LFB63:
 360              		.file 2 "lib_DB\\logResult.c"
   1:lib_DB/logResult.c **** #include <CyLib.h>
   2:lib_DB/logResult.c **** #include <stdio.h>
   3:lib_DB/logResult.c **** #include <RTC.h>
   4:lib_DB/logResult.c **** #include <project.h>
   5:lib_DB/logResult.c **** 
   6:lib_DB/logResult.c **** #include "lib_Fat\diskio.h"
   7:lib_DB/logResult.c **** #include <lib_BLE/bluetooth.h>
ARM GAS  C:\Users\Petro\AppData\Local\Temp\ccd3b28V.s 			page 19


   8:lib_DB/logResult.c **** #include "logResult.h"
   9:lib_DB/logResult.c **** 
  10:lib_DB/logResult.c **** /* lenth name .txt file */
  11:lib_DB/logResult.c **** #define LEN_NAME        20
  12:lib_DB/logResult.c **** 
  13:lib_DB/logResult.c **** /* lenth buffer from time skier */
  14:lib_DB/logResult.c **** #define LEN_DATA        20
  15:lib_DB/logResult.c **** 
  16:lib_DB/logResult.c **** /* len buffer to save information on SD card */
  17:lib_DB/logResult.c **** #define LEN_DATA_ALL    100
  18:lib_DB/logResult.c **** 
  19:lib_DB/logResult.c **** 
  20:lib_DB/logResult.c **** FATFS fatFs;    /* File object */
  21:lib_DB/logResult.c **** FIL fileO;      /* File info */
  22:lib_DB/logResult.c **** 
  23:lib_DB/logResult.c **** /* flag who shows that the establishment of the file */
  24:lib_DB/logResult.c **** DWORD createFlag;  
  25:lib_DB/logResult.c **** 
  26:lib_DB/logResult.c **** static char nameFile[LEN_NAME];
  27:lib_DB/logResult.c **** static uint32_t idSkier = 1;
  28:lib_DB/logResult.c **** static uint32_t position = 1;
  29:lib_DB/logResult.c **** 
  30:lib_DB/logResult.c **** /*******************************************************************************
  31:lib_DB/logResult.c **** * Function Name: LogStart
  32:lib_DB/logResult.c **** ********************************************************************************
  33:lib_DB/logResult.c **** *
  34:lib_DB/logResult.c **** * Summary:
  35:lib_DB/logResult.c **** *  Start log system(mount fat)
  36:lib_DB/logResult.c **** *
  37:lib_DB/logResult.c **** * Return:
  38:lib_DB/logResult.c **** *   resultF - result mount FAT system (from enum FRESULT)
  39:lib_DB/logResult.c **** *
  40:lib_DB/logResult.c **** *******************************************************************************/
  41:lib_DB/logResult.c **** uint32_t LogStart(void)
  42:lib_DB/logResult.c **** {
 361              		.loc 2 42 0
 362              		.cfi_startproc
 363 0000 90B5     		push	{r4, r7, lr}
 364              		.cfi_def_cfa_offset 12
 365              		.cfi_offset 4, -12
 366              		.cfi_offset 7, -8
 367              		.cfi_offset 14, -4
 368 0002 83B0     		sub	sp, sp, #12
 369              		.cfi_def_cfa_offset 24
 370 0004 00AF     		add	r7, sp, #0
 371              		.cfi_def_cfa_register 7
  43:lib_DB/logResult.c ****     uint8 resultF;
  44:lib_DB/logResult.c ****     
  45:lib_DB/logResult.c ****     /* Register work area to the default drive */
  46:lib_DB/logResult.c ****     resultF = f_mount(&fatFs, "", 1);
 372              		.loc 2 46 0
 373 0006 FC1D     		add	r4, r7, #7
 374 0008 074A     		ldr	r2, .L15
 375 000a 084B     		ldr	r3, .L15+4
 376 000c 101C     		mov	r0, r2
 377 000e 191C     		mov	r1, r3
 378 0010 0122     		mov	r2, #1
ARM GAS  C:\Users\Petro\AppData\Local\Temp\ccd3b28V.s 			page 20


 379 0012 FFF7FEFF 		bl	f_mount
 380 0016 031C     		mov	r3, r0
 381 0018 2370     		strb	r3, [r4]
  47:lib_DB/logResult.c ****     
  48:lib_DB/logResult.c ****     return resultF;   
 382              		.loc 2 48 0
 383 001a FB1D     		add	r3, r7, #7
 384 001c 1B78     		ldrb	r3, [r3]
  49:lib_DB/logResult.c **** }
 385              		.loc 2 49 0
 386 001e 181C     		mov	r0, r3
 387 0020 BD46     		mov	sp, r7
 388 0022 03B0     		add	sp, sp, #12
 389              		@ sp needed
 390 0024 90BD     		pop	{r4, r7, pc}
 391              	.L16:
 392 0026 C046     		.align	2
 393              	.L15:
 394 0028 00000000 		.word	fatFs
 395 002c 00000000 		.word	.LC1
 396              		.cfi_endproc
 397              	.LFE63:
 398              		.size	LogStart, .-LogStart
 399              		.section	.rodata
 400 0001 000000   		.align	2
 401              	.LC4:
 402 0004 25303264 		.ascii	"%02d_%02d_%d.txt\000"
 402      5F253032 
 402      645F2564 
 402      2E747874 
 402      00
 403 0015 000000   		.align	2
 404              	.LC8:
 405 0018 09092530 		.ascii	"\011\011%02lu:%02lu:%02lu:%03u\000"
 405      326C753A 
 405      2530326C 
 405      753A2530 
 405      326C753A 
 406 0031 000000   		.align	2
 407              	.LC10:
 408 0034 09092530 		.ascii	"\011\011%02lu:%03u\000"
 408      326C753A 
 408      25303375 
 408      00
 409 0041 000000   		.align	2
 410              	.LC13:
 411 0044 0A0D2564 		.ascii	"\012\015%d%s%s%s\012\015\000"
 411      25732573 
 411      25730A0D 
 411      00
 412 0051 000000   		.align	2
 413              	.LC15:
 414 0054 0D0A5379 		.ascii	"\015\012System started %02d:%02d:%02d\012\015\000"
 414      7374656D 
 414      20737461 
 414      72746564 
 414      20253032 
ARM GAS  C:\Users\Petro\AppData\Local\Temp\ccd3b28V.s 			page 21


 415 0076 0000     		.align	2
 416              	.LC17:
 417 0078 2D2D2D2D 		.ascii	"--------------------------------------------------\012"
 417      2D2D2D2D 
 417      2D2D2D2D 
 417      2D2D2D2D 
 417      2D2D2D2D 
 418 00ab 0D00     		.ascii	"\015\000"
 419 00ad 000000   		.align	2
 420              	.LC19:
 421 00b0 4E554D09 		.ascii	"NUM\011\011START\011\011\011FINISH\011\011\011RESUL"
 421      09535441 
 421      52540909 
 421      0946494E 
 421      49534809 
 422 00cb 540A0D00 		.ascii	"T\012\015\000"
 423              		.section	.text.WriteSkierResult,"ax",%progbits
 424              		.align	2
 425              		.global	WriteSkierResult
 426              		.code	16
 427              		.thumb_func
 428              		.type	WriteSkierResult, %function
 429              	WriteSkierResult:
 430              	.LFB64:
  50:lib_DB/logResult.c **** 
  51:lib_DB/logResult.c **** 
  52:lib_DB/logResult.c **** /*******************************************************************************
  53:lib_DB/logResult.c **** * Function Name: WriteSkierResult
  54:lib_DB/logResult.c **** ********************************************************************************
  55:lib_DB/logResult.c **** *
  56:lib_DB/logResult.c **** * Summary:
  57:lib_DB/logResult.c **** *  Start log system(mount fat)
  58:lib_DB/logResult.c **** *
  59:lib_DB/logResult.c **** * Parametrs:
  60:lib_DB/logResult.c **** *   *data - pointer from result skiers
  61:lib_DB/logResult.c **** * Return:
  62:lib_DB/logResult.c **** *   resultF - result mount FAT system (from enum FRESULT)
  63:lib_DB/logResult.c **** *
  64:lib_DB/logResult.c **** *******************************************************************************/
  65:lib_DB/logResult.c **** uint32_t WriteSkierResult(skierDB_El *data)
  66:lib_DB/logResult.c **** {
 431              		.loc 2 66 0
 432              		.cfi_startproc
 433 0000 B0B5     		push	{r4, r5, r7, lr}
 434              		.cfi_def_cfa_offset 16
 435              		.cfi_offset 4, -16
 436              		.cfi_offset 5, -12
 437              		.cfi_offset 7, -8
 438              		.cfi_offset 14, -4
 439 0002 B8B0     		sub	sp, sp, #224
 440              		.cfi_def_cfa_offset 240
 441 0004 02AF     		add	r7, sp, #8
 442              		.cfi_def_cfa 7, 232
 443 0006 7860     		str	r0, [r7, #4]
  67:lib_DB/logResult.c ****     uint8 resultF;
  68:lib_DB/logResult.c ****     uint count;
  69:lib_DB/logResult.c ****     
ARM GAS  C:\Users\Petro\AppData\Local\Temp\ccd3b28V.s 			page 22


  70:lib_DB/logResult.c ****     uint32_t nameYear;
  71:lib_DB/logResult.c ****     uint32_t nameMonth;
  72:lib_DB/logResult.c ****     uint32_t nameDay;
  73:lib_DB/logResult.c ****     uint32_t date;
  74:lib_DB/logResult.c ****     
  75:lib_DB/logResult.c ****     /*get date from RTC*/
  76:lib_DB/logResult.c ****     date = RTC_GetDate();
 444              		.loc 2 76 0
 445 0008 FFF7FEFF 		bl	RTC_GetDate
 446 000c 031C     		mov	r3, r0
 447 000e D022     		mov	r2, #208
 448 0010 BA18     		add	r2, r7, r2
 449 0012 1360     		str	r3, [r2]
  77:lib_DB/logResult.c ****     nameYear = RTC_GetYear(date)-2000;
 450              		.loc 2 77 0
 451 0014 D023     		mov	r3, #208
 452 0016 FB18     		add	r3, r7, r3
 453 0018 1B68     		ldr	r3, [r3]
 454 001a 181C     		mov	r0, r3
 455 001c FFF7FEFF 		bl	RTC_GetYear
 456 0020 031C     		mov	r3, r0
 457 0022 904A     		ldr	r2, .L22
 458 0024 9446     		mov	ip, r2
 459 0026 6344     		add	r3, r3, ip
 460 0028 CC22     		mov	r2, #204
 461 002a BA18     		add	r2, r7, r2
 462 002c 1360     		str	r3, [r2]
  78:lib_DB/logResult.c ****     nameMonth = RTC_GetMonth(date);
 463              		.loc 2 78 0
 464 002e D023     		mov	r3, #208
 465 0030 FB18     		add	r3, r7, r3
 466 0032 1B68     		ldr	r3, [r3]
 467 0034 181C     		mov	r0, r3
 468 0036 FFF7FEFF 		bl	RTC_GetMonth
 469 003a 031C     		mov	r3, r0
 470 003c C822     		mov	r2, #200
 471 003e BA18     		add	r2, r7, r2
 472 0040 1360     		str	r3, [r2]
  79:lib_DB/logResult.c ****     nameDay = RTC_GetDay(date);
 473              		.loc 2 79 0
 474 0042 D023     		mov	r3, #208
 475 0044 FB18     		add	r3, r7, r3
 476 0046 1B68     		ldr	r3, [r3]
 477 0048 181C     		mov	r0, r3
 478 004a FFF7FEFF 		bl	RTC_GetDay
 479 004e 031C     		mov	r3, r0
 480 0050 C422     		mov	r2, #196
 481 0052 BA18     		add	r2, r7, r2
 482 0054 1360     		str	r3, [r2]
  80:lib_DB/logResult.c ****     
  81:lib_DB/logResult.c ****     /*Construct name of file in format dd_mm_yyyy*/
  82:lib_DB/logResult.c ****     sprintf(nameFile,"%02d_%02d_%d.txt",nameDay,nameMonth,nameYear);
 483              		.loc 2 82 0
 484 0056 8448     		ldr	r0, .L22+4
 485 0058 8449     		ldr	r1, .L22+8
 486 005a C423     		mov	r3, #196
 487 005c FB18     		add	r3, r7, r3
ARM GAS  C:\Users\Petro\AppData\Local\Temp\ccd3b28V.s 			page 23


 488 005e 1A68     		ldr	r2, [r3]
 489 0060 C823     		mov	r3, #200
 490 0062 FB18     		add	r3, r7, r3
 491 0064 1C68     		ldr	r4, [r3]
 492 0066 CC23     		mov	r3, #204
 493 0068 FB18     		add	r3, r7, r3
 494 006a 1B68     		ldr	r3, [r3]
 495 006c 0093     		str	r3, [sp]
 496 006e 231C     		mov	r3, r4
 497 0070 FFF7FEFF 		bl	sprintf
  83:lib_DB/logResult.c ****     createFlag = 0;
 498              		.loc 2 83 0
 499 0074 7E4B     		ldr	r3, .L22+12
 500 0076 0022     		mov	r2, #0
 501 0078 1A60     		str	r2, [r3]
  84:lib_DB/logResult.c ****     resultF = f_open(&fileO, nameFile, FA_WRITE | FA_OPEN_APPEND, &createFlag);
 502              		.loc 2 84 0
 503 007a D723     		mov	r3, #215
 504 007c FC18     		add	r4, r7, r3
 505 007e 7D49     		ldr	r1, .L22+16
 506 0080 794A     		ldr	r2, .L22+4
 507 0082 7B4B     		ldr	r3, .L22+12
 508 0084 081C     		mov	r0, r1
 509 0086 111C     		mov	r1, r2
 510 0088 3222     		mov	r2, #50
 511 008a FFF7FEFF 		bl	f_open
 512 008e 031C     		mov	r3, r0
 513 0090 2370     		strb	r3, [r4]
  85:lib_DB/logResult.c ****     
  86:lib_DB/logResult.c ****     if(resultF == RES_OK)
 514              		.loc 2 86 0
 515 0092 D723     		mov	r3, #215
 516 0094 FB18     		add	r3, r7, r3
 517 0096 1B78     		ldrb	r3, [r3]
 518 0098 002B     		cmp	r3, #0
 519 009a 00D0     		beq	.LCB405
 520 009c DAE0     		b	.L18	@long jump
 521              	.LCB405:
 522              	.LBB2:
  87:lib_DB/logResult.c ****     {
  88:lib_DB/logResult.c ****         /*Construct save data*/
  89:lib_DB/logResult.c ****         char start[LEN_DATA];
  90:lib_DB/logResult.c ****         char finish[LEN_DATA];
  91:lib_DB/logResult.c ****         char result[LEN_DATA];
  92:lib_DB/logResult.c ****         char writeData[LEN_DATA_ALL];
  93:lib_DB/logResult.c ****         
  94:lib_DB/logResult.c ****         RTC_DATE_TIME time;
  95:lib_DB/logResult.c ****         
  96:lib_DB/logResult.c ****         
  97:lib_DB/logResult.c ****         /*read unix time*/
  98:lib_DB/logResult.c ****         RTC_UnixToDateTime(&time, data->unixStartSkier, RTC_24_HOURS_FORMAT);
 523              		.loc 2 98 0
 524 009e 7B68     		ldr	r3, [r7, #4]
 525 00a0 5C68     		ldr	r4, [r3, #4]
 526 00a2 1B68     		ldr	r3, [r3]
 527 00a4 7022     		mov	r2, #112
 528 00a6 B918     		add	r1, r7, r2
ARM GAS  C:\Users\Petro\AppData\Local\Temp\ccd3b28V.s 			page 24


 529 00a8 0022     		mov	r2, #0
 530 00aa 0092     		str	r2, [sp]
 531 00ac 081C     		mov	r0, r1
 532 00ae 1A1C     		mov	r2, r3
 533 00b0 231C     		mov	r3, r4
 534 00b2 FFF7FEFF 		bl	RTC_UnixToDateTime
  99:lib_DB/logResult.c ****         sprintf(start, "\t\t%02lu:%02lu:%02lu:%03u",RTC_GetHours(time.time),RTC_GetMinutes(time.tim
 535              		.loc 2 99 0
 536 00b6 7023     		mov	r3, #112
 537 00b8 FB18     		add	r3, r7, r3
 538 00ba 1B68     		ldr	r3, [r3]
 539 00bc 181C     		mov	r0, r3
 540 00be FFF7FEFF 		bl	RTC_GetHours
 541 00c2 051C     		mov	r5, r0
 542 00c4 7023     		mov	r3, #112
 543 00c6 FB18     		add	r3, r7, r3
 544 00c8 1B68     		ldr	r3, [r3]
 545 00ca 181C     		mov	r0, r3
 546 00cc FFF7FEFF 		bl	RTC_GetMinutes
 547 00d0 041C     		mov	r4, r0
 548 00d2 7023     		mov	r3, #112
 549 00d4 FB18     		add	r3, r7, r3
 550 00d6 1B68     		ldr	r3, [r3]
 551 00d8 181C     		mov	r0, r3
 552 00da FFF7FEFF 		bl	RTC_GetSecond
 553 00de 7B68     		ldr	r3, [r7, #4]
 554 00e0 1B89     		ldrh	r3, [r3, #8]
 555 00e2 191C     		mov	r1, r3
 556 00e4 A823     		mov	r3, #168
 557 00e6 FA18     		add	r2, r7, r3
 558 00e8 634B     		ldr	r3, .L22+20
 559 00ea 0090     		str	r0, [sp]
 560 00ec 0191     		str	r1, [sp, #4]
 561 00ee 101C     		mov	r0, r2
 562 00f0 191C     		mov	r1, r3
 563 00f2 2A1C     		mov	r2, r5
 564 00f4 231C     		mov	r3, r4
 565 00f6 FFF7FEFF 		bl	sprintf
 100:lib_DB/logResult.c ****         RTC_UnixToDateTime(&time, data->unixFinishSkier, RTC_24_HOURS_FORMAT);
 566              		.loc 2 100 0
 567 00fa 7B68     		ldr	r3, [r7, #4]
 568 00fc 5C69     		ldr	r4, [r3, #20]
 569 00fe 1B69     		ldr	r3, [r3, #16]
 570 0100 7022     		mov	r2, #112
 571 0102 B918     		add	r1, r7, r2
 572 0104 0022     		mov	r2, #0
 573 0106 0092     		str	r2, [sp]
 574 0108 081C     		mov	r0, r1
 575 010a 1A1C     		mov	r2, r3
 576 010c 231C     		mov	r3, r4
 577 010e FFF7FEFF 		bl	RTC_UnixToDateTime
 101:lib_DB/logResult.c ****         sprintf(finish, "\t\t%02lu:%02lu:%02lu:%03u",RTC_GetHours(time.time),RTC_GetMinutes(time.ti
 578              		.loc 2 101 0
 579 0112 7023     		mov	r3, #112
 580 0114 FB18     		add	r3, r7, r3
 581 0116 1B68     		ldr	r3, [r3]
 582 0118 181C     		mov	r0, r3
ARM GAS  C:\Users\Petro\AppData\Local\Temp\ccd3b28V.s 			page 25


 583 011a FFF7FEFF 		bl	RTC_GetHours
 584 011e 051C     		mov	r5, r0
 585 0120 7023     		mov	r3, #112
 586 0122 FB18     		add	r3, r7, r3
 587 0124 1B68     		ldr	r3, [r3]
 588 0126 181C     		mov	r0, r3
 589 0128 FFF7FEFF 		bl	RTC_GetMinutes
 590 012c 041C     		mov	r4, r0
 591 012e 7023     		mov	r3, #112
 592 0130 FB18     		add	r3, r7, r3
 593 0132 1B68     		ldr	r3, [r3]
 594 0134 181C     		mov	r0, r3
 595 0136 FFF7FEFF 		bl	RTC_GetSecond
 596 013a 7B68     		ldr	r3, [r7, #4]
 597 013c 1B8B     		ldrh	r3, [r3, #24]
 598 013e 191C     		mov	r1, r3
 599 0140 9423     		mov	r3, #148
 600 0142 FA18     		add	r2, r7, r3
 601 0144 4C4B     		ldr	r3, .L22+20
 602 0146 0090     		str	r0, [sp]
 603 0148 0191     		str	r1, [sp, #4]
 604 014a 101C     		mov	r0, r2
 605 014c 191C     		mov	r1, r3
 606 014e 2A1C     		mov	r2, r5
 607 0150 231C     		mov	r3, r4
 608 0152 FFF7FEFF 		bl	sprintf
 102:lib_DB/logResult.c ****         sprintf(result, "\t\t%02lu:%03u",(uint32)data->secondsWay,data->millsWay);
 609              		.loc 2 102 0
 610 0156 7B68     		ldr	r3, [r7, #4]
 611 0158 5C6A     		ldr	r4, [r3, #36]
 612 015a 1B6A     		ldr	r3, [r3, #32]
 613 015c 1D1C     		mov	r5, r3
 614 015e 7B68     		ldr	r3, [r7, #4]
 615 0160 1B8D     		ldrh	r3, [r3, #40]
 616 0162 1C1C     		mov	r4, r3
 617 0164 8023     		mov	r3, #128
 618 0166 FA18     		add	r2, r7, r3
 619 0168 444B     		ldr	r3, .L22+24
 620 016a 101C     		mov	r0, r2
 621 016c 191C     		mov	r1, r3
 622 016e 2A1C     		mov	r2, r5
 623 0170 231C     		mov	r3, r4
 624 0172 FFF7FEFF 		bl	sprintf
 103:lib_DB/logResult.c ****         sprintf(writeData,"\n\r%d%s%s%s\n\r",position, start, finish, result);
 625              		.loc 2 103 0
 626 0176 424B     		ldr	r3, .L22+28
 627 0178 1A68     		ldr	r2, [r3]
 628 017a 0C23     		mov	r3, #12
 629 017c F818     		add	r0, r7, r3
 630 017e 4149     		ldr	r1, .L22+32
 631 0180 A823     		mov	r3, #168
 632 0182 FC18     		add	r4, r7, r3
 633 0184 9423     		mov	r3, #148
 634 0186 FB18     		add	r3, r7, r3
 635 0188 0093     		str	r3, [sp]
 636 018a 8023     		mov	r3, #128
 637 018c FB18     		add	r3, r7, r3
ARM GAS  C:\Users\Petro\AppData\Local\Temp\ccd3b28V.s 			page 26


 638 018e 0193     		str	r3, [sp, #4]
 639 0190 231C     		mov	r3, r4
 640 0192 FFF7FEFF 		bl	sprintf
 104:lib_DB/logResult.c ****               
 105:lib_DB/logResult.c ****         if((position == 1) || (createFlag == 1))
 641              		.loc 2 105 0
 642 0196 3A4B     		ldr	r3, .L22+28
 643 0198 1B68     		ldr	r3, [r3]
 644 019a 012B     		cmp	r3, #1
 645 019c 03D0     		beq	.L19
 646              		.loc 2 105 0 is_stmt 0 discriminator 1
 647 019e 344B     		ldr	r3, .L22+12
 648 01a0 1B68     		ldr	r3, [r3]
 649 01a2 012B     		cmp	r3, #1
 650 01a4 35D1     		bne	.L20
 651              	.L19:
 652              	.LBB3:
 106:lib_DB/logResult.c ****         {
 107:lib_DB/logResult.c ****             /*write new "cap"*/
 108:lib_DB/logResult.c ****             uint32_t tmpTime ;
 109:lib_DB/logResult.c ****             
 110:lib_DB/logResult.c ****             tmpTime = RTC_GetTime();
 653              		.loc 2 110 0 is_stmt 1
 654 01a6 FFF7FEFF 		bl	RTC_GetTime
 655 01aa 031C     		mov	r3, r0
 656 01ac C022     		mov	r2, #192
 657 01ae BA18     		add	r2, r7, r2
 658 01b0 1360     		str	r3, [r2]
 111:lib_DB/logResult.c ****             f_printf(&fileO,"\r\nSystem started %02d:%02d:%02d\n\r", RTC_GetHours(tmpTime),RTC_GetM
 659              		.loc 2 111 0
 660 01b2 C023     		mov	r3, #192
 661 01b4 FB18     		add	r3, r7, r3
 662 01b6 1B68     		ldr	r3, [r3]
 663 01b8 181C     		mov	r0, r3
 664 01ba FFF7FEFF 		bl	RTC_GetHours
 665 01be 051C     		mov	r5, r0
 666 01c0 C023     		mov	r3, #192
 667 01c2 FB18     		add	r3, r7, r3
 668 01c4 1B68     		ldr	r3, [r3]
 669 01c6 181C     		mov	r0, r3
 670 01c8 FFF7FEFF 		bl	RTC_GetMinutes
 671 01cc 041C     		mov	r4, r0
 672 01ce C023     		mov	r3, #192
 673 01d0 FB18     		add	r3, r7, r3
 674 01d2 1B68     		ldr	r3, [r3]
 675 01d4 181C     		mov	r0, r3
 676 01d6 FFF7FEFF 		bl	RTC_GetSecond
 677 01da 011C     		mov	r1, r0
 678 01dc 254A     		ldr	r2, .L22+16
 679 01de 2A4B     		ldr	r3, .L22+36
 680 01e0 0091     		str	r1, [sp]
 681 01e2 101C     		mov	r0, r2
 682 01e4 191C     		mov	r1, r3
 683 01e6 2A1C     		mov	r2, r5
 684 01e8 231C     		mov	r3, r4
 685 01ea FFF7FEFF 		bl	f_printf
 112:lib_DB/logResult.c ****             f_printf(&fileO,"--------------------------------------------------\n\r");
ARM GAS  C:\Users\Petro\AppData\Local\Temp\ccd3b28V.s 			page 27


 686              		.loc 2 112 0
 687 01ee 214A     		ldr	r2, .L22+16
 688 01f0 264B     		ldr	r3, .L22+40
 689 01f2 101C     		mov	r0, r2
 690 01f4 191C     		mov	r1, r3
 691 01f6 FFF7FEFF 		bl	f_printf
 113:lib_DB/logResult.c ****             f_printf(&fileO,"NUM\t\tSTART\t\t\tFINISH\t\t\tRESULT\n\r");
 692              		.loc 2 113 0
 693 01fa 1E4A     		ldr	r2, .L22+16
 694 01fc 244B     		ldr	r3, .L22+44
 695 01fe 101C     		mov	r0, r2
 696 0200 191C     		mov	r1, r3
 697 0202 FFF7FEFF 		bl	f_printf
 114:lib_DB/logResult.c ****             f_printf(&fileO,"--------------------------------------------------\n\r");
 698              		.loc 2 114 0
 699 0206 1B4A     		ldr	r2, .L22+16
 700 0208 204B     		ldr	r3, .L22+40
 701 020a 101C     		mov	r0, r2
 702 020c 191C     		mov	r1, r3
 703 020e FFF7FEFF 		bl	f_printf
 704              	.L20:
 705              	.LBE3:
 115:lib_DB/logResult.c ****             
 116:lib_DB/logResult.c ****         }
 117:lib_DB/logResult.c ****         
 118:lib_DB/logResult.c ****         /*write data*/
 119:lib_DB/logResult.c ****         resultF = f_write(&fileO, writeData, strlen(writeData),&count);
 706              		.loc 2 119 0
 707 0212 0C23     		mov	r3, #12
 708 0214 FB18     		add	r3, r7, r3
 709 0216 181C     		mov	r0, r3
 710 0218 FFF7FEFF 		bl	strlen
 711 021c 051C     		mov	r5, r0
 712 021e D723     		mov	r3, #215
 713 0220 FC18     		add	r4, r7, r3
 714 0222 1449     		ldr	r1, .L22+16
 715 0224 0C23     		mov	r3, #12
 716 0226 FA18     		add	r2, r7, r3
 717 0228 BC23     		mov	r3, #188
 718 022a FB18     		add	r3, r7, r3
 719 022c 081C     		mov	r0, r1
 720 022e 111C     		mov	r1, r2
 721 0230 2A1C     		mov	r2, r5
 722 0232 FFF7FEFF 		bl	f_write
 723 0236 031C     		mov	r3, r0
 724 0238 2370     		strb	r3, [r4]
 120:lib_DB/logResult.c ****         resultF = f_close(&fileO);
 725              		.loc 2 120 0
 726 023a D723     		mov	r3, #215
 727 023c FC18     		add	r4, r7, r3
 728 023e 0D4B     		ldr	r3, .L22+16
 729 0240 181C     		mov	r0, r3
 730 0242 FFF7FEFF 		bl	f_close
 731 0246 031C     		mov	r3, r0
 732 0248 2370     		strb	r3, [r4]
 121:lib_DB/logResult.c ****         position++;
 733              		.loc 2 121 0
ARM GAS  C:\Users\Petro\AppData\Local\Temp\ccd3b28V.s 			page 28


 734 024a 0D4B     		ldr	r3, .L22+28
 735 024c 1B68     		ldr	r3, [r3]
 736 024e 5A1C     		add	r2, r3, #1
 737 0250 0B4B     		ldr	r3, .L22+28
 738 0252 1A60     		str	r2, [r3]
 739              	.L18:
 740              	.LBE2:
 122:lib_DB/logResult.c ****     }
 123:lib_DB/logResult.c ****     
 124:lib_DB/logResult.c ****     return resultF;
 741              		.loc 2 124 0
 742 0254 D723     		mov	r3, #215
 743 0256 FB18     		add	r3, r7, r3
 744 0258 1B78     		ldrb	r3, [r3]
 125:lib_DB/logResult.c **** }
 745              		.loc 2 125 0
 746 025a 181C     		mov	r0, r3
 747 025c BD46     		mov	sp, r7
 748 025e 36B0     		add	sp, sp, #216
 749              		@ sp needed
 750 0260 B0BD     		pop	{r4, r5, r7, pc}
 751              	.L23:
 752 0262 C046     		.align	2
 753              	.L22:
 754 0264 30F8FFFF 		.word	-2000
 755 0268 00000000 		.word	nameFile
 756 026c 04000000 		.word	.LC4
 757 0270 00000000 		.word	createFlag
 758 0274 00000000 		.word	fileO
 759 0278 18000000 		.word	.LC8
 760 027c 34000000 		.word	.LC10
 761 0280 04000000 		.word	position
 762 0284 44000000 		.word	.LC13
 763 0288 54000000 		.word	.LC15
 764 028c 78000000 		.word	.LC17
 765 0290 B0000000 		.word	.LC19
 766              		.cfi_endproc
 767              	.LFE64:
 768              		.size	WriteSkierResult, .-WriteSkierResult
 769              		.section	.rodata
 770 00cf 00       		.align	2
 771              	.LC24:
 772 00d0 72656164 		.ascii	"read file\012\015\000"
 772      2066696C 
 772      650A0D00 
 773              		.align	2
 774              	.LC27:
 775 00dc 0A0D00   		.ascii	"\012\015\000"
 776 00df 00       		.section	.text.ReadSkierResultAndSendBLE,"ax",%progbits
 777              		.align	2
 778              		.global	ReadSkierResultAndSendBLE
 779              		.code	16
 780              		.thumb_func
 781              		.type	ReadSkierResultAndSendBLE, %function
 782              	ReadSkierResultAndSendBLE:
 783              	.LFB65:
 126:lib_DB/logResult.c **** 
ARM GAS  C:\Users\Petro\AppData\Local\Temp\ccd3b28V.s 			page 29


 127:lib_DB/logResult.c **** /*read and send bluetooth skier result*/
 128:lib_DB/logResult.c **** uint32_t ReadSkierResultAndSendBLE(void)
 129:lib_DB/logResult.c **** {
 784              		.loc 2 129 0
 785              		.cfi_startproc
 786 0000 80B5     		push	{r7, lr}
 787              		.cfi_def_cfa_offset 8
 788              		.cfi_offset 7, -8
 789              		.cfi_offset 14, -4
 790 0002 A2B0     		sub	sp, sp, #136
 791              		.cfi_def_cfa_offset 144
 792 0004 00AF     		add	r7, sp, #0
 793              		.cfi_def_cfa_register 7
 130:lib_DB/logResult.c ****     uint32_t resultF;
 131:lib_DB/logResult.c ****     char line[82];
 132:lib_DB/logResult.c ****     
 133:lib_DB/logResult.c ****     /*for send to buetooth*/
 134:lib_DB/logResult.c ****     uint16_t sendIdSkier ;
 135:lib_DB/logResult.c ****     uint16_t sendStartTime[LENGHT_DATA_BUFFER];
 136:lib_DB/logResult.c ****     uint16_t sendFinishTime[LENGHT_DATA_BUFFER];
 137:lib_DB/logResult.c ****     uint16_t sendResultTime[LENGHT_DATA_BUFFER];
 138:lib_DB/logResult.c ****     
 139:lib_DB/logResult.c ****     createFlag = 0;    
 794              		.loc 2 139 0
 795 0006 C34B     		ldr	r3, .L46
 796 0008 0022     		mov	r2, #0
 797 000a 1A60     		str	r2, [r3]
 140:lib_DB/logResult.c ****     resultF = f_open(&fileO, nameFile, FA_READ , &createFlag);
 798              		.loc 2 140 0
 799 000c C249     		ldr	r1, .L46+4
 800 000e C34A     		ldr	r2, .L46+8
 801 0010 C04B     		ldr	r3, .L46
 802 0012 081C     		mov	r0, r1
 803 0014 111C     		mov	r1, r2
 804 0016 0122     		mov	r2, #1
 805 0018 FFF7FEFF 		bl	f_open
 806 001c 031C     		mov	r3, r0
 807 001e 3B67     		str	r3, [r7, #112]
 141:lib_DB/logResult.c ****     
 142:lib_DB/logResult.c ****     SW_UART_DEBUG_PutString("read file\n\r");
 808              		.loc 2 142 0
 809 0020 BF4B     		ldr	r3, .L46+12
 810 0022 181C     		mov	r0, r3
 811 0024 FFF7FEFF 		bl	SW_UART_DEBUG_PutString
 143:lib_DB/logResult.c ****     while (f_gets(line, sizeof line, &fileO))
 812              		.loc 2 143 0
 813 0028 5EE1     		b	.L25
 814              	.L44:
 815              	.LBB4:
 144:lib_DB/logResult.c ****     {    
 145:lib_DB/logResult.c ****         uint32_t pointer = 0;
 816              		.loc 2 145 0
 817 002a 0023     		mov	r3, #0
 818 002c 8022     		mov	r2, #128
 819 002e BA18     		add	r2, r7, r2
 820 0030 1360     		str	r3, [r2]
 146:lib_DB/logResult.c ****         uint32_t coeff = 1;
ARM GAS  C:\Users\Petro\AppData\Local\Temp\ccd3b28V.s 			page 30


 821              		.loc 2 146 0
 822 0032 0123     		mov	r3, #1
 823 0034 FB67     		str	r3, [r7, #124]
 147:lib_DB/logResult.c ****         uint8_t counterMas = 0;
 824              		.loc 2 147 0
 825 0036 7B23     		mov	r3, #123
 826 0038 FB18     		add	r3, r7, r3
 827 003a 0022     		mov	r2, #0
 828 003c 1A70     		strb	r2, [r3]
 148:lib_DB/logResult.c ****         
 149:lib_DB/logResult.c ****         typedef enum {MAS_START_TIME,MAS_FINISH_TIME, MAS_RESULT_TIME}numMas;
 150:lib_DB/logResult.c ****         numMas currentMas ;
 151:lib_DB/logResult.c ****         
 152:lib_DB/logResult.c ****         if(isdigit(line[pointer]))
 829              		.loc 2 152 0
 830 003e B94B     		ldr	r3, .L46+16
 831 0040 1A68     		ldr	r2, [r3]
 832 0042 1C23     		mov	r3, #28
 833 0044 F918     		add	r1, r7, r3
 834 0046 8023     		mov	r3, #128
 835 0048 FB18     		add	r3, r7, r3
 836 004a 1B68     		ldr	r3, [r3]
 837 004c CB18     		add	r3, r1, r3
 838 004e 1B78     		ldrb	r3, [r3]
 839 0050 0133     		add	r3, r3, #1
 840 0052 D318     		add	r3, r2, r3
 841 0054 1B78     		ldrb	r3, [r3]
 842 0056 1A1C     		mov	r2, r3
 843 0058 0423     		mov	r3, #4
 844 005a 1340     		and	r3, r2
 845 005c 00D1     		bne	.LCB699
 846 005e 43E1     		b	.L25	@long jump
 847              	.LCB699:
 848              	.LBB5:
 153:lib_DB/logResult.c ****         {
 154:lib_DB/logResult.c ****             /*clear buffer*/
 155:lib_DB/logResult.c ****             int i;
 156:lib_DB/logResult.c ****             for(i=0;i<4; i++)
 849              		.loc 2 156 0
 850 0060 0023     		mov	r3, #0
 851 0062 7B67     		str	r3, [r7, #116]
 852 0064 13E0     		b	.L26
 853              	.L27:
 157:lib_DB/logResult.c ****             {
 158:lib_DB/logResult.c ****                 sendStartTime[i] = 0;
 854              		.loc 2 158 0 discriminator 3
 855 0066 1423     		mov	r3, #20
 856 0068 FB18     		add	r3, r7, r3
 857 006a 7A6F     		ldr	r2, [r7, #116]
 858 006c 5200     		lsl	r2, r2, #1
 859 006e 0021     		mov	r1, #0
 860 0070 D152     		strh	r1, [r2, r3]
 159:lib_DB/logResult.c ****                 sendFinishTime[i] = 0;
 861              		.loc 2 159 0 discriminator 3
 862 0072 0C23     		mov	r3, #12
 863 0074 FB18     		add	r3, r7, r3
 864 0076 7A6F     		ldr	r2, [r7, #116]
ARM GAS  C:\Users\Petro\AppData\Local\Temp\ccd3b28V.s 			page 31


 865 0078 5200     		lsl	r2, r2, #1
 866 007a 0021     		mov	r1, #0
 867 007c D152     		strh	r1, [r2, r3]
 160:lib_DB/logResult.c ****                 sendResultTime[i] = 0;
 868              		.loc 2 160 0 discriminator 3
 869 007e 3B1D     		add	r3, r7, #4
 870 0080 7A6F     		ldr	r2, [r7, #116]
 871 0082 5200     		lsl	r2, r2, #1
 872 0084 0021     		mov	r1, #0
 873 0086 D152     		strh	r1, [r2, r3]
 156:lib_DB/logResult.c ****             {
 874              		.loc 2 156 0 discriminator 3
 875 0088 7B6F     		ldr	r3, [r7, #116]
 876 008a 0133     		add	r3, r3, #1
 877 008c 7B67     		str	r3, [r7, #116]
 878              	.L26:
 156:lib_DB/logResult.c ****             {
 879              		.loc 2 156 0 is_stmt 0 discriminator 1
 880 008e 7B6F     		ldr	r3, [r7, #116]
 881 0090 032B     		cmp	r3, #3
 882 0092 E8DD     		ble	.L27
 161:lib_DB/logResult.c ****             }
 162:lib_DB/logResult.c ****             
 163:lib_DB/logResult.c ****             /*write id skier*/
 164:lib_DB/logResult.c ****             sendIdSkier = 0;
 883              		.loc 2 164 0 is_stmt 1
 884 0094 8623     		mov	r3, #134
 885 0096 FB18     		add	r3, r7, r3
 886 0098 0022     		mov	r2, #0
 887 009a 1A80     		strh	r2, [r3]
 165:lib_DB/logResult.c ****             while(isdigit(line[pointer]))
 888              		.loc 2 165 0
 889 009c 21E0     		b	.L28
 890              	.L29:
 166:lib_DB/logResult.c ****             {
 167:lib_DB/logResult.c ****                 sendIdSkier = sendIdSkier*coeff + (line[pointer]-'0');
 891              		.loc 2 167 0
 892 009e FB6F     		ldr	r3, [r7, #124]
 893 00a0 9BB2     		uxth	r3, r3
 894 00a2 8622     		mov	r2, #134
 895 00a4 BA18     		add	r2, r7, r2
 896 00a6 1288     		ldrh	r2, [r2]
 897 00a8 5343     		mul	r3, r2
 898 00aa 9AB2     		uxth	r2, r3
 899 00ac 1C23     		mov	r3, #28
 900 00ae F918     		add	r1, r7, r3
 901 00b0 8023     		mov	r3, #128
 902 00b2 FB18     		add	r3, r7, r3
 903 00b4 1B68     		ldr	r3, [r3]
 904 00b6 CB18     		add	r3, r1, r3
 905 00b8 1B78     		ldrb	r3, [r3]
 906 00ba 9BB2     		uxth	r3, r3
 907 00bc D318     		add	r3, r2, r3
 908 00be 9AB2     		uxth	r2, r3
 909 00c0 8623     		mov	r3, #134
 910 00c2 FB18     		add	r3, r7, r3
 911 00c4 303A     		sub	r2, r2, #48
ARM GAS  C:\Users\Petro\AppData\Local\Temp\ccd3b28V.s 			page 32


 912 00c6 1A80     		strh	r2, [r3]
 168:lib_DB/logResult.c ****                 pointer++;
 913              		.loc 2 168 0
 914 00c8 8023     		mov	r3, #128
 915 00ca FB18     		add	r3, r7, r3
 916 00cc 1B68     		ldr	r3, [r3]
 917 00ce 0133     		add	r3, r3, #1
 918 00d0 8022     		mov	r2, #128
 919 00d2 BA18     		add	r2, r7, r2
 920 00d4 1360     		str	r3, [r2]
 169:lib_DB/logResult.c ****                 coeff *= 10;
 921              		.loc 2 169 0
 922 00d6 FA6F     		ldr	r2, [r7, #124]
 923 00d8 131C     		mov	r3, r2
 924 00da 9B00     		lsl	r3, r3, #2
 925 00dc 9B18     		add	r3, r3, r2
 926 00de 5B00     		lsl	r3, r3, #1
 927 00e0 FB67     		str	r3, [r7, #124]
 928              	.L28:
 165:lib_DB/logResult.c ****             {
 929              		.loc 2 165 0
 930 00e2 904B     		ldr	r3, .L46+16
 931 00e4 1A68     		ldr	r2, [r3]
 932 00e6 1C23     		mov	r3, #28
 933 00e8 F918     		add	r1, r7, r3
 934 00ea 8023     		mov	r3, #128
 935 00ec FB18     		add	r3, r7, r3
 936 00ee 1B68     		ldr	r3, [r3]
 937 00f0 CB18     		add	r3, r1, r3
 938 00f2 1B78     		ldrb	r3, [r3]
 939 00f4 0133     		add	r3, r3, #1
 940 00f6 D318     		add	r3, r2, r3
 941 00f8 1B78     		ldrb	r3, [r3]
 942 00fa 1A1C     		mov	r2, r3
 943 00fc 0423     		mov	r3, #4
 944 00fe 1340     		and	r3, r2
 945 0100 CDD1     		bne	.L29
 170:lib_DB/logResult.c ****             }
 171:lib_DB/logResult.c ****             
 172:lib_DB/logResult.c ****             currentMas = MAS_START_TIME;
 946              		.loc 2 172 0
 947 0102 7A23     		mov	r3, #122
 948 0104 FB18     		add	r3, r7, r3
 949 0106 0022     		mov	r2, #0
 950 0108 1A70     		strb	r2, [r3]
 173:lib_DB/logResult.c ****             while((line[pointer] != '\n') && (line[pointer] != '\r'))
 951              		.loc 2 173 0
 952 010a C2E0     		b	.L30
 953              	.L43:
 174:lib_DB/logResult.c ****             {            
 175:lib_DB/logResult.c ****                 /*write time start skier*/
 176:lib_DB/logResult.c ****                 coeff = 1;
 954              		.loc 2 176 0
 955 010c 0123     		mov	r3, #1
 956 010e FB67     		str	r3, [r7, #124]
 177:lib_DB/logResult.c ****                 counterMas = 0;
 957              		.loc 2 177 0
ARM GAS  C:\Users\Petro\AppData\Local\Temp\ccd3b28V.s 			page 33


 958 0110 7B23     		mov	r3, #123
 959 0112 FB18     		add	r3, r7, r3
 960 0114 0022     		mov	r2, #0
 961 0116 1A70     		strb	r2, [r3]
 178:lib_DB/logResult.c ****                 while(isdigit(line[pointer]) || (line[pointer] == ':'))
 962              		.loc 2 178 0
 963 0118 81E0     		b	.L31
 964              	.L38:
 179:lib_DB/logResult.c ****                 {
 180:lib_DB/logResult.c ****                     if(line[pointer] == ':')
 965              		.loc 2 180 0
 966 011a 1C23     		mov	r3, #28
 967 011c FA18     		add	r2, r7, r3
 968 011e 8023     		mov	r3, #128
 969 0120 FB18     		add	r3, r7, r3
 970 0122 1B68     		ldr	r3, [r3]
 971 0124 D318     		add	r3, r2, r3
 972 0126 1B78     		ldrb	r3, [r3]
 973 0128 3A2B     		cmp	r3, #58
 974 012a 09D1     		bne	.L32
 181:lib_DB/logResult.c ****                     {
 182:lib_DB/logResult.c ****                         counterMas++;
 975              		.loc 2 182 0
 976 012c 7B23     		mov	r3, #123
 977 012e FB18     		add	r3, r7, r3
 978 0130 1A78     		ldrb	r2, [r3]
 979 0132 7B23     		mov	r3, #123
 980 0134 FB18     		add	r3, r7, r3
 981 0136 0132     		add	r2, r2, #1
 982 0138 1A70     		strb	r2, [r3]
 183:lib_DB/logResult.c ****                         coeff = 1;
 983              		.loc 2 183 0
 984 013a 0123     		mov	r3, #1
 985 013c FB67     		str	r3, [r7, #124]
 986 013e 67E0     		b	.L33
 987              	.L32:
 184:lib_DB/logResult.c ****                     }
 185:lib_DB/logResult.c ****                     else
 186:lib_DB/logResult.c ****                     {
 187:lib_DB/logResult.c ****                         switch (currentMas){
 988              		.loc 2 187 0
 989 0140 7A23     		mov	r3, #122
 990 0142 FB18     		add	r3, r7, r3
 991 0144 1B78     		ldrb	r3, [r3]
 992 0146 012B     		cmp	r3, #1
 993 0148 22D0     		beq	.L35
 994 014a 022B     		cmp	r3, #2
 995 014c 3FD0     		beq	.L36
 996 014e 002B     		cmp	r3, #0
 997 0150 5CD1     		bne	.L34
 188:lib_DB/logResult.c ****                             case MAS_START_TIME:
 189:lib_DB/logResult.c ****                                 sendStartTime[counterMas] = sendStartTime[counterMas]*coeff + (line
 998              		.loc 2 189 0
 999 0152 7B23     		mov	r3, #123
 1000 0154 FB18     		add	r3, r7, r3
 1001 0156 1A78     		ldrb	r2, [r3]
 1002 0158 7B23     		mov	r3, #123
ARM GAS  C:\Users\Petro\AppData\Local\Temp\ccd3b28V.s 			page 34


 1003 015a FB18     		add	r3, r7, r3
 1004 015c 1978     		ldrb	r1, [r3]
 1005 015e 1423     		mov	r3, #20
 1006 0160 FB18     		add	r3, r7, r3
 1007 0162 4900     		lsl	r1, r1, #1
 1008 0164 CB5A     		ldrh	r3, [r1, r3]
 1009 0166 F96F     		ldr	r1, [r7, #124]
 1010 0168 89B2     		uxth	r1, r1
 1011 016a 4B43     		mul	r3, r1
 1012 016c 99B2     		uxth	r1, r3
 1013 016e 1C23     		mov	r3, #28
 1014 0170 F818     		add	r0, r7, r3
 1015 0172 8023     		mov	r3, #128
 1016 0174 FB18     		add	r3, r7, r3
 1017 0176 1B68     		ldr	r3, [r3]
 1018 0178 C318     		add	r3, r0, r3
 1019 017a 1B78     		ldrb	r3, [r3]
 1020 017c 9BB2     		uxth	r3, r3
 1021 017e CB18     		add	r3, r1, r3
 1022 0180 9BB2     		uxth	r3, r3
 1023 0182 303B     		sub	r3, r3, #48
 1024 0184 99B2     		uxth	r1, r3
 1025 0186 1423     		mov	r3, #20
 1026 0188 FB18     		add	r3, r7, r3
 1027 018a 5200     		lsl	r2, r2, #1
 1028 018c D152     		strh	r1, [r2, r3]
 190:lib_DB/logResult.c ****                                 break;
 1029              		.loc 2 190 0
 1030 018e 3DE0     		b	.L34
 1031              	.L35:
 191:lib_DB/logResult.c ****                             case MAS_FINISH_TIME:
 192:lib_DB/logResult.c ****                                 sendFinishTime[counterMas] = sendFinishTime[counterMas]*coeff + (li
 1032              		.loc 2 192 0
 1033 0190 7B23     		mov	r3, #123
 1034 0192 FB18     		add	r3, r7, r3
 1035 0194 1A78     		ldrb	r2, [r3]
 1036 0196 7B23     		mov	r3, #123
 1037 0198 FB18     		add	r3, r7, r3
 1038 019a 1978     		ldrb	r1, [r3]
 1039 019c 0C23     		mov	r3, #12
 1040 019e FB18     		add	r3, r7, r3
 1041 01a0 4900     		lsl	r1, r1, #1
 1042 01a2 CB5A     		ldrh	r3, [r1, r3]
 1043 01a4 F96F     		ldr	r1, [r7, #124]
 1044 01a6 89B2     		uxth	r1, r1
 1045 01a8 4B43     		mul	r3, r1
 1046 01aa 99B2     		uxth	r1, r3
 1047 01ac 1C23     		mov	r3, #28
 1048 01ae F818     		add	r0, r7, r3
 1049 01b0 8023     		mov	r3, #128
 1050 01b2 FB18     		add	r3, r7, r3
 1051 01b4 1B68     		ldr	r3, [r3]
 1052 01b6 C318     		add	r3, r0, r3
 1053 01b8 1B78     		ldrb	r3, [r3]
 1054 01ba 9BB2     		uxth	r3, r3
 1055 01bc CB18     		add	r3, r1, r3
 1056 01be 9BB2     		uxth	r3, r3
ARM GAS  C:\Users\Petro\AppData\Local\Temp\ccd3b28V.s 			page 35


 1057 01c0 303B     		sub	r3, r3, #48
 1058 01c2 99B2     		uxth	r1, r3
 1059 01c4 0C23     		mov	r3, #12
 1060 01c6 FB18     		add	r3, r7, r3
 1061 01c8 5200     		lsl	r2, r2, #1
 1062 01ca D152     		strh	r1, [r2, r3]
 193:lib_DB/logResult.c ****                                 break;
 1063              		.loc 2 193 0
 1064 01cc 1EE0     		b	.L34
 1065              	.L36:
 194:lib_DB/logResult.c ****                             case MAS_RESULT_TIME:
 195:lib_DB/logResult.c ****                                 sendResultTime[counterMas+2] = sendResultTime[counterMas+2]*coeff +
 1066              		.loc 2 195 0
 1067 01ce 7B23     		mov	r3, #123
 1068 01d0 FB18     		add	r3, r7, r3
 1069 01d2 1B78     		ldrb	r3, [r3]
 1070 01d4 9A1C     		add	r2, r3, #2
 1071 01d6 7B23     		mov	r3, #123
 1072 01d8 FB18     		add	r3, r7, r3
 1073 01da 1B78     		ldrb	r3, [r3]
 1074 01dc 991C     		add	r1, r3, #2
 1075 01de 3B1D     		add	r3, r7, #4
 1076 01e0 4900     		lsl	r1, r1, #1
 1077 01e2 CB5A     		ldrh	r3, [r1, r3]
 1078 01e4 F96F     		ldr	r1, [r7, #124]
 1079 01e6 89B2     		uxth	r1, r1
 1080 01e8 4B43     		mul	r3, r1
 1081 01ea 99B2     		uxth	r1, r3
 1082 01ec 1C23     		mov	r3, #28
 1083 01ee F818     		add	r0, r7, r3
 1084 01f0 8023     		mov	r3, #128
 1085 01f2 FB18     		add	r3, r7, r3
 1086 01f4 1B68     		ldr	r3, [r3]
 1087 01f6 C318     		add	r3, r0, r3
 1088 01f8 1B78     		ldrb	r3, [r3]
 1089 01fa 9BB2     		uxth	r3, r3
 1090 01fc CB18     		add	r3, r1, r3
 1091 01fe 9BB2     		uxth	r3, r3
 1092 0200 303B     		sub	r3, r3, #48
 1093 0202 99B2     		uxth	r1, r3
 1094 0204 3B1D     		add	r3, r7, #4
 1095 0206 5200     		lsl	r2, r2, #1
 1096 0208 D152     		strh	r1, [r2, r3]
 196:lib_DB/logResult.c ****                                 break;
 1097              		.loc 2 196 0
 1098 020a C046     		mov	r8, r8
 1099              	.L34:
 197:lib_DB/logResult.c ****                         }
 198:lib_DB/logResult.c ****                         coeff = 10;
 1100              		.loc 2 198 0
 1101 020c 0A23     		mov	r3, #10
 1102 020e FB67     		str	r3, [r7, #124]
 1103              	.L33:
 199:lib_DB/logResult.c ****                     }
 200:lib_DB/logResult.c ****                     pointer++;
 1104              		.loc 2 200 0
 1105 0210 8023     		mov	r3, #128
ARM GAS  C:\Users\Petro\AppData\Local\Temp\ccd3b28V.s 			page 36


 1106 0212 FB18     		add	r3, r7, r3
 1107 0214 1B68     		ldr	r3, [r3]
 1108 0216 0133     		add	r3, r3, #1
 1109 0218 8022     		mov	r2, #128
 1110 021a BA18     		add	r2, r7, r2
 1111 021c 1360     		str	r3, [r2]
 1112              	.L31:
 178:lib_DB/logResult.c ****                 {
 1113              		.loc 2 178 0
 1114 021e 414B     		ldr	r3, .L46+16
 1115 0220 1A68     		ldr	r2, [r3]
 1116 0222 1C23     		mov	r3, #28
 1117 0224 F918     		add	r1, r7, r3
 1118 0226 8023     		mov	r3, #128
 1119 0228 FB18     		add	r3, r7, r3
 1120 022a 1B68     		ldr	r3, [r3]
 1121 022c CB18     		add	r3, r1, r3
 1122 022e 1B78     		ldrb	r3, [r3]
 1123 0230 0133     		add	r3, r3, #1
 1124 0232 D318     		add	r3, r2, r3
 1125 0234 1B78     		ldrb	r3, [r3]
 1126 0236 1A1C     		mov	r2, r3
 1127 0238 0423     		mov	r3, #4
 1128 023a 1340     		and	r3, r2
 1129 023c 00D0     		beq	.LCB972
 1130 023e 6CE7     		b	.L38	@long jump
 1131              	.LCB972:
 178:lib_DB/logResult.c ****                 {
 1132              		.loc 2 178 0 is_stmt 0 discriminator 1
 1133 0240 1C23     		mov	r3, #28
 1134 0242 FA18     		add	r2, r7, r3
 1135 0244 8023     		mov	r3, #128
 1136 0246 FB18     		add	r3, r7, r3
 1137 0248 1B68     		ldr	r3, [r3]
 1138 024a D318     		add	r3, r2, r3
 1139 024c 1B78     		ldrb	r3, [r3]
 1140 024e 3A2B     		cmp	r3, #58
 1141 0250 00D1     		bne	.LCB981
 1142 0252 62E7     		b	.L38	@long jump
 1143              	.LCB981:
 201:lib_DB/logResult.c ****                 }
 202:lib_DB/logResult.c ****                 if(coeff != 1)
 1144              		.loc 2 202 0 is_stmt 1
 1145 0254 FB6F     		ldr	r3, [r7, #124]
 1146 0256 012B     		cmp	r3, #1
 1147 0258 14D0     		beq	.L39
 203:lib_DB/logResult.c ****                 {
 204:lib_DB/logResult.c ****                     if(currentMas == MAS_RESULT_TIME)
 1148              		.loc 2 204 0
 1149 025a 7A23     		mov	r3, #122
 1150 025c FB18     		add	r3, r7, r3
 1151 025e 1B78     		ldrb	r3, [r3]
 1152 0260 022B     		cmp	r3, #2
 1153 0262 04D1     		bne	.L40
 205:lib_DB/logResult.c ****                     {
 206:lib_DB/logResult.c ****                         currentMas = MAS_START_TIME;
 1154              		.loc 2 206 0
ARM GAS  C:\Users\Petro\AppData\Local\Temp\ccd3b28V.s 			page 37


 1155 0264 7A23     		mov	r3, #122
 1156 0266 FB18     		add	r3, r7, r3
 1157 0268 0022     		mov	r2, #0
 1158 026a 1A70     		strb	r2, [r3]
 1159 026c 06E0     		b	.L41
 1160              	.L40:
 207:lib_DB/logResult.c ****                     }else{
 208:lib_DB/logResult.c ****                         currentMas++;
 1161              		.loc 2 208 0
 1162 026e 7A23     		mov	r3, #122
 1163 0270 FB18     		add	r3, r7, r3
 1164 0272 1A78     		ldrb	r2, [r3]
 1165 0274 7A23     		mov	r3, #122
 1166 0276 FB18     		add	r3, r7, r3
 1167 0278 0132     		add	r2, r2, #1
 1168 027a 1A70     		strb	r2, [r3]
 1169              	.L41:
 209:lib_DB/logResult.c ****                     }
 210:lib_DB/logResult.c ****                     
 211:lib_DB/logResult.c ****                     counterMas = 0;
 1170              		.loc 2 211 0
 1171 027c 7B23     		mov	r3, #123
 1172 027e FB18     		add	r3, r7, r3
 1173 0280 0022     		mov	r2, #0
 1174 0282 1A70     		strb	r2, [r3]
 1175              	.L39:
 212:lib_DB/logResult.c ****                     
 213:lib_DB/logResult.c ****                 }
 214:lib_DB/logResult.c ****                 pointer++;
 1176              		.loc 2 214 0
 1177 0284 8023     		mov	r3, #128
 1178 0286 FB18     		add	r3, r7, r3
 1179 0288 1B68     		ldr	r3, [r3]
 1180 028a 0133     		add	r3, r3, #1
 1181 028c 8022     		mov	r2, #128
 1182 028e BA18     		add	r2, r7, r2
 1183 0290 1360     		str	r3, [r2]
 1184              	.L30:
 173:lib_DB/logResult.c ****             {            
 1185              		.loc 2 173 0
 1186 0292 1C23     		mov	r3, #28
 1187 0294 FA18     		add	r2, r7, r3
 1188 0296 8023     		mov	r3, #128
 1189 0298 FB18     		add	r3, r7, r3
 1190 029a 1B68     		ldr	r3, [r3]
 1191 029c D318     		add	r3, r2, r3
 1192 029e 1B78     		ldrb	r3, [r3]
 1193 02a0 0A2B     		cmp	r3, #10
 1194 02a2 09D0     		beq	.L42
 173:lib_DB/logResult.c ****             {            
 1195              		.loc 2 173 0 is_stmt 0 discriminator 1
 1196 02a4 1C23     		mov	r3, #28
 1197 02a6 FA18     		add	r2, r7, r3
 1198 02a8 8023     		mov	r3, #128
 1199 02aa FB18     		add	r3, r7, r3
 1200 02ac 1B68     		ldr	r3, [r3]
 1201 02ae D318     		add	r3, r2, r3
ARM GAS  C:\Users\Petro\AppData\Local\Temp\ccd3b28V.s 			page 38


 1202 02b0 1B78     		ldrb	r3, [r3]
 1203 02b2 0D2B     		cmp	r3, #13
 1204 02b4 00D0     		beq	.LCB1039
 1205 02b6 29E7     		b	.L43	@long jump
 1206              	.LCB1039:
 1207              	.L42:
 215:lib_DB/logResult.c ****             }
 216:lib_DB/logResult.c ****                         
 217:lib_DB/logResult.c ****             SW_UART_DEBUG_PutString(line);
 1208              		.loc 2 217 0 is_stmt 1
 1209 02b8 1C23     		mov	r3, #28
 1210 02ba FB18     		add	r3, r7, r3
 1211 02bc 181C     		mov	r0, r3
 1212 02be FFF7FEFF 		bl	SW_UART_DEBUG_PutString
 218:lib_DB/logResult.c ****             SW_UART_DEBUG_PutString("\n\r");
 1213              		.loc 2 218 0
 1214 02c2 194B     		ldr	r3, .L46+20
 1215 02c4 181C     		mov	r0, r3
 1216 02c6 FFF7FEFF 		bl	SW_UART_DEBUG_PutString
 219:lib_DB/logResult.c ****             
 220:lib_DB/logResult.c ****             BLE_sendOneSkierTimeAll(sendIdSkier, sendStartTime, sendFinishTime, sendResultTime);
 1217              		.loc 2 220 0
 1218 02ca 8623     		mov	r3, #134
 1219 02cc FB18     		add	r3, r7, r3
 1220 02ce 1888     		ldrh	r0, [r3]
 1221 02d0 1423     		mov	r3, #20
 1222 02d2 F918     		add	r1, r7, r3
 1223 02d4 0C23     		mov	r3, #12
 1224 02d6 FA18     		add	r2, r7, r3
 1225 02d8 3B1D     		add	r3, r7, #4
 1226 02da FFF7FEFF 		bl	BLE_sendOneSkierTimeAll
 221:lib_DB/logResult.c ****             BLE_processEvents();
 1227              		.loc 2 221 0
 1228 02de FFF7FEFF 		bl	BLE_processEvents
 222:lib_DB/logResult.c ****             CyDelay(100);
 1229              		.loc 2 222 0
 1230 02e2 6420     		mov	r0, #100
 1231 02e4 FFF7FEFF 		bl	CyDelay
 1232              	.L25:
 1233              	.LBE5:
 1234              	.LBE4:
 143:lib_DB/logResult.c ****     {    
 1235              		.loc 2 143 0
 1236 02e8 1C23     		mov	r3, #28
 1237 02ea FA18     		add	r2, r7, r3
 1238 02ec 0A4B     		ldr	r3, .L46+4
 1239 02ee 101C     		mov	r0, r2
 1240 02f0 5221     		mov	r1, #82
 1241 02f2 1A1C     		mov	r2, r3
 1242 02f4 FFF7FEFF 		bl	f_gets
 1243 02f8 031E     		sub	r3, r0, #0
 1244 02fa 00D0     		beq	.LCB1073
 1245 02fc 95E6     		b	.L44	@long jump
 1246              	.LCB1073:
 223:lib_DB/logResult.c ****         }
 224:lib_DB/logResult.c ****     }
 225:lib_DB/logResult.c ****     resultF = f_close(&fileO);
ARM GAS  C:\Users\Petro\AppData\Local\Temp\ccd3b28V.s 			page 39


 1247              		.loc 2 225 0
 1248 02fe 064B     		ldr	r3, .L46+4
 1249 0300 181C     		mov	r0, r3
 1250 0302 FFF7FEFF 		bl	f_close
 1251 0306 031C     		mov	r3, r0
 1252 0308 3B67     		str	r3, [r7, #112]
 226:lib_DB/logResult.c ****         
 227:lib_DB/logResult.c ****     return resultF;
 1253              		.loc 2 227 0
 1254 030a 3B6F     		ldr	r3, [r7, #112]
 228:lib_DB/logResult.c **** }
 1255              		.loc 2 228 0
 1256 030c 181C     		mov	r0, r3
 1257 030e BD46     		mov	sp, r7
 1258 0310 22B0     		add	sp, sp, #136
 1259              		@ sp needed
 1260 0312 80BD     		pop	{r7, pc}
 1261              	.L47:
 1262              		.align	2
 1263              	.L46:
 1264 0314 00000000 		.word	createFlag
 1265 0318 00000000 		.word	fileO
 1266 031c 00000000 		.word	nameFile
 1267 0320 D0000000 		.word	.LC24
 1268 0324 00000000 		.word	__ctype_ptr__
 1269 0328 DC000000 		.word	.LC27
 1270              		.cfi_endproc
 1271              	.LFE65:
 1272              		.size	ReadSkierResultAndSendBLE, .-ReadSkierResultAndSendBLE
 1273              		.section	.text.GetIDskierStarted,"ax",%progbits
 1274              		.align	2
 1275              		.global	GetIDskierStarted
 1276              		.code	16
 1277              		.thumb_func
 1278              		.type	GetIDskierStarted, %function
 1279              	GetIDskierStarted:
 1280              	.LFB66:
 229:lib_DB/logResult.c **** 
 230:lib_DB/logResult.c **** uint32_t GetIDskierStarted(void)
 231:lib_DB/logResult.c **** {
 1281              		.loc 2 231 0
 1282              		.cfi_startproc
 1283 0000 80B5     		push	{r7, lr}
 1284              		.cfi_def_cfa_offset 8
 1285              		.cfi_offset 7, -8
 1286              		.cfi_offset 14, -4
 1287 0002 00AF     		add	r7, sp, #0
 1288              		.cfi_def_cfa_register 7
 232:lib_DB/logResult.c ****     return idSkier;
 1289              		.loc 2 232 0
 1290 0004 024B     		ldr	r3, .L50
 1291 0006 1B68     		ldr	r3, [r3]
 233:lib_DB/logResult.c **** }
 1292              		.loc 2 233 0
 1293 0008 181C     		mov	r0, r3
 1294 000a BD46     		mov	sp, r7
 1295              		@ sp needed
ARM GAS  C:\Users\Petro\AppData\Local\Temp\ccd3b28V.s 			page 40


 1296 000c 80BD     		pop	{r7, pc}
 1297              	.L51:
 1298 000e C046     		.align	2
 1299              	.L50:
 1300 0010 00000000 		.word	idSkier
 1301              		.cfi_endproc
 1302              	.LFE66:
 1303              		.size	GetIDskierStarted, .-GetIDskierStarted
 1304              		.section	.text.GetIDskierFinished,"ax",%progbits
 1305              		.align	2
 1306              		.global	GetIDskierFinished
 1307              		.code	16
 1308              		.thumb_func
 1309              		.type	GetIDskierFinished, %function
 1310              	GetIDskierFinished:
 1311              	.LFB67:
 234:lib_DB/logResult.c **** 
 235:lib_DB/logResult.c **** uint32_t GetIDskierFinished(void)
 236:lib_DB/logResult.c **** {
 1312              		.loc 2 236 0
 1313              		.cfi_startproc
 1314 0000 80B5     		push	{r7, lr}
 1315              		.cfi_def_cfa_offset 8
 1316              		.cfi_offset 7, -8
 1317              		.cfi_offset 14, -4
 1318 0002 00AF     		add	r7, sp, #0
 1319              		.cfi_def_cfa_register 7
 237:lib_DB/logResult.c ****     return position-1;
 1320              		.loc 2 237 0
 1321 0004 024B     		ldr	r3, .L54
 1322 0006 1B68     		ldr	r3, [r3]
 1323 0008 013B     		sub	r3, r3, #1
 238:lib_DB/logResult.c **** }
 1324              		.loc 2 238 0
 1325 000a 181C     		mov	r0, r3
 1326 000c BD46     		mov	sp, r7
 1327              		@ sp needed
 1328 000e 80BD     		pop	{r7, pc}
 1329              	.L55:
 1330              		.align	2
 1331              	.L54:
 1332 0010 04000000 		.word	position
 1333              		.cfi_endproc
 1334              	.LFE67:
 1335              		.size	GetIDskierFinished, .-GetIDskierFinished
 1336              		.section	.text.IncrementID,"ax",%progbits
 1337              		.align	2
 1338              		.global	IncrementID
 1339              		.code	16
 1340              		.thumb_func
 1341              		.type	IncrementID, %function
 1342              	IncrementID:
 1343              	.LFB68:
 239:lib_DB/logResult.c **** 
 240:lib_DB/logResult.c **** void IncrementID(void)
 241:lib_DB/logResult.c **** {
 1344              		.loc 2 241 0
ARM GAS  C:\Users\Petro\AppData\Local\Temp\ccd3b28V.s 			page 41


 1345              		.cfi_startproc
 1346 0000 80B5     		push	{r7, lr}
 1347              		.cfi_def_cfa_offset 8
 1348              		.cfi_offset 7, -8
 1349              		.cfi_offset 14, -4
 1350 0002 00AF     		add	r7, sp, #0
 1351              		.cfi_def_cfa_register 7
 242:lib_DB/logResult.c ****     idSkier++;
 1352              		.loc 2 242 0
 1353 0004 034B     		ldr	r3, .L57
 1354 0006 1B68     		ldr	r3, [r3]
 1355 0008 5A1C     		add	r2, r3, #1
 1356 000a 024B     		ldr	r3, .L57
 1357 000c 1A60     		str	r2, [r3]
 243:lib_DB/logResult.c **** }
 1358              		.loc 2 243 0
 1359 000e BD46     		mov	sp, r7
 1360              		@ sp needed
 1361 0010 80BD     		pop	{r7, pc}
 1362              	.L58:
 1363 0012 C046     		.align	2
 1364              	.L57:
 1365 0014 00000000 		.word	idSkier
 1366              		.cfi_endproc
 1367              	.LFE68:
 1368              		.size	IncrementID, .-IncrementID
 1369              		.text
 1370              	.Letext0:
 1371              		.file 3 "c:\\program files (x86)\\cypress\\psoc creator\\4.0\\psoc creator\\import\\gnu\\arm\\4.9.
 1372              		.file 4 "c:\\program files (x86)\\cypress\\psoc creator\\4.0\\psoc creator\\import\\gnu\\arm\\4.9.
 1373              		.file 5 "Generated_Source\\PSoC4/cytypes.h"
 1374              		.file 6 "c:\\program files (x86)\\cypress\\psoc creator\\4.0\\psoc creator\\import\\gnu\\arm\\4.9.
 1375              		.file 7 "./lib_Fat\\integer.h"
 1376              		.file 8 "Generated_Source\\PSoC4/ble_Stack.h"
 1377              		.file 9 "./lib_Fat\\diskio.h"
 1378              		.file 10 "./lib_DB\\database.h"
 1379              		.file 11 "./lib_Fat\\ff.h"
 1380              		.file 12 "c:\\program files (x86)\\cypress\\psoc creator\\4.0\\psoc creator\\import\\gnu\\arm\\4.9