ARM GAS  C:\Users\Petro\AppData\Local\Temp\ccFLpdIU.s 			page 1


   1              		.cpu cortex-m0
   2              		.fpu softvfp
   3              		.eabi_attribute 20, 1
   4              		.eabi_attribute 21, 1
   5              		.eabi_attribute 23, 3
   6              		.eabi_attribute 24, 1
   7              		.eabi_attribute 25, 1
   8              		.eabi_attribute 26, 1
   9              		.eabi_attribute 30, 6
  10              		.eabi_attribute 34, 0
  11              		.eabi_attribute 18, 4
  12              		.code	16
  13              		.file	"myDelay.c"
  14              		.text
  15              	.Ltext0:
  16              		.cfi_sections	.debug_frame
  17              		.bss
  18              		.align	1
  19              	writeFlag:
  20 0000 0000     		.space	2
  21              		.global	__aeabi_ui2d
  22              		.global	__aeabi_ddiv
  23              		.global	__aeabi_d2uiz
  24              		.section	.text.MyDelay,"ax",%progbits
  25              		.align	2
  26              		.global	MyDelay
  27              		.code	16
  28              		.thumb_func
  29              		.type	MyDelay, %function
  30              	MyDelay:
  31              	.LFB63:
  32              		.file 1 "lib_MyDelay\\myDelay.c"
   1:lib_MyDelay/myDelay.c **** #include "lib_MyDelay\myDelay.h"
   2:lib_MyDelay/myDelay.c **** #include <AppDelay.h>
   3:lib_MyDelay/myDelay.c **** #include <SDinsert.h>
   4:lib_MyDelay/myDelay.c **** #include "lib_DB\logResult.h"
   5:lib_MyDelay/myDelay.c **** #include "lib_Network\network.h"
   6:lib_MyDelay/myDelay.c **** #include "lib_Display\display.h"
   7:lib_MyDelay/myDelay.c **** #include "lib_BLE\bluetooth.h"
   8:lib_MyDelay/myDelay.c **** #include "lib_DS1307\DS1307.h"
   9:lib_MyDelay/myDelay.c **** /*Minimum time to execution user function  */
  10:lib_MyDelay/myDelay.c **** #define MIN_DELAY_MS    150
  11:lib_MyDelay/myDelay.c **** 
  12:lib_MyDelay/myDelay.c **** #define WRITE_ERROR     1
  13:lib_MyDelay/myDelay.c **** #define WRITE_NO_ERROR  0
  14:lib_MyDelay/myDelay.c **** 
  15:lib_MyDelay/myDelay.c **** static uint16_t writeFlag;
  16:lib_MyDelay/myDelay.c **** 
  17:lib_MyDelay/myDelay.c **** /*user func*/
  18:lib_MyDelay/myDelay.c **** static void UserFunc_1(void);
  19:lib_MyDelay/myDelay.c **** static void UserFunc_2(void);
  20:lib_MyDelay/myDelay.c **** static void UserFunc_3(void);
  21:lib_MyDelay/myDelay.c **** static void UserFunc_4(void);
  22:lib_MyDelay/myDelay.c **** static void UserFunc_5(void);
  23:lib_MyDelay/myDelay.c **** 
  24:lib_MyDelay/myDelay.c **** 
  25:lib_MyDelay/myDelay.c **** /*******************************************************************************
ARM GAS  C:\Users\Petro\AppData\Local\Temp\ccFLpdIU.s 			page 2


  26:lib_MyDelay/myDelay.c **** * Function Name: MyDelay
  27:lib_MyDelay/myDelay.c **** ********************************************************************************
  28:lib_MyDelay/myDelay.c **** *
  29:lib_MyDelay/myDelay.c **** * Summary:
  30:lib_MyDelay/myDelay.c **** *   delay feature where users performed free time
  31:lib_MyDelay/myDelay.c **** *
  32:lib_MyDelay/myDelay.c **** * Parameters:
  33:lib_MyDelay/myDelay.c **** *  delayMs - delay time in miliseconds
  34:lib_MyDelay/myDelay.c **** *
  35:lib_MyDelay/myDelay.c **** *******************************************************************************/
  36:lib_MyDelay/myDelay.c **** void MyDelay(uint32_t delayMs)
  37:lib_MyDelay/myDelay.c **** {
  33              		.loc 1 37 0
  34              		.cfi_startproc
  35 0000 90B5     		push	{r4, r7, lr}
  36              		.cfi_def_cfa_offset 12
  37              		.cfi_offset 4, -12
  38              		.cfi_offset 7, -8
  39              		.cfi_offset 14, -4
  40 0002 87B0     		sub	sp, sp, #28
  41              		.cfi_def_cfa_offset 40
  42 0004 00AF     		add	r7, sp, #0
  43              		.cfi_def_cfa_register 7
  44 0006 7860     		str	r0, [r7, #4]
  38:lib_MyDelay/myDelay.c ****     
  39:lib_MyDelay/myDelay.c ****     if(delayMs < MIN_DELAY_MS)
  45              		.loc 1 39 0
  46 0008 7B68     		ldr	r3, [r7, #4]
  47 000a 952B     		cmp	r3, #149
  48 000c 04D8     		bhi	.L2
  40:lib_MyDelay/myDelay.c ****     {
  41:lib_MyDelay/myDelay.c ****         CyDelay(delayMs);
  49              		.loc 1 41 0
  50 000e 7B68     		ldr	r3, [r7, #4]
  51 0010 181C     		mov	r0, r3
  52 0012 FFF7FEFF 		bl	CyDelay
  53 0016 48E0     		b	.L1
  54              	.L2:
  55              	.LBB2:
  42:lib_MyDelay/myDelay.c ****     }
  43:lib_MyDelay/myDelay.c ****     else
  44:lib_MyDelay/myDelay.c ****     {
  45:lib_MyDelay/myDelay.c ****         uint32_t runTime;
  46:lib_MyDelay/myDelay.c ****         uint32_t counter;
  47:lib_MyDelay/myDelay.c ****         uint32_t period;
  48:lib_MyDelay/myDelay.c ****         
  49:lib_MyDelay/myDelay.c ****         runTime = 0;
  56              		.loc 1 49 0
  57 0018 0023     		mov	r3, #0
  58 001a 7B61     		str	r3, [r7, #20]
  50:lib_MyDelay/myDelay.c ****         period = AppDelay_ReadPeriod();
  59              		.loc 1 50 0
  60 001c FFF7FEFF 		bl	AppDelay_ReadPeriod
  61 0020 031C     		mov	r3, r0
  62 0022 3B61     		str	r3, [r7, #16]
  51:lib_MyDelay/myDelay.c ****         AppDelay_WriteCounter(period);       
  63              		.loc 1 51 0
ARM GAS  C:\Users\Petro\AppData\Local\Temp\ccFLpdIU.s 			page 3


  64 0024 3B69     		ldr	r3, [r7, #16]
  65 0026 181C     		mov	r0, r3
  66 0028 FFF7FEFF 		bl	AppDelay_WriteCounter
  52:lib_MyDelay/myDelay.c ****         AppDelay_Start();
  67              		.loc 1 52 0
  68 002c FFF7FEFF 		bl	AppDelay_Start
  53:lib_MyDelay/myDelay.c ****         
  54:lib_MyDelay/myDelay.c ****         while(((delayMs - runTime) > MIN_DELAY_MS) && (runTime <= delayMs))
  69              		.loc 1 54 0
  70 0030 26E0     		b	.L4
  71              	.L6:
  55:lib_MyDelay/myDelay.c ****         {
  56:lib_MyDelay/myDelay.c ****             /*user function*/      
  57:lib_MyDelay/myDelay.c ****             UserFunc_1();
  72              		.loc 1 57 0
  73 0032 FFF7FEFF 		bl	UserFunc_1
  58:lib_MyDelay/myDelay.c ****             UserFunc_2();
  74              		.loc 1 58 0
  75 0036 FFF7FEFF 		bl	UserFunc_2
  59:lib_MyDelay/myDelay.c ****             UserFunc_3();
  76              		.loc 1 59 0
  77 003a FFF7FEFF 		bl	UserFunc_3
  60:lib_MyDelay/myDelay.c ****             UserFunc_4();
  78              		.loc 1 60 0
  79 003e FFF7FEFF 		bl	UserFunc_4
  61:lib_MyDelay/myDelay.c ****             UserFunc_5();
  80              		.loc 1 61 0
  81 0042 FFF7FEFF 		bl	UserFunc_5
  62:lib_MyDelay/myDelay.c ****             
  63:lib_MyDelay/myDelay.c ****             CyDelay(MIN_DELAY_MS);
  82              		.loc 1 63 0
  83 0046 9620     		mov	r0, #150
  84 0048 FFF7FEFF 		bl	CyDelay
  64:lib_MyDelay/myDelay.c ****                             
  65:lib_MyDelay/myDelay.c ****             counter = AppDelay_ReadCounter();
  85              		.loc 1 65 0
  86 004c FFF7FEFF 		bl	AppDelay_ReadCounter
  87 0050 031C     		mov	r3, r0
  88 0052 FB60     		str	r3, [r7, #12]
  66:lib_MyDelay/myDelay.c ****             runTime = (period -  counter)/32.768;
  89              		.loc 1 66 0
  90 0054 3A69     		ldr	r2, [r7, #16]
  91 0056 FB68     		ldr	r3, [r7, #12]
  92 0058 D31A     		sub	r3, r2, r3
  93 005a 181C     		mov	r0, r3
  94 005c FFF7FEFF 		bl	__aeabi_ui2d
  95 0060 031C     		mov	r3, r0
  96 0062 0C1C     		mov	r4, r1
  97 0064 181C     		mov	r0, r3
  98 0066 211C     		mov	r1, r4
  99 0068 114A     		ldr	r2, .L7
 100 006a 124B     		ldr	r3, .L7+4
 101 006c FFF7FEFF 		bl	__aeabi_ddiv
 102 0070 031C     		mov	r3, r0
 103 0072 0C1C     		mov	r4, r1
 104 0074 181C     		mov	r0, r3
 105 0076 211C     		mov	r1, r4
ARM GAS  C:\Users\Petro\AppData\Local\Temp\ccFLpdIU.s 			page 4


 106 0078 FFF7FEFF 		bl	__aeabi_d2uiz
 107 007c 031C     		mov	r3, r0
 108 007e 7B61     		str	r3, [r7, #20]
 109              	.L4:
  54:lib_MyDelay/myDelay.c ****         {
 110              		.loc 1 54 0
 111 0080 7A68     		ldr	r2, [r7, #4]
 112 0082 7B69     		ldr	r3, [r7, #20]
 113 0084 D31A     		sub	r3, r2, r3
 114 0086 962B     		cmp	r3, #150
 115 0088 03D9     		bls	.L5
  54:lib_MyDelay/myDelay.c ****         {
 116              		.loc 1 54 0 is_stmt 0 discriminator 1
 117 008a 7A69     		ldr	r2, [r7, #20]
 118 008c 7B68     		ldr	r3, [r7, #4]
 119 008e 9A42     		cmp	r2, r3
 120 0090 CFD9     		bls	.L6
 121              	.L5:
  67:lib_MyDelay/myDelay.c ****             
  68:lib_MyDelay/myDelay.c ****             /*user function*/  
  69:lib_MyDelay/myDelay.c ****         }
  70:lib_MyDelay/myDelay.c ****         AppDelay_Stop();
 122              		.loc 1 70 0 is_stmt 1
 123 0092 FFF7FEFF 		bl	AppDelay_Stop
  71:lib_MyDelay/myDelay.c ****         
  72:lib_MyDelay/myDelay.c ****         #ifdef DEBUG_PC
  73:lib_MyDelay/myDelay.c ****         char buffer[100];
  74:lib_MyDelay/myDelay.c ****         sprintf(buffer,"time send data %u\n\r", (runTime));
  75:lib_MyDelay/myDelay.c ****         SW_UART_DEBUG_PutString(buffer);
  76:lib_MyDelay/myDelay.c ****         #endif
  77:lib_MyDelay/myDelay.c ****         
  78:lib_MyDelay/myDelay.c ****         if (delayMs > runTime)
 124              		.loc 1 78 0
 125 0096 7A68     		ldr	r2, [r7, #4]
 126 0098 7B69     		ldr	r3, [r7, #20]
 127 009a 9A42     		cmp	r2, r3
 128 009c 05D9     		bls	.L1
  79:lib_MyDelay/myDelay.c ****         {
  80:lib_MyDelay/myDelay.c ****             CyDelay(delayMs - runTime);
 129              		.loc 1 80 0
 130 009e 7A68     		ldr	r2, [r7, #4]
 131 00a0 7B69     		ldr	r3, [r7, #20]
 132 00a2 D31A     		sub	r3, r2, r3
 133 00a4 181C     		mov	r0, r3
 134 00a6 FFF7FEFF 		bl	CyDelay
 135              	.L1:
 136              	.LBE2:
  81:lib_MyDelay/myDelay.c ****         }
  82:lib_MyDelay/myDelay.c ****     }
  83:lib_MyDelay/myDelay.c **** }
 137              		.loc 1 83 0
 138 00aa BD46     		mov	sp, r7
 139 00ac 07B0     		add	sp, sp, #28
 140              		@ sp needed
 141 00ae 90BD     		pop	{r4, r7, pc}
 142              	.L8:
 143              		.align	2
ARM GAS  C:\Users\Petro\AppData\Local\Temp\ccFLpdIU.s 			page 5


 144              	.L7:
 145 00b0 FCA9F1D2 		.word	-755914244
 146 00b4 4D624040 		.word	1077961293
 147              		.cfi_endproc
 148              	.LFE63:
 149              		.size	MyDelay, .-MyDelay
 150              		.section	.text.UserFunc_1,"ax",%progbits
 151              		.align	2
 152              		.code	16
 153              		.thumb_func
 154              		.type	UserFunc_1, %function
 155              	UserFunc_1:
 156              	.LFB64:
  84:lib_MyDelay/myDelay.c **** 
  85:lib_MyDelay/myDelay.c **** 
  86:lib_MyDelay/myDelay.c **** static void UserFunc_1(void)
  87:lib_MyDelay/myDelay.c **** {
 157              		.loc 1 87 0
 158              		.cfi_startproc
 159 0000 80B5     		push	{r7, lr}
 160              		.cfi_def_cfa_offset 8
 161              		.cfi_offset 7, -8
 162              		.cfi_offset 14, -4
 163 0002 00AF     		add	r7, sp, #0
 164              		.cfi_def_cfa_register 7
  88:lib_MyDelay/myDelay.c ****     /*network connection and transfer data*/
  89:lib_MyDelay/myDelay.c **** 
  90:lib_MyDelay/myDelay.c ****     SendData();           
 165              		.loc 1 90 0
 166 0004 FFF7FEFF 		bl	SendData
  91:lib_MyDelay/myDelay.c ****     ReceiveData();
 167              		.loc 1 91 0
 168 0008 FFF7FEFF 		bl	ReceiveData
  92:lib_MyDelay/myDelay.c ****     
  93:lib_MyDelay/myDelay.c ****     #ifdef DEBUG_PC
  94:lib_MyDelay/myDelay.c ****     //inData.readStatus = READ_OK;
  95:lib_MyDelay/myDelay.c ****     #endif
  96:lib_MyDelay/myDelay.c ****  
  97:lib_MyDelay/myDelay.c **** }
 169              		.loc 1 97 0
 170 000c BD46     		mov	sp, r7
 171              		@ sp needed
 172 000e 80BD     		pop	{r7, pc}
 173              		.cfi_endproc
 174              	.LFE64:
 175              		.size	UserFunc_1, .-UserFunc_1
 176              		.section	.text.UserFunc_2,"ax",%progbits
 177              		.align	2
 178              		.code	16
 179              		.thumb_func
 180              		.type	UserFunc_2, %function
 181              	UserFunc_2:
 182              	.LFB65:
  98:lib_MyDelay/myDelay.c **** 
  99:lib_MyDelay/myDelay.c **** 
 100:lib_MyDelay/myDelay.c **** static void UserFunc_2(void)
 101:lib_MyDelay/myDelay.c **** {
ARM GAS  C:\Users\Petro\AppData\Local\Temp\ccFLpdIU.s 			page 6


 183              		.loc 1 101 0
 184              		.cfi_startproc
 185 0000 90B5     		push	{r4, r7, lr}
 186              		.cfi_def_cfa_offset 12
 187              		.cfi_offset 4, -12
 188              		.cfi_offset 7, -8
 189              		.cfi_offset 14, -4
 190 0002 A3B0     		sub	sp, sp, #140
 191              		.cfi_def_cfa_offset 152
 192 0004 08AF     		add	r7, sp, #32
 193              		.cfi_def_cfa 7, 120
 102:lib_MyDelay/myDelay.c ****     /*write result skier on log 
 103:lib_MyDelay/myDelay.c ****     (if there is no memory card that is a record in fifo)*/
 104:lib_MyDelay/myDelay.c ****     
 105:lib_MyDelay/myDelay.c ****     if((FifoGetSize() > 0) || (writeFlag == WRITE_ERROR))
 194              		.loc 1 105 0
 195 0006 FFF7FEFF 		bl	FifoGetSize
 196 000a 031E     		sub	r3, r0, #0
 197 000c 03D1     		bne	.L11
 198              		.loc 1 105 0 is_stmt 0 discriminator 1
 199 000e 2A4B     		ldr	r3, .L17
 200 0010 1B88     		ldrh	r3, [r3]
 201 0012 012B     		cmp	r3, #1
 202 0014 4CD1     		bne	.L10
 203              	.L11:
 204              	.LBB3:
 106:lib_MyDelay/myDelay.c ****     {
 107:lib_MyDelay/myDelay.c ****         uint32_t result;
 108:lib_MyDelay/myDelay.c ****         skierDB_El tmpStruct;
 109:lib_MyDelay/myDelay.c ****         
 110:lib_MyDelay/myDelay.c ****         if (writeFlag == WRITE_NO_ERROR)
 205              		.loc 1 110 0 is_stmt 1
 206 0016 284B     		ldr	r3, .L17
 207 0018 1B88     		ldrh	r3, [r3]
 208 001a 002B     		cmp	r3, #0
 209 001c 16D1     		bne	.L13
 111:lib_MyDelay/myDelay.c ****         {
 112:lib_MyDelay/myDelay.c ****             FifoGet(&tmpStruct);
 210              		.loc 1 112 0
 211 001e 3023     		mov	r3, #48
 212 0020 FB18     		add	r3, r7, r3
 213 0022 181C     		mov	r0, r3
 214 0024 FFF7FEFF 		bl	FifoGet
 113:lib_MyDelay/myDelay.c ****             FifoPushLast(tmpStruct);
 215              		.loc 1 113 0
 216 0028 3023     		mov	r3, #48
 217 002a FC18     		add	r4, r7, r3
 218 002c 6B46     		mov	r3, sp
 219 002e 191C     		mov	r1, r3
 220 0030 231C     		mov	r3, r4
 221 0032 1033     		add	r3, r3, #16
 222 0034 2022     		mov	r2, #32
 223 0036 081C     		mov	r0, r1
 224 0038 191C     		mov	r1, r3
 225 003a FFF7FEFF 		bl	memcpy
 226 003e 2068     		ldr	r0, [r4]
 227 0040 6168     		ldr	r1, [r4, #4]
ARM GAS  C:\Users\Petro\AppData\Local\Temp\ccFLpdIU.s 			page 7


 228 0042 A268     		ldr	r2, [r4, #8]
 229 0044 E368     		ldr	r3, [r4, #12]
 230 0046 FFF7FEFF 		bl	FifoPushLast
 231 004a 0EE0     		b	.L14
 232              	.L13:
 114:lib_MyDelay/myDelay.c ****         }
 115:lib_MyDelay/myDelay.c ****         else
 116:lib_MyDelay/myDelay.c ****         {
 117:lib_MyDelay/myDelay.c ****             tmpStruct = FifoGetLast();
 233              		.loc 1 117 0
 234 004c 3023     		mov	r3, #48
 235 004e FC18     		add	r4, r7, r3
 236 0050 3B1C     		mov	r3, r7
 237 0052 181C     		mov	r0, r3
 238 0054 FFF7FEFF 		bl	FifoGetLast
 239 0058 3B1C     		mov	r3, r7
 240 005a 211C     		mov	r1, r4
 241 005c 1A1C     		mov	r2, r3
 242 005e 3023     		mov	r3, #48
 243 0060 081C     		mov	r0, r1
 244 0062 111C     		mov	r1, r2
 245 0064 1A1C     		mov	r2, r3
 246 0066 FFF7FEFF 		bl	memcpy
 247              	.L14:
 118:lib_MyDelay/myDelay.c ****         }
 119:lib_MyDelay/myDelay.c ****         result = WriteSkierResult(&tmpStruct);
 248              		.loc 1 119 0
 249 006a 3023     		mov	r3, #48
 250 006c FB18     		add	r3, r7, r3
 251 006e 181C     		mov	r0, r3
 252 0070 FFF7FEFF 		bl	WriteSkierResult
 253 0074 031C     		mov	r3, r0
 254 0076 7B66     		str	r3, [r7, #100]
 120:lib_MyDelay/myDelay.c ****         if(result != FR_OK)
 255              		.loc 1 120 0
 256 0078 7B6E     		ldr	r3, [r7, #100]
 257 007a 002B     		cmp	r3, #0
 258 007c 05D0     		beq	.L15
 121:lib_MyDelay/myDelay.c ****         {
 122:lib_MyDelay/myDelay.c ****             LogStart();
 259              		.loc 1 122 0
 260 007e FFF7FEFF 		bl	LogStart
 123:lib_MyDelay/myDelay.c ****             writeFlag = WRITE_ERROR;
 261              		.loc 1 123 0
 262 0082 0D4B     		ldr	r3, .L17
 263 0084 0122     		mov	r2, #1
 264 0086 1A80     		strh	r2, [r3]
 265 0088 02E0     		b	.L16
 266              	.L15:
 124:lib_MyDelay/myDelay.c ****         }
 125:lib_MyDelay/myDelay.c ****         else
 126:lib_MyDelay/myDelay.c ****         {
 127:lib_MyDelay/myDelay.c ****             writeFlag = WRITE_NO_ERROR;
 267              		.loc 1 127 0
 268 008a 0B4B     		ldr	r3, .L17
 269 008c 0022     		mov	r2, #0
 270 008e 1A80     		strh	r2, [r3]
ARM GAS  C:\Users\Petro\AppData\Local\Temp\ccFLpdIU.s 			page 8


 271              	.L16:
 128:lib_MyDelay/myDelay.c ****         }
 129:lib_MyDelay/myDelay.c ****         
 130:lib_MyDelay/myDelay.c ****         BLE_sendOneSkierTimeResult(&tmpStruct,GetIDskierFinished(),SkierOnWay(),MAX_SKIERS_ON_WAY);
 272              		.loc 1 130 0
 273 0090 FFF7FEFF 		bl	GetIDskierFinished
 274 0094 031C     		mov	r3, r0
 275 0096 DCB2     		uxtb	r4, r3
 276 0098 FFF7FEFF 		bl	SkierOnWay
 277 009c 031C     		mov	r3, r0
 278 009e DBB2     		uxtb	r3, r3
 279 00a0 3022     		mov	r2, #48
 280 00a2 BA18     		add	r2, r7, r2
 281 00a4 101C     		mov	r0, r2
 282 00a6 211C     		mov	r1, r4
 283 00a8 1A1C     		mov	r2, r3
 284 00aa 0423     		mov	r3, #4
 285 00ac FFF7FEFF 		bl	BLE_sendOneSkierTimeResult
 286              	.L10:
 287              	.LBE3:
 131:lib_MyDelay/myDelay.c ****     }
 132:lib_MyDelay/myDelay.c **** }
 288              		.loc 1 132 0
 289 00b0 BD46     		mov	sp, r7
 290 00b2 1BB0     		add	sp, sp, #108
 291              		@ sp needed
 292 00b4 90BD     		pop	{r4, r7, pc}
 293              	.L18:
 294 00b6 C046     		.align	2
 295              	.L17:
 296 00b8 00000000 		.word	writeFlag
 297              		.cfi_endproc
 298              	.LFE65:
 299              		.size	UserFunc_2, .-UserFunc_2
 300              		.section	.text.UserFunc_3,"ax",%progbits
 301              		.align	2
 302              		.code	16
 303              		.thumb_func
 304              		.type	UserFunc_3, %function
 305              	UserFunc_3:
 306              	.LFB66:
 133:lib_MyDelay/myDelay.c **** 
 134:lib_MyDelay/myDelay.c **** static void UserFunc_3(void)
 135:lib_MyDelay/myDelay.c **** {
 307              		.loc 1 135 0
 308              		.cfi_startproc
 309 0000 80B5     		push	{r7, lr}
 310              		.cfi_def_cfa_offset 8
 311              		.cfi_offset 7, -8
 312              		.cfi_offset 14, -4
 313 0002 00AF     		add	r7, sp, #0
 314              		.cfi_def_cfa_register 7
 136:lib_MyDelay/myDelay.c ****     /*print indicator SD card*/
 137:lib_MyDelay/myDelay.c ****     if(SDinsert_Read() == 0)
 315              		.loc 1 137 0
 316 0004 FFF7FEFF 		bl	SDinsert_Read
 317 0008 031E     		sub	r3, r0, #0
ARM GAS  C:\Users\Petro\AppData\Local\Temp\ccFLpdIU.s 			page 9


 318 000a 06D1     		bne	.L20
 138:lib_MyDelay/myDelay.c ****     {
 139:lib_MyDelay/myDelay.c ****         DisplayIndicatorSD(SD_INSERT);
 319              		.loc 1 139 0
 320 000c 0020     		mov	r0, #0
 321 000e FFF7FEFF 		bl	DisplayIndicatorSD
 140:lib_MyDelay/myDelay.c ****         BLE_sendSDcardStatus(STATUS_OK);
 322              		.loc 1 140 0
 323 0012 0020     		mov	r0, #0
 324 0014 FFF7FEFF 		bl	BLE_sendSDcardStatus
 325 0018 05E0     		b	.L21
 326              	.L20:
 141:lib_MyDelay/myDelay.c ****     }
 142:lib_MyDelay/myDelay.c ****     else
 143:lib_MyDelay/myDelay.c ****     {
 144:lib_MyDelay/myDelay.c ****         DisplayIndicatorSD(SD_NO_INSERT);
 327              		.loc 1 144 0
 328 001a 0120     		mov	r0, #1
 329 001c FFF7FEFF 		bl	DisplayIndicatorSD
 145:lib_MyDelay/myDelay.c ****         BLE_sendSDcardStatus(STATUS_ERROR);
 330              		.loc 1 145 0
 331 0020 0120     		mov	r0, #1
 332 0022 FFF7FEFF 		bl	BLE_sendSDcardStatus
 333              	.L21:
 146:lib_MyDelay/myDelay.c ****     }
 147:lib_MyDelay/myDelay.c ****     
 148:lib_MyDelay/myDelay.c ****     /*printindicator network*/
 149:lib_MyDelay/myDelay.c ****     if(NetworkStatus() == NETWORK_CONNECT)
 334              		.loc 1 149 0
 335 0026 FFF7FEFF 		bl	NetworkStatus
 336 002a 031E     		sub	r3, r0, #0
 337 002c 012B     		cmp	r3, #1
 338 002e 06D1     		bne	.L22
 150:lib_MyDelay/myDelay.c ****     {
 151:lib_MyDelay/myDelay.c ****         DisplayIndicatorNetwork(CONNECT);
 339              		.loc 1 151 0
 340 0030 0020     		mov	r0, #0
 341 0032 FFF7FEFF 		bl	DisplayIndicatorNetwork
 152:lib_MyDelay/myDelay.c ****         BLE_sendNetworkStatus(STATUS_OK);
 342              		.loc 1 152 0
 343 0036 0020     		mov	r0, #0
 344 0038 FFF7FEFF 		bl	BLE_sendNetworkStatus
 345 003c 05E0     		b	.L19
 346              	.L22:
 153:lib_MyDelay/myDelay.c ****     }
 154:lib_MyDelay/myDelay.c ****     else
 155:lib_MyDelay/myDelay.c ****     {
 156:lib_MyDelay/myDelay.c ****         DisplayIndicatorNetwork(DISCONNECT);
 347              		.loc 1 156 0
 348 003e 0120     		mov	r0, #1
 349 0040 FFF7FEFF 		bl	DisplayIndicatorNetwork
 157:lib_MyDelay/myDelay.c ****         BLE_sendNetworkStatus(STATUS_ERROR);
 350              		.loc 1 157 0
 351 0044 0120     		mov	r0, #1
 352 0046 FFF7FEFF 		bl	BLE_sendNetworkStatus
 353              	.L19:
 158:lib_MyDelay/myDelay.c ****     }  
ARM GAS  C:\Users\Petro\AppData\Local\Temp\ccFLpdIU.s 			page 10


 159:lib_MyDelay/myDelay.c **** }
 354              		.loc 1 159 0
 355 004a BD46     		mov	sp, r7
 356              		@ sp needed
 357 004c 80BD     		pop	{r7, pc}
 358              		.cfi_endproc
 359              	.LFE66:
 360              		.size	UserFunc_3, .-UserFunc_3
 361 004e C046     		.section	.text.UserFunc_4,"ax",%progbits
 362              		.align	2
 363              		.code	16
 364              		.thumb_func
 365              		.type	UserFunc_4, %function
 366              	UserFunc_4:
 367              	.LFB67:
 160:lib_MyDelay/myDelay.c **** 
 161:lib_MyDelay/myDelay.c **** static void UserFunc_4(void)
 162:lib_MyDelay/myDelay.c **** {
 368              		.loc 1 162 0
 369              		.cfi_startproc
 370 0000 80B5     		push	{r7, lr}
 371              		.cfi_def_cfa_offset 8
 372              		.cfi_offset 7, -8
 373              		.cfi_offset 14, -4
 374 0002 00AF     		add	r7, sp, #0
 375              		.cfi_def_cfa_register 7
 163:lib_MyDelay/myDelay.c ****     /*printf real time and num skier on way*/
 164:lib_MyDelay/myDelay.c ****     
 165:lib_MyDelay/myDelay.c ****     DisplayRealTime();
 376              		.loc 1 165 0
 377 0004 FFF7FEFF 		bl	DisplayRealTime
 166:lib_MyDelay/myDelay.c ****     DisplayNumSkierOnWay(SkierOnWay());
 378              		.loc 1 166 0
 379 0008 FFF7FEFF 		bl	SkierOnWay
 380 000c 031C     		mov	r3, r0
 381 000e 181C     		mov	r0, r3
 382 0010 FFF7FEFF 		bl	DisplayNumSkierOnWay
 167:lib_MyDelay/myDelay.c **** }
 383              		.loc 1 167 0
 384 0014 BD46     		mov	sp, r7
 385              		@ sp needed
 386 0016 80BD     		pop	{r7, pc}
 387              		.cfi_endproc
 388              	.LFE67:
 389              		.size	UserFunc_4, .-UserFunc_4
 390              		.section	.text.UserFunc_5,"ax",%progbits
 391              		.align	2
 392              		.code	16
 393              		.thumb_func
 394              		.type	UserFunc_5, %function
 395              	UserFunc_5:
 396              	.LFB68:
 168:lib_MyDelay/myDelay.c **** 
 169:lib_MyDelay/myDelay.c **** static void UserFunc_5(void)
 170:lib_MyDelay/myDelay.c **** {
 397              		.loc 1 170 0
 398              		.cfi_startproc
ARM GAS  C:\Users\Petro\AppData\Local\Temp\ccFLpdIU.s 			page 11


 399 0000 B0B5     		push	{r4, r5, r7, lr}
 400              		.cfi_def_cfa_offset 16
 401              		.cfi_offset 4, -16
 402              		.cfi_offset 5, -12
 403              		.cfi_offset 7, -8
 404              		.cfi_offset 14, -4
 405 0002 84B0     		sub	sp, sp, #16
 406              		.cfi_def_cfa_offset 32
 407 0004 00AF     		add	r7, sp, #0
 408              		.cfi_def_cfa_register 7
 171:lib_MyDelay/myDelay.c ****     static uint32_t oldUnixTime = 0;
 172:lib_MyDelay/myDelay.c ****     uint32_t unixTime;
 173:lib_MyDelay/myDelay.c ****     
 174:lib_MyDelay/myDelay.c ****     BLE_processEvents();
 409              		.loc 1 174 0
 410 0006 FFF7FEFF 		bl	BLE_processEvents
 175:lib_MyDelay/myDelay.c ****     
 176:lib_MyDelay/myDelay.c ****     unixTime = BLE_getUnixTime();
 411              		.loc 1 176 0
 412 000a FFF7FEFF 		bl	BLE_getUnixTime
 413 000e 031C     		mov	r3, r0
 414 0010 FB60     		str	r3, [r7, #12]
 177:lib_MyDelay/myDelay.c ****     if(oldUnixTime != unixTime)
 415              		.loc 1 177 0
 416 0012 114B     		ldr	r3, .L28
 417 0014 1A68     		ldr	r2, [r3]
 418 0016 FB68     		ldr	r3, [r7, #12]
 419 0018 9A42     		cmp	r2, r3
 420 001a 14D0     		beq	.L26
 178:lib_MyDelay/myDelay.c ****     {
 179:lib_MyDelay/myDelay.c ****         /*set unix time in RTC DS1307*/
 180:lib_MyDelay/myDelay.c ****         DS1307_SetUnixTime(unixTime);
 421              		.loc 1 180 0
 422 001c FB68     		ldr	r3, [r7, #12]
 423 001e 3B60     		str	r3, [r7]
 424 0020 0023     		mov	r3, #0
 425 0022 7B60     		str	r3, [r7, #4]
 426 0024 3868     		ldr	r0, [r7]
 427 0026 7968     		ldr	r1, [r7, #4]
 428 0028 FFF7FEFF 		bl	DS1307_SetUnixTime
 181:lib_MyDelay/myDelay.c ****         RTC_SetUnixTime(unixTime);
 429              		.loc 1 181 0
 430 002c FB68     		ldr	r3, [r7, #12]
 431 002e 1C1C     		mov	r4, r3
 432 0030 0023     		mov	r3, #0
 433 0032 1D1C     		mov	r5, r3
 434 0034 201C     		mov	r0, r4
 435 0036 291C     		mov	r1, r5
 436 0038 FFF7FEFF 		bl	RTC_SetUnixTime
 182:lib_MyDelay/myDelay.c ****         oldUnixTime = unixTime;
 437              		.loc 1 182 0
 438 003c 064B     		ldr	r3, .L28
 439 003e FA68     		ldr	r2, [r7, #12]
 440 0040 1A60     		str	r2, [r3]
 183:lib_MyDelay/myDelay.c ****         SetRebootFlag();
 441              		.loc 1 183 0
 442 0042 FFF7FEFF 		bl	SetRebootFlag
ARM GAS  C:\Users\Petro\AppData\Local\Temp\ccFLpdIU.s 			page 12


 443              	.L26:
 184:lib_MyDelay/myDelay.c ****     }
 185:lib_MyDelay/myDelay.c ****     
 186:lib_MyDelay/myDelay.c ****     /*if  admin , read skier time from SD card and send bluetooth*/
 187:lib_MyDelay/myDelay.c ****     if(BLE_getFlagAdminOnly() != 0)
 444              		.loc 1 187 0
 445 0046 FFF7FEFF 		bl	BLE_getFlagAdminOnly
 446 004a 031E     		sub	r3, r0, #0
 447 004c 01D0     		beq	.L25
 188:lib_MyDelay/myDelay.c ****     {
 189:lib_MyDelay/myDelay.c ****         ReadSkierResultAndSendBLE();
 448              		.loc 1 189 0
 449 004e FFF7FEFF 		bl	ReadSkierResultAndSendBLE
 450              	.L25:
 190:lib_MyDelay/myDelay.c ****     }
 191:lib_MyDelay/myDelay.c **** }...
 451              		.loc 1 191 0
 452 0052 BD46     		mov	sp, r7
 453 0054 04B0     		add	sp, sp, #16
 454              		@ sp needed
 455 0056 B0BD     		pop	{r4, r5, r7, pc}
 456              	.L29:
 457              		.align	2
 458              	.L28:
 459 0058 04000000 		.word	oldUnixTime.7951
 460              		.cfi_endproc
 461              	.LFE68:
 462              		.size	UserFunc_5, .-UserFunc_5
 463              		.bss
 464 0002 0000     		.align	2
 465              	oldUnixTime.7951:
 466 0004 00000000 		.space	4
 467              		.text
 468              	.Letext0:
 469              		.file 2 "c:\\program files (x86)\\cypress\\psoc creator\\4.0\\psoc creator\\import\\gnu\\arm\\4.9.
 470              		.file 3 "c:\\program files (x86)\\cypress\\psoc creator\\4.0\\psoc creator\\import\\gnu\\arm\\4.9.
 471              		.file 4 "./lib_DB\\database.h"
 472              		.file 5 "./lib_Fat\\ff.h"
 473              		.file 6 "./lib_Display\\display.h"
 474              		.file 7 "Generated_Source\\PSoC4/ble_Stack.h"
 475              		.file 8 "./lib_BLE\\bluetooth.h"