ARM GAS  C:\Users\Petro\AppData\Local\Temp\cc015mwj.s 			page 1


   1              		.cpu cortex-m0
   2              		.fpu softvfp
   3              		.eabi_attribute 20, 1
   4              		.eabi_attribute 21, 1
   5              		.eabi_attribute 23, 3
   6              		.eabi_attribute 24, 1
   7              		.eabi_attribute 25, 1
   8              		.eabi_attribute 26, 1
   9              		.eabi_attribute 30, 6
  10              		.eabi_attribute 34, 0
  11              		.eabi_attribute 18, 4
  12              		.code	16
  13              		.file	"sdcard.c"
  14              		.text
  15              	.Ltext0:
  16              		.cfi_sections	.debug_frame
  17              		.data
  18              		.type	Stat, %object
  19              		.size	Stat, 1
  20              	Stat:
  21 0000 01       		.byte	1
  22              		.bss
  23              	CardType:
  24 0000 00       		.space	1
  25              		.section	.text.xmit_mmc,"ax",%progbits
  26              		.align	2
  27              		.code	16
  28              		.thumb_func
  29              		.type	xmit_mmc, %function
  30              	xmit_mmc:
  31              	.LFB63:
  32              		.file 1 "lib_Fat\\sdcard.c"
   1:lib_Fat/sdcard.c **** /*------------------------------------------------------------------------/
   2:lib_Fat/sdcard.c **** /  Foolproof MMCv3/SDv1/SDv2 (in SPI mode) control module
   3:lib_Fat/sdcard.c **** /-------------------------------------------------------------------------/
   4:lib_Fat/sdcard.c **** /
   5:lib_Fat/sdcard.c **** /  Copyright (C) 2013, ChaN, all right reserved.
   6:lib_Fat/sdcard.c **** /
   7:lib_Fat/sdcard.c **** / * This software is a free software and there is NO WARRANTY.
   8:lib_Fat/sdcard.c **** / * No restriction on use. You can use, modify and redistribute it for
   9:lib_Fat/sdcard.c **** /   personal, non-profit or commercial products UNDER YOUR RESPONSIBILITY.
  10:lib_Fat/sdcard.c **** / * Redistributions of source code must retain the above copyright notice.
  11:lib_Fat/sdcard.c **** /
  12:lib_Fat/sdcard.c **** /-------------------------------------------------------------------------/
  13:lib_Fat/sdcard.c ****   Features and Limitations:
  14:lib_Fat/sdcard.c **** 
  15:lib_Fat/sdcard.c ****   * Easy to Port Bit-banging SPI
  16:lib_Fat/sdcard.c ****     It uses only four GPIO pins. No complex peripheral needs to be used.
  17:lib_Fat/sdcard.c **** 
  18:lib_Fat/sdcard.c ****   * No Media Change Detection
  19:lib_Fat/sdcard.c ****     Application program needs to perform a f_mount() after media change.
  20:lib_Fat/sdcard.c **** 
  21:lib_Fat/sdcard.c **** /-------------------------------------------------------------------------*/
  22:lib_Fat/sdcard.c **** 
  23:lib_Fat/sdcard.c **** 
  24:lib_Fat/sdcard.c **** #include "diskio.h"		/* Common include file for FatFs and disk I/O layer */
  25:lib_Fat/sdcard.c **** 
ARM GAS  C:\Users\Petro\AppData\Local\Temp\cc015mwj.s 			page 2


  26:lib_Fat/sdcard.c **** 
  27:lib_Fat/sdcard.c **** /*-------------------------------------------------------------------------*/
  28:lib_Fat/sdcard.c **** /* Platform dependent macros and functions needed to be modified           */
  29:lib_Fat/sdcard.c **** /*-------------------------------------------------------------------------*/
  30:lib_Fat/sdcard.c **** 
  31:lib_Fat/sdcard.c **** #include <project.h>
  32:lib_Fat/sdcard.c **** #include <cytypes.h>
  33:lib_Fat/sdcard.c **** 
  34:lib_Fat/sdcard.c ****     /* Put here the same name of the SPI bus module you have used in schematic. */
  35:lib_Fat/sdcard.c **** #define SPI_NAME                SPI  
  36:lib_Fat/sdcard.c **** #define SPI_HW_NAME             SwSPI_Master
  37:lib_Fat/sdcard.c **** /* Put here function used to control SPI SS line.
  38:lib_Fat/sdcard.c ****        Example: 
  39:lib_Fat/sdcard.c ****         - if using Cypress API macros: SPI_ss0_m_Write
  40:lib_Fat/sdcard.c ****         - if using another gpio pint: SPI_SS_Write. */
  41:lib_Fat/sdcard.c **** #define mmSPI_SS_Write(value)   SPI_ss0_m_Write(value)
  42:lib_Fat/sdcard.c **** //#define mmSPI_SS_Write(value)     SPI_SS_Write(value)       
  43:lib_Fat/sdcard.c **** 
  44:lib_Fat/sdcard.c **** #define CS_DELAY_US             1
  45:lib_Fat/sdcard.c **** #define M_DELAY_US              100
  46:lib_Fat/sdcard.c **** 
  47:lib_Fat/sdcard.c ****     /* Text substitution macros to avoid changing function names related to SPI API
  48:lib_Fat/sdcard.c ****        if SPI module name is changed in schematic. */
  49:lib_Fat/sdcard.c **** 
  50:lib_Fat/sdcard.c **** #define CONCATENATE(name, function)                 CONCAT(name, function)
  51:lib_Fat/sdcard.c **** #define CONCAT(name, function)                      name##function
  52:lib_Fat/sdcard.c **** 
  53:lib_Fat/sdcard.c **** #if (CY_PSOC4)
  54:lib_Fat/sdcard.c **** 
  55:lib_Fat/sdcard.c ****     
  56:lib_Fat/sdcard.c ****     /*
  57:lib_Fat/sdcard.c ****     #define mmSPI_SpiUartClearTxBuffer                  CONCATENATE(SPI_NAME, _SpiUartClearTxBuffer
  58:lib_Fat/sdcard.c ****     #define mmSPI_SpiUartClearRxBuffer                  CONCATENATE(SPI_NAME, _SpiUartClearRxBuffer
  59:lib_Fat/sdcard.c ****     #define mmSPI_SpiUartPutArray(a, b)                 CONCATENATE(SPI_NAME, _SpiUartPutArray(a, b
  60:lib_Fat/sdcard.c ****     #define mmSPI_SpiUartWriteTxData(value)             CONCATENATE(SPI_NAME, _SpiUartWriteTxData(v
  61:lib_Fat/sdcard.c ****     #define mmSPI_SpiUartReadRxData                     CONCATENATE(SPI_NAME, _SpiUartReadRxData)
  62:lib_Fat/sdcard.c ****     #define mmSPI_GetMasterInterruptSource              CONCATENATE(SPI_NAME, _GetMasterInterruptSo
  63:lib_Fat/sdcard.c ****     #define mmSPI_ClearMasterInterruptSource(value)     CONCATENATE(SPI_NAME, _ClearMasterInterrupt
  64:lib_Fat/sdcard.c ****     #define mmSPI_INTR_MASTER_SPI_DONE                  CONCATENATE(SPI_NAME, _INTR_MASTER_SPI_DONE
  65:lib_Fat/sdcard.c ****     */
  66:lib_Fat/sdcard.c ****     
  67:lib_Fat/sdcard.c ****     //#define mmSPI_SpiUartClearTxBuffer                  CONCATENATE(SPI_NAME, _SpiUartClearTxBuff
  68:lib_Fat/sdcard.c ****     //#define mmSPI_SpiUartClearRxBuffer                  CONCATENATE(SPI_NAME, _SpiUartClearRxBuff
  69:lib_Fat/sdcard.c ****     #define mmSPI_SpiUartPutArray(a, b)                 CONCATENATE(SPI_HW_NAME, _SendBuff(a, b)) 
  70:lib_Fat/sdcard.c ****     #define mmSPI_SpiUartWriteTxData(value)             CONCATENATE(SPI_HW_NAME, _SendByte(value))
  71:lib_Fat/sdcard.c ****     #define mmSPI_SpiUartReadRxData                     CONCATENATE(SPI_HW_NAME, _RecvByte)
  72:lib_Fat/sdcard.c ****     
  73:lib_Fat/sdcard.c ****     //#define mmSPI_GetMasterInterruptSource              CONCATENATE(SPI_HW_NAME, _GetMasterInterr
  74:lib_Fat/sdcard.c ****     //#define mmSPI_ClearMasterInterruptSource(value)     CONCATENATE(SPI_HW_NAME, _ClearMasterInte
  75:lib_Fat/sdcard.c ****     //#define mmSPI_INTR_MASTER_SPI_DONE                  CONCATENATE(SPI_HW_NAME, _INTR_MASTER_SPI
  76:lib_Fat/sdcard.c **** 
  77:lib_Fat/sdcard.c ****     
  78:lib_Fat/sdcard.c **** #endif    
  79:lib_Fat/sdcard.c **** 
  80:lib_Fat/sdcard.c **** #if (CY_PSOC5LP) 
  81:lib_Fat/sdcard.c ****     #define mmSPI_SpiUartClearTxBuffer                  CONCATENATE(SPI_NAME, _ClearTxBuffer)
  82:lib_Fat/sdcard.c ****     #define mmSPI_SpiUartClearRxBuffer                  CONCATENATE(SPI_NAME, _ClearRxBuffer)    
ARM GAS  C:\Users\Petro\AppData\Local\Temp\cc015mwj.s 			page 3


  83:lib_Fat/sdcard.c ****     #define mmSPI_SpiUartPutArray(a, b)                 CONCATENATE(SPI_NAME, _PutArray(a, b)) 
  84:lib_Fat/sdcard.c ****     #define mmSPI_SpiUartWriteTxData(value)             CONCATENATE(SPI_NAME, _WriteTxData(value))
  85:lib_Fat/sdcard.c ****     #define mmSPI_SpiUartReadRxData                     CONCATENATE(SPI_NAME, _ReadRxData)
  86:lib_Fat/sdcard.c ****     #define mmSPI_GetMasterInterruptSource              CONCATENATE(SPI_NAME, _GetMasterInterruptSo
  87:lib_Fat/sdcard.c ****     #define mmSPI_ClearMasterInterruptSource(value)     CONCATENATE(SPI_NAME, _ClearMasterInterrupt
  88:lib_Fat/sdcard.c ****     #define mmSPI_INTR_MASTER_SPI_DONE                  CONCATENATE(SPI_NAME, _INTR_MASTER_SPI_DONE
  89:lib_Fat/sdcard.c **** #endif 
  90:lib_Fat/sdcard.c **** 
  91:lib_Fat/sdcard.c ****     /* Delays. */
  92:lib_Fat/sdcard.c **** #define dly_us(n)               CyDelayUs(n); /* Delay n microseconds. */
  93:lib_Fat/sdcard.c **** 
  94:lib_Fat/sdcard.c **** /*--------------------------------------------------------------------------
  95:lib_Fat/sdcard.c **** 
  96:lib_Fat/sdcard.c ****    Module Private Functions
  97:lib_Fat/sdcard.c **** 
  98:lib_Fat/sdcard.c **** ---------------------------------------------------------------------------*/
  99:lib_Fat/sdcard.c **** 
 100:lib_Fat/sdcard.c **** /* MMC/SD command (SPI mode) */
 101:lib_Fat/sdcard.c **** #define CMD0	(0)			/* GO_IDLE_STATE */
 102:lib_Fat/sdcard.c **** #define CMD1	(1)			/* SEND_OP_COND */
 103:lib_Fat/sdcard.c **** #define	ACMD41	(0x80+41)	/* SEND_OP_COND (SDC) */
 104:lib_Fat/sdcard.c **** #define CMD8	(8)			/* SEND_IF_COND */
 105:lib_Fat/sdcard.c **** #define CMD9	(9)			/* SEND_CSD */
 106:lib_Fat/sdcard.c **** #define CMD10	(10)		/* SEND_CID */
 107:lib_Fat/sdcard.c **** #define CMD12	(12)		/* STOP_TRANSMISSION */
 108:lib_Fat/sdcard.c **** #define CMD13	(13)		/* SEND_STATUS */
 109:lib_Fat/sdcard.c **** #define ACMD13	(0x80+13)	/* SD_STATUS (SDC) */
 110:lib_Fat/sdcard.c **** #define CMD16	(16)		/* SET_BLOCKLEN */
 111:lib_Fat/sdcard.c **** #define CMD17	(17)		/* READ_SINGLE_BLOCK */
 112:lib_Fat/sdcard.c **** #define CMD18	(18)		/* READ_MULTIPLE_BLOCK */
 113:lib_Fat/sdcard.c **** #define CMD23	(23)		/* SET_BLOCK_COUNT */
 114:lib_Fat/sdcard.c **** #define	ACMD23	(0x80+23)	/* SET_WR_BLK_ERASE_COUNT (SDC) */
 115:lib_Fat/sdcard.c **** #define CMD24	(24)		/* WRITE_BLOCK */
 116:lib_Fat/sdcard.c **** #define CMD25	(25)		/* WRITE_MULTIPLE_BLOCK */
 117:lib_Fat/sdcard.c **** #define CMD32	(32)		/* ERASE_ER_BLK_START */
 118:lib_Fat/sdcard.c **** #define CMD33	(33)		/* ERASE_ER_BLK_END */
 119:lib_Fat/sdcard.c **** #define CMD38	(38)		/* ERASE */
 120:lib_Fat/sdcard.c **** #define CMD55	(55)		/* APP_CMD */
 121:lib_Fat/sdcard.c **** #define CMD58	(58)		/* READ_OCR */
 122:lib_Fat/sdcard.c **** 
 123:lib_Fat/sdcard.c **** 
 124:lib_Fat/sdcard.c **** static DSTATUS Stat = STA_NOINIT;	/* Disk status */
 125:lib_Fat/sdcard.c **** 
 126:lib_Fat/sdcard.c **** static BYTE CardType;			/* b0:MMC, b1:SDv1, b2:SDv2, b3:Block addressing */
 127:lib_Fat/sdcard.c **** 
 128:lib_Fat/sdcard.c **** /*-----------------------------------------------------------------------*/
 129:lib_Fat/sdcard.c **** /* Transmit bytes to the card                                            */
 130:lib_Fat/sdcard.c **** /*-----------------------------------------------------------------------*/
 131:lib_Fat/sdcard.c **** 
 132:lib_Fat/sdcard.c **** static void xmit_mmc(const BYTE* buff, UINT bc)
 133:lib_Fat/sdcard.c **** {
  33              		.loc 1 133 0
  34              		.cfi_startproc
  35 0000 80B5     		push	{r7, lr}
  36              		.cfi_def_cfa_offset 8
  37              		.cfi_offset 7, -8
  38              		.cfi_offset 14, -4
ARM GAS  C:\Users\Petro\AppData\Local\Temp\cc015mwj.s 			page 4


  39 0002 82B0     		sub	sp, sp, #8
  40              		.cfi_def_cfa_offset 16
  41 0004 00AF     		add	r7, sp, #0
  42              		.cfi_def_cfa_register 7
  43 0006 7860     		str	r0, [r7, #4]
  44 0008 3960     		str	r1, [r7]
 134:lib_Fat/sdcard.c **** 
 135:lib_Fat/sdcard.c **** #if (CY_PSOC4)
 136:lib_Fat/sdcard.c **** 
 137:lib_Fat/sdcard.c **** //    mmSPI_SpiUartClearTxBuffer();
 138:lib_Fat/sdcard.c **** //    mmSPI_SpiUartClearRxBuffer();
 139:lib_Fat/sdcard.c ****     SD_CS_Write(0);
  45              		.loc 1 139 0
  46 000a 0020     		mov	r0, #0
  47 000c FFF7FEFF 		bl	SD_CS_Write
 140:lib_Fat/sdcard.c ****       mmSPI_SpiUartPutArray(buff, bc);
  48              		.loc 1 140 0
  49 0010 3B68     		ldr	r3, [r7]
  50 0012 9BB2     		uxth	r3, r3
  51 0014 7A68     		ldr	r2, [r7, #4]
  52 0016 101C     		mov	r0, r2
  53 0018 191C     		mov	r1, r3
  54 001a FFF7FEFF 		bl	SwSPI_Master_SendBuff
 141:lib_Fat/sdcard.c ****     
 142:lib_Fat/sdcard.c ****       CyDelay(5);
  55              		.loc 1 142 0
  56 001e 0520     		mov	r0, #5
  57 0020 FFF7FEFF 		bl	CyDelay
 143:lib_Fat/sdcard.c ****     //while(0u == (mmSPI_GetMasterInterruptSource() & mmSPI_INTR_MASTER_SPI_DONE));
 144:lib_Fat/sdcard.c ****     
 145:lib_Fat/sdcard.c **** #endif
 146:lib_Fat/sdcard.c **** 
 147:lib_Fat/sdcard.c **** #if (CY_PSOC5LP)
 148:lib_Fat/sdcard.c ****     
 149:lib_Fat/sdcard.c ****     UINT loop;
 150:lib_Fat/sdcard.c ****     
 151:lib_Fat/sdcard.c ****     SPI_ClearTxBuffer();
 152:lib_Fat/sdcard.c ****     SPI_ClearRxBuffer();
 153:lib_Fat/sdcard.c ****     
 154:lib_Fat/sdcard.c ****     for (loop = 0; loop < bc; loop++)
 155:lib_Fat/sdcard.c ****         SPI_WriteTxData(buff[loop]);
 156:lib_Fat/sdcard.c ****     
 157:lib_Fat/sdcard.c ****     while (SPI_GetTxBufferSize()) {};
 158:lib_Fat/sdcard.c ****     
 159:lib_Fat/sdcard.c **** #endif    
 160:lib_Fat/sdcard.c **** }
  58              		.loc 1 160 0
  59 0024 BD46     		mov	sp, r7
  60 0026 02B0     		add	sp, sp, #8
  61              		@ sp needed
  62 0028 80BD     		pop	{r7, pc}
  63              		.cfi_endproc
  64              	.LFE63:
  65              		.size	xmit_mmc, .-xmit_mmc
  66 002a C046     		.section	.text.rcvr_mmc,"ax",%progbits
  67              		.align	2
  68              		.code	16
ARM GAS  C:\Users\Petro\AppData\Local\Temp\cc015mwj.s 			page 5


  69              		.thumb_func
  70              		.type	rcvr_mmc, %function
  71              	rcvr_mmc:
  72              	.LFB64:
 161:lib_Fat/sdcard.c **** 
 162:lib_Fat/sdcard.c **** 
 163:lib_Fat/sdcard.c **** 
 164:lib_Fat/sdcard.c **** /*-----------------------------------------------------------------------*/
 165:lib_Fat/sdcard.c **** /* Receive bytes from the card                                           */
 166:lib_Fat/sdcard.c **** /*-----------------------------------------------------------------------*/
 167:lib_Fat/sdcard.c **** 
 168:lib_Fat/sdcard.c **** static void rcvr_mmc(BYTE *buff, UINT bc)
 169:lib_Fat/sdcard.c **** {
  73              		.loc 1 169 0
  74              		.cfi_startproc
  75 0000 90B5     		push	{r4, r7, lr}
  76              		.cfi_def_cfa_offset 12
  77              		.cfi_offset 4, -12
  78              		.cfi_offset 7, -8
  79              		.cfi_offset 14, -4
  80 0002 83B0     		sub	sp, sp, #12
  81              		.cfi_def_cfa_offset 24
  82 0004 00AF     		add	r7, sp, #0
  83              		.cfi_def_cfa_register 7
  84 0006 7860     		str	r0, [r7, #4]
  85 0008 3960     		str	r1, [r7]
 170:lib_Fat/sdcard.c **** 
 171:lib_Fat/sdcard.c **** #if (CY_PSOC4) 
 172:lib_Fat/sdcard.c ****     
 173:lib_Fat/sdcard.c ****     //mmSPI_SpiUartClearTxBuffer();
 174:lib_Fat/sdcard.c ****     //mmSPI_SpiUartClearRxBuffer();
 175:lib_Fat/sdcard.c ****     SD_CS_Write(0);
  86              		.loc 1 175 0
  87 000a 0020     		mov	r0, #0
  88 000c FFF7FEFF 		bl	SD_CS_Write
  89              	.L3:
 176:lib_Fat/sdcard.c ****     do
 177:lib_Fat/sdcard.c ****     {
 178:lib_Fat/sdcard.c **** 
 179:lib_Fat/sdcard.c ****         //while(0u == (mmSPI_GetMasterInterruptSource() & mmSPI_INTR_MASTER_SPI_DONE));
 180:lib_Fat/sdcard.c ****         //CyDelayUs(M_DELAY_US); // <*> adjust, why?
 181:lib_Fat/sdcard.c ****         //mmSPI_SpiUartWriteTxData(0xFF);
 182:lib_Fat/sdcard.c ****         *buff++ = (BYTE)mmSPI_SpiUartReadRxData();
  90              		.loc 1 182 0 discriminator 1
  91 0010 7C68     		ldr	r4, [r7, #4]
  92 0012 631C     		add	r3, r4, #1
  93 0014 7B60     		str	r3, [r7, #4]
  94 0016 FFF7FEFF 		bl	SwSPI_Master_RecvByte
  95 001a 031C     		mov	r3, r0
  96 001c 2370     		strb	r3, [r4]
 183:lib_Fat/sdcard.c **** 
 184:lib_Fat/sdcard.c ****     } while (--bc);   
  97              		.loc 1 184 0 discriminator 1
  98 001e 3B68     		ldr	r3, [r7]
  99 0020 013B     		sub	r3, r3, #1
 100 0022 3B60     		str	r3, [r7]
 101 0024 3B68     		ldr	r3, [r7]
ARM GAS  C:\Users\Petro\AppData\Local\Temp\cc015mwj.s 			page 6


 102 0026 002B     		cmp	r3, #0
 103 0028 F2D1     		bne	.L3
 185:lib_Fat/sdcard.c ****     
 186:lib_Fat/sdcard.c **** #endif    
 187:lib_Fat/sdcard.c ****     
 188:lib_Fat/sdcard.c **** #if (CY_PSOC5LP)
 189:lib_Fat/sdcard.c ****     
 190:lib_Fat/sdcard.c ****     SPI_ClearTxBuffer();
 191:lib_Fat/sdcard.c ****     SPI_ClearRxBuffer();
 192:lib_Fat/sdcard.c ****     
 193:lib_Fat/sdcard.c ****     do
 194:lib_Fat/sdcard.c ****     {
 195:lib_Fat/sdcard.c **** 
 196:lib_Fat/sdcard.c ****         SPI_WriteTxData(0xFF);
 197:lib_Fat/sdcard.c ****         while (SPI_GetTxBufferSize()) {};
 198:lib_Fat/sdcard.c ****         CyDelayUs(M_DELAY_US); // <*> adjust, why?
 199:lib_Fat/sdcard.c ****         *buff++ = (BYTE)SPI_ReadRxData();
 200:lib_Fat/sdcard.c **** 
 201:lib_Fat/sdcard.c ****     } while (--bc);    
 202:lib_Fat/sdcard.c ****     
 203:lib_Fat/sdcard.c **** #endif        
 204:lib_Fat/sdcard.c **** 
 205:lib_Fat/sdcard.c **** }
 104              		.loc 1 205 0
 105 002a BD46     		mov	sp, r7
 106 002c 03B0     		add	sp, sp, #12
 107              		@ sp needed
 108 002e 90BD     		pop	{r4, r7, pc}
 109              		.cfi_endproc
 110              	.LFE64:
 111              		.size	rcvr_mmc, .-rcvr_mmc
 112              		.section	.text.wait_ready,"ax",%progbits
 113              		.align	2
 114              		.code	16
 115              		.thumb_func
 116              		.type	wait_ready, %function
 117              	wait_ready:
 118              	.LFB65:
 206:lib_Fat/sdcard.c **** 
 207:lib_Fat/sdcard.c **** 
 208:lib_Fat/sdcard.c **** 
 209:lib_Fat/sdcard.c **** /*-----------------------------------------------------------------------*/
 210:lib_Fat/sdcard.c **** /* Wait for card ready                                                   */
 211:lib_Fat/sdcard.c **** /*-----------------------------------------------------------------------*/
 212:lib_Fat/sdcard.c **** 
 213:lib_Fat/sdcard.c **** static int wait_ready(void)	/* 1:OK, 0:Timeout */
 214:lib_Fat/sdcard.c **** {
 119              		.loc 1 214 0
 120              		.cfi_startproc
 121 0000 80B5     		push	{r7, lr}
 122              		.cfi_def_cfa_offset 8
 123              		.cfi_offset 7, -8
 124              		.cfi_offset 14, -4
 125 0002 82B0     		sub	sp, sp, #8
 126              		.cfi_def_cfa_offset 16
 127 0004 00AF     		add	r7, sp, #0
 128              		.cfi_def_cfa_register 7
ARM GAS  C:\Users\Petro\AppData\Local\Temp\cc015mwj.s 			page 7


 215:lib_Fat/sdcard.c **** 	BYTE d;
 216:lib_Fat/sdcard.c **** 	UINT tmr;
 217:lib_Fat/sdcard.c **** 
 218:lib_Fat/sdcard.c **** 	for (tmr = 5000; tmr; tmr--) {	/* Wait for ready in timeout of 500ms */
 129              		.loc 1 218 0
 130 0006 0F4B     		ldr	r3, .L10
 131 0008 7B60     		str	r3, [r7, #4]
 132 000a 0FE0     		b	.L5
 133              	.L8:
 219:lib_Fat/sdcard.c **** 		rcvr_mmc(&d, 1);
 134              		.loc 1 219 0
 135 000c FB1C     		add	r3, r7, #3
 136 000e 181C     		mov	r0, r3
 137 0010 0121     		mov	r1, #1
 138 0012 FFF7FEFF 		bl	rcvr_mmc
 220:lib_Fat/sdcard.c **** 		if (d == 0xFF) break;
 139              		.loc 1 220 0
 140 0016 FB1C     		add	r3, r7, #3
 141 0018 1B78     		ldrb	r3, [r3]
 142 001a FF2B     		cmp	r3, #255
 143 001c 00D1     		bne	.L6
 144 001e 08E0     		b	.L7
 145              	.L6:
 221:lib_Fat/sdcard.c **** 		dly_us(100);
 146              		.loc 1 221 0 discriminator 2
 147 0020 6420     		mov	r0, #100
 148 0022 FFF7FEFF 		bl	CyDelayUs
 218:lib_Fat/sdcard.c **** 		rcvr_mmc(&d, 1);
 149              		.loc 1 218 0 discriminator 2
 150 0026 7B68     		ldr	r3, [r7, #4]
 151 0028 013B     		sub	r3, r3, #1
 152 002a 7B60     		str	r3, [r7, #4]
 153              	.L5:
 218:lib_Fat/sdcard.c **** 		rcvr_mmc(&d, 1);
 154              		.loc 1 218 0 is_stmt 0 discriminator 1
 155 002c 7B68     		ldr	r3, [r7, #4]
 156 002e 002B     		cmp	r3, #0
 157 0030 ECD1     		bne	.L8
 158              	.L7:
 222:lib_Fat/sdcard.c **** 	}
 223:lib_Fat/sdcard.c **** 
 224:lib_Fat/sdcard.c **** 	return tmr ? 1 : 0;
 159              		.loc 1 224 0 is_stmt 1
 160 0032 7B68     		ldr	r3, [r7, #4]
 161 0034 5A1E     		sub	r2, r3, #1
 162 0036 9341     		sbc	r3, r3, r2
 163 0038 DBB2     		uxtb	r3, r3
 225:lib_Fat/sdcard.c **** }
 164              		.loc 1 225 0
 165 003a 181C     		mov	r0, r3
 166 003c BD46     		mov	sp, r7
 167 003e 02B0     		add	sp, sp, #8
 168              		@ sp needed
 169 0040 80BD     		pop	{r7, pc}
 170              	.L11:
 171 0042 C046     		.align	2
 172              	.L10:
ARM GAS  C:\Users\Petro\AppData\Local\Temp\cc015mwj.s 			page 8


 173 0044 88130000 		.word	5000
 174              		.cfi_endproc
 175              	.LFE65:
 176              		.size	wait_ready, .-wait_ready
 177              		.section	.text.deselect,"ax",%progbits
 178              		.align	2
 179              		.code	16
 180              		.thumb_func
 181              		.type	deselect, %function
 182              	deselect:
 183              	.LFB66:
 226:lib_Fat/sdcard.c **** 
 227:lib_Fat/sdcard.c **** /*-----------------------------------------------------------------------*/
 228:lib_Fat/sdcard.c **** /* Deselect the card and release SPI bus                                 */
 229:lib_Fat/sdcard.c **** /*-----------------------------------------------------------------------*/
 230:lib_Fat/sdcard.c **** 
 231:lib_Fat/sdcard.c **** static void deselect(void)
 232:lib_Fat/sdcard.c **** {
 184              		.loc 1 232 0
 185              		.cfi_startproc
 186 0000 80B5     		push	{r7, lr}
 187              		.cfi_def_cfa_offset 8
 188              		.cfi_offset 7, -8
 189              		.cfi_offset 14, -4
 190 0002 82B0     		sub	sp, sp, #8
 191              		.cfi_def_cfa_offset 16
 192 0004 00AF     		add	r7, sp, #0
 193              		.cfi_def_cfa_register 7
 233:lib_Fat/sdcard.c **** 	BYTE d;
 234:lib_Fat/sdcard.c **** 
 235:lib_Fat/sdcard.c ****     CyDelayUs(CS_DELAY_US); // <*> adjust
 194              		.loc 1 235 0
 195 0006 0120     		mov	r0, #1
 196 0008 FFF7FEFF 		bl	CyDelayUs
 236:lib_Fat/sdcard.c **** 	rcvr_mmc(&d, 1);	/* Dummy clock (force DO hi-z for multiple slave SPI) */
 197              		.loc 1 236 0
 198 000c FB1D     		add	r3, r7, #7
 199 000e 181C     		mov	r0, r3
 200 0010 0121     		mov	r1, #1
 201 0012 FFF7FEFF 		bl	rcvr_mmc
 237:lib_Fat/sdcard.c **** }
 202              		.loc 1 237 0
 203 0016 BD46     		mov	sp, r7
 204 0018 02B0     		add	sp, sp, #8
 205              		@ sp needed
 206 001a 80BD     		pop	{r7, pc}
 207              		.cfi_endproc
 208              	.LFE66:
 209              		.size	deselect, .-deselect
 210              		.section	.text.select,"ax",%progbits
 211              		.align	2
 212              		.code	16
 213              		.thumb_func
 214              		.type	select, %function
 215              	select:
 216              	.LFB67:
 238:lib_Fat/sdcard.c **** 
ARM GAS  C:\Users\Petro\AppData\Local\Temp\cc015mwj.s 			page 9


 239:lib_Fat/sdcard.c **** /*-----------------------------------------------------------------------*/
 240:lib_Fat/sdcard.c **** /* Select the card and wait for ready                                    */
 241:lib_Fat/sdcard.c **** /*-----------------------------------------------------------------------*/
 242:lib_Fat/sdcard.c **** 
 243:lib_Fat/sdcard.c **** static int select(void)	/* 1:OK, 0:Timeout */
 244:lib_Fat/sdcard.c **** {
 217              		.loc 1 244 0
 218              		.cfi_startproc
 219 0000 80B5     		push	{r7, lr}
 220              		.cfi_def_cfa_offset 8
 221              		.cfi_offset 7, -8
 222              		.cfi_offset 14, -4
 223 0002 82B0     		sub	sp, sp, #8
 224              		.cfi_def_cfa_offset 16
 225 0004 00AF     		add	r7, sp, #0
 226              		.cfi_def_cfa_register 7
 245:lib_Fat/sdcard.c **** 	BYTE d;
 246:lib_Fat/sdcard.c **** 
 247:lib_Fat/sdcard.c ****     CyDelayUs(CS_DELAY_US); // <*> adjust
 227              		.loc 1 247 0
 228 0006 0120     		mov	r0, #1
 229 0008 FFF7FEFF 		bl	CyDelayUs
 248:lib_Fat/sdcard.c **** 	rcvr_mmc(&d, 1);	/* Dummy clock (force DO enabled) */
 230              		.loc 1 248 0
 231 000c FB1D     		add	r3, r7, #7
 232 000e 181C     		mov	r0, r3
 233 0010 0121     		mov	r1, #1
 234 0012 FFF7FEFF 		bl	rcvr_mmc
 249:lib_Fat/sdcard.c **** 	if (wait_ready()) return 1;	/* Wait for card ready */
 235              		.loc 1 249 0
 236 0016 FFF7FEFF 		bl	wait_ready
 237 001a 031E     		sub	r3, r0, #0
 238 001c 01D0     		beq	.L14
 239              		.loc 1 249 0 is_stmt 0 discriminator 1
 240 001e 0123     		mov	r3, #1
 241 0020 02E0     		b	.L16
 242              	.L14:
 250:lib_Fat/sdcard.c **** 
 251:lib_Fat/sdcard.c **** 	deselect();
 243              		.loc 1 251 0 is_stmt 1
 244 0022 FFF7FEFF 		bl	deselect
 252:lib_Fat/sdcard.c **** 	return 0;			/* Failed */
 245              		.loc 1 252 0
 246 0026 0023     		mov	r3, #0
 247              	.L16:
 253:lib_Fat/sdcard.c **** }
 248              		.loc 1 253 0 discriminator 1
 249 0028 181C     		mov	r0, r3
 250 002a BD46     		mov	sp, r7
 251 002c 02B0     		add	sp, sp, #8
 252              		@ sp needed
 253 002e 80BD     		pop	{r7, pc}
 254              		.cfi_endproc
 255              	.LFE67:
 256              		.size	select, .-select
 257              		.section	.text.rcvr_datablock,"ax",%progbits
 258              		.align	2
ARM GAS  C:\Users\Petro\AppData\Local\Temp\cc015mwj.s 			page 10


 259              		.code	16
 260              		.thumb_func
 261              		.type	rcvr_datablock, %function
 262              	rcvr_datablock:
 263              	.LFB68:
 254:lib_Fat/sdcard.c **** 
 255:lib_Fat/sdcard.c **** /*-----------------------------------------------------------------------*/
 256:lib_Fat/sdcard.c **** /* Receive a data packet from the card                                   */
 257:lib_Fat/sdcard.c **** /*-----------------------------------------------------------------------*/
 258:lib_Fat/sdcard.c **** 
 259:lib_Fat/sdcard.c **** static int rcvr_datablock(BYTE *buff, UINT btr) 	/* 1:OK, 0:Failed */
 260:lib_Fat/sdcard.c **** {
 264              		.loc 1 260 0
 265              		.cfi_startproc
 266 0000 80B5     		push	{r7, lr}
 267              		.cfi_def_cfa_offset 8
 268              		.cfi_offset 7, -8
 269              		.cfi_offset 14, -4
 270 0002 84B0     		sub	sp, sp, #16
 271              		.cfi_def_cfa_offset 24
 272 0004 00AF     		add	r7, sp, #0
 273              		.cfi_def_cfa_register 7
 274 0006 7860     		str	r0, [r7, #4]
 275 0008 3960     		str	r1, [r7]
 261:lib_Fat/sdcard.c **** 	BYTE d[2];
 262:lib_Fat/sdcard.c **** 	UINT tmr;
 263:lib_Fat/sdcard.c **** 
 264:lib_Fat/sdcard.c **** 	for (tmr = 1000; tmr; tmr--) {	/* Wait for data packet in timeout of 100ms */
 276              		.loc 1 264 0
 277 000a FA23     		mov	r3, #250
 278 000c 9B00     		lsl	r3, r3, #2
 279 000e FB60     		str	r3, [r7, #12]
 280 0010 11E0     		b	.L18
 281              	.L21:
 265:lib_Fat/sdcard.c **** 		rcvr_mmc(d, 1);
 282              		.loc 1 265 0
 283 0012 0823     		mov	r3, #8
 284 0014 FB18     		add	r3, r7, r3
 285 0016 181C     		mov	r0, r3
 286 0018 0121     		mov	r1, #1
 287 001a FFF7FEFF 		bl	rcvr_mmc
 266:lib_Fat/sdcard.c **** 		if (d[0] != 0xFF) break;
 288              		.loc 1 266 0
 289 001e 0823     		mov	r3, #8
 290 0020 FB18     		add	r3, r7, r3
 291 0022 1B78     		ldrb	r3, [r3]
 292 0024 FF2B     		cmp	r3, #255
 293 0026 00D0     		beq	.L19
 294 0028 08E0     		b	.L20
 295              	.L19:
 267:lib_Fat/sdcard.c **** 		dly_us(100);
 296              		.loc 1 267 0 discriminator 2
 297 002a 6420     		mov	r0, #100
 298 002c FFF7FEFF 		bl	CyDelayUs
 264:lib_Fat/sdcard.c **** 		rcvr_mmc(d, 1);
 299              		.loc 1 264 0 discriminator 2
 300 0030 FB68     		ldr	r3, [r7, #12]
ARM GAS  C:\Users\Petro\AppData\Local\Temp\cc015mwj.s 			page 11


 301 0032 013B     		sub	r3, r3, #1
 302 0034 FB60     		str	r3, [r7, #12]
 303              	.L18:
 264:lib_Fat/sdcard.c **** 		rcvr_mmc(d, 1);
 304              		.loc 1 264 0 is_stmt 0 discriminator 1
 305 0036 FB68     		ldr	r3, [r7, #12]
 306 0038 002B     		cmp	r3, #0
 307 003a EAD1     		bne	.L21
 308              	.L20:
 268:lib_Fat/sdcard.c **** 	}
 269:lib_Fat/sdcard.c **** 	if (d[0] != 0xFE) return 0;		/* If not valid data token, return with error */
 309              		.loc 1 269 0 is_stmt 1
 310 003c 0823     		mov	r3, #8
 311 003e FB18     		add	r3, r7, r3
 312 0040 1B78     		ldrb	r3, [r3]
 313 0042 FE2B     		cmp	r3, #254
 314 0044 01D0     		beq	.L22
 315              		.loc 1 269 0 is_stmt 0 discriminator 1
 316 0046 0023     		mov	r3, #0
 317 0048 0CE0     		b	.L24
 318              	.L22:
 270:lib_Fat/sdcard.c **** 
 271:lib_Fat/sdcard.c **** 	rcvr_mmc(buff, btr);			/* Receive the data block into buffer */
 319              		.loc 1 271 0 is_stmt 1
 320 004a 7A68     		ldr	r2, [r7, #4]
 321 004c 3B68     		ldr	r3, [r7]
 322 004e 101C     		mov	r0, r2
 323 0050 191C     		mov	r1, r3
 324 0052 FFF7FEFF 		bl	rcvr_mmc
 272:lib_Fat/sdcard.c **** 	rcvr_mmc(d, 2);					/* Discard CRC */
 325              		.loc 1 272 0
 326 0056 0823     		mov	r3, #8
 327 0058 FB18     		add	r3, r7, r3
 328 005a 181C     		mov	r0, r3
 329 005c 0221     		mov	r1, #2
 330 005e FFF7FEFF 		bl	rcvr_mmc
 273:lib_Fat/sdcard.c **** 
 274:lib_Fat/sdcard.c **** 	return 1;						/* Return with success */
 331              		.loc 1 274 0
 332 0062 0123     		mov	r3, #1
 333              	.L24:
 275:lib_Fat/sdcard.c **** }
 334              		.loc 1 275 0 discriminator 1
 335 0064 181C     		mov	r0, r3
 336 0066 BD46     		mov	sp, r7
 337 0068 04B0     		add	sp, sp, #16
 338              		@ sp needed
 339 006a 80BD     		pop	{r7, pc}
 340              		.cfi_endproc
 341              	.LFE68:
 342              		.size	rcvr_datablock, .-rcvr_datablock
 343              		.section	.text.xmit_datablock,"ax",%progbits
 344              		.align	2
 345              		.code	16
 346              		.thumb_func
 347              		.type	xmit_datablock, %function
 348              	xmit_datablock:
ARM GAS  C:\Users\Petro\AppData\Local\Temp\cc015mwj.s 			page 12


 349              	.LFB69:
 276:lib_Fat/sdcard.c **** 
 277:lib_Fat/sdcard.c **** /*-----------------------------------------------------------------------*/
 278:lib_Fat/sdcard.c **** /* Send a data packet to the card                                        */
 279:lib_Fat/sdcard.c **** /*-----------------------------------------------------------------------*/
 280:lib_Fat/sdcard.c **** 
 281:lib_Fat/sdcard.c **** static int xmit_datablock(const BYTE *buff, BYTE token)	/* 1:OK, 0:Failed */
 282:lib_Fat/sdcard.c **** {
 350              		.loc 1 282 0
 351              		.cfi_startproc
 352 0000 80B5     		push	{r7, lr}
 353              		.cfi_def_cfa_offset 8
 354              		.cfi_offset 7, -8
 355              		.cfi_offset 14, -4
 356 0002 84B0     		sub	sp, sp, #16
 357              		.cfi_def_cfa_offset 24
 358 0004 00AF     		add	r7, sp, #0
 359              		.cfi_def_cfa_register 7
 360 0006 7860     		str	r0, [r7, #4]
 361 0008 0A1C     		mov	r2, r1
 362 000a FB1C     		add	r3, r7, #3
 363 000c 1A70     		strb	r2, [r3]
 283:lib_Fat/sdcard.c **** 	BYTE d[2];
 284:lib_Fat/sdcard.c **** 
 285:lib_Fat/sdcard.c **** 	if (!wait_ready()) return 0;
 364              		.loc 1 285 0
 365 000e FFF7FEFF 		bl	wait_ready
 366 0012 031E     		sub	r3, r0, #0
 367 0014 01D1     		bne	.L26
 368              		.loc 1 285 0 is_stmt 0 discriminator 1
 369 0016 0023     		mov	r3, #0
 370 0018 32E0     		b	.L29
 371              	.L26:
 286:lib_Fat/sdcard.c **** 
 287:lib_Fat/sdcard.c **** 	d[0] = token;
 372              		.loc 1 287 0 is_stmt 1
 373 001a 0C23     		mov	r3, #12
 374 001c FB18     		add	r3, r7, r3
 375 001e FA1C     		add	r2, r7, #3
 376 0020 1278     		ldrb	r2, [r2]
 377 0022 1A70     		strb	r2, [r3]
 288:lib_Fat/sdcard.c **** 	xmit_mmc(d, 1);				/* Xmit a token */
 378              		.loc 1 288 0
 379 0024 0C23     		mov	r3, #12
 380 0026 FB18     		add	r3, r7, r3
 381 0028 181C     		mov	r0, r3
 382 002a 0121     		mov	r1, #1
 383 002c FFF7FEFF 		bl	xmit_mmc
 289:lib_Fat/sdcard.c ****     CyDelayUs(M_DELAY_US); // <*> why?
 384              		.loc 1 289 0
 385 0030 6420     		mov	r0, #100
 386 0032 FFF7FEFF 		bl	CyDelayUs
 290:lib_Fat/sdcard.c **** 	if (token != 0xFD) {		/* Is it data token? */
 387              		.loc 1 290 0
 388 0036 FB1C     		add	r3, r7, #3
 389 0038 1B78     		ldrb	r3, [r3]
 390 003a FD2B     		cmp	r3, #253
ARM GAS  C:\Users\Petro\AppData\Local\Temp\cc015mwj.s 			page 13


 391 003c 1FD0     		beq	.L28
 291:lib_Fat/sdcard.c **** 		xmit_mmc(buff, 512);	/* Xmit the 512 byte data block to MMC */
 392              		.loc 1 291 0
 393 003e 7A68     		ldr	r2, [r7, #4]
 394 0040 8023     		mov	r3, #128
 395 0042 9B00     		lsl	r3, r3, #2
 396 0044 101C     		mov	r0, r2
 397 0046 191C     		mov	r1, r3
 398 0048 FFF7FEFF 		bl	xmit_mmc
 292:lib_Fat/sdcard.c ****         CyDelayUs(M_DELAY_US); // <*> why?
 399              		.loc 1 292 0
 400 004c 6420     		mov	r0, #100
 401 004e FFF7FEFF 		bl	CyDelayUs
 293:lib_Fat/sdcard.c **** 		rcvr_mmc(d, 2);			/* Xmit dummy CRC (0xFF,0xFF) */
 402              		.loc 1 293 0
 403 0052 0C23     		mov	r3, #12
 404 0054 FB18     		add	r3, r7, r3
 405 0056 181C     		mov	r0, r3
 406 0058 0221     		mov	r1, #2
 407 005a FFF7FEFF 		bl	rcvr_mmc
 294:lib_Fat/sdcard.c **** 		rcvr_mmc(d, 1);			/* Receive data response */
 408              		.loc 1 294 0
 409 005e 0C23     		mov	r3, #12
 410 0060 FB18     		add	r3, r7, r3
 411 0062 181C     		mov	r0, r3
 412 0064 0121     		mov	r1, #1
 413 0066 FFF7FEFF 		bl	rcvr_mmc
 295:lib_Fat/sdcard.c **** 		if ((d[0] & 0x1F) != 0x05)	/* If not accepted, return with error */
 414              		.loc 1 295 0
 415 006a 0C23     		mov	r3, #12
 416 006c FB18     		add	r3, r7, r3
 417 006e 1B78     		ldrb	r3, [r3]
 418 0070 1A1C     		mov	r2, r3
 419 0072 1F23     		mov	r3, #31
 420 0074 1340     		and	r3, r2
 421 0076 052B     		cmp	r3, #5
 422 0078 01D0     		beq	.L28
 296:lib_Fat/sdcard.c **** 			return 0;
 423              		.loc 1 296 0
 424 007a 0023     		mov	r3, #0
 425 007c 00E0     		b	.L29
 426              	.L28:
 297:lib_Fat/sdcard.c **** 	}
 298:lib_Fat/sdcard.c **** 
 299:lib_Fat/sdcard.c **** 	return 1;
 427              		.loc 1 299 0
 428 007e 0123     		mov	r3, #1
 429              	.L29:
 300:lib_Fat/sdcard.c **** }
 430              		.loc 1 300 0 discriminator 1
 431 0080 181C     		mov	r0, r3
 432 0082 BD46     		mov	sp, r7
 433 0084 04B0     		add	sp, sp, #16
 434              		@ sp needed
 435 0086 80BD     		pop	{r7, pc}
 436              		.cfi_endproc
 437              	.LFE69:
ARM GAS  C:\Users\Petro\AppData\Local\Temp\cc015mwj.s 			page 14


 438              		.size	xmit_datablock, .-xmit_datablock
 439              		.section	.text.send_cmd,"ax",%progbits
 440              		.align	2
 441              		.code	16
 442              		.thumb_func
 443              		.type	send_cmd, %function
 444              	send_cmd:
 445              	.LFB70:
 301:lib_Fat/sdcard.c **** 
 302:lib_Fat/sdcard.c **** /*-----------------------------------------------------------------------*/
 303:lib_Fat/sdcard.c **** /* Send a command packet to the card                                     */
 304:lib_Fat/sdcard.c **** /*-----------------------------------------------------------------------*/
 305:lib_Fat/sdcard.c **** 
 306:lib_Fat/sdcard.c **** static BYTE send_cmd(BYTE cmd,	DWORD arg)		/* Returns command response (bit7==1:Send failed)*/
 307:lib_Fat/sdcard.c **** {
 446              		.loc 1 307 0
 447              		.cfi_startproc
 448 0000 90B5     		push	{r4, r7, lr}
 449              		.cfi_def_cfa_offset 12
 450              		.cfi_offset 4, -12
 451              		.cfi_offset 7, -8
 452              		.cfi_offset 14, -4
 453 0002 85B0     		sub	sp, sp, #20
 454              		.cfi_def_cfa_offset 32
 455 0004 00AF     		add	r7, sp, #0
 456              		.cfi_def_cfa_register 7
 457 0006 021C     		mov	r2, r0
 458 0008 3960     		str	r1, [r7]
 459 000a FB1D     		add	r3, r7, #7
 460 000c 1A70     		strb	r2, [r3]
 308:lib_Fat/sdcard.c **** 	BYTE n, d, buf[6];
 309:lib_Fat/sdcard.c **** 
 310:lib_Fat/sdcard.c **** 
 311:lib_Fat/sdcard.c **** 	if (cmd & 0x80) {	/* ACMD<n> is the command sequense of CMD55-CMD<n> */
 461              		.loc 1 311 0
 462 000e FB1D     		add	r3, r7, #7
 463 0010 1B78     		ldrb	r3, [r3]
 464 0012 5BB2     		sxtb	r3, r3
 465 0014 002B     		cmp	r3, #0
 466 0016 16DA     		bge	.L31
 312:lib_Fat/sdcard.c **** 		cmd &= 0x7F;
 467              		.loc 1 312 0
 468 0018 FB1D     		add	r3, r7, #7
 469 001a FA1D     		add	r2, r7, #7
 470 001c 1278     		ldrb	r2, [r2]
 471 001e 7F21     		mov	r1, #127
 472 0020 0A40     		and	r2, r1
 473 0022 1A70     		strb	r2, [r3]
 313:lib_Fat/sdcard.c **** 		n = send_cmd(CMD55, 0);
 474              		.loc 1 313 0
 475 0024 0F23     		mov	r3, #15
 476 0026 FC18     		add	r4, r7, r3
 477 0028 3720     		mov	r0, #55
 478 002a 0021     		mov	r1, #0
 479 002c FFF7E8FF 		bl	send_cmd
 480 0030 031C     		mov	r3, r0
 481 0032 2370     		strb	r3, [r4]
ARM GAS  C:\Users\Petro\AppData\Local\Temp\cc015mwj.s 			page 15


 314:lib_Fat/sdcard.c **** 		if (n > 1) return n;
 482              		.loc 1 314 0
 483 0034 0F23     		mov	r3, #15
 484 0036 FB18     		add	r3, r7, r3
 485 0038 1B78     		ldrb	r3, [r3]
 486 003a 012B     		cmp	r3, #1
 487 003c 03D9     		bls	.L31
 488              		.loc 1 314 0 is_stmt 0 discriminator 1
 489 003e 0F23     		mov	r3, #15
 490 0040 FB18     		add	r3, r7, r3
 491 0042 1B78     		ldrb	r3, [r3]
 492 0044 77E0     		b	.L39
 493              	.L31:
 315:lib_Fat/sdcard.c **** 	}
 316:lib_Fat/sdcard.c **** 
 317:lib_Fat/sdcard.c **** 	/* Select the card and wait for ready except to stop multiple block read */
 318:lib_Fat/sdcard.c **** 	if (cmd != CMD12) {
 494              		.loc 1 318 0 is_stmt 1
 495 0046 FB1D     		add	r3, r7, #7
 496 0048 1B78     		ldrb	r3, [r3]
 497 004a 0C2B     		cmp	r3, #12
 498 004c 07D0     		beq	.L33
 319:lib_Fat/sdcard.c **** 		deselect();
 499              		.loc 1 319 0
 500 004e FFF7FEFF 		bl	deselect
 320:lib_Fat/sdcard.c **** 		if (!select()) return 0xFF;
 501              		.loc 1 320 0
 502 0052 FFF7FEFF 		bl	select
 503 0056 031E     		sub	r3, r0, #0
 504 0058 01D1     		bne	.L33
 505              		.loc 1 320 0 is_stmt 0 discriminator 1
 506 005a FF23     		mov	r3, #255
 507 005c 6BE0     		b	.L39
 508              	.L33:
 321:lib_Fat/sdcard.c **** 	}
 322:lib_Fat/sdcard.c **** 
 323:lib_Fat/sdcard.c **** 	/* Send a command packet */
 324:lib_Fat/sdcard.c **** 	buf[0] = 0x40 | cmd;			/* Start + Command index */
 509              		.loc 1 324 0 is_stmt 1
 510 005e FB1D     		add	r3, r7, #7
 511 0060 1B78     		ldrb	r3, [r3]
 512 0062 4022     		mov	r2, #64
 513 0064 1343     		orr	r3, r2
 514 0066 DAB2     		uxtb	r2, r3
 515 0068 0823     		mov	r3, #8
 516 006a FB18     		add	r3, r7, r3
 517 006c 1A70     		strb	r2, [r3]
 325:lib_Fat/sdcard.c **** 	buf[1] = (BYTE)(arg >> 24);		/* Argument[31..24] */
 518              		.loc 1 325 0
 519 006e 3B68     		ldr	r3, [r7]
 520 0070 1B0E     		lsr	r3, r3, #24
 521 0072 DAB2     		uxtb	r2, r3
 522 0074 0823     		mov	r3, #8
 523 0076 FB18     		add	r3, r7, r3
 524 0078 5A70     		strb	r2, [r3, #1]
 326:lib_Fat/sdcard.c **** 	buf[2] = (BYTE)(arg >> 16);		/* Argument[23..16] */
 525              		.loc 1 326 0
ARM GAS  C:\Users\Petro\AppData\Local\Temp\cc015mwj.s 			page 16


 526 007a 3B68     		ldr	r3, [r7]
 527 007c 1B0C     		lsr	r3, r3, #16
 528 007e DAB2     		uxtb	r2, r3
 529 0080 0823     		mov	r3, #8
 530 0082 FB18     		add	r3, r7, r3
 531 0084 9A70     		strb	r2, [r3, #2]
 327:lib_Fat/sdcard.c **** 	buf[3] = (BYTE)(arg >> 8);		/* Argument[15..8] */
 532              		.loc 1 327 0
 533 0086 3B68     		ldr	r3, [r7]
 534 0088 1B0A     		lsr	r3, r3, #8
 535 008a DAB2     		uxtb	r2, r3
 536 008c 0823     		mov	r3, #8
 537 008e FB18     		add	r3, r7, r3
 538 0090 DA70     		strb	r2, [r3, #3]
 328:lib_Fat/sdcard.c **** 	buf[4] = (BYTE)arg;				/* Argument[7..0] */
 539              		.loc 1 328 0
 540 0092 3B68     		ldr	r3, [r7]
 541 0094 DAB2     		uxtb	r2, r3
 542 0096 0823     		mov	r3, #8
 543 0098 FB18     		add	r3, r7, r3
 544 009a 1A71     		strb	r2, [r3, #4]
 329:lib_Fat/sdcard.c **** 	n = 0x01;						/* Dummy CRC + Stop */
 545              		.loc 1 329 0
 546 009c 0F23     		mov	r3, #15
 547 009e FB18     		add	r3, r7, r3
 548 00a0 0122     		mov	r2, #1
 549 00a2 1A70     		strb	r2, [r3]
 330:lib_Fat/sdcard.c **** 	if (cmd == CMD0) n = 0x95;		/* (valid CRC for CMD0(0)) */
 550              		.loc 1 330 0
 551 00a4 FB1D     		add	r3, r7, #7
 552 00a6 1B78     		ldrb	r3, [r3]
 553 00a8 002B     		cmp	r3, #0
 554 00aa 03D1     		bne	.L34
 555              		.loc 1 330 0 is_stmt 0 discriminator 1
 556 00ac 0F23     		mov	r3, #15
 557 00ae FB18     		add	r3, r7, r3
 558 00b0 9522     		mov	r2, #149
 559 00b2 1A70     		strb	r2, [r3]
 560              	.L34:
 331:lib_Fat/sdcard.c **** 	if (cmd == CMD8) n = 0x87;		/* (valid CRC for CMD8(0x1AA)) */
 561              		.loc 1 331 0 is_stmt 1
 562 00b4 FB1D     		add	r3, r7, #7
 563 00b6 1B78     		ldrb	r3, [r3]
 564 00b8 082B     		cmp	r3, #8
 565 00ba 03D1     		bne	.L35
 566              		.loc 1 331 0 is_stmt 0 discriminator 1
 567 00bc 0F23     		mov	r3, #15
 568 00be FB18     		add	r3, r7, r3
 569 00c0 8722     		mov	r2, #135
 570 00c2 1A70     		strb	r2, [r3]
 571              	.L35:
 332:lib_Fat/sdcard.c **** 	buf[5] = n;
 572              		.loc 1 332 0 is_stmt 1
 573 00c4 0823     		mov	r3, #8
 574 00c6 FB18     		add	r3, r7, r3
 575 00c8 0F22     		mov	r2, #15
 576 00ca BA18     		add	r2, r7, r2
ARM GAS  C:\Users\Petro\AppData\Local\Temp\cc015mwj.s 			page 17


 577 00cc 1278     		ldrb	r2, [r2]
 578 00ce 5A71     		strb	r2, [r3, #5]
 333:lib_Fat/sdcard.c **** 	xmit_mmc(buf, 6);
 579              		.loc 1 333 0
 580 00d0 0823     		mov	r3, #8
 581 00d2 FB18     		add	r3, r7, r3
 582 00d4 181C     		mov	r0, r3
 583 00d6 0621     		mov	r1, #6
 584 00d8 FFF7FEFF 		bl	xmit_mmc
 334:lib_Fat/sdcard.c ****     CyDelayUs(M_DELAY_US); // <*> why?
 585              		.loc 1 334 0
 586 00dc 6420     		mov	r0, #100
 587 00de FFF7FEFF 		bl	CyDelayUs
 335:lib_Fat/sdcard.c **** 
 336:lib_Fat/sdcard.c **** 	/* Receive command response */
 337:lib_Fat/sdcard.c **** 	if (cmd == CMD12) rcvr_mmc(&d, 1);	/* Skip a stuff byte when stop reading */
 588              		.loc 1 337 0
 589 00e2 FB1D     		add	r3, r7, #7
 590 00e4 1B78     		ldrb	r3, [r3]
 591 00e6 0C2B     		cmp	r3, #12
 592 00e8 05D1     		bne	.L36
 593              		.loc 1 337 0 is_stmt 0 discriminator 1
 594 00ea 0E23     		mov	r3, #14
 595 00ec FB18     		add	r3, r7, r3
 596 00ee 181C     		mov	r0, r3
 597 00f0 0121     		mov	r1, #1
 598 00f2 FFF7FEFF 		bl	rcvr_mmc
 599              	.L36:
 338:lib_Fat/sdcard.c **** 	n = 20;								/* Wait for a valid response in timeout of 10 attempts */
 600              		.loc 1 338 0 is_stmt 1
 601 00f6 0F23     		mov	r3, #15
 602 00f8 FB18     		add	r3, r7, r3
 603 00fa 1422     		mov	r2, #20
 604 00fc 1A70     		strb	r2, [r3]
 605              	.L38:
 339:lib_Fat/sdcard.c **** 	do
 340:lib_Fat/sdcard.c ****     {
 341:lib_Fat/sdcard.c **** 		rcvr_mmc(&d, 1);
 606              		.loc 1 341 0 discriminator 2
 607 00fe 0E23     		mov	r3, #14
 608 0100 FB18     		add	r3, r7, r3
 609 0102 181C     		mov	r0, r3
 610 0104 0121     		mov	r1, #1
 611 0106 FFF7FEFF 		bl	rcvr_mmc
 342:lib_Fat/sdcard.c ****     }
 343:lib_Fat/sdcard.c **** 	while ((d & 0x80) && --n);
 612              		.loc 1 343 0 discriminator 2
 613 010a 0E23     		mov	r3, #14
 614 010c FB18     		add	r3, r7, r3
 615 010e 1B78     		ldrb	r3, [r3]
 616 0110 DBB2     		uxtb	r3, r3
 617 0112 5BB2     		sxtb	r3, r3
 618 0114 002B     		cmp	r3, #0
 619 0116 0BDA     		bge	.L37
 620              		.loc 1 343 0 is_stmt 0 discriminator 1
 621 0118 0F23     		mov	r3, #15
 622 011a FB18     		add	r3, r7, r3
ARM GAS  C:\Users\Petro\AppData\Local\Temp\cc015mwj.s 			page 18


 623 011c 0F22     		mov	r2, #15
 624 011e BA18     		add	r2, r7, r2
 625 0120 1278     		ldrb	r2, [r2]
 626 0122 013A     		sub	r2, r2, #1
 627 0124 1A70     		strb	r2, [r3]
 628 0126 0F23     		mov	r3, #15
 629 0128 FB18     		add	r3, r7, r3
 630 012a 1B78     		ldrb	r3, [r3]
 631 012c 002B     		cmp	r3, #0
 632 012e E6D1     		bne	.L38
 633              	.L37:
 344:lib_Fat/sdcard.c **** 
 345:lib_Fat/sdcard.c **** 	return d;			/* Return with the response value */
 634              		.loc 1 345 0 is_stmt 1
 635 0130 0E23     		mov	r3, #14
 636 0132 FB18     		add	r3, r7, r3
 637 0134 1B78     		ldrb	r3, [r3]
 638              	.L39:
 346:lib_Fat/sdcard.c **** }
 639              		.loc 1 346 0 discriminator 1
 640 0136 181C     		mov	r0, r3
 641 0138 BD46     		mov	sp, r7
 642 013a 05B0     		add	sp, sp, #20
 643              		@ sp needed
 644 013c 90BD     		pop	{r4, r7, pc}
 645              		.cfi_endproc
 646              	.LFE70:
 647              		.size	send_cmd, .-send_cmd
 648 013e C046     		.section	.text.disk_status,"ax",%progbits
 649              		.align	2
 650              		.global	disk_status
 651              		.code	16
 652              		.thumb_func
 653              		.type	disk_status, %function
 654              	disk_status:
 655              	.LFB71:
 347:lib_Fat/sdcard.c **** 
 348:lib_Fat/sdcard.c **** /*--------------------------------------------------------------------------
 349:lib_Fat/sdcard.c **** 
 350:lib_Fat/sdcard.c ****    Public Functions
 351:lib_Fat/sdcard.c **** 
 352:lib_Fat/sdcard.c **** ---------------------------------------------------------------------------*/
 353:lib_Fat/sdcard.c **** 
 354:lib_Fat/sdcard.c **** /*-----------------------------------------------------------------------*/
 355:lib_Fat/sdcard.c **** /* Get Disk Status                                                       */
 356:lib_Fat/sdcard.c **** /*-----------------------------------------------------------------------*/
 357:lib_Fat/sdcard.c **** 
 358:lib_Fat/sdcard.c **** DSTATUS disk_status(BYTE drv) /* Drive number (always 0) */
 359:lib_Fat/sdcard.c **** {
 656              		.loc 1 359 0
 657              		.cfi_startproc
 658 0000 80B5     		push	{r7, lr}
 659              		.cfi_def_cfa_offset 8
 660              		.cfi_offset 7, -8
 661              		.cfi_offset 14, -4
 662 0002 82B0     		sub	sp, sp, #8
 663              		.cfi_def_cfa_offset 16
ARM GAS  C:\Users\Petro\AppData\Local\Temp\cc015mwj.s 			page 19


 664 0004 00AF     		add	r7, sp, #0
 665              		.cfi_def_cfa_register 7
 666 0006 021C     		mov	r2, r0
 667 0008 FB1D     		add	r3, r7, #7
 668 000a 1A70     		strb	r2, [r3]
 360:lib_Fat/sdcard.c **** 	if (drv) return STA_NOINIT;
 669              		.loc 1 360 0
 670 000c FB1D     		add	r3, r7, #7
 671 000e 1B78     		ldrb	r3, [r3]
 672 0010 002B     		cmp	r3, #0
 673 0012 01D0     		beq	.L41
 674              		.loc 1 360 0 is_stmt 0 discriminator 1
 675 0014 0123     		mov	r3, #1
 676 0016 01E0     		b	.L42
 677              	.L41:
 361:lib_Fat/sdcard.c **** 
 362:lib_Fat/sdcard.c **** 	return Stat;
 678              		.loc 1 362 0 is_stmt 1
 679 0018 024B     		ldr	r3, .L43
 680 001a 1B78     		ldrb	r3, [r3]
 681              	.L42:
 363:lib_Fat/sdcard.c **** }
 682              		.loc 1 363 0
 683 001c 181C     		mov	r0, r3
 684 001e BD46     		mov	sp, r7
 685 0020 02B0     		add	sp, sp, #8
 686              		@ sp needed
 687 0022 80BD     		pop	{r7, pc}
 688              	.L44:
 689              		.align	2
 690              	.L43:
 691 0024 00000000 		.word	Stat
 692              		.cfi_endproc
 693              	.LFE71:
 694              		.size	disk_status, .-disk_status
 695              		.section	.text.disk_initialize,"ax",%progbits
 696              		.align	2
 697              		.global	disk_initialize
 698              		.code	16
 699              		.thumb_func
 700              		.type	disk_initialize, %function
 701              	disk_initialize:
 702              	.LFB72:
 364:lib_Fat/sdcard.c **** 
 365:lib_Fat/sdcard.c **** /*-----------------------------------------------------------------------*/
 366:lib_Fat/sdcard.c **** /* Initialize Disk Drive                                                 */
 367:lib_Fat/sdcard.c **** /*-----------------------------------------------------------------------*/
 368:lib_Fat/sdcard.c **** 
 369:lib_Fat/sdcard.c **** DSTATUS disk_initialize(BYTE drv) /* Physical drive nmuber (0) */
 370:lib_Fat/sdcard.c **** {
 703              		.loc 1 370 0
 704              		.cfi_startproc
 705 0000 80B5     		push	{r7, lr}
 706              		.cfi_def_cfa_offset 8
 707              		.cfi_offset 7, -8
 708              		.cfi_offset 14, -4
 709 0002 86B0     		sub	sp, sp, #24
ARM GAS  C:\Users\Petro\AppData\Local\Temp\cc015mwj.s 			page 20


 710              		.cfi_def_cfa_offset 32
 711 0004 00AF     		add	r7, sp, #0
 712              		.cfi_def_cfa_register 7
 713 0006 021C     		mov	r2, r0
 714 0008 FB1D     		add	r3, r7, #7
 715 000a 1A70     		strb	r2, [r3]
 371:lib_Fat/sdcard.c **** 	BYTE n, ty, cmd, buf[4];
 372:lib_Fat/sdcard.c **** 	UINT tmr;
 373:lib_Fat/sdcard.c **** 	DSTATUS s;
 374:lib_Fat/sdcard.c **** 
 375:lib_Fat/sdcard.c **** 	if (drv) return RES_NOTRDY;
 716              		.loc 1 375 0
 717 000c FB1D     		add	r3, r7, #7
 718 000e 1B78     		ldrb	r3, [r3]
 719 0010 002B     		cmp	r3, #0
 720 0012 01D0     		beq	.L46
 721              		.loc 1 375 0 is_stmt 0 discriminator 1
 722 0014 0323     		mov	r3, #3
 723 0016 CEE0     		b	.L66
 724              	.L46:
 376:lib_Fat/sdcard.c **** 
 377:lib_Fat/sdcard.c **** 	dly_us(10000);			/* 10ms */
 725              		.loc 1 377 0 is_stmt 1
 726 0018 694B     		ldr	r3, .L67
 727 001a 181C     		mov	r0, r3
 728 001c FFF7FEFF 		bl	CyDelayUs
 378:lib_Fat/sdcard.c **** 
 379:lib_Fat/sdcard.c **** 	for (n = 10; n; n--) rcvr_mmc(buf, 1);	/* Apply 80 dummy clocks and the card gets ready to receive
 729              		.loc 1 379 0
 730 0020 1723     		mov	r3, #23
 731 0022 FB18     		add	r3, r7, r3
 732 0024 0A22     		mov	r2, #10
 733 0026 1A70     		strb	r2, [r3]
 734 0028 0CE0     		b	.L48
 735              	.L49:
 736              		.loc 1 379 0 is_stmt 0 discriminator 3
 737 002a 0823     		mov	r3, #8
 738 002c FB18     		add	r3, r7, r3
 739 002e 181C     		mov	r0, r3
 740 0030 0121     		mov	r1, #1
 741 0032 FFF7FEFF 		bl	rcvr_mmc
 742 0036 1723     		mov	r3, #23
 743 0038 FB18     		add	r3, r7, r3
 744 003a 1A78     		ldrb	r2, [r3]
 745 003c 1723     		mov	r3, #23
 746 003e FB18     		add	r3, r7, r3
 747 0040 013A     		sub	r2, r2, #1
 748 0042 1A70     		strb	r2, [r3]
 749              	.L48:
 750              		.loc 1 379 0 discriminator 1
 751 0044 1723     		mov	r3, #23
 752 0046 FB18     		add	r3, r7, r3
 753 0048 1B78     		ldrb	r3, [r3]
 754 004a 002B     		cmp	r3, #0
 755 004c EDD1     		bne	.L49
 380:lib_Fat/sdcard.c **** 
 381:lib_Fat/sdcard.c **** 	ty = 0;
ARM GAS  C:\Users\Petro\AppData\Local\Temp\cc015mwj.s 			page 21


 756              		.loc 1 381 0 is_stmt 1
 757 004e 1623     		mov	r3, #22
 758 0050 FB18     		add	r3, r7, r3
 759 0052 0022     		mov	r2, #0
 760 0054 1A70     		strb	r2, [r3]
 382:lib_Fat/sdcard.c **** 	if (send_cmd(CMD0, 0) == 1) {			/* Enter Idle state */
 761              		.loc 1 382 0
 762 0056 0020     		mov	r0, #0
 763 0058 0021     		mov	r1, #0
 764 005a FFF7FEFF 		bl	send_cmd
 765 005e 031E     		sub	r3, r0, #0
 766 0060 012B     		cmp	r3, #1
 767 0062 00D0     		beq	.LCB667
 768 0064 8FE0     		b	.L50	@long jump
 769              	.LCB667:
 383:lib_Fat/sdcard.c **** 		if (send_cmd(CMD8, 0x1AA) == 1) {	/* SDv2? */
 770              		.loc 1 383 0
 771 0066 D523     		mov	r3, #213
 772 0068 5B00     		lsl	r3, r3, #1
 773 006a 0820     		mov	r0, #8
 774 006c 191C     		mov	r1, r3
 775 006e FFF7FEFF 		bl	send_cmd
 776 0072 031E     		sub	r3, r0, #0
 777 0074 012B     		cmp	r3, #1
 778 0076 46D1     		bne	.L51
 384:lib_Fat/sdcard.c **** 			rcvr_mmc(buf, 4);							/* Get trailing return value of R7 resp */
 779              		.loc 1 384 0
 780 0078 0823     		mov	r3, #8
 781 007a FB18     		add	r3, r7, r3
 782 007c 181C     		mov	r0, r3
 783 007e 0421     		mov	r1, #4
 784 0080 FFF7FEFF 		bl	rcvr_mmc
 385:lib_Fat/sdcard.c **** 			if (buf[2] == 0x01 && buf[3] == 0xAA) {		/* The card can work at vdd range of 2.7-3.6V */
 785              		.loc 1 385 0
 786 0084 0823     		mov	r3, #8
 787 0086 FB18     		add	r3, r7, r3
 788 0088 9B78     		ldrb	r3, [r3, #2]
 789 008a 012B     		cmp	r3, #1
 790 008c 00D0     		beq	.LCB685
 791 008e 7AE0     		b	.L50	@long jump
 792              	.LCB685:
 793              		.loc 1 385 0 is_stmt 0 discriminator 1
 794 0090 0823     		mov	r3, #8
 795 0092 FB18     		add	r3, r7, r3
 796 0094 DB78     		ldrb	r3, [r3, #3]
 797 0096 AA2B     		cmp	r3, #170
 798 0098 00D0     		beq	.LCB690
 799 009a 74E0     		b	.L50	@long jump
 800              	.LCB690:
 386:lib_Fat/sdcard.c **** 				for (tmr = 1000; tmr; tmr--) {			/* Wait for leaving idle state (ACMD41 with HCS bit) */
 801              		.loc 1 386 0 is_stmt 1
 802 009c FA23     		mov	r3, #250
 803 009e 9B00     		lsl	r3, r3, #2
 804 00a0 3B61     		str	r3, [r7, #16]
 805 00a2 10E0     		b	.L53
 806              	.L56:
 387:lib_Fat/sdcard.c **** 					if (send_cmd(ACMD41, 1UL << 30) == 0) break;
ARM GAS  C:\Users\Petro\AppData\Local\Temp\cc015mwj.s 			page 22


 807              		.loc 1 387 0
 808 00a4 8023     		mov	r3, #128
 809 00a6 DB05     		lsl	r3, r3, #23
 810 00a8 A920     		mov	r0, #169
 811 00aa 191C     		mov	r1, r3
 812 00ac FFF7FEFF 		bl	send_cmd
 813 00b0 031E     		sub	r3, r0, #0
 814 00b2 00D1     		bne	.L54
 815 00b4 0AE0     		b	.L55
 816              	.L54:
 388:lib_Fat/sdcard.c **** 					dly_us(1000);
 817              		.loc 1 388 0 discriminator 2
 818 00b6 FA23     		mov	r3, #250
 819 00b8 9B00     		lsl	r3, r3, #2
 820 00ba 181C     		mov	r0, r3
 821 00bc FFF7FEFF 		bl	CyDelayUs
 386:lib_Fat/sdcard.c **** 				for (tmr = 1000; tmr; tmr--) {			/* Wait for leaving idle state (ACMD41 with HCS bit) */
 822              		.loc 1 386 0 discriminator 2
 823 00c0 3B69     		ldr	r3, [r7, #16]
 824 00c2 013B     		sub	r3, r3, #1
 825 00c4 3B61     		str	r3, [r7, #16]
 826              	.L53:
 386:lib_Fat/sdcard.c **** 				for (tmr = 1000; tmr; tmr--) {			/* Wait for leaving idle state (ACMD41 with HCS bit) */
 827              		.loc 1 386 0 is_stmt 0 discriminator 1
 828 00c6 3B69     		ldr	r3, [r7, #16]
 829 00c8 002B     		cmp	r3, #0
 830 00ca EBD1     		bne	.L56
 831              	.L55:
 389:lib_Fat/sdcard.c **** 				}
 390:lib_Fat/sdcard.c **** 				if (tmr && send_cmd(CMD58, 0) == 0) {	/* Check CCS bit in the OCR */
 832              		.loc 1 390 0 is_stmt 1
 833 00cc 3B69     		ldr	r3, [r7, #16]
 834 00ce 002B     		cmp	r3, #0
 835 00d0 59D0     		beq	.L50
 836              		.loc 1 390 0 is_stmt 0 discriminator 1
 837 00d2 3A20     		mov	r0, #58
 838 00d4 0021     		mov	r1, #0
 839 00d6 FFF7FEFF 		bl	send_cmd
 840 00da 031E     		sub	r3, r0, #0
 841 00dc 53D1     		bne	.L50
 391:lib_Fat/sdcard.c **** 					rcvr_mmc(buf, 4);
 842              		.loc 1 391 0 is_stmt 1
 843 00de 0823     		mov	r3, #8
 844 00e0 FB18     		add	r3, r7, r3
 845 00e2 181C     		mov	r0, r3
 846 00e4 0421     		mov	r1, #4
 847 00e6 FFF7FEFF 		bl	rcvr_mmc
 392:lib_Fat/sdcard.c **** 					ty = (buf[0] & 0x40) ? CT_SD2 | CT_BLOCK : CT_SD2;	/* SDv2 */
 848              		.loc 1 392 0
 849 00ea 0823     		mov	r3, #8
 850 00ec FB18     		add	r3, r7, r3
 851 00ee 1B78     		ldrb	r3, [r3]
 852 00f0 1A1C     		mov	r2, r3
 853 00f2 4023     		mov	r3, #64
 854 00f4 1340     		and	r3, r2
 855 00f6 01D0     		beq	.L57
 856              		.loc 1 392 0 is_stmt 0 discriminator 1
ARM GAS  C:\Users\Petro\AppData\Local\Temp\cc015mwj.s 			page 23


 857 00f8 0C22     		mov	r2, #12
 858 00fa 00E0     		b	.L58
 859              	.L57:
 860              		.loc 1 392 0 discriminator 2
 861 00fc 0422     		mov	r2, #4
 862              	.L58:
 863              		.loc 1 392 0 discriminator 4
 864 00fe 1623     		mov	r3, #22
 865 0100 FB18     		add	r3, r7, r3
 866 0102 1A70     		strb	r2, [r3]
 867 0104 3FE0     		b	.L50
 868              	.L51:
 393:lib_Fat/sdcard.c **** 				}
 394:lib_Fat/sdcard.c **** 			}
 395:lib_Fat/sdcard.c **** 		} else {							/* SDv1 or MMCv3 */
 396:lib_Fat/sdcard.c **** 			if (send_cmd(ACMD41, 0) <= 1) 	{
 869              		.loc 1 396 0 is_stmt 1
 870 0106 A920     		mov	r0, #169
 871 0108 0021     		mov	r1, #0
 872 010a FFF7FEFF 		bl	send_cmd
 873 010e 031E     		sub	r3, r0, #0
 874 0110 012B     		cmp	r3, #1
 875 0112 08D8     		bhi	.L59
 397:lib_Fat/sdcard.c **** 				ty = CT_SD1; cmd = ACMD41;	/* SDv1 */
 876              		.loc 1 397 0
 877 0114 1623     		mov	r3, #22
 878 0116 FB18     		add	r3, r7, r3
 879 0118 0222     		mov	r2, #2
 880 011a 1A70     		strb	r2, [r3]
 881 011c 1523     		mov	r3, #21
 882 011e FB18     		add	r3, r7, r3
 883 0120 A922     		mov	r2, #169
 884 0122 1A70     		strb	r2, [r3]
 885 0124 07E0     		b	.L60
 886              	.L59:
 398:lib_Fat/sdcard.c **** 			} else {
 399:lib_Fat/sdcard.c **** 				ty = CT_MMC; cmd = CMD1;	/* MMCv3 */
 887              		.loc 1 399 0
 888 0126 1623     		mov	r3, #22
 889 0128 FB18     		add	r3, r7, r3
 890 012a 0122     		mov	r2, #1
 891 012c 1A70     		strb	r2, [r3]
 892 012e 1523     		mov	r3, #21
 893 0130 FB18     		add	r3, r7, r3
 894 0132 0122     		mov	r2, #1
 895 0134 1A70     		strb	r2, [r3]
 896              	.L60:
 400:lib_Fat/sdcard.c **** 			}
 401:lib_Fat/sdcard.c **** 			for (tmr = 1000; tmr; tmr--) {			/* Wait for leaving idle state */
 897              		.loc 1 401 0
 898 0136 FA23     		mov	r3, #250
 899 0138 9B00     		lsl	r3, r3, #2
 900 013a 3B61     		str	r3, [r7, #16]
 901 013c 11E0     		b	.L61
 902              	.L64:
 402:lib_Fat/sdcard.c **** 				if (send_cmd(cmd, 0) == 0) break;
 903              		.loc 1 402 0
ARM GAS  C:\Users\Petro\AppData\Local\Temp\cc015mwj.s 			page 24


 904 013e 1523     		mov	r3, #21
 905 0140 FB18     		add	r3, r7, r3
 906 0142 1B78     		ldrb	r3, [r3]
 907 0144 181C     		mov	r0, r3
 908 0146 0021     		mov	r1, #0
 909 0148 FFF7FEFF 		bl	send_cmd
 910 014c 031E     		sub	r3, r0, #0
 911 014e 00D1     		bne	.L62
 912 0150 0AE0     		b	.L63
 913              	.L62:
 403:lib_Fat/sdcard.c **** 				dly_us(1000);
 914              		.loc 1 403 0 discriminator 2
 915 0152 FA23     		mov	r3, #250
 916 0154 9B00     		lsl	r3, r3, #2
 917 0156 181C     		mov	r0, r3
 918 0158 FFF7FEFF 		bl	CyDelayUs
 401:lib_Fat/sdcard.c **** 				if (send_cmd(cmd, 0) == 0) break;
 919              		.loc 1 401 0 discriminator 2
 920 015c 3B69     		ldr	r3, [r7, #16]
 921 015e 013B     		sub	r3, r3, #1
 922 0160 3B61     		str	r3, [r7, #16]
 923              	.L61:
 401:lib_Fat/sdcard.c **** 				if (send_cmd(cmd, 0) == 0) break;
 924              		.loc 1 401 0 is_stmt 0 discriminator 1
 925 0162 3B69     		ldr	r3, [r7, #16]
 926 0164 002B     		cmp	r3, #0
 927 0166 EAD1     		bne	.L64
 928              	.L63:
 404:lib_Fat/sdcard.c **** 			}
 405:lib_Fat/sdcard.c **** 			if (!tmr || send_cmd(CMD16, 512) != 0)	/* Set R/W block length to 512 */
 929              		.loc 1 405 0 is_stmt 1
 930 0168 3B69     		ldr	r3, [r7, #16]
 931 016a 002B     		cmp	r3, #0
 932 016c 07D0     		beq	.L65
 933              		.loc 1 405 0 is_stmt 0 discriminator 1
 934 016e 8023     		mov	r3, #128
 935 0170 9B00     		lsl	r3, r3, #2
 936 0172 1020     		mov	r0, #16
 937 0174 191C     		mov	r1, r3
 938 0176 FFF7FEFF 		bl	send_cmd
 939 017a 031E     		sub	r3, r0, #0
 940 017c 03D0     		beq	.L50
 941              	.L65:
 406:lib_Fat/sdcard.c **** 				ty = 0;
 942              		.loc 1 406 0 is_stmt 1
 943 017e 1623     		mov	r3, #22
 944 0180 FB18     		add	r3, r7, r3
 945 0182 0022     		mov	r2, #0
 946 0184 1A70     		strb	r2, [r3]
 947              	.L50:
 407:lib_Fat/sdcard.c **** 		}
 408:lib_Fat/sdcard.c **** 	}
 409:lib_Fat/sdcard.c **** 	CardType = ty;
 948              		.loc 1 409 0
 949 0186 0F4B     		ldr	r3, .L67+4
 950 0188 1622     		mov	r2, #22
 951 018a BA18     		add	r2, r7, r2
ARM GAS  C:\Users\Petro\AppData\Local\Temp\cc015mwj.s 			page 25


 952 018c 1278     		ldrb	r2, [r2]
 953 018e 1A70     		strb	r2, [r3]
 410:lib_Fat/sdcard.c **** 	s = ty ? 0 : STA_NOINIT;
 954              		.loc 1 410 0
 955 0190 1623     		mov	r3, #22
 956 0192 FB18     		add	r3, r7, r3
 957 0194 1B78     		ldrb	r3, [r3]
 958 0196 5A42     		neg	r2, r3
 959 0198 5341     		adc	r3, r3, r2
 960 019a DAB2     		uxtb	r2, r3
 961 019c 0F23     		mov	r3, #15
 962 019e FB18     		add	r3, r7, r3
 963 01a0 1A70     		strb	r2, [r3]
 411:lib_Fat/sdcard.c **** 	Stat = s;
 964              		.loc 1 411 0
 965 01a2 094B     		ldr	r3, .L67+8
 966 01a4 0F22     		mov	r2, #15
 967 01a6 BA18     		add	r2, r7, r2
 968 01a8 1278     		ldrb	r2, [r2]
 969 01aa 1A70     		strb	r2, [r3]
 412:lib_Fat/sdcard.c **** 
 413:lib_Fat/sdcard.c **** 	deselect();
 970              		.loc 1 413 0
 971 01ac FFF7FEFF 		bl	deselect
 414:lib_Fat/sdcard.c **** 
 415:lib_Fat/sdcard.c **** 	return s;
 972              		.loc 1 415 0
 973 01b0 0F23     		mov	r3, #15
 974 01b2 FB18     		add	r3, r7, r3
 975 01b4 1B78     		ldrb	r3, [r3]
 976              	.L66:
 416:lib_Fat/sdcard.c **** }
 977              		.loc 1 416 0 discriminator 1
 978 01b6 181C     		mov	r0, r3
 979 01b8 BD46     		mov	sp, r7
 980 01ba 06B0     		add	sp, sp, #24
 981              		@ sp needed
 982 01bc 80BD     		pop	{r7, pc}
 983              	.L68:
 984 01be C046     		.align	2
 985              	.L67:
 986 01c0 10270000 		.word	10000
 987 01c4 00000000 		.word	CardType
 988 01c8 00000000 		.word	Stat
 989              		.cfi_endproc
 990              	.LFE72:
 991              		.size	disk_initialize, .-disk_initialize
 992              		.section	.text.disk_read,"ax",%progbits
 993              		.align	2
 994              		.global	disk_read
 995              		.code	16
 996              		.thumb_func
 997              		.type	disk_read, %function
 998              	disk_read:
 999              	.LFB73:
 417:lib_Fat/sdcard.c **** 
 418:lib_Fat/sdcard.c **** /*-----------------------------------------------------------------------*/
ARM GAS  C:\Users\Petro\AppData\Local\Temp\cc015mwj.s 			page 26


 419:lib_Fat/sdcard.c **** /* Read Sector(s)                                                        */
 420:lib_Fat/sdcard.c **** /*-----------------------------------------------------------------------*/
 421:lib_Fat/sdcard.c **** 
 422:lib_Fat/sdcard.c **** DRESULT disk_read(BYTE drv,	BYTE *buff,	DWORD sector, UINT count) /* Physical drive nmuber (0) */
 423:lib_Fat/sdcard.c **** {
 1000              		.loc 1 423 0
 1001              		.cfi_startproc
 1002 0000 80B5     		push	{r7, lr}
 1003              		.cfi_def_cfa_offset 8
 1004              		.cfi_offset 7, -8
 1005              		.cfi_offset 14, -4
 1006 0002 86B0     		sub	sp, sp, #24
 1007              		.cfi_def_cfa_offset 32
 1008 0004 00AF     		add	r7, sp, #0
 1009              		.cfi_def_cfa_register 7
 1010 0006 B960     		str	r1, [r7, #8]
 1011 0008 7A60     		str	r2, [r7, #4]
 1012 000a 3B60     		str	r3, [r7]
 1013 000c 0F23     		mov	r3, #15
 1014 000e FB18     		add	r3, r7, r3
 1015 0010 021C     		add	r2, r0, #0
 1016 0012 1A70     		strb	r2, [r3]
 424:lib_Fat/sdcard.c **** 	BYTE cmd;
 425:lib_Fat/sdcard.c **** 
 426:lib_Fat/sdcard.c **** 	if (disk_status(drv) & STA_NOINIT) return RES_NOTRDY;
 1017              		.loc 1 426 0
 1018 0014 0F23     		mov	r3, #15
 1019 0016 FB18     		add	r3, r7, r3
 1020 0018 1B78     		ldrb	r3, [r3]
 1021 001a 181C     		mov	r0, r3
 1022 001c FFF7FEFF 		bl	disk_status
 1023 0020 031C     		mov	r3, r0
 1024 0022 1A1C     		mov	r2, r3
 1025 0024 0123     		mov	r3, #1
 1026 0026 1340     		and	r3, r2
 1027 0028 01D0     		beq	.L70
 1028              		.loc 1 426 0 is_stmt 0 discriminator 1
 1029 002a 0323     		mov	r3, #3
 1030 002c 40E0     		b	.L71
 1031              	.L70:
 427:lib_Fat/sdcard.c **** 	if (!(CardType & CT_BLOCK)) sector *= 512;	/* Convert LBA to byte address if needed */
 1032              		.loc 1 427 0 is_stmt 1
 1033 002e 224B     		ldr	r3, .L79
 1034 0030 1B78     		ldrb	r3, [r3]
 1035 0032 1A1C     		mov	r2, r3
 1036 0034 0823     		mov	r3, #8
 1037 0036 1340     		and	r3, r2
 1038 0038 02D1     		bne	.L72
 1039              		.loc 1 427 0 is_stmt 0 discriminator 1
 1040 003a 7B68     		ldr	r3, [r7, #4]
 1041 003c 5B02     		lsl	r3, r3, #9
 1042 003e 7B60     		str	r3, [r7, #4]
 1043              	.L72:
 428:lib_Fat/sdcard.c **** 
 429:lib_Fat/sdcard.c **** 	cmd = count > 1 ? CMD18 : CMD17;			/*  READ_MULTIPLE_BLOCK : READ_SINGLE_BLOCK */
 1044              		.loc 1 429 0 is_stmt 1
 1045 0040 3B68     		ldr	r3, [r7]
ARM GAS  C:\Users\Petro\AppData\Local\Temp\cc015mwj.s 			page 27


 1046 0042 012B     		cmp	r3, #1
 1047 0044 01D9     		bls	.L73
 1048              		.loc 1 429 0 is_stmt 0 discriminator 1
 1049 0046 1222     		mov	r2, #18
 1050 0048 00E0     		b	.L74
 1051              	.L73:
 1052              		.loc 1 429 0 discriminator 2
 1053 004a 1122     		mov	r2, #17
 1054              	.L74:
 1055              		.loc 1 429 0 discriminator 4
 1056 004c 1723     		mov	r3, #23
 1057 004e FB18     		add	r3, r7, r3
 1058 0050 1A70     		strb	r2, [r3]
 430:lib_Fat/sdcard.c **** 	if (send_cmd(cmd, sector) == 0) {
 1059              		.loc 1 430 0 is_stmt 1 discriminator 4
 1060 0052 1723     		mov	r3, #23
 1061 0054 FB18     		add	r3, r7, r3
 1062 0056 1A78     		ldrb	r2, [r3]
 1063 0058 7B68     		ldr	r3, [r7, #4]
 1064 005a 101C     		mov	r0, r2
 1065 005c 191C     		mov	r1, r3
 1066 005e FFF7FEFF 		bl	send_cmd
 1067 0062 031E     		sub	r3, r0, #0
 1068 0064 1ED1     		bne	.L75
 1069              	.L78:
 431:lib_Fat/sdcard.c **** 		do {
 432:lib_Fat/sdcard.c **** 			if (!rcvr_datablock(buff, 512)) break;
 1070              		.loc 1 432 0
 1071 0066 BA68     		ldr	r2, [r7, #8]
 1072 0068 8023     		mov	r3, #128
 1073 006a 9B00     		lsl	r3, r3, #2
 1074 006c 101C     		mov	r0, r2
 1075 006e 191C     		mov	r1, r3
 1076 0070 FFF7FEFF 		bl	rcvr_datablock
 1077 0074 031E     		sub	r3, r0, #0
 1078 0076 00D1     		bne	.L76
 1079 0078 0BE0     		b	.L77
 1080              	.L76:
 433:lib_Fat/sdcard.c **** 			buff += 512;
 1081              		.loc 1 433 0
 1082 007a BB68     		ldr	r3, [r7, #8]
 1083 007c 8022     		mov	r2, #128
 1084 007e 9200     		lsl	r2, r2, #2
 1085 0080 9446     		mov	ip, r2
 1086 0082 6344     		add	r3, r3, ip
 1087 0084 BB60     		str	r3, [r7, #8]
 434:lib_Fat/sdcard.c **** 		} while (--count);
 1088              		.loc 1 434 0
 1089 0086 3B68     		ldr	r3, [r7]
 1090 0088 013B     		sub	r3, r3, #1
 1091 008a 3B60     		str	r3, [r7]
 1092 008c 3B68     		ldr	r3, [r7]
 1093 008e 002B     		cmp	r3, #0
 1094 0090 E9D1     		bne	.L78
 1095              	.L77:
 435:lib_Fat/sdcard.c **** 		if (cmd == CMD18) send_cmd(CMD12, 0);	/* STOP_TRANSMISSION */
 1096              		.loc 1 435 0
ARM GAS  C:\Users\Petro\AppData\Local\Temp\cc015mwj.s 			page 28


 1097 0092 1723     		mov	r3, #23
 1098 0094 FB18     		add	r3, r7, r3
 1099 0096 1B78     		ldrb	r3, [r3]
 1100 0098 122B     		cmp	r3, #18
 1101 009a 03D1     		bne	.L75
 1102              		.loc 1 435 0 is_stmt 0 discriminator 1
 1103 009c 0C20     		mov	r0, #12
 1104 009e 0021     		mov	r1, #0
 1105 00a0 FFF7FEFF 		bl	send_cmd
 1106              	.L75:
 436:lib_Fat/sdcard.c **** 	}
 437:lib_Fat/sdcard.c **** 	deselect();
 1107              		.loc 1 437 0 is_stmt 1
 1108 00a4 FFF7FEFF 		bl	deselect
 438:lib_Fat/sdcard.c **** 
 439:lib_Fat/sdcard.c **** 	return count ? RES_ERROR : RES_OK;
 1109              		.loc 1 439 0
 1110 00a8 3B68     		ldr	r3, [r7]
 1111 00aa 5A1E     		sub	r2, r3, #1
 1112 00ac 9341     		sbc	r3, r3, r2
 1113 00ae DBB2     		uxtb	r3, r3
 1114              	.L71:
 440:lib_Fat/sdcard.c **** }
 1115              		.loc 1 440 0
 1116 00b0 181C     		mov	r0, r3
 1117 00b2 BD46     		mov	sp, r7
 1118 00b4 06B0     		add	sp, sp, #24
 1119              		@ sp needed
 1120 00b6 80BD     		pop	{r7, pc}
 1121              	.L80:
 1122              		.align	2
 1123              	.L79:
 1124 00b8 00000000 		.word	CardType
 1125              		.cfi_endproc
 1126              	.LFE73:
 1127              		.size	disk_read, .-disk_read
 1128              		.section	.text.disk_write,"ax",%progbits
 1129              		.align	2
 1130              		.global	disk_write
 1131              		.code	16
 1132              		.thumb_func
 1133              		.type	disk_write, %function
 1134              	disk_write:
 1135              	.LFB74:
 441:lib_Fat/sdcard.c **** 
 442:lib_Fat/sdcard.c **** /*-----------------------------------------------------------------------*/
 443:lib_Fat/sdcard.c **** /* Write Sector(s)                                                       */
 444:lib_Fat/sdcard.c **** /*-----------------------------------------------------------------------*/
 445:lib_Fat/sdcard.c **** 
 446:lib_Fat/sdcard.c **** DRESULT disk_write (
 447:lib_Fat/sdcard.c **** 	BYTE drv,			/* Physical drive nmuber (0) */
 448:lib_Fat/sdcard.c **** 	const BYTE *buff,	/* Pointer to the data to be written */
 449:lib_Fat/sdcard.c **** 	DWORD sector,		/* Start sector number (LBA) */
 450:lib_Fat/sdcard.c **** 	UINT count			/* Sector count (1..128) */
 451:lib_Fat/sdcard.c **** )
 452:lib_Fat/sdcard.c **** {
 1136              		.loc 1 452 0
ARM GAS  C:\Users\Petro\AppData\Local\Temp\cc015mwj.s 			page 29


 1137              		.cfi_startproc
 1138 0000 80B5     		push	{r7, lr}
 1139              		.cfi_def_cfa_offset 8
 1140              		.cfi_offset 7, -8
 1141              		.cfi_offset 14, -4
 1142 0002 84B0     		sub	sp, sp, #16
 1143              		.cfi_def_cfa_offset 24
 1144 0004 00AF     		add	r7, sp, #0
 1145              		.cfi_def_cfa_register 7
 1146 0006 B960     		str	r1, [r7, #8]
 1147 0008 7A60     		str	r2, [r7, #4]
 1148 000a 3B60     		str	r3, [r7]
 1149 000c 0F23     		mov	r3, #15
 1150 000e FB18     		add	r3, r7, r3
 1151 0010 021C     		add	r2, r0, #0
 1152 0012 1A70     		strb	r2, [r3]
 453:lib_Fat/sdcard.c **** 	if (disk_status(drv) & STA_NOINIT) return RES_NOTRDY;
 1153              		.loc 1 453 0
 1154 0014 0F23     		mov	r3, #15
 1155 0016 FB18     		add	r3, r7, r3
 1156 0018 1B78     		ldrb	r3, [r3]
 1157 001a 181C     		mov	r0, r3
 1158 001c FFF7FEFF 		bl	disk_status
 1159 0020 031C     		mov	r3, r0
 1160 0022 1A1C     		mov	r2, r3
 1161 0024 0123     		mov	r3, #1
 1162 0026 1340     		and	r3, r2
 1163 0028 01D0     		beq	.L82
 1164              		.loc 1 453 0 is_stmt 0 discriminator 1
 1165 002a 0323     		mov	r3, #3
 1166 002c 50E0     		b	.L83
 1167              	.L82:
 454:lib_Fat/sdcard.c **** 	if (!(CardType & CT_BLOCK)) sector *= 512;	/* Convert LBA to byte address if needed */
 1168              		.loc 1 454 0 is_stmt 1
 1169 002e 2A4B     		ldr	r3, .L92
 1170 0030 1B78     		ldrb	r3, [r3]
 1171 0032 1A1C     		mov	r2, r3
 1172 0034 0823     		mov	r3, #8
 1173 0036 1340     		and	r3, r2
 1174 0038 02D1     		bne	.L84
 1175              		.loc 1 454 0 is_stmt 0 discriminator 1
 1176 003a 7B68     		ldr	r3, [r7, #4]
 1177 003c 5B02     		lsl	r3, r3, #9
 1178 003e 7B60     		str	r3, [r7, #4]
 1179              	.L84:
 455:lib_Fat/sdcard.c **** 
 456:lib_Fat/sdcard.c **** 	if (count == 1) {	/* Single block write */
 1180              		.loc 1 456 0 is_stmt 1
 1181 0040 3B68     		ldr	r3, [r7]
 1182 0042 012B     		cmp	r3, #1
 1183 0044 10D1     		bne	.L85
 457:lib_Fat/sdcard.c **** 		if ((send_cmd(CMD24, sector) == 0)	/* WRITE_BLOCK */
 1184              		.loc 1 457 0
 1185 0046 7B68     		ldr	r3, [r7, #4]
 1186 0048 1820     		mov	r0, #24
 1187 004a 191C     		mov	r1, r3
 1188 004c FFF7FEFF 		bl	send_cmd
ARM GAS  C:\Users\Petro\AppData\Local\Temp\cc015mwj.s 			page 30


 1189 0050 031E     		sub	r3, r0, #0
 1190 0052 37D1     		bne	.L87
 458:lib_Fat/sdcard.c **** 			&& xmit_datablock(buff, 0xFE))
 1191              		.loc 1 458 0
 1192 0054 BB68     		ldr	r3, [r7, #8]
 1193 0056 181C     		mov	r0, r3
 1194 0058 FE21     		mov	r1, #254
 1195 005a FFF7FEFF 		bl	xmit_datablock
 1196 005e 031E     		sub	r3, r0, #0
 1197 0060 30D0     		beq	.L87
 459:lib_Fat/sdcard.c **** 			count = 0;
 1198              		.loc 1 459 0
 1199 0062 0023     		mov	r3, #0
 1200 0064 3B60     		str	r3, [r7]
 1201 0066 2DE0     		b	.L87
 1202              	.L85:
 460:lib_Fat/sdcard.c **** 	}
 461:lib_Fat/sdcard.c **** 	else {				/* Multiple block write */
 462:lib_Fat/sdcard.c **** 		if (CardType & CT_SDC) send_cmd(ACMD23, count);
 1203              		.loc 1 462 0
 1204 0068 1B4B     		ldr	r3, .L92
 1205 006a 1B78     		ldrb	r3, [r3]
 1206 006c 1A1C     		mov	r2, r3
 1207 006e 0623     		mov	r3, #6
 1208 0070 1340     		and	r3, r2
 1209 0072 04D0     		beq	.L88
 1210              		.loc 1 462 0 is_stmt 0 discriminator 1
 1211 0074 3B68     		ldr	r3, [r7]
 1212 0076 9720     		mov	r0, #151
 1213 0078 191C     		mov	r1, r3
 1214 007a FFF7FEFF 		bl	send_cmd
 1215              	.L88:
 463:lib_Fat/sdcard.c **** 		if (send_cmd(CMD25, sector) == 0) {	/* WRITE_MULTIPLE_BLOCK */
 1216              		.loc 1 463 0 is_stmt 1
 1217 007e 7B68     		ldr	r3, [r7, #4]
 1218 0080 1920     		mov	r0, #25
 1219 0082 191C     		mov	r1, r3
 1220 0084 FFF7FEFF 		bl	send_cmd
 1221 0088 031E     		sub	r3, r0, #0
 1222 008a 1BD1     		bne	.L87
 1223              	.L91:
 464:lib_Fat/sdcard.c **** 			do {
 465:lib_Fat/sdcard.c **** 				if (!xmit_datablock(buff, 0xFC)) break;
 1224              		.loc 1 465 0
 1225 008c BB68     		ldr	r3, [r7, #8]
 1226 008e 181C     		mov	r0, r3
 1227 0090 FC21     		mov	r1, #252
 1228 0092 FFF7FEFF 		bl	xmit_datablock
 1229 0096 031E     		sub	r3, r0, #0
 1230 0098 00D1     		bne	.L89
 1231 009a 0BE0     		b	.L90
 1232              	.L89:
 466:lib_Fat/sdcard.c **** 				buff += 512;
 1233              		.loc 1 466 0
 1234 009c BB68     		ldr	r3, [r7, #8]
 1235 009e 8022     		mov	r2, #128
 1236 00a0 9200     		lsl	r2, r2, #2
ARM GAS  C:\Users\Petro\AppData\Local\Temp\cc015mwj.s 			page 31


 1237 00a2 9446     		mov	ip, r2
 1238 00a4 6344     		add	r3, r3, ip
 1239 00a6 BB60     		str	r3, [r7, #8]
 467:lib_Fat/sdcard.c **** 			} while (--count);
 1240              		.loc 1 467 0
 1241 00a8 3B68     		ldr	r3, [r7]
 1242 00aa 013B     		sub	r3, r3, #1
 1243 00ac 3B60     		str	r3, [r7]
 1244 00ae 3B68     		ldr	r3, [r7]
 1245 00b0 002B     		cmp	r3, #0
 1246 00b2 EBD1     		bne	.L91
 1247              	.L90:
 468:lib_Fat/sdcard.c **** 			if (!xmit_datablock(0, 0xFD))	/* STOP_TRAN token */
 1248              		.loc 1 468 0
 1249 00b4 0020     		mov	r0, #0
 1250 00b6 FD21     		mov	r1, #253
 1251 00b8 FFF7FEFF 		bl	xmit_datablock
 1252 00bc 031E     		sub	r3, r0, #0
 1253 00be 01D1     		bne	.L87
 469:lib_Fat/sdcard.c **** 				count = 1;
 1254              		.loc 1 469 0
 1255 00c0 0123     		mov	r3, #1
 1256 00c2 3B60     		str	r3, [r7]
 1257              	.L87:
 470:lib_Fat/sdcard.c **** 		}
 471:lib_Fat/sdcard.c **** 	}
 472:lib_Fat/sdcard.c **** 	deselect();
 1258              		.loc 1 472 0
 1259 00c4 FFF7FEFF 		bl	deselect
 473:lib_Fat/sdcard.c **** 
 474:lib_Fat/sdcard.c **** 	return count ? RES_ERROR : RES_OK;
 1260              		.loc 1 474 0
 1261 00c8 3B68     		ldr	r3, [r7]
 1262 00ca 5A1E     		sub	r2, r3, #1
 1263 00cc 9341     		sbc	r3, r3, r2
 1264 00ce DBB2     		uxtb	r3, r3
 1265              	.L83:
 475:lib_Fat/sdcard.c **** }
 1266              		.loc 1 475 0
 1267 00d0 181C     		mov	r0, r3
 1268 00d2 BD46     		mov	sp, r7
 1269 00d4 04B0     		add	sp, sp, #16
 1270              		@ sp needed
 1271 00d6 80BD     		pop	{r7, pc}
 1272              	.L93:
 1273              		.align	2
 1274              	.L92:
 1275 00d8 00000000 		.word	CardType
 1276              		.cfi_endproc
 1277              	.LFE74:
 1278              		.size	disk_write, .-disk_write
 1279              		.section	.text.disk_ioctl,"ax",%progbits
 1280              		.align	2
 1281              		.global	disk_ioctl
 1282              		.code	16
 1283              		.thumb_func
 1284              		.type	disk_ioctl, %function
ARM GAS  C:\Users\Petro\AppData\Local\Temp\cc015mwj.s 			page 32


 1285              	disk_ioctl:
 1286              	.LFB75:
 476:lib_Fat/sdcard.c **** 
 477:lib_Fat/sdcard.c **** 
 478:lib_Fat/sdcard.c **** /*-----------------------------------------------------------------------*/
 479:lib_Fat/sdcard.c **** /* Miscellaneous Functions                                               */
 480:lib_Fat/sdcard.c **** /*-----------------------------------------------------------------------*/
 481:lib_Fat/sdcard.c **** 
 482:lib_Fat/sdcard.c **** DRESULT disk_ioctl (
 483:lib_Fat/sdcard.c **** 	BYTE drv,		/* Physical drive nmuber (0) */
 484:lib_Fat/sdcard.c **** 	BYTE ctrl,		/* Control code */
 485:lib_Fat/sdcard.c **** 	void *buff		/* Buffer to send/receive control data */
 486:lib_Fat/sdcard.c **** )
 487:lib_Fat/sdcard.c **** {
 1287              		.loc 1 487 0
 1288              		.cfi_startproc
 1289 0000 80B5     		push	{r7, lr}
 1290              		.cfi_def_cfa_offset 8
 1291              		.cfi_offset 7, -8
 1292              		.cfi_offset 14, -4
 1293 0002 8AB0     		sub	sp, sp, #40
 1294              		.cfi_def_cfa_offset 48
 1295 0004 00AF     		add	r7, sp, #0
 1296              		.cfi_def_cfa_register 7
 1297 0006 3A60     		str	r2, [r7]
 1298 0008 FB1D     		add	r3, r7, #7
 1299 000a 021C     		add	r2, r0, #0
 1300 000c 1A70     		strb	r2, [r3]
 1301 000e BB1D     		add	r3, r7, #6
 1302 0010 0A1C     		add	r2, r1, #0
 1303 0012 1A70     		strb	r2, [r3]
 488:lib_Fat/sdcard.c **** 	DRESULT res;
 489:lib_Fat/sdcard.c **** 	BYTE n, csd[16];
 490:lib_Fat/sdcard.c **** 	DWORD cs;
 491:lib_Fat/sdcard.c **** 
 492:lib_Fat/sdcard.c **** 
 493:lib_Fat/sdcard.c **** 	if (disk_status(drv) & STA_NOINIT) return RES_NOTRDY;	/* Check if card is in the socket */
 1304              		.loc 1 493 0
 1305 0014 FB1D     		add	r3, r7, #7
 1306 0016 1B78     		ldrb	r3, [r3]
 1307 0018 181C     		mov	r0, r3
 1308 001a FFF7FEFF 		bl	disk_status
 1309 001e 031C     		mov	r3, r0
 1310 0020 1A1C     		mov	r2, r3
 1311 0022 0123     		mov	r3, #1
 1312 0024 1340     		and	r3, r2
 1313 0026 01D0     		beq	.L95
 1314              		.loc 1 493 0 is_stmt 0 discriminator 1
 1315 0028 0323     		mov	r3, #3
 1316 002a 94E0     		b	.L106
 1317              	.L95:
 494:lib_Fat/sdcard.c **** 
 495:lib_Fat/sdcard.c **** 	res = RES_ERROR;
 1318              		.loc 1 495 0 is_stmt 1
 1319 002c 2723     		mov	r3, #39
 1320 002e FB18     		add	r3, r7, r3
 1321 0030 0122     		mov	r2, #1
ARM GAS  C:\Users\Petro\AppData\Local\Temp\cc015mwj.s 			page 33


 1322 0032 1A70     		strb	r2, [r3]
 496:lib_Fat/sdcard.c **** 	switch (ctrl) {
 1323              		.loc 1 496 0
 1324 0034 BB1D     		add	r3, r7, #6
 1325 0036 1B78     		ldrb	r3, [r3]
 1326 0038 012B     		cmp	r3, #1
 1327 003a 0FD0     		beq	.L98
 1328 003c 032B     		cmp	r3, #3
 1329 003e 00D1     		bne	.LCB1204
 1330 0040 78E0     		b	.L99	@long jump
 1331              	.LCB1204:
 1332 0042 002B     		cmp	r3, #0
 1333 0044 00D0     		beq	.LCB1206
 1334 0046 7DE0     		b	.L107	@long jump
 1335              	.LCB1206:
 497:lib_Fat/sdcard.c **** 		case CTRL_SYNC :		/* Make sure that no pending write process */
 498:lib_Fat/sdcard.c **** 			if (select()) res = RES_OK;
 1336              		.loc 1 498 0
 1337 0048 FFF7FEFF 		bl	select
 1338 004c 031E     		sub	r3, r0, #0
 1339 004e 04D0     		beq	.L101
 1340              		.loc 1 498 0 is_stmt 0 discriminator 1
 1341 0050 2723     		mov	r3, #39
 1342 0052 FB18     		add	r3, r7, r3
 1343 0054 0022     		mov	r2, #0
 1344 0056 1A70     		strb	r2, [r3]
 499:lib_Fat/sdcard.c **** 			break;
 1345              		.loc 1 499 0 is_stmt 1 discriminator 1
 1346 0058 78E0     		b	.L102
 1347              	.L101:
 1348              		.loc 1 499 0 is_stmt 0
 1349 005a 77E0     		b	.L102
 1350              	.L98:
 500:lib_Fat/sdcard.c **** 
 501:lib_Fat/sdcard.c **** 		case GET_SECTOR_COUNT :	/* Get number of sectors on the disk (DWORD) */
 502:lib_Fat/sdcard.c **** 			if ((send_cmd(CMD9, 0) == 0) && rcvr_datablock(csd, 16)) {
 1351              		.loc 1 502 0 is_stmt 1
 1352 005c 0920     		mov	r0, #9
 1353 005e 0021     		mov	r1, #0
 1354 0060 FFF7FEFF 		bl	send_cmd
 1355 0064 031E     		sub	r3, r0, #0
 1356 0066 64D1     		bne	.L103
 1357              		.loc 1 502 0 is_stmt 0 discriminator 1
 1358 0068 0C23     		mov	r3, #12
 1359 006a FB18     		add	r3, r7, r3
 1360 006c 181C     		mov	r0, r3
 1361 006e 1021     		mov	r1, #16
 1362 0070 FFF7FEFF 		bl	rcvr_datablock
 1363 0074 031E     		sub	r3, r0, #0
 1364 0076 5CD0     		beq	.L103
 503:lib_Fat/sdcard.c **** 				if ((csd[0] >> 6) == 1) {	/* SDC ver 2.00 */
 1365              		.loc 1 503 0 is_stmt 1
 1366 0078 0C23     		mov	r3, #12
 1367 007a FB18     		add	r3, r7, r3
 1368 007c 1B78     		ldrb	r3, [r3]
 1369 007e 9B09     		lsr	r3, r3, #6
 1370 0080 DBB2     		uxtb	r3, r3
ARM GAS  C:\Users\Petro\AppData\Local\Temp\cc015mwj.s 			page 34


 1371 0082 012B     		cmp	r3, #1
 1372 0084 18D1     		bne	.L104
 504:lib_Fat/sdcard.c **** 					cs = csd[9] + ((WORD)csd[8] << 8) + ((DWORD)(csd[7] & 63) << 16) + 1;
 1373              		.loc 1 504 0
 1374 0086 0C23     		mov	r3, #12
 1375 0088 FB18     		add	r3, r7, r3
 1376 008a 5B7A     		ldrb	r3, [r3, #9]
 1377 008c 1A1C     		mov	r2, r3
 1378 008e 0C23     		mov	r3, #12
 1379 0090 FB18     		add	r3, r7, r3
 1380 0092 1B7A     		ldrb	r3, [r3, #8]
 1381 0094 1B02     		lsl	r3, r3, #8
 1382 0096 D318     		add	r3, r2, r3
 1383 0098 1A1C     		mov	r2, r3
 1384 009a 0C23     		mov	r3, #12
 1385 009c FB18     		add	r3, r7, r3
 1386 009e DB79     		ldrb	r3, [r3, #7]
 1387 00a0 191C     		mov	r1, r3
 1388 00a2 3F23     		mov	r3, #63
 1389 00a4 0B40     		and	r3, r1
 1390 00a6 1B04     		lsl	r3, r3, #16
 1391 00a8 D318     		add	r3, r2, r3
 1392 00aa 0133     		add	r3, r3, #1
 1393 00ac 3B62     		str	r3, [r7, #32]
 505:lib_Fat/sdcard.c **** 					*(DWORD*)buff = cs << 10;
 1394              		.loc 1 505 0
 1395 00ae 3B6A     		ldr	r3, [r7, #32]
 1396 00b0 9A02     		lsl	r2, r3, #10
 1397 00b2 3B68     		ldr	r3, [r7]
 1398 00b4 1A60     		str	r2, [r3]
 1399 00b6 37E0     		b	.L105
 1400              	.L104:
 506:lib_Fat/sdcard.c **** 				} else {					/* SDC ver 1.XX or MMC */
 507:lib_Fat/sdcard.c **** 					n = (csd[5] & 15) + ((csd[10] & 128) >> 7) + ((csd[9] & 3) << 1) + 2;
 1401              		.loc 1 507 0
 1402 00b8 0C23     		mov	r3, #12
 1403 00ba FB18     		add	r3, r7, r3
 1404 00bc 5B79     		ldrb	r3, [r3, #5]
 1405 00be 0F22     		mov	r2, #15
 1406 00c0 1340     		and	r3, r2
 1407 00c2 DAB2     		uxtb	r2, r3
 1408 00c4 0C23     		mov	r3, #12
 1409 00c6 FB18     		add	r3, r7, r3
 1410 00c8 9B7A     		ldrb	r3, [r3, #10]
 1411 00ca DB09     		lsr	r3, r3, #7
 1412 00cc DBB2     		uxtb	r3, r3
 1413 00ce D318     		add	r3, r2, r3
 1414 00d0 DAB2     		uxtb	r2, r3
 1415 00d2 0C23     		mov	r3, #12
 1416 00d4 FB18     		add	r3, r7, r3
 1417 00d6 5B7A     		ldrb	r3, [r3, #9]
 1418 00d8 0321     		mov	r1, #3
 1419 00da 0B40     		and	r3, r1
 1420 00dc DBB2     		uxtb	r3, r3
 1421 00de DB18     		add	r3, r3, r3
 1422 00e0 DBB2     		uxtb	r3, r3
 1423 00e2 D318     		add	r3, r2, r3
ARM GAS  C:\Users\Petro\AppData\Local\Temp\cc015mwj.s 			page 35


 1424 00e4 DAB2     		uxtb	r2, r3
 1425 00e6 1F23     		mov	r3, #31
 1426 00e8 FB18     		add	r3, r7, r3
 1427 00ea 0232     		add	r2, r2, #2
 1428 00ec 1A70     		strb	r2, [r3]
 508:lib_Fat/sdcard.c **** 					cs = (csd[8] >> 6) + ((WORD)csd[7] << 2) + ((WORD)(csd[6] & 3) << 10) + 1;
 1429              		.loc 1 508 0
 1430 00ee 0C23     		mov	r3, #12
 1431 00f0 FB18     		add	r3, r7, r3
 1432 00f2 1B7A     		ldrb	r3, [r3, #8]
 1433 00f4 9B09     		lsr	r3, r3, #6
 1434 00f6 DBB2     		uxtb	r3, r3
 1435 00f8 1A1C     		mov	r2, r3
 1436 00fa 0C23     		mov	r3, #12
 1437 00fc FB18     		add	r3, r7, r3
 1438 00fe DB79     		ldrb	r3, [r3, #7]
 1439 0100 9B00     		lsl	r3, r3, #2
 1440 0102 D218     		add	r2, r2, r3
 1441 0104 0C23     		mov	r3, #12
 1442 0106 FB18     		add	r3, r7, r3
 1443 0108 9B79     		ldrb	r3, [r3, #6]
 1444 010a 191C     		mov	r1, r3
 1445 010c 0323     		mov	r3, #3
 1446 010e 0B40     		and	r3, r1
 1447 0110 9B02     		lsl	r3, r3, #10
 1448 0112 D318     		add	r3, r2, r3
 1449 0114 0133     		add	r3, r3, #1
 1450 0116 3B62     		str	r3, [r7, #32]
 509:lib_Fat/sdcard.c **** 					*(DWORD*)buff = cs << (n - 9);
 1451              		.loc 1 509 0
 1452 0118 1F23     		mov	r3, #31
 1453 011a FB18     		add	r3, r7, r3
 1454 011c 1B78     		ldrb	r3, [r3]
 1455 011e 093B     		sub	r3, r3, #9
 1456 0120 3A6A     		ldr	r2, [r7, #32]
 1457 0122 9A40     		lsl	r2, r2, r3
 1458 0124 3B68     		ldr	r3, [r7]
 1459 0126 1A60     		str	r2, [r3]
 1460              	.L105:
 510:lib_Fat/sdcard.c **** 				}
 511:lib_Fat/sdcard.c **** 				res = RES_OK;
 1461              		.loc 1 511 0
 1462 0128 2723     		mov	r3, #39
 1463 012a FB18     		add	r3, r7, r3
 1464 012c 0022     		mov	r2, #0
 1465 012e 1A70     		strb	r2, [r3]
 512:lib_Fat/sdcard.c **** 			}
 513:lib_Fat/sdcard.c **** 			break;
 1466              		.loc 1 513 0
 1467 0130 0CE0     		b	.L102
 1468              	.L103:
 1469 0132 0BE0     		b	.L102
 1470              	.L99:
 514:lib_Fat/sdcard.c **** 
 515:lib_Fat/sdcard.c **** 		case GET_BLOCK_SIZE :	/* Get erase block size in unit of sector (DWORD) */
 516:lib_Fat/sdcard.c **** 			*(DWORD*)buff = 128;
 1471              		.loc 1 516 0
ARM GAS  C:\Users\Petro\AppData\Local\Temp\cc015mwj.s 			page 36


 1472 0134 3B68     		ldr	r3, [r7]
 1473 0136 8022     		mov	r2, #128
 1474 0138 1A60     		str	r2, [r3]
 517:lib_Fat/sdcard.c **** 			res = RES_OK;
 1475              		.loc 1 517 0
 1476 013a 2723     		mov	r3, #39
 1477 013c FB18     		add	r3, r7, r3
 1478 013e 0022     		mov	r2, #0
 1479 0140 1A70     		strb	r2, [r3]
 518:lib_Fat/sdcard.c **** 			break;
 1480              		.loc 1 518 0
 1481 0142 03E0     		b	.L102
 1482              	.L107:
 519:lib_Fat/sdcard.c **** 
 520:lib_Fat/sdcard.c **** 		default:
 521:lib_Fat/sdcard.c **** 			res = RES_PARERR;
 1483              		.loc 1 521 0
 1484 0144 2723     		mov	r3, #39
 1485 0146 FB18     		add	r3, r7, r3
 1486 0148 0422     		mov	r2, #4
 1487 014a 1A70     		strb	r2, [r3]
 1488              	.L102:
 522:lib_Fat/sdcard.c **** 	}
 523:lib_Fat/sdcard.c **** 
 524:lib_Fat/sdcard.c **** 	deselect();
 1489              		.loc 1 524 0
 1490 014c FFF7FEFF 		bl	deselect
 525:lib_Fat/sdcard.c **** 
 526:lib_Fat/sdcard.c **** 	return res;
 1491              		.loc 1 526 0
 1492 0150 2723     		mov	r3, #39
 1493 0152 FB18     		add	r3, r7, r3
 1494 0154 1B78     		ldrb	r3, [r3]
 1495              	.L106:
 527:lib_Fat/sdcard.c **** }
 1496              		.loc 1 527 0 discriminator 1
 1497 0156 181C     		mov	r0, r3
 1498 0158 BD46     		mov	sp, r7
 1499 015a 0AB0     		add	sp, sp, #40
 1500              		@ sp needed
 1501 015c 80BD     		pop	{r7, pc}
 1502              		.cfi_endproc
 1503              	.LFE75:
 1504              		.size	disk_ioctl, .-disk_ioctl
 1505 015e C046     		.text
 1506              	.Letext0:
 1507              		.file 2 "lib_Fat\\integer.h"
 1508              		.file 3 "lib_Fat\\diskio.h"
 1509              		.file 4 "Generated_Source\\PSoC4/ble_Stack.h"