ARM GAS  C:\Users\Petro\AppData\Local\Temp\ccOzssx9.s 			page 1


   1              		.cpu cortex-m0
   2              		.fpu softvfp
   3              		.eabi_attribute 20, 1
   4              		.eabi_attribute 21, 1
   5              		.eabi_attribute 23, 3
   6              		.eabi_attribute 24, 1
   7              		.eabi_attribute 25, 1
   8              		.eabi_attribute 26, 1
   9              		.eabi_attribute 30, 6
  10              		.eabi_attribute 34, 0
  11              		.eabi_attribute 18, 4
  12              		.code	16
  13              		.file	"SwSPI_Master.c"
  14              		.text
  15              	.Ltext0:
  16              		.cfi_sections	.debug_frame
  17              		.section	.text.SwSPI_Master_Init,"ax",%progbits
  18              		.align	2
  19              		.global	SwSPI_Master_Init
  20              		.code	16
  21              		.thumb_func
  22              		.type	SwSPI_Master_Init, %function
  23              	SwSPI_Master_Init:
  24              	.LFB2:
  25              		.file 1 "Generated_Source\\PSoC4\\SwSPI_Master.c"
   1:Generated_Source\PSoC4/SwSPI_Master.c **** /* ========================================
   2:Generated_Source\PSoC4/SwSPI_Master.c ****  *
   3:Generated_Source\PSoC4/SwSPI_Master.c ****  * File Name: SwSPI_Master.c
   4:Generated_Source\PSoC4/SwSPI_Master.c ****  * Version 1.20 
   5:Generated_Source\PSoC4/SwSPI_Master.c ****  * Copyright ANDREY TKACHOV, 2016
   6:Generated_Source\PSoC4/SwSPI_Master.c ****  
   7:Generated_Source\PSoC4/SwSPI_Master.c ****  * Description:
   8:Generated_Source\PSoC4/SwSPI_Master.c ****  *  This file provides source code for the Software SPI component's API.
   9:Generated_Source\PSoC4/SwSPI_Master.c **** 
  10:Generated_Source\PSoC4/SwSPI_Master.c ****  * All Rights Reserved
  11:Generated_Source\PSoC4/SwSPI_Master.c ****  * UNPUBLISHED, LICENSED SOFTWARE.
  12:Generated_Source\PSoC4/SwSPI_Master.c ****  *
  13:Generated_Source\PSoC4/SwSPI_Master.c ****  * CONFIDENTIAL AND PROPRIETARY INFORMATION
  14:Generated_Source\PSoC4/SwSPI_Master.c ****  * WHICH IS THE PROPERTY OF PERSONAL LICENSE.
  15:Generated_Source\PSoC4/SwSPI_Master.c ****  *
  16:Generated_Source\PSoC4/SwSPI_Master.c ****  * ========================================
  17:Generated_Source\PSoC4/SwSPI_Master.c **** */
  18:Generated_Source\PSoC4/SwSPI_Master.c **** 
  19:Generated_Source\PSoC4/SwSPI_Master.c **** #include "SwSPI_Master_PVT.h"
  20:Generated_Source\PSoC4/SwSPI_Master.c **** 
  21:Generated_Source\PSoC4/SwSPI_Master.c **** /*******************************************************************************
  22:Generated_Source\PSoC4/SwSPI_Master.c **** * Function Name: SwSPI_Master_Init
  23:Generated_Source\PSoC4/SwSPI_Master.c **** ********************************************************************************
  24:Generated_Source\PSoC4/SwSPI_Master.c **** *
  25:Generated_Source\PSoC4/SwSPI_Master.c **** * Summary:
  26:Generated_Source\PSoC4/SwSPI_Master.c **** *  Performs initialization required for the components normal work.
  27:Generated_Source\PSoC4/SwSPI_Master.c **** *  This function initializes the Software SPI hardware module as follows:
  28:Generated_Source\PSoC4/SwSPI_Master.c **** *        Sets initial state for CS, CLK, MOSI pin
  29:Generated_Source\PSoC4/SwSPI_Master.c **** *
  30:Generated_Source\PSoC4/SwSPI_Master.c **** * Parameters:
  31:Generated_Source\PSoC4/SwSPI_Master.c **** *  None.
  32:Generated_Source\PSoC4/SwSPI_Master.c **** *
ARM GAS  C:\Users\Petro\AppData\Local\Temp\ccOzssx9.s 			page 2


  33:Generated_Source\PSoC4/SwSPI_Master.c **** * Return:
  34:Generated_Source\PSoC4/SwSPI_Master.c **** *  None.
  35:Generated_Source\PSoC4/SwSPI_Master.c **** *
  36:Generated_Source\PSoC4/SwSPI_Master.c **** * Reentrant:
  37:Generated_Source\PSoC4/SwSPI_Master.c **** *  No.
  38:Generated_Source\PSoC4/SwSPI_Master.c **** *
  39:Generated_Source\PSoC4/SwSPI_Master.c **** *******************************************************************************/
  40:Generated_Source\PSoC4/SwSPI_Master.c **** 
  41:Generated_Source\PSoC4/SwSPI_Master.c **** void SwSPI_Master_Init(void) 
  42:Generated_Source\PSoC4/SwSPI_Master.c **** {
  26              		.loc 1 42 0
  27              		.cfi_startproc
  28 0000 80B5     		push	{r7, lr}
  29              		.cfi_def_cfa_offset 8
  30              		.cfi_offset 7, -8
  31              		.cfi_offset 14, -4
  32 0002 00AF     		add	r7, sp, #0
  33              		.cfi_def_cfa_register 7
  43:Generated_Source\PSoC4/SwSPI_Master.c ****    SwSPI_Master_CS_DR_REG |= SwSPI_Master_CS;
  34              		.loc 1 43 0
  35 0004 094B     		ldr	r3, .L2
  36 0006 094A     		ldr	r2, .L2
  37 0008 1268     		ldr	r2, [r2]
  38 000a 0121     		mov	r1, #1
  39 000c 0A43     		orr	r2, r1
  40 000e 1A60     		str	r2, [r3]
  44:Generated_Source\PSoC4/SwSPI_Master.c ****    SwSPI_Master_SCK_DR_REG &= ((uint8)(~SwSPI_Master_CLK));
  41              		.loc 1 44 0
  42 0010 064B     		ldr	r3, .L2
  43 0012 064A     		ldr	r2, .L2
  44 0014 1268     		ldr	r2, [r2]
  45 0016 FD21     		mov	r1, #253
  46 0018 0A40     		and	r2, r1
  47 001a 1A60     		str	r2, [r3]
  45:Generated_Source\PSoC4/SwSPI_Master.c ****    SwSPI_Master_MOSI_DR_REG &= ((uint8)(~SwSPI_Master_MOSI));
  48              		.loc 1 45 0
  49 001c 034B     		ldr	r3, .L2
  50 001e 034A     		ldr	r2, .L2
  51 0020 1268     		ldr	r2, [r2]
  52 0022 FB21     		mov	r1, #251
  53 0024 0A40     		and	r2, r1
  54 0026 1A60     		str	r2, [r3]
  46:Generated_Source\PSoC4/SwSPI_Master.c **** }
  55              		.loc 1 46 0
  56 0028 BD46     		mov	sp, r7
  57              		@ sp needed
  58 002a 80BD     		pop	{r7, pc}
  59              	.L3:
  60              		.align	2
  61              	.L2:
  62 002c 00020440 		.word	1074004480
  63              		.cfi_endproc
  64              	.LFE2:
  65              		.size	SwSPI_Master_Init, .-SwSPI_Master_Init
  66              		.section	.text.SwSPI_Master_ChipSelect,"ax",%progbits
  67              		.align	2
  68              		.global	SwSPI_Master_ChipSelect
ARM GAS  C:\Users\Petro\AppData\Local\Temp\ccOzssx9.s 			page 3


  69              		.code	16
  70              		.thumb_func
  71              		.type	SwSPI_Master_ChipSelect, %function
  72              	SwSPI_Master_ChipSelect:
  73              	.LFB3:
  47:Generated_Source\PSoC4/SwSPI_Master.c **** 
  48:Generated_Source\PSoC4/SwSPI_Master.c **** /*******************************************************************************
  49:Generated_Source\PSoC4/SwSPI_Master.c **** * Function Name: SwSPI_Master_ChipSelect
  50:Generated_Source\PSoC4/SwSPI_Master.c **** ********************************************************************************
  51:Generated_Source\PSoC4/SwSPI_Master.c **** *
  52:Generated_Source\PSoC4/SwSPI_Master.c **** * Summary:
  53:Generated_Source\PSoC4/SwSPI_Master.c **** *  Sets active state on CS pin.
  54:Generated_Source\PSoC4/SwSPI_Master.c **** *  For this mode active state CS is low.
  55:Generated_Source\PSoC4/SwSPI_Master.c **** *
  56:Generated_Source\PSoC4/SwSPI_Master.c **** * Parameters:
  57:Generated_Source\PSoC4/SwSPI_Master.c **** *  None
  58:Generated_Source\PSoC4/SwSPI_Master.c **** *
  59:Generated_Source\PSoC4/SwSPI_Master.c **** * Return:
  60:Generated_Source\PSoC4/SwSPI_Master.c **** *  None
  61:Generated_Source\PSoC4/SwSPI_Master.c **** *
  62:Generated_Source\PSoC4/SwSPI_Master.c **** *******************************************************************************/
  63:Generated_Source\PSoC4/SwSPI_Master.c **** 
  64:Generated_Source\PSoC4/SwSPI_Master.c **** void SwSPI_Master_ChipSelect(void) 
  65:Generated_Source\PSoC4/SwSPI_Master.c **** {
  74              		.loc 1 65 0
  75              		.cfi_startproc
  76 0000 80B5     		push	{r7, lr}
  77              		.cfi_def_cfa_offset 8
  78              		.cfi_offset 7, -8
  79              		.cfi_offset 14, -4
  80 0002 00AF     		add	r7, sp, #0
  81              		.cfi_def_cfa_register 7
  66:Generated_Source\PSoC4/SwSPI_Master.c **** /*    SwSPI_Master_OUTPORT_DR_REG &= ((uint8)(~SwSPI_Master_CS));*/
  67:Generated_Source\PSoC4/SwSPI_Master.c **** }
  82              		.loc 1 67 0
  83 0004 BD46     		mov	sp, r7
  84              		@ sp needed
  85 0006 80BD     		pop	{r7, pc}
  86              		.cfi_endproc
  87              	.LFE3:
  88              		.size	SwSPI_Master_ChipSelect, .-SwSPI_Master_ChipSelect
  89              		.section	.text.SwSPI_Master_ChipDeselect,"ax",%progbits
  90              		.align	2
  91              		.global	SwSPI_Master_ChipDeselect
  92              		.code	16
  93              		.thumb_func
  94              		.type	SwSPI_Master_ChipDeselect, %function
  95              	SwSPI_Master_ChipDeselect:
  96              	.LFB4:
  68:Generated_Source\PSoC4/SwSPI_Master.c **** 
  69:Generated_Source\PSoC4/SwSPI_Master.c **** /*******************************************************************************
  70:Generated_Source\PSoC4/SwSPI_Master.c **** * Function Name: SwSPI_Master_ChipDeselect
  71:Generated_Source\PSoC4/SwSPI_Master.c **** ********************************************************************************
  72:Generated_Source\PSoC4/SwSPI_Master.c **** *
  73:Generated_Source\PSoC4/SwSPI_Master.c **** * Summary:
  74:Generated_Source\PSoC4/SwSPI_Master.c **** *  Sets disable state on CS pin.
  75:Generated_Source\PSoC4/SwSPI_Master.c **** *  For this mode disable state CS is high.
ARM GAS  C:\Users\Petro\AppData\Local\Temp\ccOzssx9.s 			page 4


  76:Generated_Source\PSoC4/SwSPI_Master.c **** *
  77:Generated_Source\PSoC4/SwSPI_Master.c **** * Parameters:
  78:Generated_Source\PSoC4/SwSPI_Master.c **** *  None
  79:Generated_Source\PSoC4/SwSPI_Master.c **** *
  80:Generated_Source\PSoC4/SwSPI_Master.c **** * Return:
  81:Generated_Source\PSoC4/SwSPI_Master.c **** *  None
  82:Generated_Source\PSoC4/SwSPI_Master.c **** *
  83:Generated_Source\PSoC4/SwSPI_Master.c **** *******************************************************************************/
  84:Generated_Source\PSoC4/SwSPI_Master.c **** 
  85:Generated_Source\PSoC4/SwSPI_Master.c **** void SwSPI_Master_ChipDeselect(void) 
  86:Generated_Source\PSoC4/SwSPI_Master.c **** {
  97              		.loc 1 86 0
  98              		.cfi_startproc
  99 0000 80B5     		push	{r7, lr}
 100              		.cfi_def_cfa_offset 8
 101              		.cfi_offset 7, -8
 102              		.cfi_offset 14, -4
 103 0002 00AF     		add	r7, sp, #0
 104              		.cfi_def_cfa_register 7
  87:Generated_Source\PSoC4/SwSPI_Master.c **** /*    SwSPI_Master_OUTPORT_DR_REG |= SwSPI_Master_CS;*/
  88:Generated_Source\PSoC4/SwSPI_Master.c **** }
 105              		.loc 1 88 0
 106 0004 BD46     		mov	sp, r7
 107              		@ sp needed
 108 0006 80BD     		pop	{r7, pc}
 109              		.cfi_endproc
 110              	.LFE4:
 111              		.size	SwSPI_Master_ChipDeselect, .-SwSPI_Master_ChipDeselect
 112              		.section	.text.SwSPI_Master_SendByte,"ax",%progbits
 113              		.align	2
 114              		.global	SwSPI_Master_SendByte
 115              		.code	16
 116              		.thumb_func
 117              		.type	SwSPI_Master_SendByte, %function
 118              	SwSPI_Master_SendByte:
 119              	.LFB5:
  89:Generated_Source\PSoC4/SwSPI_Master.c **** 
  90:Generated_Source\PSoC4/SwSPI_Master.c **** /*******************************************************************************
  91:Generated_Source\PSoC4/SwSPI_Master.c **** * Function Name: SwSPI_Master_SendByte
  92:Generated_Source\PSoC4/SwSPI_Master.c **** ********************************************************************************
  93:Generated_Source\PSoC4/SwSPI_Master.c **** *
  94:Generated_Source\PSoC4/SwSPI_Master.c **** * Summary:
  95:Generated_Source\PSoC4/SwSPI_Master.c **** *  Sends one byte via Software SPI.
  96:Generated_Source\PSoC4/SwSPI_Master.c **** *  One byte are transmitted after 8 periods CLK.
  97:Generated_Source\PSoC4/SwSPI_Master.c **** *
  98:Generated_Source\PSoC4/SwSPI_Master.c **** * Parameters:
  99:Generated_Source\PSoC4/SwSPI_Master.c **** *  Byte to be transmitted
 100:Generated_Source\PSoC4/SwSPI_Master.c **** *
 101:Generated_Source\PSoC4/SwSPI_Master.c **** * Note:
 102:Generated_Source\PSoC4/SwSPI_Master.c **** *  CS must be in active(low) state.
 103:Generated_Source\PSoC4/SwSPI_Master.c **** *
 104:Generated_Source\PSoC4/SwSPI_Master.c **** * Return:
 105:Generated_Source\PSoC4/SwSPI_Master.c **** *  None
 106:Generated_Source\PSoC4/SwSPI_Master.c **** *
 107:Generated_Source\PSoC4/SwSPI_Master.c **** *******************************************************************************/
 108:Generated_Source\PSoC4/SwSPI_Master.c **** 
 109:Generated_Source\PSoC4/SwSPI_Master.c **** void SwSPI_Master_SendByte(uint8 byte) 
ARM GAS  C:\Users\Petro\AppData\Local\Temp\ccOzssx9.s 			page 5


 110:Generated_Source\PSoC4/SwSPI_Master.c **** {
 120              		.loc 1 110 0
 121              		.cfi_startproc
 122 0000 80B5     		push	{r7, lr}
 123              		.cfi_def_cfa_offset 8
 124              		.cfi_offset 7, -8
 125              		.cfi_offset 14, -4
 126 0002 84B0     		sub	sp, sp, #16
 127              		.cfi_def_cfa_offset 24
 128 0004 00AF     		add	r7, sp, #0
 129              		.cfi_def_cfa_register 7
 130 0006 021C     		mov	r2, r0
 131 0008 FB1D     		add	r3, r7, #7
 132 000a 1A70     		strb	r2, [r3]
 111:Generated_Source\PSoC4/SwSPI_Master.c ****     uint8 countBites;
 112:Generated_Source\PSoC4/SwSPI_Master.c ****     for (countBites = BITES_ON_ONE_BYTE; countBites > 0; countBites--)
 133              		.loc 1 112 0
 134 000c 0F23     		mov	r3, #15
 135 000e FB18     		add	r3, r7, r3
 136 0010 0822     		mov	r2, #8
 137 0012 1A70     		strb	r2, [r3]
 138 0014 2FE0     		b	.L7
 139              	.L10:
 113:Generated_Source\PSoC4/SwSPI_Master.c ****     {
 114:Generated_Source\PSoC4/SwSPI_Master.c ****     
 115:Generated_Source\PSoC4/SwSPI_Master.c ****         if (byte & MASK_HIGH_BIT)
 140              		.loc 1 115 0
 141 0016 FB1D     		add	r3, r7, #7
 142 0018 1B78     		ldrb	r3, [r3]
 143 001a 5BB2     		sxtb	r3, r3
 144 001c 002B     		cmp	r3, #0
 145 001e 06DA     		bge	.L8
 116:Generated_Source\PSoC4/SwSPI_Master.c ****         {
 117:Generated_Source\PSoC4/SwSPI_Master.c ****             SwSPI_Master_MOSI_DR_REG |= SwSPI_Master_MOSI;
 146              		.loc 1 117 0
 147 0020 1C4B     		ldr	r3, .L11
 148 0022 1C4A     		ldr	r2, .L11
 149 0024 1268     		ldr	r2, [r2]
 150 0026 0421     		mov	r1, #4
 151 0028 0A43     		orr	r2, r1
 152 002a 1A60     		str	r2, [r3]
 153 002c 05E0     		b	.L9
 154              	.L8:
 118:Generated_Source\PSoC4/SwSPI_Master.c ****         }
 119:Generated_Source\PSoC4/SwSPI_Master.c ****         else
 120:Generated_Source\PSoC4/SwSPI_Master.c ****         {
 121:Generated_Source\PSoC4/SwSPI_Master.c ****             SwSPI_Master_MOSI_DR_REG &= ((uint8)(~SwSPI_Master_MOSI));
 155              		.loc 1 121 0
 156 002e 194B     		ldr	r3, .L11
 157 0030 184A     		ldr	r2, .L11
 158 0032 1268     		ldr	r2, [r2]
 159 0034 FB21     		mov	r1, #251
 160 0036 0A40     		and	r2, r1
 161 0038 1A60     		str	r2, [r3]
 162              	.L9:
 122:Generated_Source\PSoC4/SwSPI_Master.c ****         }  
 123:Generated_Source\PSoC4/SwSPI_Master.c ****         SwSPI_Master_SCK_DR_REG |= SwSPI_Master_CLK;
ARM GAS  C:\Users\Petro\AppData\Local\Temp\ccOzssx9.s 			page 6


 163              		.loc 1 123 0 discriminator 2
 164 003a 164B     		ldr	r3, .L11
 165 003c 154A     		ldr	r2, .L11
 166 003e 1268     		ldr	r2, [r2]
 167 0040 0221     		mov	r1, #2
 168 0042 0A43     		orr	r2, r1
 169 0044 1A60     		str	r2, [r3]
 124:Generated_Source\PSoC4/SwSPI_Master.c ****         
 125:Generated_Source\PSoC4/SwSPI_Master.c ****         CyDelayCycles(DELAY_HIGH_STATE);
 170              		.loc 1 125 0 discriminator 2
 171 0046 1420     		mov	r0, #20
 172 0048 FFF7FEFF 		bl	CyDelayCycles
 126:Generated_Source\PSoC4/SwSPI_Master.c ****         
 127:Generated_Source\PSoC4/SwSPI_Master.c ****         SwSPI_Master_SCK_DR_REG &= ((uint8)(~SwSPI_Master_CLK));
 173              		.loc 1 127 0 discriminator 2
 174 004c 114B     		ldr	r3, .L11
 175 004e 114A     		ldr	r2, .L11
 176 0050 1268     		ldr	r2, [r2]
 177 0052 FD21     		mov	r1, #253
 178 0054 0A40     		and	r2, r1
 179 0056 1A60     		str	r2, [r3]
 128:Generated_Source\PSoC4/SwSPI_Master.c ****         CyDelayCycles(DELAY_LOW_STATE);      
 180              		.loc 1 128 0 discriminator 2
 181 0058 1420     		mov	r0, #20
 182 005a FFF7FEFF 		bl	CyDelayCycles
 129:Generated_Source\PSoC4/SwSPI_Master.c ****         byte <<=  SHIFT_ONE_BIT;
 183              		.loc 1 129 0 discriminator 2
 184 005e FA1D     		add	r2, r7, #7
 185 0060 FB1D     		add	r3, r7, #7
 186 0062 1B78     		ldrb	r3, [r3]
 187 0064 DB18     		add	r3, r3, r3
 188 0066 1370     		strb	r3, [r2]
 112:Generated_Source\PSoC4/SwSPI_Master.c ****     {
 189              		.loc 1 112 0 discriminator 2
 190 0068 0F23     		mov	r3, #15
 191 006a FB18     		add	r3, r7, r3
 192 006c 1A78     		ldrb	r2, [r3]
 193 006e 0F23     		mov	r3, #15
 194 0070 FB18     		add	r3, r7, r3
 195 0072 013A     		sub	r2, r2, #1
 196 0074 1A70     		strb	r2, [r3]
 197              	.L7:
 112:Generated_Source\PSoC4/SwSPI_Master.c ****     {
 198              		.loc 1 112 0 is_stmt 0 discriminator 1
 199 0076 0F23     		mov	r3, #15
 200 0078 FB18     		add	r3, r7, r3
 201 007a 1B78     		ldrb	r3, [r3]
 202 007c 002B     		cmp	r3, #0
 203 007e CAD1     		bne	.L10
 130:Generated_Source\PSoC4/SwSPI_Master.c ****     }
 131:Generated_Source\PSoC4/SwSPI_Master.c ****     
 132:Generated_Source\PSoC4/SwSPI_Master.c ****     SwSPI_Master_MOSI_DR_REG &= ((uint8)(~SwSPI_Master_MOSI));    
 204              		.loc 1 132 0 is_stmt 1
 205 0080 044B     		ldr	r3, .L11
 206 0082 044A     		ldr	r2, .L11
 207 0084 1268     		ldr	r2, [r2]
 208 0086 FB21     		mov	r1, #251
ARM GAS  C:\Users\Petro\AppData\Local\Temp\ccOzssx9.s 			page 7


 209 0088 0A40     		and	r2, r1
 210 008a 1A60     		str	r2, [r3]
 133:Generated_Source\PSoC4/SwSPI_Master.c **** }
 211              		.loc 1 133 0
 212 008c BD46     		mov	sp, r7
 213 008e 04B0     		add	sp, sp, #16
 214              		@ sp needed
 215 0090 80BD     		pop	{r7, pc}
 216              	.L12:
 217 0092 C046     		.align	2
 218              	.L11:
 219 0094 00020440 		.word	1074004480
 220              		.cfi_endproc
 221              	.LFE5:
 222              		.size	SwSPI_Master_SendByte, .-SwSPI_Master_SendByte
 223              		.section	.text.SwSPI_Master_SendBuff,"ax",%progbits
 224              		.align	2
 225              		.global	SwSPI_Master_SendBuff
 226              		.code	16
 227              		.thumb_func
 228              		.type	SwSPI_Master_SendBuff, %function
 229              	SwSPI_Master_SendBuff:
 230              	.LFB6:
 134:Generated_Source\PSoC4/SwSPI_Master.c **** 
 135:Generated_Source\PSoC4/SwSPI_Master.c **** /*******************************************************************************
 136:Generated_Source\PSoC4/SwSPI_Master.c **** * Function Name: SwSPI_Master_SendBuff
 137:Generated_Source\PSoC4/SwSPI_Master.c **** ********************************************************************************
 138:Generated_Source\PSoC4/SwSPI_Master.c **** *
 139:Generated_Source\PSoC4/SwSPI_Master.c **** * Summary:
 140:Generated_Source\PSoC4/SwSPI_Master.c **** *  Sends one byte via Software SPI.
 141:Generated_Source\PSoC4/SwSPI_Master.c **** *  One byte are transmitted after 8 periods CLK.
 142:Generated_Source\PSoC4/SwSPI_Master.c **** *
 143:Generated_Source\PSoC4/SwSPI_Master.c **** * Parameters:
 144:Generated_Source\PSoC4/SwSPI_Master.c **** *  buff: Pointer to buffer who will be transmitted via SPI.
 145:Generated_Source\PSoC4/SwSPI_Master.c **** *  cnt: Count bytes in buffer for transmit.
 146:Generated_Source\PSoC4/SwSPI_Master.c **** *
 147:Generated_Source\PSoC4/SwSPI_Master.c **** * Note:
 148:Generated_Source\PSoC4/SwSPI_Master.c **** *  CS must be in active(low) state.
 149:Generated_Source\PSoC4/SwSPI_Master.c **** *  Transmitt no more 65535 bytes. (2^16 - 1)
 150:Generated_Source\PSoC4/SwSPI_Master.c **** *
 151:Generated_Source\PSoC4/SwSPI_Master.c **** * Return:
 152:Generated_Source\PSoC4/SwSPI_Master.c **** *  None
 153:Generated_Source\PSoC4/SwSPI_Master.c **** *
 154:Generated_Source\PSoC4/SwSPI_Master.c **** *******************************************************************************/
 155:Generated_Source\PSoC4/SwSPI_Master.c **** 
 156:Generated_Source\PSoC4/SwSPI_Master.c **** void SwSPI_Master_SendBuff(const uint8 buff[], uint16 cnt) 
 157:Generated_Source\PSoC4/SwSPI_Master.c **** {
 231              		.loc 1 157 0
 232              		.cfi_startproc
 233 0000 80B5     		push	{r7, lr}
 234              		.cfi_def_cfa_offset 8
 235              		.cfi_offset 7, -8
 236              		.cfi_offset 14, -4
 237 0002 84B0     		sub	sp, sp, #16
 238              		.cfi_def_cfa_offset 24
 239 0004 00AF     		add	r7, sp, #0
 240              		.cfi_def_cfa_register 7
ARM GAS  C:\Users\Petro\AppData\Local\Temp\ccOzssx9.s 			page 8


 241 0006 7860     		str	r0, [r7, #4]
 242 0008 0A1C     		mov	r2, r1
 243 000a BB1C     		add	r3, r7, #2
 244 000c 1A80     		strh	r2, [r3]
 158:Generated_Source\PSoC4/SwSPI_Master.c ****     uint16_t tmpData;
 159:Generated_Source\PSoC4/SwSPI_Master.c ****     for (tmpData = 0; tmpData < cnt; tmpData ++)
 245              		.loc 1 159 0
 246 000e 0E23     		mov	r3, #14
 247 0010 FB18     		add	r3, r7, r3
 248 0012 0022     		mov	r2, #0
 249 0014 1A80     		strh	r2, [r3]
 250 0016 0FE0     		b	.L14
 251              	.L15:
 160:Generated_Source\PSoC4/SwSPI_Master.c ****     {
 161:Generated_Source\PSoC4/SwSPI_Master.c ****         SwSPI_Master_SendByte(buff[tmpData]);
 252              		.loc 1 161 0 discriminator 3
 253 0018 0E23     		mov	r3, #14
 254 001a FB18     		add	r3, r7, r3
 255 001c 1B88     		ldrh	r3, [r3]
 256 001e 7A68     		ldr	r2, [r7, #4]
 257 0020 D318     		add	r3, r2, r3
 258 0022 1B78     		ldrb	r3, [r3]
 259 0024 181C     		mov	r0, r3
 260 0026 FFF7FEFF 		bl	SwSPI_Master_SendByte
 159:Generated_Source\PSoC4/SwSPI_Master.c ****     {
 261              		.loc 1 159 0 discriminator 3
 262 002a 0E23     		mov	r3, #14
 263 002c FB18     		add	r3, r7, r3
 264 002e 1A88     		ldrh	r2, [r3]
 265 0030 0E23     		mov	r3, #14
 266 0032 FB18     		add	r3, r7, r3
 267 0034 0132     		add	r2, r2, #1
 268 0036 1A80     		strh	r2, [r3]
 269              	.L14:
 159:Generated_Source\PSoC4/SwSPI_Master.c ****     {
 270              		.loc 1 159 0 is_stmt 0 discriminator 1
 271 0038 0E23     		mov	r3, #14
 272 003a FA18     		add	r2, r7, r3
 273 003c BB1C     		add	r3, r7, #2
 274 003e 1288     		ldrh	r2, [r2]
 275 0040 1B88     		ldrh	r3, [r3]
 276 0042 9A42     		cmp	r2, r3
 277 0044 E8D3     		bcc	.L15
 162:Generated_Source\PSoC4/SwSPI_Master.c ****     }
 163:Generated_Source\PSoC4/SwSPI_Master.c **** }
 278              		.loc 1 163 0 is_stmt 1
 279 0046 BD46     		mov	sp, r7
 280 0048 04B0     		add	sp, sp, #16
 281              		@ sp needed
 282 004a 80BD     		pop	{r7, pc}
 283              		.cfi_endproc
 284              	.LFE6:
 285              		.size	SwSPI_Master_SendBuff, .-SwSPI_Master_SendBuff
 286              		.section	.text.SwSPI_Master_RecvByte,"ax",%progbits
 287              		.align	2
 288              		.global	SwSPI_Master_RecvByte
 289              		.code	16
ARM GAS  C:\Users\Petro\AppData\Local\Temp\ccOzssx9.s 			page 9


 290              		.thumb_func
 291              		.type	SwSPI_Master_RecvByte, %function
 292              	SwSPI_Master_RecvByte:
 293              	.LFB7:
 164:Generated_Source\PSoC4/SwSPI_Master.c **** 
 165:Generated_Source\PSoC4/SwSPI_Master.c **** /*******************************************************************************
 166:Generated_Source\PSoC4/SwSPI_Master.c **** * Function Name: SwSPI_Master_RecvByte
 167:Generated_Source\PSoC4/SwSPI_Master.c **** ********************************************************************************
 168:Generated_Source\PSoC4/SwSPI_Master.c **** *
 169:Generated_Source\PSoC4/SwSPI_Master.c **** * Summary:
 170:Generated_Source\PSoC4/SwSPI_Master.c **** *  Recieve one byte via Software SPI.
 171:Generated_Source\PSoC4/SwSPI_Master.c **** *  One byte are recieved after 8 periods CLK.
 172:Generated_Source\PSoC4/SwSPI_Master.c **** *
 173:Generated_Source\PSoC4/SwSPI_Master.c **** * Parameters:
 174:Generated_Source\PSoC4/SwSPI_Master.c **** *  None.
 175:Generated_Source\PSoC4/SwSPI_Master.c **** *
 176:Generated_Source\PSoC4/SwSPI_Master.c **** * Note:
 177:Generated_Source\PSoC4/SwSPI_Master.c **** *  CS must be in active(low) state.
 178:Generated_Source\PSoC4/SwSPI_Master.c **** *
 179:Generated_Source\PSoC4/SwSPI_Master.c **** * Return:
 180:Generated_Source\PSoC4/SwSPI_Master.c **** *  Recieved byte.
 181:Generated_Source\PSoC4/SwSPI_Master.c **** *
 182:Generated_Source\PSoC4/SwSPI_Master.c **** *******************************************************************************/
 183:Generated_Source\PSoC4/SwSPI_Master.c **** 
 184:Generated_Source\PSoC4/SwSPI_Master.c **** uint8 SwSPI_Master_RecvByte(void) 
 185:Generated_Source\PSoC4/SwSPI_Master.c **** {
 294              		.loc 1 185 0
 295              		.cfi_startproc
 296 0000 80B5     		push	{r7, lr}
 297              		.cfi_def_cfa_offset 8
 298              		.cfi_offset 7, -8
 299              		.cfi_offset 14, -4
 300 0002 84B0     		sub	sp, sp, #16
 301              		.cfi_def_cfa_offset 24
 302 0004 00AF     		add	r7, sp, #0
 303              		.cfi_def_cfa_register 7
 186:Generated_Source\PSoC4/SwSPI_Master.c ****     uint32_t countBites;
 187:Generated_Source\PSoC4/SwSPI_Master.c ****     uint32_t tmpBuff = 0;
 304              		.loc 1 187 0
 305 0006 0023     		mov	r3, #0
 306 0008 BB60     		str	r3, [r7, #8]
 188:Generated_Source\PSoC4/SwSPI_Master.c ****     uint8 tmpPin;
 189:Generated_Source\PSoC4/SwSPI_Master.c ****     for (countBites = BITES_ON_ONE_BYTE; countBites > 0; countBites--)
 307              		.loc 1 189 0
 308 000a 0823     		mov	r3, #8
 309 000c FB60     		str	r3, [r7, #12]
 310 000e 2CE0     		b	.L17
 311              	.L19:
 190:Generated_Source\PSoC4/SwSPI_Master.c ****     {
 191:Generated_Source\PSoC4/SwSPI_Master.c ****         SwSPI_Master_MOSI_DR_REG |= SwSPI_Master_MOSI;
 312              		.loc 1 191 0
 313 0010 1F4B     		ldr	r3, .L21
 314 0012 1F4A     		ldr	r2, .L21
 315 0014 1268     		ldr	r2, [r2]
 316 0016 0421     		mov	r1, #4
 317 0018 0A43     		orr	r2, r1
 318 001a 1A60     		str	r2, [r3]
ARM GAS  C:\Users\Petro\AppData\Local\Temp\ccOzssx9.s 			page 10


 192:Generated_Source\PSoC4/SwSPI_Master.c ****         SwSPI_Master_SCK_DR_REG |= SwSPI_Master_CLK;
 319              		.loc 1 192 0
 320 001c 1C4B     		ldr	r3, .L21
 321 001e 1C4A     		ldr	r2, .L21
 322 0020 1268     		ldr	r2, [r2]
 323 0022 0221     		mov	r1, #2
 324 0024 0A43     		orr	r2, r1
 325 0026 1A60     		str	r2, [r3]
 193:Generated_Source\PSoC4/SwSPI_Master.c ****         tmpPin = (uint8)((SwSPI_Master_MISO_PS_REG & SwSPI_Master_MISO_MASK) >> SwSPI_Master_MISO_S
 326              		.loc 1 193 0
 327 0028 1A4B     		ldr	r3, .L21+4
 328 002a 1B68     		ldr	r3, [r3]
 329 002c 0822     		mov	r2, #8
 330 002e 1340     		and	r3, r2
 331 0030 DA08     		lsr	r2, r3, #3
 332 0032 FB1D     		add	r3, r7, #7
 333 0034 1A70     		strb	r2, [r3]
 194:Generated_Source\PSoC4/SwSPI_Master.c ****         if (tmpPin == 1u)
 334              		.loc 1 194 0
 335 0036 FB1D     		add	r3, r7, #7
 336 0038 1B78     		ldrb	r3, [r3]
 337 003a 012B     		cmp	r3, #1
 338 003c 03D1     		bne	.L18
 195:Generated_Source\PSoC4/SwSPI_Master.c ****         {
 196:Generated_Source\PSoC4/SwSPI_Master.c ****             tmpBuff |= MASK_LOW_BIT;
 339              		.loc 1 196 0
 340 003e BB68     		ldr	r3, [r7, #8]
 341 0040 0122     		mov	r2, #1
 342 0042 1343     		orr	r3, r2
 343 0044 BB60     		str	r3, [r7, #8]
 344              	.L18:
 197:Generated_Source\PSoC4/SwSPI_Master.c ****         }
 198:Generated_Source\PSoC4/SwSPI_Master.c ****         CyDelayCycles(DELAY_HIGH_STATE);
 345              		.loc 1 198 0 discriminator 2
 346 0046 1420     		mov	r0, #20
 347 0048 FFF7FEFF 		bl	CyDelayCycles
 199:Generated_Source\PSoC4/SwSPI_Master.c ****         
 200:Generated_Source\PSoC4/SwSPI_Master.c ****         SwSPI_Master_SCK_DR_REG &= ((uint8)(~SwSPI_Master_CLK));
 348              		.loc 1 200 0 discriminator 2
 349 004c 104B     		ldr	r3, .L21
 350 004e 104A     		ldr	r2, .L21
 351 0050 1268     		ldr	r2, [r2]
 352 0052 FD21     		mov	r1, #253
 353 0054 0A40     		and	r2, r1
 354 0056 1A60     		str	r2, [r3]
 201:Generated_Source\PSoC4/SwSPI_Master.c ****         
 202:Generated_Source\PSoC4/SwSPI_Master.c ****         CyDelayCycles(DELAY_LOW_STATE);
 355              		.loc 1 202 0 discriminator 2
 356 0058 1420     		mov	r0, #20
 357 005a FFF7FEFF 		bl	CyDelayCycles
 203:Generated_Source\PSoC4/SwSPI_Master.c ****         
 204:Generated_Source\PSoC4/SwSPI_Master.c ****         tmpBuff <<= SHIFT_ONE_BIT;
 358              		.loc 1 204 0 discriminator 2
 359 005e BB68     		ldr	r3, [r7, #8]
 360 0060 5B00     		lsl	r3, r3, #1
 361 0062 BB60     		str	r3, [r7, #8]
 189:Generated_Source\PSoC4/SwSPI_Master.c ****     {
ARM GAS  C:\Users\Petro\AppData\Local\Temp\ccOzssx9.s 			page 11


 362              		.loc 1 189 0 discriminator 2
 363 0064 FB68     		ldr	r3, [r7, #12]
 364 0066 013B     		sub	r3, r3, #1
 365 0068 FB60     		str	r3, [r7, #12]
 366              	.L17:
 189:Generated_Source\PSoC4/SwSPI_Master.c ****     {
 367              		.loc 1 189 0 is_stmt 0 discriminator 1
 368 006a FB68     		ldr	r3, [r7, #12]
 369 006c 002B     		cmp	r3, #0
 370 006e CFD1     		bne	.L19
 205:Generated_Source\PSoC4/SwSPI_Master.c ****     }
 206:Generated_Source\PSoC4/SwSPI_Master.c ****     tmpBuff >>= SHIFT_ONE_BIT;
 371              		.loc 1 206 0 is_stmt 1
 372 0070 BB68     		ldr	r3, [r7, #8]
 373 0072 5B08     		lsr	r3, r3, #1
 374 0074 BB60     		str	r3, [r7, #8]
 207:Generated_Source\PSoC4/SwSPI_Master.c ****     
 208:Generated_Source\PSoC4/SwSPI_Master.c ****     SwSPI_Master_MOSI_DR_REG &= ((uint8)(~SwSPI_Master_MOSI));
 375              		.loc 1 208 0
 376 0076 064B     		ldr	r3, .L21
 377 0078 054A     		ldr	r2, .L21
 378 007a 1268     		ldr	r2, [r2]
 379 007c FB21     		mov	r1, #251
 380 007e 0A40     		and	r2, r1
 381 0080 1A60     		str	r2, [r3]
 209:Generated_Source\PSoC4/SwSPI_Master.c ****     
 210:Generated_Source\PSoC4/SwSPI_Master.c ****     return (uint8_t)tmpBuff;
 382              		.loc 1 210 0
 383 0082 BB68     		ldr	r3, [r7, #8]
 384 0084 DBB2     		uxtb	r3, r3
 211:Generated_Source\PSoC4/SwSPI_Master.c **** }
 385              		.loc 1 211 0
 386 0086 181C     		mov	r0, r3
 387 0088 BD46     		mov	sp, r7
 388 008a 04B0     		add	sp, sp, #16
 389              		@ sp needed
 390 008c 80BD     		pop	{r7, pc}
 391              	.L22:
 392 008e C046     		.align	2
 393              	.L21:
 394 0090 00020440 		.word	1074004480
 395 0094 04020440 		.word	1074004484
 396              		.cfi_endproc
 397              	.LFE7:
 398              		.size	SwSPI_Master_RecvByte, .-SwSPI_Master_RecvByte
 399              		.section	.text.SwSPI_Master_RecvBuff,"ax",%progbits
 400              		.align	2
 401              		.global	SwSPI_Master_RecvBuff
 402              		.code	16
 403              		.thumb_func
 404              		.type	SwSPI_Master_RecvBuff, %function
 405              	SwSPI_Master_RecvBuff:
 406              	.LFB8:
 212:Generated_Source\PSoC4/SwSPI_Master.c **** 
 213:Generated_Source\PSoC4/SwSPI_Master.c **** /*******************************************************************************
 214:Generated_Source\PSoC4/SwSPI_Master.c **** * Function Name: SwSPI_Master_RecvBuff
 215:Generated_Source\PSoC4/SwSPI_Master.c **** ********************************************************************************
ARM GAS  C:\Users\Petro\AppData\Local\Temp\ccOzssx9.s 			page 12


 216:Generated_Source\PSoC4/SwSPI_Master.c **** *
 217:Generated_Source\PSoC4/SwSPI_Master.c **** * Summary:
 218:Generated_Source\PSoC4/SwSPI_Master.c **** *  Recieve few or more bytes via SPI.
 219:Generated_Source\PSoC4/SwSPI_Master.c **** *
 220:Generated_Source\PSoC4/SwSPI_Master.c **** * Parameters:
 221:Generated_Source\PSoC4/SwSPI_Master.c **** *  buff: Pointer to buffer who will be recieved via SPI.
 222:Generated_Source\PSoC4/SwSPI_Master.c **** *  cnt: Count bytes in buffer for recieve.
 223:Generated_Source\PSoC4/SwSPI_Master.c **** *
 224:Generated_Source\PSoC4/SwSPI_Master.c **** * Note:
 225:Generated_Source\PSoC4/SwSPI_Master.c **** *  CS must be in active(low) state.
 226:Generated_Source\PSoC4/SwSPI_Master.c **** *  Recieve no more 65535 bytes. (2^16 - 1)
 227:Generated_Source\PSoC4/SwSPI_Master.c **** *
 228:Generated_Source\PSoC4/SwSPI_Master.c **** * Return:
 229:Generated_Source\PSoC4/SwSPI_Master.c **** *  None
 230:Generated_Source\PSoC4/SwSPI_Master.c **** *
 231:Generated_Source\PSoC4/SwSPI_Master.c **** *******************************************************************************/
 232:Generated_Source\PSoC4/SwSPI_Master.c **** 
 233:Generated_Source\PSoC4/SwSPI_Master.c **** 
 234:Generated_Source\PSoC4/SwSPI_Master.c **** void SwSPI_Master_RecvBuff(uint8 *buff, uint16 cnt) 
 235:Generated_Source\PSoC4/SwSPI_Master.c **** {
 407              		.loc 1 235 0
 408              		.cfi_startproc
 409 0000 90B5     		push	{r4, r7, lr}
 410              		.cfi_def_cfa_offset 12
 411              		.cfi_offset 4, -12
 412              		.cfi_offset 7, -8
 413              		.cfi_offset 14, -4
 414 0002 85B0     		sub	sp, sp, #20
 415              		.cfi_def_cfa_offset 32
 416 0004 00AF     		add	r7, sp, #0
 417              		.cfi_def_cfa_register 7
 418 0006 7860     		str	r0, [r7, #4]
 419 0008 0A1C     		mov	r2, r1
 420 000a BB1C     		add	r3, r7, #2
 421 000c 1A80     		strh	r2, [r3]
 236:Generated_Source\PSoC4/SwSPI_Master.c ****     uint16_t tmpData;
 237:Generated_Source\PSoC4/SwSPI_Master.c ****     for (tmpData = 0; tmpData < cnt; tmpData ++)
 422              		.loc 1 237 0
 423 000e 0E23     		mov	r3, #14
 424 0010 FB18     		add	r3, r7, r3
 425 0012 0022     		mov	r2, #0
 426 0014 1A80     		strh	r2, [r3]
 427 0016 0FE0     		b	.L24
 428              	.L25:
 238:Generated_Source\PSoC4/SwSPI_Master.c ****     {
 239:Generated_Source\PSoC4/SwSPI_Master.c ****         buff[tmpData] = SwSPI_Master_RecvByte(); 
 429              		.loc 1 239 0 discriminator 3
 430 0018 0E23     		mov	r3, #14
 431 001a FB18     		add	r3, r7, r3
 432 001c 1B88     		ldrh	r3, [r3]
 433 001e 7A68     		ldr	r2, [r7, #4]
 434 0020 D418     		add	r4, r2, r3
 435 0022 FFF7FEFF 		bl	SwSPI_Master_RecvByte
 436 0026 031C     		mov	r3, r0
 437 0028 2370     		strb	r3, [r4]
 237:Generated_Source\PSoC4/SwSPI_Master.c ****     {
 438              		.loc 1 237 0 discriminator 3
ARM GAS  C:\Users\Petro\AppData\Local\Temp\ccOzssx9.s 			page 13


 439 002a 0E23     		mov	r3, #14
 440 002c FB18     		add	r3, r7, r3
 441 002e 1A88     		ldrh	r2, [r3]
 442 0030 0E23     		mov	r3, #14
 443 0032 FB18     		add	r3, r7, r3
 444 0034 0132     		add	r2, r2, #1
 445 0036 1A80     		strh	r2, [r3]
 446              	.L24:
 237:Generated_Source\PSoC4/SwSPI_Master.c ****     {
 447              		.loc 1 237 0 is_stmt 0 discriminator 1
 448 0038 0E23     		mov	r3, #14
 449 003a FA18     		add	r2, r7, r3
 450 003c BB1C     		add	r3, r7, #2
 451 003e 1288     		ldrh	r2, [r2]
 452 0040 1B88     		ldrh	r3, [r3]
 453 0042 9A42     		cmp	r2, r3
 454 0044 E8D3     		bcc	.L25
 240:Generated_Source\PSoC4/SwSPI_Master.c ****     }
 241:Generated_Source\PSoC4/SwSPI_Master.c **** }
 455              		.loc 1 241 0 is_stmt 1
 456 0046 BD46     		mov	sp, r7
 457 0048 05B0     		add	sp, sp, #20
 458              		@ sp needed
 459 004a 90BD     		pop	{r4, r7, pc}
 460              		.cfi_endproc
 461              	.LFE8:
 462              		.size	SwSPI_Master_RecvBuff, .-SwSPI_Master_RecvBuff
 463              		.section	.text.SwSPI_Master_ReadAndWriteByte,"ax",%progbits
 464              		.align	2
 465              		.global	SwSPI_Master_ReadAndWriteByte
 466              		.code	16
 467              		.thumb_func
 468              		.type	SwSPI_Master_ReadAndWriteByte, %function
 469              	SwSPI_Master_ReadAndWriteByte:
 470              	.LFB9:
 242:Generated_Source\PSoC4/SwSPI_Master.c **** 
 243:Generated_Source\PSoC4/SwSPI_Master.c **** /*******************************************************************************
 244:Generated_Source\PSoC4/SwSPI_Master.c **** * Function Name: SwSPI_Master_ReadAndWriteByte
 245:Generated_Source\PSoC4/SwSPI_Master.c **** ********************************************************************************
 246:Generated_Source\PSoC4/SwSPI_Master.c **** *
 247:Generated_Source\PSoC4/SwSPI_Master.c **** * Summary:
 248:Generated_Source\PSoC4/SwSPI_Master.c **** *  Recieve and Transmitt one bytes via SPI in 8 CLK Periods.
 249:Generated_Source\PSoC4/SwSPI_Master.c **** *  (One SPI Perios).
 250:Generated_Source\PSoC4/SwSPI_Master.c **** *
 251:Generated_Source\PSoC4/SwSPI_Master.c **** * Parameters:
 252:Generated_Source\PSoC4/SwSPI_Master.c **** *  byte: Byte who will be transmitted via SPI.
 253:Generated_Source\PSoC4/SwSPI_Master.c **** *
 254:Generated_Source\PSoC4/SwSPI_Master.c **** * Note:
 255:Generated_Source\PSoC4/SwSPI_Master.c **** *  CS must be in active(low) state.
 256:Generated_Source\PSoC4/SwSPI_Master.c **** *
 257:Generated_Source\PSoC4/SwSPI_Master.c **** * Return:
 258:Generated_Source\PSoC4/SwSPI_Master.c **** *  Byte who will be recieved via SPI.
 259:Generated_Source\PSoC4/SwSPI_Master.c **** *
 260:Generated_Source\PSoC4/SwSPI_Master.c **** *******************************************************************************/
 261:Generated_Source\PSoC4/SwSPI_Master.c **** 
 262:Generated_Source\PSoC4/SwSPI_Master.c **** 
 263:Generated_Source\PSoC4/SwSPI_Master.c **** uint8 SwSPI_Master_ReadAndWriteByte(uint8 byte)
ARM GAS  C:\Users\Petro\AppData\Local\Temp\ccOzssx9.s 			page 14


 264:Generated_Source\PSoC4/SwSPI_Master.c **** {
 471              		.loc 1 264 0
 472              		.cfi_startproc
 473 0000 80B5     		push	{r7, lr}
 474              		.cfi_def_cfa_offset 8
 475              		.cfi_offset 7, -8
 476              		.cfi_offset 14, -4
 477 0002 86B0     		sub	sp, sp, #24
 478              		.cfi_def_cfa_offset 32
 479 0004 00AF     		add	r7, sp, #0
 480              		.cfi_def_cfa_register 7
 481 0006 021C     		mov	r2, r0
 482 0008 FB1D     		add	r3, r7, #7
 483 000a 1A70     		strb	r2, [r3]
 265:Generated_Source\PSoC4/SwSPI_Master.c ****     uint8 countBites;
 266:Generated_Source\PSoC4/SwSPI_Master.c ****     uint32_t tmpBuff = 0;
 484              		.loc 1 266 0
 485 000c 0023     		mov	r3, #0
 486 000e 3B61     		str	r3, [r7, #16]
 267:Generated_Source\PSoC4/SwSPI_Master.c ****     uint8 tmpPin;
 268:Generated_Source\PSoC4/SwSPI_Master.c ****     for (countBites = BITES_ON_ONE_BYTE; countBites > 0; countBites--)
 487              		.loc 1 268 0
 488 0010 1723     		mov	r3, #23
 489 0012 FB18     		add	r3, r7, r3
 490 0014 0822     		mov	r2, #8
 491 0016 1A70     		strb	r2, [r3]
 492 0018 43E0     		b	.L27
 493              	.L31:
 269:Generated_Source\PSoC4/SwSPI_Master.c ****     {
 270:Generated_Source\PSoC4/SwSPI_Master.c ****     
 271:Generated_Source\PSoC4/SwSPI_Master.c ****         if (byte & MASK_HIGH_BIT)
 494              		.loc 1 271 0
 495 001a FB1D     		add	r3, r7, #7
 496 001c 1B78     		ldrb	r3, [r3]
 497 001e 5BB2     		sxtb	r3, r3
 498 0020 002B     		cmp	r3, #0
 499 0022 06DA     		bge	.L28
 272:Generated_Source\PSoC4/SwSPI_Master.c ****         {
 273:Generated_Source\PSoC4/SwSPI_Master.c ****             SwSPI_Master_MOSI_DR_REG |= SwSPI_Master_MOSI;
 500              		.loc 1 273 0
 501 0024 264B     		ldr	r3, .L33
 502 0026 264A     		ldr	r2, .L33
 503 0028 1268     		ldr	r2, [r2]
 504 002a 0421     		mov	r1, #4
 505 002c 0A43     		orr	r2, r1
 506 002e 1A60     		str	r2, [r3]
 507 0030 05E0     		b	.L29
 508              	.L28:
 274:Generated_Source\PSoC4/SwSPI_Master.c ****         }
 275:Generated_Source\PSoC4/SwSPI_Master.c ****         else
 276:Generated_Source\PSoC4/SwSPI_Master.c ****         {
 277:Generated_Source\PSoC4/SwSPI_Master.c ****             SwSPI_Master_MOSI_DR_REG &= ((uint8)(~SwSPI_Master_MOSI));
 509              		.loc 1 277 0
 510 0032 234B     		ldr	r3, .L33
 511 0034 224A     		ldr	r2, .L33
 512 0036 1268     		ldr	r2, [r2]
 513 0038 FB21     		mov	r1, #251
ARM GAS  C:\Users\Petro\AppData\Local\Temp\ccOzssx9.s 			page 15


 514 003a 0A40     		and	r2, r1
 515 003c 1A60     		str	r2, [r3]
 516              	.L29:
 278:Generated_Source\PSoC4/SwSPI_Master.c ****         }
 279:Generated_Source\PSoC4/SwSPI_Master.c ****         
 280:Generated_Source\PSoC4/SwSPI_Master.c ****         SwSPI_Master_SCK_DR_REG |= SwSPI_Master_CLK;
 517              		.loc 1 280 0
 518 003e 204B     		ldr	r3, .L33
 519 0040 1F4A     		ldr	r2, .L33
 520 0042 1268     		ldr	r2, [r2]
 521 0044 0221     		mov	r1, #2
 522 0046 0A43     		orr	r2, r1
 523 0048 1A60     		str	r2, [r3]
 281:Generated_Source\PSoC4/SwSPI_Master.c ****         
 282:Generated_Source\PSoC4/SwSPI_Master.c ****         tmpPin = (uint8)((SwSPI_Master_MISO_PS_REG & SwSPI_Master_MISO_MASK) >> SwSPI_Master_MISO_S
 524              		.loc 1 282 0
 525 004a 1E4B     		ldr	r3, .L33+4
 526 004c 1B68     		ldr	r3, [r3]
 527 004e 0822     		mov	r2, #8
 528 0050 1340     		and	r3, r2
 529 0052 DA08     		lsr	r2, r3, #3
 530 0054 0F23     		mov	r3, #15
 531 0056 FB18     		add	r3, r7, r3
 532 0058 1A70     		strb	r2, [r3]
 283:Generated_Source\PSoC4/SwSPI_Master.c ****         if (tmpPin == 1u)
 533              		.loc 1 283 0
 534 005a 0F23     		mov	r3, #15
 535 005c FB18     		add	r3, r7, r3
 536 005e 1B78     		ldrb	r3, [r3]
 537 0060 012B     		cmp	r3, #1
 538 0062 03D1     		bne	.L30
 284:Generated_Source\PSoC4/SwSPI_Master.c ****         {
 285:Generated_Source\PSoC4/SwSPI_Master.c ****             tmpBuff |= MASK_LOW_BIT;
 539              		.loc 1 285 0
 540 0064 3B69     		ldr	r3, [r7, #16]
 541 0066 0122     		mov	r2, #1
 542 0068 1343     		orr	r3, r2
 543 006a 3B61     		str	r3, [r7, #16]
 544              	.L30:
 286:Generated_Source\PSoC4/SwSPI_Master.c ****         }
 287:Generated_Source\PSoC4/SwSPI_Master.c ****         
 288:Generated_Source\PSoC4/SwSPI_Master.c ****         CyDelayCycles(DELAY_HIGH_STATE);
 545              		.loc 1 288 0 discriminator 2
 546 006c 1420     		mov	r0, #20
 547 006e FFF7FEFF 		bl	CyDelayCycles
 289:Generated_Source\PSoC4/SwSPI_Master.c ****         
 290:Generated_Source\PSoC4/SwSPI_Master.c ****          SwSPI_Master_SCK_DR_REG &= ((uint8)(~SwSPI_Master_CLK));
 548              		.loc 1 290 0 discriminator 2
 549 0072 134B     		ldr	r3, .L33
 550 0074 124A     		ldr	r2, .L33
 551 0076 1268     		ldr	r2, [r2]
 552 0078 FD21     		mov	r1, #253
 553 007a 0A40     		and	r2, r1
 554 007c 1A60     		str	r2, [r3]
 291:Generated_Source\PSoC4/SwSPI_Master.c ****         byte <<=  SHIFT_ONE_BIT;
 555              		.loc 1 291 0 discriminator 2
 556 007e FA1D     		add	r2, r7, #7
ARM GAS  C:\Users\Petro\AppData\Local\Temp\ccOzssx9.s 			page 16


 557 0080 FB1D     		add	r3, r7, #7
 558 0082 1B78     		ldrb	r3, [r3]
 559 0084 DB18     		add	r3, r3, r3
 560 0086 1370     		strb	r3, [r2]
 292:Generated_Source\PSoC4/SwSPI_Master.c ****         tmpBuff <<= SHIFT_ONE_BIT;
 561              		.loc 1 292 0 discriminator 2
 562 0088 3B69     		ldr	r3, [r7, #16]
 563 008a 5B00     		lsl	r3, r3, #1
 564 008c 3B61     		str	r3, [r7, #16]
 293:Generated_Source\PSoC4/SwSPI_Master.c ****         CyDelayCycles(DELAY_LOW_STATE);        
 565              		.loc 1 293 0 discriminator 2
 566 008e 1420     		mov	r0, #20
 567 0090 FFF7FEFF 		bl	CyDelayCycles
 268:Generated_Source\PSoC4/SwSPI_Master.c ****     {
 568              		.loc 1 268 0 discriminator 2
 569 0094 1723     		mov	r3, #23
 570 0096 FB18     		add	r3, r7, r3
 571 0098 1A78     		ldrb	r2, [r3]
 572 009a 1723     		mov	r3, #23
 573 009c FB18     		add	r3, r7, r3
 574 009e 013A     		sub	r2, r2, #1
 575 00a0 1A70     		strb	r2, [r3]
 576              	.L27:
 268:Generated_Source\PSoC4/SwSPI_Master.c ****     {
 577              		.loc 1 268 0 is_stmt 0 discriminator 1
 578 00a2 1723     		mov	r3, #23
 579 00a4 FB18     		add	r3, r7, r3
 580 00a6 1B78     		ldrb	r3, [r3]
 581 00a8 002B     		cmp	r3, #0
 582 00aa B6D1     		bne	.L31
 294:Generated_Source\PSoC4/SwSPI_Master.c ****     }    
 295:Generated_Source\PSoC4/SwSPI_Master.c ****     tmpBuff >>= SHIFT_ONE_BIT;
 583              		.loc 1 295 0 is_stmt 1
 584 00ac 3B69     		ldr	r3, [r7, #16]
 585 00ae 5B08     		lsr	r3, r3, #1
 586 00b0 3B61     		str	r3, [r7, #16]
 296:Generated_Source\PSoC4/SwSPI_Master.c ****         
 297:Generated_Source\PSoC4/SwSPI_Master.c ****     return (uint8_t)tmpBuff;
 587              		.loc 1 297 0
 588 00b2 3B69     		ldr	r3, [r7, #16]
 589 00b4 DBB2     		uxtb	r3, r3
 298:Generated_Source\PSoC4/SwSPI_Master.c ****     
 299:Generated_Source\PSoC4/SwSPI_Master.c **** }    
 590              		.loc 1 299 0
 591 00b6 181C     		mov	r0, r3
 592 00b8 BD46     		mov	sp, r7
 593 00ba 06B0     		add	sp, sp, #24
 594              		@ sp needed
 595 00bc 80BD     		pop	{r7, pc}
 596              	.L34:
 597 00be C046     		.align	2
 598              	.L33:
 599 00c0 00020440 		.word	1074004480
 600 00c4 04020440 		.word	1074004484
 601              		.cfi_endproc
 602              	.LFE9:
 603              		.size	SwSPI_Master_ReadAndWriteByte, .-SwSPI_Master_ReadAndWriteByte
ARM GAS  C:\Users\Petro\AppData\Local\Temp\ccOzssx9.s 			page 17


 604              		.text
 605              	.Letext0:
 606              		.file 2 "c:\\program files (x86)\\cypress\\psoc creator\\4.0\\psoc creator\\import\\gnu\\arm\\4.9.
 607              		.file 3 "c:\\program files (x86)\\cypress\\psoc creator\\4.0\\psoc creator\\import\\gnu\\arm\\4.9.
 608              		.file 4 "Generated_Source\\PSoC4\\cytypes.h"