ARM GAS  C:\Users\Petro\AppData\Local\Temp\ccvCLs00.s 			page 1


   1              		.cpu cortex-m0
   2              		.fpu softvfp
   3              		.eabi_attribute 20, 1
   4              		.eabi_attribute 21, 1
   5              		.eabi_attribute 23, 3
   6              		.eabi_attribute 24, 1
   7              		.eabi_attribute 25, 1
   8              		.eabi_attribute 26, 1
   9              		.eabi_attribute 30, 6
  10              		.eabi_attribute 34, 0
  11              		.eabi_attribute 18, 4
  12              		.code	16
  13              		.file	"SwSPI_Master_SPI.c"
  14              		.text
  15              	.Ltext0:
  16              		.cfi_sections	.debug_frame
  17              		.section	.text.SwSPI_Master_SPI_SetDriveMode,"ax",%progbits
  18              		.align	2
  19              		.global	SwSPI_Master_SPI_SetDriveMode
  20              		.code	16
  21              		.thumb_func
  22              		.type	SwSPI_Master_SPI_SetDriveMode, %function
  23              	SwSPI_Master_SPI_SetDriveMode:
  24              	.LFB0:
  25              		.file 1 "Generated_Source\\PSoC4\\SwSPI_Master_SPI.c"
   1:Generated_Source\PSoC4/SwSPI_Master_SPI.c **** /*******************************************************************************
   2:Generated_Source\PSoC4/SwSPI_Master_SPI.c **** * File Name: SwSPI_Master_SPI.c  
   3:Generated_Source\PSoC4/SwSPI_Master_SPI.c **** * Version 2.20
   4:Generated_Source\PSoC4/SwSPI_Master_SPI.c **** *
   5:Generated_Source\PSoC4/SwSPI_Master_SPI.c **** * Description:
   6:Generated_Source\PSoC4/SwSPI_Master_SPI.c **** *  This file contains API to enable firmware control of a Pins component.
   7:Generated_Source\PSoC4/SwSPI_Master_SPI.c **** *
   8:Generated_Source\PSoC4/SwSPI_Master_SPI.c **** ********************************************************************************
   9:Generated_Source\PSoC4/SwSPI_Master_SPI.c **** * Copyright 2008-2015, Cypress Semiconductor Corporation.  All rights reserved.
  10:Generated_Source\PSoC4/SwSPI_Master_SPI.c **** * You may use this file only in accordance with the license, terms, conditions, 
  11:Generated_Source\PSoC4/SwSPI_Master_SPI.c **** * disclaimers, and limitations in the end user license agreement accompanying 
  12:Generated_Source\PSoC4/SwSPI_Master_SPI.c **** * the software package with which this file was provided.
  13:Generated_Source\PSoC4/SwSPI_Master_SPI.c **** *******************************************************************************/
  14:Generated_Source\PSoC4/SwSPI_Master_SPI.c **** 
  15:Generated_Source\PSoC4/SwSPI_Master_SPI.c **** #include "cytypes.h"
  16:Generated_Source\PSoC4/SwSPI_Master_SPI.c **** #include "SwSPI_Master_SPI.h"
  17:Generated_Source\PSoC4/SwSPI_Master_SPI.c **** 
  18:Generated_Source\PSoC4/SwSPI_Master_SPI.c **** 
  19:Generated_Source\PSoC4/SwSPI_Master_SPI.c **** #if defined(SwSPI_Master_SPI__PC)
  20:Generated_Source\PSoC4/SwSPI_Master_SPI.c ****     #define SwSPI_Master_SPI_SetP4PinDriveMode(shift, mode)  \
  21:Generated_Source\PSoC4/SwSPI_Master_SPI.c ****     do { \
  22:Generated_Source\PSoC4/SwSPI_Master_SPI.c ****         SwSPI_Master_SPI_PC =   (SwSPI_Master_SPI_PC & \
  23:Generated_Source\PSoC4/SwSPI_Master_SPI.c ****                                 (uint32)(~(uint32)(SwSPI_Master_SPI_DRIVE_MODE_IND_MASK << \
  24:Generated_Source\PSoC4/SwSPI_Master_SPI.c ****                                 (SwSPI_Master_SPI_DRIVE_MODE_BITS * (shift))))) | \
  25:Generated_Source\PSoC4/SwSPI_Master_SPI.c ****                                 (uint32)((uint32)(mode) << \
  26:Generated_Source\PSoC4/SwSPI_Master_SPI.c ****                                 (SwSPI_Master_SPI_DRIVE_MODE_BITS * (shift))); \
  27:Generated_Source\PSoC4/SwSPI_Master_SPI.c ****     } while (0)
  28:Generated_Source\PSoC4/SwSPI_Master_SPI.c **** #else
  29:Generated_Source\PSoC4/SwSPI_Master_SPI.c ****     #if (CY_PSOC4_4200L)
  30:Generated_Source\PSoC4/SwSPI_Master_SPI.c ****         #define SwSPI_Master_SPI_SetP4PinDriveMode(shift, mode)  \
  31:Generated_Source\PSoC4/SwSPI_Master_SPI.c ****         do { \
  32:Generated_Source\PSoC4/SwSPI_Master_SPI.c ****             SwSPI_Master_SPI_USBIO_CTRL_REG = (SwSPI_Master_SPI_USBIO_CTRL_REG & \
ARM GAS  C:\Users\Petro\AppData\Local\Temp\ccvCLs00.s 			page 2


  33:Generated_Source\PSoC4/SwSPI_Master_SPI.c ****                                     (uint32)(~(uint32)(SwSPI_Master_SPI_DRIVE_MODE_IND_MASK << \
  34:Generated_Source\PSoC4/SwSPI_Master_SPI.c ****                                     (SwSPI_Master_SPI_DRIVE_MODE_BITS * (shift))))) | \
  35:Generated_Source\PSoC4/SwSPI_Master_SPI.c ****                                     (uint32)((uint32)(mode) << \
  36:Generated_Source\PSoC4/SwSPI_Master_SPI.c ****                                     (SwSPI_Master_SPI_DRIVE_MODE_BITS * (shift))); \
  37:Generated_Source\PSoC4/SwSPI_Master_SPI.c ****         } while (0)
  38:Generated_Source\PSoC4/SwSPI_Master_SPI.c ****     #endif
  39:Generated_Source\PSoC4/SwSPI_Master_SPI.c **** #endif
  40:Generated_Source\PSoC4/SwSPI_Master_SPI.c ****   
  41:Generated_Source\PSoC4/SwSPI_Master_SPI.c **** 
  42:Generated_Source\PSoC4/SwSPI_Master_SPI.c **** #if defined(SwSPI_Master_SPI__PC) || (CY_PSOC4_4200L) 
  43:Generated_Source\PSoC4/SwSPI_Master_SPI.c ****     /*******************************************************************************
  44:Generated_Source\PSoC4/SwSPI_Master_SPI.c ****     * Function Name: SwSPI_Master_SPI_SetDriveMode
  45:Generated_Source\PSoC4/SwSPI_Master_SPI.c ****     ****************************************************************************//**
  46:Generated_Source\PSoC4/SwSPI_Master_SPI.c ****     *
  47:Generated_Source\PSoC4/SwSPI_Master_SPI.c ****     * \brief Sets the drive mode for each of the Pins component's pins.
  48:Generated_Source\PSoC4/SwSPI_Master_SPI.c ****     * 
  49:Generated_Source\PSoC4/SwSPI_Master_SPI.c ****     * <b>Note</b> This affects all pins in the Pins component instance. Use the
  50:Generated_Source\PSoC4/SwSPI_Master_SPI.c ****     * Per-Pin APIs if you wish to control individual pin's drive modes.
  51:Generated_Source\PSoC4/SwSPI_Master_SPI.c ****     *
  52:Generated_Source\PSoC4/SwSPI_Master_SPI.c ****     * <b>Note</b> USBIOs have limited drive functionality. Refer to the Drive Mode
  53:Generated_Source\PSoC4/SwSPI_Master_SPI.c ****     * parameter for more information.
  54:Generated_Source\PSoC4/SwSPI_Master_SPI.c ****     *
  55:Generated_Source\PSoC4/SwSPI_Master_SPI.c ****     * \param mode
  56:Generated_Source\PSoC4/SwSPI_Master_SPI.c ****     *  Mode for the selected signals. Valid options are documented in 
  57:Generated_Source\PSoC4/SwSPI_Master_SPI.c ****     *  \ref driveMode.
  58:Generated_Source\PSoC4/SwSPI_Master_SPI.c ****     *
  59:Generated_Source\PSoC4/SwSPI_Master_SPI.c ****     * \return
  60:Generated_Source\PSoC4/SwSPI_Master_SPI.c ****     *  None
  61:Generated_Source\PSoC4/SwSPI_Master_SPI.c ****     *
  62:Generated_Source\PSoC4/SwSPI_Master_SPI.c ****     * \sideeffect
  63:Generated_Source\PSoC4/SwSPI_Master_SPI.c ****     *  If you use read-modify-write operations that are not atomic, the ISR can
  64:Generated_Source\PSoC4/SwSPI_Master_SPI.c ****     *  cause corruption of this function. An ISR that interrupts this function 
  65:Generated_Source\PSoC4/SwSPI_Master_SPI.c ****     *  and performs writes to the Pins component Drive Mode registers can cause 
  66:Generated_Source\PSoC4/SwSPI_Master_SPI.c ****     *  corrupted port data. To avoid this issue, you should either use the Per-Pin
  67:Generated_Source\PSoC4/SwSPI_Master_SPI.c ****     *  APIs (primary method) or disable interrupts around this function.
  68:Generated_Source\PSoC4/SwSPI_Master_SPI.c ****     *
  69:Generated_Source\PSoC4/SwSPI_Master_SPI.c ****     * \funcusage
  70:Generated_Source\PSoC4/SwSPI_Master_SPI.c ****     *  \snippet SwSPI_Master_SPI_SUT.c usage_SwSPI_Master_SPI_SetDriveMode
  71:Generated_Source\PSoC4/SwSPI_Master_SPI.c ****     *******************************************************************************/
  72:Generated_Source\PSoC4/SwSPI_Master_SPI.c ****     void SwSPI_Master_SPI_SetDriveMode(uint8 mode)
  73:Generated_Source\PSoC4/SwSPI_Master_SPI.c ****     {
  26              		.loc 1 73 0
  27              		.cfi_startproc
  28 0000 80B5     		push	{r7, lr}
  29              		.cfi_def_cfa_offset 8
  30              		.cfi_offset 7, -8
  31              		.cfi_offset 14, -4
  32 0002 82B0     		sub	sp, sp, #8
  33              		.cfi_def_cfa_offset 16
  34 0004 00AF     		add	r7, sp, #0
  35              		.cfi_def_cfa_register 7
  36 0006 021C     		mov	r2, r0
  37 0008 FB1D     		add	r3, r7, #7
  38 000a 1A70     		strb	r2, [r3]
  74:Generated_Source\PSoC4/SwSPI_Master_SPI.c **** 		SwSPI_Master_SPI_SetP4PinDriveMode(SwSPI_Master_SPI__0__SHIFT, mode);
  39              		.loc 1 74 0
  40 000c 104B     		ldr	r3, .L2
ARM GAS  C:\Users\Petro\AppData\Local\Temp\ccvCLs00.s 			page 3


  41 000e 104A     		ldr	r2, .L2
  42 0010 1268     		ldr	r2, [r2]
  43 0012 0721     		mov	r1, #7
  44 0014 8A43     		bic	r2, r1
  45 0016 111C     		mov	r1, r2
  46 0018 FA1D     		add	r2, r7, #7
  47 001a 1278     		ldrb	r2, [r2]
  48 001c 0A43     		orr	r2, r1
  49 001e 1A60     		str	r2, [r3]
  75:Generated_Source\PSoC4/SwSPI_Master_SPI.c **** 		SwSPI_Master_SPI_SetP4PinDriveMode(SwSPI_Master_SPI__1__SHIFT, mode);
  50              		.loc 1 75 0
  51 0020 0B4B     		ldr	r3, .L2
  52 0022 0B4A     		ldr	r2, .L2
  53 0024 1268     		ldr	r2, [r2]
  54 0026 3821     		mov	r1, #56
  55 0028 8A43     		bic	r2, r1
  56 002a 111C     		mov	r1, r2
  57 002c FA1D     		add	r2, r7, #7
  58 002e 1278     		ldrb	r2, [r2]
  59 0030 D200     		lsl	r2, r2, #3
  60 0032 0A43     		orr	r2, r1
  61 0034 1A60     		str	r2, [r3]
  76:Generated_Source\PSoC4/SwSPI_Master_SPI.c **** 		SwSPI_Master_SPI_SetP4PinDriveMode(SwSPI_Master_SPI__2__SHIFT, mode);
  62              		.loc 1 76 0
  63 0036 064B     		ldr	r3, .L2
  64 0038 054A     		ldr	r2, .L2
  65 003a 1268     		ldr	r2, [r2]
  66 003c 0549     		ldr	r1, .L2+4
  67 003e 1140     		and	r1, r2
  68 0040 FA1D     		add	r2, r7, #7
  69 0042 1278     		ldrb	r2, [r2]
  70 0044 9201     		lsl	r2, r2, #6
  71 0046 0A43     		orr	r2, r1
  72 0048 1A60     		str	r2, [r3]
  77:Generated_Source\PSoC4/SwSPI_Master_SPI.c ****     }
  73              		.loc 1 77 0
  74 004a BD46     		mov	sp, r7
  75 004c 02B0     		add	sp, sp, #8
  76              		@ sp needed
  77 004e 80BD     		pop	{r7, pc}
  78              	.L3:
  79              		.align	2
  80              	.L2:
  81 0050 08020440 		.word	1074004488
  82 0054 3FFEFFFF 		.word	-449
  83              		.cfi_endproc
  84              	.LFE0:
  85              		.size	SwSPI_Master_SPI_SetDriveMode, .-SwSPI_Master_SPI_SetDriveMode
  86              		.section	.text.SwSPI_Master_SPI_Write,"ax",%progbits
  87              		.align	2
  88              		.global	SwSPI_Master_SPI_Write
  89              		.code	16
  90              		.thumb_func
  91              		.type	SwSPI_Master_SPI_Write, %function
  92              	SwSPI_Master_SPI_Write:
  93              	.LFB1:
  78:Generated_Source\PSoC4/SwSPI_Master_SPI.c **** #endif
ARM GAS  C:\Users\Petro\AppData\Local\Temp\ccvCLs00.s 			page 4


  79:Generated_Source\PSoC4/SwSPI_Master_SPI.c **** 
  80:Generated_Source\PSoC4/SwSPI_Master_SPI.c **** 
  81:Generated_Source\PSoC4/SwSPI_Master_SPI.c **** /*******************************************************************************
  82:Generated_Source\PSoC4/SwSPI_Master_SPI.c **** * Function Name: SwSPI_Master_SPI_Write
  83:Generated_Source\PSoC4/SwSPI_Master_SPI.c **** ****************************************************************************//**
  84:Generated_Source\PSoC4/SwSPI_Master_SPI.c **** *
  85:Generated_Source\PSoC4/SwSPI_Master_SPI.c **** * \brief Writes the value to the physical port (data output register), masking
  86:Generated_Source\PSoC4/SwSPI_Master_SPI.c **** *  and shifting the bits appropriately. 
  87:Generated_Source\PSoC4/SwSPI_Master_SPI.c **** *
  88:Generated_Source\PSoC4/SwSPI_Master_SPI.c **** * The data output register controls the signal applied to the physical pin in 
  89:Generated_Source\PSoC4/SwSPI_Master_SPI.c **** * conjunction with the drive mode parameter. This function avoids changing 
  90:Generated_Source\PSoC4/SwSPI_Master_SPI.c **** * other bits in the port by using the appropriate method (read-modify-write or
  91:Generated_Source\PSoC4/SwSPI_Master_SPI.c **** * bit banding).
  92:Generated_Source\PSoC4/SwSPI_Master_SPI.c **** *
  93:Generated_Source\PSoC4/SwSPI_Master_SPI.c **** * <b>Note</b> This function should not be used on a hardware digital output pin 
  94:Generated_Source\PSoC4/SwSPI_Master_SPI.c **** * as it is driven by the hardware signal attached to it.
  95:Generated_Source\PSoC4/SwSPI_Master_SPI.c **** *
  96:Generated_Source\PSoC4/SwSPI_Master_SPI.c **** * \param value
  97:Generated_Source\PSoC4/SwSPI_Master_SPI.c **** *  Value to write to the component instance.
  98:Generated_Source\PSoC4/SwSPI_Master_SPI.c **** *
  99:Generated_Source\PSoC4/SwSPI_Master_SPI.c **** * \return 
 100:Generated_Source\PSoC4/SwSPI_Master_SPI.c **** *  None 
 101:Generated_Source\PSoC4/SwSPI_Master_SPI.c **** *
 102:Generated_Source\PSoC4/SwSPI_Master_SPI.c **** * \sideeffect
 103:Generated_Source\PSoC4/SwSPI_Master_SPI.c **** *  If you use read-modify-write operations that are not atomic; the Interrupt 
 104:Generated_Source\PSoC4/SwSPI_Master_SPI.c **** *  Service Routines (ISR) can cause corruption of this function. An ISR that 
 105:Generated_Source\PSoC4/SwSPI_Master_SPI.c **** *  interrupts this function and performs writes to the Pins component data 
 106:Generated_Source\PSoC4/SwSPI_Master_SPI.c **** *  register can cause corrupted port data. To avoid this issue, you should 
 107:Generated_Source\PSoC4/SwSPI_Master_SPI.c **** *  either use the Per-Pin APIs (primary method) or disable interrupts around 
 108:Generated_Source\PSoC4/SwSPI_Master_SPI.c **** *  this function.
 109:Generated_Source\PSoC4/SwSPI_Master_SPI.c **** *
 110:Generated_Source\PSoC4/SwSPI_Master_SPI.c **** * \funcusage
 111:Generated_Source\PSoC4/SwSPI_Master_SPI.c **** *  \snippet SwSPI_Master_SPI_SUT.c usage_SwSPI_Master_SPI_Write
 112:Generated_Source\PSoC4/SwSPI_Master_SPI.c **** *******************************************************************************/
 113:Generated_Source\PSoC4/SwSPI_Master_SPI.c **** void SwSPI_Master_SPI_Write(uint8 value)
 114:Generated_Source\PSoC4/SwSPI_Master_SPI.c **** {
  94              		.loc 1 114 0
  95              		.cfi_startproc
  96 0000 80B5     		push	{r7, lr}
  97              		.cfi_def_cfa_offset 8
  98              		.cfi_offset 7, -8
  99              		.cfi_offset 14, -4
 100 0002 84B0     		sub	sp, sp, #16
 101              		.cfi_def_cfa_offset 24
 102 0004 00AF     		add	r7, sp, #0
 103              		.cfi_def_cfa_register 7
 104 0006 021C     		mov	r2, r0
 105 0008 FB1D     		add	r3, r7, #7
 106 000a 1A70     		strb	r2, [r3]
 115:Generated_Source\PSoC4/SwSPI_Master_SPI.c ****     uint8 drVal = (uint8)(SwSPI_Master_SPI_DR & (uint8)(~SwSPI_Master_SPI_MASK));
 107              		.loc 1 115 0
 108 000c 0D4B     		ldr	r3, .L5
 109 000e 1B68     		ldr	r3, [r3]
 110 0010 DAB2     		uxtb	r2, r3
 111 0012 0F23     		mov	r3, #15
 112 0014 FB18     		add	r3, r7, r3
 113 0016 0721     		mov	r1, #7
ARM GAS  C:\Users\Petro\AppData\Local\Temp\ccvCLs00.s 			page 5


 114 0018 8A43     		bic	r2, r1
 115 001a 1A70     		strb	r2, [r3]
 116:Generated_Source\PSoC4/SwSPI_Master_SPI.c ****     drVal = (drVal | ((uint8)(value << SwSPI_Master_SPI_SHIFT) & SwSPI_Master_SPI_MASK));
 116              		.loc 1 116 0
 117 001c FB1D     		add	r3, r7, #7
 118 001e 1B78     		ldrb	r3, [r3]
 119 0020 0722     		mov	r2, #7
 120 0022 1340     		and	r3, r2
 121 0024 D9B2     		uxtb	r1, r3
 122 0026 0F23     		mov	r3, #15
 123 0028 FB18     		add	r3, r7, r3
 124 002a 0F22     		mov	r2, #15
 125 002c BA18     		add	r2, r7, r2
 126 002e 1278     		ldrb	r2, [r2]
 127 0030 0A43     		orr	r2, r1
 128 0032 1A70     		strb	r2, [r3]
 117:Generated_Source\PSoC4/SwSPI_Master_SPI.c ****     SwSPI_Master_SPI_DR = (uint32)drVal;
 129              		.loc 1 117 0
 130 0034 034B     		ldr	r3, .L5
 131 0036 0F22     		mov	r2, #15
 132 0038 BA18     		add	r2, r7, r2
 133 003a 1278     		ldrb	r2, [r2]
 134 003c 1A60     		str	r2, [r3]
 118:Generated_Source\PSoC4/SwSPI_Master_SPI.c **** }
 135              		.loc 1 118 0
 136 003e BD46     		mov	sp, r7
 137 0040 04B0     		add	sp, sp, #16
 138              		@ sp needed
 139 0042 80BD     		pop	{r7, pc}
 140              	.L6:
 141              		.align	2
 142              	.L5:
 143 0044 00020440 		.word	1074004480
 144              		.cfi_endproc
 145              	.LFE1:
 146              		.size	SwSPI_Master_SPI_Write, .-SwSPI_Master_SPI_Write
 147              		.section	.text.SwSPI_Master_SPI_Read,"ax",%progbits
 148              		.align	2
 149              		.global	SwSPI_Master_SPI_Read
 150              		.code	16
 151              		.thumb_func
 152              		.type	SwSPI_Master_SPI_Read, %function
 153              	SwSPI_Master_SPI_Read:
 154              	.LFB2:
 119:Generated_Source\PSoC4/SwSPI_Master_SPI.c **** 
 120:Generated_Source\PSoC4/SwSPI_Master_SPI.c **** 
 121:Generated_Source\PSoC4/SwSPI_Master_SPI.c **** /*******************************************************************************
 122:Generated_Source\PSoC4/SwSPI_Master_SPI.c **** * Function Name: SwSPI_Master_SPI_Read
 123:Generated_Source\PSoC4/SwSPI_Master_SPI.c **** ****************************************************************************//**
 124:Generated_Source\PSoC4/SwSPI_Master_SPI.c **** *
 125:Generated_Source\PSoC4/SwSPI_Master_SPI.c **** * \brief Reads the associated physical port (pin status register) and masks 
 126:Generated_Source\PSoC4/SwSPI_Master_SPI.c **** *  the required bits according to the width and bit position of the component
 127:Generated_Source\PSoC4/SwSPI_Master_SPI.c **** *  instance. 
 128:Generated_Source\PSoC4/SwSPI_Master_SPI.c **** *
 129:Generated_Source\PSoC4/SwSPI_Master_SPI.c **** * The pin's status register returns the current logic level present on the 
 130:Generated_Source\PSoC4/SwSPI_Master_SPI.c **** * physical pin.
 131:Generated_Source\PSoC4/SwSPI_Master_SPI.c **** *
ARM GAS  C:\Users\Petro\AppData\Local\Temp\ccvCLs00.s 			page 6


 132:Generated_Source\PSoC4/SwSPI_Master_SPI.c **** * \return 
 133:Generated_Source\PSoC4/SwSPI_Master_SPI.c **** *  The current value for the pins in the component as a right justified number.
 134:Generated_Source\PSoC4/SwSPI_Master_SPI.c **** *
 135:Generated_Source\PSoC4/SwSPI_Master_SPI.c **** * \funcusage
 136:Generated_Source\PSoC4/SwSPI_Master_SPI.c **** *  \snippet SwSPI_Master_SPI_SUT.c usage_SwSPI_Master_SPI_Read  
 137:Generated_Source\PSoC4/SwSPI_Master_SPI.c **** *******************************************************************************/
 138:Generated_Source\PSoC4/SwSPI_Master_SPI.c **** uint8 SwSPI_Master_SPI_Read(void)
 139:Generated_Source\PSoC4/SwSPI_Master_SPI.c **** {
 155              		.loc 1 139 0
 156              		.cfi_startproc
 157 0000 80B5     		push	{r7, lr}
 158              		.cfi_def_cfa_offset 8
 159              		.cfi_offset 7, -8
 160              		.cfi_offset 14, -4
 161 0002 00AF     		add	r7, sp, #0
 162              		.cfi_def_cfa_register 7
 140:Generated_Source\PSoC4/SwSPI_Master_SPI.c ****     return (uint8)((SwSPI_Master_SPI_PS & SwSPI_Master_SPI_MASK) >> SwSPI_Master_SPI_SHIFT);
 163              		.loc 1 140 0
 164 0004 044B     		ldr	r3, .L9
 165 0006 1B68     		ldr	r3, [r3]
 166 0008 DBB2     		uxtb	r3, r3
 167 000a 0722     		mov	r2, #7
 168 000c 1340     		and	r3, r2
 169 000e DBB2     		uxtb	r3, r3
 141:Generated_Source\PSoC4/SwSPI_Master_SPI.c **** }
 170              		.loc 1 141 0
 171 0010 181C     		mov	r0, r3
 172 0012 BD46     		mov	sp, r7
 173              		@ sp needed
 174 0014 80BD     		pop	{r7, pc}
 175              	.L10:
 176 0016 C046     		.align	2
 177              	.L9:
 178 0018 04020440 		.word	1074004484
 179              		.cfi_endproc
 180              	.LFE2:
 181              		.size	SwSPI_Master_SPI_Read, .-SwSPI_Master_SPI_Read
 182              		.section	.text.SwSPI_Master_SPI_ReadDataReg,"ax",%progbits
 183              		.align	2
 184              		.global	SwSPI_Master_SPI_ReadDataReg
 185              		.code	16
 186              		.thumb_func
 187              		.type	SwSPI_Master_SPI_ReadDataReg, %function
 188              	SwSPI_Master_SPI_ReadDataReg:
 189              	.LFB3:
 142:Generated_Source\PSoC4/SwSPI_Master_SPI.c **** 
 143:Generated_Source\PSoC4/SwSPI_Master_SPI.c **** 
 144:Generated_Source\PSoC4/SwSPI_Master_SPI.c **** /*******************************************************************************
 145:Generated_Source\PSoC4/SwSPI_Master_SPI.c **** * Function Name: SwSPI_Master_SPI_ReadDataReg
 146:Generated_Source\PSoC4/SwSPI_Master_SPI.c **** ****************************************************************************//**
 147:Generated_Source\PSoC4/SwSPI_Master_SPI.c **** *
 148:Generated_Source\PSoC4/SwSPI_Master_SPI.c **** * \brief Reads the associated physical port's data output register and masks 
 149:Generated_Source\PSoC4/SwSPI_Master_SPI.c **** *  the correct bits according to the width and bit position of the component 
 150:Generated_Source\PSoC4/SwSPI_Master_SPI.c **** *  instance. 
 151:Generated_Source\PSoC4/SwSPI_Master_SPI.c **** *
 152:Generated_Source\PSoC4/SwSPI_Master_SPI.c **** * The data output register controls the signal applied to the physical pin in 
 153:Generated_Source\PSoC4/SwSPI_Master_SPI.c **** * conjunction with the drive mode parameter. This is not the same as the 
ARM GAS  C:\Users\Petro\AppData\Local\Temp\ccvCLs00.s 			page 7


 154:Generated_Source\PSoC4/SwSPI_Master_SPI.c **** * preferred SwSPI_Master_SPI_Read() API because the 
 155:Generated_Source\PSoC4/SwSPI_Master_SPI.c **** * SwSPI_Master_SPI_ReadDataReg() reads the data register instead of the status 
 156:Generated_Source\PSoC4/SwSPI_Master_SPI.c **** * register. For output pins this is a useful function to determine the value 
 157:Generated_Source\PSoC4/SwSPI_Master_SPI.c **** * just written to the pin.
 158:Generated_Source\PSoC4/SwSPI_Master_SPI.c **** *
 159:Generated_Source\PSoC4/SwSPI_Master_SPI.c **** * \return 
 160:Generated_Source\PSoC4/SwSPI_Master_SPI.c **** *  The current value of the data register masked and shifted into a right 
 161:Generated_Source\PSoC4/SwSPI_Master_SPI.c **** *  justified number for the component instance.
 162:Generated_Source\PSoC4/SwSPI_Master_SPI.c **** *
 163:Generated_Source\PSoC4/SwSPI_Master_SPI.c **** * \funcusage
 164:Generated_Source\PSoC4/SwSPI_Master_SPI.c **** *  \snippet SwSPI_Master_SPI_SUT.c usage_SwSPI_Master_SPI_ReadDataReg 
 165:Generated_Source\PSoC4/SwSPI_Master_SPI.c **** *******************************************************************************/
 166:Generated_Source\PSoC4/SwSPI_Master_SPI.c **** uint8 SwSPI_Master_SPI_ReadDataReg(void)
 167:Generated_Source\PSoC4/SwSPI_Master_SPI.c **** {
 190              		.loc 1 167 0
 191              		.cfi_startproc
 192 0000 80B5     		push	{r7, lr}
 193              		.cfi_def_cfa_offset 8
 194              		.cfi_offset 7, -8
 195              		.cfi_offset 14, -4
 196 0002 00AF     		add	r7, sp, #0
 197              		.cfi_def_cfa_register 7
 168:Generated_Source\PSoC4/SwSPI_Master_SPI.c ****     return (uint8)((SwSPI_Master_SPI_DR & SwSPI_Master_SPI_MASK) >> SwSPI_Master_SPI_SHIFT);
 198              		.loc 1 168 0
 199 0004 044B     		ldr	r3, .L13
 200 0006 1B68     		ldr	r3, [r3]
 201 0008 DBB2     		uxtb	r3, r3
 202 000a 0722     		mov	r2, #7
 203 000c 1340     		and	r3, r2
 204 000e DBB2     		uxtb	r3, r3
 169:Generated_Source\PSoC4/SwSPI_Master_SPI.c **** }
 205              		.loc 1 169 0
 206 0010 181C     		mov	r0, r3
 207 0012 BD46     		mov	sp, r7
 208              		@ sp needed
 209 0014 80BD     		pop	{r7, pc}
 210              	.L14:
 211 0016 C046     		.align	2
 212              	.L13:
 213 0018 00020440 		.word	1074004480
 214              		.cfi_endproc
 215              	.LFE3:
 216              		.size	SwSPI_Master_SPI_ReadDataReg, .-SwSPI_Master_SPI_ReadDataReg
 217              		.section	.text.SwSPI_Master_SPI_SetInterruptMode,"ax",%progbits
 218              		.align	2
 219              		.global	SwSPI_Master_SPI_SetInterruptMode
 220              		.code	16
 221              		.thumb_func
 222              		.type	SwSPI_Master_SPI_SetInterruptMode, %function
 223              	SwSPI_Master_SPI_SetInterruptMode:
 224              	.LFB4:
 170:Generated_Source\PSoC4/SwSPI_Master_SPI.c **** 
 171:Generated_Source\PSoC4/SwSPI_Master_SPI.c **** 
 172:Generated_Source\PSoC4/SwSPI_Master_SPI.c **** /*******************************************************************************
 173:Generated_Source\PSoC4/SwSPI_Master_SPI.c **** * Function Name: SwSPI_Master_SPI_SetInterruptMode
 174:Generated_Source\PSoC4/SwSPI_Master_SPI.c **** ****************************************************************************//**
 175:Generated_Source\PSoC4/SwSPI_Master_SPI.c **** *
ARM GAS  C:\Users\Petro\AppData\Local\Temp\ccvCLs00.s 			page 8


 176:Generated_Source\PSoC4/SwSPI_Master_SPI.c **** * \brief Configures the interrupt mode for each of the Pins component's
 177:Generated_Source\PSoC4/SwSPI_Master_SPI.c **** *  pins. Alternatively you may set the interrupt mode for all the pins
 178:Generated_Source\PSoC4/SwSPI_Master_SPI.c **** *  specified in the Pins component.
 179:Generated_Source\PSoC4/SwSPI_Master_SPI.c **** *
 180:Generated_Source\PSoC4/SwSPI_Master_SPI.c **** *  <b>Note</b> The interrupt is port-wide and therefore any enabled pin
 181:Generated_Source\PSoC4/SwSPI_Master_SPI.c **** *  interrupt may trigger it.
 182:Generated_Source\PSoC4/SwSPI_Master_SPI.c **** *
 183:Generated_Source\PSoC4/SwSPI_Master_SPI.c **** * \param position
 184:Generated_Source\PSoC4/SwSPI_Master_SPI.c **** *  The pin position as listed in the Pins component. You may OR these to be 
 185:Generated_Source\PSoC4/SwSPI_Master_SPI.c **** *  able to configure the interrupt mode of multiple pins within a Pins 
 186:Generated_Source\PSoC4/SwSPI_Master_SPI.c **** *  component. Or you may use SwSPI_Master_SPI_INTR_ALL to configure the
 187:Generated_Source\PSoC4/SwSPI_Master_SPI.c **** *  interrupt mode of all the pins in the Pins component.       
 188:Generated_Source\PSoC4/SwSPI_Master_SPI.c **** *  - SwSPI_Master_SPI_0_INTR       (First pin in the list)
 189:Generated_Source\PSoC4/SwSPI_Master_SPI.c **** *  - SwSPI_Master_SPI_1_INTR       (Second pin in the list)
 190:Generated_Source\PSoC4/SwSPI_Master_SPI.c **** *  - ...
 191:Generated_Source\PSoC4/SwSPI_Master_SPI.c **** *  - SwSPI_Master_SPI_INTR_ALL     (All pins in Pins component)
 192:Generated_Source\PSoC4/SwSPI_Master_SPI.c **** *
 193:Generated_Source\PSoC4/SwSPI_Master_SPI.c **** * \param mode
 194:Generated_Source\PSoC4/SwSPI_Master_SPI.c **** *  Interrupt mode for the selected pins. Valid options are documented in
 195:Generated_Source\PSoC4/SwSPI_Master_SPI.c **** *  \ref intrMode.
 196:Generated_Source\PSoC4/SwSPI_Master_SPI.c **** *
 197:Generated_Source\PSoC4/SwSPI_Master_SPI.c **** * \return 
 198:Generated_Source\PSoC4/SwSPI_Master_SPI.c **** *  None
 199:Generated_Source\PSoC4/SwSPI_Master_SPI.c **** *  
 200:Generated_Source\PSoC4/SwSPI_Master_SPI.c **** * \sideeffect
 201:Generated_Source\PSoC4/SwSPI_Master_SPI.c **** *  It is recommended that the interrupt be disabled before calling this 
 202:Generated_Source\PSoC4/SwSPI_Master_SPI.c **** *  function to avoid unintended interrupt requests. Note that the interrupt
 203:Generated_Source\PSoC4/SwSPI_Master_SPI.c **** *  type is port wide, and therefore will trigger for any enabled pin on the 
 204:Generated_Source\PSoC4/SwSPI_Master_SPI.c **** *  port.
 205:Generated_Source\PSoC4/SwSPI_Master_SPI.c **** *
 206:Generated_Source\PSoC4/SwSPI_Master_SPI.c **** * \funcusage
 207:Generated_Source\PSoC4/SwSPI_Master_SPI.c **** *  \snippet SwSPI_Master_SPI_SUT.c usage_SwSPI_Master_SPI_SetInterruptMode
 208:Generated_Source\PSoC4/SwSPI_Master_SPI.c **** *******************************************************************************/
 209:Generated_Source\PSoC4/SwSPI_Master_SPI.c **** void SwSPI_Master_SPI_SetInterruptMode(uint16 position, uint16 mode)
 210:Generated_Source\PSoC4/SwSPI_Master_SPI.c **** {
 225              		.loc 1 210 0
 226              		.cfi_startproc
 227 0000 80B5     		push	{r7, lr}
 228              		.cfi_def_cfa_offset 8
 229              		.cfi_offset 7, -8
 230              		.cfi_offset 14, -4
 231 0002 84B0     		sub	sp, sp, #16
 232              		.cfi_def_cfa_offset 24
 233 0004 00AF     		add	r7, sp, #0
 234              		.cfi_def_cfa_register 7
 235 0006 021C     		mov	r2, r0
 236 0008 BB1D     		add	r3, r7, #6
 237 000a 1A80     		strh	r2, [r3]
 238 000c 3B1D     		add	r3, r7, #4
 239 000e 0A1C     		add	r2, r1, #0
 240 0010 1A80     		strh	r2, [r3]
 211:Generated_Source\PSoC4/SwSPI_Master_SPI.c ****     uint32 intrCfg;
 212:Generated_Source\PSoC4/SwSPI_Master_SPI.c ****     
 213:Generated_Source\PSoC4/SwSPI_Master_SPI.c ****     intrCfg =  SwSPI_Master_SPI_INTCFG & (uint32)(~(uint32)position);
 241              		.loc 1 213 0
 242 0012 0A4B     		ldr	r3, .L16
 243 0014 1B68     		ldr	r3, [r3]
ARM GAS  C:\Users\Petro\AppData\Local\Temp\ccvCLs00.s 			page 9


 244 0016 BA1D     		add	r2, r7, #6
 245 0018 1288     		ldrh	r2, [r2]
 246 001a D243     		mvn	r2, r2
 247 001c 1340     		and	r3, r2
 248 001e FB60     		str	r3, [r7, #12]
 214:Generated_Source\PSoC4/SwSPI_Master_SPI.c ****     SwSPI_Master_SPI_INTCFG = intrCfg | ((uint32)position & (uint32)mode);
 249              		.loc 1 214 0
 250 0020 064B     		ldr	r3, .L16
 251 0022 BA1D     		add	r2, r7, #6
 252 0024 391D     		add	r1, r7, #4
 253 0026 1288     		ldrh	r2, [r2]
 254 0028 0988     		ldrh	r1, [r1]
 255 002a 0A40     		and	r2, r1
 256 002c 92B2     		uxth	r2, r2
 257 002e 111C     		mov	r1, r2
 258 0030 FA68     		ldr	r2, [r7, #12]
 259 0032 0A43     		orr	r2, r1
 260 0034 1A60     		str	r2, [r3]
 215:Generated_Source\PSoC4/SwSPI_Master_SPI.c **** }
 261              		.loc 1 215 0
 262 0036 BD46     		mov	sp, r7
 263 0038 04B0     		add	sp, sp, #16
 264              		@ sp needed
 265 003a 80BD     		pop	{r7, pc}
 266              	.L17:
 267              		.align	2
 268              	.L16:
 269 003c 0C020440 		.word	1074004492
 270              		.cfi_endproc
 271              	.LFE4:
 272              		.size	SwSPI_Master_SPI_SetInterruptMode, .-SwSPI_Master_SPI_SetInterruptMode
 273              		.section	.text.SwSPI_Master_SPI_ClearInterrupt,"ax",%progbits
 274              		.align	2
 275              		.global	SwSPI_Master_SPI_ClearInterrupt
 276              		.code	16
 277              		.thumb_func
 278              		.type	SwSPI_Master_SPI_ClearInterrupt, %function
 279              	SwSPI_Master_SPI_ClearInterrupt:
 280              	.LFB5:
 216:Generated_Source\PSoC4/SwSPI_Master_SPI.c **** 
 217:Generated_Source\PSoC4/SwSPI_Master_SPI.c **** 
 218:Generated_Source\PSoC4/SwSPI_Master_SPI.c **** /*******************************************************************************
 219:Generated_Source\PSoC4/SwSPI_Master_SPI.c **** * Function Name: SwSPI_Master_SPI_ClearInterrupt
 220:Generated_Source\PSoC4/SwSPI_Master_SPI.c **** ****************************************************************************//**
 221:Generated_Source\PSoC4/SwSPI_Master_SPI.c **** *
 222:Generated_Source\PSoC4/SwSPI_Master_SPI.c **** * \brief Clears any active interrupts attached with the component and returns 
 223:Generated_Source\PSoC4/SwSPI_Master_SPI.c **** *  the value of the interrupt status register allowing determination of which
 224:Generated_Source\PSoC4/SwSPI_Master_SPI.c **** *  pins generated an interrupt event.
 225:Generated_Source\PSoC4/SwSPI_Master_SPI.c **** *
 226:Generated_Source\PSoC4/SwSPI_Master_SPI.c **** * \return 
 227:Generated_Source\PSoC4/SwSPI_Master_SPI.c **** *  The right-shifted current value of the interrupt status register. Each pin 
 228:Generated_Source\PSoC4/SwSPI_Master_SPI.c **** *  has one bit set if it generated an interrupt event. For example, bit 0 is 
 229:Generated_Source\PSoC4/SwSPI_Master_SPI.c **** *  for pin 0 and bit 1 is for pin 1 of the Pins component.
 230:Generated_Source\PSoC4/SwSPI_Master_SPI.c **** *  
 231:Generated_Source\PSoC4/SwSPI_Master_SPI.c **** * \sideeffect
 232:Generated_Source\PSoC4/SwSPI_Master_SPI.c **** *  Clears all bits of the physical port's interrupt status register, not just
 233:Generated_Source\PSoC4/SwSPI_Master_SPI.c **** *  those associated with the Pins component.
ARM GAS  C:\Users\Petro\AppData\Local\Temp\ccvCLs00.s 			page 10


 234:Generated_Source\PSoC4/SwSPI_Master_SPI.c **** *
 235:Generated_Source\PSoC4/SwSPI_Master_SPI.c **** * \funcusage
 236:Generated_Source\PSoC4/SwSPI_Master_SPI.c **** *  \snippet SwSPI_Master_SPI_SUT.c usage_SwSPI_Master_SPI_ClearInterrupt
 237:Generated_Source\PSoC4/SwSPI_Master_SPI.c **** *******************************************************************************/
 238:Generated_Source\PSoC4/SwSPI_Master_SPI.c **** uint8 SwSPI_Master_SPI_ClearInterrupt(void)
 239:Generated_Source\PSoC4/SwSPI_Master_SPI.c **** {
 281              		.loc 1 239 0
 282              		.cfi_startproc
 283 0000 80B5     		push	{r7, lr}
 284              		.cfi_def_cfa_offset 8
 285              		.cfi_offset 7, -8
 286              		.cfi_offset 14, -4
 287 0002 82B0     		sub	sp, sp, #8
 288              		.cfi_def_cfa_offset 16
 289 0004 00AF     		add	r7, sp, #0
 290              		.cfi_def_cfa_register 7
 240:Generated_Source\PSoC4/SwSPI_Master_SPI.c **** 	uint8 maskedStatus = (uint8)(SwSPI_Master_SPI_INTSTAT & SwSPI_Master_SPI_MASK);
 291              		.loc 1 240 0
 292 0006 084B     		ldr	r3, .L20
 293 0008 1B68     		ldr	r3, [r3]
 294 000a DAB2     		uxtb	r2, r3
 295 000c FB1D     		add	r3, r7, #7
 296 000e 0721     		mov	r1, #7
 297 0010 0A40     		and	r2, r1
 298 0012 1A70     		strb	r2, [r3]
 241:Generated_Source\PSoC4/SwSPI_Master_SPI.c **** 	SwSPI_Master_SPI_INTSTAT = maskedStatus;
 299              		.loc 1 241 0
 300 0014 044B     		ldr	r3, .L20
 301 0016 FA1D     		add	r2, r7, #7
 302 0018 1278     		ldrb	r2, [r2]
 303 001a 1A60     		str	r2, [r3]
 242:Generated_Source\PSoC4/SwSPI_Master_SPI.c ****     return maskedStatus >> SwSPI_Master_SPI_SHIFT;
 304              		.loc 1 242 0
 305 001c FB1D     		add	r3, r7, #7
 306 001e 1B78     		ldrb	r3, [r3]
 243:Generated_Source\PSoC4/SwSPI_Master_SPI.c **** }
 307              		.loc 1 243 0
 308 0020 181C     		mov	r0, r3
 309 0022 BD46     		mov	sp, r7
 310 0024 02B0     		add	sp, sp, #8
 311              		@ sp needed
 312 0026 80BD     		pop	{r7, pc}
 313              	.L21:
 314              		.align	2
 315              	.L20:
 316 0028 10020440 		.word	1074004496
 317              		.cfi_endproc
 318              	.LFE5:
 319              		.size	SwSPI_Master_SPI_ClearInterrupt, .-SwSPI_Master_SPI_ClearInterrupt
 320              		.text
 321              	.Letext0:
 322              		.file 2 "Generated_Source\\PSoC4\\cytypes.h"