ARM GAS  C:\Users\Petro\AppData\Local\Temp\ccOzssx9.s 			page 1


   1              		.cpu cortex-m0
   2              		.fpu softvfp
   3              		.eabi_attribute 20, 1
   4              		.eabi_attribute 21, 1
   5              		.eabi_attribute 23, 3
   6              		.eabi_attribute 24, 1
   7              		.eabi_attribute 25, 1
   8              		.eabi_attribute 26, 1
   9              		.eabi_attribute 30, 6
  10              		.eabi_attribute 34, 0
  11              		.eabi_attribute 18, 4
  12              		.code	16
  13              		.file	"SwSPI_Master.c"
  14              		.text
  15              	.Ltext0:
  16              		.cfi_sections	.debug_frame
  17              		.section	.text.SwSPI_Master_Init,"ax",%progbits
  18              		.align	2
  19              		.global	SwSPI_Master_Init
  20              		.code	16
  21              		.thumb_func
  22              		.type	SwSPI_Master_Init, %function
  23              	SwSPI_Master_Init:
  24              	.LFB2:
  25              		.file 1 "Generated_Source\\PSoC4\\SwSPI_Master.c"
   1:Generated_Source\PSoC4/SwSPI_Master.c **** /* ========================================
   2:Generated_Source\PSoC4/SwSPI_Master.c ****  *
   3:Generated_Source\PSoC4/SwSPI_Master.c ****  * File Name: SwSPI_Master.c
   4:Generated_Source\PSoC4/SwSPI_Master.c ****  * Version 1.20 
   5:Generated_Source\PSoC4/SwSPI_Master.c ****  * Copyright ANDREY TKACHOV, 2016
   6:Generated_Source\PSoC4/SwSPI_Master.c ****  
   7:Generated_Source\PSoC4/SwSPI_Master.c ****  * Description:
   8:Generated_Source\PSoC4/SwSPI_Master.c ****  *  This file provides source code for the Software SPI component's API.
   9:Generated_Source\PSoC4/SwSPI_Master.c **** 
  10:Generated_Source\PSoC4/SwSPI_Master.c ****  * All Rights Reserved
  11:Generated_Source\PSoC4/SwSPI_Master.c ****  * UNPUBLISHED, LICENSED SOFTWARE.
  12:Generated_Source\PSoC4/SwSPI_Master.c ****  *
  13:Generated_Source\PSoC4/SwSPI_Master.c ****  * CONFIDENTIAL AND PROPRIETARY INFORMATION
  14:Generated_Source\PSoC4/SwSPI_Master.c ****  * WHICH IS THE PROPERTY OF PERSONAL LICENSE.
  15:Generated_Source\PSoC4/SwSPI_Master.c ****  *
  16:Generated_Source\PSoC4/SwSPI_Master.c ****  * ========================================
  17:Generated_Source\PSoC4/SwSPI_Master.c **** */
  18:Generated_Source\PSoC4/SwSPI_Master.c **** 
  19:Generated_Source\PSoC4/SwSPI_Master.c **** #include "SwSPI_Master_PVT.h"
  20:Generated_Source\PSoC4/SwSPI_Master.c **** 
  21:Generated_Source\PSoC4/SwSPI_Master.c **** /*******************************************************************************
  22:Generated_Source\PSoC4/SwSPI_Master.c **** * Function Name: SwSPI_Master_Init
  23:Generated_Source\PSoC4/SwSPI_Master.c **** ********************************************************************************
  24:Generated_Source\PSoC4/SwSPI_Master.c **** *
  25:Generated_Source\PSoC4/SwSPI_Master.c **** * Summary:
  26:Generated_Source\PSoC4/SwSPI_Master.c **** *  Performs initialization required for the components normal work.
  27:Generated_Source\PSoC4/SwSPI_Master.c **** *  This function initializes the Software SPI hardware module as follows:
  28:Generated_Source\PSoC4/SwSPI_Master.c **** *        Sets initial state for CS, CLK, MOSI pin
  29:Generated_Source\PSoC4/SwSPI_Master.c **** *
  30:Generated_Source\PSoC4/SwSPI_Master.c **** * Parameters:
  31:Generated_Source\PSoC4/SwSPI_Master.c **** *  None.
  32:Generated_Source\PSoC4/SwSPI_Master.c **** *
ARM GAS  C:\Users\Petro\AppData\Local\Temp\ccOzssx9.s 			page 2


  33:Generated_Source\PSoC4/SwSPI_Master.c **** * Return:
  34:Generated_Source\PSoC4/SwSPI_Master.c **** *  None.
  35:Generated_Source\PSoC4/SwSPI_Master.c **** *
  36:Generated_Source\PSoC4/SwSPI_Master.c **** * Reentrant:
  37:Generated_Source\PSoC4/SwSPI_Master.c **** *  No.
  38:Generated_Source\PSoC4/SwSPI_Master.c **** *
  39:Generated_Source\PSoC4/SwSPI_Master.c **** *******************************************************************************/
  40:Generated_Source\PSoC4/SwSPI_Master.c **** 
  41:Generated_Source\PSoC4/SwSPI_Master.c **** void SwSPI_Master_Init(void) 
  42:Generated_Source\PSoC4/SwSPI_Master.c **** {
  26              		.loc 1 42 0
  27              		.cfi_startproc
  28 0000 80B5     		push	{r7, lr}
  29              		.cfi_def_cfa_offset 8
  30              		.cfi_offset 7, -8
  31              		.cfi_offset 14, -4
  32 0002 00AF     		add	r7, sp, #0
  33              		.cfi_def_cfa_register 7
  43:Generated_Source\PSoC4/SwSPI_Master.c ****    SwSPI_Master_CS_DR_REG |= SwSPI_Master_CS;
  34              		.loc 1 43 0
  35 0004 094B     		ldr	r3, .L2
  36 0006 094A     		ldr	r2, .L2
  37 0008 1268     		ldr	r2, [r2]
  38 000a 0121     		mov	r1, #1
  39 000c 0A43     		orr	r2, r1
  40 000e 1A60     		str	r2, [r3]
  44:Generated_Source\PSoC4/SwSPI_Master.c ****    SwSPI_Master_SCK_DR_REG &= ((uint8)(~SwSPI_Master_CLK));
  41              		.loc 1 44 0
  42 0010 064B     		ldr	r3, .L2
  43 0012 064A     		ldr	r2, .L2
  44 0014 1268     		ldr	r2, [r2]
  45 0016 FD21     		mov	r1, #253
  46 0018 0A40     		and	r2, r1
  47 001a 1A60     		str	r2, [r3]
  45:Generated_Source\PSoC4/SwSPI_Master.c ****    SwSPI_Master_MOSI_DR_REG &= ((uint8)(~SwSPI_Master_MOSI));
  48              		.loc 1 45 0
  49 001c 034B     		ldr	r3, .L2
  50 001e 034A     		ldr	r2, .L2
  51 0020 1268     		ldr	r2, [r2]
  52 0022 FB21     		mov	r1, #251
  53 0024 0A40     		and	r2, r1
  54 0026 1A60     		str	r2, [r3]
  46:Generated_Source\PSoC4/SwSPI_Master.c **** }
  55              		.loc 1 46 0
  56 0028 BD46     		mov	sp, r7
  57              		@ sp needed
  58 002a 80BD     		pop	{r7, pc}
  59              	.L3:
  60              		.align	2
  61              	.L2:
  62 002c 00020440 		.word	1074004480
  63              		.cfi_endproc
  64              	.LFE2:
  65              		.size	SwSPI_Master_Init, .-SwSPI_Master_Init
  66              		.section	.text.SwSPI_Master_ChipSelect,"ax",%progbits
  67              		.align	2
  68              		.global	SwSPI_Master_ChipSelect
ARM GAS  C:\Users\Petro\AppData\Local\Temp\ccOzssx9.s 			page 3


  69              		.code	16
  70              		.thumb_func
  71              		.type	SwSPI_Master_ChipSelect, %function
  72              	SwSPI_Master_ChipSelect:
  73              	.LFB3:
  47:Generated_Source\PSoC4/SwSPI_Master.c **** 
  48:Generated_Source\PSoC4/SwSPI_Master.c **** /*******************************************************************************
  49:Generated_Source\PSoC4/SwSPI_Master.c **** * Function Name: SwSPI_Master_ChipSelect
  50:Generated_Source\PSoC4/SwSPI_Master.c **** ********************************************************************************
  51:Generated_Source\PSoC4/SwSPI_Master.c **** *
  52:Generated_Source\PSoC4/SwSPI_Master.c **** * Summary:
  53:Generated_Source\PSoC4/SwSPI_Master.c **** *  Sets active state on CS pin.
  54:Generated_Source\PSoC4/SwSPI_Master.c **** *  For this mode active state CS is low.
  55:Generated_Source\PSoC4/SwSPI_Master.c **** *
  56:Generated_Source\PSoC4/SwSPI_Master.c **** * Parameters:
  57:Generated_Source\PSoC4/SwSPI_Master.c **** *  None
  58:Generated_Source\PSoC4/SwSPI_Master.c **** *
  59:Generated_Source\PSoC4/SwSPI_Master.c **** * Return:
  60:Generated_Source\PSoC4/SwSPI_Master.c **** *  None
  61:Generated_Source\PSoC4/SwSPI_Master.c **** *
  62:Generated_Source\PSoC4/SwSPI_Master.c **** *******************************************************************************/
  63:Generated_Source\PSoC4/SwSPI_Master.c **** 
  64:Generated_Source\PSoC4/SwSPI_Master.c **** void SwSPI_Master_ChipSelect(void) 
  65:Generated_Source\PSoC4/SwSPI_Master.c **** {
  74              		.loc 1 65 0
  75              		.cfi_startproc
  76 0000 80B5     		push	{r7, lr}
  77              		.cfi_def_cfa_offset 8
  78              		.cfi_offset 7, -8
  79              		.cfi_offset 14, -4
  80 0002 00AF     		add	r7, sp, #0
  81              		.cfi_def_cfa_register 7
  66:Generated_Source\PSoC4/SwSPI_Master.c **** /*    SwSPI_Master_OUTPORT_DR_REG &= ((uint8)(~SwSPI_Master_CS));*/
  67:Generated_Source\PSoC4/SwSPI_Master.c **** }
  82              		.loc 1 67 0
  83 0004 BD46     		mov	sp, r7
  84              		@ sp needed
  85 0006 80BD     		pop	{r7, pc}
  86              		.cfi_endproc
  87              	.LFE3:
  88              		.size	SwSPI_Master_ChipSelect, .-SwSPI_Master_ChipSelect
  89              		.section	.text.SwSPI_Master_ChipDeselect,"ax",%progbits
  90              		.align	2
  91              		.global	SwSPI_Master_ChipDeselect
  92              		.code	16
  93              		.thumb_func
  94              		.type	SwSPI_Master_ChipDeselect, %function
  95              	SwSPI_Master_ChipDeselect:
  96              	.LFB4:
  68:Generated_Source\PSoC4/SwSPI_Master.c **** 
  69:Generated_Source\PSoC4/SwSPI_Master.c **** /*******************************************************************************
  70:Generated_Source\PSoC4/SwSPI_Master.c **** * Function Name: SwSPI_Master_ChipDeselect
  71:Generated_Source\PSoC4/SwSPI_Master.c **** ********************************************************************************
  72:Generated_Source\PSoC4/SwSPI_Master.c **** *
  73:Generated_Source\PSoC4/SwSPI_Master.c **** * Summary:
  74:Generated_Source\PSoC4/SwSPI_Master.c **** *  Sets disable state on CS pin.
  75:Generated_Source\PSoC4/SwSPI_Master.c **** *  For this mode disable state CS is high.
ARM GAS  C:\Users\Petro\AppData\Local\Temp\ccOzssx9.s 			page 4


  76:Generated_Source\PSoC4/SwSPI_Master.c **** *
  77:Generated_Source\PSoC4/SwSPI_Master.c **** * Parameters:
  78:Generated_Source\PSoC4/SwSPI_Master.c **** *  None
  79:Generated_Source\PSoC4/SwSPI_Master.c **** *
  80:Generated_Source\PSoC4/SwSPI_Master.c **** * Return:
  81:Generated_Source\PSoC4/SwSPI_Master.c **** *  None
  82:Generated_Source\PSoC4/SwSPI_Master.c **** *
  83:Generated_Source\PSoC4/SwSPI_Master.c **** *******************************************************************************/
  84:Generated_Source\PSoC4/SwSPI_Master.c **** 
  85:Generated_Source\PSoC4/SwSPI_Master.c **** void SwSPI_Master_ChipDeselect(void) 
  86:Generated_Source\PSoC4/SwSPI_Master.c **** {
  97              		.loc 1 86 0
  98              		.cfi_startproc
  99 0000 80B5     		push	{r7, lr}
 100              		.cfi_def_cfa_offset 8
 101              		.cfi_offset 7, -8
 102              		.cfi_offset 14, -4
 103 0002 00AF     		add	r7, sp, #0
 104              		.cfi_def_cfa_register 7
  87:Generated_Source\PSoC4/SwSPI_Master.c **** /*    SwSPI_Master_OUTPORT_DR_REG |= SwSPI_Master_CS;*/
  88:Generated_Source\PSoC4/SwSPI_Master.c **** }
 105              		.loc 1 88 0
 106 0004 BD46     		mov	sp, r7
 107              		@ sp needed
 108 0006 80BD     		pop	{r7, pc}
 109              		.cfi_endproc
 110              	.LFE4:
 111              		.size	SwSPI_Master_ChipDeselect, .-SwSPI_Master_ChipDeselect
 112              		.section	.text.SwSPI_Master_SendByte,"ax",%progbits
 113              		.align	2
 114              		.global	SwSPI_Master_SendByte
 115              		.code	16
 116              		.thumb_func
 117              		.type	SwSPI_Master_SendByte, %function
 118              	SwSPI_Master_SendByte:
 119              	.LFB5:
  89:Generated_Source\PSoC4/SwSPI_Master.c **** 
  90:Generated_Source\PSoC4/SwSPI_Master.c **** /*******************************************************************************
  91:Generated_Source\PSoC4/SwSPI_Master.c **** * Function Name: SwSPI_Master_SendByte
  92:Generated_Source\PSoC4/SwSPI_Master.c **** ********************************************************************************
  93:Generated_Source\PSoC4/SwSPI_Master.c **** *
  94:Generated_Source\PSoC4/SwSPI_Master.c **** * Summary:
  95:Generated_Source\PSoC4/SwSPI_Master.c **** *  Sends one byte via Software SPI.
  96:Generated_Source\PSoC4/SwSPI_Master.c **** *  One byte are transmitted after 8 periods CLK.
  97:Generated_Source\PSoC4/SwSPI_Master.c **** *
  98:Generated_Source\PSoC4/SwSPI_Master.c **** * Parameters:
  99:Generated_Source\PSoC4/SwSPI_Master.c **** *  Byte to be transmitted
 100:Generated_Source\PSoC4/SwSPI_Master.c **** *
 101:Generated_Source\PSoC4/SwSPI_Master.c **** * Note:
 102:Generated_Source\PSoC4/SwSPI_Master.c **** *  CS must be in active(low) state.
 103:Generated_Source\PSoC4/SwSPI_Master.c **** *
 104:Generated_Source\PSoC4/SwSPI_Master.c **** * Return:
 105:Generated_Source\PSoC4/SwSPI_Master.c **** *  None
 106:Generated_Source\PSoC4/SwSPI_Master.c **** *
 107:Generated_Source\PSoC4/SwSPI_Master.c **** *******************************************************************************/
 108:Generated_Source\PSoC4/SwSPI_Master.c **** 
 109:Generated_Source\PSoC4/SwSPI_Master.c **** void SwSPI_Master_SendByte(uint8 byte) 
ARM GAS  C:\Users\Petro\AppData\Local\Temp\ccOzssx9.s 			page 5


 110:Generated_Source\PSoC4/SwSPI_Master.c **** {
 120              		.loc 1 110 0
 121              		.cfi_startproc
 122 0000 80B5     		push	{r7, lr}
 123              		.cfi_def_cfa_offset 8
 124              		.cfi_offset 7, -8
 125              		.cfi_offset 14, -4
 126 0002 84B0     		sub	sp, sp, #16
 127              		.cfi_def_cfa_offset 24
 128 0004 00AF     		add	r7, sp, #0
 129              		.cfi_def_cfa_register 7
 130 0006 021C     		mov	r2, r0
 131 0008 FB1D     		add	r3, r7, #7
 132 000a 1A70     		strb	r2, [r3]
 111:Generated_Source\PSoC4/SwSPI_Master.c ****     uint8 countBites;
 112:Generated_Source\PSoC4/SwSPI_Master.c ****     for (countBites = BITES_ON_ONE_BYTE; countBites > 0; countBites--)
 133              		.loc 1 112 0
 134 000c 0F23     		mov	r3, #15
 135 000e FB18     		add	r3, r7, r3
 136 0010 0822     		mov	r2, #8
 137 0012 1A70     		strb	r2, [r3]
 138 0014 2FE0     		b	.L7
 139              	.L10:
 113:Generated_Source\PSoC4/SwSPI_Master.c ****     {
 114:Generated_Source\PSoC4/SwSPI_Master.c ****     
 115:Generated_Source\PSoC4/SwSPI_Master.c ****         if (byte & MASK_HIGH_BIT)
 140              		.loc 1 115 0
 141 0016 FB1D     		add	r3, r7, #7
 142 0018 1B78     		ldrb	r3, [r3]
 143 001a 5BB2     		sxtb	r3, r3
 144 001c 002B     		cmp	r3, #0
 145 001e 06DA     		bge	.L8
 116:Generated_Source\PSoC4/SwSPI_Master.c ****         {
 117:Generated_Source\PSoC4/SwSPI_Master.c ****             SwSPI_Master_MOSI_DR_REG |= SwSPI_Master_MOSI;
 146              		.loc 1 117 0
 147 0020 1C4B     		ldr	r3, .L11
 148 0022 1C4A     		ldr	r2, .L11
 149 0024 1268     		ldr	r2, [r2]
 150 0026 0421     		mov	r1, #4
 151 0028 0A43     		orr	r2, r1
 152 002a 1A60     		str	r2, [r3]
 153 002c 05E0     		b	.L9
 154              	.L8:
 118:Generated_Source\PSoC4/SwSPI_Master.c ****         }
 119:Generated_Source\PSoC4/SwSPI_Master.c ****         else
 120:Generated_Source\PSoC4/SwSPI_Master.c ****         {
 121:Generated_Source\PSoC4/SwSPI_Master.c ****             SwSPI_Master_MOSI_DR_REG &= ((uint8)(~SwSPI_Master_MOSI));
 155              		.loc 1 121 0
 156 002e 194B     		ldr	r3, .L11
 157 0030 184A     		ldr	r2, .L11
 158 0032 1268     		ldr	r2, [r2]
 159 0034 FB21     		mov	r1, #251
 160 0036 0A40     		and	r2, r1
 161 0038 1A60     		str	r2, [r3]
 162              	.L9:
 122:Generated_Source\PSoC4/SwSPI_Master.c ****         }  
 123:Generated_Source\PSoC4/SwSPI_Master.c ****         SwSPI_Master_SCK_DR_REG |= SwSPI_Master_CLK;
ARM GAS  C:\Users\Petro\AppData\Local\Temp\ccOzssx9.s 			page 6


 163              		.loc 1 123 0 discriminator 2
 164 003a 164B     		ldr	r3, .L11
 165 003c 154A     		ldr	r2, .L11
 166 003e 1268     		ldr	r2, [r2]
 167 0040 0221     		mov	r1, #2
 168 0042 0A43     		orr	r2, r1
 169 0044 1A60     		str	r2, [r3]
 124:Generated_Source\PSoC4/SwSPI_Master.c ****         
 125:Generated_Source\PSoC4/SwSPI_Master.c ****         CyDelayCycles(DELAY_HIGH_STATE);
 170              		.loc 1 125 0 discriminator 2
 171 0046 1420     		mov	r0, #20
 172 0048 FFF7FEFF 		bl	CyDelayCycles
 126:Generated_Source\PSoC4/SwSPI_Master.c ****         
 127:Generated_Source\PSoC4/SwSPI_Master.c ****         SwSPI_Master_SCK_DR_REG &= ((uint8)(~SwSPI_Master_CLK));
 173              		.loc 1 127 0 discriminator 2
 174 004c 114B     		ldr	r3, .L11
 175 004e 114A     		ldr	r2, .L11
 176 0050 1268     		ldr	r2, [r2]
 177 0052 FD21     		mov	r1, #253
 178 0054 0A40     		and	r2, r1
 179 0056 1A60     		str	r2, [r3]
 128:Generated_Source\PSoC4/SwSPI_Master.c ****         CyDelayCycles(DELAY_LOW_STATE);      
 180              		.loc 1 128 0 discriminator 2
 181 0058 1420     		mov	r0, #20
 182 005a FFF7FEFF 		bl	CyDelayCycles
 129:Generated_Source\PSoC4/SwSPI_Master.c ****         byte <<=  SHIFT_ONE_BIT;
 183              		.loc 1 129 0 discriminator 2
 184 005e FA1D     		add	r2, r7, #7
 185 0060 FB1D     		add	r3, r7, #7
 186 0062 1B78     		ldrb	r3, [r3]
 187 0064 DB18     		add	r3, r3, r3
 188 0066 1370     		strb	r3, [r2]
 112:Generated_Source\PSoC4/SwSPI_Master.c ****     {
 189              		.loc 1 112 0 discriminator 2
 190 0068 0F23     		mov	r3, #15
 191 006a FB18     		add	r3, r7, r3
 192 006c 1A78     		ldrb	r2, [r3]
 193 006e 0F23     		mov	r3, #15
 194 0070 FB18     		add	r3, r7, r3
 195 0072 013A     		sub	r2, r2, #1
 196 0074 1A70     		strb	r2, [r3]
 197              	.L7:
 112:Generated_Source\PSoC4/SwSPI_Master.c ****     {
 198              		.loc 1 112 0 is_stmt 0 discriminator 1
 199 0076 0F23     		mov	r3, #15
 200 0078 FB18     		add	r3, r7, r3
 201 007a 1B78     		ldrb	r3, [r3]
 202 007c 002B     		cmp	r3, #0
 203 007e CAD1     		bne	.L10
 130:Generated_Source\PSoC4/SwSPI_Master.c ****     }
 131:Generated_Source\PSoC4/SwSPI_Master.c ****     
 132:Generated_Source\PSoC4/SwSPI_Master.c ****     SwSPI_Master_MOSI_DR_REG &= ((uint8)(~SwSPI_Master_MOSI));    
 204              		.loc 1 132 0 is_stmt 1
 205 0080 044B     		ldr	r3, .L11
 206 0082 044A     		ldr	r2, .L11
 207 0084 1268     		ldr	r2, [r2]
 208 0086 FB21     		mov	r1, #251
ARM GAS  C:\Users\Petro\AppData\Local\Temp\ccOzssx9.s 			page 7


 209 0088 0A40     		and	r2, r1
 210 008a 1A60     		str	r2, [r3]
 133:Generated_Source\PSoC4/SwSPI_Master.c **** }
 211              		.loc 1 133 0
 212 008c BD46     		mov	sp, r7
 213 008e 04B0     		add	sp, sp, #16
 214              		@ sp needed
 215 0090 80BD     		pop	{r7, pc}
 216              	.L12:
 217 0092 C046     		.align	2
 218              	.L11:
 219 0094 00020440 		.word	1074004480
 220              		.cfi_endproc
 221              	.LFE5:
 222              		.size	SwSPI_Master_SendByte, .-SwSPI_Master_SendByte
 223              		.section	.text.SwSPI_Master_SendBuff,"ax",%progbits
 224              		.align	2
 225              		.global	SwSPI_Master_SendBuff
 226              		.code	16
 227              		.thumb_func
 228              		.type	SwSPI_Master_SendBuff, %function
 229              	SwSPI_Master_SendBuff:
 230              	.LFB6:
 134:Generated_Source\PSoC4/SwSPI_Master.c **** 
 135:Generated_Source\PSoC4/SwSPI_Master.c **** /*******************************************************************************
 136:Generated_Source\PSoC4/SwSPI_Master.c **** * Function Name: SwSPI_Master_SendBuff
 137:Generated_Source\PSoC4/SwSPI_Master.c **** ********************************************************************************
 138:Generated_Source\PSoC4/SwSPI_Master.c **** *
 139:Generated_Source\PSoC4/SwSPI_Master.c **** * Summary:
 140:Generated_Source\PSoC4/SwSPI_Master.c **** *  Sends one byte via Software SPI.
 141:Generated_Source\PSoC4/SwSPI_Master.c **** *  One byte are transmitted after 8 periods CLK.
 142:Generated_Source\PSoC4/SwSPI_Master.c **** *
 143:Generated_Source\PSoC4/SwSPI_Master.c **** * Parameters:
 144:Generated_Source\PSoC4/SwSPI_Master.c **** *  buff: Pointer to buffer who will be transmitted via SPI.
 145:Generated_Source\PSoC4/SwSPI_Master.c **** *  cnt: Count bytes in buffer for transmit.
 146:Generated_Source\PSoC4/SwSPI_Master.c **** *
 147:Generated_Source\PSoC4/SwSPI_Master.c **** * Note:
 148:Generated_Source\PSoC4/SwSPI_Master.c **** *  CS must be in active(low) state.
 149:Generated_Source\PSoC4/SwSPI_Master.c **** *  Transmitt no more 65535 bytes. (2^16 - 1)
 150:Generated_Source\PSoC4/SwSPI_Master.c **** *
 151:Generated_Source\PSoC4/SwSPI_Master.c **** * Return:
 152:Generated_Source\PSoC4/SwSPI_Master.c **** *  None
 153:Generated_Source\PSoC4/SwSPI_Master.c **** *
 154:Generated_Source\PSoC4/SwSPI_Master.c **** *******************************************************************************/
 155:Generated_Source\PSoC4/SwSPI_Master.c **** 
 156:Generated_Source\PSoC4/SwSPI_Master.c **** void SwSPI_Master_SendBuff(const uint8 buff[], uint16 cnt) 
 157:Generated_Source\PSoC4/SwSPI_Master.c **** {
 231              		.loc 1 157 0
 232              		.cfi_startproc
 233 0000 80B5     		push	{r7, lr}
 234              		.cfi_def_cfa_offset 8
 235              		.cfi_offset 7, -8
 236              		.cfi_offset 14, -4
 237 0002 84B0     		sub	sp, sp, #16
 238              		.cfi_def_cfa_offset 24
 239 0004 00AF     		add	r7, sp, #0
 240              		.cfi_def_cfa_register 7
ARM GAS  C:\Users\Petro\AppData\Local\Temp\ccOzssx9.s 			page 8


 241 0006 7860     		str	r0, [r7, #4]
 242 0008 0A1C     		mov	r2, r1
 243 000a BB1C     		add	r3, r7, #2
 244 000c 1A80     		strh	r2, [r3]
 158:Generated_Source\PSoC4/SwSPI_Master.c ****     uint16_t tmpData;
 159:Generated_Source\PSoC4/SwSPI_Master.c ****     for (tmpData = 0; tmpData < cnt; tmpData ++)
 245              		.loc 1 159 0
 246 000e 0E23     		mov	r3, #14
 247 0010 FB18     		add	r3, r7, r3
 248 0012 0022     		mov	r2, #0
 249 0014 1A80     		strh	r2, [r3]
 250 0016 0FE0     		b	.L14
 251              	.L15:
 160:Generated_Source\PSoC4/SwSPI_Master.c ****     {
 161:Generated_Source\PSoC4/SwSPI_Master.c ****         SwSPI_Master_SendByte(buff[tmpData]);
 252              		.loc 1 161 0 discriminator 3
 253 0018 0E23     		mov	r3, #14
 254 001a FB18     		add	r3, r7, r3
 255 001c 1B88     		ldrh	r3, [r3]
 256 001e 7A68     		ldr	r2, [r7, #4]
 257 0020 D318     		add	r3, r2, r3
 258 0022 1B78     		ldrb	r3, [r3]
 259 0024 181C     		mov	r0, r3
 260 0026 FFF7FEFF 		bl	SwSPI_Master_SendByte
 159:Generated_Source\PSoC4/SwSPI_Master.c ****     {
 261              		.loc 1 159 0 discriminator 3
 262 002a 0E23     		mov	r3, #14
 263 002c FB18     		add	r3, r7, r3
 264 002e 1A88     		ldrh	r2, [r3]
 265 0030 0E23     		mov	r3, #14
 266 0032 FB18     		add	r3, r7, r3
 267 0034 0132     		add	r2, r2, #1
 268 0036 1A80     		strh	r2, [r3]
 269              	.L14:
 159:Generated_Source\PSoC4/SwSPI_Master.c ****     {
 270              		.loc 1 159 0 is_stmt 0 discriminator 1
 271 0038 0E23     		mov	r3, #14
 272 003a FA18     		add	r2, r7, r3
 273 003c BB1C     		add	r3, r7, #2
 274 003e 1288     		ldrh	r2, [r2]
 275 0040 1B88     		ldrh	r3, [r3]
 276 0042 9A42     		cmp	r2, r3
 277 0044 E8D3     		bcc	.L15
 162:Generated_Source\PSoC4/SwSPI_Master.c ****     }
 163:Generated_Source\PSoC4/SwSPI_Master.c **** }
 278              		.loc 1 163 0 is_stmt 1
 279 0046 BD46     		mov	sp, r7
 280 0048 04B0     		add	sp, sp, #16
 281              		@ sp needed
 282 004a 80BD     		pop	{r7, pc}
 283              		.cfi_endproc
 284              	.LFE6:
 285              		.size	SwSPI_Master_SendBuff, .-SwSPI_Master_SendBuff
 286              		.section	.text.SwSPI_Master_RecvByte,"ax",%progbits
 287              		.align	2
 288              		.global	SwSPI_Master_RecvByte
 289              		.code	16
ARM GAS  C:\Users\Petro\AppData\Local\Temp\ccOzssx9.s 			page 9


 290              		.thumb_func
 291              		.type	SwSPI_Master_RecvByte, %function
 292              	SwSPI_Master_RecvByte:
 293              	.LFB7:
 164:Generated_Source\PSoC4/SwSPI_Master.c **** 
 165:Generated_Source\PSoC4/SwSPI_Master.c **** /*******************************************************************************
 166:Generated_Source\PSoC4/SwSPI_Master.c **** * Function Name: SwSPI_Master_RecvByte
 167:Generated_Source\PSoC4/SwSPI_Master.c **** ********************************************************************************
 168:Generated_Source\PSoC4/SwSPI_Master.c **** *
 169:Generated_Source\PSoC4/SwSPI_Master.c **** * Summary:
 170:Generated_Source\PSoC4/SwSPI_Master.c **** *  Recieve one byte via Software SPI.
 171:Generated_Source\PSoC4/SwSPI_Master.c **** *  One byte are recieved after 8 periods CLK.
 172:Generated_Source\PSoC4/SwSPI_Master.c **** *
 173:Generated_Source\PSoC4/SwSPI_Master.c **** * Parameters:
 174:Generated_Source\PSoC4/SwSPI_Master.c **** *  None.
 175:Generated_Source\PSoC4/SwSPI_Master.c **** *
 176:Generated_Source\PSoC4/SwSPI_Master.c **** * Note:
 177:Generated_Source\PSoC4/SwSPI_Master.c **** *  CS must be in active(low) state.
 178:Generated_Source\PSoC4/SwSPI_Master.c **** *
 179:Generated_Source\PSoC4/SwSPI_Master.c **** * Return:
 180:Generated_Source\PSoC4/SwSPI_Master.c **** *  Recieved byte.
 181:Generated_Source\PSoC4/SwSPI_Master.c **** *
 182:Generated_Source\PSoC4/SwSPI_Master.c **** *******************************************************************************/
 183:Generated_Source\PSoC4/SwSPI_Master.c **** 
 184:Generated_Source\PSoC4/SwSPI_Master.c **** uint8 SwSPI_Master_RecvByte(void) 
 185:Generated_Source\PSoC4/SwSPI_Master.c **** {
 294              		.loc 1 185 0
 295              		.cfi_startproc
 296 0000 80B5     		push	{r7, lr}
 297              		.cfi_def_cfa_offset 8
 298              		.cfi_offset 7, -8
 299              		.cfi_offset 14, -4
 300 0002 84B0     		sub	sp, sp, #16
 301              		.cfi_def_cfa_offset 24
 302 0004 00AF     		add	r7, sp, #0
 303              		.cfi_def_cfa_register 7
 186:Generated_Source\PSoC4/SwSPI_Master.c ****     uint32_t countBites;
 187:Generated_Source\PSoC4/SwSPI_Master.c ****     uint32_t tmpBuff = 0;
 304              		.loc 1 187 0
 305 0006 0023     		mov	r3, #0
 306 0008 BB60     		str	r3, [r7, #8]
 188:Generated_Source\PSoC4/SwSPI_Master.c ****     uint8 tmpPin;
 189:Generated_Source\PSoC4/SwSPI_Master.c ****     for (countBites = BITES_ON_ONE_BYTE; countBites > 0; countBites--)
 307              		.loc 1 189 0
 308 000a 0823     		mov	r3, #8
 309 000c FB60     		str	r3, [r7, #12]
 310 000e 2CE0     		b	.L17
 311              	.L19:
 190:Generated_Source\PSoC4/SwSPI_Master.c ****     {
 191:Generated_Source\PSoC4/SwSPI_Master.c ****         SwSPI_Master_MOSI_DR_REG |= SwSPI_Master_MOSI;
 312              		.loc 1 191 0
 313 0010 1F4B     		ldr	r3, .L21
 314 0012 1F4A     		ldr	r2, .L21
 315 0014 1268     		ldr	r2, [r2]
 316 0016 0421     		mov	r1, #4
 317 0018 0A43     		orr	r2, r1
 318 001a 1A60     		str	r2, [r3]
ARM GAS  C:\Users\Petro\AppData\Local\Temp\ccOzssx9.s 			page 10


 192:Generated_Source\PSoC4/SwSPI_Master.c ****         SwSPI_Master_SCK_DR_REG |= SwSPI_Master_CLK;
 319              		.loc 1 192 0
 320 001c 1C4B     		ldr	r3, .L21
 321 001e 1C4A     		ldr	r2, .L21
 322 0020 1268     		ldr	r2, [r2]
 323 0022 0221     		mov	r1, #2
 324 0024 0A43     		orr	r2, r1
 325 0026 1A60     		str	r2, [r3]
 193:Generated_Source\PSoC4/SwSPI_Master.c ****         tmpPin = (uint8)((SwSPI_Master_MISO_PS_REG & SwSPI_Master_MISO_MASK) >> SwSPI_Master_MISO_S
 326              		.loc 1 193 0
 327 0028 1A4B     		ldr	r3, .L21+4
 328 002a 1B68     		ldr	r3, [r3]
 329 002c 0822     		mov	r2, #8
 330 002e 1340     		and	r3, r2
 331 0030 DA08     		lsr	r2, r3, #3
 332 0032 FB1D     		add	r3, r7, #7
 333 0034 1A70     		strb	r2, [r3]
 194:Generated_Source\PSoC4/SwSPI_Master.c ****         if (tmpPin == 1u)
 334              		.loc 1 194 0
 335 0036 FB1D     		add	r3, r7, #7
 336 0038 1B78     		ldrb	r3, [r3]
 337 003a 012B     		cmp	r3, #1
 338 003c 03D1     		bne	.L18
 195:Generated_Source\PSoC4/SwSPI_Master.c ****         {
 196:Generated_Source\PSoC4/SwSPI_Master.c ****             tmpBuff |= MASK_LOW_BIT;
 339              		.loc 1 196 0
 340 003e BB68     		ldr	r3, [r7, #8]
 341 0040 0122     		mov	r2, #1
 342 0042 1343     		orr	r3, r2
 343 0044 BB60     		str	r3, [r7, #8]
 344              	.L18:
 197:Generated_Source\PSoC4/SwSPI_Master.c ****         }
 198:Generated_Source\PSoC4/SwSPI_Master.c ****         CyDelayCycles(DELAY_HIGH_STATE);
 345              		.loc 1 198 0 discriminator 2
 346 0046 1420     		mov	r0, #20
 347 0048 FFF7FEFF 		bl	CyDelayCycles
 199:Generated_Source\PSoC4/SwSPI_Master.c ****         
 200:Generated_Source\PSoC4/SwSPI_Master.c ****         SwSPI_Master_SCK_DR_REG &= ((uint8)(~SwSPI_Master_CLK));
 348              		.loc 1 200 0 discriminator 2
 349 004c 104B     		ldr	r3, .L21
 350 004e 104A     		ldr	r2, .L21
 351 0050 1268     		ldr	r2, [r2]
 352 0052 FD21     		mov	r1, #253
 353 0054 0A40     		and	r2, r1
 354 0056 1A60     		str	r2, [r3]
 201:Generated_Source\PSoC4/SwSPI_Master.c ****         
 202:Generated_Source\PSoC4/SwSPI_Master.c ****         CyDelayCycles(DELAY_LOW_STATE);
 355              		.loc 1 202 0 discriminator 2
 356 0058 1420     		mov	r0, #20
 357 005a FFF7FEFF 		bl	CyDelayCycles
 203:Generated_Source\PSoC4/SwSPI_Master.c ****         
 204:Generated_Source\PSoC4/SwSPI_Master.c ****         tmpBuff <<= SHIFT_ONE_BIT;
 358              		.loc 1 204 0 discriminator 2
 359 005e BB68     		ldr	r3, [r7, #8]
 360 0060 5B00     		lsl	r3, r3, #1
 361 0062 BB60     		str	r3, [r7, #8]
 189:Generated_Source\PSoC4/SwSPI_Master.c ****     {
ARM GAS  C:\Users\Petro\AppData\Local\Temp\ccOzssx9.s 			page 11


 362              		.loc 1 189 0 discriminator 2
 363 0064 FB68     		ldr	r3, [r7, #12]
 364 0066 013B     		sub	r3, r3, #1
 365 0068 FB60     		str	r3, [r7, #12]
 366              	.L17:
 189:Generated_Source\PSoC4/SwSPI_Master.c ****     {
 367              		.loc 1 189 0 is_stmt 0 discriminator 1
 368 006a FB68     		ldr	r3, [r7, #12]
 369 006c 002B     		cmp	r3, #0
 370 006e CFD1     		bne	.L19
 205:Generated_Source\PSoC4/SwSPI_Master.c ****     }
 206:Generated_Source\PSoC4/SwSPI_Master.c ****     tmpBuff >>= SHIFT_ONE_BIT;
 371              		.loc 1 206 0 is_stmt 1
 372 0070 BB68     		ldr	r3, [r7, #8]
 373 0072 5B08     		lsr	r3, r3, #1
 374 0074 BB60     		str	r3, [r7, #8]
 207:Generated_Source\PSoC4/SwSPI_Master.c ****     
 208:Generated_Source\PSoC4/SwSPI_Master.c ****     SwSPI_Master_MOSI_DR_REG &= ((uint8)(~SwSPI_Master_MOSI));
 375              		.loc 1 208 0
 376 0076 064B     		ldr	r3, .L21
 377 0078 054A     		ldr	r2, .L21
 378 007a 1268     		ldr	r2, [r2]
 379 007c FB21     		mov	r1, #251
 380 007e 0A40     		and	r2, r1
 381 0080 1A60     		str	r2, [r3]
 209:Generated_Source\PSoC4/SwSPI_Master.c ****     
 210:Generated_Source\PSoC4/SwSPI_Master.c ****     return (uint8_t)tmpBuff;
 382              		.loc 1 210 0
 383 0082 BB68     		ldr	r3, [r7, #8]
 384 0084 DBB2     		uxtb	r3, r3
 211:Generated_Source\PSoC4/SwSPI_Master.c **** }
 385              		.loc 1 211 0
 386 0086 181C     		mov	r0, r3
 387 0088 BD46     		mov	sp, r7
 388 008a 04B0     		add	sp, sp, #16
 389              		@ sp needed
 390 008c 80BD     		pop	{r7, pc}
 391              	.L22:
 392 008e C046     		.align	2
 393              	.L21:
 394 0090 00020440 		.word	1074004480
 395 0094 04020440 		.word	1074004484
 396              		.cfi_endproc
 397              	.LFE7:
 398              		.size	SwSPI_Master_RecvByte, .-SwSPI_Master_RecvByte
 399              		.section	.text.SwSPI_Master_RecvBuff,"ax",%progbits
 400              		.align	2
 401              		.global	SwSPI_Master_RecvBuff
 402              		.code	16
 403              		.thumb_func
 404              		.type	SwSPI_Master_RecvBuff, %function
 405              	SwSPI_Master_RecvBuff:
 406              	.LFB8:
 212:Generated_Source\PSoC4/SwSPI_Master.c **** 
 213:Generated_Source\PSoC4/SwSPI_Master.c **** /*******************************************************************************
 214:Generated_Source\PSoC4/SwSPI_Master.c **** * Function Name: SwSPI_Master_RecvBuff
 215:Generated_Source\PSoC4/SwSPI_Master.c **** ********************************************************************************
ARM GAS  C:\Users\Petro\AppData\Local\Temp\ccOzssx9.s 			page 12


 216:Generated_Source\PSoC4/SwSPI_Master.c **** *
 217:Generated_Source\PSoC4/SwSPI_Master.c **** * Summary:
 218:Generated_Source\PSoC4/SwSPI_Master.c **** *  Recieve few or more bytes via SPI.
 219:Generated_Source\PSoC4/SwSPI_Master.c **** *
 220:Generated_Source\PSoC4/SwSPI_Master.c **** * Parameters:
 221:Generated_Source\PSoC4/SwSPI_Master.c **** *  buff: Pointer to buffer who will be recieved via SPI.
 222:Generated_Source\PSoC4/SwSPI_Master.c **** *  cnt: Count bytes in buffer for recieve.
 223:Generated_Source\PSoC4/SwSPI_Master.c **** *
 224:Generated_Source\PSoC4/SwSPI_Master.c **** * Note:
 225:Generated_Source\PSoC4/SwSPI_Master.c **** *  CS must be in active(low) state.
 226:Generated_Source\PSoC4/SwSPI_Master.c **** *  Recieve no more 65535 bytes. (2^16 - 1)
 227:Generated_Source\PSoC4/SwSPI_Master.c **** *
 228:Generated_Source\PSoC4/SwSPI_Master.c **** * Return:
 229:Generated_Source\PSoC4/SwSPI_Master.c **** *  None
 230:Generated_Source\PSoC4/SwSPI_Master.c **** *
 231:Generated_Source\PSoC4/SwSPI_Master.c **** *******************************************************************************/
 232:Generated_Source\PSoC4/SwSPI_Master.c **** 
 233:Generated_Source\PSoC4/SwSPI_Master.c **** 
 234:Generated_Source\PSoC4/SwSPI_Master.c **** void SwSPI_Master_RecvBuff(uint8 *buff, uint16 cnt) 
 235:Generated_Source\PSoC4/SwSPI_Master.c **** {
 407              		.loc 1 235 0
 408              		.cfi_startproc
 409 0000 90B5     		push	{r4, r7, lr}
 410              		.cfi_def_cfa_offset 12
 411              		.cfi_offset 4, -12
 412              		.cfi_offset 7, -8
 413              		.cfi_offset 14, -4
 414 0002 85B0     		sub	sp, sp, #20
 415              		.cfi_def_cfa_offset 32
 416 0004 00AF     		add	r7, sp, #0
 417              		.cfi_def_cfa_register 7
 418 0006 7860     		str	r0, [r7, #4]
 419 0008 0A1C     		mov	r2, r1
 420 000a BB1C     		add	r3, r7, #2
 421 000c 1A80     		strh	r2, [r3]
 236:Generated_Source\PSoC4/SwSPI_Master.c ****     uint16_t tmpData;
 237:Generated_Source\PSoC4/SwSPI_Master.c ****     for (tmpData = 0; tmpData < cnt; tmpData ++)
 422              		.loc 1 237 0
 423 000e 0E23     		mov	r3, #14
 424 0010 FB18     		add	r3, r7, r3
 425 0012 0022     		mov	r2, #0
 426 0014 1A80     		strh	r2, [r3]
 427 0016 0FE0     		b	.L24
 428              	.L25:
 238:Generated_Source\PSoC4/SwSPI_Master.c ****     {
 239:Generated_Source\PSoC4/SwSPI_Master.c ****         buff[tmpData] = SwSPI_Master_RecvByte(); 
 429              		.loc 1 239 0 discriminator 3
 430 0018 0E23     		mov	r3, #14
 431 001a FB18     		add	r3, r7, r3
 432 001c 1B88     		ldrh	r3, [r3]
 433 001e 7A68     		ldr	r2, [r7, #4]
 434 0020 D418     		add	r4, r2, r3
 435 0022 FFF7FEFF 		bl	SwSPI_Master_RecvByte
 436 0026 031C     		mov	r3, r0
 437 0028 2370     		strb	r3, [r4]
 237:Generated_Source\PSoC4/SwSPI_Master.c ****     {
 438              		.loc 1 237 0 discriminator 3
ARM GAS  C:\Users\Petro\AppData\Local\Temp\ccOzssx9.s 			page 13


 439 002a 0E23     		mov	r3, #14
 440 002c FB18     		add	r3, r7, r3
 441 002e 1A88     		ldrh	r2, [r3]
 442 0030 0E23     		mov	r3, #14
 443 0032 FB18     		add	r3, r7, r3
 444 0034 0132     		add	r2, r2, #1
 445 0036 1A80     		strh	r2, [r3]
 446              	.L24:
 237:Generated_Source\PSoC4/SwSPI_Master.c ****     {
 447              		.loc 1 237 0 is_stmt 0 discriminator 1
 448 0038 0E23     		mov	r3, #14
 449 003a FA18     		add	r2, r7, r3
 450 003c BB1C     		add	r3, r7, #2
 451 003e 1288     		ldrh	r2, [r2]
 452 0040 1B88     		ldrh	r3, [r3]
 453 0042 9A42     		cmp	r2, r3
 454 0044 E8D3     		bcc	.L25
 240:Generated_Source\PSoC4/SwSPI_Master.c ****     }
 241:Generated_Source\PSoC4/SwSPI_Master.c **** }
 455              		.loc 1 241 0 is_stmt 1
 456 0046 BD46     		mov	sp, r7
 457 0048 05B0     		add	sp, sp, #20
 458              		@ sp needed
 459 004a 90BD     		pop	{r4, r7, pc}
 460              		.cfi_endproc
 461              	.LFE8:
 462              		.size	SwSPI_Master_RecvBuff, .-SwSPI_Master_RecvBuff
 463              		.section	.text.SwSPI_Master_ReadAndWriteByte,"ax",%progbits
 464              		.align	2
 465              		.global	SwSPI_Master_ReadAndWriteByte
 466              		.code	16
 467              		.thumb_func
 468              		.type	SwSPI_Master_ReadAndWriteByte, %function
 469              	SwSPI_Master_ReadAndWriteByte:
 470              	.LFB9:
 242:Generated_Source\PSoC4/SwSPI_Master.c **** 
 243:Generated_Source\PSoC4/SwSPI_Master.c **** /*******************************************************************************
 244:Generated_Source\PSoC4/SwSPI_Master.c **** * Function Name: SwSPI_Master_ReadAndWriteByte
 245:Generated_Source\PSoC4/SwSPI_Master.c **** ********************************************************************************
 246:Generated_Source\PSoC4/SwSPI_Master.c **** *
 247:Generated_Source\PSoC4/SwSPI_Master.c **** * Summary:
 248:Generated_Source\PSoC4/SwSPI_Master.c **** *  Recieve and Transmitt one bytes via SPI in 8 CLK Periods.
 249:Generated_Source\PSoC4/SwSPI_Master.c **** *  (One SPI Perios).
 250:Generated_Source\PSoC4/SwSPI_Master.c **** *
 251:Generated_Source\PSoC4/SwSPI_Master.c **** * Parameters:
 252:Generated_Source\PSoC4/SwSPI_Master.c **** *  byte: Byte who will be transmitted via SPI.
 253:Generated_Source\PSoC4/SwSPI_Master.c **** *
 254:Generated_Source\PSoC4/SwSPI_Master.c **** * Note:
 255:Generated_Source\PSoC4/SwSPI_Master.c **** *  CS must be in active(low) state.
 256:Generated_Source\PSoC4/SwSPI_Master.c **** *
 257:Generated_Source\PSoC4/SwSPI_Master.c **** * Return:
 258:Generated_Source\PSoC4/SwSPI_Master.c **** *  Byte who will be recieved via SPI.
 259:Generated_Source\PSoC4/SwSPI_Master.c **** *
 260:Generated_Source\PSoC4/SwSPI_Master.c **** *******************************************************************************/
 261:Generated_Source\PSoC4/SwSPI_Master.c **** 
 262:Generated_Source\PSoC4/SwSPI_Master.c **** 
 263:Generated_Source\PSoC4/SwSPI_Master.c **** uint8 SwSPI_Master_ReadAndWriteByte(uint8 byte)
ARM GAS  C:\Users\Petro\AppData\Local\Temp\ccOzssx9.s 			page 14


 264:Generated_Source\PSoC4/SwSPI_Master.c **** {
 471              		.loc 1 264 0
 472              		.cfi_startproc
 473 0000 80B5     		push	{r7, lr}
 474              		.cfi_def_cfa_offset 8
 475              		.cfi_offset 7, -8
 476              		.cfi_offset 14, -4
 477 0002 86B0     		sub	sp, sp, #24
 478              		.cfi_def_cfa_offset 32
 479 0004 00AF     		add	r7, sp, #0
 480              		.cfi_def_cfa_register 7
 481 0006 021C     		mov	r2, r0
 482 0008 FB1D     		add	r3, r7, #7
 483 000a 1A70     		strb	r2, [r3]
 265:Generated_Source\PSoC4/SwSPI_Master.c ****     uint8 countBites;
 266:Generated_Source\PSoC4/SwSPI_Master.c ****     uint32_t tmpBuff = 0;
 484              		.loc 1 266 0
 485 000c 0023     		mov	r3, #0
 486 000e 3B61     		str	r3, [r7, #16]
 267:Generated_Source\PSoC4/SwSPI_Master.c ****     uint8 tmpPin;
 268:Generated_Source\PSoC4/SwSPI_Master.c ****     for (countBites = BITES_ON_ONE_BYTE; countBites > 0; countBites--)
 487              		.loc 1 268 0
 488 0010 1723     		mov	r3, #23
 489 0012 FB18     		add	r3, r7, r3
 490 0014 0822     		mov	r2, #8
 491 0016 1A70     		strb	r2, [r3]
 492 0018 43E0     		b	.L27
 493              	.L31:
 269:Generated_Source\PSoC4/SwSPI_Master.c ****     {
 270:Generated_Source\PSoC4/SwSPI_Master.c ****     
 271:Generated_Source\PSoC4/SwSPI_Master.c ****         if (byte & MASK_HIGH_BIT)
 494              		.loc 1 271 0
 495 001a FB1D     		add	r3, r7, #7
 496 001c 1B78     		ldrb	r3, [r3]
 497 001e 5BB2     		sxtb	r3, r3
 498 0020 002B     		cmp	r3, #0
 499 0022 06DA     		bge	.L28
 272:Generated_Source\PSoC4/SwSPI_Master.c ****         {
 273:Generated_Source\PSoC4/SwSPI_Master.c ****             SwSPI_Master_MOSI_DR_REG |= SwSPI_Master_MOSI;
 500              		.loc 1 273 0
 501 0024 264B     		ldr	r3, .L33
 502 0026 264A     		ldr	r2, .L33
 503 0028 1268     		ldr	r2, [r2]
 504 002a 0421     		mov	r1, #4
 505 002c 0A43     		orr	r2, r1
 506 002e 1A60     		str	r2, [r3]
 507 0030 05E0     		b	.L29
 508              	.L28:
 274:Generated_Source\PSoC4/SwSPI_Master.c ****         }
 275:Generated_Source\PSoC4/SwSPI_Master.c ****         else
 276:Generated_Source\PSoC4/SwSPI_Master.c ****         {
 277:Generated_Source\PSoC4/SwSPI_Master.c ****             SwSPI_Master_MOSI_DR_REG &= ((uint8)(~SwSPI_Master_MOSI));
 509              		.loc 1 277 0
 510 0032 234B     		ldr	r3, .L33
 511 0034 224A     		ldr	r2, .L33
 512 0036 1268     		ldr	r2, [r2]
 513 0038 FB21     		mov	r1, #251
ARM GAS  C:\Users\Petro\AppData\Local\Temp\ccOzssx9.s 			page 15


 514 003a 0A40     		and	r2, r1
 515 003c 1A60     		str	r2, [r3]
 516              	.L29:
 278:Generated_Source\PSoC4/SwSPI_Master.c ****         }
 279:Generated_Source\PSoC4/SwSPI_Master.c ****         
 280:Generated_Source\PSoC4/SwSPI_Master.c ****         SwSPI_Master_SCK_DR_REG |= SwSPI_Master_CLK;
 517              		.loc 1 280 0
 518 003e 204B     		ldr	r3, .L33
 519 0040 1F4A     		ldr	r2, .L33
 520 0042 1268     		ldr	r2, [r2]
 521 0044 0221     		mov	r1, #2
 522 0046 0A43     		orr	r2, r1
 523 0048 1A60     		str	r2, [r3]
 281:Generated_Source\PSoC4/SwSPI_Master.c ****         
 282:Generated_Source\PSoC4/SwSPI_Master.c ****         tmpPin = (uint8)((SwSPI_Master_MISO_PS_REG & SwSPI_Master_MISO_MASK) >> SwSPI_Master_MISO_S
 524              		.loc 1 282 0
 525 004a 1E4B     		ldr	r3, .L33+4
 526 004c 1B68     		ldr	r3, [r3]
 527 004e 0822     		mov	r2, #8
 528 0050 1340     		and	r3, r2
 529 0052 DA08     		lsr	r2, r3, #3
 530 0054 0F23     		mov	r3, #15
 531 0056 FB18     		add	r3, r7, r3
 532 0058 1A70     		strb	r2, [r3]
 283:Generated_Source\PSoC4/SwSPI_Master.c ****         if (tmpPin == 1u)
 533              		.loc 1 283 0
 534 005a 0F23     		mov	r3, #15
 535 005c FB18     		add	r3, r7, r3
 536 005e 1B78     		ldrb	r3, [r3]
 537 0060 012B     		cmp	r3, #1
 538 0062 03D1     		bne	.L30
 284:Generated_Source\PSoC4/SwSPI_Master.c ****         {
 285:Generated_Source\PSoC4/SwSPI_Master.c ****             tmpBuff |= MASK_LOW_BIT;
 539              		.loc 1 285 0
 540 0064 3B69     		ldr	r3, [r7, #16]
 541 0066 0122     		mov	r2, #1
 542 0068 1343     		orr	r3, r2
 543 006a 3B61     		str	r3, [r7, #16]
 544              	.L30:
 286:Generated_Source\PSoC4/SwSPI_Master.c ****         }
 287:Generated_Source\PSoC4/SwSPI_Master.c ****         
 288:Generated_Source\PSoC4/SwSPI_Master.c ****         CyDelayCycles(DELAY_HIGH_STATE);
 545              		.loc 1 288 0 discriminator 2
 546 006c 1420     		mov	r0, #20
 547 006e FFF7FEFF 		bl	CyDelayCycles
 289:Generated_Source\PSoC4/SwSPI_Master.c ****         
 290:Generated_Source\PSoC4/SwSPI_Master.c ****          SwSPI_Master_SCK_DR_REG &= ((uint8)(~SwSPI_Master_CLK));
 548              		.loc 1 290 0 discriminator 2
 549 0072 134B     		ldr	r3, .L33
 550 0074 124A     		ldr	r2, .L33
 551 0076 1268     		ldr	r2, [r2]
 552 0078 FD21     		mov	r1, #253
 553 007a 0A40     		and	r2, r1
 554 007c 1A60     		str	r2, [r3]
 291:Generated_Source\PSoC4/SwSPI_Master.c ****         byte <<=  SHIFT_ONE_BIT;
 555              		.loc 1 291 0 discriminator 2
 556 007e FA1D     		add	r2, r7, #7
ARM GAS  C:\Users\Petro\AppData\Local\Temp\ccOzssx9.s 			page 16


 557 0080 FB1D     		add	r3, r7, #7
 558 0082 1B78     		ldrb	r3, [r3]
 559 0084 DB18     		add	r3, r3, r3
 560 0086 1370     		strb	r3, [r2]
 292:Generated_Source\PSoC4/SwSPI_Master.c ****         tmpBuff <<= SHIFT_ONE_BIT;
 561              		.loc 1 292 0 discriminator 2
 562 0088 3B69     		ldr	r3, [r7, #16]
 563 008a 5B00     		lsl	r3, r3, #1
 564 008c 3B61     		str	r3, [r7, #16]
 293:Generated_Source\PSoC4/SwSPI_Master.c ****         CyDelayCycles(DELAY_LOW_STATE);        
 565              		.loc 1 293 0 discriminator 2
 566 008e 1420     		mov	r0, #20
 567 0090 FFF7FEFF 		bl	CyDelayCycles
 268:Generated_Source\PSoC4/SwSPI_Master.c ****     {
 568              		.loc 1 268 0 discriminator 2
 569 0094 1723     		mov	r3, #23
 570 0096 FB18     		add	r3, r7, r3
 571 0098 1A78     		ldrb	r2, [r3]
 572 009a 1723     		mov	r3, #23
 573 009c FB18     		add	r3, r7, r3
 574 009e 013A     		sub	r2, r2, #1
 575 00a0 1A70     		strb	r2, [r3]
 576              	.L27:
 268:Generated_Source\PSoC4/SwSPI_Master.c ****     {
 577              		.loc 1 268 0 is_stmt 0 discriminator 1
 578 00a2 1723     		mov	r3, #23
 579 00a4 FB18     		add	r3, r7, r3
 580 00a6 1B78     		ldrb	r3, [r3]
 581 00a8 002B     		cmp	r3, #0
 582 00aa B6D1     		bne	.L31
 294:Generated_Source\PSoC4/SwSPI_Master.c ****     }    
 295:Generated_Source\PSoC4/SwSPI_Master.c ****     tmpBuff >>= SHIFT_ONE_BIT;
 583              		.loc 1 295 0 is_stmt 1
 584 00ac 3B69     		ldr	r3, [r7, #16]
 585 00ae 5B08     		lsr	r3, r3, #1
 586 00b0 3B61     		str	r3, [r7, #16]
 296:Generated_Source\PSoC4/SwSPI_Master.c ****         
 297:Generated_Source\PSoC4/SwSPI_Master.c ****     return (uint8_t)tmpBuff;
 587              		.loc 1 297 0
 588 00b2 3B69     		ldr	r3, [r7, #16]
 589 00b4 DBB2     		uxtb	r3, r3
 298:Generated_Source\PSoC4/SwSPI_Master.c ****     
 299:Generated_Source\PSoC4/SwSPI_Master.c **** }    
 590              		.loc 1 299 0
 591 00b6 181C     		mov	r0, r3
 592 00b8 BD46     		mov	sp, r7
 593 00ba 06B0     		add	sp, sp, #24
 594              		@ sp needed
 595 00bc 80BD     		pop	{r7, pc}
 596              	.L34:
 597 00be C046     		.align	2
 598              	.L33:
 599 00c0 00020440 		.word	1074004480
 600 00c4 04020440 		.word	1074004484
 601              		.cfi_endproc
 602              	.LFE9:
 603              		.size	SwSPI_Master_ReadAndWriteByte, .-SwSPI_Master_ReadAndWriteByte
ARM GAS  C:\Users\Petro\AppData\Local\Temp\ccOzssx9.s 			page 17


 604              		.text
 605              	.Letext0:
 606              		.file 2 "c:\\program files (x86)\\cypress\\psoc creator\\4.0\\psoc creator\\import\\gnu\\arm\\4.9.
 607              		.file 3 "c:\\program files (x86)\\cypress\\psoc creator\\4.0\\psoc creator\\import\\gnu\\arm\\4.9.
 608              		.file 4 "Generated_Source\\PSoC4\\cytypes.h"
 609              		.section	.debug_info,"",%progbits
 610              	.Ldebug_info0:
 611 0000 88020000 		.4byte	0x288
 612 0004 0400     		.2byte	0x4
 613 0006 00000000 		.4byte	.Ldebug_abbrev0
 614 000a 04       		.byte	0x4
 615 000b 01       		.uleb128 0x1
 616 000c 6F010000 		.4byte	.LASF36
 617 0010 01       		.byte	0x1
 618 0011 2A000000 		.4byte	.LASF37
 619 0015 63000000 		.4byte	.LASF38
 620 0019 00000000 		.4byte	.Ldebug_ranges0+0
 621 001d 00000000 		.4byte	0
 622 0021 00000000 		.4byte	.Ldebug_line0
 623 0025 02       		.uleb128 0x2
 624 0026 01       		.byte	0x1
 625 0027 06       		.byte	0x6
 626 0028 E5020000 		.4byte	.LASF0
 627 002c 03       		.uleb128 0x3
 628 002d 06000000 		.4byte	.LASF3
 629 0031 02       		.byte	0x2
 630 0032 1D       		.byte	0x1d
 631 0033 37000000 		.4byte	0x37
 632 0037 02       		.uleb128 0x2
 633 0038 01       		.byte	0x1
 634 0039 08       		.byte	0x8
 635 003a EC000000 		.4byte	.LASF1
 636 003e 02       		.uleb128 0x2
 637 003f 02       		.byte	0x2
 638 0040 05       		.byte	0x5
 639 0041 A8020000 		.4byte	.LASF2
 640 0045 03       		.uleb128 0x3
 641 0046 52010000 		.4byte	.LASF4
 642 004a 02       		.byte	0x2
 643 004b 2B       		.byte	0x2b
 644 004c 50000000 		.4byte	0x50
 645 0050 02       		.uleb128 0x2
 646 0051 02       		.byte	0x2
 647 0052 07       		.byte	0x7
 648 0053 50000000 		.4byte	.LASF5
 649 0057 02       		.uleb128 0x2
 650 0058 04       		.byte	0x4
 651 0059 05       		.byte	0x5
 652 005a DC020000 		.4byte	.LASF6
 653 005e 03       		.uleb128 0x3
 654 005f 64010000 		.4byte	.LASF7
 655 0063 02       		.byte	0x2
 656 0064 41       		.byte	0x41
 657 0065 69000000 		.4byte	0x69
 658 0069 02       		.uleb128 0x2
 659 006a 04       		.byte	0x4
 660 006b 07       		.byte	0x7
ARM GAS  C:\Users\Petro\AppData\Local\Temp\ccOzssx9.s 			page 18


 661 006c FA000000 		.4byte	.LASF8
 662 0070 02       		.uleb128 0x2
 663 0071 08       		.byte	0x8
 664 0072 05       		.byte	0x5
 665 0073 95020000 		.4byte	.LASF9
 666 0077 02       		.uleb128 0x2
 667 0078 08       		.byte	0x8
 668 0079 07       		.byte	0x7
 669 007a 36020000 		.4byte	.LASF10
 670 007e 04       		.uleb128 0x4
 671 007f 04       		.byte	0x4
 672 0080 05       		.byte	0x5
 673 0081 696E7400 		.ascii	"int\000"
 674 0085 02       		.uleb128 0x2
 675 0086 04       		.byte	0x4
 676 0087 07       		.byte	0x7
 677 0088 0B020000 		.4byte	.LASF11
 678 008c 03       		.uleb128 0x3
 679 008d 4D020000 		.4byte	.LASF12
 680 0091 03       		.byte	0x3
 681 0092 15       		.byte	0x15
 682 0093 2C000000 		.4byte	0x2c
 683 0097 03       		.uleb128 0x3
 684 0098 CA020000 		.4byte	.LASF13
 685 009c 03       		.byte	0x3
 686 009d 21       		.byte	0x21
 687 009e 45000000 		.4byte	0x45
 688 00a2 03       		.uleb128 0x3
 689 00a3 D3020000 		.4byte	.LASF14
 690 00a7 03       		.byte	0x3
 691 00a8 2D       		.byte	0x2d
 692 00a9 5E000000 		.4byte	0x5e
 693 00ad 05       		.uleb128 0x5
 694 00ae 14010000 		.4byte	.LASF15
 695 00b2 04       		.byte	0x4
 696 00b3 9801     		.2byte	0x198
 697 00b5 37000000 		.4byte	0x37
 698 00b9 05       		.uleb128 0x5
 699 00ba FD010000 		.4byte	.LASF16
 700 00be 04       		.byte	0x4
 701 00bf 9901     		.2byte	0x199
 702 00c1 50000000 		.4byte	0x50
 703 00c5 05       		.uleb128 0x5
 704 00c6 04020000 		.4byte	.LASF17
 705 00ca 04       		.byte	0x4
 706 00cb 9A01     		.2byte	0x19a
 707 00cd 69000000 		.4byte	0x69
 708 00d1 02       		.uleb128 0x2
 709 00d2 04       		.byte	0x4
 710 00d3 04       		.byte	0x4
 711 00d4 D4000000 		.4byte	.LASF18
 712 00d8 02       		.uleb128 0x2
 713 00d9 08       		.byte	0x8
 714 00da 04       		.byte	0x4
 715 00db 5D010000 		.4byte	.LASF19
 716 00df 02       		.uleb128 0x2
 717 00e0 01       		.byte	0x1
ARM GAS  C:\Users\Petro\AppData\Local\Temp\ccOzssx9.s 			page 19


 718 00e1 08       		.byte	0x8
 719 00e2 A3020000 		.4byte	.LASF20
 720 00e6 05       		.uleb128 0x5
 721 00e7 00000000 		.4byte	.LASF21
 722 00eb 04       		.byte	0x4
 723 00ec 4402     		.2byte	0x244
 724 00ee F2000000 		.4byte	0xf2
 725 00f2 06       		.uleb128 0x6
 726 00f3 C5000000 		.4byte	0xc5
 727 00f7 02       		.uleb128 0x2
 728 00f8 04       		.byte	0x4
 729 00f9 07       		.byte	0x7
 730 00fa 81020000 		.4byte	.LASF22
 731 00fe 07       		.uleb128 0x7
 732 00ff DA000000 		.4byte	.LASF23
 733 0103 01       		.byte	0x1
 734 0104 29       		.byte	0x29
 735 0105 00000000 		.4byte	.LFB2
 736 0109 30000000 		.4byte	.LFE2-.LFB2
 737 010d 01       		.uleb128 0x1
 738 010e 9C       		.byte	0x9c
 739 010f 07       		.uleb128 0x7
 740 0110 B2020000 		.4byte	.LASF24
 741 0114 01       		.byte	0x1
 742 0115 40       		.byte	0x40
 743 0116 00000000 		.4byte	.LFB3
 744 011a 08000000 		.4byte	.LFE3-.LFB3
 745 011e 01       		.uleb128 0x1
 746 011f 9C       		.byte	0x9c
 747 0120 07       		.uleb128 0x7
 748 0121 10000000 		.4byte	.LASF25
 749 0125 01       		.byte	0x1
 750 0126 55       		.byte	0x55
 751 0127 00000000 		.4byte	.LFB4
 752 012b 08000000 		.4byte	.LFE4-.LFB4
 753 012f 01       		.uleb128 0x1
 754 0130 9C       		.byte	0x9c
 755 0131 08       		.uleb128 0x8
 756 0132 1A010000 		.4byte	.LASF26
 757 0136 01       		.byte	0x1
 758 0137 6D       		.byte	0x6d
 759 0138 00000000 		.4byte	.LFB5
 760 013c 98000000 		.4byte	.LFE5-.LFB5
 761 0140 01       		.uleb128 0x1
 762 0141 9C       		.byte	0x9c
 763 0142 63010000 		.4byte	0x163
 764 0146 09       		.uleb128 0x9
 765 0147 C7000000 		.4byte	.LASF28
 766 014b 01       		.byte	0x1
 767 014c 6D       		.byte	0x6d
 768 014d AD000000 		.4byte	0xad
 769 0151 02       		.uleb128 0x2
 770 0152 91       		.byte	0x91
 771 0153 6F       		.sleb128 -17
 772 0154 0A       		.uleb128 0xa
 773 0155 8A020000 		.4byte	.LASF30
 774 0159 01       		.byte	0x1
ARM GAS  C:\Users\Petro\AppData\Local\Temp\ccOzssx9.s 			page 20


 775 015a 6F       		.byte	0x6f
 776 015b AD000000 		.4byte	0xad
 777 015f 02       		.uleb128 0x2
 778 0160 91       		.byte	0x91
 779 0161 77       		.sleb128 -9
 780 0162 00       		.byte	0
 781 0163 08       		.uleb128 0x8
 782 0164 55020000 		.4byte	.LASF27
 783 0168 01       		.byte	0x1
 784 0169 9C       		.byte	0x9c
 785 016a 00000000 		.4byte	.LFB6
 786 016e 4C000000 		.4byte	.LFE6-.LFB6
 787 0172 01       		.uleb128 0x1
 788 0173 9C       		.byte	0x9c
 789 0174 A3010000 		.4byte	0x1a3
 790 0178 09       		.uleb128 0x9
 791 0179 4D010000 		.4byte	.LASF29
 792 017d 01       		.byte	0x1
 793 017e 9C       		.byte	0x9c
 794 017f A3010000 		.4byte	0x1a3
 795 0183 02       		.uleb128 0x2
 796 0184 91       		.byte	0x91
 797 0185 6C       		.sleb128 -20
 798 0186 0B       		.uleb128 0xb
 799 0187 636E7400 		.ascii	"cnt\000"
 800 018b 01       		.byte	0x1
 801 018c 9C       		.byte	0x9c
 802 018d B9000000 		.4byte	0xb9
 803 0191 02       		.uleb128 0x2
 804 0192 91       		.byte	0x91
 805 0193 6A       		.sleb128 -22
 806 0194 0A       		.uleb128 0xa
 807 0195 CC000000 		.4byte	.LASF31
 808 0199 01       		.byte	0x1
 809 019a 9E       		.byte	0x9e
 810 019b 97000000 		.4byte	0x97
 811 019f 02       		.uleb128 0x2
 812 01a0 91       		.byte	0x91
 813 01a1 76       		.sleb128 -10
 814 01a2 00       		.byte	0
 815 01a3 0C       		.uleb128 0xc
 816 01a4 04       		.byte	0x4
 817 01a5 A9010000 		.4byte	0x1a9
 818 01a9 0D       		.uleb128 0xd
 819 01aa AD000000 		.4byte	0xad
 820 01ae 0E       		.uleb128 0xe
 821 01af 37010000 		.4byte	.LASF39
 822 01b3 01       		.byte	0x1
 823 01b4 B8       		.byte	0xb8
 824 01b5 AD000000 		.4byte	0xad
 825 01b9 00000000 		.4byte	.LFB7
 826 01bd 98000000 		.4byte	.LFE7-.LFB7
 827 01c1 01       		.uleb128 0x1
 828 01c2 9C       		.byte	0x9c
 829 01c3 F2010000 		.4byte	0x1f2
 830 01c7 0A       		.uleb128 0xa
 831 01c8 8A020000 		.4byte	.LASF30
ARM GAS  C:\Users\Petro\AppData\Local\Temp\ccOzssx9.s 			page 21


 832 01cc 01       		.byte	0x1
 833 01cd BA       		.byte	0xba
 834 01ce A2000000 		.4byte	0xa2
 835 01d2 02       		.uleb128 0x2
 836 01d3 91       		.byte	0x91
 837 01d4 74       		.sleb128 -12
 838 01d5 0A       		.uleb128 0xa
 839 01d6 0C010000 		.4byte	.LASF32
 840 01da 01       		.byte	0x1
 841 01db BB       		.byte	0xbb
 842 01dc A2000000 		.4byte	0xa2
 843 01e0 02       		.uleb128 0x2
 844 01e1 91       		.byte	0x91
 845 01e2 70       		.sleb128 -16
 846 01e3 0A       		.uleb128 0xa
 847 01e4 30010000 		.4byte	.LASF33
 848 01e8 01       		.byte	0x1
 849 01e9 BC       		.byte	0xbc
 850 01ea AD000000 		.4byte	0xad
 851 01ee 02       		.uleb128 0x2
 852 01ef 91       		.byte	0x91
 853 01f0 6F       		.sleb128 -17
 854 01f1 00       		.byte	0
 855 01f2 08       		.uleb128 0x8
 856 01f3 6B020000 		.4byte	.LASF34
 857 01f7 01       		.byte	0x1
 858 01f8 EA       		.byte	0xea
 859 01f9 00000000 		.4byte	.LFB8
 860 01fd 4C000000 		.4byte	.LFE8-.LFB8
 861 0201 01       		.uleb128 0x1
 862 0202 9C       		.byte	0x9c
 863 0203 32020000 		.4byte	0x232
 864 0207 09       		.uleb128 0x9
 865 0208 4D010000 		.4byte	.LASF29
 866 020c 01       		.byte	0x1
 867 020d EA       		.byte	0xea
 868 020e 32020000 		.4byte	0x232
 869 0212 02       		.uleb128 0x2
 870 0213 91       		.byte	0x91
 871 0214 64       		.sleb128 -28
 872 0215 0B       		.uleb128 0xb
 873 0216 636E7400 		.ascii	"cnt\000"
 874 021a 01       		.byte	0x1
 875 021b EA       		.byte	0xea
 876 021c B9000000 		.4byte	0xb9
 877 0220 02       		.uleb128 0x2
 878 0221 91       		.byte	0x91
 879 0222 62       		.sleb128 -30
 880 0223 0A       		.uleb128 0xa
 881 0224 CC000000 		.4byte	.LASF31
 882 0228 01       		.byte	0x1
 883 0229 EC       		.byte	0xec
 884 022a 97000000 		.4byte	0x97
 885 022e 02       		.uleb128 0x2
 886 022f 91       		.byte	0x91
 887 0230 6E       		.sleb128 -18
 888 0231 00       		.byte	0
ARM GAS  C:\Users\Petro\AppData\Local\Temp\ccOzssx9.s 			page 22


 889 0232 0C       		.uleb128 0xc
 890 0233 04       		.byte	0x4
 891 0234 AD000000 		.4byte	0xad
 892 0238 0F       		.uleb128 0xf
 893 0239 18020000 		.4byte	.LASF35
 894 023d 01       		.byte	0x1
 895 023e 0701     		.2byte	0x107
 896 0240 AD000000 		.4byte	0xad
 897 0244 00000000 		.4byte	.LFB9
 898 0248 C8000000 		.4byte	.LFE9-.LFB9
 899 024c 01       		.uleb128 0x1
 900 024d 9C       		.byte	0x9c
 901 024e 10       		.uleb128 0x10
 902 024f C7000000 		.4byte	.LASF28
 903 0253 01       		.byte	0x1
 904 0254 0701     		.2byte	0x107
 905 0256 AD000000 		.4byte	0xad
 906 025a 02       		.uleb128 0x2
 907 025b 91       		.byte	0x91
 908 025c 67       		.sleb128 -25
 909 025d 11       		.uleb128 0x11
 910 025e 8A020000 		.4byte	.LASF30
 911 0262 01       		.byte	0x1
 912 0263 0901     		.2byte	0x109
 913 0265 AD000000 		.4byte	0xad
 914 0269 02       		.uleb128 0x2
 915 026a 91       		.byte	0x91
 916 026b 77       		.sleb128 -9
 917 026c 11       		.uleb128 0x11
 918 026d 0C010000 		.4byte	.LASF32
 919 0271 01       		.byte	0x1
 920 0272 0A01     		.2byte	0x10a
 921 0274 A2000000 		.4byte	0xa2
 922 0278 02       		.uleb128 0x2
 923 0279 91       		.byte	0x91
 924 027a 70       		.sleb128 -16
 925 027b 11       		.uleb128 0x11
 926 027c 30010000 		.4byte	.LASF33
 927 0280 01       		.byte	0x1
 928 0281 0B01     		.2byte	0x10b
 929 0283 AD000000 		.4byte	0xad
 930 0287 02       		.uleb128 0x2
 931 0288 91       		.byte	0x91
 932 0289 6F       		.sleb128 -17
 933 028a 00       		.byte	0
 934 028b 00       		.byte	0
 935              		.section	.debug_abbrev,"",%progbits
 936              	.Ldebug_abbrev0:
 937 0000 01       		.uleb128 0x1
 938 0001 11       		.uleb128 0x11
 939 0002 01       		.byte	0x1
 940 0003 25       		.uleb128 0x25
 941 0004 0E       		.uleb128 0xe
 942 0005 13       		.uleb128 0x13
 943 0006 0B       		.uleb128 0xb
 944 0007 03       		.uleb128 0x3
 945 0008 0E       		.uleb128 0xe
ARM GAS  C:\Users\Petro\AppData\Local\Temp\ccOzssx9.s 			page 23


 946 0009 1B       		.uleb128 0x1b
 947 000a 0E       		.uleb128 0xe
 948 000b 55       		.uleb128 0x55
 949 000c 17       		.uleb128 0x17
 950 000d 11       		.uleb128 0x11
 951 000e 01       		.uleb128 0x1
 952 000f 10       		.uleb128 0x10
 953 0010 17       		.uleb128 0x17
 954 0011 00       		.byte	0
 955 0012 00       		.byte	0
 956 0013 02       		.uleb128 0x2
 957 0014 24       		.uleb128 0x24
 958 0015 00       		.byte	0
 959 0016 0B       		.uleb128 0xb
 960 0017 0B       		.uleb128 0xb
 961 0018 3E       		.uleb128 0x3e
 962 0019 0B       		.uleb128 0xb
 963 001a 03       		.uleb128 0x3
 964 001b 0E       		.uleb128 0xe
 965 001c 00       		.byte	0
 966 001d 00       		.byte	0
 967 001e 03       		.uleb128 0x3
 968 001f 16       		.uleb128 0x16
 969 0020 00       		.byte	0
 970 0021 03       		.uleb128 0x3
 971 0022 0E       		.uleb128 0xe
 972 0023 3A       		.uleb128 0x3a
 973 0024 0B       		.uleb128 0xb
 974 0025 3B       		.uleb128 0x3b
 975 0026 0B       		.uleb128 0xb
 976 0027 49       		.uleb128 0x49
 977 0028 13       		.uleb128 0x13
 978 0029 00       		.byte	0
 979 002a 00       		.byte	0
 980 002b 04       		.uleb128 0x4
 981 002c 24       		.uleb128 0x24
 982 002d 00       		.byte	0
 983 002e 0B       		.uleb128 0xb
 984 002f 0B       		.uleb128 0xb
 985 0030 3E       		.uleb128 0x3e
 986 0031 0B       		.uleb128 0xb
 987 0032 03       		.uleb128 0x3
 988 0033 08       		.uleb128 0x8
 989 0034 00       		.byte	0
 990 0035 00       		.byte	0
 991 0036 05       		.uleb128 0x5
 992 0037 16       		.uleb128 0x16
 993 0038 00       		.byte	0
 994 0039 03       		.uleb128 0x3
 995 003a 0E       		.uleb128 0xe
 996 003b 3A       		.uleb128 0x3a
 997 003c 0B       		.uleb128 0xb
 998 003d 3B       		.uleb128 0x3b
 999 003e 05       		.uleb128 0x5
 1000 003f 49       		.uleb128 0x49
 1001 0040 13       		.uleb128 0x13
 1002 0041 00       		.byte	0
ARM GAS  C:\Users\Petro\AppData\Local\Temp\ccOzssx9.s 			page 24


 1003 0042 00       		.byte	0
 1004 0043 06       		.uleb128 0x6
 1005 0044 35       		.uleb128 0x35
 1006 0045 00       		.byte	0
 1007 0046 49       		.uleb128 0x49
 1008 0047 13       		.uleb128 0x13
 1009 0048 00       		.byte	0
 1010 0049 00       		.byte	0
 1011 004a 07       		.uleb128 0x7
 1012 004b 2E       		.uleb128 0x2e
 1013 004c 00       		.byte	0
 1014 004d 3F       		.uleb128 0x3f
 1015 004e 19       		.uleb128 0x19
 1016 004f 03       		.uleb128 0x3
 1017 0050 0E       		.uleb128 0xe
 1018 0051 3A       		.uleb128 0x3a
 1019 0052 0B       		.uleb128 0xb
 1020 0053 3B       		.uleb128 0x3b
 1021 0054 0B       		.uleb128 0xb
 1022 0055 27       		.uleb128 0x27
 1023 0056 19       		.uleb128 0x19
 1024 0057 11       		.uleb128 0x11
 1025 0058 01       		.uleb128 0x1
 1026 0059 12       		.uleb128 0x12
 1027 005a 06       		.uleb128 0x6
 1028 005b 40       		.uleb128 0x40
 1029 005c 18       		.uleb128 0x18
 1030 005d 9742     		.uleb128 0x2117
 1031 005f 19       		.uleb128 0x19
 1032 0060 00       		.byte	0
 1033 0061 00       		.byte	0
 1034 0062 08       		.uleb128 0x8
 1035 0063 2E       		.uleb128 0x2e
 1036 0064 01       		.byte	0x1
 1037 0065 3F       		.uleb128 0x3f
 1038 0066 19       		.uleb128 0x19
 1039 0067 03       		.uleb128 0x3
 1040 0068 0E       		.uleb128 0xe
 1041 0069 3A       		.uleb128 0x3a
 1042 006a 0B       		.uleb128 0xb
 1043 006b 3B       		.uleb128 0x3b
 1044 006c 0B       		.uleb128 0xb
 1045 006d 27       		.uleb128 0x27
 1046 006e 19       		.uleb128 0x19
 1047 006f 11       		.uleb128 0x11
 1048 0070 01       		.uleb128 0x1
 1049 0071 12       		.uleb128 0x12
 1050 0072 06       		.uleb128 0x6
 1051 0073 40       		.uleb128 0x40
 1052 0074 18       		.uleb128 0x18
 1053 0075 9642     		.uleb128 0x2116
 1054 0077 19       		.uleb128 0x19
 1055 0078 01       		.uleb128 0x1
 1056 0079 13       		.uleb128 0x13
 1057 007a 00       		.byte	0
 1058 007b 00       		.byte	0
 1059 007c 09       		.uleb128 0x9
ARM GAS  C:\Users\Petro\AppData\Local\Temp\ccOzssx9.s 			page 25


 1060 007d 05       		.uleb128 0x5
 1061 007e 00       		.byte	0
 1062 007f 03       		.uleb128 0x3
 1063 0080 0E       		.uleb128 0xe
 1064 0081 3A       		.uleb128 0x3a
 1065 0082 0B       		.uleb128 0xb
 1066 0083 3B       		.uleb128 0x3b
 1067 0084 0B       		.uleb128 0xb
 1068 0085 49       		.uleb128 0x49
 1069 0086 13       		.uleb128 0x13
 1070 0087 02       		.uleb128 0x2
 1071 0088 18       		.uleb128 0x18
 1072 0089 00       		.byte	0
 1073 008a 00       		.byte	0
 1074 008b 0A       		.uleb128 0xa
 1075 008c 34       		.uleb128 0x34
 1076 008d 00       		.byte	0
 1077 008e 03       		.uleb128 0x3
 1078 008f 0E       		.uleb128 0xe
 1079 0090 3A       		.uleb128 0x3a
 1080 0091 0B       		.uleb128 0xb
 1081 0092 3B       		.uleb128 0x3b
 1082 0093 0B       		.uleb128 0xb
 1083 0094 49       		.uleb128 0x49
 1084 0095 13       		.uleb128 0x13
 1085 0096 02       		.uleb128 0x2
 1086 0097 18       		.uleb128 0x18
 1087 0098 00       		.byte	0
 1088 0099 00       		.byte	0
 1089 009a 0B       		.uleb128 0xb
 1090 009b 05       		.uleb128 0x5
 1091 009c 00       		.byte	0
 1092 009d 03       		.uleb128 0x3
 1093 009e 08       		.uleb128 0x8
 1094 009f 3A       		.uleb128 0x3a
 1095 00a0 0B       		.uleb128 0xb
 1096 00a1 3B       		.uleb128 0x3b
 1097 00a2 0B       		.uleb128 0xb
 1098 00a3 49       		.uleb128 0x49
 1099 00a4 13       		.uleb128 0x13
 1100 00a5 02       		.uleb128 0x2
 1101 00a6 18       		.uleb128 0x18
 1102 00a7 00       		.byte	0
 1103 00a8 00       		.byte	0
 1104 00a9 0C       		.uleb128 0xc
 1105 00aa 0F       		.uleb128 0xf
 1106 00ab 00       		.byte	0
 1107 00ac 0B       		.uleb128 0xb
 1108 00ad 0B       		.uleb128 0xb
 1109 00ae 49       		.uleb128 0x49
 1110 00af 13       		.uleb128 0x13
 1111 00b0 00       		.byte	0
 1112 00b1 00       		.byte	0
 1113 00b2 0D       		.uleb128 0xd
 1114 00b3 26       		.uleb128 0x26
 1115 00b4 00       		.byte	0
 1116 00b5 49       		.uleb128 0x49
ARM GAS  C:\Users\Petro\AppData\Local\Temp\ccOzssx9.s 			page 26


 1117 00b6 13       		.uleb128 0x13
 1118 00b7 00       		.byte	0
 1119 00b8 00       		.byte	0
 1120 00b9 0E       		.uleb128 0xe
 1121 00ba 2E       		.uleb128 0x2e
 1122 00bb 01       		.byte	0x1
 1123 00bc 3F       		.uleb128 0x3f
 1124 00bd 19       		.uleb128 0x19
 1125 00be 03       		.uleb128 0x3
 1126 00bf 0E       		.uleb128 0xe
 1127 00c0 3A       		.uleb128 0x3a
 1128 00c1 0B       		.uleb128 0xb
 1129 00c2 3B       		.uleb128 0x3b
 1130 00c3 0B       		.uleb128 0xb
 1131 00c4 27       		.uleb128 0x27
 1132 00c5 19       		.uleb128 0x19
 1133 00c6 49       		.uleb128 0x49
 1134 00c7 13       		.uleb128 0x13
 1135 00c8 11       		.uleb128 0x11
 1136 00c9 01       		.uleb128 0x1
 1137 00ca 12       		.uleb128 0x12
 1138 00cb 06       		.uleb128 0x6
 1139 00cc 40       		.uleb128 0x40
 1140 00cd 18       		.uleb128 0x18
 1141 00ce 9642     		.uleb128 0x2116
 1142 00d0 19       		.uleb128 0x19
 1143 00d1 01       		.uleb128 0x1
 1144 00d2 13       		.uleb128 0x13
 1145 00d3 00       		.byte	0
 1146 00d4 00       		.byte	0
 1147 00d5 0F       		.uleb128 0xf
 1148 00d6 2E       		.uleb128 0x2e
 1149 00d7 01       		.byte	0x1
 1150 00d8 3F       		.uleb128 0x3f
 1151 00d9 19       		.uleb128 0x19
 1152 00da 03       		.uleb128 0x3
 1153 00db 0E       		.uleb128 0xe
 1154 00dc 3A       		.uleb128 0x3a
 1155 00dd 0B       		.uleb128 0xb
 1156 00de 3B       		.uleb128 0x3b
 1157 00df 05       		.uleb128 0x5
 1158 00e0 27       		.uleb128 0x27
 1159 00e1 19       		.uleb128 0x19
 1160 00e2 49       		.uleb128 0x49
 1161 00e3 13       		.uleb128 0x13
 1162 00e4 11       		.uleb128 0x11
 1163 00e5 01       		.uleb128 0x1
 1164 00e6 12       		.uleb128 0x12
 1165 00e7 06       		.uleb128 0x6
 1166 00e8 40       		.uleb128 0x40
 1167 00e9 18       		.uleb128 0x18
 1168 00ea 9642     		.uleb128 0x2116
 1169 00ec 19       		.uleb128 0x19
 1170 00ed 00       		.byte	0
 1171 00ee 00       		.byte	0
 1172 00ef 10       		.uleb128 0x10
 1173 00f0 05       		.uleb128 0x5
ARM GAS  C:\Users\Petro\AppData\Local\Temp\ccOzssx9.s 			page 27


 1174 00f1 00       		.byte	0
 1175 00f2 03       		.uleb128 0x3
 1176 00f3 0E       		.uleb128 0xe
 1177 00f4 3A       		.uleb128 0x3a
 1178 00f5 0B       		.uleb128 0xb
 1179 00f6 3B       		.uleb128 0x3b
 1180 00f7 05       		.uleb128 0x5
 1181 00f8 49       		.uleb128 0x49
 1182 00f9 13       		.uleb128 0x13
 1183 00fa 02       		.uleb128 0x2
 1184 00fb 18       		.uleb128 0x18
 1185 00fc 00       		.byte	0
 1186 00fd 00       		.byte	0
 1187 00fe 11       		.uleb128 0x11
 1188 00ff 34       		.uleb128 0x34
 1189 0100 00       		.byte	0
 1190 0101 03       		.uleb128 0x3
 1191 0102 0E       		.uleb128 0xe
 1192 0103 3A       		.uleb128 0x3a
 1193 0104 0B       		.uleb128 0xb
 1194 0105 3B       		.uleb128 0x3b
 1195 0106 05       		.uleb128 0x5
 1196 0107 49       		.uleb128 0x49
 1197 0108 13       		.uleb128 0x13
 1198 0109 02       		.uleb128 0x2
 1199 010a 18       		.uleb128 0x18
 1200 010b 00       		.byte	0
 1201 010c 00       		.byte	0
 1202 010d 00       		.byte	0
 1203              		.section	.debug_aranges,"",%progbits
 1204 0000 54000000 		.4byte	0x54
 1205 0004 0200     		.2byte	0x2
 1206 0006 00000000 		.4byte	.Ldebug_info0
 1207 000a 04       		.byte	0x4
 1208 000b 00       		.byte	0
 1209 000c 0000     		.2byte	0
 1210 000e 0000     		.2byte	0
 1211 0010 00000000 		.4byte	.LFB2
 1212 0014 30000000 		.4byte	.LFE2-.LFB2
 1213 0018 00000000 		.4byte	.LFB3
 1214 001c 08000000 		.4byte	.LFE3-.LFB3
 1215 0020 00000000 		.4byte	.LFB4
 1216 0024 08000000 		.4byte	.LFE4-.LFB4
 1217 0028 00000000 		.4byte	.LFB5
 1218 002c 98000000 		.4byte	.LFE5-.LFB5
 1219 0030 00000000 		.4byte	.LFB6
 1220 0034 4C000000 		.4byte	.LFE6-.LFB6
 1221 0038 00000000 		.4byte	.LFB7
 1222 003c 98000000 		.4byte	.LFE7-.LFB7
 1223 0040 00000000 		.4byte	.LFB8
 1224 0044 4C000000 		.4byte	.LFE8-.LFB8
 1225 0048 00000000 		.4byte	.LFB9
 1226 004c C8000000 		.4byte	.LFE9-.LFB9
 1227 0050 00000000 		.4byte	0
 1228 0054 00000000 		.4byte	0
 1229              		.section	.debug_ranges,"",%progbits
 1230              	.Ldebug_ranges0:
ARM GAS  C:\Users\Petro\AppData\Local\Temp\ccOzssx9.s 			page 28


 1231 0000 00000000 		.4byte	.LFB2
 1232 0004 30000000 		.4byte	.LFE2
 1233 0008 00000000 		.4byte	.LFB3
 1234 000c 08000000 		.4byte	.LFE3
 1235 0010 00000000 		.4byte	.LFB4
 1236 0014 08000000 		.4byte	.LFE4
 1237 0018 00000000 		.4byte	.LFB5
 1238 001c 98000000 		.4byte	.LFE5
 1239 0020 00000000 		.4byte	.LFB6
 1240 0024 4C000000 		.4byte	.LFE6
 1241 0028 00000000 		.4byte	.LFB7
 1242 002c 98000000 		.4byte	.LFE7
 1243 0030 00000000 		.4byte	.LFB8
 1244 0034 4C000000 		.4byte	.LFE8
 1245 0038 00000000 		.4byte	.LFB9
 1246 003c C8000000 		.4byte	.LFE9
 1247 0040 00000000 		.4byte	0
 1248 0044 00000000 		.4byte	0
 1249              		.section	.debug_line,"",%progbits
 1250              	.Ldebug_line0:
 1251 0000 85020000 		.section	.debug_str,"MS",%progbits,1
 1251      02004101 
 1251      00000201 
 1251      FB0E0D00 
 1251      01010101 
 1252              	.LASF21:
 1253 0000 72656733 		.ascii	"reg32\000"
 1253      3200
 1254              	.LASF3:
 1255 0006 5F5F7569 		.ascii	"__uint8_t\000"
 1255      6E74385F 
 1255      7400
 1256              	.LASF25:
 1257 0010 53775350 		.ascii	"SwSPI_Master_ChipDeselect\000"
 1257      495F4D61 
 1257      73746572 
 1257      5F436869 
 1257      70446573 
 1258              	.LASF37:
 1259 002a 47656E65 		.ascii	"Generated_Source\\PSoC4\\SwSPI_Master.c\000"
 1259      72617465 
 1259      645F536F 
 1259      75726365 
 1259      5C50536F 
 1260              	.LASF5:
 1261 0050 73686F72 		.ascii	"short unsigned int\000"
 1261      7420756E 
 1261      7369676E 
 1261      65642069 
 1261      6E7400
 1262              	.LASF38:
 1263 0063 443A5C43 		.ascii	"D:\\Cypress\\system-start-finish\\vesion 2\\fw\\fin"
 1263      79707265 
 1263      73735C73 
 1263      79737465 
 1263      6D2D7374 
 1264 0091 6973685C 		.ascii	"ish\\sandbox\\v6_ble\\Finish(state machine)\\fin_v0"
ARM GAS  C:\Users\Petro\AppData\Local\Temp\ccOzssx9.s 			page 29


 1264      73616E64 
 1264      626F785C 
 1264      76365F62 
 1264      6C655C46 
 1265 00c0 2E637964 		.ascii	".cydsn\000"
 1265      736E00
 1266              	.LASF28:
 1267 00c7 62797465 		.ascii	"byte\000"
 1267      00
 1268              	.LASF31:
 1269 00cc 746D7044 		.ascii	"tmpData\000"
 1269      61746100 
 1270              	.LASF18:
 1271 00d4 666C6F61 		.ascii	"float\000"
 1271      7400
 1272              	.LASF23:
 1273 00da 53775350 		.ascii	"SwSPI_Master_Init\000"
 1273      495F4D61 
 1273      73746572 
 1273      5F496E69 
 1273      7400
 1274              	.LASF1:
 1275 00ec 756E7369 		.ascii	"unsigned char\000"
 1275      676E6564 
 1275      20636861 
 1275      7200
 1276              	.LASF8:
 1277 00fa 6C6F6E67 		.ascii	"long unsigned int\000"
 1277      20756E73 
 1277      69676E65 
 1277      6420696E 
 1277      7400
 1278              	.LASF32:
 1279 010c 746D7042 		.ascii	"tmpBuff\000"
 1279      75666600 
 1280              	.LASF15:
 1281 0114 75696E74 		.ascii	"uint8\000"
 1281      3800
 1282              	.LASF26:
 1283 011a 53775350 		.ascii	"SwSPI_Master_SendByte\000"
 1283      495F4D61 
 1283      73746572 
 1283      5F53656E 
 1283      64427974 
 1284              	.LASF33:
 1285 0130 746D7050 		.ascii	"tmpPin\000"
 1285      696E00
 1286              	.LASF39:
 1287 0137 53775350 		.ascii	"SwSPI_Master_RecvByte\000"
 1287      495F4D61 
 1287      73746572 
 1287      5F526563 
 1287      76427974 
 1288              	.LASF29:
 1289 014d 62756666 		.ascii	"buff\000"
 1289      00
 1290              	.LASF4:
ARM GAS  C:\Users\Petro\AppData\Local\Temp\ccOzssx9.s 			page 30


 1291 0152 5F5F7569 		.ascii	"__uint16_t\000"
 1291      6E743136 
 1291      5F7400
 1292              	.LASF19:
 1293 015d 646F7562 		.ascii	"double\000"
 1293      6C6500
 1294              	.LASF7:
 1295 0164 5F5F7569 		.ascii	"__uint32_t\000"
 1295      6E743332 
 1295      5F7400
 1296              	.LASF36:
 1297 016f 474E5520 		.ascii	"GNU C 4.9.3 20150303 (release) [ARM/embedded-4_9-br"
 1297      4320342E 
 1297      392E3320 
 1297      32303135 
 1297      30333033 
 1298 01a2 616E6368 		.ascii	"anch revision 221220] -mcpu=cortex-m0 -mthumb -g -O"
 1298      20726576 
 1298      6973696F 
 1298      6E203232 
 1298      31323230 
 1299 01d5 30202D66 		.ascii	"0 -ffunction-sections -ffat-lto-objects\000"
 1299      66756E63 
 1299      74696F6E 
 1299      2D736563 
 1299      74696F6E 
 1300              	.LASF16:
 1301 01fd 75696E74 		.ascii	"uint16\000"
 1301      313600
 1302              	.LASF17:
 1303 0204 75696E74 		.ascii	"uint32\000"
 1303      333200
 1304              	.LASF11:
 1305 020b 756E7369 		.ascii	"unsigned int\000"
 1305      676E6564 
 1305      20696E74 
 1305      00
 1306              	.LASF35:
 1307 0218 53775350 		.ascii	"SwSPI_Master_ReadAndWriteByte\000"
 1307      495F4D61 
 1307      73746572 
 1307      5F526561 
 1307      64416E64 
 1308              	.LASF10:
 1309 0236 6C6F6E67 		.ascii	"long long unsigned int\000"
 1309      206C6F6E 
 1309      6720756E 
 1309      7369676E 
 1309      65642069 
 1310              	.LASF12:
 1311 024d 75696E74 		.ascii	"uint8_t\000"
 1311      385F7400 
 1312              	.LASF27:
 1313 0255 53775350 		.ascii	"SwSPI_Master_SendBuff\000"
 1313      495F4D61 
 1313      73746572 
 1313      5F53656E 
ARM GAS  C:\Users\Petro\AppData\Local\Temp\ccOzssx9.s 			page 31


 1313      64427566 
 1314              	.LASF34:
 1315 026b 53775350 		.ascii	"SwSPI_Master_RecvBuff\000"
 1315      495F4D61 
 1315      73746572 
 1315      5F526563 
 1315      76427566 
 1316              	.LASF22:
 1317 0281 73697A65 		.ascii	"sizetype\000"
 1317      74797065 
 1317      00
 1318              	.LASF30:
 1319 028a 636F756E 		.ascii	"countBites\000"
 1319      74426974 
 1319      657300
 1320              	.LASF9:
 1321 0295 6C6F6E67 		.ascii	"long long int\000"
 1321      206C6F6E 
 1321      6720696E 
 1321      7400
 1322              	.LASF20:
 1323 02a3 63686172 		.ascii	"char\000"
 1323      00
 1324              	.LASF2:
 1325 02a8 73686F72 		.ascii	"short int\000"
 1325      7420696E 
 1325      7400
 1326              	.LASF24:
 1327 02b2 53775350 		.ascii	"SwSPI_Master_ChipSelect\000"
 1327      495F4D61 
 1327      73746572 
 1327      5F436869 
 1327      7053656C 
 1328              	.LASF13:
 1329 02ca 75696E74 		.ascii	"uint16_t\000"
 1329      31365F74 
 1329      00
 1330              	.LASF14:
 1331 02d3 75696E74 		.ascii	"uint32_t\000"
 1331      33325F74 
 1331      00
 1332              	.LASF6:
 1333 02dc 6C6F6E67 		.ascii	"long int\000"
 1333      20696E74 
 1333      00
 1334              	.LASF0:
 1335 02e5 7369676E 		.ascii	"signed char\000"
 1335      65642063 
 1335      68617200 
 1336              		.ident	"GCC: (GNU Tools for ARM Embedded Processors) 4.9.3 20150303 (release) [ARM/embedded-4_9-br
