ARM GAS  C:\Users\Petro\AppData\Local\Temp\ccFtmCRa.s 			page 1


   1              		.cpu cortex-m0
   2              		.fpu softvfp
   3              		.eabi_attribute 20, 1
   4              		.eabi_attribute 21, 1
   5              		.eabi_attribute 23, 3
   6              		.eabi_attribute 24, 1
   7              		.eabi_attribute 25, 1
   8              		.eabi_attribute 26, 1
   9              		.eabi_attribute 30, 6
  10              		.eabi_attribute 34, 0
  11              		.eabi_attribute 18, 4
  12              		.code	16
  13              		.file	"database.c"
  14              		.text
  15              	.Ltext0:
  16              		.cfi_sections	.debug_frame
  17              		.comm	fatFs,560,4
  18              		.comm	fileO,552,4
  19              		.comm	createFlag,4,4
  20              		.comm	skiersStarted,2,2
  21              		.comm	skiersFinished,2,2
  22              		.comm	skierDB,2400,8
  23              		.section	.text.DataBaseStart,"ax",%progbits
  24              		.align	2
  25              		.global	DataBaseStart
  26              		.code	16
  27              		.thumb_func
  28              		.type	DataBaseStart, %function
  29              	DataBaseStart:
  30              	.LFB63:
  31              		.file 1 ".\\lib_DB\\database.c"
   1:.\lib_DB/database.c **** /* ========================================
   2:.\lib_DB/database.c ****  *
   3:.\lib_DB/database.c ****  * Copyright YOUR COMPANY, THE YEAR
   4:.\lib_DB/database.c ****  * All Rights Reserved
   5:.\lib_DB/database.c ****  * UNPUBLISHED, LICENSED SOFTWARE.
   6:.\lib_DB/database.c ****  *
   7:.\lib_DB/database.c ****  * CONFIDENTIAL AND PROPRIETARY INFORMATION
   8:.\lib_DB/database.c ****  * WHICH IS THE PROPERTY OF your company.
   9:.\lib_DB/database.c ****  *
  10:.\lib_DB/database.c ****  * ========================================
  11:.\lib_DB/database.c **** */
  12:.\lib_DB/database.c **** #include <lib_DB\database.h>
  13:.\lib_DB/database.c **** 
  14:.\lib_DB/database.c **** 
  15:.\lib_DB/database.c **** uint32_t DataBaseStart(void)
  16:.\lib_DB/database.c **** {
  32              		.loc 1 16 0
  33              		.cfi_startproc
  34 0000 80B5     		push	{r7, lr}
  35              		.cfi_def_cfa_offset 8
  36              		.cfi_offset 7, -8
  37              		.cfi_offset 14, -4
  38 0002 82B0     		sub	sp, sp, #8
  39              		.cfi_def_cfa_offset 16
  40 0004 00AF     		add	r7, sp, #0
  41              		.cfi_def_cfa_register 7
ARM GAS  C:\Users\Petro\AppData\Local\Temp\ccFtmCRa.s 			page 2


  17:.\lib_DB/database.c ****     uint32_t result; 
  18:.\lib_DB/database.c ****     result = logStart();
  42              		.loc 1 18 0
  43 0006 FFF7FEFF 		bl	logStart
  44 000a 031C     		mov	r3, r0
  45 000c 7B60     		str	r3, [r7, #4]
  19:.\lib_DB/database.c ****     return result;
  46              		.loc 1 19 0
  47 000e 7B68     		ldr	r3, [r7, #4]
  20:.\lib_DB/database.c **** }
  48              		.loc 1 20 0
  49 0010 181C     		mov	r0, r3
  50 0012 BD46     		mov	sp, r7
  51 0014 02B0     		add	sp, sp, #8
  52              		@ sp needed
  53 0016 80BD     		pop	{r7, pc}
  54              		.cfi_endproc
  55              	.LFE63:
  56              		.size	DataBaseStart, .-DataBaseStart
  57              		.section	.text.WriteStartTime,"ax",%progbits
  58              		.align	2
  59              		.global	WriteStartTime
  60              		.code	16
  61              		.thumb_func
  62              		.type	WriteStartTime, %function
  63              	WriteStartTime:
  64              	.LFB64:
  21:.\lib_DB/database.c **** /*******************************************************************************
  22:.\lib_DB/database.c **** * Function Name: DatabaseWrite
  23:.\lib_DB/database.c **** ********************************************************************************
  24:.\lib_DB/database.c **** *
  25:.\lib_DB/database.c **** * * record the results in a database
  26:.\lib_DB/database.c **** *
  27:.\lib_DB/database.c **** * Return:
  28:.\lib_DB/database.c **** *  true(record successful) or false(record is not successful))
  29:.\lib_DB/database.c **** *******************************************************************************/
  30:.\lib_DB/database.c **** uint32_t WriteStartTime(uint64_t unixTime, uint16_t mills)
  31:.\lib_DB/database.c **** {
  65              		.loc 1 31 0
  66              		.cfi_startproc
  67 0000 90B5     		push	{r4, r7, lr}
  68              		.cfi_def_cfa_offset 12
  69              		.cfi_offset 4, -12
  70              		.cfi_offset 7, -8
  71              		.cfi_offset 14, -4
  72 0002 85B0     		sub	sp, sp, #20
  73              		.cfi_def_cfa_offset 32
  74 0004 00AF     		add	r7, sp, #0
  75              		.cfi_def_cfa_register 7
  76 0006 B860     		str	r0, [r7, #8]
  77 0008 F960     		str	r1, [r7, #12]
  78 000a BB1D     		add	r3, r7, #6
  79 000c 1A80     		strh	r2, [r3]
  32:.\lib_DB/database.c ****     skierDB[skiersStarted].millsStartSkier = mills;
  80              		.loc 1 32 0
  81 000e 124B     		ldr	r3, .L5
  82 0010 1B88     		ldrh	r3, [r3]
ARM GAS  C:\Users\Petro\AppData\Local\Temp\ccFtmCRa.s 			page 3


  83 0012 191C     		mov	r1, r3
  84 0014 114A     		ldr	r2, .L5+4
  85 0016 0B1C     		mov	r3, r1
  86 0018 5B00     		lsl	r3, r3, #1
  87 001a 5B18     		add	r3, r3, r1
  88 001c 1B01     		lsl	r3, r3, #4
  89 001e D318     		add	r3, r2, r3
  90 0020 0833     		add	r3, r3, #8
  91 0022 BA1D     		add	r2, r7, #6
  92 0024 1288     		ldrh	r2, [r2]
  93 0026 1A80     		strh	r2, [r3]
  33:.\lib_DB/database.c ****     skierDB[skiersStarted].unixStartSkier = unixTime;
  94              		.loc 1 33 0
  95 0028 0B4B     		ldr	r3, .L5
  96 002a 1B88     		ldrh	r3, [r3]
  97 002c 191C     		mov	r1, r3
  98 002e 0B4A     		ldr	r2, .L5+4
  99 0030 0B1C     		mov	r3, r1
 100 0032 5B00     		lsl	r3, r3, #1
 101 0034 5B18     		add	r3, r3, r1
 102 0036 1B01     		lsl	r3, r3, #4
 103 0038 D218     		add	r2, r2, r3
 104 003a BB68     		ldr	r3, [r7, #8]
 105 003c FC68     		ldr	r4, [r7, #12]
 106 003e 1360     		str	r3, [r2]
 107 0040 5460     		str	r4, [r2, #4]
  34:.\lib_DB/database.c ****     
  35:.\lib_DB/database.c ****     skiersStarted++;
 108              		.loc 1 35 0
 109 0042 054B     		ldr	r3, .L5
 110 0044 1B88     		ldrh	r3, [r3]
 111 0046 0133     		add	r3, r3, #1
 112 0048 9AB2     		uxth	r2, r3
 113 004a 034B     		ldr	r3, .L5
 114 004c 1A80     		strh	r2, [r3]
  36:.\lib_DB/database.c ****     return true;
 115              		.loc 1 36 0
 116 004e 0123     		mov	r3, #1
  37:.\lib_DB/database.c **** }
 117              		.loc 1 37 0
 118 0050 181C     		mov	r0, r3
 119 0052 BD46     		mov	sp, r7
 120 0054 05B0     		add	sp, sp, #20
 121              		@ sp needed
 122 0056 90BD     		pop	{r4, r7, pc}
 123              	.L6:
 124              		.align	2
 125              	.L5:
 126 0058 00000000 		.word	skiersStarted
 127 005c 00000000 		.word	skierDB
 128              		.cfi_endproc
 129              	.LFE64:
 130              		.size	WriteStartTime, .-WriteStartTime
 131              		.section	.text.WriteFinishTime,"ax",%progbits
 132              		.align	2
 133              		.global	WriteFinishTime
 134              		.code	16
ARM GAS  C:\Users\Petro\AppData\Local\Temp\ccFtmCRa.s 			page 4


 135              		.thumb_func
 136              		.type	WriteFinishTime, %function
 137              	WriteFinishTime:
 138              	.LFB65:
  38:.\lib_DB/database.c **** 
  39:.\lib_DB/database.c **** 
  40:.\lib_DB/database.c **** uint32_t WriteFinishTime(uint64_t unixTime, uint16_t mills)
  41:.\lib_DB/database.c **** {
 139              		.loc 1 41 0
 140              		.cfi_startproc
 141 0000 90B5     		push	{r4, r7, lr}
 142              		.cfi_def_cfa_offset 12
 143              		.cfi_offset 4, -12
 144              		.cfi_offset 7, -8
 145              		.cfi_offset 14, -4
 146 0002 85B0     		sub	sp, sp, #20
 147              		.cfi_def_cfa_offset 32
 148 0004 00AF     		add	r7, sp, #0
 149              		.cfi_def_cfa_register 7
 150 0006 B860     		str	r0, [r7, #8]
 151 0008 F960     		str	r1, [r7, #12]
 152 000a BB1D     		add	r3, r7, #6
 153 000c 1A80     		strh	r2, [r3]
  42:.\lib_DB/database.c ****     uint32_t result;
  43:.\lib_DB/database.c ****     
  44:.\lib_DB/database.c ****     skierDB[skiersFinished].millsFinishSkier = mills;
 154              		.loc 1 44 0
 155 000e 164B     		ldr	r3, .L9
 156 0010 1B88     		ldrh	r3, [r3]
 157 0012 191C     		mov	r1, r3
 158 0014 154A     		ldr	r2, .L9+4
 159 0016 0B1C     		mov	r3, r1
 160 0018 5B00     		lsl	r3, r3, #1
 161 001a 5B18     		add	r3, r3, r1
 162 001c 1B01     		lsl	r3, r3, #4
 163 001e D318     		add	r3, r2, r3
 164 0020 1833     		add	r3, r3, #24
 165 0022 BA1D     		add	r2, r7, #6
 166 0024 1288     		ldrh	r2, [r2]
 167 0026 1A80     		strh	r2, [r3]
  45:.\lib_DB/database.c ****     skierDB[skiersFinished].unixFinishSkier = unixTime;
 168              		.loc 1 45 0
 169 0028 0F4B     		ldr	r3, .L9
 170 002a 1B88     		ldrh	r3, [r3]
 171 002c 191C     		mov	r1, r3
 172 002e 0F4A     		ldr	r2, .L9+4
 173 0030 0B1C     		mov	r3, r1
 174 0032 5B00     		lsl	r3, r3, #1
 175 0034 5B18     		add	r3, r3, r1
 176 0036 1B01     		lsl	r3, r3, #4
 177 0038 D318     		add	r3, r2, r3
 178 003a 1033     		add	r3, r3, #16
 179 003c 1A1C     		mov	r2, r3
 180 003e BB68     		ldr	r3, [r7, #8]
 181 0040 FC68     		ldr	r4, [r7, #12]
 182 0042 1360     		str	r3, [r2]
 183 0044 5460     		str	r4, [r2, #4]
ARM GAS  C:\Users\Petro\AppData\Local\Temp\ccFtmCRa.s 			page 5


  46:.\lib_DB/database.c ****     TimeOnWay(skiersFinished);
 184              		.loc 1 46 0
 185 0046 084B     		ldr	r3, .L9
 186 0048 1B88     		ldrh	r3, [r3]
 187 004a 181C     		mov	r0, r3
 188 004c FFF7FEFF 		bl	TimeOnWay
  47:.\lib_DB/database.c ****     
  48:.\lib_DB/database.c ****     
  49:.\lib_DB/database.c ****     skiersFinished++;
 189              		.loc 1 49 0
 190 0050 054B     		ldr	r3, .L9
 191 0052 1B88     		ldrh	r3, [r3]
 192 0054 0133     		add	r3, r3, #1
 193 0056 9AB2     		uxth	r2, r3
 194 0058 034B     		ldr	r3, .L9
 195 005a 1A80     		strh	r2, [r3]
  50:.\lib_DB/database.c ****     return true;
 196              		.loc 1 50 0
 197 005c 0123     		mov	r3, #1
  51:.\lib_DB/database.c **** }
 198              		.loc 1 51 0
 199 005e 181C     		mov	r0, r3
 200 0060 BD46     		mov	sp, r7
 201 0062 05B0     		add	sp, sp, #20
 202              		@ sp needed
 203 0064 90BD     		pop	{r4, r7, pc}
 204              	.L10:
 205 0066 C046     		.align	2
 206              	.L9:
 207 0068 00000000 		.word	skiersFinished
 208 006c 00000000 		.word	skierDB
 209              		.cfi_endproc
 210              	.LFE65:
 211              		.size	WriteFinishTime, .-WriteFinishTime
 212              		.section	.text.SkierOnWay,"ax",%progbits
 213              		.align	2
 214              		.global	SkierOnWay
 215              		.code	16
 216              		.thumb_func
 217              		.type	SkierOnWay, %function
 218              	SkierOnWay:
 219              	.LFB66:
  52:.\lib_DB/database.c **** 
  53:.\lib_DB/database.c **** uint32_t SkierOnWay()
  54:.\lib_DB/database.c **** {
 220              		.loc 1 54 0
 221              		.cfi_startproc
 222 0000 80B5     		push	{r7, lr}
 223              		.cfi_def_cfa_offset 8
 224              		.cfi_offset 7, -8
 225              		.cfi_offset 14, -4
 226 0002 00AF     		add	r7, sp, #0
 227              		.cfi_def_cfa_register 7
  55:.\lib_DB/database.c ****     return skiersStarted - skiersFinished;
 228              		.loc 1 55 0
 229 0004 044B     		ldr	r3, .L13
 230 0006 1B88     		ldrh	r3, [r3]
ARM GAS  C:\Users\Petro\AppData\Local\Temp\ccFtmCRa.s 			page 6


 231 0008 1A1C     		mov	r2, r3
 232 000a 044B     		ldr	r3, .L13+4
 233 000c 1B88     		ldrh	r3, [r3]
 234 000e D31A     		sub	r3, r2, r3
  56:.\lib_DB/database.c **** }
 235              		.loc 1 56 0
 236 0010 181C     		mov	r0, r3
 237 0012 BD46     		mov	sp, r7
 238              		@ sp needed
 239 0014 80BD     		pop	{r7, pc}
 240              	.L14:
 241 0016 C046     		.align	2
 242              	.L13:
 243 0018 00000000 		.word	skiersStarted
 244 001c 00000000 		.word	skiersFinished
 245              		.cfi_endproc
 246              	.LFE66:
 247              		.size	SkierOnWay, .-SkierOnWay
 248              		.section	.text.TimeOnWay,"ax",%progbits
 249              		.align	2
 250              		.global	TimeOnWay
 251              		.code	16
 252              		.thumb_func
 253              		.type	TimeOnWay, %function
 254              	TimeOnWay:
 255              	.LFB67:
  57:.\lib_DB/database.c **** 
  58:.\lib_DB/database.c **** uint32_t TimeOnWay(uint32_t Number)
  59:.\lib_DB/database.c **** {
 256              		.loc 1 59 0
 257              		.cfi_startproc
 258 0000 90B5     		push	{r4, r7, lr}
 259              		.cfi_def_cfa_offset 12
 260              		.cfi_offset 4, -12
 261              		.cfi_offset 7, -8
 262              		.cfi_offset 14, -4
 263 0002 83B0     		sub	sp, sp, #12
 264              		.cfi_def_cfa_offset 24
 265 0004 00AF     		add	r7, sp, #0
 266              		.cfi_def_cfa_register 7
 267 0006 7860     		str	r0, [r7, #4]
  60:.\lib_DB/database.c ****     skierDB[Number].SecondsWay =  skierDB[Number].unixFinishSkier - skierDB[Number].unixStartSkier;
 268              		.loc 1 60 0
 269 0008 3D49     		ldr	r1, .L17
 270 000a 7A68     		ldr	r2, [r7, #4]
 271 000c 131C     		mov	r3, r2
 272 000e 5B00     		lsl	r3, r3, #1
 273 0010 9B18     		add	r3, r3, r2
 274 0012 1B01     		lsl	r3, r3, #4
 275 0014 CB18     		add	r3, r1, r3
 276 0016 1033     		add	r3, r3, #16
 277 0018 1968     		ldr	r1, [r3]
 278 001a 5A68     		ldr	r2, [r3, #4]
 279 001c 384C     		ldr	r4, .L17
 280 001e 7868     		ldr	r0, [r7, #4]
 281 0020 031C     		mov	r3, r0
 282 0022 5B00     		lsl	r3, r3, #1
ARM GAS  C:\Users\Petro\AppData\Local\Temp\ccFtmCRa.s 			page 7


 283 0024 1B18     		add	r3, r3, r0
 284 0026 1B01     		lsl	r3, r3, #4
 285 0028 E318     		add	r3, r4, r3
 286 002a 5C68     		ldr	r4, [r3, #4]
 287 002c 1B68     		ldr	r3, [r3]
 288 002e C91A     		sub	r1, r1, r3
 289 0030 A241     		sbc	r2, r2, r4
 290 0032 334C     		ldr	r4, .L17
 291 0034 7868     		ldr	r0, [r7, #4]
 292 0036 031C     		mov	r3, r0
 293 0038 5B00     		lsl	r3, r3, #1
 294 003a 1B18     		add	r3, r3, r0
 295 003c 1B01     		lsl	r3, r3, #4
 296 003e E318     		add	r3, r4, r3
 297 0040 2033     		add	r3, r3, #32
 298 0042 1960     		str	r1, [r3]
 299 0044 5A60     		str	r2, [r3, #4]
  61:.\lib_DB/database.c ****     skierDB[Number].millsWay =  skierDB[Number].millsFinishSkier - skierDB[Number].millsStartSkier;
 300              		.loc 1 61 0
 301 0046 2E49     		ldr	r1, .L17
 302 0048 7A68     		ldr	r2, [r7, #4]
 303 004a 131C     		mov	r3, r2
 304 004c 5B00     		lsl	r3, r3, #1
 305 004e 9B18     		add	r3, r3, r2
 306 0050 1B01     		lsl	r3, r3, #4
 307 0052 CB18     		add	r3, r1, r3
 308 0054 1833     		add	r3, r3, #24
 309 0056 1988     		ldrh	r1, [r3]
 310 0058 2948     		ldr	r0, .L17
 311 005a 7A68     		ldr	r2, [r7, #4]
 312 005c 131C     		mov	r3, r2
 313 005e 5B00     		lsl	r3, r3, #1
 314 0060 9B18     		add	r3, r3, r2
 315 0062 1B01     		lsl	r3, r3, #4
 316 0064 C318     		add	r3, r0, r3
 317 0066 0833     		add	r3, r3, #8
 318 0068 1B88     		ldrh	r3, [r3]
 319 006a CB1A     		sub	r3, r1, r3
 320 006c 98B2     		uxth	r0, r3
 321 006e 2449     		ldr	r1, .L17
 322 0070 7A68     		ldr	r2, [r7, #4]
 323 0072 131C     		mov	r3, r2
 324 0074 5B00     		lsl	r3, r3, #1
 325 0076 9B18     		add	r3, r3, r2
 326 0078 1B01     		lsl	r3, r3, #4
 327 007a CB18     		add	r3, r1, r3
 328 007c 2833     		add	r3, r3, #40
 329 007e 021C     		add	r2, r0, #0
 330 0080 1A80     		strh	r2, [r3]
  62:.\lib_DB/database.c ****     if (skierDB[Number].millsWay > 1000u)
 331              		.loc 1 62 0
 332 0082 1F49     		ldr	r1, .L17
 333 0084 7A68     		ldr	r2, [r7, #4]
 334 0086 131C     		mov	r3, r2
 335 0088 5B00     		lsl	r3, r3, #1
 336 008a 9B18     		add	r3, r3, r2
 337 008c 1B01     		lsl	r3, r3, #4
ARM GAS  C:\Users\Petro\AppData\Local\Temp\ccFtmCRa.s 			page 8


 338 008e CB18     		add	r3, r1, r3
 339 0090 2833     		add	r3, r3, #40
 340 0092 1A88     		ldrh	r2, [r3]
 341 0094 FA23     		mov	r3, #250
 342 0096 9B00     		lsl	r3, r3, #2
 343 0098 9A42     		cmp	r2, r3
 344 009a 2DD9     		bls	.L16
  63:.\lib_DB/database.c ****     {
  64:.\lib_DB/database.c ****         skierDB[Number].SecondsWay--;
 345              		.loc 1 64 0
 346 009c 1849     		ldr	r1, .L17
 347 009e 7A68     		ldr	r2, [r7, #4]
 348 00a0 131C     		mov	r3, r2
 349 00a2 5B00     		lsl	r3, r3, #1
 350 00a4 9B18     		add	r3, r3, r2
 351 00a6 1B01     		lsl	r3, r3, #4
 352 00a8 CB18     		add	r3, r1, r3
 353 00aa 2033     		add	r3, r3, #32
 354 00ac 5C68     		ldr	r4, [r3, #4]
 355 00ae 1B68     		ldr	r3, [r3]
 356 00b0 0121     		mov	r1, #1
 357 00b2 4942     		neg	r1, r1
 358 00b4 CA17     		asr	r2, r1, #31
 359 00b6 C918     		add	r1, r1, r3
 360 00b8 6241     		adc	r2, r2, r4
 361 00ba 114C     		ldr	r4, .L17
 362 00bc 7868     		ldr	r0, [r7, #4]
 363 00be 031C     		mov	r3, r0
 364 00c0 5B00     		lsl	r3, r3, #1
 365 00c2 1B18     		add	r3, r3, r0
 366 00c4 1B01     		lsl	r3, r3, #4
 367 00c6 E318     		add	r3, r4, r3
 368 00c8 2033     		add	r3, r3, #32
 369 00ca 1960     		str	r1, [r3]
 370 00cc 5A60     		str	r2, [r3, #4]
  65:.\lib_DB/database.c ****         skierDB[Number].millsWay = 0 - skierDB[Number].millsWay;
 371              		.loc 1 65 0
 372 00ce 0C49     		ldr	r1, .L17
 373 00d0 7A68     		ldr	r2, [r7, #4]
 374 00d2 131C     		mov	r3, r2
 375 00d4 5B00     		lsl	r3, r3, #1
 376 00d6 9B18     		add	r3, r3, r2
 377 00d8 1B01     		lsl	r3, r3, #4
 378 00da CB18     		add	r3, r1, r3
 379 00dc 2833     		add	r3, r3, #40
 380 00de 1B88     		ldrh	r3, [r3]
 381 00e0 5B42     		neg	r3, r3
 382 00e2 98B2     		uxth	r0, r3
 383 00e4 0649     		ldr	r1, .L17
 384 00e6 7A68     		ldr	r2, [r7, #4]
 385 00e8 131C     		mov	r3, r2
 386 00ea 5B00     		lsl	r3, r3, #1
 387 00ec 9B18     		add	r3, r3, r2
 388 00ee 1B01     		lsl	r3, r3, #4
 389 00f0 CB18     		add	r3, r1, r3
 390 00f2 2833     		add	r3, r3, #40
 391 00f4 021C     		add	r2, r0, #0
ARM GAS  C:\Users\Petro\AppData\Local\Temp\ccFtmCRa.s 			page 9


 392 00f6 1A80     		strh	r2, [r3]
 393              	.L16:
  66:.\lib_DB/database.c ****     }
  67:.\lib_DB/database.c **** }
 394              		.loc 1 67 0
 395 00f8 181C     		mov	r0, r3
 396 00fa BD46     		mov	sp, r7
 397 00fc 03B0     		add	sp, sp, #12
 398              		@ sp needed
 399 00fe 90BD     		pop	{r4, r7, pc}
 400              	.L18:
 401              		.align	2
 402              	.L17:
 403 0100 00000000 		.word	skierDB
 404              		.cfi_endproc
 405              	.LFE67:
 406              		.size	TimeOnWay, .-TimeOnWay
 407              		.section	.text.LastSecTimeOnWay,"ax",%progbits
 408              		.align	2
 409              		.global	LastSecTimeOnWay
 410              		.code	16
 411              		.thumb_func
 412              		.type	LastSecTimeOnWay, %function
 413              	LastSecTimeOnWay:
 414              	.LFB68:
  68:.\lib_DB/database.c **** 
  69:.\lib_DB/database.c **** uint32_t LastSecTimeOnWay()
  70:.\lib_DB/database.c **** {
 415              		.loc 1 70 0
 416              		.cfi_startproc
 417 0000 90B5     		push	{r4, r7, lr}
 418              		.cfi_def_cfa_offset 12
 419              		.cfi_offset 4, -12
 420              		.cfi_offset 7, -8
 421              		.cfi_offset 14, -4
 422 0002 00AF     		add	r7, sp, #0
 423              		.cfi_def_cfa_register 7
  71:.\lib_DB/database.c ****     return skierDB[skiersFinished-1].SecondsWay;
 424              		.loc 1 71 0
 425 0004 074B     		ldr	r3, .L21
 426 0006 1B88     		ldrh	r3, [r3]
 427 0008 5A1E     		sub	r2, r3, #1
 428 000a 0749     		ldr	r1, .L21+4
 429 000c 131C     		mov	r3, r2
 430 000e 5B00     		lsl	r3, r3, #1
 431 0010 9B18     		add	r3, r3, r2
 432 0012 1B01     		lsl	r3, r3, #4
 433 0014 CB18     		add	r3, r1, r3
 434 0016 2033     		add	r3, r3, #32
 435 0018 5C68     		ldr	r4, [r3, #4]
 436 001a 1B68     		ldr	r3, [r3]
  72:.\lib_DB/database.c **** }
 437              		.loc 1 72 0
 438 001c 181C     		mov	r0, r3
 439 001e BD46     		mov	sp, r7
 440              		@ sp needed
 441 0020 90BD     		pop	{r4, r7, pc}
ARM GAS  C:\Users\Petro\AppData\Local\Temp\ccFtmCRa.s 			page 10


 442              	.L22:
 443 0022 C046     		.align	2
 444              	.L21:
 445 0024 00000000 		.word	skiersFinished
 446 0028 00000000 		.word	skierDB
 447              		.cfi_endproc
 448              	.LFE68:
 449              		.size	LastSecTimeOnWay, .-LastSecTimeOnWay
 450              		.section	.text.LastMillsTimeOnWay,"ax",%progbits
 451              		.align	2
 452              		.global	LastMillsTimeOnWay
 453              		.code	16
 454              		.thumb_func
 455              		.type	LastMillsTimeOnWay, %function
 456              	LastMillsTimeOnWay:
 457              	.LFB69:
  73:.\lib_DB/database.c **** 
  74:.\lib_DB/database.c **** uint32_t LastMillsTimeOnWay()
  75:.\lib_DB/database.c **** {
 458              		.loc 1 75 0
 459              		.cfi_startproc
 460 0000 80B5     		push	{r7, lr}
 461              		.cfi_def_cfa_offset 8
 462              		.cfi_offset 7, -8
 463              		.cfi_offset 14, -4
 464 0002 00AF     		add	r7, sp, #0
 465              		.cfi_def_cfa_register 7
  76:.\lib_DB/database.c ****     return skierDB[skiersFinished-1].millsWay;
 466              		.loc 1 76 0
 467 0004 064B     		ldr	r3, .L25
 468 0006 1B88     		ldrh	r3, [r3]
 469 0008 5A1E     		sub	r2, r3, #1
 470 000a 0649     		ldr	r1, .L25+4
 471 000c 131C     		mov	r3, r2
 472 000e 5B00     		lsl	r3, r3, #1
 473 0010 9B18     		add	r3, r3, r2
 474 0012 1B01     		lsl	r3, r3, #4
 475 0014 CB18     		add	r3, r1, r3
 476 0016 2833     		add	r3, r3, #40
 477 0018 1B88     		ldrh	r3, [r3]
  77:.\lib_DB/database.c **** }
 478              		.loc 1 77 0
 479 001a 181C     		mov	r0, r3
 480 001c BD46     		mov	sp, r7
 481              		@ sp needed
 482 001e 80BD     		pop	{r7, pc}
 483              	.L26:
 484              		.align	2
 485              	.L25:
 486 0020 00000000 		.word	skiersFinished
 487 0024 00000000 		.word	skierDB
 488              		.cfi_endproc
 489              	.LFE69:
 490              		.size	LastMillsTimeOnWay, .-LastMillsTimeOnWay
 491              		.text
 492              	.Letext0:
 493              		.file 2 "c:\\program files (x86)\\cypress\\psoc creator\\3.3\\psoc creator\\import\\gnu\\arm\\4.9.
ARM GAS  C:\Users\Petro\AppData\Local\Temp\ccFtmCRa.s 			page 11


 494              		.file 3 "c:\\program files (x86)\\cypress\\psoc creator\\3.3\\psoc creator\\import\\gnu\\arm\\4.9.
 495              		.file 4 "./lib_DB\\database.h"
 496              		.file 5 "./lib_Fat\\integer.h"
 497              		.file 6 "./lib_Fat\\ff.h"
 498              		.file 7 "./lib_DB\\logResult.h"