ARM GAS  C:\Users\Petro\AppData\Local\Temp\cctt6O6a.s 			page 1


   1              		.cpu cortex-m0
   2              		.fpu softvfp
   3              		.eabi_attribute 20, 1
   4              		.eabi_attribute 21, 1
   5              		.eabi_attribute 23, 3
   6              		.eabi_attribute 24, 1
   7              		.eabi_attribute 25, 1
   8              		.eabi_attribute 26, 1
   9              		.eabi_attribute 30, 6
  10              		.eabi_attribute 34, 0
  11              		.eabi_attribute 18, 4
  12              		.code	16
  13              		.file	"cyfitter_cfg.c"
  14              		.text
  15              	.Ltext0:
  16              		.cfi_sections	.debug_frame
  17              		.section	.text.CYMEMZERO,"ax",%progbits
  18              		.align	2
  19              		.code	16
  20              		.thumb_func
  21              		.type	CYMEMZERO, %function
  22              	CYMEMZERO:
  23              	.LFB2:
  24              		.file 1 ".\\Generated_Source\\PSoC4\\cyfitter_cfg.c"
   1:.\Generated_Source\PSoC4/cyfitter_cfg.c **** /*******************************************************************************
   2:.\Generated_Source\PSoC4/cyfitter_cfg.c **** * File Name: cyfitter_cfg.c
   3:.\Generated_Source\PSoC4/cyfitter_cfg.c **** * 
   4:.\Generated_Source\PSoC4/cyfitter_cfg.c **** * PSoC Creator  3.3 SP2
   5:.\Generated_Source\PSoC4/cyfitter_cfg.c **** *
   6:.\Generated_Source\PSoC4/cyfitter_cfg.c **** * Description:
   7:.\Generated_Source\PSoC4/cyfitter_cfg.c **** * This file contains device initialization code.
   8:.\Generated_Source\PSoC4/cyfitter_cfg.c **** * Except for the user defined sections in CyClockStartupError(), this file should not be modified.
   9:.\Generated_Source\PSoC4/cyfitter_cfg.c **** * This file is automatically generated by PSoC Creator.
  10:.\Generated_Source\PSoC4/cyfitter_cfg.c **** *
  11:.\Generated_Source\PSoC4/cyfitter_cfg.c **** ********************************************************************************
  12:.\Generated_Source\PSoC4/cyfitter_cfg.c **** * Copyright (c) 2007-2016 Cypress Semiconductor.  All rights reserved.
  13:.\Generated_Source\PSoC4/cyfitter_cfg.c **** * You may use this file only in accordance with the license, terms, conditions, 
  14:.\Generated_Source\PSoC4/cyfitter_cfg.c **** * disclaimers, and limitations in the end user license agreement accompanying 
  15:.\Generated_Source\PSoC4/cyfitter_cfg.c **** * the software package with which this file was provided.
  16:.\Generated_Source\PSoC4/cyfitter_cfg.c **** ********************************************************************************/
  17:.\Generated_Source\PSoC4/cyfitter_cfg.c **** 
  18:.\Generated_Source\PSoC4/cyfitter_cfg.c **** #include <string.h>
  19:.\Generated_Source\PSoC4/cyfitter_cfg.c **** #include "cytypes.h"
  20:.\Generated_Source\PSoC4/cyfitter_cfg.c **** #include "cydevice_trm.h"
  21:.\Generated_Source\PSoC4/cyfitter_cfg.c **** #include "cyfitter.h"
  22:.\Generated_Source\PSoC4/cyfitter_cfg.c **** #include "CyLib.h"
  23:.\Generated_Source\PSoC4/cyfitter_cfg.c **** #include "CyLFClk.h"
  24:.\Generated_Source\PSoC4/cyfitter_cfg.c **** #include "cyfitter_cfg.h"
  25:.\Generated_Source\PSoC4/cyfitter_cfg.c **** 
  26:.\Generated_Source\PSoC4/cyfitter_cfg.c **** 
  27:.\Generated_Source\PSoC4/cyfitter_cfg.c **** #if defined(__GNUC__) || defined(__ARMCC_VERSION)
  28:.\Generated_Source\PSoC4/cyfitter_cfg.c ****     #define CYPACKED 
  29:.\Generated_Source\PSoC4/cyfitter_cfg.c ****     #define CYPACKED_ATTR __attribute__ ((packed))
  30:.\Generated_Source\PSoC4/cyfitter_cfg.c ****     #define CYALIGNED __attribute__ ((aligned))
  31:.\Generated_Source\PSoC4/cyfitter_cfg.c ****     #define CY_CFG_UNUSED __attribute__ ((unused))
  32:.\Generated_Source\PSoC4/cyfitter_cfg.c ****     #ifndef CY_CFG_SECTION
  33:.\Generated_Source\PSoC4/cyfitter_cfg.c ****         #define CY_CFG_SECTION __attribute__ ((section(".psocinit")))
ARM GAS  C:\Users\Petro\AppData\Local\Temp\cctt6O6a.s 			page 2


  34:.\Generated_Source\PSoC4/cyfitter_cfg.c ****     #endif
  35:.\Generated_Source\PSoC4/cyfitter_cfg.c ****     
  36:.\Generated_Source\PSoC4/cyfitter_cfg.c ****     #if defined(__ARMCC_VERSION)
  37:.\Generated_Source\PSoC4/cyfitter_cfg.c ****         #define CY_CFG_MEMORY_BARRIER() __memory_changed()
  38:.\Generated_Source\PSoC4/cyfitter_cfg.c ****     #else
  39:.\Generated_Source\PSoC4/cyfitter_cfg.c ****         #define CY_CFG_MEMORY_BARRIER() __sync_synchronize()
  40:.\Generated_Source\PSoC4/cyfitter_cfg.c ****     #endif
  41:.\Generated_Source\PSoC4/cyfitter_cfg.c ****     
  42:.\Generated_Source\PSoC4/cyfitter_cfg.c **** #elif defined(__ICCARM__)
  43:.\Generated_Source\PSoC4/cyfitter_cfg.c ****     #include <intrinsics.h>
  44:.\Generated_Source\PSoC4/cyfitter_cfg.c **** 
  45:.\Generated_Source\PSoC4/cyfitter_cfg.c ****     #define CYPACKED __packed
  46:.\Generated_Source\PSoC4/cyfitter_cfg.c ****     #define CYPACKED_ATTR 
  47:.\Generated_Source\PSoC4/cyfitter_cfg.c ****     #define CYALIGNED _Pragma("data_alignment=4")
  48:.\Generated_Source\PSoC4/cyfitter_cfg.c ****     #define CY_CFG_UNUSED _Pragma("diag_suppress=Pe177")
  49:.\Generated_Source\PSoC4/cyfitter_cfg.c ****     #define CY_CFG_SECTION _Pragma("location=\".psocinit\"")
  50:.\Generated_Source\PSoC4/cyfitter_cfg.c ****     
  51:.\Generated_Source\PSoC4/cyfitter_cfg.c ****     #define CY_CFG_MEMORY_BARRIER() __DMB()
  52:.\Generated_Source\PSoC4/cyfitter_cfg.c ****     
  53:.\Generated_Source\PSoC4/cyfitter_cfg.c **** #else
  54:.\Generated_Source\PSoC4/cyfitter_cfg.c ****     #error Unsupported toolchain
  55:.\Generated_Source\PSoC4/cyfitter_cfg.c **** #endif
  56:.\Generated_Source\PSoC4/cyfitter_cfg.c **** 
  57:.\Generated_Source\PSoC4/cyfitter_cfg.c **** 
  58:.\Generated_Source\PSoC4/cyfitter_cfg.c **** CY_CFG_UNUSED
  59:.\Generated_Source\PSoC4/cyfitter_cfg.c **** static void CYMEMZERO(void *s, size_t n);
  60:.\Generated_Source\PSoC4/cyfitter_cfg.c **** CY_CFG_UNUSED
  61:.\Generated_Source\PSoC4/cyfitter_cfg.c **** static void CYMEMZERO(void *s, size_t n)
  62:.\Generated_Source\PSoC4/cyfitter_cfg.c **** {
  25              		.loc 1 62 0
  26              		.cfi_startproc
  27 0000 80B5     		push	{r7, lr}
  28              		.cfi_def_cfa_offset 8
  29              		.cfi_offset 7, -8
  30              		.cfi_offset 14, -4
  31 0002 82B0     		sub	sp, sp, #8
  32              		.cfi_def_cfa_offset 16
  33 0004 00AF     		add	r7, sp, #0
  34              		.cfi_def_cfa_register 7
  35 0006 7860     		str	r0, [r7, #4]
  36 0008 3960     		str	r1, [r7]
  63:.\Generated_Source\PSoC4/cyfitter_cfg.c **** 	(void)memset(s, 0, n);
  37              		.loc 1 63 0
  38 000a 7A68     		ldr	r2, [r7, #4]
  39 000c 3B68     		ldr	r3, [r7]
  40 000e 101C     		mov	r0, r2
  41 0010 0021     		mov	r1, #0
  42 0012 1A1C     		mov	r2, r3
  43 0014 FFF7FEFF 		bl	memset
  64:.\Generated_Source\PSoC4/cyfitter_cfg.c **** }
  44              		.loc 1 64 0
  45 0018 BD46     		mov	sp, r7
  46 001a 02B0     		add	sp, sp, #8
  47              		@ sp needed
  48 001c 80BD     		pop	{r7, pc}
  49              		.cfi_endproc
  50              	.LFE2:
ARM GAS  C:\Users\Petro\AppData\Local\Temp\cctt6O6a.s 			page 3


  51              		.size	CYMEMZERO, .-CYMEMZERO
  52 001e C046     		.section	.text.CYCONFIGCPY,"ax",%progbits
  53              		.align	2
  54              		.code	16
  55              		.thumb_func
  56              		.type	CYCONFIGCPY, %function
  57              	CYCONFIGCPY:
  58              	.LFB3:
  65:.\Generated_Source\PSoC4/cyfitter_cfg.c **** CY_CFG_UNUSED
  66:.\Generated_Source\PSoC4/cyfitter_cfg.c **** static void CYCONFIGCPY(void *dest, const void *src, size_t n);
  67:.\Generated_Source\PSoC4/cyfitter_cfg.c **** CY_CFG_UNUSED
  68:.\Generated_Source\PSoC4/cyfitter_cfg.c **** static void CYCONFIGCPY(void *dest, const void *src, size_t n)
  69:.\Generated_Source\PSoC4/cyfitter_cfg.c **** {
  59              		.loc 1 69 0
  60              		.cfi_startproc
  61 0000 80B5     		push	{r7, lr}
  62              		.cfi_def_cfa_offset 8
  63              		.cfi_offset 7, -8
  64              		.cfi_offset 14, -4
  65 0002 84B0     		sub	sp, sp, #16
  66              		.cfi_def_cfa_offset 24
  67 0004 00AF     		add	r7, sp, #0
  68              		.cfi_def_cfa_register 7
  69 0006 F860     		str	r0, [r7, #12]
  70 0008 B960     		str	r1, [r7, #8]
  71 000a 7A60     		str	r2, [r7, #4]
  70:.\Generated_Source\PSoC4/cyfitter_cfg.c **** 	(void)memcpy(dest, src, n);
  72              		.loc 1 70 0
  73 000c F968     		ldr	r1, [r7, #12]
  74 000e BA68     		ldr	r2, [r7, #8]
  75 0010 7B68     		ldr	r3, [r7, #4]
  76 0012 081C     		mov	r0, r1
  77 0014 111C     		mov	r1, r2
  78 0016 1A1C     		mov	r2, r3
  79 0018 FFF7FEFF 		bl	memcpy
  71:.\Generated_Source\PSoC4/cyfitter_cfg.c **** }
  80              		.loc 1 71 0
  81 001c BD46     		mov	sp, r7
  82 001e 04B0     		add	sp, sp, #16
  83              		@ sp needed
  84 0020 80BD     		pop	{r7, pc}
  85              		.cfi_endproc
  86              	.LFE3:
  87              		.size	CYCONFIGCPY, .-CYCONFIGCPY
  88 0022 C046     		.section	.text.CYCONFIGCPYCODE,"ax",%progbits
  89              		.align	2
  90              		.code	16
  91              		.thumb_func
  92              		.type	CYCONFIGCPYCODE, %function
  93              	CYCONFIGCPYCODE:
  94              	.LFB4:
  72:.\Generated_Source\PSoC4/cyfitter_cfg.c **** CY_CFG_UNUSED
  73:.\Generated_Source\PSoC4/cyfitter_cfg.c **** static void CYCONFIGCPYCODE(void *dest, const void *src, size_t n);
  74:.\Generated_Source\PSoC4/cyfitter_cfg.c **** CY_CFG_UNUSED
  75:.\Generated_Source\PSoC4/cyfitter_cfg.c **** static void CYCONFIGCPYCODE(void *dest, const void *src, size_t n)
  76:.\Generated_Source\PSoC4/cyfitter_cfg.c **** {
  95              		.loc 1 76 0
ARM GAS  C:\Users\Petro\AppData\Local\Temp\cctt6O6a.s 			page 4


  96              		.cfi_startproc
  97 0000 80B5     		push	{r7, lr}
  98              		.cfi_def_cfa_offset 8
  99              		.cfi_offset 7, -8
 100              		.cfi_offset 14, -4
 101 0002 84B0     		sub	sp, sp, #16
 102              		.cfi_def_cfa_offset 24
 103 0004 00AF     		add	r7, sp, #0
 104              		.cfi_def_cfa_register 7
 105 0006 F860     		str	r0, [r7, #12]
 106 0008 B960     		str	r1, [r7, #8]
 107 000a 7A60     		str	r2, [r7, #4]
  77:.\Generated_Source\PSoC4/cyfitter_cfg.c **** 	(void)memcpy(dest, src, n);
 108              		.loc 1 77 0
 109 000c F968     		ldr	r1, [r7, #12]
 110 000e BA68     		ldr	r2, [r7, #8]
 111 0010 7B68     		ldr	r3, [r7, #4]
 112 0012 081C     		mov	r0, r1
 113 0014 111C     		mov	r1, r2
 114 0016 1A1C     		mov	r2, r3
 115 0018 FFF7FEFF 		bl	memcpy
  78:.\Generated_Source\PSoC4/cyfitter_cfg.c **** }
 116              		.loc 1 78 0
 117 001c BD46     		mov	sp, r7
 118 001e 04B0     		add	sp, sp, #16
 119              		@ sp needed
 120 0020 80BD     		pop	{r7, pc}
 121              		.cfi_endproc
 122              	.LFE4:
 123              		.size	CYCONFIGCPYCODE, .-CYCONFIGCPYCODE
 124 0022 C046     		.section	.text.cfg_write_bytes32,"ax",%progbits
 125              		.align	2
 126              		.code	16
 127              		.thumb_func
 128              		.type	cfg_write_bytes32, %function
 129              	cfg_write_bytes32:
 130              	.LFB5:
  79:.\Generated_Source\PSoC4/cyfitter_cfg.c **** 
  80:.\Generated_Source\PSoC4/cyfitter_cfg.c **** 
  81:.\Generated_Source\PSoC4/cyfitter_cfg.c **** 
  82:.\Generated_Source\PSoC4/cyfitter_cfg.c **** /* Clock startup error codes                                                   */
  83:.\Generated_Source\PSoC4/cyfitter_cfg.c **** #define CYCLOCKSTART_NO_ERROR    0u
  84:.\Generated_Source\PSoC4/cyfitter_cfg.c **** #define CYCLOCKSTART_XTAL_ERROR  1u
  85:.\Generated_Source\PSoC4/cyfitter_cfg.c **** #define CYCLOCKSTART_32KHZ_ERROR 2u
  86:.\Generated_Source\PSoC4/cyfitter_cfg.c **** #define CYCLOCKSTART_PLL_ERROR   3u
  87:.\Generated_Source\PSoC4/cyfitter_cfg.c **** 
  88:.\Generated_Source\PSoC4/cyfitter_cfg.c **** #ifdef CY_NEED_CYCLOCKSTARTUPERROR
  89:.\Generated_Source\PSoC4/cyfitter_cfg.c **** /*******************************************************************************
  90:.\Generated_Source\PSoC4/cyfitter_cfg.c **** * Function Name: CyClockStartupError
  91:.\Generated_Source\PSoC4/cyfitter_cfg.c **** ********************************************************************************
  92:.\Generated_Source\PSoC4/cyfitter_cfg.c **** * Summary:
  93:.\Generated_Source\PSoC4/cyfitter_cfg.c **** *  If an error is encountered during clock configuration (crystal startup error,
  94:.\Generated_Source\PSoC4/cyfitter_cfg.c **** *  PLL lock error, etc.), the system will end up here.  Unless reimplemented by
  95:.\Generated_Source\PSoC4/cyfitter_cfg.c **** *  the customer, this function will stop in an infinite loop.
  96:.\Generated_Source\PSoC4/cyfitter_cfg.c **** *
  97:.\Generated_Source\PSoC4/cyfitter_cfg.c **** * Parameters:
  98:.\Generated_Source\PSoC4/cyfitter_cfg.c **** *   void
ARM GAS  C:\Users\Petro\AppData\Local\Temp\cctt6O6a.s 			page 5


  99:.\Generated_Source\PSoC4/cyfitter_cfg.c **** *
 100:.\Generated_Source\PSoC4/cyfitter_cfg.c **** * Return:
 101:.\Generated_Source\PSoC4/cyfitter_cfg.c **** *   void
 102:.\Generated_Source\PSoC4/cyfitter_cfg.c **** *
 103:.\Generated_Source\PSoC4/cyfitter_cfg.c **** *******************************************************************************/
 104:.\Generated_Source\PSoC4/cyfitter_cfg.c **** CY_CFG_UNUSED
 105:.\Generated_Source\PSoC4/cyfitter_cfg.c **** static void CyClockStartupError(uint8 errorCode);
 106:.\Generated_Source\PSoC4/cyfitter_cfg.c **** CY_CFG_UNUSED
 107:.\Generated_Source\PSoC4/cyfitter_cfg.c **** static void CyClockStartupError(uint8 errorCode)
 108:.\Generated_Source\PSoC4/cyfitter_cfg.c **** {
 109:.\Generated_Source\PSoC4/cyfitter_cfg.c ****     /* To remove the compiler warning if errorCode not used.                */
 110:.\Generated_Source\PSoC4/cyfitter_cfg.c ****     errorCode = errorCode;
 111:.\Generated_Source\PSoC4/cyfitter_cfg.c **** 
 112:.\Generated_Source\PSoC4/cyfitter_cfg.c ****     /* `#START CyClockStartupError` */
 113:.\Generated_Source\PSoC4/cyfitter_cfg.c **** 
 114:.\Generated_Source\PSoC4/cyfitter_cfg.c ****     /* If we have a clock startup error (bad MHz crystal, PLL lock, etc.),  */
 115:.\Generated_Source\PSoC4/cyfitter_cfg.c ****     /* we will end up here to allow the customer to implement something to  */
 116:.\Generated_Source\PSoC4/cyfitter_cfg.c ****     /* deal with the clock condition.                                       */
 117:.\Generated_Source\PSoC4/cyfitter_cfg.c **** 
 118:.\Generated_Source\PSoC4/cyfitter_cfg.c ****     /* `#END` */
 119:.\Generated_Source\PSoC4/cyfitter_cfg.c **** 
 120:.\Generated_Source\PSoC4/cyfitter_cfg.c ****     /* If nothing else, stop here since the clocks have not started         */
 121:.\Generated_Source\PSoC4/cyfitter_cfg.c ****     /* correctly.                                                           */
 122:.\Generated_Source\PSoC4/cyfitter_cfg.c ****     while(1) {}
 123:.\Generated_Source\PSoC4/cyfitter_cfg.c **** }
 124:.\Generated_Source\PSoC4/cyfitter_cfg.c **** #endif
 125:.\Generated_Source\PSoC4/cyfitter_cfg.c **** 
 126:.\Generated_Source\PSoC4/cyfitter_cfg.c **** #define CY_CFG_BASE_ADDR_COUNT 9u
 127:.\Generated_Source\PSoC4/cyfitter_cfg.c **** CYPACKED typedef struct
 128:.\Generated_Source\PSoC4/cyfitter_cfg.c **** {
 129:.\Generated_Source\PSoC4/cyfitter_cfg.c **** 	uint8 offset;
 130:.\Generated_Source\PSoC4/cyfitter_cfg.c **** 	uint8 value;
 131:.\Generated_Source\PSoC4/cyfitter_cfg.c **** } CYPACKED_ATTR cy_cfg_addrvalue_t;
 132:.\Generated_Source\PSoC4/cyfitter_cfg.c **** 
 133:.\Generated_Source\PSoC4/cyfitter_cfg.c **** 
 134:.\Generated_Source\PSoC4/cyfitter_cfg.c **** 
 135:.\Generated_Source\PSoC4/cyfitter_cfg.c **** /*******************************************************************************
 136:.\Generated_Source\PSoC4/cyfitter_cfg.c **** * Function Name: cfg_write_bytes32
 137:.\Generated_Source\PSoC4/cyfitter_cfg.c **** ********************************************************************************
 138:.\Generated_Source\PSoC4/cyfitter_cfg.c **** * Summary:
 139:.\Generated_Source\PSoC4/cyfitter_cfg.c **** *  This function is used for setting up the chip configuration areas that
 140:.\Generated_Source\PSoC4/cyfitter_cfg.c **** *  contain relatively sparse data.
 141:.\Generated_Source\PSoC4/cyfitter_cfg.c **** *
 142:.\Generated_Source\PSoC4/cyfitter_cfg.c **** * Parameters:
 143:.\Generated_Source\PSoC4/cyfitter_cfg.c **** *   void
 144:.\Generated_Source\PSoC4/cyfitter_cfg.c **** *
 145:.\Generated_Source\PSoC4/cyfitter_cfg.c **** * Return:
 146:.\Generated_Source\PSoC4/cyfitter_cfg.c **** *   void
 147:.\Generated_Source\PSoC4/cyfitter_cfg.c **** *
 148:.\Generated_Source\PSoC4/cyfitter_cfg.c **** *******************************************************************************/
 149:.\Generated_Source\PSoC4/cyfitter_cfg.c **** static void cfg_write_bytes32(const uint32 addr_table[], const cy_cfg_addrvalue_t data_table[]);
 150:.\Generated_Source\PSoC4/cyfitter_cfg.c **** static void cfg_write_bytes32(const uint32 addr_table[], const cy_cfg_addrvalue_t data_table[])
 151:.\Generated_Source\PSoC4/cyfitter_cfg.c **** {
 131              		.loc 1 151 0
 132              		.cfi_startproc
 133 0000 80B5     		push	{r7, lr}
 134              		.cfi_def_cfa_offset 8
ARM GAS  C:\Users\Petro\AppData\Local\Temp\cctt6O6a.s 			page 6


 135              		.cfi_offset 7, -8
 136              		.cfi_offset 14, -4
 137 0002 86B0     		sub	sp, sp, #24
 138              		.cfi_def_cfa_offset 32
 139 0004 00AF     		add	r7, sp, #0
 140              		.cfi_def_cfa_register 7
 141 0006 7860     		str	r0, [r7, #4]
 142 0008 3960     		str	r1, [r7]
 152:.\Generated_Source\PSoC4/cyfitter_cfg.c **** 	/* For 32-bit little-endian architectures */
 153:.\Generated_Source\PSoC4/cyfitter_cfg.c **** 	uint32 i, j = 0u;
 143              		.loc 1 153 0
 144 000a 0023     		mov	r3, #0
 145 000c 3B61     		str	r3, [r7, #16]
 154:.\Generated_Source\PSoC4/cyfitter_cfg.c **** 	for (i = 0u; i < CY_CFG_BASE_ADDR_COUNT; i++)
 146              		.loc 1 154 0
 147 000e 0023     		mov	r3, #0
 148 0010 7B61     		str	r3, [r7, #20]
 149 0012 2FE0     		b	.L5
 150              	.L8:
 151              	.LBB2:
 155:.\Generated_Source\PSoC4/cyfitter_cfg.c **** 	{
 156:.\Generated_Source\PSoC4/cyfitter_cfg.c **** 		uint32 baseAddr = addr_table[i];
 152              		.loc 1 156 0
 153 0014 7B69     		ldr	r3, [r7, #20]
 154 0016 9B00     		lsl	r3, r3, #2
 155 0018 7A68     		ldr	r2, [r7, #4]
 156 001a D318     		add	r3, r2, r3
 157 001c 1B68     		ldr	r3, [r3]
 158 001e BB60     		str	r3, [r7, #8]
 157:.\Generated_Source\PSoC4/cyfitter_cfg.c **** 		uint8 count = (uint8)baseAddr;
 159              		.loc 1 157 0
 160 0020 0F23     		mov	r3, #15
 161 0022 FB18     		add	r3, r7, r3
 162 0024 BA68     		ldr	r2, [r7, #8]
 163 0026 1A70     		strb	r2, [r3]
 158:.\Generated_Source\PSoC4/cyfitter_cfg.c **** 		baseAddr &= 0xFFFFFF00u;
 164              		.loc 1 158 0
 165 0028 BB68     		ldr	r3, [r7, #8]
 166 002a FF22     		mov	r2, #255
 167 002c 9343     		bic	r3, r2
 168 002e BB60     		str	r3, [r7, #8]
 159:.\Generated_Source\PSoC4/cyfitter_cfg.c **** 		while (count != 0u)
 169              		.loc 1 159 0
 170 0030 18E0     		b	.L6
 171              	.L7:
 160:.\Generated_Source\PSoC4/cyfitter_cfg.c **** 		{
 161:.\Generated_Source\PSoC4/cyfitter_cfg.c **** 			CY_SET_XTND_REG8((void CYFAR *)(baseAddr + data_table[j].offset), data_table[j].value);
 172              		.loc 1 161 0
 173 0032 3B69     		ldr	r3, [r7, #16]
 174 0034 5B00     		lsl	r3, r3, #1
 175 0036 3A68     		ldr	r2, [r7]
 176 0038 D318     		add	r3, r2, r3
 177 003a 1B78     		ldrb	r3, [r3]
 178 003c 1A1C     		mov	r2, r3
 179 003e BB68     		ldr	r3, [r7, #8]
 180 0040 D318     		add	r3, r2, r3
 181 0042 191C     		mov	r1, r3
ARM GAS  C:\Users\Petro\AppData\Local\Temp\cctt6O6a.s 			page 7


 182 0044 3B69     		ldr	r3, [r7, #16]
 183 0046 5B00     		lsl	r3, r3, #1
 184 0048 3A68     		ldr	r2, [r7]
 185 004a D318     		add	r3, r2, r3
 186 004c 5B78     		ldrb	r3, [r3, #1]
 187 004e 0B70     		strb	r3, [r1]
 162:.\Generated_Source\PSoC4/cyfitter_cfg.c **** 			j++;
 188              		.loc 1 162 0
 189 0050 3B69     		ldr	r3, [r7, #16]
 190 0052 0133     		add	r3, r3, #1
 191 0054 3B61     		str	r3, [r7, #16]
 163:.\Generated_Source\PSoC4/cyfitter_cfg.c **** 			count--;
 192              		.loc 1 163 0
 193 0056 0F23     		mov	r3, #15
 194 0058 FB18     		add	r3, r7, r3
 195 005a 1A78     		ldrb	r2, [r3]
 196 005c 0F23     		mov	r3, #15
 197 005e FB18     		add	r3, r7, r3
 198 0060 013A     		sub	r2, r2, #1
 199 0062 1A70     		strb	r2, [r3]
 200              	.L6:
 159:.\Generated_Source\PSoC4/cyfitter_cfg.c **** 		{
 201              		.loc 1 159 0
 202 0064 0F23     		mov	r3, #15
 203 0066 FB18     		add	r3, r7, r3
 204 0068 1B78     		ldrb	r3, [r3]
 205 006a 002B     		cmp	r3, #0
 206 006c E1D1     		bne	.L7
 207              	.LBE2:
 154:.\Generated_Source\PSoC4/cyfitter_cfg.c **** 	{
 208              		.loc 1 154 0 discriminator 2
 209 006e 7B69     		ldr	r3, [r7, #20]
 210 0070 0133     		add	r3, r3, #1
 211 0072 7B61     		str	r3, [r7, #20]
 212              	.L5:
 154:.\Generated_Source\PSoC4/cyfitter_cfg.c **** 	{
 213              		.loc 1 154 0 is_stmt 0 discriminator 1
 214 0074 7B69     		ldr	r3, [r7, #20]
 215 0076 082B     		cmp	r3, #8
 216 0078 CCD9     		bls	.L8
 164:.\Generated_Source\PSoC4/cyfitter_cfg.c **** 		}
 165:.\Generated_Source\PSoC4/cyfitter_cfg.c **** 	}
 166:.\Generated_Source\PSoC4/cyfitter_cfg.c **** }
 217              		.loc 1 166 0 is_stmt 1
 218 007a BD46     		mov	sp, r7
 219 007c 06B0     		add	sp, sp, #24
 220              		@ sp needed
 221 007e 80BD     		pop	{r7, pc}
 222              		.cfi_endproc
 223              	.LFE5:
 224              		.size	cfg_write_bytes32, .-cfg_write_bytes32
 225              		.section	.psocinit,"ax",%progbits
 226              		.align	2
 227              		.code	16
 228              		.thumb_func
 229              		.type	ClockSetup, %function
 230              	ClockSetup:
ARM GAS  C:\Users\Petro\AppData\Local\Temp\cctt6O6a.s 			page 8


 231              	.LFB6:
 167:.\Generated_Source\PSoC4/cyfitter_cfg.c **** 
 168:.\Generated_Source\PSoC4/cyfitter_cfg.c **** 
 169:.\Generated_Source\PSoC4/cyfitter_cfg.c **** /*******************************************************************************
 170:.\Generated_Source\PSoC4/cyfitter_cfg.c **** * Function Name: ClockSetup
 171:.\Generated_Source\PSoC4/cyfitter_cfg.c **** ********************************************************************************
 172:.\Generated_Source\PSoC4/cyfitter_cfg.c **** *
 173:.\Generated_Source\PSoC4/cyfitter_cfg.c **** * Summary:
 174:.\Generated_Source\PSoC4/cyfitter_cfg.c **** *   Performs the initialization of all of the clocks in the device based on the
 175:.\Generated_Source\PSoC4/cyfitter_cfg.c **** *   settings in the Clock tab of the DWR.  This includes enabling the requested
 176:.\Generated_Source\PSoC4/cyfitter_cfg.c **** *   clocks and setting the necessary dividers to produce the desired frequency. 
 177:.\Generated_Source\PSoC4/cyfitter_cfg.c **** *
 178:.\Generated_Source\PSoC4/cyfitter_cfg.c **** * Parameters:
 179:.\Generated_Source\PSoC4/cyfitter_cfg.c **** *   void
 180:.\Generated_Source\PSoC4/cyfitter_cfg.c **** *
 181:.\Generated_Source\PSoC4/cyfitter_cfg.c **** * Return:
 182:.\Generated_Source\PSoC4/cyfitter_cfg.c **** *   void
 183:.\Generated_Source\PSoC4/cyfitter_cfg.c **** *
 184:.\Generated_Source\PSoC4/cyfitter_cfg.c **** *******************************************************************************/
 185:.\Generated_Source\PSoC4/cyfitter_cfg.c **** static void ClockSetup(void);
 186:.\Generated_Source\PSoC4/cyfitter_cfg.c **** CY_CFG_SECTION
 187:.\Generated_Source\PSoC4/cyfitter_cfg.c **** static void ClockSetup(void)
 188:.\Generated_Source\PSoC4/cyfitter_cfg.c **** {
 232              		.loc 1 188 0
 233              		.cfi_startproc
 234 0000 80B5     		push	{r7, lr}
 235              		.cfi_def_cfa_offset 8
 236              		.cfi_offset 7, -8
 237              		.cfi_offset 14, -4
 238 0002 00AF     		add	r7, sp, #0
 239              		.cfi_def_cfa_register 7
 189:.\Generated_Source\PSoC4/cyfitter_cfg.c **** 
 190:.\Generated_Source\PSoC4/cyfitter_cfg.c **** 	/* Set Flash Cycles based on max possible frequency in case a glitch occurs during ClockSetup(). *
 191:.\Generated_Source\PSoC4/cyfitter_cfg.c **** 	CY_SET_REG32((void CYXDATA *)(CYREG_CPUSS_FLASH_CTL), (0x0012u));
 240              		.loc 1 191 0
 241 0004 324B     		ldr	r3, .L11
 242 0006 1222     		mov	r2, #18
 243 0008 1A60     		str	r2, [r3]
 192:.\Generated_Source\PSoC4/cyfitter_cfg.c **** 
 193:.\Generated_Source\PSoC4/cyfitter_cfg.c **** 	/* Start the WCO */
 194:.\Generated_Source\PSoC4/cyfitter_cfg.c **** 	CySysClkWcoStart();
 244              		.loc 1 194 0
 245 000a FFF7FEFF 		bl	CySysClkWcoStart
 195:.\Generated_Source\PSoC4/cyfitter_cfg.c **** 	CyDelayCycles(12000000u); /* WCO may take up to 500ms to start */
 246              		.loc 1 195 0
 247 000e 314B     		ldr	r3, .L11+4
 248 0010 181C     		mov	r0, r3
 249 0012 FFF7FEFF 		bl	CyDelayCycles
 196:.\Generated_Source\PSoC4/cyfitter_cfg.c **** 	(void)CySysClkWcoSetPowerMode(CY_SYS_CLK_WCO_LPM);    /* Switch to the low power mode */
 250              		.loc 1 196 0
 251 0016 0120     		mov	r0, #1
 252 0018 FFF7FEFF 		bl	CySysClkWcoSetPowerMode
 197:.\Generated_Source\PSoC4/cyfitter_cfg.c **** 
 198:.\Generated_Source\PSoC4/cyfitter_cfg.c **** 	/* Setup and trim IMO based on desired frequency. */
 199:.\Generated_Source\PSoC4/cyfitter_cfg.c **** 	CySysClkWriteImoFreq(48u);
 253              		.loc 1 199 0
 254 001c 3020     		mov	r0, #48
ARM GAS  C:\Users\Petro\AppData\Local\Temp\cctt6O6a.s 			page 9


 255 001e FFF7FEFF 		bl	CySysClkWriteImoFreq
 200:.\Generated_Source\PSoC4/cyfitter_cfg.c **** 	/* CYDEV_CLK_ILO_CONFIG Starting address: CYDEV_CLK_ILO_CONFIG */
 201:.\Generated_Source\PSoC4/cyfitter_cfg.c **** 	CY_SET_XTND_REG32((void CYFAR *)(CYREG_CLK_ILO_CONFIG), 0x80000006u);
 256              		.loc 1 201 0
 257 0022 2D4B     		ldr	r3, .L11+8
 258 0024 2D4A     		ldr	r2, .L11+12
 259 0026 1A60     		str	r2, [r3]
 202:.\Generated_Source\PSoC4/cyfitter_cfg.c **** 
 203:.\Generated_Source\PSoC4/cyfitter_cfg.c **** 	/* CYDEV_WDT_CONFIG Starting address: CYDEV_WDT_CONFIG */
 204:.\Generated_Source\PSoC4/cyfitter_cfg.c **** 	CY_SET_XTND_REG32((void CYFAR *)(CYREG_WDT_CONFIG), 0x40000000u);
 260              		.loc 1 204 0
 261 0028 2D4B     		ldr	r3, .L11+16
 262 002a 8022     		mov	r2, #128
 263 002c D205     		lsl	r2, r2, #23
 264 002e 1A60     		str	r2, [r3]
 205:.\Generated_Source\PSoC4/cyfitter_cfg.c **** 
 206:.\Generated_Source\PSoC4/cyfitter_cfg.c **** 
 207:.\Generated_Source\PSoC4/cyfitter_cfg.c **** 	/* Enable fast start mode for XO */
 208:.\Generated_Source\PSoC4/cyfitter_cfg.c **** 	CY_SET_REG32((void*)CYREG_BLE_BLERD_BB_XO, CY_GET_REG32((void*)CYREG_BLE_BLERD_BB_XO) | (uint32)0x
 265              		.loc 1 208 0
 266 0030 2C4B     		ldr	r3, .L11+20
 267 0032 2C4A     		ldr	r2, .L11+20
 268 0034 1268     		ldr	r2, [r2]
 269 0036 0221     		mov	r1, #2
 270 0038 0A43     		orr	r2, r1
 271 003a 1A60     		str	r2, [r3]
 209:.\Generated_Source\PSoC4/cyfitter_cfg.c **** 	CY_SET_XTND_REG32((void CYFAR *)(CYREG_BLE_BLERD_BB_XO_CAPTRIM), 0x00003E2Du);
 272              		.loc 1 209 0
 273 003c 2A4B     		ldr	r3, .L11+24
 274 003e 2B4A     		ldr	r2, .L11+28
 275 0040 1A60     		str	r2, [r3]
 210:.\Generated_Source\PSoC4/cyfitter_cfg.c **** 	/* Disable Crystal Stable Interrupt before enabling ECO */
 211:.\Generated_Source\PSoC4/cyfitter_cfg.c **** 	CY_SET_REG32((void*)CYREG_BLE_BLESS_LL_DSM_CTRL, CY_GET_REG32((void*)CYREG_BLE_BLESS_LL_DSM_CTRL) 
 276              		.loc 1 211 0
 277 0042 2B4B     		ldr	r3, .L11+32
 278 0044 2A4A     		ldr	r2, .L11+32
 279 0046 1268     		ldr	r2, [r2]
 280 0048 0821     		mov	r1, #8
 281 004a 8A43     		bic	r2, r1
 282 004c 1A60     		str	r2, [r3]
 212:.\Generated_Source\PSoC4/cyfitter_cfg.c **** 	/* Start the ECO and do not check status since it is not needed for HFCLK */
 213:.\Generated_Source\PSoC4/cyfitter_cfg.c **** 	(void)CySysClkEcoStart(2000u);
 283              		.loc 1 213 0
 284 004e FA23     		mov	r3, #250
 285 0050 DB00     		lsl	r3, r3, #3
 286 0052 181C     		mov	r0, r3
 287 0054 FFF7FEFF 		bl	CySysClkEcoStart
 214:.\Generated_Source\PSoC4/cyfitter_cfg.c **** 	CyDelayUs(1500u); /* Wait to stabalize */
 288              		.loc 1 214 0
 289 0058 264B     		ldr	r3, .L11+36
 290 005a 181C     		mov	r0, r3
 291 005c FFF7FEFF 		bl	CyDelayUs
 215:.\Generated_Source\PSoC4/cyfitter_cfg.c **** 
 216:.\Generated_Source\PSoC4/cyfitter_cfg.c **** 	/* Setup phase aligned clocks */
 217:.\Generated_Source\PSoC4/cyfitter_cfg.c **** 	CY_SET_REG32((void *)CYREG_PERI_DIV_16_CTL1, 0x00BB7F00u);
 292              		.loc 1 217 0
 293 0060 254B     		ldr	r3, .L11+40
ARM GAS  C:\Users\Petro\AppData\Local\Temp\cctt6O6a.s 			page 10


 294 0062 264A     		ldr	r2, .L11+44
 295 0064 1A60     		str	r2, [r3]
 218:.\Generated_Source\PSoC4/cyfitter_cfg.c **** 	CY_SET_REG32((void *)CYREG_PERI_DIV_CMD, 0x8000FF41u);
 296              		.loc 1 218 0
 297 0066 264B     		ldr	r3, .L11+48
 298 0068 264A     		ldr	r2, .L11+52
 299 006a 1A60     		str	r2, [r3]
 219:.\Generated_Source\PSoC4/cyfitter_cfg.c **** 	CY_SET_REG32((void *)CYREG_PERI_DIV_16_CTL0, 0x0001A000u);
 300              		.loc 1 219 0
 301 006c 264B     		ldr	r3, .L11+56
 302 006e D022     		mov	r2, #208
 303 0070 5202     		lsl	r2, r2, #9
 304 0072 1A60     		str	r2, [r3]
 220:.\Generated_Source\PSoC4/cyfitter_cfg.c **** 	CY_SET_REG32((void *)CYREG_PERI_DIV_CMD, 0x8000FF40u);
 305              		.loc 1 220 0
 306 0074 224B     		ldr	r3, .L11+48
 307 0076 254A     		ldr	r2, .L11+60
 308 0078 1A60     		str	r2, [r3]
 221:.\Generated_Source\PSoC4/cyfitter_cfg.c **** 
 222:.\Generated_Source\PSoC4/cyfitter_cfg.c **** 	/* CYDEV_CLK_IMO_CONFIG Starting address: CYDEV_CLK_IMO_CONFIG */
 223:.\Generated_Source\PSoC4/cyfitter_cfg.c **** 	CY_SET_XTND_REG32((void CYFAR *)(CYREG_CLK_IMO_CONFIG), 0x80000000u);
 309              		.loc 1 223 0
 310 007a 254B     		ldr	r3, .L11+64
 311 007c 8022     		mov	r2, #128
 312 007e 1206     		lsl	r2, r2, #24
 313 0080 1A60     		str	r2, [r3]
 224:.\Generated_Source\PSoC4/cyfitter_cfg.c **** 
 225:.\Generated_Source\PSoC4/cyfitter_cfg.c **** 	/* CYDEV_CLK_SELECT Starting address: CYDEV_CLK_SELECT */
 226:.\Generated_Source\PSoC4/cyfitter_cfg.c **** 	CY_SET_XTND_REG32((void CYFAR *)(CYREG_CLK_SELECT), 0x00040000u);
 314              		.loc 1 226 0
 315 0082 244B     		ldr	r3, .L11+68
 316 0084 8022     		mov	r2, #128
 317 0086 D202     		lsl	r2, r2, #11
 318 0088 1A60     		str	r2, [r3]
 227:.\Generated_Source\PSoC4/cyfitter_cfg.c **** 
 228:.\Generated_Source\PSoC4/cyfitter_cfg.c **** 	/* CYDEV_PERI_PCLK_CTL7 Starting address: CYDEV_PERI_PCLK_CTL7 */
 229:.\Generated_Source\PSoC4/cyfitter_cfg.c **** 	CY_SET_XTND_REG32((void CYFAR *)(CYREG_PERI_PCLK_CTL7), 0x00000041u);
 319              		.loc 1 229 0
 320 008a 234B     		ldr	r3, .L11+72
 321 008c 4122     		mov	r2, #65
 322 008e 1A60     		str	r2, [r3]
 230:.\Generated_Source\PSoC4/cyfitter_cfg.c **** 
 231:.\Generated_Source\PSoC4/cyfitter_cfg.c **** 	/* CYDEV_PERI_PCLK_CTL2 Starting address: CYDEV_PERI_PCLK_CTL2 */
 232:.\Generated_Source\PSoC4/cyfitter_cfg.c **** 	CY_SET_XTND_REG32((void CYFAR *)(CYREG_PERI_PCLK_CTL2), 0x00000040u);
 323              		.loc 1 232 0
 324 0090 224B     		ldr	r3, .L11+76
 325 0092 4022     		mov	r2, #64
 326 0094 1A60     		str	r2, [r3]
 233:.\Generated_Source\PSoC4/cyfitter_cfg.c **** 
 234:.\Generated_Source\PSoC4/cyfitter_cfg.c **** 	(void)CyIntSetVector(8u, &CySysWdtIsr);
 327              		.loc 1 234 0
 328 0096 224B     		ldr	r3, .L11+80
 329 0098 0820     		mov	r0, #8
 330 009a 191C     		mov	r1, r3
 331 009c FFF7FEFF 		bl	CyIntSetVector
 235:.\Generated_Source\PSoC4/cyfitter_cfg.c **** 	CyIntEnable(8u);
 332              		.loc 1 235 0
ARM GAS  C:\Users\Petro\AppData\Local\Temp\cctt6O6a.s 			page 11


 333 00a0 0820     		mov	r0, #8
 334 00a2 FFF7FEFF 		bl	CyIntEnable
 236:.\Generated_Source\PSoC4/cyfitter_cfg.c **** 	CY_SET_XTND_REG32((void CYFAR *)(CYREG_WDT_MATCH), 0x00000020u);
 335              		.loc 1 236 0
 336 00a6 1F4B     		ldr	r3, .L11+84
 337 00a8 2022     		mov	r2, #32
 338 00aa 1A60     		str	r2, [r3]
 237:.\Generated_Source\PSoC4/cyfitter_cfg.c **** 	CY_SET_XTND_REG32((void CYFAR *)(CYREG_WDT_CONFIG), 0x40000005u);
 339              		.loc 1 237 0
 340 00ac 0C4B     		ldr	r3, .L11+16
 341 00ae 1E4A     		ldr	r2, .L11+88
 342 00b0 1A60     		str	r2, [r3]
 238:.\Generated_Source\PSoC4/cyfitter_cfg.c **** 	CY_SET_XTND_REG32((void CYFAR *)(CYREG_WDT_CONTROL), 0x00000008u);
 343              		.loc 1 238 0
 344 00b2 1E4B     		ldr	r3, .L11+92
 345 00b4 0822     		mov	r2, #8
 346 00b6 1A60     		str	r2, [r3]
 239:.\Generated_Source\PSoC4/cyfitter_cfg.c **** 	while ((CY_GET_XTND_REG32((void CYFAR *)(CYREG_WDT_CONTROL)) & 0x00000008u) != 0u) { }
 347              		.loc 1 239 0
 348 00b8 C046     		mov	r8, r8
 349              	.L10:
 350              		.loc 1 239 0 is_stmt 0 discriminator 1
 351 00ba 1C4B     		ldr	r3, .L11+92
 352 00bc 1B68     		ldr	r3, [r3]
 353 00be 0822     		mov	r2, #8
 354 00c0 1340     		and	r3, r2
 355 00c2 FAD1     		bne	.L10
 240:.\Generated_Source\PSoC4/cyfitter_cfg.c **** 	CY_SET_XTND_REG32((void CYFAR *)(CYREG_WDT_CONTROL), 0x00000001u);
 356              		.loc 1 240 0 is_stmt 1
 357 00c4 194B     		ldr	r3, .L11+92
 358 00c6 0122     		mov	r2, #1
 359 00c8 1A60     		str	r2, [r3]
 241:.\Generated_Source\PSoC4/cyfitter_cfg.c **** }
 360              		.loc 1 241 0
 361 00ca BD46     		mov	sp, r7
 362              		@ sp needed
 363 00cc 80BD     		pop	{r7, pc}
 364              	.L12:
 365 00ce C046     		.align	2
 366              	.L11:
 367 00d0 30001040 		.word	1074790448
 368 00d4 001BB700 		.word	12000000
 369 00d8 04010B40 		.word	1074462980
 370 00dc 06000080 		.word	-2147483642
 371 00e0 0C020B40 		.word	1074463244
 372 00e4 78002E40 		.word	1076756600
 373 00e8 7C002E40 		.word	1076756604
 374 00ec 2D3E0000 		.word	15917
 375 00f0 6CF02E40 		.word	1076818028
 376 00f4 DC050000 		.word	1500
 377 00f8 04030140 		.word	1073808132
 378 00fc 007FBB00 		.word	12287744
 379 0100 00000140 		.word	1073807360
 380 0104 41FF0080 		.word	-2147418303
 381 0108 00030140 		.word	1073808128
 382 010c 40FF0080 		.word	-2147418304
 383 0110 08010B40 		.word	1074462984
ARM GAS  C:\Users\Petro\AppData\Local\Temp\cctt6O6a.s 			page 12


 384 0114 00010B40 		.word	1074462976
 385 0118 1C010140 		.word	1073807644
 386 011c 08010140 		.word	1073807624
 387 0120 00000000 		.word	CySysWdtIsr
 388 0124 08020B40 		.word	1074463240
 389 0128 05000040 		.word	1073741829
 390 012c 10020B40 		.word	1074463248
 391              		.cfi_endproc
 392              	.LFE6:
 393              		.size	ClockSetup, .-ClockSetup
 394              		.section	.text.AnalogSetDefault,"ax",%progbits
 395              		.align	2
 396              		.code	16
 397              		.thumb_func
 398              		.type	AnalogSetDefault, %function
 399              	AnalogSetDefault:
 400              	.LFB7:
 242:.\Generated_Source\PSoC4/cyfitter_cfg.c **** 
 243:.\Generated_Source\PSoC4/cyfitter_cfg.c **** 
 244:.\Generated_Source\PSoC4/cyfitter_cfg.c **** /* Analog API Functions */
 245:.\Generated_Source\PSoC4/cyfitter_cfg.c **** 
 246:.\Generated_Source\PSoC4/cyfitter_cfg.c **** 
 247:.\Generated_Source\PSoC4/cyfitter_cfg.c **** /*******************************************************************************
 248:.\Generated_Source\PSoC4/cyfitter_cfg.c **** * Function Name: AnalogSetDefault
 249:.\Generated_Source\PSoC4/cyfitter_cfg.c **** ********************************************************************************
 250:.\Generated_Source\PSoC4/cyfitter_cfg.c **** *
 251:.\Generated_Source\PSoC4/cyfitter_cfg.c **** * Summary:
 252:.\Generated_Source\PSoC4/cyfitter_cfg.c **** *  Sets up the analog portions of the chip to default values based on chip
 253:.\Generated_Source\PSoC4/cyfitter_cfg.c **** *  configuration options from the project.
 254:.\Generated_Source\PSoC4/cyfitter_cfg.c **** *
 255:.\Generated_Source\PSoC4/cyfitter_cfg.c **** * Parameters:
 256:.\Generated_Source\PSoC4/cyfitter_cfg.c **** *  void
 257:.\Generated_Source\PSoC4/cyfitter_cfg.c **** *
 258:.\Generated_Source\PSoC4/cyfitter_cfg.c **** * Return:
 259:.\Generated_Source\PSoC4/cyfitter_cfg.c **** *  void
 260:.\Generated_Source\PSoC4/cyfitter_cfg.c **** *
 261:.\Generated_Source\PSoC4/cyfitter_cfg.c **** *******************************************************************************/
 262:.\Generated_Source\PSoC4/cyfitter_cfg.c **** static void AnalogSetDefault(void);
 263:.\Generated_Source\PSoC4/cyfitter_cfg.c **** static void AnalogSetDefault(void)
 264:.\Generated_Source\PSoC4/cyfitter_cfg.c **** {
 401              		.loc 1 264 0
 402              		.cfi_startproc
 403 0000 80B5     		push	{r7, lr}
 404              		.cfi_def_cfa_offset 8
 405              		.cfi_offset 7, -8
 406              		.cfi_offset 14, -4
 407 0002 00AF     		add	r7, sp, #0
 408              		.cfi_def_cfa_register 7
 265:.\Generated_Source\PSoC4/cyfitter_cfg.c **** 	CY_SET_XTND_REG32((void CYFAR *)CYREG_CTBM0_DFT_CTRL, 0x00000003u);
 409              		.loc 1 265 0
 410 0004 054B     		ldr	r3, .L14
 411 0006 0322     		mov	r2, #3
 412 0008 1A60     		str	r2, [r3]
 266:.\Generated_Source\PSoC4/cyfitter_cfg.c **** 	CY_SET_XTND_REG32((void CYFAR *)CYREG_CTBM1_DFT_CTRL, 0x00000003u);
 413              		.loc 1 266 0
 414 000a 054B     		ldr	r3, .L14+4
 415 000c 0322     		mov	r2, #3
ARM GAS  C:\Users\Petro\AppData\Local\Temp\cctt6O6a.s 			page 13


 416 000e 1A60     		str	r2, [r3]
 267:.\Generated_Source\PSoC4/cyfitter_cfg.c **** 	CY_SET_XTND_REG32((void CYFAR *)CYREG_PASS_DSAB_DSAB_CTRL, 0x00000000u);
 417              		.loc 1 267 0
 418 0010 044B     		ldr	r3, .L14+8
 419 0012 0022     		mov	r2, #0
 420 0014 1A60     		str	r2, [r3]
 268:.\Generated_Source\PSoC4/cyfitter_cfg.c **** }
 421              		.loc 1 268 0
 422 0016 BD46     		mov	sp, r7
 423              		@ sp needed
 424 0018 80BD     		pop	{r7, pc}
 425              	.L15:
 426 001a C046     		.align	2
 427              	.L14:
 428 001c 30003040 		.word	1076887600
 429 0020 30003140 		.word	1076953136
 430 0024 000E3F40 		.word	1077874176
 431              		.cfi_endproc
 432              	.LFE7:
 433              		.size	AnalogSetDefault, .-AnalogSetDefault
 434              		.section	.psocinit
 435              		.align	2
 436              		.global	cyfitter_cfg
 437              		.code	16
 438              		.thumb_func
 439              		.type	cyfitter_cfg, %function
 440              	cyfitter_cfg:
 441              	.LFB8:
 269:.\Generated_Source\PSoC4/cyfitter_cfg.c **** 
 270:.\Generated_Source\PSoC4/cyfitter_cfg.c **** #define CY_AMUX_UNUSED CYREG_CM0_ROM_DWT
 271:.\Generated_Source\PSoC4/cyfitter_cfg.c **** 
 272:.\Generated_Source\PSoC4/cyfitter_cfg.c **** 
 273:.\Generated_Source\PSoC4/cyfitter_cfg.c **** /*******************************************************************************
 274:.\Generated_Source\PSoC4/cyfitter_cfg.c **** * Function Name: cyfitter_cfg
 275:.\Generated_Source\PSoC4/cyfitter_cfg.c **** ********************************************************************************
 276:.\Generated_Source\PSoC4/cyfitter_cfg.c **** * Summary:
 277:.\Generated_Source\PSoC4/cyfitter_cfg.c **** *  This function is called by the start-up code for the selected device. It
 278:.\Generated_Source\PSoC4/cyfitter_cfg.c **** *  performs all of the necessary device configuration based on the design
 279:.\Generated_Source\PSoC4/cyfitter_cfg.c **** *  settings.  This includes settings from the Design Wide Resources (DWR) such
 280:.\Generated_Source\PSoC4/cyfitter_cfg.c **** *  as Clocks and Pins as well as any component configuration that is necessary.
 281:.\Generated_Source\PSoC4/cyfitter_cfg.c **** *
 282:.\Generated_Source\PSoC4/cyfitter_cfg.c **** * Parameters:  
 283:.\Generated_Source\PSoC4/cyfitter_cfg.c **** *   void
 284:.\Generated_Source\PSoC4/cyfitter_cfg.c **** *
 285:.\Generated_Source\PSoC4/cyfitter_cfg.c **** * Return:
 286:.\Generated_Source\PSoC4/cyfitter_cfg.c **** *   void
 287:.\Generated_Source\PSoC4/cyfitter_cfg.c **** *
 288:.\Generated_Source\PSoC4/cyfitter_cfg.c **** *******************************************************************************/
 289:.\Generated_Source\PSoC4/cyfitter_cfg.c **** CY_CFG_SECTION
 290:.\Generated_Source\PSoC4/cyfitter_cfg.c **** void cyfitter_cfg(void)
 291:.\Generated_Source\PSoC4/cyfitter_cfg.c **** {
 442              		.loc 1 291 0
 443              		.cfi_startproc
 444 0130 80B5     		push	{r7, lr}
 445              		.cfi_def_cfa_offset 8
 446              		.cfi_offset 7, -8
 447              		.cfi_offset 14, -4
ARM GAS  C:\Users\Petro\AppData\Local\Temp\cctt6O6a.s 			page 14


 448 0132 82B0     		sub	sp, sp, #8
 449              		.cfi_def_cfa_offset 16
 450 0134 00AF     		add	r7, sp, #0
 451              		.cfi_def_cfa_register 7
 292:.\Generated_Source\PSoC4/cyfitter_cfg.c **** 	/* Disable interrupts by default. Let user enable if/when they want. */
 293:.\Generated_Source\PSoC4/cyfitter_cfg.c **** 	CyGlobalIntDisable;
 452              		.loc 1 293 0
 453              	@ 293 ".\Generated_Source\PSoC4\cyfitter_cfg.c" 1
 454 0136 72B6     		CPSID   i
 455              	@ 0 "" 2
 294:.\Generated_Source\PSoC4/cyfitter_cfg.c **** 
 295:.\Generated_Source\PSoC4/cyfitter_cfg.c **** 	CY_SET_XTND_REG32((void CYFAR *)(CYREG_BLE_BLESS_LL_DSM_CTRL), 0x00000000u);
 456              		.loc 1 295 0
 457              		.code	16
 458 0138 444B     		ldr	r3, .L19
 459 013a 0022     		mov	r2, #0
 460 013c 1A60     		str	r2, [r3]
 296:.\Generated_Source\PSoC4/cyfitter_cfg.c **** 
 297:.\Generated_Source\PSoC4/cyfitter_cfg.c **** 	/* Enable the clock in the interrupt controller for the routed interrupts */
 298:.\Generated_Source\PSoC4/cyfitter_cfg.c **** 	CY_SET_REG8((void *)CYREG_UDB_UDBIF_INT_CLK_CTL, 0x01u);
 461              		.loc 1 298 0
 462 013e 444B     		ldr	r3, .L19+4
 463 0140 0122     		mov	r2, #1
 464 0142 1A70     		strb	r2, [r3]
 465              	.LBB3:
 299:.\Generated_Source\PSoC4/cyfitter_cfg.c **** 	{
 300:.\Generated_Source\PSoC4/cyfitter_cfg.c **** 		static const uint32 CYCODE cy_cfg_addr_table[] = {
 301:.\Generated_Source\PSoC4/cyfitter_cfg.c **** 			0x400F0001u, /* Base address: 0x400F0000 Count: 1 */
 302:.\Generated_Source\PSoC4/cyfitter_cfg.c **** 			0x400F303Cu, /* Base address: 0x400F3000 Count: 60 */
 303:.\Generated_Source\PSoC4/cyfitter_cfg.c **** 			0x400F3116u, /* Base address: 0x400F3100 Count: 22 */
 304:.\Generated_Source\PSoC4/cyfitter_cfg.c **** 			0x400F321Cu, /* Base address: 0x400F3200 Count: 28 */
 305:.\Generated_Source\PSoC4/cyfitter_cfg.c **** 			0x400F3319u, /* Base address: 0x400F3300 Count: 25 */
 306:.\Generated_Source\PSoC4/cyfitter_cfg.c **** 			0x400F4105u, /* Base address: 0x400F4100 Count: 5 */
 307:.\Generated_Source\PSoC4/cyfitter_cfg.c **** 			0x400F4204u, /* Base address: 0x400F4200 Count: 4 */
 308:.\Generated_Source\PSoC4/cyfitter_cfg.c **** 			0x400F4303u, /* Base address: 0x400F4300 Count: 3 */
 309:.\Generated_Source\PSoC4/cyfitter_cfg.c **** 			0x400F6002u, /* Base address: 0x400F6000 Count: 2 */
 310:.\Generated_Source\PSoC4/cyfitter_cfg.c **** 		};
 311:.\Generated_Source\PSoC4/cyfitter_cfg.c **** 
 312:.\Generated_Source\PSoC4/cyfitter_cfg.c **** 		static const cy_cfg_addrvalue_t CYCODE cy_cfg_data_table[] = {
 313:.\Generated_Source\PSoC4/cyfitter_cfg.c **** 			{0x82u, 0x0Du},
 314:.\Generated_Source\PSoC4/cyfitter_cfg.c **** 			{0x00u, 0x04u},
 315:.\Generated_Source\PSoC4/cyfitter_cfg.c **** 			{0x02u, 0x18u},
 316:.\Generated_Source\PSoC4/cyfitter_cfg.c **** 			{0x04u, 0x01u},
 317:.\Generated_Source\PSoC4/cyfitter_cfg.c **** 			{0x06u, 0x08u},
 318:.\Generated_Source\PSoC4/cyfitter_cfg.c **** 			{0x14u, 0x0Fu},
 319:.\Generated_Source\PSoC4/cyfitter_cfg.c **** 			{0x1Cu, 0x02u},
 320:.\Generated_Source\PSoC4/cyfitter_cfg.c **** 			{0x1Eu, 0x18u},
 321:.\Generated_Source\PSoC4/cyfitter_cfg.c **** 			{0x2Du, 0x01u},
 322:.\Generated_Source\PSoC4/cyfitter_cfg.c **** 			{0x2Eu, 0x27u},
 323:.\Generated_Source\PSoC4/cyfitter_cfg.c **** 			{0x30u, 0x10u},
 324:.\Generated_Source\PSoC4/cyfitter_cfg.c **** 			{0x31u, 0x01u},
 325:.\Generated_Source\PSoC4/cyfitter_cfg.c **** 			{0x32u, 0x08u},
 326:.\Generated_Source\PSoC4/cyfitter_cfg.c **** 			{0x34u, 0x07u},
 327:.\Generated_Source\PSoC4/cyfitter_cfg.c **** 			{0x36u, 0x20u},
 328:.\Generated_Source\PSoC4/cyfitter_cfg.c **** 			{0x3Au, 0x08u},
 329:.\Generated_Source\PSoC4/cyfitter_cfg.c **** 			{0x3Eu, 0x01u},
 330:.\Generated_Source\PSoC4/cyfitter_cfg.c **** 			{0x3Fu, 0x01u},
ARM GAS  C:\Users\Petro\AppData\Local\Temp\cctt6O6a.s 			page 15


 331:.\Generated_Source\PSoC4/cyfitter_cfg.c **** 			{0x40u, 0x21u},
 332:.\Generated_Source\PSoC4/cyfitter_cfg.c **** 			{0x49u, 0xFFu},
 333:.\Generated_Source\PSoC4/cyfitter_cfg.c **** 			{0x4Au, 0xFFu},
 334:.\Generated_Source\PSoC4/cyfitter_cfg.c **** 			{0x4Bu, 0xFFu},
 335:.\Generated_Source\PSoC4/cyfitter_cfg.c **** 			{0x4Fu, 0x01u},
 336:.\Generated_Source\PSoC4/cyfitter_cfg.c **** 			{0x50u, 0x18u},
 337:.\Generated_Source\PSoC4/cyfitter_cfg.c **** 			{0x52u, 0x80u},
 338:.\Generated_Source\PSoC4/cyfitter_cfg.c **** 			{0x58u, 0x0Bu},
 339:.\Generated_Source\PSoC4/cyfitter_cfg.c **** 			{0x59u, 0x04u},
 340:.\Generated_Source\PSoC4/cyfitter_cfg.c **** 			{0x5Au, 0x0Bu},
 341:.\Generated_Source\PSoC4/cyfitter_cfg.c **** 			{0x5Bu, 0x0Au},
 342:.\Generated_Source\PSoC4/cyfitter_cfg.c **** 			{0x5Cu, 0x09u},
 343:.\Generated_Source\PSoC4/cyfitter_cfg.c **** 			{0x5Du, 0x99u},
 344:.\Generated_Source\PSoC4/cyfitter_cfg.c **** 			{0x5Fu, 0x01u},
 345:.\Generated_Source\PSoC4/cyfitter_cfg.c **** 			{0x60u, 0x40u},
 346:.\Generated_Source\PSoC4/cyfitter_cfg.c **** 			{0x62u, 0x40u},
 347:.\Generated_Source\PSoC4/cyfitter_cfg.c **** 			{0x64u, 0x40u},
 348:.\Generated_Source\PSoC4/cyfitter_cfg.c **** 			{0x65u, 0x40u},
 349:.\Generated_Source\PSoC4/cyfitter_cfg.c **** 			{0x66u, 0x80u},
 350:.\Generated_Source\PSoC4/cyfitter_cfg.c **** 			{0x68u, 0x80u},
 351:.\Generated_Source\PSoC4/cyfitter_cfg.c **** 			{0x6Au, 0x80u},
 352:.\Generated_Source\PSoC4/cyfitter_cfg.c **** 			{0x6Cu, 0x80u},
 353:.\Generated_Source\PSoC4/cyfitter_cfg.c **** 			{0x6Eu, 0x80u},
 354:.\Generated_Source\PSoC4/cyfitter_cfg.c **** 			{0xC0u, 0x61u},
 355:.\Generated_Source\PSoC4/cyfitter_cfg.c **** 			{0xC9u, 0xFFu},
 356:.\Generated_Source\PSoC4/cyfitter_cfg.c **** 			{0xCAu, 0xFFu},
 357:.\Generated_Source\PSoC4/cyfitter_cfg.c **** 			{0xCBu, 0xFFu},
 358:.\Generated_Source\PSoC4/cyfitter_cfg.c **** 			{0xCDu, 0x83u},
 359:.\Generated_Source\PSoC4/cyfitter_cfg.c **** 			{0xCEu, 0x03u},
 360:.\Generated_Source\PSoC4/cyfitter_cfg.c **** 			{0xCFu, 0x01u},
 361:.\Generated_Source\PSoC4/cyfitter_cfg.c **** 			{0xD0u, 0x18u},
 362:.\Generated_Source\PSoC4/cyfitter_cfg.c **** 			{0xDAu, 0x0Bu},
 363:.\Generated_Source\PSoC4/cyfitter_cfg.c **** 			{0xDDu, 0x09u},
 364:.\Generated_Source\PSoC4/cyfitter_cfg.c **** 			{0xDFu, 0x01u},
 365:.\Generated_Source\PSoC4/cyfitter_cfg.c **** 			{0xE0u, 0x40u},
 366:.\Generated_Source\PSoC4/cyfitter_cfg.c **** 			{0xE2u, 0x40u},
 367:.\Generated_Source\PSoC4/cyfitter_cfg.c **** 			{0xE4u, 0x40u},
 368:.\Generated_Source\PSoC4/cyfitter_cfg.c **** 			{0xE5u, 0x40u},
 369:.\Generated_Source\PSoC4/cyfitter_cfg.c **** 			{0xE6u, 0x80u},
 370:.\Generated_Source\PSoC4/cyfitter_cfg.c **** 			{0xE8u, 0x80u},
 371:.\Generated_Source\PSoC4/cyfitter_cfg.c **** 			{0xEAu, 0x80u},
 372:.\Generated_Source\PSoC4/cyfitter_cfg.c **** 			{0xECu, 0x80u},
 373:.\Generated_Source\PSoC4/cyfitter_cfg.c **** 			{0xEEu, 0x80u},
 374:.\Generated_Source\PSoC4/cyfitter_cfg.c **** 			{0x00u, 0x06u},
 375:.\Generated_Source\PSoC4/cyfitter_cfg.c **** 			{0x0Au, 0x21u},
 376:.\Generated_Source\PSoC4/cyfitter_cfg.c **** 			{0x10u, 0x02u},
 377:.\Generated_Source\PSoC4/cyfitter_cfg.c **** 			{0x18u, 0x44u},
 378:.\Generated_Source\PSoC4/cyfitter_cfg.c **** 			{0x1Au, 0x21u},
 379:.\Generated_Source\PSoC4/cyfitter_cfg.c **** 			{0x1Bu, 0x10u},
 380:.\Generated_Source\PSoC4/cyfitter_cfg.c **** 			{0x21u, 0x01u},
 381:.\Generated_Source\PSoC4/cyfitter_cfg.c **** 			{0x28u, 0x01u},
 382:.\Generated_Source\PSoC4/cyfitter_cfg.c **** 			{0x40u, 0x04u},
 383:.\Generated_Source\PSoC4/cyfitter_cfg.c **** 			{0x42u, 0x02u},
 384:.\Generated_Source\PSoC4/cyfitter_cfg.c **** 			{0x46u, 0x02u},
 385:.\Generated_Source\PSoC4/cyfitter_cfg.c **** 			{0x4Fu, 0x20u},
 386:.\Generated_Source\PSoC4/cyfitter_cfg.c **** 			{0x70u, 0x02u},
 387:.\Generated_Source\PSoC4/cyfitter_cfg.c **** 			{0x78u, 0x0Au},
ARM GAS  C:\Users\Petro\AppData\Local\Temp\cctt6O6a.s 			page 16


 388:.\Generated_Source\PSoC4/cyfitter_cfg.c **** 			{0x7Eu, 0x80u},
 389:.\Generated_Source\PSoC4/cyfitter_cfg.c **** 			{0xC0u, 0x0Cu},
 390:.\Generated_Source\PSoC4/cyfitter_cfg.c **** 			{0xC2u, 0x05u},
 391:.\Generated_Source\PSoC4/cyfitter_cfg.c **** 			{0xC4u, 0x01u},
 392:.\Generated_Source\PSoC4/cyfitter_cfg.c **** 			{0xCAu, 0x08u},
 393:.\Generated_Source\PSoC4/cyfitter_cfg.c **** 			{0xD0u, 0x1Cu},
 394:.\Generated_Source\PSoC4/cyfitter_cfg.c **** 			{0xD2u, 0x20u},
 395:.\Generated_Source\PSoC4/cyfitter_cfg.c **** 			{0xDEu, 0x83u},
 396:.\Generated_Source\PSoC4/cyfitter_cfg.c **** 			{0x40u, 0x61u},
 397:.\Generated_Source\PSoC4/cyfitter_cfg.c **** 			{0x45u, 0xECu},
 398:.\Generated_Source\PSoC4/cyfitter_cfg.c **** 			{0x47u, 0x20u},
 399:.\Generated_Source\PSoC4/cyfitter_cfg.c **** 			{0x48u, 0x23u},
 400:.\Generated_Source\PSoC4/cyfitter_cfg.c **** 			{0x49u, 0xFFu},
 401:.\Generated_Source\PSoC4/cyfitter_cfg.c **** 			{0x4Au, 0xFFu},
 402:.\Generated_Source\PSoC4/cyfitter_cfg.c **** 			{0x4Bu, 0xFFu},
 403:.\Generated_Source\PSoC4/cyfitter_cfg.c **** 			{0x4Du, 0x83u},
 404:.\Generated_Source\PSoC4/cyfitter_cfg.c **** 			{0x4Eu, 0x03u},
 405:.\Generated_Source\PSoC4/cyfitter_cfg.c **** 			{0x4Fu, 0x01u},
 406:.\Generated_Source\PSoC4/cyfitter_cfg.c **** 			{0x50u, 0x18u},
 407:.\Generated_Source\PSoC4/cyfitter_cfg.c **** 			{0x54u, 0x01u},
 408:.\Generated_Source\PSoC4/cyfitter_cfg.c **** 			{0x5Au, 0x0Bu},
 409:.\Generated_Source\PSoC4/cyfitter_cfg.c **** 			{0x5Bu, 0x0Bu},
 410:.\Generated_Source\PSoC4/cyfitter_cfg.c **** 			{0x5Du, 0x99u},
 411:.\Generated_Source\PSoC4/cyfitter_cfg.c **** 			{0x5Fu, 0x01u},
 412:.\Generated_Source\PSoC4/cyfitter_cfg.c **** 			{0x60u, 0x40u},
 413:.\Generated_Source\PSoC4/cyfitter_cfg.c **** 			{0x62u, 0x40u},
 414:.\Generated_Source\PSoC4/cyfitter_cfg.c **** 			{0x64u, 0x40u},
 415:.\Generated_Source\PSoC4/cyfitter_cfg.c **** 			{0x65u, 0x40u},
 416:.\Generated_Source\PSoC4/cyfitter_cfg.c **** 			{0x66u, 0x80u},
 417:.\Generated_Source\PSoC4/cyfitter_cfg.c **** 			{0x68u, 0x80u},
 418:.\Generated_Source\PSoC4/cyfitter_cfg.c **** 			{0x6Au, 0x80u},
 419:.\Generated_Source\PSoC4/cyfitter_cfg.c **** 			{0x6Cu, 0x80u},
 420:.\Generated_Source\PSoC4/cyfitter_cfg.c **** 			{0x6Eu, 0x80u},
 421:.\Generated_Source\PSoC4/cyfitter_cfg.c **** 			{0xD6u, 0x08u},
 422:.\Generated_Source\PSoC4/cyfitter_cfg.c **** 			{0xDBu, 0x04u},
 423:.\Generated_Source\PSoC4/cyfitter_cfg.c **** 			{0xDDu, 0x90u},
 424:.\Generated_Source\PSoC4/cyfitter_cfg.c **** 			{0x46u, 0x02u},
 425:.\Generated_Source\PSoC4/cyfitter_cfg.c **** 			{0x4Fu, 0x25u},
 426:.\Generated_Source\PSoC4/cyfitter_cfg.c **** 			{0x54u, 0x01u},
 427:.\Generated_Source\PSoC4/cyfitter_cfg.c **** 			{0x56u, 0x02u},
 428:.\Generated_Source\PSoC4/cyfitter_cfg.c **** 			{0x5Au, 0x50u},
 429:.\Generated_Source\PSoC4/cyfitter_cfg.c **** 			{0x5Cu, 0x40u},
 430:.\Generated_Source\PSoC4/cyfitter_cfg.c **** 			{0x5Fu, 0x05u},
 431:.\Generated_Source\PSoC4/cyfitter_cfg.c **** 			{0x60u, 0x0Au},
 432:.\Generated_Source\PSoC4/cyfitter_cfg.c **** 			{0x62u, 0x80u},
 433:.\Generated_Source\PSoC4/cyfitter_cfg.c **** 			{0x7Eu, 0x80u},
 434:.\Generated_Source\PSoC4/cyfitter_cfg.c **** 			{0x90u, 0x40u},
 435:.\Generated_Source\PSoC4/cyfitter_cfg.c **** 			{0x92u, 0x50u},
 436:.\Generated_Source\PSoC4/cyfitter_cfg.c **** 			{0x9Cu, 0x0Au},
 437:.\Generated_Source\PSoC4/cyfitter_cfg.c **** 			{0x9Eu, 0x02u},
 438:.\Generated_Source\PSoC4/cyfitter_cfg.c **** 			{0xA3u, 0x10u},
 439:.\Generated_Source\PSoC4/cyfitter_cfg.c **** 			{0xA4u, 0x01u},
 440:.\Generated_Source\PSoC4/cyfitter_cfg.c **** 			{0xA6u, 0x80u},
 441:.\Generated_Source\PSoC4/cyfitter_cfg.c **** 			{0xADu, 0x01u},
 442:.\Generated_Source\PSoC4/cyfitter_cfg.c **** 			{0xB0u, 0x01u},
 443:.\Generated_Source\PSoC4/cyfitter_cfg.c **** 			{0xB6u, 0x50u},
 444:.\Generated_Source\PSoC4/cyfitter_cfg.c **** 			{0xD0u, 0x10u},
ARM GAS  C:\Users\Petro\AppData\Local\Temp\cctt6O6a.s 			page 17


 445:.\Generated_Source\PSoC4/cyfitter_cfg.c **** 			{0xD2u, 0x20u},
 446:.\Generated_Source\PSoC4/cyfitter_cfg.c **** 			{0xD6u, 0xDCu},
 447:.\Generated_Source\PSoC4/cyfitter_cfg.c **** 			{0xD8u, 0x0Cu},
 448:.\Generated_Source\PSoC4/cyfitter_cfg.c **** 			{0xDEu, 0x80u},
 449:.\Generated_Source\PSoC4/cyfitter_cfg.c **** 			{0x6Fu, 0x08u},
 450:.\Generated_Source\PSoC4/cyfitter_cfg.c **** 			{0xA3u, 0x08u},
 451:.\Generated_Source\PSoC4/cyfitter_cfg.c **** 			{0xAFu, 0x08u},
 452:.\Generated_Source\PSoC4/cyfitter_cfg.c **** 			{0xDAu, 0x80u},
 453:.\Generated_Source\PSoC4/cyfitter_cfg.c **** 			{0xEEu, 0x40u},
 454:.\Generated_Source\PSoC4/cyfitter_cfg.c **** 			{0x0Du, 0x10u},
 455:.\Generated_Source\PSoC4/cyfitter_cfg.c **** 			{0x24u, 0xA0u},
 456:.\Generated_Source\PSoC4/cyfitter_cfg.c **** 			{0xC2u, 0x01u},
 457:.\Generated_Source\PSoC4/cyfitter_cfg.c **** 			{0xC8u, 0x01u},
 458:.\Generated_Source\PSoC4/cyfitter_cfg.c **** 			{0xB1u, 0x10u},
 459:.\Generated_Source\PSoC4/cyfitter_cfg.c **** 			{0xB4u, 0x50u},
 460:.\Generated_Source\PSoC4/cyfitter_cfg.c **** 			{0xEEu, 0x0Eu},
 461:.\Generated_Source\PSoC4/cyfitter_cfg.c **** 			{0x02u, 0x01u},
 462:.\Generated_Source\PSoC4/cyfitter_cfg.c **** 			{0x11u, 0x01u},
 463:.\Generated_Source\PSoC4/cyfitter_cfg.c **** 		};
 464:.\Generated_Source\PSoC4/cyfitter_cfg.c **** 
 465:.\Generated_Source\PSoC4/cyfitter_cfg.c **** 
 466:.\Generated_Source\PSoC4/cyfitter_cfg.c **** 
 467:.\Generated_Source\PSoC4/cyfitter_cfg.c **** 		CYPACKED typedef struct {
 468:.\Generated_Source\PSoC4/cyfitter_cfg.c **** 			void CYFAR *address;
 469:.\Generated_Source\PSoC4/cyfitter_cfg.c **** 			uint16 size;
 470:.\Generated_Source\PSoC4/cyfitter_cfg.c **** 		} CYPACKED_ATTR cfg_memset_t;
 471:.\Generated_Source\PSoC4/cyfitter_cfg.c **** 
 472:.\Generated_Source\PSoC4/cyfitter_cfg.c **** 		static const cfg_memset_t CYCODE cfg_memset_list [] = {
 473:.\Generated_Source\PSoC4/cyfitter_cfg.c **** 			/* address, size */
 474:.\Generated_Source\PSoC4/cyfitter_cfg.c **** 			{(void CYFAR *)(CYDEV_UDB_P0_U0_BASE), 1024u},
 475:.\Generated_Source\PSoC4/cyfitter_cfg.c **** 			{(void CYFAR *)(CYDEV_UDB_DSI0_BASE), 1024u},
 476:.\Generated_Source\PSoC4/cyfitter_cfg.c **** 		};
 477:.\Generated_Source\PSoC4/cyfitter_cfg.c **** 
 478:.\Generated_Source\PSoC4/cyfitter_cfg.c **** 		uint8 CYDATA i;
 479:.\Generated_Source\PSoC4/cyfitter_cfg.c **** 
 480:.\Generated_Source\PSoC4/cyfitter_cfg.c **** 		/* Zero out critical memory blocks before beginning configuration */
 481:.\Generated_Source\PSoC4/cyfitter_cfg.c **** 		for (i = 0u; i < (sizeof(cfg_memset_list)/sizeof(cfg_memset_list[0])); i++)
 466              		.loc 1 481 0
 467 0144 FB1D     		add	r3, r7, #7
 468 0146 0022     		mov	r2, #0
 469 0148 1A70     		strb	r2, [r3]
 470 014a 23E0     		b	.L17
 471              	.L18:
 472              	.LBB4:
 482:.\Generated_Source\PSoC4/cyfitter_cfg.c **** 		{
 483:.\Generated_Source\PSoC4/cyfitter_cfg.c **** 			const cfg_memset_t CYCODE * CYDATA ms = &cfg_memset_list[i];
 473              		.loc 1 483 0 discriminator 3
 474 014c FB1D     		add	r3, r7, #7
 475 014e 1A78     		ldrb	r2, [r3]
 476 0150 131C     		mov	r3, r2
 477 0152 5B00     		lsl	r3, r3, #1
 478 0154 9B18     		add	r3, r3, r2
 479 0156 5B00     		lsl	r3, r3, #1
 480 0158 3E4A     		ldr	r2, .L19+8
 481 015a 9B18     		add	r3, r3, r2
 482 015c 3B60     		str	r3, [r7]
 484:.\Generated_Source\PSoC4/cyfitter_cfg.c **** 			CYMEMZERO(ms->address, (size_t)(uint32)(ms->size));
ARM GAS  C:\Users\Petro\AppData\Local\Temp\cctt6O6a.s 			page 18


 483              		.loc 1 484 0 discriminator 3
 484 015e 3B68     		ldr	r3, [r7]
 485 0160 1A78     		ldrb	r2, [r3]
 486 0162 5978     		ldrb	r1, [r3, #1]
 487 0164 0902     		lsl	r1, r1, #8
 488 0166 0A43     		orr	r2, r1
 489 0168 9978     		ldrb	r1, [r3, #2]
 490 016a 0904     		lsl	r1, r1, #16
 491 016c 0A43     		orr	r2, r1
 492 016e DB78     		ldrb	r3, [r3, #3]
 493 0170 1B06     		lsl	r3, r3, #24
 494 0172 1343     		orr	r3, r2
 495 0174 191C     		mov	r1, r3
 496 0176 3B68     		ldr	r3, [r7]
 497 0178 1A79     		ldrb	r2, [r3, #4]
 498 017a 5B79     		ldrb	r3, [r3, #5]
 499 017c 1B02     		lsl	r3, r3, #8
 500 017e 1343     		orr	r3, r2
 501 0180 9BB2     		uxth	r3, r3
 502 0182 081C     		mov	r0, r1
 503 0184 191C     		mov	r1, r3
 504 0186 FFF7FEFF 		bl	CYMEMZERO
 505              	.LBE4:
 481:.\Generated_Source\PSoC4/cyfitter_cfg.c **** 		{
 506              		.loc 1 481 0 discriminator 3
 507 018a FB1D     		add	r3, r7, #7
 508 018c 1A78     		ldrb	r2, [r3]
 509 018e FB1D     		add	r3, r7, #7
 510 0190 0132     		add	r2, r2, #1
 511 0192 1A70     		strb	r2, [r3]
 512              	.L17:
 481:.\Generated_Source\PSoC4/cyfitter_cfg.c **** 		{
 513              		.loc 1 481 0 is_stmt 0 discriminator 1
 514 0194 FB1D     		add	r3, r7, #7
 515 0196 1B78     		ldrb	r3, [r3]
 516 0198 012B     		cmp	r3, #1
 517 019a D7D9     		bls	.L18
 485:.\Generated_Source\PSoC4/cyfitter_cfg.c **** 		}
 486:.\Generated_Source\PSoC4/cyfitter_cfg.c **** 
 487:.\Generated_Source\PSoC4/cyfitter_cfg.c **** 		cfg_write_bytes32(cy_cfg_addr_table, cy_cfg_data_table);
 518              		.loc 1 487 0 is_stmt 1
 519 019c 2E4A     		ldr	r2, .L19+12
 520 019e 2F4B     		ldr	r3, .L19+16
 521 01a0 101C     		mov	r0, r2
 522 01a2 191C     		mov	r1, r3
 523 01a4 FFF7FEFF 		bl	cfg_write_bytes32
 488:.\Generated_Source\PSoC4/cyfitter_cfg.c **** 
 489:.\Generated_Source\PSoC4/cyfitter_cfg.c **** 		/* HSIOM Starting address: CYDEV_HSIOM_BASE */
 490:.\Generated_Source\PSoC4/cyfitter_cfg.c **** 		CY_SET_XTND_REG32((void CYFAR *)(CYDEV_HSIOM_BASE), 0xEE000099u);
 524              		.loc 1 490 0
 525 01a8 2D4B     		ldr	r3, .L19+20
 526 01aa 2E4A     		ldr	r2, .L19+24
 527 01ac 1A60     		str	r2, [r3]
 491:.\Generated_Source\PSoC4/cyfitter_cfg.c **** 
 492:.\Generated_Source\PSoC4/cyfitter_cfg.c **** 		/* UDB_PA_0 Starting address: CYDEV_UDB_PA0_BASE */
 493:.\Generated_Source\PSoC4/cyfitter_cfg.c **** 		CY_SET_XTND_REG32((void CYFAR *)(CYDEV_UDB_PA0_BASE), 0x00990000u);
 528              		.loc 1 493 0
ARM GAS  C:\Users\Petro\AppData\Local\Temp\cctt6O6a.s 			page 19


 529 01ae 2E4B     		ldr	r3, .L19+28
 530 01b0 9922     		mov	r2, #153
 531 01b2 1204     		lsl	r2, r2, #16
 532 01b4 1A60     		str	r2, [r3]
 494:.\Generated_Source\PSoC4/cyfitter_cfg.c **** 
 495:.\Generated_Source\PSoC4/cyfitter_cfg.c **** 		/* UDB_PA_1 Starting address: CYDEV_UDB_PA1_BASE */
 496:.\Generated_Source\PSoC4/cyfitter_cfg.c **** 		CY_SET_XTND_REG32((void CYFAR *)(CYDEV_UDB_PA1_BASE), 0x00990000u);
 533              		.loc 1 496 0
 534 01b6 2D4B     		ldr	r3, .L19+32
 535 01b8 9922     		mov	r2, #153
 536 01ba 1204     		lsl	r2, r2, #16
 537 01bc 1A60     		str	r2, [r3]
 497:.\Generated_Source\PSoC4/cyfitter_cfg.c **** 
 498:.\Generated_Source\PSoC4/cyfitter_cfg.c **** 		/* UDB_PA_2 Starting address: CYDEV_UDB_PA2_BASE */
 499:.\Generated_Source\PSoC4/cyfitter_cfg.c **** 		CY_SET_XTND_REG32((void CYFAR *)(CYDEV_UDB_PA2_BASE), 0x00990000u);
 538              		.loc 1 499 0
 539 01be 2C4B     		ldr	r3, .L19+36
 540 01c0 9922     		mov	r2, #153
 541 01c2 1204     		lsl	r2, r2, #16
 542 01c4 1A60     		str	r2, [r3]
 500:.\Generated_Source\PSoC4/cyfitter_cfg.c **** 
 501:.\Generated_Source\PSoC4/cyfitter_cfg.c **** 		/* UDB_PA_3 Starting address: CYDEV_UDB_PA3_BASE */
 502:.\Generated_Source\PSoC4/cyfitter_cfg.c **** 		CY_SET_XTND_REG32((void CYFAR *)(CYDEV_UDB_PA3_BASE), 0x00990000u);
 543              		.loc 1 502 0
 544 01c6 2B4B     		ldr	r3, .L19+40
 545 01c8 9922     		mov	r2, #153
 546 01ca 1204     		lsl	r2, r2, #16
 547 01cc 1A60     		str	r2, [r3]
 503:.\Generated_Source\PSoC4/cyfitter_cfg.c **** 
 504:.\Generated_Source\PSoC4/cyfitter_cfg.c **** 		/* INT_SELECT Starting address: CYDEV_CPUSS_INT_SEL */
 505:.\Generated_Source\PSoC4/cyfitter_cfg.c **** 		CY_SET_XTND_REG32((void CYFAR *)(CYREG_CPUSS_INT_SEL), 0x00000002u);
 548              		.loc 1 505 0
 549 01ce 2A4B     		ldr	r3, .L19+44
 550 01d0 0222     		mov	r2, #2
 551 01d2 1A60     		str	r2, [r3]
 506:.\Generated_Source\PSoC4/cyfitter_cfg.c **** 
 507:.\Generated_Source\PSoC4/cyfitter_cfg.c **** 		/* INT_CONFIG Starting address: CYDEV_UDB_INT_CFG */
 508:.\Generated_Source\PSoC4/cyfitter_cfg.c **** 		CY_SET_XTND_REG32((void CYFAR *)(CYREG_UDB_INT_CFG), 0x00000002u);
 552              		.loc 1 508 0
 553 01d4 294B     		ldr	r3, .L19+48
 554 01d6 0222     		mov	r2, #2
 555 01d8 1A60     		str	r2, [r3]
 509:.\Generated_Source\PSoC4/cyfitter_cfg.c **** 
 510:.\Generated_Source\PSoC4/cyfitter_cfg.c **** 		/* Enable digital routing */
 511:.\Generated_Source\PSoC4/cyfitter_cfg.c **** 		CY_SET_XTND_REG8((void *)CYREG_UDB_UDBIF_BANK_CTL, CY_GET_XTND_REG8((void *)CYREG_UDB_UDBIF_BANK_
 556              		.loc 1 511 0
 557 01da 294A     		ldr	r2, .L19+52
 558 01dc 284B     		ldr	r3, .L19+52
 559 01de 1B78     		ldrb	r3, [r3]
 560 01e0 DBB2     		uxtb	r3, r3
 561 01e2 0221     		mov	r1, #2
 562 01e4 0B43     		orr	r3, r1
 563 01e6 DBB2     		uxtb	r3, r3
 564 01e8 1370     		strb	r3, [r2]
 512:.\Generated_Source\PSoC4/cyfitter_cfg.c **** 
 513:.\Generated_Source\PSoC4/cyfitter_cfg.c **** 		/* Enable UDB array */
 514:.\Generated_Source\PSoC4/cyfitter_cfg.c **** 		CY_SET_XTND_REG8((void *)CYREG_UDB_UDBIF_WAIT_CFG, (uint8)((CY_GET_XTND_REG8((void *)CYREG_UDB_UD
ARM GAS  C:\Users\Petro\AppData\Local\Temp\cctt6O6a.s 			page 20


 565              		.loc 1 514 0
 566 01ea 264A     		ldr	r2, .L19+56
 567 01ec 254B     		ldr	r3, .L19+56
 568 01ee 1B78     		ldrb	r3, [r3]
 569 01f0 DBB2     		uxtb	r3, r3
 570 01f2 3C21     		mov	r1, #60
 571 01f4 8B43     		bic	r3, r1
 572 01f6 DBB2     		uxtb	r3, r3
 573 01f8 1421     		mov	r1, #20
 574 01fa 0B43     		orr	r3, r1
 575 01fc DBB2     		uxtb	r3, r3
 576 01fe 1370     		strb	r3, [r2]
 515:.\Generated_Source\PSoC4/cyfitter_cfg.c **** 		CY_SET_XTND_REG8((void *)CYREG_UDB_UDBIF_BANK_CTL, (uint8)(CY_GET_XTND_REG8((void *)CYREG_UDB_UDB
 577              		.loc 1 515 0
 578 0200 1F4A     		ldr	r2, .L19+52
 579 0202 1F4B     		ldr	r3, .L19+52
 580 0204 1B78     		ldrb	r3, [r3]
 581 0206 DBB2     		uxtb	r3, r3
 582 0208 1621     		mov	r1, #22
 583 020a 0B43     		orr	r3, r1
 584 020c DBB2     		uxtb	r3, r3
 585 020e 1370     		strb	r3, [r2]
 586              	.LBE3:
 516:.\Generated_Source\PSoC4/cyfitter_cfg.c **** 	}
 517:.\Generated_Source\PSoC4/cyfitter_cfg.c **** 
 518:.\Generated_Source\PSoC4/cyfitter_cfg.c **** 	/* Perform second pass device configuration. These items must be configured in specific order afte
 519:.\Generated_Source\PSoC4/cyfitter_cfg.c **** 	/* IOPINS0_0 Starting address: CYDEV_GPIO_PRT0_BASE */
 520:.\Generated_Source\PSoC4/cyfitter_cfg.c **** 	CY_SET_XTND_REG32((void CYFAR *)(CYDEV_GPIO_PRT0_BASE), 0x00000022u);
 587              		.loc 1 520 0
 588 0210 1D4B     		ldr	r3, .L19+60
 589 0212 2222     		mov	r2, #34
 590 0214 1A60     		str	r2, [r3]
 521:.\Generated_Source\PSoC4/cyfitter_cfg.c **** 	CY_SET_XTND_REG32((void CYFAR *)(CYREG_GPIO_PRT0_PC), 0x00DB0031u);
 591              		.loc 1 521 0
 592 0216 1D4B     		ldr	r3, .L19+64
 593 0218 1D4A     		ldr	r2, .L19+68
 594 021a 1A60     		str	r2, [r3]
 522:.\Generated_Source\PSoC4/cyfitter_cfg.c **** 	CY_SET_XTND_REG32((void CYFAR *)(CYREG_GPIO_PRT0_PC2), 0x00000002u);
 595              		.loc 1 522 0
 596 021c 1D4B     		ldr	r3, .L19+72
 597 021e 0222     		mov	r2, #2
 598 0220 1A60     		str	r2, [r3]
 523:.\Generated_Source\PSoC4/cyfitter_cfg.c **** 
 524:.\Generated_Source\PSoC4/cyfitter_cfg.c **** 	/* IOPINS0_1 Starting address: CYDEV_GPIO_PRT1_BASE */
 525:.\Generated_Source\PSoC4/cyfitter_cfg.c **** 	CY_SET_XTND_REG32((void CYFAR *)(CYREG_GPIO_PRT1_PC), 0x007B6DB6u);
 599              		.loc 1 525 0
 600 0222 1D4B     		ldr	r3, .L19+76
 601 0224 1D4A     		ldr	r2, .L19+80
 602 0226 1A60     		str	r2, [r3]
 526:.\Generated_Source\PSoC4/cyfitter_cfg.c **** 
 527:.\Generated_Source\PSoC4/cyfitter_cfg.c **** 	/* IOPINS0_2 Starting address: CYDEV_GPIO_PRT2_BASE */
 528:.\Generated_Source\PSoC4/cyfitter_cfg.c **** 	CY_SET_XTND_REG32((void CYFAR *)(CYDEV_GPIO_PRT2_BASE), 0x00000080u);
 603              		.loc 1 528 0
 604 0228 1D4B     		ldr	r3, .L19+84
 605 022a 8022     		mov	r2, #128
 606 022c 1A60     		str	r2, [r3]
 529:.\Generated_Source\PSoC4/cyfitter_cfg.c **** 	CY_SET_XTND_REG32((void CYFAR *)(CYREG_GPIO_PRT2_PC), 0x00400000u);
ARM GAS  C:\Users\Petro\AppData\Local\Temp\cctt6O6a.s 			page 21


 607              		.loc 1 529 0
 608 022e 1D4B     		ldr	r3, .L19+88
 609 0230 8022     		mov	r2, #128
 610 0232 D203     		lsl	r2, r2, #15
 611 0234 1A60     		str	r2, [r3]
 530:.\Generated_Source\PSoC4/cyfitter_cfg.c **** 
 531:.\Generated_Source\PSoC4/cyfitter_cfg.c **** 	/* IOPINS0_3 Starting address: CYDEV_GPIO_PRT3_BASE */
 532:.\Generated_Source\PSoC4/cyfitter_cfg.c **** 	CY_SET_XTND_REG32((void CYFAR *)(CYREG_GPIO_PRT3_PC), 0x00000003u);
 612              		.loc 1 532 0
 613 0236 1C4B     		ldr	r3, .L19+92
 614 0238 0322     		mov	r2, #3
 615 023a 1A60     		str	r2, [r3]
 533:.\Generated_Source\PSoC4/cyfitter_cfg.c **** 
 534:.\Generated_Source\PSoC4/cyfitter_cfg.c **** 
 535:.\Generated_Source\PSoC4/cyfitter_cfg.c **** 	/* Setup clocks based on selections from Clock DWR */
 536:.\Generated_Source\PSoC4/cyfitter_cfg.c **** 	ClockSetup();
 616              		.loc 1 536 0
 617 023c FFF7E0FE 		bl	ClockSetup
 537:.\Generated_Source\PSoC4/cyfitter_cfg.c **** 
 538:.\Generated_Source\PSoC4/cyfitter_cfg.c **** 	/* Perform basic analog initialization to defaults */
 539:.\Generated_Source\PSoC4/cyfitter_cfg.c **** 	AnalogSetDefault();
 618              		.loc 1 539 0
 619 0240 FFF7FEFF 		bl	AnalogSetDefault
 540:.\Generated_Source\PSoC4/cyfitter_cfg.c **** 
 541:.\Generated_Source\PSoC4/cyfitter_cfg.c **** }
 620              		.loc 1 541 0
 621 0244 BD46     		mov	sp, r7
 622 0246 02B0     		add	sp, sp, #8
 623              		@ sp needed
 624 0248 80BD     		pop	{r7, pc}
 625              	.L20:
 626 024a C046     		.align	2
 627              	.L19:
 628 024c 6CF02E40 		.word	1076818028
 629 0250 1C700F40 		.word	1074753564
 630 0254 00000000 		.word	cfg_memset_list.4784
 631 0258 0C000000 		.word	cy_cfg_addr_table.4778
 632 025c 30000000 		.word	cy_cfg_data_table.4779
 633 0260 00000240 		.word	1073872896
 634 0264 990000EE 		.word	-301989735
 635 0268 00500F40 		.word	1074745344
 636 026c 10500F40 		.word	1074745360
 637 0270 20500F40 		.word	1074745376
 638 0274 30500F40 		.word	1074745392
 639 0278 20001040 		.word	1074790432
 640 027c 00800F40 		.word	1074757632
 641 0280 00700F40 		.word	1074753536
 642 0284 01700F40 		.word	1074753537
 643 0288 00000440 		.word	1074003968
 644 028c 08000440 		.word	1074003976
 645 0290 3100DB00 		.word	14352433
 646 0294 18000440 		.word	1074003992
 647 0298 08010440 		.word	1074004232
 648 029c B66D7B00 		.word	8089014
 649 02a0 00020440 		.word	1074004480
 650 02a4 08020440 		.word	1074004488
 651 02a8 08030440 		.word	1074004744
ARM GAS  C:\Users\Petro\AppData\Local\Temp\cctt6O6a.s 			page 22


 652              		.cfi_endproc
 653              	.LFE8:
 654              		.size	cyfitter_cfg, .-cyfitter_cfg
 655              		.section	.rodata
 656              		.align	2
 657              		.type	cfg_memset_list.4784, %object
 658              		.size	cfg_memset_list.4784, 12
 659              	cfg_memset_list.4784:
 660 0000 00300F40 		.word	1074737152
 661 0004 0004     		.short	1024
 662 0006 00400F40 		.4byte	1074741248
 663 000a 0004     		.short	1024
 664              		.align	2
 665              		.type	cy_cfg_addr_table.4778, %object
 666              		.size	cy_cfg_addr_table.4778, 36
 667              	cy_cfg_addr_table.4778:
 668 000c 01000F40 		.word	1074724865
 669 0010 3C300F40 		.word	1074737212
 670 0014 16310F40 		.word	1074737430
 671 0018 1C320F40 		.word	1074737692
 672 001c 19330F40 		.word	1074737945
 673 0020 05410F40 		.word	1074741509
 674 0024 04420F40 		.word	1074741764
 675 0028 03430F40 		.word	1074742019
 676 002c 02600F40 		.word	1074749442
 677              		.align	2
 678              		.type	cy_cfg_data_table.4779, %object
 679              		.size	cy_cfg_data_table.4779, 300
 680              	cy_cfg_data_table.4779:
 681 0030 82       		.byte	-126
 682 0031 0D       		.byte	13
 683 0032 00       		.byte	0
 684 0033 04       		.byte	4
 685 0034 02       		.byte	2
 686 0035 18       		.byte	24
 687 0036 04       		.byte	4
 688 0037 01       		.byte	1
 689 0038 06       		.byte	6
 690 0039 08       		.byte	8
 691 003a 14       		.byte	20
 692 003b 0F       		.byte	15
 693 003c 1C       		.byte	28
 694 003d 02       		.byte	2
 695 003e 1E       		.byte	30
 696 003f 18       		.byte	24
 697 0040 2D       		.byte	45
 698 0041 01       		.byte	1
 699 0042 2E       		.byte	46
 700 0043 27       		.byte	39
 701 0044 30       		.byte	48
 702 0045 10       		.byte	16
 703 0046 31       		.byte	49
 704 0047 01       		.byte	1
 705 0048 32       		.byte	50
 706 0049 08       		.byte	8
 707 004a 34       		.byte	52
 708 004b 07       		.byte	7
ARM GAS  C:\Users\Petro\AppData\Local\Temp\cctt6O6a.s 			page 23


 709 004c 36       		.byte	54
 710 004d 20       		.byte	32
 711 004e 3A       		.byte	58
 712 004f 08       		.byte	8
 713 0050 3E       		.byte	62
 714 0051 01       		.byte	1
 715 0052 3F       		.byte	63
 716 0053 01       		.byte	1
 717 0054 40       		.byte	64
 718 0055 21       		.byte	33
 719 0056 49       		.byte	73
 720 0057 FF       		.byte	-1
 721 0058 4A       		.byte	74
 722 0059 FF       		.byte	-1
 723 005a 4B       		.byte	75
 724 005b FF       		.byte	-1
 725 005c 4F       		.byte	79
 726 005d 01       		.byte	1
 727 005e 50       		.byte	80
 728 005f 18       		.byte	24
 729 0060 52       		.byte	82
 730 0061 80       		.byte	-128
 731 0062 58       		.byte	88
 732 0063 0B       		.byte	11
 733 0064 59       		.byte	89
 734 0065 04       		.byte	4
 735 0066 5A       		.byte	90
 736 0067 0B       		.byte	11
 737 0068 5B       		.byte	91
 738 0069 0A       		.byte	10
 739 006a 5C       		.byte	92
 740 006b 09       		.byte	9
 741 006c 5D       		.byte	93
 742 006d 99       		.byte	-103
 743 006e 5F       		.byte	95
 744 006f 01       		.byte	1
 745 0070 60       		.byte	96
 746 0071 40       		.byte	64
 747 0072 62       		.byte	98
 748 0073 40       		.byte	64
 749 0074 64       		.byte	100
 750 0075 40       		.byte	64
 751 0076 65       		.byte	101
 752 0077 40       		.byte	64
 753 0078 66       		.byte	102
 754 0079 80       		.byte	-128
 755 007a 68       		.byte	104
 756 007b 80       		.byte	-128
 757 007c 6A       		.byte	106
 758 007d 80       		.byte	-128
 759 007e 6C       		.byte	108
 760 007f 80       		.byte	-128
 761 0080 6E       		.byte	110
 762 0081 80       		.byte	-128
 763 0082 C0       		.byte	-64
 764 0083 61       		.byte	97
 765 0084 C9       		.byte	-55
ARM GAS  C:\Users\Petro\AppData\Local\Temp\cctt6O6a.s 			page 24


 766 0085 FF       		.byte	-1
 767 0086 CA       		.byte	-54
 768 0087 FF       		.byte	-1
 769 0088 CB       		.byte	-53
 770 0089 FF       		.byte	-1
 771 008a CD       		.byte	-51
 772 008b 83       		.byte	-125
 773 008c CE       		.byte	-50
 774 008d 03       		.byte	3
 775 008e CF       		.byte	-49
 776 008f 01       		.byte	1
 777 0090 D0       		.byte	-48
 778 0091 18       		.byte	24
 779 0092 DA       		.byte	-38
 780 0093 0B       		.byte	11
 781 0094 DD       		.byte	-35
 782 0095 09       		.byte	9
 783 0096 DF       		.byte	-33
 784 0097 01       		.byte	1
 785 0098 E0       		.byte	-32
 786 0099 40       		.byte	64
 787 009a E2       		.byte	-30
 788 009b 40       		.byte	64
 789 009c E4       		.byte	-28
 790 009d 40       		.byte	64
 791 009e E5       		.byte	-27
 792 009f 40       		.byte	64
 793 00a0 E6       		.byte	-26
 794 00a1 80       		.byte	-128
 795 00a2 E8       		.byte	-24
 796 00a3 80       		.byte	-128
 797 00a4 EA       		.byte	-22
 798 00a5 80       		.byte	-128
 799 00a6 EC       		.byte	-20
 800 00a7 80       		.byte	-128
 801 00a8 EE       		.byte	-18
 802 00a9 80       		.byte	-128
 803 00aa 00       		.byte	0
 804 00ab 06       		.byte	6
 805 00ac 0A       		.byte	10
 806 00ad 21       		.byte	33
 807 00ae 10       		.byte	16
 808 00af 02       		.byte	2
 809 00b0 18       		.byte	24
 810 00b1 44       		.byte	68
 811 00b2 1A       		.byte	26
 812 00b3 21       		.byte	33
 813 00b4 1B       		.byte	27
 814 00b5 10       		.byte	16
 815 00b6 21       		.byte	33
 816 00b7 01       		.byte	1
 817 00b8 28       		.byte	40
 818 00b9 01       		.byte	1
 819 00ba 40       		.byte	64
 820 00bb 04       		.byte	4
 821 00bc 42       		.byte	66
 822 00bd 02       		.byte	2
ARM GAS  C:\Users\Petro\AppData\Local\Temp\cctt6O6a.s 			page 25


 823 00be 46       		.byte	70
 824 00bf 02       		.byte	2
 825 00c0 4F       		.byte	79
 826 00c1 20       		.byte	32
 827 00c2 70       		.byte	112
 828 00c3 02       		.byte	2
 829 00c4 78       		.byte	120
 830 00c5 0A       		.byte	10
 831 00c6 7E       		.byte	126
 832 00c7 80       		.byte	-128
 833 00c8 C0       		.byte	-64
 834 00c9 0C       		.byte	12
 835 00ca C2       		.byte	-62
 836 00cb 05       		.byte	5
 837 00cc C4       		.byte	-60
 838 00cd 01       		.byte	1
 839 00ce CA       		.byte	-54
 840 00cf 08       		.byte	8
 841 00d0 D0       		.byte	-48
 842 00d1 1C       		.byte	28
 843 00d2 D2       		.byte	-46
 844 00d3 20       		.byte	32
 845 00d4 DE       		.byte	-34
 846 00d5 83       		.byte	-125
 847 00d6 40       		.byte	64
 848 00d7 61       		.byte	97
 849 00d8 45       		.byte	69
 850 00d9 EC       		.byte	-20
 851 00da 47       		.byte	71
 852 00db 20       		.byte	32
 853 00dc 48       		.byte	72
 854 00dd 23       		.byte	35
 855 00de 49       		.byte	73
 856 00df FF       		.byte	-1
 857 00e0 4A       		.byte	74
 858 00e1 FF       		.byte	-1
 859 00e2 4B       		.byte	75
 860 00e3 FF       		.byte	-1
 861 00e4 4D       		.byte	77
 862 00e5 83       		.byte	-125
 863 00e6 4E       		.byte	78
 864 00e7 03       		.byte	3
 865 00e8 4F       		.byte	79
 866 00e9 01       		.byte	1
 867 00ea 50       		.byte	80
 868 00eb 18       		.byte	24
 869 00ec 54       		.byte	84
 870 00ed 01       		.byte	1
 871 00ee 5A       		.byte	90
 872 00ef 0B       		.byte	11
 873 00f0 5B       		.byte	91
 874 00f1 0B       		.byte	11
 875 00f2 5D       		.byte	93
 876 00f3 99       		.byte	-103
 877 00f4 5F       		.byte	95
 878 00f5 01       		.byte	1
 879 00f6 60       		.byte	96
ARM GAS  C:\Users\Petro\AppData\Local\Temp\cctt6O6a.s 			page 26


 880 00f7 40       		.byte	64
 881 00f8 62       		.byte	98
 882 00f9 40       		.byte	64
 883 00fa 64       		.byte	100
 884 00fb 40       		.byte	64
 885 00fc 65       		.byte	101
 886 00fd 40       		.byte	64
 887 00fe 66       		.byte	102
 888 00ff 80       		.byte	-128
 889 0100 68       		.byte	104
 890 0101 80       		.byte	-128
 891 0102 6A       		.byte	106
 892 0103 80       		.byte	-128
 893 0104 6C       		.byte	108
 894 0105 80       		.byte	-128
 895 0106 6E       		.byte	110
 896 0107 80       		.byte	-128
 897 0108 D6       		.byte	-42
 898 0109 08       		.byte	8
 899 010a DB       		.byte	-37
 900 010b 04       		.byte	4
 901 010c DD       		.byte	-35
 902 010d 90       		.byte	-112
 903 010e 46       		.byte	70
 904 010f 02       		.byte	2
 905 0110 4F       		.byte	79
 906 0111 25       		.byte	37
 907 0112 54       		.byte	84
 908 0113 01       		.byte	1
 909 0114 56       		.byte	86
 910 0115 02       		.byte	2
 911 0116 5A       		.byte	90
 912 0117 50       		.byte	80
 913 0118 5C       		.byte	92
 914 0119 40       		.byte	64
 915 011a 5F       		.byte	95
 916 011b 05       		.byte	5
 917 011c 60       		.byte	96
 918 011d 0A       		.byte	10
 919 011e 62       		.byte	98
 920 011f 80       		.byte	-128
 921 0120 7E       		.byte	126
 922 0121 80       		.byte	-128
 923 0122 90       		.byte	-112
 924 0123 40       		.byte	64
 925 0124 92       		.byte	-110
 926 0125 50       		.byte	80
 927 0126 9C       		.byte	-100
 928 0127 0A       		.byte	10
 929 0128 9E       		.byte	-98
 930 0129 02       		.byte	2
 931 012a A3       		.byte	-93
 932 012b 10       		.byte	16
 933 012c A4       		.byte	-92
 934 012d 01       		.byte	1
 935 012e A6       		.byte	-90
 936 012f 80       		.byte	-128
ARM GAS  C:\Users\Petro\AppData\Local\Temp\cctt6O6a.s 			page 27


 937 0130 AD       		.byte	-83
 938 0131 01       		.byte	1
 939 0132 B0       		.byte	-80
 940 0133 01       		.byte	1
 941 0134 B6       		.byte	-74
 942 0135 50       		.byte	80
 943 0136 D0       		.byte	-48
 944 0137 10       		.byte	16
 945 0138 D2       		.byte	-46
 946 0139 20       		.byte	32
 947 013a D6       		.byte	-42
 948 013b DC       		.byte	-36
 949 013c D8       		.byte	-40
 950 013d 0C       		.byte	12
 951 013e DE       		.byte	-34
 952 013f 80       		.byte	-128
 953 0140 6F       		.byte	111
 954 0141 08       		.byte	8
 955 0142 A3       		.byte	-93
 956 0143 08       		.byte	8
 957 0144 AF       		.byte	-81
 958 0145 08       		.byte	8
 959 0146 DA       		.byte	-38
 960 0147 80       		.byte	-128
 961 0148 EE       		.byte	-18
 962 0149 40       		.byte	64
 963 014a 0D       		.byte	13
 964 014b 10       		.byte	16
 965 014c 24       		.byte	36
 966 014d A0       		.byte	-96
 967 014e C2       		.byte	-62
 968 014f 01       		.byte	1
 969 0150 C8       		.byte	-56
 970 0151 01       		.byte	1
 971 0152 B1       		.byte	-79
 972 0153 10       		.byte	16
 973 0154 B4       		.byte	-76
 974 0155 50       		.byte	80
 975 0156 EE       		.byte	-18
 976 0157 0E       		.byte	14
 977 0158 02       		.byte	2
 978 0159 01       		.byte	1
 979 015a 11       		.byte	17
 980 015b 01       		.byte	1
 981              		.text
 982              	.Letext0:
 983              		.file 2 "c:\\program files (x86)\\cypress\\psoc creator\\3.3\\psoc creator\\import\\gnu\\arm\\4.9.
 984              		.file 3 ".\\Generated_Source\\PSoC4\\cytypes.h"