ARM GAS  C:\Users\Petro\AppData\Local\Temp\ccGaOsSx.s 			page 1


   1              		.cpu cortex-m0
   2              		.fpu softvfp
   3              		.eabi_attribute 20, 1
   4              		.eabi_attribute 21, 1
   5              		.eabi_attribute 23, 3
   6              		.eabi_attribute 24, 1
   7              		.eabi_attribute 25, 1
   8              		.eabi_attribute 26, 1
   9              		.eabi_attribute 30, 1
  10              		.eabi_attribute 34, 0
  11              		.eabi_attribute 18, 4
  12              		.code	16
  13              		.file	"SPI_SPI.c"
  14              		.text
  15              	.Ltext0:
  16              		.cfi_sections	.debug_frame
  17              		.section	.text.SPI_SpiPostEnable,"ax",%progbits
  18              		.align	2
  19              		.global	SPI_SpiPostEnable
  20              		.code	16
  21              		.thumb_func
  22              		.type	SPI_SpiPostEnable, %function
  23              	SPI_SpiPostEnable:
  24              	.LFB3:
  25              		.file 1 ".\\Generated_Source\\PSoC4\\SPI_SPI.c"
   1:.\Generated_Source\PSoC4/SPI_SPI.c **** /*******************************************************************************
   2:.\Generated_Source\PSoC4/SPI_SPI.c **** * File Name: SPI_SPI.c
   3:.\Generated_Source\PSoC4/SPI_SPI.c **** * Version 3.0
   4:.\Generated_Source\PSoC4/SPI_SPI.c **** *
   5:.\Generated_Source\PSoC4/SPI_SPI.c **** * Description:
   6:.\Generated_Source\PSoC4/SPI_SPI.c **** *  This file provides the source code to the API for the SCB Component in
   7:.\Generated_Source\PSoC4/SPI_SPI.c **** *  SPI mode.
   8:.\Generated_Source\PSoC4/SPI_SPI.c **** *
   9:.\Generated_Source\PSoC4/SPI_SPI.c **** * Note:
  10:.\Generated_Source\PSoC4/SPI_SPI.c **** *
  11:.\Generated_Source\PSoC4/SPI_SPI.c **** *******************************************************************************
  12:.\Generated_Source\PSoC4/SPI_SPI.c **** * Copyright 2013-2015, Cypress Semiconductor Corporation.  All rights reserved.
  13:.\Generated_Source\PSoC4/SPI_SPI.c **** * You may use this file only in accordance with the license, terms, conditions,
  14:.\Generated_Source\PSoC4/SPI_SPI.c **** * disclaimers, and limitations in the end user license agreement accompanying
  15:.\Generated_Source\PSoC4/SPI_SPI.c **** * the software package with which this file was provided.
  16:.\Generated_Source\PSoC4/SPI_SPI.c **** *******************************************************************************/
  17:.\Generated_Source\PSoC4/SPI_SPI.c **** 
  18:.\Generated_Source\PSoC4/SPI_SPI.c **** #include "SPI_PVT.h"
  19:.\Generated_Source\PSoC4/SPI_SPI.c **** #include "SPI_SPI_UART_PVT.h"
  20:.\Generated_Source\PSoC4/SPI_SPI.c **** 
  21:.\Generated_Source\PSoC4/SPI_SPI.c **** #if(SPI_SCB_MODE_UNCONFIG_CONST_CFG)
  22:.\Generated_Source\PSoC4/SPI_SPI.c **** 
  23:.\Generated_Source\PSoC4/SPI_SPI.c ****     /***************************************
  24:.\Generated_Source\PSoC4/SPI_SPI.c ****     *  Configuration Structure Initialization
  25:.\Generated_Source\PSoC4/SPI_SPI.c ****     ***************************************/
  26:.\Generated_Source\PSoC4/SPI_SPI.c **** 
  27:.\Generated_Source\PSoC4/SPI_SPI.c ****     const SPI_SPI_INIT_STRUCT SPI_configSpi =
  28:.\Generated_Source\PSoC4/SPI_SPI.c ****     {
  29:.\Generated_Source\PSoC4/SPI_SPI.c ****         SPI_SPI_MODE,
  30:.\Generated_Source\PSoC4/SPI_SPI.c ****         SPI_SPI_SUB_MODE,
  31:.\Generated_Source\PSoC4/SPI_SPI.c ****         SPI_SPI_CLOCK_MODE,
  32:.\Generated_Source\PSoC4/SPI_SPI.c ****         SPI_SPI_OVS_FACTOR,
ARM GAS  C:\Users\Petro\AppData\Local\Temp\ccGaOsSx.s 			page 2


  33:.\Generated_Source\PSoC4/SPI_SPI.c ****         SPI_SPI_MEDIAN_FILTER_ENABLE,
  34:.\Generated_Source\PSoC4/SPI_SPI.c ****         SPI_SPI_LATE_MISO_SAMPLE_ENABLE,
  35:.\Generated_Source\PSoC4/SPI_SPI.c ****         SPI_SPI_WAKE_ENABLE,
  36:.\Generated_Source\PSoC4/SPI_SPI.c ****         SPI_SPI_RX_DATA_BITS_NUM,
  37:.\Generated_Source\PSoC4/SPI_SPI.c ****         SPI_SPI_TX_DATA_BITS_NUM,
  38:.\Generated_Source\PSoC4/SPI_SPI.c ****         SPI_SPI_BITS_ORDER,
  39:.\Generated_Source\PSoC4/SPI_SPI.c ****         SPI_SPI_TRANSFER_SEPARATION,
  40:.\Generated_Source\PSoC4/SPI_SPI.c ****         0u,
  41:.\Generated_Source\PSoC4/SPI_SPI.c ****         NULL,
  42:.\Generated_Source\PSoC4/SPI_SPI.c ****         0u,
  43:.\Generated_Source\PSoC4/SPI_SPI.c ****         NULL,
  44:.\Generated_Source\PSoC4/SPI_SPI.c ****         (uint32) SPI_SCB_IRQ_INTERNAL,
  45:.\Generated_Source\PSoC4/SPI_SPI.c ****         SPI_SPI_INTR_RX_MASK,
  46:.\Generated_Source\PSoC4/SPI_SPI.c ****         SPI_SPI_RX_TRIGGER_LEVEL,
  47:.\Generated_Source\PSoC4/SPI_SPI.c ****         SPI_SPI_INTR_TX_MASK,
  48:.\Generated_Source\PSoC4/SPI_SPI.c ****         SPI_SPI_TX_TRIGGER_LEVEL,
  49:.\Generated_Source\PSoC4/SPI_SPI.c ****         (uint8) SPI_SPI_BYTE_MODE_ENABLE,
  50:.\Generated_Source\PSoC4/SPI_SPI.c ****         (uint8) SPI_SPI_FREE_RUN_SCLK_ENABLE,
  51:.\Generated_Source\PSoC4/SPI_SPI.c ****         (uint8) SPI_SPI_SS_POLARITY
  52:.\Generated_Source\PSoC4/SPI_SPI.c ****     };
  53:.\Generated_Source\PSoC4/SPI_SPI.c **** 
  54:.\Generated_Source\PSoC4/SPI_SPI.c **** 
  55:.\Generated_Source\PSoC4/SPI_SPI.c ****     /*******************************************************************************
  56:.\Generated_Source\PSoC4/SPI_SPI.c ****     * Function Name: SPI_SpiInit
  57:.\Generated_Source\PSoC4/SPI_SPI.c ****     ********************************************************************************
  58:.\Generated_Source\PSoC4/SPI_SPI.c ****     *
  59:.\Generated_Source\PSoC4/SPI_SPI.c ****     * Summary:
  60:.\Generated_Source\PSoC4/SPI_SPI.c ****     *  Configures the SCB for the SPI operation.
  61:.\Generated_Source\PSoC4/SPI_SPI.c ****     *
  62:.\Generated_Source\PSoC4/SPI_SPI.c ****     * Parameters:
  63:.\Generated_Source\PSoC4/SPI_SPI.c ****     *  config:  Pointer to a structure that contains the following ordered list of
  64:.\Generated_Source\PSoC4/SPI_SPI.c ****     *           fields. These fields match the selections available in the
  65:.\Generated_Source\PSoC4/SPI_SPI.c ****     *           customizer.
  66:.\Generated_Source\PSoC4/SPI_SPI.c ****     *
  67:.\Generated_Source\PSoC4/SPI_SPI.c ****     * Return:
  68:.\Generated_Source\PSoC4/SPI_SPI.c ****     *  None
  69:.\Generated_Source\PSoC4/SPI_SPI.c ****     *
  70:.\Generated_Source\PSoC4/SPI_SPI.c ****     *******************************************************************************/
  71:.\Generated_Source\PSoC4/SPI_SPI.c ****     void SPI_SpiInit(const SPI_SPI_INIT_STRUCT *config)
  72:.\Generated_Source\PSoC4/SPI_SPI.c ****     {
  73:.\Generated_Source\PSoC4/SPI_SPI.c ****         if(NULL == config)
  74:.\Generated_Source\PSoC4/SPI_SPI.c ****         {
  75:.\Generated_Source\PSoC4/SPI_SPI.c ****             CYASSERT(0u != 0u); /* Halt execution due to bad function parameter */
  76:.\Generated_Source\PSoC4/SPI_SPI.c ****         }
  77:.\Generated_Source\PSoC4/SPI_SPI.c ****         else
  78:.\Generated_Source\PSoC4/SPI_SPI.c ****         {
  79:.\Generated_Source\PSoC4/SPI_SPI.c ****             /* Configure pins */
  80:.\Generated_Source\PSoC4/SPI_SPI.c ****             SPI_SetPins(SPI_SCB_MODE_SPI, config->mode, SPI_DUMMY_PARAM);
  81:.\Generated_Source\PSoC4/SPI_SPI.c **** 
  82:.\Generated_Source\PSoC4/SPI_SPI.c ****             /* Store internal configuration */
  83:.\Generated_Source\PSoC4/SPI_SPI.c ****             SPI_scbMode       = (uint8) SPI_SCB_MODE_SPI;
  84:.\Generated_Source\PSoC4/SPI_SPI.c ****             SPI_scbEnableWake = (uint8) config->enableWake;
  85:.\Generated_Source\PSoC4/SPI_SPI.c ****             SPI_scbEnableIntr = (uint8) config->enableInterrupt;
  86:.\Generated_Source\PSoC4/SPI_SPI.c **** 
  87:.\Generated_Source\PSoC4/SPI_SPI.c ****             /* Set RX direction internal variables */
  88:.\Generated_Source\PSoC4/SPI_SPI.c ****             SPI_rxBuffer      =         config->rxBuffer;
  89:.\Generated_Source\PSoC4/SPI_SPI.c ****             SPI_rxDataBits    = (uint8) config->rxDataBits;
ARM GAS  C:\Users\Petro\AppData\Local\Temp\ccGaOsSx.s 			page 3


  90:.\Generated_Source\PSoC4/SPI_SPI.c ****             SPI_rxBufferSize  = (uint8) config->rxBufferSize;
  91:.\Generated_Source\PSoC4/SPI_SPI.c **** 
  92:.\Generated_Source\PSoC4/SPI_SPI.c ****             /* Set TX direction internal variables */
  93:.\Generated_Source\PSoC4/SPI_SPI.c ****             SPI_txBuffer      =         config->txBuffer;
  94:.\Generated_Source\PSoC4/SPI_SPI.c ****             SPI_txDataBits    = (uint8) config->txDataBits;
  95:.\Generated_Source\PSoC4/SPI_SPI.c ****             SPI_txBufferSize  = (uint8) config->txBufferSize;
  96:.\Generated_Source\PSoC4/SPI_SPI.c **** 
  97:.\Generated_Source\PSoC4/SPI_SPI.c ****             /* Configure SPI interface */
  98:.\Generated_Source\PSoC4/SPI_SPI.c ****             SPI_CTRL_REG     = SPI_GET_CTRL_OVS(config->oversample)           |
  99:.\Generated_Source\PSoC4/SPI_SPI.c ****                                             SPI_GET_CTRL_BYTE_MODE(config->enableByteMode) |
 100:.\Generated_Source\PSoC4/SPI_SPI.c ****                                             SPI_GET_CTRL_EC_AM_MODE(config->enableWake)    |
 101:.\Generated_Source\PSoC4/SPI_SPI.c ****                                             SPI_CTRL_SPI;
 102:.\Generated_Source\PSoC4/SPI_SPI.c **** 
 103:.\Generated_Source\PSoC4/SPI_SPI.c ****             SPI_SPI_CTRL_REG = SPI_GET_SPI_CTRL_CONTINUOUS    (config->transferSeperation)  |
 104:.\Generated_Source\PSoC4/SPI_SPI.c ****                                             SPI_GET_SPI_CTRL_SELECT_PRECEDE(config->submode &
 105:.\Generated_Source\PSoC4/SPI_SPI.c ****                                                                           SPI_SPI_MODE_TI_PRECEDES_
 106:.\Generated_Source\PSoC4/SPI_SPI.c ****                                             SPI_GET_SPI_CTRL_SCLK_MODE     (config->sclkMode)      
 107:.\Generated_Source\PSoC4/SPI_SPI.c ****                                             SPI_GET_SPI_CTRL_LATE_MISO_SAMPLE(config->enableLateSam
 108:.\Generated_Source\PSoC4/SPI_SPI.c ****                                             SPI_GET_SPI_CTRL_SCLK_CONTINUOUS(config->enableFreeRunS
 109:.\Generated_Source\PSoC4/SPI_SPI.c ****                                             SPI_GET_SPI_CTRL_SSEL_POLARITY (config->polaritySs)    
 110:.\Generated_Source\PSoC4/SPI_SPI.c ****                                             SPI_GET_SPI_CTRL_SUB_MODE      (config->submode)       
 111:.\Generated_Source\PSoC4/SPI_SPI.c ****                                             SPI_GET_SPI_CTRL_MASTER_MODE   (config->mode);
 112:.\Generated_Source\PSoC4/SPI_SPI.c **** 
 113:.\Generated_Source\PSoC4/SPI_SPI.c ****             /* Configure RX direction */
 114:.\Generated_Source\PSoC4/SPI_SPI.c ****             SPI_RX_CTRL_REG     =  SPI_GET_RX_CTRL_DATA_WIDTH(config->rxDataBits)         |
 115:.\Generated_Source\PSoC4/SPI_SPI.c ****                                                 SPI_GET_RX_CTRL_BIT_ORDER (config->bitOrder)       
 116:.\Generated_Source\PSoC4/SPI_SPI.c ****                                                 SPI_GET_RX_CTRL_MEDIAN    (config->enableMedianFilt
 117:.\Generated_Source\PSoC4/SPI_SPI.c ****                                                 SPI_SPI_RX_CTRL;
 118:.\Generated_Source\PSoC4/SPI_SPI.c **** 
 119:.\Generated_Source\PSoC4/SPI_SPI.c ****             SPI_RX_FIFO_CTRL_REG = SPI_GET_RX_FIFO_CTRL_TRIGGER_LEVEL(config->rxTriggerLevel);
 120:.\Generated_Source\PSoC4/SPI_SPI.c **** 
 121:.\Generated_Source\PSoC4/SPI_SPI.c ****             /* Configure TX direction */
 122:.\Generated_Source\PSoC4/SPI_SPI.c ****             SPI_TX_CTRL_REG      = SPI_GET_TX_CTRL_DATA_WIDTH(config->txDataBits) |
 123:.\Generated_Source\PSoC4/SPI_SPI.c ****                                                 SPI_GET_TX_CTRL_BIT_ORDER (config->bitOrder)   |
 124:.\Generated_Source\PSoC4/SPI_SPI.c ****                                                 SPI_SPI_TX_CTRL;
 125:.\Generated_Source\PSoC4/SPI_SPI.c **** 
 126:.\Generated_Source\PSoC4/SPI_SPI.c ****             SPI_TX_FIFO_CTRL_REG = SPI_GET_TX_FIFO_CTRL_TRIGGER_LEVEL(config->txTriggerLevel);
 127:.\Generated_Source\PSoC4/SPI_SPI.c **** 
 128:.\Generated_Source\PSoC4/SPI_SPI.c ****             /* Configure interrupt with SPI handler but do not enable it */
 129:.\Generated_Source\PSoC4/SPI_SPI.c ****             CyIntDisable    (SPI_ISR_NUMBER);
 130:.\Generated_Source\PSoC4/SPI_SPI.c ****             CyIntSetPriority(SPI_ISR_NUMBER, SPI_ISR_PRIORITY);
 131:.\Generated_Source\PSoC4/SPI_SPI.c ****             (void) CyIntSetVector(SPI_ISR_NUMBER, &SPI_SPI_UART_ISR);
 132:.\Generated_Source\PSoC4/SPI_SPI.c **** 
 133:.\Generated_Source\PSoC4/SPI_SPI.c ****             /* Configure interrupt sources */
 134:.\Generated_Source\PSoC4/SPI_SPI.c ****             SPI_INTR_I2C_EC_MASK_REG = SPI_NO_INTR_SOURCES;
 135:.\Generated_Source\PSoC4/SPI_SPI.c ****             SPI_INTR_SPI_EC_MASK_REG = SPI_NO_INTR_SOURCES;
 136:.\Generated_Source\PSoC4/SPI_SPI.c ****             SPI_INTR_SLAVE_MASK_REG  = SPI_GET_SPI_INTR_SLAVE_MASK(config->rxInterruptMask);
 137:.\Generated_Source\PSoC4/SPI_SPI.c ****             SPI_INTR_MASTER_MASK_REG = SPI_GET_SPI_INTR_MASTER_MASK(config->txInterruptMask);
 138:.\Generated_Source\PSoC4/SPI_SPI.c ****             SPI_INTR_RX_MASK_REG     = SPI_GET_SPI_INTR_RX_MASK(config->rxInterruptMask);
 139:.\Generated_Source\PSoC4/SPI_SPI.c ****             SPI_INTR_TX_MASK_REG     = SPI_GET_SPI_INTR_TX_MASK(config->txInterruptMask);
 140:.\Generated_Source\PSoC4/SPI_SPI.c **** 
 141:.\Generated_Source\PSoC4/SPI_SPI.c ****             /* Set active SS0 */
 142:.\Generated_Source\PSoC4/SPI_SPI.c ****             SPI_SpiSetActiveSlaveSelect(SPI_SPI_SLAVE_SELECT0);
 143:.\Generated_Source\PSoC4/SPI_SPI.c **** 
 144:.\Generated_Source\PSoC4/SPI_SPI.c ****             /* Clear RX buffer indexes */
 145:.\Generated_Source\PSoC4/SPI_SPI.c ****             SPI_rxBufferHead     = 0u;
 146:.\Generated_Source\PSoC4/SPI_SPI.c ****             SPI_rxBufferTail     = 0u;
ARM GAS  C:\Users\Petro\AppData\Local\Temp\ccGaOsSx.s 			page 4


 147:.\Generated_Source\PSoC4/SPI_SPI.c ****             SPI_rxBufferOverflow = 0u;
 148:.\Generated_Source\PSoC4/SPI_SPI.c **** 
 149:.\Generated_Source\PSoC4/SPI_SPI.c ****             /* Clear TX buffer indexes */
 150:.\Generated_Source\PSoC4/SPI_SPI.c ****             SPI_txBufferHead = 0u;
 151:.\Generated_Source\PSoC4/SPI_SPI.c ****             SPI_txBufferTail = 0u;
 152:.\Generated_Source\PSoC4/SPI_SPI.c ****         }
 153:.\Generated_Source\PSoC4/SPI_SPI.c ****     }
 154:.\Generated_Source\PSoC4/SPI_SPI.c **** 
 155:.\Generated_Source\PSoC4/SPI_SPI.c **** #else
 156:.\Generated_Source\PSoC4/SPI_SPI.c **** 
 157:.\Generated_Source\PSoC4/SPI_SPI.c ****     /*******************************************************************************
 158:.\Generated_Source\PSoC4/SPI_SPI.c ****     * Function Name: SPI_SpiInit
 159:.\Generated_Source\PSoC4/SPI_SPI.c ****     ********************************************************************************
 160:.\Generated_Source\PSoC4/SPI_SPI.c ****     *
 161:.\Generated_Source\PSoC4/SPI_SPI.c ****     * Summary:
 162:.\Generated_Source\PSoC4/SPI_SPI.c ****     *  Configures the SCB for the SPI operation.
 163:.\Generated_Source\PSoC4/SPI_SPI.c ****     *
 164:.\Generated_Source\PSoC4/SPI_SPI.c ****     * Parameters:
 165:.\Generated_Source\PSoC4/SPI_SPI.c ****     *  None
 166:.\Generated_Source\PSoC4/SPI_SPI.c ****     *
 167:.\Generated_Source\PSoC4/SPI_SPI.c ****     * Return:
 168:.\Generated_Source\PSoC4/SPI_SPI.c ****     *  None
 169:.\Generated_Source\PSoC4/SPI_SPI.c ****     *
 170:.\Generated_Source\PSoC4/SPI_SPI.c ****     *******************************************************************************/
 171:.\Generated_Source\PSoC4/SPI_SPI.c ****     void SPI_SpiInit(void)
 172:.\Generated_Source\PSoC4/SPI_SPI.c ****     {
 173:.\Generated_Source\PSoC4/SPI_SPI.c ****         /* Configure SPI interface */
 174:.\Generated_Source\PSoC4/SPI_SPI.c ****         SPI_CTRL_REG     = SPI_SPI_DEFAULT_CTRL;
 175:.\Generated_Source\PSoC4/SPI_SPI.c ****         SPI_SPI_CTRL_REG = SPI_SPI_DEFAULT_SPI_CTRL;
 176:.\Generated_Source\PSoC4/SPI_SPI.c **** 
 177:.\Generated_Source\PSoC4/SPI_SPI.c ****         /* Configure TX and RX direction */
 178:.\Generated_Source\PSoC4/SPI_SPI.c ****         SPI_RX_CTRL_REG      = SPI_SPI_DEFAULT_RX_CTRL;
 179:.\Generated_Source\PSoC4/SPI_SPI.c ****         SPI_RX_FIFO_CTRL_REG = SPI_SPI_DEFAULT_RX_FIFO_CTRL;
 180:.\Generated_Source\PSoC4/SPI_SPI.c **** 
 181:.\Generated_Source\PSoC4/SPI_SPI.c ****         /* Configure TX and RX direction */
 182:.\Generated_Source\PSoC4/SPI_SPI.c ****         SPI_TX_CTRL_REG      = SPI_SPI_DEFAULT_TX_CTRL;
 183:.\Generated_Source\PSoC4/SPI_SPI.c ****         SPI_TX_FIFO_CTRL_REG = SPI_SPI_DEFAULT_TX_FIFO_CTRL;
 184:.\Generated_Source\PSoC4/SPI_SPI.c **** 
 185:.\Generated_Source\PSoC4/SPI_SPI.c ****         /* Configure interrupt with SPI handler but do not enable it */
 186:.\Generated_Source\PSoC4/SPI_SPI.c ****     #if(SPI_SCB_IRQ_INTERNAL)
 187:.\Generated_Source\PSoC4/SPI_SPI.c ****             CyIntDisable    (SPI_ISR_NUMBER);
 188:.\Generated_Source\PSoC4/SPI_SPI.c ****             CyIntSetPriority(SPI_ISR_NUMBER, SPI_ISR_PRIORITY);
 189:.\Generated_Source\PSoC4/SPI_SPI.c ****             (void) CyIntSetVector(SPI_ISR_NUMBER, &SPI_SPI_UART_ISR);
 190:.\Generated_Source\PSoC4/SPI_SPI.c ****     #endif /* (SPI_SCB_IRQ_INTERNAL) */
 191:.\Generated_Source\PSoC4/SPI_SPI.c **** 
 192:.\Generated_Source\PSoC4/SPI_SPI.c ****         /* Configure interrupt sources */
 193:.\Generated_Source\PSoC4/SPI_SPI.c ****         SPI_INTR_I2C_EC_MASK_REG = SPI_SPI_DEFAULT_INTR_I2C_EC_MASK;
 194:.\Generated_Source\PSoC4/SPI_SPI.c ****         SPI_INTR_SPI_EC_MASK_REG = SPI_SPI_DEFAULT_INTR_SPI_EC_MASK;
 195:.\Generated_Source\PSoC4/SPI_SPI.c ****         SPI_INTR_SLAVE_MASK_REG  = SPI_SPI_DEFAULT_INTR_SLAVE_MASK;
 196:.\Generated_Source\PSoC4/SPI_SPI.c ****         SPI_INTR_MASTER_MASK_REG = SPI_SPI_DEFAULT_INTR_MASTER_MASK;
 197:.\Generated_Source\PSoC4/SPI_SPI.c ****         SPI_INTR_RX_MASK_REG     = SPI_SPI_DEFAULT_INTR_RX_MASK;
 198:.\Generated_Source\PSoC4/SPI_SPI.c ****         SPI_INTR_TX_MASK_REG     = SPI_SPI_DEFAULT_INTR_TX_MASK;
 199:.\Generated_Source\PSoC4/SPI_SPI.c **** 
 200:.\Generated_Source\PSoC4/SPI_SPI.c ****         /* Set active SS0 for master */
 201:.\Generated_Source\PSoC4/SPI_SPI.c ****     #if (SPI_SPI_MASTER_CONST)
 202:.\Generated_Source\PSoC4/SPI_SPI.c ****         SPI_SpiSetActiveSlaveSelect(SPI_SPI_SLAVE_SELECT0);
 203:.\Generated_Source\PSoC4/SPI_SPI.c ****     #endif /* (SPI_SPI_MASTER_CONST) */
ARM GAS  C:\Users\Petro\AppData\Local\Temp\ccGaOsSx.s 			page 5


 204:.\Generated_Source\PSoC4/SPI_SPI.c **** 
 205:.\Generated_Source\PSoC4/SPI_SPI.c ****     #if(SPI_INTERNAL_RX_SW_BUFFER_CONST)
 206:.\Generated_Source\PSoC4/SPI_SPI.c ****         SPI_rxBufferHead     = 0u;
 207:.\Generated_Source\PSoC4/SPI_SPI.c ****         SPI_rxBufferTail     = 0u;
 208:.\Generated_Source\PSoC4/SPI_SPI.c ****         SPI_rxBufferOverflow = 0u;
 209:.\Generated_Source\PSoC4/SPI_SPI.c ****     #endif /* (SPI_INTERNAL_RX_SW_BUFFER_CONST) */
 210:.\Generated_Source\PSoC4/SPI_SPI.c **** 
 211:.\Generated_Source\PSoC4/SPI_SPI.c ****     #if(SPI_INTERNAL_TX_SW_BUFFER_CONST)
 212:.\Generated_Source\PSoC4/SPI_SPI.c ****         SPI_txBufferHead = 0u;
 213:.\Generated_Source\PSoC4/SPI_SPI.c ****         SPI_txBufferTail = 0u;
 214:.\Generated_Source\PSoC4/SPI_SPI.c ****     #endif /* (SPI_INTERNAL_TX_SW_BUFFER_CONST) */
 215:.\Generated_Source\PSoC4/SPI_SPI.c ****     }
 216:.\Generated_Source\PSoC4/SPI_SPI.c **** #endif /* (SPI_SCB_MODE_UNCONFIG_CONST_CFG) */
 217:.\Generated_Source\PSoC4/SPI_SPI.c **** 
 218:.\Generated_Source\PSoC4/SPI_SPI.c **** 
 219:.\Generated_Source\PSoC4/SPI_SPI.c **** /*******************************************************************************
 220:.\Generated_Source\PSoC4/SPI_SPI.c **** * Function Name: SPI_SpiPostEnable
 221:.\Generated_Source\PSoC4/SPI_SPI.c **** ********************************************************************************
 222:.\Generated_Source\PSoC4/SPI_SPI.c **** *
 223:.\Generated_Source\PSoC4/SPI_SPI.c **** * Summary:
 224:.\Generated_Source\PSoC4/SPI_SPI.c **** *  Restores HSIOM settings for the SPI master output pins (SCLK and/or SS0-SS3) 
 225:.\Generated_Source\PSoC4/SPI_SPI.c **** *  to be controlled by the SCB SPI.
 226:.\Generated_Source\PSoC4/SPI_SPI.c **** *
 227:.\Generated_Source\PSoC4/SPI_SPI.c **** * Parameters:
 228:.\Generated_Source\PSoC4/SPI_SPI.c **** *  None
 229:.\Generated_Source\PSoC4/SPI_SPI.c **** *
 230:.\Generated_Source\PSoC4/SPI_SPI.c **** * Return:
 231:.\Generated_Source\PSoC4/SPI_SPI.c **** *  None
 232:.\Generated_Source\PSoC4/SPI_SPI.c **** *
 233:.\Generated_Source\PSoC4/SPI_SPI.c **** *******************************************************************************/
 234:.\Generated_Source\PSoC4/SPI_SPI.c **** void SPI_SpiPostEnable(void)
 235:.\Generated_Source\PSoC4/SPI_SPI.c **** {
  26              		.loc 1 235 0
  27              		.cfi_startproc
 236:.\Generated_Source\PSoC4/SPI_SPI.c **** #if(SPI_SCB_MODE_UNCONFIG_CONST_CFG)
 237:.\Generated_Source\PSoC4/SPI_SPI.c **** 
 238:.\Generated_Source\PSoC4/SPI_SPI.c ****     if (SPI_CHECK_SPI_MASTER)
 239:.\Generated_Source\PSoC4/SPI_SPI.c ****     {
 240:.\Generated_Source\PSoC4/SPI_SPI.c ****     #if (SPI_CTS_SCLK_PIN)
 241:.\Generated_Source\PSoC4/SPI_SPI.c ****         /* Set SCB SPI to drive output pin */
 242:.\Generated_Source\PSoC4/SPI_SPI.c ****         SPI_SET_HSIOM_SEL(SPI_CTS_SCLK_HSIOM_REG, SPI_CTS_SCLK_HSIOM_MASK,
 243:.\Generated_Source\PSoC4/SPI_SPI.c ****                                        SPI_CTS_SCLK_HSIOM_POS, SPI_HSIOM_SPI_SEL);
 244:.\Generated_Source\PSoC4/SPI_SPI.c ****     #endif /* (SPI_CTS_SCLK_PIN) */
 245:.\Generated_Source\PSoC4/SPI_SPI.c **** 
 246:.\Generated_Source\PSoC4/SPI_SPI.c ****     #if (SPI_RTS_SS0_PIN)
 247:.\Generated_Source\PSoC4/SPI_SPI.c ****         /* Set SCB SPI to drive output pin */
 248:.\Generated_Source\PSoC4/SPI_SPI.c ****         SPI_SET_HSIOM_SEL(SPI_RTS_SS0_HSIOM_REG, SPI_RTS_SS0_HSIOM_MASK,
 249:.\Generated_Source\PSoC4/SPI_SPI.c ****                                        SPI_RTS_SS0_HSIOM_POS, SPI_HSIOM_SPI_SEL);
 250:.\Generated_Source\PSoC4/SPI_SPI.c ****     #endif /* (SPI_RTS_SS0_PIN) */
 251:.\Generated_Source\PSoC4/SPI_SPI.c **** 
 252:.\Generated_Source\PSoC4/SPI_SPI.c ****     #if (SPI_SS1_PIN)
 253:.\Generated_Source\PSoC4/SPI_SPI.c ****         /* Set SCB SPI to drive output pin */
 254:.\Generated_Source\PSoC4/SPI_SPI.c ****         SPI_SET_HSIOM_SEL(SPI_SS1_HSIOM_REG, SPI_SS1_HSIOM_MASK,
 255:.\Generated_Source\PSoC4/SPI_SPI.c ****                                        SPI_SS1_HSIOM_POS, SPI_HSIOM_SPI_SEL);
 256:.\Generated_Source\PSoC4/SPI_SPI.c ****     #endif /* (SPI_SS1_PIN) */
 257:.\Generated_Source\PSoC4/SPI_SPI.c **** 
 258:.\Generated_Source\PSoC4/SPI_SPI.c ****     #if (SPI_SS2_PIN)
ARM GAS  C:\Users\Petro\AppData\Local\Temp\ccGaOsSx.s 			page 6


 259:.\Generated_Source\PSoC4/SPI_SPI.c ****         /* Set SCB SPI to drive output pin */
 260:.\Generated_Source\PSoC4/SPI_SPI.c ****         SPI_SET_HSIOM_SEL(SPI_SS2_HSIOM_REG, SPI_SS2_HSIOM_MASK,
 261:.\Generated_Source\PSoC4/SPI_SPI.c ****                                        SPI_SS2_HSIOM_POS, SPI_HSIOM_SPI_SEL);
 262:.\Generated_Source\PSoC4/SPI_SPI.c ****     #endif /* (SPI_SS2_PIN) */
 263:.\Generated_Source\PSoC4/SPI_SPI.c **** 
 264:.\Generated_Source\PSoC4/SPI_SPI.c ****     #if (SPI_SS3_PIN)
 265:.\Generated_Source\PSoC4/SPI_SPI.c ****         /* Set SCB SPI to drive output pin */
 266:.\Generated_Source\PSoC4/SPI_SPI.c ****         SPI_SET_HSIOM_SEL(SPI_SS3_HSIOM_REG, SPI_SS3_HSIOM_MASK,
 267:.\Generated_Source\PSoC4/SPI_SPI.c ****                                        SPI_SS3_HSIOM_POS, SPI_HSIOM_SPI_SEL);
 268:.\Generated_Source\PSoC4/SPI_SPI.c ****     #endif /* (SPI_SS3_PIN) */
 269:.\Generated_Source\PSoC4/SPI_SPI.c ****     }
 270:.\Generated_Source\PSoC4/SPI_SPI.c **** 
 271:.\Generated_Source\PSoC4/SPI_SPI.c **** #else
 272:.\Generated_Source\PSoC4/SPI_SPI.c **** 
 273:.\Generated_Source\PSoC4/SPI_SPI.c **** #if (SPI_SPI_MASTER_SCLK_PIN)
 274:.\Generated_Source\PSoC4/SPI_SPI.c ****     /* Set SCB SPI to drive output pin */
 275:.\Generated_Source\PSoC4/SPI_SPI.c ****     SPI_SET_HSIOM_SEL(SPI_SCLK_M_HSIOM_REG, SPI_SCLK_M_HSIOM_MASK,
  28              		.loc 1 275 0
  29 0000 054B     		ldr	r3, .L2
  30 0002 1A68     		ldr	r2, [r3]
  31 0004 F021     		mov	r1, #240
  32 0006 0902     		lsl	r1, r1, #8
  33 0008 0A43     		orr	r2, r1
  34 000a 1A60     		str	r2, [r3]
 276:.\Generated_Source\PSoC4/SPI_SPI.c ****                                    SPI_SCLK_M_HSIOM_POS, SPI_HSIOM_SPI_SEL);
 277:.\Generated_Source\PSoC4/SPI_SPI.c **** #endif /* (SPI_MISO_SDA_TX_PIN_PIN) */
 278:.\Generated_Source\PSoC4/SPI_SPI.c **** 
 279:.\Generated_Source\PSoC4/SPI_SPI.c **** #if (SPI_SPI_MASTER_SS0_PIN)
 280:.\Generated_Source\PSoC4/SPI_SPI.c ****     /* Set SCB SPI to drive output pin */
 281:.\Generated_Source\PSoC4/SPI_SPI.c ****     SPI_SET_HSIOM_SEL(SPI_SS0_M_HSIOM_REG, SPI_SS0_M_HSIOM_MASK,
  35              		.loc 1 281 0
  36 000c 1A68     		ldr	r2, [r3]
  37 000e F021     		mov	r1, #240
  38 0010 0901     		lsl	r1, r1, #4
  39 0012 0A43     		orr	r2, r1
  40 0014 1A60     		str	r2, [r3]
 282:.\Generated_Source\PSoC4/SPI_SPI.c ****                                    SPI_SS0_M_HSIOM_POS, SPI_HSIOM_SPI_SEL);
 283:.\Generated_Source\PSoC4/SPI_SPI.c **** #endif /* (SPI_SPI_MASTER_SS0_PIN) */
 284:.\Generated_Source\PSoC4/SPI_SPI.c **** 
 285:.\Generated_Source\PSoC4/SPI_SPI.c **** #if (SPI_SPI_MASTER_SS1_PIN)
 286:.\Generated_Source\PSoC4/SPI_SPI.c ****     /* Set SCB SPI to drive output pin */
 287:.\Generated_Source\PSoC4/SPI_SPI.c ****     SPI_SET_HSIOM_SEL(SPI_SS1_M_HSIOM_REG, SPI_SS1_M_HSIOM_MASK,
 288:.\Generated_Source\PSoC4/SPI_SPI.c ****                                    SPI_SS1_M_HSIOM_POS, SPI_HSIOM_SPI_SEL);
 289:.\Generated_Source\PSoC4/SPI_SPI.c **** #endif /* (SPI_SPI_MASTER_SS1_PIN) */
 290:.\Generated_Source\PSoC4/SPI_SPI.c **** 
 291:.\Generated_Source\PSoC4/SPI_SPI.c **** #if (SPI_SPI_MASTER_SS2_PIN)
 292:.\Generated_Source\PSoC4/SPI_SPI.c ****     /* Set SCB SPI to drive output pin */
 293:.\Generated_Source\PSoC4/SPI_SPI.c ****     SPI_SET_HSIOM_SEL(SPI_SS2_M_HSIOM_REG, SPI_SS2_M_HSIOM_MASK,
 294:.\Generated_Source\PSoC4/SPI_SPI.c ****                                    SPI_SS2_M_HSIOM_POS, SPI_HSIOM_SPI_SEL);
 295:.\Generated_Source\PSoC4/SPI_SPI.c **** #endif /* (SPI_SPI_MASTER_SS2_PIN) */
 296:.\Generated_Source\PSoC4/SPI_SPI.c **** 
 297:.\Generated_Source\PSoC4/SPI_SPI.c **** #if (SPI_SPI_MASTER_SS3_PIN)
 298:.\Generated_Source\PSoC4/SPI_SPI.c ****     /* Set SCB SPI to drive output pin */
 299:.\Generated_Source\PSoC4/SPI_SPI.c ****     SPI_SET_HSIOM_SEL(SPI_SS3_M_HSIOM_REG, SPI_SS3_M_HSIOM_MASK,
 300:.\Generated_Source\PSoC4/SPI_SPI.c ****                                    SPI_SS3_M_HSIOM_POS, SPI_HSIOM_SPI_SEL);
 301:.\Generated_Source\PSoC4/SPI_SPI.c **** #endif /* (SPI_SPI_MASTER_SS3_PIN) */
 302:.\Generated_Source\PSoC4/SPI_SPI.c **** 
ARM GAS  C:\Users\Petro\AppData\Local\Temp\ccGaOsSx.s 			page 7


 303:.\Generated_Source\PSoC4/SPI_SPI.c **** #endif /* (SPI_SCB_MODE_UNCONFIG_CONST_CFG) */
 304:.\Generated_Source\PSoC4/SPI_SPI.c **** }
  41              		.loc 1 304 0
  42              		@ sp needed
  43 0016 7047     		bx	lr
  44              	.L3:
  45              		.align	2
  46              	.L2:
  47 0018 00000240 		.word	1073872896
  48              		.cfi_endproc
  49              	.LFE3:
  50              		.size	SPI_SpiPostEnable, .-SPI_SpiPostEnable
  51              		.section	.text.SPI_SpiStop,"ax",%progbits
  52              		.align	2
  53              		.global	SPI_SpiStop
  54              		.code	16
  55              		.thumb_func
  56              		.type	SPI_SpiStop, %function
  57              	SPI_SpiStop:
  58              	.LFB4:
 305:.\Generated_Source\PSoC4/SPI_SPI.c **** 
 306:.\Generated_Source\PSoC4/SPI_SPI.c **** 
 307:.\Generated_Source\PSoC4/SPI_SPI.c **** /*******************************************************************************
 308:.\Generated_Source\PSoC4/SPI_SPI.c **** * Function Name: SPI_SpiStop
 309:.\Generated_Source\PSoC4/SPI_SPI.c **** ********************************************************************************
 310:.\Generated_Source\PSoC4/SPI_SPI.c **** *
 311:.\Generated_Source\PSoC4/SPI_SPI.c **** * Summary:
 312:.\Generated_Source\PSoC4/SPI_SPI.c **** *  Changes the HSIOM settings for the SPI master output pins (SCLK and/or SS0-SS3) to
 313:.\Generated_Source\PSoC4/SPI_SPI.c **** *  keep them inactive after the block is disabled. The output pins are
 314:.\Generated_Source\PSoC4/SPI_SPI.c **** *  controlled by the GPIO data register.
 315:.\Generated_Source\PSoC4/SPI_SPI.c **** *
 316:.\Generated_Source\PSoC4/SPI_SPI.c **** * Parameters:
 317:.\Generated_Source\PSoC4/SPI_SPI.c **** *  None
 318:.\Generated_Source\PSoC4/SPI_SPI.c **** *
 319:.\Generated_Source\PSoC4/SPI_SPI.c **** * Return:
 320:.\Generated_Source\PSoC4/SPI_SPI.c **** *  None
 321:.\Generated_Source\PSoC4/SPI_SPI.c **** *
 322:.\Generated_Source\PSoC4/SPI_SPI.c **** *******************************************************************************/
 323:.\Generated_Source\PSoC4/SPI_SPI.c **** void SPI_SpiStop(void)
 324:.\Generated_Source\PSoC4/SPI_SPI.c **** {
  59              		.loc 1 324 0
  60              		.cfi_startproc
  61 0000 38B5     		push	{r3, r4, r5, lr}
  62              		.cfi_def_cfa_offset 16
  63              		.cfi_offset 3, -16
  64              		.cfi_offset 4, -12
  65              		.cfi_offset 5, -8
  66              		.cfi_offset 14, -4
 325:.\Generated_Source\PSoC4/SPI_SPI.c **** #if(SPI_SCB_MODE_UNCONFIG_CONST_CFG)
 326:.\Generated_Source\PSoC4/SPI_SPI.c **** 
 327:.\Generated_Source\PSoC4/SPI_SPI.c ****     if (SPI_CHECK_SPI_MASTER)
 328:.\Generated_Source\PSoC4/SPI_SPI.c ****     {
 329:.\Generated_Source\PSoC4/SPI_SPI.c ****     #if (SPI_SCLK_PIN)
 330:.\Generated_Source\PSoC4/SPI_SPI.c ****         /* Set output pin state after block is disabled */
 331:.\Generated_Source\PSoC4/SPI_SPI.c ****         SPI_uart_cts_spi_sclk_Write(SPI_GET_SPI_SCLK_INACTIVE);
 332:.\Generated_Source\PSoC4/SPI_SPI.c **** 
 333:.\Generated_Source\PSoC4/SPI_SPI.c ****         /* Set GPIO to drive output pin */
ARM GAS  C:\Users\Petro\AppData\Local\Temp\ccGaOsSx.s 			page 8


 334:.\Generated_Source\PSoC4/SPI_SPI.c ****         SPI_SET_HSIOM_SEL(SPI_SCLK_HSIOM_REG, SPI_SCLK_HSIOM_MASK,
 335:.\Generated_Source\PSoC4/SPI_SPI.c ****                                        SPI_SCLK_HSIOM_POS, SPI_HSIOM_GPIO_SEL);
 336:.\Generated_Source\PSoC4/SPI_SPI.c ****     #endif /* (SPI_MISO_SDA_TX_PIN_PIN) */
 337:.\Generated_Source\PSoC4/SPI_SPI.c **** 
 338:.\Generated_Source\PSoC4/SPI_SPI.c ****     #if (SPI_SS0_PIN)
 339:.\Generated_Source\PSoC4/SPI_SPI.c ****         /* Set output pin state after block is disabled */
 340:.\Generated_Source\PSoC4/SPI_SPI.c ****         SPI_uart_rts_spi_ss0_Write(SPI_GET_SPI_SS0_INACTIVE);
 341:.\Generated_Source\PSoC4/SPI_SPI.c **** 
 342:.\Generated_Source\PSoC4/SPI_SPI.c ****         /* Set GPIO to drive output pin */
 343:.\Generated_Source\PSoC4/SPI_SPI.c ****         SPI_SET_HSIOM_SEL(SPI_SS0_HSIOM_REG, SPI_SS0_HSIOM_MASK,
 344:.\Generated_Source\PSoC4/SPI_SPI.c ****                                        SPI_SS0_HSIOM_POS, SPI_HSIOM_GPIO_SEL);
 345:.\Generated_Source\PSoC4/SPI_SPI.c ****     #endif /* (SPI_SS0_PIN) */
 346:.\Generated_Source\PSoC4/SPI_SPI.c **** 
 347:.\Generated_Source\PSoC4/SPI_SPI.c ****     #if (SPI_SS1_PIN)
 348:.\Generated_Source\PSoC4/SPI_SPI.c ****         /* Set output pin state after block is disabled */
 349:.\Generated_Source\PSoC4/SPI_SPI.c ****         SPI_spi_ss1_Write(SPI_GET_SPI_SS1_INACTIVE);
 350:.\Generated_Source\PSoC4/SPI_SPI.c **** 
 351:.\Generated_Source\PSoC4/SPI_SPI.c ****         /* Set GPIO to drive output pin */
 352:.\Generated_Source\PSoC4/SPI_SPI.c ****         SPI_SET_HSIOM_SEL(SPI_SS1_HSIOM_REG, SPI_SS1_HSIOM_MASK,
 353:.\Generated_Source\PSoC4/SPI_SPI.c ****                                        SPI_SS1_HSIOM_POS, SPI_HSIOM_GPIO_SEL);
 354:.\Generated_Source\PSoC4/SPI_SPI.c ****     #endif /* (SPI_SS1_PIN) */
 355:.\Generated_Source\PSoC4/SPI_SPI.c **** 
 356:.\Generated_Source\PSoC4/SPI_SPI.c ****     #if (SPI_SS2_PIN)
 357:.\Generated_Source\PSoC4/SPI_SPI.c ****         /* Set output pin state after block is disabled */
 358:.\Generated_Source\PSoC4/SPI_SPI.c ****         SPI_spi_ss2_Write(SPI_GET_SPI_SS2_INACTIVE);
 359:.\Generated_Source\PSoC4/SPI_SPI.c **** 
 360:.\Generated_Source\PSoC4/SPI_SPI.c ****         /* Set GPIO to drive output pin */
 361:.\Generated_Source\PSoC4/SPI_SPI.c ****         SPI_SET_HSIOM_SEL(SPI_SS2_HSIOM_REG, SPI_SS2_HSIOM_MASK,
 362:.\Generated_Source\PSoC4/SPI_SPI.c ****                                        SPI_SS2_HSIOM_POS, SPI_HSIOM_GPIO_SEL);
 363:.\Generated_Source\PSoC4/SPI_SPI.c ****     #endif /* (SPI_SS2_PIN) */
 364:.\Generated_Source\PSoC4/SPI_SPI.c **** 
 365:.\Generated_Source\PSoC4/SPI_SPI.c ****     #if (SPI_SS3_PIN)
 366:.\Generated_Source\PSoC4/SPI_SPI.c ****         /* Set output pin state after block is disabled */
 367:.\Generated_Source\PSoC4/SPI_SPI.c ****         SPI_spi_ss3_Write(SPI_GET_SPI_SS3_INACTIVE);
 368:.\Generated_Source\PSoC4/SPI_SPI.c **** 
 369:.\Generated_Source\PSoC4/SPI_SPI.c ****         /* Set GPIO to drive output pin */
 370:.\Generated_Source\PSoC4/SPI_SPI.c ****         SPI_SET_HSIOM_SEL(SPI_SS3_HSIOM_REG, SPI_SS3_HSIOM_MASK,
 371:.\Generated_Source\PSoC4/SPI_SPI.c ****                                        SPI_SS3_HSIOM_POS, SPI_HSIOM_GPIO_SEL);
 372:.\Generated_Source\PSoC4/SPI_SPI.c ****     #endif /* (SPI_SS3_PIN) */
 373:.\Generated_Source\PSoC4/SPI_SPI.c ****     }
 374:.\Generated_Source\PSoC4/SPI_SPI.c **** 
 375:.\Generated_Source\PSoC4/SPI_SPI.c **** #else
 376:.\Generated_Source\PSoC4/SPI_SPI.c **** 
 377:.\Generated_Source\PSoC4/SPI_SPI.c **** #if (SPI_SPI_MASTER_SCLK_PIN)
 378:.\Generated_Source\PSoC4/SPI_SPI.c ****     /* Set output pin state after block is disabled */
 379:.\Generated_Source\PSoC4/SPI_SPI.c ****     SPI_sclk_m_Write(SPI_GET_SPI_SCLK_INACTIVE);
  67              		.loc 1 379 0
  68 0002 0C4D     		ldr	r5, .L5
  69 0004 2868     		ldr	r0, [r5]
  70 0006 0007     		lsl	r0, r0, #28
  71 0008 C00F     		lsr	r0, r0, #31
  72 000a FFF7FEFF 		bl	SPI_sclk_m_Write
  73              	.LVL0:
 380:.\Generated_Source\PSoC4/SPI_SPI.c **** 
 381:.\Generated_Source\PSoC4/SPI_SPI.c ****     /* Set GPIO to drive output pin */
 382:.\Generated_Source\PSoC4/SPI_SPI.c ****     SPI_SET_HSIOM_SEL(SPI_SCLK_M_HSIOM_REG, SPI_SCLK_M_HSIOM_MASK,
  74              		.loc 1 382 0
ARM GAS  C:\Users\Petro\AppData\Local\Temp\ccGaOsSx.s 			page 9


  75 000e 0A4C     		ldr	r4, .L5+4
  76 0010 2268     		ldr	r2, [r4]
  77 0012 0A4B     		ldr	r3, .L5+8
  78 0014 1340     		and	r3, r2
  79 0016 2360     		str	r3, [r4]
 383:.\Generated_Source\PSoC4/SPI_SPI.c ****                                    SPI_SCLK_M_HSIOM_POS, SPI_HSIOM_GPIO_SEL);
 384:.\Generated_Source\PSoC4/SPI_SPI.c **** #endif /* (SPI_MISO_SDA_TX_PIN_PIN) */
 385:.\Generated_Source\PSoC4/SPI_SPI.c **** 
 386:.\Generated_Source\PSoC4/SPI_SPI.c **** #if (SPI_SPI_MASTER_SS0_PIN)
 387:.\Generated_Source\PSoC4/SPI_SPI.c ****     /* Set output pin state after block is disabled */
 388:.\Generated_Source\PSoC4/SPI_SPI.c ****     SPI_ss0_m_Write(SPI_GET_SPI_SS0_INACTIVE);
  80              		.loc 1 388 0
  81 0018 2868     		ldr	r0, [r5]
  82 001a 8023     		mov	r3, #128
  83 001c 5B00     		lsl	r3, r3, #1
  84 001e 1840     		and	r0, r3
  85 0020 4342     		neg	r3, r0
  86 0022 5841     		adc	r0, r0, r3
  87 0024 C0B2     		uxtb	r0, r0
  88 0026 FFF7FEFF 		bl	SPI_ss0_m_Write
  89              	.LVL1:
 389:.\Generated_Source\PSoC4/SPI_SPI.c **** 
 390:.\Generated_Source\PSoC4/SPI_SPI.c ****     /* Set GPIO to drive output pin */
 391:.\Generated_Source\PSoC4/SPI_SPI.c ****     SPI_SET_HSIOM_SEL(SPI_SS0_M_HSIOM_REG, SPI_SS0_M_HSIOM_MASK,
  90              		.loc 1 391 0
  91 002a 2268     		ldr	r2, [r4]
  92 002c 044B     		ldr	r3, .L5+12
  93 002e 1340     		and	r3, r2
  94 0030 2360     		str	r3, [r4]
 392:.\Generated_Source\PSoC4/SPI_SPI.c ****                                    SPI_SS0_M_HSIOM_POS, SPI_HSIOM_GPIO_SEL);
 393:.\Generated_Source\PSoC4/SPI_SPI.c **** #endif /* (SPI_SPI_MASTER_SS0_PIN) */
 394:.\Generated_Source\PSoC4/SPI_SPI.c **** 
 395:.\Generated_Source\PSoC4/SPI_SPI.c **** #if (SPI_SPI_MASTER_SS1_PIN)
 396:.\Generated_Source\PSoC4/SPI_SPI.c ****     /* Set output pin state after block is disabled */
 397:.\Generated_Source\PSoC4/SPI_SPI.c ****     SPI_ss1_m_Write(SPI_GET_SPI_SS1_INACTIVE);
 398:.\Generated_Source\PSoC4/SPI_SPI.c **** 
 399:.\Generated_Source\PSoC4/SPI_SPI.c ****     /* Set GPIO to drive output pin */
 400:.\Generated_Source\PSoC4/SPI_SPI.c ****     SPI_SET_HSIOM_SEL(SPI_SS1_M_HSIOM_REG, SPI_SS1_M_HSIOM_MASK,
 401:.\Generated_Source\PSoC4/SPI_SPI.c ****                                    SPI_SS1_M_HSIOM_POS, SPI_HSIOM_GPIO_SEL);
 402:.\Generated_Source\PSoC4/SPI_SPI.c **** #endif /* (SPI_SPI_MASTER_SS1_PIN) */
 403:.\Generated_Source\PSoC4/SPI_SPI.c **** 
 404:.\Generated_Source\PSoC4/SPI_SPI.c **** #if (SPI_SPI_MASTER_SS2_PIN)
 405:.\Generated_Source\PSoC4/SPI_SPI.c ****     /* Set output pin state after block is disabled */
 406:.\Generated_Source\PSoC4/SPI_SPI.c ****     SPI_ss2_m_Write(SPI_GET_SPI_SS2_INACTIVE);
 407:.\Generated_Source\PSoC4/SPI_SPI.c **** 
 408:.\Generated_Source\PSoC4/SPI_SPI.c ****     /* Set GPIO to drive output pin */
 409:.\Generated_Source\PSoC4/SPI_SPI.c ****     SPI_SET_HSIOM_SEL(SPI_SS2_M_HSIOM_REG, SPI_SS2_M_HSIOM_MASK,
 410:.\Generated_Source\PSoC4/SPI_SPI.c ****                                    SPI_SS2_M_HSIOM_POS, SPI_HSIOM_GPIO_SEL);
 411:.\Generated_Source\PSoC4/SPI_SPI.c **** #endif /* (SPI_SPI_MASTER_SS2_PIN) */
 412:.\Generated_Source\PSoC4/SPI_SPI.c **** 
 413:.\Generated_Source\PSoC4/SPI_SPI.c **** #if (SPI_SPI_MASTER_SS3_PIN)
 414:.\Generated_Source\PSoC4/SPI_SPI.c ****     /* Set output pin state after block is disabled */
 415:.\Generated_Source\PSoC4/SPI_SPI.c ****     SPI_ss3_m_Write(SPI_GET_SPI_SS3_INACTIVE);
 416:.\Generated_Source\PSoC4/SPI_SPI.c **** 
 417:.\Generated_Source\PSoC4/SPI_SPI.c ****     /* Set GPIO to drive output pin */
 418:.\Generated_Source\PSoC4/SPI_SPI.c ****     SPI_SET_HSIOM_SEL(SPI_SS3_M_HSIOM_REG, SPI_SS3_M_HSIOM_MASK,
 419:.\Generated_Source\PSoC4/SPI_SPI.c ****                                    SPI_SS3_M_HSIOM_POS, SPI_HSIOM_GPIO_SEL);
ARM GAS  C:\Users\Petro\AppData\Local\Temp\ccGaOsSx.s 			page 10


 420:.\Generated_Source\PSoC4/SPI_SPI.c **** #endif /* (SPI_SPI_MASTER_SS3_PIN) */
 421:.\Generated_Source\PSoC4/SPI_SPI.c **** 
 422:.\Generated_Source\PSoC4/SPI_SPI.c **** #endif /* (SPI_SCB_MODE_UNCONFIG_CONST_CFG) */
 423:.\Generated_Source\PSoC4/SPI_SPI.c **** }
  95              		.loc 1 423 0
  96              		@ sp needed
  97 0032 38BD     		pop	{r3, r4, r5, pc}
  98              	.L6:
  99              		.align	2
 100              	.L5:
 101 0034 20002540 		.word	1076166688
 102 0038 00000240 		.word	1073872896
 103 003c FF0FFFFF 		.word	-61441
 104 0040 FFF0FFFF 		.word	-3841
 105              		.cfi_endproc
 106              	.LFE4:
 107              		.size	SPI_SpiStop, .-SPI_SpiStop
 108              		.section	.text.SPI_SpiSetActiveSlaveSelect,"ax",%progbits
 109              		.align	2
 110              		.global	SPI_SpiSetActiveSlaveSelect
 111              		.code	16
 112              		.thumb_func
 113              		.type	SPI_SpiSetActiveSlaveSelect, %function
 114              	SPI_SpiSetActiveSlaveSelect:
 115              	.LFB5:
 424:.\Generated_Source\PSoC4/SPI_SPI.c **** 
 425:.\Generated_Source\PSoC4/SPI_SPI.c **** 
 426:.\Generated_Source\PSoC4/SPI_SPI.c **** #if (SPI_SPI_MASTER_CONST)
 427:.\Generated_Source\PSoC4/SPI_SPI.c ****     /*******************************************************************************
 428:.\Generated_Source\PSoC4/SPI_SPI.c ****     * Function Name: SPI_SetActiveSlaveSelect
 429:.\Generated_Source\PSoC4/SPI_SPI.c ****     ********************************************************************************
 430:.\Generated_Source\PSoC4/SPI_SPI.c ****     *
 431:.\Generated_Source\PSoC4/SPI_SPI.c ****     * Summary:
 432:.\Generated_Source\PSoC4/SPI_SPI.c ****     *  Selects one of the four slave select lines to be active during the transfer.
 433:.\Generated_Source\PSoC4/SPI_SPI.c ****     *  After initialization the active slave select line is 0.
 434:.\Generated_Source\PSoC4/SPI_SPI.c ****     *  The component should be in one of the following states to change the active
 435:.\Generated_Source\PSoC4/SPI_SPI.c ****     *  slave select signal source correctly:
 436:.\Generated_Source\PSoC4/SPI_SPI.c ****     *   - The component is disabled
 437:.\Generated_Source\PSoC4/SPI_SPI.c ****     *   - The component has completed transfer (TX FIFO is empty and the
 438:.\Generated_Source\PSoC4/SPI_SPI.c ****     *     SCB_INTR_MASTER_SPI_DONE status is set)
 439:.\Generated_Source\PSoC4/SPI_SPI.c ****     *  This function does not check that these conditions are met.
 440:.\Generated_Source\PSoC4/SPI_SPI.c ****     *  This function is only applicable to SPI Master mode of operation.
 441:.\Generated_Source\PSoC4/SPI_SPI.c ****     *
 442:.\Generated_Source\PSoC4/SPI_SPI.c ****     * Parameters:
 443:.\Generated_Source\PSoC4/SPI_SPI.c ****     *  slaveSelect: slave select line which will be active while the following
 444:.\Generated_Source\PSoC4/SPI_SPI.c ****     *               transfer.
 445:.\Generated_Source\PSoC4/SPI_SPI.c ****     *   SPI_SPI_SLAVE_SELECT0 - Slave select 0
 446:.\Generated_Source\PSoC4/SPI_SPI.c ****     *   SPI_SPI_SLAVE_SELECT1 - Slave select 1
 447:.\Generated_Source\PSoC4/SPI_SPI.c ****     *   SPI_SPI_SLAVE_SELECT2 - Slave select 2
 448:.\Generated_Source\PSoC4/SPI_SPI.c ****     *   SPI_SPI_SLAVE_SELECT3 - Slave select 3
 449:.\Generated_Source\PSoC4/SPI_SPI.c ****     *
 450:.\Generated_Source\PSoC4/SPI_SPI.c ****     * Return:
 451:.\Generated_Source\PSoC4/SPI_SPI.c ****     *  None
 452:.\Generated_Source\PSoC4/SPI_SPI.c ****     *
 453:.\Generated_Source\PSoC4/SPI_SPI.c ****     *******************************************************************************/
 454:.\Generated_Source\PSoC4/SPI_SPI.c ****     void SPI_SpiSetActiveSlaveSelect(uint32 slaveSelect)
 455:.\Generated_Source\PSoC4/SPI_SPI.c ****     {
ARM GAS  C:\Users\Petro\AppData\Local\Temp\ccGaOsSx.s 			page 11


 116              		.loc 1 455 0
 117              		.cfi_startproc
 118              	.LVL2:
 456:.\Generated_Source\PSoC4/SPI_SPI.c ****         uint32 spiCtrl;
 457:.\Generated_Source\PSoC4/SPI_SPI.c **** 
 458:.\Generated_Source\PSoC4/SPI_SPI.c ****         spiCtrl = SPI_SPI_CTRL_REG;
 119              		.loc 1 458 0
 120 0000 0549     		ldr	r1, .L8
 121 0002 0A68     		ldr	r2, [r1]
 122              	.LVL3:
 459:.\Generated_Source\PSoC4/SPI_SPI.c **** 
 460:.\Generated_Source\PSoC4/SPI_SPI.c ****         spiCtrl &= (uint32) ~SPI_SPI_CTRL_SLAVE_SELECT_MASK;
 123              		.loc 1 460 0
 124 0004 054B     		ldr	r3, .L8+4
 125 0006 1340     		and	r3, r2
 126              	.LVL4:
 461:.\Generated_Source\PSoC4/SPI_SPI.c ****         spiCtrl |= (uint32)  SPI_GET_SPI_CTRL_SS(slaveSelect);
 127              		.loc 1 461 0
 128 0008 8006     		lsl	r0, r0, #26
 129              	.LVL5:
 130 000a C022     		mov	r2, #192
 131 000c 1205     		lsl	r2, r2, #20
 132 000e 1040     		and	r0, r2
 133 0010 1843     		orr	r0, r3
 134              	.LVL6:
 462:.\Generated_Source\PSoC4/SPI_SPI.c **** 
 463:.\Generated_Source\PSoC4/SPI_SPI.c ****         SPI_SPI_CTRL_REG = spiCtrl;
 135              		.loc 1 463 0
 136 0012 0860     		str	r0, [r1]
 464:.\Generated_Source\PSoC4/SPI_SPI.c ****     }
 137              		.loc 1 464 0
 138              		@ sp needed
 139 0014 7047     		bx	lr
 140              	.L9:
 141 0016 C046     		.align	2
 142              	.L8:
 143 0018 20002540 		.word	1076166688
 144 001c FFFFFFF3 		.word	-201326593
 145              		.cfi_endproc
 146              	.LFE5:
 147              		.size	SPI_SpiSetActiveSlaveSelect, .-SPI_SpiSetActiveSlaveSelect
 148              		.section	.text.SPI_SpiInit,"ax",%progbits
 149              		.align	2
 150              		.global	SPI_SpiInit
 151              		.code	16
 152              		.thumb_func
 153              		.type	SPI_SpiInit, %function
 154              	SPI_SpiInit:
 155              	.LFB2:
 172:.\Generated_Source\PSoC4/SPI_SPI.c ****         /* Configure SPI interface */
 156              		.loc 1 172 0
 157              		.cfi_startproc
 158 0000 08B5     		push	{r3, lr}
 159              		.cfi_def_cfa_offset 8
 160              		.cfi_offset 3, -8
 161              		.cfi_offset 14, -4
 174:.\Generated_Source\PSoC4/SPI_SPI.c ****         SPI_SPI_CTRL_REG = SPI_SPI_DEFAULT_SPI_CTRL;
ARM GAS  C:\Users\Petro\AppData\Local\Temp\ccGaOsSx.s 			page 12


 162              		.loc 1 174 0
 163 0002 104A     		ldr	r2, .L11
 164 0004 104B     		ldr	r3, .L11+4
 165 0006 1A60     		str	r2, [r3]
 175:.\Generated_Source\PSoC4/SPI_SPI.c **** 
 166              		.loc 1 175 0
 167 0008 104A     		ldr	r2, .L11+8
 168 000a 114B     		ldr	r3, .L11+12
 169 000c 1A60     		str	r2, [r3]
 178:.\Generated_Source\PSoC4/SPI_SPI.c ****         SPI_RX_FIFO_CTRL_REG = SPI_SPI_DEFAULT_RX_FIFO_CTRL;
 170              		.loc 1 178 0
 171 000e 114B     		ldr	r3, .L11+16
 172 0010 114A     		ldr	r2, .L11+20
 173 0012 1360     		str	r3, [r2]
 179:.\Generated_Source\PSoC4/SPI_SPI.c **** 
 174              		.loc 1 179 0
 175 0014 0721     		mov	r1, #7
 176 0016 114A     		ldr	r2, .L11+24
 177 0018 1160     		str	r1, [r2]
 182:.\Generated_Source\PSoC4/SPI_SPI.c ****         SPI_TX_FIFO_CTRL_REG = SPI_SPI_DEFAULT_TX_FIFO_CTRL;
 178              		.loc 1 182 0
 179 001a 114A     		ldr	r2, .L11+28
 180 001c 1360     		str	r3, [r2]
 183:.\Generated_Source\PSoC4/SPI_SPI.c **** 
 181              		.loc 1 183 0
 182 001e 0023     		mov	r3, #0
 183 0020 104A     		ldr	r2, .L11+32
 184 0022 1360     		str	r3, [r2]
 193:.\Generated_Source\PSoC4/SPI_SPI.c ****         SPI_INTR_SPI_EC_MASK_REG = SPI_SPI_DEFAULT_INTR_SPI_EC_MASK;
 185              		.loc 1 193 0
 186 0024 104A     		ldr	r2, .L11+36
 187 0026 1360     		str	r3, [r2]
 194:.\Generated_Source\PSoC4/SPI_SPI.c ****         SPI_INTR_SLAVE_MASK_REG  = SPI_SPI_DEFAULT_INTR_SLAVE_MASK;
 188              		.loc 1 194 0
 189 0028 104A     		ldr	r2, .L11+40
 190 002a 1360     		str	r3, [r2]
 195:.\Generated_Source\PSoC4/SPI_SPI.c ****         SPI_INTR_MASTER_MASK_REG = SPI_SPI_DEFAULT_INTR_MASTER_MASK;
 191              		.loc 1 195 0
 192 002c 104A     		ldr	r2, .L11+44
 193 002e 1360     		str	r3, [r2]
 196:.\Generated_Source\PSoC4/SPI_SPI.c ****         SPI_INTR_RX_MASK_REG     = SPI_SPI_DEFAULT_INTR_RX_MASK;
 194              		.loc 1 196 0
 195 0030 104A     		ldr	r2, .L11+48
 196 0032 1360     		str	r3, [r2]
 197:.\Generated_Source\PSoC4/SPI_SPI.c ****         SPI_INTR_TX_MASK_REG     = SPI_SPI_DEFAULT_INTR_TX_MASK;
 197              		.loc 1 197 0
 198 0034 104A     		ldr	r2, .L11+52
 199 0036 1360     		str	r3, [r2]
 198:.\Generated_Source\PSoC4/SPI_SPI.c **** 
 200              		.loc 1 198 0
 201 0038 104A     		ldr	r2, .L11+56
 202 003a 1360     		str	r3, [r2]
 202:.\Generated_Source\PSoC4/SPI_SPI.c ****     #endif /* (SPI_SPI_MASTER_CONST) */
 203              		.loc 1 202 0
 204 003c 0020     		mov	r0, #0
 205 003e FFF7FEFF 		bl	SPI_SpiSetActiveSlaveSelect
 206              	.LVL7:
ARM GAS  C:\Users\Petro\AppData\Local\Temp\ccGaOsSx.s 			page 13


 215:.\Generated_Source\PSoC4/SPI_SPI.c **** #endif /* (SPI_SCB_MODE_UNCONFIG_CONST_CFG) */
 207              		.loc 1 215 0
 208              		@ sp needed
 209 0042 08BD     		pop	{r3, pc}
 210              	.L12:
 211              		.align	2
 212              	.L11:
 213 0044 0F000001 		.word	16777231
 214 0048 00002540 		.word	1076166656
 215 004c 01000080 		.word	-2147483647
 216 0050 20002540 		.word	1076166688
 217 0054 07010080 		.word	-2147483385
 218 0058 00032540 		.word	1076167424
 219 005c 04032540 		.word	1076167428
 220 0060 00022540 		.word	1076167168
 221 0064 04022540 		.word	1076167172
 222 0068 880E2540 		.word	1076170376
 223 006c C80E2540 		.word	1076170440
 224 0070 480F2540 		.word	1076170568
 225 0074 080F2540 		.word	1076170504
 226 0078 C80F2540 		.word	1076170696
 227 007c 880F2540 		.word	1076170632
 228              		.cfi_endproc
 229              	.LFE2:
 230              		.size	SPI_SpiInit, .-SPI_SpiInit
 231              		.section	.text.SPI_SpiSetSlaveSelectPolarity,"ax",%progbits
 232              		.align	2
 233              		.global	SPI_SpiSetSlaveSelectPolarity
 234              		.code	16
 235              		.thumb_func
 236              		.type	SPI_SpiSetSlaveSelectPolarity, %function
 237              	SPI_SpiSetSlaveSelectPolarity:
 238              	.LFB6:
 465:.\Generated_Source\PSoC4/SPI_SPI.c **** #endif /* (SPI_SPI_MASTER_CONST) */
 466:.\Generated_Source\PSoC4/SPI_SPI.c **** 
 467:.\Generated_Source\PSoC4/SPI_SPI.c **** 
 468:.\Generated_Source\PSoC4/SPI_SPI.c **** #if !(SPI_CY_SCBIP_V0 || SPI_CY_SCBIP_V1)
 469:.\Generated_Source\PSoC4/SPI_SPI.c ****     /*******************************************************************************
 470:.\Generated_Source\PSoC4/SPI_SPI.c ****     * Function Name: SPI_SpiSetSlaveSelectPolarity
 471:.\Generated_Source\PSoC4/SPI_SPI.c ****     ********************************************************************************
 472:.\Generated_Source\PSoC4/SPI_SPI.c ****     *
 473:.\Generated_Source\PSoC4/SPI_SPI.c ****     * Summary:
 474:.\Generated_Source\PSoC4/SPI_SPI.c ****     *  Sets active polarity for slave select line.
 475:.\Generated_Source\PSoC4/SPI_SPI.c ****     *  The component should be in one of the following states to change the active
 476:.\Generated_Source\PSoC4/SPI_SPI.c ****     *  slave select signal source correctly:
 477:.\Generated_Source\PSoC4/SPI_SPI.c ****     *   - The component is disabled.
 478:.\Generated_Source\PSoC4/SPI_SPI.c ****     *   - The component has completed transfer.
 479:.\Generated_Source\PSoC4/SPI_SPI.c ****     *  This function does not check that these conditions are met.
 480:.\Generated_Source\PSoC4/SPI_SPI.c ****     *
 481:.\Generated_Source\PSoC4/SPI_SPI.c ****     * Parameters:
 482:.\Generated_Source\PSoC4/SPI_SPI.c ****     *  slaveSelect: slave select line to change active polarity.
 483:.\Generated_Source\PSoC4/SPI_SPI.c ****     *   SPI_SPI_SLAVE_SELECT0 - Slave select 0
 484:.\Generated_Source\PSoC4/SPI_SPI.c ****     *   SPI_SPI_SLAVE_SELECT1 - Slave select 1
 485:.\Generated_Source\PSoC4/SPI_SPI.c ****     *   SPI_SPI_SLAVE_SELECT2 - Slave select 2
 486:.\Generated_Source\PSoC4/SPI_SPI.c ****     *   SPI_SPI_SLAVE_SELECT3 - Slave select 3
 487:.\Generated_Source\PSoC4/SPI_SPI.c ****     *
 488:.\Generated_Source\PSoC4/SPI_SPI.c ****     *  polarity: active polarity of slave select line.
ARM GAS  C:\Users\Petro\AppData\Local\Temp\ccGaOsSx.s 			page 14


 489:.\Generated_Source\PSoC4/SPI_SPI.c ****     *   SPI_SPI_SS_ACTIVE_LOW  - Slave select is active low
 490:.\Generated_Source\PSoC4/SPI_SPI.c ****     *   SPI_SPI_SS_ACTIVE_HIGH - Slave select is active high
 491:.\Generated_Source\PSoC4/SPI_SPI.c ****     *
 492:.\Generated_Source\PSoC4/SPI_SPI.c ****     * Return:
 493:.\Generated_Source\PSoC4/SPI_SPI.c ****     *  None
 494:.\Generated_Source\PSoC4/SPI_SPI.c ****     *
 495:.\Generated_Source\PSoC4/SPI_SPI.c ****     *******************************************************************************/
 496:.\Generated_Source\PSoC4/SPI_SPI.c ****     void SPI_SpiSetSlaveSelectPolarity(uint32 slaveSelect, uint32 polarity)
 497:.\Generated_Source\PSoC4/SPI_SPI.c ****     {
 239              		.loc 1 497 0
 240              		.cfi_startproc
 241              	.LVL8:
 498:.\Generated_Source\PSoC4/SPI_SPI.c ****         uint32 ssPolarity;
 499:.\Generated_Source\PSoC4/SPI_SPI.c **** 
 500:.\Generated_Source\PSoC4/SPI_SPI.c ****         /* Get position of the polarity bit associated with slave select line */
 501:.\Generated_Source\PSoC4/SPI_SPI.c ****         ssPolarity = SPI_GET_SPI_CTRL_SSEL_POLARITY((uint32) 1u << slaveSelect);
 242              		.loc 1 501 0
 243 0000 8023     		mov	r3, #128
 244 0002 5B00     		lsl	r3, r3, #1
 245 0004 8340     		lsl	r3, r3, r0
 246 0006 181C     		mov	r0, r3
 247              	.LVL9:
 248 0008 F023     		mov	r3, #240
 249 000a 1B01     		lsl	r3, r3, #4
 250 000c 1840     		and	r0, r3
 251              	.LVL10:
 502:.\Generated_Source\PSoC4/SPI_SPI.c **** 
 503:.\Generated_Source\PSoC4/SPI_SPI.c ****         if (0u != polarity)
 252              		.loc 1 503 0
 253 000e 0029     		cmp	r1, #0
 254 0010 04D0     		beq	.L14
 504:.\Generated_Source\PSoC4/SPI_SPI.c ****         {
 505:.\Generated_Source\PSoC4/SPI_SPI.c ****             SPI_SPI_CTRL_REG |= (uint32)  ssPolarity;
 255              		.loc 1 505 0
 256 0012 054B     		ldr	r3, .L16
 257 0014 1A68     		ldr	r2, [r3]
 258 0016 1043     		orr	r0, r2
 259              	.LVL11:
 260 0018 1860     		str	r0, [r3]
 261 001a 03E0     		b	.L13
 262              	.LVL12:
 263              	.L14:
 506:.\Generated_Source\PSoC4/SPI_SPI.c ****         }
 507:.\Generated_Source\PSoC4/SPI_SPI.c ****         else
 508:.\Generated_Source\PSoC4/SPI_SPI.c ****         {
 509:.\Generated_Source\PSoC4/SPI_SPI.c ****             SPI_SPI_CTRL_REG &= (uint32) ~ssPolarity;
 264              		.loc 1 509 0
 265 001c 024A     		ldr	r2, .L16
 266 001e 1368     		ldr	r3, [r2]
 267 0020 8343     		bic	r3, r0
 268 0022 1360     		str	r3, [r2]
 269              	.LVL13:
 270              	.L13:
 510:.\Generated_Source\PSoC4/SPI_SPI.c ****         }
 511:.\Generated_Source\PSoC4/SPI_SPI.c ****     }
 271              		.loc 1 511 0
 272              		@ sp needed
ARM GAS  C:\Users\Petro\AppData\Local\Temp\ccGaOsSx.s 			page 15


 273 0024 7047     		bx	lr
 274              	.L17:
 275 0026 C046     		.align	2
 276              	.L16:
 277 0028 20002540 		.word	1076166688
 278              		.cfi_endproc
 279              	.LFE6:
 280              		.size	SPI_SpiSetSlaveSelectPolarity, .-SPI_SpiSetSlaveSelectPolarity
 281              		.text
 282              	.Letext0:
 283              		.file 2 "Generated_Source\\PSoC4/cytypes.h"
 284              		.file 3 ".\\Generated_Source\\PSoC4\\SPI_sclk_m.h"
 285              		.file 4 ".\\Generated_Source\\PSoC4\\SPI_ss0_m.h"