ARM GAS  C:\Users\Petro\AppData\Local\Temp\ccy9Mn0b.s 			page 1


   1              		.cpu cortex-m0
   2              		.fpu softvfp
   3              		.eabi_attribute 20, 1
   4              		.eabi_attribute 21, 1
   5              		.eabi_attribute 23, 3
   6              		.eabi_attribute 24, 1
   7              		.eabi_attribute 25, 1
   8              		.eabi_attribute 26, 1
   9              		.eabi_attribute 30, 6
  10              		.eabi_attribute 34, 0
  11              		.eabi_attribute 18, 4
  12              		.code	16
  13              		.file	"SwSPI_Master_1.c"
  14              		.text
  15              	.Ltext0:
  16              		.cfi_sections	.debug_frame
  17              		.section	.text.SwSPI_Master_1_Init,"ax",%progbits
  18              		.align	2
  19              		.global	SwSPI_Master_1_Init
  20              		.code	16
  21              		.thumb_func
  22              		.type	SwSPI_Master_1_Init, %function
  23              	SwSPI_Master_1_Init:
  24              	.LFB2:
  25              		.file 1 ".\\Generated_Source\\PSoC4\\SwSPI_Master_1.c"
   1:.\Generated_Source\PSoC4/SwSPI_Master_1.c **** /* ========================================
   2:.\Generated_Source\PSoC4/SwSPI_Master_1.c ****  *
   3:.\Generated_Source\PSoC4/SwSPI_Master_1.c ****  * File Name: SwSPI_Master_1.c
   4:.\Generated_Source\PSoC4/SwSPI_Master_1.c ****  * Version 1.0 
   5:.\Generated_Source\PSoC4/SwSPI_Master_1.c ****  * Copyright YOUR COMPANY, THE YEAR
   6:.\Generated_Source\PSoC4/SwSPI_Master_1.c ****  * All Rights Reserved
   7:.\Generated_Source\PSoC4/SwSPI_Master_1.c ****  * UNPUBLISHED, LICENSED SOFTWARE.
   8:.\Generated_Source\PSoC4/SwSPI_Master_1.c ****  *
   9:.\Generated_Source\PSoC4/SwSPI_Master_1.c ****  * CONFIDENTIAL AND PROPRIETARY INFORMATION
  10:.\Generated_Source\PSoC4/SwSPI_Master_1.c ****  * WHICH IS THE PROPERTY OF your company.
  11:.\Generated_Source\PSoC4/SwSPI_Master_1.c ****  *
  12:.\Generated_Source\PSoC4/SwSPI_Master_1.c ****  * ========================================
  13:.\Generated_Source\PSoC4/SwSPI_Master_1.c **** */
  14:.\Generated_Source\PSoC4/SwSPI_Master_1.c **** 
  15:.\Generated_Source\PSoC4/SwSPI_Master_1.c **** #include "SwSPI_Master_1_PVT.h"
  16:.\Generated_Source\PSoC4/SwSPI_Master_1.c **** 
  17:.\Generated_Source\PSoC4/SwSPI_Master_1.c **** void SwSPI_Master_1_Init(void) 
  18:.\Generated_Source\PSoC4/SwSPI_Master_1.c **** {
  26              		.loc 1 18 0
  27              		.cfi_startproc
  28 0000 80B5     		push	{r7, lr}
  29              		.cfi_def_cfa_offset 8
  30              		.cfi_offset 7, -8
  31              		.cfi_offset 14, -4
  32 0002 00AF     		add	r7, sp, #0
  33              		.cfi_def_cfa_register 7
  19:.\Generated_Source\PSoC4/SwSPI_Master_1.c ****    SwSPI_Master_1_OUTPORT_DR_REG |= SwSPI_Master_1_CS;
  34              		.loc 1 19 0
  35 0004 094B     		ldr	r3, .L2
  36 0006 094A     		ldr	r2, .L2
  37 0008 1268     		ldr	r2, [r2]
  38 000a 0121     		mov	r1, #1
ARM GAS  C:\Users\Petro\AppData\Local\Temp\ccy9Mn0b.s 			page 2


  39 000c 0A43     		orr	r2, r1
  40 000e 1A60     		str	r2, [r3]
  20:.\Generated_Source\PSoC4/SwSPI_Master_1.c ****    SwSPI_Master_1_OUTPORT_DR_REG &= ((uint8)(~SwSPI_Master_1_CLK));
  41              		.loc 1 20 0
  42 0010 064B     		ldr	r3, .L2
  43 0012 064A     		ldr	r2, .L2
  44 0014 1268     		ldr	r2, [r2]
  45 0016 FD21     		mov	r1, #253
  46 0018 0A40     		and	r2, r1
  47 001a 1A60     		str	r2, [r3]
  21:.\Generated_Source\PSoC4/SwSPI_Master_1.c ****    SwSPI_Master_1_OUTPORT_DR_REG &= ((uint8)(~SwSPI_Master_1_MOSI));
  48              		.loc 1 21 0
  49 001c 034B     		ldr	r3, .L2
  50 001e 034A     		ldr	r2, .L2
  51 0020 1268     		ldr	r2, [r2]
  52 0022 FB21     		mov	r1, #251
  53 0024 0A40     		and	r2, r1
  54 0026 1A60     		str	r2, [r3]
  22:.\Generated_Source\PSoC4/SwSPI_Master_1.c **** }
  55              		.loc 1 22 0
  56 0028 BD46     		mov	sp, r7
  57              		@ sp needed
  58 002a 80BD     		pop	{r7, pc}
  59              	.L3:
  60              		.align	2
  61              	.L2:
  62 002c 00020440 		.word	1074004480
  63              		.cfi_endproc
  64              	.LFE2:
  65              		.size	SwSPI_Master_1_Init, .-SwSPI_Master_1_Init
  66              		.section	.text.SwSPI_Master_1_ChipSelect,"ax",%progbits
  67              		.align	2
  68              		.global	SwSPI_Master_1_ChipSelect
  69              		.code	16
  70              		.thumb_func
  71              		.type	SwSPI_Master_1_ChipSelect, %function
  72              	SwSPI_Master_1_ChipSelect:
  73              	.LFB3:
  23:.\Generated_Source\PSoC4/SwSPI_Master_1.c **** 
  24:.\Generated_Source\PSoC4/SwSPI_Master_1.c **** void SwSPI_Master_1_ChipSelect(void) 
  25:.\Generated_Source\PSoC4/SwSPI_Master_1.c **** {
  74              		.loc 1 25 0
  75              		.cfi_startproc
  76 0000 80B5     		push	{r7, lr}
  77              		.cfi_def_cfa_offset 8
  78              		.cfi_offset 7, -8
  79              		.cfi_offset 14, -4
  80 0002 00AF     		add	r7, sp, #0
  81              		.cfi_def_cfa_register 7
  26:.\Generated_Source\PSoC4/SwSPI_Master_1.c ****     SwSPI_Master_1_OUTPORT_DR_REG &= ((uint8)(~SwSPI_Master_1_CS));
  82              		.loc 1 26 0
  83 0004 034B     		ldr	r3, .L5
  84 0006 034A     		ldr	r2, .L5
  85 0008 1268     		ldr	r2, [r2]
  86 000a FE21     		mov	r1, #254
  87 000c 0A40     		and	r2, r1
  88 000e 1A60     		str	r2, [r3]
ARM GAS  C:\Users\Petro\AppData\Local\Temp\ccy9Mn0b.s 			page 3


  27:.\Generated_Source\PSoC4/SwSPI_Master_1.c **** }
  89              		.loc 1 27 0
  90 0010 BD46     		mov	sp, r7
  91              		@ sp needed
  92 0012 80BD     		pop	{r7, pc}
  93              	.L6:
  94              		.align	2
  95              	.L5:
  96 0014 00020440 		.word	1074004480
  97              		.cfi_endproc
  98              	.LFE3:
  99              		.size	SwSPI_Master_1_ChipSelect, .-SwSPI_Master_1_ChipSelect
 100              		.section	.text.SwSPI_Master_1_ChipDeselect,"ax",%progbits
 101              		.align	2
 102              		.global	SwSPI_Master_1_ChipDeselect
 103              		.code	16
 104              		.thumb_func
 105              		.type	SwSPI_Master_1_ChipDeselect, %function
 106              	SwSPI_Master_1_ChipDeselect:
 107              	.LFB4:
  28:.\Generated_Source\PSoC4/SwSPI_Master_1.c **** 
  29:.\Generated_Source\PSoC4/SwSPI_Master_1.c **** void SwSPI_Master_1_ChipDeselect(void) 
  30:.\Generated_Source\PSoC4/SwSPI_Master_1.c **** {
 108              		.loc 1 30 0
 109              		.cfi_startproc
 110 0000 80B5     		push	{r7, lr}
 111              		.cfi_def_cfa_offset 8
 112              		.cfi_offset 7, -8
 113              		.cfi_offset 14, -4
 114 0002 00AF     		add	r7, sp, #0
 115              		.cfi_def_cfa_register 7
  31:.\Generated_Source\PSoC4/SwSPI_Master_1.c ****     SwSPI_Master_1_OUTPORT_DR_REG |= SwSPI_Master_1_CS;
 116              		.loc 1 31 0
 117 0004 034B     		ldr	r3, .L8
 118 0006 034A     		ldr	r2, .L8
 119 0008 1268     		ldr	r2, [r2]
 120 000a 0121     		mov	r1, #1
 121 000c 0A43     		orr	r2, r1
 122 000e 1A60     		str	r2, [r3]
  32:.\Generated_Source\PSoC4/SwSPI_Master_1.c **** }
 123              		.loc 1 32 0
 124 0010 BD46     		mov	sp, r7
 125              		@ sp needed
 126 0012 80BD     		pop	{r7, pc}
 127              	.L9:
 128              		.align	2
 129              	.L8:
 130 0014 00020440 		.word	1074004480
 131              		.cfi_endproc
 132              	.LFE4:
 133              		.size	SwSPI_Master_1_ChipDeselect, .-SwSPI_Master_1_ChipDeselect
 134              		.section	.text.SwSPI_Master_1_SendByte,"ax",%progbits
 135              		.align	2
 136              		.global	SwSPI_Master_1_SendByte
 137              		.code	16
 138              		.thumb_func
 139              		.type	SwSPI_Master_1_SendByte, %function
ARM GAS  C:\Users\Petro\AppData\Local\Temp\ccy9Mn0b.s 			page 4


 140              	SwSPI_Master_1_SendByte:
 141              	.LFB5:
  33:.\Generated_Source\PSoC4/SwSPI_Master_1.c **** 
  34:.\Generated_Source\PSoC4/SwSPI_Master_1.c **** 
  35:.\Generated_Source\PSoC4/SwSPI_Master_1.c **** void SwSPI_Master_1_SendByte(uint8 byte) 
  36:.\Generated_Source\PSoC4/SwSPI_Master_1.c **** {
 142              		.loc 1 36 0
 143              		.cfi_startproc
 144 0000 80B5     		push	{r7, lr}
 145              		.cfi_def_cfa_offset 8
 146              		.cfi_offset 7, -8
 147              		.cfi_offset 14, -4
 148 0002 84B0     		sub	sp, sp, #16
 149              		.cfi_def_cfa_offset 24
 150 0004 00AF     		add	r7, sp, #0
 151              		.cfi_def_cfa_register 7
 152 0006 021C     		mov	r2, r0
 153 0008 FB1D     		add	r3, r7, #7
 154 000a 1A70     		strb	r2, [r3]
  37:.\Generated_Source\PSoC4/SwSPI_Master_1.c ****     uint8 countBites;
  38:.\Generated_Source\PSoC4/SwSPI_Master_1.c ****     for (countBites = BITES_ON_ONE_BYTE; countBites > 0; countBites--)
 155              		.loc 1 38 0
 156 000c 0F23     		mov	r3, #15
 157 000e FB18     		add	r3, r7, r3
 158 0010 0822     		mov	r2, #8
 159 0012 1A70     		strb	r2, [r3]
 160 0014 2FE0     		b	.L11
 161              	.L14:
  39:.\Generated_Source\PSoC4/SwSPI_Master_1.c ****     {
  40:.\Generated_Source\PSoC4/SwSPI_Master_1.c ****     
  41:.\Generated_Source\PSoC4/SwSPI_Master_1.c ****         if (byte & MASK_HIGH_BIT)
 162              		.loc 1 41 0
 163 0016 FB1D     		add	r3, r7, #7
 164 0018 1B78     		ldrb	r3, [r3]
 165 001a 5BB2     		sxtb	r3, r3
 166 001c 002B     		cmp	r3, #0
 167 001e 06DA     		bge	.L12
  42:.\Generated_Source\PSoC4/SwSPI_Master_1.c ****         {
  43:.\Generated_Source\PSoC4/SwSPI_Master_1.c ****             SwSPI_Master_1_OUTPORT_DR_REG |= SwSPI_Master_1_MOSI;
 168              		.loc 1 43 0
 169 0020 1C4B     		ldr	r3, .L15
 170 0022 1C4A     		ldr	r2, .L15
 171 0024 1268     		ldr	r2, [r2]
 172 0026 0421     		mov	r1, #4
 173 0028 0A43     		orr	r2, r1
 174 002a 1A60     		str	r2, [r3]
 175 002c 05E0     		b	.L13
 176              	.L12:
  44:.\Generated_Source\PSoC4/SwSPI_Master_1.c ****         }
  45:.\Generated_Source\PSoC4/SwSPI_Master_1.c ****         else
  46:.\Generated_Source\PSoC4/SwSPI_Master_1.c ****         {
  47:.\Generated_Source\PSoC4/SwSPI_Master_1.c ****             SwSPI_Master_1_OUTPORT_DR_REG &= ((uint8)(~SwSPI_Master_1_MOSI));
 177              		.loc 1 47 0
 178 002e 194B     		ldr	r3, .L15
 179 0030 184A     		ldr	r2, .L15
 180 0032 1268     		ldr	r2, [r2]
 181 0034 FB21     		mov	r1, #251
ARM GAS  C:\Users\Petro\AppData\Local\Temp\ccy9Mn0b.s 			page 5


 182 0036 0A40     		and	r2, r1
 183 0038 1A60     		str	r2, [r3]
 184              	.L13:
  48:.\Generated_Source\PSoC4/SwSPI_Master_1.c ****         }
  49:.\Generated_Source\PSoC4/SwSPI_Master_1.c ****         CyDelayCycles(DELAY_HIGH_STATE);        
 185              		.loc 1 49 0 discriminator 2
 186 003a 1420     		mov	r0, #20
 187 003c FFF7FEFF 		bl	CyDelayCycles
  50:.\Generated_Source\PSoC4/SwSPI_Master_1.c ****         SwSPI_Master_1_OUTPORT_DR_REG |= SwSPI_Master_1_CLK;
 188              		.loc 1 50 0 discriminator 2
 189 0040 144B     		ldr	r3, .L15
 190 0042 144A     		ldr	r2, .L15
 191 0044 1268     		ldr	r2, [r2]
 192 0046 0221     		mov	r1, #2
 193 0048 0A43     		orr	r2, r1
 194 004a 1A60     		str	r2, [r3]
  51:.\Generated_Source\PSoC4/SwSPI_Master_1.c ****         
  52:.\Generated_Source\PSoC4/SwSPI_Master_1.c ****         CyDelayCycles(DELAY_LOW_STATE);
 195              		.loc 1 52 0 discriminator 2
 196 004c 1420     		mov	r0, #20
 197 004e FFF7FEFF 		bl	CyDelayCycles
  53:.\Generated_Source\PSoC4/SwSPI_Master_1.c ****         
  54:.\Generated_Source\PSoC4/SwSPI_Master_1.c ****          SwSPI_Master_1_OUTPORT_DR_REG &= ((uint8)(~SwSPI_Master_1_CLK));
 198              		.loc 1 54 0 discriminator 2
 199 0052 104B     		ldr	r3, .L15
 200 0054 0F4A     		ldr	r2, .L15
 201 0056 1268     		ldr	r2, [r2]
 202 0058 FD21     		mov	r1, #253
 203 005a 0A40     		and	r2, r1
 204 005c 1A60     		str	r2, [r3]
  55:.\Generated_Source\PSoC4/SwSPI_Master_1.c ****         byte <<=  SHIFT_ONE_BIT;
 205              		.loc 1 55 0 discriminator 2
 206 005e FA1D     		add	r2, r7, #7
 207 0060 FB1D     		add	r3, r7, #7
 208 0062 1B78     		ldrb	r3, [r3]
 209 0064 DB18     		add	r3, r3, r3
 210 0066 1370     		strb	r3, [r2]
  38:.\Generated_Source\PSoC4/SwSPI_Master_1.c ****     {
 211              		.loc 1 38 0 discriminator 2
 212 0068 0F23     		mov	r3, #15
 213 006a FB18     		add	r3, r7, r3
 214 006c 1A78     		ldrb	r2, [r3]
 215 006e 0F23     		mov	r3, #15
 216 0070 FB18     		add	r3, r7, r3
 217 0072 013A     		sub	r2, r2, #1
 218 0074 1A70     		strb	r2, [r3]
 219              	.L11:
  38:.\Generated_Source\PSoC4/SwSPI_Master_1.c ****     {
 220              		.loc 1 38 0 is_stmt 0 discriminator 1
 221 0076 0F23     		mov	r3, #15
 222 0078 FB18     		add	r3, r7, r3
 223 007a 1B78     		ldrb	r3, [r3]
 224 007c 002B     		cmp	r3, #0
 225 007e CAD1     		bne	.L14
  56:.\Generated_Source\PSoC4/SwSPI_Master_1.c ****     }
  57:.\Generated_Source\PSoC4/SwSPI_Master_1.c ****     
  58:.\Generated_Source\PSoC4/SwSPI_Master_1.c ****     SwSPI_Master_1_OUTPORT_DR_REG &= ((uint8)(~SwSPI_Master_1_MOSI));    
ARM GAS  C:\Users\Petro\AppData\Local\Temp\ccy9Mn0b.s 			page 6


 226              		.loc 1 58 0 is_stmt 1
 227 0080 044B     		ldr	r3, .L15
 228 0082 044A     		ldr	r2, .L15
 229 0084 1268     		ldr	r2, [r2]
 230 0086 FB21     		mov	r1, #251
 231 0088 0A40     		and	r2, r1
 232 008a 1A60     		str	r2, [r3]
  59:.\Generated_Source\PSoC4/SwSPI_Master_1.c **** }
 233              		.loc 1 59 0
 234 008c BD46     		mov	sp, r7
 235 008e 04B0     		add	sp, sp, #16
 236              		@ sp needed
 237 0090 80BD     		pop	{r7, pc}
 238              	.L16:
 239 0092 C046     		.align	2
 240              	.L15:
 241 0094 00020440 		.word	1074004480
 242              		.cfi_endproc
 243              	.LFE5:
 244              		.size	SwSPI_Master_1_SendByte, .-SwSPI_Master_1_SendByte
 245              		.section	.text.SwSPI_Master_1_SendBuff,"ax",%progbits
 246              		.align	2
 247              		.global	SwSPI_Master_1_SendBuff
 248              		.code	16
 249              		.thumb_func
 250              		.type	SwSPI_Master_1_SendBuff, %function
 251              	SwSPI_Master_1_SendBuff:
 252              	.LFB6:
  60:.\Generated_Source\PSoC4/SwSPI_Master_1.c **** 
  61:.\Generated_Source\PSoC4/SwSPI_Master_1.c **** void SwSPI_Master_1_SendBuff(const uint8 buff[], uint16 cnt) 
  62:.\Generated_Source\PSoC4/SwSPI_Master_1.c **** {
 253              		.loc 1 62 0
 254              		.cfi_startproc
 255 0000 80B5     		push	{r7, lr}
 256              		.cfi_def_cfa_offset 8
 257              		.cfi_offset 7, -8
 258              		.cfi_offset 14, -4
 259 0002 84B0     		sub	sp, sp, #16
 260              		.cfi_def_cfa_offset 24
 261 0004 00AF     		add	r7, sp, #0
 262              		.cfi_def_cfa_register 7
 263 0006 7860     		str	r0, [r7, #4]
 264 0008 0A1C     		mov	r2, r1
 265 000a BB1C     		add	r3, r7, #2
 266 000c 1A80     		strh	r2, [r3]
  63:.\Generated_Source\PSoC4/SwSPI_Master_1.c ****     uint16_t tmpData;
  64:.\Generated_Source\PSoC4/SwSPI_Master_1.c ****     for (tmpData = 0; tmpData < cnt; tmpData ++)
 267              		.loc 1 64 0
 268 000e 0E23     		mov	r3, #14
 269 0010 FB18     		add	r3, r7, r3
 270 0012 0022     		mov	r2, #0
 271 0014 1A80     		strh	r2, [r3]
 272 0016 0FE0     		b	.L18
 273              	.L19:
  65:.\Generated_Source\PSoC4/SwSPI_Master_1.c ****     {
  66:.\Generated_Source\PSoC4/SwSPI_Master_1.c ****         SwSPI_Master_1_SendByte(buff[tmpData]);
 274              		.loc 1 66 0 discriminator 3
ARM GAS  C:\Users\Petro\AppData\Local\Temp\ccy9Mn0b.s 			page 7


 275 0018 0E23     		mov	r3, #14
 276 001a FB18     		add	r3, r7, r3
 277 001c 1B88     		ldrh	r3, [r3]
 278 001e 7A68     		ldr	r2, [r7, #4]
 279 0020 D318     		add	r3, r2, r3
 280 0022 1B78     		ldrb	r3, [r3]
 281 0024 181C     		mov	r0, r3
 282 0026 FFF7FEFF 		bl	SwSPI_Master_1_SendByte
  64:.\Generated_Source\PSoC4/SwSPI_Master_1.c ****     {
 283              		.loc 1 64 0 discriminator 3
 284 002a 0E23     		mov	r3, #14
 285 002c FB18     		add	r3, r7, r3
 286 002e 1A88     		ldrh	r2, [r3]
 287 0030 0E23     		mov	r3, #14
 288 0032 FB18     		add	r3, r7, r3
 289 0034 0132     		add	r2, r2, #1
 290 0036 1A80     		strh	r2, [r3]
 291              	.L18:
  64:.\Generated_Source\PSoC4/SwSPI_Master_1.c ****     {
 292              		.loc 1 64 0 is_stmt 0 discriminator 1
 293 0038 0E23     		mov	r3, #14
 294 003a FA18     		add	r2, r7, r3
 295 003c BB1C     		add	r3, r7, #2
 296 003e 1288     		ldrh	r2, [r2]
 297 0040 1B88     		ldrh	r3, [r3]
 298 0042 9A42     		cmp	r2, r3
 299 0044 E8D3     		bcc	.L19
  67:.\Generated_Source\PSoC4/SwSPI_Master_1.c ****     }
  68:.\Generated_Source\PSoC4/SwSPI_Master_1.c **** }
 300              		.loc 1 68 0 is_stmt 1
 301 0046 BD46     		mov	sp, r7
 302 0048 04B0     		add	sp, sp, #16
 303              		@ sp needed
 304 004a 80BD     		pop	{r7, pc}
 305              		.cfi_endproc
 306              	.LFE6:
 307              		.size	SwSPI_Master_1_SendBuff, .-SwSPI_Master_1_SendBuff
 308              		.section	.text.SwSPI_Master_1_RecvByte,"ax",%progbits
 309              		.align	2
 310              		.global	SwSPI_Master_1_RecvByte
 311              		.code	16
 312              		.thumb_func
 313              		.type	SwSPI_Master_1_RecvByte, %function
 314              	SwSPI_Master_1_RecvByte:
 315              	.LFB7:
  69:.\Generated_Source\PSoC4/SwSPI_Master_1.c **** 
  70:.\Generated_Source\PSoC4/SwSPI_Master_1.c **** uint8 SwSPI_Master_1_RecvByte(void) 
  71:.\Generated_Source\PSoC4/SwSPI_Master_1.c **** {
 316              		.loc 1 71 0
 317              		.cfi_startproc
 318 0000 80B5     		push	{r7, lr}
 319              		.cfi_def_cfa_offset 8
 320              		.cfi_offset 7, -8
 321              		.cfi_offset 14, -4
 322 0002 84B0     		sub	sp, sp, #16
 323              		.cfi_def_cfa_offset 24
 324 0004 00AF     		add	r7, sp, #0
ARM GAS  C:\Users\Petro\AppData\Local\Temp\ccy9Mn0b.s 			page 8


 325              		.cfi_def_cfa_register 7
  72:.\Generated_Source\PSoC4/SwSPI_Master_1.c ****     uint32_t countBites;
  73:.\Generated_Source\PSoC4/SwSPI_Master_1.c ****     uint32_t tmpBuff = 0;
 326              		.loc 1 73 0
 327 0006 0023     		mov	r3, #0
 328 0008 BB60     		str	r3, [r7, #8]
  74:.\Generated_Source\PSoC4/SwSPI_Master_1.c ****     uint8 tmpPin;
  75:.\Generated_Source\PSoC4/SwSPI_Master_1.c ****     for (countBites = BITES_ON_ONE_BYTE; countBites > 0; countBites--)
 329              		.loc 1 75 0
 330 000a 0823     		mov	r3, #8
 331 000c FB60     		str	r3, [r7, #12]
 332 000e 2CE0     		b	.L21
 333              	.L23:
  76:.\Generated_Source\PSoC4/SwSPI_Master_1.c ****     {
  77:.\Generated_Source\PSoC4/SwSPI_Master_1.c ****         SwSPI_Master_1_OUTPORT_DR_REG |= SwSPI_Master_1_MOSI;
 334              		.loc 1 77 0
 335 0010 1F4B     		ldr	r3, .L25
 336 0012 1F4A     		ldr	r2, .L25
 337 0014 1268     		ldr	r2, [r2]
 338 0016 0421     		mov	r1, #4
 339 0018 0A43     		orr	r2, r1
 340 001a 1A60     		str	r2, [r3]
  78:.\Generated_Source\PSoC4/SwSPI_Master_1.c ****         SwSPI_Master_1_OUTPORT_DR_REG |= SwSPI_Master_1_CLK;
 341              		.loc 1 78 0
 342 001c 1C4B     		ldr	r3, .L25
 343 001e 1C4A     		ldr	r2, .L25
 344 0020 1268     		ldr	r2, [r2]
 345 0022 0221     		mov	r1, #2
 346 0024 0A43     		orr	r2, r1
 347 0026 1A60     		str	r2, [r3]
  79:.\Generated_Source\PSoC4/SwSPI_Master_1.c ****         tmpPin = (uint8)((SwSPI_Master_1_INPORT_PS_REG & SwSPI_Master_1_MISO_MASK) >> SwSPI_Master_
 348              		.loc 1 79 0
 349 0028 1A4B     		ldr	r3, .L25+4
 350 002a 1B68     		ldr	r3, [r3]
 351 002c 0822     		mov	r2, #8
 352 002e 1340     		and	r3, r2
 353 0030 DA08     		lsr	r2, r3, #3
 354 0032 FB1D     		add	r3, r7, #7
 355 0034 1A70     		strb	r2, [r3]
  80:.\Generated_Source\PSoC4/SwSPI_Master_1.c ****         if (tmpPin == 1u)
 356              		.loc 1 80 0
 357 0036 FB1D     		add	r3, r7, #7
 358 0038 1B78     		ldrb	r3, [r3]
 359 003a 012B     		cmp	r3, #1
 360 003c 03D1     		bne	.L22
  81:.\Generated_Source\PSoC4/SwSPI_Master_1.c ****         {
  82:.\Generated_Source\PSoC4/SwSPI_Master_1.c ****             tmpBuff |= MASK_LOW_BIT;
 361              		.loc 1 82 0
 362 003e BB68     		ldr	r3, [r7, #8]
 363 0040 0122     		mov	r2, #1
 364 0042 1343     		orr	r3, r2
 365 0044 BB60     		str	r3, [r7, #8]
 366              	.L22:
  83:.\Generated_Source\PSoC4/SwSPI_Master_1.c ****         }
  84:.\Generated_Source\PSoC4/SwSPI_Master_1.c ****         CyDelayCycles(DELAY_HIGH_STATE);
 367              		.loc 1 84 0 discriminator 2
 368 0046 1420     		mov	r0, #20
ARM GAS  C:\Users\Petro\AppData\Local\Temp\ccy9Mn0b.s 			page 9


 369 0048 FFF7FEFF 		bl	CyDelayCycles
  85:.\Generated_Source\PSoC4/SwSPI_Master_1.c ****         
  86:.\Generated_Source\PSoC4/SwSPI_Master_1.c ****         SwSPI_Master_1_OUTPORT_DR_REG &= ((uint8)(~SwSPI_Master_1_CLK));
 370              		.loc 1 86 0 discriminator 2
 371 004c 104B     		ldr	r3, .L25
 372 004e 104A     		ldr	r2, .L25
 373 0050 1268     		ldr	r2, [r2]
 374 0052 FD21     		mov	r1, #253
 375 0054 0A40     		and	r2, r1
 376 0056 1A60     		str	r2, [r3]
  87:.\Generated_Source\PSoC4/SwSPI_Master_1.c ****         
  88:.\Generated_Source\PSoC4/SwSPI_Master_1.c ****         CyDelayCycles(DELAY_LOW_STATE);
 377              		.loc 1 88 0 discriminator 2
 378 0058 1420     		mov	r0, #20
 379 005a FFF7FEFF 		bl	CyDelayCycles
  89:.\Generated_Source\PSoC4/SwSPI_Master_1.c ****         
  90:.\Generated_Source\PSoC4/SwSPI_Master_1.c ****         tmpBuff <<= SHIFT_ONE_BIT;
 380              		.loc 1 90 0 discriminator 2
 381 005e BB68     		ldr	r3, [r7, #8]
 382 0060 5B00     		lsl	r3, r3, #1
 383 0062 BB60     		str	r3, [r7, #8]
  75:.\Generated_Source\PSoC4/SwSPI_Master_1.c ****     {
 384              		.loc 1 75 0 discriminator 2
 385 0064 FB68     		ldr	r3, [r7, #12]
 386 0066 013B     		sub	r3, r3, #1
 387 0068 FB60     		str	r3, [r7, #12]
 388              	.L21:
  75:.\Generated_Source\PSoC4/SwSPI_Master_1.c ****     {
 389              		.loc 1 75 0 is_stmt 0 discriminator 1
 390 006a FB68     		ldr	r3, [r7, #12]
 391 006c 002B     		cmp	r3, #0
 392 006e CFD1     		bne	.L23
  91:.\Generated_Source\PSoC4/SwSPI_Master_1.c ****     }
  92:.\Generated_Source\PSoC4/SwSPI_Master_1.c ****     tmpBuff >>= SHIFT_ONE_BIT;
 393              		.loc 1 92 0 is_stmt 1
 394 0070 BB68     		ldr	r3, [r7, #8]
 395 0072 5B08     		lsr	r3, r3, #1
 396 0074 BB60     		str	r3, [r7, #8]
  93:.\Generated_Source\PSoC4/SwSPI_Master_1.c ****     
  94:.\Generated_Source\PSoC4/SwSPI_Master_1.c ****     SwSPI_Master_1_OUTPORT_DR_REG &= ((uint8)(~SwSPI_Master_1_MOSI));
 397              		.loc 1 94 0
 398 0076 064B     		ldr	r3, .L25
 399 0078 054A     		ldr	r2, .L25
 400 007a 1268     		ldr	r2, [r2]
 401 007c FB21     		mov	r1, #251
 402 007e 0A40     		and	r2, r1
 403 0080 1A60     		str	r2, [r3]
  95:.\Generated_Source\PSoC4/SwSPI_Master_1.c ****     
  96:.\Generated_Source\PSoC4/SwSPI_Master_1.c ****     return (uint8_t)tmpBuff;
 404              		.loc 1 96 0
 405 0082 BB68     		ldr	r3, [r7, #8]
 406 0084 DBB2     		uxtb	r3, r3
  97:.\Generated_Source\PSoC4/SwSPI_Master_1.c **** }
 407              		.loc 1 97 0
 408 0086 181C     		mov	r0, r3
 409 0088 BD46     		mov	sp, r7
 410 008a 04B0     		add	sp, sp, #16
ARM GAS  C:\Users\Petro\AppData\Local\Temp\ccy9Mn0b.s 			page 10


 411              		@ sp needed
 412 008c 80BD     		pop	{r7, pc}
 413              	.L26:
 414 008e C046     		.align	2
 415              	.L25:
 416 0090 00020440 		.word	1074004480
 417 0094 04020440 		.word	1074004484
 418              		.cfi_endproc
 419              	.LFE7:
 420              		.size	SwSPI_Master_1_RecvByte, .-SwSPI_Master_1_RecvByte
 421              		.section	.text.SwSPI_Master_1_RecvBuff,"ax",%progbits
 422              		.align	2
 423              		.global	SwSPI_Master_1_RecvBuff
 424              		.code	16
 425              		.thumb_func
 426              		.type	SwSPI_Master_1_RecvBuff, %function
 427              	SwSPI_Master_1_RecvBuff:
 428              	.LFB8:
  98:.\Generated_Source\PSoC4/SwSPI_Master_1.c **** 
  99:.\Generated_Source\PSoC4/SwSPI_Master_1.c **** void SwSPI_Master_1_RecvBuff(uint8 *buff, uint16 cnt) 
 100:.\Generated_Source\PSoC4/SwSPI_Master_1.c **** {
 429              		.loc 1 100 0
 430              		.cfi_startproc
 431 0000 90B5     		push	{r4, r7, lr}
 432              		.cfi_def_cfa_offset 12
 433              		.cfi_offset 4, -12
 434              		.cfi_offset 7, -8
 435              		.cfi_offset 14, -4
 436 0002 85B0     		sub	sp, sp, #20
 437              		.cfi_def_cfa_offset 32
 438 0004 00AF     		add	r7, sp, #0
 439              		.cfi_def_cfa_register 7
 440 0006 7860     		str	r0, [r7, #4]
 441 0008 0A1C     		mov	r2, r1
 442 000a BB1C     		add	r3, r7, #2
 443 000c 1A80     		strh	r2, [r3]
 101:.\Generated_Source\PSoC4/SwSPI_Master_1.c ****     uint16_t tmpData;
 102:.\Generated_Source\PSoC4/SwSPI_Master_1.c ****     for (tmpData = 0; tmpData < cnt; tmpData ++)
 444              		.loc 1 102 0
 445 000e 0E23     		mov	r3, #14
 446 0010 FB18     		add	r3, r7, r3
 447 0012 0022     		mov	r2, #0
 448 0014 1A80     		strh	r2, [r3]
 449 0016 0FE0     		b	.L28
 450              	.L29:
 103:.\Generated_Source\PSoC4/SwSPI_Master_1.c ****     {
 104:.\Generated_Source\PSoC4/SwSPI_Master_1.c ****         buff[tmpData] = SwSPI_Master_1_RecvByte(); 
 451              		.loc 1 104 0 discriminator 3
 452 0018 0E23     		mov	r3, #14
 453 001a FB18     		add	r3, r7, r3
 454 001c 1B88     		ldrh	r3, [r3]
 455 001e 7A68     		ldr	r2, [r7, #4]
 456 0020 D418     		add	r4, r2, r3
 457 0022 FFF7FEFF 		bl	SwSPI_Master_1_RecvByte
 458 0026 031C     		mov	r3, r0
 459 0028 2370     		strb	r3, [r4]
 102:.\Generated_Source\PSoC4/SwSPI_Master_1.c ****     {
ARM GAS  C:\Users\Petro\AppData\Local\Temp\ccy9Mn0b.s 			page 11


 460              		.loc 1 102 0 discriminator 3
 461 002a 0E23     		mov	r3, #14
 462 002c FB18     		add	r3, r7, r3
 463 002e 1A88     		ldrh	r2, [r3]
 464 0030 0E23     		mov	r3, #14
 465 0032 FB18     		add	r3, r7, r3
 466 0034 0132     		add	r2, r2, #1
 467 0036 1A80     		strh	r2, [r3]
 468              	.L28:
 102:.\Generated_Source\PSoC4/SwSPI_Master_1.c ****     {
 469              		.loc 1 102 0 is_stmt 0 discriminator 1
 470 0038 0E23     		mov	r3, #14
 471 003a FA18     		add	r2, r7, r3
 472 003c BB1C     		add	r3, r7, #2
 473 003e 1288     		ldrh	r2, [r2]
 474 0040 1B88     		ldrh	r3, [r3]
 475 0042 9A42     		cmp	r2, r3
 476 0044 E8D3     		bcc	.L29
 105:.\Generated_Source\PSoC4/SwSPI_Master_1.c ****     }
 106:.\Generated_Source\PSoC4/SwSPI_Master_1.c **** }
 477              		.loc 1 106 0 is_stmt 1
 478 0046 BD46     		mov	sp, r7
 479 0048 05B0     		add	sp, sp, #20
 480              		@ sp needed
 481 004a 90BD     		pop	{r4, r7, pc}
 482              		.cfi_endproc
 483              	.LFE8:
 484              		.size	SwSPI_Master_1_RecvBuff, .-SwSPI_Master_1_RecvBuff
 485              		.text
 486              	.Letext0:
 487              		.file 2 "c:\\program files (x86)\\cypress\\psoc creator\\3.3\\psoc creator\\import\\gnu\\arm\\4.9.
 488              		.file 3 "c:\\program files (x86)\\cypress\\psoc creator\\3.3\\psoc creator\\import\\gnu\\arm\\4.9.
 489              		.file 4 ".\\Generated_Source\\PSoC4\\cytypes.h"
 490              		.section	.debug_info,"",%progbits
 491              	.Ldebug_info0:
 492 0000 32020000 		.4byte	0x232
 493 0004 0400     		.2byte	0x4
 494 0006 00000000 		.4byte	.Ldebug_abbrev0
 495 000a 04       		.byte	0x4
 496 000b 01       		.uleb128 0x1
 497 000c 17010000 		.4byte	.LASF35
 498 0010 01       		.byte	0x1
 499 0011 10000000 		.4byte	.LASF36
 500 0015 37020000 		.4byte	.LASF37
 501 0019 00000000 		.4byte	.Ldebug_ranges0+0
 502 001d 00000000 		.4byte	0
 503 0021 00000000 		.4byte	.Ldebug_line0
 504 0025 02       		.uleb128 0x2
 505 0026 01       		.byte	0x1
 506 0027 06       		.byte	0x6
 507 0028 2B020000 		.4byte	.LASF0
 508 002c 03       		.uleb128 0x3
 509 002d 06000000 		.4byte	.LASF3
 510 0031 02       		.byte	0x2
 511 0032 1D       		.byte	0x1d
 512 0033 37000000 		.4byte	0x37
 513 0037 02       		.uleb128 0x2
ARM GAS  C:\Users\Petro\AppData\Local\Temp\ccy9Mn0b.s 			page 12


 514 0038 01       		.byte	0x1
 515 0039 08       		.byte	0x8
 516 003a 90000000 		.4byte	.LASF1
 517 003e 02       		.uleb128 0x2
 518 003f 02       		.byte	0x2
 519 0040 05       		.byte	0x5
 520 0041 06020000 		.4byte	.LASF2
 521 0045 03       		.uleb128 0x3
 522 0046 E2000000 		.4byte	.LASF4
 523 004a 02       		.byte	0x2
 524 004b 2B       		.byte	0x2b
 525 004c 50000000 		.4byte	0x50
 526 0050 02       		.uleb128 0x2
 527 0051 02       		.byte	0x2
 528 0052 07       		.byte	0x7
 529 0053 3A000000 		.4byte	.LASF5
 530 0057 02       		.uleb128 0x2
 531 0058 04       		.byte	0x4
 532 0059 05       		.byte	0x5
 533 005a 22020000 		.4byte	.LASF6
 534 005e 03       		.uleb128 0x3
 535 005f 0C010000 		.4byte	.LASF7
 536 0063 02       		.byte	0x2
 537 0064 41       		.byte	0x41
 538 0065 69000000 		.4byte	0x69
 539 0069 02       		.uleb128 0x2
 540 006a 04       		.byte	0x4
 541 006b 07       		.byte	0x7
 542 006c 9E000000 		.4byte	.LASF8
 543 0070 02       		.uleb128 0x2
 544 0071 08       		.byte	0x8
 545 0072 05       		.byte	0x5
 546 0073 F3010000 		.4byte	.LASF9
 547 0077 02       		.uleb128 0x2
 548 0078 08       		.byte	0x8
 549 0079 07       		.byte	0x7
 550 007a C0010000 		.4byte	.LASF10
 551 007e 04       		.uleb128 0x4
 552 007f 04       		.byte	0x4
 553 0080 05       		.byte	0x5
 554 0081 696E7400 		.ascii	"int\000"
 555 0085 02       		.uleb128 0x2
 556 0086 04       		.byte	0x4
 557 0087 07       		.byte	0x7
 558 0088 B3010000 		.4byte	.LASF11
 559 008c 03       		.uleb128 0x3
 560 008d D7010000 		.4byte	.LASF12
 561 0091 03       		.byte	0x3
 562 0092 15       		.byte	0x15
 563 0093 2C000000 		.4byte	0x2c
 564 0097 03       		.uleb128 0x3
 565 0098 10020000 		.4byte	.LASF13
 566 009c 03       		.byte	0x3
 567 009d 21       		.byte	0x21
 568 009e 45000000 		.4byte	0x45
 569 00a2 03       		.uleb128 0x3
 570 00a3 19020000 		.4byte	.LASF14
ARM GAS  C:\Users\Petro\AppData\Local\Temp\ccy9Mn0b.s 			page 13


 571 00a7 03       		.byte	0x3
 572 00a8 2D       		.byte	0x2d
 573 00a9 5E000000 		.4byte	0x5e
 574 00ad 03       		.uleb128 0x3
 575 00ae B0000000 		.4byte	.LASF15
 576 00b2 04       		.byte	0x4
 577 00b3 C2       		.byte	0xc2
 578 00b4 37000000 		.4byte	0x37
 579 00b8 03       		.uleb128 0x3
 580 00b9 A5010000 		.4byte	.LASF16
 581 00bd 04       		.byte	0x4
 582 00be C3       		.byte	0xc3
 583 00bf 50000000 		.4byte	0x50
 584 00c3 03       		.uleb128 0x3
 585 00c4 AC010000 		.4byte	.LASF17
 586 00c8 04       		.byte	0x4
 587 00c9 C4       		.byte	0xc4
 588 00ca 69000000 		.4byte	0x69
 589 00ce 02       		.uleb128 0x2
 590 00cf 04       		.byte	0x4
 591 00d0 04       		.byte	0x4
 592 00d1 72000000 		.4byte	.LASF18
 593 00d5 02       		.uleb128 0x2
 594 00d6 08       		.byte	0x8
 595 00d7 04       		.byte	0x4
 596 00d8 ED000000 		.4byte	.LASF19
 597 00dc 02       		.uleb128 0x2
 598 00dd 01       		.byte	0x1
 599 00de 08       		.byte	0x8
 600 00df 01020000 		.4byte	.LASF20
 601 00e3 05       		.uleb128 0x5
 602 00e4 00000000 		.4byte	.LASF21
 603 00e8 04       		.byte	0x4
 604 00e9 6E01     		.2byte	0x16e
 605 00eb EF000000 		.4byte	0xef
 606 00ef 06       		.uleb128 0x6
 607 00f0 C3000000 		.4byte	0xc3
 608 00f4 02       		.uleb128 0x2
 609 00f5 04       		.byte	0x4
 610 00f6 07       		.byte	0x7
 611 00f7 DF010000 		.4byte	.LASF22
 612 00fb 07       		.uleb128 0x7
 613 00fc 87020000 		.4byte	.LASF23
 614 0100 01       		.byte	0x1
 615 0101 11       		.byte	0x11
 616 0102 00000000 		.4byte	.LFB2
 617 0106 30000000 		.4byte	.LFE2-.LFB2
 618 010a 01       		.uleb128 0x1
 619 010b 9C       		.byte	0x9c
 620 010c 07       		.uleb128 0x7
 621 010d B7020000 		.4byte	.LASF24
 622 0111 01       		.byte	0x1
 623 0112 18       		.byte	0x18
 624 0113 00000000 		.4byte	.LFB3
 625 0117 18000000 		.4byte	.LFE3-.LFB3
 626 011b 01       		.uleb128 0x1
 627 011c 9C       		.byte	0x9c
ARM GAS  C:\Users\Petro\AppData\Local\Temp\ccy9Mn0b.s 			page 14


 628 011d 07       		.uleb128 0x7
 629 011e 9B020000 		.4byte	.LASF25
 630 0122 01       		.byte	0x1
 631 0123 1D       		.byte	0x1d
 632 0124 00000000 		.4byte	.LFB4
 633 0128 18000000 		.4byte	.LFE4-.LFB4
 634 012c 01       		.uleb128 0x1
 635 012d 9C       		.byte	0x9c
 636 012e 08       		.uleb128 0x8
 637 012f 5A000000 		.4byte	.LASF26
 638 0133 01       		.byte	0x1
 639 0134 23       		.byte	0x23
 640 0135 00000000 		.4byte	.LFB5
 641 0139 98000000 		.4byte	.LFE5-.LFB5
 642 013d 01       		.uleb128 0x1
 643 013e 9C       		.byte	0x9c
 644 013f 60010000 		.4byte	0x160
 645 0143 09       		.uleb128 0x9
 646 0144 4D000000 		.4byte	.LASF28
 647 0148 01       		.byte	0x1
 648 0149 23       		.byte	0x23
 649 014a AD000000 		.4byte	0xad
 650 014e 02       		.uleb128 0x2
 651 014f 91       		.byte	0x91
 652 0150 6F       		.sleb128 -17
 653 0151 0A       		.uleb128 0xa
 654 0152 E8010000 		.4byte	.LASF30
 655 0156 01       		.byte	0x1
 656 0157 25       		.byte	0x25
 657 0158 AD000000 		.4byte	0xad
 658 015c 02       		.uleb128 0x2
 659 015d 91       		.byte	0x91
 660 015e 77       		.sleb128 -9
 661 015f 00       		.byte	0
 662 0160 08       		.uleb128 0x8
 663 0161 F4000000 		.4byte	.LASF27
 664 0165 01       		.byte	0x1
 665 0166 3D       		.byte	0x3d
 666 0167 00000000 		.4byte	.LFB6
 667 016b 4C000000 		.4byte	.LFE6-.LFB6
 668 016f 01       		.uleb128 0x1
 669 0170 9C       		.byte	0x9c
 670 0171 A0010000 		.4byte	0x1a0
 671 0175 09       		.uleb128 0x9
 672 0176 C5000000 		.4byte	.LASF29
 673 017a 01       		.byte	0x1
 674 017b 3D       		.byte	0x3d
 675 017c A0010000 		.4byte	0x1a0
 676 0180 02       		.uleb128 0x2
 677 0181 91       		.byte	0x91
 678 0182 6C       		.sleb128 -20
 679 0183 0B       		.uleb128 0xb
 680 0184 636E7400 		.ascii	"cnt\000"
 681 0188 01       		.byte	0x1
 682 0189 3D       		.byte	0x3d
 683 018a B8000000 		.4byte	0xb8
 684 018e 02       		.uleb128 0x2
ARM GAS  C:\Users\Petro\AppData\Local\Temp\ccy9Mn0b.s 			page 15


 685 018f 91       		.byte	0x91
 686 0190 6A       		.sleb128 -22
 687 0191 0A       		.uleb128 0xa
 688 0192 52000000 		.4byte	.LASF31
 689 0196 01       		.byte	0x1
 690 0197 3F       		.byte	0x3f
 691 0198 97000000 		.4byte	0x97
 692 019c 02       		.uleb128 0x2
 693 019d 91       		.byte	0x91
 694 019e 76       		.sleb128 -10
 695 019f 00       		.byte	0
 696 01a0 0C       		.uleb128 0xc
 697 01a1 04       		.byte	0x4
 698 01a2 A6010000 		.4byte	0x1a6
 699 01a6 0D       		.uleb128 0xd
 700 01a7 AD000000 		.4byte	0xad
 701 01ab 0E       		.uleb128 0xe
 702 01ac 78000000 		.4byte	.LASF38
 703 01b0 01       		.byte	0x1
 704 01b1 46       		.byte	0x46
 705 01b2 AD000000 		.4byte	0xad
 706 01b6 00000000 		.4byte	.LFB7
 707 01ba 98000000 		.4byte	.LFE7-.LFB7
 708 01be 01       		.uleb128 0x1
 709 01bf 9C       		.byte	0x9c
 710 01c0 EF010000 		.4byte	0x1ef
 711 01c4 0A       		.uleb128 0xa
 712 01c5 E8010000 		.4byte	.LASF30
 713 01c9 01       		.byte	0x1
 714 01ca 48       		.byte	0x48
 715 01cb A2000000 		.4byte	0xa2
 716 01cf 02       		.uleb128 0x2
 717 01d0 91       		.byte	0x91
 718 01d1 74       		.sleb128 -12
 719 01d2 0A       		.uleb128 0xa
 720 01d3 B6000000 		.4byte	.LASF32
 721 01d7 01       		.byte	0x1
 722 01d8 49       		.byte	0x49
 723 01d9 A2000000 		.4byte	0xa2
 724 01dd 02       		.uleb128 0x2
 725 01de 91       		.byte	0x91
 726 01df 70       		.sleb128 -16
 727 01e0 0A       		.uleb128 0xa
 728 01e1 BE000000 		.4byte	.LASF33
 729 01e5 01       		.byte	0x1
 730 01e6 4A       		.byte	0x4a
 731 01e7 AD000000 		.4byte	0xad
 732 01eb 02       		.uleb128 0x2
 733 01ec 91       		.byte	0x91
 734 01ed 6F       		.sleb128 -17
 735 01ee 00       		.byte	0
 736 01ef 08       		.uleb128 0x8
 737 01f0 CA000000 		.4byte	.LASF34
 738 01f4 01       		.byte	0x1
 739 01f5 63       		.byte	0x63
 740 01f6 00000000 		.4byte	.LFB8
 741 01fa 4C000000 		.4byte	.LFE8-.LFB8
ARM GAS  C:\Users\Petro\AppData\Local\Temp\ccy9Mn0b.s 			page 16


 742 01fe 01       		.uleb128 0x1
 743 01ff 9C       		.byte	0x9c
 744 0200 2F020000 		.4byte	0x22f
 745 0204 09       		.uleb128 0x9
 746 0205 C5000000 		.4byte	.LASF29
 747 0209 01       		.byte	0x1
 748 020a 63       		.byte	0x63
 749 020b 2F020000 		.4byte	0x22f
 750 020f 02       		.uleb128 0x2
 751 0210 91       		.byte	0x91
 752 0211 64       		.sleb128 -28
 753 0212 0B       		.uleb128 0xb
 754 0213 636E7400 		.ascii	"cnt\000"
 755 0217 01       		.byte	0x1
 756 0218 63       		.byte	0x63
 757 0219 B8000000 		.4byte	0xb8
 758 021d 02       		.uleb128 0x2
 759 021e 91       		.byte	0x91
 760 021f 62       		.sleb128 -30
 761 0220 0A       		.uleb128 0xa
 762 0221 52000000 		.4byte	.LASF31
 763 0225 01       		.byte	0x1
 764 0226 65       		.byte	0x65
 765 0227 97000000 		.4byte	0x97
 766 022b 02       		.uleb128 0x2
 767 022c 91       		.byte	0x91
 768 022d 6E       		.sleb128 -18
 769 022e 00       		.byte	0
 770 022f 0C       		.uleb128 0xc
 771 0230 04       		.byte	0x4
 772 0231 AD000000 		.4byte	0xad
 773 0235 00       		.byte	0
 774              		.section	.debug_abbrev,"",%progbits
 775              	.Ldebug_abbrev0:
 776 0000 01       		.uleb128 0x1
 777 0001 11       		.uleb128 0x11
 778 0002 01       		.byte	0x1
 779 0003 25       		.uleb128 0x25
 780 0004 0E       		.uleb128 0xe
 781 0005 13       		.uleb128 0x13
 782 0006 0B       		.uleb128 0xb
 783 0007 03       		.uleb128 0x3
 784 0008 0E       		.uleb128 0xe
 785 0009 1B       		.uleb128 0x1b
 786 000a 0E       		.uleb128 0xe
 787 000b 55       		.uleb128 0x55
 788 000c 17       		.uleb128 0x17
 789 000d 11       		.uleb128 0x11
 790 000e 01       		.uleb128 0x1
 791 000f 10       		.uleb128 0x10
 792 0010 17       		.uleb128 0x17
 793 0011 00       		.byte	0
 794 0012 00       		.byte	0
 795 0013 02       		.uleb128 0x2
 796 0014 24       		.uleb128 0x24
 797 0015 00       		.byte	0
 798 0016 0B       		.uleb128 0xb
ARM GAS  C:\Users\Petro\AppData\Local\Temp\ccy9Mn0b.s 			page 17


 799 0017 0B       		.uleb128 0xb
 800 0018 3E       		.uleb128 0x3e
 801 0019 0B       		.uleb128 0xb
 802 001a 03       		.uleb128 0x3
 803 001b 0E       		.uleb128 0xe
 804 001c 00       		.byte	0
 805 001d 00       		.byte	0
 806 001e 03       		.uleb128 0x3
 807 001f 16       		.uleb128 0x16
 808 0020 00       		.byte	0
 809 0021 03       		.uleb128 0x3
 810 0022 0E       		.uleb128 0xe
 811 0023 3A       		.uleb128 0x3a
 812 0024 0B       		.uleb128 0xb
 813 0025 3B       		.uleb128 0x3b
 814 0026 0B       		.uleb128 0xb
 815 0027 49       		.uleb128 0x49
 816 0028 13       		.uleb128 0x13
 817 0029 00       		.byte	0
 818 002a 00       		.byte	0
 819 002b 04       		.uleb128 0x4
 820 002c 24       		.uleb128 0x24
 821 002d 00       		.byte	0
 822 002e 0B       		.uleb128 0xb
 823 002f 0B       		.uleb128 0xb
 824 0030 3E       		.uleb128 0x3e
 825 0031 0B       		.uleb128 0xb
 826 0032 03       		.uleb128 0x3
 827 0033 08       		.uleb128 0x8
 828 0034 00       		.byte	0
 829 0035 00       		.byte	0
 830 0036 05       		.uleb128 0x5
 831 0037 16       		.uleb128 0x16
 832 0038 00       		.byte	0
 833 0039 03       		.uleb128 0x3
 834 003a 0E       		.uleb128 0xe
 835 003b 3A       		.uleb128 0x3a
 836 003c 0B       		.uleb128 0xb
 837 003d 3B       		.uleb128 0x3b
 838 003e 05       		.uleb128 0x5
 839 003f 49       		.uleb128 0x49
 840 0040 13       		.uleb128 0x13
 841 0041 00       		.byte	0
 842 0042 00       		.byte	0
 843 0043 06       		.uleb128 0x6
 844 0044 35       		.uleb128 0x35
 845 0045 00       		.byte	0
 846 0046 49       		.uleb128 0x49
 847 0047 13       		.uleb128 0x13
 848 0048 00       		.byte	0
 849 0049 00       		.byte	0
 850 004a 07       		.uleb128 0x7
 851 004b 2E       		.uleb128 0x2e
 852 004c 00       		.byte	0
 853 004d 3F       		.uleb128 0x3f
 854 004e 19       		.uleb128 0x19
 855 004f 03       		.uleb128 0x3
ARM GAS  C:\Users\Petro\AppData\Local\Temp\ccy9Mn0b.s 			page 18


 856 0050 0E       		.uleb128 0xe
 857 0051 3A       		.uleb128 0x3a
 858 0052 0B       		.uleb128 0xb
 859 0053 3B       		.uleb128 0x3b
 860 0054 0B       		.uleb128 0xb
 861 0055 27       		.uleb128 0x27
 862 0056 19       		.uleb128 0x19
 863 0057 11       		.uleb128 0x11
 864 0058 01       		.uleb128 0x1
 865 0059 12       		.uleb128 0x12
 866 005a 06       		.uleb128 0x6
 867 005b 40       		.uleb128 0x40
 868 005c 18       		.uleb128 0x18
 869 005d 9742     		.uleb128 0x2117
 870 005f 19       		.uleb128 0x19
 871 0060 00       		.byte	0
 872 0061 00       		.byte	0
 873 0062 08       		.uleb128 0x8
 874 0063 2E       		.uleb128 0x2e
 875 0064 01       		.byte	0x1
 876 0065 3F       		.uleb128 0x3f
 877 0066 19       		.uleb128 0x19
 878 0067 03       		.uleb128 0x3
 879 0068 0E       		.uleb128 0xe
 880 0069 3A       		.uleb128 0x3a
 881 006a 0B       		.uleb128 0xb
 882 006b 3B       		.uleb128 0x3b
 883 006c 0B       		.uleb128 0xb
 884 006d 27       		.uleb128 0x27
 885 006e 19       		.uleb128 0x19
 886 006f 11       		.uleb128 0x11
 887 0070 01       		.uleb128 0x1
 888 0071 12       		.uleb128 0x12
 889 0072 06       		.uleb128 0x6
 890 0073 40       		.uleb128 0x40
 891 0074 18       		.uleb128 0x18
 892 0075 9642     		.uleb128 0x2116
 893 0077 19       		.uleb128 0x19
 894 0078 01       		.uleb128 0x1
 895 0079 13       		.uleb128 0x13
 896 007a 00       		.byte	0
 897 007b 00       		.byte	0
 898 007c 09       		.uleb128 0x9
 899 007d 05       		.uleb128 0x5
 900 007e 00       		.byte	0
 901 007f 03       		.uleb128 0x3
 902 0080 0E       		.uleb128 0xe
 903 0081 3A       		.uleb128 0x3a
 904 0082 0B       		.uleb128 0xb
 905 0083 3B       		.uleb128 0x3b
 906 0084 0B       		.uleb128 0xb
 907 0085 49       		.uleb128 0x49
 908 0086 13       		.uleb128 0x13
 909 0087 02       		.uleb128 0x2
 910 0088 18       		.uleb128 0x18
 911 0089 00       		.byte	0
 912 008a 00       		.byte	0
ARM GAS  C:\Users\Petro\AppData\Local\Temp\ccy9Mn0b.s 			page 19


 913 008b 0A       		.uleb128 0xa
 914 008c 34       		.uleb128 0x34
 915 008d 00       		.byte	0
 916 008e 03       		.uleb128 0x3
 917 008f 0E       		.uleb128 0xe
 918 0090 3A       		.uleb128 0x3a
 919 0091 0B       		.uleb128 0xb
 920 0092 3B       		.uleb128 0x3b
 921 0093 0B       		.uleb128 0xb
 922 0094 49       		.uleb128 0x49
 923 0095 13       		.uleb128 0x13
 924 0096 02       		.uleb128 0x2
 925 0097 18       		.uleb128 0x18
 926 0098 00       		.byte	0
 927 0099 00       		.byte	0
 928 009a 0B       		.uleb128 0xb
 929 009b 05       		.uleb128 0x5
 930 009c 00       		.byte	0
 931 009d 03       		.uleb128 0x3
 932 009e 08       		.uleb128 0x8
 933 009f 3A       		.uleb128 0x3a
 934 00a0 0B       		.uleb128 0xb
 935 00a1 3B       		.uleb128 0x3b
 936 00a2 0B       		.uleb128 0xb
 937 00a3 49       		.uleb128 0x49
 938 00a4 13       		.uleb128 0x13
 939 00a5 02       		.uleb128 0x2
 940 00a6 18       		.uleb128 0x18
 941 00a7 00       		.byte	0
 942 00a8 00       		.byte	0
 943 00a9 0C       		.uleb128 0xc
 944 00aa 0F       		.uleb128 0xf
 945 00ab 00       		.byte	0
 946 00ac 0B       		.uleb128 0xb
 947 00ad 0B       		.uleb128 0xb
 948 00ae 49       		.uleb128 0x49
 949 00af 13       		.uleb128 0x13
 950 00b0 00       		.byte	0
 951 00b1 00       		.byte	0
 952 00b2 0D       		.uleb128 0xd
 953 00b3 26       		.uleb128 0x26
 954 00b4 00       		.byte	0
 955 00b5 49       		.uleb128 0x49
 956 00b6 13       		.uleb128 0x13
 957 00b7 00       		.byte	0
 958 00b8 00       		.byte	0
 959 00b9 0E       		.uleb128 0xe
 960 00ba 2E       		.uleb128 0x2e
 961 00bb 01       		.byte	0x1
 962 00bc 3F       		.uleb128 0x3f
 963 00bd 19       		.uleb128 0x19
 964 00be 03       		.uleb128 0x3
 965 00bf 0E       		.uleb128 0xe
 966 00c0 3A       		.uleb128 0x3a
 967 00c1 0B       		.uleb128 0xb
 968 00c2 3B       		.uleb128 0x3b
 969 00c3 0B       		.uleb128 0xb
ARM GAS  C:\Users\Petro\AppData\Local\Temp\ccy9Mn0b.s 			page 20


 970 00c4 27       		.uleb128 0x27
 971 00c5 19       		.uleb128 0x19
 972 00c6 49       		.uleb128 0x49
 973 00c7 13       		.uleb128 0x13
 974 00c8 11       		.uleb128 0x11
 975 00c9 01       		.uleb128 0x1
 976 00ca 12       		.uleb128 0x12
 977 00cb 06       		.uleb128 0x6
 978 00cc 40       		.uleb128 0x40
 979 00cd 18       		.uleb128 0x18
 980 00ce 9642     		.uleb128 0x2116
 981 00d0 19       		.uleb128 0x19
 982 00d1 01       		.uleb128 0x1
 983 00d2 13       		.uleb128 0x13
 984 00d3 00       		.byte	0
 985 00d4 00       		.byte	0
 986 00d5 00       		.byte	0
 987              		.section	.debug_aranges,"",%progbits
 988 0000 4C000000 		.4byte	0x4c
 989 0004 0200     		.2byte	0x2
 990 0006 00000000 		.4byte	.Ldebug_info0
 991 000a 04       		.byte	0x4
 992 000b 00       		.byte	0
 993 000c 0000     		.2byte	0
 994 000e 0000     		.2byte	0
 995 0010 00000000 		.4byte	.LFB2
 996 0014 30000000 		.4byte	.LFE2-.LFB2
 997 0018 00000000 		.4byte	.LFB3
 998 001c 18000000 		.4byte	.LFE3-.LFB3
 999 0020 00000000 		.4byte	.LFB4
 1000 0024 18000000 		.4byte	.LFE4-.LFB4
 1001 0028 00000000 		.4byte	.LFB5
 1002 002c 98000000 		.4byte	.LFE5-.LFB5
 1003 0030 00000000 		.4byte	.LFB6
 1004 0034 4C000000 		.4byte	.LFE6-.LFB6
 1005 0038 00000000 		.4byte	.LFB7
 1006 003c 98000000 		.4byte	.LFE7-.LFB7
 1007 0040 00000000 		.4byte	.LFB8
 1008 0044 4C000000 		.4byte	.LFE8-.LFB8
 1009 0048 00000000 		.4byte	0
 1010 004c 00000000 		.4byte	0
 1011              		.section	.debug_ranges,"",%progbits
 1012              	.Ldebug_ranges0:
 1013 0000 00000000 		.4byte	.LFB2
 1014 0004 30000000 		.4byte	.LFE2
 1015 0008 00000000 		.4byte	.LFB3
 1016 000c 18000000 		.4byte	.LFE3
 1017 0010 00000000 		.4byte	.LFB4
 1018 0014 18000000 		.4byte	.LFE4
 1019 0018 00000000 		.4byte	.LFB5
 1020 001c 98000000 		.4byte	.LFE5
 1021 0020 00000000 		.4byte	.LFB6
 1022 0024 4C000000 		.4byte	.LFE6
 1023 0028 00000000 		.4byte	.LFB7
 1024 002c 98000000 		.4byte	.LFE7
 1025 0030 00000000 		.4byte	.LFB8
 1026 0034 4C000000 		.4byte	.LFE8
ARM GAS  C:\Users\Petro\AppData\Local\Temp\ccy9Mn0b.s 			page 21


 1027 0038 00000000 		.4byte	0
 1028 003c 00000000 		.4byte	0
 1029              		.section	.debug_line,"",%progbits
 1030              	.Ldebug_line0:
 1031 0000 42020000 		.section	.debug_str,"MS",%progbits,1
 1031      02004501 
 1031      00000201 
 1031      FB0E0D00 
 1031      01010101 
 1032              	.LASF21:
 1033 0000 72656733 		.ascii	"reg32\000"
 1033      3200
 1034              	.LASF3:
 1035 0006 5F5F7569 		.ascii	"__uint8_t\000"
 1035      6E74385F 
 1035      7400
 1036              	.LASF36:
 1037 0010 2E5C4765 		.ascii	".\\Generated_Source\\PSoC4\\SwSPI_Master_1.c\000"
 1037      6E657261 
 1037      7465645F 
 1037      536F7572 
 1037      63655C50 
 1038              	.LASF5:
 1039 003a 73686F72 		.ascii	"short unsigned int\000"
 1039      7420756E 
 1039      7369676E 
 1039      65642069 
 1039      6E7400
 1040              	.LASF28:
 1041 004d 62797465 		.ascii	"byte\000"
 1041      00
 1042              	.LASF31:
 1043 0052 746D7044 		.ascii	"tmpData\000"
 1043      61746100 
 1044              	.LASF26:
 1045 005a 53775350 		.ascii	"SwSPI_Master_1_SendByte\000"
 1045      495F4D61 
 1045      73746572 
 1045      5F315F53 
 1045      656E6442 
 1046              	.LASF18:
 1047 0072 666C6F61 		.ascii	"float\000"
 1047      7400
 1048              	.LASF38:
 1049 0078 53775350 		.ascii	"SwSPI_Master_1_RecvByte\000"
 1049      495F4D61 
 1049      73746572 
 1049      5F315F52 
 1049      65637642 
 1050              	.LASF1:
 1051 0090 756E7369 		.ascii	"unsigned char\000"
 1051      676E6564 
 1051      20636861 
 1051      7200
 1052              	.LASF8:
 1053 009e 6C6F6E67 		.ascii	"long unsigned int\000"
 1053      20756E73 
ARM GAS  C:\Users\Petro\AppData\Local\Temp\ccy9Mn0b.s 			page 22


 1053      69676E65 
 1053      6420696E 
 1053      7400
 1054              	.LASF15:
 1055 00b0 75696E74 		.ascii	"uint8\000"
 1055      3800
 1056              	.LASF32:
 1057 00b6 746D7042 		.ascii	"tmpBuff\000"
 1057      75666600 
 1058              	.LASF33:
 1059 00be 746D7050 		.ascii	"tmpPin\000"
 1059      696E00
 1060              	.LASF29:
 1061 00c5 62756666 		.ascii	"buff\000"
 1061      00
 1062              	.LASF34:
 1063 00ca 53775350 		.ascii	"SwSPI_Master_1_RecvBuff\000"
 1063      495F4D61 
 1063      73746572 
 1063      5F315F52 
 1063      65637642 
 1064              	.LASF4:
 1065 00e2 5F5F7569 		.ascii	"__uint16_t\000"
 1065      6E743136 
 1065      5F7400
 1066              	.LASF19:
 1067 00ed 646F7562 		.ascii	"double\000"
 1067      6C6500
 1068              	.LASF27:
 1069 00f4 53775350 		.ascii	"SwSPI_Master_1_SendBuff\000"
 1069      495F4D61 
 1069      73746572 
 1069      5F315F53 
 1069      656E6442 
 1070              	.LASF7:
 1071 010c 5F5F7569 		.ascii	"__uint32_t\000"
 1071      6E743332 
 1071      5F7400
 1072              	.LASF35:
 1073 0117 474E5520 		.ascii	"GNU C 4.9.3 20150303 (release) [ARM/embedded-4_9-br"
 1073      4320342E 
 1073      392E3320 
 1073      32303135 
 1073      30333033 
 1074 014a 616E6368 		.ascii	"anch revision 221220] -mcpu=cortex-m0 -mthumb -g -O"
 1074      20726576 
 1074      6973696F 
 1074      6E203232 
 1074      31323230 
 1075 017d 30202D66 		.ascii	"0 -ffunction-sections -ffat-lto-objects\000"
 1075      66756E63 
 1075      74696F6E 
 1075      2D736563 
 1075      74696F6E 
 1076              	.LASF16:
 1077 01a5 75696E74 		.ascii	"uint16\000"
 1077      313600
ARM GAS  C:\Users\Petro\AppData\Local\Temp\ccy9Mn0b.s 			page 23


 1078              	.LASF17:
 1079 01ac 75696E74 		.ascii	"uint32\000"
 1079      333200
 1080              	.LASF11:
 1081 01b3 756E7369 		.ascii	"unsigned int\000"
 1081      676E6564 
 1081      20696E74 
 1081      00
 1082              	.LASF10:
 1083 01c0 6C6F6E67 		.ascii	"long long unsigned int\000"
 1083      206C6F6E 
 1083      6720756E 
 1083      7369676E 
 1083      65642069 
 1084              	.LASF12:
 1085 01d7 75696E74 		.ascii	"uint8_t\000"
 1085      385F7400 
 1086              	.LASF22:
 1087 01df 73697A65 		.ascii	"sizetype\000"
 1087      74797065 
 1087      00
 1088              	.LASF30:
 1089 01e8 636F756E 		.ascii	"countBites\000"
 1089      74426974 
 1089      657300
 1090              	.LASF9:
 1091 01f3 6C6F6E67 		.ascii	"long long int\000"
 1091      206C6F6E 
 1091      6720696E 
 1091      7400
 1092              	.LASF20:
 1093 0201 63686172 		.ascii	"char\000"
 1093      00
 1094              	.LASF2:
 1095 0206 73686F72 		.ascii	"short int\000"
 1095      7420696E 
 1095      7400
 1096              	.LASF13:
 1097 0210 75696E74 		.ascii	"uint16_t\000"
 1097      31365F74 
 1097      00
 1098              	.LASF14:
 1099 0219 75696E74 		.ascii	"uint32_t\000"
 1099      33325F74 
 1099      00
 1100              	.LASF6:
 1101 0222 6C6F6E67 		.ascii	"long int\000"
 1101      20696E74 
 1101      00
 1102              	.LASF0:
 1103 022b 7369676E 		.ascii	"signed char\000"
 1103      65642063 
 1103      68617200 
 1104              	.LASF37:
 1105 0237 443A5C43 		.ascii	"D:\\Cypress\\system-start-finish\\vesion 2\\fw\\fin"
 1105      79707265 
 1105      73735C73 
ARM GAS  C:\Users\Petro\AppData\Local\Temp\ccy9Mn0b.s 			page 24


 1105      79737465 
 1105      6D2D7374 
 1106 0265 6973685C 		.ascii	"ish\\sandbox\\v2\\Fat\\Design01.cydsn\000"
 1106      73616E64 
 1106      626F785C 
 1106      76325C46 
 1106      61745C44 
 1107              	.LASF23:
 1108 0287 53775350 		.ascii	"SwSPI_Master_1_Init\000"
 1108      495F4D61 
 1108      73746572 
 1108      5F315F49 
 1108      6E697400 
 1109              	.LASF25:
 1110 029b 53775350 		.ascii	"SwSPI_Master_1_ChipDeselect\000"
 1110      495F4D61 
 1110      73746572 
 1110      5F315F43 
 1110      68697044 
 1111              	.LASF24:
 1112 02b7 53775350 		.ascii	"SwSPI_Master_1_ChipSelect\000"
 1112      495F4D61 
 1112      73746572 
 1112      5F315F43 
 1112      68697053 
 1113              		.ident	"GCC: (GNU Tools for ARM Embedded Processors) 4.9.3 20150303 (release) [ARM/embedded-4_9-br
