ARM GAS  C:\Users\Petro\AppData\Local\Temp\ccy9Mn0b.s 			page 1


   1              		.cpu cortex-m0
   2              		.fpu softvfp
   3              		.eabi_attribute 20, 1
   4              		.eabi_attribute 21, 1
   5              		.eabi_attribute 23, 3
   6              		.eabi_attribute 24, 1
   7              		.eabi_attribute 25, 1
   8              		.eabi_attribute 26, 1
   9              		.eabi_attribute 30, 6
  10              		.eabi_attribute 34, 0
  11              		.eabi_attribute 18, 4
  12              		.code	16
  13              		.file	"SwSPI_Master_1.c"
  14              		.text
  15              	.Ltext0:
  16              		.cfi_sections	.debug_frame
  17              		.section	.text.SwSPI_Master_1_Init,"ax",%progbits
  18              		.align	2
  19              		.global	SwSPI_Master_1_Init
  20              		.code	16
  21              		.thumb_func
  22              		.type	SwSPI_Master_1_Init, %function
  23              	SwSPI_Master_1_Init:
  24              	.LFB2:
  25              		.file 1 ".\\Generated_Source\\PSoC4\\SwSPI_Master_1.c"
   1:.\Generated_Source\PSoC4/SwSPI_Master_1.c **** /* ========================================
   2:.\Generated_Source\PSoC4/SwSPI_Master_1.c ****  *
   3:.\Generated_Source\PSoC4/SwSPI_Master_1.c ****  * File Name: SwSPI_Master_1.c
   4:.\Generated_Source\PSoC4/SwSPI_Master_1.c ****  * Version 1.0 
   5:.\Generated_Source\PSoC4/SwSPI_Master_1.c ****  * Copyright YOUR COMPANY, THE YEAR
   6:.\Generated_Source\PSoC4/SwSPI_Master_1.c ****  * All Rights Reserved
   7:.\Generated_Source\PSoC4/SwSPI_Master_1.c ****  * UNPUBLISHED, LICENSED SOFTWARE.
   8:.\Generated_Source\PSoC4/SwSPI_Master_1.c ****  *
   9:.\Generated_Source\PSoC4/SwSPI_Master_1.c ****  * CONFIDENTIAL AND PROPRIETARY INFORMATION
  10:.\Generated_Source\PSoC4/SwSPI_Master_1.c ****  * WHICH IS THE PROPERTY OF your company.
  11:.\Generated_Source\PSoC4/SwSPI_Master_1.c ****  *
  12:.\Generated_Source\PSoC4/SwSPI_Master_1.c ****  * ========================================
  13:.\Generated_Source\PSoC4/SwSPI_Master_1.c **** */
  14:.\Generated_Source\PSoC4/SwSPI_Master_1.c **** 
  15:.\Generated_Source\PSoC4/SwSPI_Master_1.c **** #include "SwSPI_Master_1_PVT.h"
  16:.\Generated_Source\PSoC4/SwSPI_Master_1.c **** 
  17:.\Generated_Source\PSoC4/SwSPI_Master_1.c **** void SwSPI_Master_1_Init(void) 
  18:.\Generated_Source\PSoC4/SwSPI_Master_1.c **** {
  26              		.loc 1 18 0
  27              		.cfi_startproc
  28 0000 80B5     		push	{r7, lr}
  29              		.cfi_def_cfa_offset 8
  30              		.cfi_offset 7, -8
  31              		.cfi_offset 14, -4
  32 0002 00AF     		add	r7, sp, #0
  33              		.cfi_def_cfa_register 7
  19:.\Generated_Source\PSoC4/SwSPI_Master_1.c ****    SwSPI_Master_1_OUTPORT_DR_REG |= SwSPI_Master_1_CS;
  34              		.loc 1 19 0
  35 0004 094B     		ldr	r3, .L2
  36 0006 094A     		ldr	r2, .L2
  37 0008 1268     		ldr	r2, [r2]
  38 000a 0121     		mov	r1, #1
ARM GAS  C:\Users\Petro\AppData\Local\Temp\ccy9Mn0b.s 			page 2


  39 000c 0A43     		orr	r2, r1
  40 000e 1A60     		str	r2, [r3]
  20:.\Generated_Source\PSoC4/SwSPI_Master_1.c ****    SwSPI_Master_1_OUTPORT_DR_REG &= ((uint8)(~SwSPI_Master_1_CLK));
  41              		.loc 1 20 0
  42 0010 064B     		ldr	r3, .L2
  43 0012 064A     		ldr	r2, .L2
  44 0014 1268     		ldr	r2, [r2]
  45 0016 FD21     		mov	r1, #253
  46 0018 0A40     		and	r2, r1
  47 001a 1A60     		str	r2, [r3]
  21:.\Generated_Source\PSoC4/SwSPI_Master_1.c ****    SwSPI_Master_1_OUTPORT_DR_REG &= ((uint8)(~SwSPI_Master_1_MOSI));
  48              		.loc 1 21 0
  49 001c 034B     		ldr	r3, .L2
  50 001e 034A     		ldr	r2, .L2
  51 0020 1268     		ldr	r2, [r2]
  52 0022 FB21     		mov	r1, #251
  53 0024 0A40     		and	r2, r1
  54 0026 1A60     		str	r2, [r3]
  22:.\Generated_Source\PSoC4/SwSPI_Master_1.c **** }
  55              		.loc 1 22 0
  56 0028 BD46     		mov	sp, r7
  57              		@ sp needed
  58 002a 80BD     		pop	{r7, pc}
  59              	.L3:
  60              		.align	2
  61              	.L2:
  62 002c 00020440 		.word	1074004480
  63              		.cfi_endproc
  64              	.LFE2:
  65              		.size	SwSPI_Master_1_Init, .-SwSPI_Master_1_Init
  66              		.section	.text.SwSPI_Master_1_ChipSelect,"ax",%progbits
  67              		.align	2
  68              		.global	SwSPI_Master_1_ChipSelect
  69              		.code	16
  70              		.thumb_func
  71              		.type	SwSPI_Master_1_ChipSelect, %function
  72              	SwSPI_Master_1_ChipSelect:
  73              	.LFB3:
  23:.\Generated_Source\PSoC4/SwSPI_Master_1.c **** 
  24:.\Generated_Source\PSoC4/SwSPI_Master_1.c **** void SwSPI_Master_1_ChipSelect(void) 
  25:.\Generated_Source\PSoC4/SwSPI_Master_1.c **** {
  74              		.loc 1 25 0
  75              		.cfi_startproc
  76 0000 80B5     		push	{r7, lr}
  77              		.cfi_def_cfa_offset 8
  78              		.cfi_offset 7, -8
  79              		.cfi_offset 14, -4
  80 0002 00AF     		add	r7, sp, #0
  81              		.cfi_def_cfa_register 7
  26:.\Generated_Source\PSoC4/SwSPI_Master_1.c ****     SwSPI_Master_1_OUTPORT_DR_REG &= ((uint8)(~SwSPI_Master_1_CS));
  82              		.loc 1 26 0
  83 0004 034B     		ldr	r3, .L5
  84 0006 034A     		ldr	r2, .L5
  85 0008 1268     		ldr	r2, [r2]
  86 000a FE21     		mov	r1, #254
  87 000c 0A40     		and	r2, r1
  88 000e 1A60     		str	r2, [r3]
ARM GAS  C:\Users\Petro\AppData\Local\Temp\ccy9Mn0b.s 			page 3


  27:.\Generated_Source\PSoC4/SwSPI_Master_1.c **** }
  89              		.loc 1 27 0
  90 0010 BD46     		mov	sp, r7
  91              		@ sp needed
  92 0012 80BD     		pop	{r7, pc}
  93              	.L6:
  94              		.align	2
  95              	.L5:
  96 0014 00020440 		.word	1074004480
  97              		.cfi_endproc
  98              	.LFE3:
  99              		.size	SwSPI_Master_1_ChipSelect, .-SwSPI_Master_1_ChipSelect
 100              		.section	.text.SwSPI_Master_1_ChipDeselect,"ax",%progbits
 101              		.align	2
 102              		.global	SwSPI_Master_1_ChipDeselect
 103              		.code	16
 104              		.thumb_func
 105              		.type	SwSPI_Master_1_ChipDeselect, %function
 106              	SwSPI_Master_1_ChipDeselect:
 107              	.LFB4:
  28:.\Generated_Source\PSoC4/SwSPI_Master_1.c **** 
  29:.\Generated_Source\PSoC4/SwSPI_Master_1.c **** void SwSPI_Master_1_ChipDeselect(void) 
  30:.\Generated_Source\PSoC4/SwSPI_Master_1.c **** {
 108              		.loc 1 30 0
 109              		.cfi_startproc
 110 0000 80B5     		push	{r7, lr}
 111              		.cfi_def_cfa_offset 8
 112              		.cfi_offset 7, -8
 113              		.cfi_offset 14, -4
 114 0002 00AF     		add	r7, sp, #0
 115              		.cfi_def_cfa_register 7
  31:.\Generated_Source\PSoC4/SwSPI_Master_1.c ****     SwSPI_Master_1_OUTPORT_DR_REG |= SwSPI_Master_1_CS;
 116              		.loc 1 31 0
 117 0004 034B     		ldr	r3, .L8
 118 0006 034A     		ldr	r2, .L8
 119 0008 1268     		ldr	r2, [r2]
 120 000a 0121     		mov	r1, #1
 121 000c 0A43     		orr	r2, r1
 122 000e 1A60     		str	r2, [r3]
  32:.\Generated_Source\PSoC4/SwSPI_Master_1.c **** }
 123              		.loc 1 32 0
 124 0010 BD46     		mov	sp, r7
 125              		@ sp needed
 126 0012 80BD     		pop	{r7, pc}
 127              	.L9:
 128              		.align	2
 129              	.L8:
 130 0014 00020440 		.word	1074004480
 131              		.cfi_endproc
 132              	.LFE4:
 133              		.size	SwSPI_Master_1_ChipDeselect, .-SwSPI_Master_1_ChipDeselect
 134              		.section	.text.SwSPI_Master_1_SendByte,"ax",%progbits
 135              		.align	2
 136              		.global	SwSPI_Master_1_SendByte
 137              		.code	16
 138              		.thumb_func
 139              		.type	SwSPI_Master_1_SendByte, %function
ARM GAS  C:\Users\Petro\AppData\Local\Temp\ccy9Mn0b.s 			page 4


 140              	SwSPI_Master_1_SendByte:
 141              	.LFB5:
  33:.\Generated_Source\PSoC4/SwSPI_Master_1.c **** 
  34:.\Generated_Source\PSoC4/SwSPI_Master_1.c **** 
  35:.\Generated_Source\PSoC4/SwSPI_Master_1.c **** void SwSPI_Master_1_SendByte(uint8 byte) 
  36:.\Generated_Source\PSoC4/SwSPI_Master_1.c **** {
 142              		.loc 1 36 0
 143              		.cfi_startproc
 144 0000 80B5     		push	{r7, lr}
 145              		.cfi_def_cfa_offset 8
 146              		.cfi_offset 7, -8
 147              		.cfi_offset 14, -4
 148 0002 84B0     		sub	sp, sp, #16
 149              		.cfi_def_cfa_offset 24
 150 0004 00AF     		add	r7, sp, #0
 151              		.cfi_def_cfa_register 7
 152 0006 021C     		mov	r2, r0
 153 0008 FB1D     		add	r3, r7, #7
 154 000a 1A70     		strb	r2, [r3]
  37:.\Generated_Source\PSoC4/SwSPI_Master_1.c ****     uint8 countBites;
  38:.\Generated_Source\PSoC4/SwSPI_Master_1.c ****     for (countBites = BITES_ON_ONE_BYTE; countBites > 0; countBites--)
 155              		.loc 1 38 0
 156 000c 0F23     		mov	r3, #15
 157 000e FB18     		add	r3, r7, r3
 158 0010 0822     		mov	r2, #8
 159 0012 1A70     		strb	r2, [r3]
 160 0014 2FE0     		b	.L11
 161              	.L14:
  39:.\Generated_Source\PSoC4/SwSPI_Master_1.c ****     {
  40:.\Generated_Source\PSoC4/SwSPI_Master_1.c ****     
  41:.\Generated_Source\PSoC4/SwSPI_Master_1.c ****         if (byte & MASK_HIGH_BIT)
 162              		.loc 1 41 0
 163 0016 FB1D     		add	r3, r7, #7
 164 0018 1B78     		ldrb	r3, [r3]
 165 001a 5BB2     		sxtb	r3, r3
 166 001c 002B     		cmp	r3, #0
 167 001e 06DA     		bge	.L12
  42:.\Generated_Source\PSoC4/SwSPI_Master_1.c ****         {
  43:.\Generated_Source\PSoC4/SwSPI_Master_1.c ****             SwSPI_Master_1_OUTPORT_DR_REG |= SwSPI_Master_1_MOSI;
 168              		.loc 1 43 0
 169 0020 1C4B     		ldr	r3, .L15
 170 0022 1C4A     		ldr	r2, .L15
 171 0024 1268     		ldr	r2, [r2]
 172 0026 0421     		mov	r1, #4
 173 0028 0A43     		orr	r2, r1
 174 002a 1A60     		str	r2, [r3]
 175 002c 05E0     		b	.L13
 176              	.L12:
  44:.\Generated_Source\PSoC4/SwSPI_Master_1.c ****         }
  45:.\Generated_Source\PSoC4/SwSPI_Master_1.c ****         else
  46:.\Generated_Source\PSoC4/SwSPI_Master_1.c ****         {
  47:.\Generated_Source\PSoC4/SwSPI_Master_1.c ****             SwSPI_Master_1_OUTPORT_DR_REG &= ((uint8)(~SwSPI_Master_1_MOSI));
 177              		.loc 1 47 0
 178 002e 194B     		ldr	r3, .L15
 179 0030 184A     		ldr	r2, .L15
 180 0032 1268     		ldr	r2, [r2]
 181 0034 FB21     		mov	r1, #251
ARM GAS  C:\Users\Petro\AppData\Local\Temp\ccy9Mn0b.s 			page 5


 182 0036 0A40     		and	r2, r1
 183 0038 1A60     		str	r2, [r3]
 184              	.L13:
  48:.\Generated_Source\PSoC4/SwSPI_Master_1.c ****         }
  49:.\Generated_Source\PSoC4/SwSPI_Master_1.c ****         CyDelayCycles(DELAY_HIGH_STATE);        
 185              		.loc 1 49 0 discriminator 2
 186 003a 1420     		mov	r0, #20
 187 003c FFF7FEFF 		bl	CyDelayCycles
  50:.\Generated_Source\PSoC4/SwSPI_Master_1.c ****         SwSPI_Master_1_OUTPORT_DR_REG |= SwSPI_Master_1_CLK;
 188              		.loc 1 50 0 discriminator 2
 189 0040 144B     		ldr	r3, .L15
 190 0042 144A     		ldr	r2, .L15
 191 0044 1268     		ldr	r2, [r2]
 192 0046 0221     		mov	r1, #2
 193 0048 0A43     		orr	r2, r1
 194 004a 1A60     		str	r2, [r3]
  51:.\Generated_Source\PSoC4/SwSPI_Master_1.c ****         
  52:.\Generated_Source\PSoC4/SwSPI_Master_1.c ****         CyDelayCycles(DELAY_LOW_STATE);
 195              		.loc 1 52 0 discriminator 2
 196 004c 1420     		mov	r0, #20
 197 004e FFF7FEFF 		bl	CyDelayCycles
  53:.\Generated_Source\PSoC4/SwSPI_Master_1.c ****         
  54:.\Generated_Source\PSoC4/SwSPI_Master_1.c ****          SwSPI_Master_1_OUTPORT_DR_REG &= ((uint8)(~SwSPI_Master_1_CLK));
 198              		.loc 1 54 0 discriminator 2
 199 0052 104B     		ldr	r3, .L15
 200 0054 0F4A     		ldr	r2, .L15
 201 0056 1268     		ldr	r2, [r2]
 202 0058 FD21     		mov	r1, #253
 203 005a 0A40     		and	r2, r1
 204 005c 1A60     		str	r2, [r3]
  55:.\Generated_Source\PSoC4/SwSPI_Master_1.c ****         byte <<=  SHIFT_ONE_BIT;
 205              		.loc 1 55 0 discriminator 2
 206 005e FA1D     		add	r2, r7, #7
 207 0060 FB1D     		add	r3, r7, #7
 208 0062 1B78     		ldrb	r3, [r3]
 209 0064 DB18     		add	r3, r3, r3
 210 0066 1370     		strb	r3, [r2]
  38:.\Generated_Source\PSoC4/SwSPI_Master_1.c ****     {
 211              		.loc 1 38 0 discriminator 2
 212 0068 0F23     		mov	r3, #15
 213 006a FB18     		add	r3, r7, r3
 214 006c 1A78     		ldrb	r2, [r3]
 215 006e 0F23     		mov	r3, #15
 216 0070 FB18     		add	r3, r7, r3
 217 0072 013A     		sub	r2, r2, #1
 218 0074 1A70     		strb	r2, [r3]
 219              	.L11:
  38:.\Generated_Source\PSoC4/SwSPI_Master_1.c ****     {
 220              		.loc 1 38 0 is_stmt 0 discriminator 1
 221 0076 0F23     		mov	r3, #15
 222 0078 FB18     		add	r3, r7, r3
 223 007a 1B78     		ldrb	r3, [r3]
 224 007c 002B     		cmp	r3, #0
 225 007e CAD1     		bne	.L14
  56:.\Generated_Source\PSoC4/SwSPI_Master_1.c ****     }
  57:.\Generated_Source\PSoC4/SwSPI_Master_1.c ****     
  58:.\Generated_Source\PSoC4/SwSPI_Master_1.c ****     SwSPI_Master_1_OUTPORT_DR_REG &= ((uint8)(~SwSPI_Master_1_MOSI));    
ARM GAS  C:\Users\Petro\AppData\Local\Temp\ccy9Mn0b.s 			page 6


 226              		.loc 1 58 0 is_stmt 1
 227 0080 044B     		ldr	r3, .L15
 228 0082 044A     		ldr	r2, .L15
 229 0084 1268     		ldr	r2, [r2]
 230 0086 FB21     		mov	r1, #251
 231 0088 0A40     		and	r2, r1
 232 008a 1A60     		str	r2, [r3]
  59:.\Generated_Source\PSoC4/SwSPI_Master_1.c **** }
 233              		.loc 1 59 0
 234 008c BD46     		mov	sp, r7
 235 008e 04B0     		add	sp, sp, #16
 236              		@ sp needed
 237 0090 80BD     		pop	{r7, pc}
 238              	.L16:
 239 0092 C046     		.align	2
 240              	.L15:
 241 0094 00020440 		.word	1074004480
 242              		.cfi_endproc
 243              	.LFE5:
 244              		.size	SwSPI_Master_1_SendByte, .-SwSPI_Master_1_SendByte
 245              		.section	.text.SwSPI_Master_1_SendBuff,"ax",%progbits
 246              		.align	2
 247              		.global	SwSPI_Master_1_SendBuff
 248              		.code	16
 249              		.thumb_func
 250              		.type	SwSPI_Master_1_SendBuff, %function
 251              	SwSPI_Master_1_SendBuff:
 252              	.LFB6:
  60:.\Generated_Source\PSoC4/SwSPI_Master_1.c **** 
  61:.\Generated_Source\PSoC4/SwSPI_Master_1.c **** void SwSPI_Master_1_SendBuff(const uint8 buff[], uint16 cnt) 
  62:.\Generated_Source\PSoC4/SwSPI_Master_1.c **** {
 253              		.loc 1 62 0
 254              		.cfi_startproc
 255 0000 80B5     		push	{r7, lr}
 256              		.cfi_def_cfa_offset 8
 257              		.cfi_offset 7, -8
 258              		.cfi_offset 14, -4
 259 0002 84B0     		sub	sp, sp, #16
 260              		.cfi_def_cfa_offset 24
 261 0004 00AF     		add	r7, sp, #0
 262              		.cfi_def_cfa_register 7
 263 0006 7860     		str	r0, [r7, #4]
 264 0008 0A1C     		mov	r2, r1
 265 000a BB1C     		add	r3, r7, #2
 266 000c 1A80     		strh	r2, [r3]
  63:.\Generated_Source\PSoC4/SwSPI_Master_1.c ****     uint16_t tmpData;
  64:.\Generated_Source\PSoC4/SwSPI_Master_1.c ****     for (tmpData = 0; tmpData < cnt; tmpData ++)
 267              		.loc 1 64 0
 268 000e 0E23     		mov	r3, #14
 269 0010 FB18     		add	r3, r7, r3
 270 0012 0022     		mov	r2, #0
 271 0014 1A80     		strh	r2, [r3]
 272 0016 0FE0     		b	.L18
 273              	.L19:
  65:.\Generated_Source\PSoC4/SwSPI_Master_1.c ****     {
  66:.\Generated_Source\PSoC4/SwSPI_Master_1.c ****         SwSPI_Master_1_SendByte(buff[tmpData]);
 274              		.loc 1 66 0 discriminator 3
ARM GAS  C:\Users\Petro\AppData\Local\Temp\ccy9Mn0b.s 			page 7


 275 0018 0E23     		mov	r3, #14
 276 001a FB18     		add	r3, r7, r3
 277 001c 1B88     		ldrh	r3, [r3]
 278 001e 7A68     		ldr	r2, [r7, #4]
 279 0020 D318     		add	r3, r2, r3
 280 0022 1B78     		ldrb	r3, [r3]
 281 0024 181C     		mov	r0, r3
 282 0026 FFF7FEFF 		bl	SwSPI_Master_1_SendByte
  64:.\Generated_Source\PSoC4/SwSPI_Master_1.c ****     {
 283              		.loc 1 64 0 discriminator 3
 284 002a 0E23     		mov	r3, #14
 285 002c FB18     		add	r3, r7, r3
 286 002e 1A88     		ldrh	r2, [r3]
 287 0030 0E23     		mov	r3, #14
 288 0032 FB18     		add	r3, r7, r3
 289 0034 0132     		add	r2, r2, #1
 290 0036 1A80     		strh	r2, [r3]
 291              	.L18:
  64:.\Generated_Source\PSoC4/SwSPI_Master_1.c ****     {
 292              		.loc 1 64 0 is_stmt 0 discriminator 1
 293 0038 0E23     		mov	r3, #14
 294 003a FA18     		add	r2, r7, r3
 295 003c BB1C     		add	r3, r7, #2
 296 003e 1288     		ldrh	r2, [r2]
 297 0040 1B88     		ldrh	r3, [r3]
 298 0042 9A42     		cmp	r2, r3
 299 0044 E8D3     		bcc	.L19
  67:.\Generated_Source\PSoC4/SwSPI_Master_1.c ****     }
  68:.\Generated_Source\PSoC4/SwSPI_Master_1.c **** }
 300              		.loc 1 68 0 is_stmt 1
 301 0046 BD46     		mov	sp, r7
 302 0048 04B0     		add	sp, sp, #16
 303              		@ sp needed
 304 004a 80BD     		pop	{r7, pc}
 305              		.cfi_endproc
 306              	.LFE6:
 307              		.size	SwSPI_Master_1_SendBuff, .-SwSPI_Master_1_SendBuff
 308              		.section	.text.SwSPI_Master_1_RecvByte,"ax",%progbits
 309              		.align	2
 310              		.global	SwSPI_Master_1_RecvByte
 311              		.code	16
 312              		.thumb_func
 313              		.type	SwSPI_Master_1_RecvByte, %function
 314              	SwSPI_Master_1_RecvByte:
 315              	.LFB7:
  69:.\Generated_Source\PSoC4/SwSPI_Master_1.c **** 
  70:.\Generated_Source\PSoC4/SwSPI_Master_1.c **** uint8 SwSPI_Master_1_RecvByte(void) 
  71:.\Generated_Source\PSoC4/SwSPI_Master_1.c **** {
 316              		.loc 1 71 0
 317              		.cfi_startproc
 318 0000 80B5     		push	{r7, lr}
 319              		.cfi_def_cfa_offset 8
 320              		.cfi_offset 7, -8
 321              		.cfi_offset 14, -4
 322 0002 84B0     		sub	sp, sp, #16
 323              		.cfi_def_cfa_offset 24
 324 0004 00AF     		add	r7, sp, #0
ARM GAS  C:\Users\Petro\AppData\Local\Temp\ccy9Mn0b.s 			page 8


 325              		.cfi_def_cfa_register 7
  72:.\Generated_Source\PSoC4/SwSPI_Master_1.c ****     uint32_t countBites;
  73:.\Generated_Source\PSoC4/SwSPI_Master_1.c ****     uint32_t tmpBuff = 0;
 326              		.loc 1 73 0
 327 0006 0023     		mov	r3, #0
 328 0008 BB60     		str	r3, [r7, #8]
  74:.\Generated_Source\PSoC4/SwSPI_Master_1.c ****     uint8 tmpPin;
  75:.\Generated_Source\PSoC4/SwSPI_Master_1.c ****     for (countBites = BITES_ON_ONE_BYTE; countBites > 0; countBites--)
 329              		.loc 1 75 0
 330 000a 0823     		mov	r3, #8
 331 000c FB60     		str	r3, [r7, #12]
 332 000e 2CE0     		b	.L21
 333              	.L23:
  76:.\Generated_Source\PSoC4/SwSPI_Master_1.c ****     {
  77:.\Generated_Source\PSoC4/SwSPI_Master_1.c ****         SwSPI_Master_1_OUTPORT_DR_REG |= SwSPI_Master_1_MOSI;
 334              		.loc 1 77 0
 335 0010 1F4B     		ldr	r3, .L25
 336 0012 1F4A     		ldr	r2, .L25
 337 0014 1268     		ldr	r2, [r2]
 338 0016 0421     		mov	r1, #4
 339 0018 0A43     		orr	r2, r1
 340 001a 1A60     		str	r2, [r3]
  78:.\Generated_Source\PSoC4/SwSPI_Master_1.c ****         SwSPI_Master_1_OUTPORT_DR_REG |= SwSPI_Master_1_CLK;
 341              		.loc 1 78 0
 342 001c 1C4B     		ldr	r3, .L25
 343 001e 1C4A     		ldr	r2, .L25
 344 0020 1268     		ldr	r2, [r2]
 345 0022 0221     		mov	r1, #2
 346 0024 0A43     		orr	r2, r1
 347 0026 1A60     		str	r2, [r3]
  79:.\Generated_Source\PSoC4/SwSPI_Master_1.c ****         tmpPin = (uint8)((SwSPI_Master_1_INPORT_PS_REG & SwSPI_Master_1_MISO_MASK) >> SwSPI_Master_
 348              		.loc 1 79 0
 349 0028 1A4B     		ldr	r3, .L25+4
 350 002a 1B68     		ldr	r3, [r3]
 351 002c 0822     		mov	r2, #8
 352 002e 1340     		and	r3, r2
 353 0030 DA08     		lsr	r2, r3, #3
 354 0032 FB1D     		add	r3, r7, #7
 355 0034 1A70     		strb	r2, [r3]
  80:.\Generated_Source\PSoC4/SwSPI_Master_1.c ****         if (tmpPin == 1u)
 356              		.loc 1 80 0
 357 0036 FB1D     		add	r3, r7, #7
 358 0038 1B78     		ldrb	r3, [r3]
 359 003a 012B     		cmp	r3, #1
 360 003c 03D1     		bne	.L22
  81:.\Generated_Source\PSoC4/SwSPI_Master_1.c ****         {
  82:.\Generated_Source\PSoC4/SwSPI_Master_1.c ****             tmpBuff |= MASK_LOW_BIT;
 361              		.loc 1 82 0
 362 003e BB68     		ldr	r3, [r7, #8]
 363 0040 0122     		mov	r2, #1
 364 0042 1343     		orr	r3, r2
 365 0044 BB60     		str	r3, [r7, #8]
 366              	.L22:
  83:.\Generated_Source\PSoC4/SwSPI_Master_1.c ****         }
  84:.\Generated_Source\PSoC4/SwSPI_Master_1.c ****         CyDelayCycles(DELAY_HIGH_STATE);
 367              		.loc 1 84 0 discriminator 2
 368 0046 1420     		mov	r0, #20
ARM GAS  C:\Users\Petro\AppData\Local\Temp\ccy9Mn0b.s 			page 9


 369 0048 FFF7FEFF 		bl	CyDelayCycles
  85:.\Generated_Source\PSoC4/SwSPI_Master_1.c ****         
  86:.\Generated_Source\PSoC4/SwSPI_Master_1.c ****         SwSPI_Master_1_OUTPORT_DR_REG &= ((uint8)(~SwSPI_Master_1_CLK));
 370              		.loc 1 86 0 discriminator 2
 371 004c 104B     		ldr	r3, .L25
 372 004e 104A     		ldr	r2, .L25
 373 0050 1268     		ldr	r2, [r2]
 374 0052 FD21     		mov	r1, #253
 375 0054 0A40     		and	r2, r1
 376 0056 1A60     		str	r2, [r3]
  87:.\Generated_Source\PSoC4/SwSPI_Master_1.c ****         
  88:.\Generated_Source\PSoC4/SwSPI_Master_1.c ****         CyDelayCycles(DELAY_LOW_STATE);
 377              		.loc 1 88 0 discriminator 2
 378 0058 1420     		mov	r0, #20
 379 005a FFF7FEFF 		bl	CyDelayCycles
  89:.\Generated_Source\PSoC4/SwSPI_Master_1.c ****         
  90:.\Generated_Source\PSoC4/SwSPI_Master_1.c ****         tmpBuff <<= SHIFT_ONE_BIT;
 380              		.loc 1 90 0 discriminator 2
 381 005e BB68     		ldr	r3, [r7, #8]
 382 0060 5B00     		lsl	r3, r3, #1
 383 0062 BB60     		str	r3, [r7, #8]
  75:.\Generated_Source\PSoC4/SwSPI_Master_1.c ****     {
 384              		.loc 1 75 0 discriminator 2
 385 0064 FB68     		ldr	r3, [r7, #12]
 386 0066 013B     		sub	r3, r3, #1
 387 0068 FB60     		str	r3, [r7, #12]
 388              	.L21:
  75:.\Generated_Source\PSoC4/SwSPI_Master_1.c ****     {
 389              		.loc 1 75 0 is_stmt 0 discriminator 1
 390 006a FB68     		ldr	r3, [r7, #12]
 391 006c 002B     		cmp	r3, #0
 392 006e CFD1     		bne	.L23
  91:.\Generated_Source\PSoC4/SwSPI_Master_1.c ****     }
  92:.\Generated_Source\PSoC4/SwSPI_Master_1.c ****     tmpBuff >>= SHIFT_ONE_BIT;
 393              		.loc 1 92 0 is_stmt 1
 394 0070 BB68     		ldr	r3, [r7, #8]
 395 0072 5B08     		lsr	r3, r3, #1
 396 0074 BB60     		str	r3, [r7, #8]
  93:.\Generated_Source\PSoC4/SwSPI_Master_1.c ****     
  94:.\Generated_Source\PSoC4/SwSPI_Master_1.c ****     SwSPI_Master_1_OUTPORT_DR_REG &= ((uint8)(~SwSPI_Master_1_MOSI));
 397              		.loc 1 94 0
 398 0076 064B     		ldr	r3, .L25
 399 0078 054A     		ldr	r2, .L25
 400 007a 1268     		ldr	r2, [r2]
 401 007c FB21     		mov	r1, #251
 402 007e 0A40     		and	r2, r1
 403 0080 1A60     		str	r2, [r3]
  95:.\Generated_Source\PSoC4/SwSPI_Master_1.c ****     
  96:.\Generated_Source\PSoC4/SwSPI_Master_1.c ****     return (uint8_t)tmpBuff;
 404              		.loc 1 96 0
 405 0082 BB68     		ldr	r3, [r7, #8]
 406 0084 DBB2     		uxtb	r3, r3
  97:.\Generated_Source\PSoC4/SwSPI_Master_1.c **** }
 407              		.loc 1 97 0
 408 0086 181C     		mov	r0, r3
 409 0088 BD46     		mov	sp, r7
 410 008a 04B0     		add	sp, sp, #16
ARM GAS  C:\Users\Petro\AppData\Local\Temp\ccy9Mn0b.s 			page 10


 411              		@ sp needed
 412 008c 80BD     		pop	{r7, pc}
 413              	.L26:
 414 008e C046     		.align	2
 415              	.L25:
 416 0090 00020440 		.word	1074004480
 417 0094 04020440 		.word	1074004484
 418              		.cfi_endproc
 419              	.LFE7:
 420              		.size	SwSPI_Master_1_RecvByte, .-SwSPI_Master_1_RecvByte
 421              		.section	.text.SwSPI_Master_1_RecvBuff,"ax",%progbits
 422              		.align	2
 423              		.global	SwSPI_Master_1_RecvBuff
 424              		.code	16
 425              		.thumb_func
 426              		.type	SwSPI_Master_1_RecvBuff, %function
 427              	SwSPI_Master_1_RecvBuff:
 428              	.LFB8:
  98:.\Generated_Source\PSoC4/SwSPI_Master_1.c **** 
  99:.\Generated_Source\PSoC4/SwSPI_Master_1.c **** void SwSPI_Master_1_RecvBuff(uint8 *buff, uint16 cnt) 
 100:.\Generated_Source\PSoC4/SwSPI_Master_1.c **** {
 429              		.loc 1 100 0
 430              		.cfi_startproc
 431 0000 90B5     		push	{r4, r7, lr}
 432              		.cfi_def_cfa_offset 12
 433              		.cfi_offset 4, -12
 434              		.cfi_offset 7, -8
 435              		.cfi_offset 14, -4
 436 0002 85B0     		sub	sp, sp, #20
 437              		.cfi_def_cfa_offset 32
 438 0004 00AF     		add	r7, sp, #0
 439              		.cfi_def_cfa_register 7
 440 0006 7860     		str	r0, [r7, #4]
 441 0008 0A1C     		mov	r2, r1
 442 000a BB1C     		add	r3, r7, #2
 443 000c 1A80     		strh	r2, [r3]
 101:.\Generated_Source\PSoC4/SwSPI_Master_1.c ****     uint16_t tmpData;
 102:.\Generated_Source\PSoC4/SwSPI_Master_1.c ****     for (tmpData = 0; tmpData < cnt; tmpData ++)
 444              		.loc 1 102 0
 445 000e 0E23     		mov	r3, #14
 446 0010 FB18     		add	r3, r7, r3
 447 0012 0022     		mov	r2, #0
 448 0014 1A80     		strh	r2, [r3]
 449 0016 0FE0     		b	.L28
 450              	.L29:
 103:.\Generated_Source\PSoC4/SwSPI_Master_1.c ****     {
 104:.\Generated_Source\PSoC4/SwSPI_Master_1.c ****         buff[tmpData] = SwSPI_Master_1_RecvByte(); 
 451              		.loc 1 104 0 discriminator 3
 452 0018 0E23     		mov	r3, #14
 453 001a FB18     		add	r3, r7, r3
 454 001c 1B88     		ldrh	r3, [r3]
 455 001e 7A68     		ldr	r2, [r7, #4]
 456 0020 D418     		add	r4, r2, r3
 457 0022 FFF7FEFF 		bl	SwSPI_Master_1_RecvByte
 458 0026 031C     		mov	r3, r0
 459 0028 2370     		strb	r3, [r4]
 102:.\Generated_Source\PSoC4/SwSPI_Master_1.c ****     {
ARM GAS  C:\Users\Petro\AppData\Local\Temp\ccy9Mn0b.s 			page 11


 460              		.loc 1 102 0 discriminator 3
 461 002a 0E23     		mov	r3, #14
 462 002c FB18     		add	r3, r7, r3
 463 002e 1A88     		ldrh	r2, [r3]
 464 0030 0E23     		mov	r3, #14
 465 0032 FB18     		add	r3, r7, r3
 466 0034 0132     		add	r2, r2, #1
 467 0036 1A80     		strh	r2, [r3]
 468              	.L28:
 102:.\Generated_Source\PSoC4/SwSPI_Master_1.c ****     {
 469              		.loc 1 102 0 is_stmt 0 discriminator 1
 470 0038 0E23     		mov	r3, #14
 471 003a FA18     		add	r2, r7, r3
 472 003c BB1C     		add	r3, r7, #2
 473 003e 1288     		ldrh	r2, [r2]
 474 0040 1B88     		ldrh	r3, [r3]
 475 0042 9A42     		cmp	r2, r3
 476 0044 E8D3     		bcc	.L29
 105:.\Generated_Source\PSoC4/SwSPI_Master_1.c ****     }
 106:.\Generated_Source\PSoC4/SwSPI_Master_1.c **** }
 477              		.loc 1 106 0 is_stmt 1
 478 0046 BD46     		mov	sp, r7
 479 0048 05B0     		add	sp, sp, #20
 480              		@ sp needed
 481 004a 90BD     		pop	{r4, r7, pc}
 482              		.cfi_endproc
 483              	.LFE8:
 484              		.size	SwSPI_Master_1_RecvBuff, .-SwSPI_Master_1_RecvBuff
 485              		.text
 486              	.Letext0:
 487              		.file 2 "c:\\program files (x86)\\cypress\\psoc creator\\3.3\\psoc creator\\import\\gnu\\arm\\4.9.
 488              		.file 3 "c:\\program files (x86)\\cypress\\psoc creator\\3.3\\psoc creator\\import\\gnu\\arm\\4.9.
 489              		.file 4 ".\\Generated_Source\\PSoC4\\cytypes.h"