ARM GAS  C:\Users\Petro\AppData\Local\Temp\ccHVLRHc.s 			page 1


   1              		.cpu cortex-m0
   2              		.fpu softvfp
   3              		.eabi_attribute 20, 1
   4              		.eabi_attribute 21, 1
   5              		.eabi_attribute 23, 3
   6              		.eabi_attribute 24, 1
   7              		.eabi_attribute 25, 1
   8              		.eabi_attribute 26, 1
   9              		.eabi_attribute 30, 1
  10              		.eabi_attribute 34, 0
  11              		.eabi_attribute 18, 4
  12              		.code	16
  13              		.file	"crc32.c"
  14              		.text
  15              	.Ltext0:
  16              		.cfi_sections	.debug_frame
  17              		.section	.text.crc32_init_tab,"ax",%progbits
  18              		.align	2
  19              		.code	16
  20              		.thumb_func
  21              		.type	crc32_init_tab, %function
  22              	crc32_init_tab:
  23              	.LFB3:
  24              		.file 1 "crc32.c"
   1:crc32.c       **** /* ========================================
   2:crc32.c       ****  *
   3:crc32.c       ****  * Copyright YOUR COMPANY, THE YEAR
   4:crc32.c       ****  * All Rights Reserved
   5:crc32.c       ****  * UNPUBLISHED, LICENSED SOFTWARE.
   6:crc32.c       ****  *
   7:crc32.c       ****  * CONFIDENTIAL AND PROPRIETARY INFORMATION
   8:crc32.c       ****  * WHICH IS THE PROPERTY OF your company.
   9:crc32.c       ****  *
  10:crc32.c       ****  * ========================================
  11:crc32.c       **** */
  12:crc32.c       **** 
  13:crc32.c       **** //#include "CommonPrototypes.h"
  14:crc32.c       **** #include <stdint.h>
  15:crc32.c       **** #include "crc32.h"
  16:crc32.c       **** 
  17:crc32.c       **** #define         CRC32_POLYNOM        0xEDB88320L
  18:crc32.c       **** 
  19:crc32.c       **** static int      crc32_tab_init       = 0;//= FALSE;
  20:crc32.c       **** static uint32_t    crc32_tab[256];
  21:crc32.c       **** 
  22:crc32.c       **** static void     crc32_init_tab( void );
  23:crc32.c       **** 
  24:crc32.c       **** uint32_t crc32_update( uint32_t crc, uint8_t c ) {
  25:crc32.c       **** 
  26:crc32.c       ****     uint32_t tmp, long_c;
  27:crc32.c       **** 
  28:crc32.c       ****     long_c = 0x000000ffL & (unsigned long) c;
  29:crc32.c       **** 
  30:crc32.c       ****     if ( ! crc32_tab_init ) crc32_init_tab();
  31:crc32.c       **** 
  32:crc32.c       ****     tmp = crc ^ long_c;
  33:crc32.c       ****     crc = (crc >> 8) ^ crc32_tab[ tmp & 0xff ];
ARM GAS  C:\Users\Petro\AppData\Local\Temp\ccHVLRHc.s 			page 2


  34:crc32.c       **** 
  35:crc32.c       ****     return crc;
  36:crc32.c       **** 
  37:crc32.c       **** }
  38:crc32.c       **** 
  39:crc32.c       **** uint32_t crc32_calc_block(uint8_t *buf, uint32_t Size, uint32_t init)
  40:crc32.c       **** {
  41:crc32.c       **** 	uint32_t i;
  42:crc32.c       **** 	uint32_t _crc = init;
  43:crc32.c       **** 	for (i = 0; i < Size; i++)
  44:crc32.c       **** 		_crc = crc32_update(_crc, buf[i]);
  45:crc32.c       **** 
  46:crc32.c       **** 	return _crc;
  47:crc32.c       **** }
  48:crc32.c       **** 
  49:crc32.c       **** uint32_t crc32_calc(uint8_t *buf, uint32_t Size)
  50:crc32.c       **** {
  51:crc32.c       **** 	uint32_t _crc;
  52:crc32.c       **** 
  53:crc32.c       **** 	_crc = crc32_reset();
  54:crc32.c       **** 	_crc = crc32_calc_block(buf, Size, _crc);
  55:crc32.c       **** 	return crc32_final(_crc);
  56:crc32.c       **** }
  57:crc32.c       **** 
  58:crc32.c       **** static void crc32_init_tab( void ) {
  25              		.loc 1 58 0
  26              		.cfi_startproc
  27              	.LVL0:
  59:crc32.c       **** 
  60:crc32.c       ****     int i, j;
  61:crc32.c       ****     uint32_t crc;
  62:crc32.c       **** 
  63:crc32.c       ****     for (i=0; i<256; i++) {
  28              		.loc 1 63 0
  29 0000 0020     		mov	r0, #0
  30 0002 10E0     		b	.L2
  31              	.LVL1:
  32              	.L7:
  64:crc32.c       **** 
  65:crc32.c       ****         crc = (uint32_t) i;
  33              		.loc 1 65 0
  34 0004 031C     		mov	r3, r0
  35              	.LVL2:
  66:crc32.c       **** 
  67:crc32.c       ****         for (j=0; j<8; j++) {
  36              		.loc 1 67 0
  37 0006 0022     		mov	r2, #0
  38 0008 07E0     		b	.L3
  39              	.LVL3:
  40              	.L6:
  68:crc32.c       **** 
  69:crc32.c       ****             if ( crc & 0x00000001L ) crc = ( crc >> 1 ) ^ CRC32_POLYNOM;
  41              		.loc 1 69 0
  42 000a D907     		lsl	r1, r3, #31
  43 000c 03D5     		bpl	.L4
  44              		.loc 1 69 0 is_stmt 0 discriminator 1
  45 000e 5B08     		lsr	r3, r3, #1
ARM GAS  C:\Users\Petro\AppData\Local\Temp\ccHVLRHc.s 			page 3


  46              	.LVL4:
  47 0010 0849     		ldr	r1, .L8
  48 0012 4B40     		eor	r3, r1
  49              	.LVL5:
  50 0014 00E0     		b	.L5
  51              	.L4:
  70:crc32.c       ****             else                     crc =   crc >> 1;
  52              		.loc 1 70 0 is_stmt 1
  53 0016 5B08     		lsr	r3, r3, #1
  54              	.LVL6:
  55              	.L5:
  67:crc32.c       **** 
  56              		.loc 1 67 0 discriminator 2
  57 0018 0132     		add	r2, r2, #1
  58              	.LVL7:
  59              	.L3:
  67:crc32.c       **** 
  60              		.loc 1 67 0 is_stmt 0 discriminator 1
  61 001a 072A     		cmp	r2, #7
  62 001c F5DD     		ble	.L6
  71:crc32.c       ****         }
  72:crc32.c       **** 
  73:crc32.c       ****         crc32_tab[i] = crc;
  63              		.loc 1 73 0 is_stmt 1 discriminator 2
  64 001e 8100     		lsl	r1, r0, #2
  65 0020 054A     		ldr	r2, .L8+4
  66              	.LVL8:
  67 0022 8B50     		str	r3, [r1, r2]
  63:crc32.c       **** 
  68              		.loc 1 63 0 discriminator 2
  69 0024 0130     		add	r0, r0, #1
  70              	.LVL9:
  71              	.L2:
  63:crc32.c       **** 
  72              		.loc 1 63 0 is_stmt 0 discriminator 1
  73 0026 FF28     		cmp	r0, #255
  74 0028 ECDD     		ble	.L7
  74:crc32.c       ****     }
  75:crc32.c       **** 
  76:crc32.c       ****     crc32_tab_init = 1;
  75              		.loc 1 76 0 is_stmt 1
  76 002a 0122     		mov	r2, #1
  77 002c 034B     		ldr	r3, .L8+8
  78 002e 1A60     		str	r2, [r3]
  77:crc32.c       **** 
  78:crc32.c       **** }
  79              		.loc 1 78 0
  80              		@ sp needed
  81 0030 7047     		bx	lr
  82              	.L9:
  83 0032 C046     		.align	2
  84              	.L8:
  85 0034 2083B8ED 		.word	-306674912
  86 0038 00000000 		.word	.LANCHOR0
  87 003c 00040000 		.word	.LANCHOR1
  88              		.cfi_endproc
  89              	.LFE3:
ARM GAS  C:\Users\Petro\AppData\Local\Temp\ccHVLRHc.s 			page 4


  90              		.size	crc32_init_tab, .-crc32_init_tab
  91              		.section	.text.crc32_update,"ax",%progbits
  92              		.align	2
  93              		.global	crc32_update
  94              		.code	16
  95              		.thumb_func
  96              		.type	crc32_update, %function
  97              	crc32_update:
  98              	.LFB0:
  24:crc32.c       **** 
  99              		.loc 1 24 0
 100              		.cfi_startproc
 101              	.LVL10:
 102 0000 38B5     		push	{r3, r4, r5, lr}
 103              		.cfi_def_cfa_offset 16
 104              		.cfi_offset 3, -16
 105              		.cfi_offset 4, -12
 106              		.cfi_offset 5, -8
 107              		.cfi_offset 14, -4
 108 0002 051C     		mov	r5, r0
 109 0004 0C1C     		mov	r4, r1
 110              	.LVL11:
  30:crc32.c       **** 
 111              		.loc 1 30 0
 112 0006 074B     		ldr	r3, .L12
 113 0008 1B68     		ldr	r3, [r3]
 114 000a 002B     		cmp	r3, #0
 115 000c 01D1     		bne	.L11
  30:crc32.c       **** 
 116              		.loc 1 30 0 is_stmt 0 discriminator 1
 117 000e FFF7FEFF 		bl	crc32_init_tab
 118              	.LVL12:
 119              	.L11:
  32:crc32.c       ****     crc = (crc >> 8) ^ crc32_tab[ tmp & 0xff ];
 120              		.loc 1 32 0 is_stmt 1
 121 0012 6C40     		eor	r4, r5
 122              	.LVL13:
  33:crc32.c       **** 
 123              		.loc 1 33 0
 124 0014 2D0A     		lsr	r5, r5, #8
 125              	.LVL14:
 126 0016 FF23     		mov	r3, #255
 127 0018 1C40     		and	r4, r3
 128              	.LVL15:
 129 001a A400     		lsl	r4, r4, #2
 130 001c 024B     		ldr	r3, .L12+4
 131 001e E058     		ldr	r0, [r4, r3]
 132 0020 6840     		eor	r0, r5
 133              	.LVL16:
  37:crc32.c       **** 
 134              		.loc 1 37 0
 135              		@ sp needed
 136 0022 38BD     		pop	{r3, r4, r5, pc}
 137              	.L13:
 138              		.align	2
 139              	.L12:
 140 0024 00040000 		.word	.LANCHOR1
ARM GAS  C:\Users\Petro\AppData\Local\Temp\ccHVLRHc.s 			page 5


 141 0028 00000000 		.word	.LANCHOR0
 142              		.cfi_endproc
 143              	.LFE0:
 144              		.size	crc32_update, .-crc32_update
 145              		.section	.text.crc32_calc_block,"ax",%progbits
 146              		.align	2
 147              		.global	crc32_calc_block
 148              		.code	16
 149              		.thumb_func
 150              		.type	crc32_calc_block, %function
 151              	crc32_calc_block:
 152              	.LFB1:
  40:crc32.c       **** 	uint32_t i;
 153              		.loc 1 40 0
 154              		.cfi_startproc
 155              	.LVL17:
 156 0000 70B5     		push	{r4, r5, r6, lr}
 157              		.cfi_def_cfa_offset 16
 158              		.cfi_offset 4, -16
 159              		.cfi_offset 5, -12
 160              		.cfi_offset 6, -8
 161              		.cfi_offset 14, -4
 162 0002 061C     		mov	r6, r0
 163 0004 0D1C     		mov	r5, r1
 164 0006 101C     		mov	r0, r2
 165              	.LVL18:
  43:crc32.c       **** 		_crc = crc32_update(_crc, buf[i]);
 166              		.loc 1 43 0
 167 0008 0024     		mov	r4, #0
 168 000a 03E0     		b	.L15
 169              	.LVL19:
 170              	.L16:
  44:crc32.c       **** 
 171              		.loc 1 44 0 discriminator 3
 172 000c 315D     		ldrb	r1, [r6, r4]
 173 000e FFF7FEFF 		bl	crc32_update
 174              	.LVL20:
  43:crc32.c       **** 		_crc = crc32_update(_crc, buf[i]);
 175              		.loc 1 43 0 discriminator 3
 176 0012 0134     		add	r4, r4, #1
 177              	.LVL21:
 178              	.L15:
  43:crc32.c       **** 		_crc = crc32_update(_crc, buf[i]);
 179              		.loc 1 43 0 is_stmt 0 discriminator 1
 180 0014 AC42     		cmp	r4, r5
 181 0016 F9D3     		bcc	.L16
  47:crc32.c       **** 
 182              		.loc 1 47 0 is_stmt 1
 183              		@ sp needed
 184              	.LVL22:
 185              	.LVL23:
 186              	.LVL24:
 187 0018 70BD     		pop	{r4, r5, r6, pc}
 188              		.cfi_endproc
 189              	.LFE1:
 190              		.size	crc32_calc_block, .-crc32_calc_block
 191 001a C046     		.section	.text.crc32_calc,"ax",%progbits
ARM GAS  C:\Users\Petro\AppData\Local\Temp\ccHVLRHc.s 			page 6


 192              		.align	2
 193              		.global	crc32_calc
 194              		.code	16
 195              		.thumb_func
 196              		.type	crc32_calc, %function
 197              	crc32_calc:
 198              	.LFB2:
  50:crc32.c       **** 	uint32_t _crc;
 199              		.loc 1 50 0
 200              		.cfi_startproc
 201              	.LVL25:
 202 0000 08B5     		push	{r3, lr}
 203              		.cfi_def_cfa_offset 8
 204              		.cfi_offset 3, -8
 205              		.cfi_offset 14, -4
 206              	.LVL26:
  54:crc32.c       **** 	return crc32_final(_crc);
 207              		.loc 1 54 0
 208 0002 0122     		mov	r2, #1
 209 0004 5242     		neg	r2, r2
 210 0006 FFF7FEFF 		bl	crc32_calc_block
 211              	.LVL27:
  55:crc32.c       **** }
 212              		.loc 1 55 0
 213 000a C043     		mvn	r0, r0
 214              	.LVL28:
  56:crc32.c       **** 
 215              		.loc 1 56 0
 216              		@ sp needed
 217 000c 08BD     		pop	{r3, pc}
 218              		.cfi_endproc
 219              	.LFE2:
 220              		.size	crc32_calc, .-crc32_calc
 221 000e C046     		.bss
 222              		.align	2
 223              		.set	.LANCHOR0,. + 0
 224              		.set	.LANCHOR1,. + 1024
 225              		.type	crc32_tab, %object
 226              		.size	crc32_tab, 1024
 227              	crc32_tab:
 228 0000 00000000 		.space	1024
 228      00000000 
 228      00000000 
 228      00000000 
 228      00000000 
 229              		.type	crc32_tab_init, %object
 230              		.size	crc32_tab_init, 4
 231              	crc32_tab_init:
 232 0400 00000000 		.space	4
 233              		.text
 234              	.Letext0:
 235              		.file 2 "c:\\program files (x86)\\cypress\\psoc creator\\4.0\\psoc creator\\import\\gnu\\arm\\4.9.
 236              		.file 3 "c:\\program files (x86)\\cypress\\psoc creator\\4.0\\psoc creator\\import\\gnu\\arm\\4.9.