ARM GAS  C:\Users\Petro\AppData\Local\Temp\cc1PwwXd.s 			page 1


   1              		.cpu cortex-m0
   2              		.fpu softvfp
   3              		.eabi_attribute 20, 1
   4              		.eabi_attribute 21, 1
   5              		.eabi_attribute 23, 3
   6              		.eabi_attribute 24, 1
   7              		.eabi_attribute 25, 1
   8              		.eabi_attribute 26, 1
   9              		.eabi_attribute 30, 6
  10              		.eabi_attribute 34, 0
  11              		.eabi_attribute 18, 4
  12              		.code	16
  13              		.file	"LCD.c"
  14              		.text
  15              	.Ltext0:
  16              		.cfi_sections	.debug_frame
  17              		.global	LCD_enableState
  18              		.bss
  19              		.type	LCD_enableState, %object
  20              		.size	LCD_enableState, 1
  21              	LCD_enableState:
  22 0000 00       		.space	1
  23              		.global	LCD_initVar
  24              		.type	LCD_initVar, %object
  25              		.size	LCD_initVar, 1
  26              	LCD_initVar:
  27 0001 00       		.space	1
  28              		.section	.text.LCD_Init,"ax",%progbits
  29              		.align	2
  30              		.global	LCD_Init
  31              		.code	16
  32              		.thumb_func
  33              		.type	LCD_Init, %function
  34              	LCD_Init:
  35              	.LFB2:
  36              		.file 1 "Generated_Source\\PSoC4\\LCD.c"
   1:Generated_Source\PSoC4/LCD.c **** /*******************************************************************************
   2:Generated_Source\PSoC4/LCD.c **** * File Name: LCD.c
   3:Generated_Source\PSoC4/LCD.c **** * Version 2.20
   4:Generated_Source\PSoC4/LCD.c **** *
   5:Generated_Source\PSoC4/LCD.c **** * Description:
   6:Generated_Source\PSoC4/LCD.c **** *  This file provides source code for the Character LCD component's API.
   7:Generated_Source\PSoC4/LCD.c **** *
   8:Generated_Source\PSoC4/LCD.c **** * Note:
   9:Generated_Source\PSoC4/LCD.c **** *
  10:Generated_Source\PSoC4/LCD.c **** ********************************************************************************
  11:Generated_Source\PSoC4/LCD.c **** * Copyright 2008-2014, Cypress Semiconductor Corporation.  All rights reserved.
  12:Generated_Source\PSoC4/LCD.c **** * You may use this file only in accordance with the license, terms, conditions,
  13:Generated_Source\PSoC4/LCD.c **** * disclaimers, and limitations in the end user license agreement accompanying
  14:Generated_Source\PSoC4/LCD.c **** * the software package with which this file was provided.
  15:Generated_Source\PSoC4/LCD.c **** *******************************************************************************/
  16:Generated_Source\PSoC4/LCD.c **** 
  17:Generated_Source\PSoC4/LCD.c **** #include "CyLib.h"
  18:Generated_Source\PSoC4/LCD.c **** #include "LCD.h"
  19:Generated_Source\PSoC4/LCD.c **** 
  20:Generated_Source\PSoC4/LCD.c **** 
  21:Generated_Source\PSoC4/LCD.c **** static void LCD_WrDatNib(uint8 nibble) ;
ARM GAS  C:\Users\Petro\AppData\Local\Temp\cc1PwwXd.s 			page 2


  22:Generated_Source\PSoC4/LCD.c **** static void LCD_WrCntrlNib(uint8 nibble) ;
  23:Generated_Source\PSoC4/LCD.c **** 
  24:Generated_Source\PSoC4/LCD.c **** /* Stores state of component. Indicates whether component is or not
  25:Generated_Source\PSoC4/LCD.c **** * in enable state.
  26:Generated_Source\PSoC4/LCD.c **** */
  27:Generated_Source\PSoC4/LCD.c **** uint8 LCD_enableState = 0u;
  28:Generated_Source\PSoC4/LCD.c **** 
  29:Generated_Source\PSoC4/LCD.c **** uint8 LCD_initVar = 0u;
  30:Generated_Source\PSoC4/LCD.c **** 
  31:Generated_Source\PSoC4/LCD.c **** 
  32:Generated_Source\PSoC4/LCD.c **** /*******************************************************************************
  33:Generated_Source\PSoC4/LCD.c **** * Function Name: LCD_Init
  34:Generated_Source\PSoC4/LCD.c **** ********************************************************************************
  35:Generated_Source\PSoC4/LCD.c **** *
  36:Generated_Source\PSoC4/LCD.c **** * Summary:
  37:Generated_Source\PSoC4/LCD.c **** *  Performs initialization required for the components normal work.
  38:Generated_Source\PSoC4/LCD.c **** *  This function initializes the LCD hardware module as follows:
  39:Generated_Source\PSoC4/LCD.c **** *        Enables a 4-bit interface
  40:Generated_Source\PSoC4/LCD.c **** *        Clears the display
  41:Generated_Source\PSoC4/LCD.c **** *        Enables the auto cursor increment
  42:Generated_Source\PSoC4/LCD.c **** *        Resets the cursor to start position
  43:Generated_Source\PSoC4/LCD.c **** *  Also, it loads a custom character set to the LCD if it was defined in the customizer.
  44:Generated_Source\PSoC4/LCD.c **** *
  45:Generated_Source\PSoC4/LCD.c **** * Parameters:
  46:Generated_Source\PSoC4/LCD.c **** *  None.
  47:Generated_Source\PSoC4/LCD.c **** *
  48:Generated_Source\PSoC4/LCD.c **** * Return:
  49:Generated_Source\PSoC4/LCD.c **** *  None.
  50:Generated_Source\PSoC4/LCD.c **** *
  51:Generated_Source\PSoC4/LCD.c **** * Reentrant:
  52:Generated_Source\PSoC4/LCD.c **** *  No.
  53:Generated_Source\PSoC4/LCD.c **** *
  54:Generated_Source\PSoC4/LCD.c **** *******************************************************************************/
  55:Generated_Source\PSoC4/LCD.c **** void LCD_Init(void) 
  56:Generated_Source\PSoC4/LCD.c **** {
  37              		.loc 1 56 0
  38              		.cfi_startproc
  39 0000 80B5     		push	{r7, lr}
  40              		.cfi_def_cfa_offset 8
  41              		.cfi_offset 7, -8
  42              		.cfi_offset 14, -4
  43 0002 00AF     		add	r7, sp, #0
  44              		.cfi_def_cfa_register 7
  57:Generated_Source\PSoC4/LCD.c ****     /* INIT CODE */
  58:Generated_Source\PSoC4/LCD.c ****     CyDelay(40u);                                                        /* Delay 40 ms */
  45              		.loc 1 58 0
  46 0004 2820     		mov	r0, #40
  47 0006 FFF7FEFF 		bl	CyDelay
  59:Generated_Source\PSoC4/LCD.c ****     LCD_WrCntrlNib(LCD_DISPLAY_8_BIT_INIT);    /* Selects 8-bit mode */
  48              		.loc 1 59 0
  49 000a 0320     		mov	r0, #3
  50 000c FFF7FEFF 		bl	LCD_WrCntrlNib
  60:Generated_Source\PSoC4/LCD.c ****     CyDelay(5u);                                                         /* Delay 5 ms */
  51              		.loc 1 60 0
  52 0010 0520     		mov	r0, #5
  53 0012 FFF7FEFF 		bl	CyDelay
  61:Generated_Source\PSoC4/LCD.c ****     LCD_WrCntrlNib(LCD_DISPLAY_8_BIT_INIT);    /* Selects 8-bit mode */
ARM GAS  C:\Users\Petro\AppData\Local\Temp\cc1PwwXd.s 			page 3


  54              		.loc 1 61 0
  55 0016 0320     		mov	r0, #3
  56 0018 FFF7FEFF 		bl	LCD_WrCntrlNib
  62:Generated_Source\PSoC4/LCD.c ****     CyDelay(15u);                                                        /* Delay 15 ms */
  57              		.loc 1 62 0
  58 001c 0F20     		mov	r0, #15
  59 001e FFF7FEFF 		bl	CyDelay
  63:Generated_Source\PSoC4/LCD.c ****     LCD_WrCntrlNib(LCD_DISPLAY_8_BIT_INIT);    /* Selects 8-bit mode */
  60              		.loc 1 63 0
  61 0022 0320     		mov	r0, #3
  62 0024 FFF7FEFF 		bl	LCD_WrCntrlNib
  64:Generated_Source\PSoC4/LCD.c ****     CyDelay(1u);                                                         /* Delay 1 ms */
  63              		.loc 1 64 0
  64 0028 0120     		mov	r0, #1
  65 002a FFF7FEFF 		bl	CyDelay
  65:Generated_Source\PSoC4/LCD.c ****     LCD_WrCntrlNib(LCD_DISPLAY_4_BIT_INIT);    /* Selects 4-bit mode */
  66              		.loc 1 65 0
  67 002e 0220     		mov	r0, #2
  68 0030 FFF7FEFF 		bl	LCD_WrCntrlNib
  66:Generated_Source\PSoC4/LCD.c ****     CyDelay(5u);                                                         /* Delay 5 ms */
  69              		.loc 1 66 0
  70 0034 0520     		mov	r0, #5
  71 0036 FFF7FEFF 		bl	CyDelay
  67:Generated_Source\PSoC4/LCD.c **** 
  68:Generated_Source\PSoC4/LCD.c ****     LCD_WriteControl(LCD_CURSOR_AUTO_INCR_ON);    /* Incr Cursor After Writes */
  72              		.loc 1 68 0
  73 003a 0620     		mov	r0, #6
  74 003c FFF7FEFF 		bl	LCD_WriteControl
  69:Generated_Source\PSoC4/LCD.c ****     LCD_WriteControl(LCD_DISPLAY_CURSOR_ON);      /* Turn Display, Cursor ON */
  75              		.loc 1 69 0
  76 0040 0E20     		mov	r0, #14
  77 0042 FFF7FEFF 		bl	LCD_WriteControl
  70:Generated_Source\PSoC4/LCD.c ****     LCD_WriteControl(LCD_DISPLAY_2_LINES_5x10);   /* 2 Lines by 5x10 Characters */
  78              		.loc 1 70 0
  79 0046 2C20     		mov	r0, #44
  80 0048 FFF7FEFF 		bl	LCD_WriteControl
  71:Generated_Source\PSoC4/LCD.c ****     LCD_WriteControl(LCD_DISPLAY_CURSOR_OFF);     /* Turn Display, Cursor OFF */
  81              		.loc 1 71 0
  82 004c 0820     		mov	r0, #8
  83 004e FFF7FEFF 		bl	LCD_WriteControl
  72:Generated_Source\PSoC4/LCD.c ****     LCD_WriteControl(LCD_CLEAR_DISPLAY);          /* Clear LCD Screen */
  84              		.loc 1 72 0
  85 0052 0120     		mov	r0, #1
  86 0054 FFF7FEFF 		bl	LCD_WriteControl
  73:Generated_Source\PSoC4/LCD.c ****     LCD_WriteControl(LCD_DISPLAY_ON_CURSOR_OFF);  /* Turn Display ON, Cursor OFF */
  87              		.loc 1 73 0
  88 0058 0C20     		mov	r0, #12
  89 005a FFF7FEFF 		bl	LCD_WriteControl
  74:Generated_Source\PSoC4/LCD.c ****     LCD_WriteControl(LCD_RESET_CURSOR_POSITION);  /* Set Cursor to 0,0 */
  90              		.loc 1 74 0
  91 005e 0320     		mov	r0, #3
  92 0060 FFF7FEFF 		bl	LCD_WriteControl
  75:Generated_Source\PSoC4/LCD.c ****     CyDelay(5u);
  93              		.loc 1 75 0
  94 0064 0520     		mov	r0, #5
  95 0066 FFF7FEFF 		bl	CyDelay
  76:Generated_Source\PSoC4/LCD.c **** 
ARM GAS  C:\Users\Petro\AppData\Local\Temp\cc1PwwXd.s 			page 4


  77:Generated_Source\PSoC4/LCD.c ****     #if(LCD_CUSTOM_CHAR_SET != LCD_NONE)
  78:Generated_Source\PSoC4/LCD.c ****         LCD_LoadCustomFonts(LCD_customFonts);
  96              		.loc 1 78 0
  97 006a 034B     		ldr	r3, .L2
  98 006c 181C     		mov	r0, r3
  99 006e FFF7FEFF 		bl	LCD_LoadCustomFonts
  79:Generated_Source\PSoC4/LCD.c ****     #endif /* LCD_CUSTOM_CHAR_SET != LCD_NONE */
  80:Generated_Source\PSoC4/LCD.c **** }
 100              		.loc 1 80 0
 101 0072 BD46     		mov	sp, r7
 102              		@ sp needed
 103 0074 80BD     		pop	{r7, pc}
 104              	.L3:
 105 0076 C046     		.align	2
 106              	.L2:
 107 0078 00000000 		.word	LCD_customFonts
 108              		.cfi_endproc
 109              	.LFE2:
 110              		.size	LCD_Init, .-LCD_Init
 111              		.section	.text.LCD_Enable,"ax",%progbits
 112              		.align	2
 113              		.global	LCD_Enable
 114              		.code	16
 115              		.thumb_func
 116              		.type	LCD_Enable, %function
 117              	LCD_Enable:
 118              	.LFB3:
  81:Generated_Source\PSoC4/LCD.c **** 
  82:Generated_Source\PSoC4/LCD.c **** 
  83:Generated_Source\PSoC4/LCD.c **** /*******************************************************************************
  84:Generated_Source\PSoC4/LCD.c **** * Function Name: LCD_Enable
  85:Generated_Source\PSoC4/LCD.c **** ********************************************************************************
  86:Generated_Source\PSoC4/LCD.c **** *
  87:Generated_Source\PSoC4/LCD.c **** * Summary:
  88:Generated_Source\PSoC4/LCD.c **** *  Turns on the display.
  89:Generated_Source\PSoC4/LCD.c **** *
  90:Generated_Source\PSoC4/LCD.c **** * Parameters:
  91:Generated_Source\PSoC4/LCD.c **** *  None.
  92:Generated_Source\PSoC4/LCD.c **** *
  93:Generated_Source\PSoC4/LCD.c **** * Return:
  94:Generated_Source\PSoC4/LCD.c **** *  None.
  95:Generated_Source\PSoC4/LCD.c **** *
  96:Generated_Source\PSoC4/LCD.c **** * Reentrant:
  97:Generated_Source\PSoC4/LCD.c **** *  No.
  98:Generated_Source\PSoC4/LCD.c **** *
  99:Generated_Source\PSoC4/LCD.c **** * Theory:
 100:Generated_Source\PSoC4/LCD.c **** *  This function has no effect when it is called the first time as
 101:Generated_Source\PSoC4/LCD.c **** *  LCD_Init() turns on the LCD.
 102:Generated_Source\PSoC4/LCD.c **** *
 103:Generated_Source\PSoC4/LCD.c **** *******************************************************************************/
 104:Generated_Source\PSoC4/LCD.c **** void LCD_Enable(void) 
 105:Generated_Source\PSoC4/LCD.c **** {
 119              		.loc 1 105 0
 120              		.cfi_startproc
 121 0000 80B5     		push	{r7, lr}
 122              		.cfi_def_cfa_offset 8
 123              		.cfi_offset 7, -8
ARM GAS  C:\Users\Petro\AppData\Local\Temp\cc1PwwXd.s 			page 5


 124              		.cfi_offset 14, -4
 125 0002 00AF     		add	r7, sp, #0
 126              		.cfi_def_cfa_register 7
 106:Generated_Source\PSoC4/LCD.c ****     LCD_DisplayOn();
 127              		.loc 1 106 0
 128 0004 0C20     		mov	r0, #12
 129 0006 FFF7FEFF 		bl	LCD_WriteControl
 107:Generated_Source\PSoC4/LCD.c ****     LCD_enableState = 1u;
 130              		.loc 1 107 0
 131 000a 024B     		ldr	r3, .L5
 132 000c 0122     		mov	r2, #1
 133 000e 1A70     		strb	r2, [r3]
 108:Generated_Source\PSoC4/LCD.c **** }
 134              		.loc 1 108 0
 135 0010 BD46     		mov	sp, r7
 136              		@ sp needed
 137 0012 80BD     		pop	{r7, pc}
 138              	.L6:
 139              		.align	2
 140              	.L5:
 141 0014 00000000 		.word	LCD_enableState
 142              		.cfi_endproc
 143              	.LFE3:
 144              		.size	LCD_Enable, .-LCD_Enable
 145              		.section	.text.LCD_Start,"ax",%progbits
 146              		.align	2
 147              		.global	LCD_Start
 148              		.code	16
 149              		.thumb_func
 150              		.type	LCD_Start, %function
 151              	LCD_Start:
 152              	.LFB4:
 109:Generated_Source\PSoC4/LCD.c **** 
 110:Generated_Source\PSoC4/LCD.c **** 
 111:Generated_Source\PSoC4/LCD.c **** /*******************************************************************************
 112:Generated_Source\PSoC4/LCD.c **** * Function Name: LCD_Start
 113:Generated_Source\PSoC4/LCD.c **** ********************************************************************************
 114:Generated_Source\PSoC4/LCD.c **** *
 115:Generated_Source\PSoC4/LCD.c **** * Summary:
 116:Generated_Source\PSoC4/LCD.c **** *  Performs initialization required for the components normal work.
 117:Generated_Source\PSoC4/LCD.c **** *  This function initializes the LCD hardware module as follows:
 118:Generated_Source\PSoC4/LCD.c **** *        Enables 4-bit interface
 119:Generated_Source\PSoC4/LCD.c **** *        Clears the display
 120:Generated_Source\PSoC4/LCD.c **** *        Enables auto cursor increment
 121:Generated_Source\PSoC4/LCD.c **** *        Resets the cursor to start position
 122:Generated_Source\PSoC4/LCD.c **** *  Also, it loads a custom character set to the LCD if it was defined in the customizer.
 123:Generated_Source\PSoC4/LCD.c **** *  If it was not the first call in this project, then it just turns on the
 124:Generated_Source\PSoC4/LCD.c **** *  display
 125:Generated_Source\PSoC4/LCD.c **** *
 126:Generated_Source\PSoC4/LCD.c **** *
 127:Generated_Source\PSoC4/LCD.c **** * Parameters:
 128:Generated_Source\PSoC4/LCD.c **** *  LCD_initVar - global variable.
 129:Generated_Source\PSoC4/LCD.c **** *
 130:Generated_Source\PSoC4/LCD.c **** * Return:
 131:Generated_Source\PSoC4/LCD.c **** *  LCD_initVar - global variable.
 132:Generated_Source\PSoC4/LCD.c **** *
 133:Generated_Source\PSoC4/LCD.c **** * Reentrant:
ARM GAS  C:\Users\Petro\AppData\Local\Temp\cc1PwwXd.s 			page 6


 134:Generated_Source\PSoC4/LCD.c **** *  No.
 135:Generated_Source\PSoC4/LCD.c **** *
 136:Generated_Source\PSoC4/LCD.c **** *******************************************************************************/
 137:Generated_Source\PSoC4/LCD.c **** void LCD_Start(void) 
 138:Generated_Source\PSoC4/LCD.c **** {
 153              		.loc 1 138 0
 154              		.cfi_startproc
 155 0000 80B5     		push	{r7, lr}
 156              		.cfi_def_cfa_offset 8
 157              		.cfi_offset 7, -8
 158              		.cfi_offset 14, -4
 159 0002 00AF     		add	r7, sp, #0
 160              		.cfi_def_cfa_register 7
 139:Generated_Source\PSoC4/LCD.c ****     /* If not initialized, perform initialization */
 140:Generated_Source\PSoC4/LCD.c ****     if(LCD_initVar == 0u)
 161              		.loc 1 140 0
 162 0004 064B     		ldr	r3, .L9
 163 0006 1B78     		ldrb	r3, [r3]
 164 0008 002B     		cmp	r3, #0
 165 000a 04D1     		bne	.L8
 141:Generated_Source\PSoC4/LCD.c ****     {
 142:Generated_Source\PSoC4/LCD.c ****         LCD_Init();
 166              		.loc 1 142 0
 167 000c FFF7FEFF 		bl	LCD_Init
 143:Generated_Source\PSoC4/LCD.c ****         LCD_initVar = 1u;
 168              		.loc 1 143 0
 169 0010 034B     		ldr	r3, .L9
 170 0012 0122     		mov	r2, #1
 171 0014 1A70     		strb	r2, [r3]
 172              	.L8:
 144:Generated_Source\PSoC4/LCD.c ****     }
 145:Generated_Source\PSoC4/LCD.c **** 
 146:Generated_Source\PSoC4/LCD.c ****     /* Turn on the LCD */
 147:Generated_Source\PSoC4/LCD.c ****     LCD_Enable();
 173              		.loc 1 147 0
 174 0016 FFF7FEFF 		bl	LCD_Enable
 148:Generated_Source\PSoC4/LCD.c **** }
 175              		.loc 1 148 0
 176 001a BD46     		mov	sp, r7
 177              		@ sp needed
 178 001c 80BD     		pop	{r7, pc}
 179              	.L10:
 180 001e C046     		.align	2
 181              	.L9:
 182 0020 00000000 		.word	LCD_initVar
 183              		.cfi_endproc
 184              	.LFE4:
 185              		.size	LCD_Start, .-LCD_Start
 186              		.section	.text.LCD_Stop,"ax",%progbits
 187              		.align	2
 188              		.global	LCD_Stop
 189              		.code	16
 190              		.thumb_func
 191              		.type	LCD_Stop, %function
 192              	LCD_Stop:
 193              	.LFB5:
 149:Generated_Source\PSoC4/LCD.c **** 
ARM GAS  C:\Users\Petro\AppData\Local\Temp\cc1PwwXd.s 			page 7


 150:Generated_Source\PSoC4/LCD.c **** 
 151:Generated_Source\PSoC4/LCD.c **** /*******************************************************************************
 152:Generated_Source\PSoC4/LCD.c **** * Function Name: LCD_Stop
 153:Generated_Source\PSoC4/LCD.c **** ********************************************************************************
 154:Generated_Source\PSoC4/LCD.c **** *
 155:Generated_Source\PSoC4/LCD.c **** * Summary:
 156:Generated_Source\PSoC4/LCD.c **** *  Turns off the display of the LCD screen.
 157:Generated_Source\PSoC4/LCD.c **** *
 158:Generated_Source\PSoC4/LCD.c **** * Parameters:
 159:Generated_Source\PSoC4/LCD.c **** *  None.
 160:Generated_Source\PSoC4/LCD.c **** *
 161:Generated_Source\PSoC4/LCD.c **** * Return:
 162:Generated_Source\PSoC4/LCD.c **** *  None.
 163:Generated_Source\PSoC4/LCD.c **** *
 164:Generated_Source\PSoC4/LCD.c **** * Reentrant:
 165:Generated_Source\PSoC4/LCD.c **** *  No.
 166:Generated_Source\PSoC4/LCD.c **** *
 167:Generated_Source\PSoC4/LCD.c **** *******************************************************************************/
 168:Generated_Source\PSoC4/LCD.c **** void LCD_Stop(void) 
 169:Generated_Source\PSoC4/LCD.c **** {
 194              		.loc 1 169 0
 195              		.cfi_startproc
 196 0000 80B5     		push	{r7, lr}
 197              		.cfi_def_cfa_offset 8
 198              		.cfi_offset 7, -8
 199              		.cfi_offset 14, -4
 200 0002 00AF     		add	r7, sp, #0
 201              		.cfi_def_cfa_register 7
 170:Generated_Source\PSoC4/LCD.c ****     /* Calls LCD Off Macro */
 171:Generated_Source\PSoC4/LCD.c ****     LCD_DisplayOff();
 202              		.loc 1 171 0
 203 0004 0820     		mov	r0, #8
 204 0006 FFF7FEFF 		bl	LCD_WriteControl
 172:Generated_Source\PSoC4/LCD.c ****     LCD_enableState = 0u;
 205              		.loc 1 172 0
 206 000a 024B     		ldr	r3, .L12
 207 000c 0022     		mov	r2, #0
 208 000e 1A70     		strb	r2, [r3]
 173:Generated_Source\PSoC4/LCD.c **** }
 209              		.loc 1 173 0
 210 0010 BD46     		mov	sp, r7
 211              		@ sp needed
 212 0012 80BD     		pop	{r7, pc}
 213              	.L13:
 214              		.align	2
 215              	.L12:
 216 0014 00000000 		.word	LCD_enableState
 217              		.cfi_endproc
 218              	.LFE5:
 219              		.size	LCD_Stop, .-LCD_Stop
 220              		.section	.text.LCD_Position,"ax",%progbits
 221              		.align	2
 222              		.global	LCD_Position
 223              		.code	16
 224              		.thumb_func
 225              		.type	LCD_Position, %function
 226              	LCD_Position:
ARM GAS  C:\Users\Petro\AppData\Local\Temp\cc1PwwXd.s 			page 8


 227              	.LFB6:
 174:Generated_Source\PSoC4/LCD.c **** 
 175:Generated_Source\PSoC4/LCD.c **** 
 176:Generated_Source\PSoC4/LCD.c **** /*******************************************************************************
 177:Generated_Source\PSoC4/LCD.c **** *  Function Name: LCD_Position
 178:Generated_Source\PSoC4/LCD.c **** ********************************************************************************
 179:Generated_Source\PSoC4/LCD.c **** *
 180:Generated_Source\PSoC4/LCD.c **** * Summary:
 181:Generated_Source\PSoC4/LCD.c **** *  Moves the active cursor location to a point specified by the input arguments
 182:Generated_Source\PSoC4/LCD.c **** *
 183:Generated_Source\PSoC4/LCD.c **** * Parameters:
 184:Generated_Source\PSoC4/LCD.c **** *  row:    Specific row of LCD module to be written
 185:Generated_Source\PSoC4/LCD.c **** *  column: Column of LCD module to be written
 186:Generated_Source\PSoC4/LCD.c **** *
 187:Generated_Source\PSoC4/LCD.c **** * Return:
 188:Generated_Source\PSoC4/LCD.c **** *  None.
 189:Generated_Source\PSoC4/LCD.c **** *
 190:Generated_Source\PSoC4/LCD.c **** * Note:
 191:Generated_Source\PSoC4/LCD.c **** *  This only applies for LCD displays that use the 2X40 address mode.
 192:Generated_Source\PSoC4/LCD.c **** *  In this case Row 2 starts with a 0x28 offset from Row 1.
 193:Generated_Source\PSoC4/LCD.c **** *  When there are more than 2 rows, each row must be fewer than 20 characters.
 194:Generated_Source\PSoC4/LCD.c **** *
 195:Generated_Source\PSoC4/LCD.c **** *******************************************************************************/
 196:Generated_Source\PSoC4/LCD.c **** void LCD_Position(uint8 row, uint8 column) 
 197:Generated_Source\PSoC4/LCD.c **** {
 228              		.loc 1 197 0
 229              		.cfi_startproc
 230 0000 80B5     		push	{r7, lr}
 231              		.cfi_def_cfa_offset 8
 232              		.cfi_offset 7, -8
 233              		.cfi_offset 14, -4
 234 0002 82B0     		sub	sp, sp, #8
 235              		.cfi_def_cfa_offset 16
 236 0004 00AF     		add	r7, sp, #0
 237              		.cfi_def_cfa_register 7
 238 0006 021C     		mov	r2, r0
 239 0008 FB1D     		add	r3, r7, #7
 240 000a 1A70     		strb	r2, [r3]
 241 000c BB1D     		add	r3, r7, #6
 242 000e 0A1C     		add	r2, r1, #0
 243 0010 1A70     		strb	r2, [r3]
 198:Generated_Source\PSoC4/LCD.c ****     switch (row)
 244              		.loc 1 198 0
 245 0012 FB1D     		add	r3, r7, #7
 246 0014 1B78     		ldrb	r3, [r3]
 247 0016 012B     		cmp	r3, #1
 248 0018 10D0     		beq	.L16
 249 001a 02DC     		bgt	.L17
 250 001c 002B     		cmp	r3, #0
 251 001e 05D0     		beq	.L18
 199:Generated_Source\PSoC4/LCD.c ****     {
 200:Generated_Source\PSoC4/LCD.c ****         case (uint8)0:
 201:Generated_Source\PSoC4/LCD.c ****             LCD_WriteControl(LCD_ROW_0_START + column);
 202:Generated_Source\PSoC4/LCD.c ****             break;
 203:Generated_Source\PSoC4/LCD.c ****         case (uint8) 1:
 204:Generated_Source\PSoC4/LCD.c ****             LCD_WriteControl(LCD_ROW_1_START + column);
 205:Generated_Source\PSoC4/LCD.c ****             break;
ARM GAS  C:\Users\Petro\AppData\Local\Temp\cc1PwwXd.s 			page 9


 206:Generated_Source\PSoC4/LCD.c ****         case (uint8) 2:
 207:Generated_Source\PSoC4/LCD.c ****             LCD_WriteControl(LCD_ROW_2_START + column);
 208:Generated_Source\PSoC4/LCD.c ****             break;
 209:Generated_Source\PSoC4/LCD.c ****         case (uint8) 3:
 210:Generated_Source\PSoC4/LCD.c ****             LCD_WriteControl(LCD_ROW_3_START + column);
 211:Generated_Source\PSoC4/LCD.c ****             break;
 212:Generated_Source\PSoC4/LCD.c ****         default:
 213:Generated_Source\PSoC4/LCD.c ****             /* if default case is hit, invalid row argument was passed.*/
 214:Generated_Source\PSoC4/LCD.c ****             break;
 252              		.loc 1 214 0
 253 0020 24E0     		b	.L14
 254              	.L17:
 198:Generated_Source\PSoC4/LCD.c ****     switch (row)
 255              		.loc 1 198 0
 256 0022 022B     		cmp	r3, #2
 257 0024 12D0     		beq	.L19
 258 0026 032B     		cmp	r3, #3
 259 0028 18D0     		beq	.L20
 260              		.loc 1 214 0
 261 002a 1FE0     		b	.L14
 262              	.L18:
 201:Generated_Source\PSoC4/LCD.c ****             break;
 263              		.loc 1 201 0
 264 002c BB1D     		add	r3, r7, #6
 265 002e 1B78     		ldrb	r3, [r3]
 266 0030 803B     		sub	r3, r3, #128
 267 0032 DBB2     		uxtb	r3, r3
 268 0034 181C     		mov	r0, r3
 269 0036 FFF7FEFF 		bl	LCD_WriteControl
 202:Generated_Source\PSoC4/LCD.c ****         case (uint8) 1:
 270              		.loc 1 202 0
 271 003a 17E0     		b	.L14
 272              	.L16:
 204:Generated_Source\PSoC4/LCD.c ****             break;
 273              		.loc 1 204 0
 274 003c BB1D     		add	r3, r7, #6
 275 003e 1B78     		ldrb	r3, [r3]
 276 0040 403B     		sub	r3, r3, #64
 277 0042 DBB2     		uxtb	r3, r3
 278 0044 181C     		mov	r0, r3
 279 0046 FFF7FEFF 		bl	LCD_WriteControl
 205:Generated_Source\PSoC4/LCD.c ****         case (uint8) 2:
 280              		.loc 1 205 0
 281 004a 0FE0     		b	.L14
 282              	.L19:
 207:Generated_Source\PSoC4/LCD.c ****             break;
 283              		.loc 1 207 0
 284 004c BB1D     		add	r3, r7, #6
 285 004e 1B78     		ldrb	r3, [r3]
 286 0050 6C3B     		sub	r3, r3, #108
 287 0052 DBB2     		uxtb	r3, r3
 288 0054 181C     		mov	r0, r3
 289 0056 FFF7FEFF 		bl	LCD_WriteControl
 208:Generated_Source\PSoC4/LCD.c ****         case (uint8) 3:
 290              		.loc 1 208 0
 291 005a 07E0     		b	.L14
 292              	.L20:
ARM GAS  C:\Users\Petro\AppData\Local\Temp\cc1PwwXd.s 			page 10


 210:Generated_Source\PSoC4/LCD.c ****             break;
 293              		.loc 1 210 0
 294 005c BB1D     		add	r3, r7, #6
 295 005e 1B78     		ldrb	r3, [r3]
 296 0060 2C3B     		sub	r3, r3, #44
 297 0062 DBB2     		uxtb	r3, r3
 298 0064 181C     		mov	r0, r3
 299 0066 FFF7FEFF 		bl	LCD_WriteControl
 211:Generated_Source\PSoC4/LCD.c ****         default:
 300              		.loc 1 211 0
 301 006a C046     		mov	r8, r8
 302              	.L14:
 215:Generated_Source\PSoC4/LCD.c ****     }
 216:Generated_Source\PSoC4/LCD.c **** }
 303              		.loc 1 216 0
 304 006c BD46     		mov	sp, r7
 305 006e 02B0     		add	sp, sp, #8
 306              		@ sp needed
 307 0070 80BD     		pop	{r7, pc}
 308              		.cfi_endproc
 309              	.LFE6:
 310              		.size	LCD_Position, .-LCD_Position
 311 0072 C046     		.section	.text.LCD_PrintString,"ax",%progbits
 312              		.align	2
 313              		.global	LCD_PrintString
 314              		.code	16
 315              		.thumb_func
 316              		.type	LCD_PrintString, %function
 317              	LCD_PrintString:
 318              	.LFB7:
 217:Generated_Source\PSoC4/LCD.c **** 
 218:Generated_Source\PSoC4/LCD.c **** 
 219:Generated_Source\PSoC4/LCD.c **** /*******************************************************************************
 220:Generated_Source\PSoC4/LCD.c **** * Function Name: LCD_PrintString
 221:Generated_Source\PSoC4/LCD.c **** ********************************************************************************
 222:Generated_Source\PSoC4/LCD.c **** *
 223:Generated_Source\PSoC4/LCD.c **** * Summary:
 224:Generated_Source\PSoC4/LCD.c **** *  Writes a zero terminated string to the LCD.
 225:Generated_Source\PSoC4/LCD.c **** *
 226:Generated_Source\PSoC4/LCD.c **** * Parameters:
 227:Generated_Source\PSoC4/LCD.c **** *  string: Pointer to head of char8 array to be written to the LCD module
 228:Generated_Source\PSoC4/LCD.c **** *
 229:Generated_Source\PSoC4/LCD.c **** * Return:
 230:Generated_Source\PSoC4/LCD.c **** *  None.
 231:Generated_Source\PSoC4/LCD.c **** *
 232:Generated_Source\PSoC4/LCD.c **** *******************************************************************************/
 233:Generated_Source\PSoC4/LCD.c **** void LCD_PrintString(char8 const string[]) 
 234:Generated_Source\PSoC4/LCD.c **** {
 319              		.loc 1 234 0
 320              		.cfi_startproc
 321 0000 80B5     		push	{r7, lr}
 322              		.cfi_def_cfa_offset 8
 323              		.cfi_offset 7, -8
 324              		.cfi_offset 14, -4
 325 0002 84B0     		sub	sp, sp, #16
 326              		.cfi_def_cfa_offset 24
 327 0004 00AF     		add	r7, sp, #0
ARM GAS  C:\Users\Petro\AppData\Local\Temp\cc1PwwXd.s 			page 11


 328              		.cfi_def_cfa_register 7
 329 0006 7860     		str	r0, [r7, #4]
 235:Generated_Source\PSoC4/LCD.c ****     uint8 indexU8 = 1u;
 330              		.loc 1 235 0
 331 0008 0F23     		mov	r3, #15
 332 000a FB18     		add	r3, r7, r3
 333 000c 0122     		mov	r2, #1
 334 000e 1A70     		strb	r2, [r3]
 236:Generated_Source\PSoC4/LCD.c ****     char8 current = *string;
 335              		.loc 1 236 0
 336 0010 0E23     		mov	r3, #14
 337 0012 FB18     		add	r3, r7, r3
 338 0014 7A68     		ldr	r2, [r7, #4]
 339 0016 1278     		ldrb	r2, [r2]
 340 0018 1A70     		strb	r2, [r3]
 237:Generated_Source\PSoC4/LCD.c **** 
 238:Generated_Source\PSoC4/LCD.c ****     /* Until null is reached, print next character */
 239:Generated_Source\PSoC4/LCD.c ****     while((char8) '\0' != current)
 341              		.loc 1 239 0
 342 001a 15E0     		b	.L23
 343              	.L24:
 240:Generated_Source\PSoC4/LCD.c ****     {
 241:Generated_Source\PSoC4/LCD.c ****         LCD_WriteData((uint8)current);
 344              		.loc 1 241 0
 345 001c 0E23     		mov	r3, #14
 346 001e FB18     		add	r3, r7, r3
 347 0020 1B78     		ldrb	r3, [r3]
 348 0022 181C     		mov	r0, r3
 349 0024 FFF7FEFF 		bl	LCD_WriteData
 242:Generated_Source\PSoC4/LCD.c ****         current = string[indexU8];
 350              		.loc 1 242 0
 351 0028 0F23     		mov	r3, #15
 352 002a FB18     		add	r3, r7, r3
 353 002c 1B78     		ldrb	r3, [r3]
 354 002e 7A68     		ldr	r2, [r7, #4]
 355 0030 D218     		add	r2, r2, r3
 356 0032 0E23     		mov	r3, #14
 357 0034 FB18     		add	r3, r7, r3
 358 0036 1278     		ldrb	r2, [r2]
 359 0038 1A70     		strb	r2, [r3]
 243:Generated_Source\PSoC4/LCD.c ****         indexU8++;
 360              		.loc 1 243 0
 361 003a 0F23     		mov	r3, #15
 362 003c FB18     		add	r3, r7, r3
 363 003e 1A78     		ldrb	r2, [r3]
 364 0040 0F23     		mov	r3, #15
 365 0042 FB18     		add	r3, r7, r3
 366 0044 0132     		add	r2, r2, #1
 367 0046 1A70     		strb	r2, [r3]
 368              	.L23:
 239:Generated_Source\PSoC4/LCD.c ****     {
 369              		.loc 1 239 0
 370 0048 0E23     		mov	r3, #14
 371 004a FB18     		add	r3, r7, r3
 372 004c 1B78     		ldrb	r3, [r3]
 373 004e 002B     		cmp	r3, #0
 374 0050 E4D1     		bne	.L24
ARM GAS  C:\Users\Petro\AppData\Local\Temp\cc1PwwXd.s 			page 12


 244:Generated_Source\PSoC4/LCD.c ****     }
 245:Generated_Source\PSoC4/LCD.c **** }
 375              		.loc 1 245 0
 376 0052 BD46     		mov	sp, r7
 377 0054 04B0     		add	sp, sp, #16
 378              		@ sp needed
 379 0056 80BD     		pop	{r7, pc}
 380              		.cfi_endproc
 381              	.LFE7:
 382              		.size	LCD_PrintString, .-LCD_PrintString
 383              		.section	.text.LCD_PutChar,"ax",%progbits
 384              		.align	2
 385              		.global	LCD_PutChar
 386              		.code	16
 387              		.thumb_func
 388              		.type	LCD_PutChar, %function
 389              	LCD_PutChar:
 390              	.LFB8:
 246:Generated_Source\PSoC4/LCD.c **** 
 247:Generated_Source\PSoC4/LCD.c **** 
 248:Generated_Source\PSoC4/LCD.c **** /*******************************************************************************
 249:Generated_Source\PSoC4/LCD.c **** *  Function Name: LCD_PutChar
 250:Generated_Source\PSoC4/LCD.c **** ********************************************************************************
 251:Generated_Source\PSoC4/LCD.c **** *
 252:Generated_Source\PSoC4/LCD.c **** * Summary:
 253:Generated_Source\PSoC4/LCD.c **** *  Writes a single character to the current cursor position of the LCD module.
 254:Generated_Source\PSoC4/LCD.c **** *  Custom character names (_CUSTOM_0 through
 255:Generated_Source\PSoC4/LCD.c **** *  _CUSTOM_7) are acceptable as inputs.
 256:Generated_Source\PSoC4/LCD.c **** *
 257:Generated_Source\PSoC4/LCD.c **** * Parameters:
 258:Generated_Source\PSoC4/LCD.c **** *  character: Character to be written to LCD
 259:Generated_Source\PSoC4/LCD.c **** *
 260:Generated_Source\PSoC4/LCD.c **** * Return:
 261:Generated_Source\PSoC4/LCD.c **** *  None.
 262:Generated_Source\PSoC4/LCD.c **** *
 263:Generated_Source\PSoC4/LCD.c **** *******************************************************************************/
 264:Generated_Source\PSoC4/LCD.c **** void LCD_PutChar(char8 character) 
 265:Generated_Source\PSoC4/LCD.c **** {
 391              		.loc 1 265 0
 392              		.cfi_startproc
 393 0000 80B5     		push	{r7, lr}
 394              		.cfi_def_cfa_offset 8
 395              		.cfi_offset 7, -8
 396              		.cfi_offset 14, -4
 397 0002 82B0     		sub	sp, sp, #8
 398              		.cfi_def_cfa_offset 16
 399 0004 00AF     		add	r7, sp, #0
 400              		.cfi_def_cfa_register 7
 401 0006 021C     		mov	r2, r0
 402 0008 FB1D     		add	r3, r7, #7
 403 000a 1A70     		strb	r2, [r3]
 266:Generated_Source\PSoC4/LCD.c ****     LCD_WriteData((uint8)character);
 404              		.loc 1 266 0
 405 000c FB1D     		add	r3, r7, #7
 406 000e 1B78     		ldrb	r3, [r3]
 407 0010 181C     		mov	r0, r3
 408 0012 FFF7FEFF 		bl	LCD_WriteData
ARM GAS  C:\Users\Petro\AppData\Local\Temp\cc1PwwXd.s 			page 13


 267:Generated_Source\PSoC4/LCD.c **** }
 409              		.loc 1 267 0
 410 0016 BD46     		mov	sp, r7
 411 0018 02B0     		add	sp, sp, #8
 412              		@ sp needed
 413 001a 80BD     		pop	{r7, pc}
 414              		.cfi_endproc
 415              	.LFE8:
 416              		.size	LCD_PutChar, .-LCD_PutChar
 417              		.section	.text.LCD_WriteData,"ax",%progbits
 418              		.align	2
 419              		.global	LCD_WriteData
 420              		.code	16
 421              		.thumb_func
 422              		.type	LCD_WriteData, %function
 423              	LCD_WriteData:
 424              	.LFB9:
 268:Generated_Source\PSoC4/LCD.c **** 
 269:Generated_Source\PSoC4/LCD.c **** 
 270:Generated_Source\PSoC4/LCD.c **** /*******************************************************************************
 271:Generated_Source\PSoC4/LCD.c **** *  Function Name: LCD_WriteData
 272:Generated_Source\PSoC4/LCD.c **** ********************************************************************************
 273:Generated_Source\PSoC4/LCD.c **** *
 274:Generated_Source\PSoC4/LCD.c **** * Summary:
 275:Generated_Source\PSoC4/LCD.c **** *  Writes a data byte to the LCD module's Data Display RAM.
 276:Generated_Source\PSoC4/LCD.c **** *
 277:Generated_Source\PSoC4/LCD.c **** * Parameters:
 278:Generated_Source\PSoC4/LCD.c **** *  dByte: Byte to be written to the LCD module
 279:Generated_Source\PSoC4/LCD.c **** *
 280:Generated_Source\PSoC4/LCD.c **** * Return:
 281:Generated_Source\PSoC4/LCD.c **** *  None.
 282:Generated_Source\PSoC4/LCD.c **** *
 283:Generated_Source\PSoC4/LCD.c **** *******************************************************************************/
 284:Generated_Source\PSoC4/LCD.c **** void LCD_WriteData(uint8 dByte) 
 285:Generated_Source\PSoC4/LCD.c **** {
 425              		.loc 1 285 0
 426              		.cfi_startproc
 427 0000 80B5     		push	{r7, lr}
 428              		.cfi_def_cfa_offset 8
 429              		.cfi_offset 7, -8
 430              		.cfi_offset 14, -4
 431 0002 84B0     		sub	sp, sp, #16
 432              		.cfi_def_cfa_offset 24
 433 0004 00AF     		add	r7, sp, #0
 434              		.cfi_def_cfa_register 7
 435 0006 021C     		mov	r2, r0
 436 0008 FB1D     		add	r3, r7, #7
 437 000a 1A70     		strb	r2, [r3]
 286:Generated_Source\PSoC4/LCD.c ****     uint8 nibble;
 287:Generated_Source\PSoC4/LCD.c **** 
 288:Generated_Source\PSoC4/LCD.c ****     LCD_IsReady();
 438              		.loc 1 288 0
 439 000c FFF7FEFF 		bl	LCD_IsReady
 289:Generated_Source\PSoC4/LCD.c ****     nibble = dByte >> LCD_NIBBLE_SHIFT;
 440              		.loc 1 289 0
 441 0010 0F23     		mov	r3, #15
 442 0012 FB18     		add	r3, r7, r3
ARM GAS  C:\Users\Petro\AppData\Local\Temp\cc1PwwXd.s 			page 14


 443 0014 FA1D     		add	r2, r7, #7
 444 0016 1278     		ldrb	r2, [r2]
 445 0018 1209     		lsr	r2, r2, #4
 446 001a 1A70     		strb	r2, [r3]
 290:Generated_Source\PSoC4/LCD.c **** 
 291:Generated_Source\PSoC4/LCD.c ****     /* Write high nibble */
 292:Generated_Source\PSoC4/LCD.c ****     LCD_WrDatNib(nibble);
 447              		.loc 1 292 0
 448 001c 0F23     		mov	r3, #15
 449 001e FB18     		add	r3, r7, r3
 450 0020 1B78     		ldrb	r3, [r3]
 451 0022 181C     		mov	r0, r3
 452 0024 FFF7FEFF 		bl	LCD_WrDatNib
 293:Generated_Source\PSoC4/LCD.c **** 
 294:Generated_Source\PSoC4/LCD.c ****     nibble = dByte & LCD_NIBBLE_MASK;
 453              		.loc 1 294 0
 454 0028 0F23     		mov	r3, #15
 455 002a FB18     		add	r3, r7, r3
 456 002c FA1D     		add	r2, r7, #7
 457 002e 1278     		ldrb	r2, [r2]
 458 0030 0F21     		mov	r1, #15
 459 0032 0A40     		and	r2, r1
 460 0034 1A70     		strb	r2, [r3]
 295:Generated_Source\PSoC4/LCD.c ****     /* Write low nibble */
 296:Generated_Source\PSoC4/LCD.c ****     LCD_WrDatNib(nibble);
 461              		.loc 1 296 0
 462 0036 0F23     		mov	r3, #15
 463 0038 FB18     		add	r3, r7, r3
 464 003a 1B78     		ldrb	r3, [r3]
 465 003c 181C     		mov	r0, r3
 466 003e FFF7FEFF 		bl	LCD_WrDatNib
 297:Generated_Source\PSoC4/LCD.c **** }
 467              		.loc 1 297 0
 468 0042 BD46     		mov	sp, r7
 469 0044 04B0     		add	sp, sp, #16
 470              		@ sp needed
 471 0046 80BD     		pop	{r7, pc}
 472              		.cfi_endproc
 473              	.LFE9:
 474              		.size	LCD_WriteData, .-LCD_WriteData
 475              		.section	.text.LCD_WriteControl,"ax",%progbits
 476              		.align	2
 477              		.global	LCD_WriteControl
 478              		.code	16
 479              		.thumb_func
 480              		.type	LCD_WriteControl, %function
 481              	LCD_WriteControl:
 482              	.LFB10:
 298:Generated_Source\PSoC4/LCD.c **** 
 299:Generated_Source\PSoC4/LCD.c **** 
 300:Generated_Source\PSoC4/LCD.c **** /*******************************************************************************
 301:Generated_Source\PSoC4/LCD.c **** *  Function Name: LCD_WriteControl
 302:Generated_Source\PSoC4/LCD.c **** ********************************************************************************
 303:Generated_Source\PSoC4/LCD.c **** *
 304:Generated_Source\PSoC4/LCD.c **** * Summary:
 305:Generated_Source\PSoC4/LCD.c **** *  Writes a command byte to the LCD module.
 306:Generated_Source\PSoC4/LCD.c **** *
ARM GAS  C:\Users\Petro\AppData\Local\Temp\cc1PwwXd.s 			page 15


 307:Generated_Source\PSoC4/LCD.c **** * Parameters:
 308:Generated_Source\PSoC4/LCD.c **** *  cByte:  The byte to be written to theLCD module
 309:Generated_Source\PSoC4/LCD.c **** * 
 310:Generated_Source\PSoC4/LCD.c **** * Return:
 311:Generated_Source\PSoC4/LCD.c **** *  None.
 312:Generated_Source\PSoC4/LCD.c **** *
 313:Generated_Source\PSoC4/LCD.c **** *******************************************************************************/
 314:Generated_Source\PSoC4/LCD.c **** void LCD_WriteControl(uint8 cByte) 
 315:Generated_Source\PSoC4/LCD.c **** {
 483              		.loc 1 315 0
 484              		.cfi_startproc
 485 0000 80B5     		push	{r7, lr}
 486              		.cfi_def_cfa_offset 8
 487              		.cfi_offset 7, -8
 488              		.cfi_offset 14, -4
 489 0002 84B0     		sub	sp, sp, #16
 490              		.cfi_def_cfa_offset 24
 491 0004 00AF     		add	r7, sp, #0
 492              		.cfi_def_cfa_register 7
 493 0006 021C     		mov	r2, r0
 494 0008 FB1D     		add	r3, r7, #7
 495 000a 1A70     		strb	r2, [r3]
 316:Generated_Source\PSoC4/LCD.c ****     uint8 nibble;
 317:Generated_Source\PSoC4/LCD.c **** 
 318:Generated_Source\PSoC4/LCD.c ****     LCD_IsReady();
 496              		.loc 1 318 0
 497 000c FFF7FEFF 		bl	LCD_IsReady
 319:Generated_Source\PSoC4/LCD.c **** 
 320:Generated_Source\PSoC4/LCD.c ****     nibble = cByte >> LCD_NIBBLE_SHIFT;
 498              		.loc 1 320 0
 499 0010 0F23     		mov	r3, #15
 500 0012 FB18     		add	r3, r7, r3
 501 0014 FA1D     		add	r2, r7, #7
 502 0016 1278     		ldrb	r2, [r2]
 503 0018 1209     		lsr	r2, r2, #4
 504 001a 1A70     		strb	r2, [r3]
 321:Generated_Source\PSoC4/LCD.c ****     
 322:Generated_Source\PSoC4/LCD.c ****     /* WrCntrlNib(High Nibble) */
 323:Generated_Source\PSoC4/LCD.c ****     LCD_WrCntrlNib(nibble);
 505              		.loc 1 323 0
 506 001c 0F23     		mov	r3, #15
 507 001e FB18     		add	r3, r7, r3
 508 0020 1B78     		ldrb	r3, [r3]
 509 0022 181C     		mov	r0, r3
 510 0024 FFF7FEFF 		bl	LCD_WrCntrlNib
 324:Generated_Source\PSoC4/LCD.c ****     nibble = cByte & LCD_NIBBLE_MASK;
 511              		.loc 1 324 0
 512 0028 0F23     		mov	r3, #15
 513 002a FB18     		add	r3, r7, r3
 514 002c FA1D     		add	r2, r7, #7
 515 002e 1278     		ldrb	r2, [r2]
 516 0030 0F21     		mov	r1, #15
 517 0032 0A40     		and	r2, r1
 518 0034 1A70     		strb	r2, [r3]
 325:Generated_Source\PSoC4/LCD.c **** 
 326:Generated_Source\PSoC4/LCD.c ****     /* WrCntrlNib(Low Nibble) */
 327:Generated_Source\PSoC4/LCD.c ****     LCD_WrCntrlNib(nibble);
ARM GAS  C:\Users\Petro\AppData\Local\Temp\cc1PwwXd.s 			page 16


 519              		.loc 1 327 0
 520 0036 0F23     		mov	r3, #15
 521 0038 FB18     		add	r3, r7, r3
 522 003a 1B78     		ldrb	r3, [r3]
 523 003c 181C     		mov	r0, r3
 524 003e FFF7FEFF 		bl	LCD_WrCntrlNib
 328:Generated_Source\PSoC4/LCD.c **** }
 525              		.loc 1 328 0
 526 0042 BD46     		mov	sp, r7
 527 0044 04B0     		add	sp, sp, #16
 528              		@ sp needed
 529 0046 80BD     		pop	{r7, pc}
 530              		.cfi_endproc
 531              	.LFE10:
 532              		.size	LCD_WriteControl, .-LCD_WriteControl
 533              		.section	.text.LCD_IsReady,"ax",%progbits
 534              		.align	2
 535              		.global	LCD_IsReady
 536              		.code	16
 537              		.thumb_func
 538              		.type	LCD_IsReady, %function
 539              	LCD_IsReady:
 540              	.LFB11:
 329:Generated_Source\PSoC4/LCD.c **** 
 330:Generated_Source\PSoC4/LCD.c **** 
 331:Generated_Source\PSoC4/LCD.c **** /*******************************************************************************
 332:Generated_Source\PSoC4/LCD.c **** * Function Name: LCD_IsReady
 333:Generated_Source\PSoC4/LCD.c **** ********************************************************************************
 334:Generated_Source\PSoC4/LCD.c **** *
 335:Generated_Source\PSoC4/LCD.c **** * Summary:
 336:Generated_Source\PSoC4/LCD.c **** *  Polls the LCD until the ready bit is set or a timeout occurs.
 337:Generated_Source\PSoC4/LCD.c **** *
 338:Generated_Source\PSoC4/LCD.c **** * Parameters:
 339:Generated_Source\PSoC4/LCD.c **** *  None.
 340:Generated_Source\PSoC4/LCD.c **** *
 341:Generated_Source\PSoC4/LCD.c **** * Return:
 342:Generated_Source\PSoC4/LCD.c **** *  None.
 343:Generated_Source\PSoC4/LCD.c **** *
 344:Generated_Source\PSoC4/LCD.c **** * Note:
 345:Generated_Source\PSoC4/LCD.c **** *  Changes the pins to High-Z.
 346:Generated_Source\PSoC4/LCD.c **** *
 347:Generated_Source\PSoC4/LCD.c **** *******************************************************************************/
 348:Generated_Source\PSoC4/LCD.c **** void LCD_IsReady(void) 
 349:Generated_Source\PSoC4/LCD.c **** {
 541              		.loc 1 349 0
 542              		.cfi_startproc
 543 0000 80B5     		push	{r7, lr}
 544              		.cfi_def_cfa_offset 8
 545              		.cfi_offset 7, -8
 546              		.cfi_offset 14, -4
 547 0002 82B0     		sub	sp, sp, #8
 548              		.cfi_def_cfa_offset 16
 549 0004 00AF     		add	r7, sp, #0
 550              		.cfi_def_cfa_register 7
 350:Generated_Source\PSoC4/LCD.c ****     uint32 value;
 351:Generated_Source\PSoC4/LCD.c ****     uint32 timeout;
 352:Generated_Source\PSoC4/LCD.c ****     timeout = LCD_READY_DELAY;
ARM GAS  C:\Users\Petro\AppData\Local\Temp\cc1PwwXd.s 			page 17


 551              		.loc 1 352 0
 552 0006 CA23     		mov	r3, #202
 553 0008 5B00     		lsl	r3, r3, #1
 554 000a 7B60     		str	r3, [r7, #4]
 353:Generated_Source\PSoC4/LCD.c **** 
 354:Generated_Source\PSoC4/LCD.c ****     /* Clear LCD port*/
 355:Generated_Source\PSoC4/LCD.c ****     LCD_PORT_DR_REG &= ((uint32)(~LCD_PORT_MASK));
 555              		.loc 1 355 0
 556 000c 374B     		ldr	r3, .L32
 557 000e 374A     		ldr	r2, .L32
 558 0010 1268     		ldr	r2, [r2]
 559 0012 7F21     		mov	r1, #127
 560 0014 8A43     		bic	r2, r1
 561 0016 1A60     		str	r2, [r3]
 356:Generated_Source\PSoC4/LCD.c **** 
 357:Generated_Source\PSoC4/LCD.c ****     /* PSoC4 has a little different from PSoC3/5 port/pin organization for setting Drive Modes.
 358:Generated_Source\PSoC4/LCD.c ****   
 359:Generated_Source\PSoC4/LCD.c ****     */
 360:Generated_Source\PSoC4/LCD.c ****     #if (CY_PSOC4)
 361:Generated_Source\PSoC4/LCD.c ****         
 362:Generated_Source\PSoC4/LCD.c ****         /* Mask off data pins to clear old values out */
 363:Generated_Source\PSoC4/LCD.c ****         value = LCD_PORT_PC_REG & ((uint32) (~ LCD_DM_DATA_MASK));
 562              		.loc 1 363 0
 563 0018 354B     		ldr	r3, .L32+4
 564 001a 1B68     		ldr	r3, [r3]
 565 001c 1B0B     		lsr	r3, r3, #12
 566 001e 1B03     		lsl	r3, r3, #12
 567 0020 3B60     		str	r3, [r7]
 364:Generated_Source\PSoC4/LCD.c ****         /* Load in high Z values for data pins, others unchanged */
 365:Generated_Source\PSoC4/LCD.c ****         LCD_PORT_PC_REG = value | LCD_HIGH_Z_DATA_DM;
 568              		.loc 1 365 0
 569 0022 334B     		ldr	r3, .L32+4
 570 0024 3A68     		ldr	r2, [r7]
 571 0026 3349     		ldr	r1, .L32+8
 572 0028 0A43     		orr	r2, r1
 573 002a 1A60     		str	r2, [r3]
 366:Generated_Source\PSoC4/LCD.c **** 
 367:Generated_Source\PSoC4/LCD.c ****     #else
 368:Generated_Source\PSoC4/LCD.c ****     
 369:Generated_Source\PSoC4/LCD.c ****         /* Change Port to High-Z Status on data pins */
 370:Generated_Source\PSoC4/LCD.c **** 
 371:Generated_Source\PSoC4/LCD.c ****         /* Mask off data pins to clear old values out */
 372:Generated_Source\PSoC4/LCD.c ****         value = LCD_PORT_DM0_REG & ((uint8)(~LCD_DATA_MASK));
 373:Generated_Source\PSoC4/LCD.c ****         /* Load in high Z values for data pins, others unchanged */
 374:Generated_Source\PSoC4/LCD.c ****         LCD_PORT_DM0_REG = value | (LCD_HIGH_Z_DM0 & LCD_DATA_MASK);
 375:Generated_Source\PSoC4/LCD.c **** 
 376:Generated_Source\PSoC4/LCD.c ****         /* Mask off data pins to clear old values out */
 377:Generated_Source\PSoC4/LCD.c ****         value = LCD_PORT_DM1_REG & ((uint8)(~LCD_DATA_MASK));
 378:Generated_Source\PSoC4/LCD.c ****         /* Load in high Z values for data pins, others unchanged */
 379:Generated_Source\PSoC4/LCD.c ****         LCD_PORT_DM1_REG = value;
 380:Generated_Source\PSoC4/LCD.c **** 
 381:Generated_Source\PSoC4/LCD.c ****         /* Mask off data pins to clear old values out */
 382:Generated_Source\PSoC4/LCD.c ****         value = LCD_PORT_DM2_REG & ((uint8)(~LCD_DATA_MASK));
 383:Generated_Source\PSoC4/LCD.c ****         /* Load in high Z values for data pins, others unchanged */
 384:Generated_Source\PSoC4/LCD.c ****         LCD_PORT_DM2_REG = value;
 385:Generated_Source\PSoC4/LCD.c ****     
 386:Generated_Source\PSoC4/LCD.c ****     #endif /* CY_PSOC4 */
ARM GAS  C:\Users\Petro\AppData\Local\Temp\cc1PwwXd.s 			page 18


 387:Generated_Source\PSoC4/LCD.c ****     
 388:Generated_Source\PSoC4/LCD.c ****     /* Make sure RS is low */
 389:Generated_Source\PSoC4/LCD.c ****     LCD_PORT_DR_REG &= ((uint32)(~LCD_RS));
 574              		.loc 1 389 0
 575 002c 2F4B     		ldr	r3, .L32
 576 002e 2F4A     		ldr	r2, .L32
 577 0030 1268     		ldr	r2, [r2]
 578 0032 2021     		mov	r1, #32
 579 0034 8A43     		bic	r2, r1
 580 0036 1A60     		str	r2, [r3]
 390:Generated_Source\PSoC4/LCD.c **** 
 391:Generated_Source\PSoC4/LCD.c ****     /* Set R/W high to read */
 392:Generated_Source\PSoC4/LCD.c ****     LCD_PORT_DR_REG |= LCD_RW;
 581              		.loc 1 392 0
 582 0038 2C4B     		ldr	r3, .L32
 583 003a 2C4A     		ldr	r2, .L32
 584 003c 1268     		ldr	r2, [r2]
 585 003e 4021     		mov	r1, #64
 586 0040 0A43     		orr	r2, r1
 587 0042 1A60     		str	r2, [r3]
 588              	.L31:
 393:Generated_Source\PSoC4/LCD.c **** 
 394:Generated_Source\PSoC4/LCD.c ****     do
 395:Generated_Source\PSoC4/LCD.c ****     {
 396:Generated_Source\PSoC4/LCD.c ****         /* 40 ns delay required before rising Enable and 500ns between neighbour Enables */
 397:Generated_Source\PSoC4/LCD.c ****         CyDelayUs(0u);
 589              		.loc 1 397 0
 590 0044 0020     		mov	r0, #0
 591 0046 FFF7FEFF 		bl	CyDelayUs
 398:Generated_Source\PSoC4/LCD.c **** 
 399:Generated_Source\PSoC4/LCD.c ****         /* Set E high */
 400:Generated_Source\PSoC4/LCD.c ****         LCD_PORT_DR_REG |= LCD_E;
 592              		.loc 1 400 0
 593 004a 284B     		ldr	r3, .L32
 594 004c 274A     		ldr	r2, .L32
 595 004e 1268     		ldr	r2, [r2]
 596 0050 1021     		mov	r1, #16
 597 0052 0A43     		orr	r2, r1
 598 0054 1A60     		str	r2, [r3]
 401:Generated_Source\PSoC4/LCD.c **** 
 402:Generated_Source\PSoC4/LCD.c ****         /* 360 ns delay setup time for data pins */
 403:Generated_Source\PSoC4/LCD.c ****         CyDelayUs(1u);
 599              		.loc 1 403 0
 600 0056 0120     		mov	r0, #1
 601 0058 FFF7FEFF 		bl	CyDelayUs
 404:Generated_Source\PSoC4/LCD.c **** 
 405:Generated_Source\PSoC4/LCD.c ****         /* Get port state */
 406:Generated_Source\PSoC4/LCD.c ****         value = LCD_PORT_PS_REG;
 602              		.loc 1 406 0
 603 005c 264B     		ldr	r3, .L32+12
 604 005e 1B68     		ldr	r3, [r3]
 605 0060 3B60     		str	r3, [r7]
 407:Generated_Source\PSoC4/LCD.c **** 
 408:Generated_Source\PSoC4/LCD.c ****         /* Set enable low */
 409:Generated_Source\PSoC4/LCD.c ****         LCD_PORT_DR_REG &= ((uint32)(~LCD_E));
 606              		.loc 1 409 0
 607 0062 224B     		ldr	r3, .L32
ARM GAS  C:\Users\Petro\AppData\Local\Temp\cc1PwwXd.s 			page 19


 608 0064 214A     		ldr	r2, .L32
 609 0066 1268     		ldr	r2, [r2]
 610 0068 1021     		mov	r1, #16
 611 006a 8A43     		bic	r2, r1
 612 006c 1A60     		str	r2, [r3]
 410:Generated_Source\PSoC4/LCD.c **** 
 411:Generated_Source\PSoC4/LCD.c ****         /* This gives true delay between disabling Enable bit and polling Ready bit */
 412:Generated_Source\PSoC4/LCD.c ****         CyDelayUs(0u);
 613              		.loc 1 412 0
 614 006e 0020     		mov	r0, #0
 615 0070 FFF7FEFF 		bl	CyDelayUs
 413:Generated_Source\PSoC4/LCD.c **** 
 414:Generated_Source\PSoC4/LCD.c ****         /* Extract ready bit */
 415:Generated_Source\PSoC4/LCD.c ****         value &= LCD_READY_BIT;
 616              		.loc 1 415 0
 617 0074 3B68     		ldr	r3, [r7]
 618 0076 0822     		mov	r2, #8
 619 0078 1340     		and	r3, r2
 620 007a 3B60     		str	r3, [r7]
 416:Generated_Source\PSoC4/LCD.c **** 
 417:Generated_Source\PSoC4/LCD.c ****         /* Set E high as we in 4-bit interface we need extra operation */
 418:Generated_Source\PSoC4/LCD.c ****         LCD_PORT_DR_REG |= LCD_E;
 621              		.loc 1 418 0
 622 007c 1B4B     		ldr	r3, .L32
 623 007e 1B4A     		ldr	r2, .L32
 624 0080 1268     		ldr	r2, [r2]
 625 0082 1021     		mov	r1, #16
 626 0084 0A43     		orr	r2, r1
 627 0086 1A60     		str	r2, [r3]
 419:Generated_Source\PSoC4/LCD.c **** 
 420:Generated_Source\PSoC4/LCD.c ****         /* 360 ns delay setup time for data pins */
 421:Generated_Source\PSoC4/LCD.c ****         CyDelayUs(1u);
 628              		.loc 1 421 0
 629 0088 0120     		mov	r0, #1
 630 008a FFF7FEFF 		bl	CyDelayUs
 422:Generated_Source\PSoC4/LCD.c **** 
 423:Generated_Source\PSoC4/LCD.c ****         /* Set enable low */
 424:Generated_Source\PSoC4/LCD.c ****         LCD_PORT_DR_REG &= ((uint32)(~LCD_E));
 631              		.loc 1 424 0
 632 008e 174B     		ldr	r3, .L32
 633 0090 164A     		ldr	r2, .L32
 634 0092 1268     		ldr	r2, [r2]
 635 0094 1021     		mov	r1, #16
 636 0096 8A43     		bic	r2, r1
 637 0098 1A60     		str	r2, [r3]
 425:Generated_Source\PSoC4/LCD.c **** 
 426:Generated_Source\PSoC4/LCD.c ****         /* If LCD is not ready make a delay */
 427:Generated_Source\PSoC4/LCD.c ****         if (value == 0u)
 638              		.loc 1 427 0
 639 009a 3B68     		ldr	r3, [r7]
 640 009c 002B     		cmp	r3, #0
 641 009e 02D1     		bne	.L29
 428:Generated_Source\PSoC4/LCD.c ****         {
 429:Generated_Source\PSoC4/LCD.c ****             CyDelayUs(10u);
 642              		.loc 1 429 0
 643 00a0 0A20     		mov	r0, #10
 644 00a2 FFF7FEFF 		bl	CyDelayUs
ARM GAS  C:\Users\Petro\AppData\Local\Temp\cc1PwwXd.s 			page 20


 645              	.L29:
 430:Generated_Source\PSoC4/LCD.c ****         }
 431:Generated_Source\PSoC4/LCD.c **** 
 432:Generated_Source\PSoC4/LCD.c ****         /* Repeat until bit 4 is not zero or until timeout. */
 433:Generated_Source\PSoC4/LCD.c ****         timeout--;
 646              		.loc 1 433 0
 647 00a6 7B68     		ldr	r3, [r7, #4]
 648 00a8 013B     		sub	r3, r3, #1
 649 00aa 7B60     		str	r3, [r7, #4]
 434:Generated_Source\PSoC4/LCD.c **** 
 435:Generated_Source\PSoC4/LCD.c ****     } while ((value != 0u) && (timeout > 0u));
 650              		.loc 1 435 0
 651 00ac 3B68     		ldr	r3, [r7]
 652 00ae 002B     		cmp	r3, #0
 653 00b0 02D0     		beq	.L30
 654              		.loc 1 435 0 is_stmt 0 discriminator 1
 655 00b2 7B68     		ldr	r3, [r7, #4]
 656 00b4 002B     		cmp	r3, #0
 657 00b6 C5D1     		bne	.L31
 658              	.L30:
 436:Generated_Source\PSoC4/LCD.c **** 
 437:Generated_Source\PSoC4/LCD.c ****     /* Set R/W low to write */
 438:Generated_Source\PSoC4/LCD.c ****     LCD_PORT_DR_REG &= ((uint32)(~LCD_RW));
 659              		.loc 1 438 0 is_stmt 1
 660 00b8 0C4B     		ldr	r3, .L32
 661 00ba 0C4A     		ldr	r2, .L32
 662 00bc 1268     		ldr	r2, [r2]
 663 00be 4021     		mov	r1, #64
 664 00c0 8A43     		bic	r2, r1
 665 00c2 1A60     		str	r2, [r3]
 439:Generated_Source\PSoC4/LCD.c **** 
 440:Generated_Source\PSoC4/LCD.c ****     /* Clear LCD port*/
 441:Generated_Source\PSoC4/LCD.c ****     LCD_PORT_DR_REG &= ((uint32)(~LCD_PORT_MASK));
 666              		.loc 1 441 0
 667 00c4 094B     		ldr	r3, .L32
 668 00c6 094A     		ldr	r2, .L32
 669 00c8 1268     		ldr	r2, [r2]
 670 00ca 7F21     		mov	r1, #127
 671 00cc 8A43     		bic	r2, r1
 672 00ce 1A60     		str	r2, [r3]
 442:Generated_Source\PSoC4/LCD.c **** 
 443:Generated_Source\PSoC4/LCD.c ****     #if (CY_PSOC4)
 444:Generated_Source\PSoC4/LCD.c ****         
 445:Generated_Source\PSoC4/LCD.c ****         /* Mask off data pins to clear old values out */
 446:Generated_Source\PSoC4/LCD.c ****         value = LCD_PORT_PC_REG & ((uint32)(~ LCD_DM_DATA_MASK));
 673              		.loc 1 446 0
 674 00d0 074B     		ldr	r3, .L32+4
 675 00d2 1B68     		ldr	r3, [r3]
 676 00d4 1B0B     		lsr	r3, r3, #12
 677 00d6 1B03     		lsl	r3, r3, #12
 678 00d8 3B60     		str	r3, [r7]
 447:Generated_Source\PSoC4/LCD.c ****         /* Load in high Z values for data pins, others unchanged */
 448:Generated_Source\PSoC4/LCD.c ****         LCD_PORT_PC_REG = value | LCD_STRONG_DATA_DM;
 679              		.loc 1 448 0
 680 00da 054B     		ldr	r3, .L32+4
 681 00dc 3A68     		ldr	r2, [r7]
 682 00de 0749     		ldr	r1, .L32+16
ARM GAS  C:\Users\Petro\AppData\Local\Temp\cc1PwwXd.s 			page 21


 683 00e0 0A43     		orr	r2, r1
 684 00e2 1A60     		str	r2, [r3]
 449:Generated_Source\PSoC4/LCD.c **** 
 450:Generated_Source\PSoC4/LCD.c ****     #else
 451:Generated_Source\PSoC4/LCD.c **** 
 452:Generated_Source\PSoC4/LCD.c ****         /* Change Port to Output (Strong) on data pins */
 453:Generated_Source\PSoC4/LCD.c ****         /* Mask off data pins to clear high z values out. Configure data pins 
 454:Generated_Source\PSoC4/LCD.c ****         * to Strong Drive, others unchanged.
 455:Generated_Source\PSoC4/LCD.c ****         */
 456:Generated_Source\PSoC4/LCD.c ****         LCD_PORT_DM0_REG &= ((uint8)(~LCD_DATA_MASK));
 457:Generated_Source\PSoC4/LCD.c ****         /* Mask off data pins to clear high z values out */
 458:Generated_Source\PSoC4/LCD.c ****         value = LCD_PORT_DM1_REG & ((uint8)(~LCD_DATA_MASK));
 459:Generated_Source\PSoC4/LCD.c ****         /* Configure data pins to Strong Drive, others unchanged */
 460:Generated_Source\PSoC4/LCD.c ****         LCD_PORT_DM1_REG = value | (LCD_STRONG_DM1 & LCD_DATA_MASK);
 461:Generated_Source\PSoC4/LCD.c **** 
 462:Generated_Source\PSoC4/LCD.c ****         /* Mask off data pins to clear high z values out */
 463:Generated_Source\PSoC4/LCD.c ****         value = LCD_PORT_DM2_REG & ((uint8)(~LCD_DATA_MASK));
 464:Generated_Source\PSoC4/LCD.c ****         /* Configure data pins to Strong Drive, others unchanged */
 465:Generated_Source\PSoC4/LCD.c ****         LCD_PORT_DM2_REG = value | (LCD_STRONG_DM2 & LCD_DATA_MASK);
 466:Generated_Source\PSoC4/LCD.c ****     
 467:Generated_Source\PSoC4/LCD.c ****     #endif /* CY_PSOC4 */
 468:Generated_Source\PSoC4/LCD.c **** }
 685              		.loc 1 468 0
 686 00e4 BD46     		mov	sp, r7
 687 00e6 02B0     		add	sp, sp, #8
 688              		@ sp needed
 689 00e8 80BD     		pop	{r7, pc}
 690              	.L33:
 691 00ea C046     		.align	2
 692              	.L32:
 693 00ec 00010440 		.word	1074004224
 694 00f0 08010440 		.word	1074004232
 695 00f4 49020000 		.word	585
 696 00f8 04010440 		.word	1074004228
 697 00fc B60D0000 		.word	3510
 698              		.cfi_endproc
 699              	.LFE11:
 700              		.size	LCD_IsReady, .-LCD_IsReady
 701              		.section	.text.LCD_WrDatNib,"ax",%progbits
 702              		.align	2
 703              		.code	16
 704              		.thumb_func
 705              		.type	LCD_WrDatNib, %function
 706              	LCD_WrDatNib:
 707              	.LFB12:
 469:Generated_Source\PSoC4/LCD.c **** 
 470:Generated_Source\PSoC4/LCD.c **** 
 471:Generated_Source\PSoC4/LCD.c **** /*******************************************************************************
 472:Generated_Source\PSoC4/LCD.c **** *  Function Name: LCD_WrDatNib
 473:Generated_Source\PSoC4/LCD.c **** ********************************************************************************
 474:Generated_Source\PSoC4/LCD.c **** *
 475:Generated_Source\PSoC4/LCD.c **** * Summary:
 476:Generated_Source\PSoC4/LCD.c **** *  Writes a data nibble to the LCD module.
 477:Generated_Source\PSoC4/LCD.c **** *
 478:Generated_Source\PSoC4/LCD.c **** * Parameters:
 479:Generated_Source\PSoC4/LCD.c **** *  nibble:  Byte containing nibble in the least significant nibble to be
 480:Generated_Source\PSoC4/LCD.c **** *           written to the LCD module.
ARM GAS  C:\Users\Petro\AppData\Local\Temp\cc1PwwXd.s 			page 22


 481:Generated_Source\PSoC4/LCD.c **** *
 482:Generated_Source\PSoC4/LCD.c **** * Return:
 483:Generated_Source\PSoC4/LCD.c **** *  None.
 484:Generated_Source\PSoC4/LCD.c **** *
 485:Generated_Source\PSoC4/LCD.c **** *******************************************************************************/
 486:Generated_Source\PSoC4/LCD.c **** static void LCD_WrDatNib(uint8 nibble) 
 487:Generated_Source\PSoC4/LCD.c **** {
 708              		.loc 1 487 0
 709              		.cfi_startproc
 710 0000 80B5     		push	{r7, lr}
 711              		.cfi_def_cfa_offset 8
 712              		.cfi_offset 7, -8
 713              		.cfi_offset 14, -4
 714 0002 82B0     		sub	sp, sp, #8
 715              		.cfi_def_cfa_offset 16
 716 0004 00AF     		add	r7, sp, #0
 717              		.cfi_def_cfa_register 7
 718 0006 021C     		mov	r2, r0
 719 0008 FB1D     		add	r3, r7, #7
 720 000a 1A70     		strb	r2, [r3]
 488:Generated_Source\PSoC4/LCD.c ****     /* RS should be low to select data register */
 489:Generated_Source\PSoC4/LCD.c ****     LCD_PORT_DR_REG |= LCD_RS;
 721              		.loc 1 489 0
 722 000c 154B     		ldr	r3, .L35
 723 000e 154A     		ldr	r2, .L35
 724 0010 1268     		ldr	r2, [r2]
 725 0012 2021     		mov	r1, #32
 726 0014 0A43     		orr	r2, r1
 727 0016 1A60     		str	r2, [r3]
 490:Generated_Source\PSoC4/LCD.c ****     /* Reset RW for write operation */
 491:Generated_Source\PSoC4/LCD.c ****     LCD_PORT_DR_REG &= ((uint32)(~LCD_RW));
 728              		.loc 1 491 0
 729 0018 124B     		ldr	r3, .L35
 730 001a 124A     		ldr	r2, .L35
 731 001c 1268     		ldr	r2, [r2]
 732 001e 4021     		mov	r1, #64
 733 0020 8A43     		bic	r2, r1
 734 0022 1A60     		str	r2, [r3]
 492:Generated_Source\PSoC4/LCD.c **** 
 493:Generated_Source\PSoC4/LCD.c ****     /* Guaranteed delay between Setting RS and RW and setting E bits */
 494:Generated_Source\PSoC4/LCD.c ****     CyDelayUs(0u);
 735              		.loc 1 494 0
 736 0024 0020     		mov	r0, #0
 737 0026 FFF7FEFF 		bl	CyDelayUs
 495:Generated_Source\PSoC4/LCD.c ****     
 496:Generated_Source\PSoC4/LCD.c ****     /* Clear data pins */
 497:Generated_Source\PSoC4/LCD.c ****     LCD_PORT_DR_REG &= ((uint32)(~LCD_DATA_MASK));
 738              		.loc 1 497 0
 739 002a 0E4B     		ldr	r3, .L35
 740 002c 0D4A     		ldr	r2, .L35
 741 002e 1268     		ldr	r2, [r2]
 742 0030 0F21     		mov	r1, #15
 743 0032 8A43     		bic	r2, r1
 744 0034 1A60     		str	r2, [r3]
 498:Generated_Source\PSoC4/LCD.c **** 
 499:Generated_Source\PSoC4/LCD.c ****     /* Write data, bring E high */
 500:Generated_Source\PSoC4/LCD.c ****     #if(0u != LCD_PORT_SHIFT) /* MISRA forbids shift by 0 so need to handle that */
ARM GAS  C:\Users\Petro\AppData\Local\Temp\cc1PwwXd.s 			page 23


 501:Generated_Source\PSoC4/LCD.c ****         LCD_PORT_DR_REG |= 
 502:Generated_Source\PSoC4/LCD.c ****             (LCD_E | ((uint8)(((uint8) nibble) << LCD_PORT_SHIFT)));
 503:Generated_Source\PSoC4/LCD.c ****     #else
 504:Generated_Source\PSoC4/LCD.c ****         LCD_PORT_DR_REG |= (LCD_E | nibble);
 745              		.loc 1 504 0
 746 0036 0B4B     		ldr	r3, .L35
 747 0038 0A4A     		ldr	r2, .L35
 748 003a 1268     		ldr	r2, [r2]
 749 003c F91D     		add	r1, r7, #7
 750 003e 0978     		ldrb	r1, [r1]
 751 0040 1020     		mov	r0, #16
 752 0042 0143     		orr	r1, r0
 753 0044 C9B2     		uxtb	r1, r1
 754 0046 0A43     		orr	r2, r1
 755 0048 1A60     		str	r2, [r3]
 505:Generated_Source\PSoC4/LCD.c ****     #endif /* (0u != LCD_PORT_SHIFT) */
 506:Generated_Source\PSoC4/LCD.c **** 
 507:Generated_Source\PSoC4/LCD.c ****     /* Minimum of 230 ns delay */
 508:Generated_Source\PSoC4/LCD.c ****     CyDelayUs(1u);
 756              		.loc 1 508 0
 757 004a 0120     		mov	r0, #1
 758 004c FFF7FEFF 		bl	CyDelayUs
 509:Generated_Source\PSoC4/LCD.c **** 
 510:Generated_Source\PSoC4/LCD.c ****     LCD_PORT_DR_REG &= ((uint32)(~LCD_E));
 759              		.loc 1 510 0
 760 0050 044B     		ldr	r3, .L35
 761 0052 044A     		ldr	r2, .L35
 762 0054 1268     		ldr	r2, [r2]
 763 0056 1021     		mov	r1, #16
 764 0058 8A43     		bic	r2, r1
 765 005a 1A60     		str	r2, [r3]
 511:Generated_Source\PSoC4/LCD.c **** }
 766              		.loc 1 511 0
 767 005c BD46     		mov	sp, r7
 768 005e 02B0     		add	sp, sp, #8
 769              		@ sp needed
 770 0060 80BD     		pop	{r7, pc}
 771              	.L36:
 772 0062 C046     		.align	2
 773              	.L35:
 774 0064 00010440 		.word	1074004224
 775              		.cfi_endproc
 776              	.LFE12:
 777              		.size	LCD_WrDatNib, .-LCD_WrDatNib
 778              		.section	.text.LCD_WrCntrlNib,"ax",%progbits
 779              		.align	2
 780              		.code	16
 781              		.thumb_func
 782              		.type	LCD_WrCntrlNib, %function
 783              	LCD_WrCntrlNib:
 784              	.LFB13:
 512:Generated_Source\PSoC4/LCD.c **** 
 513:Generated_Source\PSoC4/LCD.c **** 
 514:Generated_Source\PSoC4/LCD.c **** /*******************************************************************************
 515:Generated_Source\PSoC4/LCD.c **** *  Function Name: LCD_WrCntrlNib
 516:Generated_Source\PSoC4/LCD.c **** ********************************************************************************
 517:Generated_Source\PSoC4/LCD.c **** *
ARM GAS  C:\Users\Petro\AppData\Local\Temp\cc1PwwXd.s 			page 24


 518:Generated_Source\PSoC4/LCD.c **** * Summary:
 519:Generated_Source\PSoC4/LCD.c **** *  Writes a control nibble to the LCD module.
 520:Generated_Source\PSoC4/LCD.c **** *
 521:Generated_Source\PSoC4/LCD.c **** * Parameters:
 522:Generated_Source\PSoC4/LCD.c **** *  nibble: The byte containing a nibble in the four least significant bits.????
 523:Generated_Source\PSoC4/LCD.c **** *
 524:Generated_Source\PSoC4/LCD.c **** * Return:
 525:Generated_Source\PSoC4/LCD.c **** *  None.
 526:Generated_Source\PSoC4/LCD.c **** *
 527:Generated_Source\PSoC4/LCD.c **** *******************************************************************************/
 528:Generated_Source\PSoC4/LCD.c **** static void LCD_WrCntrlNib(uint8 nibble) 
 529:Generated_Source\PSoC4/LCD.c **** {
 785              		.loc 1 529 0
 786              		.cfi_startproc
 787 0000 80B5     		push	{r7, lr}
 788              		.cfi_def_cfa_offset 8
 789              		.cfi_offset 7, -8
 790              		.cfi_offset 14, -4
 791 0002 82B0     		sub	sp, sp, #8
 792              		.cfi_def_cfa_offset 16
 793 0004 00AF     		add	r7, sp, #0
 794              		.cfi_def_cfa_register 7
 795 0006 021C     		mov	r2, r0
 796 0008 FB1D     		add	r3, r7, #7
 797 000a 1A70     		strb	r2, [r3]
 530:Generated_Source\PSoC4/LCD.c ****     /* RS and RW should be low to select instruction register and  write operation respectively */
 531:Generated_Source\PSoC4/LCD.c ****     LCD_PORT_DR_REG &= ((uint32)(~(LCD_RS | LCD_RW)));
 798              		.loc 1 531 0
 799 000c 104B     		ldr	r3, .L38
 800 000e 104A     		ldr	r2, .L38
 801 0010 1268     		ldr	r2, [r2]
 802 0012 6021     		mov	r1, #96
 803 0014 8A43     		bic	r2, r1
 804 0016 1A60     		str	r2, [r3]
 532:Generated_Source\PSoC4/LCD.c **** 
 533:Generated_Source\PSoC4/LCD.c ****     /* Two following lines of code will give 40ns delay */
 534:Generated_Source\PSoC4/LCD.c ****     /* Clear data pins */
 535:Generated_Source\PSoC4/LCD.c ****     LCD_PORT_DR_REG &= ((uint32)(~LCD_DATA_MASK));
 805              		.loc 1 535 0
 806 0018 0D4B     		ldr	r3, .L38
 807 001a 0D4A     		ldr	r2, .L38
 808 001c 1268     		ldr	r2, [r2]
 809 001e 0F21     		mov	r1, #15
 810 0020 8A43     		bic	r2, r1
 811 0022 1A60     		str	r2, [r3]
 536:Generated_Source\PSoC4/LCD.c **** 
 537:Generated_Source\PSoC4/LCD.c ****     /* Write control data and set enable signal */
 538:Generated_Source\PSoC4/LCD.c ****     #if(0u != LCD_PORT_SHIFT) /* MISRA forbids shift by 0 so need to handle that */
 539:Generated_Source\PSoC4/LCD.c ****         LCD_PORT_DR_REG |= 
 540:Generated_Source\PSoC4/LCD.c ****             (LCD_E | ((uint8)(((uint8) nibble) << LCD_PORT_SHIFT)));
 541:Generated_Source\PSoC4/LCD.c ****     #else
 542:Generated_Source\PSoC4/LCD.c ****         LCD_PORT_DR_REG |= (LCD_E | nibble);
 812              		.loc 1 542 0
 813 0024 0A4B     		ldr	r3, .L38
 814 0026 0A4A     		ldr	r2, .L38
 815 0028 1268     		ldr	r2, [r2]
 816 002a F91D     		add	r1, r7, #7
ARM GAS  C:\Users\Petro\AppData\Local\Temp\cc1PwwXd.s 			page 25


 817 002c 0978     		ldrb	r1, [r1]
 818 002e 1020     		mov	r0, #16
 819 0030 0143     		orr	r1, r0
 820 0032 C9B2     		uxtb	r1, r1
 821 0034 0A43     		orr	r2, r1
 822 0036 1A60     		str	r2, [r3]
 543:Generated_Source\PSoC4/LCD.c ****     #endif /* (0u != LCD_PORT_SHIFT) */
 544:Generated_Source\PSoC4/LCD.c **** 
 545:Generated_Source\PSoC4/LCD.c ****     /* Minimum of 230 ns delay */
 546:Generated_Source\PSoC4/LCD.c ****     CyDelayUs(1u);
 823              		.loc 1 546 0
 824 0038 0120     		mov	r0, #1
 825 003a FFF7FEFF 		bl	CyDelayUs
 547:Generated_Source\PSoC4/LCD.c **** 
 548:Generated_Source\PSoC4/LCD.c ****     LCD_PORT_DR_REG &= ((uint32)(~LCD_E));
 826              		.loc 1 548 0
 827 003e 044B     		ldr	r3, .L38
 828 0040 034A     		ldr	r2, .L38
 829 0042 1268     		ldr	r2, [r2]
 830 0044 1021     		mov	r1, #16
 831 0046 8A43     		bic	r2, r1
 832 0048 1A60     		str	r2, [r3]
 549:Generated_Source\PSoC4/LCD.c **** }
 833              		.loc 1 549 0
 834 004a BD46     		mov	sp, r7
 835 004c 02B0     		add	sp, sp, #8
 836              		@ sp needed
 837 004e 80BD     		pop	{r7, pc}
 838              	.L39:
 839              		.align	2
 840              	.L38:
 841 0050 00010440 		.word	1074004224
 842              		.cfi_endproc
 843              	.LFE13:
 844              		.size	LCD_WrCntrlNib, .-LCD_WrCntrlNib
 845              		.section	.text.LCD_PrintInt8,"ax",%progbits
 846              		.align	2
 847              		.global	LCD_PrintInt8
 848              		.code	16
 849              		.thumb_func
 850              		.type	LCD_PrintInt8, %function
 851              	LCD_PrintInt8:
 852              	.LFB14:
 550:Generated_Source\PSoC4/LCD.c **** 
 551:Generated_Source\PSoC4/LCD.c **** 
 552:Generated_Source\PSoC4/LCD.c **** #if(LCD_CONVERSION_ROUTINES == 1u)
 553:Generated_Source\PSoC4/LCD.c **** 
 554:Generated_Source\PSoC4/LCD.c ****     /*******************************************************************************
 555:Generated_Source\PSoC4/LCD.c ****     *  Function Name: LCD_PrintInt8
 556:Generated_Source\PSoC4/LCD.c ****     ********************************************************************************
 557:Generated_Source\PSoC4/LCD.c ****     *
 558:Generated_Source\PSoC4/LCD.c ****     * Summary:
 559:Generated_Source\PSoC4/LCD.c ****     *  Print a byte as two ASCII characters.
 560:Generated_Source\PSoC4/LCD.c ****     *
 561:Generated_Source\PSoC4/LCD.c ****     * Parameters:
 562:Generated_Source\PSoC4/LCD.c ****     *  value: The byte to be printed out as ASCII characters.
 563:Generated_Source\PSoC4/LCD.c ****     *
ARM GAS  C:\Users\Petro\AppData\Local\Temp\cc1PwwXd.s 			page 26


 564:Generated_Source\PSoC4/LCD.c ****     * Return:
 565:Generated_Source\PSoC4/LCD.c ****     *  None.
 566:Generated_Source\PSoC4/LCD.c ****     *
 567:Generated_Source\PSoC4/LCD.c ****     *******************************************************************************/
 568:Generated_Source\PSoC4/LCD.c ****     void LCD_PrintInt8(uint8 value) 
 569:Generated_Source\PSoC4/LCD.c ****     {
 853              		.loc 1 569 0
 854              		.cfi_startproc
 855 0000 80B5     		push	{r7, lr}
 856              		.cfi_def_cfa_offset 8
 857              		.cfi_offset 7, -8
 858              		.cfi_offset 14, -4
 859 0002 82B0     		sub	sp, sp, #8
 860              		.cfi_def_cfa_offset 16
 861 0004 00AF     		add	r7, sp, #0
 862              		.cfi_def_cfa_register 7
 863 0006 021C     		mov	r2, r0
 864 0008 FB1D     		add	r3, r7, #7
 865 000a 1A70     		strb	r2, [r3]
 570:Generated_Source\PSoC4/LCD.c ****         static char8 const CYCODE LCD_hex[16u] = "0123456789ABCDEF";
 571:Generated_Source\PSoC4/LCD.c ****         
 572:Generated_Source\PSoC4/LCD.c ****         LCD_PutChar((char8) LCD_hex[value >> LCD_BYTE_UPPER_NIBBLE_SHIFT]);
 866              		.loc 1 572 0
 867 000c FB1D     		add	r3, r7, #7
 868 000e 1B78     		ldrb	r3, [r3]
 869 0010 1B09     		lsr	r3, r3, #4
 870 0012 DBB2     		uxtb	r3, r3
 871 0014 1A1C     		mov	r2, r3
 872 0016 084B     		ldr	r3, .L41
 873 0018 9B5C     		ldrb	r3, [r3, r2]
 874 001a 181C     		mov	r0, r3
 875 001c FFF7FEFF 		bl	LCD_PutChar
 573:Generated_Source\PSoC4/LCD.c ****         LCD_PutChar((char8) LCD_hex[value & LCD_BYTE_LOWER_NIBBLE_MASK]);
 876              		.loc 1 573 0
 877 0020 FB1D     		add	r3, r7, #7
 878 0022 1B78     		ldrb	r3, [r3]
 879 0024 0F22     		mov	r2, #15
 880 0026 1340     		and	r3, r2
 881 0028 034A     		ldr	r2, .L41
 882 002a D35C     		ldrb	r3, [r2, r3]
 883 002c 181C     		mov	r0, r3
 884 002e FFF7FEFF 		bl	LCD_PutChar
 574:Generated_Source\PSoC4/LCD.c ****     }
 885              		.loc 1 574 0
 886 0032 BD46     		mov	sp, r7
 887 0034 02B0     		add	sp, sp, #8
 888              		@ sp needed
 889 0036 80BD     		pop	{r7, pc}
 890              	.L42:
 891              		.align	2
 892              	.L41:
 893 0038 00000000 		.word	LCD_hex.4824
 894              		.cfi_endproc
 895              	.LFE14:
 896              		.size	LCD_PrintInt8, .-LCD_PrintInt8
 897              		.section	.text.LCD_PrintInt16,"ax",%progbits
 898              		.align	2
ARM GAS  C:\Users\Petro\AppData\Local\Temp\cc1PwwXd.s 			page 27


 899              		.global	LCD_PrintInt16
 900              		.code	16
 901              		.thumb_func
 902              		.type	LCD_PrintInt16, %function
 903              	LCD_PrintInt16:
 904              	.LFB15:
 575:Generated_Source\PSoC4/LCD.c **** 
 576:Generated_Source\PSoC4/LCD.c **** 
 577:Generated_Source\PSoC4/LCD.c ****     /*******************************************************************************
 578:Generated_Source\PSoC4/LCD.c ****     *  Function Name: LCD_PrintInt16
 579:Generated_Source\PSoC4/LCD.c ****     ********************************************************************************
 580:Generated_Source\PSoC4/LCD.c ****     *
 581:Generated_Source\PSoC4/LCD.c ****     * Summary:
 582:Generated_Source\PSoC4/LCD.c ****     *  Print a uint16 as four ASCII characters.
 583:Generated_Source\PSoC4/LCD.c ****     *
 584:Generated_Source\PSoC4/LCD.c ****     * Parameters:
 585:Generated_Source\PSoC4/LCD.c ****     *  value: The uint16 to be printed out as ASCII characters.
 586:Generated_Source\PSoC4/LCD.c ****     *
 587:Generated_Source\PSoC4/LCD.c ****     * Return:
 588:Generated_Source\PSoC4/LCD.c ****     *  None.
 589:Generated_Source\PSoC4/LCD.c ****     *
 590:Generated_Source\PSoC4/LCD.c ****     *******************************************************************************/
 591:Generated_Source\PSoC4/LCD.c ****     void LCD_PrintInt16(uint16 value) 
 592:Generated_Source\PSoC4/LCD.c ****     {
 905              		.loc 1 592 0
 906              		.cfi_startproc
 907 0000 80B5     		push	{r7, lr}
 908              		.cfi_def_cfa_offset 8
 909              		.cfi_offset 7, -8
 910              		.cfi_offset 14, -4
 911 0002 82B0     		sub	sp, sp, #8
 912              		.cfi_def_cfa_offset 16
 913 0004 00AF     		add	r7, sp, #0
 914              		.cfi_def_cfa_register 7
 915 0006 021C     		mov	r2, r0
 916 0008 BB1D     		add	r3, r7, #6
 917 000a 1A80     		strh	r2, [r3]
 593:Generated_Source\PSoC4/LCD.c ****         LCD_PrintInt8((uint8)(value >> LCD_U16_UPPER_BYTE_SHIFT));
 918              		.loc 1 593 0
 919 000c BB1D     		add	r3, r7, #6
 920 000e 1B88     		ldrh	r3, [r3]
 921 0010 1B0A     		lsr	r3, r3, #8
 922 0012 9BB2     		uxth	r3, r3
 923 0014 DBB2     		uxtb	r3, r3
 924 0016 181C     		mov	r0, r3
 925 0018 FFF7FEFF 		bl	LCD_PrintInt8
 594:Generated_Source\PSoC4/LCD.c ****         LCD_PrintInt8((uint8)(value & LCD_U16_LOWER_BYTE_MASK));
 926              		.loc 1 594 0
 927 001c BB1D     		add	r3, r7, #6
 928 001e 1B88     		ldrh	r3, [r3]
 929 0020 DBB2     		uxtb	r3, r3
 930 0022 181C     		mov	r0, r3
 931 0024 FFF7FEFF 		bl	LCD_PrintInt8
 595:Generated_Source\PSoC4/LCD.c ****     }
 932              		.loc 1 595 0
 933 0028 BD46     		mov	sp, r7
 934 002a 02B0     		add	sp, sp, #8
ARM GAS  C:\Users\Petro\AppData\Local\Temp\cc1PwwXd.s 			page 28


 935              		@ sp needed
 936 002c 80BD     		pop	{r7, pc}
 937              		.cfi_endproc
 938              	.LFE15:
 939              		.size	LCD_PrintInt16, .-LCD_PrintInt16
 940 002e C046     		.section	.text.LCD_PrintInt32,"ax",%progbits
 941              		.align	2
 942              		.global	LCD_PrintInt32
 943              		.code	16
 944              		.thumb_func
 945              		.type	LCD_PrintInt32, %function
 946              	LCD_PrintInt32:
 947              	.LFB16:
 596:Generated_Source\PSoC4/LCD.c **** 
 597:Generated_Source\PSoC4/LCD.c ****     
 598:Generated_Source\PSoC4/LCD.c ****     /*******************************************************************************
 599:Generated_Source\PSoC4/LCD.c ****     *  Function Name: LCD_PrintInt32
 600:Generated_Source\PSoC4/LCD.c ****     ********************************************************************************
 601:Generated_Source\PSoC4/LCD.c ****     *
 602:Generated_Source\PSoC4/LCD.c ****     * Summary:
 603:Generated_Source\PSoC4/LCD.c ****     *  Print a uint32 hexadecimal number as eight ASCII characters.
 604:Generated_Source\PSoC4/LCD.c ****     *
 605:Generated_Source\PSoC4/LCD.c ****     * Parameters:
 606:Generated_Source\PSoC4/LCD.c ****     *  value: The uint32 to be printed out as ASCII characters.
 607:Generated_Source\PSoC4/LCD.c ****     *
 608:Generated_Source\PSoC4/LCD.c ****     * Return:
 609:Generated_Source\PSoC4/LCD.c ****     *  None.
 610:Generated_Source\PSoC4/LCD.c ****     *
 611:Generated_Source\PSoC4/LCD.c ****     *******************************************************************************/
 612:Generated_Source\PSoC4/LCD.c ****     void LCD_PrintInt32(uint32 value) 
 613:Generated_Source\PSoC4/LCD.c ****     {
 948              		.loc 1 613 0
 949              		.cfi_startproc
 950 0000 80B5     		push	{r7, lr}
 951              		.cfi_def_cfa_offset 8
 952              		.cfi_offset 7, -8
 953              		.cfi_offset 14, -4
 954 0002 84B0     		sub	sp, sp, #16
 955              		.cfi_def_cfa_offset 24
 956 0004 00AF     		add	r7, sp, #0
 957              		.cfi_def_cfa_register 7
 958 0006 7860     		str	r0, [r7, #4]
 614:Generated_Source\PSoC4/LCD.c ****         uint8 shift = LCD_32_BIT_SHIFT;
 959              		.loc 1 614 0
 960 0008 0F23     		mov	r3, #15
 961 000a FB18     		add	r3, r7, r3
 962 000c 2022     		mov	r2, #32
 963 000e 1A70     		strb	r2, [r3]
 615:Generated_Source\PSoC4/LCD.c ****         
 616:Generated_Source\PSoC4/LCD.c ****         while (shift != 0u)
 964              		.loc 1 616 0
 965 0010 10E0     		b	.L45
 966              	.L46:
 617:Generated_Source\PSoC4/LCD.c ****         {
 618:Generated_Source\PSoC4/LCD.c ****             /* "shift" var is to be subtracted by 8 prior shifting. This implements 
 619:Generated_Source\PSoC4/LCD.c ****             * shifting by 24, 16, 8 and 0u. 
 620:Generated_Source\PSoC4/LCD.c ****             */
ARM GAS  C:\Users\Petro\AppData\Local\Temp\cc1PwwXd.s 			page 29


 621:Generated_Source\PSoC4/LCD.c ****             shift -= LCD_8_BIT_SHIFT;
 967              		.loc 1 621 0
 968 0012 0F23     		mov	r3, #15
 969 0014 FB18     		add	r3, r7, r3
 970 0016 0F22     		mov	r2, #15
 971 0018 BA18     		add	r2, r7, r2
 972 001a 1278     		ldrb	r2, [r2]
 973 001c 083A     		sub	r2, r2, #8
 974 001e 1A70     		strb	r2, [r3]
 622:Generated_Source\PSoC4/LCD.c ****             
 623:Generated_Source\PSoC4/LCD.c ****             /* Print 8 bits of uint32 hex number */
 624:Generated_Source\PSoC4/LCD.c ****             LCD_PrintInt8((uint8) ((uint32) (value >> shift)));
 975              		.loc 1 624 0
 976 0020 0F23     		mov	r3, #15
 977 0022 FB18     		add	r3, r7, r3
 978 0024 1B78     		ldrb	r3, [r3]
 979 0026 7A68     		ldr	r2, [r7, #4]
 980 0028 DA40     		lsr	r2, r2, r3
 981 002a 131C     		mov	r3, r2
 982 002c DBB2     		uxtb	r3, r3
 983 002e 181C     		mov	r0, r3
 984 0030 FFF7FEFF 		bl	LCD_PrintInt8
 985              	.L45:
 616:Generated_Source\PSoC4/LCD.c ****         {
 986              		.loc 1 616 0
 987 0034 0F23     		mov	r3, #15
 988 0036 FB18     		add	r3, r7, r3
 989 0038 1B78     		ldrb	r3, [r3]
 990 003a 002B     		cmp	r3, #0
 991 003c E9D1     		bne	.L46
 625:Generated_Source\PSoC4/LCD.c ****         }
 626:Generated_Source\PSoC4/LCD.c ****     }
 992              		.loc 1 626 0
 993 003e BD46     		mov	sp, r7
 994 0040 04B0     		add	sp, sp, #16
 995              		@ sp needed
 996 0042 80BD     		pop	{r7, pc}
 997              		.cfi_endproc
 998              	.LFE16:
 999              		.size	LCD_PrintInt32, .-LCD_PrintInt32
 1000              		.global	__aeabi_uidivmod
 1001              		.global	__aeabi_uidiv
 1002              		.section	.text.LCD_PrintU32Number,"ax",%progbits
 1003              		.align	2
 1004              		.global	LCD_PrintU32Number
 1005              		.code	16
 1006              		.thumb_func
 1007              		.type	LCD_PrintU32Number, %function
 1008              	LCD_PrintU32Number:
 1009              	.LFB17:
 627:Generated_Source\PSoC4/LCD.c ****     
 628:Generated_Source\PSoC4/LCD.c ****     
 629:Generated_Source\PSoC4/LCD.c ****     /*******************************************************************************
 630:Generated_Source\PSoC4/LCD.c ****     *  Function Name: LCD_PrintNumber
 631:Generated_Source\PSoC4/LCD.c ****     ********************************************************************************
 632:Generated_Source\PSoC4/LCD.c ****     *
 633:Generated_Source\PSoC4/LCD.c ****     * Summary:
ARM GAS  C:\Users\Petro\AppData\Local\Temp\cc1PwwXd.s 			page 30


 634:Generated_Source\PSoC4/LCD.c ****     *  Print an uint16 value as a left-justified decimal value.
 635:Generated_Source\PSoC4/LCD.c ****     *
 636:Generated_Source\PSoC4/LCD.c ****     * Parameters:
 637:Generated_Source\PSoC4/LCD.c ****     *  value: A 16-bit value to be printed in ASCII characters as a decimal number
 638:Generated_Source\PSoC4/LCD.c ****     *
 639:Generated_Source\PSoC4/LCD.c ****     * Return:
 640:Generated_Source\PSoC4/LCD.c ****     *  None.
 641:Generated_Source\PSoC4/LCD.c ****     *
 642:Generated_Source\PSoC4/LCD.c ****     * Note:
 643:Generated_Source\PSoC4/LCD.c ****     *  This function is implemented as a macro.
 644:Generated_Source\PSoC4/LCD.c ****     *
 645:Generated_Source\PSoC4/LCD.c ****     *******************************************************************************/
 646:Generated_Source\PSoC4/LCD.c **** 
 647:Generated_Source\PSoC4/LCD.c ****     
 648:Generated_Source\PSoC4/LCD.c ****     /*******************************************************************************
 649:Generated_Source\PSoC4/LCD.c ****     *  Function Name: LCD_PrintU32Number
 650:Generated_Source\PSoC4/LCD.c ****     ********************************************************************************
 651:Generated_Source\PSoC4/LCD.c ****     *
 652:Generated_Source\PSoC4/LCD.c ****     * Summary:
 653:Generated_Source\PSoC4/LCD.c ****     *  Print an uint32 value as a left-justified decimal value.
 654:Generated_Source\PSoC4/LCD.c ****     *
 655:Generated_Source\PSoC4/LCD.c ****     * Parameters:
 656:Generated_Source\PSoC4/LCD.c ****     *  value: A 32-bit value to be printed in ASCII characters as a decimal number
 657:Generated_Source\PSoC4/LCD.c ****     *
 658:Generated_Source\PSoC4/LCD.c ****     * Return:
 659:Generated_Source\PSoC4/LCD.c ****     *  None.
 660:Generated_Source\PSoC4/LCD.c ****     *
 661:Generated_Source\PSoC4/LCD.c ****     *******************************************************************************/
 662:Generated_Source\PSoC4/LCD.c ****     void LCD_PrintU32Number(uint32 value) 
 663:Generated_Source\PSoC4/LCD.c ****     {
 1010              		.loc 1 663 0
 1011              		.cfi_startproc
 1012 0000 80B5     		push	{r7, lr}
 1013              		.cfi_def_cfa_offset 8
 1014              		.cfi_offset 7, -8
 1015              		.cfi_offset 14, -4
 1016 0002 86B0     		sub	sp, sp, #24
 1017              		.cfi_def_cfa_offset 32
 1018 0004 00AF     		add	r7, sp, #0
 1019              		.cfi_def_cfa_register 7
 1020 0006 7860     		str	r0, [r7, #4]
 664:Generated_Source\PSoC4/LCD.c ****         uint8 tmpDigit;
 665:Generated_Source\PSoC4/LCD.c ****         char8 number[LCD_NUMBER_OF_REMAINDERS_U32 + 1u];
 666:Generated_Source\PSoC4/LCD.c ****         uint8 digIndex = LCD_NUMBER_OF_REMAINDERS_U32;
 1021              		.loc 1 666 0
 1022 0008 1723     		mov	r3, #23
 1023 000a FB18     		add	r3, r7, r3
 1024 000c 0A22     		mov	r2, #10
 1025 000e 1A70     		strb	r2, [r3]
 667:Generated_Source\PSoC4/LCD.c ****         
 668:Generated_Source\PSoC4/LCD.c ****         /* This API will output a decimal number as a string and that string will be 
 669:Generated_Source\PSoC4/LCD.c ****         * filled from end to start. Set Null termination character first.
 670:Generated_Source\PSoC4/LCD.c ****         */
 671:Generated_Source\PSoC4/LCD.c ****         number[digIndex] = (char8) '\0';
 1026              		.loc 1 671 0
 1027 0010 1723     		mov	r3, #23
 1028 0012 FB18     		add	r3, r7, r3
ARM GAS  C:\Users\Petro\AppData\Local\Temp\cc1PwwXd.s 			page 31


 1029 0014 1B78     		ldrb	r3, [r3]
 1030 0016 0822     		mov	r2, #8
 1031 0018 BA18     		add	r2, r7, r2
 1032 001a 0021     		mov	r1, #0
 1033 001c D154     		strb	r1, [r2, r3]
 672:Generated_Source\PSoC4/LCD.c ****         digIndex--;
 1034              		.loc 1 672 0
 1035 001e 1723     		mov	r3, #23
 1036 0020 FB18     		add	r3, r7, r3
 1037 0022 1A78     		ldrb	r2, [r3]
 1038 0024 1723     		mov	r3, #23
 1039 0026 FB18     		add	r3, r7, r3
 1040 0028 013A     		sub	r2, r2, #1
 1041 002a 1A70     		strb	r2, [r3]
 673:Generated_Source\PSoC4/LCD.c ****         
 674:Generated_Source\PSoC4/LCD.c ****         /* Load these in reverse order */
 675:Generated_Source\PSoC4/LCD.c ****         while(value >= LCD_TEN)
 1042              		.loc 1 675 0
 1043 002c 21E0     		b	.L48
 1044              	.L49:
 676:Generated_Source\PSoC4/LCD.c ****         {
 677:Generated_Source\PSoC4/LCD.c ****             /* Extract decimal digit, indexed by 'digIndex', from 'value' and
 678:Generated_Source\PSoC4/LCD.c ****             * convert it to ASCII character.
 679:Generated_Source\PSoC4/LCD.c ****             */
 680:Generated_Source\PSoC4/LCD.c ****             tmpDigit = (uint8) (((uint8) (value % LCD_TEN)) + (uint8) LCD_ZERO_CHAR_ASCII);
 1045              		.loc 1 680 0
 1046 002e 7B68     		ldr	r3, [r7, #4]
 1047 0030 181C     		mov	r0, r3
 1048 0032 0A21     		mov	r1, #10
 1049 0034 FFF7FEFF 		bl	__aeabi_uidivmod
 1050 0038 0B1C     		mov	r3, r1
 1051 003a DAB2     		uxtb	r2, r3
 1052 003c 1623     		mov	r3, #22
 1053 003e FB18     		add	r3, r7, r3
 1054 0040 3032     		add	r2, r2, #48
 1055 0042 1A70     		strb	r2, [r3]
 681:Generated_Source\PSoC4/LCD.c ****             
 682:Generated_Source\PSoC4/LCD.c ****             /* Temporary variable 'tmpDigit' is used to avoid Violation of MISRA rule 
 683:Generated_Source\PSoC4/LCD.c ****             * #10.3.
 684:Generated_Source\PSoC4/LCD.c ****             */
 685:Generated_Source\PSoC4/LCD.c ****             number[digIndex] = (char8) tmpDigit;
 1056              		.loc 1 685 0
 1057 0044 1723     		mov	r3, #23
 1058 0046 FB18     		add	r3, r7, r3
 1059 0048 1B78     		ldrb	r3, [r3]
 1060 004a 0822     		mov	r2, #8
 1061 004c BA18     		add	r2, r7, r2
 1062 004e 1621     		mov	r1, #22
 1063 0050 7918     		add	r1, r7, r1
 1064 0052 0978     		ldrb	r1, [r1]
 1065 0054 D154     		strb	r1, [r2, r3]
 686:Generated_Source\PSoC4/LCD.c ****             value /= LCD_TEN;
 1066              		.loc 1 686 0
 1067 0056 7B68     		ldr	r3, [r7, #4]
 1068 0058 181C     		mov	r0, r3
 1069 005a 0A21     		mov	r1, #10
 1070 005c FFF7FEFF 		bl	__aeabi_uidiv
ARM GAS  C:\Users\Petro\AppData\Local\Temp\cc1PwwXd.s 			page 32


 1071 0060 031C     		mov	r3, r0
 1072 0062 7B60     		str	r3, [r7, #4]
 687:Generated_Source\PSoC4/LCD.c ****             digIndex--;
 1073              		.loc 1 687 0
 1074 0064 1723     		mov	r3, #23
 1075 0066 FB18     		add	r3, r7, r3
 1076 0068 1A78     		ldrb	r2, [r3]
 1077 006a 1723     		mov	r3, #23
 1078 006c FB18     		add	r3, r7, r3
 1079 006e 013A     		sub	r2, r2, #1
 1080 0070 1A70     		strb	r2, [r3]
 1081              	.L48:
 675:Generated_Source\PSoC4/LCD.c ****         {
 1082              		.loc 1 675 0
 1083 0072 7B68     		ldr	r3, [r7, #4]
 1084 0074 092B     		cmp	r3, #9
 1085 0076 DAD8     		bhi	.L49
 688:Generated_Source\PSoC4/LCD.c ****         }
 689:Generated_Source\PSoC4/LCD.c ****         
 690:Generated_Source\PSoC4/LCD.c ****         /* Extract last decimal digit 'digIndex', from the 'value' and convert it
 691:Generated_Source\PSoC4/LCD.c ****         * to ASCII character.
 692:Generated_Source\PSoC4/LCD.c ****         */
 693:Generated_Source\PSoC4/LCD.c ****         tmpDigit = (uint8) (((uint8)(value % LCD_TEN)) + (uint8) LCD_ZERO_CHAR_ASCII);
 1086              		.loc 1 693 0
 1087 0078 7B68     		ldr	r3, [r7, #4]
 1088 007a 181C     		mov	r0, r3
 1089 007c 0A21     		mov	r1, #10
 1090 007e FFF7FEFF 		bl	__aeabi_uidivmod
 1091 0082 0B1C     		mov	r3, r1
 1092 0084 DAB2     		uxtb	r2, r3
 1093 0086 1623     		mov	r3, #22
 1094 0088 FB18     		add	r3, r7, r3
 1095 008a 3032     		add	r2, r2, #48
 1096 008c 1A70     		strb	r2, [r3]
 694:Generated_Source\PSoC4/LCD.c ****         number[digIndex] = (char8) tmpDigit;
 1097              		.loc 1 694 0
 1098 008e 1723     		mov	r3, #23
 1099 0090 FB18     		add	r3, r7, r3
 1100 0092 1B78     		ldrb	r3, [r3]
 1101 0094 0822     		mov	r2, #8
 1102 0096 BA18     		add	r2, r7, r2
 1103 0098 1621     		mov	r1, #22
 1104 009a 7918     		add	r1, r7, r1
 1105 009c 0978     		ldrb	r1, [r1]
 1106 009e D154     		strb	r1, [r2, r3]
 695:Generated_Source\PSoC4/LCD.c **** 
 696:Generated_Source\PSoC4/LCD.c ****         /* Print out number */
 697:Generated_Source\PSoC4/LCD.c ****         LCD_PrintString(&number[digIndex]);
 1107              		.loc 1 697 0
 1108 00a0 1723     		mov	r3, #23
 1109 00a2 FB18     		add	r3, r7, r3
 1110 00a4 1B78     		ldrb	r3, [r3]
 1111 00a6 0822     		mov	r2, #8
 1112 00a8 BA18     		add	r2, r7, r2
 1113 00aa D318     		add	r3, r2, r3
 1114 00ac 181C     		mov	r0, r3
 1115 00ae FFF7FEFF 		bl	LCD_PrintString
ARM GAS  C:\Users\Petro\AppData\Local\Temp\cc1PwwXd.s 			page 33


 698:Generated_Source\PSoC4/LCD.c ****     }
 1116              		.loc 1 698 0
 1117 00b2 BD46     		mov	sp, r7
 1118 00b4 06B0     		add	sp, sp, #24
 1119              		@ sp needed
 1120 00b6 80BD     		pop	{r7, pc}
 1121              		.cfi_endproc
 1122              	.LFE17:
 1123              		.size	LCD_PrintU32Number, .-LCD_PrintU32Number
 1124              		.section	.rodata
 1125              		.align	2
 1126              		.type	LCD_hex.4824, %object
 1127              		.size	LCD_hex.4824, 16
 1128              	LCD_hex.4824:
 1129 0000 30313233 		.ascii	"0123456789ABCDEF"
 1129      34353637 
 1129      38394142 
 1129      43444546 
 1130              		.text
 1131              	.Letext0:
 1132              		.file 2 "Generated_Source\\PSoC4\\cytypes.h"
 1133              		.file 3 "Generated_Source\\PSoC4\\LCD.h"