ARM GAS  C:\Users\Petro\AppData\Local\Temp\ccNOgfdU.s 			page 1


   1              		.cpu cortex-m0
   2              		.fpu softvfp
   3              		.eabi_attribute 20, 1
   4              		.eabi_attribute 21, 1
   5              		.eabi_attribute 23, 3
   6              		.eabi_attribute 24, 1
   7              		.eabi_attribute 25, 1
   8              		.eabi_attribute 26, 1
   9              		.eabi_attribute 30, 6
  10              		.eabi_attribute 34, 0
  11              		.eabi_attribute 18, 4
  12              		.code	16
  13              		.file	"network.c"
  14              		.text
  15              	.Ltext0:
  16              		.cfi_sections	.debug_frame
  17              		.comm	inData,24,8
  18              		.comm	outData,24,8
  19              		.comm	previousData,100,4
  20              		.bss
  21              		.align	2
  22              	networkStatus:
  23 0000 00000000 		.space	4
  24              		.align	2
  25              	noConnect:
  26 0004 00000000 		.space	4
  27              		.align	2
  28              	finNoReady:
  29 0008 00000000 		.space	4
  30              		.comm	unixTime,16,4
  31              		.comm	millisTime,8,4
  32              		.section	.text.InitNetwork,"ax",%progbits
  33              		.align	2
  34              		.global	InitNetwork
  35              		.code	16
  36              		.thumb_func
  37              		.type	InitNetwork, %function
  38              	InitNetwork:
  39              	.LFB28:
  40              		.file 1 "lib_Network\\network.c"
   1:lib_Network/network.c **** 
   2:lib_Network/network.c **** #include "lib_Network\network.h"
   3:lib_Network/network.c **** #include <UART_XB.h>
   4:lib_Network/network.c **** #include <UART_XB_SPI_UART.h>
   5:lib_Network/network.c **** #include <RTC.h>
   6:lib_Network/network.c **** 
   7:lib_Network/network.c **** #ifdef DEBUG_INFO
   8:lib_Network/network.c ****     #include "SW_UART_DEBUG.h"
   9:lib_Network/network.c **** #endif
  10:lib_Network/network.c **** #ifdef DEBUG_TIME
  11:lib_Network/network.c ****     #include <debug.h>
  12:lib_Network/network.c **** #endif
  13:lib_Network/network.c **** #ifdef DEBUG_NTP
  14:lib_Network/network.c ****     #include <debugntp.h>
  15:lib_Network/network.c **** #endif
  16:lib_Network/network.c **** 
  17:lib_Network/network.c **** #include <stdio.h>
ARM GAS  C:\Users\Petro\AppData\Local\Temp\ccNOgfdU.s 			page 2


  18:lib_Network/network.c **** #include "lib_Network\svt.h"
  19:lib_Network/network.c **** #include "lib_RTC\RTC_WDT.h"
  20:lib_Network/network.c **** #include "lib_Network\ntp.h"
  21:lib_Network/network.c **** #include "lib_Display\display.h"
  22:lib_Network/network.c **** 
  23:lib_Network/network.c **** #define MIN_DELAYMS 150
  24:lib_Network/network.c **** 
  25:lib_Network/network.c **** /*size buffer*/
  26:lib_Network/network.c **** #define DATA_BUFFER   50
  27:lib_Network/network.c **** #define RX_BUFFER   
  28:lib_Network/network.c **** 
  29:lib_Network/network.c **** #define ADRESS_READY        8
  30:lib_Network/network.c **** #define ADRESS_REBOOT       9
  31:lib_Network/network.c **** #define ADRESS_COUNT_SK     10
  32:lib_Network/network.c **** 
  33:lib_Network/network.c **** #define MASK_HIGH   0xFFFFFFFF00000000
  34:lib_Network/network.c **** #define MASK_LOW    0x00000000FFFFFFFF
  35:lib_Network/network.c **** #define DATA_SHIFT  32
  36:lib_Network/network.c **** 
  37:lib_Network/network.c **** #define TIMEOUT_FIN_READY   3
  38:lib_Network/network.c **** 
  39:lib_Network/network.c **** /*for NTP protocol*/
  40:lib_Network/network.c **** #define NUM_TRY_SYNC        14
  41:lib_Network/network.c **** #define NUM_CONNECT_ATTEMPS 1000
  42:lib_Network/network.c **** 
  43:lib_Network/network.c **** #define SAVE_TIME           1
  44:lib_Network/network.c **** #define NETWORK_TIMEOUT     50
  45:lib_Network/network.c **** #define NEW_SKIER_IN_TARCK   1
  46:lib_Network/network.c **** 
  47:lib_Network/network.c **** 
  48:lib_Network/network.c **** /*segment time*/
  49:lib_Network/network.c **** #define T1                  0
  50:lib_Network/network.c **** #define T2                  1
  51:lib_Network/network.c **** #define T3                  2
  52:lib_Network/network.c **** #define T4                  3
  53:lib_Network/network.c **** 
  54:lib_Network/network.c **** #define CORRECTION_TIME     0
  55:lib_Network/network.c **** 
  56:lib_Network/network.c **** typedef struct
  57:lib_Network/network.c **** {
  58:lib_Network/network.c ****     uint8_t IDpacket;
  59:lib_Network/network.c ****     uint8_t ready;
  60:lib_Network/network.c ****     uint8_t reboot;
  61:lib_Network/network.c ****     uint8_t countSkiers;
  62:lib_Network/network.c ****     uint64_t tmpTime;
  63:lib_Network/network.c ****     uint16_t tmpMsTime;
  64:lib_Network/network.c ****     uint8_t readStatus;
  65:lib_Network/network.c **** }FinishData;
  66:lib_Network/network.c **** 
  67:lib_Network/network.c **** typedef struct
  68:lib_Network/network.c **** {
  69:lib_Network/network.c ****     uint8_t IDpacket;
  70:lib_Network/network.c ****     uint64_t unixStartTime;
  71:lib_Network/network.c ****     uint16_t startMsTime;
  72:lib_Network/network.c ****     uint8_t newSkier;
  73:lib_Network/network.c ****     uint8_t writeStatus;
  74:lib_Network/network.c ****     uint8_t reboot;     /*reboot=1, not reboot=0*/
ARM GAS  C:\Users\Petro\AppData\Local\Temp\ccNOgfdU.s 			page 3


  75:lib_Network/network.c **** }StartData;
  76:lib_Network/network.c **** 
  77:lib_Network/network.c **** FinishData inData;
  78:lib_Network/network.c **** StartData outData;
  79:lib_Network/network.c **** 
  80:lib_Network/network.c **** char previousData[100];
  81:lib_Network/network.c **** 
  82:lib_Network/network.c **** static uint32_t networkStatus;
  83:lib_Network/network.c **** static int noConnect;
  84:lib_Network/network.c **** static int finNoReady;
  85:lib_Network/network.c **** uint32_t unixTime[4];
  86:lib_Network/network.c **** uint16_t millisTime[4];
  87:lib_Network/network.c **** 
  88:lib_Network/network.c **** #ifdef DEBUG_INFO
  89:lib_Network/network.c ****     char uartBuff[50];
  90:lib_Network/network.c **** #endif
  91:lib_Network/network.c **** 
  92:lib_Network/network.c **** uint32_t ReceiveRealTime(void);
  93:lib_Network/network.c **** void NTPsendTime(uint32_t unixTime2,uint32_t unixTime3,uint16_t millis2,uint16_t millis3, uint16_t 
  94:lib_Network/network.c **** uint32_t NTPreceiveTime(uint32_t *unixTime2,uint16_t *millis2, uint16_t *IDreceive, uint32_t saveTi
  95:lib_Network/network.c **** 
  96:lib_Network/network.c **** /*******************************************************************************
  97:lib_Network/network.c **** * Function Name: InitNetwork
  98:lib_Network/network.c **** ********************************************************************************
  99:lib_Network/network.c **** *
 100:lib_Network/network.c **** * Summary:
 101:lib_Network/network.c **** *   initialization UART for XBee module
 102:lib_Network/network.c **** *
 103:lib_Network/network.c **** *******************************************************************************/
 104:lib_Network/network.c **** void InitNetwork(void)
 105:lib_Network/network.c **** {
  41              		.loc 1 105 0
  42              		.cfi_startproc
  43 0000 80B5     		push	{r7, lr}
  44              		.cfi_def_cfa_offset 8
  45              		.cfi_offset 7, -8
  46              		.cfi_offset 14, -4
  47 0002 00AF     		add	r7, sp, #0
  48              		.cfi_def_cfa_register 7
 106:lib_Network/network.c ****     UART_XB_Start();
  49              		.loc 1 106 0
  50 0004 FFF7FEFF 		bl	UART_XB_Start
 107:lib_Network/network.c ****     
 108:lib_Network/network.c ****     #ifdef DEBUG_INFO
 109:lib_Network/network.c ****         SW_UART_DEBUG_Start();
 110:lib_Network/network.c ****         SW_UART_DEBUG_PutString("HElLO, IM READY(start)\n\r");
 111:lib_Network/network.c ****     #endif
 112:lib_Network/network.c ****     
 113:lib_Network/network.c ****     inData.readStatus = NO_READ;
  51              		.loc 1 113 0
  52 0008 074B     		ldr	r3, .L2
  53 000a 0022     		mov	r2, #0
  54 000c 9A74     		strb	r2, [r3, #18]
 114:lib_Network/network.c ****     outData.writeStatus = WRITE_OK;
  55              		.loc 1 114 0
  56 000e 074B     		ldr	r3, .L2+4
  57 0010 0122     		mov	r2, #1
ARM GAS  C:\Users\Petro\AppData\Local\Temp\ccNOgfdU.s 			page 4


  58 0012 DA74     		strb	r2, [r3, #19]
 115:lib_Network/network.c ****     outData.IDpacket = 0xFF;
  59              		.loc 1 115 0
  60 0014 054B     		ldr	r3, .L2+4
  61 0016 FF22     		mov	r2, #255
  62 0018 1A70     		strb	r2, [r3]
 116:lib_Network/network.c ****     networkStatus = NETWORK_DISCONN;   
  63              		.loc 1 116 0
  64 001a 054B     		ldr	r3, .L2+8
  65 001c 0022     		mov	r2, #0
  66 001e 1A60     		str	r2, [r3]
 117:lib_Network/network.c ****     UART_XB_SpiUartClearRxBuffer();
  67              		.loc 1 117 0
  68 0020 FFF7FEFF 		bl	UART_XB_SpiUartClearRxBuffer
 118:lib_Network/network.c **** }
  69              		.loc 1 118 0
  70 0024 BD46     		mov	sp, r7
  71              		@ sp needed
  72 0026 80BD     		pop	{r7, pc}
  73              	.L3:
  74              		.align	2
  75              	.L2:
  76 0028 00000000 		.word	inData
  77 002c 00000000 		.word	outData
  78 0030 00000000 		.word	networkStatus
  79              		.cfi_endproc
  80              	.LFE28:
  81              		.size	InitNetwork, .-InitNetwork
  82              		.section	.rodata
  83              		.align	2
  84              	.LC6:
  85 0000 25303258 		.ascii	"%02X:%08X%08X%04X%02X%02X\000"
  85      3A253038 
  85      58253038 
  85      58253034 
  85      58253032 
  86              		.section	.text.SendData,"ax",%progbits
  87              		.align	2
  88              		.global	SendData
  89              		.code	16
  90              		.thumb_func
  91              		.type	SendData, %function
  92              	SendData:
  93              	.LFB29:
 119:lib_Network/network.c **** 
 120:lib_Network/network.c **** /*******************************************************************************
 121:lib_Network/network.c **** * Function Name: SendData
 122:lib_Network/network.c **** ********************************************************************************
 123:lib_Network/network.c **** *
 124:lib_Network/network.c **** * Summary:
 125:lib_Network/network.c **** *   send data to start from struct "outData"
 126:lib_Network/network.c **** *
 127:lib_Network/network.c **** *******************************************************************************/
 128:lib_Network/network.c **** void SendData(void)
 129:lib_Network/network.c **** {
  94              		.loc 1 129 0
  95              		.cfi_startproc
ARM GAS  C:\Users\Petro\AppData\Local\Temp\ccNOgfdU.s 			page 5


  96 0000 F0B5     		push	{r4, r5, r6, r7, lr}
  97              		.cfi_def_cfa_offset 20
  98              		.cfi_offset 4, -20
  99              		.cfi_offset 5, -16
 100              		.cfi_offset 6, -12
 101              		.cfi_offset 7, -8
 102              		.cfi_offset 14, -4
 103 0002 9FB0     		sub	sp, sp, #124
 104              		.cfi_def_cfa_offset 144
 105 0004 04AF     		add	r7, sp, #16
 106              		.cfi_def_cfa 7, 128
 130:lib_Network/network.c ****     if(outData.writeStatus == NO_WRITE && inData.readStatus == READ_OK)
 107              		.loc 1 130 0
 108 0006 314B     		ldr	r3, .L7
 109 0008 DB7C     		ldrb	r3, [r3, #19]
 110 000a 002B     		cmp	r3, #0
 111 000c 5AD1     		bne	.L4
 112              		.loc 1 130 0 is_stmt 0 discriminator 1
 113 000e 304B     		ldr	r3, .L7+4
 114 0010 9B7C     		ldrb	r3, [r3, #18]
 115 0012 012B     		cmp	r3, #1
 116 0014 56D1     		bne	.L4
 131:lib_Network/network.c ****     { 
 132:lib_Network/network.c ****         if (inData.IDpacket == outData.IDpacket)
 117              		.loc 1 132 0 is_stmt 1
 118 0016 2E4B     		ldr	r3, .L7+4
 119 0018 1878     		ldrb	r0, [r3]
 120 001a 2C4B     		ldr	r3, .L7
 121 001c 1B78     		ldrb	r3, [r3]
 122 001e 9842     		cmp	r0, r3
 123 0020 0AD1     		bne	.L6
 133:lib_Network/network.c ****         {
 134:lib_Network/network.c ****             /*send previous packet*/
 135:lib_Network/network.c ****             
 136:lib_Network/network.c ****             UART_XB_UartPutString(previousData);
 124              		.loc 1 136 0
 125 0022 2C4B     		ldr	r3, .L7+8
 126 0024 181C     		mov	r0, r3
 127 0026 FFF7FEFF 		bl	UART_XB_UartPutString
 137:lib_Network/network.c ****             outData.writeStatus = WRITE_OK;
 128              		.loc 1 137 0
 129 002a 284B     		ldr	r3, .L7
 130 002c 0122     		mov	r2, #1
 131 002e DA74     		strb	r2, [r3, #19]
 138:lib_Network/network.c ****             inData.readStatus = NO_READ;
 132              		.loc 1 138 0
 133 0030 274B     		ldr	r3, .L7+4
 134 0032 0022     		mov	r2, #0
 135 0034 9A74     		strb	r2, [r3, #18]
 136 0036 45E0     		b	.L4
 137              	.L6:
 138              	.LBB2:
 139:lib_Network/network.c ****         }
 140:lib_Network/network.c ****         else
 141:lib_Network/network.c ****         {
 142:lib_Network/network.c ****             /*send nex packet*/
 143:lib_Network/network.c ****             
ARM GAS  C:\Users\Petro\AppData\Local\Temp\ccNOgfdU.s 			page 6


 144:lib_Network/network.c ****             char sendBuffer[DATA_BUFFER];
 145:lib_Network/network.c ****             char sendData[DATA_BUFFER];
 146:lib_Network/network.c ****             
 147:lib_Network/network.c ****             /*pack data*/
 148:lib_Network/network.c ****             sprintf(sendData,"%02X:%08X%08X%04X%02X%02X",
 149:lib_Network/network.c ****                     0u,
 150:lib_Network/network.c ****                     (uint32_t)((outData.unixStartTime & MASK_HIGH) >> DATA_SHIFT), 
 139              		.loc 1 150 0
 140 0038 244B     		ldr	r3, .L7
 141 003a DC68     		ldr	r4, [r3, #12]
 142 003c 9B68     		ldr	r3, [r3, #8]
 143 003e 2100     		lsr	r1, r4, #0
 144 0040 0023     		mov	r3, #0
 145 0042 1A1C     		mov	r2, r3
 148:lib_Network/network.c ****                     0u,
 146              		.loc 1 148 0
 147 0044 0E1C     		mov	r6, r1
 151:lib_Network/network.c ****                     (uint32_t)(outData.unixStartTime & MASK_LOW), 
 148              		.loc 1 151 0
 149 0046 214B     		ldr	r3, .L7
 150 0048 DC68     		ldr	r4, [r3, #12]
 151 004a 9B68     		ldr	r3, [r3, #8]
 148:lib_Network/network.c ****                     0u,
 152              		.loc 1 148 0
 153 004c 1D1C     		mov	r5, r3
 152:lib_Network/network.c ****                     outData.startMsTime, 
 154              		.loc 1 152 0
 155 004e 1F4B     		ldr	r3, .L7
 156 0050 1B8A     		ldrh	r3, [r3, #16]
 148:lib_Network/network.c ****                     0u,
 157              		.loc 1 148 0
 158 0052 1C1C     		mov	r4, r3
 153:lib_Network/network.c ****                     outData.newSkier, 
 159              		.loc 1 153 0
 160 0054 1D4B     		ldr	r3, .L7
 161 0056 9B7C     		ldrb	r3, [r3, #18]
 148:lib_Network/network.c ****                     0u,
 162              		.loc 1 148 0
 163 0058 181C     		mov	r0, r3
 154:lib_Network/network.c ****                     outData.reboot);
 164              		.loc 1 154 0
 165 005a 1C4B     		ldr	r3, .L7
 166 005c 1B7D     		ldrb	r3, [r3, #20]
 148:lib_Network/network.c ****                     0u,
 167              		.loc 1 148 0
 168 005e 191C     		mov	r1, r3
 169 0060 3423     		mov	r3, #52
 170 0062 FA18     		add	r2, r7, r3
 171 0064 1C4B     		ldr	r3, .L7+12
 172 0066 0095     		str	r5, [sp]
 173 0068 0194     		str	r4, [sp, #4]
 174 006a 0290     		str	r0, [sp, #8]
 175 006c 0391     		str	r1, [sp, #12]
 176 006e 101C     		mov	r0, r2
 177 0070 191C     		mov	r1, r3
 178 0072 0022     		mov	r2, #0
 179 0074 331C     		mov	r3, r6
ARM GAS  C:\Users\Petro\AppData\Local\Temp\ccNOgfdU.s 			page 7


 180 0076 FFF7FEFF 		bl	sprintf
 155:lib_Network/network.c ****             
 156:lib_Network/network.c ****             
 157:lib_Network/network.c ****             PackData(sendBuffer, (uint8_t *)sendData, inData.IDpacket);
 181              		.loc 1 157 0
 182 007a 154B     		ldr	r3, .L7+4
 183 007c 1B78     		ldrb	r3, [r3]
 184 007e 9BB2     		uxth	r3, r3
 185 0080 391C     		mov	r1, r7
 186 0082 3422     		mov	r2, #52
 187 0084 BA18     		add	r2, r7, r2
 188 0086 081C     		mov	r0, r1
 189 0088 111C     		mov	r1, r2
 190 008a 1A1C     		mov	r2, r3
 191 008c FFF7FEFF 		bl	PackData
 158:lib_Network/network.c ****             UART_XB_UartPutString(sendBuffer);            
 192              		.loc 1 158 0
 193 0090 3B1C     		mov	r3, r7
 194 0092 181C     		mov	r0, r3
 195 0094 FFF7FEFF 		bl	UART_XB_UartPutString
 159:lib_Network/network.c **** 
 160:lib_Network/network.c ****             outData.newSkier = !NEW_SKIER_IN_TARCK;
 196              		.loc 1 160 0
 197 0098 0C4B     		ldr	r3, .L7
 198 009a 0022     		mov	r2, #0
 199 009c 9A74     		strb	r2, [r3, #18]
 161:lib_Network/network.c ****                 
 162:lib_Network/network.c ****             outData.writeStatus = WRITE_OK;
 200              		.loc 1 162 0
 201 009e 0B4B     		ldr	r3, .L7
 202 00a0 0122     		mov	r2, #1
 203 00a2 DA74     		strb	r2, [r3, #19]
 163:lib_Network/network.c ****             outData.IDpacket = inData.IDpacket;
 204              		.loc 1 163 0
 205 00a4 0A4B     		ldr	r3, .L7+4
 206 00a6 1A78     		ldrb	r2, [r3]
 207 00a8 084B     		ldr	r3, .L7
 208 00aa 1A70     		strb	r2, [r3]
 164:lib_Network/network.c ****             inData.readStatus = NO_READ;
 209              		.loc 1 164 0
 210 00ac 084B     		ldr	r3, .L7+4
 211 00ae 0022     		mov	r2, #0
 212 00b0 9A74     		strb	r2, [r3, #18]
 165:lib_Network/network.c ****             strcpy(previousData, sendBuffer);
 213              		.loc 1 165 0
 214 00b2 084A     		ldr	r2, .L7+8
 215 00b4 3B1C     		mov	r3, r7
 216 00b6 101C     		mov	r0, r2
 217 00b8 191C     		mov	r1, r3
 218 00ba FFF7FEFF 		bl	strcpy
 166:lib_Network/network.c ****             
 167:lib_Network/network.c ****             CyDelay(50);
 219              		.loc 1 167 0
 220 00be 3220     		mov	r0, #50
 221 00c0 FFF7FEFF 		bl	CyDelay
 222              	.L4:
 223              	.LBE2:
ARM GAS  C:\Users\Petro\AppData\Local\Temp\ccNOgfdU.s 			page 8


 168:lib_Network/network.c ****         }
 169:lib_Network/network.c ****     }
 170:lib_Network/network.c **** }
 224              		.loc 1 170 0
 225 00c4 BD46     		mov	sp, r7
 226 00c6 1BB0     		add	sp, sp, #108
 227              		@ sp needed
 228 00c8 F0BD     		pop	{r4, r5, r6, r7, pc}
 229              	.L8:
 230 00ca C046     		.align	2
 231              	.L7:
 232 00cc 00000000 		.word	outData
 233 00d0 00000000 		.word	inData
 234 00d4 00000000 		.word	previousData
 235 00d8 00000000 		.word	.LC6
 236              		.cfi_endproc
 237              	.LFE29:
 238              		.size	SendData, .-SendData
 239              		.section	.text.ReceiveData,"ax",%progbits
 240              		.align	2
 241              		.global	ReceiveData
 242              		.code	16
 243              		.thumb_func
 244              		.type	ReceiveData, %function
 245              	ReceiveData:
 246              	.LFB30:
 171:lib_Network/network.c **** 
 172:lib_Network/network.c **** 
 173:lib_Network/network.c **** /*******************************************************************************
 174:lib_Network/network.c **** * Function Name: ReceiveData
 175:lib_Network/network.c **** ********************************************************************************
 176:lib_Network/network.c **** *
 177:lib_Network/network.c **** * Summary:
 178:lib_Network/network.c **** *   receive data from start in struct "inData"
 179:lib_Network/network.c **** * Return:
 180:lib_Network/network.c **** *   NETWORK_CONNECT or NETWORK_DISCONNECT
 181:lib_Network/network.c **** *
 182:lib_Network/network.c **** *******************************************************************************/
 183:lib_Network/network.c **** uint32_t ReceiveData(void)
 184:lib_Network/network.c **** {
 247              		.loc 1 184 0
 248              		.cfi_startproc
 249 0000 80B5     		push	{r7, lr}
 250              		.cfi_def_cfa_offset 8
 251              		.cfi_offset 7, -8
 252              		.cfi_offset 14, -4
 253 0002 8AB0     		sub	sp, sp, #40
 254              		.cfi_def_cfa_offset 48
 255 0004 00AF     		add	r7, sp, #0
 256              		.cfi_def_cfa_register 7
 185:lib_Network/network.c ****     if(outData.writeStatus == WRITE_OK && inData.readStatus == NO_READ)
 257              		.loc 1 185 0
 258 0006 2D4B     		ldr	r3, .L17
 259 0008 DB7C     		ldrb	r3, [r3, #19]
 260 000a 012B     		cmp	r3, #1
 261 000c 51D1     		bne	.L10
 262              		.loc 1 185 0 is_stmt 0 discriminator 1
ARM GAS  C:\Users\Petro\AppData\Local\Temp\ccNOgfdU.s 			page 9


 263 000e 2C4B     		ldr	r3, .L17+4
 264 0010 9B7C     		ldrb	r3, [r3, #18]
 265 0012 002B     		cmp	r3, #0
 266 0014 4DD1     		bne	.L10
 267              	.LBB3:
 186:lib_Network/network.c ****     {
 187:lib_Network/network.c ****         uint32_t byte;
 188:lib_Network/network.c ****         struct Resp recvData;
 189:lib_Network/network.c ****           
 190:lib_Network/network.c ****         while((UART_XB_SpiUartGetRxBufferSize() > 0) && ((byte=UART_XB_UartGetChar()) != 0))
 268              		.loc 1 190 0 is_stmt 1
 269 0016 35E0     		b	.L11
 270              	.L14:
 191:lib_Network/network.c ****         { 
 192:lib_Network/network.c ****             UnpackData(&recvData, (uint8_t)(byte & 0xFF));
 271              		.loc 1 192 0
 272 0018 7B6A     		ldr	r3, [r7, #36]
 273 001a DBB2     		uxtb	r3, r3
 274 001c 3A1C     		mov	r2, r7
 275 001e 101C     		mov	r0, r2
 276 0020 191C     		mov	r1, r3
 277 0022 FFF7FEFF 		bl	UnpackData
 193:lib_Network/network.c ****             
 194:lib_Network/network.c ****             CyDelay(2);
 278              		.loc 1 194 0
 279 0026 0220     		mov	r0, #2
 280 0028 FFF7FEFF 		bl	CyDelay
 195:lib_Network/network.c ****             
 196:lib_Network/network.c ****             if(recvData.EndPacket == 1)
 281              		.loc 1 196 0
 282 002c 3B1C     		mov	r3, r7
 283 002e 1B7E     		ldrb	r3, [r3, #24]
 284 0030 012B     		cmp	r3, #1
 285 0032 27D1     		bne	.L11
 197:lib_Network/network.c ****             {                      
 198:lib_Network/network.c ****                 inData.IDpacket = recvData.Seq;
 286              		.loc 1 198 0
 287 0034 3B1C     		mov	r3, r7
 288 0036 1B88     		ldrh	r3, [r3]
 289 0038 DAB2     		uxtb	r2, r3
 290 003a 214B     		ldr	r3, .L17+4
 291 003c 1A70     		strb	r2, [r3]
 199:lib_Network/network.c ****                 
 200:lib_Network/network.c ****                 inData.readStatus = READ_OK;
 292              		.loc 1 200 0
 293 003e 204B     		ldr	r3, .L17+4
 294 0040 0122     		mov	r2, #1
 295 0042 9A74     		strb	r2, [r3, #18]
 201:lib_Network/network.c ****                 outData.writeStatus = NO_WRITE;
 296              		.loc 1 201 0
 297 0044 1D4B     		ldr	r3, .L17
 298 0046 0022     		mov	r2, #0
 299 0048 DA74     		strb	r2, [r3, #19]
 202:lib_Network/network.c ****                 
 203:lib_Network/network.c ****                 /*connect network*/
 204:lib_Network/network.c ****                 networkStatus = NETWORK_CONN;
 300              		.loc 1 204 0
ARM GAS  C:\Users\Petro\AppData\Local\Temp\ccNOgfdU.s 			page 10


 301 004a 1E4B     		ldr	r3, .L17+8
 302 004c 0122     		mov	r2, #1
 303 004e 1A60     		str	r2, [r3]
 205:lib_Network/network.c ****                 noConnect = 0;
 304              		.loc 1 205 0
 305 0050 1D4B     		ldr	r3, .L17+12
 306 0052 0022     		mov	r2, #0
 307 0054 1A60     		str	r2, [r3]
 206:lib_Network/network.c ****                 /*write data*/
 207:lib_Network/network.c ****                 inData.countSkiers = (recvData.Data3 & 0x00FF) << 8;
 308              		.loc 1 207 0
 309 0056 3B1C     		mov	r3, r7
 310 0058 5B8A     		ldrh	r3, [r3, #18]
 311 005a 1B02     		lsl	r3, r3, #8
 312 005c DAB2     		uxtb	r2, r3
 313 005e 184B     		ldr	r3, .L17+4
 314 0060 DA70     		strb	r2, [r3, #3]
 208:lib_Network/network.c ****                 //inData.unixStartTime = recvData.Data1;
 209:lib_Network/network.c ****                 inData.ready = (recvData.Data2 & 0xFF00) >> 8;
 315              		.loc 1 209 0
 316 0062 3B1C     		mov	r3, r7
 317 0064 1B8A     		ldrh	r3, [r3, #16]
 318 0066 1B0A     		lsr	r3, r3, #8
 319 0068 9BB2     		uxth	r3, r3
 320 006a DAB2     		uxtb	r2, r3
 321 006c 144B     		ldr	r3, .L17+4
 322 006e 5A70     		strb	r2, [r3, #1]
 210:lib_Network/network.c ****                 inData.reboot = recvData.Data2 & 0x00FF;
 323              		.loc 1 210 0
 324 0070 3B1C     		mov	r3, r7
 325 0072 1B8A     		ldrh	r3, [r3, #16]
 326 0074 DAB2     		uxtb	r2, r3
 327 0076 124B     		ldr	r3, .L17+4
 328 0078 9A70     		strb	r2, [r3, #2]
 211:lib_Network/network.c ****                 
 212:lib_Network/network.c ****                 CyDelay(50);
 329              		.loc 1 212 0
 330 007a 3220     		mov	r0, #50
 331 007c FFF7FEFF 		bl	CyDelay
 213:lib_Network/network.c **** 
 214:lib_Network/network.c ****                 return  NETWORK_CONN;  
 332              		.loc 1 214 0
 333 0080 0123     		mov	r3, #1
 334 0082 17E0     		b	.L16
 335              	.L11:
 190:lib_Network/network.c ****         { 
 336              		.loc 1 190 0
 337 0084 FFF7FEFF 		bl	UART_XB_SpiUartGetRxBufferSize
 338 0088 031E     		sub	r3, r0, #0
 339 008a 06D0     		beq	.L13
 190:lib_Network/network.c ****         { 
 340              		.loc 1 190 0 is_stmt 0 discriminator 1
 341 008c FFF7FEFF 		bl	UART_XB_UartGetChar
 342 0090 031C     		mov	r3, r0
 343 0092 7B62     		str	r3, [r7, #36]
 344 0094 7B6A     		ldr	r3, [r7, #36]
 345 0096 002B     		cmp	r3, #0
ARM GAS  C:\Users\Petro\AppData\Local\Temp\ccNOgfdU.s 			page 11


 346 0098 BED1     		bne	.L14
 347              	.L13:
 215:lib_Network/network.c ****             }
 216:lib_Network/network.c ****         }
 217:lib_Network/network.c ****         
 218:lib_Network/network.c ****         /*tyme to respond*/
 219:lib_Network/network.c ****         if(noConnect++ >= NETWORK_TIMEOUT)
 348              		.loc 1 219 0 is_stmt 1
 349 009a 0B4B     		ldr	r3, .L17+12
 350 009c 1B68     		ldr	r3, [r3]
 351 009e 591C     		add	r1, r3, #1
 352 00a0 094A     		ldr	r2, .L17+12
 353 00a2 1160     		str	r1, [r2]
 354 00a4 312B     		cmp	r3, #49
 355 00a6 02DD     		ble	.L15
 220:lib_Network/network.c ****         {
 221:lib_Network/network.c ****             networkStatus = NETWORK_DISCONN;
 356              		.loc 1 221 0
 357 00a8 064B     		ldr	r3, .L17+8
 358 00aa 0022     		mov	r2, #0
 359 00ac 1A60     		str	r2, [r3]
 360              	.L15:
 222:lib_Network/network.c ****         }
 223:lib_Network/network.c ****         return  NETWORK_DISCONN;
 361              		.loc 1 223 0
 362 00ae 0023     		mov	r3, #0
 363 00b0 00E0     		b	.L16
 364              	.L10:
 365              	.LBE3:
 224:lib_Network/network.c ****     }
 225:lib_Network/network.c ****     return 0;
 366              		.loc 1 225 0
 367 00b2 0023     		mov	r3, #0
 368              	.L16:
 226:lib_Network/network.c **** }
 369              		.loc 1 226 0 discriminator 1
 370 00b4 181C     		mov	r0, r3
 371 00b6 BD46     		mov	sp, r7
 372 00b8 0AB0     		add	sp, sp, #40
 373              		@ sp needed
 374 00ba 80BD     		pop	{r7, pc}
 375              	.L18:
 376              		.align	2
 377              	.L17:
 378 00bc 00000000 		.word	outData
 379 00c0 00000000 		.word	inData
 380 00c4 00000000 		.word	networkStatus
 381 00c8 04000000 		.word	noConnect
 382              		.cfi_endproc
 383              	.LFE30:
 384              		.size	ReceiveData, .-ReceiveData
 385              		.section	.text.NetworkStatus,"ax",%progbits
 386              		.align	2
 387              		.global	NetworkStatus
 388              		.code	16
 389              		.thumb_func
 390              		.type	NetworkStatus, %function
ARM GAS  C:\Users\Petro\AppData\Local\Temp\ccNOgfdU.s 			page 12


 391              	NetworkStatus:
 392              	.LFB31:
 227:lib_Network/network.c **** 
 228:lib_Network/network.c **** /*******************************************************************************
 229:lib_Network/network.c **** * Function Name: NetworkStatus
 230:lib_Network/network.c **** ********************************************************************************
 231:lib_Network/network.c **** *
 232:lib_Network/network.c **** * Summary:
 233:lib_Network/network.c **** *   read network status
 234:lib_Network/network.c **** * Return:
 235:lib_Network/network.c **** *   NETWORK_CONNECT or NETWORK_DISCONNECT
 236:lib_Network/network.c **** *
 237:lib_Network/network.c **** *******************************************************************************/
 238:lib_Network/network.c **** uint32_t NetworkStatus(void)
 239:lib_Network/network.c **** {
 393              		.loc 1 239 0
 394              		.cfi_startproc
 395 0000 80B5     		push	{r7, lr}
 396              		.cfi_def_cfa_offset 8
 397              		.cfi_offset 7, -8
 398              		.cfi_offset 14, -4
 399 0002 00AF     		add	r7, sp, #0
 400              		.cfi_def_cfa_register 7
 240:lib_Network/network.c ****     return networkStatus;
 401              		.loc 1 240 0
 402 0004 024B     		ldr	r3, .L21
 403 0006 1B68     		ldr	r3, [r3]
 241:lib_Network/network.c **** }
 404              		.loc 1 241 0
 405 0008 181C     		mov	r0, r3
 406 000a BD46     		mov	sp, r7
 407              		@ sp needed
 408 000c 80BD     		pop	{r7, pc}
 409              	.L22:
 410 000e C046     		.align	2
 411              	.L21:
 412 0010 00000000 		.word	networkStatus
 413              		.cfi_endproc
 414              	.LFE31:
 415              		.size	NetworkStatus, .-NetworkStatus
 416              		.section	.text.SendSkierStart,"ax",%progbits
 417              		.align	2
 418              		.global	SendSkierStart
 419              		.code	16
 420              		.thumb_func
 421              		.type	SendSkierStart, %function
 422              	SendSkierStart:
 423              	.LFB32:
 242:lib_Network/network.c **** 
 243:lib_Network/network.c **** 
 244:lib_Network/network.c **** 
 245:lib_Network/network.c **** void SendSkierStart(uint64_t unixTimeStart, uint32_t recentMs)
 246:lib_Network/network.c **** {
 424              		.loc 1 246 0
 425              		.cfi_startproc
 426 0000 90B5     		push	{r4, r7, lr}
 427              		.cfi_def_cfa_offset 12
ARM GAS  C:\Users\Petro\AppData\Local\Temp\ccNOgfdU.s 			page 13


 428              		.cfi_offset 4, -12
 429              		.cfi_offset 7, -8
 430              		.cfi_offset 14, -4
 431 0002 85B0     		sub	sp, sp, #20
 432              		.cfi_def_cfa_offset 32
 433 0004 00AF     		add	r7, sp, #0
 434              		.cfi_def_cfa_register 7
 435 0006 B860     		str	r0, [r7, #8]
 436 0008 F960     		str	r1, [r7, #12]
 437 000a 7A60     		str	r2, [r7, #4]
 247:lib_Network/network.c ****     outData.unixStartTime = unixTimeStart;
 438              		.loc 1 247 0
 439 000c 074A     		ldr	r2, .L24
 440 000e BB68     		ldr	r3, [r7, #8]
 441 0010 FC68     		ldr	r4, [r7, #12]
 442 0012 9360     		str	r3, [r2, #8]
 443 0014 D460     		str	r4, [r2, #12]
 248:lib_Network/network.c ****     outData.startMsTime = recentMs;
 444              		.loc 1 248 0
 445 0016 7B68     		ldr	r3, [r7, #4]
 446 0018 9AB2     		uxth	r2, r3
 447 001a 044B     		ldr	r3, .L24
 448 001c 1A82     		strh	r2, [r3, #16]
 249:lib_Network/network.c ****     outData.newSkier = NEW_SKIER_IN_TARCK;
 449              		.loc 1 249 0
 450 001e 034B     		ldr	r3, .L24
 451 0020 0122     		mov	r2, #1
 452 0022 9A74     		strb	r2, [r3, #18]
 250:lib_Network/network.c **** }
 453              		.loc 1 250 0
 454 0024 BD46     		mov	sp, r7
 455 0026 05B0     		add	sp, sp, #20
 456              		@ sp needed
 457 0028 90BD     		pop	{r4, r7, pc}
 458              	.L25:
 459 002a C046     		.align	2
 460              	.L24:
 461 002c 00000000 		.word	outData
 462              		.cfi_endproc
 463              	.LFE32:
 464              		.size	SendSkierStart, .-SendSkierStart
 465              		.section	.text.FinReady,"ax",%progbits
 466              		.align	2
 467              		.global	FinReady
 468              		.code	16
 469              		.thumb_func
 470              		.type	FinReady, %function
 471              	FinReady:
 472              	.LFB33:
 251:lib_Network/network.c **** 
 252:lib_Network/network.c **** 
 253:lib_Network/network.c **** uint32_t FinReady(void)
 254:lib_Network/network.c **** {
 473              		.loc 1 254 0
 474              		.cfi_startproc
 475 0000 80B5     		push	{r7, lr}
 476              		.cfi_def_cfa_offset 8
ARM GAS  C:\Users\Petro\AppData\Local\Temp\ccNOgfdU.s 			page 14


 477              		.cfi_offset 7, -8
 478              		.cfi_offset 14, -4
 479 0002 00AF     		add	r7, sp, #0
 480              		.cfi_def_cfa_register 7
 255:lib_Network/network.c ****     return inData.ready;
 481              		.loc 1 255 0
 482 0004 024B     		ldr	r3, .L28
 483 0006 5B78     		ldrb	r3, [r3, #1]
 256:lib_Network/network.c **** }
 484              		.loc 1 256 0
 485 0008 181C     		mov	r0, r3
 486 000a BD46     		mov	sp, r7
 487              		@ sp needed
 488 000c 80BD     		pop	{r7, pc}
 489              	.L29:
 490 000e C046     		.align	2
 491              	.L28:
 492 0010 00000000 		.word	inData
 493              		.cfi_endproc
 494              	.LFE33:
 495              		.size	FinReady, .-FinReady
 496              		.section	.text.FinWriteInDB,"ax",%progbits
 497              		.align	2
 498              		.global	FinWriteInDB
 499              		.code	16
 500              		.thumb_func
 501              		.type	FinWriteInDB, %function
 502              	FinWriteInDB:
 503              	.LFB34:
 257:lib_Network/network.c **** 
 258:lib_Network/network.c **** 
 259:lib_Network/network.c **** uint32_t FinWriteInDB(void)
 260:lib_Network/network.c **** {
 504              		.loc 1 260 0
 505              		.cfi_startproc
 506 0000 80B5     		push	{r7, lr}
 507              		.cfi_def_cfa_offset 8
 508              		.cfi_offset 7, -8
 509              		.cfi_offset 14, -4
 510 0002 82B0     		sub	sp, sp, #8
 511              		.cfi_def_cfa_offset 16
 512 0004 00AF     		add	r7, sp, #0
 513              		.cfi_def_cfa_register 7
 261:lib_Network/network.c ****     uint32_t result;
 262:lib_Network/network.c ****     
 263:lib_Network/network.c ****     if(outData.newSkier == NEW_SKIER_IN_TARCK)
 514              		.loc 1 263 0
 515 0006 074B     		ldr	r3, .L34
 516 0008 9B7C     		ldrb	r3, [r3, #18]
 517 000a 012B     		cmp	r3, #1
 518 000c 02D1     		bne	.L31
 264:lib_Network/network.c ****     {
 265:lib_Network/network.c ****         result = NO_WRITE;
 519              		.loc 1 265 0
 520 000e 0023     		mov	r3, #0
 521 0010 7B60     		str	r3, [r7, #4]
 522 0012 01E0     		b	.L32
ARM GAS  C:\Users\Petro\AppData\Local\Temp\ccNOgfdU.s 			page 15


 523              	.L31:
 266:lib_Network/network.c ****     }
 267:lib_Network/network.c ****     else
 268:lib_Network/network.c ****     {
 269:lib_Network/network.c ****         result = WRITE_OK;
 524              		.loc 1 269 0
 525 0014 0123     		mov	r3, #1
 526 0016 7B60     		str	r3, [r7, #4]
 527              	.L32:
 270:lib_Network/network.c ****     }
 271:lib_Network/network.c ****     
 272:lib_Network/network.c ****     return result;
 528              		.loc 1 272 0
 529 0018 7B68     		ldr	r3, [r7, #4]
 273:lib_Network/network.c **** }
 530              		.loc 1 273 0
 531 001a 181C     		mov	r0, r3
 532 001c BD46     		mov	sp, r7
 533 001e 02B0     		add	sp, sp, #8
 534              		@ sp needed
 535 0020 80BD     		pop	{r7, pc}
 536              	.L35:
 537 0022 C046     		.align	2
 538              	.L34:
 539 0024 00000000 		.word	outData
 540              		.cfi_endproc
 541              	.LFE34:
 542              		.size	FinWriteInDB, .-FinWriteInDB
 543              		.section	.text.IsRebootFinishFlag,"ax",%progbits
 544              		.align	2
 545              		.global	IsRebootFinishFlag
 546              		.code	16
 547              		.thumb_func
 548              		.type	IsRebootFinishFlag, %function
 549              	IsRebootFinishFlag:
 550              	.LFB35:
 274:lib_Network/network.c **** 
 275:lib_Network/network.c **** uint32_t IsRebootFinishFlag(void)
 276:lib_Network/network.c **** {
 551              		.loc 1 276 0
 552              		.cfi_startproc
 553 0000 80B5     		push	{r7, lr}
 554              		.cfi_def_cfa_offset 8
 555              		.cfi_offset 7, -8
 556              		.cfi_offset 14, -4
 557 0002 82B0     		sub	sp, sp, #8
 558              		.cfi_def_cfa_offset 16
 559 0004 00AF     		add	r7, sp, #0
 560              		.cfi_def_cfa_register 7
 277:lib_Network/network.c ****     uint32_t result;
 278:lib_Network/network.c ****     
 279:lib_Network/network.c ****     if(inData.reboot == 1 && outData.reboot == 0)
 561              		.loc 1 279 0
 562 0006 0D4B     		ldr	r3, .L40
 563 0008 9B78     		ldrb	r3, [r3, #2]
 564 000a 012B     		cmp	r3, #1
 565 000c 09D1     		bne	.L37
ARM GAS  C:\Users\Petro\AppData\Local\Temp\ccNOgfdU.s 			page 16


 566              		.loc 1 279 0 is_stmt 0 discriminator 1
 567 000e 0C4B     		ldr	r3, .L40+4
 568 0010 1B7D     		ldrb	r3, [r3, #20]
 569 0012 002B     		cmp	r3, #0
 570 0014 05D1     		bne	.L37
 280:lib_Network/network.c ****     {
 281:lib_Network/network.c ****         result = REBOOT;
 571              		.loc 1 281 0 is_stmt 1
 572 0016 FF23     		mov	r3, #255
 573 0018 7B60     		str	r3, [r7, #4]
 282:lib_Network/network.c ****         inData.reboot = 0;
 574              		.loc 1 282 0
 575 001a 084B     		ldr	r3, .L40
 576 001c 0022     		mov	r2, #0
 577 001e 9A70     		strb	r2, [r3, #2]
 578 0020 07E0     		b	.L38
 579              	.L37:
 283:lib_Network/network.c ****     }
 284:lib_Network/network.c ****     else
 285:lib_Network/network.c ****     {
 286:lib_Network/network.c ****         outData.reboot = 0;
 580              		.loc 1 286 0
 581 0022 074B     		ldr	r3, .L40+4
 582 0024 0022     		mov	r2, #0
 583 0026 1A75     		strb	r2, [r3, #20]
 287:lib_Network/network.c ****         inData.reboot = 0;
 584              		.loc 1 287 0
 585 0028 044B     		ldr	r3, .L40
 586 002a 0022     		mov	r2, #0
 587 002c 9A70     		strb	r2, [r3, #2]
 288:lib_Network/network.c ****         result = NO_REBOOT;
 588              		.loc 1 288 0
 589 002e FE23     		mov	r3, #254
 590 0030 7B60     		str	r3, [r7, #4]
 591              	.L38:
 289:lib_Network/network.c ****     }
 290:lib_Network/network.c ****     return result;
 592              		.loc 1 290 0
 593 0032 7B68     		ldr	r3, [r7, #4]
 291:lib_Network/network.c **** }
 594              		.loc 1 291 0
 595 0034 181C     		mov	r0, r3
 596 0036 BD46     		mov	sp, r7
 597 0038 02B0     		add	sp, sp, #8
 598              		@ sp needed
 599 003a 80BD     		pop	{r7, pc}
 600              	.L41:
 601              		.align	2
 602              	.L40:
 603 003c 00000000 		.word	inData
 604 0040 00000000 		.word	outData
 605              		.cfi_endproc
 606              	.LFE35:
 607              		.size	IsRebootFinishFlag, .-IsRebootFinishFlag
 608              		.section	.text.SetRebootFlag,"ax",%progbits
 609              		.align	2
 610              		.global	SetRebootFlag
ARM GAS  C:\Users\Petro\AppData\Local\Temp\ccNOgfdU.s 			page 17


 611              		.code	16
 612              		.thumb_func
 613              		.type	SetRebootFlag, %function
 614              	SetRebootFlag:
 615              	.LFB36:
 292:lib_Network/network.c **** 
 293:lib_Network/network.c **** void SetRebootFlag(void)
 294:lib_Network/network.c **** {
 616              		.loc 1 294 0
 617              		.cfi_startproc
 618 0000 80B5     		push	{r7, lr}
 619              		.cfi_def_cfa_offset 8
 620              		.cfi_offset 7, -8
 621              		.cfi_offset 14, -4
 622 0002 00AF     		add	r7, sp, #0
 623              		.cfi_def_cfa_register 7
 295:lib_Network/network.c ****     outData.reboot = 1;
 624              		.loc 1 295 0
 625 0004 024B     		ldr	r3, .L43
 626 0006 0122     		mov	r2, #1
 627 0008 1A75     		strb	r2, [r3, #20]
 296:lib_Network/network.c **** }
 628              		.loc 1 296 0
 629 000a BD46     		mov	sp, r7
 630              		@ sp needed
 631 000c 80BD     		pop	{r7, pc}
 632              	.L44:
 633 000e C046     		.align	2
 634              	.L43:
 635 0010 00000000 		.word	outData
 636              		.cfi_endproc
 637              	.LFE36:
 638              		.size	SetRebootFlag, .-SetRebootFlag
 639              		.section	.text.ClearRebootFlag,"ax",%progbits
 640              		.align	2
 641              		.global	ClearRebootFlag
 642              		.code	16
 643              		.thumb_func
 644              		.type	ClearRebootFlag, %function
 645              	ClearRebootFlag:
 646              	.LFB37:
 297:lib_Network/network.c **** 
 298:lib_Network/network.c **** void ClearRebootFlag(void)
 299:lib_Network/network.c **** {
 647              		.loc 1 299 0
 648              		.cfi_startproc
 649 0000 80B5     		push	{r7, lr}
 650              		.cfi_def_cfa_offset 8
 651              		.cfi_offset 7, -8
 652              		.cfi_offset 14, -4
 653 0002 00AF     		add	r7, sp, #0
 654              		.cfi_def_cfa_register 7
 300:lib_Network/network.c ****     inData.reboot = 0;
 655              		.loc 1 300 0
 656 0004 034B     		ldr	r3, .L46
 657 0006 0022     		mov	r2, #0
 658 0008 9A70     		strb	r2, [r3, #2]
ARM GAS  C:\Users\Petro\AppData\Local\Temp\ccNOgfdU.s 			page 18


 301:lib_Network/network.c ****     outData.reboot = 0;
 659              		.loc 1 301 0
 660 000a 034B     		ldr	r3, .L46+4
 661 000c 0022     		mov	r2, #0
 662 000e 1A75     		strb	r2, [r3, #20]
 302:lib_Network/network.c **** }
 663              		.loc 1 302 0
 664 0010 BD46     		mov	sp, r7
 665              		@ sp needed
 666 0012 80BD     		pop	{r7, pc}
 667              	.L47:
 668              		.align	2
 669              	.L46:
 670 0014 00000000 		.word	inData
 671 0018 00000000 		.word	outData
 672              		.cfi_endproc
 673              	.LFE37:
 674              		.size	ClearRebootFlag, .-ClearRebootFlag
 675              		.section	.text.NTPsync,"ax",%progbits
 676              		.align	2
 677              		.global	NTPsync
 678              		.code	16
 679              		.thumb_func
 680              		.type	NTPsync, %function
 681              	NTPsync:
 682              	.LFB38:
 303:lib_Network/network.c **** 
 304:lib_Network/network.c **** 
 305:lib_Network/network.c **** /*******************************************************************************
 306:lib_Network/network.c **** * Function Name: NTPsync
 307:lib_Network/network.c **** ********************************************************************************
 308:lib_Network/network.c **** *
 309:lib_Network/network.c **** * Summary:
 310:lib_Network/network.c **** *   NTP time synchronization protocol on
 311:lib_Network/network.c **** * Return:
 312:lib_Network/network.c **** *   TIME_SYNC_OK or TIME_SYNC_ERR
 313:lib_Network/network.c **** *
 314:lib_Network/network.c **** *******************************************************************************/
 315:lib_Network/network.c **** uint32_t NTPsync(void)
 316:lib_Network/network.c **** {
 683              		.loc 1 316 0
 684              		.cfi_startproc
 685 0000 90B5     		push	{r4, r7, lr}
 686              		.cfi_def_cfa_offset 12
 687              		.cfi_offset 4, -12
 688              		.cfi_offset 7, -8
 689              		.cfi_offset 14, -4
 690 0002 89B0     		sub	sp, sp, #36
 691              		.cfi_def_cfa_offset 48
 692 0004 02AF     		add	r7, sp, #8
 693              		.cfi_def_cfa 7, 40
 317:lib_Network/network.c ****     int i;
 318:lib_Network/network.c ****     uint16_t result;
 319:lib_Network/network.c ****     uint16_t IDreceivePacket;
 320:lib_Network/network.c ****     uint16_t lastIDpacket;
 321:lib_Network/network.c ****     uint32_t resultReceive;
 322:lib_Network/network.c ****     
ARM GAS  C:\Users\Petro\AppData\Local\Temp\ccNOgfdU.s 			page 19


 323:lib_Network/network.c ****     /*calculaiton delivery time*/
 324:lib_Network/network.c ****     lastIDpacket = 1;
 694              		.loc 1 324 0
 695 0006 0823     		mov	r3, #8
 696 0008 FB18     		add	r3, r7, r3
 697 000a 0122     		mov	r2, #1
 698 000c 1A80     		strh	r2, [r3]
 325:lib_Network/network.c ****     result = TIME_SYNC_ERR;
 699              		.loc 1 325 0
 700 000e 1223     		mov	r3, #18
 701 0010 FB18     		add	r3, r7, r3
 702 0012 0122     		mov	r2, #1
 703 0014 1A80     		strh	r2, [r3]
 326:lib_Network/network.c ****     
 327:lib_Network/network.c ****     #ifdef DEBUG_INFO
 328:lib_Network/network.c ****         SW_UART_DEBUG_PutString("start ntp sync start\n\r");
 329:lib_Network/network.c ****     #endif  
 330:lib_Network/network.c ****     
 331:lib_Network/network.c ****     for(i=1; (i < 2000) && (result == TIME_SYNC_ERR); )
 704              		.loc 1 331 0
 705 0016 0123     		mov	r3, #1
 706 0018 7B61     		str	r3, [r7, #20]
 707 001a 9FE0     		b	.L49
 708              	.L59:
 332:lib_Network/network.c ****     {      
 333:lib_Network/network.c ****         /*receive time */
 334:lib_Network/network.c ****         resultReceive = NTPreceiveTime(&unixTime[T2],&millisTime[T2], &IDreceivePacket, !SAVE_TIME)
 709              		.loc 1 334 0
 710 001c 5849     		ldr	r1, .L61
 711 001e 594A     		ldr	r2, .L61+4
 712 0020 BB1C     		add	r3, r7, #2
 713 0022 081C     		mov	r0, r1
 714 0024 111C     		mov	r1, r2
 715 0026 1A1C     		mov	r2, r3
 716 0028 0023     		mov	r3, #0
 717 002a FFF7FEFF 		bl	NTPreceiveTime
 718 002e 031C     		mov	r3, r0
 719 0030 7B60     		str	r3, [r7, #4]
 335:lib_Network/network.c ****         CyDelay(9);
 720              		.loc 1 335 0
 721 0032 0920     		mov	r0, #9
 722 0034 FFF7FEFF 		bl	CyDelay
 336:lib_Network/network.c **** 
 337:lib_Network/network.c ****         if(resultReceive == READ_OK)
 723              		.loc 1 337 0
 724 0038 7B68     		ldr	r3, [r7, #4]
 725 003a 012B     		cmp	r3, #1
 726 003c 00D0     		beq	.LCB601
 727 003e 84E0     		b	.L50	@long jump
 728              	.LCB601:
 338:lib_Network/network.c ****         {          
 339:lib_Network/network.c ****             if(IDreceivePacket == 0)
 729              		.loc 1 339 0
 730 0040 BB1C     		add	r3, r7, #2
 731 0042 1B88     		ldrh	r3, [r3]
 732 0044 002B     		cmp	r3, #0
 733 0046 52D1     		bne	.L51
ARM GAS  C:\Users\Petro\AppData\Local\Temp\ccNOgfdU.s 			page 20


 734              	.LBB4:
 340:lib_Network/network.c ****             {
 341:lib_Network/network.c ****                 /*receive delivery time*/
 342:lib_Network/network.c ****                 uint32_t unixTimeReal;
 343:lib_Network/network.c ****                 uint16_t millisTimeReal;
 344:lib_Network/network.c ****                 
 345:lib_Network/network.c ****                 unixTimeReal = RTC_GetUnixTime();
 735              		.loc 1 345 0
 736 0048 FFF7FEFF 		bl	RTC_GetUnixTime
 737 004c 031C     		mov	r3, r0
 738 004e 0C1C     		mov	r4, r1
 739 0050 FB60     		str	r3, [r7, #12]
 346:lib_Network/network.c ****                 millisTimeReal = RTCgetRecentMs();
 740              		.loc 1 346 0
 741 0052 FFF7FEFF 		bl	RTCgetRecentMs
 742 0056 021C     		mov	r2, r0
 743 0058 0A23     		mov	r3, #10
 744 005a FB18     		add	r3, r7, r3
 745 005c 1A80     		strh	r2, [r3]
 347:lib_Network/network.c ****                 
 348:lib_Network/network.c ****                 unixTimeReal += unixTime[T2];
 746              		.loc 1 348 0
 747 005e 4A4B     		ldr	r3, .L61+8
 748 0060 5B68     		ldr	r3, [r3, #4]
 749 0062 FA68     		ldr	r2, [r7, #12]
 750 0064 D318     		add	r3, r2, r3
 751 0066 FB60     		str	r3, [r7, #12]
 349:lib_Network/network.c ****                 if((millisTimeReal += millisTime[T2]) >= 1000)
 752              		.loc 1 349 0
 753 0068 484B     		ldr	r3, .L61+12
 754 006a 5988     		ldrh	r1, [r3, #2]
 755 006c 0A23     		mov	r3, #10
 756 006e FB18     		add	r3, r7, r3
 757 0070 0A22     		mov	r2, #10
 758 0072 BA18     		add	r2, r7, r2
 759 0074 1288     		ldrh	r2, [r2]
 760 0076 8A18     		add	r2, r1, r2
 761 0078 1A80     		strh	r2, [r3]
 762 007a 0A23     		mov	r3, #10
 763 007c FB18     		add	r3, r7, r3
 764 007e 1B88     		ldrh	r3, [r3]
 765 0080 434A     		ldr	r2, .L61+16
 766 0082 9342     		cmp	r3, r2
 767 0084 0BD9     		bls	.L52
 350:lib_Network/network.c ****                 {
 351:lib_Network/network.c ****                     unixTimeReal++;
 768              		.loc 1 351 0
 769 0086 FB68     		ldr	r3, [r7, #12]
 770 0088 0133     		add	r3, r3, #1
 771 008a FB60     		str	r3, [r7, #12]
 352:lib_Network/network.c ****                     millisTimeReal -= 1000;
 772              		.loc 1 352 0
 773 008c 0A23     		mov	r3, #10
 774 008e FB18     		add	r3, r7, r3
 775 0090 0A22     		mov	r2, #10
 776 0092 BA18     		add	r2, r7, r2
 777 0094 1288     		ldrh	r2, [r2]
ARM GAS  C:\Users\Petro\AppData\Local\Temp\ccNOgfdU.s 			page 21


 778 0096 3F49     		ldr	r1, .L61+20
 779 0098 8C46     		mov	ip, r1
 780 009a 6244     		add	r2, r2, ip
 781 009c 1A80     		strh	r2, [r3]
 782              	.L52:
 353:lib_Network/network.c ****                 }
 354:lib_Network/network.c ****                 
 355:lib_Network/network.c ****                 RTCSync(unixTimeReal, millisTimeReal);
 783              		.loc 1 355 0
 784 009e FA68     		ldr	r2, [r7, #12]
 785 00a0 0A23     		mov	r3, #10
 786 00a2 FB18     		add	r3, r7, r3
 787 00a4 1B88     		ldrh	r3, [r3]
 788 00a6 101C     		mov	r0, r2
 789 00a8 191C     		mov	r1, r3
 790 00aa FFF7FEFF 		bl	RTCSync
 356:lib_Network/network.c ****                 
 357:lib_Network/network.c ****                 NTPsendTime(0,0,0,0,IDreceivePacket);
 791              		.loc 1 357 0
 792 00ae BB1C     		add	r3, r7, #2
 793 00b0 1B88     		ldrh	r3, [r3]
 794 00b2 0093     		str	r3, [sp]
 795 00b4 0020     		mov	r0, #0
 796 00b6 0021     		mov	r1, #0
 797 00b8 0022     		mov	r2, #0
 798 00ba 0023     		mov	r3, #0
 799 00bc FFF7FEFF 		bl	NTPsendTime
 358:lib_Network/network.c ****                 
 359:lib_Network/network.c ****                 #ifdef DEBUG_NTP
 360:lib_Network/network.c **** //                    debugntp_Write(1);
 361:lib_Network/network.c **** //                    debugntp_Write(0);
 362:lib_Network/network.c **** //                    debugntp_Write(1);
 363:lib_Network/network.c **** //                    debugntp_Write(0);                        
 364:lib_Network/network.c ****                 #endif
 365:lib_Network/network.c ****                 
 366:lib_Network/network.c ****                 result = TIME_SYNC_OK;
 800              		.loc 1 366 0
 801 00c0 1223     		mov	r3, #18
 802 00c2 FB18     		add	r3, r7, r3
 803 00c4 0022     		mov	r2, #0
 804 00c6 1A80     		strh	r2, [r3]
 367:lib_Network/network.c ****                 i = NUM_TRY_SYNC;
 805              		.loc 1 367 0
 806 00c8 0E23     		mov	r3, #14
 807 00ca 7B61     		str	r3, [r7, #20]
 368:lib_Network/network.c ****                 
 369:lib_Network/network.c ****                 /*display loading sync time*/
 370:lib_Network/network.c ****                 for(i=0;i<13;i++)
 808              		.loc 1 370 0
 809 00cc 0023     		mov	r3, #0
 810 00ce 7B61     		str	r3, [r7, #20]
 811 00d0 09E0     		b	.L53
 812              	.L54:
 371:lib_Network/network.c ****                 {
 372:lib_Network/network.c ****                     DisplayLoading(i);
 813              		.loc 1 372 0 discriminator 3
 814 00d2 7B69     		ldr	r3, [r7, #20]
ARM GAS  C:\Users\Petro\AppData\Local\Temp\ccNOgfdU.s 			page 22


 815 00d4 181C     		mov	r0, r3
 816 00d6 FFF7FEFF 		bl	DisplayLoading
 373:lib_Network/network.c ****                     CyDelay(100);
 817              		.loc 1 373 0 discriminator 3
 818 00da 6420     		mov	r0, #100
 819 00dc FFF7FEFF 		bl	CyDelay
 370:lib_Network/network.c ****                 {
 820              		.loc 1 370 0 discriminator 3
 821 00e0 7B69     		ldr	r3, [r7, #20]
 822 00e2 0133     		add	r3, r3, #1
 823 00e4 7B61     		str	r3, [r7, #20]
 824              	.L53:
 370:lib_Network/network.c ****                 {
 825              		.loc 1 370 0 is_stmt 0 discriminator 1
 826 00e6 7B69     		ldr	r3, [r7, #20]
 827 00e8 0C2B     		cmp	r3, #12
 828 00ea F2DD     		ble	.L54
 829              	.LBE4:
 830 00ec 36E0     		b	.L49
 831              	.L51:
 374:lib_Network/network.c ****                 }
 375:lib_Network/network.c ****                 
 376:lib_Network/network.c ****                 #ifdef DEBUG_INFO
 377:lib_Network/network.c ****                     sprintf(uartBuff,"receive delivery time %u:%u\n\r", unixTime[T2], millisTime[T2
 378:lib_Network/network.c ****                     SW_UART_DEBUG_PutString(uartBuff);
 379:lib_Network/network.c ****                 #endif                    
 380:lib_Network/network.c ****             }
 381:lib_Network/network.c ****             else //if(IDreceivePacket != 0)
 382:lib_Network/network.c ****             {
 383:lib_Network/network.c ****                 /*no error, send time*/
 384:lib_Network/network.c ****                 CyDelay(100);
 832              		.loc 1 384 0 is_stmt 1
 833 00ee 6420     		mov	r0, #100
 834 00f0 FFF7FEFF 		bl	CyDelay
 385:lib_Network/network.c ****                 millisTime[T3] = RTCgetRecentMs();
 835              		.loc 1 385 0
 836 00f4 FFF7FEFF 		bl	RTCgetRecentMs
 837 00f8 031C     		mov	r3, r0
 838 00fa 9AB2     		uxth	r2, r3
 839 00fc 234B     		ldr	r3, .L61+12
 840 00fe 9A80     		strh	r2, [r3, #4]
 386:lib_Network/network.c ****                 unixTime[T3] = RTCGetUnixTime();
 841              		.loc 1 386 0
 842 0100 FFF7FEFF 		bl	RTCGetUnixTime
 843 0104 031C     		mov	r3, r0
 844 0106 0C1C     		mov	r4, r1
 845 0108 1A1C     		mov	r2, r3
 846 010a 1F4B     		ldr	r3, .L61+8
 847 010c 9A60     		str	r2, [r3, #8]
 387:lib_Network/network.c ****                 
 388:lib_Network/network.c ****                 #ifdef DEBUG_NTP
 389:lib_Network/network.c ****                     debugntp_Write(1);
 390:lib_Network/network.c ****                     debugntp_Write(0);
 391:lib_Network/network.c ****                     debugntp_Write(1);
 392:lib_Network/network.c ****                     debugntp_Write(0);                        
 393:lib_Network/network.c ****                 #endif
 394:lib_Network/network.c ****                 
ARM GAS  C:\Users\Petro\AppData\Local\Temp\ccNOgfdU.s 			page 23


 395:lib_Network/network.c ****                 if((unixTime[T2] == unixTime[T3]) || ((unixTime[T2] == (unixTime[T3])-1)))
 848              		.loc 1 395 0
 849 010e 1E4B     		ldr	r3, .L61+8
 850 0110 5A68     		ldr	r2, [r3, #4]
 851 0112 1D4B     		ldr	r3, .L61+8
 852 0114 9B68     		ldr	r3, [r3, #8]
 853 0116 9A42     		cmp	r2, r3
 854 0118 06D0     		beq	.L56
 855              		.loc 1 395 0 is_stmt 0 discriminator 1
 856 011a 1B4B     		ldr	r3, .L61+8
 857 011c 5A68     		ldr	r2, [r3, #4]
 858 011e 1A4B     		ldr	r3, .L61+8
 859 0120 9B68     		ldr	r3, [r3, #8]
 860 0122 013B     		sub	r3, r3, #1
 861 0124 9A42     		cmp	r2, r3
 862 0126 0DD1     		bne	.L57
 863              	.L56:
 396:lib_Network/network.c ****                 {
 397:lib_Network/network.c ****                     NTPsendTime(unixTime[T2], unixTime[T3], millisTime[T2], millisTime[T3], IDrecei
 864              		.loc 1 397 0 is_stmt 1
 865 0128 174B     		ldr	r3, .L61+8
 866 012a 5868     		ldr	r0, [r3, #4]
 867 012c 164B     		ldr	r3, .L61+8
 868 012e 9968     		ldr	r1, [r3, #8]
 869 0130 164B     		ldr	r3, .L61+12
 870 0132 5A88     		ldrh	r2, [r3, #2]
 871 0134 154B     		ldr	r3, .L61+12
 872 0136 9C88     		ldrh	r4, [r3, #4]
 873 0138 BB1C     		add	r3, r7, #2
 874 013a 1B88     		ldrh	r3, [r3]
 875 013c 0093     		str	r3, [sp]
 876 013e 231C     		mov	r3, r4
 877 0140 FFF7FEFF 		bl	NTPsendTime
 878              	.L57:
 398:lib_Network/network.c **** 
 399:lib_Network/network.c ****                     #ifdef DEBUG_INFO
 400:lib_Network/network.c ****                         sprintf(uartBuff,"receive and send time %u:%u",unixTime[T2],millisTime[T2])
 401:lib_Network/network.c ****                         SW_UART_DEBUG_PutString(uartBuff);
 402:lib_Network/network.c ****                         sprintf(uartBuff,"- %u:%u\n\r",unixTime[T3],millisTime[T3]); 
 403:lib_Network/network.c ****                         SW_UART_DEBUG_PutString(uartBuff);                        
 404:lib_Network/network.c ****                     #endif
 405:lib_Network/network.c ****                 }
 406:lib_Network/network.c ****                 i=0;
 879              		.loc 1 406 0
 880 0144 0023     		mov	r3, #0
 881 0146 7B61     		str	r3, [r7, #20]
 882 0148 08E0     		b	.L49
 883              	.L50:
 407:lib_Network/network.c ****             }           
 408:lib_Network/network.c ****         }
 409:lib_Network/network.c ****         else 
 410:lib_Network/network.c ****         {
 411:lib_Network/network.c ****             i++;
 884              		.loc 1 411 0
 885 014a 7B69     		ldr	r3, [r7, #20]
 886 014c 0133     		add	r3, r3, #1
 887 014e 7B61     		str	r3, [r7, #20]
ARM GAS  C:\Users\Petro\AppData\Local\Temp\ccNOgfdU.s 			page 24


 888 0150 1223     		mov	r3, #18
 889 0152 FB18     		add	r3, r7, r3
 890 0154 1222     		mov	r2, #18
 891 0156 BA18     		add	r2, r7, r2
 892 0158 1288     		ldrh	r2, [r2]
 893 015a 1A80     		strh	r2, [r3]
 894              	.L49:
 331:lib_Network/network.c ****     {      
 895              		.loc 1 331 0 discriminator 1
 896 015c 7B69     		ldr	r3, [r7, #20]
 897 015e 0E4A     		ldr	r2, .L61+24
 898 0160 9342     		cmp	r3, r2
 899 0162 05DC     		bgt	.L58
 331:lib_Network/network.c ****     {      
 900              		.loc 1 331 0 is_stmt 0 discriminator 2
 901 0164 1223     		mov	r3, #18
 902 0166 FB18     		add	r3, r7, r3
 903 0168 1B88     		ldrh	r3, [r3]
 904 016a 012B     		cmp	r3, #1
 905 016c 00D1     		bne	.LCB762
 906 016e 55E7     		b	.L59	@long jump
 907              	.LCB762:
 908              	.L58:
 412:lib_Network/network.c ****         }
 413:lib_Network/network.c ****     }
 414:lib_Network/network.c **** 
 415:lib_Network/network.c ****     return result;
 909              		.loc 1 415 0 is_stmt 1
 910 0170 1223     		mov	r3, #18
 911 0172 FB18     		add	r3, r7, r3
 912 0174 1B88     		ldrh	r3, [r3]
 416:lib_Network/network.c **** }
 913              		.loc 1 416 0
 914 0176 181C     		mov	r0, r3
 915 0178 BD46     		mov	sp, r7
 916 017a 07B0     		add	sp, sp, #28
 917              		@ sp needed
 918 017c 90BD     		pop	{r4, r7, pc}
 919              	.L62:
 920 017e C046     		.align	2
 921              	.L61:
 922 0180 04000000 		.word	unixTime+4
 923 0184 02000000 		.word	millisTime+2
 924 0188 00000000 		.word	unixTime
 925 018c 00000000 		.word	millisTime
 926 0190 E7030000 		.word	999
 927 0194 18FCFFFF 		.word	-1000
 928 0198 CF070000 		.word	1999
 929              		.cfi_endproc
 930              	.LFE38:
 931              		.size	NTPsync, .-NTPsync
 932              		.section	.text.ReceiveRealTime,"ax",%progbits
 933              		.align	2
 934              		.global	ReceiveRealTime
 935              		.code	16
 936              		.thumb_func
 937              		.type	ReceiveRealTime, %function
ARM GAS  C:\Users\Petro\AppData\Local\Temp\ccNOgfdU.s 			page 25


 938              	ReceiveRealTime:
 939              	.LFB39:
 417:lib_Network/network.c **** 
 418:lib_Network/network.c **** /*******************************************************************************
 419:lib_Network/network.c **** * Function Name: ReceiveRealTime
 420:lib_Network/network.c **** ********************************************************************************
 421:lib_Network/network.c **** *
 422:lib_Network/network.c **** * Summary:
 423:lib_Network/network.c **** *   receive and set real time
 424:lib_Network/network.c **** * Return:
 425:lib_Network/network.c **** *   READ_OK or NO_READ
 426:lib_Network/network.c **** *
 427:lib_Network/network.c **** *******************************************************************************/
 428:lib_Network/network.c **** uint32_t ReceiveRealTime(void)
 429:lib_Network/network.c **** {
 940              		.loc 1 429 0
 941              		.cfi_startproc
 942 0000 80B5     		push	{r7, lr}
 943              		.cfi_def_cfa_offset 8
 944              		.cfi_offset 7, -8
 945              		.cfi_offset 14, -4
 946 0002 84B0     		sub	sp, sp, #16
 947              		.cfi_def_cfa_offset 24
 948 0004 02AF     		add	r7, sp, #8
 949              		.cfi_def_cfa 7, 16
 430:lib_Network/network.c ****     uint32_t result;
 431:lib_Network/network.c ****     uint16_t IDpacket;
 432:lib_Network/network.c ****     
 433:lib_Network/network.c ****     result = NO_READ;
 950              		.loc 1 433 0
 951 0006 0023     		mov	r3, #0
 952 0008 7B60     		str	r3, [r7, #4]
 434:lib_Network/network.c ****     noConnect = 0;
 953              		.loc 1 434 0
 954 000a 294B     		ldr	r3, .L70
 955 000c 0022     		mov	r2, #0
 956 000e 1A60     		str	r2, [r3]
 435:lib_Network/network.c ****     
 436:lib_Network/network.c ****     #ifdef DEBUG_INFO
 437:lib_Network/network.c ****         SW_UART_DEBUG_PutString("start receive real time\n\r");
 438:lib_Network/network.c ****     #endif
 439:lib_Network/network.c ****     
 440:lib_Network/network.c ****     while(result == NO_READ && noConnect < NUM_CONNECT_ATTEMPS)
 957              		.loc 1 440 0
 958 0010 40E0     		b	.L64
 959              	.L68:
 441:lib_Network/network.c ****     {
 442:lib_Network/network.c ****         result = NTPreceiveTime(&unixTime[T1], &millisTime[T1], &IDpacket,SAVE_TIME);
 960              		.loc 1 442 0
 961 0012 2849     		ldr	r1, .L70+4
 962 0014 284A     		ldr	r2, .L70+8
 963 0016 BB1C     		add	r3, r7, #2
 964 0018 081C     		mov	r0, r1
 965 001a 111C     		mov	r1, r2
 966 001c 1A1C     		mov	r2, r3
 967 001e 0123     		mov	r3, #1
 968 0020 FFF7FEFF 		bl	NTPreceiveTime
ARM GAS  C:\Users\Petro\AppData\Local\Temp\ccNOgfdU.s 			page 26


 969 0024 031C     		mov	r3, r0
 970 0026 7B60     		str	r3, [r7, #4]
 443:lib_Network/network.c **** 
 444:lib_Network/network.c ****         if((result == READ_OK) && (IDpacket == 1))
 971              		.loc 1 444 0
 972 0028 7B68     		ldr	r3, [r7, #4]
 973 002a 012B     		cmp	r3, #1
 974 002c 28D1     		bne	.L65
 975              		.loc 1 444 0 is_stmt 0 discriminator 1
 976 002e BB1C     		add	r3, r7, #2
 977 0030 1B88     		ldrh	r3, [r3]
 978 0032 012B     		cmp	r3, #1
 979 0034 24D1     		bne	.L65
 445:lib_Network/network.c ****         {
 446:lib_Network/network.c ****             if((millisTime[T1]) > 1000)
 980              		.loc 1 446 0 is_stmt 1
 981 0036 204B     		ldr	r3, .L70+8
 982 0038 1A88     		ldrh	r2, [r3]
 983 003a FA23     		mov	r3, #250
 984 003c 9B00     		lsl	r3, r3, #2
 985 003e 9A42     		cmp	r2, r3
 986 0040 0CD9     		bls	.L66
 447:lib_Network/network.c ****             {
 448:lib_Network/network.c ****                 unixTime[T1]++;
 987              		.loc 1 448 0
 988 0042 1C4B     		ldr	r3, .L70+4
 989 0044 1B68     		ldr	r3, [r3]
 990 0046 5A1C     		add	r2, r3, #1
 991 0048 1A4B     		ldr	r3, .L70+4
 992 004a 1A60     		str	r2, [r3]
 449:lib_Network/network.c ****                 millisTime[T1] -= 1000;
 993              		.loc 1 449 0
 994 004c 1A4B     		ldr	r3, .L70+8
 995 004e 1B88     		ldrh	r3, [r3]
 996 0050 1A4A     		ldr	r2, .L70+12
 997 0052 9446     		mov	ip, r2
 998 0054 6344     		add	r3, r3, ip
 999 0056 9AB2     		uxth	r2, r3
 1000 0058 174B     		ldr	r3, .L70+8
 1001 005a 1A80     		strh	r2, [r3]
 1002              	.L66:
 450:lib_Network/network.c ****             }
 451:lib_Network/network.c ****             
 452:lib_Network/network.c ****             RTCSync(unixTime[T1], millisTime[T1]);
 1003              		.loc 1 452 0
 1004 005c 154B     		ldr	r3, .L70+4
 1005 005e 1A68     		ldr	r2, [r3]
 1006 0060 154B     		ldr	r3, .L70+8
 1007 0062 1B88     		ldrh	r3, [r3]
 1008 0064 101C     		mov	r0, r2
 1009 0066 191C     		mov	r1, r3
 1010 0068 FFF7FEFF 		bl	RTCSync
 453:lib_Network/network.c **** 
 454:lib_Network/network.c ****             NTPsendTime(0,0,0,0,IDpacket);
 1011              		.loc 1 454 0
 1012 006c BB1C     		add	r3, r7, #2
 1013 006e 1B88     		ldrh	r3, [r3]
ARM GAS  C:\Users\Petro\AppData\Local\Temp\ccNOgfdU.s 			page 27


 1014 0070 0093     		str	r3, [sp]
 1015 0072 0020     		mov	r0, #0
 1016 0074 0021     		mov	r1, #0
 1017 0076 0022     		mov	r2, #0
 1018 0078 0023     		mov	r3, #0
 1019 007a FFF7FEFF 		bl	NTPsendTime
 1020 007e 09E0     		b	.L64
 1021              	.L65:
 455:lib_Network/network.c ****             
 456:lib_Network/network.c ****             #ifdef DEBUG_INFO
 457:lib_Network/network.c ****                 sprintf(uartBuff,"set time %u:%u\n\r",unixTime[T1],millisTime[T1]);
 458:lib_Network/network.c ****                 SW_UART_DEBUG_PutString(uartBuff);
 459:lib_Network/network.c ****             #endif
 460:lib_Network/network.c ****         }
 461:lib_Network/network.c ****         else
 462:lib_Network/network.c ****         {
 463:lib_Network/network.c ****             result = NO_READ;
 1022              		.loc 1 463 0
 1023 0080 0023     		mov	r3, #0
 1024 0082 7B60     		str	r3, [r7, #4]
 464:lib_Network/network.c ****             noConnect++;
 1025              		.loc 1 464 0
 1026 0084 0A4B     		ldr	r3, .L70
 1027 0086 1B68     		ldr	r3, [r3]
 1028 0088 5A1C     		add	r2, r3, #1
 1029 008a 094B     		ldr	r3, .L70
 1030 008c 1A60     		str	r2, [r3]
 465:lib_Network/network.c ****             CyDelay(100);
 1031              		.loc 1 465 0
 1032 008e 6420     		mov	r0, #100
 1033 0090 FFF7FEFF 		bl	CyDelay
 1034              	.L64:
 440:lib_Network/network.c ****     {
 1035              		.loc 1 440 0
 1036 0094 7B68     		ldr	r3, [r7, #4]
 1037 0096 002B     		cmp	r3, #0
 1038 0098 04D1     		bne	.L67
 440:lib_Network/network.c ****     {
 1039              		.loc 1 440 0 is_stmt 0 discriminator 1
 1040 009a 054B     		ldr	r3, .L70
 1041 009c 1B68     		ldr	r3, [r3]
 1042 009e 084A     		ldr	r2, .L70+16
 1043 00a0 9342     		cmp	r3, r2
 1044 00a2 B6DD     		ble	.L68
 1045              	.L67:
 466:lib_Network/network.c ****         }
 467:lib_Network/network.c ****     }
 468:lib_Network/network.c ****     
 469:lib_Network/network.c ****     return result;
 1046              		.loc 1 469 0 is_stmt 1
 1047 00a4 7B68     		ldr	r3, [r7, #4]
 470:lib_Network/network.c **** }
 1048              		.loc 1 470 0
 1049 00a6 181C     		mov	r0, r3
 1050 00a8 BD46     		mov	sp, r7
 1051 00aa 02B0     		add	sp, sp, #8
 1052              		@ sp needed
ARM GAS  C:\Users\Petro\AppData\Local\Temp\ccNOgfdU.s 			page 28


 1053 00ac 80BD     		pop	{r7, pc}
 1054              	.L71:
 1055 00ae C046     		.align	2
 1056              	.L70:
 1057 00b0 04000000 		.word	noConnect
 1058 00b4 00000000 		.word	unixTime
 1059 00b8 00000000 		.word	millisTime
 1060 00bc 18FCFFFF 		.word	-1000
 1061 00c0 E7030000 		.word	999
 1062              		.cfi_endproc
 1063              	.LFE39:
 1064              		.size	ReceiveRealTime, .-ReceiveRealTime
 1065              		.section	.text.NTPreceiveTime,"ax",%progbits
 1066              		.align	2
 1067              		.global	NTPreceiveTime
 1068              		.code	16
 1069              		.thumb_func
 1070              		.type	NTPreceiveTime, %function
 1071              	NTPreceiveTime:
 1072              	.LFB40:
 471:lib_Network/network.c **** /*******************************************************************************
 472:lib_Network/network.c **** * Function Name: NTPreceiveTime
 473:lib_Network/network.c **** ********************************************************************************
 474:lib_Network/network.c **** *
 475:lib_Network/network.c **** * Summary:
 476:lib_Network/network.c **** *   receive time to NTP protocol
 477:lib_Network/network.c **** * Parametrs:
 478:lib_Network/network.c **** *   *unixTime2 - time in unix format
 479:lib_Network/network.c **** *   *millisTime2 - millis time
 480:lib_Network/network.c **** *   *IDreceive - ID packet
 481:lib_Network/network.c **** *   saveTime - command save time from finish
 482:lib_Network/network.c **** * Return:
 483:lib_Network/network.c **** *   READ_OK or NO_READ
 484:lib_Network/network.c **** *
 485:lib_Network/network.c **** *******************************************************************************/
 486:lib_Network/network.c **** uint32_t NTPreceiveTime(uint32_t *unixTime2,uint16_t *millisTime2, uint16_t *IDreceive,uint32_t sav
 487:lib_Network/network.c **** {
 1073              		.loc 1 487 0
 1074              		.cfi_startproc
 1075 0000 90B5     		push	{r4, r7, lr}
 1076              		.cfi_def_cfa_offset 12
 1077              		.cfi_offset 4, -12
 1078              		.cfi_offset 7, -8
 1079              		.cfi_offset 14, -4
 1080 0002 8DB0     		sub	sp, sp, #52
 1081              		.cfi_def_cfa_offset 64
 1082 0004 00AF     		add	r7, sp, #0
 1083              		.cfi_def_cfa_register 7
 1084 0006 F860     		str	r0, [r7, #12]
 1085 0008 B960     		str	r1, [r7, #8]
 1086 000a 7A60     		str	r2, [r7, #4]
 1087 000c 3B60     		str	r3, [r7]
 488:lib_Network/network.c ****     uint8_t byte;
 489:lib_Network/network.c ****     uint32_t result;
 490:lib_Network/network.c ****     
 491:lib_Network/network.c ****     result = READ_OK;
 1088              		.loc 1 491 0
ARM GAS  C:\Users\Petro\AppData\Local\Temp\ccNOgfdU.s 			page 29


 1089 000e 0123     		mov	r3, #1
 1090 0010 FB62     		str	r3, [r7, #44]
 492:lib_Network/network.c ****     
 493:lib_Network/network.c ****     NTPResp recvDataNTP;
 494:lib_Network/network.c ****     while((UART_XB_SpiUartGetRxBufferSize() > 0) && ((byte=UART_XB_UartGetChar()) != 0))
 1091              		.loc 1 494 0
 1092 0012 45E0     		b	.L73
 1093              	.L80:
 495:lib_Network/network.c ****     {                    
 496:lib_Network/network.c ****         result = NtpUnpackData(&recvDataNTP, (uint8_t)(byte & 0xFF));
 1094              		.loc 1 496 0
 1095 0014 1423     		mov	r3, #20
 1096 0016 FA18     		add	r2, r7, r3
 1097 0018 2B23     		mov	r3, #43
 1098 001a FB18     		add	r3, r7, r3
 1099 001c 1B78     		ldrb	r3, [r3]
 1100 001e 101C     		mov	r0, r2
 1101 0020 191C     		mov	r1, r3
 1102 0022 FFF7FEFF 		bl	NtpUnpackData
 1103 0026 031C     		mov	r3, r0
 1104 0028 FB62     		str	r3, [r7, #44]
 497:lib_Network/network.c ****         
 498:lib_Network/network.c ****         CyDelay(1);
 1105              		.loc 1 498 0
 1106 002a 0120     		mov	r0, #1
 1107 002c FFF7FEFF 		bl	CyDelay
 499:lib_Network/network.c ****                     
 500:lib_Network/network.c ****         if(recvDataNTP.EndPacket == 1)
 1108              		.loc 1 500 0
 1109 0030 1423     		mov	r3, #20
 1110 0032 FB18     		add	r3, r7, r3
 1111 0034 1B7C     		ldrb	r3, [r3, #16]
 1112 0036 012B     		cmp	r3, #1
 1113 0038 30D1     		bne	.L74
 501:lib_Network/network.c ****         {
 502:lib_Network/network.c ****             /*save unix time*/            
 503:lib_Network/network.c ****             *IDreceive = recvDataNTP.Id;
 1114              		.loc 1 503 0
 1115 003a 1423     		mov	r3, #20
 1116 003c FB18     		add	r3, r7, r3
 1117 003e 1A88     		ldrh	r2, [r3]
 1118 0040 7B68     		ldr	r3, [r7, #4]
 1119 0042 1A80     		strh	r2, [r3]
 504:lib_Network/network.c ****             #ifdef DEBUG_INFO
 505:lib_Network/network.c ****                 sprintf(uartBuff,"receive ID=%u",recvDataNTP.Id);
 506:lib_Network/network.c ****                 SW_UART_DEBUG_PutString(uartBuff);
 507:lib_Network/network.c ****             #endif
 508:lib_Network/network.c ****             
 509:lib_Network/network.c ****             if((saveTime == SAVE_TIME) || (recvDataNTP.Id == 0))
 1120              		.loc 1 509 0
 1121 0044 3B68     		ldr	r3, [r7]
 1122 0046 012B     		cmp	r3, #1
 1123 0048 04D0     		beq	.L75
 1124              		.loc 1 509 0 is_stmt 0 discriminator 1
 1125 004a 1423     		mov	r3, #20
 1126 004c FB18     		add	r3, r7, r3
 1127 004e 1B88     		ldrh	r3, [r3]
ARM GAS  C:\Users\Petro\AppData\Local\Temp\ccNOgfdU.s 			page 30


 1128 0050 002B     		cmp	r3, #0
 1129 0052 0AD1     		bne	.L76
 1130              	.L75:
 510:lib_Network/network.c ****             {
 511:lib_Network/network.c ****                 /*save receive data*/
 512:lib_Network/network.c ****                 *unixTime2 = recvDataNTP.Data1;
 1131              		.loc 1 512 0 is_stmt 1
 1132 0054 1423     		mov	r3, #20
 1133 0056 FB18     		add	r3, r7, r3
 1134 0058 5A68     		ldr	r2, [r3, #4]
 1135 005a FB68     		ldr	r3, [r7, #12]
 1136 005c 1A60     		str	r2, [r3]
 513:lib_Network/network.c ****                 *millisTime2 = recvDataNTP.DataMs1;
 1137              		.loc 1 513 0
 1138 005e 1423     		mov	r3, #20
 1139 0060 FB18     		add	r3, r7, r3
 1140 0062 1A89     		ldrh	r2, [r3, #8]
 1141 0064 BB68     		ldr	r3, [r7, #8]
 1142 0066 1A80     		strh	r2, [r3]
 1143 0068 16E0     		b	.L77
 1144              	.L76:
 514:lib_Network/network.c ****             }
 515:lib_Network/network.c ****             else
 516:lib_Network/network.c ****             {
 517:lib_Network/network.c ****                 /*set real time*/
 518:lib_Network/network.c ****                 RTCSync(recvDataNTP.Data1, recvDataNTP.DataMs1);
 1145              		.loc 1 518 0
 1146 006a 1423     		mov	r3, #20
 1147 006c FB18     		add	r3, r7, r3
 1148 006e 5A68     		ldr	r2, [r3, #4]
 1149 0070 1423     		mov	r3, #20
 1150 0072 FB18     		add	r3, r7, r3
 1151 0074 1B89     		ldrh	r3, [r3, #8]
 1152 0076 101C     		mov	r0, r2
 1153 0078 191C     		mov	r1, r3
 1154 007a FFF7FEFF 		bl	RTCSync
 519:lib_Network/network.c ****                 
 520:lib_Network/network.c ****                 /*save time T2*/
 521:lib_Network/network.c ****                 *millisTime2 = RTCgetRecentMs();
 1155              		.loc 1 521 0
 1156 007e FFF7FEFF 		bl	RTCgetRecentMs
 1157 0082 031C     		mov	r3, r0
 1158 0084 9AB2     		uxth	r2, r3
 1159 0086 BB68     		ldr	r3, [r7, #8]
 1160 0088 1A80     		strh	r2, [r3]
 522:lib_Network/network.c ****                 *unixTime2 = RTC_GetUnixTime();
 1161              		.loc 1 522 0
 1162 008a FFF7FEFF 		bl	RTC_GetUnixTime
 1163 008e 031C     		mov	r3, r0
 1164 0090 0C1C     		mov	r4, r1
 1165 0092 1A1C     		mov	r2, r3
 1166 0094 FB68     		ldr	r3, [r7, #12]
 1167 0096 1A60     		str	r2, [r3]
 1168              	.L77:
 523:lib_Network/network.c ****                 
 524:lib_Network/network.c ****                 #ifdef DEBUG_NTP
 525:lib_Network/network.c ****                     debugntp_Write(1);
ARM GAS  C:\Users\Petro\AppData\Local\Temp\ccNOgfdU.s 			page 31


 526:lib_Network/network.c ****                     debugntp_Write(0);
 527:lib_Network/network.c ****                 #endif
 528:lib_Network/network.c ****                 #ifdef DEBUG_INFO
 529:lib_Network/network.c ****                     sprintf(uartBuff,"\n\rT2 %u:%u\n\r",*unixTime2,*millisTime2); 
 530:lib_Network/network.c ****                     SW_UART_DEBUG_PutString(uartBuff);
 531:lib_Network/network.c ****                 #endif
 532:lib_Network/network.c ****                 
 533:lib_Network/network.c ****             }
 534:lib_Network/network.c **** 
 535:lib_Network/network.c ****             return READ_OK;
 1169              		.loc 1 535 0
 1170 0098 0123     		mov	r3, #1
 1171 009a 13E0     		b	.L81
 1172              	.L74:
 536:lib_Network/network.c ****         }
 537:lib_Network/network.c ****         result = NO_READ;
 1173              		.loc 1 537 0
 1174 009c 0023     		mov	r3, #0
 1175 009e FB62     		str	r3, [r7, #44]
 1176              	.L73:
 494:lib_Network/network.c ****     {                    
 1177              		.loc 1 494 0
 1178 00a0 FFF7FEFF 		bl	UART_XB_SpiUartGetRxBufferSize
 1179 00a4 031E     		sub	r3, r0, #0
 1180 00a6 0AD0     		beq	.L79
 494:lib_Network/network.c ****     {                    
 1181              		.loc 1 494 0 is_stmt 0 discriminator 1
 1182 00a8 FFF7FEFF 		bl	UART_XB_UartGetChar
 1183 00ac 021C     		mov	r2, r0
 1184 00ae 2B23     		mov	r3, #43
 1185 00b0 FB18     		add	r3, r7, r3
 1186 00b2 1A70     		strb	r2, [r3]
 1187 00b4 2B23     		mov	r3, #43
 1188 00b6 FB18     		add	r3, r7, r3
 1189 00b8 1B78     		ldrb	r3, [r3]
 1190 00ba 002B     		cmp	r3, #0
 1191 00bc AAD1     		bne	.L80
 1192              	.L79:
 538:lib_Network/network.c ****     }
 539:lib_Network/network.c ****     result = NO_READ;
 1193              		.loc 1 539 0 is_stmt 1
 1194 00be 0023     		mov	r3, #0
 1195 00c0 FB62     		str	r3, [r7, #44]
 540:lib_Network/network.c ****     
 541:lib_Network/network.c ****     return result;
 1196              		.loc 1 541 0
 1197 00c2 FB6A     		ldr	r3, [r7, #44]
 1198              	.L81:
 542:lib_Network/network.c **** }
 1199              		.loc 1 542 0 discriminator 1
 1200 00c4 181C     		mov	r0, r3
 1201 00c6 BD46     		mov	sp, r7
 1202 00c8 0DB0     		add	sp, sp, #52
 1203              		@ sp needed
 1204 00ca 90BD     		pop	{r4, r7, pc}
 1205              		.cfi_endproc
 1206              	.LFE40:
ARM GAS  C:\Users\Petro\AppData\Local\Temp\ccNOgfdU.s 			page 32


 1207              		.size	NTPreceiveTime, .-NTPreceiveTime
 1208              		.section	.rodata
 1209 001a 0000     		.align	2
 1210              	.LC28:
 1211 001c 25303858 		.ascii	"%08X%03X%08X%03X\000"
 1211      25303358 
 1211      25303858 
 1211      25303358 
 1211      00
 1212 002d 000000   		.section	.text.NTPsendTime,"ax",%progbits
 1213              		.align	2
 1214              		.global	NTPsendTime
 1215              		.code	16
 1216              		.thumb_func
 1217              		.type	NTPsendTime, %function
 1218              	NTPsendTime:
 1219              	.LFB41:
 543:lib_Network/network.c **** 
 544:lib_Network/network.c **** /*******************************************************************************
 545:lib_Network/network.c **** * Function Name: NTPsendTime
 546:lib_Network/network.c **** ********************************************************************************
 547:lib_Network/network.c **** *
 548:lib_Network/network.c **** * Summary:
 549:lib_Network/network.c **** *   send time t2 and t3 to NTP protocol
 550:lib_Network/network.c **** * Parametrs:
 551:lib_Network/network.c **** *   unixTime2,unixTime3 - time in unix format
 552:lib_Network/network.c **** *   millis2, millis3 - millis time
 553:lib_Network/network.c **** *   ID - ID packet
 554:lib_Network/network.c **** *
 555:lib_Network/network.c **** *******************************************************************************/
 556:lib_Network/network.c **** void NTPsendTime(uint32_t unixTime2,uint32_t unixTime3,uint16_t millis2,uint16_t millis3, uint16_t 
 557:lib_Network/network.c **** {
 1220              		.loc 1 557 0
 1221              		.cfi_startproc
 1222 0000 B0B5     		push	{r4, r5, r7, lr}
 1223              		.cfi_def_cfa_offset 16
 1224              		.cfi_offset 4, -16
 1225              		.cfi_offset 5, -12
 1226              		.cfi_offset 7, -8
 1227              		.cfi_offset 14, -4
 1228 0002 A0B0     		sub	sp, sp, #128
 1229              		.cfi_def_cfa_offset 144
 1230 0004 02AF     		add	r7, sp, #8
 1231              		.cfi_def_cfa 7, 136
 1232 0006 F860     		str	r0, [r7, #12]
 1233 0008 B960     		str	r1, [r7, #8]
 1234 000a 191C     		mov	r1, r3
 1235 000c BB1D     		add	r3, r7, #6
 1236 000e 1A80     		strh	r2, [r3]
 1237 0010 3B1D     		add	r3, r7, #4
 1238 0012 0A1C     		add	r2, r1, #0
 1239 0014 1A80     		strh	r2, [r3]
 558:lib_Network/network.c ****     char sendBuffer[DATA_BUFFER];
 559:lib_Network/network.c ****     char sendData[DATA_BUFFER];
 560:lib_Network/network.c ****     
 561:lib_Network/network.c ****     /*pack data*/
 562:lib_Network/network.c ****     sprintf(sendData,"%08X%03X%08X%03X", unixTime2, millis2, unixTime3, millis3); 
ARM GAS  C:\Users\Petro\AppData\Local\Temp\ccNOgfdU.s 			page 33


 1240              		.loc 1 562 0
 1241 0016 BB1D     		add	r3, r7, #6
 1242 0018 1C88     		ldrh	r4, [r3]
 1243 001a 3B1D     		add	r3, r7, #4
 1244 001c 1B88     		ldrh	r3, [r3]
 1245 001e 1022     		mov	r2, #16
 1246 0020 B818     		add	r0, r7, r2
 1247 0022 0E49     		ldr	r1, .L83
 1248 0024 FD68     		ldr	r5, [r7, #12]
 1249 0026 BA68     		ldr	r2, [r7, #8]
 1250 0028 0092     		str	r2, [sp]
 1251 002a 0193     		str	r3, [sp, #4]
 1252 002c 2A1C     		mov	r2, r5
 1253 002e 231C     		mov	r3, r4
 1254 0030 FFF7FEFF 		bl	sprintf
 563:lib_Network/network.c ****     PackData(sendBuffer, (uint8_t *)sendData, ID);
 1255              		.loc 1 563 0
 1256 0034 4423     		mov	r3, #68
 1257 0036 F918     		add	r1, r7, r3
 1258 0038 1023     		mov	r3, #16
 1259 003a FA18     		add	r2, r7, r3
 1260 003c 8823     		mov	r3, #136
 1261 003e FB18     		add	r3, r7, r3
 1262 0040 1B88     		ldrh	r3, [r3]
 1263 0042 081C     		mov	r0, r1
 1264 0044 111C     		mov	r1, r2
 1265 0046 1A1C     		mov	r2, r3
 1266 0048 FFF7FEFF 		bl	PackData
 564:lib_Network/network.c ****     UART_XB_UartPutString(sendBuffer);
 1267              		.loc 1 564 0
 1268 004c 4423     		mov	r3, #68
 1269 004e FB18     		add	r3, r7, r3
 1270 0050 181C     		mov	r0, r3
 1271 0052 FFF7FEFF 		bl	UART_XB_UartPutString
 565:lib_Network/network.c ****     
 566:lib_Network/network.c ****     #ifdef DEBUG_INFO
 567:lib_Network/network.c ****        //SW_UART_DEBUG_PutString(sendBuffer);
 568:lib_Network/network.c ****        //SW_UART_DEBUG_PutString("\n\r"); 
 569:lib_Network/network.c ****     #endif
 570:lib_Network/network.c **** }
 1272              		.loc 1 570 0
 1273 0056 BD46     		mov	sp, r7
 1274 0058 1EB0     		add	sp, sp, #120
 1275              		@ sp needed
 1276 005a B0BD     		pop	{r4, r5, r7, pc}
 1277              	.L84:
 1278              		.align	2
 1279              	.L83:
 1280 005c 1C000000 		.word	.LC28
 1281              		.cfi_endproc
 1282              	.LFE41:
 1283              		.size	NTPsendTime, .-NTPsendTime
 1284              		.text
 1285              	.Letext0:
 1286              		.file 2 "c:\\program files (x86)\\cypress\\psoc creator\\4.0\\psoc creator\\import\\gnu\\arm\\4.9.
 1287              		.file 3 "c:\\program files (x86)\\cypress\\psoc creator\\4.0\\psoc creator\\import\\gnu\\arm\\4.9.
 1288              		.file 4 "./lib_Network\\svt.h"
ARM GAS  C:\Users\Petro\AppData\Local\Temp\ccNOgfdU.s 			page 34


 1289              		.file 5 "./lib_Network\\ntp.h"