ARM GAS  C:\Users\Petro\AppData\Local\Temp\ccG42VBa.s 			page 1


   1              		.cpu cortex-m0
   2              		.fpu softvfp
   3              		.eabi_attribute 20, 1
   4              		.eabi_attribute 21, 1
   5              		.eabi_attribute 23, 3
   6              		.eabi_attribute 24, 1
   7              		.eabi_attribute 25, 1
   8              		.eabi_attribute 26, 1
   9              		.eabi_attribute 30, 6
  10              		.eabi_attribute 34, 0
  11              		.eabi_attribute 18, 4
  12              		.code	16
  13              		.file	"cyfitter_cfg.c"
  14              		.text
  15              	.Ltext0:
  16              		.cfi_sections	.debug_frame
  17              		.section	.text.CYMEMZERO,"ax",%progbits
  18              		.align	2
  19              		.code	16
  20              		.thumb_func
  21              		.type	CYMEMZERO, %function
  22              	CYMEMZERO:
  23              	.LFB2:
  24              		.file 1 ".\\Generated_Source\\PSoC4\\cyfitter_cfg.c"
   1:.\Generated_Source\PSoC4/cyfitter_cfg.c **** /*******************************************************************************
   2:.\Generated_Source\PSoC4/cyfitter_cfg.c **** * File Name: cyfitter_cfg.c
   3:.\Generated_Source\PSoC4/cyfitter_cfg.c **** * 
   4:.\Generated_Source\PSoC4/cyfitter_cfg.c **** * PSoC Creator  3.3 SP1
   5:.\Generated_Source\PSoC4/cyfitter_cfg.c **** *
   6:.\Generated_Source\PSoC4/cyfitter_cfg.c **** * Description:
   7:.\Generated_Source\PSoC4/cyfitter_cfg.c **** * This file contains device initialization code.
   8:.\Generated_Source\PSoC4/cyfitter_cfg.c **** * Except for the user defined sections in CyClockStartupError(), this file should not be modified.
   9:.\Generated_Source\PSoC4/cyfitter_cfg.c **** * This file is automatically generated by PSoC Creator.
  10:.\Generated_Source\PSoC4/cyfitter_cfg.c **** *
  11:.\Generated_Source\PSoC4/cyfitter_cfg.c **** ********************************************************************************
  12:.\Generated_Source\PSoC4/cyfitter_cfg.c **** * Copyright (c) 2007-2015 Cypress Semiconductor.  All rights reserved.
  13:.\Generated_Source\PSoC4/cyfitter_cfg.c **** * You may use this file only in accordance with the license, terms, conditions, 
  14:.\Generated_Source\PSoC4/cyfitter_cfg.c **** * disclaimers, and limitations in the end user license agreement accompanying 
  15:.\Generated_Source\PSoC4/cyfitter_cfg.c **** * the software package with which this file was provided.
  16:.\Generated_Source\PSoC4/cyfitter_cfg.c **** ********************************************************************************/
  17:.\Generated_Source\PSoC4/cyfitter_cfg.c **** 
  18:.\Generated_Source\PSoC4/cyfitter_cfg.c **** #include <string.h>
  19:.\Generated_Source\PSoC4/cyfitter_cfg.c **** #include "cytypes.h"
  20:.\Generated_Source\PSoC4/cyfitter_cfg.c **** #include "cydevice_trm.h"
  21:.\Generated_Source\PSoC4/cyfitter_cfg.c **** #include "cyfitter.h"
  22:.\Generated_Source\PSoC4/cyfitter_cfg.c **** #include "CyLib.h"
  23:.\Generated_Source\PSoC4/cyfitter_cfg.c **** #include "cyfitter_cfg.h"
  24:.\Generated_Source\PSoC4/cyfitter_cfg.c **** 
  25:.\Generated_Source\PSoC4/cyfitter_cfg.c **** 
  26:.\Generated_Source\PSoC4/cyfitter_cfg.c **** #if defined(__GNUC__) || defined(__ARMCC_VERSION)
  27:.\Generated_Source\PSoC4/cyfitter_cfg.c ****     #define CYPACKED 
  28:.\Generated_Source\PSoC4/cyfitter_cfg.c ****     #define CYPACKED_ATTR __attribute__ ((packed))
  29:.\Generated_Source\PSoC4/cyfitter_cfg.c ****     #define CYALIGNED __attribute__ ((aligned))
  30:.\Generated_Source\PSoC4/cyfitter_cfg.c ****     #define CY_CFG_UNUSED __attribute__ ((unused))
  31:.\Generated_Source\PSoC4/cyfitter_cfg.c ****     #ifndef CY_CFG_SECTION
  32:.\Generated_Source\PSoC4/cyfitter_cfg.c ****         #define CY_CFG_SECTION __attribute__ ((section(".psocinit")))
  33:.\Generated_Source\PSoC4/cyfitter_cfg.c ****     #endif
ARM GAS  C:\Users\Petro\AppData\Local\Temp\ccG42VBa.s 			page 2


  34:.\Generated_Source\PSoC4/cyfitter_cfg.c ****     
  35:.\Generated_Source\PSoC4/cyfitter_cfg.c ****     #if defined(__ARMCC_VERSION)
  36:.\Generated_Source\PSoC4/cyfitter_cfg.c ****         #define CY_CFG_MEMORY_BARRIER() __memory_changed()
  37:.\Generated_Source\PSoC4/cyfitter_cfg.c ****     #else
  38:.\Generated_Source\PSoC4/cyfitter_cfg.c ****         #define CY_CFG_MEMORY_BARRIER() __sync_synchronize()
  39:.\Generated_Source\PSoC4/cyfitter_cfg.c ****     #endif
  40:.\Generated_Source\PSoC4/cyfitter_cfg.c ****     
  41:.\Generated_Source\PSoC4/cyfitter_cfg.c **** #elif defined(__ICCARM__)
  42:.\Generated_Source\PSoC4/cyfitter_cfg.c ****     #include <intrinsics.h>
  43:.\Generated_Source\PSoC4/cyfitter_cfg.c **** 
  44:.\Generated_Source\PSoC4/cyfitter_cfg.c ****     #define CYPACKED __packed
  45:.\Generated_Source\PSoC4/cyfitter_cfg.c ****     #define CYPACKED_ATTR 
  46:.\Generated_Source\PSoC4/cyfitter_cfg.c ****     #define CYALIGNED _Pragma("data_alignment=4")
  47:.\Generated_Source\PSoC4/cyfitter_cfg.c ****     #define CY_CFG_UNUSED _Pragma("diag_suppress=Pe177")
  48:.\Generated_Source\PSoC4/cyfitter_cfg.c ****     #define CY_CFG_SECTION _Pragma("location=\".psocinit\"")
  49:.\Generated_Source\PSoC4/cyfitter_cfg.c ****     
  50:.\Generated_Source\PSoC4/cyfitter_cfg.c ****     #define CY_CFG_MEMORY_BARRIER() __DMB()
  51:.\Generated_Source\PSoC4/cyfitter_cfg.c ****     
  52:.\Generated_Source\PSoC4/cyfitter_cfg.c **** #else
  53:.\Generated_Source\PSoC4/cyfitter_cfg.c ****     #error Unsupported toolchain
  54:.\Generated_Source\PSoC4/cyfitter_cfg.c **** #endif
  55:.\Generated_Source\PSoC4/cyfitter_cfg.c **** 
  56:.\Generated_Source\PSoC4/cyfitter_cfg.c **** 
  57:.\Generated_Source\PSoC4/cyfitter_cfg.c **** CY_CFG_UNUSED
  58:.\Generated_Source\PSoC4/cyfitter_cfg.c **** static void CYMEMZERO(void *s, size_t n);
  59:.\Generated_Source\PSoC4/cyfitter_cfg.c **** CY_CFG_UNUSED
  60:.\Generated_Source\PSoC4/cyfitter_cfg.c **** static void CYMEMZERO(void *s, size_t n)
  61:.\Generated_Source\PSoC4/cyfitter_cfg.c **** {
  25              		.loc 1 61 0
  26              		.cfi_startproc
  27 0000 80B5     		push	{r7, lr}
  28              		.cfi_def_cfa_offset 8
  29              		.cfi_offset 7, -8
  30              		.cfi_offset 14, -4
  31 0002 82B0     		sub	sp, sp, #8
  32              		.cfi_def_cfa_offset 16
  33 0004 00AF     		add	r7, sp, #0
  34              		.cfi_def_cfa_register 7
  35 0006 7860     		str	r0, [r7, #4]
  36 0008 3960     		str	r1, [r7]
  62:.\Generated_Source\PSoC4/cyfitter_cfg.c **** 	(void)memset(s, 0, n);
  37              		.loc 1 62 0
  38 000a 7A68     		ldr	r2, [r7, #4]
  39 000c 3B68     		ldr	r3, [r7]
  40 000e 101C     		mov	r0, r2
  41 0010 0021     		mov	r1, #0
  42 0012 1A1C     		mov	r2, r3
  43 0014 FFF7FEFF 		bl	memset
  63:.\Generated_Source\PSoC4/cyfitter_cfg.c **** }
  44              		.loc 1 63 0
  45 0018 BD46     		mov	sp, r7
  46 001a 02B0     		add	sp, sp, #8
  47              		@ sp needed
  48 001c 80BD     		pop	{r7, pc}
  49              		.cfi_endproc
  50              	.LFE2:
  51              		.size	CYMEMZERO, .-CYMEMZERO
ARM GAS  C:\Users\Petro\AppData\Local\Temp\ccG42VBa.s 			page 3


  52 001e C046     		.section	.text.CYCONFIGCPY,"ax",%progbits
  53              		.align	2
  54              		.code	16
  55              		.thumb_func
  56              		.type	CYCONFIGCPY, %function
  57              	CYCONFIGCPY:
  58              	.LFB3:
  64:.\Generated_Source\PSoC4/cyfitter_cfg.c **** CY_CFG_UNUSED
  65:.\Generated_Source\PSoC4/cyfitter_cfg.c **** static void CYCONFIGCPY(void *dest, const void *src, size_t n);
  66:.\Generated_Source\PSoC4/cyfitter_cfg.c **** CY_CFG_UNUSED
  67:.\Generated_Source\PSoC4/cyfitter_cfg.c **** static void CYCONFIGCPY(void *dest, const void *src, size_t n)
  68:.\Generated_Source\PSoC4/cyfitter_cfg.c **** {
  59              		.loc 1 68 0
  60              		.cfi_startproc
  61 0000 80B5     		push	{r7, lr}
  62              		.cfi_def_cfa_offset 8
  63              		.cfi_offset 7, -8
  64              		.cfi_offset 14, -4
  65 0002 84B0     		sub	sp, sp, #16
  66              		.cfi_def_cfa_offset 24
  67 0004 00AF     		add	r7, sp, #0
  68              		.cfi_def_cfa_register 7
  69 0006 F860     		str	r0, [r7, #12]
  70 0008 B960     		str	r1, [r7, #8]
  71 000a 7A60     		str	r2, [r7, #4]
  69:.\Generated_Source\PSoC4/cyfitter_cfg.c **** 	(void)memcpy(dest, src, n);
  72              		.loc 1 69 0
  73 000c F968     		ldr	r1, [r7, #12]
  74 000e BA68     		ldr	r2, [r7, #8]
  75 0010 7B68     		ldr	r3, [r7, #4]
  76 0012 081C     		mov	r0, r1
  77 0014 111C     		mov	r1, r2
  78 0016 1A1C     		mov	r2, r3
  79 0018 FFF7FEFF 		bl	memcpy
  70:.\Generated_Source\PSoC4/cyfitter_cfg.c **** }
  80              		.loc 1 70 0
  81 001c BD46     		mov	sp, r7
  82 001e 04B0     		add	sp, sp, #16
  83              		@ sp needed
  84 0020 80BD     		pop	{r7, pc}
  85              		.cfi_endproc
  86              	.LFE3:
  87              		.size	CYCONFIGCPY, .-CYCONFIGCPY
  88 0022 C046     		.section	.text.CYCONFIGCPYCODE,"ax",%progbits
  89              		.align	2
  90              		.code	16
  91              		.thumb_func
  92              		.type	CYCONFIGCPYCODE, %function
  93              	CYCONFIGCPYCODE:
  94              	.LFB4:
  71:.\Generated_Source\PSoC4/cyfitter_cfg.c **** CY_CFG_UNUSED
  72:.\Generated_Source\PSoC4/cyfitter_cfg.c **** static void CYCONFIGCPYCODE(void *dest, const void *src, size_t n);
  73:.\Generated_Source\PSoC4/cyfitter_cfg.c **** CY_CFG_UNUSED
  74:.\Generated_Source\PSoC4/cyfitter_cfg.c **** static void CYCONFIGCPYCODE(void *dest, const void *src, size_t n)
  75:.\Generated_Source\PSoC4/cyfitter_cfg.c **** {
  95              		.loc 1 75 0
  96              		.cfi_startproc
ARM GAS  C:\Users\Petro\AppData\Local\Temp\ccG42VBa.s 			page 4


  97 0000 80B5     		push	{r7, lr}
  98              		.cfi_def_cfa_offset 8
  99              		.cfi_offset 7, -8
 100              		.cfi_offset 14, -4
 101 0002 84B0     		sub	sp, sp, #16
 102              		.cfi_def_cfa_offset 24
 103 0004 00AF     		add	r7, sp, #0
 104              		.cfi_def_cfa_register 7
 105 0006 F860     		str	r0, [r7, #12]
 106 0008 B960     		str	r1, [r7, #8]
 107 000a 7A60     		str	r2, [r7, #4]
  76:.\Generated_Source\PSoC4/cyfitter_cfg.c **** 	(void)memcpy(dest, src, n);
 108              		.loc 1 76 0
 109 000c F968     		ldr	r1, [r7, #12]
 110 000e BA68     		ldr	r2, [r7, #8]
 111 0010 7B68     		ldr	r3, [r7, #4]
 112 0012 081C     		mov	r0, r1
 113 0014 111C     		mov	r1, r2
 114 0016 1A1C     		mov	r2, r3
 115 0018 FFF7FEFF 		bl	memcpy
  77:.\Generated_Source\PSoC4/cyfitter_cfg.c **** }
 116              		.loc 1 77 0
 117 001c BD46     		mov	sp, r7
 118 001e 04B0     		add	sp, sp, #16
 119              		@ sp needed
 120 0020 80BD     		pop	{r7, pc}
 121              		.cfi_endproc
 122              	.LFE4:
 123              		.size	CYCONFIGCPYCODE, .-CYCONFIGCPYCODE
 124 0022 C046     		.section	.text.cfg_write_bytes32,"ax",%progbits
 125              		.align	2
 126              		.code	16
 127              		.thumb_func
 128              		.type	cfg_write_bytes32, %function
 129              	cfg_write_bytes32:
 130              	.LFB5:
  78:.\Generated_Source\PSoC4/cyfitter_cfg.c **** 
  79:.\Generated_Source\PSoC4/cyfitter_cfg.c **** 
  80:.\Generated_Source\PSoC4/cyfitter_cfg.c **** 
  81:.\Generated_Source\PSoC4/cyfitter_cfg.c **** /* Clock startup error codes                                                   */
  82:.\Generated_Source\PSoC4/cyfitter_cfg.c **** #define CYCLOCKSTART_NO_ERROR    0u
  83:.\Generated_Source\PSoC4/cyfitter_cfg.c **** #define CYCLOCKSTART_XTAL_ERROR  1u
  84:.\Generated_Source\PSoC4/cyfitter_cfg.c **** #define CYCLOCKSTART_32KHZ_ERROR 2u
  85:.\Generated_Source\PSoC4/cyfitter_cfg.c **** #define CYCLOCKSTART_PLL_ERROR   3u
  86:.\Generated_Source\PSoC4/cyfitter_cfg.c **** 
  87:.\Generated_Source\PSoC4/cyfitter_cfg.c **** #ifdef CY_NEED_CYCLOCKSTARTUPERROR
  88:.\Generated_Source\PSoC4/cyfitter_cfg.c **** /*******************************************************************************
  89:.\Generated_Source\PSoC4/cyfitter_cfg.c **** * Function Name: CyClockStartupError
  90:.\Generated_Source\PSoC4/cyfitter_cfg.c **** ********************************************************************************
  91:.\Generated_Source\PSoC4/cyfitter_cfg.c **** * Summary:
  92:.\Generated_Source\PSoC4/cyfitter_cfg.c **** *  If an error is encountered during clock configuration (crystal startup error,
  93:.\Generated_Source\PSoC4/cyfitter_cfg.c **** *  PLL lock error, etc.), the system will end up here.  Unless reimplemented by
  94:.\Generated_Source\PSoC4/cyfitter_cfg.c **** *  the customer, this function will stop in an infinite loop.
  95:.\Generated_Source\PSoC4/cyfitter_cfg.c **** *
  96:.\Generated_Source\PSoC4/cyfitter_cfg.c **** * Parameters:
  97:.\Generated_Source\PSoC4/cyfitter_cfg.c **** *   void
  98:.\Generated_Source\PSoC4/cyfitter_cfg.c **** *
ARM GAS  C:\Users\Petro\AppData\Local\Temp\ccG42VBa.s 			page 5


  99:.\Generated_Source\PSoC4/cyfitter_cfg.c **** * Return:
 100:.\Generated_Source\PSoC4/cyfitter_cfg.c **** *   void
 101:.\Generated_Source\PSoC4/cyfitter_cfg.c **** *
 102:.\Generated_Source\PSoC4/cyfitter_cfg.c **** *******************************************************************************/
 103:.\Generated_Source\PSoC4/cyfitter_cfg.c **** CY_CFG_UNUSED
 104:.\Generated_Source\PSoC4/cyfitter_cfg.c **** static void CyClockStartupError(uint8 errorCode);
 105:.\Generated_Source\PSoC4/cyfitter_cfg.c **** CY_CFG_UNUSED
 106:.\Generated_Source\PSoC4/cyfitter_cfg.c **** static void CyClockStartupError(uint8 errorCode)
 107:.\Generated_Source\PSoC4/cyfitter_cfg.c **** {
 108:.\Generated_Source\PSoC4/cyfitter_cfg.c ****     /* To remove the compiler warning if errorCode not used.                */
 109:.\Generated_Source\PSoC4/cyfitter_cfg.c ****     errorCode = errorCode;
 110:.\Generated_Source\PSoC4/cyfitter_cfg.c **** 
 111:.\Generated_Source\PSoC4/cyfitter_cfg.c ****     /* `#START CyClockStartupError` */
 112:.\Generated_Source\PSoC4/cyfitter_cfg.c **** 
 113:.\Generated_Source\PSoC4/cyfitter_cfg.c ****     /* If we have a clock startup error (bad MHz crystal, PLL lock, etc.),  */
 114:.\Generated_Source\PSoC4/cyfitter_cfg.c ****     /* we will end up here to allow the customer to implement something to  */
 115:.\Generated_Source\PSoC4/cyfitter_cfg.c ****     /* deal with the clock condition.                                       */
 116:.\Generated_Source\PSoC4/cyfitter_cfg.c **** 
 117:.\Generated_Source\PSoC4/cyfitter_cfg.c ****     /* `#END` */
 118:.\Generated_Source\PSoC4/cyfitter_cfg.c **** 
 119:.\Generated_Source\PSoC4/cyfitter_cfg.c ****     /* If nothing else, stop here since the clocks have not started         */
 120:.\Generated_Source\PSoC4/cyfitter_cfg.c ****     /* correctly.                                                           */
 121:.\Generated_Source\PSoC4/cyfitter_cfg.c ****     while(1) {}
 122:.\Generated_Source\PSoC4/cyfitter_cfg.c **** }
 123:.\Generated_Source\PSoC4/cyfitter_cfg.c **** #endif
 124:.\Generated_Source\PSoC4/cyfitter_cfg.c **** 
 125:.\Generated_Source\PSoC4/cyfitter_cfg.c **** #define CY_CFG_BASE_ADDR_COUNT 6u
 126:.\Generated_Source\PSoC4/cyfitter_cfg.c **** CYPACKED typedef struct
 127:.\Generated_Source\PSoC4/cyfitter_cfg.c **** {
 128:.\Generated_Source\PSoC4/cyfitter_cfg.c **** 	uint8 offset;
 129:.\Generated_Source\PSoC4/cyfitter_cfg.c **** 	uint8 value;
 130:.\Generated_Source\PSoC4/cyfitter_cfg.c **** } CYPACKED_ATTR cy_cfg_addrvalue_t;
 131:.\Generated_Source\PSoC4/cyfitter_cfg.c **** 
 132:.\Generated_Source\PSoC4/cyfitter_cfg.c **** 
 133:.\Generated_Source\PSoC4/cyfitter_cfg.c **** 
 134:.\Generated_Source\PSoC4/cyfitter_cfg.c **** /*******************************************************************************
 135:.\Generated_Source\PSoC4/cyfitter_cfg.c **** * Function Name: cfg_write_bytes32
 136:.\Generated_Source\PSoC4/cyfitter_cfg.c **** ********************************************************************************
 137:.\Generated_Source\PSoC4/cyfitter_cfg.c **** * Summary:
 138:.\Generated_Source\PSoC4/cyfitter_cfg.c **** *  This function is used for setting up the chip configuration areas that
 139:.\Generated_Source\PSoC4/cyfitter_cfg.c **** *  contain relatively sparse data.
 140:.\Generated_Source\PSoC4/cyfitter_cfg.c **** *
 141:.\Generated_Source\PSoC4/cyfitter_cfg.c **** * Parameters:
 142:.\Generated_Source\PSoC4/cyfitter_cfg.c **** *   void
 143:.\Generated_Source\PSoC4/cyfitter_cfg.c **** *
 144:.\Generated_Source\PSoC4/cyfitter_cfg.c **** * Return:
 145:.\Generated_Source\PSoC4/cyfitter_cfg.c **** *   void
 146:.\Generated_Source\PSoC4/cyfitter_cfg.c **** *
 147:.\Generated_Source\PSoC4/cyfitter_cfg.c **** *******************************************************************************/
 148:.\Generated_Source\PSoC4/cyfitter_cfg.c **** static void cfg_write_bytes32(const uint32 addr_table[], const cy_cfg_addrvalue_t data_table[]);
 149:.\Generated_Source\PSoC4/cyfitter_cfg.c **** static void cfg_write_bytes32(const uint32 addr_table[], const cy_cfg_addrvalue_t data_table[])
 150:.\Generated_Source\PSoC4/cyfitter_cfg.c **** {
 131              		.loc 1 150 0
 132              		.cfi_startproc
 133 0000 80B5     		push	{r7, lr}
 134              		.cfi_def_cfa_offset 8
 135              		.cfi_offset 7, -8
ARM GAS  C:\Users\Petro\AppData\Local\Temp\ccG42VBa.s 			page 6


 136              		.cfi_offset 14, -4
 137 0002 86B0     		sub	sp, sp, #24
 138              		.cfi_def_cfa_offset 32
 139 0004 00AF     		add	r7, sp, #0
 140              		.cfi_def_cfa_register 7
 141 0006 7860     		str	r0, [r7, #4]
 142 0008 3960     		str	r1, [r7]
 151:.\Generated_Source\PSoC4/cyfitter_cfg.c **** 	/* For 32-bit little-endian architectures */
 152:.\Generated_Source\PSoC4/cyfitter_cfg.c **** 	uint32 i, j = 0u;
 143              		.loc 1 152 0
 144 000a 0023     		mov	r3, #0
 145 000c 3B61     		str	r3, [r7, #16]
 153:.\Generated_Source\PSoC4/cyfitter_cfg.c **** 	for (i = 0u; i < CY_CFG_BASE_ADDR_COUNT; i++)
 146              		.loc 1 153 0
 147 000e 0023     		mov	r3, #0
 148 0010 7B61     		str	r3, [r7, #20]
 149 0012 2FE0     		b	.L5
 150              	.L8:
 151              	.LBB2:
 154:.\Generated_Source\PSoC4/cyfitter_cfg.c **** 	{
 155:.\Generated_Source\PSoC4/cyfitter_cfg.c **** 		uint32 baseAddr = addr_table[i];
 152              		.loc 1 155 0
 153 0014 7B69     		ldr	r3, [r7, #20]
 154 0016 9B00     		lsl	r3, r3, #2
 155 0018 7A68     		ldr	r2, [r7, #4]
 156 001a D318     		add	r3, r2, r3
 157 001c 1B68     		ldr	r3, [r3]
 158 001e BB60     		str	r3, [r7, #8]
 156:.\Generated_Source\PSoC4/cyfitter_cfg.c **** 		uint8 count = (uint8)baseAddr;
 159              		.loc 1 156 0
 160 0020 0F23     		mov	r3, #15
 161 0022 FB18     		add	r3, r7, r3
 162 0024 BA68     		ldr	r2, [r7, #8]
 163 0026 1A70     		strb	r2, [r3]
 157:.\Generated_Source\PSoC4/cyfitter_cfg.c **** 		baseAddr &= 0xFFFFFF00u;
 164              		.loc 1 157 0
 165 0028 BB68     		ldr	r3, [r7, #8]
 166 002a FF22     		mov	r2, #255
 167 002c 9343     		bic	r3, r2
 168 002e BB60     		str	r3, [r7, #8]
 158:.\Generated_Source\PSoC4/cyfitter_cfg.c **** 		while (count != 0u)
 169              		.loc 1 158 0
 170 0030 18E0     		b	.L6
 171              	.L7:
 159:.\Generated_Source\PSoC4/cyfitter_cfg.c **** 		{
 160:.\Generated_Source\PSoC4/cyfitter_cfg.c **** 			CY_SET_XTND_REG8((void CYFAR *)(baseAddr + data_table[j].offset), data_table[j].value);
 172              		.loc 1 160 0
 173 0032 3B69     		ldr	r3, [r7, #16]
 174 0034 5B00     		lsl	r3, r3, #1
 175 0036 3A68     		ldr	r2, [r7]
 176 0038 D318     		add	r3, r2, r3
 177 003a 1B78     		ldrb	r3, [r3]
 178 003c 1A1C     		mov	r2, r3
 179 003e BB68     		ldr	r3, [r7, #8]
 180 0040 D318     		add	r3, r2, r3
 181 0042 191C     		mov	r1, r3
 182 0044 3B69     		ldr	r3, [r7, #16]
ARM GAS  C:\Users\Petro\AppData\Local\Temp\ccG42VBa.s 			page 7


 183 0046 5B00     		lsl	r3, r3, #1
 184 0048 3A68     		ldr	r2, [r7]
 185 004a D318     		add	r3, r2, r3
 186 004c 5B78     		ldrb	r3, [r3, #1]
 187 004e 0B70     		strb	r3, [r1]
 161:.\Generated_Source\PSoC4/cyfitter_cfg.c **** 			j++;
 188              		.loc 1 161 0
 189 0050 3B69     		ldr	r3, [r7, #16]
 190 0052 0133     		add	r3, r3, #1
 191 0054 3B61     		str	r3, [r7, #16]
 162:.\Generated_Source\PSoC4/cyfitter_cfg.c **** 			count--;
 192              		.loc 1 162 0
 193 0056 0F23     		mov	r3, #15
 194 0058 FB18     		add	r3, r7, r3
 195 005a 1A78     		ldrb	r2, [r3]
 196 005c 0F23     		mov	r3, #15
 197 005e FB18     		add	r3, r7, r3
 198 0060 013A     		sub	r2, r2, #1
 199 0062 1A70     		strb	r2, [r3]
 200              	.L6:
 158:.\Generated_Source\PSoC4/cyfitter_cfg.c **** 		{
 201              		.loc 1 158 0
 202 0064 0F23     		mov	r3, #15
 203 0066 FB18     		add	r3, r7, r3
 204 0068 1B78     		ldrb	r3, [r3]
 205 006a 002B     		cmp	r3, #0
 206 006c E1D1     		bne	.L7
 207              	.LBE2:
 153:.\Generated_Source\PSoC4/cyfitter_cfg.c **** 	{
 208              		.loc 1 153 0 discriminator 2
 209 006e 7B69     		ldr	r3, [r7, #20]
 210 0070 0133     		add	r3, r3, #1
 211 0072 7B61     		str	r3, [r7, #20]
 212              	.L5:
 153:.\Generated_Source\PSoC4/cyfitter_cfg.c **** 	{
 213              		.loc 1 153 0 is_stmt 0 discriminator 1
 214 0074 7B69     		ldr	r3, [r7, #20]
 215 0076 052B     		cmp	r3, #5
 216 0078 CCD9     		bls	.L8
 163:.\Generated_Source\PSoC4/cyfitter_cfg.c **** 		}
 164:.\Generated_Source\PSoC4/cyfitter_cfg.c **** 	}
 165:.\Generated_Source\PSoC4/cyfitter_cfg.c **** }
 217              		.loc 1 165 0 is_stmt 1
 218 007a BD46     		mov	sp, r7
 219 007c 06B0     		add	sp, sp, #24
 220              		@ sp needed
 221 007e 80BD     		pop	{r7, pc}
 222              		.cfi_endproc
 223              	.LFE5:
 224              		.size	cfg_write_bytes32, .-cfg_write_bytes32
 225              		.section	.psocinit,"ax",%progbits
 226              		.align	2
 227              		.code	16
 228              		.thumb_func
 229              		.type	ClockSetup, %function
 230              	ClockSetup:
 231              	.LFB6:
ARM GAS  C:\Users\Petro\AppData\Local\Temp\ccG42VBa.s 			page 8


 166:.\Generated_Source\PSoC4/cyfitter_cfg.c **** 
 167:.\Generated_Source\PSoC4/cyfitter_cfg.c **** 
 168:.\Generated_Source\PSoC4/cyfitter_cfg.c **** /*******************************************************************************
 169:.\Generated_Source\PSoC4/cyfitter_cfg.c **** * Function Name: ClockSetup
 170:.\Generated_Source\PSoC4/cyfitter_cfg.c **** ********************************************************************************
 171:.\Generated_Source\PSoC4/cyfitter_cfg.c **** *
 172:.\Generated_Source\PSoC4/cyfitter_cfg.c **** * Summary:
 173:.\Generated_Source\PSoC4/cyfitter_cfg.c **** *   Performs the initialization of all of the clocks in the device based on the
 174:.\Generated_Source\PSoC4/cyfitter_cfg.c **** *   settings in the Clock tab of the DWR.  This includes enabling the requested
 175:.\Generated_Source\PSoC4/cyfitter_cfg.c **** *   clocks and setting the necessary dividers to produce the desired frequency. 
 176:.\Generated_Source\PSoC4/cyfitter_cfg.c **** *
 177:.\Generated_Source\PSoC4/cyfitter_cfg.c **** * Parameters:
 178:.\Generated_Source\PSoC4/cyfitter_cfg.c **** *   void
 179:.\Generated_Source\PSoC4/cyfitter_cfg.c **** *
 180:.\Generated_Source\PSoC4/cyfitter_cfg.c **** * Return:
 181:.\Generated_Source\PSoC4/cyfitter_cfg.c **** *   void
 182:.\Generated_Source\PSoC4/cyfitter_cfg.c **** *
 183:.\Generated_Source\PSoC4/cyfitter_cfg.c **** *******************************************************************************/
 184:.\Generated_Source\PSoC4/cyfitter_cfg.c **** static void ClockSetup(void);
 185:.\Generated_Source\PSoC4/cyfitter_cfg.c **** CY_CFG_SECTION
 186:.\Generated_Source\PSoC4/cyfitter_cfg.c **** static void ClockSetup(void)
 187:.\Generated_Source\PSoC4/cyfitter_cfg.c **** {
 232              		.loc 1 187 0
 233              		.cfi_startproc
 234 0000 80B5     		push	{r7, lr}
 235              		.cfi_def_cfa_offset 8
 236              		.cfi_offset 7, -8
 237              		.cfi_offset 14, -4
 238 0002 00AF     		add	r7, sp, #0
 239              		.cfi_def_cfa_register 7
 188:.\Generated_Source\PSoC4/cyfitter_cfg.c **** 
 189:.\Generated_Source\PSoC4/cyfitter_cfg.c **** 	/* Set Flash Cycles based on max possible frequency in case a glitch occurs during ClockSetup(). *
 190:.\Generated_Source\PSoC4/cyfitter_cfg.c **** 	CY_SET_REG32((void CYXDATA *)(CYREG_CPUSS_FLASH_CTL), (0x0012u));
 240              		.loc 1 190 0
 241 0004 224B     		ldr	r3, .L10
 242 0006 1222     		mov	r2, #18
 243 0008 1A60     		str	r2, [r3]
 191:.\Generated_Source\PSoC4/cyfitter_cfg.c **** 
 192:.\Generated_Source\PSoC4/cyfitter_cfg.c **** 	/* Start the WCO */
 193:.\Generated_Source\PSoC4/cyfitter_cfg.c **** 	CySysClkWcoStart();
 244              		.loc 1 193 0
 245 000a FFF7FEFF 		bl	CySysClkWcoStart
 194:.\Generated_Source\PSoC4/cyfitter_cfg.c **** 	CyDelayCycles(12000000u); /* WCO may take up to 500ms to start */
 246              		.loc 1 194 0
 247 000e 214B     		ldr	r3, .L10+4
 248 0010 181C     		mov	r0, r3
 249 0012 FFF7FEFF 		bl	CyDelayCycles
 195:.\Generated_Source\PSoC4/cyfitter_cfg.c **** 	(void)CySysClkWcoSetPowerMode(CY_SYS_CLK_WCO_LPM);    /* Switch to the low power mode */
 250              		.loc 1 195 0
 251 0016 0120     		mov	r0, #1
 252 0018 FFF7FEFF 		bl	CySysClkWcoSetPowerMode
 196:.\Generated_Source\PSoC4/cyfitter_cfg.c **** 
 197:.\Generated_Source\PSoC4/cyfitter_cfg.c **** 	/* Setup and trim IMO based on desired frequency. */
 198:.\Generated_Source\PSoC4/cyfitter_cfg.c **** 	CySysClkWriteImoFreq(48u);
 253              		.loc 1 198 0
 254 001c 3020     		mov	r0, #48
 255 001e FFF7FEFF 		bl	CySysClkWriteImoFreq
ARM GAS  C:\Users\Petro\AppData\Local\Temp\ccG42VBa.s 			page 9


 199:.\Generated_Source\PSoC4/cyfitter_cfg.c **** 	/* CYDEV_CLK_ILO_CONFIG Starting address: CYDEV_CLK_ILO_CONFIG */
 200:.\Generated_Source\PSoC4/cyfitter_cfg.c **** 	CY_SET_XTND_REG32((void CYFAR *)(CYREG_CLK_ILO_CONFIG), 0x80000006u);
 256              		.loc 1 200 0
 257 0022 1D4B     		ldr	r3, .L10+8
 258 0024 1D4A     		ldr	r2, .L10+12
 259 0026 1A60     		str	r2, [r3]
 201:.\Generated_Source\PSoC4/cyfitter_cfg.c **** 
 202:.\Generated_Source\PSoC4/cyfitter_cfg.c **** 	/* CYDEV_WDT_CONFIG Starting address: CYDEV_WDT_CONFIG */
 203:.\Generated_Source\PSoC4/cyfitter_cfg.c **** 	CY_SET_XTND_REG32((void CYFAR *)(CYREG_WDT_CONFIG), 0x40000000u);
 260              		.loc 1 203 0
 261 0028 1D4B     		ldr	r3, .L10+16
 262 002a 8022     		mov	r2, #128
 263 002c D205     		lsl	r2, r2, #23
 264 002e 1A60     		str	r2, [r3]
 204:.\Generated_Source\PSoC4/cyfitter_cfg.c **** 
 205:.\Generated_Source\PSoC4/cyfitter_cfg.c **** 
 206:.\Generated_Source\PSoC4/cyfitter_cfg.c **** 	/* Enable fast start mode for XO */
 207:.\Generated_Source\PSoC4/cyfitter_cfg.c **** 	CY_SET_REG32((void*)CYREG_BLE_BLERD_BB_XO, CY_GET_REG32((void*)CYREG_BLE_BLERD_BB_XO) | (uint32)0x
 265              		.loc 1 207 0
 266 0030 1C4B     		ldr	r3, .L10+20
 267 0032 1C4A     		ldr	r2, .L10+20
 268 0034 1268     		ldr	r2, [r2]
 269 0036 0221     		mov	r1, #2
 270 0038 0A43     		orr	r2, r1
 271 003a 1A60     		str	r2, [r3]
 208:.\Generated_Source\PSoC4/cyfitter_cfg.c **** 	CY_SET_XTND_REG32((void CYFAR *)(CYREG_BLE_BLERD_BB_XO_CAPTRIM), 0x00003E2Du);
 272              		.loc 1 208 0
 273 003c 1A4B     		ldr	r3, .L10+24
 274 003e 1B4A     		ldr	r2, .L10+28
 275 0040 1A60     		str	r2, [r3]
 209:.\Generated_Source\PSoC4/cyfitter_cfg.c **** 	/* Disable Crystal Stable Interrupt before enabling ECO */
 210:.\Generated_Source\PSoC4/cyfitter_cfg.c **** 	CY_SET_REG32((void*)CYREG_BLE_BLESS_LL_DSM_CTRL, CY_GET_REG32((void*)CYREG_BLE_BLESS_LL_DSM_CTRL) 
 276              		.loc 1 210 0
 277 0042 1B4B     		ldr	r3, .L10+32
 278 0044 1A4A     		ldr	r2, .L10+32
 279 0046 1268     		ldr	r2, [r2]
 280 0048 0821     		mov	r1, #8
 281 004a 8A43     		bic	r2, r1
 282 004c 1A60     		str	r2, [r3]
 211:.\Generated_Source\PSoC4/cyfitter_cfg.c **** 	/* Start the ECO and do not check status since it is not needed for HFCLK */
 212:.\Generated_Source\PSoC4/cyfitter_cfg.c **** 	(void)CySysClkEcoStart(2000u);
 283              		.loc 1 212 0
 284 004e FA23     		mov	r3, #250
 285 0050 DB00     		lsl	r3, r3, #3
 286 0052 181C     		mov	r0, r3
 287 0054 FFF7FEFF 		bl	CySysClkEcoStart
 213:.\Generated_Source\PSoC4/cyfitter_cfg.c **** 	CyDelayUs(1500u); /* Wait to stabalize */
 288              		.loc 1 213 0
 289 0058 164B     		ldr	r3, .L10+36
 290 005a 181C     		mov	r0, r3
 291 005c FFF7FEFF 		bl	CyDelayUs
 214:.\Generated_Source\PSoC4/cyfitter_cfg.c **** 
 215:.\Generated_Source\PSoC4/cyfitter_cfg.c **** 	/* Setup phase aligned clocks */
 216:.\Generated_Source\PSoC4/cyfitter_cfg.c **** 	CY_SET_REG32((void *)CYREG_PERI_DIV_16_CTL0, 0x00006700u);
 292              		.loc 1 216 0
 293 0060 154B     		ldr	r3, .L10+40
 294 0062 CE22     		mov	r2, #206
ARM GAS  C:\Users\Petro\AppData\Local\Temp\ccG42VBa.s 			page 10


 295 0064 D201     		lsl	r2, r2, #7
 296 0066 1A60     		str	r2, [r3]
 217:.\Generated_Source\PSoC4/cyfitter_cfg.c **** 	CY_SET_REG32((void *)CYREG_PERI_DIV_CMD, 0x8000FF40u);
 297              		.loc 1 217 0
 298 0068 144B     		ldr	r3, .L10+44
 299 006a 154A     		ldr	r2, .L10+48
 300 006c 1A60     		str	r2, [r3]
 218:.\Generated_Source\PSoC4/cyfitter_cfg.c **** 
 219:.\Generated_Source\PSoC4/cyfitter_cfg.c **** 	/* CYDEV_CLK_IMO_CONFIG Starting address: CYDEV_CLK_IMO_CONFIG */
 220:.\Generated_Source\PSoC4/cyfitter_cfg.c **** 	CY_SET_XTND_REG32((void CYFAR *)(CYREG_CLK_IMO_CONFIG), 0x80000000u);
 301              		.loc 1 220 0
 302 006e 154B     		ldr	r3, .L10+52
 303 0070 8022     		mov	r2, #128
 304 0072 1206     		lsl	r2, r2, #24
 305 0074 1A60     		str	r2, [r3]
 221:.\Generated_Source\PSoC4/cyfitter_cfg.c **** 
 222:.\Generated_Source\PSoC4/cyfitter_cfg.c **** 	/* CYDEV_CLK_SELECT Starting address: CYDEV_CLK_SELECT */
 223:.\Generated_Source\PSoC4/cyfitter_cfg.c **** 	CY_SET_XTND_REG32((void CYFAR *)(CYREG_CLK_SELECT), 0x00040000u);
 306              		.loc 1 223 0
 307 0076 144B     		ldr	r3, .L10+56
 308 0078 8022     		mov	r2, #128
 309 007a D202     		lsl	r2, r2, #11
 310 007c 1A60     		str	r2, [r3]
 224:.\Generated_Source\PSoC4/cyfitter_cfg.c **** 
 225:.\Generated_Source\PSoC4/cyfitter_cfg.c **** 	/* CYDEV_PERI_PCLK_CTL11 Starting address: CYDEV_PERI_PCLK_CTL11 */
 226:.\Generated_Source\PSoC4/cyfitter_cfg.c **** 	CY_SET_XTND_REG32((void CYFAR *)(CYREG_PERI_PCLK_CTL11), 0x00000040u);
 311              		.loc 1 226 0
 312 007e 134B     		ldr	r3, .L10+60
 313 0080 4022     		mov	r2, #64
 314 0082 1A60     		str	r2, [r3]
 227:.\Generated_Source\PSoC4/cyfitter_cfg.c **** 
 228:.\Generated_Source\PSoC4/cyfitter_cfg.c **** 	CY_SET_XTND_REG32((void CYFAR *)(CYREG_WDT_CONFIG), 0x40000000u);
 315              		.loc 1 228 0
 316 0084 064B     		ldr	r3, .L10+16
 317 0086 8022     		mov	r2, #128
 318 0088 D205     		lsl	r2, r2, #23
 319 008a 1A60     		str	r2, [r3]
 229:.\Generated_Source\PSoC4/cyfitter_cfg.c **** }
 320              		.loc 1 229 0
 321 008c BD46     		mov	sp, r7
 322              		@ sp needed
 323 008e 80BD     		pop	{r7, pc}
 324              	.L11:
 325              		.align	2
 326              	.L10:
 327 0090 30001040 		.word	1074790448
 328 0094 001BB700 		.word	12000000
 329 0098 04010B40 		.word	1074462980
 330 009c 06000080 		.word	-2147483642
 331 00a0 0C020B40 		.word	1074463244
 332 00a4 78002E40 		.word	1076756600
 333 00a8 7C002E40 		.word	1076756604
 334 00ac 2D3E0000 		.word	15917
 335 00b0 6CF02E40 		.word	1076818028
 336 00b4 DC050000 		.word	1500
 337 00b8 00030140 		.word	1073808128
 338 00bc 00000140 		.word	1073807360
ARM GAS  C:\Users\Petro\AppData\Local\Temp\ccG42VBa.s 			page 11


 339 00c0 40FF0080 		.word	-2147418304
 340 00c4 08010B40 		.word	1074462984
 341 00c8 00010B40 		.word	1074462976
 342 00cc 2C010140 		.word	1073807660
 343              		.cfi_endproc
 344              	.LFE6:
 345              		.size	ClockSetup, .-ClockSetup
 346              		.section	.text.AnalogSetDefault,"ax",%progbits
 347              		.align	2
 348              		.code	16
 349              		.thumb_func
 350              		.type	AnalogSetDefault, %function
 351              	AnalogSetDefault:
 352              	.LFB7:
 230:.\Generated_Source\PSoC4/cyfitter_cfg.c **** 
 231:.\Generated_Source\PSoC4/cyfitter_cfg.c **** 
 232:.\Generated_Source\PSoC4/cyfitter_cfg.c **** /* Analog API Functions */
 233:.\Generated_Source\PSoC4/cyfitter_cfg.c **** 
 234:.\Generated_Source\PSoC4/cyfitter_cfg.c **** 
 235:.\Generated_Source\PSoC4/cyfitter_cfg.c **** /*******************************************************************************
 236:.\Generated_Source\PSoC4/cyfitter_cfg.c **** * Function Name: AnalogSetDefault
 237:.\Generated_Source\PSoC4/cyfitter_cfg.c **** ********************************************************************************
 238:.\Generated_Source\PSoC4/cyfitter_cfg.c **** *
 239:.\Generated_Source\PSoC4/cyfitter_cfg.c **** * Summary:
 240:.\Generated_Source\PSoC4/cyfitter_cfg.c **** *  Sets up the analog portions of the chip to default values based on chip
 241:.\Generated_Source\PSoC4/cyfitter_cfg.c **** *  configuration options from the project.
 242:.\Generated_Source\PSoC4/cyfitter_cfg.c **** *
 243:.\Generated_Source\PSoC4/cyfitter_cfg.c **** * Parameters:
 244:.\Generated_Source\PSoC4/cyfitter_cfg.c **** *  void
 245:.\Generated_Source\PSoC4/cyfitter_cfg.c **** *
 246:.\Generated_Source\PSoC4/cyfitter_cfg.c **** * Return:
 247:.\Generated_Source\PSoC4/cyfitter_cfg.c **** *  void
 248:.\Generated_Source\PSoC4/cyfitter_cfg.c **** *
 249:.\Generated_Source\PSoC4/cyfitter_cfg.c **** *******************************************************************************/
 250:.\Generated_Source\PSoC4/cyfitter_cfg.c **** static void AnalogSetDefault(void);
 251:.\Generated_Source\PSoC4/cyfitter_cfg.c **** static void AnalogSetDefault(void)
 252:.\Generated_Source\PSoC4/cyfitter_cfg.c **** {
 353              		.loc 1 252 0
 354              		.cfi_startproc
 355 0000 80B5     		push	{r7, lr}
 356              		.cfi_def_cfa_offset 8
 357              		.cfi_offset 7, -8
 358              		.cfi_offset 14, -4
 359 0002 00AF     		add	r7, sp, #0
 360              		.cfi_def_cfa_register 7
 253:.\Generated_Source\PSoC4/cyfitter_cfg.c **** 	CY_SET_XTND_REG32((void CYFAR *)CYREG_CTBM0_DFT_CTRL, 0x00000003u);
 361              		.loc 1 253 0
 362 0004 054B     		ldr	r3, .L13
 363 0006 0322     		mov	r2, #3
 364 0008 1A60     		str	r2, [r3]
 254:.\Generated_Source\PSoC4/cyfitter_cfg.c **** 	CY_SET_XTND_REG32((void CYFAR *)CYREG_CTBM1_DFT_CTRL, 0x00000003u);
 365              		.loc 1 254 0
 366 000a 054B     		ldr	r3, .L13+4
 367 000c 0322     		mov	r2, #3
 368 000e 1A60     		str	r2, [r3]
 255:.\Generated_Source\PSoC4/cyfitter_cfg.c **** 	CY_SET_XTND_REG32((void CYFAR *)CYREG_PASS_DSAB_DSAB_CTRL, 0x00000000u);
 369              		.loc 1 255 0
ARM GAS  C:\Users\Petro\AppData\Local\Temp\ccG42VBa.s 			page 12


 370 0010 044B     		ldr	r3, .L13+8
 371 0012 0022     		mov	r2, #0
 372 0014 1A60     		str	r2, [r3]
 256:.\Generated_Source\PSoC4/cyfitter_cfg.c **** }
 373              		.loc 1 256 0
 374 0016 BD46     		mov	sp, r7
 375              		@ sp needed
 376 0018 80BD     		pop	{r7, pc}
 377              	.L14:
 378 001a C046     		.align	2
 379              	.L13:
 380 001c 30003040 		.word	1076887600
 381 0020 30003140 		.word	1076953136
 382 0024 000E3F40 		.word	1077874176
 383              		.cfi_endproc
 384              	.LFE7:
 385              		.size	AnalogSetDefault, .-AnalogSetDefault
 386              		.section	.psocinit
 387              		.align	2
 388              		.global	cyfitter_cfg
 389              		.code	16
 390              		.thumb_func
 391              		.type	cyfitter_cfg, %function
 392              	cyfitter_cfg:
 393              	.LFB8:
 257:.\Generated_Source\PSoC4/cyfitter_cfg.c **** 
 258:.\Generated_Source\PSoC4/cyfitter_cfg.c **** #define CY_AMUX_UNUSED CYREG_CM0_ROM_DWT
 259:.\Generated_Source\PSoC4/cyfitter_cfg.c **** 
 260:.\Generated_Source\PSoC4/cyfitter_cfg.c **** 
 261:.\Generated_Source\PSoC4/cyfitter_cfg.c **** /*******************************************************************************
 262:.\Generated_Source\PSoC4/cyfitter_cfg.c **** * Function Name: cyfitter_cfg
 263:.\Generated_Source\PSoC4/cyfitter_cfg.c **** ********************************************************************************
 264:.\Generated_Source\PSoC4/cyfitter_cfg.c **** * Summary:
 265:.\Generated_Source\PSoC4/cyfitter_cfg.c **** *  This function is called by the start-up code for the selected device. It
 266:.\Generated_Source\PSoC4/cyfitter_cfg.c **** *  performs all of the necessary device configuration based on the design
 267:.\Generated_Source\PSoC4/cyfitter_cfg.c **** *  settings.  This includes settings from the Design Wide Resources (DWR) such
 268:.\Generated_Source\PSoC4/cyfitter_cfg.c **** *  as Clocks and Pins as well as any component configuration that is necessary.
 269:.\Generated_Source\PSoC4/cyfitter_cfg.c **** *
 270:.\Generated_Source\PSoC4/cyfitter_cfg.c **** * Parameters:  
 271:.\Generated_Source\PSoC4/cyfitter_cfg.c **** *   void
 272:.\Generated_Source\PSoC4/cyfitter_cfg.c **** *
 273:.\Generated_Source\PSoC4/cyfitter_cfg.c **** * Return:
 274:.\Generated_Source\PSoC4/cyfitter_cfg.c **** *   void
 275:.\Generated_Source\PSoC4/cyfitter_cfg.c **** *
 276:.\Generated_Source\PSoC4/cyfitter_cfg.c **** *******************************************************************************/
 277:.\Generated_Source\PSoC4/cyfitter_cfg.c **** CY_CFG_SECTION
 278:.\Generated_Source\PSoC4/cyfitter_cfg.c **** void cyfitter_cfg(void)
 279:.\Generated_Source\PSoC4/cyfitter_cfg.c **** {
 394              		.loc 1 279 0
 395              		.cfi_startproc
 396 00d0 80B5     		push	{r7, lr}
 397              		.cfi_def_cfa_offset 8
 398              		.cfi_offset 7, -8
 399              		.cfi_offset 14, -4
 400 00d2 82B0     		sub	sp, sp, #8
 401              		.cfi_def_cfa_offset 16
 402 00d4 00AF     		add	r7, sp, #0
ARM GAS  C:\Users\Petro\AppData\Local\Temp\ccG42VBa.s 			page 13


 403              		.cfi_def_cfa_register 7
 280:.\Generated_Source\PSoC4/cyfitter_cfg.c **** 	/* Disable interrupts by default. Let user enable if/when they want. */
 281:.\Generated_Source\PSoC4/cyfitter_cfg.c **** 	CyGlobalIntDisable;
 404              		.loc 1 281 0
 405              	@ 281 ".\Generated_Source\PSoC4\cyfitter_cfg.c" 1
 406 00d6 72B6     		CPSID   i
 407              	@ 0 "" 2
 282:.\Generated_Source\PSoC4/cyfitter_cfg.c **** 
 283:.\Generated_Source\PSoC4/cyfitter_cfg.c **** 	CY_SET_XTND_REG32((void CYFAR *)(CYREG_BLE_BLESS_LL_DSM_CTRL), 0x00000000u);
 408              		.loc 1 283 0
 409              		.code	16
 410 00d8 3B4B     		ldr	r3, .L18
 411 00da 0022     		mov	r2, #0
 412 00dc 1A60     		str	r2, [r3]
 284:.\Generated_Source\PSoC4/cyfitter_cfg.c **** 
 285:.\Generated_Source\PSoC4/cyfitter_cfg.c **** 	/* Enable the clock in the interrupt controller for the routed interrupts */
 286:.\Generated_Source\PSoC4/cyfitter_cfg.c **** 	CY_SET_REG8((void *)CYREG_UDB_UDBIF_INT_CLK_CTL, 0x01u);
 413              		.loc 1 286 0
 414 00de 3B4B     		ldr	r3, .L18+4
 415 00e0 0122     		mov	r2, #1
 416 00e2 1A70     		strb	r2, [r3]
 417              	.LBB3:
 287:.\Generated_Source\PSoC4/cyfitter_cfg.c **** 	{
 288:.\Generated_Source\PSoC4/cyfitter_cfg.c **** 		static const uint32 CYCODE cy_cfg_addr_table[] = {
 289:.\Generated_Source\PSoC4/cyfitter_cfg.c **** 			0x400F0002u, /* Base address: 0x400F0000 Count: 2 */
 290:.\Generated_Source\PSoC4/cyfitter_cfg.c **** 			0x400F3250u, /* Base address: 0x400F3200 Count: 80 */
 291:.\Generated_Source\PSoC4/cyfitter_cfg.c **** 			0x400F3334u, /* Base address: 0x400F3300 Count: 52 */
 292:.\Generated_Source\PSoC4/cyfitter_cfg.c **** 			0x400F4002u, /* Base address: 0x400F4000 Count: 2 */
 293:.\Generated_Source\PSoC4/cyfitter_cfg.c **** 			0x400F4106u, /* Base address: 0x400F4100 Count: 6 */
 294:.\Generated_Source\PSoC4/cyfitter_cfg.c **** 			0x400F6002u, /* Base address: 0x400F6000 Count: 2 */
 295:.\Generated_Source\PSoC4/cyfitter_cfg.c **** 		};
 296:.\Generated_Source\PSoC4/cyfitter_cfg.c **** 
 297:.\Generated_Source\PSoC4/cyfitter_cfg.c **** 		static const cy_cfg_addrvalue_t CYCODE cy_cfg_data_table[] = {
 298:.\Generated_Source\PSoC4/cyfitter_cfg.c **** 			{0x82u, 0x0Fu},
 299:.\Generated_Source\PSoC4/cyfitter_cfg.c **** 			{0x83u, 0x47u},
 300:.\Generated_Source\PSoC4/cyfitter_cfg.c **** 			{0x0Du, 0x01u},
 301:.\Generated_Source\PSoC4/cyfitter_cfg.c **** 			{0x14u, 0x58u},
 302:.\Generated_Source\PSoC4/cyfitter_cfg.c **** 			{0x16u, 0x25u},
 303:.\Generated_Source\PSoC4/cyfitter_cfg.c **** 			{0x18u, 0x18u},
 304:.\Generated_Source\PSoC4/cyfitter_cfg.c **** 			{0x1Au, 0x60u},
 305:.\Generated_Source\PSoC4/cyfitter_cfg.c **** 			{0x1Cu, 0x58u},
 306:.\Generated_Source\PSoC4/cyfitter_cfg.c **** 			{0x1Eu, 0x23u},
 307:.\Generated_Source\PSoC4/cyfitter_cfg.c **** 			{0x26u, 0x77u},
 308:.\Generated_Source\PSoC4/cyfitter_cfg.c **** 			{0x28u, 0x0Eu},
 309:.\Generated_Source\PSoC4/cyfitter_cfg.c **** 			{0x2Au, 0x40u},
 310:.\Generated_Source\PSoC4/cyfitter_cfg.c **** 			{0x2Eu, 0x02u},
 311:.\Generated_Source\PSoC4/cyfitter_cfg.c **** 			{0x30u, 0x40u},
 312:.\Generated_Source\PSoC4/cyfitter_cfg.c **** 			{0x32u, 0x3Cu},
 313:.\Generated_Source\PSoC4/cyfitter_cfg.c **** 			{0x34u, 0x07u},
 314:.\Generated_Source\PSoC4/cyfitter_cfg.c **** 			{0x35u, 0x01u},
 315:.\Generated_Source\PSoC4/cyfitter_cfg.c **** 			{0x36u, 0x07u},
 316:.\Generated_Source\PSoC4/cyfitter_cfg.c **** 			{0x3Au, 0xA8u},
 317:.\Generated_Source\PSoC4/cyfitter_cfg.c **** 			{0x3Eu, 0x01u},
 318:.\Generated_Source\PSoC4/cyfitter_cfg.c **** 			{0x3Fu, 0x10u},
 319:.\Generated_Source\PSoC4/cyfitter_cfg.c **** 			{0x40u, 0x31u},
 320:.\Generated_Source\PSoC4/cyfitter_cfg.c **** 			{0x41u, 0x02u},
 321:.\Generated_Source\PSoC4/cyfitter_cfg.c **** 			{0x45u, 0x0Cu},
ARM GAS  C:\Users\Petro\AppData\Local\Temp\ccG42VBa.s 			page 14


 322:.\Generated_Source\PSoC4/cyfitter_cfg.c **** 			{0x46u, 0xCEu},
 323:.\Generated_Source\PSoC4/cyfitter_cfg.c **** 			{0x47u, 0xB0u},
 324:.\Generated_Source\PSoC4/cyfitter_cfg.c **** 			{0x48u, 0x2Du},
 325:.\Generated_Source\PSoC4/cyfitter_cfg.c **** 			{0x49u, 0xFFu},
 326:.\Generated_Source\PSoC4/cyfitter_cfg.c **** 			{0x4Au, 0xFFu},
 327:.\Generated_Source\PSoC4/cyfitter_cfg.c **** 			{0x4Bu, 0xFFu},
 328:.\Generated_Source\PSoC4/cyfitter_cfg.c **** 			{0x4Eu, 0xF0u},
 329:.\Generated_Source\PSoC4/cyfitter_cfg.c **** 			{0x4Fu, 0x44u},
 330:.\Generated_Source\PSoC4/cyfitter_cfg.c **** 			{0x50u, 0x0Cu},
 331:.\Generated_Source\PSoC4/cyfitter_cfg.c **** 			{0x54u, 0x01u},
 332:.\Generated_Source\PSoC4/cyfitter_cfg.c **** 			{0x56u, 0x04u},
 333:.\Generated_Source\PSoC4/cyfitter_cfg.c **** 			{0x58u, 0x04u},
 334:.\Generated_Source\PSoC4/cyfitter_cfg.c **** 			{0x59u, 0x04u},
 335:.\Generated_Source\PSoC4/cyfitter_cfg.c **** 			{0x5Au, 0x04u},
 336:.\Generated_Source\PSoC4/cyfitter_cfg.c **** 			{0x5Bu, 0x04u},
 337:.\Generated_Source\PSoC4/cyfitter_cfg.c **** 			{0x5Fu, 0x01u},
 338:.\Generated_Source\PSoC4/cyfitter_cfg.c **** 			{0x66u, 0xC0u},
 339:.\Generated_Source\PSoC4/cyfitter_cfg.c **** 			{0x6Au, 0x40u},
 340:.\Generated_Source\PSoC4/cyfitter_cfg.c **** 			{0x6Bu, 0x02u},
 341:.\Generated_Source\PSoC4/cyfitter_cfg.c **** 			{0x80u, 0x6Cu},
 342:.\Generated_Source\PSoC4/cyfitter_cfg.c **** 			{0x82u, 0x11u},
 343:.\Generated_Source\PSoC4/cyfitter_cfg.c **** 			{0x83u, 0x40u},
 344:.\Generated_Source\PSoC4/cyfitter_cfg.c **** 			{0x85u, 0x0Fu},
 345:.\Generated_Source\PSoC4/cyfitter_cfg.c **** 			{0x89u, 0x0Fu},
 346:.\Generated_Source\PSoC4/cyfitter_cfg.c **** 			{0x8Au, 0x03u},
 347:.\Generated_Source\PSoC4/cyfitter_cfg.c **** 			{0x8Du, 0x0Eu},
 348:.\Generated_Source\PSoC4/cyfitter_cfg.c **** 			{0x8Fu, 0x01u},
 349:.\Generated_Source\PSoC4/cyfitter_cfg.c **** 			{0x90u, 0x14u},
 350:.\Generated_Source\PSoC4/cyfitter_cfg.c **** 			{0x97u, 0x70u},
 351:.\Generated_Source\PSoC4/cyfitter_cfg.c **** 			{0x98u, 0x70u},
 352:.\Generated_Source\PSoC4/cyfitter_cfg.c **** 			{0x99u, 0x48u},
 353:.\Generated_Source\PSoC4/cyfitter_cfg.c **** 			{0x9Au, 0x0Cu},
 354:.\Generated_Source\PSoC4/cyfitter_cfg.c **** 			{0x9Bu, 0x11u},
 355:.\Generated_Source\PSoC4/cyfitter_cfg.c **** 			{0x9Du, 0x11u},
 356:.\Generated_Source\PSoC4/cyfitter_cfg.c **** 			{0x9Fu, 0x62u},
 357:.\Generated_Source\PSoC4/cyfitter_cfg.c **** 			{0xA4u, 0x3Cu},
 358:.\Generated_Source\PSoC4/cyfitter_cfg.c **** 			{0xA5u, 0x80u},
 359:.\Generated_Source\PSoC4/cyfitter_cfg.c **** 			{0xA6u, 0x02u},
 360:.\Generated_Source\PSoC4/cyfitter_cfg.c **** 			{0xA8u, 0x09u},
 361:.\Generated_Source\PSoC4/cyfitter_cfg.c **** 			{0xA9u, 0x11u},
 362:.\Generated_Source\PSoC4/cyfitter_cfg.c **** 			{0xAAu, 0x50u},
 363:.\Generated_Source\PSoC4/cyfitter_cfg.c **** 			{0xABu, 0x24u},
 364:.\Generated_Source\PSoC4/cyfitter_cfg.c **** 			{0xACu, 0x10u},
 365:.\Generated_Source\PSoC4/cyfitter_cfg.c **** 			{0xB0u, 0x60u},
 366:.\Generated_Source\PSoC4/cyfitter_cfg.c **** 			{0xB1u, 0x80u},
 367:.\Generated_Source\PSoC4/cyfitter_cfg.c **** 			{0xB2u, 0x1Fu},
 368:.\Generated_Source\PSoC4/cyfitter_cfg.c **** 			{0xB3u, 0x0Fu},
 369:.\Generated_Source\PSoC4/cyfitter_cfg.c **** 			{0xB5u, 0x70u},
 370:.\Generated_Source\PSoC4/cyfitter_cfg.c **** 			{0xB7u, 0x0Fu},
 371:.\Generated_Source\PSoC4/cyfitter_cfg.c **** 			{0xBBu, 0x20u},
 372:.\Generated_Source\PSoC4/cyfitter_cfg.c **** 			{0xBEu, 0x01u},
 373:.\Generated_Source\PSoC4/cyfitter_cfg.c **** 			{0xBFu, 0x41u},
 374:.\Generated_Source\PSoC4/cyfitter_cfg.c **** 			{0xD6u, 0x02u},
 375:.\Generated_Source\PSoC4/cyfitter_cfg.c **** 			{0xD7u, 0x13u},
 376:.\Generated_Source\PSoC4/cyfitter_cfg.c **** 			{0xD8u, 0x04u},
 377:.\Generated_Source\PSoC4/cyfitter_cfg.c **** 			{0xD9u, 0x04u},
 378:.\Generated_Source\PSoC4/cyfitter_cfg.c **** 			{0xDBu, 0x04u},
ARM GAS  C:\Users\Petro\AppData\Local\Temp\ccG42VBa.s 			page 15


 379:.\Generated_Source\PSoC4/cyfitter_cfg.c **** 			{0xDFu, 0x01u},
 380:.\Generated_Source\PSoC4/cyfitter_cfg.c **** 			{0x00u, 0x10u},
 381:.\Generated_Source\PSoC4/cyfitter_cfg.c **** 			{0x03u, 0x80u},
 382:.\Generated_Source\PSoC4/cyfitter_cfg.c **** 			{0x09u, 0x01u},
 383:.\Generated_Source\PSoC4/cyfitter_cfg.c **** 			{0x0Bu, 0x08u},
 384:.\Generated_Source\PSoC4/cyfitter_cfg.c **** 			{0x0Eu, 0x22u},
 385:.\Generated_Source\PSoC4/cyfitter_cfg.c **** 			{0x0Fu, 0x08u},
 386:.\Generated_Source\PSoC4/cyfitter_cfg.c **** 			{0x12u, 0x28u},
 387:.\Generated_Source\PSoC4/cyfitter_cfg.c **** 			{0x13u, 0x80u},
 388:.\Generated_Source\PSoC4/cyfitter_cfg.c **** 			{0x15u, 0x28u},
 389:.\Generated_Source\PSoC4/cyfitter_cfg.c **** 			{0x17u, 0x80u},
 390:.\Generated_Source\PSoC4/cyfitter_cfg.c **** 			{0x18u, 0x10u},
 391:.\Generated_Source\PSoC4/cyfitter_cfg.c **** 			{0x19u, 0x05u},
 392:.\Generated_Source\PSoC4/cyfitter_cfg.c **** 			{0x1Du, 0x28u},
 393:.\Generated_Source\PSoC4/cyfitter_cfg.c **** 			{0x1Eu, 0x62u},
 394:.\Generated_Source\PSoC4/cyfitter_cfg.c **** 			{0x1Fu, 0x8Cu},
 395:.\Generated_Source\PSoC4/cyfitter_cfg.c **** 			{0x21u, 0x94u},
 396:.\Generated_Source\PSoC4/cyfitter_cfg.c **** 			{0x22u, 0x3Au},
 397:.\Generated_Source\PSoC4/cyfitter_cfg.c **** 			{0x27u, 0x08u},
 398:.\Generated_Source\PSoC4/cyfitter_cfg.c **** 			{0x29u, 0x04u},
 399:.\Generated_Source\PSoC4/cyfitter_cfg.c **** 			{0x2Bu, 0x08u},
 400:.\Generated_Source\PSoC4/cyfitter_cfg.c **** 			{0x32u, 0x18u},
 401:.\Generated_Source\PSoC4/cyfitter_cfg.c **** 			{0x33u, 0x80u},
 402:.\Generated_Source\PSoC4/cyfitter_cfg.c **** 			{0x38u, 0x02u},
 403:.\Generated_Source\PSoC4/cyfitter_cfg.c **** 			{0x39u, 0x54u},
 404:.\Generated_Source\PSoC4/cyfitter_cfg.c **** 			{0x3Fu, 0x80u},
 405:.\Generated_Source\PSoC4/cyfitter_cfg.c **** 			{0x45u, 0xA8u},
 406:.\Generated_Source\PSoC4/cyfitter_cfg.c **** 			{0x4Fu, 0x08u},
 407:.\Generated_Source\PSoC4/cyfitter_cfg.c **** 			{0x55u, 0x01u},
 408:.\Generated_Source\PSoC4/cyfitter_cfg.c **** 			{0x57u, 0x50u},
 409:.\Generated_Source\PSoC4/cyfitter_cfg.c **** 			{0x59u, 0x01u},
 410:.\Generated_Source\PSoC4/cyfitter_cfg.c **** 			{0x5Du, 0x01u},
 411:.\Generated_Source\PSoC4/cyfitter_cfg.c **** 			{0x5Eu, 0x40u},
 412:.\Generated_Source\PSoC4/cyfitter_cfg.c **** 			{0x5Fu, 0x18u},
 413:.\Generated_Source\PSoC4/cyfitter_cfg.c **** 			{0x63u, 0x30u},
 414:.\Generated_Source\PSoC4/cyfitter_cfg.c **** 			{0x67u, 0x80u},
 415:.\Generated_Source\PSoC4/cyfitter_cfg.c **** 			{0x69u, 0x54u},
 416:.\Generated_Source\PSoC4/cyfitter_cfg.c **** 			{0x70u, 0x01u},
 417:.\Generated_Source\PSoC4/cyfitter_cfg.c **** 			{0x73u, 0x80u},
 418:.\Generated_Source\PSoC4/cyfitter_cfg.c **** 			{0x79u, 0x01u},
 419:.\Generated_Source\PSoC4/cyfitter_cfg.c **** 			{0x7Bu, 0x40u},
 420:.\Generated_Source\PSoC4/cyfitter_cfg.c **** 			{0x87u, 0x40u},
 421:.\Generated_Source\PSoC4/cyfitter_cfg.c **** 			{0x8Au, 0x02u},
 422:.\Generated_Source\PSoC4/cyfitter_cfg.c **** 			{0xC0u, 0x0Au},
 423:.\Generated_Source\PSoC4/cyfitter_cfg.c **** 			{0xC2u, 0xEAu},
 424:.\Generated_Source\PSoC4/cyfitter_cfg.c **** 			{0xC4u, 0xE7u},
 425:.\Generated_Source\PSoC4/cyfitter_cfg.c **** 			{0xCAu, 0x06u},
 426:.\Generated_Source\PSoC4/cyfitter_cfg.c **** 			{0xCCu, 0x0Eu},
 427:.\Generated_Source\PSoC4/cyfitter_cfg.c **** 			{0xCEu, 0x1Fu},
 428:.\Generated_Source\PSoC4/cyfitter_cfg.c **** 			{0xD0u, 0x70u},
 429:.\Generated_Source\PSoC4/cyfitter_cfg.c **** 			{0xD6u, 0xF1u},
 430:.\Generated_Source\PSoC4/cyfitter_cfg.c **** 			{0xD8u, 0x80u},
 431:.\Generated_Source\PSoC4/cyfitter_cfg.c **** 			{0xE6u, 0x20u},
 432:.\Generated_Source\PSoC4/cyfitter_cfg.c **** 			{0x51u, 0x10u},
 433:.\Generated_Source\PSoC4/cyfitter_cfg.c **** 			{0xD4u, 0x20u},
 434:.\Generated_Source\PSoC4/cyfitter_cfg.c **** 			{0x6Fu, 0x02u},
 435:.\Generated_Source\PSoC4/cyfitter_cfg.c **** 			{0x87u, 0x02u},
ARM GAS  C:\Users\Petro\AppData\Local\Temp\ccG42VBa.s 			page 16


 436:.\Generated_Source\PSoC4/cyfitter_cfg.c **** 			{0x89u, 0x10u},
 437:.\Generated_Source\PSoC4/cyfitter_cfg.c **** 			{0x95u, 0x20u},
 438:.\Generated_Source\PSoC4/cyfitter_cfg.c **** 			{0xDAu, 0x80u},
 439:.\Generated_Source\PSoC4/cyfitter_cfg.c **** 			{0xE2u, 0x10u},
 440:.\Generated_Source\PSoC4/cyfitter_cfg.c **** 			{0x01u, 0x01u},
 441:.\Generated_Source\PSoC4/cyfitter_cfg.c **** 			{0x10u, 0x01u},
 442:.\Generated_Source\PSoC4/cyfitter_cfg.c **** 		};
 443:.\Generated_Source\PSoC4/cyfitter_cfg.c **** 
 444:.\Generated_Source\PSoC4/cyfitter_cfg.c **** 
 445:.\Generated_Source\PSoC4/cyfitter_cfg.c **** 
 446:.\Generated_Source\PSoC4/cyfitter_cfg.c **** 		CYPACKED typedef struct {
 447:.\Generated_Source\PSoC4/cyfitter_cfg.c **** 			void CYFAR *address;
 448:.\Generated_Source\PSoC4/cyfitter_cfg.c **** 			uint16 size;
 449:.\Generated_Source\PSoC4/cyfitter_cfg.c **** 		} CYPACKED_ATTR cfg_memset_t;
 450:.\Generated_Source\PSoC4/cyfitter_cfg.c **** 
 451:.\Generated_Source\PSoC4/cyfitter_cfg.c **** 		static const cfg_memset_t CYCODE cfg_memset_list [] = {
 452:.\Generated_Source\PSoC4/cyfitter_cfg.c **** 			/* address, size */
 453:.\Generated_Source\PSoC4/cyfitter_cfg.c **** 			{(void CYFAR *)(CYDEV_UDB_P0_U0_BASE), 1024u},
 454:.\Generated_Source\PSoC4/cyfitter_cfg.c **** 			{(void CYFAR *)(CYDEV_UDB_DSI0_BASE), 1024u},
 455:.\Generated_Source\PSoC4/cyfitter_cfg.c **** 		};
 456:.\Generated_Source\PSoC4/cyfitter_cfg.c **** 
 457:.\Generated_Source\PSoC4/cyfitter_cfg.c **** 		uint8 CYDATA i;
 458:.\Generated_Source\PSoC4/cyfitter_cfg.c **** 
 459:.\Generated_Source\PSoC4/cyfitter_cfg.c **** 		/* Zero out critical memory blocks before beginning configuration */
 460:.\Generated_Source\PSoC4/cyfitter_cfg.c **** 		for (i = 0u; i < (sizeof(cfg_memset_list)/sizeof(cfg_memset_list[0])); i++)
 418              		.loc 1 460 0
 419 00e4 FB1D     		add	r3, r7, #7
 420 00e6 0022     		mov	r2, #0
 421 00e8 1A70     		strb	r2, [r3]
 422 00ea 23E0     		b	.L16
 423              	.L17:
 424              	.LBB4:
 461:.\Generated_Source\PSoC4/cyfitter_cfg.c **** 		{
 462:.\Generated_Source\PSoC4/cyfitter_cfg.c **** 			const cfg_memset_t CYCODE * CYDATA ms = &cfg_memset_list[i];
 425              		.loc 1 462 0 discriminator 3
 426 00ec FB1D     		add	r3, r7, #7
 427 00ee 1A78     		ldrb	r2, [r3]
 428 00f0 131C     		mov	r3, r2
 429 00f2 5B00     		lsl	r3, r3, #1
 430 00f4 9B18     		add	r3, r3, r2
 431 00f6 5B00     		lsl	r3, r3, #1
 432 00f8 354A     		ldr	r2, .L18+8
 433 00fa 9B18     		add	r3, r3, r2
 434 00fc 3B60     		str	r3, [r7]
 463:.\Generated_Source\PSoC4/cyfitter_cfg.c **** 			CYMEMZERO(ms->address, (size_t)(uint32)(ms->size));
 435              		.loc 1 463 0 discriminator 3
 436 00fe 3B68     		ldr	r3, [r7]
 437 0100 1A78     		ldrb	r2, [r3]
 438 0102 5978     		ldrb	r1, [r3, #1]
 439 0104 0902     		lsl	r1, r1, #8
 440 0106 0A43     		orr	r2, r1
 441 0108 9978     		ldrb	r1, [r3, #2]
 442 010a 0904     		lsl	r1, r1, #16
 443 010c 0A43     		orr	r2, r1
 444 010e DB78     		ldrb	r3, [r3, #3]
 445 0110 1B06     		lsl	r3, r3, #24
 446 0112 1343     		orr	r3, r2
ARM GAS  C:\Users\Petro\AppData\Local\Temp\ccG42VBa.s 			page 17


 447 0114 191C     		mov	r1, r3
 448 0116 3B68     		ldr	r3, [r7]
 449 0118 1A79     		ldrb	r2, [r3, #4]
 450 011a 5B79     		ldrb	r3, [r3, #5]
 451 011c 1B02     		lsl	r3, r3, #8
 452 011e 1343     		orr	r3, r2
 453 0120 9BB2     		uxth	r3, r3
 454 0122 081C     		mov	r0, r1
 455 0124 191C     		mov	r1, r3
 456 0126 FFF7FEFF 		bl	CYMEMZERO
 457              	.LBE4:
 460:.\Generated_Source\PSoC4/cyfitter_cfg.c **** 		{
 458              		.loc 1 460 0 discriminator 3
 459 012a FB1D     		add	r3, r7, #7
 460 012c 1A78     		ldrb	r2, [r3]
 461 012e FB1D     		add	r3, r7, #7
 462 0130 0132     		add	r2, r2, #1
 463 0132 1A70     		strb	r2, [r3]
 464              	.L16:
 460:.\Generated_Source\PSoC4/cyfitter_cfg.c **** 		{
 465              		.loc 1 460 0 is_stmt 0 discriminator 1
 466 0134 FB1D     		add	r3, r7, #7
 467 0136 1B78     		ldrb	r3, [r3]
 468 0138 012B     		cmp	r3, #1
 469 013a D7D9     		bls	.L17
 464:.\Generated_Source\PSoC4/cyfitter_cfg.c **** 		}
 465:.\Generated_Source\PSoC4/cyfitter_cfg.c **** 
 466:.\Generated_Source\PSoC4/cyfitter_cfg.c **** 		cfg_write_bytes32(cy_cfg_addr_table, cy_cfg_data_table);
 470              		.loc 1 466 0 is_stmt 1
 471 013c 254A     		ldr	r2, .L18+12
 472 013e 264B     		ldr	r3, .L18+16
 473 0140 101C     		mov	r0, r2
 474 0142 191C     		mov	r1, r3
 475 0144 FFF7FEFF 		bl	cfg_write_bytes32
 467:.\Generated_Source\PSoC4/cyfitter_cfg.c **** 
 468:.\Generated_Source\PSoC4/cyfitter_cfg.c **** 		/* HSIOM Starting address: CYDEV_HSIOM_BASE */
 469:.\Generated_Source\PSoC4/cyfitter_cfg.c **** 		CY_SET_XTND_REG32((void CYFAR *)(CYDEV_HSIOM_BASE), 0xEE000030u);
 476              		.loc 1 469 0
 477 0148 244B     		ldr	r3, .L18+20
 478 014a 254A     		ldr	r2, .L18+24
 479 014c 1A60     		str	r2, [r3]
 470:.\Generated_Source\PSoC4/cyfitter_cfg.c **** 
 471:.\Generated_Source\PSoC4/cyfitter_cfg.c **** 		/* UDB_PA_0 Starting address: CYDEV_UDB_PA0_BASE */
 472:.\Generated_Source\PSoC4/cyfitter_cfg.c **** 		CY_SET_XTND_REG32((void CYFAR *)(CYDEV_UDB_PA0_BASE), 0x00990000u);
 480              		.loc 1 472 0
 481 014e 254B     		ldr	r3, .L18+28
 482 0150 9922     		mov	r2, #153
 483 0152 1204     		lsl	r2, r2, #16
 484 0154 1A60     		str	r2, [r3]
 473:.\Generated_Source\PSoC4/cyfitter_cfg.c **** 		CY_SET_XTND_REG32((void CYFAR *)(CYREG_UDB_PA0_CFG8), 0x00510000u);
 485              		.loc 1 473 0
 486 0156 244B     		ldr	r3, .L18+32
 487 0158 A222     		mov	r2, #162
 488 015a D203     		lsl	r2, r2, #15
 489 015c 1A60     		str	r2, [r3]
 474:.\Generated_Source\PSoC4/cyfitter_cfg.c **** 
 475:.\Generated_Source\PSoC4/cyfitter_cfg.c **** 		/* UDB_PA_2 Starting address: CYDEV_UDB_PA2_BASE */
ARM GAS  C:\Users\Petro\AppData\Local\Temp\ccG42VBa.s 			page 18


 476:.\Generated_Source\PSoC4/cyfitter_cfg.c **** 		CY_SET_XTND_REG32((void CYFAR *)(CYDEV_UDB_PA2_BASE), 0x00990000u);
 490              		.loc 1 476 0
 491 015e 234B     		ldr	r3, .L18+36
 492 0160 9922     		mov	r2, #153
 493 0162 1204     		lsl	r2, r2, #16
 494 0164 1A60     		str	r2, [r3]
 477:.\Generated_Source\PSoC4/cyfitter_cfg.c **** 
 478:.\Generated_Source\PSoC4/cyfitter_cfg.c **** 		/* INT_SELECT Starting address: CYDEV_CPUSS_INT_SEL */
 479:.\Generated_Source\PSoC4/cyfitter_cfg.c **** 		CY_SET_XTND_REG32((void CYFAR *)(CYREG_CPUSS_INT_SEL), 0x00000002u);
 495              		.loc 1 479 0
 496 0166 224B     		ldr	r3, .L18+40
 497 0168 0222     		mov	r2, #2
 498 016a 1A60     		str	r2, [r3]
 480:.\Generated_Source\PSoC4/cyfitter_cfg.c **** 
 481:.\Generated_Source\PSoC4/cyfitter_cfg.c **** 		/* INT_CONFIG Starting address: CYDEV_UDB_INT_CFG */
 482:.\Generated_Source\PSoC4/cyfitter_cfg.c **** 		CY_SET_XTND_REG32((void CYFAR *)(CYREG_UDB_INT_CFG), 0x00000002u);
 499              		.loc 1 482 0
 500 016c 214B     		ldr	r3, .L18+44
 501 016e 0222     		mov	r2, #2
 502 0170 1A60     		str	r2, [r3]
 483:.\Generated_Source\PSoC4/cyfitter_cfg.c **** 
 484:.\Generated_Source\PSoC4/cyfitter_cfg.c **** 		/* Enable digital routing */
 485:.\Generated_Source\PSoC4/cyfitter_cfg.c **** 		CY_SET_XTND_REG8((void *)CYREG_UDB_UDBIF_BANK_CTL, CY_GET_XTND_REG8((void *)CYREG_UDB_UDBIF_BANK_
 503              		.loc 1 485 0
 504 0172 214A     		ldr	r2, .L18+48
 505 0174 204B     		ldr	r3, .L18+48
 506 0176 1B78     		ldrb	r3, [r3]
 507 0178 DBB2     		uxtb	r3, r3
 508 017a 0221     		mov	r1, #2
 509 017c 0B43     		orr	r3, r1
 510 017e DBB2     		uxtb	r3, r3
 511 0180 1370     		strb	r3, [r2]
 486:.\Generated_Source\PSoC4/cyfitter_cfg.c **** 
 487:.\Generated_Source\PSoC4/cyfitter_cfg.c **** 		/* Enable UDB array */
 488:.\Generated_Source\PSoC4/cyfitter_cfg.c **** 		CY_SET_XTND_REG8((void *)CYREG_UDB_UDBIF_WAIT_CFG, (uint8)((CY_GET_XTND_REG8((void *)CYREG_UDB_UD
 512              		.loc 1 488 0
 513 0182 1E4A     		ldr	r2, .L18+52
 514 0184 1D4B     		ldr	r3, .L18+52
 515 0186 1B78     		ldrb	r3, [r3]
 516 0188 DBB2     		uxtb	r3, r3
 517 018a 3C21     		mov	r1, #60
 518 018c 8B43     		bic	r3, r1
 519 018e DBB2     		uxtb	r3, r3
 520 0190 1421     		mov	r1, #20
 521 0192 0B43     		orr	r3, r1
 522 0194 DBB2     		uxtb	r3, r3
 523 0196 1370     		strb	r3, [r2]
 489:.\Generated_Source\PSoC4/cyfitter_cfg.c **** 		CY_SET_XTND_REG8((void *)CYREG_UDB_UDBIF_BANK_CTL, (uint8)(CY_GET_XTND_REG8((void *)CYREG_UDB_UDB
 524              		.loc 1 489 0
 525 0198 174A     		ldr	r2, .L18+48
 526 019a 174B     		ldr	r3, .L18+48
 527 019c 1B78     		ldrb	r3, [r3]
 528 019e DBB2     		uxtb	r3, r3
 529 01a0 1621     		mov	r1, #22
 530 01a2 0B43     		orr	r3, r1
 531 01a4 DBB2     		uxtb	r3, r3
 532 01a6 1370     		strb	r3, [r2]
ARM GAS  C:\Users\Petro\AppData\Local\Temp\ccG42VBa.s 			page 19


 533              	.LBE3:
 490:.\Generated_Source\PSoC4/cyfitter_cfg.c **** 	}
 491:.\Generated_Source\PSoC4/cyfitter_cfg.c **** 
 492:.\Generated_Source\PSoC4/cyfitter_cfg.c **** 	/* Perform second pass device configuration. These items must be configured in specific order afte
 493:.\Generated_Source\PSoC4/cyfitter_cfg.c **** 	/* IOPINS0_0 Starting address: CYDEV_GPIO_PRT0_BASE */
 494:.\Generated_Source\PSoC4/cyfitter_cfg.c **** 	CY_SET_XTND_REG32((void CYFAR *)(CYDEV_GPIO_PRT0_BASE), 0x00000002u);
 534              		.loc 1 494 0
 535 01a8 154B     		ldr	r3, .L18+56
 536 01aa 0222     		mov	r2, #2
 537 01ac 1A60     		str	r2, [r3]
 495:.\Generated_Source\PSoC4/cyfitter_cfg.c **** 	CY_SET_XTND_REG32((void CYFAR *)(CYREG_GPIO_PRT0_PC), 0x00D80030u);
 538              		.loc 1 495 0
 539 01ae 154B     		ldr	r3, .L18+60
 540 01b0 154A     		ldr	r2, .L18+64
 541 01b2 1A60     		str	r2, [r3]
 496:.\Generated_Source\PSoC4/cyfitter_cfg.c **** 
 497:.\Generated_Source\PSoC4/cyfitter_cfg.c **** 	/* IOPINS0_2 Starting address: CYDEV_GPIO_PRT2_BASE */
 498:.\Generated_Source\PSoC4/cyfitter_cfg.c **** 	CY_SET_XTND_REG32((void CYFAR *)(CYREG_GPIO_PRT2_PC), 0x001B6DB6u);
 542              		.loc 1 498 0
 543 01b4 154B     		ldr	r3, .L18+68
 544 01b6 164A     		ldr	r2, .L18+72
 545 01b8 1A60     		str	r2, [r3]
 499:.\Generated_Source\PSoC4/cyfitter_cfg.c **** 
 500:.\Generated_Source\PSoC4/cyfitter_cfg.c **** 
 501:.\Generated_Source\PSoC4/cyfitter_cfg.c **** 	/* Setup clocks based on selections from Clock DWR */
 502:.\Generated_Source\PSoC4/cyfitter_cfg.c **** 	ClockSetup();
 546              		.loc 1 502 0
 547 01ba FFF721FF 		bl	ClockSetup
 503:.\Generated_Source\PSoC4/cyfitter_cfg.c **** 
 504:.\Generated_Source\PSoC4/cyfitter_cfg.c **** 	/* Perform basic analog initialization to defaults */
 505:.\Generated_Source\PSoC4/cyfitter_cfg.c **** 	AnalogSetDefault();
 548              		.loc 1 505 0
 549 01be FFF7FEFF 		bl	AnalogSetDefault
 506:.\Generated_Source\PSoC4/cyfitter_cfg.c **** 
 507:.\Generated_Source\PSoC4/cyfitter_cfg.c **** }
 550              		.loc 1 507 0
 551 01c2 BD46     		mov	sp, r7
 552 01c4 02B0     		add	sp, sp, #8
 553              		@ sp needed
 554 01c6 80BD     		pop	{r7, pc}
 555              	.L19:
 556              		.align	2
 557              	.L18:
 558 01c8 6CF02E40 		.word	1076818028
 559 01cc 1C700F40 		.word	1074753564
 560 01d0 00000000 		.word	cfg_memset_list.4765
 561 01d4 0C000000 		.word	cy_cfg_addr_table.4759
 562 01d8 24000000 		.word	cy_cfg_data_table.4760
 563 01dc 00000240 		.word	1073872896
 564 01e0 300000EE 		.word	-301989840
 565 01e4 00500F40 		.word	1074745344
 566 01e8 08500F40 		.word	1074745352
 567 01ec 20500F40 		.word	1074745376
 568 01f0 20001040 		.word	1074790432
 569 01f4 00800F40 		.word	1074757632
 570 01f8 00700F40 		.word	1074753536
 571 01fc 01700F40 		.word	1074753537
ARM GAS  C:\Users\Petro\AppData\Local\Temp\ccG42VBa.s 			page 20


 572 0200 00000440 		.word	1074003968
 573 0204 08000440 		.word	1074003976
 574 0208 3000D800 		.word	14155824
 575 020c 08020440 		.word	1074004488
 576 0210 B66D1B00 		.word	1797558
 577              		.cfi_endproc
 578              	.LFE8:
 579              		.size	cyfitter_cfg, .-cyfitter_cfg
 580              		.section	.rodata
 581              		.align	2
 582              		.type	cfg_memset_list.4765, %object
 583              		.size	cfg_memset_list.4765, 12
 584              	cfg_memset_list.4765:
 585 0000 00300F40 		.word	1074737152
 586 0004 0004     		.short	1024
 587 0006 00400F40 		.4byte	1074741248
 588 000a 0004     		.short	1024
 589              		.align	2
 590              		.type	cy_cfg_addr_table.4759, %object
 591              		.size	cy_cfg_addr_table.4759, 24
 592              	cy_cfg_addr_table.4759:
 593 000c 02000F40 		.word	1074724866
 594 0010 50320F40 		.word	1074737744
 595 0014 34330F40 		.word	1074737972
 596 0018 02400F40 		.word	1074741250
 597 001c 06410F40 		.word	1074741510
 598 0020 02600F40 		.word	1074749442
 599              		.align	2
 600              		.type	cy_cfg_data_table.4760, %object
 601              		.size	cy_cfg_data_table.4760, 288
 602              	cy_cfg_data_table.4760:
 603 0024 82       		.byte	-126
 604 0025 0F       		.byte	15
 605 0026 83       		.byte	-125
 606 0027 47       		.byte	71
 607 0028 0D       		.byte	13
 608 0029 01       		.byte	1
 609 002a 14       		.byte	20
 610 002b 58       		.byte	88
 611 002c 16       		.byte	22
 612 002d 25       		.byte	37
 613 002e 18       		.byte	24
 614 002f 18       		.byte	24
 615 0030 1A       		.byte	26
 616 0031 60       		.byte	96
 617 0032 1C       		.byte	28
 618 0033 58       		.byte	88
 619 0034 1E       		.byte	30
 620 0035 23       		.byte	35
 621 0036 26       		.byte	38
 622 0037 77       		.byte	119
 623 0038 28       		.byte	40
 624 0039 0E       		.byte	14
 625 003a 2A       		.byte	42
 626 003b 40       		.byte	64
 627 003c 2E       		.byte	46
 628 003d 02       		.byte	2
ARM GAS  C:\Users\Petro\AppData\Local\Temp\ccG42VBa.s 			page 21


 629 003e 30       		.byte	48
 630 003f 40       		.byte	64
 631 0040 32       		.byte	50
 632 0041 3C       		.byte	60
 633 0042 34       		.byte	52
 634 0043 07       		.byte	7
 635 0044 35       		.byte	53
 636 0045 01       		.byte	1
 637 0046 36       		.byte	54
 638 0047 07       		.byte	7
 639 0048 3A       		.byte	58
 640 0049 A8       		.byte	-88
 641 004a 3E       		.byte	62
 642 004b 01       		.byte	1
 643 004c 3F       		.byte	63
 644 004d 10       		.byte	16
 645 004e 40       		.byte	64
 646 004f 31       		.byte	49
 647 0050 41       		.byte	65
 648 0051 02       		.byte	2
 649 0052 45       		.byte	69
 650 0053 0C       		.byte	12
 651 0054 46       		.byte	70
 652 0055 CE       		.byte	-50
 653 0056 47       		.byte	71
 654 0057 B0       		.byte	-80
 655 0058 48       		.byte	72
 656 0059 2D       		.byte	45
 657 005a 49       		.byte	73
 658 005b FF       		.byte	-1
 659 005c 4A       		.byte	74
 660 005d FF       		.byte	-1
 661 005e 4B       		.byte	75
 662 005f FF       		.byte	-1
 663 0060 4E       		.byte	78
 664 0061 F0       		.byte	-16
 665 0062 4F       		.byte	79
 666 0063 44       		.byte	68
 667 0064 50       		.byte	80
 668 0065 0C       		.byte	12
 669 0066 54       		.byte	84
 670 0067 01       		.byte	1
 671 0068 56       		.byte	86
 672 0069 04       		.byte	4
 673 006a 58       		.byte	88
 674 006b 04       		.byte	4
 675 006c 59       		.byte	89
 676 006d 04       		.byte	4
 677 006e 5A       		.byte	90
 678 006f 04       		.byte	4
 679 0070 5B       		.byte	91
 680 0071 04       		.byte	4
 681 0072 5F       		.byte	95
 682 0073 01       		.byte	1
 683 0074 66       		.byte	102
 684 0075 C0       		.byte	-64
 685 0076 6A       		.byte	106
ARM GAS  C:\Users\Petro\AppData\Local\Temp\ccG42VBa.s 			page 22


 686 0077 40       		.byte	64
 687 0078 6B       		.byte	107
 688 0079 02       		.byte	2
 689 007a 80       		.byte	-128
 690 007b 6C       		.byte	108
 691 007c 82       		.byte	-126
 692 007d 11       		.byte	17
 693 007e 83       		.byte	-125
 694 007f 40       		.byte	64
 695 0080 85       		.byte	-123
 696 0081 0F       		.byte	15
 697 0082 89       		.byte	-119
 698 0083 0F       		.byte	15
 699 0084 8A       		.byte	-118
 700 0085 03       		.byte	3
 701 0086 8D       		.byte	-115
 702 0087 0E       		.byte	14
 703 0088 8F       		.byte	-113
 704 0089 01       		.byte	1
 705 008a 90       		.byte	-112
 706 008b 14       		.byte	20
 707 008c 97       		.byte	-105
 708 008d 70       		.byte	112
 709 008e 98       		.byte	-104
 710 008f 70       		.byte	112
 711 0090 99       		.byte	-103
 712 0091 48       		.byte	72
 713 0092 9A       		.byte	-102
 714 0093 0C       		.byte	12
 715 0094 9B       		.byte	-101
 716 0095 11       		.byte	17
 717 0096 9D       		.byte	-99
 718 0097 11       		.byte	17
 719 0098 9F       		.byte	-97
 720 0099 62       		.byte	98
 721 009a A4       		.byte	-92
 722 009b 3C       		.byte	60
 723 009c A5       		.byte	-91
 724 009d 80       		.byte	-128
 725 009e A6       		.byte	-90
 726 009f 02       		.byte	2
 727 00a0 A8       		.byte	-88
 728 00a1 09       		.byte	9
 729 00a2 A9       		.byte	-87
 730 00a3 11       		.byte	17
 731 00a4 AA       		.byte	-86
 732 00a5 50       		.byte	80
 733 00a6 AB       		.byte	-85
 734 00a7 24       		.byte	36
 735 00a8 AC       		.byte	-84
 736 00a9 10       		.byte	16
 737 00aa B0       		.byte	-80
 738 00ab 60       		.byte	96
 739 00ac B1       		.byte	-79
 740 00ad 80       		.byte	-128
 741 00ae B2       		.byte	-78
 742 00af 1F       		.byte	31
ARM GAS  C:\Users\Petro\AppData\Local\Temp\ccG42VBa.s 			page 23


 743 00b0 B3       		.byte	-77
 744 00b1 0F       		.byte	15
 745 00b2 B5       		.byte	-75
 746 00b3 70       		.byte	112
 747 00b4 B7       		.byte	-73
 748 00b5 0F       		.byte	15
 749 00b6 BB       		.byte	-69
 750 00b7 20       		.byte	32
 751 00b8 BE       		.byte	-66
 752 00b9 01       		.byte	1
 753 00ba BF       		.byte	-65
 754 00bb 41       		.byte	65
 755 00bc D6       		.byte	-42
 756 00bd 02       		.byte	2
 757 00be D7       		.byte	-41
 758 00bf 13       		.byte	19
 759 00c0 D8       		.byte	-40
 760 00c1 04       		.byte	4
 761 00c2 D9       		.byte	-39
 762 00c3 04       		.byte	4
 763 00c4 DB       		.byte	-37
 764 00c5 04       		.byte	4
 765 00c6 DF       		.byte	-33
 766 00c7 01       		.byte	1
 767 00c8 00       		.byte	0
 768 00c9 10       		.byte	16
 769 00ca 03       		.byte	3
 770 00cb 80       		.byte	-128
 771 00cc 09       		.byte	9
 772 00cd 01       		.byte	1
 773 00ce 0B       		.byte	11
 774 00cf 08       		.byte	8
 775 00d0 0E       		.byte	14
 776 00d1 22       		.byte	34
 777 00d2 0F       		.byte	15
 778 00d3 08       		.byte	8
 779 00d4 12       		.byte	18
 780 00d5 28       		.byte	40
 781 00d6 13       		.byte	19
 782 00d7 80       		.byte	-128
 783 00d8 15       		.byte	21
 784 00d9 28       		.byte	40
 785 00da 17       		.byte	23
 786 00db 80       		.byte	-128
 787 00dc 18       		.byte	24
 788 00dd 10       		.byte	16
 789 00de 19       		.byte	25
 790 00df 05       		.byte	5
 791 00e0 1D       		.byte	29
 792 00e1 28       		.byte	40
 793 00e2 1E       		.byte	30
 794 00e3 62       		.byte	98
 795 00e4 1F       		.byte	31
 796 00e5 8C       		.byte	-116
 797 00e6 21       		.byte	33
 798 00e7 94       		.byte	-108
 799 00e8 22       		.byte	34
ARM GAS  C:\Users\Petro\AppData\Local\Temp\ccG42VBa.s 			page 24


 800 00e9 3A       		.byte	58
 801 00ea 27       		.byte	39
 802 00eb 08       		.byte	8
 803 00ec 29       		.byte	41
 804 00ed 04       		.byte	4
 805 00ee 2B       		.byte	43
 806 00ef 08       		.byte	8
 807 00f0 32       		.byte	50
 808 00f1 18       		.byte	24
 809 00f2 33       		.byte	51
 810 00f3 80       		.byte	-128
 811 00f4 38       		.byte	56
 812 00f5 02       		.byte	2
 813 00f6 39       		.byte	57
 814 00f7 54       		.byte	84
 815 00f8 3F       		.byte	63
 816 00f9 80       		.byte	-128
 817 00fa 45       		.byte	69
 818 00fb A8       		.byte	-88
 819 00fc 4F       		.byte	79
 820 00fd 08       		.byte	8
 821 00fe 55       		.byte	85
 822 00ff 01       		.byte	1
 823 0100 57       		.byte	87
 824 0101 50       		.byte	80
 825 0102 59       		.byte	89
 826 0103 01       		.byte	1
 827 0104 5D       		.byte	93
 828 0105 01       		.byte	1
 829 0106 5E       		.byte	94
 830 0107 40       		.byte	64
 831 0108 5F       		.byte	95
 832 0109 18       		.byte	24
 833 010a 63       		.byte	99
 834 010b 30       		.byte	48
 835 010c 67       		.byte	103
 836 010d 80       		.byte	-128
 837 010e 69       		.byte	105
 838 010f 54       		.byte	84
 839 0110 70       		.byte	112
 840 0111 01       		.byte	1
 841 0112 73       		.byte	115
 842 0113 80       		.byte	-128
 843 0114 79       		.byte	121
 844 0115 01       		.byte	1
 845 0116 7B       		.byte	123
 846 0117 40       		.byte	64
 847 0118 87       		.byte	-121
 848 0119 40       		.byte	64
 849 011a 8A       		.byte	-118
 850 011b 02       		.byte	2
 851 011c C0       		.byte	-64
 852 011d 0A       		.byte	10
 853 011e C2       		.byte	-62
 854 011f EA       		.byte	-22
 855 0120 C4       		.byte	-60
 856 0121 E7       		.byte	-25
ARM GAS  C:\Users\Petro\AppData\Local\Temp\ccG42VBa.s 			page 25


 857 0122 CA       		.byte	-54
 858 0123 06       		.byte	6
 859 0124 CC       		.byte	-52
 860 0125 0E       		.byte	14
 861 0126 CE       		.byte	-50
 862 0127 1F       		.byte	31
 863 0128 D0       		.byte	-48
 864 0129 70       		.byte	112
 865 012a D6       		.byte	-42
 866 012b F1       		.byte	-15
 867 012c D8       		.byte	-40
 868 012d 80       		.byte	-128
 869 012e E6       		.byte	-26
 870 012f 20       		.byte	32
 871 0130 51       		.byte	81
 872 0131 10       		.byte	16
 873 0132 D4       		.byte	-44
 874 0133 20       		.byte	32
 875 0134 6F       		.byte	111
 876 0135 02       		.byte	2
 877 0136 87       		.byte	-121
 878 0137 02       		.byte	2
 879 0138 89       		.byte	-119
 880 0139 10       		.byte	16
 881 013a 95       		.byte	-107
 882 013b 20       		.byte	32
 883 013c DA       		.byte	-38
 884 013d 80       		.byte	-128
 885 013e E2       		.byte	-30
 886 013f 10       		.byte	16
 887 0140 01       		.byte	1
 888 0141 01       		.byte	1
 889 0142 10       		.byte	16
 890 0143 01       		.byte	1
 891              		.text
 892              	.Letext0:
 893              		.file 2 "c:\\program files (x86)\\cypress\\psoc creator\\3.3\\psoc creator\\import\\gnu\\arm\\4.9.
 894              		.file 3 ".\\Generated_Source\\PSoC4\\cytypes.h"