ARM GAS  C:\Users\Petro\AppData\Local\Temp\ccBXlqXh.s 			page 1


   1              		.cpu cortex-m0
   2              		.fpu softvfp
   3              		.eabi_attribute 20, 1
   4              		.eabi_attribute 21, 1
   5              		.eabi_attribute 23, 3
   6              		.eabi_attribute 24, 1
   7              		.eabi_attribute 25, 1
   8              		.eabi_attribute 26, 1
   9              		.eabi_attribute 30, 1
  10              		.eabi_attribute 34, 0
  11              		.eabi_attribute 18, 4
  12              		.code	16
  13              		.file	"main.c"
  14              		.text
  15              	.Ltext0:
  16              		.cfi_sections	.debug_frame
  17              		.section	.text.TX_ISR,"ax",%progbits
  18              		.align	2
  19              		.global	TX_ISR
  20              		.code	16
  21              		.thumb_func
  22              		.type	TX_ISR, %function
  23              	TX_ISR:
  24              	.LFB63:
  25              		.file 1 "main.c"
   1:main.c        **** #include "project.h"
   2:main.c        **** #include <display.h>
   3:main.c        **** #include <network.h>
   4:main.c        **** #include <RTC_WDT.h>
   5:main.c        **** 
   6:main.c        **** #define TIMEOUT_USER_READ_INFO 500
   7:main.c        **** 
   8:main.c        **** 
   9:main.c        **** uint32_t result;
  10:main.c        **** 
  11:main.c        **** 
  12:main.c        **** CY_ISR(TX_ISR)
  13:main.c        **** {
  26              		.loc 1 13 0
  27              		.cfi_startproc
  14:main.c        ****     
  15:main.c        **** }
  28              		.loc 1 15 0
  29              		@ sp needed
  30 0000 7047     		bx	lr
  31              		.cfi_endproc
  32              	.LFE63:
  33              		.size	TX_ISR, .-TX_ISR
  34 0002 C046     		.section	.text.RX_ISR,"ax",%progbits
  35              		.align	2
  36              		.global	RX_ISR
  37              		.code	16
  38              		.thumb_func
  39              		.type	RX_ISR, %function
  40              	RX_ISR:
  41              	.LFB64:
  16:main.c        **** 
ARM GAS  C:\Users\Petro\AppData\Local\Temp\ccBXlqXh.s 			page 2


  17:main.c        **** CY_ISR(RX_ISR)
  18:main.c        **** {
  42              		.loc 1 18 0
  43              		.cfi_startproc
  44 0000 08B5     		push	{r3, lr}
  45              		.cfi_def_cfa_offset 8
  46              		.cfi_offset 3, -8
  47              		.cfi_offset 14, -4
  19:main.c        ****     UART_XB2_GetChar();
  48              		.loc 1 19 0
  49 0002 FFF7FEFF 		bl	UART_XB2_GetChar
  50              	.LVL0:
  20:main.c        **** }
  51              		.loc 1 20 0
  52              		@ sp needed
  53 0006 08BD     		pop	{r3, pc}
  54              		.cfi_endproc
  55              	.LFE64:
  56              		.size	RX_ISR, .-RX_ISR
  57              		.section	.text.main,"ax",%progbits
  58              		.align	2
  59              		.global	main
  60              		.code	16
  61              		.thumb_func
  62              		.type	main, %function
  63              	main:
  64              	.LFB65:
  21:main.c        **** 
  22:main.c        **** 
  23:main.c        **** int main(void)
  24:main.c        **** {
  65              		.loc 1 24 0
  66              		.cfi_startproc
  67 0000 08B5     		push	{r3, lr}
  68              		.cfi_def_cfa_offset 8
  69              		.cfi_offset 3, -8
  70              		.cfi_offset 14, -4
  25:main.c        ****     CyGlobalIntEnable; /* Enable global interrupts. */
  71              		.loc 1 25 0
  72              	@ 25 "main.c" 1
  73 0002 62B6     		CPSIE   i
  74              	@ 0 "" 2
  26:main.c        **** 
  27:main.c        ****     DisplayStart();
  75              		.loc 1 27 0
  76              		.code	16
  77 0004 FFF7FEFF 		bl	DisplayStart
  78              	.LVL1:
  28:main.c        ****     Display("System init...");
  79              		.loc 1 28 0
  80 0008 1148     		ldr	r0, .L6
  81 000a FFF7FEFF 		bl	Display
  82              	.LVL2:
  29:main.c        ****     
  30:main.c        ****     RTC_WDT_Init(); 
  83              		.loc 1 30 0
  84 000e FFF7FEFF 		bl	RTC_WDT_Init
ARM GAS  C:\Users\Petro\AppData\Local\Temp\ccBXlqXh.s 			page 3


  85              	.LVL3:
  31:main.c        ****     InitNetwork();
  86              		.loc 1 31 0
  87 0012 FFF7FEFF 		bl	InitNetwork
  88              	.LVL4:
  32:main.c        ****     
  33:main.c        ****     
  34:main.c        ****     //UART_XB2_Start();
  35:main.c        ****     
  36:main.c        ****     isr_tx_StartEx(TX_ISR);
  89              		.loc 1 36 0
  90 0016 0F48     		ldr	r0, .L6+4
  91 0018 FFF7FEFF 		bl	isr_tx_StartEx
  92              	.LVL5:
  37:main.c        ****     isr_rx_StartEx(RX_ISR);
  93              		.loc 1 37 0
  94 001c 0E48     		ldr	r0, .L6+8
  95 001e FFF7FEFF 		bl	isr_rx_StartEx
  96              	.LVL6:
  38:main.c        ****     
  39:main.c        ****     Display("Sync time...");
  97              		.loc 1 39 0
  98 0022 0E48     		ldr	r0, .L6+12
  99 0024 FFF7FEFF 		bl	Display
 100              	.LVL7:
 101              	.L4:
  40:main.c        **** 
  41:main.c        ****     while((result = NTPsync()) != TIME_SYNC_OK)
 102              		.loc 1 41 0 discriminator 1
 103 0028 FFF7FEFF 		bl	NTPsync
 104              	.LVL8:
 105 002c 0C4B     		ldr	r3, .L6+16
 106 002e 1860     		str	r0, [r3]
 107 0030 0028     		cmp	r0, #0
 108 0032 F9D1     		bne	.L4
  42:main.c        ****     {
  43:main.c        ****         //Display("Sync time error");
  44:main.c        ****         //CyDelay(4*TIMEOUT_USER_READ_INFO);
  45:main.c        ****     }
  46:main.c        ****     
  47:main.c        ****     Display("Sync ok");
 109              		.loc 1 47 0
 110 0034 0B48     		ldr	r0, .L6+20
 111 0036 FFF7FEFF 		bl	Display
 112              	.LVL9:
  48:main.c        ****     CyDelay(4*TIMEOUT_USER_READ_INFO);
 113              		.loc 1 48 0
 114 003a FA20     		mov	r0, #250
 115 003c C000     		lsl	r0, r0, #3
 116 003e FFF7FEFF 		bl	CyDelay
 117              	.LVL10:
 118              	.L5:
  49:main.c        ****     
  50:main.c        ****     for(;;)
  51:main.c        ****     {
  52:main.c        ****         DisplayRealTime();
 119              		.loc 1 52 0 discriminator 1
ARM GAS  C:\Users\Petro\AppData\Local\Temp\ccBXlqXh.s 			page 4


 120 0042 FFF7FEFF 		bl	DisplayRealTime
 121              	.LVL11:
  53:main.c        ****         CyDelay(100);
 122              		.loc 1 53 0 discriminator 1
 123 0046 6420     		mov	r0, #100
 124 0048 FFF7FEFF 		bl	CyDelay
 125              	.LVL12:
  54:main.c        ****         
  55:main.c        ****     }
 126              		.loc 1 55 0 discriminator 1
 127 004c F9E7     		b	.L5
 128              	.L7:
 129 004e C046     		.align	2
 130              	.L6:
 131 0050 00000000 		.word	.LC0
 132 0054 00000000 		.word	TX_ISR
 133 0058 00000000 		.word	RX_ISR
 134 005c 10000000 		.word	.LC4
 135 0060 00000000 		.word	result
 136 0064 20000000 		.word	.LC7
 137              		.cfi_endproc
 138              	.LFE65:
 139              		.size	main, .-main
 140              		.comm	result,4,4
 141              		.section	.rodata.str1.4,"aMS",%progbits,1
 142              		.align	2
 143              	.LC0:
 144 0000 53797374 		.ascii	"System init...\000"
 144      656D2069 
 144      6E69742E 
 144      2E2E00
 145 000f 00       		.space	1
 146              	.LC4:
 147 0010 53796E63 		.ascii	"Sync time...\000"
 147      2074696D 
 147      652E2E2E 
 147      00
 148 001d 000000   		.space	3
 149              	.LC7:
 150 0020 53796E63 		.ascii	"Sync ok\000"
 150      206F6B00 
 151              		.text
 152              	.Letext0:
 153              		.file 2 "c:\\program files (x86)\\cypress\\psoc creator\\4.0\\psoc creator\\import\\gnu\\arm\\4.9.
 154              		.file 3 "c:\\program files (x86)\\cypress\\psoc creator\\4.0\\psoc creator\\import\\gnu\\arm\\4.9.
 155              		.file 4 "Generated_Source\\PSoC4/cytypes.h"
 156              		.file 5 "./display.h"
 157              		.file 6 "./network.h"
 158              		.file 7 "Generated_Source\\PSoC4/isr_tx.h"
 159              		.file 8 "Generated_Source\\PSoC4/isr_rx.h"
 160              		.file 9 "Generated_Source\\PSoC4/UART_XB2.h"
 161              		.file 10 "Generated_Source\\PSoC4/CyLib.h"
 162              		.file 11 "./RTC_WDT.h"