ARM GAS  C:\Users\Petro\AppData\Local\Temp\ccAfRAcN.s 			page 1


   1              		.cpu cortex-m0
   2              		.fpu softvfp
   3              		.eabi_attribute 20, 1
   4              		.eabi_attribute 21, 1
   5              		.eabi_attribute 23, 3
   6              		.eabi_attribute 24, 1
   7              		.eabi_attribute 25, 1
   8              		.eabi_attribute 26, 1
   9              		.eabi_attribute 30, 1
  10              		.eabi_attribute 34, 0
  11              		.eabi_attribute 18, 4
  12              		.code	16
  13              		.file	"RTC.c"
  14              		.text
  15              	.Ltext0:
  16              		.cfi_sections	.debug_frame
  17              		.section	.text.RTC_Stop,"ax",%progbits
  18              		.align	2
  19              		.global	RTC_Stop
  20              		.code	16
  21              		.thumb_func
  22              		.type	RTC_Stop, %function
  23              	RTC_Stop:
  24              	.LFB29:
  25              		.file 1 "Generated_Source\\PSoC4\\RTC.c"
   1:Generated_Source\PSoC4/RTC.c **** /***************************************************************************//**
   2:Generated_Source\PSoC4/RTC.c **** * \file Name: RTC.c
   3:Generated_Source\PSoC4/RTC.c **** * \version 1.10
   4:Generated_Source\PSoC4/RTC.c **** *
   5:Generated_Source\PSoC4/RTC.c **** * \brief
   6:Generated_Source\PSoC4/RTC.c **** *  This file provides the source code to the API for the RTC_P4 Component.
   7:Generated_Source\PSoC4/RTC.c **** *
   8:Generated_Source\PSoC4/RTC.c **** ********************************************************************************
   9:Generated_Source\PSoC4/RTC.c **** * \copyright
  10:Generated_Source\PSoC4/RTC.c **** * Copyright 2015-2016, Cypress Semiconductor Corporation. All rights reserved.
  11:Generated_Source\PSoC4/RTC.c **** * You may use this file only in accordance with the license, terms, conditions,
  12:Generated_Source\PSoC4/RTC.c **** * disclaimers, and limitations in the end user license agreement accompanying
  13:Generated_Source\PSoC4/RTC.c **** * the software package with which this file was provided.
  14:Generated_Source\PSoC4/RTC.c **** *******************************************************************************/
  15:Generated_Source\PSoC4/RTC.c **** 
  16:Generated_Source\PSoC4/RTC.c **** #include "RTC.h"
  17:Generated_Source\PSoC4/RTC.c **** 
  18:Generated_Source\PSoC4/RTC.c **** uint8  RTC_initVar;
  19:Generated_Source\PSoC4/RTC.c **** 
  20:Generated_Source\PSoC4/RTC.c **** volatile uint64 RTC_unixTime;
  21:Generated_Source\PSoC4/RTC.c **** RTC_DATE_TIME RTC_currentTimeDate;
  22:Generated_Source\PSoC4/RTC.c **** 
  23:Generated_Source\PSoC4/RTC.c **** static uint32 RTC_updateTimePeriod;
  24:Generated_Source\PSoC4/RTC.c **** static uint32 RTC_tickRefOneSec;
  25:Generated_Source\PSoC4/RTC.c **** 
  26:Generated_Source\PSoC4/RTC.c **** uint8  RTC_dstStatus;
  27:Generated_Source\PSoC4/RTC.c **** static uint32 RTC_dstTimeOffset;
  28:Generated_Source\PSoC4/RTC.c **** #if(0u != RTC_INITIAL_DST_STATUS)
  29:Generated_Source\PSoC4/RTC.c ****     static volatile uint64 RTC_unixTimeDstStart;
  30:Generated_Source\PSoC4/RTC.c ****     static volatile uint64 RTC_unixTimeDstStop;
  31:Generated_Source\PSoC4/RTC.c ****     RTC_DST_TIME RTC_dstStartTime;
  32:Generated_Source\PSoC4/RTC.c ****     RTC_DST_TIME RTC_dstStopTime;
ARM GAS  C:\Users\Petro\AppData\Local\Temp\ccAfRAcN.s 			page 2


  33:Generated_Source\PSoC4/RTC.c **** #endif /* (0u != RTC_INITIAL_DST_STATUS) */
  34:Generated_Source\PSoC4/RTC.c **** 
  35:Generated_Source\PSoC4/RTC.c **** uint32 RTC_alarmCurStatus;
  36:Generated_Source\PSoC4/RTC.c **** #if(0u != RTC_INITIAL_ALARM_STATUS)
  37:Generated_Source\PSoC4/RTC.c ****     uint32  RTC_alarmCfgMask = 0xFFu;
  38:Generated_Source\PSoC4/RTC.c ****     static volatile uint64 RTC_unixTimeAlarm;
  39:Generated_Source\PSoC4/RTC.c ****     RTC_DATE_TIME RTC_alarmCfgTimeDate;
  40:Generated_Source\PSoC4/RTC.c ****     void (*RTC_alarmCallbackPtr)(void) = (void *)0;
  41:Generated_Source\PSoC4/RTC.c **** #endif /* (0u != RTC_INITIAL_ALARM_STATUS) */
  42:Generated_Source\PSoC4/RTC.c **** 
  43:Generated_Source\PSoC4/RTC.c **** const uint16 RTC_daysBeforeMonthTbl[RTC_MONTHS_PER_YEAR] = {
  44:Generated_Source\PSoC4/RTC.c ****                                                  (0u), /* JANUARY */
  45:Generated_Source\PSoC4/RTC.c ****                                                  (0u + 31u), /* FEBRUARY */
  46:Generated_Source\PSoC4/RTC.c ****                                                  (0u + 31u + 28u), /* MARCH */
  47:Generated_Source\PSoC4/RTC.c ****                                                  (0u + 31u + 28u + 31u), /* APRIL */
  48:Generated_Source\PSoC4/RTC.c ****                                                  (0u + 31u + 28u + 31u + 30u), /* MAY */
  49:Generated_Source\PSoC4/RTC.c ****                                                  (0u + 31u + 28u + 31u + 30u + 31u), /* JUNE */
  50:Generated_Source\PSoC4/RTC.c ****                                                  (0u + 31u + 28u + 31u + 30u + 31u + 30u), /* JULY 
  51:Generated_Source\PSoC4/RTC.c ****                                                  (0u + 31u + 28u + 31u + 30u + 31u + 30u + 31u), /*
  52:Generated_Source\PSoC4/RTC.c ****                                                  (0u + 31u + 28u + 31u + 30u + 31u + 30u + 31u + 31
  53:Generated_Source\PSoC4/RTC.c ****                                                  (0u + 31u + 28u + 31u + 30u + 31u + 30u + 31u + 31
  54:Generated_Source\PSoC4/RTC.c ****                                                  (0u + 31u + 28u + 31u + 30u + 31u + 30u + 31u + 31
  55:Generated_Source\PSoC4/RTC.c ****                                                  (0u + 31u + 28u + 31u + 30u + 31u + 30u + 31u + 31
  56:Generated_Source\PSoC4/RTC.c **** 
  57:Generated_Source\PSoC4/RTC.c **** const uint8 RTC_daysInMonthTbl[RTC_MONTHS_PER_YEAR] = {RTC_DAYS_IN_JANUARY,
  58:Generated_Source\PSoC4/RTC.c ****                                                                                  RTC_DAYS_IN_FEBRUA
  59:Generated_Source\PSoC4/RTC.c ****                                                                                  RTC_DAYS_IN_MARCH,
  60:Generated_Source\PSoC4/RTC.c ****                                                                                  RTC_DAYS_IN_APRIL,
  61:Generated_Source\PSoC4/RTC.c ****                                                                                  RTC_DAYS_IN_MAY,
  62:Generated_Source\PSoC4/RTC.c ****                                                                                  RTC_DAYS_IN_JUNE,
  63:Generated_Source\PSoC4/RTC.c ****                                                                                  RTC_DAYS_IN_JULY,
  64:Generated_Source\PSoC4/RTC.c ****                                                                                  RTC_DAYS_IN_AUGUST
  65:Generated_Source\PSoC4/RTC.c ****                                                                                  RTC_DAYS_IN_SEPTEM
  66:Generated_Source\PSoC4/RTC.c ****                                                                                  RTC_DAYS_IN_OCTOBE
  67:Generated_Source\PSoC4/RTC.c ****                                                                                  RTC_DAYS_IN_NOVEMB
  68:Generated_Source\PSoC4/RTC.c ****                                                                                  RTC_DAYS_IN_DECEMB
  69:Generated_Source\PSoC4/RTC.c **** 
  70:Generated_Source\PSoC4/RTC.c **** 
  71:Generated_Source\PSoC4/RTC.c **** /*******************************************************************************
  72:Generated_Source\PSoC4/RTC.c **** * Function Name: RTC_Start
  73:Generated_Source\PSoC4/RTC.c **** ****************************************************************************//**
  74:Generated_Source\PSoC4/RTC.c **** *
  75:Generated_Source\PSoC4/RTC.c **** * \brief
  76:Generated_Source\PSoC4/RTC.c **** *  Performs all the required calculations for the time and date registers and
  77:Generated_Source\PSoC4/RTC.c **** *  initializes the component along with the date and time selected in the
  78:Generated_Source\PSoC4/RTC.c **** *  customizer. 
  79:Generated_Source\PSoC4/RTC.c **** *
  80:Generated_Source\PSoC4/RTC.c **** *  If "Implement RTC update manually" is disabled in the customizer
  81:Generated_Source\PSoC4/RTC.c **** *  and if WDT or WCO timer is selected as a source in the clocks configuration 
  82:Generated_Source\PSoC4/RTC.c **** *  window (low frequency clocks tab), attaches RTC_Update API to a corresponding
  83:Generated_Source\PSoC4/RTC.c **** *  WDT's or WCO's ISR callback.
  84:Generated_Source\PSoC4/RTC.c **** *
  85:Generated_Source\PSoC4/RTC.c **** * \note "Implement RTC update manually" checkbox is available for PSoC 4200L / 
  86:Generated_Source\PSoC4/RTC.c **** * PSoC 4100M / PSoC 4200M / PSoC 4100 BLE / PSoC 4200 BLE / PSoC 4000S / PSoC 
  87:Generated_Source\PSoC4/RTC.c **** * 4100S and Analog Coprocessor.
  88:Generated_Source\PSoC4/RTC.c **** *
  89:Generated_Source\PSoC4/RTC.c **** *******************************************************************************/
ARM GAS  C:\Users\Petro\AppData\Local\Temp\ccAfRAcN.s 			page 3


  90:Generated_Source\PSoC4/RTC.c **** void RTC_Start(void)
  91:Generated_Source\PSoC4/RTC.c **** {
  92:Generated_Source\PSoC4/RTC.c ****     if(0u == RTC_initVar)
  93:Generated_Source\PSoC4/RTC.c ****     {
  94:Generated_Source\PSoC4/RTC.c ****         RTC_Init();
  95:Generated_Source\PSoC4/RTC.c ****     }
  96:Generated_Source\PSoC4/RTC.c **** 
  97:Generated_Source\PSoC4/RTC.c ****     #if defined(CYDEV_RTC_SOURCE_WDT)
  98:Generated_Source\PSoC4/RTC.c ****         #if((0u != CYDEV_WDT_GENERATE_ISR) && (0u == RTC_INITIAL_UPDATE_MODE))
  99:Generated_Source\PSoC4/RTC.c ****             RTC_CySysRtcSetCallback(CYDEV_RTC_SOURCE_WDT);
 100:Generated_Source\PSoC4/RTC.c ****         #endif /* ((0u != CYDEV_WDT_GENERATE_ISR) && (0u == RTC_INITIAL_UPDATE_MODE)) */
 101:Generated_Source\PSoC4/RTC.c ****     #endif /* (CYDEV_RTC_SOURCE_WDT) */
 102:Generated_Source\PSoC4/RTC.c **** }
 103:Generated_Source\PSoC4/RTC.c **** 
 104:Generated_Source\PSoC4/RTC.c **** 
 105:Generated_Source\PSoC4/RTC.c **** /*******************************************************************************
 106:Generated_Source\PSoC4/RTC.c **** * Function Name: RTC_Stop
 107:Generated_Source\PSoC4/RTC.c **** ****************************************************************************//**
 108:Generated_Source\PSoC4/RTC.c **** *
 109:Generated_Source\PSoC4/RTC.c **** * \brief
 110:Generated_Source\PSoC4/RTC.c **** *  Stops the time and date updates.
 111:Generated_Source\PSoC4/RTC.c **** *
 112:Generated_Source\PSoC4/RTC.c **** *******************************************************************************/
 113:Generated_Source\PSoC4/RTC.c **** void RTC_Stop(void)
 114:Generated_Source\PSoC4/RTC.c **** {
  26              		.loc 1 114 0
  27              		.cfi_startproc
 115:Generated_Source\PSoC4/RTC.c ****     #if defined(CYDEV_RTC_SOURCE_WDT)
 116:Generated_Source\PSoC4/RTC.c ****         #if((0u != CYDEV_WDT_GENERATE_ISR) && (0u == RTC_INITIAL_UPDATE_MODE))
 117:Generated_Source\PSoC4/RTC.c ****             RTC_CySysRtcResetCallback(CYDEV_RTC_SOURCE_WDT);
 118:Generated_Source\PSoC4/RTC.c ****         #endif /* ((0u != CYDEV_WDT_GENERATE_ISR) && (0u == RTC_INITIAL_UPDATE_MODE)) */
 119:Generated_Source\PSoC4/RTC.c ****     #endif /* (CYDEV_RTC_SOURCE_WDT) */
 120:Generated_Source\PSoC4/RTC.c **** }
  28              		.loc 1 120 0
  29              		@ sp needed
  30 0000 7047     		bx	lr
  31              		.cfi_endproc
  32              	.LFE29:
  33              		.size	RTC_Stop, .-RTC_Stop
  34 0002 C046     		.section	.text.RTC_GetUnixTime,"ax",%progbits
  35              		.align	2
  36              		.global	RTC_GetUnixTime
  37              		.code	16
  38              		.thumb_func
  39              		.type	RTC_GetUnixTime, %function
  40              	RTC_GetUnixTime:
  41              	.LFB33:
 121:Generated_Source\PSoC4/RTC.c **** 
 122:Generated_Source\PSoC4/RTC.c **** 
 123:Generated_Source\PSoC4/RTC.c **** /*******************************************************************************
 124:Generated_Source\PSoC4/RTC.c **** * Function Name: RTC_Init
 125:Generated_Source\PSoC4/RTC.c **** ****************************************************************************//**
 126:Generated_Source\PSoC4/RTC.c **** *
 127:Generated_Source\PSoC4/RTC.c **** * \brief
 128:Generated_Source\PSoC4/RTC.c **** *  Initializes or restores the component according to the customizer Configure
 129:Generated_Source\PSoC4/RTC.c **** *  dialog settings. 
 130:Generated_Source\PSoC4/RTC.c **** *
ARM GAS  C:\Users\Petro\AppData\Local\Temp\ccAfRAcN.s 			page 4


 131:Generated_Source\PSoC4/RTC.c **** * It is not necessary to call RTC_Init() because
 132:Generated_Source\PSoC4/RTC.c **** *  RTC_Start() API calls this function and is the preferred method to begin
 133:Generated_Source\PSoC4/RTC.c **** *  component operation.
 134:Generated_Source\PSoC4/RTC.c **** *
 135:Generated_Source\PSoC4/RTC.c **** *  All registers are set to values according to the customizer Configure
 136:Generated_Source\PSoC4/RTC.c **** *  dialog. The default date value, if not set by the user before this function 
 137:Generated_Source\PSoC4/RTC.c **** *  call, is 12:00:00 AM January 1, 2000.
 138:Generated_Source\PSoC4/RTC.c **** *
 139:Generated_Source\PSoC4/RTC.c **** *******************************************************************************/
 140:Generated_Source\PSoC4/RTC.c **** void RTC_Init(void)
 141:Generated_Source\PSoC4/RTC.c **** {
 142:Generated_Source\PSoC4/RTC.c ****     uint32 tmpDate;
 143:Generated_Source\PSoC4/RTC.c ****     uint32 tmpTime;
 144:Generated_Source\PSoC4/RTC.c **** 
 145:Generated_Source\PSoC4/RTC.c ****     #if(0u != RTC_INITIAL_DST_STATUS)
 146:Generated_Source\PSoC4/RTC.c ****         RTC_DST_TIME dstTimeTmp;
 147:Generated_Source\PSoC4/RTC.c ****     #endif /* (0u != RTC_INITIAL_DST_STATUS) */
 148:Generated_Source\PSoC4/RTC.c **** 
 149:Generated_Source\PSoC4/RTC.c ****     RTC_initVar = 1u;
 150:Generated_Source\PSoC4/RTC.c ****     RTC_dstTimeOffset = 0uL;
 151:Generated_Source\PSoC4/RTC.c ****     RTC_currentTimeDate.status = 0uL;
 152:Generated_Source\PSoC4/RTC.c **** 
 153:Generated_Source\PSoC4/RTC.c ****     RTC_dstStatus      = RTC_INITIAL_DST_STATUS;
 154:Generated_Source\PSoC4/RTC.c ****     RTC_alarmCurStatus = RTC_INITIAL_ALARM_STATUS;
 155:Generated_Source\PSoC4/RTC.c **** 
 156:Generated_Source\PSoC4/RTC.c ****     tmpDate = RTC_ConstructDate(RTC_INITIAL_MONTH,
 157:Generated_Source\PSoC4/RTC.c ****                                           RTC_INITIAL_DAY,
 158:Generated_Source\PSoC4/RTC.c ****                                           RTC_INITIAL_YEAR);
 159:Generated_Source\PSoC4/RTC.c **** 
 160:Generated_Source\PSoC4/RTC.c ****     tmpTime = RTC_ConstructTime(RTC_INITIAL_TIME_FORMAT,
 161:Generated_Source\PSoC4/RTC.c ****                                           0u,
 162:Generated_Source\PSoC4/RTC.c ****                                           RTC_INITIAL_HOUR,
 163:Generated_Source\PSoC4/RTC.c ****                                           RTC_INITIAL_MINUTE,
 164:Generated_Source\PSoC4/RTC.c ****                                           RTC_INITIAL_SECOND);
 165:Generated_Source\PSoC4/RTC.c **** 
 166:Generated_Source\PSoC4/RTC.c ****     #if(0u != RTC_INITIAL_DST_STATUS)
 167:Generated_Source\PSoC4/RTC.c ****         RTC_dstStatus = 0u;
 168:Generated_Source\PSoC4/RTC.c ****         RTC_currentTimeDate.status = (1uL << RTC_STATUS_DST_OFFSET);
 169:Generated_Source\PSoC4/RTC.c **** 
 170:Generated_Source\PSoC4/RTC.c ****         dstTimeTmp.timeFormat    = RTC_INITIAL_DST_DATE_TYPE;
 171:Generated_Source\PSoC4/RTC.c ****         dstTimeTmp.hour          = RTC_INITIAL_DST_START_HRS;
 172:Generated_Source\PSoC4/RTC.c ****         dstTimeTmp.dayOfWeek     = RTC_INITIAL_DST_START_DOW;
 173:Generated_Source\PSoC4/RTC.c ****         dstTimeTmp.weekOfMonth   = RTC_INITIAL_DST_START_WOM;
 174:Generated_Source\PSoC4/RTC.c ****         dstTimeTmp.dayOfMonth    = RTC_INITIAL_DST_START_DOM;
 175:Generated_Source\PSoC4/RTC.c ****         dstTimeTmp.month         = RTC_INITIAL_DST_START_MONTH;
 176:Generated_Source\PSoC4/RTC.c ****         RTC_SetDSTStartTime(&dstTimeTmp, (RTC_DST_DATETYPE_ENUM)RTC_INITIAL_DST_DATE_TYPE);
 177:Generated_Source\PSoC4/RTC.c **** 
 178:Generated_Source\PSoC4/RTC.c ****         dstTimeTmp.timeFormat    = RTC_INITIAL_DST_DATE_TYPE;
 179:Generated_Source\PSoC4/RTC.c ****         dstTimeTmp.hour          = RTC_INITIAL_DST_STOP_HRS;
 180:Generated_Source\PSoC4/RTC.c ****         dstTimeTmp.dayOfWeek     = RTC_INITIAL_DST_STOP_DOW;
 181:Generated_Source\PSoC4/RTC.c ****         dstTimeTmp.weekOfMonth   = RTC_INITIAL_DST_STOP_WOM;
 182:Generated_Source\PSoC4/RTC.c ****         dstTimeTmp.dayOfMonth    = RTC_INITIAL_DST_STOP_DOM;
 183:Generated_Source\PSoC4/RTC.c ****         dstTimeTmp.month         = RTC_INITIAL_DST_STOP_MONTH;
 184:Generated_Source\PSoC4/RTC.c ****         RTC_SetDSTStopTime(&dstTimeTmp, (RTC_DST_DATETYPE_ENUM)RTC_INITIAL_DST_DATE_TYPE);
 185:Generated_Source\PSoC4/RTC.c **** 
 186:Generated_Source\PSoC4/RTC.c ****         RTC_unixTimeDstStart = RTC_GetDstUnixTime(&RTC_dstStartTime);
 187:Generated_Source\PSoC4/RTC.c ****         RTC_unixTimeDstStop  = RTC_GetDstUnixTime(&RTC_dstStopTime);
ARM GAS  C:\Users\Petro\AppData\Local\Temp\ccAfRAcN.s 			page 5


 188:Generated_Source\PSoC4/RTC.c **** 
 189:Generated_Source\PSoC4/RTC.c ****         if((RTC_unixTime >= RTC_unixTimeDstStart) &&
 190:Generated_Source\PSoC4/RTC.c ****            (RTC_unixTime <= RTC_unixTimeDstStop))
 191:Generated_Source\PSoC4/RTC.c ****         {
 192:Generated_Source\PSoC4/RTC.c ****             RTC_dstStatus = 1u;
 193:Generated_Source\PSoC4/RTC.c ****             RTC_dstTimeOffset = RTC_SECONDS_PER_HOUR;
 194:Generated_Source\PSoC4/RTC.c ****         }
 195:Generated_Source\PSoC4/RTC.c ****     #endif /* (0u != RTC_INITIAL_DST_STATUS) */
 196:Generated_Source\PSoC4/RTC.c **** 
 197:Generated_Source\PSoC4/RTC.c ****     RTC_SetDateAndTime(tmpTime, tmpDate);
 198:Generated_Source\PSoC4/RTC.c **** }
 199:Generated_Source\PSoC4/RTC.c **** 
 200:Generated_Source\PSoC4/RTC.c **** 
 201:Generated_Source\PSoC4/RTC.c **** /*******************************************************************************
 202:Generated_Source\PSoC4/RTC.c **** * Function Name: RTC_SetDateAndTime
 203:Generated_Source\PSoC4/RTC.c **** ****************************************************************************//**
 204:Generated_Source\PSoC4/RTC.c **** *
 205:Generated_Source\PSoC4/RTC.c **** * \brief
 206:Generated_Source\PSoC4/RTC.c **** * Sets the time and date values as the current time and date.
 207:Generated_Source\PSoC4/RTC.c **** *
 208:Generated_Source\PSoC4/RTC.c **** * \param
 209:Generated_Source\PSoC4/RTC.c **** * inputTime The time value in the HH:MM:SS format. <br>
 210:Generated_Source\PSoC4/RTC.c **** * "HH"- The 2nd 8-bit MSB that denotes the hour value.
 211:Generated_Source\PSoC4/RTC.c **** * (0-23 for the 24-hour format and 1-12 for the 12-hour format. The MSB bit of the
 212:Generated_Source\PSoC4/RTC.c **** * value denotes AM/PM for the 12-hour format (0-AM and 1-PM). <br>
 213:Generated_Source\PSoC4/RTC.c **** * "MM" - The 3nd 8-bit MSB denotes the minutes value, the valid entries -> 0-59.<br>
 214:Generated_Source\PSoC4/RTC.c **** * "SS" - The 8-bit LSB denotes the seconds value, the valid entries -> 0-59.
 215:Generated_Source\PSoC4/RTC.c **** * Each byte is in the BCD format. Invalid time entries retain the
 216:Generated_Source\PSoC4/RTC.c **** * previously set values.
 217:Generated_Source\PSoC4/RTC.c **** *
 218:Generated_Source\PSoC4/RTC.c **** * \param
 219:Generated_Source\PSoC4/RTC.c **** *  inputDate The date value in the format selected in the customizer.
 220:Generated_Source\PSoC4/RTC.c **** * For the MM/DD/YYYY format: <br>
 221:Generated_Source\PSoC4/RTC.c **** * "MM" - The 8-bit MSB denotes the month value in BCD, the valid entries -> 1-12<br>
 222:Generated_Source\PSoC4/RTC.c **** * "DD" - The 2nd 8-bit MSB denotes a day of the month value in BCD, the valid
 223:Generated_Source\PSoC4/RTC.c **** * entries -> 1-31.<br>
 224:Generated_Source\PSoC4/RTC.c **** * "YYYY" - The 16-bit LSB denotes a year in BCD, the valid entries -> 1900-2200.
 225:Generated_Source\PSoC4/RTC.c **** * Each byte is in the BCD format. Invalid date entries retain the
 226:Generated_Source\PSoC4/RTC.c **** * previously set values.
 227:Generated_Source\PSoC4/RTC.c **** *
 228:Generated_Source\PSoC4/RTC.c **** *******************************************************************************/
 229:Generated_Source\PSoC4/RTC.c **** void RTC_SetDateAndTime(uint32 inputTime, uint32 inputDate)
 230:Generated_Source\PSoC4/RTC.c **** {
 231:Generated_Source\PSoC4/RTC.c ****     uint32 tmpDay;
 232:Generated_Source\PSoC4/RTC.c ****     uint32 tmpMonth;
 233:Generated_Source\PSoC4/RTC.c ****     uint32 tmpYear;
 234:Generated_Source\PSoC4/RTC.c **** 
 235:Generated_Source\PSoC4/RTC.c ****     tmpDay   = RTC_GetDay(inputDate);
 236:Generated_Source\PSoC4/RTC.c ****     tmpMonth = RTC_GetMonth(inputDate);
 237:Generated_Source\PSoC4/RTC.c ****     tmpYear  = RTC_GetYear(inputDate);
 238:Generated_Source\PSoC4/RTC.c **** 
 239:Generated_Source\PSoC4/RTC.c ****     RTC_unixTime = RTC_DateTimeToUnix(inputDate, inputTime);
 240:Generated_Source\PSoC4/RTC.c ****     RTC_currentTimeDate.date = inputDate;
 241:Generated_Source\PSoC4/RTC.c ****     RTC_currentTimeDate.time = inputTime;
 242:Generated_Source\PSoC4/RTC.c ****     RTC_currentTimeDate.dayOfWeek = RTC_GetDayOfWeek(tmpDay, tmpMonth, tmpYear);
 243:Generated_Source\PSoC4/RTC.c **** 
 244:Generated_Source\PSoC4/RTC.c ****     #if(0u != RTC_INITIAL_DST_STATUS)
ARM GAS  C:\Users\Petro\AppData\Local\Temp\ccAfRAcN.s 			page 6


 245:Generated_Source\PSoC4/RTC.c ****         RTC_unixTimeDstStart = RTC_GetDstUnixTime(&RTC_dstStartTime);
 246:Generated_Source\PSoC4/RTC.c ****         RTC_unixTimeDstStop  = RTC_GetDstUnixTime(&RTC_dstStopTime);
 247:Generated_Source\PSoC4/RTC.c **** 
 248:Generated_Source\PSoC4/RTC.c ****         if((RTC_unixTime >= RTC_unixTimeDstStart) &&
 249:Generated_Source\PSoC4/RTC.c ****            (RTC_unixTime <= RTC_unixTimeDstStop))
 250:Generated_Source\PSoC4/RTC.c ****         {
 251:Generated_Source\PSoC4/RTC.c ****             RTC_dstStatus = 1u;
 252:Generated_Source\PSoC4/RTC.c ****             RTC_dstTimeOffset = RTC_SECONDS_PER_HOUR;
 253:Generated_Source\PSoC4/RTC.c ****             RTC_unixTime -= RTC_dstTimeOffset;
 254:Generated_Source\PSoC4/RTC.c ****         }
 255:Generated_Source\PSoC4/RTC.c ****         else
 256:Generated_Source\PSoC4/RTC.c ****         {
 257:Generated_Source\PSoC4/RTC.c ****             RTC_dstStatus = 0u;
 258:Generated_Source\PSoC4/RTC.c ****             RTC_dstTimeOffset = 0uL;
 259:Generated_Source\PSoC4/RTC.c ****         }
 260:Generated_Source\PSoC4/RTC.c ****     #endif /* (0u != RTC_INITIAL_DST_STATUS) */
 261:Generated_Source\PSoC4/RTC.c **** 
 262:Generated_Source\PSoC4/RTC.c ****     #if(0u != RTC_INITIAL_ALARM_STATUS)
 263:Generated_Source\PSoC4/RTC.c ****         RTC_unixTimeAlarm = RTC_ConstructUnixAlarmTime(&RTC_alarmCfgTimeDate,
 264:Generated_Source\PSoC4/RTC.c ****                                                                                  (uint8)RTC_alarmCf
 265:Generated_Source\PSoC4/RTC.c ****     #endif /* (0u != RTC_INITIAL_ALARM_STATUS) */
 266:Generated_Source\PSoC4/RTC.c **** }
 267:Generated_Source\PSoC4/RTC.c **** 
 268:Generated_Source\PSoC4/RTC.c **** 
 269:Generated_Source\PSoC4/RTC.c **** /*******************************************************************************
 270:Generated_Source\PSoC4/RTC.c **** * Function Name: RTC_SetUnixTime
 271:Generated_Source\PSoC4/RTC.c **** ****************************************************************************//**
 272:Generated_Source\PSoC4/RTC.c **** *
 273:Generated_Source\PSoC4/RTC.c **** * \brief
 274:Generated_Source\PSoC4/RTC.c **** * Sets the time in the Unix/Epoch time format - the number of seconds elapsed 
 275:Generated_Source\PSoC4/RTC.c **** *  from January 1, 1970 UTC 00:00 hrs.
 276:Generated_Source\PSoC4/RTC.c **** *
 277:Generated_Source\PSoC4/RTC.c **** * \param
 278:Generated_Source\PSoC4/RTC.c **** *  time The time value in the Unix time/Epoch time format.
 279:Generated_Source\PSoC4/RTC.c **** *
 280:Generated_Source\PSoC4/RTC.c **** *******************************************************************************/
 281:Generated_Source\PSoC4/RTC.c **** void RTC_SetUnixTime(uint64 unixTime)
 282:Generated_Source\PSoC4/RTC.c **** {
 283:Generated_Source\PSoC4/RTC.c ****     RTC_DATE_TIME tmpDateTime;
 284:Generated_Source\PSoC4/RTC.c **** 
 285:Generated_Source\PSoC4/RTC.c ****     RTC_unixTime = unixTime;
 286:Generated_Source\PSoC4/RTC.c ****     RTC_UnixToDateTime(&tmpDateTime, unixTime, (uint32)RTC_24_HOURS_FORMAT);
 287:Generated_Source\PSoC4/RTC.c **** 
 288:Generated_Source\PSoC4/RTC.c ****     #if(0u != RTC_INITIAL_DST_STATUS)
 289:Generated_Source\PSoC4/RTC.c ****         RTC_unixTimeDstStart = RTC_GetDstUnixTime(&RTC_dstStartTime);
 290:Generated_Source\PSoC4/RTC.c ****         RTC_unixTimeDstStop  = RTC_GetDstUnixTime(&RTC_dstStopTime);
 291:Generated_Source\PSoC4/RTC.c **** 
 292:Generated_Source\PSoC4/RTC.c ****         if((RTC_unixTime >= RTC_unixTimeDstStart) &&
 293:Generated_Source\PSoC4/RTC.c ****            (RTC_unixTime <= RTC_unixTimeDstStop))
 294:Generated_Source\PSoC4/RTC.c ****         {
 295:Generated_Source\PSoC4/RTC.c ****             RTC_dstStatus = 1u;
 296:Generated_Source\PSoC4/RTC.c ****             RTC_dstTimeOffset = RTC_SECONDS_PER_HOUR;
 297:Generated_Source\PSoC4/RTC.c ****         }
 298:Generated_Source\PSoC4/RTC.c ****         else
 299:Generated_Source\PSoC4/RTC.c ****         {
 300:Generated_Source\PSoC4/RTC.c ****             RTC_dstStatus = 0u;
 301:Generated_Source\PSoC4/RTC.c ****             RTC_dstTimeOffset = 0uL;
ARM GAS  C:\Users\Petro\AppData\Local\Temp\ccAfRAcN.s 			page 7


 302:Generated_Source\PSoC4/RTC.c ****         }
 303:Generated_Source\PSoC4/RTC.c ****     #endif /* (0u != RTC_INITIAL_DST_STATUS) */
 304:Generated_Source\PSoC4/RTC.c **** }
 305:Generated_Source\PSoC4/RTC.c **** 
 306:Generated_Source\PSoC4/RTC.c **** 
 307:Generated_Source\PSoC4/RTC.c **** /*******************************************************************************
 308:Generated_Source\PSoC4/RTC.c **** * Function Name: RTC_GetUnixTime
 309:Generated_Source\PSoC4/RTC.c **** ****************************************************************************//**
 310:Generated_Source\PSoC4/RTC.c **** *
 311:Generated_Source\PSoC4/RTC.c **** * \brief
 312:Generated_Source\PSoC4/RTC.c **** *  Returns the time in the Unix/Epoch time format - the number of seconds 
 313:Generated_Source\PSoC4/RTC.c **** * elapsed from January 1, 1970 UTC 00:00 hrs.
 314:Generated_Source\PSoC4/RTC.c **** *
 315:Generated_Source\PSoC4/RTC.c **** * \return time The time value in the Unix time/Epoch time format.
 316:Generated_Source\PSoC4/RTC.c **** *
 317:Generated_Source\PSoC4/RTC.c **** *******************************************************************************/
 318:Generated_Source\PSoC4/RTC.c **** uint64 RTC_GetUnixTime(void)
 319:Generated_Source\PSoC4/RTC.c **** {
  42              		.loc 1 319 0
  43              		.cfi_startproc
 320:Generated_Source\PSoC4/RTC.c ****     return (RTC_unixTime);
  44              		.loc 1 320 0
  45 0000 014B     		ldr	r3, .L3
  46 0002 1868     		ldr	r0, [r3]
  47 0004 5968     		ldr	r1, [r3, #4]
 321:Generated_Source\PSoC4/RTC.c **** }
  48              		.loc 1 321 0
  49              		@ sp needed
  50 0006 7047     		bx	lr
  51              	.L4:
  52              		.align	2
  53              	.L3:
  54 0008 00000000 		.word	RTC_unixTime
  55              		.cfi_endproc
  56              	.LFE33:
  57              		.size	RTC_GetUnixTime, .-RTC_GetUnixTime
  58              		.section	.text.RTC_SetPeriod,"ax",%progbits
  59              		.align	2
  60              		.global	RTC_SetPeriod
  61              		.code	16
  62              		.thumb_func
  63              		.type	RTC_SetPeriod, %function
  64              	RTC_SetPeriod:
  65              	.LFB34:
 322:Generated_Source\PSoC4/RTC.c **** 
 323:Generated_Source\PSoC4/RTC.c **** 
 324:Generated_Source\PSoC4/RTC.c **** /*******************************************************************************
 325:Generated_Source\PSoC4/RTC.c **** * Function Name: RTC_SetPeriod
 326:Generated_Source\PSoC4/RTC.c **** ****************************************************************************//**
 327:Generated_Source\PSoC4/RTC.c **** *
 328:Generated_Source\PSoC4/RTC.c **** * \brief
 329:Generated_Source\PSoC4/RTC.c **** *  Sets the RTC time update API period.
 330:Generated_Source\PSoC4/RTC.c **** *
 331:Generated_Source\PSoC4/RTC.c **** *  The user needs to pass the period as
 332:Generated_Source\PSoC4/RTC.c **** *  a number of ticks and also a reference number of ticks taken by the same clock
 333:Generated_Source\PSoC4/RTC.c **** *  source for one second. For instance, for a 32 kHz clock source and RTC
 334:Generated_Source\PSoC4/RTC.c **** *  period of 100 ms, the "ticks" value is 3200 and the "refOneSecTicks" value
ARM GAS  C:\Users\Petro\AppData\Local\Temp\ccAfRAcN.s 			page 8


 335:Generated_Source\PSoC4/RTC.c **** *  is 32000. This value is used to increment the time every time
 336:Generated_Source\PSoC4/RTC.c **** *  RTC_Update() API is called.
 337:Generated_Source\PSoC4/RTC.c **** *
 338:Generated_Source\PSoC4/RTC.c **** * \param
 339:Generated_Source\PSoC4/RTC.c **** *  ticks The clock period taken as a number of ticks.
 340:Generated_Source\PSoC4/RTC.c **** *
 341:Generated_Source\PSoC4/RTC.c **** * \param
 342:Generated_Source\PSoC4/RTC.c **** * refOneSecTicks The reference number of ticks taken by the same clock source
 343:Generated_Source\PSoC4/RTC.c **** *  for one second (the input clock frequency in Hz).
 344:Generated_Source\PSoC4/RTC.c **** *
 345:Generated_Source\PSoC4/RTC.c **** *******************************************************************************/
 346:Generated_Source\PSoC4/RTC.c **** void RTC_SetPeriod(uint32 ticks, uint32 refOneSecTicks)
 347:Generated_Source\PSoC4/RTC.c **** {
  66              		.loc 1 347 0
  67              		.cfi_startproc
  68              	.LVL0:
 348:Generated_Source\PSoC4/RTC.c ****     RTC_updateTimePeriod = ticks;
  69              		.loc 1 348 0
  70 0000 014B     		ldr	r3, .L6
  71 0002 1860     		str	r0, [r3]
 349:Generated_Source\PSoC4/RTC.c ****     RTC_tickRefOneSec    = refOneSecTicks;
  72              		.loc 1 349 0
  73 0004 5960     		str	r1, [r3, #4]
 350:Generated_Source\PSoC4/RTC.c **** }
  74              		.loc 1 350 0
  75              		@ sp needed
  76 0006 7047     		bx	lr
  77              	.L7:
  78              		.align	2
  79              	.L6:
  80 0008 00000000 		.word	.LANCHOR0
  81              		.cfi_endproc
  82              	.LFE34:
  83              		.size	RTC_SetPeriod, .-RTC_SetPeriod
  84              		.section	.text.RTC_GetPeriod,"ax",%progbits
  85              		.align	2
  86              		.global	RTC_GetPeriod
  87              		.code	16
  88              		.thumb_func
  89              		.type	RTC_GetPeriod, %function
  90              	RTC_GetPeriod:
  91              	.LFB35:
 351:Generated_Source\PSoC4/RTC.c **** 
 352:Generated_Source\PSoC4/RTC.c **** 
 353:Generated_Source\PSoC4/RTC.c **** /*******************************************************************************
 354:Generated_Source\PSoC4/RTC.c **** * Function Name: RTC_SetPeriod
 355:Generated_Source\PSoC4/RTC.c **** ****************************************************************************//**
 356:Generated_Source\PSoC4/RTC.c **** *
 357:Generated_Source\PSoC4/RTC.c **** * \brief
 358:Generated_Source\PSoC4/RTC.c **** *  Gets the RTC time update API period.
 359:Generated_Source\PSoC4/RTC.c **** *
 360:Generated_Source\PSoC4/RTC.c **** * \return period The clock period taken as a number of ticks.
 361:Generated_Source\PSoC4/RTC.c **** *
 362:Generated_Source\PSoC4/RTC.c **** *******************************************************************************/
 363:Generated_Source\PSoC4/RTC.c **** uint32 RTC_GetPeriod(void)
 364:Generated_Source\PSoC4/RTC.c **** {
  92              		.loc 1 364 0
ARM GAS  C:\Users\Petro\AppData\Local\Temp\ccAfRAcN.s 			page 9


  93              		.cfi_startproc
 365:Generated_Source\PSoC4/RTC.c ****     return(RTC_updateTimePeriod);
  94              		.loc 1 365 0
  95 0000 014B     		ldr	r3, .L9
  96 0002 1868     		ldr	r0, [r3]
 366:Generated_Source\PSoC4/RTC.c **** }
  97              		.loc 1 366 0
  98              		@ sp needed
  99 0004 7047     		bx	lr
 100              	.L10:
 101 0006 C046     		.align	2
 102              	.L9:
 103 0008 00000000 		.word	.LANCHOR0
 104              		.cfi_endproc
 105              	.LFE35:
 106              		.size	RTC_GetPeriod, .-RTC_GetPeriod
 107              		.section	.text.RTC_GetRefOneSec,"ax",%progbits
 108              		.align	2
 109              		.global	RTC_GetRefOneSec
 110              		.code	16
 111              		.thumb_func
 112              		.type	RTC_GetRefOneSec, %function
 113              	RTC_GetRefOneSec:
 114              	.LFB36:
 367:Generated_Source\PSoC4/RTC.c **** 
 368:Generated_Source\PSoC4/RTC.c **** 
 369:Generated_Source\PSoC4/RTC.c **** /*******************************************************************************
 370:Generated_Source\PSoC4/RTC.c **** * Function Name: RTC_GetRefOneSec
 371:Generated_Source\PSoC4/RTC.c **** ****************************************************************************//**
 372:Generated_Source\PSoC4/RTC.c **** * \brief
 373:Generated_Source\PSoC4/RTC.c **** * Gets the RTC time update API period.
 374:Generated_Source\PSoC4/RTC.c **** *
 375:Generated_Source\PSoC4/RTC.c **** * \return
 376:Generated_Source\PSoC4/RTC.c **** * period The reference number of ticks taken by the RTC clock source for one
 377:Generated_Source\PSoC4/RTC.c **** * second.
 378:Generated_Source\PSoC4/RTC.c **** *
 379:Generated_Source\PSoC4/RTC.c **** *******************************************************************************/
 380:Generated_Source\PSoC4/RTC.c **** uint32 RTC_GetRefOneSec(void)
 381:Generated_Source\PSoC4/RTC.c **** {
 115              		.loc 1 381 0
 116              		.cfi_startproc
 382:Generated_Source\PSoC4/RTC.c ****     return(RTC_tickRefOneSec);
 117              		.loc 1 382 0
 118 0000 014B     		ldr	r3, .L12
 119 0002 5868     		ldr	r0, [r3, #4]
 383:Generated_Source\PSoC4/RTC.c **** }
 120              		.loc 1 383 0
 121              		@ sp needed
 122 0004 7047     		bx	lr
 123              	.L13:
 124 0006 C046     		.align	2
 125              	.L12:
 126 0008 00000000 		.word	.LANCHOR0
 127              		.cfi_endproc
 128              	.LFE36:
 129              		.size	RTC_GetRefOneSec, .-RTC_GetRefOneSec
 130              		.section	.text.RTC_ConvertBCDToDec,"ax",%progbits
ARM GAS  C:\Users\Petro\AppData\Local\Temp\ccAfRAcN.s 			page 10


 131              		.align	2
 132              		.global	RTC_ConvertBCDToDec
 133              		.code	16
 134              		.thumb_func
 135              		.type	RTC_ConvertBCDToDec, %function
 136              	RTC_ConvertBCDToDec:
 137              	.LFB41:
 384:Generated_Source\PSoC4/RTC.c **** 
 385:Generated_Source\PSoC4/RTC.c **** 
 386:Generated_Source\PSoC4/RTC.c **** /*******************************************************************************
 387:Generated_Source\PSoC4/RTC.c **** * Function Name: RTC_GetDateAndTime
 388:Generated_Source\PSoC4/RTC.c **** ****************************************************************************//**
 389:Generated_Source\PSoC4/RTC.c **** *
 390:Generated_Source\PSoC4/RTC.c **** * Reads the current time and date.
 391:Generated_Source\PSoC4/RTC.c **** *
 392:Generated_Source\PSoC4/RTC.c **** * \param dateTime The pointer to the RTC_date_time structure to which time and 
 393:Generated_Source\PSoC4/RTC.c **** * date is returned.
 394:Generated_Source\PSoC4/RTC.c **** *
 395:Generated_Source\PSoC4/RTC.c **** *******************************************************************************/
 396:Generated_Source\PSoC4/RTC.c **** void RTC_GetDateAndTime(RTC_DATE_TIME* dateTime)
 397:Generated_Source\PSoC4/RTC.c **** {
 398:Generated_Source\PSoC4/RTC.c ****     RTC_UnixToDateTime(dateTime, (RTC_unixTime  + RTC_dstTimeOffset),
 399:Generated_Source\PSoC4/RTC.c ****                                                                             RTC_INITIAL_TIME_FORMAT
 400:Generated_Source\PSoC4/RTC.c **** }
 401:Generated_Source\PSoC4/RTC.c **** 
 402:Generated_Source\PSoC4/RTC.c **** 
 403:Generated_Source\PSoC4/RTC.c **** /*******************************************************************************
 404:Generated_Source\PSoC4/RTC.c **** * Function Name: RTC_GetTime
 405:Generated_Source\PSoC4/RTC.c **** ****************************************************************************//**
 406:Generated_Source\PSoC4/RTC.c **** * \brief
 407:Generated_Source\PSoC4/RTC.c **** * Reads the current time.
 408:Generated_Source\PSoC4/RTC.c **** *
 409:Generated_Source\PSoC4/RTC.c **** * \return
 410:Generated_Source\PSoC4/RTC.c **** * date The value of date in the user selected format. The date value is 
 411:Generated_Source\PSoC4/RTC.c **** * available in the BCD format.
 412:Generated_Source\PSoC4/RTC.c **** *
 413:Generated_Source\PSoC4/RTC.c **** * \warning
 414:Generated_Source\PSoC4/RTC.c **** *  Using RTC_GetTime and RTC_GetDate API separately might result
 415:Generated_Source\PSoC4/RTC.c **** *  in errors when the time wraps around the end of the day. To avoid this,
 416:Generated_Source\PSoC4/RTC.c **** *  use RTC_GetDateAndTime API.
 417:Generated_Source\PSoC4/RTC.c **** *
 418:Generated_Source\PSoC4/RTC.c **** *******************************************************************************/
 419:Generated_Source\PSoC4/RTC.c **** uint32 RTC_GetTime(void)
 420:Generated_Source\PSoC4/RTC.c **** {
 421:Generated_Source\PSoC4/RTC.c ****     RTC_UnixToDateTime(&RTC_currentTimeDate,
 422:Generated_Source\PSoC4/RTC.c ****                                     (RTC_unixTime  + RTC_dstTimeOffset),
 423:Generated_Source\PSoC4/RTC.c ****                                      RTC_INITIAL_TIME_FORMAT);
 424:Generated_Source\PSoC4/RTC.c **** 
 425:Generated_Source\PSoC4/RTC.c ****     return(RTC_currentTimeDate.time);
 426:Generated_Source\PSoC4/RTC.c **** }
 427:Generated_Source\PSoC4/RTC.c **** 
 428:Generated_Source\PSoC4/RTC.c **** 
 429:Generated_Source\PSoC4/RTC.c **** /*******************************************************************************
 430:Generated_Source\PSoC4/RTC.c **** * Function Name: RTC_GetDate
 431:Generated_Source\PSoC4/RTC.c **** ****************************************************************************//**
 432:Generated_Source\PSoC4/RTC.c **** *
 433:Generated_Source\PSoC4/RTC.c **** * \brief Reads the current time.
ARM GAS  C:\Users\Petro\AppData\Local\Temp\ccAfRAcN.s 			page 11


 434:Generated_Source\PSoC4/RTC.c **** *
 435:Generated_Source\PSoC4/RTC.c **** * \return
 436:Generated_Source\PSoC4/RTC.c **** * time The time value in the format selected by the user (12/24 hr);
 437:Generated_Source\PSoC4/RTC.c **** * The time value is available in the BCD format.
 438:Generated_Source\PSoC4/RTC.c **** *
 439:Generated_Source\PSoC4/RTC.c **** * \note
 440:Generated_Source\PSoC4/RTC.c **** *  Using RTC_GetTime and RTC_GetDate API separately
 441:Generated_Source\PSoC4/RTC.c **** *  might result in errors when the time wraps around the end of the day. To
 442:Generated_Source\PSoC4/RTC.c **** *  avoid this, use RTC_GetDateAndTime API.
 443:Generated_Source\PSoC4/RTC.c **** *
 444:Generated_Source\PSoC4/RTC.c **** *******************************************************************************/
 445:Generated_Source\PSoC4/RTC.c **** uint32 RTC_GetDate(void)
 446:Generated_Source\PSoC4/RTC.c **** {
 447:Generated_Source\PSoC4/RTC.c ****     RTC_UnixToDateTime(&RTC_currentTimeDate,
 448:Generated_Source\PSoC4/RTC.c ****                                     (RTC_unixTime  + RTC_dstTimeOffset),
 449:Generated_Source\PSoC4/RTC.c ****                                      RTC_INITIAL_TIME_FORMAT);
 450:Generated_Source\PSoC4/RTC.c **** 
 451:Generated_Source\PSoC4/RTC.c ****     return(RTC_currentTimeDate.date);
 452:Generated_Source\PSoC4/RTC.c **** }
 453:Generated_Source\PSoC4/RTC.c **** 
 454:Generated_Source\PSoC4/RTC.c **** 
 455:Generated_Source\PSoC4/RTC.c **** #if(0u != RTC_INITIAL_ALARM_STATUS)
 456:Generated_Source\PSoC4/RTC.c ****     /*******************************************************************************
 457:Generated_Source\PSoC4/RTC.c ****     * Function Name: RTC_SetAlarmDateAndTime
 458:Generated_Source\PSoC4/RTC.c ****     ****************************************************************************//**
 459:Generated_Source\PSoC4/RTC.c ****     *
 460:Generated_Source\PSoC4/RTC.c ****     * \brief
 461:Generated_Source\PSoC4/RTC.c ****     *  Writes the time and date values as the current alarm time and date.
 462:Generated_Source\PSoC4/RTC.c ****     *
 463:Generated_Source\PSoC4/RTC.c ****     * \param
 464:Generated_Source\PSoC4/RTC.c ****     *  alarmTime The pointer to the RTC_date_time global structure where
 465:Generated_Source\PSoC4/RTC.c ****     *  new values of the alarm time and date are stored.
 466:Generated_Source\PSoC4/RTC.c ****     *
 467:Generated_Source\PSoC4/RTC.c ****     * \note
 468:Generated_Source\PSoC4/RTC.c ****     *  Invalid time entries are written with "00:00:00:00" for the 24-hour format and
 469:Generated_Source\PSoC4/RTC.c ****     *  "AM 12:00:00:00" for the 12-hour format. Invalid date entries are written with
 470:Generated_Source\PSoC4/RTC.c ****     *  a date equivalent to 01-JAN-2000.
 471:Generated_Source\PSoC4/RTC.c ****     *
 472:Generated_Source\PSoC4/RTC.c ****     *******************************************************************************/
 473:Generated_Source\PSoC4/RTC.c ****     void RTC_SetAlarmDateAndTime(const RTC_DATE_TIME* alarmTime)
 474:Generated_Source\PSoC4/RTC.c ****     {
 475:Generated_Source\PSoC4/RTC.c ****         RTC_alarmCfgTimeDate = *alarmTime;
 476:Generated_Source\PSoC4/RTC.c ****         RTC_unixTimeAlarm = RTC_ConstructUnixAlarmTime(alarmTime, (uint8)RTC_alarmCfgMask);
 477:Generated_Source\PSoC4/RTC.c ****     }
 478:Generated_Source\PSoC4/RTC.c **** 
 479:Generated_Source\PSoC4/RTC.c **** 
 480:Generated_Source\PSoC4/RTC.c ****     /*******************************************************************************
 481:Generated_Source\PSoC4/RTC.c ****     * Function Name: RTC_GetAlarmDateAndTime
 482:Generated_Source\PSoC4/RTC.c ****     ****************************************************************************//**
 483:Generated_Source\PSoC4/RTC.c ****     *
 484:Generated_Source\PSoC4/RTC.c ****     * \brief
 485:Generated_Source\PSoC4/RTC.c ****     *  Reads the current alarm time and date.
 486:Generated_Source\PSoC4/RTC.c ****     *
 487:Generated_Source\PSoC4/RTC.c ****     * \param
 488:Generated_Source\PSoC4/RTC.c ****     *  alarmTimeDate The pointer to the RTC_date_time structure to which
 489:Generated_Source\PSoC4/RTC.c ****     *  the alarm date and time are returned.
 490:Generated_Source\PSoC4/RTC.c ****     *
ARM GAS  C:\Users\Petro\AppData\Local\Temp\ccAfRAcN.s 			page 12


 491:Generated_Source\PSoC4/RTC.c ****     *******************************************************************************/
 492:Generated_Source\PSoC4/RTC.c ****     void RTC_GetAlarmDateAndTime(RTC_DATE_TIME* alarmTimeDate)
 493:Generated_Source\PSoC4/RTC.c ****     {
 494:Generated_Source\PSoC4/RTC.c ****         *alarmTimeDate = RTC_alarmCfgTimeDate;
 495:Generated_Source\PSoC4/RTC.c ****     }
 496:Generated_Source\PSoC4/RTC.c **** 
 497:Generated_Source\PSoC4/RTC.c **** 
 498:Generated_Source\PSoC4/RTC.c ****     /*******************************************************************************
 499:Generated_Source\PSoC4/RTC.c ****     * Function Name: RTC_SetAlarmMask
 500:Generated_Source\PSoC4/RTC.c ****     ****************************************************************************//**
 501:Generated_Source\PSoC4/RTC.c ****     *
 502:Generated_Source\PSoC4/RTC.c ****     * \brief
 503:Generated_Source\PSoC4/RTC.c ****     *  Writes the Alarm Mask software register with one bit per time/date entry.
 504:Generated_Source\PSoC4/RTC.c ****     *  The alarm is true when all masked time/date values match the Alarm values.
 505:Generated_Source\PSoC4/RTC.c ****     *  Generated only if the alarm functionality is enabled.
 506:Generated_Source\PSoC4/RTC.c ****     *
 507:Generated_Source\PSoC4/RTC.c ****     * \param
 508:Generated_Source\PSoC4/RTC.c ****     *  mask The Alarm Mask software register value. The values shown below can be
 509:Generated_Source\PSoC4/RTC.c ****     *  OR'ed and passed as an argument as well.
 510:Generated_Source\PSoC4/RTC.c ****     * \param
 511:Generated_Source\PSoC4/RTC.c ****     *  RTC_ALARM_SEC_MASK The second alarm mask allows
 512:Generated_Source\PSoC4/RTC.c ****     *  matching the alarm second register with the current second register.
 513:Generated_Source\PSoC4/RTC.c ****     * \param
 514:Generated_Source\PSoC4/RTC.c ****     *  RTC_ALARM_MIN_MASK The minute alarm mask allows matching the
 515:Generated_Source\PSoC4/RTC.c ****     *  alarm minute register with the current minute register.
 516:Generated_Source\PSoC4/RTC.c ****     * \param
 517:Generated_Source\PSoC4/RTC.c ****     *  RTC_ALARM_HOUR_MASK The hour alarm mask allows
 518:Generated_Source\PSoC4/RTC.c ****     * matching the alarm hour register with the current hour register.
 519:Generated_Source\PSoC4/RTC.c ****     * \param
 520:Generated_Source\PSoC4/RTC.c ****     *  RTC_ALARM_DAYOFWEEK_MASK The day of the week alarm mask 
 521:Generated_Source\PSoC4/RTC.c ****     * allows matching the alarm day of the week register with the current day of
 522:Generated_Source\PSoC4/RTC.c ****     * the week register.
 523:Generated_Source\PSoC4/RTC.c ****     * \param
 524:Generated_Source\PSoC4/RTC.c ****     * RTC_ALARM_DAYOFMONTH_MASK The day of the month alarm mask
 525:Generated_Source\PSoC4/RTC.c ****     * allows matching the alarm day of the month register with the current day 
 526:Generated_Source\PSoC4/RTC.c ****     * of the month register.
 527:Generated_Source\PSoC4/RTC.c ****     * \param
 528:Generated_Source\PSoC4/RTC.c ****     * RTC_ALARM_MONTH_MASK The month alarm mask allows matching 
 529:Generated_Source\PSoC4/RTC.c ****     * the alarm month register with the current month register.
 530:Generated_Source\PSoC4/RTC.c ****     * \param
 531:Generated_Source\PSoC4/RTC.c ****     * RTC_ALARM_YEAR_MASK The year alarm mask allows matching the
 532:Generated_Source\PSoC4/RTC.c ****     *  alarm year register with the current year register.
 533:Generated_Source\PSoC4/RTC.c ****     *
 534:Generated_Source\PSoC4/RTC.c ****     *******************************************************************************/
 535:Generated_Source\PSoC4/RTC.c ****     void RTC_SetAlarmMask(uint32 mask)
 536:Generated_Source\PSoC4/RTC.c ****     {
 537:Generated_Source\PSoC4/RTC.c ****         RTC_alarmCfgMask = (uint8)mask;
 538:Generated_Source\PSoC4/RTC.c ****         RTC_unixTimeAlarm = RTC_ConstructUnixAlarmTime(&RTC_alarmCfgTimeDate, (uint8)mask);
 539:Generated_Source\PSoC4/RTC.c ****     }
 540:Generated_Source\PSoC4/RTC.c **** 
 541:Generated_Source\PSoC4/RTC.c **** 
 542:Generated_Source\PSoC4/RTC.c ****     /*******************************************************************************
 543:Generated_Source\PSoC4/RTC.c ****     * Function Name: RTC_GetAlarmMask
 544:Generated_Source\PSoC4/RTC.c ****     ****************************************************************************//**
 545:Generated_Source\PSoC4/RTC.c ****     *
 546:Generated_Source\PSoC4/RTC.c ****     * \brief
 547:Generated_Source\PSoC4/RTC.c ****     *  Reads the Alarm Mask software register. Generated only if the alarm 
ARM GAS  C:\Users\Petro\AppData\Local\Temp\ccAfRAcN.s 			page 13


 548:Generated_Source\PSoC4/RTC.c ****     * functionality is enabled.
 549:Generated_Source\PSoC4/RTC.c ****     *
 550:Generated_Source\PSoC4/RTC.c ****     * \return
 551:Generated_Source\PSoC4/RTC.c ****     *  The Alarm Mask value with each bit representing the status of the alarm 
 552:Generated_Source\PSoC4/RTC.c ****     * time/date match enable.
 553:Generated_Source\PSoC4/RTC.c ****     *
 554:Generated_Source\PSoC4/RTC.c ****     * \return
 555:Generated_Source\PSoC4/RTC.c ****     *  RTC_ALARM_SEC_MASK - The second alarm mask allows matching the
 556:Generated_Source\PSoC4/RTC.c ****     * alarm second register with the current second register.
 557:Generated_Source\PSoC4/RTC.c ****     *
 558:Generated_Source\PSoC4/RTC.c ****     * \return
 559:Generated_Source\PSoC4/RTC.c ****     * RTC_ALARM_MIN_MASK - The minute alarm mask allows matching the 
 560:Generated_Source\PSoC4/RTC.c ****     * alarm minute register with the current minute register.
 561:Generated_Source\PSoC4/RTC.c ****     *
 562:Generated_Source\PSoC4/RTC.c ****     * \return
 563:Generated_Source\PSoC4/RTC.c ****     *  RTC_ALARM_HOUR_MASK - The hour alarm mask allows matching the 
 564:Generated_Source\PSoC4/RTC.c ****     * alarm hour register with the current hour register.
 565:Generated_Source\PSoC4/RTC.c ****     *
 566:Generated_Source\PSoC4/RTC.c ****     * \return
 567:Generated_Source\PSoC4/RTC.c ****     *  RTC_ALARM_DAYOFWEEK_MASK - The day of the week alarm mask allows
 568:Generated_Source\PSoC4/RTC.c ****     * matching the alarm day of the week register with the current day of the 
 569:Generated_Source\PSoC4/RTC.c ****     * week register.
 570:Generated_Source\PSoC4/RTC.c ****     *
 571:Generated_Source\PSoC4/RTC.c ****     * \return
 572:Generated_Source\PSoC4/RTC.c ****     *  RTC_ALARM_DAYOFMONTH_MASK - The day of the month alarm mask 
 573:Generated_Source\PSoC4/RTC.c ****     * allows matching the alarm day of the month register with the current day of 
 574:Generated_Source\PSoC4/RTC.c ****     * the month register.
 575:Generated_Source\PSoC4/RTC.c ****     *
 576:Generated_Source\PSoC4/RTC.c ****     * \return
 577:Generated_Source\PSoC4/RTC.c ****     *  RTC_ALARM_MONTH_MASK - The month alarm mask allows matching 
 578:Generated_Source\PSoC4/RTC.c ****     * the alarm month register with the current month register.
 579:Generated_Source\PSoC4/RTC.c ****     *
 580:Generated_Source\PSoC4/RTC.c ****     * \return
 581:Generated_Source\PSoC4/RTC.c ****     *  RTC_ALARM_YEAR_MASK - The year alarm mask allows matching the
 582:Generated_Source\PSoC4/RTC.c ****     * alarm year register with the current year register.
 583:Generated_Source\PSoC4/RTC.c ****     *
 584:Generated_Source\PSoC4/RTC.c ****     *******************************************************************************/
 585:Generated_Source\PSoC4/RTC.c ****     uint32 RTC_GetAlarmMask(void)
 586:Generated_Source\PSoC4/RTC.c ****     {
 587:Generated_Source\PSoC4/RTC.c ****         return((uint32)RTC_alarmCfgMask);
 588:Generated_Source\PSoC4/RTC.c ****     }
 589:Generated_Source\PSoC4/RTC.c **** 
 590:Generated_Source\PSoC4/RTC.c **** 
 591:Generated_Source\PSoC4/RTC.c ****     /*******************************************************************************
 592:Generated_Source\PSoC4/RTC.c ****     * Function Name: RTC_GetAlarmStatus
 593:Generated_Source\PSoC4/RTC.c ****     ****************************************************************************//**
 594:Generated_Source\PSoC4/RTC.c ****     *
 595:Generated_Source\PSoC4/RTC.c ****     * \brief
 596:Generated_Source\PSoC4/RTC.c ****     *  Returns the alarm status of RTC.
 597:Generated_Source\PSoC4/RTC.c ****     *
 598:Generated_Source\PSoC4/RTC.c ****     * \return
 599:Generated_Source\PSoC4/RTC.c ****     *  The Alarm active status. This bit is high when the current time and date match the alarm
 600:Generated_Source\PSoC4/RTC.c ****     *  time and date.
 601:Generated_Source\PSoC4/RTC.c ****     *
 602:Generated_Source\PSoC4/RTC.c ****     * \return
 603:Generated_Source\PSoC4/RTC.c ****     *  0 - The Alarm status is not active.
 604:Generated_Source\PSoC4/RTC.c ****     * \return
ARM GAS  C:\Users\Petro\AppData\Local\Temp\ccAfRAcN.s 			page 14


 605:Generated_Source\PSoC4/RTC.c ****     *  1 - The Alarm status is active.
 606:Generated_Source\PSoC4/RTC.c ****     *
 607:Generated_Source\PSoC4/RTC.c ****     *******************************************************************************/
 608:Generated_Source\PSoC4/RTC.c ****     uint32 RTC_GetAlarmStatus(void)
 609:Generated_Source\PSoC4/RTC.c ****     {
 610:Generated_Source\PSoC4/RTC.c ****         return((0uL != (RTC_currentTimeDate.status & (1uL << RTC_STATUS_ALARM_OFFSET))) ? 1uL : 0uL
 611:Generated_Source\PSoC4/RTC.c ****     }
 612:Generated_Source\PSoC4/RTC.c **** 
 613:Generated_Source\PSoC4/RTC.c **** 
 614:Generated_Source\PSoC4/RTC.c ****     /*******************************************************************************
 615:Generated_Source\PSoC4/RTC.c ****     * Function Name: RTC_ClearAlarmStatus
 616:Generated_Source\PSoC4/RTC.c ****     ****************************************************************************//**
 617:Generated_Source\PSoC4/RTC.c ****     *
 618:Generated_Source\PSoC4/RTC.c ****     * \brief
 619:Generated_Source\PSoC4/RTC.c ****     *  Clears the alarm status of RTC.
 620:Generated_Source\PSoC4/RTC.c ****     *
 621:Generated_Source\PSoC4/RTC.c ****     * \note
 622:Generated_Source\PSoC4/RTC.c ****     * The Alarm active (AA) flag clears after read. This bit will be set in the next
 623:Generated_Source\PSoC4/RTC.c ****     * alarm match event only. If Alarm is set on only minutes and the alarm
 624:Generated_Source\PSoC4/RTC.c ****     * minutes is 20 minutes - the alarm triggers once every 20th minute of
 625:Generated_Source\PSoC4/RTC.c ****     * every hour.
 626:Generated_Source\PSoC4/RTC.c ****     *
 627:Generated_Source\PSoC4/RTC.c ****     *******************************************************************************/
 628:Generated_Source\PSoC4/RTC.c ****     void RTC_ClearAlarmStatus(void)
 629:Generated_Source\PSoC4/RTC.c ****     {
 630:Generated_Source\PSoC4/RTC.c ****         RTC_currentTimeDate.status &= (~(1uL << RTC_STATUS_ALARM_OFFSET));
 631:Generated_Source\PSoC4/RTC.c ****         RTC_alarmCurStatus = 0u;
 632:Generated_Source\PSoC4/RTC.c ****     }
 633:Generated_Source\PSoC4/RTC.c **** 
 634:Generated_Source\PSoC4/RTC.c **** 
 635:Generated_Source\PSoC4/RTC.c ****     /*******************************************************************************
 636:Generated_Source\PSoC4/RTC.c ****     * Function Name: RTC_SetAlarmHandler
 637:Generated_Source\PSoC4/RTC.c ****     ****************************************************************************//**
 638:Generated_Source\PSoC4/RTC.c ****     *
 639:Generated_Source\PSoC4/RTC.c ****     * \brief
 640:Generated_Source\PSoC4/RTC.c ****     *  This API sets the function to be called when the alarm goes off / triggers.
 641:Generated_Source\PSoC4/RTC.c ****     *  This API is generated only if the alarm functionality is enabled in the
 642:Generated_Source\PSoC4/RTC.c ****     *  customizer.
 643:Generated_Source\PSoC4/RTC.c ****     *
 644:Generated_Source\PSoC4/RTC.c ****     * \param
 645:Generated_Source\PSoC4/RTC.c ****     *  CallbackFunction The callback function address.
 646:Generated_Source\PSoC4/RTC.c ****     *
 647:Generated_Source\PSoC4/RTC.c ****     * \return
 648:Generated_Source\PSoC4/RTC.c ****     *  A previous callback function address.
 649:Generated_Source\PSoC4/RTC.c ****     *
 650:Generated_Source\PSoC4/RTC.c ****     *******************************************************************************/
 651:Generated_Source\PSoC4/RTC.c ****     void* RTC_SetAlarmHandler(void (*CallbackFunction)(void))
 652:Generated_Source\PSoC4/RTC.c ****     {
 653:Generated_Source\PSoC4/RTC.c ****         void (*tmpCallbackPtr)(void);
 654:Generated_Source\PSoC4/RTC.c **** 
 655:Generated_Source\PSoC4/RTC.c ****         tmpCallbackPtr = RTC_alarmCallbackPtr;
 656:Generated_Source\PSoC4/RTC.c ****         RTC_alarmCallbackPtr = CallbackFunction;
 657:Generated_Source\PSoC4/RTC.c **** 
 658:Generated_Source\PSoC4/RTC.c ****         return((void*)tmpCallbackPtr);
 659:Generated_Source\PSoC4/RTC.c ****     }
 660:Generated_Source\PSoC4/RTC.c **** 
 661:Generated_Source\PSoC4/RTC.c **** 
ARM GAS  C:\Users\Petro\AppData\Local\Temp\ccAfRAcN.s 			page 15


 662:Generated_Source\PSoC4/RTC.c ****     /*******************************************************************************
 663:Generated_Source\PSoC4/RTC.c ****     * Function Name: RTC_GetNexAlarmTime
 664:Generated_Source\PSoC4/RTC.c ****     ****************************************************************************//**
 665:Generated_Source\PSoC4/RTC.c ****     *
 666:Generated_Source\PSoC4/RTC.c ****     * \brief
 667:Generated_Source\PSoC4/RTC.c ****     *  This is an internal function that calculates the time of the next alarm
 668:Generated_Source\PSoC4/RTC.c ****     *  in the UNIX format taking into account the current "Alarm Config Mask".
 669:Generated_Source\PSoC4/RTC.c ****     *
 670:Generated_Source\PSoC4/RTC.c ****     * \param
 671:Generated_Source\PSoC4/RTC.c ****     *  curUnixTime The current time value in the UNIX format.
 672:Generated_Source\PSoC4/RTC.c ****     *
 673:Generated_Source\PSoC4/RTC.c ****     * \param
 674:Generated_Source\PSoC4/RTC.c ****     *  alarmCfgMask The current Alarm Config Mask.
 675:Generated_Source\PSoC4/RTC.c ****     *
 676:Generated_Source\PSoC4/RTC.c ****     * \return Returns time of the next alarm in the UNIX format.
 677:Generated_Source\PSoC4/RTC.c ****     *
 678:Generated_Source\PSoC4/RTC.c ****     *******************************************************************************/
 679:Generated_Source\PSoC4/RTC.c ****     uint64 RTC_GetNexAlarmTime(uint64 curUnixTime, uint8 alarmCfgMask)
 680:Generated_Source\PSoC4/RTC.c ****     {
 681:Generated_Source\PSoC4/RTC.c ****         uint32 prevVal;
 682:Generated_Source\PSoC4/RTC.c ****         uint32 nextVal;
 683:Generated_Source\PSoC4/RTC.c ****         uint32 carryFlag;
 684:Generated_Source\PSoC4/RTC.c ****         uint32 daysInMonth;
 685:Generated_Source\PSoC4/RTC.c ****         RTC_DATE_TIME curDateTime;
 686:Generated_Source\PSoC4/RTC.c **** 
 687:Generated_Source\PSoC4/RTC.c ****         carryFlag = 1u;
 688:Generated_Source\PSoC4/RTC.c ****         RTC_UnixToDateTime(&curDateTime, curUnixTime, (uint32)RTC_24_HOURS_FORMAT);
 689:Generated_Source\PSoC4/RTC.c **** 
 690:Generated_Source\PSoC4/RTC.c ****         /* Calculates Second value of next alarm time based on current time and Alarm Config Mask. 
 691:Generated_Source\PSoC4/RTC.c ****         if(0uL != ((~((uint32)alarmCfgMask)) & RTC_ALARM_SEC_MASK))
 692:Generated_Source\PSoC4/RTC.c ****         {
 693:Generated_Source\PSoC4/RTC.c ****             prevVal = RTC_GetSecond(curDateTime.time);
 694:Generated_Source\PSoC4/RTC.c ****             nextVal = RTC_GetNextMinSec(prevVal);
 695:Generated_Source\PSoC4/RTC.c ****             curDateTime.time = RTC_SetSecond(curDateTime.time, nextVal);
 696:Generated_Source\PSoC4/RTC.c ****             carryFlag = (nextVal < prevVal) ? 1u : 0u;
 697:Generated_Source\PSoC4/RTC.c ****         }
 698:Generated_Source\PSoC4/RTC.c **** 
 699:Generated_Source\PSoC4/RTC.c ****         /* Calculates Minute value of next alarm time based on current time and Alarm Config Mask. 
 700:Generated_Source\PSoC4/RTC.c ****         if((0uL != carryFlag) && (0uL != ((~((uint32)alarmCfgMask)) & RTC_ALARM_MIN_MASK)))
 701:Generated_Source\PSoC4/RTC.c ****         {
 702:Generated_Source\PSoC4/RTC.c ****             prevVal = RTC_GetMinutes(curDateTime.time);
 703:Generated_Source\PSoC4/RTC.c ****             nextVal = RTC_GetNextMinSec(prevVal);
 704:Generated_Source\PSoC4/RTC.c ****             curDateTime.time = RTC_SetMinutes(curDateTime.time, nextVal);
 705:Generated_Source\PSoC4/RTC.c ****             carryFlag = (nextVal < prevVal) ? 1u : 0u;
 706:Generated_Source\PSoC4/RTC.c ****         }
 707:Generated_Source\PSoC4/RTC.c **** 
 708:Generated_Source\PSoC4/RTC.c ****         /* Calculates Hour value of next alarm time based on current time and Alarm Config Mask. */
 709:Generated_Source\PSoC4/RTC.c ****         if((0uL != carryFlag) && (0uL != ((~((uint32)alarmCfgMask)) & RTC_ALARM_HOUR_MASK)))
 710:Generated_Source\PSoC4/RTC.c ****         {
 711:Generated_Source\PSoC4/RTC.c ****             prevVal = RTC_GetHours(curDateTime.time);
 712:Generated_Source\PSoC4/RTC.c ****             nextVal = RTC_GetNextHour(prevVal);
 713:Generated_Source\PSoC4/RTC.c ****             curDateTime.time = RTC_SetHours(curDateTime.time, nextVal);
 714:Generated_Source\PSoC4/RTC.c ****             carryFlag = (nextVal < prevVal) ? 1u : 0u;
 715:Generated_Source\PSoC4/RTC.c ****         }
 716:Generated_Source\PSoC4/RTC.c **** 
 717:Generated_Source\PSoC4/RTC.c ****         /* Calculates Day value of next alarm time based on current time and Alarm Config Mask. */
 718:Generated_Source\PSoC4/RTC.c ****         if((0uL != carryFlag) && (0uL != ((~((uint32)alarmCfgMask)) & RTC_ALARM_DAYOFMONTH_MASK)))
ARM GAS  C:\Users\Petro\AppData\Local\Temp\ccAfRAcN.s 			page 16


 719:Generated_Source\PSoC4/RTC.c ****         {
 720:Generated_Source\PSoC4/RTC.c ****             prevVal = RTC_GetDay(curDateTime.date);
 721:Generated_Source\PSoC4/RTC.c ****             if(0u != (alarmCfgMask & RTC_ALARM_DAYOFWEEK_MASK))
 722:Generated_Source\PSoC4/RTC.c ****             {
 723:Generated_Source\PSoC4/RTC.c ****                 daysInMonth = RTC_DaysInMonth(RTC_GetMonth(curDateTime.date),
 724:Generated_Source\PSoC4/RTC.c ****                                                            RTC_GetYear(curDateTime.date));
 725:Generated_Source\PSoC4/RTC.c ****                 nextVal = prevVal + RTC_DAYS_PER_WEEK;
 726:Generated_Source\PSoC4/RTC.c ****                 nextVal = (nextVal > daysInMonth) ? (nextVal - daysInMonth) : nextVal;
 727:Generated_Source\PSoC4/RTC.c ****             }
 728:Generated_Source\PSoC4/RTC.c ****             else
 729:Generated_Source\PSoC4/RTC.c ****             {
 730:Generated_Source\PSoC4/RTC.c ****                 nextVal = RTC_GetNextDay(RTC_GetYear(curDateTime.date),
 731:Generated_Source\PSoC4/RTC.c ****                                                       RTC_GetMonth(curDateTime.date),
 732:Generated_Source\PSoC4/RTC.c ****                                                       RTC_GetDay(curDateTime.date),
 733:Generated_Source\PSoC4/RTC.c ****                                                       (~((uint32)alarmCfgMask)));
 734:Generated_Source\PSoC4/RTC.c ****             }
 735:Generated_Source\PSoC4/RTC.c ****             curDateTime.date = RTC_SetDay(curDateTime.date, nextVal);
 736:Generated_Source\PSoC4/RTC.c ****             carryFlag = (nextVal < prevVal) ? 1u : 0u;
 737:Generated_Source\PSoC4/RTC.c ****         }
 738:Generated_Source\PSoC4/RTC.c **** 
 739:Generated_Source\PSoC4/RTC.c ****         /* Calculates Month value of next alarm time based on current time and Alarm Config Mask. *
 740:Generated_Source\PSoC4/RTC.c ****         if((0uL != carryFlag) && (0uL != ((~((uint32)alarmCfgMask)) & RTC_ALARM_MONTH_MASK)))
 741:Generated_Source\PSoC4/RTC.c ****         {
 742:Generated_Source\PSoC4/RTC.c ****             prevVal = RTC_GetMonth(curDateTime.date);
 743:Generated_Source\PSoC4/RTC.c ****             nextVal = RTC_GetNextMonth(prevVal);
 744:Generated_Source\PSoC4/RTC.c ****             curDateTime.date = RTC_SetMonth(curDateTime.date, nextVal);
 745:Generated_Source\PSoC4/RTC.c ****             carryFlag = (nextVal < prevVal) ? 1u : 0u;
 746:Generated_Source\PSoC4/RTC.c ****         }
 747:Generated_Source\PSoC4/RTC.c **** 
 748:Generated_Source\PSoC4/RTC.c ****         /* Calculates Year value of next alarm time based on current time and Alarm Config Mask. */
 749:Generated_Source\PSoC4/RTC.c ****         if((0uL != carryFlag) && (0uL != ((~((uint32)alarmCfgMask)) & RTC_ALARM_YEAR_MASK)))
 750:Generated_Source\PSoC4/RTC.c ****         {
 751:Generated_Source\PSoC4/RTC.c ****             prevVal = RTC_GetYear(curDateTime.date);
 752:Generated_Source\PSoC4/RTC.c ****             nextVal = RTC_GetNextYear(prevVal);
 753:Generated_Source\PSoC4/RTC.c ****             curDateTime.date = RTC_SetYear(curDateTime.date, nextVal);
 754:Generated_Source\PSoC4/RTC.c ****         }
 755:Generated_Source\PSoC4/RTC.c **** 
 756:Generated_Source\PSoC4/RTC.c ****         return(RTC_DateTimeToUnix(curDateTime.date, curDateTime.time));
 757:Generated_Source\PSoC4/RTC.c ****     }
 758:Generated_Source\PSoC4/RTC.c **** 
 759:Generated_Source\PSoC4/RTC.c **** 
 760:Generated_Source\PSoC4/RTC.c ****     /*******************************************************************************
 761:Generated_Source\PSoC4/RTC.c ****     * Function Name: RTC_ConstructUnixAlarmTime
 762:Generated_Source\PSoC4/RTC.c ****     ****************************************************************************//**
 763:Generated_Source\PSoC4/RTC.c ****     *
 764:Generated_Source\PSoC4/RTC.c ****     * \brief
 765:Generated_Source\PSoC4/RTC.c ****     *  This is an internal function that calculates the time of the first alarm
 766:Generated_Source\PSoC4/RTC.c ****     *  in the UNIX format taking into account the current "Alarm Config Mask".
 767:Generated_Source\PSoC4/RTC.c ****     *
 768:Generated_Source\PSoC4/RTC.c ****     * \param
 769:Generated_Source\PSoC4/RTC.c ****     *  alarmTime Desired alarm time in the regular time format.
 770:Generated_Source\PSoC4/RTC.c ****     *
 771:Generated_Source\PSoC4/RTC.c ****     * \param
 772:Generated_Source\PSoC4/RTC.c ****     *  alarmCfgMask The current Alarm Config Mask.
 773:Generated_Source\PSoC4/RTC.c ****     *
 774:Generated_Source\PSoC4/RTC.c ****     * \return
 775:Generated_Source\PSoC4/RTC.c ****     *  time of the first alarm in the UNIX format.
ARM GAS  C:\Users\Petro\AppData\Local\Temp\ccAfRAcN.s 			page 17


 776:Generated_Source\PSoC4/RTC.c ****     *
 777:Generated_Source\PSoC4/RTC.c ****     *******************************************************************************/
 778:Generated_Source\PSoC4/RTC.c ****     uint64 RTC_ConstructUnixAlarmTime(const RTC_DATE_TIME* alarmTime, uint8 alarmCfgMask)
 779:Generated_Source\PSoC4/RTC.c ****     {
 780:Generated_Source\PSoC4/RTC.c ****         uint32 tmpCurVal;
 781:Generated_Source\PSoC4/RTC.c ****         uint32 tmpNextVal;
 782:Generated_Source\PSoC4/RTC.c ****         uint32 carryFlag;
 783:Generated_Source\PSoC4/RTC.c ****         uint32 tmpAlarmDate;
 784:Generated_Source\PSoC4/RTC.c ****         uint32 tmpAlarmTime;
 785:Generated_Source\PSoC4/RTC.c ****         uint32 daysInMonth;
 786:Generated_Source\PSoC4/RTC.c ****         RTC_DATE_TIME curDateTime;
 787:Generated_Source\PSoC4/RTC.c **** 
 788:Generated_Source\PSoC4/RTC.c ****         tmpAlarmDate = 0u;
 789:Generated_Source\PSoC4/RTC.c ****         tmpAlarmTime = 0u;
 790:Generated_Source\PSoC4/RTC.c ****         RTC_UnixToDateTime(&curDateTime, RTC_unixTime, (uint32)RTC_24_HOURS_FORMAT);
 791:Generated_Source\PSoC4/RTC.c **** 
 792:Generated_Source\PSoC4/RTC.c ****         /* Calculates Seconds value of first Alarm based on current time and Alarm Config Mask. */
 793:Generated_Source\PSoC4/RTC.c ****         tmpCurVal =  RTC_GetSecond(curDateTime.time);
 794:Generated_Source\PSoC4/RTC.c ****         tmpNextVal = RTC_GetSecond(alarmTime->time);
 795:Generated_Source\PSoC4/RTC.c ****         carryFlag = (tmpCurVal > tmpNextVal) ? 1u : 0u;
 796:Generated_Source\PSoC4/RTC.c ****         if(0u != ((~((uint32)alarmCfgMask)) & RTC_ALARM_SEC_MASK))
 797:Generated_Source\PSoC4/RTC.c ****         {
 798:Generated_Source\PSoC4/RTC.c ****             tmpNextVal = (0u != carryFlag) ? 0u : tmpCurVal;
 799:Generated_Source\PSoC4/RTC.c ****         }
 800:Generated_Source\PSoC4/RTC.c ****         tmpAlarmTime = RTC_SetSecond(tmpAlarmTime, tmpNextVal);
 801:Generated_Source\PSoC4/RTC.c **** 
 802:Generated_Source\PSoC4/RTC.c ****         /* Calculates Minutes value of first Alarm based on current time and Alarm Config Mask. */
 803:Generated_Source\PSoC4/RTC.c ****         tmpCurVal  = RTC_GetMinutes(curDateTime.time);
 804:Generated_Source\PSoC4/RTC.c ****         if(0u != ((~((uint32)alarmCfgMask)) & RTC_ALARM_MIN_MASK))
 805:Generated_Source\PSoC4/RTC.c ****         {
 806:Generated_Source\PSoC4/RTC.c ****             tmpNextVal = (0u != carryFlag) ? RTC_GetNextMinSec(tmpCurVal) : tmpCurVal;
 807:Generated_Source\PSoC4/RTC.c ****         }
 808:Generated_Source\PSoC4/RTC.c ****         else
 809:Generated_Source\PSoC4/RTC.c ****         {
 810:Generated_Source\PSoC4/RTC.c ****             tmpNextVal = RTC_GetMinutes(alarmTime->time);
 811:Generated_Source\PSoC4/RTC.c ****         }
 812:Generated_Source\PSoC4/RTC.c ****         carryFlag  = (tmpNextVal < tmpCurVal) ? 1u : 0u;
 813:Generated_Source\PSoC4/RTC.c ****         tmpAlarmTime =  RTC_SetMinutes(tmpAlarmTime, tmpNextVal);
 814:Generated_Source\PSoC4/RTC.c **** 
 815:Generated_Source\PSoC4/RTC.c ****         /* Calculates Hours value of first Alarm based on current time and Alarm Config Mask. */
 816:Generated_Source\PSoC4/RTC.c ****         tmpCurVal  = RTC_GetHours(curDateTime.time);
 817:Generated_Source\PSoC4/RTC.c ****         if(0u != ((~((uint32)alarmCfgMask)) & RTC_ALARM_HOUR_MASK))
 818:Generated_Source\PSoC4/RTC.c ****         {
 819:Generated_Source\PSoC4/RTC.c ****             tmpNextVal = (0u != carryFlag) ? RTC_GetNextHour(tmpCurVal) : tmpCurVal;
 820:Generated_Source\PSoC4/RTC.c ****         }
 821:Generated_Source\PSoC4/RTC.c ****         else
 822:Generated_Source\PSoC4/RTC.c ****         {
 823:Generated_Source\PSoC4/RTC.c ****             tmpNextVal = RTC_GetHours(alarmTime->time);
 824:Generated_Source\PSoC4/RTC.c ****             if((uint32)RTC_24_HOURS_FORMAT != RTC_GetTimeFormat(alarmTime->time))
 825:Generated_Source\PSoC4/RTC.c ****             {
 826:Generated_Source\PSoC4/RTC.c ****                 if((uint32)RTC_AM != RTC_GetAmPm(alarmTime->time))
 827:Generated_Source\PSoC4/RTC.c ****                 {
 828:Generated_Source\PSoC4/RTC.c ****                     tmpNextVal += RTC_HOURS_PER_HALF_DAY;
 829:Generated_Source\PSoC4/RTC.c ****                 }
 830:Generated_Source\PSoC4/RTC.c ****             }
 831:Generated_Source\PSoC4/RTC.c ****         }
 832:Generated_Source\PSoC4/RTC.c ****         carryFlag  = (tmpNextVal < tmpCurVal) ? 1u : 0u;
ARM GAS  C:\Users\Petro\AppData\Local\Temp\ccAfRAcN.s 			page 18


 833:Generated_Source\PSoC4/RTC.c ****         tmpAlarmTime =  RTC_SetHours(tmpAlarmTime, tmpNextVal);
 834:Generated_Source\PSoC4/RTC.c **** 
 835:Generated_Source\PSoC4/RTC.c ****         /* Calculates Day value of first Alarm based on current time and Alarm Config Mask. */
 836:Generated_Source\PSoC4/RTC.c ****         tmpCurVal  = RTC_GetDay(curDateTime.date);
 837:Generated_Source\PSoC4/RTC.c ****         tmpNextVal = RTC_GetDay(alarmTime->date);
 838:Generated_Source\PSoC4/RTC.c ****         if(0u != ((~((uint32)alarmCfgMask)) & RTC_ALARM_DAYOFMONTH_MASK))
 839:Generated_Source\PSoC4/RTC.c ****         {
 840:Generated_Source\PSoC4/RTC.c ****             if(0u != (alarmCfgMask & RTC_ALARM_DAYOFWEEK_MASK))
 841:Generated_Source\PSoC4/RTC.c ****             {
 842:Generated_Source\PSoC4/RTC.c ****                 daysInMonth = RTC_DaysInMonth(RTC_GetMonth(curDateTime.date),
 843:Generated_Source\PSoC4/RTC.c ****                                                            RTC_GetYear(curDateTime.date));
 844:Generated_Source\PSoC4/RTC.c ****                 tmpNextVal = (curDateTime.dayOfWeek <= alarmTime->dayOfWeek) ? (alarmTime->dayOfWee
 845:Generated_Source\PSoC4/RTC.c ****                                 ((RTC_DAYS_PER_WEEK - curDateTime.dayOfWeek) + alarmTime->dayOfWeek
 846:Generated_Source\PSoC4/RTC.c ****                 tmpNextVal = tmpCurVal + tmpNextVal;
 847:Generated_Source\PSoC4/RTC.c ****                 tmpNextVal = (tmpNextVal > daysInMonth) ? (tmpNextVal - daysInMonth) : tmpNextVal;
 848:Generated_Source\PSoC4/RTC.c ****             }
 849:Generated_Source\PSoC4/RTC.c ****             else
 850:Generated_Source\PSoC4/RTC.c ****             {
 851:Generated_Source\PSoC4/RTC.c ****                 tmpNextVal = (0u == carryFlag) ? tmpCurVal : RTC_GetNextDay(RTC_GetYear(curDateTime
 852:Generated_Source\PSoC4/RTC.c ****                                                               RTC_GetMonth(curDateTime.date),
 853:Generated_Source\PSoC4/RTC.c ****                                                                tmpCurVal,
 854:Generated_Source\PSoC4/RTC.c ****                                                               RTC_ALARM_DAYOFMONTH_MASK);
 855:Generated_Source\PSoC4/RTC.c ****             }
 856:Generated_Source\PSoC4/RTC.c ****         }
 857:Generated_Source\PSoC4/RTC.c ****         carryFlag  = (tmpNextVal < tmpCurVal) ? 1u : 0u;
 858:Generated_Source\PSoC4/RTC.c ****         tmpAlarmDate =  RTC_SetDay(tmpAlarmDate, tmpNextVal);
 859:Generated_Source\PSoC4/RTC.c **** 
 860:Generated_Source\PSoC4/RTC.c ****         /* Calculates Month value of first Alarm based on current time and Alarm Config Mask. */
 861:Generated_Source\PSoC4/RTC.c ****         tmpCurVal  = RTC_GetMonth(curDateTime.date);
 862:Generated_Source\PSoC4/RTC.c ****         if(0u != ((~((uint32)alarmCfgMask)) & RTC_ALARM_MONTH_MASK))
 863:Generated_Source\PSoC4/RTC.c ****         {
 864:Generated_Source\PSoC4/RTC.c ****             tmpNextVal = (0u != carryFlag) ? RTC_GetNextMonth(tmpCurVal) : tmpCurVal;
 865:Generated_Source\PSoC4/RTC.c ****         }
 866:Generated_Source\PSoC4/RTC.c ****         else
 867:Generated_Source\PSoC4/RTC.c ****         {
 868:Generated_Source\PSoC4/RTC.c ****             tmpNextVal = RTC_GetMonth(alarmTime->date);
 869:Generated_Source\PSoC4/RTC.c ****         }
 870:Generated_Source\PSoC4/RTC.c ****         carryFlag  = (tmpNextVal < tmpCurVal) ? 1u : 0u;
 871:Generated_Source\PSoC4/RTC.c ****         tmpAlarmDate =  RTC_SetMonth(tmpAlarmDate, tmpNextVal);
 872:Generated_Source\PSoC4/RTC.c **** 
 873:Generated_Source\PSoC4/RTC.c ****         /* Calculates Year value of first Alarm based on current time and Alarm Config Mask. */
 874:Generated_Source\PSoC4/RTC.c ****         tmpCurVal  = RTC_GetYear(curDateTime.date);
 875:Generated_Source\PSoC4/RTC.c ****         if(0u != ((~((uint32)alarmCfgMask)) & RTC_ALARM_MONTH_MASK))
 876:Generated_Source\PSoC4/RTC.c ****         {
 877:Generated_Source\PSoC4/RTC.c ****             tmpNextVal = (0u != carryFlag) ? RTC_GetNextYear(tmpCurVal) : tmpCurVal;
 878:Generated_Source\PSoC4/RTC.c ****         }
 879:Generated_Source\PSoC4/RTC.c ****         else
 880:Generated_Source\PSoC4/RTC.c ****         {
 881:Generated_Source\PSoC4/RTC.c ****             tmpNextVal = RTC_GetYear(alarmTime->date);
 882:Generated_Source\PSoC4/RTC.c ****         }
 883:Generated_Source\PSoC4/RTC.c ****         tmpAlarmDate =  RTC_SetYear(tmpAlarmDate, tmpNextVal);
 884:Generated_Source\PSoC4/RTC.c **** 
 885:Generated_Source\PSoC4/RTC.c ****         return(RTC_DateTimeToUnix(tmpAlarmDate, tmpAlarmTime));
 886:Generated_Source\PSoC4/RTC.c ****     }
 887:Generated_Source\PSoC4/RTC.c **** #endif/* (0u != RTC_INITIAL_ALARM_STATUS) */
 888:Generated_Source\PSoC4/RTC.c **** 
 889:Generated_Source\PSoC4/RTC.c **** 
ARM GAS  C:\Users\Petro\AppData\Local\Temp\ccAfRAcN.s 			page 19


 890:Generated_Source\PSoC4/RTC.c **** /*******************************************************************************
 891:Generated_Source\PSoC4/RTC.c **** * Function Name: RTC_ReadStatus
 892:Generated_Source\PSoC4/RTC.c **** ****************************************************************************//**
 893:Generated_Source\PSoC4/RTC.c **** *
 894:Generated_Source\PSoC4/RTC.c **** * \brief
 895:Generated_Source\PSoC4/RTC.c **** * Reads the Status software register, which has flags for DST (DST),
 896:Generated_Source\PSoC4/RTC.c **** * Leap Year (LY), AM/PM (AM_PM).
 897:Generated_Source\PSoC4/RTC.c **** *
 898:Generated_Source\PSoC4/RTC.c **** * \return
 899:Generated_Source\PSoC4/RTC.c **** * The values shown below are OR'ed and returned if more than one status
 900:Generated_Source\PSoC4/RTC.c **** * bits are set.
 901:Generated_Source\PSoC4/RTC.c **** *
 902:Generated_Source\PSoC4/RTC.c **** * \return
 903:Generated_Source\PSoC4/RTC.c **** * RTC_STATUS_DST - Status of Daylight Saving Time. This bit
 904:Generated_Source\PSoC4/RTC.c **** * goes high when the current time and date match the DST time and date and the 
 905:Generated_Source\PSoC4/RTC.c **** * time is incremented. This bit goes low after the DST interval and the time is 
 906:Generated_Source\PSoC4/RTC.c **** * decremented.
 907:Generated_Source\PSoC4/RTC.c **** *
 908:Generated_Source\PSoC4/RTC.c **** * \return
 909:Generated_Source\PSoC4/RTC.c **** * RTC_STATUS_LY - Status of Leap Year. This bit goes high when the 
 910:Generated_Source\PSoC4/RTC.c **** * current year is a leap year.
 911:Generated_Source\PSoC4/RTC.c **** *
 912:Generated_Source\PSoC4/RTC.c **** * \return
 913:Generated_Source\PSoC4/RTC.c **** * RTC_STATUS_AM_PM - Status of Current Time. This bit is low from 
 914:Generated_Source\PSoC4/RTC.c **** * midnight to noon and high from noon to midnight.
 915:Generated_Source\PSoC4/RTC.c **** *
 916:Generated_Source\PSoC4/RTC.c **** * \note
 917:Generated_Source\PSoC4/RTC.c **** * Reading the status without sync with the date and time read may cause an
 918:Generated_Source\PSoC4/RTC.c **** * error due to a roll-over at AM/PM, the end of a year, the end of a day;
 919:Generated_Source\PSoC4/RTC.c **** * RTC_GetDateAndTime() API is used to obtain the status and
 920:Generated_Source\PSoC4/RTC.c **** * the status member of the returned structure can be checked with the masks.
 921:Generated_Source\PSoC4/RTC.c **** *
 922:Generated_Source\PSoC4/RTC.c **** *******************************************************************************/
 923:Generated_Source\PSoC4/RTC.c **** uint32 RTC_ReadStatus(void)
 924:Generated_Source\PSoC4/RTC.c **** {
 925:Generated_Source\PSoC4/RTC.c ****     uint32 tmpYear;
 926:Generated_Source\PSoC4/RTC.c ****     RTC_DATE_TIME tmpTimeDate;
 927:Generated_Source\PSoC4/RTC.c **** 
 928:Generated_Source\PSoC4/RTC.c ****     RTC_GetDateAndTime(&tmpTimeDate);
 929:Generated_Source\PSoC4/RTC.c ****     tmpYear = RTC_GetYear(tmpTimeDate.date);
 930:Generated_Source\PSoC4/RTC.c **** 
 931:Generated_Source\PSoC4/RTC.c ****     if(0uL != RTC_LeapYear(tmpYear))
 932:Generated_Source\PSoC4/RTC.c ****     {
 933:Generated_Source\PSoC4/RTC.c ****         RTC_currentTimeDate.status |= (1uL << RTC_STATUS_LY_OFFSET);
 934:Generated_Source\PSoC4/RTC.c ****     }
 935:Generated_Source\PSoC4/RTC.c ****     else
 936:Generated_Source\PSoC4/RTC.c ****     {
 937:Generated_Source\PSoC4/RTC.c ****         RTC_currentTimeDate.status &= ~(1uL << RTC_STATUS_LY_OFFSET);
 938:Generated_Source\PSoC4/RTC.c ****     }
 939:Generated_Source\PSoC4/RTC.c **** 
 940:Generated_Source\PSoC4/RTC.c **** 
 941:Generated_Source\PSoC4/RTC.c ****     if(0uL != RTC_GetAmPm(tmpTimeDate.time))
 942:Generated_Source\PSoC4/RTC.c ****     {
 943:Generated_Source\PSoC4/RTC.c ****         RTC_currentTimeDate.status |= (1uL << RTC_STATUS_AM_PM_OFFSET);
 944:Generated_Source\PSoC4/RTC.c ****     }
 945:Generated_Source\PSoC4/RTC.c ****     else
 946:Generated_Source\PSoC4/RTC.c ****     {
ARM GAS  C:\Users\Petro\AppData\Local\Temp\ccAfRAcN.s 			page 20


 947:Generated_Source\PSoC4/RTC.c ****         RTC_currentTimeDate.status &= ~(1uL << RTC_STATUS_AM_PM_OFFSET);
 948:Generated_Source\PSoC4/RTC.c ****     }
 949:Generated_Source\PSoC4/RTC.c **** 
 950:Generated_Source\PSoC4/RTC.c ****     return(RTC_currentTimeDate.status);
 951:Generated_Source\PSoC4/RTC.c **** }
 952:Generated_Source\PSoC4/RTC.c **** 
 953:Generated_Source\PSoC4/RTC.c **** 
 954:Generated_Source\PSoC4/RTC.c **** #if(0u != RTC_INITIAL_DST_STATUS)
 955:Generated_Source\PSoC4/RTC.c ****     /*******************************************************************************
 956:Generated_Source\PSoC4/RTC.c ****     * Function Name: RTC_SetDSTStartTime
 957:Generated_Source\PSoC4/RTC.c ****     ****************************************************************************//**
 958:Generated_Source\PSoC4/RTC.c ****     *
 959:Generated_Source\PSoC4/RTC.c ****     * \brief
 960:Generated_Source\PSoC4/RTC.c ****     *  Stores the DST Start time.
 961:Generated_Source\PSoC4/RTC.c ****     *
 962:Generated_Source\PSoC4/RTC.c ****     *  Only generated if DST is enabled. The date passed can be relative or fixed. 
 963:Generated_Source\PSoC4/RTC.c ****     *  For a relative date, the user needs to provide a valid day of a week, a 
 964:Generated_Source\PSoC4/RTC.c ****     *  week of a month and a month in the dstStartTime structure.
 965:Generated_Source\PSoC4/RTC.c ****     *  For a fixed date, the user needs to enter a valid day of a month and a month in
 966:Generated_Source\PSoC4/RTC.c ****     *  the dstStartTime structure. The hour value is optional and if invalid
 967:Generated_Source\PSoC4/RTC.c ****     *  taken as 00 hrs. Invalid entries are not stored and the DST start date
 968:Generated_Source\PSoC4/RTC.c ****     *  retains a previous value or no value at all.
 969:Generated_Source\PSoC4/RTC.c ****     *
 970:Generated_Source\PSoC4/RTC.c ****     * \param
 971:Generated_Source\PSoC4/RTC.c ****     *  dstStartTime The DST Start time register value.
 972:Generated_Source\PSoC4/RTC.c ****     *
 973:Generated_Source\PSoC4/RTC.c ****     * \param
 974:Generated_Source\PSoC4/RTC.c ****     *  type Defines the DST operation mode <br>
 975:Generated_Source\PSoC4/RTC.c ****     *  DST_DATE_RELATIVE - The DST start time is relative. <br>
 976:Generated_Source\PSoC4/RTC.c ****     *  DST_DATE_FIXED - The DST start time is fixed.
 977:Generated_Source\PSoC4/RTC.c ****     *
 978:Generated_Source\PSoC4/RTC.c ****     *******************************************************************************/
 979:Generated_Source\PSoC4/RTC.c ****     void RTC_SetDSTStartTime(const RTC_DST_TIME* dstStartTime,
 980:Generated_Source\PSoC4/RTC.c ****                                                 RTC_DST_DATETYPE_ENUM type)
 981:Generated_Source\PSoC4/RTC.c ****     {
 982:Generated_Source\PSoC4/RTC.c ****         RTC_dstStartTime.timeFormat    = (uint8)type;
 983:Generated_Source\PSoC4/RTC.c ****         RTC_dstStartTime.hour          = dstStartTime->hour;
 984:Generated_Source\PSoC4/RTC.c ****         RTC_dstStartTime.dayOfWeek     = dstStartTime->dayOfWeek;
 985:Generated_Source\PSoC4/RTC.c ****         RTC_dstStartTime.weekOfMonth   = dstStartTime->weekOfMonth;
 986:Generated_Source\PSoC4/RTC.c ****         RTC_dstStartTime.dayOfMonth    = dstStartTime->dayOfMonth;
 987:Generated_Source\PSoC4/RTC.c ****         RTC_dstStartTime.month         = dstStartTime->month;
 988:Generated_Source\PSoC4/RTC.c **** 
 989:Generated_Source\PSoC4/RTC.c ****         RTC_unixTimeDstStart = RTC_GetDstUnixTime(&RTC_dstStartTime);
 990:Generated_Source\PSoC4/RTC.c **** 
 991:Generated_Source\PSoC4/RTC.c ****         if((RTC_unixTime >= RTC_unixTimeDstStart) &&
 992:Generated_Source\PSoC4/RTC.c ****            (RTC_unixTime <= RTC_unixTimeDstStop))
 993:Generated_Source\PSoC4/RTC.c ****         {
 994:Generated_Source\PSoC4/RTC.c ****             RTC_dstStatus = 1u;
 995:Generated_Source\PSoC4/RTC.c ****             RTC_dstTimeOffset = RTC_SECONDS_PER_HOUR;
 996:Generated_Source\PSoC4/RTC.c ****         }
 997:Generated_Source\PSoC4/RTC.c ****         else
 998:Generated_Source\PSoC4/RTC.c ****         {
 999:Generated_Source\PSoC4/RTC.c ****             RTC_dstStatus = 0u;
1000:Generated_Source\PSoC4/RTC.c ****             RTC_dstTimeOffset = 0uL;
1001:Generated_Source\PSoC4/RTC.c ****         }
1002:Generated_Source\PSoC4/RTC.c ****     }
1003:Generated_Source\PSoC4/RTC.c **** 
ARM GAS  C:\Users\Petro\AppData\Local\Temp\ccAfRAcN.s 			page 21


1004:Generated_Source\PSoC4/RTC.c **** 
1005:Generated_Source\PSoC4/RTC.c ****     /*******************************************************************************
1006:Generated_Source\PSoC4/RTC.c ****     * Function Name: RTC_SetDSTStopTime
1007:Generated_Source\PSoC4/RTC.c ****     ****************************************************************************//**
1008:Generated_Source\PSoC4/RTC.c ****     *
1009:Generated_Source\PSoC4/RTC.c ****     * \brief
1010:Generated_Source\PSoC4/RTC.c ****     *  Stores the DST Stop time.
1011:Generated_Source\PSoC4/RTC.c ****     * 
1012:Generated_Source\PSoC4/RTC.c ****     *  Only generated if DST is enabled. The date passed can be relative or fixed. 
1013:Generated_Source\PSoC4/RTC.c ****     *  For a relative date, the user needs to provide a valid day of a week, a week 
1014:Generated_Source\PSoC4/RTC.c ****     *  of a month and a month in the dstStopTime structure.
1015:Generated_Source\PSoC4/RTC.c ****     *  For a fixed date, the user needs to enter a valid day of a month and a month in the
1016:Generated_Source\PSoC4/RTC.c ****     *  dstSoptTime structure. The hour value is optional and if invalid taken
1017:Generated_Source\PSoC4/RTC.c ****     *  as 00 hrs. Invalid entries are not stored and the DST start date retains
1018:Generated_Source\PSoC4/RTC.c ****     *  a previous value or no value at all.
1019:Generated_Source\PSoC4/RTC.c ****     *
1020:Generated_Source\PSoC4/RTC.c ****     * \param
1021:Generated_Source\PSoC4/RTC.c ****     *  dstStopTime DST Stop time register values.
1022:Generated_Source\PSoC4/RTC.c ****     *
1023:Generated_Source\PSoC4/RTC.c ****     * \param
1024:Generated_Source\PSoC4/RTC.c ****     *  type Defines the DST operation mode <br>
1025:Generated_Source\PSoC4/RTC.c ****     *  DST_DATE_RELATIVE - The DST start time is relative. <br>
1026:Generated_Source\PSoC4/RTC.c ****     *  DST_DATE_FIXED - The DST start time is fixed.
1027:Generated_Source\PSoC4/RTC.c ****     *
1028:Generated_Source\PSoC4/RTC.c ****     *******************************************************************************/
1029:Generated_Source\PSoC4/RTC.c ****     void RTC_SetDSTStopTime(const RTC_DST_TIME* dstStopTime,
1030:Generated_Source\PSoC4/RTC.c ****                                                RTC_DST_DATETYPE_ENUM type)
1031:Generated_Source\PSoC4/RTC.c ****     {
1032:Generated_Source\PSoC4/RTC.c **** 
1033:Generated_Source\PSoC4/RTC.c ****         RTC_dstStopTime.timeFormat  = (uint8)type;
1034:Generated_Source\PSoC4/RTC.c ****         RTC_dstStopTime.hour           = dstStopTime->hour;
1035:Generated_Source\PSoC4/RTC.c ****         RTC_dstStopTime.dayOfWeek      = dstStopTime->dayOfWeek;
1036:Generated_Source\PSoC4/RTC.c ****         RTC_dstStopTime.weekOfMonth = dstStopTime->weekOfMonth;
1037:Generated_Source\PSoC4/RTC.c ****         RTC_dstStopTime.dayOfMonth     = dstStopTime->dayOfMonth;
1038:Generated_Source\PSoC4/RTC.c ****         RTC_dstStopTime.month         = dstStopTime->month;
1039:Generated_Source\PSoC4/RTC.c **** 
1040:Generated_Source\PSoC4/RTC.c ****         RTC_unixTimeDstStop  = RTC_GetDstUnixTime(&RTC_dstStopTime);
1041:Generated_Source\PSoC4/RTC.c **** 
1042:Generated_Source\PSoC4/RTC.c ****         if((RTC_unixTime >= RTC_unixTimeDstStart) &&
1043:Generated_Source\PSoC4/RTC.c ****            (RTC_unixTime <= RTC_unixTimeDstStop))
1044:Generated_Source\PSoC4/RTC.c ****         {
1045:Generated_Source\PSoC4/RTC.c ****             RTC_dstStatus = 1u;
1046:Generated_Source\PSoC4/RTC.c ****             RTC_dstTimeOffset = RTC_SECONDS_PER_HOUR;
1047:Generated_Source\PSoC4/RTC.c ****         }
1048:Generated_Source\PSoC4/RTC.c ****         else
1049:Generated_Source\PSoC4/RTC.c ****         {
1050:Generated_Source\PSoC4/RTC.c ****             RTC_dstStatus = 0u;
1051:Generated_Source\PSoC4/RTC.c ****             RTC_dstTimeOffset = 0uL;
1052:Generated_Source\PSoC4/RTC.c ****         }
1053:Generated_Source\PSoC4/RTC.c ****     }
1054:Generated_Source\PSoC4/RTC.c **** 
1055:Generated_Source\PSoC4/RTC.c **** 
1056:Generated_Source\PSoC4/RTC.c ****     /*******************************************************************************
1057:Generated_Source\PSoC4/RTC.c ****     * Function Name: RTC_GetDstUnixTime
1058:Generated_Source\PSoC4/RTC.c ****     ****************************************************************************//**
1059:Generated_Source\PSoC4/RTC.c ****     *
1060:Generated_Source\PSoC4/RTC.c ****     * \brief
ARM GAS  C:\Users\Petro\AppData\Local\Temp\ccAfRAcN.s 			page 22


1061:Generated_Source\PSoC4/RTC.c ****     *  Calculates the DST Start/Stop time in the UNIX format.
1062:Generated_Source\PSoC4/RTC.c ****     *
1063:Generated_Source\PSoC4/RTC.c ****     * \param
1064:Generated_Source\PSoC4/RTC.c ****     *  dstTime The DST Start/Stop time in the regular time format.
1065:Generated_Source\PSoC4/RTC.c ****     *
1066:Generated_Source\PSoC4/RTC.c ****     * \return
1067:Generated_Source\PSoC4/RTC.c ****     *  The DST Start/Stop time in the UNIX format.
1068:Generated_Source\PSoC4/RTC.c ****     *
1069:Generated_Source\PSoC4/RTC.c ****     *******************************************************************************/
1070:Generated_Source\PSoC4/RTC.c ****     uint64 RTC_GetDstUnixTime(const RTC_DST_TIME* dstTime)
1071:Generated_Source\PSoC4/RTC.c ****     {
1072:Generated_Source\PSoC4/RTC.c ****         uint32 tmpYear;
1073:Generated_Source\PSoC4/RTC.c ****         uint32 tmpDate;
1074:Generated_Source\PSoC4/RTC.c ****         uint64 dstUnixTime;
1075:Generated_Source\PSoC4/RTC.c **** 
1076:Generated_Source\PSoC4/RTC.c ****         RTC_DATE_TIME tmpTimeDate;
1077:Generated_Source\PSoC4/RTC.c **** 
1078:Generated_Source\PSoC4/RTC.c ****         RTC_UnixToDateTime(&tmpTimeDate, RTC_unixTime, RTC_INITIAL_TIME_FORMAT);
1079:Generated_Source\PSoC4/RTC.c ****         tmpYear = RTC_GetYear(tmpTimeDate.date);
1080:Generated_Source\PSoC4/RTC.c **** 
1081:Generated_Source\PSoC4/RTC.c ****         if(dstTime->timeFormat == (uint8)RTC_DST_DATE_FIXED)
1082:Generated_Source\PSoC4/RTC.c ****         {
1083:Generated_Source\PSoC4/RTC.c ****             tmpDate =     RTC_ConstructDate(dstTime->month, dstTime->dayOfMonth, tmpYear);
1084:Generated_Source\PSoC4/RTC.c ****         }
1085:Generated_Source\PSoC4/RTC.c ****         else
1086:Generated_Source\PSoC4/RTC.c ****         {
1087:Generated_Source\PSoC4/RTC.c ****             tmpDate = RTC_RelativeToFixed(dstTime->dayOfWeek, dstTime->weekOfMonth, dstTime->month,
1088:Generated_Source\PSoC4/RTC.c ****         }
1089:Generated_Source\PSoC4/RTC.c **** 
1090:Generated_Source\PSoC4/RTC.c ****         tmpTimeDate.time = RTC_ConstructTime((uint32)RTC_24_HOURS_FORMAT, 0u, dstTime->hour, 0u, 0u
1091:Generated_Source\PSoC4/RTC.c ****         dstUnixTime = RTC_DateTimeToUnix(tmpDate, tmpTimeDate.time);
1092:Generated_Source\PSoC4/RTC.c **** 
1093:Generated_Source\PSoC4/RTC.c ****         return(dstUnixTime);
1094:Generated_Source\PSoC4/RTC.c ****     }
1095:Generated_Source\PSoC4/RTC.c **** 
1096:Generated_Source\PSoC4/RTC.c **** 
1097:Generated_Source\PSoC4/RTC.c **** #endif /* (0u != RTC_INITIAL_DST_STATUS) */
1098:Generated_Source\PSoC4/RTC.c **** 
1099:Generated_Source\PSoC4/RTC.c **** 
1100:Generated_Source\PSoC4/RTC.c **** /*******************************************************************************
1101:Generated_Source\PSoC4/RTC.c **** * Function Name: RTC_ConvertBCDToDec
1102:Generated_Source\PSoC4/RTC.c **** ****************************************************************************//**
1103:Generated_Source\PSoC4/RTC.c **** *
1104:Generated_Source\PSoC4/RTC.c **** * \brief
1105:Generated_Source\PSoC4/RTC.c **** *  Converts a 4-byte BCD number into a 4-byte hexadecimal number. Each byte is
1106:Generated_Source\PSoC4/RTC.c **** *  converted individually and returned as an individual byte in the 32-bit
1107:Generated_Source\PSoC4/RTC.c **** *  variable.
1108:Generated_Source\PSoC4/RTC.c **** *
1109:Generated_Source\PSoC4/RTC.c **** * \param
1110:Generated_Source\PSoC4/RTC.c **** *  bcdNum A 4-byte BCD number. Each byte represents BCD.
1111:Generated_Source\PSoC4/RTC.c **** *  0x11223344 -> 4 bytes 0x11, 0x22, 0x33 and 0x44 the in BCD format.
1112:Generated_Source\PSoC4/RTC.c **** *
1113:Generated_Source\PSoC4/RTC.c **** * \return
1114:Generated_Source\PSoC4/RTC.c **** *  decNum A 4-byte hexadecimal equivalent number of the BCD number.
1115:Generated_Source\PSoC4/RTC.c **** *  BCD number 0x11223344 -> returned hexadecimal number 0x0B16212C.
1116:Generated_Source\PSoC4/RTC.c **** *
1117:Generated_Source\PSoC4/RTC.c **** *******************************************************************************/
ARM GAS  C:\Users\Petro\AppData\Local\Temp\ccAfRAcN.s 			page 23


1118:Generated_Source\PSoC4/RTC.c **** uint32 RTC_ConvertBCDToDec(uint32 bcdNum)
1119:Generated_Source\PSoC4/RTC.c **** {
 138              		.loc 1 1119 0
 139              		.cfi_startproc
 140              	.LVL1:
 141 0000 10B5     		push	{r4, lr}
 142              		.cfi_def_cfa_offset 8
 143              		.cfi_offset 4, -8
 144              		.cfi_offset 14, -4
 145              	.LVL2:
1120:Generated_Source\PSoC4/RTC.c ****     uint32 i;
1121:Generated_Source\PSoC4/RTC.c ****     uint32 mult;
1122:Generated_Source\PSoC4/RTC.c ****     uint32 retVal;
1123:Generated_Source\PSoC4/RTC.c **** 
1124:Generated_Source\PSoC4/RTC.c ****     mult   = 1u;
1125:Generated_Source\PSoC4/RTC.c ****     retVal = 0u;
 146              		.loc 1 1125 0
 147 0002 0024     		mov	r4, #0
1124:Generated_Source\PSoC4/RTC.c ****     retVal = 0u;
 148              		.loc 1 1124 0
 149 0004 0123     		mov	r3, #1
1126:Generated_Source\PSoC4/RTC.c **** 
1127:Generated_Source\PSoC4/RTC.c ****     for(i = 0u; i < 16u; i++)
 150              		.loc 1 1127 0
 151 0006 0021     		mov	r1, #0
 152 0008 08E0     		b	.L15
 153              	.LVL3:
 154              	.L16:
1128:Generated_Source\PSoC4/RTC.c ****     {
1129:Generated_Source\PSoC4/RTC.c ****         retVal += (bcdNum & RTC_BCD_ONE_DIGIT_MASK) * mult;
 155              		.loc 1 1129 0 discriminator 3
 156 000a 0F22     		mov	r2, #15
 157 000c 0240     		and	r2, r0
 158 000e 5A43     		mul	r2, r3
 159 0010 A418     		add	r4, r4, r2
 160              	.LVL4:
1130:Generated_Source\PSoC4/RTC.c ****         bcdNum >>= RTC_BCD_NUMBER_SIZE;
 161              		.loc 1 1130 0 discriminator 3
 162 0012 0009     		lsr	r0, r0, #4
 163              	.LVL5:
1131:Generated_Source\PSoC4/RTC.c ****         mult *= 10u;
 164              		.loc 1 1131 0 discriminator 3
 165 0014 9A00     		lsl	r2, r3, #2
 166 0016 D318     		add	r3, r2, r3
 167              	.LVL6:
 168 0018 5B00     		lsl	r3, r3, #1
 169              	.LVL7:
1127:Generated_Source\PSoC4/RTC.c ****     {
 170              		.loc 1 1127 0 discriminator 3
 171 001a 0131     		add	r1, r1, #1
 172              	.LVL8:
 173              	.L15:
1127:Generated_Source\PSoC4/RTC.c ****     {
 174              		.loc 1 1127 0 is_stmt 0 discriminator 1
 175 001c 0F29     		cmp	r1, #15
 176 001e F4D9     		bls	.L16
1132:Generated_Source\PSoC4/RTC.c ****     }
ARM GAS  C:\Users\Petro\AppData\Local\Temp\ccAfRAcN.s 			page 24


1133:Generated_Source\PSoC4/RTC.c **** 
1134:Generated_Source\PSoC4/RTC.c ****     return(retVal);
1135:Generated_Source\PSoC4/RTC.c **** }
 177              		.loc 1 1135 0 is_stmt 1
 178 0020 201C     		mov	r0, r4
 179              	.LVL9:
 180              		@ sp needed
 181              	.LVL10:
 182 0022 10BD     		pop	{r4, pc}
 183              		.cfi_endproc
 184              	.LFE41:
 185              		.size	RTC_ConvertBCDToDec, .-RTC_ConvertBCDToDec
 186              		.global	__aeabi_uidivmod
 187              		.global	__aeabi_uidiv
 188              		.section	.text.RTC_ConvertDecToBCD,"ax",%progbits
 189              		.align	2
 190              		.global	RTC_ConvertDecToBCD
 191              		.code	16
 192              		.thumb_func
 193              		.type	RTC_ConvertDecToBCD, %function
 194              	RTC_ConvertDecToBCD:
 195              	.LFB42:
1136:Generated_Source\PSoC4/RTC.c **** 
1137:Generated_Source\PSoC4/RTC.c **** 
1138:Generated_Source\PSoC4/RTC.c **** /*******************************************************************************
1139:Generated_Source\PSoC4/RTC.c **** * Function Name: RTC_ConvertDecToBCD
1140:Generated_Source\PSoC4/RTC.c **** ****************************************************************************//**
1141:Generated_Source\PSoC4/RTC.c **** *
1142:Generated_Source\PSoC4/RTC.c **** * \brief
1143:Generated_Source\PSoC4/RTC.c **** *  Converts a 4-byte hexadecimal number into a 4-byte BCD number. Each byte
1144:Generated_Source\PSoC4/RTC.c **** *  is converted individually and returned as an individual byte in the 32-bit
1145:Generated_Source\PSoC4/RTC.c **** *  variable.
1146:Generated_Source\PSoC4/RTC.c **** *
1147:Generated_Source\PSoC4/RTC.c **** * \param 
1148:Generated_Source\PSoC4/RTC.c **** *  decNum A 4-byte hexadecimal number. Each byte is represented in hex.
1149:Generated_Source\PSoC4/RTC.c **** *  0x11223344 -> 4 bytes 0x11, 0x22, 0x33 and 0x44 in the hex format.
1150:Generated_Source\PSoC4/RTC.c **** *
1151:Generated_Source\PSoC4/RTC.c **** * \return
1152:Generated_Source\PSoC4/RTC.c **** *  bcdNum - A 4-byte BCD equivalent of the passed hexadecimal number. Hexadecimal
1153:Generated_Source\PSoC4/RTC.c **** *  number 0x11223344 -> returned BCD number 0x17345168.
1154:Generated_Source\PSoC4/RTC.c **** *
1155:Generated_Source\PSoC4/RTC.c **** *******************************************************************************/
1156:Generated_Source\PSoC4/RTC.c **** uint32 RTC_ConvertDecToBCD(uint32 decNum)
1157:Generated_Source\PSoC4/RTC.c **** {
 196              		.loc 1 1157 0
 197              		.cfi_startproc
 198              	.LVL11:
 199 0000 70B5     		push	{r4, r5, r6, lr}
 200              		.cfi_def_cfa_offset 16
 201              		.cfi_offset 4, -16
 202              		.cfi_offset 5, -12
 203              		.cfi_offset 6, -8
 204              		.cfi_offset 14, -4
 205 0002 041C     		mov	r4, r0
 206              	.LVL12:
1158:Generated_Source\PSoC4/RTC.c ****     uint32 shift;
1159:Generated_Source\PSoC4/RTC.c ****     uint32 tmpVal;
ARM GAS  C:\Users\Petro\AppData\Local\Temp\ccAfRAcN.s 			page 25


1160:Generated_Source\PSoC4/RTC.c ****     uint32 retVal;
1161:Generated_Source\PSoC4/RTC.c **** 
1162:Generated_Source\PSoC4/RTC.c ****     shift  = 0u;
1163:Generated_Source\PSoC4/RTC.c ****     retVal = 0u;
 207              		.loc 1 1163 0
 208 0004 0026     		mov	r6, #0
1162:Generated_Source\PSoC4/RTC.c ****     retVal = 0u;
 209              		.loc 1 1162 0
 210 0006 0025     		mov	r5, #0
 211              	.LVL13:
 212              	.L18:
1164:Generated_Source\PSoC4/RTC.c ****     tmpVal = decNum;
1165:Generated_Source\PSoC4/RTC.c **** 
1166:Generated_Source\PSoC4/RTC.c ****     do
1167:Generated_Source\PSoC4/RTC.c ****     {
1168:Generated_Source\PSoC4/RTC.c ****         retVal |= ((tmpVal % 10u) << shift);
 213              		.loc 1 1168 0 discriminator 1
 214 0008 201C     		mov	r0, r4
 215 000a 0A21     		mov	r1, #10
 216 000c FFF7FEFF 		bl	__aeabi_uidivmod
 217              	.LVL14:
 218 0010 A940     		lsl	r1, r1, r5
 219 0012 0E43     		orr	r6, r1
 220              	.LVL15:
1169:Generated_Source\PSoC4/RTC.c ****         tmpVal /= 10u;
 221              		.loc 1 1169 0 discriminator 1
 222 0014 201C     		mov	r0, r4
 223 0016 0A21     		mov	r1, #10
 224 0018 FFF7FEFF 		bl	__aeabi_uidiv
 225              	.LVL16:
 226 001c 041C     		mov	r4, r0
 227              	.LVL17:
1170:Generated_Source\PSoC4/RTC.c ****         shift  += RTC_BCD_NUMBER_SIZE;
 228              		.loc 1 1170 0 discriminator 1
 229 001e 0435     		add	r5, r5, #4
 230              	.LVL18:
1171:Generated_Source\PSoC4/RTC.c ****     }
1172:Generated_Source\PSoC4/RTC.c ****     while(tmpVal >= 10u);
 231              		.loc 1 1172 0 discriminator 1
 232 0020 0928     		cmp	r0, #9
 233 0022 F1D8     		bhi	.L18
1173:Generated_Source\PSoC4/RTC.c **** 
1174:Generated_Source\PSoC4/RTC.c ****     retVal |= (tmpVal << shift);
 234              		.loc 1 1174 0
 235 0024 A840     		lsl	r0, r0, r5
 236              	.LVL19:
 237 0026 3043     		orr	r0, r6
 238              	.LVL20:
1175:Generated_Source\PSoC4/RTC.c **** 
1176:Generated_Source\PSoC4/RTC.c ****     return(retVal);
1177:Generated_Source\PSoC4/RTC.c **** }
 239              		.loc 1 1177 0
 240              		@ sp needed
 241              	.LVL21:
 242              	.LVL22:
 243 0028 70BD     		pop	{r4, r5, r6, pc}
 244              		.cfi_endproc
ARM GAS  C:\Users\Petro\AppData\Local\Temp\ccAfRAcN.s 			page 26


 245              	.LFE42:
 246              		.size	RTC_ConvertDecToBCD, .-RTC_ConvertDecToBCD
 247 002a C046     		.section	.text.RTC_Update,"ax",%progbits
 248              		.align	2
 249              		.global	RTC_Update
 250              		.code	16
 251              		.thumb_func
 252              		.type	RTC_Update, %function
 253              	RTC_Update:
 254              	.LFB43:
1178:Generated_Source\PSoC4/RTC.c **** 
1179:Generated_Source\PSoC4/RTC.c **** 
1180:Generated_Source\PSoC4/RTC.c **** /*******************************************************************************
1181:Generated_Source\PSoC4/RTC.c **** * Function Name: RTC_Update
1182:Generated_Source\PSoC4/RTC.c **** ****************************************************************************//**
1183:Generated_Source\PSoC4/RTC.c **** *
1184:Generated_Source\PSoC4/RTC.c **** * \brief
1185:Generated_Source\PSoC4/RTC.c **** *  This API updates the time registers and performs alarm/DST check.
1186:Generated_Source\PSoC4/RTC.c **** *
1187:Generated_Source\PSoC4/RTC.c **** *  This function increments the time/date registers by an input clock period.
1188:Generated_Source\PSoC4/RTC.c **** *  The period is set by RTC_SetPeriod() API or WDT period selected for RTC
1189:Generated_Source\PSoC4/RTC.c **** *  in the clocks configuration window (low frequency clocks tab) interface
1190:Generated_Source\PSoC4/RTC.c **** *  every time it is called.
1191:Generated_Source\PSoC4/RTC.c **** *
1192:Generated_Source\PSoC4/RTC.c **** *  API is automatically mapped to the WDT's callback slot and period if the
1193:Generated_Source\PSoC4/RTC.c **** *  configuration is as follows: 1) Option "Implement RTC update manually" in
1194:Generated_Source\PSoC4/RTC.c **** *  the customizer is unchecked 2) One of WDTs is selected in the "Use for RTC"
1195:Generated_Source\PSoC4/RTC.c **** *  panel of the low frequency clocks tab 3) Option "Implementation by IDE" is
1196:Generated_Source\PSoC4/RTC.c **** *  selected in the "Timer (WDT) ISR" panel.
1197:Generated_Source\PSoC4/RTC.c **** *
1198:Generated_Source\PSoC4/RTC.c **** *  If option "Implement RTC update manually" is checked in the customizer or
1199:Generated_Source\PSoC4/RTC.c **** *  option "None" is selected in the "Use for RTC" panel,it is the user's
1200:Generated_Source\PSoC4/RTC.c **** *  responsibility: 1) to call this API from the clock ISR to be
1201:Generated_Source\PSoC4/RTC.c **** *  used as the RTC's input 2) set the period of the RTC through
1202:Generated_Source\PSoC4/RTC.c **** *  RTC_SetPeriod() API.
1203:Generated_Source\PSoC4/RTC.c **** *
1204:Generated_Source\PSoC4/RTC.c **** * \note Updates the Unix time register, updates the alarm and DST status.
1205:Generated_Source\PSoC4/RTC.c **** *
1206:Generated_Source\PSoC4/RTC.c **** *******************************************************************************/
1207:Generated_Source\PSoC4/RTC.c **** void RTC_Update(void)
1208:Generated_Source\PSoC4/RTC.c **** {
 255              		.loc 1 1208 0
 256              		.cfi_startproc
 257 0000 30B5     		push	{r4, r5, lr}
 258              		.cfi_def_cfa_offset 12
 259              		.cfi_offset 4, -12
 260              		.cfi_offset 5, -8
 261              		.cfi_offset 14, -4
1209:Generated_Source\PSoC4/RTC.c ****     static volatile uint32 RTC_currentTickNumber;
1210:Generated_Source\PSoC4/RTC.c ****     RTC_currentTickNumber += RTC_updateTimePeriod;
 262              		.loc 1 1210 0
 263 0002 0B4B     		ldr	r3, .L21
 264 0004 9A68     		ldr	r2, [r3, #8]
 265 0006 1968     		ldr	r1, [r3]
 266 0008 8C46     		mov	ip, r1
 267 000a 6244     		add	r2, r2, ip
 268 000c 9A60     		str	r2, [r3, #8]
ARM GAS  C:\Users\Petro\AppData\Local\Temp\ccAfRAcN.s 			page 27


1211:Generated_Source\PSoC4/RTC.c **** 
1212:Generated_Source\PSoC4/RTC.c ****     if(RTC_currentTickNumber >= RTC_tickRefOneSec)
 269              		.loc 1 1212 0
 270 000e 9A68     		ldr	r2, [r3, #8]
 271 0010 5B68     		ldr	r3, [r3, #4]
 272 0012 9A42     		cmp	r2, r3
 273 0014 0BD3     		bcc	.L19
1213:Generated_Source\PSoC4/RTC.c ****     {
1214:Generated_Source\PSoC4/RTC.c ****         RTC_unixTime++;
 274              		.loc 1 1214 0
 275 0016 0749     		ldr	r1, .L21+4
 276 0018 0C68     		ldr	r4, [r1]
 277 001a 4D68     		ldr	r5, [r1, #4]
 278 001c 0122     		mov	r2, #1
 279 001e 0023     		mov	r3, #0
 280 0020 1219     		add	r2, r2, r4
 281 0022 6B41     		adc	r3, r3, r5
 282 0024 0A60     		str	r2, [r1]
 283 0026 4B60     		str	r3, [r1, #4]
1215:Generated_Source\PSoC4/RTC.c ****         RTC_currentTickNumber = 0u;
 284              		.loc 1 1215 0
 285 0028 0022     		mov	r2, #0
 286 002a 014B     		ldr	r3, .L21
 287 002c 9A60     		str	r2, [r3, #8]
 288              	.L19:
1216:Generated_Source\PSoC4/RTC.c **** 
1217:Generated_Source\PSoC4/RTC.c ****     #if(0u != RTC_INITIAL_DST_STATUS)
1218:Generated_Source\PSoC4/RTC.c ****         if(RTC_unixTime == RTC_unixTimeDstStart)
1219:Generated_Source\PSoC4/RTC.c ****         {
1220:Generated_Source\PSoC4/RTC.c ****             RTC_dstStatus = 1u;
1221:Generated_Source\PSoC4/RTC.c ****             RTC_dstTimeOffset = RTC_SECONDS_PER_HOUR;
1222:Generated_Source\PSoC4/RTC.c ****         }
1223:Generated_Source\PSoC4/RTC.c **** 
1224:Generated_Source\PSoC4/RTC.c ****         if(RTC_unixTime == (RTC_unixTimeDstStop  - RTC_dstTimeOffset))
1225:Generated_Source\PSoC4/RTC.c ****         {
1226:Generated_Source\PSoC4/RTC.c ****             RTC_dstStatus = 0u;
1227:Generated_Source\PSoC4/RTC.c ****             RTC_dstTimeOffset = 0u;
1228:Generated_Source\PSoC4/RTC.c ****             RTC_unixTimeDstStart = RTC_GetDstUnixTime(&RTC_dstStartTime);
1229:Generated_Source\PSoC4/RTC.c ****             RTC_unixTimeDstStop  = RTC_GetDstUnixTime(&RTC_dstStopTime);
1230:Generated_Source\PSoC4/RTC.c ****         }
1231:Generated_Source\PSoC4/RTC.c ****     #endif /* (0u != RTC_INITIAL_DST_STATUS) */
1232:Generated_Source\PSoC4/RTC.c **** 
1233:Generated_Source\PSoC4/RTC.c ****     #if(0u != RTC_INITIAL_ALARM_STATUS)
1234:Generated_Source\PSoC4/RTC.c ****         if((RTC_unixTime + RTC_dstTimeOffset) == RTC_unixTimeAlarm)
1235:Generated_Source\PSoC4/RTC.c ****         {
1236:Generated_Source\PSoC4/RTC.c ****             RTC_currentTimeDate.status |= (1uL << RTC_STATUS_ALARM_OFFSET);
1237:Generated_Source\PSoC4/RTC.c ****             RTC_alarmCurStatus = RTC_alarmCfgMask;
1238:Generated_Source\PSoC4/RTC.c ****             if (RTC_alarmCallbackPtr != (void *) 0)
1239:Generated_Source\PSoC4/RTC.c ****             {
1240:Generated_Source\PSoC4/RTC.c ****                 RTC_alarmCallbackPtr();
1241:Generated_Source\PSoC4/RTC.c ****             }
1242:Generated_Source\PSoC4/RTC.c ****             RTC_unixTimeAlarm = RTC_GetNexAlarmTime(RTC_unixTime + RTC_dstTimeOffset,
1243:Generated_Source\PSoC4/RTC.c ****                                                                                                   (
1244:Generated_Source\PSoC4/RTC.c ****         }
1245:Generated_Source\PSoC4/RTC.c ****     #endif/* (0u != RTC_INITIAL_ALARM_STATUS) */
1246:Generated_Source\PSoC4/RTC.c ****     }
1247:Generated_Source\PSoC4/RTC.c **** }
ARM GAS  C:\Users\Petro\AppData\Local\Temp\ccAfRAcN.s 			page 28


 289              		.loc 1 1247 0
 290              		@ sp needed
 291 002e 30BD     		pop	{r4, r5, pc}
 292              	.L22:
 293              		.align	2
 294              	.L21:
 295 0030 00000000 		.word	.LANCHOR0
 296 0034 00000000 		.word	RTC_unixTime
 297              		.cfi_endproc
 298              	.LFE43:
 299              		.size	RTC_Update, .-RTC_Update
 300              		.section	.text.RTC_DateTimeToUnix,"ax",%progbits
 301              		.align	2
 302              		.global	RTC_DateTimeToUnix
 303              		.code	16
 304              		.thumb_func
 305              		.type	RTC_DateTimeToUnix, %function
 306              	RTC_DateTimeToUnix:
 307              	.LFB44:
1248:Generated_Source\PSoC4/RTC.c **** 
1249:Generated_Source\PSoC4/RTC.c **** 
1250:Generated_Source\PSoC4/RTC.c **** /*******************************************************************************
1251:Generated_Source\PSoC4/RTC.c **** * Function Name: RTC_DateTimeToUnix
1252:Generated_Source\PSoC4/RTC.c **** ****************************************************************************//**
1253:Generated_Source\PSoC4/RTC.c **** *
1254:Generated_Source\PSoC4/RTC.c **** * \brief
1255:Generated_Source\PSoC4/RTC.c **** *  This is an internal function to convert the date and time from
1256:Generated_Source\PSoC4/RTC.c **** *  the regular time format into the UNIX time format.
1257:Generated_Source\PSoC4/RTC.c **** *
1258:Generated_Source\PSoC4/RTC.c **** * \param
1259:Generated_Source\PSoC4/RTC.c **** *  inputDate The date in the selected in the customizer "date format".
1260:Generated_Source\PSoC4/RTC.c **** * \param
1261:Generated_Source\PSoC4/RTC.c **** *  inputTime The time in the defined "time format".
1262:Generated_Source\PSoC4/RTC.c **** *
1263:Generated_Source\PSoC4/RTC.c **** * \return Returns the date and time in the UNIX format.
1264:Generated_Source\PSoC4/RTC.c **** *
1265:Generated_Source\PSoC4/RTC.c **** *******************************************************************************/
1266:Generated_Source\PSoC4/RTC.c **** uint64 RTC_DateTimeToUnix(uint32 inputDate, uint32 inputTime)
1267:Generated_Source\PSoC4/RTC.c **** {
 308              		.loc 1 1267 0
 309              		.cfi_startproc
 310              	.LVL23:
 311 0000 F0B5     		push	{r4, r5, r6, r7, lr}
 312              		.cfi_def_cfa_offset 20
 313              		.cfi_offset 4, -20
 314              		.cfi_offset 5, -16
 315              		.cfi_offset 6, -12
 316              		.cfi_offset 7, -8
 317              		.cfi_offset 14, -4
 318 0002 5746     		mov	r7, r10
 319 0004 4E46     		mov	r6, r9
 320 0006 4546     		mov	r5, r8
 321 0008 E0B4     		push	{r5, r6, r7}
 322              		.cfi_def_cfa_offset 32
 323              		.cfi_offset 8, -32
 324              		.cfi_offset 9, -28
 325              		.cfi_offset 10, -24
ARM GAS  C:\Users\Petro\AppData\Local\Temp\ccAfRAcN.s 			page 29


 326 000a 8046     		mov	r8, r0
 327 000c 8946     		mov	r9, r1
 328              	.LVL24:
 329              	.LBB46:
 330              	.LBB47:
 331              		.file 2 "Generated_Source\\PSoC4\\RTC.h"
   1:Generated_Source\PSoC4/RTC.h **** /***************************************************************************//**
   2:Generated_Source\PSoC4/RTC.h **** * \file Name: RTC.h
   3:Generated_Source\PSoC4/RTC.h **** * \version 1.10
   4:Generated_Source\PSoC4/RTC.h **** *
   5:Generated_Source\PSoC4/RTC.h **** * \brief
   6:Generated_Source\PSoC4/RTC.h **** *  This file provides constants and parameter values for the RTC_P4 Component.
   7:Generated_Source\PSoC4/RTC.h **** *
   8:Generated_Source\PSoC4/RTC.h **** ********************************************************************************
   9:Generated_Source\PSoC4/RTC.h **** * Copyright 2015-2016, Cypress Semiconductor Corporation.  All rights reserved.
  10:Generated_Source\PSoC4/RTC.h **** * You may use this file only in accordance with the license, terms, conditions,
  11:Generated_Source\PSoC4/RTC.h **** * disclaimers, and limitations in the end user license agreement accompanying
  12:Generated_Source\PSoC4/RTC.h **** * the software package with which this file was provided.
  13:Generated_Source\PSoC4/RTC.h **** *******************************************************************************/
  14:Generated_Source\PSoC4/RTC.h **** 
  15:Generated_Source\PSoC4/RTC.h **** #if !defined(CY_RTC_P4_RTC_H)
  16:Generated_Source\PSoC4/RTC.h **** #define CY_RTC_P4_RTC_H
  17:Generated_Source\PSoC4/RTC.h **** 
  18:Generated_Source\PSoC4/RTC.h **** #include <cytypes.h>
  19:Generated_Source\PSoC4/RTC.h **** #include <CyLib.h>
  20:Generated_Source\PSoC4/RTC.h **** 
  21:Generated_Source\PSoC4/RTC.h **** 
  22:Generated_Source\PSoC4/RTC.h **** /*******************************************************************************
  23:Generated_Source\PSoC4/RTC.h **** *    Data types definition
  24:Generated_Source\PSoC4/RTC.h **** *******************************************************************************/
  25:Generated_Source\PSoC4/RTC.h **** 
  26:Generated_Source\PSoC4/RTC.h **** typedef enum
  27:Generated_Source\PSoC4/RTC.h **** {
  28:Generated_Source\PSoC4/RTC.h ****     RTC_DST_DATE_RELATIVE = 0u,
  29:Generated_Source\PSoC4/RTC.h ****     RTC_DST_DATE_FIXED = 1u
  30:Generated_Source\PSoC4/RTC.h **** }RTC_DST_DATETYPE_ENUM;
  31:Generated_Source\PSoC4/RTC.h **** 
  32:Generated_Source\PSoC4/RTC.h **** /**
  33:Generated_Source\PSoC4/RTC.h **** * \addtogroup group_structures
  34:Generated_Source\PSoC4/RTC.h **** * @{
  35:Generated_Source\PSoC4/RTC.h **** */
  36:Generated_Source\PSoC4/RTC.h **** 
  37:Generated_Source\PSoC4/RTC.h **** /**
  38:Generated_Source\PSoC4/RTC.h **** * This is the data structure that is used to save the current time and date 
  39:Generated_Source\PSoC4/RTC.h **** * (RTC_currentTimeDate), and Alarm time and date (RTC_alarmCfgTimeDate).
  40:Generated_Source\PSoC4/RTC.h **** */
  41:Generated_Source\PSoC4/RTC.h **** typedef struct
  42:Generated_Source\PSoC4/RTC.h **** {
  43:Generated_Source\PSoC4/RTC.h ****     uint32 time;
  44:Generated_Source\PSoC4/RTC.h ****     uint32 date;
  45:Generated_Source\PSoC4/RTC.h ****     uint32 dayOfWeek;
  46:Generated_Source\PSoC4/RTC.h ****     uint32 status;
  47:Generated_Source\PSoC4/RTC.h **** }RTC_DATE_TIME;
  48:Generated_Source\PSoC4/RTC.h **** 
  49:Generated_Source\PSoC4/RTC.h **** /**
  50:Generated_Source\PSoC4/RTC.h **** * This is the data structure that is used to save time and date values for 
  51:Generated_Source\PSoC4/RTC.h **** * Daylight Savings Time Start and Stop (RTC_dstTimeDateStart and 
ARM GAS  C:\Users\Petro\AppData\Local\Temp\ccAfRAcN.s 			page 30


  52:Generated_Source\PSoC4/RTC.h **** * RTC_dstTimeDateStop).
  53:Generated_Source\PSoC4/RTC.h **** */
  54:Generated_Source\PSoC4/RTC.h **** typedef struct
  55:Generated_Source\PSoC4/RTC.h **** {
  56:Generated_Source\PSoC4/RTC.h ****     uint32 hour;
  57:Generated_Source\PSoC4/RTC.h ****     uint32 dayOfWeek;
  58:Generated_Source\PSoC4/RTC.h ****     uint32 dayOfMonth;
  59:Generated_Source\PSoC4/RTC.h ****     uint32 weekOfMonth;
  60:Generated_Source\PSoC4/RTC.h ****     uint32 month;
  61:Generated_Source\PSoC4/RTC.h ****     uint8  timeFormat;
  62:Generated_Source\PSoC4/RTC.h **** }RTC_DST_TIME;
  63:Generated_Source\PSoC4/RTC.h **** 
  64:Generated_Source\PSoC4/RTC.h **** /** @} structures */
  65:Generated_Source\PSoC4/RTC.h **** 
  66:Generated_Source\PSoC4/RTC.h **** /*******************************************************************************
  67:Generated_Source\PSoC4/RTC.h **** *    Enumerated Types and Parameters
  68:Generated_Source\PSoC4/RTC.h **** *******************************************************************************/
  69:Generated_Source\PSoC4/RTC.h **** /* Time Format setting constants */
  70:Generated_Source\PSoC4/RTC.h **** #define RTC__HOUR_12 1
  71:Generated_Source\PSoC4/RTC.h **** #define RTC__HOUR_24 0
  72:Generated_Source\PSoC4/RTC.h **** 
  73:Generated_Source\PSoC4/RTC.h **** /*  Date Format setting constants */
  74:Generated_Source\PSoC4/RTC.h **** #define RTC__MM_DD_YYYY 0
  75:Generated_Source\PSoC4/RTC.h **** #define RTC__DD_MM_YYYY 1
  76:Generated_Source\PSoC4/RTC.h **** #define RTC__YYYY_MM_DD 2
  77:Generated_Source\PSoC4/RTC.h **** 
  78:Generated_Source\PSoC4/RTC.h **** /* Date Type setting constants */
  79:Generated_Source\PSoC4/RTC.h **** #define RTC__RELATIVE 0
  80:Generated_Source\PSoC4/RTC.h **** #define RTC__FIXED 1
  81:Generated_Source\PSoC4/RTC.h **** 
  82:Generated_Source\PSoC4/RTC.h **** /* DST Hour setting constants */
  83:Generated_Source\PSoC4/RTC.h **** #define RTC__H0000 0
  84:Generated_Source\PSoC4/RTC.h **** #define RTC__H0100 1
  85:Generated_Source\PSoC4/RTC.h **** #define RTC__H0200 2
  86:Generated_Source\PSoC4/RTC.h **** #define RTC__H0300 3
  87:Generated_Source\PSoC4/RTC.h **** #define RTC__H0400 4
  88:Generated_Source\PSoC4/RTC.h **** #define RTC__H0500 5
  89:Generated_Source\PSoC4/RTC.h **** #define RTC__H0600 6
  90:Generated_Source\PSoC4/RTC.h **** #define RTC__H0700 7
  91:Generated_Source\PSoC4/RTC.h **** #define RTC__H0800 8
  92:Generated_Source\PSoC4/RTC.h **** #define RTC__H0900 9
  93:Generated_Source\PSoC4/RTC.h **** #define RTC__H1000 10
  94:Generated_Source\PSoC4/RTC.h **** #define RTC__H1100 11
  95:Generated_Source\PSoC4/RTC.h **** #define RTC__H1200 12
  96:Generated_Source\PSoC4/RTC.h **** #define RTC__H1300 13
  97:Generated_Source\PSoC4/RTC.h **** #define RTC__H1400 14
  98:Generated_Source\PSoC4/RTC.h **** #define RTC__H1500 15
  99:Generated_Source\PSoC4/RTC.h **** #define RTC__H1600 16
 100:Generated_Source\PSoC4/RTC.h **** #define RTC__H1700 17
 101:Generated_Source\PSoC4/RTC.h **** #define RTC__H1800 18
 102:Generated_Source\PSoC4/RTC.h **** #define RTC__H1900 19
 103:Generated_Source\PSoC4/RTC.h **** #define RTC__H2000 20
 104:Generated_Source\PSoC4/RTC.h **** #define RTC__H2100 21
 105:Generated_Source\PSoC4/RTC.h **** #define RTC__H2200 22
 106:Generated_Source\PSoC4/RTC.h **** #define RTC__H2300 23
 107:Generated_Source\PSoC4/RTC.h **** 
 108:Generated_Source\PSoC4/RTC.h **** /* DST DayOfWeek setting constants */
ARM GAS  C:\Users\Petro\AppData\Local\Temp\ccAfRAcN.s 			page 31


 109:Generated_Source\PSoC4/RTC.h **** #define RTC__SUNDAY 1
 110:Generated_Source\PSoC4/RTC.h **** #define RTC__MONDAY 2
 111:Generated_Source\PSoC4/RTC.h **** #define RTC__TUESDAY 3
 112:Generated_Source\PSoC4/RTC.h **** #define RTC__WEDNESDAY 4
 113:Generated_Source\PSoC4/RTC.h **** #define RTC__THURSDAY 5
 114:Generated_Source\PSoC4/RTC.h **** #define RTC__FRIDAY 6
 115:Generated_Source\PSoC4/RTC.h **** #define RTC__SATURDAY 7
 116:Generated_Source\PSoC4/RTC.h **** 
 117:Generated_Source\PSoC4/RTC.h **** /* DST Month setting constants */
 118:Generated_Source\PSoC4/RTC.h **** #define RTC__JAN 1
 119:Generated_Source\PSoC4/RTC.h **** #define RTC__FEB 2
 120:Generated_Source\PSoC4/RTC.h **** #define RTC__MAR 3
 121:Generated_Source\PSoC4/RTC.h **** #define RTC__APR 4
 122:Generated_Source\PSoC4/RTC.h **** #define RTC__MAY 5
 123:Generated_Source\PSoC4/RTC.h **** #define RTC__JUN 6
 124:Generated_Source\PSoC4/RTC.h **** #define RTC__JUL 7
 125:Generated_Source\PSoC4/RTC.h **** #define RTC__AUG 8
 126:Generated_Source\PSoC4/RTC.h **** #define RTC__SEP 9
 127:Generated_Source\PSoC4/RTC.h **** #define RTC__OCT 10
 128:Generated_Source\PSoC4/RTC.h **** #define RTC__NOV 11
 129:Generated_Source\PSoC4/RTC.h **** #define RTC__DEC 12
 130:Generated_Source\PSoC4/RTC.h **** 
 131:Generated_Source\PSoC4/RTC.h **** /* DST WeekOfMonth setting constants */
 132:Generated_Source\PSoC4/RTC.h **** #define RTC__FIRST 1
 133:Generated_Source\PSoC4/RTC.h **** #define RTC__SECOND 2
 134:Generated_Source\PSoC4/RTC.h **** #define RTC__THIRD 3
 135:Generated_Source\PSoC4/RTC.h **** #define RTC__FOURTH 4
 136:Generated_Source\PSoC4/RTC.h **** #define RTC__FIFTH 5
 137:Generated_Source\PSoC4/RTC.h **** #define RTC__LAST 6
 138:Generated_Source\PSoC4/RTC.h **** 
 139:Generated_Source\PSoC4/RTC.h **** 
 140:Generated_Source\PSoC4/RTC.h **** #define RTC_INITIAL_DATA_FORMAT     (0u)
 141:Generated_Source\PSoC4/RTC.h **** #define RTC_INITIAL_TIME_FORMAT     (0u)
 142:Generated_Source\PSoC4/RTC.h **** #define RTC_INITIAL_UPDATE_MODE     (0u)
 143:Generated_Source\PSoC4/RTC.h **** #define RTC_INITIAL_SECOND          (27u)
 144:Generated_Source\PSoC4/RTC.h **** #define RTC_INITIAL_MINUTE          (23u)
 145:Generated_Source\PSoC4/RTC.h **** #define RTC_INITIAL_HOUR            (23u)
 146:Generated_Source\PSoC4/RTC.h **** #define RTC_INITIAL_DAY             (1u)
 147:Generated_Source\PSoC4/RTC.h **** #define RTC_INITIAL_MONTH           (9u)
 148:Generated_Source\PSoC4/RTC.h **** #define RTC_INITIAL_YEAR            (2016u)
 149:Generated_Source\PSoC4/RTC.h **** 
 150:Generated_Source\PSoC4/RTC.h **** #define RTC_INITIAL_ALARM_STATUS    (0u)
 151:Generated_Source\PSoC4/RTC.h **** 
 152:Generated_Source\PSoC4/RTC.h **** #define RTC_INITIAL_DST_STATUS      (0u)
 153:Generated_Source\PSoC4/RTC.h **** #define RTC_INITIAL_DST_DATE_TYPE   (0u)
 154:Generated_Source\PSoC4/RTC.h **** #define RTC_INITIAL_DST_START_MONTH (3uL)
 155:Generated_Source\PSoC4/RTC.h **** #define RTC_INITIAL_DST_START_WOM   (6uL)
 156:Generated_Source\PSoC4/RTC.h **** #define RTC_INITIAL_DST_START_DOM   (22uL)
 157:Generated_Source\PSoC4/RTC.h **** #define RTC_INITIAL_DST_START_DOW   (1uL)
 158:Generated_Source\PSoC4/RTC.h **** #define RTC_INITIAL_DST_START_HRS   (0uL)
 159:Generated_Source\PSoC4/RTC.h **** #define RTC_INITIAL_DST_STOP_MONTH  (10uL)
 160:Generated_Source\PSoC4/RTC.h **** #define RTC_INITIAL_DST_STOP_DOM    (22uL)
 161:Generated_Source\PSoC4/RTC.h **** #define RTC_INITIAL_DST_STOP_DOW    (1uL)
 162:Generated_Source\PSoC4/RTC.h **** #define RTC_INITIAL_DST_STOP_WOM    (6uL)
 163:Generated_Source\PSoC4/RTC.h **** #define RTC_INITIAL_DST_STOP_HRS    (0uL)
 164:Generated_Source\PSoC4/RTC.h **** 
 165:Generated_Source\PSoC4/RTC.h **** /* Day of week definitions */
ARM GAS  C:\Users\Petro\AppData\Local\Temp\ccAfRAcN.s 			page 32


 166:Generated_Source\PSoC4/RTC.h **** #define RTC_SUNDAY     (RTC__SUNDAY)
 167:Generated_Source\PSoC4/RTC.h **** #define RTC_MONDAY     (RTC__MONDAY)
 168:Generated_Source\PSoC4/RTC.h **** #define RTC_TUESDAY    (RTC__TUESDAY)
 169:Generated_Source\PSoC4/RTC.h **** #define RTC_WEDNESDAY  (RTC__WEDNESDAY)
 170:Generated_Source\PSoC4/RTC.h **** #define RTC_THURSDAY   (RTC__THURSDAY)
 171:Generated_Source\PSoC4/RTC.h **** #define RTC_FRIDAY     (RTC__FRIDAY)
 172:Generated_Source\PSoC4/RTC.h **** #define RTC_SATURDAY   (RTC__SATURDAY)
 173:Generated_Source\PSoC4/RTC.h **** 
 174:Generated_Source\PSoC4/RTC.h **** /* DST WeekOfMonth setting constants definitions */
 175:Generated_Source\PSoC4/RTC.h **** #define RTC_FIRST      (RTC__FIRST)
 176:Generated_Source\PSoC4/RTC.h **** #define RTC_SECOND     (RTC__SECOND)
 177:Generated_Source\PSoC4/RTC.h **** #define RTC_THIRD      (RTC__THIRD)
 178:Generated_Source\PSoC4/RTC.h **** #define RTC_FOURTH     (RTC__FOURTH)
 179:Generated_Source\PSoC4/RTC.h **** #define RTC_FIFTH      (RTC__FIFTH)
 180:Generated_Source\PSoC4/RTC.h **** #define RTC_LAST       (RTC__LAST)
 181:Generated_Source\PSoC4/RTC.h **** 
 182:Generated_Source\PSoC4/RTC.h **** /* Month definitions */
 183:Generated_Source\PSoC4/RTC.h **** #define RTC_JANUARY    (RTC__JAN)
 184:Generated_Source\PSoC4/RTC.h **** #define RTC_FEBRUARY   (RTC__FEB)
 185:Generated_Source\PSoC4/RTC.h **** #define RTC_MARCH      (RTC__MAR)
 186:Generated_Source\PSoC4/RTC.h **** #define RTC_APRIL      (RTC__APR)
 187:Generated_Source\PSoC4/RTC.h **** #define RTC_MAY        (RTC__MAY)
 188:Generated_Source\PSoC4/RTC.h **** #define RTC_JUNE       (RTC__JUN)
 189:Generated_Source\PSoC4/RTC.h **** #define RTC_JULY       (RTC__JUL)
 190:Generated_Source\PSoC4/RTC.h **** #define RTC_AUGUST     (RTC__AUG)
 191:Generated_Source\PSoC4/RTC.h **** #define RTC_SEPTEMBER  (RTC__SEP)
 192:Generated_Source\PSoC4/RTC.h **** #define RTC_OCTOBER    (RTC__OCT)
 193:Generated_Source\PSoC4/RTC.h **** #define RTC_NOVEMBER   (RTC__NOV)
 194:Generated_Source\PSoC4/RTC.h **** #define RTC_DECEMBER   (RTC__DEC)
 195:Generated_Source\PSoC4/RTC.h **** 
 196:Generated_Source\PSoC4/RTC.h **** #define RTC_DAYS_PER_WEEK       (7u)
 197:Generated_Source\PSoC4/RTC.h **** 
 198:Generated_Source\PSoC4/RTC.h **** /* Number of days in month definitions */
 199:Generated_Source\PSoC4/RTC.h **** #define RTC_DAYS_IN_JANUARY     (31u)
 200:Generated_Source\PSoC4/RTC.h **** #define RTC_DAYS_IN_FEBRUARY    (28u)
 201:Generated_Source\PSoC4/RTC.h **** #define RTC_DAYS_IN_MARCH       (31u)
 202:Generated_Source\PSoC4/RTC.h **** #define RTC_DAYS_IN_APRIL       (30u)
 203:Generated_Source\PSoC4/RTC.h **** #define RTC_DAYS_IN_MAY         (31u)
 204:Generated_Source\PSoC4/RTC.h **** #define RTC_DAYS_IN_JUNE        (30u)
 205:Generated_Source\PSoC4/RTC.h **** #define RTC_DAYS_IN_JULY        (31u)
 206:Generated_Source\PSoC4/RTC.h **** #define RTC_DAYS_IN_AUGUST      (31u)
 207:Generated_Source\PSoC4/RTC.h **** #define RTC_DAYS_IN_SEPTEMBER   (30u)
 208:Generated_Source\PSoC4/RTC.h **** #define RTC_DAYS_IN_OCTOBER     (31u)
 209:Generated_Source\PSoC4/RTC.h **** #define RTC_DAYS_IN_NOVEMBER    (30u)
 210:Generated_Source\PSoC4/RTC.h **** #define RTC_DAYS_IN_DECEMBER    (31u)
 211:Generated_Source\PSoC4/RTC.h **** 
 212:Generated_Source\PSoC4/RTC.h **** #define RTC_MONTHS_PER_YEAR     (12uL)
 213:Generated_Source\PSoC4/RTC.h **** 
 214:Generated_Source\PSoC4/RTC.h **** #define RTC_HOURS_PER_DAY       (24uL)
 215:Generated_Source\PSoC4/RTC.h **** #define RTC_HOURS_PER_HALF_DAY  (12uL)
 216:Generated_Source\PSoC4/RTC.h **** 
 217:Generated_Source\PSoC4/RTC.h **** #define RTC_SECONDS_PER_MINUTE  (60uL)
 218:Generated_Source\PSoC4/RTC.h **** #define RTC_SECONDS_PER_HOUR    (3600uL)
 219:Generated_Source\PSoC4/RTC.h **** #define RTC_SECONDS_PER_DAY     (24uL * 3600uL)
 220:Generated_Source\PSoC4/RTC.h **** 
 221:Generated_Source\PSoC4/RTC.h **** #define RTC_SECONDS_PER_LEAP_YEAR    (366uL * 24uL * 3600uL)
 222:Generated_Source\PSoC4/RTC.h **** #define RTC_SECONDS_PER_NONLEAP_YEAR (365uL * 24uL * 3600uL)
ARM GAS  C:\Users\Petro\AppData\Local\Temp\ccAfRAcN.s 			page 33


 223:Generated_Source\PSoC4/RTC.h **** 
 224:Generated_Source\PSoC4/RTC.h **** #define RTC_UNIX_TIME_PM   ((12uL * 3600uL) + 1uL)
 225:Generated_Source\PSoC4/RTC.h **** 
 226:Generated_Source\PSoC4/RTC.h **** /* AM/PM status definitions */
 227:Generated_Source\PSoC4/RTC.h **** #define RTC_AM                 (0u)
 228:Generated_Source\PSoC4/RTC.h **** #define RTC_PM                 (1u)
 229:Generated_Source\PSoC4/RTC.h **** 
 230:Generated_Source\PSoC4/RTC.h **** /* Time format definitions */
 231:Generated_Source\PSoC4/RTC.h **** #define RTC_12_HOURS_FORMAT    (RTC__HOUR_12)
 232:Generated_Source\PSoC4/RTC.h **** #define RTC_24_HOURS_FORMAT    (RTC__HOUR_24)
 233:Generated_Source\PSoC4/RTC.h **** 
 234:Generated_Source\PSoC4/RTC.h **** /* UNIX time begins in 1970 year.  */
 235:Generated_Source\PSoC4/RTC.h **** #define RTC_YEAR_0             (1970u)
 236:Generated_Source\PSoC4/RTC.h **** 
 237:Generated_Source\PSoC4/RTC.h **** /* Definition of date register fields */
 238:Generated_Source\PSoC4/RTC.h **** #if(RTC_INITIAL_DATA_FORMAT == RTC__MM_DD_YYYY)
 239:Generated_Source\PSoC4/RTC.h ****     #define RTC_10_MONTH_OFFSET   (28u)
 240:Generated_Source\PSoC4/RTC.h ****     #define RTC_MONTH_OFFSET      (24u)
 241:Generated_Source\PSoC4/RTC.h ****     #define RTC_10_DAY_OFFSET     (20u)
 242:Generated_Source\PSoC4/RTC.h ****     #define RTC_DAY_OFFSET        (16u)
 243:Generated_Source\PSoC4/RTC.h ****     #define RTC_1000_YEAR_OFFSET  (12u)
 244:Generated_Source\PSoC4/RTC.h ****     #define RTC_100_YEAR_OFFSET   (8u)
 245:Generated_Source\PSoC4/RTC.h ****     #define RTC_10_YEAR_OFFSET    (4u)
 246:Generated_Source\PSoC4/RTC.h ****     #define RTC_YEAR_OFFSET       (0u)
 247:Generated_Source\PSoC4/RTC.h **** #elif(RTC_INITIAL_DATA_FORMAT == RTC__DD_MM_YYYY)
 248:Generated_Source\PSoC4/RTC.h ****     #define RTC_10_MONTH_OFFSET   (20u)
 249:Generated_Source\PSoC4/RTC.h ****     #define RTC_MONTH_OFFSET      (16u)
 250:Generated_Source\PSoC4/RTC.h ****     #define RTC_10_DAY_OFFSET     (28u)
 251:Generated_Source\PSoC4/RTC.h ****     #define RTC_DAY_OFFSET        (24u)
 252:Generated_Source\PSoC4/RTC.h ****     #define RTC_1000_YEAR_OFFSET  (12u)
 253:Generated_Source\PSoC4/RTC.h ****     #define RTC_100_YEAR_OFFSET   (8u)
 254:Generated_Source\PSoC4/RTC.h ****     #define RTC_10_YEAR_OFFSET    (4u)
 255:Generated_Source\PSoC4/RTC.h ****     #define RTC_YEAR_OFFSET       (0u)
 256:Generated_Source\PSoC4/RTC.h **** #else
 257:Generated_Source\PSoC4/RTC.h ****     #define RTC_10_MONTH_OFFSET   (12u)
 258:Generated_Source\PSoC4/RTC.h ****     #define RTC_MONTH_OFFSET      (8u)
 259:Generated_Source\PSoC4/RTC.h ****     #define RTC_10_DAY_OFFSET     (4u)
 260:Generated_Source\PSoC4/RTC.h ****     #define RTC_DAY_OFFSET        (0u)
 261:Generated_Source\PSoC4/RTC.h ****     #define RTC_1000_YEAR_OFFSET  (28u)
 262:Generated_Source\PSoC4/RTC.h ****     #define RTC_100_YEAR_OFFSET   (24u)
 263:Generated_Source\PSoC4/RTC.h ****     #define RTC_10_YEAR_OFFSET    (20u)
 264:Generated_Source\PSoC4/RTC.h ****     #define RTC_YEAR_OFFSET       (16u)
 265:Generated_Source\PSoC4/RTC.h **** #endif /* (RTC_INITIAL_DATA_FORMAT == RTC__MM_DD_YYYY) */
 266:Generated_Source\PSoC4/RTC.h **** 
 267:Generated_Source\PSoC4/RTC.h **** #define RTC_10_MONTH_MASK          (0x00000001uL << RTC_10_MONTH_OFFSET)
 268:Generated_Source\PSoC4/RTC.h **** #define RTC_MONTH_MASK             (0x0000000FuL << RTC_MONTH_OFFSET)
 269:Generated_Source\PSoC4/RTC.h **** #define RTC_10_DAY_MASK            (0x00000003uL << RTC_10_DAY_OFFSET)
 270:Generated_Source\PSoC4/RTC.h **** #define RTC_DAY_MASK               (0x0000000FuL << RTC_DAY_OFFSET)
 271:Generated_Source\PSoC4/RTC.h **** #define RTC_1000_YEAR_MASK         (0x00000003uL << RTC_1000_YEAR_OFFSET)
 272:Generated_Source\PSoC4/RTC.h **** #define RTC_100_YEAR_MASK          (0x0000000FuL << RTC_100_YEAR_OFFSET)
 273:Generated_Source\PSoC4/RTC.h **** #define RTC_10_YEAR_MASK           (0x0000000FuL << RTC_10_YEAR_OFFSET)
 274:Generated_Source\PSoC4/RTC.h **** #define RTC_YEAR_MASK              (0x0000000FuL << RTC_YEAR_OFFSET)
 275:Generated_Source\PSoC4/RTC.h **** 
 276:Generated_Source\PSoC4/RTC.h **** #define  RTC_MONTH_FULL_MASK       (RTC_10_MONTH_MASK  | RTC_MONTH_MASK)
 277:Generated_Source\PSoC4/RTC.h **** #define  RTC_DAY_FULL_MASK         (RTC_10_DAY_MASK    | RTC_DAY_MASK)
 278:Generated_Source\PSoC4/RTC.h **** #define  RTC_YEAR_FULL_MASK        (RTC_1000_YEAR_MASK | RTC_100_YEAR_MASK |\
 279:Generated_Source\PSoC4/RTC.h ****                                                  RTC_10_YEAR_MASK   | RTC_YEAR_MASK)
ARM GAS  C:\Users\Petro\AppData\Local\Temp\ccAfRAcN.s 			page 34


 280:Generated_Source\PSoC4/RTC.h **** 
 281:Generated_Source\PSoC4/RTC.h **** 
 282:Generated_Source\PSoC4/RTC.h **** /* Definition of time register fields */
 283:Generated_Source\PSoC4/RTC.h **** #define RTC_TIME_FORMAT_OFFSET     (23u)
 284:Generated_Source\PSoC4/RTC.h **** #define RTC_PERIOD_OF_DAY_OFFSET   (22u)
 285:Generated_Source\PSoC4/RTC.h **** #define RTC_10_HOURS_OFFSET        (20u)
 286:Generated_Source\PSoC4/RTC.h **** #define RTC_HOURS_OFFSET           (16u)
 287:Generated_Source\PSoC4/RTC.h **** #define RTC_10_MINUTES_OFFSET      (12u)
 288:Generated_Source\PSoC4/RTC.h **** #define RTC_MINUTES_OFFSET         (8u)
 289:Generated_Source\PSoC4/RTC.h **** #define RTC_10_SECONDS_OFFSET      (4u)
 290:Generated_Source\PSoC4/RTC.h **** #define RTC_SECONDS_OFFSET         (0u)
 291:Generated_Source\PSoC4/RTC.h **** 
 292:Generated_Source\PSoC4/RTC.h **** #define RTC_TIME_FORMAT_MASK       (0x00000001uL << RTC_TIME_FORMAT_OFFSET)
 293:Generated_Source\PSoC4/RTC.h **** #define RTC_PERIOD_OF_DAY_MASK     (0x00000001uL << RTC_PERIOD_OF_DAY_OFFSET)
 294:Generated_Source\PSoC4/RTC.h **** #define RTC_10_HOURS_MASK          (0x00000003uL << RTC_10_HOURS_OFFSET)
 295:Generated_Source\PSoC4/RTC.h **** #define RTC_HOURS_MASK             (0x0000000FuL << RTC_HOURS_OFFSET)
 296:Generated_Source\PSoC4/RTC.h **** #define RTC_10_MINUTES_MASK        (0x00000007uL << RTC_10_MINUTES_OFFSET)
 297:Generated_Source\PSoC4/RTC.h **** #define RTC_MINUTES_MASK           (0x0000000FuL << RTC_MINUTES_OFFSET)
 298:Generated_Source\PSoC4/RTC.h **** #define RTC_10_SECONDS_MASK        (0x00000007uL << RTC_10_SECONDS_OFFSET)
 299:Generated_Source\PSoC4/RTC.h **** #define RTC_SECONDS_MASK           (0x0000000FuL << RTC_SECONDS_OFFSET)
 300:Generated_Source\PSoC4/RTC.h **** 
 301:Generated_Source\PSoC4/RTC.h **** #define RTC_HOURS_FULL_MASK        (RTC_10_HOURS_MASK   | RTC_HOURS_MASK)
 302:Generated_Source\PSoC4/RTC.h **** #define RTC_MINUTES_FULL_MASK      (RTC_10_MINUTES_MASK | RTC_MINUTES_MASK)
 303:Generated_Source\PSoC4/RTC.h **** #define RTC_SECONDS_FULL_MASK      (RTC_10_SECONDS_MASK | RTC_SECONDS_MASK)
 304:Generated_Source\PSoC4/RTC.h **** 
 305:Generated_Source\PSoC4/RTC.h **** #define RTC_ALARM_SEC_MASK         (0x00000001uL)
 306:Generated_Source\PSoC4/RTC.h **** #define RTC_ALARM_MIN_MASK         (0x00000002uL)
 307:Generated_Source\PSoC4/RTC.h **** #define RTC_ALARM_HOUR_MASK        (0x00000004uL)
 308:Generated_Source\PSoC4/RTC.h **** #define RTC_ALARM_DAYOFWEEK_MASK   (0x00000008uL)
 309:Generated_Source\PSoC4/RTC.h **** #define RTC_ALARM_DAYOFMONTH_MASK  (0x00000010uL)
 310:Generated_Source\PSoC4/RTC.h **** #define RTC_ALARM_MONTH_MASK       (0x00000020uL)
 311:Generated_Source\PSoC4/RTC.h **** #define RTC_ALARM_YEAR_MASK        (0x00000040uL)
 312:Generated_Source\PSoC4/RTC.h **** 
 313:Generated_Source\PSoC4/RTC.h **** #define RTC_STATUS_DST_OFFSET      (1u)
 314:Generated_Source\PSoC4/RTC.h **** #define RTC_STATUS_ALARM_OFFSET    (2u)
 315:Generated_Source\PSoC4/RTC.h **** #define RTC_STATUS_LY_OFFSET       (3u)
 316:Generated_Source\PSoC4/RTC.h **** #define RTC_STATUS_AM_PM_OFFSET    (4u)
 317:Generated_Source\PSoC4/RTC.h **** 
 318:Generated_Source\PSoC4/RTC.h **** /* Definition of the RTC status values. */
 319:Generated_Source\PSoC4/RTC.h **** #define RTC_STATUS_DST             (1uL << RTC_STATUS_DST_OFFSET)
 320:Generated_Source\PSoC4/RTC.h **** #define RTC_STATUS_LY              (1uL << RTC_STATUS_LY_OFFSET)
 321:Generated_Source\PSoC4/RTC.h **** #define RTC_STATUS_AM_PM           (1uL << RTC_STATUS_AM_PM_OFFSET)
 322:Generated_Source\PSoC4/RTC.h **** 
 323:Generated_Source\PSoC4/RTC.h **** /* Number of bits per one BCD digit. */
 324:Generated_Source\PSoC4/RTC.h **** #define RTC_BCD_NUMBER_SIZE        (4u)
 325:Generated_Source\PSoC4/RTC.h **** #define RTC_BCD_ONE_DIGIT_MASK     (0x0000000FuL)
 326:Generated_Source\PSoC4/RTC.h **** 
 327:Generated_Source\PSoC4/RTC.h **** /*******************************************************************************
 328:Generated_Source\PSoC4/RTC.h **** *    Function Prototypes
 329:Generated_Source\PSoC4/RTC.h **** *******************************************************************************/
 330:Generated_Source\PSoC4/RTC.h **** /**
 331:Generated_Source\PSoC4/RTC.h **** * \addtogroup group_api
 332:Generated_Source\PSoC4/RTC.h **** * @{
 333:Generated_Source\PSoC4/RTC.h **** */
 334:Generated_Source\PSoC4/RTC.h **** void   RTC_Start(void);
 335:Generated_Source\PSoC4/RTC.h **** void   RTC_Stop(void);
 336:Generated_Source\PSoC4/RTC.h **** void   RTC_Init(void);
ARM GAS  C:\Users\Petro\AppData\Local\Temp\ccAfRAcN.s 			page 35


 337:Generated_Source\PSoC4/RTC.h **** void   RTC_SetUnixTime(uint64 unixTime);
 338:Generated_Source\PSoC4/RTC.h **** uint64 RTC_GetUnixTime(void);
 339:Generated_Source\PSoC4/RTC.h **** void   RTC_SetPeriod(uint32 ticks, uint32 refOneSecTicks);
 340:Generated_Source\PSoC4/RTC.h **** uint32 RTC_GetPeriod(void);
 341:Generated_Source\PSoC4/RTC.h **** uint32 RTC_GetRefOneSec(void);
 342:Generated_Source\PSoC4/RTC.h **** void   RTC_SetDateAndTime(uint32 inputTime, uint32 inputDate);
 343:Generated_Source\PSoC4/RTC.h **** void   RTC_GetDateAndTime(RTC_DATE_TIME* dateTime);
 344:Generated_Source\PSoC4/RTC.h **** uint32 RTC_GetTime(void);
 345:Generated_Source\PSoC4/RTC.h **** uint32 RTC_GetDate(void);
 346:Generated_Source\PSoC4/RTC.h **** void   RTC_SetAlarmDateAndTime(const RTC_DATE_TIME* alarmTime);
 347:Generated_Source\PSoC4/RTC.h **** void   RTC_GetAlarmDateAndTime(RTC_DATE_TIME* alarmTimeDate);
 348:Generated_Source\PSoC4/RTC.h **** void   RTC_SetAlarmMask(uint32 mask);
 349:Generated_Source\PSoC4/RTC.h **** uint32 RTC_GetAlarmMask(void);
 350:Generated_Source\PSoC4/RTC.h **** uint32 RTC_ReadStatus(void);
 351:Generated_Source\PSoC4/RTC.h **** uint32 RTC_GetAlarmStatus(void);
 352:Generated_Source\PSoC4/RTC.h **** void   RTC_ClearAlarmStatus(void);
 353:Generated_Source\PSoC4/RTC.h **** void   RTC_SetDSTStartTime(const RTC_DST_TIME* dstStartTime,
 354:Generated_Source\PSoC4/RTC.h ****                                               RTC_DST_DATETYPE_ENUM type);
 355:Generated_Source\PSoC4/RTC.h **** void   RTC_SetDSTStopTime(const RTC_DST_TIME* dstStopTime,
 356:Generated_Source\PSoC4/RTC.h ****                                              RTC_DST_DATETYPE_ENUM type);
 357:Generated_Source\PSoC4/RTC.h **** uint32 RTC_ConvertBCDToDec(uint32 bcdNum);
 358:Generated_Source\PSoC4/RTC.h **** uint32 RTC_ConvertDecToBCD(uint32 decNum);
 359:Generated_Source\PSoC4/RTC.h **** void   RTC_Update(void);
 360:Generated_Source\PSoC4/RTC.h **** void*  RTC_SetAlarmHandler(void (*CallbackFunction)(void));
 361:Generated_Source\PSoC4/RTC.h **** 
 362:Generated_Source\PSoC4/RTC.h **** static uint32 RTC_ConstructDate(uint32 month, uint32 day, uint32 year);
 363:Generated_Source\PSoC4/RTC.h **** static uint32 RTC_ConstructTime(uint32 timeFormat, uint32 stateAmPm, uint32 hour, uint32 min, uint3
 364:Generated_Source\PSoC4/RTC.h **** /** @} api */
 365:Generated_Source\PSoC4/RTC.h **** 
 366:Generated_Source\PSoC4/RTC.h **** static uint32 RTC_GetTimeFormat(uint32 inputTime);
 367:Generated_Source\PSoC4/RTC.h **** static uint32 RTC_SetTimeFormat(uint32 inputTime, uint32 timeFormat);
 368:Generated_Source\PSoC4/RTC.h **** 
 369:Generated_Source\PSoC4/RTC.h **** /**
 370:Generated_Source\PSoC4/RTC.h **** * \addtogroup group_api
 371:Generated_Source\PSoC4/RTC.h **** * @{
 372:Generated_Source\PSoC4/RTC.h **** */
 373:Generated_Source\PSoC4/RTC.h **** static uint32 RTC_LeapYear(uint32 year);
 374:Generated_Source\PSoC4/RTC.h **** static uint32 RTC_IsBitSet(uint32 var, uint32 mask);
 375:Generated_Source\PSoC4/RTC.h **** static uint32 RTC_GetSecond(uint32 inputTime);
 376:Generated_Source\PSoC4/RTC.h **** static uint32 RTC_GetMinutes(uint32 inputTime);
 377:Generated_Source\PSoC4/RTC.h **** static uint32 RTC_GetHours(uint32 inputTime);
 378:Generated_Source\PSoC4/RTC.h **** static uint32 RTC_GetAmPm(uint32 inputTime);
 379:Generated_Source\PSoC4/RTC.h **** static uint32 RTC_GetDay(uint32 date);
 380:Generated_Source\PSoC4/RTC.h **** static uint32 RTC_GetMonth(uint32 date);
 381:Generated_Source\PSoC4/RTC.h **** static uint32 RTC_GetYear(uint32 date);
 382:Generated_Source\PSoC4/RTC.h **** /** @} api */
 383:Generated_Source\PSoC4/RTC.h **** 
 384:Generated_Source\PSoC4/RTC.h **** static uint32 RTC_SetSecond(uint32 inputTime, uint32 inputSecond);
 385:Generated_Source\PSoC4/RTC.h **** static uint32 RTC_SetMinutes(uint32 inputTime, uint32 inputMinute);
 386:Generated_Source\PSoC4/RTC.h **** static uint32 RTC_SetHours(uint32 inputTime, uint32 inputHours);
 387:Generated_Source\PSoC4/RTC.h **** static uint32 RTC_SetAmPm(uint32 inputTime, uint32 periodOfDay);
 388:Generated_Source\PSoC4/RTC.h **** static uint32 RTC_SetDay(uint32 inputDate, uint32 inputDay);
 389:Generated_Source\PSoC4/RTC.h **** static uint32 RTC_SetMonth(uint32 inputDate, uint32 inputMonth);
 390:Generated_Source\PSoC4/RTC.h **** static uint32 RTC_SetYear(uint32 inputDate, uint32 inputYear);
 391:Generated_Source\PSoC4/RTC.h **** 
 392:Generated_Source\PSoC4/RTC.h **** uint64 RTC_ConstructUnixAlarmTime(const RTC_DATE_TIME* alarmTime, uint8 alarmCfgMask);
 393:Generated_Source\PSoC4/RTC.h **** uint64 RTC_GetDstUnixTime(const RTC_DST_TIME* dstTime);
ARM GAS  C:\Users\Petro\AppData\Local\Temp\ccAfRAcN.s 			page 36


 394:Generated_Source\PSoC4/RTC.h **** uint64 RTC_GetNexAlarmTime(uint64 curUnixTime, uint8 alarmCfgMask);
 395:Generated_Source\PSoC4/RTC.h **** 
 396:Generated_Source\PSoC4/RTC.h **** static uint32 RTC_GetNextMinSec(uint32 curVal);
 397:Generated_Source\PSoC4/RTC.h **** static uint32 RTC_GetNextHour(uint32 curVal);
 398:Generated_Source\PSoC4/RTC.h **** static uint32 RTC_GetNextDay(uint32 curYear, uint32 curMonth, uint32 curDay, uint32 alarmCfgMask);
 399:Generated_Source\PSoC4/RTC.h **** static uint32 RTC_GetNextMonth(uint32 curMonth);
 400:Generated_Source\PSoC4/RTC.h **** static uint32 RTC_GetNextYear(uint32 curYear);
 401:Generated_Source\PSoC4/RTC.h **** static uint32 RTC_GetDayOfWeek(uint32 day, uint32 month, uint32 year);
 402:Generated_Source\PSoC4/RTC.h **** 
 403:Generated_Source\PSoC4/RTC.h **** uint32 RTC_DaysInMonth(uint32 month, uint32 year);
 404:Generated_Source\PSoC4/RTC.h **** uint32 RTC_DaysBeforeMonth(uint32 month, uint32 year);
 405:Generated_Source\PSoC4/RTC.h **** 
 406:Generated_Source\PSoC4/RTC.h **** /**
 407:Generated_Source\PSoC4/RTC.h **** * \addtogroup group_api
 408:Generated_Source\PSoC4/RTC.h **** * @{
 409:Generated_Source\PSoC4/RTC.h **** */
 410:Generated_Source\PSoC4/RTC.h **** void   RTC_UnixToDateTime(RTC_DATE_TIME* dateTime, uint64 unixTime, uint32 timeFormat);
 411:Generated_Source\PSoC4/RTC.h **** uint64 RTC_DateTimeToUnix(uint32 inputDate, uint32 inputTime);
 412:Generated_Source\PSoC4/RTC.h **** /** @} api */
 413:Generated_Source\PSoC4/RTC.h **** 
 414:Generated_Source\PSoC4/RTC.h **** uint32 RTC_RelativeToFixed(uint32 dayOfWeek, uint32 weekOfMonth, uint32 month, uint32 year);
 415:Generated_Source\PSoC4/RTC.h **** 
 416:Generated_Source\PSoC4/RTC.h **** 
 417:Generated_Source\PSoC4/RTC.h **** #if defined(CYDEV_RTC_SOURCE_WDT)
 418:Generated_Source\PSoC4/RTC.h ****     #if((0u != CYDEV_WDT_GENERATE_ISR) && (0u == RTC_INITIAL_UPDATE_MODE))
 419:Generated_Source\PSoC4/RTC.h ****         static void RTC_CySysRtcSetCallback(uint32 wdtNumber);
 420:Generated_Source\PSoC4/RTC.h ****         static void RTC_CySysRtcResetCallback(uint32 wdtNumber);
 421:Generated_Source\PSoC4/RTC.h ****     #endif /* ((0u != CYDEV_WDT_GENERATE_ISR) && (0u == RTC_INITIAL_UPDATE_MODE)) */
 422:Generated_Source\PSoC4/RTC.h **** #endif /* (CYDEV_RTC_SOURCE_WDT) */
 423:Generated_Source\PSoC4/RTC.h **** 
 424:Generated_Source\PSoC4/RTC.h **** /*******************************************************************************
 425:Generated_Source\PSoC4/RTC.h **** * Function Name: RTC_IsBitSet
 426:Generated_Source\PSoC4/RTC.h **** ****************************************************************************//**
 427:Generated_Source\PSoC4/RTC.h **** *
 428:Generated_Source\PSoC4/RTC.h **** * \brief
 429:Generated_Source\PSoC4/RTC.h **** *  Checks the state of a bit passed through parameter.
 430:Generated_Source\PSoC4/RTC.h **** *
 431:Generated_Source\PSoC4/RTC.h **** * \param
 432:Generated_Source\PSoC4/RTC.h **** *  var The variable to be checked.
 433:Generated_Source\PSoC4/RTC.h **** * \param
 434:Generated_Source\PSoC4/RTC.h **** *  mask The mask for a bit to be checked.
 435:Generated_Source\PSoC4/RTC.h **** *
 436:Generated_Source\PSoC4/RTC.h **** * \return
 437:Generated_Source\PSoC4/RTC.h **** *  0u - Bit is not set.
 438:Generated_Source\PSoC4/RTC.h **** * \return
 439:Generated_Source\PSoC4/RTC.h **** *  1u - Bit is set.
 440:Generated_Source\PSoC4/RTC.h **** *
 441:Generated_Source\PSoC4/RTC.h **** *******************************************************************************/
 442:Generated_Source\PSoC4/RTC.h **** static CY_INLINE uint32 RTC_IsBitSet(uint32 var, uint32 mask)
 443:Generated_Source\PSoC4/RTC.h **** {
 444:Generated_Source\PSoC4/RTC.h ****     return ((mask == (var & mask)) ? 1Lu : 0Lu);
 445:Generated_Source\PSoC4/RTC.h **** }
 446:Generated_Source\PSoC4/RTC.h **** 
 447:Generated_Source\PSoC4/RTC.h **** 
 448:Generated_Source\PSoC4/RTC.h **** /*******************************************************************************
 449:Generated_Source\PSoC4/RTC.h **** * Function Name: RTC_LeapYear
 450:Generated_Source\PSoC4/RTC.h **** ****************************************************************************//**
ARM GAS  C:\Users\Petro\AppData\Local\Temp\ccAfRAcN.s 			page 37


 451:Generated_Source\PSoC4/RTC.h **** *
 452:Generated_Source\PSoC4/RTC.h **** * \brief
 453:Generated_Source\PSoC4/RTC.h **** * Checks whether the year passed through the parameter is
 454:Generated_Source\PSoC4/RTC.h **** * leap or no.
 455:Generated_Source\PSoC4/RTC.h **** *
 456:Generated_Source\PSoC4/RTC.h **** * \param
 457:Generated_Source\PSoC4/RTC.h **** *  year The year to be checked.
 458:Generated_Source\PSoC4/RTC.h **** *
 459:Generated_Source\PSoC4/RTC.h **** *
 460:Generated_Source\PSoC4/RTC.h **** * \return
 461:Generated_Source\PSoC4/RTC.h **** *  0u - The year is not leap.
 462:Generated_Source\PSoC4/RTC.h **** * \return
 463:Generated_Source\PSoC4/RTC.h **** *  1u - The year is leap.
 464:Generated_Source\PSoC4/RTC.h **** *
 465:Generated_Source\PSoC4/RTC.h **** *******************************************************************************/
 466:Generated_Source\PSoC4/RTC.h **** static CY_INLINE uint32 RTC_LeapYear(uint32 year)
 467:Generated_Source\PSoC4/RTC.h **** {
 468:Generated_Source\PSoC4/RTC.h ****     uint32 retVal;
 469:Generated_Source\PSoC4/RTC.h **** 
 470:Generated_Source\PSoC4/RTC.h ****     if(((0u == (year % 4Lu)) && (0u != (year % 100Lu))) || (0u == (year % 400Lu)))
 471:Generated_Source\PSoC4/RTC.h ****     {
 472:Generated_Source\PSoC4/RTC.h ****         retVal = 1uL;
 473:Generated_Source\PSoC4/RTC.h ****     }
 474:Generated_Source\PSoC4/RTC.h ****     else
 475:Generated_Source\PSoC4/RTC.h ****     {
 476:Generated_Source\PSoC4/RTC.h ****         retVal = 0uL;
 477:Generated_Source\PSoC4/RTC.h ****     }
 478:Generated_Source\PSoC4/RTC.h **** 
 479:Generated_Source\PSoC4/RTC.h ****     return(retVal);
 480:Generated_Source\PSoC4/RTC.h **** }
 481:Generated_Source\PSoC4/RTC.h **** 
 482:Generated_Source\PSoC4/RTC.h **** 
 483:Generated_Source\PSoC4/RTC.h **** /*******************************************************************************
 484:Generated_Source\PSoC4/RTC.h **** * Function Name: RTC_GetSecond
 485:Generated_Source\PSoC4/RTC.h **** ****************************************************************************//**
 486:Generated_Source\PSoC4/RTC.h **** *
 487:Generated_Source\PSoC4/RTC.h **** * \brief
 488:Generated_Source\PSoC4/RTC.h **** *  Returns the seconds value from the time value that is passed as a/the parameter.
 489:Generated_Source\PSoC4/RTC.h **** *
 490:Generated_Source\PSoC4/RTC.h **** * \param
 491:Generated_Source\PSoC4/RTC.h **** *  time The time value.
 492:Generated_Source\PSoC4/RTC.h **** *
 493:Generated_Source\PSoC4/RTC.h **** * \return
 494:Generated_Source\PSoC4/RTC.h **** *  The seconds value.
 495:Generated_Source\PSoC4/RTC.h **** *
 496:Generated_Source\PSoC4/RTC.h **** *******************************************************************************/
 497:Generated_Source\PSoC4/RTC.h **** static CY_INLINE uint32 RTC_GetSecond(uint32 inputTime)
 498:Generated_Source\PSoC4/RTC.h **** {
 499:Generated_Source\PSoC4/RTC.h ****     uint32 retVal;
 500:Generated_Source\PSoC4/RTC.h **** 
 501:Generated_Source\PSoC4/RTC.h ****     retVal  = ((inputTime & RTC_10_SECONDS_MASK) >> RTC_10_SECONDS_OFFSET) * 10u;
 502:Generated_Source\PSoC4/RTC.h ****     retVal += (inputTime & RTC_SECONDS_MASK) >> RTC_SECONDS_OFFSET;
 503:Generated_Source\PSoC4/RTC.h **** 
 504:Generated_Source\PSoC4/RTC.h ****     return (retVal);
 505:Generated_Source\PSoC4/RTC.h **** }
 506:Generated_Source\PSoC4/RTC.h **** 
 507:Generated_Source\PSoC4/RTC.h **** 
ARM GAS  C:\Users\Petro\AppData\Local\Temp\ccAfRAcN.s 			page 38


 508:Generated_Source\PSoC4/RTC.h **** /*******************************************************************************
 509:Generated_Source\PSoC4/RTC.h **** * Function Name: RTC_GetMinutes
 510:Generated_Source\PSoC4/RTC.h **** ****************************************************************************//**
 511:Generated_Source\PSoC4/RTC.h **** *
 512:Generated_Source\PSoC4/RTC.h **** * \brief
 513:Generated_Source\PSoC4/RTC.h **** *  Returns the minutes value from the time value that is passed as a/the 
 514:Generated_Source\PSoC4/RTC.h **** * parameter.
 515:Generated_Source\PSoC4/RTC.h **** *
 516:Generated_Source\PSoC4/RTC.h **** * \param
 517:Generated_Source\PSoC4/RTC.h **** *  time The time value.
 518:Generated_Source\PSoC4/RTC.h **** *
 519:Generated_Source\PSoC4/RTC.h **** * \return
 520:Generated_Source\PSoC4/RTC.h **** *  The minutes value.
 521:Generated_Source\PSoC4/RTC.h **** *
 522:Generated_Source\PSoC4/RTC.h **** *******************************************************************************/
 523:Generated_Source\PSoC4/RTC.h **** static CY_INLINE uint32 RTC_GetMinutes(uint32 inputTime)
 524:Generated_Source\PSoC4/RTC.h **** {
 525:Generated_Source\PSoC4/RTC.h ****     uint32 retVal;
 526:Generated_Source\PSoC4/RTC.h **** 
 527:Generated_Source\PSoC4/RTC.h ****     retVal  = ((inputTime & RTC_10_MINUTES_MASK) >> RTC_10_MINUTES_OFFSET) * 10u;
 528:Generated_Source\PSoC4/RTC.h ****     retVal += (inputTime & RTC_MINUTES_MASK) >> RTC_MINUTES_OFFSET;
 529:Generated_Source\PSoC4/RTC.h **** 
 530:Generated_Source\PSoC4/RTC.h ****     return (retVal);
 531:Generated_Source\PSoC4/RTC.h **** }
 532:Generated_Source\PSoC4/RTC.h **** 
 533:Generated_Source\PSoC4/RTC.h **** 
 534:Generated_Source\PSoC4/RTC.h **** /*******************************************************************************
 535:Generated_Source\PSoC4/RTC.h **** * Function Name: RTC_GetHours
 536:Generated_Source\PSoC4/RTC.h **** ****************************************************************************//**
 537:Generated_Source\PSoC4/RTC.h **** *
 538:Generated_Source\PSoC4/RTC.h **** * \brief
 539:Generated_Source\PSoC4/RTC.h **** *  Returns the hours value from the time value that is passed as a/the parameter.
 540:Generated_Source\PSoC4/RTC.h **** *
 541:Generated_Source\PSoC4/RTC.h **** * \param
 542:Generated_Source\PSoC4/RTC.h **** *  time The time value.
 543:Generated_Source\PSoC4/RTC.h **** *
 544:Generated_Source\PSoC4/RTC.h **** * \return
 545:Generated_Source\PSoC4/RTC.h **** *  The hours value.
 546:Generated_Source\PSoC4/RTC.h **** *
 547:Generated_Source\PSoC4/RTC.h **** *******************************************************************************/
 548:Generated_Source\PSoC4/RTC.h **** static CY_INLINE uint32 RTC_GetHours(uint32 inputTime)
 549:Generated_Source\PSoC4/RTC.h **** {
 550:Generated_Source\PSoC4/RTC.h ****     uint32 retVal;
 551:Generated_Source\PSoC4/RTC.h **** 
 552:Generated_Source\PSoC4/RTC.h ****     retVal  = ((inputTime & RTC_10_HOURS_MASK) >> RTC_10_HOURS_OFFSET) * 10u;
 553:Generated_Source\PSoC4/RTC.h ****     retVal += (inputTime & RTC_HOURS_MASK) >> RTC_HOURS_OFFSET;
 554:Generated_Source\PSoC4/RTC.h **** 
 555:Generated_Source\PSoC4/RTC.h ****     return (retVal);
 556:Generated_Source\PSoC4/RTC.h **** }
 557:Generated_Source\PSoC4/RTC.h **** 
 558:Generated_Source\PSoC4/RTC.h **** 
 559:Generated_Source\PSoC4/RTC.h **** /*******************************************************************************
 560:Generated_Source\PSoC4/RTC.h **** * Function Name: RTC_GetAmPm
 561:Generated_Source\PSoC4/RTC.h **** ****************************************************************************//**
 562:Generated_Source\PSoC4/RTC.h **** *
 563:Generated_Source\PSoC4/RTC.h **** * \brief
 564:Generated_Source\PSoC4/RTC.h **** *  Returns the AM/PM status from the time value that is passed as parameter.
ARM GAS  C:\Users\Petro\AppData\Local\Temp\ccAfRAcN.s 			page 39


 565:Generated_Source\PSoC4/RTC.h **** *
 566:Generated_Source\PSoC4/RTC.h **** * \param
 567:Generated_Source\PSoC4/RTC.h **** *  time The time value.
 568:Generated_Source\PSoC4/RTC.h **** *
 569:Generated_Source\PSoC4/RTC.h **** * \return
 570:Generated_Source\PSoC4/RTC.h **** *  RTC_AM - AM.
 571:Generated_Source\PSoC4/RTC.h **** * \return
 572:Generated_Source\PSoC4/RTC.h **** *  RTC_PM - PM.
 573:Generated_Source\PSoC4/RTC.h **** *
 574:Generated_Source\PSoC4/RTC.h **** *******************************************************************************/
 575:Generated_Source\PSoC4/RTC.h **** static CY_INLINE uint32 RTC_GetAmPm(uint32 inputTime)
 576:Generated_Source\PSoC4/RTC.h **** {
 577:Generated_Source\PSoC4/RTC.h ****     return (RTC_IsBitSet(inputTime, RTC_PERIOD_OF_DAY_MASK));
 578:Generated_Source\PSoC4/RTC.h **** }
 579:Generated_Source\PSoC4/RTC.h **** 
 580:Generated_Source\PSoC4/RTC.h **** 
 581:Generated_Source\PSoC4/RTC.h **** /*******************************************************************************
 582:Generated_Source\PSoC4/RTC.h **** * Function Name: RTC_GetDay
 583:Generated_Source\PSoC4/RTC.h **** ****************************************************************************//**
 584:Generated_Source\PSoC4/RTC.h **** *
 585:Generated_Source\PSoC4/RTC.h **** * \brief
 586:Generated_Source\PSoC4/RTC.h **** *  Returns the day value from the date value that is passed as parameter.
 587:Generated_Source\PSoC4/RTC.h **** *
 588:Generated_Source\PSoC4/RTC.h **** * \param
 589:Generated_Source\PSoC4/RTC.h **** *  date The date value.
 590:Generated_Source\PSoC4/RTC.h **** *
 591:Generated_Source\PSoC4/RTC.h **** * \return
 592:Generated_Source\PSoC4/RTC.h **** *  The day value.
 593:Generated_Source\PSoC4/RTC.h **** *
 594:Generated_Source\PSoC4/RTC.h **** *******************************************************************************/
 595:Generated_Source\PSoC4/RTC.h **** static CY_INLINE uint32 RTC_GetDay(uint32 date)
 596:Generated_Source\PSoC4/RTC.h **** {
 597:Generated_Source\PSoC4/RTC.h ****     uint32 retVal;
 598:Generated_Source\PSoC4/RTC.h **** 
 599:Generated_Source\PSoC4/RTC.h ****     retVal  = ((date & RTC_10_DAY_MASK) >> RTC_10_DAY_OFFSET) * 10u;
 600:Generated_Source\PSoC4/RTC.h ****     retVal += (date & RTC_DAY_MASK) >> RTC_DAY_OFFSET;
 601:Generated_Source\PSoC4/RTC.h **** 
 602:Generated_Source\PSoC4/RTC.h ****     return (retVal);
 603:Generated_Source\PSoC4/RTC.h **** }
 604:Generated_Source\PSoC4/RTC.h **** 
 605:Generated_Source\PSoC4/RTC.h **** 
 606:Generated_Source\PSoC4/RTC.h **** /*******************************************************************************
 607:Generated_Source\PSoC4/RTC.h **** * Function Name: RTC_GetMonth
 608:Generated_Source\PSoC4/RTC.h **** ****************************************************************************//**
 609:Generated_Source\PSoC4/RTC.h **** *
 610:Generated_Source\PSoC4/RTC.h **** * \brief
 611:Generated_Source\PSoC4/RTC.h **** *  Returns the month value from the date value that is passed as parameter.
 612:Generated_Source\PSoC4/RTC.h **** *
 613:Generated_Source\PSoC4/RTC.h **** * \param
 614:Generated_Source\PSoC4/RTC.h **** *  date The date value.
 615:Generated_Source\PSoC4/RTC.h **** *
 616:Generated_Source\PSoC4/RTC.h **** * \return
 617:Generated_Source\PSoC4/RTC.h **** *  The month value.
 618:Generated_Source\PSoC4/RTC.h **** *
 619:Generated_Source\PSoC4/RTC.h **** *******************************************************************************/
 620:Generated_Source\PSoC4/RTC.h **** static CY_INLINE uint32 RTC_GetMonth(uint32 date)
 621:Generated_Source\PSoC4/RTC.h **** {
ARM GAS  C:\Users\Petro\AppData\Local\Temp\ccAfRAcN.s 			page 40


 622:Generated_Source\PSoC4/RTC.h ****     uint32 retVal;
 623:Generated_Source\PSoC4/RTC.h **** 
 624:Generated_Source\PSoC4/RTC.h ****     retVal  = ((date & RTC_10_MONTH_MASK) >> RTC_10_MONTH_OFFSET) * 10u;
 625:Generated_Source\PSoC4/RTC.h ****     retVal += (date & RTC_MONTH_MASK) >> RTC_MONTH_OFFSET;
 626:Generated_Source\PSoC4/RTC.h **** 
 627:Generated_Source\PSoC4/RTC.h ****     return (retVal);
 628:Generated_Source\PSoC4/RTC.h **** }
 629:Generated_Source\PSoC4/RTC.h **** 
 630:Generated_Source\PSoC4/RTC.h **** 
 631:Generated_Source\PSoC4/RTC.h **** /*******************************************************************************
 632:Generated_Source\PSoC4/RTC.h **** * Function Name: RTC_GetYear
 633:Generated_Source\PSoC4/RTC.h **** ****************************************************************************//**
 634:Generated_Source\PSoC4/RTC.h **** *
 635:Generated_Source\PSoC4/RTC.h **** * \brief
 636:Generated_Source\PSoC4/RTC.h **** *  Returns the year value from the date value that is passed as parameter.
 637:Generated_Source\PSoC4/RTC.h **** *
 638:Generated_Source\PSoC4/RTC.h **** * \param
 639:Generated_Source\PSoC4/RTC.h **** *  date The date value.
 640:Generated_Source\PSoC4/RTC.h **** *
 641:Generated_Source\PSoC4/RTC.h **** * \return
 642:Generated_Source\PSoC4/RTC.h **** *  The year value.
 643:Generated_Source\PSoC4/RTC.h **** *
 644:Generated_Source\PSoC4/RTC.h **** *******************************************************************************/
 645:Generated_Source\PSoC4/RTC.h **** static CY_INLINE uint32 RTC_GetYear(uint32 date)
 646:Generated_Source\PSoC4/RTC.h **** {
 647:Generated_Source\PSoC4/RTC.h ****     uint32 retVal;
 648:Generated_Source\PSoC4/RTC.h **** 
 649:Generated_Source\PSoC4/RTC.h ****     retVal  = ((date & RTC_1000_YEAR_MASK) >> RTC_1000_YEAR_OFFSET) * 1000u;
 332              		.loc 2 649 0
 333 000e 8504     		lsl	r5, r0, #18
 334 0010 AD0F     		lsr	r5, r5, #30
 335 0012 FA22     		mov	r2, #250
 336 0014 9200     		lsl	r2, r2, #2
 337 0016 6A43     		mul	r2, r5
 338 0018 111C     		mov	r1, r2
 339              	.LVL25:
 650:Generated_Source\PSoC4/RTC.h ****     retVal += ((date & RTC_100_YEAR_MASK) >> RTC_100_YEAR_OFFSET) * 100u;
 340              		.loc 2 650 0
 341 001a 0305     		lsl	r3, r0, #20
 342 001c 1B0F     		lsr	r3, r3, #28
 343 001e 6422     		mov	r2, #100
 344 0020 5343     		mul	r3, r2
 345 0022 CD18     		add	r5, r1, r3
 346              	.LVL26:
 651:Generated_Source\PSoC4/RTC.h ****     retVal += ((date & RTC_10_YEAR_MASK) >> RTC_10_YEAR_OFFSET) * 10u;
 347              		.loc 2 651 0
 348 0024 0306     		lsl	r3, r0, #24
 349 0026 1B0F     		lsr	r3, r3, #28
 350 0028 9A00     		lsl	r2, r3, #2
 351 002a D318     		add	r3, r2, r3
 352 002c 5B00     		lsl	r3, r3, #1
 353 002e EB18     		add	r3, r5, r3
 354              	.LVL27:
 652:Generated_Source\PSoC4/RTC.h ****     retVal += (date & RTC_YEAR_MASK) >> RTC_YEAR_OFFSET;
 355              		.loc 2 652 0
 356 0030 0F25     		mov	r5, #15
 357 0032 0540     		and	r5, r0
ARM GAS  C:\Users\Petro\AppData\Local\Temp\ccAfRAcN.s 			page 41


 358 0034 5D19     		add	r5, r3, r5
 359              	.LVL28:
 360              	.LBE47:
 361              	.LBE46:
1268:Generated_Source\PSoC4/RTC.c ****     uint32 i;
1269:Generated_Source\PSoC4/RTC.c ****     uint32 tmpYear;
1270:Generated_Source\PSoC4/RTC.c ****     uint32 tmpMonth;
1271:Generated_Source\PSoC4/RTC.c ****     uint32 tmpVal;
1272:Generated_Source\PSoC4/RTC.c ****     uint64 unixTime;
1273:Generated_Source\PSoC4/RTC.c **** 
1274:Generated_Source\PSoC4/RTC.c ****     unixTime = 0u;
 362              		.loc 1 1274 0
 363 0036 0026     		mov	r6, #0
 364 0038 0027     		mov	r7, #0
1275:Generated_Source\PSoC4/RTC.c ****     tmpYear = RTC_GetYear(inputDate);
1276:Generated_Source\PSoC4/RTC.c **** 
1277:Generated_Source\PSoC4/RTC.c ****     /* Calculate seconds from epoch start up to (but not including) current year. */
1278:Generated_Source\PSoC4/RTC.c ****     for(i = RTC_YEAR_0; i < tmpYear; i++)
 365              		.loc 1 1278 0
 366 003a 574C     		ldr	r4, .L41
 367 003c 1FE0     		b	.L24
 368              	.LVL29:
 369              	.L29:
 370              	.LBB48:
 371              	.LBB49:
 470:Generated_Source\PSoC4/RTC.h ****     {
 372              		.loc 2 470 0
 373 003e A307     		lsl	r3, r4, #30
 374 0040 05D1     		bne	.L25
 375 0042 201C     		mov	r0, r4
 376 0044 6421     		mov	r1, #100
 377 0046 FFF7FEFF 		bl	__aeabi_uidivmod
 378              	.LVL30:
 379 004a 0029     		cmp	r1, #0
 380 004c 08D1     		bne	.L36
 381              	.L25:
 382 004e 201C     		mov	r0, r4
 383 0050 C821     		mov	r1, #200
 384 0052 4900     		lsl	r1, r1, #1
 385 0054 FFF7FEFF 		bl	__aeabi_uidivmod
 386              	.LVL31:
 387 0058 0029     		cmp	r1, #0
 388 005a 03D1     		bne	.L37
 472:Generated_Source\PSoC4/RTC.h ****     }
 389              		.loc 2 472 0
 390 005c 0123     		mov	r3, #1
 391 005e 02E0     		b	.L26
 392              	.L36:
 393 0060 0123     		mov	r3, #1
 394 0062 00E0     		b	.L26
 395              	.L37:
 476:Generated_Source\PSoC4/RTC.h ****     }
 396              		.loc 2 476 0
 397 0064 0023     		mov	r3, #0
 398              	.L26:
 399              	.LVL32:
 400              	.LBE49:
ARM GAS  C:\Users\Petro\AppData\Local\Temp\ccAfRAcN.s 			page 42


 401              	.LBE48:
1279:Generated_Source\PSoC4/RTC.c ****     {
1280:Generated_Source\PSoC4/RTC.c ****         if(0u != RTC_LeapYear(i))
 402              		.loc 1 1280 0
 403 0066 002B     		cmp	r3, #0
 404 0068 04D0     		beq	.L27
1281:Generated_Source\PSoC4/RTC.c ****         {
1282:Generated_Source\PSoC4/RTC.c ****             unixTime += RTC_SECONDS_PER_LEAP_YEAR;
 405              		.loc 1 1282 0
 406 006a 4C4A     		ldr	r2, .L41+4
 407 006c 0023     		mov	r3, #0
 408              	.LVL33:
 409 006e B618     		add	r6, r6, r2
 410 0070 5F41     		adc	r7, r7, r3
 411              	.LVL34:
 412 0072 03E0     		b	.L28
 413              	.LVL35:
 414              	.L27:
1283:Generated_Source\PSoC4/RTC.c ****         }
1284:Generated_Source\PSoC4/RTC.c ****         else
1285:Generated_Source\PSoC4/RTC.c ****         {
1286:Generated_Source\PSoC4/RTC.c ****             unixTime += RTC_SECONDS_PER_NONLEAP_YEAR;
 415              		.loc 1 1286 0
 416 0074 4A4A     		ldr	r2, .L41+8
 417 0076 0023     		mov	r3, #0
 418              	.LVL36:
 419 0078 B618     		add	r6, r6, r2
 420 007a 5F41     		adc	r7, r7, r3
 421              	.LVL37:
 422              	.L28:
1278:Generated_Source\PSoC4/RTC.c ****     {
 423              		.loc 1 1278 0 discriminator 2
 424 007c 0134     		add	r4, r4, #1
 425              	.LVL38:
 426              	.L24:
1278:Generated_Source\PSoC4/RTC.c ****     {
 427              		.loc 1 1278 0 is_stmt 0 discriminator 1
 428 007e AC42     		cmp	r4, r5
 429 0080 DDD3     		bcc	.L29
 430              	.LVL39:
 431              	.LBB50:
 432              	.LBB51:
 624:Generated_Source\PSoC4/RTC.h ****     retVal += (date & RTC_MONTH_MASK) >> RTC_MONTH_OFFSET;
 433              		.loc 2 624 0 is_stmt 1
 434 0082 4346     		mov	r3, r8
 435 0084 DB00     		lsl	r3, r3, #3
 436 0086 DB0F     		lsr	r3, r3, #31
 437 0088 9A00     		lsl	r2, r3, #2
 438 008a D318     		add	r3, r2, r3
 439 008c 5B00     		lsl	r3, r3, #1
 440              	.LVL40:
 625:Generated_Source\PSoC4/RTC.h **** 
 441              		.loc 2 625 0
 442 008e 4246     		mov	r2, r8
 443 0090 1201     		lsl	r2, r2, #4
 444 0092 120F     		lsr	r2, r2, #28
 445 0094 9B18     		add	r3, r3, r2
ARM GAS  C:\Users\Petro\AppData\Local\Temp\ccAfRAcN.s 			page 43


 446              	.LVL41:
 447              	.LBE51:
 448              	.LBE50:
1287:Generated_Source\PSoC4/RTC.c ****         }
1288:Generated_Source\PSoC4/RTC.c ****     }
1289:Generated_Source\PSoC4/RTC.c **** 
1290:Generated_Source\PSoC4/RTC.c ****     /* Calculates how many seconds had elapsed in this year prior to the current month. */
1291:Generated_Source\PSoC4/RTC.c ****     tmpMonth = RTC_GetMonth(inputDate);
1292:Generated_Source\PSoC4/RTC.c ****     tmpVal = RTC_daysBeforeMonthTbl[tmpMonth - 1u];
 449              		.loc 1 1292 0
 450 0096 5A1E     		sub	r2, r3, #1
 451 0098 5200     		lsl	r2, r2, #1
 452 009a 4249     		ldr	r1, .L41+12
 453 009c 525A     		ldrh	r2, [r2, r1]
 454 009e 9246     		mov	r10, r2
 455              	.LVL42:
1293:Generated_Source\PSoC4/RTC.c **** 
1294:Generated_Source\PSoC4/RTC.c ****     if((tmpMonth > 2u) && (0u != RTC_LeapYear(tmpYear)))
 456              		.loc 1 1294 0
 457 00a0 022B     		cmp	r3, #2
 458 00a2 18D9     		bls	.L30
 459              	.LVL43:
 460              	.LBB52:
 461              	.LBB53:
 470:Generated_Source\PSoC4/RTC.h ****     {
 462              		.loc 2 470 0
 463 00a4 AB07     		lsl	r3, r5, #30
 464 00a6 05D1     		bne	.L31
 465              	.LVL44:
 466 00a8 281C     		mov	r0, r5
 467 00aa 6421     		mov	r1, #100
 468 00ac FFF7FEFF 		bl	__aeabi_uidivmod
 469              	.LVL45:
 470 00b0 0029     		cmp	r1, #0
 471 00b2 08D1     		bne	.L38
 472              	.L31:
 473 00b4 281C     		mov	r0, r5
 474 00b6 C821     		mov	r1, #200
 475 00b8 4900     		lsl	r1, r1, #1
 476 00ba FFF7FEFF 		bl	__aeabi_uidivmod
 477              	.LVL46:
 478 00be 0029     		cmp	r1, #0
 479 00c0 03D1     		bne	.L39
 472:Generated_Source\PSoC4/RTC.h ****     }
 480              		.loc 2 472 0
 481 00c2 0123     		mov	r3, #1
 482 00c4 02E0     		b	.L32
 483              	.L38:
 484 00c6 0123     		mov	r3, #1
 485 00c8 00E0     		b	.L32
 486              	.L39:
 476:Generated_Source\PSoC4/RTC.h ****     }
 487              		.loc 2 476 0
 488 00ca 0023     		mov	r3, #0
 489              	.L32:
 490              	.LVL47:
 491              	.LBE53:
ARM GAS  C:\Users\Petro\AppData\Local\Temp\ccAfRAcN.s 			page 44


 492              	.LBE52:
 493              		.loc 1 1294 0
 494 00cc 002B     		cmp	r3, #0
 495 00ce 02D0     		beq	.L30
1295:Generated_Source\PSoC4/RTC.c ****     {
1296:Generated_Source\PSoC4/RTC.c ****         tmpVal++;
 496              		.loc 1 1296 0
 497 00d0 0123     		mov	r3, #1
 498              	.LVL48:
 499 00d2 9C46     		mov	ip, r3
 500 00d4 E244     		add	r10, r10, ip
 501              	.LVL49:
 502              	.L30:
1297:Generated_Source\PSoC4/RTC.c ****     }
1298:Generated_Source\PSoC4/RTC.c **** 
1299:Generated_Source\PSoC4/RTC.c ****     /* Calculates how many seconds are in current month days prior to today. */
1300:Generated_Source\PSoC4/RTC.c ****     unixTime += tmpVal * RTC_SECONDS_PER_DAY;
 503              		.loc 1 1300 0
 504 00d6 344C     		ldr	r4, .L41+16
 505              	.LVL50:
 506 00d8 5146     		mov	r1, r10
 507 00da 6143     		mul	r1, r4
 508 00dc 0A1C     		mov	r2, r1
 509 00de 0023     		mov	r3, #0
 510 00e0 B618     		add	r6, r6, r2
 511 00e2 5F41     		adc	r7, r7, r3
 512              	.LVL51:
 513              	.LBB54:
 514              	.LBB55:
 599:Generated_Source\PSoC4/RTC.h ****     retVal += (date & RTC_DAY_MASK) >> RTC_DAY_OFFSET;
 515              		.loc 2 599 0
 516 00e4 C020     		mov	r0, #192
 517 00e6 8003     		lsl	r0, r0, #14
 518 00e8 4246     		mov	r2, r8
 519 00ea 0240     		and	r2, r0
 520 00ec 120D     		lsr	r2, r2, #20
 521 00ee 9300     		lsl	r3, r2, #2
 522 00f0 9B18     		add	r3, r3, r2
 523 00f2 5B00     		lsl	r3, r3, #1
 524              	.LVL52:
 600:Generated_Source\PSoC4/RTC.h **** 
 525              		.loc 2 600 0
 526 00f4 F021     		mov	r1, #240
 527 00f6 0903     		lsl	r1, r1, #12
 528 00f8 4246     		mov	r2, r8
 529 00fa 0A40     		and	r2, r1
 530 00fc 120C     		lsr	r2, r2, #16
 531 00fe 9B18     		add	r3, r3, r2
 532              	.LVL53:
 533              	.LBE55:
 534              	.LBE54:
1301:Generated_Source\PSoC4/RTC.c ****     unixTime += (RTC_GetDay(inputDate) - 1u) * RTC_SECONDS_PER_DAY;
 535              		.loc 1 1301 0
 536 0100 5C43     		mul	r4, r3
 537 0102 2A4D     		ldr	r5, .L41+20
 538              	.LVL54:
 539 0104 6219     		add	r2, r4, r5
ARM GAS  C:\Users\Petro\AppData\Local\Temp\ccAfRAcN.s 			page 45


 540 0106 0023     		mov	r3, #0
 541              	.LVL55:
 542 0108 B618     		add	r6, r6, r2
 543 010a 5F41     		adc	r7, r7, r3
 544              	.LVL56:
 545              	.LBB56:
 546              	.LBB57:
 552:Generated_Source\PSoC4/RTC.h ****     retVal += (inputTime & RTC_HOURS_MASK) >> RTC_HOURS_OFFSET;
 547              		.loc 2 552 0
 548 010c 4B46     		mov	r3, r9
 549 010e 0340     		and	r3, r0
 550 0110 1B0D     		lsr	r3, r3, #20
 551 0112 9A00     		lsl	r2, r3, #2
 552 0114 D318     		add	r3, r2, r3
 553 0116 5B00     		lsl	r3, r3, #1
 554              	.LVL57:
 553:Generated_Source\PSoC4/RTC.h **** 
 555              		.loc 2 553 0
 556 0118 4A46     		mov	r2, r9
 557 011a 1140     		and	r1, r2
 558              	.LVL58:
 559 011c 090C     		lsr	r1, r1, #16
 560 011e 5918     		add	r1, r3, r1
 561              	.LVL59:
 562              	.LBE57:
 563              	.LBE56:
 564              	.LBB58:
 565              	.LBB59:
 653:Generated_Source\PSoC4/RTC.h **** 
 654:Generated_Source\PSoC4/RTC.h ****     return (retVal);
 655:Generated_Source\PSoC4/RTC.h **** }
 656:Generated_Source\PSoC4/RTC.h **** 
 657:Generated_Source\PSoC4/RTC.h **** 
 658:Generated_Source\PSoC4/RTC.h **** /*******************************************************************************
 659:Generated_Source\PSoC4/RTC.h **** * Function Name: RTC_SetSecond
 660:Generated_Source\PSoC4/RTC.h **** ****************************************************************************//**
 661:Generated_Source\PSoC4/RTC.h **** *\internal
 662:Generated_Source\PSoC4/RTC.h **** * \brief
 663:Generated_Source\PSoC4/RTC.h **** *  Updates the time with the new second value.
 664:Generated_Source\PSoC4/RTC.h **** *
 665:Generated_Source\PSoC4/RTC.h **** * \param
 666:Generated_Source\PSoC4/RTC.h **** * time The current date.
 667:Generated_Source\PSoC4/RTC.h **** * \param
 668:Generated_Source\PSoC4/RTC.h **** * second The seconds value to be set to the time variable.
 669:Generated_Source\PSoC4/RTC.h **** *
 670:Generated_Source\PSoC4/RTC.h **** * \return
 671:Generated_Source\PSoC4/RTC.h **** *  The updated time variable.
 672:Generated_Source\PSoC4/RTC.h **** *\endinternal
 673:Generated_Source\PSoC4/RTC.h **** *******************************************************************************/
 674:Generated_Source\PSoC4/RTC.h **** static CY_INLINE uint32 RTC_SetSecond(uint32 inputTime, uint32 inputSecond)
 675:Generated_Source\PSoC4/RTC.h **** {
 676:Generated_Source\PSoC4/RTC.h ****     inputTime &= ~(RTC_SECONDS_FULL_MASK);
 677:Generated_Source\PSoC4/RTC.h **** 
 678:Generated_Source\PSoC4/RTC.h ****     inputTime |= (inputSecond / 10u) << RTC_10_SECONDS_OFFSET;
 679:Generated_Source\PSoC4/RTC.h ****     inputTime |= (inputSecond % 10u) << RTC_SECONDS_OFFSET;
 680:Generated_Source\PSoC4/RTC.h **** 
 681:Generated_Source\PSoC4/RTC.h ****     return(inputTime);
ARM GAS  C:\Users\Petro\AppData\Local\Temp\ccAfRAcN.s 			page 46


 682:Generated_Source\PSoC4/RTC.h **** }
 683:Generated_Source\PSoC4/RTC.h **** 
 684:Generated_Source\PSoC4/RTC.h **** 
 685:Generated_Source\PSoC4/RTC.h **** /*******************************************************************************
 686:Generated_Source\PSoC4/RTC.h **** * Function Name: RTC_SetMinutes
 687:Generated_Source\PSoC4/RTC.h **** ****************************************************************************//**
 688:Generated_Source\PSoC4/RTC.h **** *\internal
 689:Generated_Source\PSoC4/RTC.h **** * \brief
 690:Generated_Source\PSoC4/RTC.h **** *  Updates the time with the new minute value.
 691:Generated_Source\PSoC4/RTC.h **** *
 692:Generated_Source\PSoC4/RTC.h **** * \param
 693:Generated_Source\PSoC4/RTC.h **** *  time The current date.
 694:Generated_Source\PSoC4/RTC.h **** * \param
 695:Generated_Source\PSoC4/RTC.h **** *  minutes The minutes value to be set to the time variable.
 696:Generated_Source\PSoC4/RTC.h **** *
 697:Generated_Source\PSoC4/RTC.h **** * \return
 698:Generated_Source\PSoC4/RTC.h **** *  The updated time variable.
 699:Generated_Source\PSoC4/RTC.h **** * \endinternal
 700:Generated_Source\PSoC4/RTC.h **** *******************************************************************************/
 701:Generated_Source\PSoC4/RTC.h **** static CY_INLINE uint32 RTC_SetMinutes(uint32 inputTime, uint32 inputMinute)
 702:Generated_Source\PSoC4/RTC.h **** {
 703:Generated_Source\PSoC4/RTC.h ****     inputTime &= ~(RTC_MINUTES_FULL_MASK);
 704:Generated_Source\PSoC4/RTC.h **** 
 705:Generated_Source\PSoC4/RTC.h ****     inputTime |= (inputMinute / 10u) << RTC_10_MINUTES_OFFSET;
 706:Generated_Source\PSoC4/RTC.h ****     inputTime |= (inputMinute % 10u) << RTC_MINUTES_OFFSET;
 707:Generated_Source\PSoC4/RTC.h **** 
 708:Generated_Source\PSoC4/RTC.h ****     return(inputTime);
 709:Generated_Source\PSoC4/RTC.h **** }
 710:Generated_Source\PSoC4/RTC.h **** 
 711:Generated_Source\PSoC4/RTC.h **** 
 712:Generated_Source\PSoC4/RTC.h **** /*******************************************************************************
 713:Generated_Source\PSoC4/RTC.h **** * Function Name: RTC_SetHours
 714:Generated_Source\PSoC4/RTC.h **** ****************************************************************************//**
 715:Generated_Source\PSoC4/RTC.h **** *\internal
 716:Generated_Source\PSoC4/RTC.h **** * \brief
 717:Generated_Source\PSoC4/RTC.h **** *  Updates the time with the new hour value.
 718:Generated_Source\PSoC4/RTC.h **** *
 719:Generated_Source\PSoC4/RTC.h **** * \param
 720:Generated_Source\PSoC4/RTC.h **** * time The current date.
 721:Generated_Source\PSoC4/RTC.h **** * \param
 722:Generated_Source\PSoC4/RTC.h **** * hours The hours value to be set to the time variable.
 723:Generated_Source\PSoC4/RTC.h **** *
 724:Generated_Source\PSoC4/RTC.h **** * \return
 725:Generated_Source\PSoC4/RTC.h **** *  The updated time variable.
 726:Generated_Source\PSoC4/RTC.h **** *\endinternal
 727:Generated_Source\PSoC4/RTC.h **** *******************************************************************************/
 728:Generated_Source\PSoC4/RTC.h **** static CY_INLINE uint32 RTC_SetHours(uint32 inputTime, uint32 inputHours)
 729:Generated_Source\PSoC4/RTC.h **** {
 730:Generated_Source\PSoC4/RTC.h ****     inputTime &= ~(RTC_HOURS_FULL_MASK);
 731:Generated_Source\PSoC4/RTC.h **** 
 732:Generated_Source\PSoC4/RTC.h ****     inputTime |= (inputHours / 10u) << RTC_10_HOURS_OFFSET;
 733:Generated_Source\PSoC4/RTC.h ****     inputTime |= (inputHours % 10u) << RTC_HOURS_OFFSET;
 734:Generated_Source\PSoC4/RTC.h **** 
 735:Generated_Source\PSoC4/RTC.h ****     return(inputTime);
 736:Generated_Source\PSoC4/RTC.h **** }
 737:Generated_Source\PSoC4/RTC.h **** 
 738:Generated_Source\PSoC4/RTC.h **** 
ARM GAS  C:\Users\Petro\AppData\Local\Temp\ccAfRAcN.s 			page 47


 739:Generated_Source\PSoC4/RTC.h **** /*******************************************************************************
 740:Generated_Source\PSoC4/RTC.h **** * Function Name: RTC_SetAmPm
 741:Generated_Source\PSoC4/RTC.h **** ****************************************************************************//**
 742:Generated_Source\PSoC4/RTC.h **** *\internal
 743:Generated_Source\PSoC4/RTC.h **** * \brief
 744:Generated_Source\PSoC4/RTC.h **** *  Updates the time variable with the AmPm status.
 745:Generated_Source\PSoC4/RTC.h **** *
 746:Generated_Source\PSoC4/RTC.h **** * \param
 747:Generated_Source\PSoC4/RTC.h **** * time The current date.
 748:Generated_Source\PSoC4/RTC.h **** * \param
 749:Generated_Source\PSoC4/RTC.h **** * periodOfDay The AmPm status to be set to the time variable.
 750:Generated_Source\PSoC4/RTC.h **** *
 751:Generated_Source\PSoC4/RTC.h **** * \return
 752:Generated_Source\PSoC4/RTC.h **** *  The updated time variable.
 753:Generated_Source\PSoC4/RTC.h **** * \endinternal
 754:Generated_Source\PSoC4/RTC.h **** *******************************************************************************/
 755:Generated_Source\PSoC4/RTC.h **** static CY_INLINE uint32 RTC_SetAmPm(uint32 inputTime, uint32 periodOfDay)
 756:Generated_Source\PSoC4/RTC.h **** {
 757:Generated_Source\PSoC4/RTC.h ****     if(0u != periodOfDay)
 758:Generated_Source\PSoC4/RTC.h ****     {
 759:Generated_Source\PSoC4/RTC.h ****         inputTime &= ~(RTC_PERIOD_OF_DAY_MASK);
 760:Generated_Source\PSoC4/RTC.h ****     }
 761:Generated_Source\PSoC4/RTC.h ****     else
 762:Generated_Source\PSoC4/RTC.h ****     {
 763:Generated_Source\PSoC4/RTC.h ****         inputTime |= RTC_PERIOD_OF_DAY_MASK;
 764:Generated_Source\PSoC4/RTC.h ****     }
 765:Generated_Source\PSoC4/RTC.h **** 
 766:Generated_Source\PSoC4/RTC.h ****     return(inputTime);
 767:Generated_Source\PSoC4/RTC.h **** }
 768:Generated_Source\PSoC4/RTC.h **** 
 769:Generated_Source\PSoC4/RTC.h **** 
 770:Generated_Source\PSoC4/RTC.h **** /*******************************************************************************
 771:Generated_Source\PSoC4/RTC.h **** * Function Name: RTC_SetDay
 772:Generated_Source\PSoC4/RTC.h **** ****************************************************************************//**
 773:Generated_Source\PSoC4/RTC.h **** *\internal
 774:Generated_Source\PSoC4/RTC.h **** * \brief
 775:Generated_Source\PSoC4/RTC.h **** *  Updates the date variable with the new day value.
 776:Generated_Source\PSoC4/RTC.h **** *
 777:Generated_Source\PSoC4/RTC.h **** * \param
 778:Generated_Source\PSoC4/RTC.h **** * date The current date.
 779:Generated_Source\PSoC4/RTC.h **** * \param
 780:Generated_Source\PSoC4/RTC.h **** * day The month to be set to the date variable.
 781:Generated_Source\PSoC4/RTC.h **** *
 782:Generated_Source\PSoC4/RTC.h **** * \return
 783:Generated_Source\PSoC4/RTC.h **** *  The updated date variable.
 784:Generated_Source\PSoC4/RTC.h **** *\endinternal
 785:Generated_Source\PSoC4/RTC.h **** *******************************************************************************/
 786:Generated_Source\PSoC4/RTC.h **** static CY_INLINE uint32 RTC_SetDay(uint32 inputDate, uint32 inputDay)
 787:Generated_Source\PSoC4/RTC.h **** {
 788:Generated_Source\PSoC4/RTC.h ****     inputDate &= ~(RTC_DAY_FULL_MASK);
 789:Generated_Source\PSoC4/RTC.h **** 
 790:Generated_Source\PSoC4/RTC.h ****     inputDate |= (inputDay / 10u) << RTC_10_DAY_OFFSET;
 791:Generated_Source\PSoC4/RTC.h ****     inputDate |= (inputDay % 10u) << RTC_DAY_OFFSET;
 792:Generated_Source\PSoC4/RTC.h **** 
 793:Generated_Source\PSoC4/RTC.h ****     return(inputDate);
 794:Generated_Source\PSoC4/RTC.h **** }
 795:Generated_Source\PSoC4/RTC.h **** 
ARM GAS  C:\Users\Petro\AppData\Local\Temp\ccAfRAcN.s 			page 48


 796:Generated_Source\PSoC4/RTC.h **** 
 797:Generated_Source\PSoC4/RTC.h **** /*******************************************************************************
 798:Generated_Source\PSoC4/RTC.h **** * Function Name: RTC_SetMonth
 799:Generated_Source\PSoC4/RTC.h **** ****************************************************************************//**
 800:Generated_Source\PSoC4/RTC.h **** *\internal
 801:Generated_Source\PSoC4/RTC.h **** * \brief
 802:Generated_Source\PSoC4/RTC.h **** *  Updates the date variable with the new month value.
 803:Generated_Source\PSoC4/RTC.h **** *
 804:Generated_Source\PSoC4/RTC.h **** * \param
 805:Generated_Source\PSoC4/RTC.h **** * date The current date.
 806:Generated_Source\PSoC4/RTC.h **** * \param
 807:Generated_Source\PSoC4/RTC.h **** * month The month that to be set to the date variable.
 808:Generated_Source\PSoC4/RTC.h **** *
 809:Generated_Source\PSoC4/RTC.h **** * \return
 810:Generated_Source\PSoC4/RTC.h **** *  The updated date variable.
 811:Generated_Source\PSoC4/RTC.h **** *\endinternal
 812:Generated_Source\PSoC4/RTC.h **** *******************************************************************************/
 813:Generated_Source\PSoC4/RTC.h **** static CY_INLINE uint32 RTC_SetMonth(uint32 inputDate, uint32 inputMonth)
 814:Generated_Source\PSoC4/RTC.h **** {
 815:Generated_Source\PSoC4/RTC.h ****     inputDate &= ~(RTC_MONTH_FULL_MASK);
 816:Generated_Source\PSoC4/RTC.h **** 
 817:Generated_Source\PSoC4/RTC.h ****     inputDate |= (inputMonth / 10u) << RTC_10_MONTH_OFFSET;
 818:Generated_Source\PSoC4/RTC.h ****     inputDate |= (inputMonth % 10u) << RTC_MONTH_OFFSET;
 819:Generated_Source\PSoC4/RTC.h **** 
 820:Generated_Source\PSoC4/RTC.h ****     return(inputDate);
 821:Generated_Source\PSoC4/RTC.h **** }
 822:Generated_Source\PSoC4/RTC.h **** 
 823:Generated_Source\PSoC4/RTC.h **** 
 824:Generated_Source\PSoC4/RTC.h **** /*******************************************************************************
 825:Generated_Source\PSoC4/RTC.h **** * Function Name: RTC_SetYear
 826:Generated_Source\PSoC4/RTC.h **** ****************************************************************************//**
 827:Generated_Source\PSoC4/RTC.h **** *\internal
 828:Generated_Source\PSoC4/RTC.h **** * \brief
 829:Generated_Source\PSoC4/RTC.h **** *  Updates the date variable with the new year value.
 830:Generated_Source\PSoC4/RTC.h **** *
 831:Generated_Source\PSoC4/RTC.h **** * \param
 832:Generated_Source\PSoC4/RTC.h **** * date The current date.
 833:Generated_Source\PSoC4/RTC.h **** * \param
 834:Generated_Source\PSoC4/RTC.h **** * year The year to be set to the date variable.
 835:Generated_Source\PSoC4/RTC.h **** *
 836:Generated_Source\PSoC4/RTC.h **** * \return
 837:Generated_Source\PSoC4/RTC.h **** * The updated date variable.
 838:Generated_Source\PSoC4/RTC.h **** *\endinternal
 839:Generated_Source\PSoC4/RTC.h **** *******************************************************************************/
 840:Generated_Source\PSoC4/RTC.h **** static CY_INLINE uint32 RTC_SetYear(uint32 inputDate, uint32 inputYear)
 841:Generated_Source\PSoC4/RTC.h **** {
 842:Generated_Source\PSoC4/RTC.h ****     inputDate  &= ~(RTC_YEAR_FULL_MASK);
 843:Generated_Source\PSoC4/RTC.h **** 
 844:Generated_Source\PSoC4/RTC.h ****     inputDate |= (inputYear / 1000u) << RTC_1000_YEAR_OFFSET;
 845:Generated_Source\PSoC4/RTC.h ****     inputYear %= 1000u;
 846:Generated_Source\PSoC4/RTC.h **** 
 847:Generated_Source\PSoC4/RTC.h ****     inputDate |= (inputYear / 100u) << RTC_100_YEAR_OFFSET;
 848:Generated_Source\PSoC4/RTC.h ****     inputYear %= 100u;
 849:Generated_Source\PSoC4/RTC.h **** 
 850:Generated_Source\PSoC4/RTC.h ****     inputDate |= (inputYear / 10u) << RTC_10_YEAR_OFFSET;
 851:Generated_Source\PSoC4/RTC.h ****     inputDate |= (inputYear % 10u) << RTC_YEAR_OFFSET;
 852:Generated_Source\PSoC4/RTC.h **** 
ARM GAS  C:\Users\Petro\AppData\Local\Temp\ccAfRAcN.s 			page 49


 853:Generated_Source\PSoC4/RTC.h ****     return(inputDate);
 854:Generated_Source\PSoC4/RTC.h **** }
 855:Generated_Source\PSoC4/RTC.h **** 
 856:Generated_Source\PSoC4/RTC.h **** 
 857:Generated_Source\PSoC4/RTC.h **** /*******************************************************************************
 858:Generated_Source\PSoC4/RTC.h **** * Function Name: RTC_GetNextMinSec
 859:Generated_Source\PSoC4/RTC.h **** ****************************************************************************//**
 860:Generated_Source\PSoC4/RTC.h **** *\internal
 861:Generated_Source\PSoC4/RTC.h **** * \brief
 862:Generated_Source\PSoC4/RTC.h **** * This is an internal function that calculates the value of the next Second/Minute
 863:Generated_Source\PSoC4/RTC.h **** * that follows after the current Minute/Second.
 864:Generated_Source\PSoC4/RTC.h **** *
 865:Generated_Source\PSoC4/RTC.h **** * \param
 866:Generated_Source\PSoC4/RTC.h **** * curVal The current Second/Minute value.
 867:Generated_Source\PSoC4/RTC.h **** *
 868:Generated_Source\PSoC4/RTC.h **** * \return
 869:Generated_Source\PSoC4/RTC.h **** * Returns the Second/Minute which follows after the current Second/Minute.
 870:Generated_Source\PSoC4/RTC.h **** *\endinternal
 871:Generated_Source\PSoC4/RTC.h **** *******************************************************************************/
 872:Generated_Source\PSoC4/RTC.h **** static CY_INLINE uint32 RTC_GetNextMinSec(uint32 curVal)
 873:Generated_Source\PSoC4/RTC.h **** {
 874:Generated_Source\PSoC4/RTC.h ****     return((curVal < 59u) ? (curVal + 1u) : 0u);
 875:Generated_Source\PSoC4/RTC.h **** }
 876:Generated_Source\PSoC4/RTC.h **** 
 877:Generated_Source\PSoC4/RTC.h **** 
 878:Generated_Source\PSoC4/RTC.h **** /*******************************************************************************
 879:Generated_Source\PSoC4/RTC.h **** * Function Name: RTC_GetNextHour
 880:Generated_Source\PSoC4/RTC.h **** ****************************************************************************//**
 881:Generated_Source\PSoC4/RTC.h **** *\internal
 882:Generated_Source\PSoC4/RTC.h **** * \brief
 883:Generated_Source\PSoC4/RTC.h **** *  This is an internal function that calculates the value of the next Hour
 884:Generated_Source\PSoC4/RTC.h **** *  that follows after the current Hour.
 885:Generated_Source\PSoC4/RTC.h **** *
 886:Generated_Source\PSoC4/RTC.h **** * \param
 887:Generated_Source\PSoC4/RTC.h **** * curVal The current Hour value.
 888:Generated_Source\PSoC4/RTC.h **** *
 889:Generated_Source\PSoC4/RTC.h **** * \return
 890:Generated_Source\PSoC4/RTC.h **** *  Returns the Hour which follows after the current Hour.
 891:Generated_Source\PSoC4/RTC.h **** * \endinternal
 892:Generated_Source\PSoC4/RTC.h **** *******************************************************************************/
 893:Generated_Source\PSoC4/RTC.h **** static CY_INLINE uint32 RTC_GetNextHour(uint32 curVal)
 894:Generated_Source\PSoC4/RTC.h **** {
 895:Generated_Source\PSoC4/RTC.h ****     return((curVal < 23u) ? (curVal + 1u) : 0u);
 896:Generated_Source\PSoC4/RTC.h **** }
 897:Generated_Source\PSoC4/RTC.h **** 
 898:Generated_Source\PSoC4/RTC.h **** 
 899:Generated_Source\PSoC4/RTC.h **** /*******************************************************************************
 900:Generated_Source\PSoC4/RTC.h **** * Function Name: RTC_GetNextDay
 901:Generated_Source\PSoC4/RTC.h **** ****************************************************************************//**
 902:Generated_Source\PSoC4/RTC.h **** * \internal
 903:Generated_Source\PSoC4/RTC.h **** * \brief
 904:Generated_Source\PSoC4/RTC.h **** *  This is an internal function that calculates the value of the next Day
 905:Generated_Source\PSoC4/RTC.h **** *  that follows after the current Day.
 906:Generated_Source\PSoC4/RTC.h **** *
 907:Generated_Source\PSoC4/RTC.h **** * \param
 908:Generated_Source\PSoC4/RTC.h **** *  curYear The current year.
 909:Generated_Source\PSoC4/RTC.h **** * \param
ARM GAS  C:\Users\Petro\AppData\Local\Temp\ccAfRAcN.s 			page 50


 910:Generated_Source\PSoC4/RTC.h **** *  curMonth The current month.
 911:Generated_Source\PSoC4/RTC.h **** * \param
 912:Generated_Source\PSoC4/RTC.h **** *  curDay The current day.
 913:Generated_Source\PSoC4/RTC.h **** * \param
 914:Generated_Source\PSoC4/RTC.h **** *  alarmCfgMask Alarm Config Mask.
 915:Generated_Source\PSoC4/RTC.h **** *
 916:Generated_Source\PSoC4/RTC.h **** * \return
 917:Generated_Source\PSoC4/RTC.h **** *  Returns the day which follows after the current Day.
 918:Generated_Source\PSoC4/RTC.h **** * \endinternal
 919:Generated_Source\PSoC4/RTC.h **** *******************************************************************************/
 920:Generated_Source\PSoC4/RTC.h **** static CY_INLINE uint32 RTC_GetNextDay(uint32 curYear, uint32 curMonth, uint32 curDay, uint32 alarm
 921:Generated_Source\PSoC4/RTC.h **** {
 922:Generated_Source\PSoC4/RTC.h ****     uint32 daysInMonth;
 923:Generated_Source\PSoC4/RTC.h ****     uint32 tmpVal;
 924:Generated_Source\PSoC4/RTC.h **** 
 925:Generated_Source\PSoC4/RTC.h ****     daysInMonth = RTC_DaysInMonth(curMonth, curYear);
 926:Generated_Source\PSoC4/RTC.h **** 
 927:Generated_Source\PSoC4/RTC.h ****     if(0u != (alarmCfgMask & RTC_ALARM_DAYOFWEEK_MASK))
 928:Generated_Source\PSoC4/RTC.h ****     {
 929:Generated_Source\PSoC4/RTC.h ****         tmpVal = curDay + RTC_DAYS_PER_WEEK;
 930:Generated_Source\PSoC4/RTC.h ****         tmpVal = (tmpVal > daysInMonth) ? (tmpVal - daysInMonth) : tmpVal;
 931:Generated_Source\PSoC4/RTC.h ****     }
 932:Generated_Source\PSoC4/RTC.h ****     else
 933:Generated_Source\PSoC4/RTC.h ****     {
 934:Generated_Source\PSoC4/RTC.h ****         tmpVal = (curDay < daysInMonth) ? (curDay + 1u) : 1u;
 935:Generated_Source\PSoC4/RTC.h ****     }
 936:Generated_Source\PSoC4/RTC.h **** 
 937:Generated_Source\PSoC4/RTC.h ****     return(tmpVal);
 938:Generated_Source\PSoC4/RTC.h **** }
 939:Generated_Source\PSoC4/RTC.h **** 
 940:Generated_Source\PSoC4/RTC.h **** 
 941:Generated_Source\PSoC4/RTC.h **** /*******************************************************************************
 942:Generated_Source\PSoC4/RTC.h **** * Function Name: RTC_GetNextMonth
 943:Generated_Source\PSoC4/RTC.h **** ****************************************************************************//**
 944:Generated_Source\PSoC4/RTC.h **** * \internal
 945:Generated_Source\PSoC4/RTC.h **** * \brief
 946:Generated_Source\PSoC4/RTC.h **** *  This is an internal function that calculates the value of the next month
 947:Generated_Source\PSoC4/RTC.h **** *  that follows after the current month.
 948:Generated_Source\PSoC4/RTC.h **** *
 949:Generated_Source\PSoC4/RTC.h **** * \param
 950:Generated_Source\PSoC4/RTC.h **** *  curMonth The current month.
 951:Generated_Source\PSoC4/RTC.h **** *
 952:Generated_Source\PSoC4/RTC.h **** * \return
 953:Generated_Source\PSoC4/RTC.h **** *  Returns the month which follows after the current month.
 954:Generated_Source\PSoC4/RTC.h **** * \endinternal
 955:Generated_Source\PSoC4/RTC.h **** *******************************************************************************/
 956:Generated_Source\PSoC4/RTC.h **** static CY_INLINE uint32 RTC_GetNextMonth(uint32 curMonth)
 957:Generated_Source\PSoC4/RTC.h **** {
 958:Generated_Source\PSoC4/RTC.h ****     return((curMonth < 12u) ? (curMonth + 1u) : 1u);
 959:Generated_Source\PSoC4/RTC.h **** }
 960:Generated_Source\PSoC4/RTC.h **** 
 961:Generated_Source\PSoC4/RTC.h **** 
 962:Generated_Source\PSoC4/RTC.h **** /*******************************************************************************
 963:Generated_Source\PSoC4/RTC.h **** * Function Name: RTC_GetNextYear
 964:Generated_Source\PSoC4/RTC.h **** ****************************************************************************//**
 965:Generated_Source\PSoC4/RTC.h **** * \internal
 966:Generated_Source\PSoC4/RTC.h **** * \brief
ARM GAS  C:\Users\Petro\AppData\Local\Temp\ccAfRAcN.s 			page 51


 967:Generated_Source\PSoC4/RTC.h **** *  This is an internal function that calculates the value of the next year
 968:Generated_Source\PSoC4/RTC.h **** *  that follows after the current year.
 969:Generated_Source\PSoC4/RTC.h **** *
 970:Generated_Source\PSoC4/RTC.h **** * \param
 971:Generated_Source\PSoC4/RTC.h **** *  curYear The current year.
 972:Generated_Source\PSoC4/RTC.h **** *
 973:Generated_Source\PSoC4/RTC.h **** * \return
 974:Generated_Source\PSoC4/RTC.h **** *  Returns the year which follows after the current year.
 975:Generated_Source\PSoC4/RTC.h **** * \endinternal
 976:Generated_Source\PSoC4/RTC.h **** *******************************************************************************/
 977:Generated_Source\PSoC4/RTC.h **** static CY_INLINE uint32 RTC_GetNextYear(uint32 curYear)
 978:Generated_Source\PSoC4/RTC.h **** {
 979:Generated_Source\PSoC4/RTC.h ****     return(curYear + 1u);
 980:Generated_Source\PSoC4/RTC.h **** }
 981:Generated_Source\PSoC4/RTC.h **** 
 982:Generated_Source\PSoC4/RTC.h **** 
 983:Generated_Source\PSoC4/RTC.h **** /*******************************************************************************
 984:Generated_Source\PSoC4/RTC.h **** * Function Name: RTC_SetTimeFormat
 985:Generated_Source\PSoC4/RTC.h **** ****************************************************************************//**
 986:Generated_Source\PSoC4/RTC.h **** * \internal
 987:Generated_Source\PSoC4/RTC.h **** * \brief
 988:Generated_Source\PSoC4/RTC.h **** *  Updates the "Time Format" value in the variable that contains time in the
 989:Generated_Source\PSoC4/RTC.h **** *  "HH:MM:SS" format.
 990:Generated_Source\PSoC4/RTC.h **** *
 991:Generated_Source\PSoC4/RTC.h **** * \param
 992:Generated_Source\PSoC4/RTC.h **** *  inputTime The current value of the time in the "HH:MM:SS" format.
 993:Generated_Source\PSoC4/RTC.h **** *
 994:Generated_Source\PSoC4/RTC.h **** * \return
 995:Generated_Source\PSoC4/RTC.h **** *  Returns the updated value of the time in the "HH:MM:SS" format.
 996:Generated_Source\PSoC4/RTC.h **** * \endinternal
 997:Generated_Source\PSoC4/RTC.h **** *******************************************************************************/
 998:Generated_Source\PSoC4/RTC.h **** static CY_INLINE uint32 RTC_SetTimeFormat(uint32 inputTime, uint32 timeFormat)
 999:Generated_Source\PSoC4/RTC.h **** {
1000:Generated_Source\PSoC4/RTC.h ****     inputTime &= ~(RTC_TIME_FORMAT_MASK);
1001:Generated_Source\PSoC4/RTC.h **** 
1002:Generated_Source\PSoC4/RTC.h ****     if((uint32)RTC_12_HOURS_FORMAT != timeFormat)
1003:Generated_Source\PSoC4/RTC.h ****     {
1004:Generated_Source\PSoC4/RTC.h ****         inputTime |= RTC_TIME_FORMAT_MASK;
1005:Generated_Source\PSoC4/RTC.h ****     }
1006:Generated_Source\PSoC4/RTC.h **** 
1007:Generated_Source\PSoC4/RTC.h ****     return(inputTime);
1008:Generated_Source\PSoC4/RTC.h **** }
1009:Generated_Source\PSoC4/RTC.h **** 
1010:Generated_Source\PSoC4/RTC.h **** 
1011:Generated_Source\PSoC4/RTC.h **** /*******************************************************************************
1012:Generated_Source\PSoC4/RTC.h **** * Function Name: RTC_GetTimeFormat
1013:Generated_Source\PSoC4/RTC.h **** ****************************************************************************//**
1014:Generated_Source\PSoC4/RTC.h **** * \internal
1015:Generated_Source\PSoC4/RTC.h **** * \brief
1016:Generated_Source\PSoC4/RTC.h **** *  Reads the time format from the variable that contains time in the
1017:Generated_Source\PSoC4/RTC.h **** *  "HH:MM:SS" format.
1018:Generated_Source\PSoC4/RTC.h **** *
1019:Generated_Source\PSoC4/RTC.h **** * \param
1020:Generated_Source\PSoC4/RTC.h **** *  inputTime The current value of the time in the "HH:MM:SS" format.
1021:Generated_Source\PSoC4/RTC.h **** *
1022:Generated_Source\PSoC4/RTC.h **** * \return
1023:Generated_Source\PSoC4/RTC.h **** *  Returns the time format that is stored in the variable that contains time
ARM GAS  C:\Users\Petro\AppData\Local\Temp\ccAfRAcN.s 			page 52


1024:Generated_Source\PSoC4/RTC.h **** *  in the "HH:MM:SS" format.
1025:Generated_Source\PSoC4/RTC.h **** * \endinternal
1026:Generated_Source\PSoC4/RTC.h **** *******************************************************************************/
1027:Generated_Source\PSoC4/RTC.h **** static CY_INLINE uint32 RTC_GetTimeFormat(uint32 inputTime)
1028:Generated_Source\PSoC4/RTC.h **** {
1029:Generated_Source\PSoC4/RTC.h ****     return ((0uL != (inputTime & (1uL << RTC_TIME_FORMAT_OFFSET))) ? (uint32)RTC_12_HOURS_FORMAT :
 566              		.loc 2 1029 0
 567 0120 8023     		mov	r3, #128
 568 0122 1B04     		lsl	r3, r3, #16
 569 0124 1340     		and	r3, r2
 570 0126 00D0     		beq	.L33
 571              	.LVL60:
 572 0128 0123     		mov	r3, #1
 573              	.L33:
 574              	.LBE59:
 575              	.LBE58:
1302:Generated_Source\PSoC4/RTC.c **** 
1303:Generated_Source\PSoC4/RTC.c ****     /* Calculates how many seconds have elapsed today up to the current hour. */
1304:Generated_Source\PSoC4/RTC.c ****     tmpVal = RTC_GetHours(inputTime);
1305:Generated_Source\PSoC4/RTC.c ****     if(((uint32)RTC_24_HOURS_FORMAT != RTC_GetTimeFormat(inputTime)) &&
 576              		.loc 1 1305 0
 577 012a 002B     		cmp	r3, #0
 578 012c 0AD0     		beq	.L34
 579              	.LVL61:
 580              	.LBB60:
 581              	.LBB61:
 582              	.LBB62:
 444:Generated_Source\PSoC4/RTC.h **** }
 583              		.loc 2 444 0
 584 012e 4B46     		mov	r3, r9
 585 0130 5B02     		lsl	r3, r3, #9
 586 0132 01D5     		bpl	.L40
 587 0134 0123     		mov	r3, #1
 588 0136 00E0     		b	.L35
 589              	.L40:
 590 0138 0023     		mov	r3, #0
 591              	.L35:
 592              	.LBE62:
 593              	.LBE61:
 594              	.LBE60:
 595              		.loc 1 1305 0
 596 013a 002B     		cmp	r3, #0
 597 013c 02D0     		beq	.L34
1306:Generated_Source\PSoC4/RTC.c ****        ((uint32)RTC_AM != RTC_GetAmPm(inputTime)) && (tmpVal < 12u))
 598              		.loc 1 1306 0
 599 013e 0B29     		cmp	r1, #11
 600 0140 00D8     		bhi	.L34
1307:Generated_Source\PSoC4/RTC.c ****     {
1308:Generated_Source\PSoC4/RTC.c ****         tmpVal += RTC_HOURS_PER_HALF_DAY;
 601              		.loc 1 1308 0
 602 0142 0C31     		add	r1, r1, #12
 603              	.LVL62:
 604              	.L34:
1309:Generated_Source\PSoC4/RTC.c ****     }
1310:Generated_Source\PSoC4/RTC.c ****     unixTime += tmpVal * RTC_SECONDS_PER_HOUR;
 605              		.loc 1 1310 0
 606 0144 E120     		mov	r0, #225
ARM GAS  C:\Users\Petro\AppData\Local\Temp\ccAfRAcN.s 			page 53


 607              	.LVL63:
 608 0146 0001     		lsl	r0, r0, #4
 609 0148 4843     		mul	r0, r1
 610 014a 021C     		mov	r2, r0
 611              	.LVL64:
 612 014c 0023     		mov	r3, #0
 613 014e B618     		add	r6, r6, r2
 614 0150 5F41     		adc	r7, r7, r3
 615              	.LVL65:
 616              	.LBB63:
 617              	.LBB64:
 527:Generated_Source\PSoC4/RTC.h ****     retVal += (inputTime & RTC_MINUTES_MASK) >> RTC_MINUTES_OFFSET;
 618              		.loc 2 527 0
 619 0152 4B46     		mov	r3, r9
 620 0154 5B04     		lsl	r3, r3, #17
 621 0156 5B0F     		lsr	r3, r3, #29
 622 0158 9A00     		lsl	r2, r3, #2
 623 015a D318     		add	r3, r2, r3
 624 015c 5B00     		lsl	r3, r3, #1
 625              	.LVL66:
 528:Generated_Source\PSoC4/RTC.h **** 
 626              		.loc 2 528 0
 627 015e 4A46     		mov	r2, r9
 628 0160 1205     		lsl	r2, r2, #20
 629 0162 120F     		lsr	r2, r2, #28
 630 0164 9B18     		add	r3, r3, r2
 631              	.LVL67:
 632              	.LBE64:
 633              	.LBE63:
1311:Generated_Source\PSoC4/RTC.c **** 
1312:Generated_Source\PSoC4/RTC.c ****     /* Calculates how many seconds have elapsed today up to the current minute. */
1313:Generated_Source\PSoC4/RTC.c ****     unixTime += RTC_GetMinutes(inputTime) * RTC_SECONDS_PER_MINUTE;
 634              		.loc 1 1313 0
 635 0166 1901     		lsl	r1, r3, #4
 636              	.LVL68:
 637 0168 C91A     		sub	r1, r1, r3
 638 016a 8A00     		lsl	r2, r1, #2
 639 016c 0023     		mov	r3, #0
 640              	.LVL69:
 641 016e B618     		add	r6, r6, r2
 642 0170 5F41     		adc	r7, r7, r3
 643              	.LVL70:
 644              	.LBB65:
 645              	.LBB66:
 501:Generated_Source\PSoC4/RTC.h ****     retVal += (inputTime & RTC_SECONDS_MASK) >> RTC_SECONDS_OFFSET;
 646              		.loc 2 501 0
 647 0172 4B46     		mov	r3, r9
 648 0174 5B06     		lsl	r3, r3, #25
 649 0176 5B0F     		lsr	r3, r3, #29
 650 0178 9A00     		lsl	r2, r3, #2
 651 017a D218     		add	r2, r2, r3
 652 017c 5200     		lsl	r2, r2, #1
 653              	.LVL71:
 502:Generated_Source\PSoC4/RTC.h **** 
 654              		.loc 2 502 0
 655 017e 0F23     		mov	r3, #15
 656              	.LVL72:
ARM GAS  C:\Users\Petro\AppData\Local\Temp\ccAfRAcN.s 			page 54


 657 0180 4946     		mov	r1, r9
 658 0182 0B40     		and	r3, r1
 659              	.LVL73:
 660              	.LBE66:
 661              	.LBE65:
1314:Generated_Source\PSoC4/RTC.c **** 
1315:Generated_Source\PSoC4/RTC.c ****     /* Add remaining seconds of current minute. */
1316:Generated_Source\PSoC4/RTC.c ****     unixTime += RTC_GetSecond(inputTime);
 662              		.loc 1 1316 0
 663 0184 D018     		add	r0, r2, r3
 664              	.LVL74:
 665 0186 0021     		mov	r1, #0
 666 0188 8019     		add	r0, r0, r6
 667 018a 7941     		adc	r1, r1, r7
 668              	.LVL75:
1317:Generated_Source\PSoC4/RTC.c **** 
1318:Generated_Source\PSoC4/RTC.c ****     return(unixTime);
1319:Generated_Source\PSoC4/RTC.c **** }
 669              		.loc 1 1319 0
 670              		@ sp needed
 671              	.LVL76:
 672              	.LVL77:
 673 018c 1CBC     		pop	{r2, r3, r4}
 674 018e 9046     		mov	r8, r2
 675 0190 9946     		mov	r9, r3
 676 0192 A246     		mov	r10, r4
 677 0194 F0BD     		pop	{r4, r5, r6, r7, pc}
 678              	.L42:
 679 0196 C046     		.align	2
 680              	.L41:
 681 0198 B2070000 		.word	1970
 682 019c 0085E201 		.word	31622400
 683 01a0 8033E101 		.word	31536000
 684 01a4 00000000 		.word	.LANCHOR1
 685 01a8 80510100 		.word	86400
 686 01ac 80AEFEFF 		.word	-86400
 687              		.cfi_endproc
 688              	.LFE44:
 689              		.size	RTC_DateTimeToUnix, .-RTC_DateTimeToUnix
 690              		.section	.text.RTC_SetDateAndTime,"ax",%progbits
 691              		.align	2
 692              		.global	RTC_SetDateAndTime
 693              		.code	16
 694              		.thumb_func
 695              		.type	RTC_SetDateAndTime, %function
 696              	RTC_SetDateAndTime:
 697              	.LFB31:
 230:Generated_Source\PSoC4/RTC.c ****     uint32 tmpDay;
 698              		.loc 1 230 0
 699              		.cfi_startproc
 700              	.LVL78:
 701 0000 F0B5     		push	{r4, r5, r6, r7, lr}
 702              		.cfi_def_cfa_offset 20
 703              		.cfi_offset 4, -20
 704              		.cfi_offset 5, -16
 705              		.cfi_offset 6, -12
 706              		.cfi_offset 7, -8
ARM GAS  C:\Users\Petro\AppData\Local\Temp\ccAfRAcN.s 			page 55


 707              		.cfi_offset 14, -4
 708 0002 83B0     		sub	sp, sp, #12
 709              		.cfi_def_cfa_offset 32
 710 0004 0190     		str	r0, [sp, #4]
 711 0006 0C1C     		mov	r4, r1
 712              	.LVL79:
 713              	.LBB75:
 714              	.LBB76:
 599:Generated_Source\PSoC4/RTC.h ****     retVal += (date & RTC_DAY_MASK) >> RTC_DAY_OFFSET;
 715              		.loc 2 599 0
 716 0008 8F02     		lsl	r7, r1, #10
 717 000a BF0F     		lsr	r7, r7, #30
 718 000c BB00     		lsl	r3, r7, #2
 719 000e DB19     		add	r3, r3, r7
 720 0010 5B00     		lsl	r3, r3, #1
 721              	.LVL80:
 600:Generated_Source\PSoC4/RTC.h **** 
 722              		.loc 2 600 0
 723 0012 0F03     		lsl	r7, r1, #12
 724 0014 3F0F     		lsr	r7, r7, #28
 725 0016 DF19     		add	r7, r3, r7
 726              	.LVL81:
 727              	.LBE76:
 728              	.LBE75:
 729              	.LBB77:
 730              	.LBB78:
 624:Generated_Source\PSoC4/RTC.h ****     retVal += (date & RTC_MONTH_MASK) >> RTC_MONTH_OFFSET;
 731              		.loc 2 624 0
 732 0018 CE00     		lsl	r6, r1, #3
 733 001a F60F     		lsr	r6, r6, #31
 734 001c B300     		lsl	r3, r6, #2
 735 001e 9B19     		add	r3, r3, r6
 736 0020 5B00     		lsl	r3, r3, #1
 737              	.LVL82:
 625:Generated_Source\PSoC4/RTC.h **** 
 738              		.loc 2 625 0
 739 0022 0E01     		lsl	r6, r1, #4
 740 0024 360F     		lsr	r6, r6, #28
 741 0026 9E19     		add	r6, r3, r6
 742              	.LVL83:
 743              	.LBE78:
 744              	.LBE77:
 745              	.LBB79:
 746              	.LBB80:
 649:Generated_Source\PSoC4/RTC.h ****     retVal += ((date & RTC_100_YEAR_MASK) >> RTC_100_YEAR_OFFSET) * 100u;
 747              		.loc 2 649 0
 748 0028 8904     		lsl	r1, r1, #18
 749              	.LVL84:
 750 002a 890F     		lsr	r1, r1, #30
 751 002c FA22     		mov	r2, #250
 752 002e 9200     		lsl	r2, r2, #2
 753 0030 4A43     		mul	r2, r1
 754 0032 101C     		mov	r0, r2
 755              	.LVL85:
 650:Generated_Source\PSoC4/RTC.h ****     retVal += ((date & RTC_10_YEAR_MASK) >> RTC_10_YEAR_OFFSET) * 10u;
 756              		.loc 2 650 0
 757 0034 2305     		lsl	r3, r4, #20
ARM GAS  C:\Users\Petro\AppData\Local\Temp\ccAfRAcN.s 			page 56


 758 0036 1B0F     		lsr	r3, r3, #28
 759 0038 6422     		mov	r2, #100
 760 003a 5343     		mul	r3, r2
 761 003c C118     		add	r1, r0, r3
 762              	.LVL86:
 651:Generated_Source\PSoC4/RTC.h ****     retVal += (date & RTC_YEAR_MASK) >> RTC_YEAR_OFFSET;
 763              		.loc 2 651 0
 764 003e 2206     		lsl	r2, r4, #24
 765 0040 120F     		lsr	r2, r2, #28
 766 0042 9300     		lsl	r3, r2, #2
 767 0044 9B18     		add	r3, r3, r2
 768 0046 5B00     		lsl	r3, r3, #1
 769 0048 CB18     		add	r3, r1, r3
 770              	.LVL87:
 652:Generated_Source\PSoC4/RTC.h **** 
 771              		.loc 2 652 0
 772 004a 0F22     		mov	r2, #15
 773 004c 2240     		and	r2, r4
 774 004e 9D18     		add	r5, r3, r2
 775              	.LVL88:
 776              	.LBE80:
 777              	.LBE79:
 239:Generated_Source\PSoC4/RTC.c ****     RTC_currentTimeDate.date = inputDate;
 778              		.loc 1 239 0
 779 0050 201C     		mov	r0, r4
 780 0052 0199     		ldr	r1, [sp, #4]
 781 0054 FFF7FEFF 		bl	RTC_DateTimeToUnix
 782              	.LVL89:
 783 0058 164B     		ldr	r3, .L47
 784 005a 1860     		str	r0, [r3]
 785 005c 5960     		str	r1, [r3, #4]
 240:Generated_Source\PSoC4/RTC.c ****     RTC_currentTimeDate.time = inputTime;
 786              		.loc 1 240 0
 787 005e 164B     		ldr	r3, .L47+4
 788 0060 5C60     		str	r4, [r3, #4]
 241:Generated_Source\PSoC4/RTC.c ****     RTC_currentTimeDate.dayOfWeek = RTC_GetDayOfWeek(tmpDay, tmpMonth, tmpYear);
 789              		.loc 1 241 0
 790 0062 019A     		ldr	r2, [sp, #4]
 791 0064 1A60     		str	r2, [r3]
 792              	.LVL90:
 793              	.LBB81:
 794              	.LBB82:
1030:Generated_Source\PSoC4/RTC.h ****                                                                                   (uint32)RTC_24_HO
1031:Generated_Source\PSoC4/RTC.h **** }
1032:Generated_Source\PSoC4/RTC.h **** 
1033:Generated_Source\PSoC4/RTC.h **** 
1034:Generated_Source\PSoC4/RTC.h **** /*******************************************************************************
1035:Generated_Source\PSoC4/RTC.h **** * Function Name: RTC_ConstructTime
1036:Generated_Source\PSoC4/RTC.h **** ****************************************************************************//**
1037:Generated_Source\PSoC4/RTC.h **** *
1038:Generated_Source\PSoC4/RTC.h **** * \brief
1039:Generated_Source\PSoC4/RTC.h **** *  Returns the time in the format used in APIs from individual elements
1040:Generated_Source\PSoC4/RTC.h **** *  passed (hour, min, sec etc)
1041:Generated_Source\PSoC4/RTC.h **** *
1042:Generated_Source\PSoC4/RTC.h **** * \param
1043:Generated_Source\PSoC4/RTC.h **** * timeFormat The 12/24 hours time format <br>
1044:Generated_Source\PSoC4/RTC.h **** * RTC_24_HOURS_FORMAT - The 24 hours format. <br>
ARM GAS  C:\Users\Petro\AppData\Local\Temp\ccAfRAcN.s 			page 57


1045:Generated_Source\PSoC4/RTC.h **** * RTC_12_HOURS_FORMAT - The 12 hours format.
1046:Generated_Source\PSoC4/RTC.h **** *
1047:Generated_Source\PSoC4/RTC.h **** * \param
1048:Generated_Source\PSoC4/RTC.h **** * stateAmPm  The AM/PM status <br>
1049:Generated_Source\PSoC4/RTC.h **** * RTC_AM - AM. <br>
1050:Generated_Source\PSoC4/RTC.h **** * RTC_PM - PM.
1051:Generated_Source\PSoC4/RTC.h **** *
1052:Generated_Source\PSoC4/RTC.h **** * \param
1053:Generated_Source\PSoC4/RTC.h **** *  hour The hour.
1054:Generated_Source\PSoC4/RTC.h **** *
1055:Generated_Source\PSoC4/RTC.h **** * \param
1056:Generated_Source\PSoC4/RTC.h **** *  min The minute.
1057:Generated_Source\PSoC4/RTC.h **** *
1058:Generated_Source\PSoC4/RTC.h **** * \param
1059:Generated_Source\PSoC4/RTC.h **** *  sec The second.
1060:Generated_Source\PSoC4/RTC.h **** *
1061:Generated_Source\PSoC4/RTC.h **** * \return
1062:Generated_Source\PSoC4/RTC.h **** *  Time in the format used in API.
1063:Generated_Source\PSoC4/RTC.h **** *
1064:Generated_Source\PSoC4/RTC.h **** *******************************************************************************/
1065:Generated_Source\PSoC4/RTC.h **** static CY_INLINE uint32 RTC_ConstructTime(uint32 timeFormat, uint32 stateAmPm, uint32 hour, uint32 
1066:Generated_Source\PSoC4/RTC.h **** {
1067:Generated_Source\PSoC4/RTC.h ****     uint32 retVal;
1068:Generated_Source\PSoC4/RTC.h **** 
1069:Generated_Source\PSoC4/RTC.h ****     retVal  = timeFormat << RTC_TIME_FORMAT_OFFSET;
1070:Generated_Source\PSoC4/RTC.h ****     retVal |= stateAmPm << RTC_PERIOD_OF_DAY_OFFSET;
1071:Generated_Source\PSoC4/RTC.h **** 
1072:Generated_Source\PSoC4/RTC.h ****     retVal |= (hour / 10u) << RTC_10_HOURS_OFFSET;
1073:Generated_Source\PSoC4/RTC.h ****     retVal |= (hour % 10u) << RTC_HOURS_OFFSET;
1074:Generated_Source\PSoC4/RTC.h **** 
1075:Generated_Source\PSoC4/RTC.h ****     retVal |= (min / 10u) << RTC_10_MINUTES_OFFSET;
1076:Generated_Source\PSoC4/RTC.h ****     retVal |= (min % 10u) << RTC_MINUTES_OFFSET;
1077:Generated_Source\PSoC4/RTC.h **** 
1078:Generated_Source\PSoC4/RTC.h ****     retVal |= (sec / 10u) << RTC_10_SECONDS_OFFSET;
1079:Generated_Source\PSoC4/RTC.h ****     retVal |= (sec % 10u) << RTC_SECONDS_OFFSET;
1080:Generated_Source\PSoC4/RTC.h **** 
1081:Generated_Source\PSoC4/RTC.h ****     return (retVal);
1082:Generated_Source\PSoC4/RTC.h **** }
1083:Generated_Source\PSoC4/RTC.h **** 
1084:Generated_Source\PSoC4/RTC.h **** 
1085:Generated_Source\PSoC4/RTC.h **** /*******************************************************************************
1086:Generated_Source\PSoC4/RTC.h **** * Function Name: RTC_ConstructDate
1087:Generated_Source\PSoC4/RTC.h **** ****************************************************************************//**
1088:Generated_Source\PSoC4/RTC.h **** *
1089:Generated_Source\PSoC4/RTC.h **** * \brief
1090:Generated_Source\PSoC4/RTC.h **** *  Returns the date in the format used in APIs from individual elements
1091:Generated_Source\PSoC4/RTC.h **** *  passed (day. Month and year)
1092:Generated_Source\PSoC4/RTC.h **** *
1093:Generated_Source\PSoC4/RTC.h **** * \param
1094:Generated_Source\PSoC4/RTC.h **** *  month The month.
1095:Generated_Source\PSoC4/RTC.h **** *
1096:Generated_Source\PSoC4/RTC.h **** * \param
1097:Generated_Source\PSoC4/RTC.h **** *  day The day.
1098:Generated_Source\PSoC4/RTC.h **** *
1099:Generated_Source\PSoC4/RTC.h **** * \param
1100:Generated_Source\PSoC4/RTC.h **** *  year The year.
1101:Generated_Source\PSoC4/RTC.h **** *
ARM GAS  C:\Users\Petro\AppData\Local\Temp\ccAfRAcN.s 			page 58


1102:Generated_Source\PSoC4/RTC.h **** * \return
1103:Generated_Source\PSoC4/RTC.h **** *  The date in the format used in API.
1104:Generated_Source\PSoC4/RTC.h **** *
1105:Generated_Source\PSoC4/RTC.h **** *******************************************************************************/
1106:Generated_Source\PSoC4/RTC.h **** static CY_INLINE uint32 RTC_ConstructDate(uint32 month, uint32 day, uint32 year)
1107:Generated_Source\PSoC4/RTC.h **** {
1108:Generated_Source\PSoC4/RTC.h ****     uint32 retVal;
1109:Generated_Source\PSoC4/RTC.h ****     uint32 tmpVal = year;
1110:Generated_Source\PSoC4/RTC.h **** 
1111:Generated_Source\PSoC4/RTC.h ****     retVal  = (month / 10u) << RTC_10_MONTH_OFFSET;
1112:Generated_Source\PSoC4/RTC.h ****     retVal |= (month % 10u) << RTC_MONTH_OFFSET;
1113:Generated_Source\PSoC4/RTC.h **** 
1114:Generated_Source\PSoC4/RTC.h ****     retVal |= (day / 10u) << RTC_10_DAY_OFFSET;
1115:Generated_Source\PSoC4/RTC.h ****     retVal |= (day % 10u) << RTC_DAY_OFFSET;
1116:Generated_Source\PSoC4/RTC.h **** 
1117:Generated_Source\PSoC4/RTC.h ****     retVal |= (year / 1000u) << RTC_1000_YEAR_OFFSET;
1118:Generated_Source\PSoC4/RTC.h ****     tmpVal %= 1000u;
1119:Generated_Source\PSoC4/RTC.h **** 
1120:Generated_Source\PSoC4/RTC.h ****     retVal |= (tmpVal / 100u) << RTC_100_YEAR_OFFSET;
1121:Generated_Source\PSoC4/RTC.h ****     tmpVal %= 100u;
1122:Generated_Source\PSoC4/RTC.h **** 
1123:Generated_Source\PSoC4/RTC.h ****     retVal |= (tmpVal / 10u) << RTC_10_YEAR_OFFSET;
1124:Generated_Source\PSoC4/RTC.h ****     retVal |= (tmpVal % 10u) << RTC_YEAR_OFFSET;
1125:Generated_Source\PSoC4/RTC.h **** 
1126:Generated_Source\PSoC4/RTC.h ****     return (retVal);
1127:Generated_Source\PSoC4/RTC.h **** }
1128:Generated_Source\PSoC4/RTC.h **** 
1129:Generated_Source\PSoC4/RTC.h **** 
1130:Generated_Source\PSoC4/RTC.h **** /*******************************************************************************
1131:Generated_Source\PSoC4/RTC.h **** * Function Name: RTC_GetDayOfWeek
1132:Generated_Source\PSoC4/RTC.h **** ****************************************************************************//**
1133:Generated_Source\PSoC4/RTC.h **** * \internal
1134:Generated_Source\PSoC4/RTC.h **** *
1135:Generated_Source\PSoC4/RTC.h **** * \brief
1136:Generated_Source\PSoC4/RTC.h **** *  Returns a day of the week for a year, month, and day of month that are passed
1137:Generated_Source\PSoC4/RTC.h **** *  through parameters. Zeller's congruence is used to calculate the day of
1138:Generated_Source\PSoC4/RTC.h **** *  the week.
1139:Generated_Source\PSoC4/RTC.h **** *
1140:Generated_Source\PSoC4/RTC.h **** *  For the Georgian calendar, Zeller's congruence is:
1141:Generated_Source\PSoC4/RTC.h **** *  h = (q + [13 * (m + 1)] + K + [K/4] + [J/4] - 2J) mod 7
1142:Generated_Source\PSoC4/RTC.h **** *
1143:Generated_Source\PSoC4/RTC.h **** *  h - The day of the week (0 = Saturday, 1 = Sunday, 2 = Monday, ..., 6 = Friday).
1144:Generated_Source\PSoC4/RTC.h **** *  q - The day of the month.
1145:Generated_Source\PSoC4/RTC.h **** *  m - The month (3 = March, 4 = April, 5 = May, ..., 14 = February)
1146:Generated_Source\PSoC4/RTC.h **** *  K - The year of the century (year \mod 100).
1147:Generated_Source\PSoC4/RTC.h **** *  J - The zero-based century (actually [year/100]) For example, the zero-based
1148:Generated_Source\PSoC4/RTC.h **** *  centuries for 1995 and 2000 are 19 and 20 respectively (not to be
1149:Generated_Source\PSoC4/RTC.h **** *  confused with the common ordinal century enumeration which indicates
1150:Generated_Source\PSoC4/RTC.h **** *  20th for both cases).
1151:Generated_Source\PSoC4/RTC.h **** *
1152:Generated_Source\PSoC4/RTC.h **** * \note In this algorithm January and February are counted as months 13 and 14
1153:Generated_Source\PSoC4/RTC.h **** * of the previous year.
1154:Generated_Source\PSoC4/RTC.h **** *
1155:Generated_Source\PSoC4/RTC.h **** * \param
1156:Generated_Source\PSoC4/RTC.h **** *  day The day of the month(1..31)
1157:Generated_Source\PSoC4/RTC.h **** *
1158:Generated_Source\PSoC4/RTC.h **** * \param
ARM GAS  C:\Users\Petro\AppData\Local\Temp\ccAfRAcN.s 			page 59


1159:Generated_Source\PSoC4/RTC.h **** *  month The month of the year
1160:Generated_Source\PSoC4/RTC.h **** * RTC_JANUARY <br>
1161:Generated_Source\PSoC4/RTC.h **** * RTC_FEBRUARY <br>
1162:Generated_Source\PSoC4/RTC.h **** * RTC_MARCH <br>
1163:Generated_Source\PSoC4/RTC.h **** * RTC_APRIL <br>
1164:Generated_Source\PSoC4/RTC.h **** * RTC_MAY <br>
1165:Generated_Source\PSoC4/RTC.h **** * RTC_JUNE <br>
1166:Generated_Source\PSoC4/RTC.h **** * RTC_JULY <br>
1167:Generated_Source\PSoC4/RTC.h **** * RTC_AUGUST <br>
1168:Generated_Source\PSoC4/RTC.h **** * RTC_SEPTEMBER <br>
1169:Generated_Source\PSoC4/RTC.h **** * RTC_OCTOBER <br>
1170:Generated_Source\PSoC4/RTC.h **** * RTC_NOVEMBER <br>
1171:Generated_Source\PSoC4/RTC.h **** * RTC_DECEMBER <br>
1172:Generated_Source\PSoC4/RTC.h **** *
1173:Generated_Source\PSoC4/RTC.h **** * \param
1174:Generated_Source\PSoC4/RTC.h **** *  year The year value.
1175:Generated_Source\PSoC4/RTC.h **** *
1176:Generated_Source\PSoC4/RTC.h **** * \return
1177:Generated_Source\PSoC4/RTC.h **** * Returns a day of the week
1178:Generated_Source\PSoC4/RTC.h **** * RTC_SUNDAY <br>
1179:Generated_Source\PSoC4/RTC.h **** * RTC_MONDAY <br>
1180:Generated_Source\PSoC4/RTC.h **** * RTC_TUESDAY <br>
1181:Generated_Source\PSoC4/RTC.h **** * RTC_WEDNESDAY <br>
1182:Generated_Source\PSoC4/RTC.h **** * RTC_THURSDAY <br>
1183:Generated_Source\PSoC4/RTC.h **** * RTC_FRIDAY <br>
1184:Generated_Source\PSoC4/RTC.h **** * RTC_SATURDAY <br>
1185:Generated_Source\PSoC4/RTC.h **** *
1186:Generated_Source\PSoC4/RTC.h **** * \endinternal
1187:Generated_Source\PSoC4/RTC.h **** *******************************************************************************/
1188:Generated_Source\PSoC4/RTC.h **** static CY_INLINE uint32 RTC_GetDayOfWeek(uint32 day, uint32 month, uint32 year)
1189:Generated_Source\PSoC4/RTC.h **** {
1190:Generated_Source\PSoC4/RTC.h ****     uint32 retVal;
1191:Generated_Source\PSoC4/RTC.h **** 
1192:Generated_Source\PSoC4/RTC.h ****     /* Converts month number from regular convention
1193:Generated_Source\PSoC4/RTC.h ****      * (1=January,..., 12=December) to convention required for this
1194:Generated_Source\PSoC4/RTC.h ****      * algorithm(January and February are counted as months 13 and 14 of
1195:Generated_Source\PSoC4/RTC.h ****      * previous year).
1196:Generated_Source\PSoC4/RTC.h ****     */
1197:Generated_Source\PSoC4/RTC.h ****     if(month < (uint32)RTC_MARCH)
 795              		.loc 2 1197 0
 796 0066 022E     		cmp	r6, #2
 797 0068 01D8     		bhi	.L44
1198:Generated_Source\PSoC4/RTC.h ****     {
1199:Generated_Source\PSoC4/RTC.h ****         month = 12u + month;
 798              		.loc 2 1199 0
 799 006a 0C36     		add	r6, r6, #12
 800              	.LVL91:
1200:Generated_Source\PSoC4/RTC.h ****         year--;
 801              		.loc 2 1200 0
 802 006c 013D     		sub	r5, r5, #1
 803              	.LVL92:
 804              	.L44:
1201:Generated_Source\PSoC4/RTC.h ****     }
1202:Generated_Source\PSoC4/RTC.h **** 
1203:Generated_Source\PSoC4/RTC.h ****     /* Calculates Day of Week using Zeller's congruence algorithms.
1204:Generated_Source\PSoC4/RTC.h ****     */
1205:Generated_Source\PSoC4/RTC.h ****     retVal = (day + (((month + 1u) * 26u) / 10u) + year + (year / 4u) + (6u * (year / 100u)) + (yea
ARM GAS  C:\Users\Petro\AppData\Local\Temp\ccAfRAcN.s 			page 60


 805              		.loc 2 1205 0
 806 006e 0136     		add	r6, r6, #1
 807              	.LVL93:
 808 0070 1A20     		mov	r0, #26
 809 0072 7043     		mul	r0, r6
 810 0074 0A21     		mov	r1, #10
 811 0076 FFF7FEFF 		bl	__aeabi_uidiv
 812              	.LVL94:
 813 007a 3F18     		add	r7, r7, r0
 814              	.LVL95:
 815 007c 7F19     		add	r7, r7, r5
 816 007e A808     		lsr	r0, r5, #2
 817 0080 3F18     		add	r7, r7, r0
 818 0082 281C     		mov	r0, r5
 819 0084 6421     		mov	r1, #100
 820              	.LVL96:
 821 0086 FFF7FEFF 		bl	__aeabi_uidiv
 822              	.LVL97:
 823 008a 4300     		lsl	r3, r0, #1
 824 008c 1818     		add	r0, r3, r0
 825 008e 4000     		lsl	r0, r0, #1
 826 0090 3F18     		add	r7, r7, r0
 827 0092 281C     		mov	r0, r5
 828 0094 C821     		mov	r1, #200
 829 0096 4900     		lsl	r1, r1, #1
 830 0098 FFF7FEFF 		bl	__aeabi_uidiv
 831              	.LVL98:
 832 009c 3818     		add	r0, r7, r0
 833 009e 0721     		mov	r1, #7
 834 00a0 FFF7FEFF 		bl	__aeabi_uidivmod
 835              	.LVL99:
1206:Generated_Source\PSoC4/RTC.h **** 
1207:Generated_Source\PSoC4/RTC.h ****     /* Makes correction for Saturday. Saturday number should be 7 instead of 0. */
1208:Generated_Source\PSoC4/RTC.h ****     if(0u == retVal)
 836              		.loc 2 1208 0
 837 00a4 0029     		cmp	r1, #0
 838 00a6 00D1     		bne	.L45
1209:Generated_Source\PSoC4/RTC.h ****     {
1210:Generated_Source\PSoC4/RTC.h ****         retVal = (uint32)RTC_SATURDAY;
 839              		.loc 2 1210 0
 840 00a8 0731     		add	r1, r1, #7
 841              	.LVL100:
 842              	.L45:
 843              	.LBE82:
 844              	.LBE81:
 242:Generated_Source\PSoC4/RTC.c **** 
 845              		.loc 1 242 0
 846 00aa 034B     		ldr	r3, .L47+4
 847 00ac 9960     		str	r1, [r3, #8]
 266:Generated_Source\PSoC4/RTC.c **** 
 848              		.loc 1 266 0
 849 00ae 03B0     		add	sp, sp, #12
 850              		@ sp needed
 851              	.LVL101:
 852              	.LVL102:
 853              	.LVL103:
 854 00b0 F0BD     		pop	{r4, r5, r6, r7, pc}
ARM GAS  C:\Users\Petro\AppData\Local\Temp\ccAfRAcN.s 			page 61


 855              	.L48:
 856 00b2 C046     		.align	2
 857              	.L47:
 858 00b4 00000000 		.word	RTC_unixTime
 859 00b8 00000000 		.word	RTC_currentTimeDate
 860              		.cfi_endproc
 861              	.LFE31:
 862              		.size	RTC_SetDateAndTime, .-RTC_SetDateAndTime
 863              		.section	.text.RTC_Init,"ax",%progbits
 864              		.align	2
 865              		.global	RTC_Init
 866              		.code	16
 867              		.thumb_func
 868              		.type	RTC_Init, %function
 869              	RTC_Init:
 870              	.LFB30:
 141:Generated_Source\PSoC4/RTC.c ****     uint32 tmpDate;
 871              		.loc 1 141 0
 872              		.cfi_startproc
 873 0000 08B5     		push	{r3, lr}
 874              		.cfi_def_cfa_offset 8
 875              		.cfi_offset 3, -8
 876              		.cfi_offset 14, -4
 149:Generated_Source\PSoC4/RTC.c ****     RTC_dstTimeOffset = 0uL;
 877              		.loc 1 149 0
 878 0002 0122     		mov	r2, #1
 879 0004 074B     		ldr	r3, .L50
 880 0006 1A70     		strb	r2, [r3]
 150:Generated_Source\PSoC4/RTC.c ****     RTC_currentTimeDate.status = 0uL;
 881              		.loc 1 150 0
 882 0008 0023     		mov	r3, #0
 883 000a 074A     		ldr	r2, .L50+4
 884 000c D360     		str	r3, [r2, #12]
 151:Generated_Source\PSoC4/RTC.c **** 
 885              		.loc 1 151 0
 886 000e 074A     		ldr	r2, .L50+8
 887 0010 D360     		str	r3, [r2, #12]
 153:Generated_Source\PSoC4/RTC.c ****     RTC_alarmCurStatus = RTC_INITIAL_ALARM_STATUS;
 888              		.loc 1 153 0
 889 0012 074A     		ldr	r2, .L50+12
 890 0014 1370     		strb	r3, [r2]
 154:Generated_Source\PSoC4/RTC.c **** 
 891              		.loc 1 154 0
 892 0016 074A     		ldr	r2, .L50+16
 893 0018 1360     		str	r3, [r2]
 894              	.LVL104:
 197:Generated_Source\PSoC4/RTC.c **** }
 895              		.loc 1 197 0
 896 001a 0748     		ldr	r0, .L50+20
 897 001c 0749     		ldr	r1, .L50+24
 898 001e FFF7FEFF 		bl	RTC_SetDateAndTime
 899              	.LVL105:
 198:Generated_Source\PSoC4/RTC.c **** 
 900              		.loc 1 198 0
 901              		@ sp needed
 902 0022 08BD     		pop	{r3, pc}
 903              	.L51:
ARM GAS  C:\Users\Petro\AppData\Local\Temp\ccAfRAcN.s 			page 62


 904              		.align	2
 905              	.L50:
 906 0024 00000000 		.word	RTC_initVar
 907 0028 00000000 		.word	.LANCHOR0
 908 002c 00000000 		.word	RTC_currentTimeDate
 909 0030 00000000 		.word	RTC_dstStatus
 910 0034 00000000 		.word	RTC_alarmCurStatus
 911 0038 27232300 		.word	2302759
 912 003c 16200109 		.word	151068694
 913              		.cfi_endproc
 914              	.LFE30:
 915              		.size	RTC_Init, .-RTC_Init
 916              		.section	.text.RTC_Start,"ax",%progbits
 917              		.align	2
 918              		.global	RTC_Start
 919              		.code	16
 920              		.thumb_func
 921              		.type	RTC_Start, %function
 922              	RTC_Start:
 923              	.LFB28:
  91:Generated_Source\PSoC4/RTC.c ****     if(0u == RTC_initVar)
 924              		.loc 1 91 0
 925              		.cfi_startproc
 926 0000 08B5     		push	{r3, lr}
 927              		.cfi_def_cfa_offset 8
 928              		.cfi_offset 3, -8
 929              		.cfi_offset 14, -4
  92:Generated_Source\PSoC4/RTC.c ****     {
 930              		.loc 1 92 0
 931 0002 034B     		ldr	r3, .L54
 932 0004 1B78     		ldrb	r3, [r3]
 933 0006 002B     		cmp	r3, #0
 934 0008 01D1     		bne	.L52
  94:Generated_Source\PSoC4/RTC.c ****     }
 935              		.loc 1 94 0
 936 000a FFF7FEFF 		bl	RTC_Init
 937              	.LVL106:
 938              	.L52:
 102:Generated_Source\PSoC4/RTC.c **** 
 939              		.loc 1 102 0
 940              		@ sp needed
 941 000e 08BD     		pop	{r3, pc}
 942              	.L55:
 943              		.align	2
 944              	.L54:
 945 0010 00000000 		.word	RTC_initVar
 946              		.cfi_endproc
 947              	.LFE28:
 948              		.size	RTC_Start, .-RTC_Start
 949              		.section	.text.RTC_DaysInMonth,"ax",%progbits
 950              		.align	2
 951              		.global	RTC_DaysInMonth
 952              		.code	16
 953              		.thumb_func
 954              		.type	RTC_DaysInMonth, %function
 955              	RTC_DaysInMonth:
 956              	.LFB47:
ARM GAS  C:\Users\Petro\AppData\Local\Temp\ccAfRAcN.s 			page 63


1320:Generated_Source\PSoC4/RTC.c **** 
1321:Generated_Source\PSoC4/RTC.c **** 
1322:Generated_Source\PSoC4/RTC.c **** /*******************************************************************************
1323:Generated_Source\PSoC4/RTC.c **** * Function Name: RTC_UnixToDateTime
1324:Generated_Source\PSoC4/RTC.c **** ****************************************************************************//**
1325:Generated_Source\PSoC4/RTC.c **** *
1326:Generated_Source\PSoC4/RTC.c **** * \brief
1327:Generated_Source\PSoC4/RTC.c **** *  This is an internal function to convert the date and time from
1328:Generated_Source\PSoC4/RTC.c **** *  the UNIX time format into the regular time format.
1329:Generated_Source\PSoC4/RTC.c **** *
1330:Generated_Source\PSoC4/RTC.c **** * \param dayOfWeek A day of a week <br>
1331:Generated_Source\PSoC4/RTC.c **** *                 RTC_SUNDAY <br>
1332:Generated_Source\PSoC4/RTC.c **** *                 RTC_MONDAY <br>
1333:Generated_Source\PSoC4/RTC.c **** *                 RTC_TUESDAY <br>
1334:Generated_Source\PSoC4/RTC.c **** *                 RTC_WEDNESDAY <br>
1335:Generated_Source\PSoC4/RTC.c **** *                 RTC_THURSDAY <br>
1336:Generated_Source\PSoC4/RTC.c **** *                 RTC_FRIDAY <br>
1337:Generated_Source\PSoC4/RTC.c **** *                 RTC_SATURDAY <br>
1338:Generated_Source\PSoC4/RTC.c **** *
1339:Generated_Source\PSoC4/RTC.c **** * \param weekOfMonth A week of a month <br>
1340:Generated_Source\PSoC4/RTC.c **** *                 RTC_FIRST <br>
1341:Generated_Source\PSoC4/RTC.c **** *                 RTC_SECOND <br>
1342:Generated_Source\PSoC4/RTC.c **** *                 RTC_THIRD <br>
1343:Generated_Source\PSoC4/RTC.c **** *                 RTC_FOURTH <br>
1344:Generated_Source\PSoC4/RTC.c **** *                 RTC_LAST <br>
1345:Generated_Source\PSoC4/RTC.c **** *
1346:Generated_Source\PSoC4/RTC.c **** * \param month A month of a year <br>
1347:Generated_Source\PSoC4/RTC.c **** *                   RTC_JANUARY <br>
1348:Generated_Source\PSoC4/RTC.c **** *                  RTC_FEBRUARY <br>
1349:Generated_Source\PSoC4/RTC.c **** *                  RTC_MARCH <br>
1350:Generated_Source\PSoC4/RTC.c **** *                  RTC_APRIL <br>
1351:Generated_Source\PSoC4/RTC.c **** *                  RTC_MAY <br>
1352:Generated_Source\PSoC4/RTC.c **** *                  RTC_JUNE <br>
1353:Generated_Source\PSoC4/RTC.c **** *                  RTC_JULY <br>
1354:Generated_Source\PSoC4/RTC.c **** *                  RTC_AUGUST <br>
1355:Generated_Source\PSoC4/RTC.c **** *                  RTC_SEPTEMBER <br>
1356:Generated_Source\PSoC4/RTC.c **** *                  RTC_OCTOBER <br>
1357:Generated_Source\PSoC4/RTC.c **** *                  RTC_NOVEMBER <br>
1358:Generated_Source\PSoC4/RTC.c **** *                  RTC_DECEMBER <br>
1359:Generated_Source\PSoC4/RTC.c **** *
1360:Generated_Source\PSoC4/RTC.c **** * \param year A year value.
1361:Generated_Source\PSoC4/RTC.c **** *
1362:Generated_Source\PSoC4/RTC.c **** * \return A date in the "date format".
1363:Generated_Source\PSoC4/RTC.c **** *
1364:Generated_Source\PSoC4/RTC.c **** *******************************************************************************/
1365:Generated_Source\PSoC4/RTC.c **** void RTC_UnixToDateTime(RTC_DATE_TIME* dateTime, uint64 unixTime, uint32 timeFormat)
1366:Generated_Source\PSoC4/RTC.c **** {
1367:Generated_Source\PSoC4/RTC.c ****     uint32 tmpMinute;
1368:Generated_Source\PSoC4/RTC.c ****     uint32 tmpHour;
1369:Generated_Source\PSoC4/RTC.c ****     uint32 tmpAmPmState;
1370:Generated_Source\PSoC4/RTC.c **** 
1371:Generated_Source\PSoC4/RTC.c ****     uint32 tmpDay;
1372:Generated_Source\PSoC4/RTC.c ****     uint32 tmpMonth;
1373:Generated_Source\PSoC4/RTC.c ****     uint32 tmpYear;
1374:Generated_Source\PSoC4/RTC.c **** 
1375:Generated_Source\PSoC4/RTC.c ****     uint32 tmpVar;
1376:Generated_Source\PSoC4/RTC.c **** 
ARM GAS  C:\Users\Petro\AppData\Local\Temp\ccAfRAcN.s 			page 64


1377:Generated_Source\PSoC4/RTC.c ****     tmpAmPmState = 0u;
1378:Generated_Source\PSoC4/RTC.c ****     tmpYear = RTC_YEAR_0;
1379:Generated_Source\PSoC4/RTC.c ****     tmpVar = RTC_SECONDS_PER_NONLEAP_YEAR;
1380:Generated_Source\PSoC4/RTC.c **** 
1381:Generated_Source\PSoC4/RTC.c ****     /* Calculates current year value. Variable tmpYear
1382:Generated_Source\PSoC4/RTC.c ****     *  increments while it contains value greater than number
1383:Generated_Source\PSoC4/RTC.c ****     *  of seconds in current year.
1384:Generated_Source\PSoC4/RTC.c ****     */
1385:Generated_Source\PSoC4/RTC.c ****     while(unixTime > tmpVar)
1386:Generated_Source\PSoC4/RTC.c ****     {
1387:Generated_Source\PSoC4/RTC.c ****         unixTime -= tmpVar;
1388:Generated_Source\PSoC4/RTC.c ****         tmpYear++;
1389:Generated_Source\PSoC4/RTC.c **** 
1390:Generated_Source\PSoC4/RTC.c ****         if(0u != RTC_LeapYear(tmpYear))
1391:Generated_Source\PSoC4/RTC.c ****         {
1392:Generated_Source\PSoC4/RTC.c ****             tmpVar = RTC_SECONDS_PER_LEAP_YEAR;
1393:Generated_Source\PSoC4/RTC.c ****         }
1394:Generated_Source\PSoC4/RTC.c ****         else
1395:Generated_Source\PSoC4/RTC.c ****         {
1396:Generated_Source\PSoC4/RTC.c ****             tmpVar = RTC_SECONDS_PER_NONLEAP_YEAR;
1397:Generated_Source\PSoC4/RTC.c ****         }
1398:Generated_Source\PSoC4/RTC.c **** 
1399:Generated_Source\PSoC4/RTC.c ****     }
1400:Generated_Source\PSoC4/RTC.c **** 
1401:Generated_Source\PSoC4/RTC.c ****     /* Calculates current month value. tmpMonth variable increments
1402:Generated_Source\PSoC4/RTC.c ****      * while unixTime variable value is greater than time
1403:Generated_Source\PSoC4/RTC.c ****      * interval from beginning of current year to beginning of
1404:Generated_Source\PSoC4/RTC.c ****      * current month
1405:Generated_Source\PSoC4/RTC.c ****     */
1406:Generated_Source\PSoC4/RTC.c ****     tmpMonth = (uint32)RTC_JANUARY;
1407:Generated_Source\PSoC4/RTC.c ****     tmpVar = RTC_DaysInMonth(tmpMonth, tmpYear) * RTC_SECONDS_PER_DAY;
1408:Generated_Source\PSoC4/RTC.c **** 
1409:Generated_Source\PSoC4/RTC.c ****     while(unixTime >= tmpVar)
1410:Generated_Source\PSoC4/RTC.c ****     {
1411:Generated_Source\PSoC4/RTC.c ****         unixTime -= tmpVar;
1412:Generated_Source\PSoC4/RTC.c ****         tmpMonth++;
1413:Generated_Source\PSoC4/RTC.c ****         tmpVar = RTC_DaysInMonth(tmpMonth, tmpYear) * RTC_SECONDS_PER_DAY;
1414:Generated_Source\PSoC4/RTC.c ****     }
1415:Generated_Source\PSoC4/RTC.c **** 
1416:Generated_Source\PSoC4/RTC.c ****     /* Calculates current day value. */
1417:Generated_Source\PSoC4/RTC.c ****     tmpDay = (unixTime / RTC_SECONDS_PER_DAY);
1418:Generated_Source\PSoC4/RTC.c ****     tmpVar = tmpDay * RTC_SECONDS_PER_DAY;
1419:Generated_Source\PSoC4/RTC.c ****     unixTime -= (unixTime >= tmpVar) ? tmpVar : 0u;
1420:Generated_Source\PSoC4/RTC.c ****     tmpDay += 1u;
1421:Generated_Source\PSoC4/RTC.c **** 
1422:Generated_Source\PSoC4/RTC.c ****     /* Calculates current hour value. If function works in 12-Hour mode,
1423:Generated_Source\PSoC4/RTC.c ****      * it converts time to 12-Hours mode and calculates AmPm status */
1424:Generated_Source\PSoC4/RTC.c ****     tmpHour = unixTime / RTC_SECONDS_PER_HOUR;
1425:Generated_Source\PSoC4/RTC.c ****     tmpVar  = tmpHour * RTC_SECONDS_PER_HOUR;
1426:Generated_Source\PSoC4/RTC.c ****     if((uint32)RTC_24_HOURS_FORMAT != timeFormat)
1427:Generated_Source\PSoC4/RTC.c ****     {
1428:Generated_Source\PSoC4/RTC.c ****         if(unixTime > RTC_UNIX_TIME_PM)
1429:Generated_Source\PSoC4/RTC.c ****         {
1430:Generated_Source\PSoC4/RTC.c ****             tmpAmPmState = RTC_PM;
1431:Generated_Source\PSoC4/RTC.c ****             tmpHour = (tmpHour > 12u) ? (tmpHour - 12u) : tmpHour;
1432:Generated_Source\PSoC4/RTC.c ****         }
1433:Generated_Source\PSoC4/RTC.c ****         else
ARM GAS  C:\Users\Petro\AppData\Local\Temp\ccAfRAcN.s 			page 65


1434:Generated_Source\PSoC4/RTC.c ****         {
1435:Generated_Source\PSoC4/RTC.c ****             tmpAmPmState = RTC_AM;
1436:Generated_Source\PSoC4/RTC.c ****             tmpHour = (0u != tmpHour) ? tmpHour : 12u;
1437:Generated_Source\PSoC4/RTC.c ****         }
1438:Generated_Source\PSoC4/RTC.c ****     }
1439:Generated_Source\PSoC4/RTC.c ****     unixTime -= (unixTime >= tmpVar) ? tmpVar : 0u;
1440:Generated_Source\PSoC4/RTC.c **** 
1441:Generated_Source\PSoC4/RTC.c ****     /* Calculates current minute.  */
1442:Generated_Source\PSoC4/RTC.c ****     tmpMinute = unixTime / RTC_SECONDS_PER_MINUTE;
1443:Generated_Source\PSoC4/RTC.c ****     tmpVar = tmpMinute * RTC_SECONDS_PER_MINUTE;
1444:Generated_Source\PSoC4/RTC.c **** 
1445:Generated_Source\PSoC4/RTC.c ****     /* Calculates current second. */
1446:Generated_Source\PSoC4/RTC.c ****     unixTime -= (unixTime >= tmpVar) ? tmpVar : 0u;
1447:Generated_Source\PSoC4/RTC.c **** 
1448:Generated_Source\PSoC4/RTC.c **** 
1449:Generated_Source\PSoC4/RTC.c ****     dateTime->date = RTC_ConstructDate(tmpMonth, tmpDay, tmpYear);
1450:Generated_Source\PSoC4/RTC.c ****     dateTime->time = RTC_ConstructTime(timeFormat, tmpAmPmState, tmpHour, tmpMinute, unixTime);
1451:Generated_Source\PSoC4/RTC.c ****     dateTime->dayOfWeek = RTC_GetDayOfWeek(tmpDay, tmpMonth, tmpYear);
1452:Generated_Source\PSoC4/RTC.c **** }
1453:Generated_Source\PSoC4/RTC.c **** 
1454:Generated_Source\PSoC4/RTC.c **** 
1455:Generated_Source\PSoC4/RTC.c **** /*******************************************************************************
1456:Generated_Source\PSoC4/RTC.c **** * Function Name: RTC_RelativeToFixed
1457:Generated_Source\PSoC4/RTC.c **** ****************************************************************************//**
1458:Generated_Source\PSoC4/RTC.c **** *
1459:Generated_Source\PSoC4/RTC.c **** * \brief
1460:Generated_Source\PSoC4/RTC.c **** * This is an internal function to convert a relative date into
1461:Generated_Source\PSoC4/RTC.c **** * a fixed date.
1462:Generated_Source\PSoC4/RTC.c **** *
1463:Generated_Source\PSoC4/RTC.c **** * \param dayOfWeek A day of a week <br>
1464:Generated_Source\PSoC4/RTC.c **** *                 RTC_SUNDAY <br>
1465:Generated_Source\PSoC4/RTC.c **** *                 RTC_MONDAY <br>
1466:Generated_Source\PSoC4/RTC.c **** *                 RTC_TUESDAY <br>
1467:Generated_Source\PSoC4/RTC.c **** *                 RTC_WEDNESDAY <br>
1468:Generated_Source\PSoC4/RTC.c **** *                 RTC_THURSDAY <br>
1469:Generated_Source\PSoC4/RTC.c **** *                 RTC_FRIDAY <br>
1470:Generated_Source\PSoC4/RTC.c **** *                 RTC_SATURDAY <br>
1471:Generated_Source\PSoC4/RTC.c **** *
1472:Generated_Source\PSoC4/RTC.c **** *  \param weekOfMonth A week of a month <br>
1473:Generated_Source\PSoC4/RTC.c **** *                 RTC_FIRST <br>
1474:Generated_Source\PSoC4/RTC.c **** *                 RTC_SECOND <br>
1475:Generated_Source\PSoC4/RTC.c **** *                 RTC_THIRD <br>
1476:Generated_Source\PSoC4/RTC.c **** *                 RTC_FOURTH <br>
1477:Generated_Source\PSoC4/RTC.c **** *                 RTC_FIFTH <br>
1478:Generated_Source\PSoC4/RTC.c **** *                 RTC_LAST <br>
1479:Generated_Source\PSoC4/RTC.c **** *
1480:Generated_Source\PSoC4/RTC.c **** * \param month A month of a year <br>
1481:Generated_Source\PSoC4/RTC.c **** *                  RTC_JANUARY <br>
1482:Generated_Source\PSoC4/RTC.c **** *                  RTC_FEBRUARY <br>
1483:Generated_Source\PSoC4/RTC.c **** *                  RTC_MARCH <br>
1484:Generated_Source\PSoC4/RTC.c **** *                  RTC_APRIL <br>
1485:Generated_Source\PSoC4/RTC.c **** *                  RTC_MAY <br>
1486:Generated_Source\PSoC4/RTC.c **** *                  RTC_JUNE <br>
1487:Generated_Source\PSoC4/RTC.c **** *                  RTC_JULY <br>
1488:Generated_Source\PSoC4/RTC.c **** *                  RTC_AUGUST <br>
1489:Generated_Source\PSoC4/RTC.c **** *                  RTC_SEPTEMBER <br>
1490:Generated_Source\PSoC4/RTC.c **** *                  RTC_OCTOBER <br>
ARM GAS  C:\Users\Petro\AppData\Local\Temp\ccAfRAcN.s 			page 66


1491:Generated_Source\PSoC4/RTC.c **** *                  RTC_NOVEMBER <br>
1492:Generated_Source\PSoC4/RTC.c **** *                  RTC_DECEMBER <br>
1493:Generated_Source\PSoC4/RTC.c **** *
1494:Generated_Source\PSoC4/RTC.c **** * \param year A year value.
1495:Generated_Source\PSoC4/RTC.c **** *
1496:Generated_Source\PSoC4/RTC.c **** * \return A date in the "date format".
1497:Generated_Source\PSoC4/RTC.c **** *
1498:Generated_Source\PSoC4/RTC.c **** *******************************************************************************/
1499:Generated_Source\PSoC4/RTC.c **** uint32 RTC_RelativeToFixed(uint32 dayOfWeek, uint32 weekOfMonth, uint32 month, uint32 year)
1500:Generated_Source\PSoC4/RTC.c **** {
1501:Generated_Source\PSoC4/RTC.c ****     uint32 curDay;
1502:Generated_Source\PSoC4/RTC.c ****     uint32 curWeek;
1503:Generated_Source\PSoC4/RTC.c ****     uint32 daysInMonth;
1504:Generated_Source\PSoC4/RTC.c ****     uint32 dayOfMonthTmp;
1505:Generated_Source\PSoC4/RTC.c **** 
1506:Generated_Source\PSoC4/RTC.c ****     uint32 retVal;
1507:Generated_Source\PSoC4/RTC.c **** 
1508:Generated_Source\PSoC4/RTC.c ****     curDay      = 1u;
1509:Generated_Source\PSoC4/RTC.c ****     curWeek     = (uint32)RTC_FIRST;
1510:Generated_Source\PSoC4/RTC.c ****     daysInMonth = RTC_DaysInMonth(month, year);
1511:Generated_Source\PSoC4/RTC.c ****     dayOfMonthTmp = curDay;
1512:Generated_Source\PSoC4/RTC.c **** 
1513:Generated_Source\PSoC4/RTC.c ****     while((curWeek <= weekOfMonth) && (curDay <= daysInMonth))
1514:Generated_Source\PSoC4/RTC.c ****     {
1515:Generated_Source\PSoC4/RTC.c ****         if(dayOfWeek == RTC_GetDayOfWeek(curDay, month, year))
1516:Generated_Source\PSoC4/RTC.c ****         {
1517:Generated_Source\PSoC4/RTC.c ****             dayOfMonthTmp = curDay;
1518:Generated_Source\PSoC4/RTC.c ****             curWeek++;
1519:Generated_Source\PSoC4/RTC.c ****         }
1520:Generated_Source\PSoC4/RTC.c ****         curDay++;
1521:Generated_Source\PSoC4/RTC.c ****     }
1522:Generated_Source\PSoC4/RTC.c **** 
1523:Generated_Source\PSoC4/RTC.c ****     retVal = RTC_ConstructDate(month, dayOfMonthTmp, year);
1524:Generated_Source\PSoC4/RTC.c **** 
1525:Generated_Source\PSoC4/RTC.c ****     return(retVal);
1526:Generated_Source\PSoC4/RTC.c **** }
1527:Generated_Source\PSoC4/RTC.c **** 
1528:Generated_Source\PSoC4/RTC.c **** 
1529:Generated_Source\PSoC4/RTC.c **** /*******************************************************************************
1530:Generated_Source\PSoC4/RTC.c **** * Function Name: RTC_DaysInMonth
1531:Generated_Source\PSoC4/RTC.c **** ****************************************************************************//**
1532:Generated_Source\PSoC4/RTC.c **** *
1533:Generated_Source\PSoC4/RTC.c **** * \brief
1534:Generated_Source\PSoC4/RTC.c **** *  Returns a number of days in a month passed through the parameters.
1535:Generated_Source\PSoC4/RTC.c **** *
1536:Generated_Source\PSoC4/RTC.c **** * \param
1537:Generated_Source\PSoC4/RTC.c **** *  month A month of a year
1538:Generated_Source\PSoC4/RTC.c **** *  RTC_JANUARY
1539:Generated_Source\PSoC4/RTC.c **** *  RTC_FEBRUARY
1540:Generated_Source\PSoC4/RTC.c **** *  RTC_MARCH
1541:Generated_Source\PSoC4/RTC.c **** *  RTC_APRIL
1542:Generated_Source\PSoC4/RTC.c **** *  RTC_MAY
1543:Generated_Source\PSoC4/RTC.c **** *  RTC_JUNE
1544:Generated_Source\PSoC4/RTC.c **** *  RTC_JULY
1545:Generated_Source\PSoC4/RTC.c **** *  RTC_AUGUST
1546:Generated_Source\PSoC4/RTC.c **** *  RTC_SEPTEMBER
1547:Generated_Source\PSoC4/RTC.c **** *  RTC_OCTOBER
ARM GAS  C:\Users\Petro\AppData\Local\Temp\ccAfRAcN.s 			page 67


1548:Generated_Source\PSoC4/RTC.c **** *  RTC_NOVEMBER
1549:Generated_Source\PSoC4/RTC.c **** *  RTC_DECEMBER
1550:Generated_Source\PSoC4/RTC.c **** *
1551:Generated_Source\PSoC4/RTC.c **** * \param
1552:Generated_Source\PSoC4/RTC.c **** * year A year value.
1553:Generated_Source\PSoC4/RTC.c **** *
1554:Generated_Source\PSoC4/RTC.c **** * \return
1555:Generated_Source\PSoC4/RTC.c **** *  A number of days in a month in the year passed through the parameters.
1556:Generated_Source\PSoC4/RTC.c **** *
1557:Generated_Source\PSoC4/RTC.c **** *******************************************************************************/
1558:Generated_Source\PSoC4/RTC.c **** uint32 RTC_DaysInMonth(uint32 month, uint32 year)
1559:Generated_Source\PSoC4/RTC.c **** {
 957              		.loc 1 1559 0
 958              		.cfi_startproc
 959              	.LVL107:
 960 0000 38B5     		push	{r3, r4, r5, lr}
 961              		.cfi_def_cfa_offset 16
 962              		.cfi_offset 3, -16
 963              		.cfi_offset 4, -12
 964              		.cfi_offset 5, -8
 965              		.cfi_offset 14, -4
1560:Generated_Source\PSoC4/RTC.c ****     uint32 retVal;
1561:Generated_Source\PSoC4/RTC.c **** 
1562:Generated_Source\PSoC4/RTC.c ****     retVal = RTC_daysInMonthTbl[month - 1u];
 966              		.loc 1 1562 0
 967 0002 0F4B     		ldr	r3, .L62
 968 0004 1B18     		add	r3, r3, r0
 969 0006 DD7D     		ldrb	r5, [r3, #23]
 970              	.LVL108:
1563:Generated_Source\PSoC4/RTC.c ****     if((uint32)RTC_FEBRUARY == month)
 971              		.loc 1 1563 0
 972 0008 0228     		cmp	r0, #2
 973 000a 17D1     		bne	.L57
 974 000c 0C1C     		mov	r4, r1
 975              	.LVL109:
 976              	.LBB87:
 977              	.LBB88:
 470:Generated_Source\PSoC4/RTC.h ****     {
 978              		.loc 2 470 0
 979 000e 8B07     		lsl	r3, r1, #30
 980 0010 05D1     		bne	.L58
 981 0012 081C     		mov	r0, r1
 982              	.LVL110:
 983 0014 6421     		mov	r1, #100
 984              	.LVL111:
 985 0016 FFF7FEFF 		bl	__aeabi_uidivmod
 986              	.LVL112:
 987 001a 0029     		cmp	r1, #0
 988 001c 08D1     		bne	.L60
 989              	.L58:
 990 001e 201C     		mov	r0, r4
 991 0020 C821     		mov	r1, #200
 992 0022 4900     		lsl	r1, r1, #1
 993 0024 FFF7FEFF 		bl	__aeabi_uidivmod
 994              	.LVL113:
 995 0028 0029     		cmp	r1, #0
 996 002a 03D1     		bne	.L61
ARM GAS  C:\Users\Petro\AppData\Local\Temp\ccAfRAcN.s 			page 68


 472:Generated_Source\PSoC4/RTC.h ****     }
 997              		.loc 2 472 0
 998 002c 0123     		mov	r3, #1
 999 002e 02E0     		b	.L59
 1000              	.L60:
 1001 0030 0123     		mov	r3, #1
 1002 0032 00E0     		b	.L59
 1003              	.L61:
 476:Generated_Source\PSoC4/RTC.h ****     }
 1004              		.loc 2 476 0
 1005 0034 0023     		mov	r3, #0
 1006              	.L59:
 1007              	.LVL114:
 1008              	.LBE88:
 1009              	.LBE87:
1564:Generated_Source\PSoC4/RTC.c ****     {
1565:Generated_Source\PSoC4/RTC.c ****         if(0u != RTC_LeapYear(year))
 1010              		.loc 1 1565 0
 1011 0036 002B     		cmp	r3, #0
 1012 0038 00D0     		beq	.L57
1566:Generated_Source\PSoC4/RTC.c ****         {
1567:Generated_Source\PSoC4/RTC.c ****             retVal++;
 1013              		.loc 1 1567 0
 1014 003a 0135     		add	r5, r5, #1
 1015              	.LVL115:
 1016              	.L57:
1568:Generated_Source\PSoC4/RTC.c ****         }
1569:Generated_Source\PSoC4/RTC.c ****     }
1570:Generated_Source\PSoC4/RTC.c **** 
1571:Generated_Source\PSoC4/RTC.c ****     return(retVal);
1572:Generated_Source\PSoC4/RTC.c **** }
 1017              		.loc 1 1572 0
 1018 003c 281C     		mov	r0, r5
 1019              		@ sp needed
 1020              	.LVL116:
 1021 003e 38BD     		pop	{r3, r4, r5, pc}
 1022              	.L63:
 1023              		.align	2
 1024              	.L62:
 1025 0040 00000000 		.word	.LANCHOR1
 1026              		.cfi_endproc
 1027              	.LFE47:
 1028              		.size	RTC_DaysInMonth, .-RTC_DaysInMonth
 1029              		.global	__aeabi_uldivmod
 1030              		.section	.text.RTC_UnixToDateTime,"ax",%progbits
 1031              		.align	2
 1032              		.global	RTC_UnixToDateTime
 1033              		.code	16
 1034              		.thumb_func
 1035              		.type	RTC_UnixToDateTime, %function
 1036              	RTC_UnixToDateTime:
 1037              	.LFB45:
1366:Generated_Source\PSoC4/RTC.c ****     uint32 tmpMinute;
 1038              		.loc 1 1366 0
 1039              		.cfi_startproc
 1040              	.LVL117:
 1041 0000 F0B5     		push	{r4, r5, r6, r7, lr}
ARM GAS  C:\Users\Petro\AppData\Local\Temp\ccAfRAcN.s 			page 69


 1042              		.cfi_def_cfa_offset 20
 1043              		.cfi_offset 4, -20
 1044              		.cfi_offset 5, -16
 1045              		.cfi_offset 6, -12
 1046              		.cfi_offset 7, -8
 1047              		.cfi_offset 14, -4
 1048 0002 5F46     		mov	r7, fp
 1049 0004 5646     		mov	r6, r10
 1050 0006 4D46     		mov	r5, r9
 1051 0008 4446     		mov	r4, r8
 1052 000a F0B4     		push	{r4, r5, r6, r7}
 1053              		.cfi_def_cfa_offset 36
 1054              		.cfi_offset 8, -36
 1055              		.cfi_offset 9, -32
 1056              		.cfi_offset 10, -28
 1057              		.cfi_offset 11, -24
 1058 000c 85B0     		sub	sp, sp, #20
 1059              		.cfi_def_cfa_offset 56
 1060 000e 8346     		mov	fp, r0
 1061 0010 141C     		mov	r4, r2
 1062 0012 1D1C     		mov	r5, r3
 1063              	.LVL118:
1379:Generated_Source\PSoC4/RTC.c **** 
 1064              		.loc 1 1379 0
 1065 0014 9A4B     		ldr	r3, .L98
1378:Generated_Source\PSoC4/RTC.c ****     tmpVar = RTC_SECONDS_PER_NONLEAP_YEAR;
 1066              		.loc 1 1378 0
 1067 0016 9B4A     		ldr	r2, .L98+4
 1068              	.LVL119:
 1069 0018 9046     		mov	r8, r2
1385:Generated_Source\PSoC4/RTC.c ****     {
 1070              		.loc 1 1385 0
 1071 001a 20E0     		b	.L65
 1072              	.LVL120:
 1073              	.L69:
1387:Generated_Source\PSoC4/RTC.c ****         tmpYear++;
 1074              		.loc 1 1387 0
 1075 001c 009A     		ldr	r2, [sp]
 1076 001e 019B     		ldr	r3, [sp, #4]
 1077 0020 A41A     		sub	r4, r4, r2
 1078 0022 9D41     		sbc	r5, r5, r3
 1079              	.LVL121:
1388:Generated_Source\PSoC4/RTC.c **** 
 1080              		.loc 1 1388 0
 1081 0024 0123     		mov	r3, #1
 1082 0026 9C46     		mov	ip, r3
 1083 0028 E044     		add	r8, r8, ip
 1084              	.LVL122:
 1085              	.LBB97:
 1086              	.LBB98:
 470:Generated_Source\PSoC4/RTC.h ****     {
 1087              		.loc 2 470 0
 1088 002a 4346     		mov	r3, r8
 1089 002c 9B07     		lsl	r3, r3, #30
 1090 002e 05D1     		bne	.L66
 1091 0030 4046     		mov	r0, r8
 1092 0032 6421     		mov	r1, #100
ARM GAS  C:\Users\Petro\AppData\Local\Temp\ccAfRAcN.s 			page 70


 1093 0034 FFF7FEFF 		bl	__aeabi_uidivmod
 1094              	.LVL123:
 1095 0038 0029     		cmp	r1, #0
 1096 003a 08D1     		bne	.L87
 1097              	.L66:
 1098 003c 4046     		mov	r0, r8
 1099 003e C821     		mov	r1, #200
 1100 0040 4900     		lsl	r1, r1, #1
 1101 0042 FFF7FEFF 		bl	__aeabi_uidivmod
 1102              	.LVL124:
 1103 0046 0029     		cmp	r1, #0
 1104 0048 03D1     		bne	.L88
 472:Generated_Source\PSoC4/RTC.h ****     }
 1105              		.loc 2 472 0
 1106 004a 0123     		mov	r3, #1
 1107 004c 02E0     		b	.L67
 1108              	.L87:
 1109 004e 0123     		mov	r3, #1
 1110 0050 00E0     		b	.L67
 1111              	.L88:
 476:Generated_Source\PSoC4/RTC.h ****     }
 1112              		.loc 2 476 0
 1113 0052 0023     		mov	r3, #0
 1114              	.L67:
 1115              	.LVL125:
 1116              	.LBE98:
 1117              	.LBE97:
1390:Generated_Source\PSoC4/RTC.c ****         {
 1118              		.loc 1 1390 0
 1119 0054 002B     		cmp	r3, #0
 1120 0056 01D0     		beq	.L89
1392:Generated_Source\PSoC4/RTC.c ****         }
 1121              		.loc 1 1392 0
 1122 0058 8B4B     		ldr	r3, .L98+8
 1123              	.LVL126:
 1124 005a 00E0     		b	.L65
 1125              	.LVL127:
 1126              	.L89:
1396:Generated_Source\PSoC4/RTC.c ****         }
 1127              		.loc 1 1396 0
 1128 005c 884B     		ldr	r3, .L98
 1129              	.LVL128:
 1130              	.L65:
1385:Generated_Source\PSoC4/RTC.c ****     {
 1131              		.loc 1 1385 0
 1132 005e 0093     		str	r3, [sp]
 1133 0060 0023     		mov	r3, #0
 1134              	.LVL129:
 1135 0062 0193     		str	r3, [sp, #4]
 1136 0064 002D     		cmp	r5, #0
 1137 0066 D9D1     		bne	.L69
 1138 0068 009A     		ldr	r2, [sp]
 1139 006a 019B     		ldr	r3, [sp, #4]
 1140 006c 9D42     		cmp	r5, r3
 1141 006e 01D1     		bne	.L92
 1142 0070 9442     		cmp	r4, r2
 1143 0072 D3D8     		bhi	.L69
ARM GAS  C:\Users\Petro\AppData\Local\Temp\ccAfRAcN.s 			page 71


 1144              	.L92:
 1145              	.LVL130:
1407:Generated_Source\PSoC4/RTC.c **** 
 1146              		.loc 1 1407 0
 1147 0074 0120     		mov	r0, #1
 1148 0076 4146     		mov	r1, r8
 1149 0078 FFF7FEFF 		bl	RTC_DaysInMonth
 1150              	.LVL131:
 1151 007c 834B     		ldr	r3, .L98+12
 1152 007e 5843     		mul	r0, r3
 1153              	.LVL132:
