ARM GAS  C:\Users\Petro\AppData\Local\Temp\ccFkbsC5.s 			page 1


   1              		.cpu cortex-m0
   2              		.fpu softvfp
   3              		.eabi_attribute 20, 1
   4              		.eabi_attribute 21, 1
   5              		.eabi_attribute 23, 3
   6              		.eabi_attribute 24, 1
   7              		.eabi_attribute 25, 1
   8              		.eabi_attribute 26, 1
   9              		.eabi_attribute 30, 1
  10              		.eabi_attribute 34, 0
  11              		.eabi_attribute 18, 4
  12              		.code	16
  13              		.file	"svt.c"
  14              		.text
  15              	.Ltext0:
  16              		.cfi_sections	.debug_frame
  17              		.section	.text.DecodeByte,"ax",%progbits
  18              		.align	2
  19              		.global	DecodeByte
  20              		.code	16
  21              		.thumb_func
  22              		.type	DecodeByte, %function
  23              	DecodeByte:
  24              	.LFB3:
  25              		.file 1 "svt.c"
   1:svt.c         **** #include "svt.h"
   2:svt.c         **** #include "crc32.h"
   3:svt.c         **** 
   4:svt.c         **** enum PRO_STATES 
   5:svt.c         **** {
   6:svt.c         **** 	WAIT_STX,
   7:svt.c         **** 	READ_SQ,
   8:svt.c         **** 	READ_FR1,
   9:svt.c         **** 	READ_COM,
  10:svt.c         **** 	READ_FR2,
  11:svt.c         **** 	READ_DA1,
  12:svt.c         **** 	READ_DA2,
  13:svt.c         **** 	READ_DA3,
  14:svt.c         **** 	READ_FR3,
  15:svt.c         **** 	READ_CHS,
  16:svt.c         **** 	READ_ETX
  17:svt.c         **** };
  18:svt.c         **** 
  19:svt.c         **** #define LEN_SEQ 4
  20:svt.c         **** #define LEN_COM 2
  21:svt.c         **** #define LEN_DA1 16
  22:svt.c         **** #define LEN_DA2 4
  23:svt.c         **** #define LEN_DA3 4
  24:svt.c         **** #define LEN_CHS 8
  25:svt.c         **** 
  26:svt.c         **** #define HALF_BYTE 4
  27:svt.c         **** 
  28:svt.c         **** #define STX '<'
  29:svt.c         **** #define ETX '>'
  30:svt.c         **** #define FR1 '!'
  31:svt.c         **** #define FR2 ':'
  32:svt.c         **** #define FR3 '@'
ARM GAS  C:\Users\Petro\AppData\Local\Temp\ccFkbsC5.s 			page 2


  33:svt.c         **** 
  34:svt.c         **** #define STX_S                   ("<")
  35:svt.c         **** #define FRM0                    ("!")
  36:svt.c         **** #define FRM1                    ("@")
  37:svt.c         **** #define FRM2                    ("#")
  38:svt.c         **** #define ETX_S                   (">")
  39:svt.c         **** 
  40:svt.c         **** uint8_t PROTO_STATE, LenD1, LenD2, LenD3, LenSeq, LenChS, LenC;
  41:svt.c         **** 
  42:svt.c         **** uint8_t DecodeByte(uint8_t Inp);
  43:svt.c         **** uint8_t CheckSymb(uint8_t Inp);
  44:svt.c         **** void 	ResetPacket(struct Resp *Data);
  45:svt.c         **** 
  46:svt.c         **** uint8_t UnpackData(struct Resp *Data, uint8_t InByte)
  47:svt.c         **** {
  48:svt.c         **** 	uint32_t ERR_CODE = 0;
  49:svt.c         **** 	InByte = DecodeByte(InByte);
  50:svt.c         ****     if (InByte == STX)
  51:svt.c         **** 	{
  52:svt.c         **** 	    PROTO_STATE = READ_SQ;
  53:svt.c         **** 		ResetPacket(Data);
  54:svt.c         **** 		LenSeq = 0;
  55:svt.c         **** 		LenC = 0;
  56:svt.c         **** 		LenChS = 0;
  57:svt.c         **** 		LenD1 = 0;
  58:svt.c         **** 		LenD2 = 0;
  59:svt.c         ****         LenD3 = 0;
  60:svt.c         ****     }
  61:svt.c         ****     else
  62:svt.c         ****     {
  63:svt.c         ****     	switch(PROTO_STATE){
  64:svt.c         ****     		case READ_SQ:
  65:svt.c         ****     		{
  66:svt.c         ****     			if(CheckSymb(InByte))
  67:svt.c         ****     			{
  68:svt.c         ****     				Data->Seq |= InByte;
  69:svt.c         ****     				LenSeq++;
  70:svt.c         ****     				if (LenSeq == LEN_SEQ)
  71:svt.c         ****     				{
  72:svt.c         ****     					PROTO_STATE = READ_FR1;
  73:svt.c         ****     				}
  74:svt.c         ****     				else
  75:svt.c         ****     				{
  76:svt.c         ****     					Data->Seq = Data->Seq << HALF_BYTE;
  77:svt.c         ****     				}
  78:svt.c         ****     			}
  79:svt.c         ****     			else{
  80:svt.c         ****     				PROTO_STATE = WAIT_STX;
  81:svt.c         ****     				ERR_CODE = BAD_SEQ;
  82:svt.c         ****     			}
  83:svt.c         ****     			break;
  84:svt.c         ****     		}  		
  85:svt.c         ****     		case READ_FR1:
  86:svt.c         ****     		{
  87:svt.c         ****     			if (InByte == FR1)
  88:svt.c         ****     			{
  89:svt.c         ****     				PROTO_STATE = READ_COM;
ARM GAS  C:\Users\Petro\AppData\Local\Temp\ccFkbsC5.s 			page 3


  90:svt.c         ****     			}
  91:svt.c         ****     			else
  92:svt.c         ****     			{
  93:svt.c         ****     				ResetPacket(Data);
  94:svt.c         ****     				ERR_CODE = NO_FR1;
  95:svt.c         ****     				PROTO_STATE = WAIT_STX;
  96:svt.c         ****     			}
  97:svt.c         ****     			break;
  98:svt.c         ****     		}
  99:svt.c         ****     		case READ_COM:
 100:svt.c         ****     		{
 101:svt.c         ****     			//printf("InByte Command: %02X\n", InByte);
 102:svt.c         ****     			if(CheckSymb(InByte))
 103:svt.c         ****     			{
 104:svt.c         ****     				Data->Command |= InByte;
 105:svt.c         ****     				LenC ++;
 106:svt.c         ****     				//printf("LenC Command: %d\n", LenC);
 107:svt.c         ****     				if (LenC == LEN_COM)
 108:svt.c         ****     				{
 109:svt.c         ****     					PROTO_STATE = READ_FR2;
 110:svt.c         ****     				}
 111:svt.c         ****     				else
 112:svt.c         ****     				{
 113:svt.c         ****     					Data->Command = Data->Command << HALF_BYTE;
 114:svt.c         ****     				}
 115:svt.c         ****     			}
 116:svt.c         ****     			else
 117:svt.c         ****     			{
 118:svt.c         ****     				ResetPacket(Data);
 119:svt.c         ****     				PROTO_STATE = WAIT_STX;
 120:svt.c         ****     				ERR_CODE = INV_COMM;
 121:svt.c         ****     			}
 122:svt.c         ****     			break;
 123:svt.c         ****     		}
 124:svt.c         ****     		case READ_FR2:
 125:svt.c         ****     		{
 126:svt.c         ****     			if (InByte == FR2)
 127:svt.c         ****     			{
 128:svt.c         ****     				PROTO_STATE = READ_DA1;
 129:svt.c         ****     			}
 130:svt.c         ****     			else
 131:svt.c         ****     			{
 132:svt.c         ****     				ResetPacket(Data);
 133:svt.c         ****     				ERR_CODE = NO_FR2;
 134:svt.c         ****     				PROTO_STATE = WAIT_STX;
 135:svt.c         ****     			}
 136:svt.c         ****     			break;
 137:svt.c         ****     		}
 138:svt.c         ****     		case READ_DA1:
 139:svt.c         ****     		{
 140:svt.c         **** 
 141:svt.c         ****     			if(CheckSymb(InByte))
 142:svt.c         ****     			{
 143:svt.c         ****     				Data->Data1 |= InByte;
 144:svt.c         ****     				LenD1++;
 145:svt.c         ****     				if (LenD1 == LEN_DA1)
 146:svt.c         ****     				{
ARM GAS  C:\Users\Petro\AppData\Local\Temp\ccFkbsC5.s 			page 4


 147:svt.c         ****     					PROTO_STATE = READ_DA2;
 148:svt.c         ****     				}
 149:svt.c         ****     				else
 150:svt.c         ****     				{
 151:svt.c         ****     					Data->Data1 = Data->Data1 << HALF_BYTE;
 152:svt.c         ****     				}
 153:svt.c         ****     			}
 154:svt.c         ****     			else{
 155:svt.c         ****     				ResetPacket(Data);
 156:svt.c         ****     				ERR_CODE = INV_DA1;
 157:svt.c         ****     				PROTO_STATE = WAIT_STX;
 158:svt.c         ****     			}
 159:svt.c         ****     			break;
 160:svt.c         ****     		}
 161:svt.c         ****     		case READ_DA2:
 162:svt.c         ****     		{
 163:svt.c         ****     			
 164:svt.c         **** 
 165:svt.c         ****     			if(CheckSymb(InByte))
 166:svt.c         ****     			{
 167:svt.c         ****     				Data->Data2 |= InByte;
 168:svt.c         ****     				LenD2++;
 169:svt.c         ****     				if (LenD2 == LEN_DA2)
 170:svt.c         ****     				{
 171:svt.c         ****     					PROTO_STATE = READ_DA3;
 172:svt.c         ****     				}
 173:svt.c         ****     				else
 174:svt.c         ****     				{
 175:svt.c         ****     					Data->Data2 = Data->Data2 << HALF_BYTE;
 176:svt.c         ****     				}
 177:svt.c         ****     			}
 178:svt.c         ****     			else{
 179:svt.c         ****     				ResetPacket(Data);
 180:svt.c         ****     				ERR_CODE = INV_DA2;
 181:svt.c         ****     				PROTO_STATE = WAIT_STX;
 182:svt.c         ****     			}
 183:svt.c         ****     			break;
 184:svt.c         ****     		}
 185:svt.c         **** 			case READ_DA3:
 186:svt.c         ****     		{
 187:svt.c         ****     			if(CheckSymb(InByte))
 188:svt.c         ****     			{
 189:svt.c         ****     				Data->Data3 |= InByte;
 190:svt.c         ****     				LenD3++;
 191:svt.c         ****     				if (LenD3 == LEN_DA3)
 192:svt.c         ****     				{
 193:svt.c         ****     					PROTO_STATE = READ_FR3;
 194:svt.c         ****     				}
 195:svt.c         ****     				else
 196:svt.c         ****     				{
 197:svt.c         ****     					Data->Data3 = Data->Data3 << HALF_BYTE;
 198:svt.c         ****     				}
 199:svt.c         ****     			}
 200:svt.c         ****     			else{
 201:svt.c         ****     				ResetPacket(Data);
 202:svt.c         ****     				ERR_CODE = INV_DA3;
 203:svt.c         ****     				PROTO_STATE = WAIT_STX;
ARM GAS  C:\Users\Petro\AppData\Local\Temp\ccFkbsC5.s 			page 5


 204:svt.c         ****     			}
 205:svt.c         ****     			break;
 206:svt.c         ****     		}
 207:svt.c         ****     		case READ_FR3:
 208:svt.c         ****     		{
 209:svt.c         ****     			if (InByte == FR3)
 210:svt.c         ****     			{
 211:svt.c         ****     				PROTO_STATE = READ_CHS;
 212:svt.c         ****     			}
 213:svt.c         ****     			else
 214:svt.c         ****     			{
 215:svt.c         ****     				ResetPacket(Data);
 216:svt.c         ****     				ERR_CODE = NO_FR3;
 217:svt.c         ****     				PROTO_STATE = WAIT_STX;
 218:svt.c         ****     			}
 219:svt.c         ****     			break;
 220:svt.c         ****     		}
 221:svt.c         ****     		case READ_CHS:
 222:svt.c         ****     		{
 223:svt.c         ****     			if(CheckSymb(InByte))
 224:svt.c         ****     			{
 225:svt.c         ****     				Data->CheckSum |= InByte;
 226:svt.c         ****     				LenChS++;
 227:svt.c         ****     				if (LenChS == LEN_CHS)
 228:svt.c         ****     				{
 229:svt.c         ****     					PROTO_STATE = READ_ETX;
 230:svt.c         ****     				}
 231:svt.c         ****     				else
 232:svt.c         ****     				{
 233:svt.c         ****     					Data->CheckSum = Data->CheckSum << HALF_BYTE;
 234:svt.c         ****     				}
 235:svt.c         ****     			}
 236:svt.c         ****     			else
 237:svt.c         ****     			{
 238:svt.c         ****     				ResetPacket(Data);
 239:svt.c         ****     				ERR_CODE = INV_CKECKSUM;
 240:svt.c         ****     				PROTO_STATE = WAIT_STX;
 241:svt.c         ****     			}
 242:svt.c         ****     			break;
 243:svt.c         ****     		}
 244:svt.c         ****     		case READ_ETX:
 245:svt.c         ****     		{
 246:svt.c         ****     			if (InByte == ETX)
 247:svt.c         ****     			{
 248:svt.c         ****                     uint32_t _tmpcrc;
 249:svt.c         ****                     char _tmpdata[40];
 250:svt.c         ****                     sprintf(_tmpdata, "%02X:%08X%08X%04X%04X", Data->Command, 
 251:svt.c         ****                         (uint32_t)((Data->Data1 & 0xFFFFFFFF00000000) >> 32), 
 252:svt.c         ****                         (uint32_t)(Data->Data1 & 0x00000000FFFFFFFF), 
 253:svt.c         ****                         Data->Data2, Data->Data3);
 254:svt.c         ****                     _tmpcrc = crc32_reset();
 255:svt.c         ****                     _tmpcrc = crc32_calc_block((uint8_t *)"A", 1, _tmpcrc);
 256:svt.c         ****                     _tmpcrc = crc32_calc_block((uint8_t *)_tmpdata, strlen(_tmpdata), _tmpcrc);
 257:svt.c         ****     				_tmpcrc = crc32_calc_block((uint8_t *)"F", 1, _tmpcrc);
 258:svt.c         ****                     _tmpcrc = crc32_final(_tmpcrc);
 259:svt.c         ****                     if (_tmpcrc == Data->CheckSum)
 260:svt.c         ****                     {
ARM GAS  C:\Users\Petro\AppData\Local\Temp\ccFkbsC5.s 			page 6


 261:svt.c         ****                         Data->EndPacket = 1;
 262:svt.c         ****     				    ERR_CODE = PARSED_OK;
 263:svt.c         ****                     }
 264:svt.c         ****                     else
 265:svt.c         ****                     {
 266:svt.c         ****                         Data->EndPacket = 0;
 267:svt.c         ****                         ERR_CODE = 10;
 268:svt.c         ****                     }
 269:svt.c         ****     			}
 270:svt.c         ****     			else{
 271:svt.c         ****     				ERR_CODE = NO_ETX;
 272:svt.c         ****     				ResetPacket(Data);
 273:svt.c         ****     			}
 274:svt.c         ****     			PROTO_STATE = WAIT_STX;
 275:svt.c         ****     			break;
 276:svt.c         ****     		}
 277:svt.c         ****             default: 
 278:svt.c         ****             {
 279:svt.c         ****                 ResetPacket(Data);
 280:svt.c         ****             }
 281:svt.c         ****     	}
 282:svt.c         ****     } 
 283:svt.c         ****     return ERR_CODE;
 284:svt.c         **** }
 285:svt.c         **** 
 286:svt.c         **** uint8_t DecodeByte(uint8_t Inp)
 287:svt.c         **** {
  26              		.loc 1 287 0
  27              		.cfi_startproc
  28              	.LVL0:
 288:svt.c         **** 	if ((Inp >= 'A') && (Inp <= 'F'))
  29              		.loc 1 288 0
  30 0000 031C     		mov	r3, r0
  31 0002 413B     		sub	r3, r3, #65
  32 0004 052B     		cmp	r3, #5
  33 0006 02D8     		bhi	.L2
 289:svt.c         **** 	{
 290:svt.c         **** 		Inp -= 0x37;
  34              		.loc 1 290 0
  35 0008 3738     		sub	r0, r0, #55
  36              	.LVL1:
  37 000a C3B2     		uxtb	r3, r0
  38              	.LVL2:
  39 000c 05E0     		b	.L3
  40              	.LVL3:
  41              	.L2:
 291:svt.c         **** 	}
 292:svt.c         **** 	else if ((Inp >= '0') && (Inp <= '9')){
  42              		.loc 1 292 0
  43 000e 031C     		mov	r3, r0
  44 0010 303B     		sub	r3, r3, #48
  45 0012 DBB2     		uxtb	r3, r3
  46 0014 092B     		cmp	r3, #9
  47 0016 00D9     		bls	.L3
  48 0018 031C     		mov	r3, r0
  49              	.LVL4:
  50              	.L3:
ARM GAS  C:\Users\Petro\AppData\Local\Temp\ccFkbsC5.s 			page 7


 293:svt.c         **** 		Inp -= 0x30;
 294:svt.c         **** 	}
 295:svt.c         **** 	return Inp;
 296:svt.c         **** }
  51              		.loc 1 296 0
  52 001a 181C     		mov	r0, r3
  53              		@ sp needed
  54 001c 7047     		bx	lr
  55              		.cfi_endproc
  56              	.LFE3:
  57              		.size	DecodeByte, .-DecodeByte
  58 001e C046     		.section	.text.CheckSymb,"ax",%progbits
  59              		.align	2
  60              		.global	CheckSymb
  61              		.code	16
  62              		.thumb_func
  63              		.type	CheckSymb, %function
  64              	CheckSymb:
  65              	.LFB4:
 297:svt.c         **** 
 298:svt.c         **** uint8_t CheckSymb(uint8_t Inp)
 299:svt.c         **** {
  66              		.loc 1 299 0
  67              		.cfi_startproc
  68              	.LVL5:
 300:svt.c         **** 	uint8_t Val = 1;
 301:svt.c         **** 
 302:svt.c         **** 	if ((Inp > 0xF) || (Inp < 0x0))
  69              		.loc 1 302 0
  70 0000 0F28     		cmp	r0, #15
  71 0002 01D8     		bhi	.L6
 300:svt.c         **** 	uint8_t Val = 1;
  72              		.loc 1 300 0
  73 0004 0120     		mov	r0, #1
  74              	.LVL6:
  75 0006 00E0     		b	.L5
  76              	.LVL7:
  77              	.L6:
 303:svt.c         **** 	{
 304:svt.c         **** 		Val = 0;
  78              		.loc 1 304 0
  79 0008 0020     		mov	r0, #0
  80              	.LVL8:
  81              	.L5:
 305:svt.c         **** 	}
 306:svt.c         **** 	return Val;
 307:svt.c         **** }
  82              		.loc 1 307 0
  83              		@ sp needed
  84 000a 7047     		bx	lr
  85              		.cfi_endproc
  86              	.LFE4:
  87              		.size	CheckSymb, .-CheckSymb
  88              		.section	.text.ResetPacket,"ax",%progbits
  89              		.align	2
  90              		.global	ResetPacket
  91              		.code	16
ARM GAS  C:\Users\Petro\AppData\Local\Temp\ccFkbsC5.s 			page 8


  92              		.thumb_func
  93              		.type	ResetPacket, %function
  94              	ResetPacket:
  95              	.LFB5:
 308:svt.c         **** 
 309:svt.c         **** void ResetPacket(struct Resp *Data)
 310:svt.c         **** {
  96              		.loc 1 310 0
  97              		.cfi_startproc
  98              	.LVL9:
  99 0000 30B5     		push	{r4, r5, lr}
 100              		.cfi_def_cfa_offset 12
 101              		.cfi_offset 4, -12
 102              		.cfi_offset 5, -8
 103              		.cfi_offset 14, -4
 311:svt.c         **** 	Data->Seq = 0;
 104              		.loc 1 311 0
 105 0002 0023     		mov	r3, #0
 106 0004 0380     		strh	r3, [r0]
 312:svt.c         **** 	Data->Command = 0;
 107              		.loc 1 312 0
 108 0006 4360     		str	r3, [r0, #4]
 313:svt.c         **** 	Data->Data1 = 0;
 109              		.loc 1 313 0
 110 0008 0024     		mov	r4, #0
 111 000a 0025     		mov	r5, #0
 112 000c 8460     		str	r4, [r0, #8]
 113 000e C560     		str	r5, [r0, #12]
 314:svt.c         **** 	Data->Data2 = 0;
 114              		.loc 1 314 0
 115 0010 0382     		strh	r3, [r0, #16]
 315:svt.c         **** 	Data->Data3 = 0;
 116              		.loc 1 315 0
 117 0012 4382     		strh	r3, [r0, #18]
 316:svt.c         **** 	Data->CheckSum = 0;
 118              		.loc 1 316 0
 119 0014 4361     		str	r3, [r0, #20]
 317:svt.c         **** 	Data->EndPacket = 0;
 120              		.loc 1 317 0
 121 0016 0376     		strb	r3, [r0, #24]
 318:svt.c         **** }
 122              		.loc 1 318 0
 123              		@ sp needed
 124 0018 30BD     		pop	{r4, r5, pc}
 125              		.cfi_endproc
 126              	.LFE5:
 127              		.size	ResetPacket, .-ResetPacket
 128 001a C046     		.section	.text.UnpackData,"ax",%progbits
 129              		.align	2
 130              		.global	UnpackData
 131              		.code	16
 132              		.thumb_func
 133              		.type	UnpackData, %function
 134              	UnpackData:
 135              	.LFB2:
  47:svt.c         **** 	uint32_t ERR_CODE = 0;
 136              		.loc 1 47 0
ARM GAS  C:\Users\Petro\AppData\Local\Temp\ccFkbsC5.s 			page 9


 137              		.cfi_startproc
 138              	.LVL10:
 139 0000 30B5     		push	{r4, r5, lr}
 140              		.cfi_def_cfa_offset 12
 141              		.cfi_offset 4, -12
 142              		.cfi_offset 5, -8
 143              		.cfi_offset 14, -4
 144 0002 8FB0     		sub	sp, sp, #60
 145              		.cfi_def_cfa_offset 72
 146 0004 051C     		mov	r5, r0
 147              	.LVL11:
  49:svt.c         ****     if (InByte == STX)
 148              		.loc 1 49 0
 149 0006 081C     		mov	r0, r1
 150              	.LVL12:
 151 0008 FFF7FEFF 		bl	DecodeByte
 152              	.LVL13:
 153 000c 041C     		mov	r4, r0
 154 000e 021E     		sub	r2, r0, #0
 155              	.LVL14:
  50:svt.c         **** 	{
 156              		.loc 1 50 0
 157 0010 3C2A     		cmp	r2, #60
 158 0012 14D1     		bne	.L9
  52:svt.c         **** 		ResetPacket(Data);
 159              		.loc 1 52 0
 160 0014 3B3A     		sub	r2, r2, #59
 161 0016 A34B     		ldr	r3, .L42
 162 0018 1A70     		strb	r2, [r3]
  53:svt.c         **** 		LenSeq = 0;
 163              		.loc 1 53 0
 164 001a 281C     		mov	r0, r5
 165              	.LVL15:
 166 001c FFF7FEFF 		bl	ResetPacket
 167              	.LVL16:
  54:svt.c         **** 		LenC = 0;
 168              		.loc 1 54 0
 169 0020 0023     		mov	r3, #0
 170 0022 A14A     		ldr	r2, .L42+4
 171 0024 1370     		strb	r3, [r2]
  55:svt.c         **** 		LenChS = 0;
 172              		.loc 1 55 0
 173 0026 A14A     		ldr	r2, .L42+8
 174 0028 1370     		strb	r3, [r2]
  56:svt.c         **** 		LenD1 = 0;
 175              		.loc 1 56 0
 176 002a A14A     		ldr	r2, .L42+12
 177 002c 1370     		strb	r3, [r2]
  57:svt.c         **** 		LenD2 = 0;
 178              		.loc 1 57 0
 179 002e A14A     		ldr	r2, .L42+16
 180 0030 1370     		strb	r3, [r2]
  58:svt.c         ****         LenD3 = 0;
 181              		.loc 1 58 0
 182 0032 A14A     		ldr	r2, .L42+20
 183 0034 1370     		strb	r3, [r2]
  59:svt.c         ****     }
ARM GAS  C:\Users\Petro\AppData\Local\Temp\ccFkbsC5.s 			page 10


 184              		.loc 1 59 0
 185 0036 A14A     		ldr	r2, .L42+24
 186 0038 1370     		strb	r3, [r2]
  48:svt.c         **** 	InByte = DecodeByte(InByte);
 187              		.loc 1 48 0
 188 003a 0020     		mov	r0, #0
 189 003c 2EE1     		b	.L10
 190              	.LVL17:
 191              	.L9:
  63:svt.c         ****     		case READ_SQ:
 192              		.loc 1 63 0
 193 003e 994B     		ldr	r3, .L42
 194 0040 1978     		ldrb	r1, [r3]
 195 0042 0A29     		cmp	r1, #10
 196 0044 00D9     		bls	.LCB146
 197 0046 25E1     		b	.L11	@long jump
 198              	.LCB146:
 199 0048 8B00     		lsl	r3, r1, #2
 200 004a 9D49     		ldr	r1, .L42+28
 201 004c CB58     		ldr	r3, [r1, r3]
 202 004e 9F46     		mov	pc, r3
 203              		.section	.rodata
 204              		.align	2
 205              	.L13:
 206 0000 94020000 		.word	.L11
 207 0004 50000000 		.word	.L12
 208 0008 8A000000 		.word	.L14
 209 000c A8000000 		.word	.L15
 210 0010 E6000000 		.word	.L16
 211 0014 04010000 		.word	.L17
 212 0018 4C010000 		.word	.L18
 213 001c 8C010000 		.word	.L19
 214 0020 CC010000 		.word	.L20
 215 0024 EA010000 		.word	.L21
 216 0028 28020000 		.word	.L22
 217              		.section	.text.UnpackData
 218              	.L12:
  66:svt.c         ****     			{
 219              		.loc 1 66 0
 220 0050 FFF7FEFF 		bl	CheckSymb
 221              	.LVL18:
 222 0054 0028     		cmp	r0, #0
 223 0056 13D0     		beq	.L23
  68:svt.c         ****     				LenSeq++;
 224              		.loc 1 68 0
 225 0058 2B88     		ldrh	r3, [r5]
 226 005a 1C43     		orr	r4, r3
 227 005c 2C80     		strh	r4, [r5]
  69:svt.c         ****     				if (LenSeq == LEN_SEQ)
 228              		.loc 1 69 0
 229 005e 924A     		ldr	r2, .L42+4
 230 0060 1378     		ldrb	r3, [r2]
 231 0062 0133     		add	r3, r3, #1
 232 0064 DBB2     		uxtb	r3, r3
 233 0066 1370     		strb	r3, [r2]
  70:svt.c         ****     				{
 234              		.loc 1 70 0
ARM GAS  C:\Users\Petro\AppData\Local\Temp\ccFkbsC5.s 			page 11


 235 0068 042B     		cmp	r3, #4
 236 006a 04D1     		bne	.L24
  72:svt.c         ****     				}
 237              		.loc 1 72 0
 238 006c 0222     		mov	r2, #2
 239 006e 8D4B     		ldr	r3, .L42
 240 0070 1A70     		strb	r2, [r3]
  48:svt.c         **** 	InByte = DecodeByte(InByte);
 241              		.loc 1 48 0
 242 0072 0020     		mov	r0, #0
 243 0074 12E1     		b	.L10
 244              	.L24:
  76:svt.c         ****     				}
 245              		.loc 1 76 0
 246 0076 2B88     		ldrh	r3, [r5]
 247 0078 1B01     		lsl	r3, r3, #4
 248 007a 2B80     		strh	r3, [r5]
  48:svt.c         **** 	InByte = DecodeByte(InByte);
 249              		.loc 1 48 0
 250 007c 0020     		mov	r0, #0
 251 007e 0DE1     		b	.L10
 252              	.L23:
  80:svt.c         ****     				ERR_CODE = BAD_SEQ;
 253              		.loc 1 80 0
 254 0080 0022     		mov	r2, #0
 255 0082 884B     		ldr	r3, .L42
 256 0084 1A70     		strb	r2, [r3]
 257              	.LVL19:
  81:svt.c         ****     			}
 258              		.loc 1 81 0
 259 0086 0120     		mov	r0, #1
 260 0088 08E1     		b	.L10
 261              	.LVL20:
 262              	.L14:
  87:svt.c         ****     			{
 263              		.loc 1 87 0
 264 008a 2128     		cmp	r0, #33
 265 008c 04D1     		bne	.L25
  89:svt.c         ****     			}
 266              		.loc 1 89 0
 267 008e 1E3A     		sub	r2, r2, #30
 268 0090 844B     		ldr	r3, .L42
 269 0092 1A70     		strb	r2, [r3]
  48:svt.c         **** 	InByte = DecodeByte(InByte);
 270              		.loc 1 48 0
 271 0094 0020     		mov	r0, #0
 272              	.LVL21:
 273 0096 01E1     		b	.L10
 274              	.LVL22:
 275              	.L25:
  93:svt.c         ****     				ERR_CODE = NO_FR1;
 276              		.loc 1 93 0
 277 0098 281C     		mov	r0, r5
 278              	.LVL23:
 279 009a FFF7FEFF 		bl	ResetPacket
 280              	.LVL24:
  95:svt.c         ****     			}
ARM GAS  C:\Users\Petro\AppData\Local\Temp\ccFkbsC5.s 			page 12


 281              		.loc 1 95 0
 282 009e 0022     		mov	r2, #0
 283 00a0 804B     		ldr	r3, .L42
 284 00a2 1A70     		strb	r2, [r3]
  94:svt.c         ****     				PROTO_STATE = WAIT_STX;
 285              		.loc 1 94 0
 286 00a4 0220     		mov	r0, #2
 287 00a6 F9E0     		b	.L10
 288              	.LVL25:
 289              	.L15:
 102:svt.c         ****     			{
 290              		.loc 1 102 0
 291 00a8 FFF7FEFF 		bl	CheckSymb
 292              	.LVL26:
 293 00ac 0028     		cmp	r0, #0
 294 00ae 12D0     		beq	.L26
 104:svt.c         ****     				LenC ++;
 295              		.loc 1 104 0
 296 00b0 6B68     		ldr	r3, [r5, #4]
 297 00b2 1C43     		orr	r4, r3
 298 00b4 6C60     		str	r4, [r5, #4]
 105:svt.c         ****     				//printf("LenC Command: %d\n", LenC);
 299              		.loc 1 105 0
 300 00b6 7D4A     		ldr	r2, .L42+8
 301 00b8 1378     		ldrb	r3, [r2]
 302 00ba 0133     		add	r3, r3, #1
 303 00bc DBB2     		uxtb	r3, r3
 304 00be 1370     		strb	r3, [r2]
 107:svt.c         ****     				{
 305              		.loc 1 107 0
 306 00c0 022B     		cmp	r3, #2
 307 00c2 04D1     		bne	.L27
 109:svt.c         ****     				}
 308              		.loc 1 109 0
 309 00c4 0422     		mov	r2, #4
 310 00c6 774B     		ldr	r3, .L42
 311 00c8 1A70     		strb	r2, [r3]
  48:svt.c         **** 	InByte = DecodeByte(InByte);
 312              		.loc 1 48 0
 313 00ca 0020     		mov	r0, #0
 314 00cc E6E0     		b	.L10
 315              	.L27:
 113:svt.c         ****     				}
 316              		.loc 1 113 0
 317 00ce 2401     		lsl	r4, r4, #4
 318 00d0 6C60     		str	r4, [r5, #4]
  48:svt.c         **** 	InByte = DecodeByte(InByte);
 319              		.loc 1 48 0
 320 00d2 0020     		mov	r0, #0
 321 00d4 E2E0     		b	.L10
 322              	.L26:
 118:svt.c         ****     				PROTO_STATE = WAIT_STX;
 323              		.loc 1 118 0
 324 00d6 281C     		mov	r0, r5
 325 00d8 FFF7FEFF 		bl	ResetPacket
 326              	.LVL27:
 119:svt.c         ****     				ERR_CODE = INV_COMM;
ARM GAS  C:\Users\Petro\AppData\Local\Temp\ccFkbsC5.s 			page 13


 327              		.loc 1 119 0
 328 00dc 0022     		mov	r2, #0
 329 00de 714B     		ldr	r3, .L42
 330 00e0 1A70     		strb	r2, [r3]
 331              	.LVL28:
 120:svt.c         ****     			}
 332              		.loc 1 120 0
 333 00e2 0320     		mov	r0, #3
 334 00e4 DAE0     		b	.L10
 335              	.LVL29:
 336              	.L16:
 126:svt.c         ****     			{
 337              		.loc 1 126 0
 338 00e6 3A28     		cmp	r0, #58
 339 00e8 04D1     		bne	.L28
 128:svt.c         ****     			}
 340              		.loc 1 128 0
 341 00ea 353A     		sub	r2, r2, #53
 342 00ec 6D4B     		ldr	r3, .L42
 343 00ee 1A70     		strb	r2, [r3]
  48:svt.c         **** 	InByte = DecodeByte(InByte);
 344              		.loc 1 48 0
 345 00f0 0020     		mov	r0, #0
 346              	.LVL30:
 347 00f2 D3E0     		b	.L10
 348              	.LVL31:
 349              	.L28:
 132:svt.c         ****     				ERR_CODE = NO_FR2;
 350              		.loc 1 132 0
 351 00f4 281C     		mov	r0, r5
 352              	.LVL32:
 353 00f6 FFF7FEFF 		bl	ResetPacket
 354              	.LVL33:
 134:svt.c         ****     			}
 355              		.loc 1 134 0
 356 00fa 0022     		mov	r2, #0
 357 00fc 694B     		ldr	r3, .L42
 358 00fe 1A70     		strb	r2, [r3]
 133:svt.c         ****     				PROTO_STATE = WAIT_STX;
 359              		.loc 1 133 0
 360 0100 0420     		mov	r0, #4
 361 0102 CBE0     		b	.L10
 362              	.LVL34:
 363              	.L17:
 141:svt.c         ****     			{
 364              		.loc 1 141 0
 365 0104 FFF7FEFF 		bl	CheckSymb
 366              	.LVL35:
 367 0108 0028     		cmp	r0, #0
 368 010a 17D0     		beq	.L29
 143:svt.c         ****     				LenD1++;
 369              		.loc 1 143 0
 370 010c AB68     		ldr	r3, [r5, #8]
 371 010e 1C43     		orr	r4, r3
 372 0110 EA68     		ldr	r2, [r5, #12]
 373 0112 AC60     		str	r4, [r5, #8]
 144:svt.c         ****     				if (LenD1 == LEN_DA1)
ARM GAS  C:\Users\Petro\AppData\Local\Temp\ccFkbsC5.s 			page 14


 374              		.loc 1 144 0
 375 0114 6749     		ldr	r1, .L42+16
 376 0116 0B78     		ldrb	r3, [r1]
 377 0118 0133     		add	r3, r3, #1
 378 011a DBB2     		uxtb	r3, r3
 379 011c 0B70     		strb	r3, [r1]
 145:svt.c         ****     				{
 380              		.loc 1 145 0
 381 011e 102B     		cmp	r3, #16
 382 0120 04D1     		bne	.L30
 147:svt.c         ****     				}
 383              		.loc 1 147 0
 384 0122 0622     		mov	r2, #6
 385 0124 5F4B     		ldr	r3, .L42
 386 0126 1A70     		strb	r2, [r3]
  48:svt.c         **** 	InByte = DecodeByte(InByte);
 387              		.loc 1 48 0
 388 0128 0020     		mov	r0, #0
 389 012a B7E0     		b	.L10
 390              	.L30:
 151:svt.c         ****     				}
 391              		.loc 1 151 0
 392 012c 210F     		lsr	r1, r4, #28
 393 012e 1301     		lsl	r3, r2, #4
 394 0130 0B43     		orr	r3, r1
 395 0132 2401     		lsl	r4, r4, #4
 396 0134 AC60     		str	r4, [r5, #8]
 397 0136 EB60     		str	r3, [r5, #12]
  48:svt.c         **** 	InByte = DecodeByte(InByte);
 398              		.loc 1 48 0
 399 0138 0020     		mov	r0, #0
 400 013a AFE0     		b	.L10
 401              	.L29:
 155:svt.c         ****     				ERR_CODE = INV_DA1;
 402              		.loc 1 155 0
 403 013c 281C     		mov	r0, r5
 404 013e FFF7FEFF 		bl	ResetPacket
 405              	.LVL36:
 157:svt.c         ****     			}
 406              		.loc 1 157 0
 407 0142 0022     		mov	r2, #0
 408 0144 574B     		ldr	r3, .L42
 409 0146 1A70     		strb	r2, [r3]
 156:svt.c         ****     				PROTO_STATE = WAIT_STX;
 410              		.loc 1 156 0
 411 0148 0520     		mov	r0, #5
 412 014a A7E0     		b	.L10
 413              	.LVL37:
 414              	.L18:
 165:svt.c         ****     			{
 415              		.loc 1 165 0
 416 014c FFF7FEFF 		bl	CheckSymb
 417              	.LVL38:
 418 0150 0028     		cmp	r0, #0
 419 0152 13D0     		beq	.L31
 167:svt.c         ****     				LenD2++;
 420              		.loc 1 167 0
ARM GAS  C:\Users\Petro\AppData\Local\Temp\ccFkbsC5.s 			page 15


 421 0154 2B8A     		ldrh	r3, [r5, #16]
 422 0156 1C43     		orr	r4, r3
 423 0158 A4B2     		uxth	r4, r4
 424 015a 2C82     		strh	r4, [r5, #16]
 168:svt.c         ****     				if (LenD2 == LEN_DA2)
 425              		.loc 1 168 0
 426 015c 564A     		ldr	r2, .L42+20
 427 015e 1378     		ldrb	r3, [r2]
 428 0160 0133     		add	r3, r3, #1
 429 0162 DBB2     		uxtb	r3, r3
 430 0164 1370     		strb	r3, [r2]
 169:svt.c         ****     				{
 431              		.loc 1 169 0
 432 0166 042B     		cmp	r3, #4
 433 0168 04D1     		bne	.L32
 171:svt.c         ****     				}
 434              		.loc 1 171 0
 435 016a 0722     		mov	r2, #7
 436 016c 4D4B     		ldr	r3, .L42
 437 016e 1A70     		strb	r2, [r3]
  48:svt.c         **** 	InByte = DecodeByte(InByte);
 438              		.loc 1 48 0
 439 0170 0020     		mov	r0, #0
 440 0172 93E0     		b	.L10
 441              	.L32:
 175:svt.c         ****     				}
 442              		.loc 1 175 0
 443 0174 2401     		lsl	r4, r4, #4
 444 0176 2C82     		strh	r4, [r5, #16]
  48:svt.c         **** 	InByte = DecodeByte(InByte);
 445              		.loc 1 48 0
 446 0178 0020     		mov	r0, #0
 447 017a 8FE0     		b	.L10
 448              	.L31:
 179:svt.c         ****     				ERR_CODE = INV_DA2;
 449              		.loc 1 179 0
 450 017c 281C     		mov	r0, r5
 451 017e FFF7FEFF 		bl	ResetPacket
 452              	.LVL39:
 181:svt.c         ****     			}
 453              		.loc 1 181 0
 454 0182 0022     		mov	r2, #0
 455 0184 474B     		ldr	r3, .L42
 456 0186 1A70     		strb	r2, [r3]
 180:svt.c         ****     				PROTO_STATE = WAIT_STX;
 457              		.loc 1 180 0
 458 0188 0620     		mov	r0, #6
 459 018a 87E0     		b	.L10
 460              	.LVL40:
 461              	.L19:
 187:svt.c         ****     			{
 462              		.loc 1 187 0
 463 018c FFF7FEFF 		bl	CheckSymb
 464              	.LVL41:
 465 0190 0028     		cmp	r0, #0
 466 0192 13D0     		beq	.L33
 189:svt.c         ****     				LenD3++;
ARM GAS  C:\Users\Petro\AppData\Local\Temp\ccFkbsC5.s 			page 16


 467              		.loc 1 189 0
 468 0194 6B8A     		ldrh	r3, [r5, #18]
 469 0196 1C43     		orr	r4, r3
 470 0198 A4B2     		uxth	r4, r4
 471 019a 6C82     		strh	r4, [r5, #18]
 190:svt.c         ****     				if (LenD3 == LEN_DA3)
 472              		.loc 1 190 0
 473 019c 474A     		ldr	r2, .L42+24
 474 019e 1378     		ldrb	r3, [r2]
 475 01a0 0133     		add	r3, r3, #1
 476 01a2 DBB2     		uxtb	r3, r3
 477 01a4 1370     		strb	r3, [r2]
 191:svt.c         ****     				{
 478              		.loc 1 191 0
 479 01a6 042B     		cmp	r3, #4
 480 01a8 04D1     		bne	.L34
 193:svt.c         ****     				}
 481              		.loc 1 193 0
 482 01aa 0822     		mov	r2, #8
 483 01ac 3D4B     		ldr	r3, .L42
 484 01ae 1A70     		strb	r2, [r3]
  48:svt.c         **** 	InByte = DecodeByte(InByte);
 485              		.loc 1 48 0
 486 01b0 0020     		mov	r0, #0
 487 01b2 73E0     		b	.L10
 488              	.L34:
 197:svt.c         ****     				}
 489              		.loc 1 197 0
 490 01b4 2401     		lsl	r4, r4, #4
 491 01b6 6C82     		strh	r4, [r5, #18]
  48:svt.c         **** 	InByte = DecodeByte(InByte);
 492              		.loc 1 48 0
 493 01b8 0020     		mov	r0, #0
 494 01ba 6FE0     		b	.L10
 495              	.L33:
 201:svt.c         ****     				ERR_CODE = INV_DA3;
 496              		.loc 1 201 0
 497 01bc 281C     		mov	r0, r5
 498 01be FFF7FEFF 		bl	ResetPacket
 499              	.LVL42:
 203:svt.c         ****     			}
 500              		.loc 1 203 0
 501 01c2 0022     		mov	r2, #0
 502 01c4 374B     		ldr	r3, .L42
 503 01c6 1A70     		strb	r2, [r3]
 202:svt.c         ****     				PROTO_STATE = WAIT_STX;
 504              		.loc 1 202 0
 505 01c8 0A20     		mov	r0, #10
 506 01ca 67E0     		b	.L10
 507              	.LVL43:
 508              	.L20:
 209:svt.c         ****     			{
 509              		.loc 1 209 0
 510 01cc 4028     		cmp	r0, #64
 511 01ce 04D1     		bne	.L35
 211:svt.c         ****     			}
 512              		.loc 1 211 0
ARM GAS  C:\Users\Petro\AppData\Local\Temp\ccFkbsC5.s 			page 17


 513 01d0 373A     		sub	r2, r2, #55
 514 01d2 344B     		ldr	r3, .L42
 515 01d4 1A70     		strb	r2, [r3]
  48:svt.c         **** 	InByte = DecodeByte(InByte);
 516              		.loc 1 48 0
 517 01d6 0020     		mov	r0, #0
 518              	.LVL44:
 519 01d8 60E0     		b	.L10
 520              	.LVL45:
 521              	.L35:
 215:svt.c         ****     				ERR_CODE = NO_FR3;
 522              		.loc 1 215 0
 523 01da 281C     		mov	r0, r5
 524              	.LVL46:
 525 01dc FFF7FEFF 		bl	ResetPacket
 526              	.LVL47:
 217:svt.c         ****     			}
 527              		.loc 1 217 0
 528 01e0 0022     		mov	r2, #0
 529 01e2 304B     		ldr	r3, .L42
 530 01e4 1A70     		strb	r2, [r3]
 216:svt.c         ****     				PROTO_STATE = WAIT_STX;
 531              		.loc 1 216 0
 532 01e6 0720     		mov	r0, #7
 533 01e8 58E0     		b	.L10
 534              	.LVL48:
 535              	.L21:
 223:svt.c         ****     			{
 536              		.loc 1 223 0
 537 01ea FFF7FEFF 		bl	CheckSymb
 538              	.LVL49:
 539 01ee 0028     		cmp	r0, #0
 540 01f0 12D0     		beq	.L36
 225:svt.c         ****     				LenChS++;
 541              		.loc 1 225 0
 542 01f2 6B69     		ldr	r3, [r5, #20]
 543 01f4 1C43     		orr	r4, r3
 544 01f6 6C61     		str	r4, [r5, #20]
 226:svt.c         ****     				if (LenChS == LEN_CHS)
 545              		.loc 1 226 0
 546 01f8 2D4A     		ldr	r2, .L42+12
 547 01fa 1378     		ldrb	r3, [r2]
 548 01fc 0133     		add	r3, r3, #1
 549 01fe DBB2     		uxtb	r3, r3
 550 0200 1370     		strb	r3, [r2]
 227:svt.c         ****     				{
 551              		.loc 1 227 0
 552 0202 082B     		cmp	r3, #8
 553 0204 04D1     		bne	.L37
 229:svt.c         ****     				}
 554              		.loc 1 229 0
 555 0206 0A22     		mov	r2, #10
 556 0208 264B     		ldr	r3, .L42
 557 020a 1A70     		strb	r2, [r3]
  48:svt.c         **** 	InByte = DecodeByte(InByte);
 558              		.loc 1 48 0
 559 020c 0020     		mov	r0, #0
ARM GAS  C:\Users\Petro\AppData\Local\Temp\ccFkbsC5.s 			page 18


 560 020e 45E0     		b	.L10
 561              	.L37:
 233:svt.c         ****     				}
 562              		.loc 1 233 0
 563 0210 2401     		lsl	r4, r4, #4
 564 0212 6C61     		str	r4, [r5, #20]
  48:svt.c         **** 	InByte = DecodeByte(InByte);
 565              		.loc 1 48 0
 566 0214 0020     		mov	r0, #0
 567 0216 41E0     		b	.L10
 568              	.L36:
 238:svt.c         ****     				ERR_CODE = INV_CKECKSUM;
 569              		.loc 1 238 0
 570 0218 281C     		mov	r0, r5
 571 021a FFF7FEFF 		bl	ResetPacket
 572              	.LVL50:
 240:svt.c         ****     			}
 573              		.loc 1 240 0
 574 021e 0022     		mov	r2, #0
 575 0220 204B     		ldr	r3, .L42
 576 0222 1A70     		strb	r2, [r3]
 239:svt.c         ****     				PROTO_STATE = WAIT_STX;
 577              		.loc 1 239 0
 578 0224 0820     		mov	r0, #8
 579 0226 39E0     		b	.L10
 580              	.LVL51:
 581              	.L22:
 246:svt.c         ****     			{
 582              		.loc 1 246 0
 583 0228 3E28     		cmp	r0, #62
 584 022a 2BD1     		bne	.L38
 585              	.LBB2:
 253:svt.c         ****                     _tmpcrc = crc32_reset();
 586              		.loc 1 253 0
 587 022c 2A8A     		ldrh	r2, [r5, #16]
 588 022e 6B8A     		ldrh	r3, [r5, #18]
 250:svt.c         ****                         (uint32_t)((Data->Data1 & 0xFFFFFFFF00000000) >> 32), 
 589              		.loc 1 250 0
 590 0230 A968     		ldr	r1, [r5, #8]
 591 0232 0091     		str	r1, [sp]
 592 0234 0192     		str	r2, [sp, #4]
 593 0236 0293     		str	r3, [sp, #8]
 594 0238 04A8     		add	r0, sp, #16
 595              	.LVL52:
 596 023a 2249     		ldr	r1, .L42+32
 597 023c 6A68     		ldr	r2, [r5, #4]
 598 023e EB68     		ldr	r3, [r5, #12]
 599 0240 FFF7FEFF 		bl	sprintf
 600              	.LVL53:
 255:svt.c         ****                     _tmpcrc = crc32_calc_block((uint8_t *)_tmpdata, strlen(_tmpdata), _tmpcrc);
 601              		.loc 1 255 0
 602 0244 2048     		ldr	r0, .L42+36
 603 0246 0121     		mov	r1, #1
 604 0248 0122     		mov	r2, #1
 605 024a 5242     		neg	r2, r2
 606 024c FFF7FEFF 		bl	crc32_calc_block
 607              	.LVL54:
ARM GAS  C:\Users\Petro\AppData\Local\Temp\ccFkbsC5.s 			page 19


 608 0250 041C     		mov	r4, r0
 609              	.LVL55:
 256:svt.c         ****     				_tmpcrc = crc32_calc_block((uint8_t *)"F", 1, _tmpcrc);
 610              		.loc 1 256 0
 611 0252 04A8     		add	r0, sp, #16
 612              	.LVL56:
 613 0254 FFF7FEFF 		bl	strlen
 614              	.LVL57:
 615 0258 011C     		mov	r1, r0
 616 025a 04A8     		add	r0, sp, #16
 617 025c 221C     		mov	r2, r4
 618 025e FFF7FEFF 		bl	crc32_calc_block
 619              	.LVL58:
 620 0262 021C     		mov	r2, r0
 621              	.LVL59:
 257:svt.c         ****                     _tmpcrc = crc32_final(_tmpcrc);
 622              		.loc 1 257 0
 623 0264 1948     		ldr	r0, .L42+40
 624              	.LVL60:
 625 0266 0121     		mov	r1, #1
 626 0268 FFF7FEFF 		bl	crc32_calc_block
 627              	.LVL61:
 258:svt.c         ****                     if (_tmpcrc == Data->CheckSum)
 628              		.loc 1 258 0
 629 026c C043     		mvn	r0, r0
 630              	.LVL62:
 259:svt.c         ****                     {
 631              		.loc 1 259 0
 632 026e 6B69     		ldr	r3, [r5, #20]
 633 0270 8342     		cmp	r3, r0
 634 0272 03D1     		bne	.L39
 261:svt.c         ****     				    ERR_CODE = PARSED_OK;
 635              		.loc 1 261 0
 636 0274 0123     		mov	r3, #1
 637 0276 2B76     		strb	r3, [r5, #24]
 262:svt.c         ****                     }
 638              		.loc 1 262 0
 639 0278 0020     		mov	r0, #0
 640              	.LVL63:
 641 027a 07E0     		b	.L41
 642              	.LVL64:
 643              	.L39:
 266:svt.c         ****                         ERR_CODE = 10;
 644              		.loc 1 266 0
 645 027c 0023     		mov	r3, #0
 646 027e 2B76     		strb	r3, [r5, #24]
 647              	.LVL65:
 267:svt.c         ****                     }
 648              		.loc 1 267 0
 649 0280 0A20     		mov	r0, #10
 650              	.LVL66:
 651 0282 03E0     		b	.L41
 652              	.LVL67:
 653              	.L38:
 654              	.LBE2:
 272:svt.c         ****     			}
 655              		.loc 1 272 0
ARM GAS  C:\Users\Petro\AppData\Local\Temp\ccFkbsC5.s 			page 20


 656 0284 281C     		mov	r0, r5
 657              	.LVL68:
 658 0286 FFF7FEFF 		bl	ResetPacket
 659              	.LVL69:
 271:svt.c         ****     				ResetPacket(Data);
 660              		.loc 1 271 0
 661 028a 0920     		mov	r0, #9
 662              	.LVL70:
 663              	.L41:
 274:svt.c         ****     			break;
 664              		.loc 1 274 0
 665 028c 0022     		mov	r2, #0
 666 028e 054B     		ldr	r3, .L42
 667 0290 1A70     		strb	r2, [r3]
 275:svt.c         ****     		}
 668              		.loc 1 275 0
 669 0292 03E0     		b	.L10
 670              	.LVL71:
 671              	.L11:
 279:svt.c         ****             }
 672              		.loc 1 279 0
 673 0294 281C     		mov	r0, r5
 674              	.LVL72:
 675 0296 FFF7FEFF 		bl	ResetPacket
 676              	.LVL73:
  48:svt.c         **** 	InByte = DecodeByte(InByte);
 677              		.loc 1 48 0
 678 029a 0020     		mov	r0, #0
 679              	.LVL74:
 680              	.L10:
 283:svt.c         **** }
 681              		.loc 1 283 0
 682 029c C0B2     		uxtb	r0, r0
 683              	.LVL75:
 284:svt.c         **** 
 684              		.loc 1 284 0
 685 029e 0FB0     		add	sp, sp, #60
 686              		@ sp needed
 687              	.LVL76:
 688 02a0 30BD     		pop	{r4, r5, pc}
 689              	.L43:
 690 02a2 C046     		.align	2
 691              	.L42:
 692 02a4 00000000 		.word	PROTO_STATE
 693 02a8 00000000 		.word	LenSeq
 694 02ac 00000000 		.word	LenC
 695 02b0 00000000 		.word	LenChS
 696 02b4 00000000 		.word	LenD1
 697 02b8 00000000 		.word	LenD2
 698 02bc 00000000 		.word	LenD3
 699 02c0 00000000 		.word	.L13
 700 02c4 00000000 		.word	.LC8
 701 02c8 18000000 		.word	.LC10
 702 02cc 1C000000 		.word	.LC12
 703              		.cfi_endproc
 704              	.LFE2:
 705              		.size	UnpackData, .-UnpackData
ARM GAS  C:\Users\Petro\AppData\Local\Temp\ccFkbsC5.s 			page 21


 706              		.section	.text.PackData,"ax",%progbits
 707              		.align	2
 708              		.global	PackData
 709              		.code	16
 710              		.thumb_func
 711              		.type	PackData, %function
 712              	PackData:
 713              	.LFB6:
 319:svt.c         **** 
 320:svt.c         **** uint8_t PackData(char *buff, uint8_t *data, uint16_t Sequence)
 321:svt.c         **** {
 714              		.loc 1 321 0
 715              		.cfi_startproc
 716              	.LVL77:
 717 0000 70B5     		push	{r4, r5, r6, lr}
 718              		.cfi_def_cfa_offset 16
 719              		.cfi_offset 4, -16
 720              		.cfi_offset 5, -12
 721              		.cfi_offset 6, -8
 722              		.cfi_offset 14, -4
 723 0002 8AB0     		sub	sp, sp, #40
 724              		.cfi_def_cfa_offset 56
 725 0004 041C     		mov	r4, r0
 726 0006 0D1C     		mov	r5, r1
 727              	.LVL78:
 322:svt.c         ****     uint32_t _crc;
 323:svt.c         ****     char *_p;
 324:svt.c         ****     char szSeq[20];
 325:svt.c         ****     char szCheckSum[20];
 326:svt.c         ****     
 327:svt.c         ****     _p = (char *)data;
 328:svt.c         **** 
 329:svt.c         **** 
 330:svt.c         ****     sprintf(szSeq, "%04X", Sequence);
 728              		.loc 1 330 0
 729 0008 05A8     		add	r0, sp, #20
 730              	.LVL79:
 731 000a 2549     		ldr	r1, .L45
 732              	.LVL80:
 733 000c FFF7FEFF 		bl	sprintf
 734              	.LVL81:
 331:svt.c         ****     
 332:svt.c         ****     _crc = crc32_reset();
 333:svt.c         ****     _crc = crc32_calc_block((uint8_t *)"A", 1, _crc);
 735              		.loc 1 333 0
 736 0010 2448     		ldr	r0, .L45+4
 737 0012 0121     		mov	r1, #1
 738 0014 0122     		mov	r2, #1
 739 0016 5242     		neg	r2, r2
 740 0018 FFF7FEFF 		bl	crc32_calc_block
 741              	.LVL82:
 742 001c 061C     		mov	r6, r0
 743              	.LVL83:
 334:svt.c         ****     _crc = crc32_calc_block((uint8_t *)_p, strlen(_p), _crc);
 744              		.loc 1 334 0
 745 001e 281C     		mov	r0, r5
 746              	.LVL84:
ARM GAS  C:\Users\Petro\AppData\Local\Temp\ccFkbsC5.s 			page 22


 747 0020 FFF7FEFF 		bl	strlen
 748              	.LVL85:
 749 0024 011C     		mov	r1, r0
 750 0026 281C     		mov	r0, r5
 751 0028 321C     		mov	r2, r6
 752 002a FFF7FEFF 		bl	crc32_calc_block
 753              	.LVL86:
 754 002e 021C     		mov	r2, r0
 755              	.LVL87:
 335:svt.c         ****     _crc = crc32_calc_block((uint8_t *)"F", 1, _crc);
 756              		.loc 1 335 0
 757 0030 1D48     		ldr	r0, .L45+8
 758              	.LVL88:
 759 0032 0121     		mov	r1, #1
 760 0034 FFF7FEFF 		bl	crc32_calc_block
 761              	.LVL89:
 336:svt.c         ****     _crc = crc32_final(_crc);
 762              		.loc 1 336 0
 763 0038 C243     		mvn	r2, r0
 764              	.LVL90:
 337:svt.c         ****     
 338:svt.c         ****     sprintf(szCheckSum, "%08X", _crc);
 765              		.loc 1 338 0
 766 003a 6846     		mov	r0, sp
 767 003c 1B49     		ldr	r1, .L45+12
 768 003e FFF7FEFF 		bl	sprintf
 769              	.LVL91:
 339:svt.c         ****     
 340:svt.c         ****     strcpy(buff, STX_S);
 770              		.loc 1 340 0
 771 0042 201C     		mov	r0, r4
 772 0044 1A49     		ldr	r1, .L45+16
 773 0046 0222     		mov	r2, #2
 774 0048 FFF7FEFF 		bl	memcpy
 775              	.LVL92:
 341:svt.c         ****     strcat(buff, szSeq);
 776              		.loc 1 341 0
 777 004c 201C     		mov	r0, r4
 778 004e 05A9     		add	r1, sp, #20
 779 0050 FFF7FEFF 		bl	strcat
 780              	.LVL93:
 342:svt.c         ****     strcat(buff, FRM0);
 781              		.loc 1 342 0
 782 0054 201C     		mov	r0, r4
 783 0056 FFF7FEFF 		bl	strlen
 784              	.LVL94:
 785 005a 2018     		add	r0, r4, r0
 786 005c 1549     		ldr	r1, .L45+20
 787 005e 0222     		mov	r2, #2
 788 0060 FFF7FEFF 		bl	memcpy
 789              	.LVL95:
 343:svt.c         ****     strcat(buff, _p);
 790              		.loc 1 343 0
 791 0064 201C     		mov	r0, r4
 792 0066 291C     		mov	r1, r5
 793 0068 FFF7FEFF 		bl	strcat
 794              	.LVL96:
ARM GAS  C:\Users\Petro\AppData\Local\Temp\ccFkbsC5.s 			page 23


 344:svt.c         ****     strcat(buff, FRM1);    
 795              		.loc 1 344 0
 796 006c 201C     		mov	r0, r4
 797 006e FFF7FEFF 		bl	strlen
 798              	.LVL97:
 799 0072 2018     		add	r0, r4, r0
 800 0074 1049     		ldr	r1, .L45+24
 801 0076 0222     		mov	r2, #2
 802 0078 FFF7FEFF 		bl	memcpy
 803              	.LVL98:
 345:svt.c         ****     strcat(buff, szCheckSum);
 804              		.loc 1 345 0
 805 007c 201C     		mov	r0, r4
 806 007e 6946     		mov	r1, sp
 807 0080 FFF7FEFF 		bl	strcat
 808              	.LVL99:
 346:svt.c         ****     strcat(buff, ETX_S);
 809              		.loc 1 346 0
 810 0084 201C     		mov	r0, r4
 811 0086 FFF7FEFF 		bl	strlen
 812              	.LVL100:
 813 008a 2018     		add	r0, r4, r0
 814 008c 0B49     		ldr	r1, .L45+28
 815 008e 0222     		mov	r2, #2
 816 0090 FFF7FEFF 		bl	memcpy
 817              	.LVL101:
 347:svt.c         ****     
 348:svt.c         ****     return strlen(buff);
 818              		.loc 1 348 0
 819 0094 201C     		mov	r0, r4
 820 0096 FFF7FEFF 		bl	strlen
 821              	.LVL102:
 822 009a C0B2     		uxtb	r0, r0
 349:svt.c         **** }
 823              		.loc 1 349 0
 824 009c 0AB0     		add	sp, sp, #40
 825              		@ sp needed
 826              	.LVL103:
 827              	.LVL104:
 828 009e 70BD     		pop	{r4, r5, r6, pc}
 829              	.L46:
 830              		.align	2
 831              	.L45:
 832 00a0 20000000 		.word	.LC14
 833 00a4 18000000 		.word	.LC10
 834 00a8 1C000000 		.word	.LC12
 835 00ac 28000000 		.word	.LC18
 836 00b0 30000000 		.word	.LC20
 837 00b4 34000000 		.word	.LC22
 838 00b8 38000000 		.word	.LC24
 839 00bc 3C000000 		.word	.LC26
 840              		.cfi_endproc
 841              	.LFE6:
 842              		.size	PackData, .-PackData
 843              		.comm	LenC,1,1
 844              		.comm	LenChS,1,1
 845              		.comm	LenSeq,1,1
ARM GAS  C:\Users\Petro\AppData\Local\Temp\ccFkbsC5.s 			page 24


 846              		.comm	LenD3,1,1
 847              		.comm	LenD2,1,1
 848              		.comm	LenD1,1,1
 849              		.comm	PROTO_STATE,1,1
 850              		.section	.rodata.str1.4,"aMS",%progbits,1
 851              		.align	2
 852              	.LC8:
 853 0000 25303258 		.ascii	"%02X:%08X%08X%04X%04X\000"
 853      3A253038 
 853      58253038 
 853      58253034 
 853      58253034 
 854 0016 0000     		.space	2
 855              	.LC10:
 856 0018 4100     		.ascii	"A\000"
 857 001a 0000     		.space	2
 858              	.LC12:
 859 001c 4600     		.ascii	"F\000"
 860 001e 0000     		.space	2
 861              	.LC14:
 862 0020 25303458 		.ascii	"%04X\000"
 862      00
 863 0025 000000   		.space	3
 864              	.LC18:
 865 0028 25303858 		.ascii	"%08X\000"
 865      00
 866 002d 000000   		.space	3
 867              	.LC20:
 868 0030 3C00     		.ascii	"<\000"
 869 0032 0000     		.space	2
 870              	.LC22:
 871 0034 2100     		.ascii	"!\000"
 872 0036 0000     		.space	2
 873              	.LC24:
 874 0038 4000     		.ascii	"@\000"
 875 003a 0000     		.space	2
 876              	.LC26:
 877 003c 3E00     		.ascii	">\000"
 878 003e 0000     		.text
 879              	.Letext0:
 880              		.file 2 "c:\\program files (x86)\\cypress\\psoc creator\\4.0\\psoc creator\\import\\gnu\\arm\\4.9.
 881              		.file 3 "c:\\program files (x86)\\cypress\\psoc creator\\4.0\\psoc creator\\import\\gnu\\arm\\4.9.
 882              		.file 4 "c:\\program files (x86)\\cypress\\psoc creator\\4.0\\psoc creator\\import\\gnu\\arm\\4.9.
 883              		.file 5 "svt.h"
 884              		.file 6 "c:\\program files (x86)\\cypress\\psoc creator\\4.0\\psoc creator\\import\\gnu\\arm\\4.9.
 885              		.file 7 "crc32.h"
 886              		.file 8 "c:\\program files (x86)\\cypress\\psoc creator\\4.0\\psoc creator\\import\\gnu\\arm\\4.9.
 887              		.file 9 "<built-in>"