ARM GAS  C:\Users\Petro\AppData\Local\Temp\ccfyNSMz.s 			page 1


   1              		.cpu cortex-m0
   2              		.fpu softvfp
   3              		.eabi_attribute 20, 1
   4              		.eabi_attribute 21, 1
   5              		.eabi_attribute 23, 3
   6              		.eabi_attribute 24, 1
   7              		.eabi_attribute 25, 1
   8              		.eabi_attribute 26, 1
   9              		.eabi_attribute 30, 1
  10              		.eabi_attribute 34, 0
  11              		.eabi_attribute 18, 4
  12              		.code	16
  13              		.file	"UART_XB_UART.c"
  14              		.text
  15              	.Ltext0:
  16              		.cfi_sections	.debug_frame
  17              		.section	.text.UART_XB_UartInit,"ax",%progbits
  18              		.align	2
  19              		.global	UART_XB_UartInit
  20              		.code	16
  21              		.thumb_func
  22              		.type	UART_XB_UartInit, %function
  23              	UART_XB_UartInit:
  24              	.LFB2:
  25              		.file 1 "Generated_Source\\PSoC4\\UART_XB_UART.c"
   1:Generated_Source\PSoC4/UART_XB_UART.c **** /***************************************************************************//**
   2:Generated_Source\PSoC4/UART_XB_UART.c **** * \file UART_XB_UART.c
   3:Generated_Source\PSoC4/UART_XB_UART.c **** * \version 3.20
   4:Generated_Source\PSoC4/UART_XB_UART.c **** *
   5:Generated_Source\PSoC4/UART_XB_UART.c **** * \brief
   6:Generated_Source\PSoC4/UART_XB_UART.c **** *  This file provides the source code to the API for the SCB Component in
   7:Generated_Source\PSoC4/UART_XB_UART.c **** *  UART mode.
   8:Generated_Source\PSoC4/UART_XB_UART.c **** *
   9:Generated_Source\PSoC4/UART_XB_UART.c **** * Note:
  10:Generated_Source\PSoC4/UART_XB_UART.c **** *
  11:Generated_Source\PSoC4/UART_XB_UART.c **** *******************************************************************************
  12:Generated_Source\PSoC4/UART_XB_UART.c **** * \copyright
  13:Generated_Source\PSoC4/UART_XB_UART.c **** * Copyright 2013-2016, Cypress Semiconductor Corporation.  All rights reserved.
  14:Generated_Source\PSoC4/UART_XB_UART.c **** * You may use this file only in accordance with the license, terms, conditions,
  15:Generated_Source\PSoC4/UART_XB_UART.c **** * disclaimers, and limitations in the end user license agreement accompanying
  16:Generated_Source\PSoC4/UART_XB_UART.c **** * the software package with which this file was provided.
  17:Generated_Source\PSoC4/UART_XB_UART.c **** *******************************************************************************/
  18:Generated_Source\PSoC4/UART_XB_UART.c **** 
  19:Generated_Source\PSoC4/UART_XB_UART.c **** #include "UART_XB_PVT.h"
  20:Generated_Source\PSoC4/UART_XB_UART.c **** #include "UART_XB_SPI_UART_PVT.h"
  21:Generated_Source\PSoC4/UART_XB_UART.c **** #include "cyapicallbacks.h"
  22:Generated_Source\PSoC4/UART_XB_UART.c **** 
  23:Generated_Source\PSoC4/UART_XB_UART.c **** #if (UART_XB_UART_WAKE_ENABLE_CONST && UART_XB_UART_RX_WAKEUP_IRQ)
  24:Generated_Source\PSoC4/UART_XB_UART.c ****     /**
  25:Generated_Source\PSoC4/UART_XB_UART.c ****     * \addtogroup group_globals
  26:Generated_Source\PSoC4/UART_XB_UART.c ****     * \{
  27:Generated_Source\PSoC4/UART_XB_UART.c ****     */
  28:Generated_Source\PSoC4/UART_XB_UART.c ****     /** This global variable determines whether to enable Skip Start
  29:Generated_Source\PSoC4/UART_XB_UART.c ****     * functionality when UART_XB_Sleep() function is called:
  30:Generated_Source\PSoC4/UART_XB_UART.c ****     * 0 – disable, other values – enable. Default value is 1.
  31:Generated_Source\PSoC4/UART_XB_UART.c ****     * It is only available when Enable wakeup from Deep Sleep Mode is enabled.
  32:Generated_Source\PSoC4/UART_XB_UART.c ****     */
ARM GAS  C:\Users\Petro\AppData\Local\Temp\ccfyNSMz.s 			page 2


  33:Generated_Source\PSoC4/UART_XB_UART.c ****     uint8 UART_XB_skipStart = 1u;
  34:Generated_Source\PSoC4/UART_XB_UART.c ****     /** \} globals */
  35:Generated_Source\PSoC4/UART_XB_UART.c **** #endif /* (UART_XB_UART_WAKE_ENABLE_CONST && UART_XB_UART_RX_WAKEUP_IRQ) */
  36:Generated_Source\PSoC4/UART_XB_UART.c **** 
  37:Generated_Source\PSoC4/UART_XB_UART.c **** #if(UART_XB_SCB_MODE_UNCONFIG_CONST_CFG)
  38:Generated_Source\PSoC4/UART_XB_UART.c **** 
  39:Generated_Source\PSoC4/UART_XB_UART.c ****     /***************************************
  40:Generated_Source\PSoC4/UART_XB_UART.c ****     *  Configuration Structure Initialization
  41:Generated_Source\PSoC4/UART_XB_UART.c ****     ***************************************/
  42:Generated_Source\PSoC4/UART_XB_UART.c **** 
  43:Generated_Source\PSoC4/UART_XB_UART.c ****     const UART_XB_UART_INIT_STRUCT UART_XB_configUart =
  44:Generated_Source\PSoC4/UART_XB_UART.c ****     {
  45:Generated_Source\PSoC4/UART_XB_UART.c ****         UART_XB_UART_SUB_MODE,
  46:Generated_Source\PSoC4/UART_XB_UART.c ****         UART_XB_UART_DIRECTION,
  47:Generated_Source\PSoC4/UART_XB_UART.c ****         UART_XB_UART_DATA_BITS_NUM,
  48:Generated_Source\PSoC4/UART_XB_UART.c ****         UART_XB_UART_PARITY_TYPE,
  49:Generated_Source\PSoC4/UART_XB_UART.c ****         UART_XB_UART_STOP_BITS_NUM,
  50:Generated_Source\PSoC4/UART_XB_UART.c ****         UART_XB_UART_OVS_FACTOR,
  51:Generated_Source\PSoC4/UART_XB_UART.c ****         UART_XB_UART_IRDA_LOW_POWER,
  52:Generated_Source\PSoC4/UART_XB_UART.c ****         UART_XB_UART_MEDIAN_FILTER_ENABLE,
  53:Generated_Source\PSoC4/UART_XB_UART.c ****         UART_XB_UART_RETRY_ON_NACK,
  54:Generated_Source\PSoC4/UART_XB_UART.c ****         UART_XB_UART_IRDA_POLARITY,
  55:Generated_Source\PSoC4/UART_XB_UART.c ****         UART_XB_UART_DROP_ON_PARITY_ERR,
  56:Generated_Source\PSoC4/UART_XB_UART.c ****         UART_XB_UART_DROP_ON_FRAME_ERR,
  57:Generated_Source\PSoC4/UART_XB_UART.c ****         UART_XB_UART_WAKE_ENABLE,
  58:Generated_Source\PSoC4/UART_XB_UART.c ****         0u,
  59:Generated_Source\PSoC4/UART_XB_UART.c ****         NULL,
  60:Generated_Source\PSoC4/UART_XB_UART.c ****         0u,
  61:Generated_Source\PSoC4/UART_XB_UART.c ****         NULL,
  62:Generated_Source\PSoC4/UART_XB_UART.c ****         UART_XB_UART_MP_MODE_ENABLE,
  63:Generated_Source\PSoC4/UART_XB_UART.c ****         UART_XB_UART_MP_ACCEPT_ADDRESS,
  64:Generated_Source\PSoC4/UART_XB_UART.c ****         UART_XB_UART_MP_RX_ADDRESS,
  65:Generated_Source\PSoC4/UART_XB_UART.c ****         UART_XB_UART_MP_RX_ADDRESS_MASK,
  66:Generated_Source\PSoC4/UART_XB_UART.c ****         (uint32) UART_XB_SCB_IRQ_INTERNAL,
  67:Generated_Source\PSoC4/UART_XB_UART.c ****         UART_XB_UART_INTR_RX_MASK,
  68:Generated_Source\PSoC4/UART_XB_UART.c ****         UART_XB_UART_RX_TRIGGER_LEVEL,
  69:Generated_Source\PSoC4/UART_XB_UART.c ****         UART_XB_UART_INTR_TX_MASK,
  70:Generated_Source\PSoC4/UART_XB_UART.c ****         UART_XB_UART_TX_TRIGGER_LEVEL,
  71:Generated_Source\PSoC4/UART_XB_UART.c ****         (uint8) UART_XB_UART_BYTE_MODE_ENABLE,
  72:Generated_Source\PSoC4/UART_XB_UART.c ****         (uint8) UART_XB_UART_CTS_ENABLE,
  73:Generated_Source\PSoC4/UART_XB_UART.c ****         (uint8) UART_XB_UART_CTS_POLARITY,
  74:Generated_Source\PSoC4/UART_XB_UART.c ****         (uint8) UART_XB_UART_RTS_POLARITY,
  75:Generated_Source\PSoC4/UART_XB_UART.c ****         (uint8) UART_XB_UART_RTS_FIFO_LEVEL
  76:Generated_Source\PSoC4/UART_XB_UART.c ****     };
  77:Generated_Source\PSoC4/UART_XB_UART.c **** 
  78:Generated_Source\PSoC4/UART_XB_UART.c **** 
  79:Generated_Source\PSoC4/UART_XB_UART.c ****     /*******************************************************************************
  80:Generated_Source\PSoC4/UART_XB_UART.c ****     * Function Name: UART_XB_UartInit
  81:Generated_Source\PSoC4/UART_XB_UART.c ****     ****************************************************************************//**
  82:Generated_Source\PSoC4/UART_XB_UART.c ****     *
  83:Generated_Source\PSoC4/UART_XB_UART.c ****     *  Configures the UART_XB for UART operation.
  84:Generated_Source\PSoC4/UART_XB_UART.c ****     *
  85:Generated_Source\PSoC4/UART_XB_UART.c ****     *  This function is intended specifically to be used when the UART_XB
  86:Generated_Source\PSoC4/UART_XB_UART.c ****     *  configuration is set to “Unconfigured UART_XB” in the customizer.
  87:Generated_Source\PSoC4/UART_XB_UART.c ****     *  After initializing the UART_XB in UART mode using this function,
  88:Generated_Source\PSoC4/UART_XB_UART.c ****     *  the component can be enabled using the UART_XB_Start() or
  89:Generated_Source\PSoC4/UART_XB_UART.c ****     * UART_XB_Enable() function.
ARM GAS  C:\Users\Petro\AppData\Local\Temp\ccfyNSMz.s 			page 3


  90:Generated_Source\PSoC4/UART_XB_UART.c ****     *  This function uses a pointer to a structure that provides the configuration
  91:Generated_Source\PSoC4/UART_XB_UART.c ****     *  settings. This structure contains the same information that would otherwise
  92:Generated_Source\PSoC4/UART_XB_UART.c ****     *  be provided by the customizer settings.
  93:Generated_Source\PSoC4/UART_XB_UART.c ****     *
  94:Generated_Source\PSoC4/UART_XB_UART.c ****     *  \param config: pointer to a structure that contains the following list of
  95:Generated_Source\PSoC4/UART_XB_UART.c ****     *   fields. These fields match the selections available in the customizer.
  96:Generated_Source\PSoC4/UART_XB_UART.c ****     *   Refer to the customizer for further description of the settings.
  97:Generated_Source\PSoC4/UART_XB_UART.c ****     *
  98:Generated_Source\PSoC4/UART_XB_UART.c ****     *******************************************************************************/
  99:Generated_Source\PSoC4/UART_XB_UART.c ****     void UART_XB_UartInit(const UART_XB_UART_INIT_STRUCT *config)
 100:Generated_Source\PSoC4/UART_XB_UART.c ****     {
 101:Generated_Source\PSoC4/UART_XB_UART.c ****         uint32 pinsConfig;
 102:Generated_Source\PSoC4/UART_XB_UART.c **** 
 103:Generated_Source\PSoC4/UART_XB_UART.c ****         if (NULL == config)
 104:Generated_Source\PSoC4/UART_XB_UART.c ****         {
 105:Generated_Source\PSoC4/UART_XB_UART.c ****             CYASSERT(0u != 0u); /* Halt execution due to bad function parameter */
 106:Generated_Source\PSoC4/UART_XB_UART.c ****         }
 107:Generated_Source\PSoC4/UART_XB_UART.c ****         else
 108:Generated_Source\PSoC4/UART_XB_UART.c ****         {
 109:Generated_Source\PSoC4/UART_XB_UART.c ****             /* Get direction to configure UART pins: TX, RX or TX+RX */
 110:Generated_Source\PSoC4/UART_XB_UART.c ****             pinsConfig  = config->direction;
 111:Generated_Source\PSoC4/UART_XB_UART.c **** 
 112:Generated_Source\PSoC4/UART_XB_UART.c ****         #if !(UART_XB_CY_SCBIP_V0 || UART_XB_CY_SCBIP_V1)
 113:Generated_Source\PSoC4/UART_XB_UART.c ****             /* Add RTS and CTS pins to configure */
 114:Generated_Source\PSoC4/UART_XB_UART.c ****             pinsConfig |= (0u != config->rtsRxFifoLevel) ? (UART_XB_UART_RTS_PIN_ENABLE) : (0u);
 115:Generated_Source\PSoC4/UART_XB_UART.c ****             pinsConfig |= (0u != config->enableCts)      ? (UART_XB_UART_CTS_PIN_ENABLE) : (0u);
 116:Generated_Source\PSoC4/UART_XB_UART.c ****         #endif /* !(UART_XB_CY_SCBIP_V0 || UART_XB_CY_SCBIP_V1) */
 117:Generated_Source\PSoC4/UART_XB_UART.c **** 
 118:Generated_Source\PSoC4/UART_XB_UART.c ****             /* Configure pins */
 119:Generated_Source\PSoC4/UART_XB_UART.c ****             UART_XB_SetPins(UART_XB_SCB_MODE_UART, config->mode, pinsConfig);
 120:Generated_Source\PSoC4/UART_XB_UART.c **** 
 121:Generated_Source\PSoC4/UART_XB_UART.c ****             /* Store internal configuration */
 122:Generated_Source\PSoC4/UART_XB_UART.c ****             UART_XB_scbMode       = (uint8) UART_XB_SCB_MODE_UART;
 123:Generated_Source\PSoC4/UART_XB_UART.c ****             UART_XB_scbEnableWake = (uint8) config->enableWake;
 124:Generated_Source\PSoC4/UART_XB_UART.c ****             UART_XB_scbEnableIntr = (uint8) config->enableInterrupt;
 125:Generated_Source\PSoC4/UART_XB_UART.c **** 
 126:Generated_Source\PSoC4/UART_XB_UART.c ****             /* Set RX direction internal variables */
 127:Generated_Source\PSoC4/UART_XB_UART.c ****             UART_XB_rxBuffer      =         config->rxBuffer;
 128:Generated_Source\PSoC4/UART_XB_UART.c ****             UART_XB_rxDataBits    = (uint8) config->dataBits;
 129:Generated_Source\PSoC4/UART_XB_UART.c ****             UART_XB_rxBufferSize  = (uint8) config->rxBufferSize;
 130:Generated_Source\PSoC4/UART_XB_UART.c **** 
 131:Generated_Source\PSoC4/UART_XB_UART.c ****             /* Set TX direction internal variables */
 132:Generated_Source\PSoC4/UART_XB_UART.c ****             UART_XB_txBuffer      =         config->txBuffer;
 133:Generated_Source\PSoC4/UART_XB_UART.c ****             UART_XB_txDataBits    = (uint8) config->dataBits;
 134:Generated_Source\PSoC4/UART_XB_UART.c ****             UART_XB_txBufferSize  = (uint8) config->txBufferSize;
 135:Generated_Source\PSoC4/UART_XB_UART.c **** 
 136:Generated_Source\PSoC4/UART_XB_UART.c ****             /* Configure UART interface */
 137:Generated_Source\PSoC4/UART_XB_UART.c ****             if(UART_XB_UART_MODE_IRDA == config->mode)
 138:Generated_Source\PSoC4/UART_XB_UART.c ****             {
 139:Generated_Source\PSoC4/UART_XB_UART.c ****                 /* OVS settings: IrDA */
 140:Generated_Source\PSoC4/UART_XB_UART.c ****                 UART_XB_CTRL_REG  = ((0u != config->enableIrdaLowPower) ?
 141:Generated_Source\PSoC4/UART_XB_UART.c ****                                                 (UART_XB_UART_GET_CTRL_OVS_IRDA_LP(config->oversamp
 142:Generated_Source\PSoC4/UART_XB_UART.c ****                                                 (UART_XB_CTRL_OVS_IRDA_OVS16));
 143:Generated_Source\PSoC4/UART_XB_UART.c ****             }
 144:Generated_Source\PSoC4/UART_XB_UART.c ****             else
 145:Generated_Source\PSoC4/UART_XB_UART.c ****             {
 146:Generated_Source\PSoC4/UART_XB_UART.c ****                 /* OVS settings: UART and SmartCard */
ARM GAS  C:\Users\Petro\AppData\Local\Temp\ccfyNSMz.s 			page 4


 147:Generated_Source\PSoC4/UART_XB_UART.c ****                 UART_XB_CTRL_REG  = UART_XB_GET_CTRL_OVS(config->oversample);
 148:Generated_Source\PSoC4/UART_XB_UART.c ****             }
 149:Generated_Source\PSoC4/UART_XB_UART.c **** 
 150:Generated_Source\PSoC4/UART_XB_UART.c ****             UART_XB_CTRL_REG     |= UART_XB_GET_CTRL_BYTE_MODE  (config->enableByteMode)      |
 151:Generated_Source\PSoC4/UART_XB_UART.c ****                                              UART_XB_GET_CTRL_ADDR_ACCEPT(config->multiprocAcceptAd
 152:Generated_Source\PSoC4/UART_XB_UART.c ****                                              UART_XB_CTRL_UART;
 153:Generated_Source\PSoC4/UART_XB_UART.c **** 
 154:Generated_Source\PSoC4/UART_XB_UART.c ****             /* Configure sub-mode: UART, SmartCard or IrDA */
 155:Generated_Source\PSoC4/UART_XB_UART.c ****             UART_XB_UART_CTRL_REG = UART_XB_GET_UART_CTRL_MODE(config->mode);
 156:Generated_Source\PSoC4/UART_XB_UART.c **** 
 157:Generated_Source\PSoC4/UART_XB_UART.c ****             /* Configure RX direction */
 158:Generated_Source\PSoC4/UART_XB_UART.c ****             UART_XB_UART_RX_CTRL_REG = UART_XB_GET_UART_RX_CTRL_MODE(config->stopBits)             
 159:Generated_Source\PSoC4/UART_XB_UART.c ****                                         UART_XB_GET_UART_RX_CTRL_POLARITY(config->enableInvertedRx)
 160:Generated_Source\PSoC4/UART_XB_UART.c ****                                         UART_XB_GET_UART_RX_CTRL_MP_MODE(config->enableMultiproc)  
 161:Generated_Source\PSoC4/UART_XB_UART.c ****                                         UART_XB_GET_UART_RX_CTRL_DROP_ON_PARITY_ERR(config->dropOnP
 162:Generated_Source\PSoC4/UART_XB_UART.c ****                                         UART_XB_GET_UART_RX_CTRL_DROP_ON_FRAME_ERR(config->dropOnFr
 163:Generated_Source\PSoC4/UART_XB_UART.c **** 
 164:Generated_Source\PSoC4/UART_XB_UART.c ****             if(UART_XB_UART_PARITY_NONE != config->parity)
 165:Generated_Source\PSoC4/UART_XB_UART.c ****             {
 166:Generated_Source\PSoC4/UART_XB_UART.c ****                UART_XB_UART_RX_CTRL_REG |= UART_XB_GET_UART_RX_CTRL_PARITY(config->parity) |
 167:Generated_Source\PSoC4/UART_XB_UART.c ****                                                     UART_XB_UART_RX_CTRL_PARITY_ENABLED;
 168:Generated_Source\PSoC4/UART_XB_UART.c ****             }
 169:Generated_Source\PSoC4/UART_XB_UART.c **** 
 170:Generated_Source\PSoC4/UART_XB_UART.c ****             UART_XB_RX_CTRL_REG      = UART_XB_GET_RX_CTRL_DATA_WIDTH(config->dataBits)       |
 171:Generated_Source\PSoC4/UART_XB_UART.c ****                                                 UART_XB_GET_RX_CTRL_MEDIAN(config->enableMedianFilt
 172:Generated_Source\PSoC4/UART_XB_UART.c ****                                                 UART_XB_GET_UART_RX_CTRL_ENABLED(config->direction)
 173:Generated_Source\PSoC4/UART_XB_UART.c **** 
 174:Generated_Source\PSoC4/UART_XB_UART.c ****             UART_XB_RX_FIFO_CTRL_REG = UART_XB_GET_RX_FIFO_CTRL_TRIGGER_LEVEL(config->rxTriggerLeve
 175:Generated_Source\PSoC4/UART_XB_UART.c **** 
 176:Generated_Source\PSoC4/UART_XB_UART.c ****             /* Configure MP address */
 177:Generated_Source\PSoC4/UART_XB_UART.c ****             UART_XB_RX_MATCH_REG     = UART_XB_GET_RX_MATCH_ADDR(config->multiprocAddr) |
 178:Generated_Source\PSoC4/UART_XB_UART.c ****                                                 UART_XB_GET_RX_MATCH_MASK(config->multiprocAddrMask
 179:Generated_Source\PSoC4/UART_XB_UART.c **** 
 180:Generated_Source\PSoC4/UART_XB_UART.c ****             /* Configure RX direction */
 181:Generated_Source\PSoC4/UART_XB_UART.c ****             UART_XB_UART_TX_CTRL_REG = UART_XB_GET_UART_TX_CTRL_MODE(config->stopBits) |
 182:Generated_Source\PSoC4/UART_XB_UART.c ****                                                 UART_XB_GET_UART_TX_CTRL_RETRY_NACK(config->enableR
 183:Generated_Source\PSoC4/UART_XB_UART.c **** 
 184:Generated_Source\PSoC4/UART_XB_UART.c ****             if(UART_XB_UART_PARITY_NONE != config->parity)
 185:Generated_Source\PSoC4/UART_XB_UART.c ****             {
 186:Generated_Source\PSoC4/UART_XB_UART.c ****                UART_XB_UART_TX_CTRL_REG |= UART_XB_GET_UART_TX_CTRL_PARITY(config->parity) |
 187:Generated_Source\PSoC4/UART_XB_UART.c ****                                                     UART_XB_UART_TX_CTRL_PARITY_ENABLED;
 188:Generated_Source\PSoC4/UART_XB_UART.c ****             }
 189:Generated_Source\PSoC4/UART_XB_UART.c **** 
 190:Generated_Source\PSoC4/UART_XB_UART.c ****             UART_XB_TX_CTRL_REG      = UART_XB_GET_TX_CTRL_DATA_WIDTH(config->dataBits)    |
 191:Generated_Source\PSoC4/UART_XB_UART.c ****                                                 UART_XB_GET_UART_TX_CTRL_ENABLED(config->direction)
 192:Generated_Source\PSoC4/UART_XB_UART.c **** 
 193:Generated_Source\PSoC4/UART_XB_UART.c ****             UART_XB_TX_FIFO_CTRL_REG = UART_XB_GET_TX_FIFO_CTRL_TRIGGER_LEVEL(config->txTriggerLeve
 194:Generated_Source\PSoC4/UART_XB_UART.c **** 
 195:Generated_Source\PSoC4/UART_XB_UART.c ****         #if !(UART_XB_CY_SCBIP_V0 || UART_XB_CY_SCBIP_V1)
 196:Generated_Source\PSoC4/UART_XB_UART.c ****             UART_XB_UART_FLOW_CTRL_REG = UART_XB_GET_UART_FLOW_CTRL_CTS_ENABLE(config->enableCts) |
 197:Generated_Source\PSoC4/UART_XB_UART.c ****                                             UART_XB_GET_UART_FLOW_CTRL_CTS_POLARITY (config->ctsPol
 198:Generated_Source\PSoC4/UART_XB_UART.c ****                                             UART_XB_GET_UART_FLOW_CTRL_RTS_POLARITY (config->rtsPol
 199:Generated_Source\PSoC4/UART_XB_UART.c ****                                             UART_XB_GET_UART_FLOW_CTRL_TRIGGER_LEVEL(config->rtsRxF
 200:Generated_Source\PSoC4/UART_XB_UART.c ****         #endif /* !(UART_XB_CY_SCBIP_V0 || UART_XB_CY_SCBIP_V1) */
 201:Generated_Source\PSoC4/UART_XB_UART.c **** 
 202:Generated_Source\PSoC4/UART_XB_UART.c ****             /* Configure interrupt with UART handler but do not enable it */
 203:Generated_Source\PSoC4/UART_XB_UART.c ****             CyIntDisable    (UART_XB_ISR_NUMBER);
ARM GAS  C:\Users\Petro\AppData\Local\Temp\ccfyNSMz.s 			page 5


 204:Generated_Source\PSoC4/UART_XB_UART.c ****             CyIntSetPriority(UART_XB_ISR_NUMBER, UART_XB_ISR_PRIORITY);
 205:Generated_Source\PSoC4/UART_XB_UART.c ****             (void) CyIntSetVector(UART_XB_ISR_NUMBER, &UART_XB_SPI_UART_ISR);
 206:Generated_Source\PSoC4/UART_XB_UART.c **** 
 207:Generated_Source\PSoC4/UART_XB_UART.c ****             /* Configure WAKE interrupt */
 208:Generated_Source\PSoC4/UART_XB_UART.c ****         #if(UART_XB_UART_RX_WAKEUP_IRQ)
 209:Generated_Source\PSoC4/UART_XB_UART.c ****             CyIntDisable    (UART_XB_RX_WAKE_ISR_NUMBER);
 210:Generated_Source\PSoC4/UART_XB_UART.c ****             CyIntSetPriority(UART_XB_RX_WAKE_ISR_NUMBER, UART_XB_RX_WAKE_ISR_PRIORITY);
 211:Generated_Source\PSoC4/UART_XB_UART.c ****             (void) CyIntSetVector(UART_XB_RX_WAKE_ISR_NUMBER, &UART_XB_UART_WAKEUP_ISR);
 212:Generated_Source\PSoC4/UART_XB_UART.c ****         #endif /* (UART_XB_UART_RX_WAKEUP_IRQ) */
 213:Generated_Source\PSoC4/UART_XB_UART.c **** 
 214:Generated_Source\PSoC4/UART_XB_UART.c ****             /* Configure interrupt sources */
 215:Generated_Source\PSoC4/UART_XB_UART.c ****             UART_XB_INTR_I2C_EC_MASK_REG = UART_XB_NO_INTR_SOURCES;
 216:Generated_Source\PSoC4/UART_XB_UART.c ****             UART_XB_INTR_SPI_EC_MASK_REG = UART_XB_NO_INTR_SOURCES;
 217:Generated_Source\PSoC4/UART_XB_UART.c ****             UART_XB_INTR_SLAVE_MASK_REG  = UART_XB_NO_INTR_SOURCES;
 218:Generated_Source\PSoC4/UART_XB_UART.c ****             UART_XB_INTR_MASTER_MASK_REG = UART_XB_NO_INTR_SOURCES;
 219:Generated_Source\PSoC4/UART_XB_UART.c ****             UART_XB_INTR_RX_MASK_REG     = config->rxInterruptMask;
 220:Generated_Source\PSoC4/UART_XB_UART.c ****             UART_XB_INTR_TX_MASK_REG     = config->txInterruptMask;
 221:Generated_Source\PSoC4/UART_XB_UART.c ****         
 222:Generated_Source\PSoC4/UART_XB_UART.c ****             /* Configure TX interrupt sources to restore. */
 223:Generated_Source\PSoC4/UART_XB_UART.c ****             UART_XB_IntrTxMask = LO16(UART_XB_INTR_TX_MASK_REG);
 224:Generated_Source\PSoC4/UART_XB_UART.c **** 
 225:Generated_Source\PSoC4/UART_XB_UART.c ****             /* Clear RX buffer indexes */
 226:Generated_Source\PSoC4/UART_XB_UART.c ****             UART_XB_rxBufferHead     = 0u;
 227:Generated_Source\PSoC4/UART_XB_UART.c ****             UART_XB_rxBufferTail     = 0u;
 228:Generated_Source\PSoC4/UART_XB_UART.c ****             UART_XB_rxBufferOverflow = 0u;
 229:Generated_Source\PSoC4/UART_XB_UART.c **** 
 230:Generated_Source\PSoC4/UART_XB_UART.c ****             /* Clear TX buffer indexes */
 231:Generated_Source\PSoC4/UART_XB_UART.c ****             UART_XB_txBufferHead = 0u;
 232:Generated_Source\PSoC4/UART_XB_UART.c ****             UART_XB_txBufferTail = 0u;
 233:Generated_Source\PSoC4/UART_XB_UART.c ****         }
 234:Generated_Source\PSoC4/UART_XB_UART.c ****     }
 235:Generated_Source\PSoC4/UART_XB_UART.c **** 
 236:Generated_Source\PSoC4/UART_XB_UART.c **** #else
 237:Generated_Source\PSoC4/UART_XB_UART.c **** 
 238:Generated_Source\PSoC4/UART_XB_UART.c ****     /*******************************************************************************
 239:Generated_Source\PSoC4/UART_XB_UART.c ****     * Function Name: UART_XB_UartInit
 240:Generated_Source\PSoC4/UART_XB_UART.c ****     ****************************************************************************//**
 241:Generated_Source\PSoC4/UART_XB_UART.c ****     *
 242:Generated_Source\PSoC4/UART_XB_UART.c ****     *  Configures the SCB for the UART operation.
 243:Generated_Source\PSoC4/UART_XB_UART.c ****     *
 244:Generated_Source\PSoC4/UART_XB_UART.c ****     *******************************************************************************/
 245:Generated_Source\PSoC4/UART_XB_UART.c ****     void UART_XB_UartInit(void)
 246:Generated_Source\PSoC4/UART_XB_UART.c ****     {
  26              		.loc 1 246 0
  27              		.cfi_startproc
  28 0000 38B5     		push	{r3, r4, r5, lr}
  29              		.cfi_def_cfa_offset 16
  30              		.cfi_offset 3, -16
  31              		.cfi_offset 4, -12
  32              		.cfi_offset 5, -8
  33              		.cfi_offset 14, -4
 247:Generated_Source\PSoC4/UART_XB_UART.c ****         /* Configure UART interface */
 248:Generated_Source\PSoC4/UART_XB_UART.c ****         UART_XB_CTRL_REG = UART_XB_UART_DEFAULT_CTRL;
  34              		.loc 1 248 0
  35 0002 1F4A     		ldr	r2, .L2
  36 0004 1F4B     		ldr	r3, .L2+4
  37 0006 1A60     		str	r2, [r3]
ARM GAS  C:\Users\Petro\AppData\Local\Temp\ccfyNSMz.s 			page 6


 249:Generated_Source\PSoC4/UART_XB_UART.c **** 
 250:Generated_Source\PSoC4/UART_XB_UART.c ****         /* Configure sub-mode: UART, SmartCard or IrDA */
 251:Generated_Source\PSoC4/UART_XB_UART.c ****         UART_XB_UART_CTRL_REG = UART_XB_UART_DEFAULT_UART_CTRL;
  38              		.loc 1 251 0
  39 0008 0024     		mov	r4, #0
  40 000a 1F4B     		ldr	r3, .L2+8
  41 000c 1C60     		str	r4, [r3]
 252:Generated_Source\PSoC4/UART_XB_UART.c **** 
 253:Generated_Source\PSoC4/UART_XB_UART.c ****         /* Configure RX direction */
 254:Generated_Source\PSoC4/UART_XB_UART.c ****         UART_XB_UART_RX_CTRL_REG = UART_XB_UART_DEFAULT_UART_RX_CTRL;
  42              		.loc 1 254 0
  43 000e 3122     		mov	r2, #49
  44 0010 1E4B     		ldr	r3, .L2+12
  45 0012 1A60     		str	r2, [r3]
 255:Generated_Source\PSoC4/UART_XB_UART.c ****         UART_XB_RX_CTRL_REG      = UART_XB_UART_DEFAULT_RX_CTRL;
  46              		.loc 1 255 0
  47 0014 1E4B     		ldr	r3, .L2+16
  48 0016 1F49     		ldr	r1, .L2+20
  49 0018 0B60     		str	r3, [r1]
 256:Generated_Source\PSoC4/UART_XB_UART.c ****         UART_XB_RX_FIFO_CTRL_REG = UART_XB_UART_DEFAULT_RX_FIFO_CTRL;
  50              		.loc 1 256 0
  51 001a 0720     		mov	r0, #7
  52 001c 1E49     		ldr	r1, .L2+24
  53 001e 0860     		str	r0, [r1]
 257:Generated_Source\PSoC4/UART_XB_UART.c ****         UART_XB_RX_MATCH_REG     = UART_XB_UART_DEFAULT_RX_MATCH_REG;
  54              		.loc 1 257 0
  55 0020 1E49     		ldr	r1, .L2+28
  56 0022 0C60     		str	r4, [r1]
 258:Generated_Source\PSoC4/UART_XB_UART.c **** 
 259:Generated_Source\PSoC4/UART_XB_UART.c ****         /* Configure TX direction */
 260:Generated_Source\PSoC4/UART_XB_UART.c ****         UART_XB_UART_TX_CTRL_REG = UART_XB_UART_DEFAULT_UART_TX_CTRL;
  57              		.loc 1 260 0
  58 0024 1E49     		ldr	r1, .L2+32
  59 0026 0A60     		str	r2, [r1]
 261:Generated_Source\PSoC4/UART_XB_UART.c ****         UART_XB_TX_CTRL_REG      = UART_XB_UART_DEFAULT_TX_CTRL;
  60              		.loc 1 261 0
  61 0028 1E4A     		ldr	r2, .L2+36
  62 002a 1360     		str	r3, [r2]
 262:Generated_Source\PSoC4/UART_XB_UART.c ****         UART_XB_TX_FIFO_CTRL_REG = UART_XB_UART_DEFAULT_TX_FIFO_CTRL;
  63              		.loc 1 262 0
  64 002c 1E4B     		ldr	r3, .L2+40
  65 002e 1C60     		str	r4, [r3]
 263:Generated_Source\PSoC4/UART_XB_UART.c **** 
 264:Generated_Source\PSoC4/UART_XB_UART.c ****     #if !(UART_XB_CY_SCBIP_V0 || UART_XB_CY_SCBIP_V1)
 265:Generated_Source\PSoC4/UART_XB_UART.c ****         UART_XB_UART_FLOW_CTRL_REG = UART_XB_UART_DEFAULT_FLOW_CTRL;
  66              		.loc 1 265 0
  67 0030 0425     		mov	r5, #4
  68 0032 1E4B     		ldr	r3, .L2+44
  69 0034 1D60     		str	r5, [r3]
 266:Generated_Source\PSoC4/UART_XB_UART.c ****     #endif /* !(UART_XB_CY_SCBIP_V0 || UART_XB_CY_SCBIP_V1) */
 267:Generated_Source\PSoC4/UART_XB_UART.c **** 
 268:Generated_Source\PSoC4/UART_XB_UART.c ****         /* Configure interrupt with UART handler but do not enable it */
 269:Generated_Source\PSoC4/UART_XB_UART.c ****     #if(UART_XB_SCB_IRQ_INTERNAL)
 270:Generated_Source\PSoC4/UART_XB_UART.c ****         CyIntDisable    (UART_XB_ISR_NUMBER);
  70              		.loc 1 270 0
  71 0036 0330     		add	r0, r0, #3
  72 0038 FFF7FEFF 		bl	CyIntDisable
ARM GAS  C:\Users\Petro\AppData\Local\Temp\ccfyNSMz.s 			page 7


  73              	.LVL0:
 271:Generated_Source\PSoC4/UART_XB_UART.c ****         CyIntSetPriority(UART_XB_ISR_NUMBER, UART_XB_ISR_PRIORITY);
  74              		.loc 1 271 0
  75 003c 0A20     		mov	r0, #10
  76 003e 0321     		mov	r1, #3
  77 0040 FFF7FEFF 		bl	CyIntSetPriority
  78              	.LVL1:
 272:Generated_Source\PSoC4/UART_XB_UART.c ****         (void) CyIntSetVector(UART_XB_ISR_NUMBER, &UART_XB_SPI_UART_ISR);
  79              		.loc 1 272 0
  80 0044 0A20     		mov	r0, #10
  81 0046 1A49     		ldr	r1, .L2+48
  82 0048 FFF7FEFF 		bl	CyIntSetVector
  83              	.LVL2:
 273:Generated_Source\PSoC4/UART_XB_UART.c ****     #endif /* (UART_XB_SCB_IRQ_INTERNAL) */
 274:Generated_Source\PSoC4/UART_XB_UART.c **** 
 275:Generated_Source\PSoC4/UART_XB_UART.c ****         /* Configure WAKE interrupt */
 276:Generated_Source\PSoC4/UART_XB_UART.c ****     #if(UART_XB_UART_RX_WAKEUP_IRQ)
 277:Generated_Source\PSoC4/UART_XB_UART.c ****         CyIntDisable    (UART_XB_RX_WAKE_ISR_NUMBER);
 278:Generated_Source\PSoC4/UART_XB_UART.c ****         CyIntSetPriority(UART_XB_RX_WAKE_ISR_NUMBER, UART_XB_RX_WAKE_ISR_PRIORITY);
 279:Generated_Source\PSoC4/UART_XB_UART.c ****         (void) CyIntSetVector(UART_XB_RX_WAKE_ISR_NUMBER, &UART_XB_UART_WAKEUP_ISR);
 280:Generated_Source\PSoC4/UART_XB_UART.c ****     #endif /* (UART_XB_UART_RX_WAKEUP_IRQ) */
 281:Generated_Source\PSoC4/UART_XB_UART.c **** 
 282:Generated_Source\PSoC4/UART_XB_UART.c ****         /* Configure interrupt sources */
 283:Generated_Source\PSoC4/UART_XB_UART.c ****         UART_XB_INTR_I2C_EC_MASK_REG = UART_XB_UART_DEFAULT_INTR_I2C_EC_MASK;
  84              		.loc 1 283 0
  85 004c 194B     		ldr	r3, .L2+52
  86 004e 1C60     		str	r4, [r3]
 284:Generated_Source\PSoC4/UART_XB_UART.c ****         UART_XB_INTR_SPI_EC_MASK_REG = UART_XB_UART_DEFAULT_INTR_SPI_EC_MASK;
  87              		.loc 1 284 0
  88 0050 194B     		ldr	r3, .L2+56
  89 0052 1C60     		str	r4, [r3]
 285:Generated_Source\PSoC4/UART_XB_UART.c ****         UART_XB_INTR_SLAVE_MASK_REG  = UART_XB_UART_DEFAULT_INTR_SLAVE_MASK;
  90              		.loc 1 285 0
  91 0054 194B     		ldr	r3, .L2+60
  92 0056 1C60     		str	r4, [r3]
 286:Generated_Source\PSoC4/UART_XB_UART.c ****         UART_XB_INTR_MASTER_MASK_REG = UART_XB_UART_DEFAULT_INTR_MASTER_MASK;
  93              		.loc 1 286 0
  94 0058 194B     		ldr	r3, .L2+64
  95 005a 1C60     		str	r4, [r3]
 287:Generated_Source\PSoC4/UART_XB_UART.c ****         UART_XB_INTR_RX_MASK_REG     = UART_XB_UART_DEFAULT_INTR_RX_MASK;
  96              		.loc 1 287 0
  97 005c 194B     		ldr	r3, .L2+68
  98 005e 1D60     		str	r5, [r3]
 288:Generated_Source\PSoC4/UART_XB_UART.c ****         UART_XB_INTR_TX_MASK_REG     = UART_XB_UART_DEFAULT_INTR_TX_MASK;
  99              		.loc 1 288 0
 100 0060 194B     		ldr	r3, .L2+72
 101 0062 1C60     		str	r4, [r3]
 289:Generated_Source\PSoC4/UART_XB_UART.c ****     
 290:Generated_Source\PSoC4/UART_XB_UART.c ****         /* Configure TX interrupt sources to restore. */
 291:Generated_Source\PSoC4/UART_XB_UART.c ****         UART_XB_IntrTxMask = LO16(UART_XB_INTR_TX_MASK_REG);
 102              		.loc 1 291 0
 103 0064 1A68     		ldr	r2, [r3]
 104 0066 194B     		ldr	r3, .L2+76
 105 0068 1A80     		strh	r2, [r3]
 292:Generated_Source\PSoC4/UART_XB_UART.c **** 
 293:Generated_Source\PSoC4/UART_XB_UART.c ****     #if(UART_XB_INTERNAL_RX_SW_BUFFER_CONST)
 294:Generated_Source\PSoC4/UART_XB_UART.c ****         UART_XB_rxBufferHead     = 0u;
ARM GAS  C:\Users\Petro\AppData\Local\Temp\ccfyNSMz.s 			page 8


 106              		.loc 1 294 0
 107 006a 194B     		ldr	r3, .L2+80
 108 006c 1C60     		str	r4, [r3]
 295:Generated_Source\PSoC4/UART_XB_UART.c ****         UART_XB_rxBufferTail     = 0u;
 109              		.loc 1 295 0
 110 006e 194B     		ldr	r3, .L2+84
 111 0070 1C60     		str	r4, [r3]
 296:Generated_Source\PSoC4/UART_XB_UART.c ****         UART_XB_rxBufferOverflow = 0u;
 112              		.loc 1 296 0
 113 0072 194B     		ldr	r3, .L2+88
 114 0074 1C70     		strb	r4, [r3]
 297:Generated_Source\PSoC4/UART_XB_UART.c ****     #endif /* (UART_XB_INTERNAL_RX_SW_BUFFER_CONST) */
 298:Generated_Source\PSoC4/UART_XB_UART.c **** 
 299:Generated_Source\PSoC4/UART_XB_UART.c ****     #if(UART_XB_INTERNAL_TX_SW_BUFFER_CONST)
 300:Generated_Source\PSoC4/UART_XB_UART.c ****         UART_XB_txBufferHead = 0u;
 115              		.loc 1 300 0
 116 0076 194B     		ldr	r3, .L2+92
 117 0078 1C60     		str	r4, [r3]
 301:Generated_Source\PSoC4/UART_XB_UART.c ****         UART_XB_txBufferTail = 0u;
 118              		.loc 1 301 0
 119 007a 194B     		ldr	r3, .L2+96
 120 007c 1C60     		str	r4, [r3]
 302:Generated_Source\PSoC4/UART_XB_UART.c ****     #endif /* (UART_XB_INTERNAL_TX_SW_BUFFER_CONST) */
 303:Generated_Source\PSoC4/UART_XB_UART.c ****     }
 121              		.loc 1 303 0
 122              		@ sp needed
 123 007e 38BD     		pop	{r3, r4, r5, pc}
 124              	.L3:
 125              		.align	2
 126              	.L2:
 127 0080 0B080002 		.word	33556491
 128 0084 00002540 		.word	1076166656
 129 0088 40002540 		.word	1076166720
 130 008c 48002540 		.word	1076166728
 131 0090 07000080 		.word	-2147483641
 132 0094 00032540 		.word	1076167424
 133 0098 04032540 		.word	1076167428
 134 009c 10032540 		.word	1076167440
 135 00a0 44002540 		.word	1076166724
 136 00a4 00022540 		.word	1076167168
 137 00a8 04022540 		.word	1076167172
 138 00ac 50002540 		.word	1076166736
 139 00b0 00000000 		.word	UART_XB_SPI_UART_ISR
 140 00b4 880E2540 		.word	1076170376
 141 00b8 C80E2540 		.word	1076170440
 142 00bc 480F2540 		.word	1076170568
 143 00c0 080F2540 		.word	1076170504
 144 00c4 C80F2540 		.word	1076170696
 145 00c8 880F2540 		.word	1076170632
 146 00cc 00000000 		.word	UART_XB_IntrTxMask
 147 00d0 00000000 		.word	UART_XB_rxBufferHead
 148 00d4 00000000 		.word	UART_XB_rxBufferTail
 149 00d8 00000000 		.word	UART_XB_rxBufferOverflow
 150 00dc 00000000 		.word	UART_XB_txBufferHead
 151 00e0 00000000 		.word	UART_XB_txBufferTail
 152              		.cfi_endproc
 153              	.LFE2:
ARM GAS  C:\Users\Petro\AppData\Local\Temp\ccfyNSMz.s 			page 9


 154              		.size	UART_XB_UartInit, .-UART_XB_UartInit
 155              		.section	.text.UART_XB_UartPostEnable,"ax",%progbits
 156              		.align	2
 157              		.global	UART_XB_UartPostEnable
 158              		.code	16
 159              		.thumb_func
 160              		.type	UART_XB_UartPostEnable, %function
 161              	UART_XB_UartPostEnable:
 162              	.LFB3:
 304:Generated_Source\PSoC4/UART_XB_UART.c **** #endif /* (UART_XB_SCB_MODE_UNCONFIG_CONST_CFG) */
 305:Generated_Source\PSoC4/UART_XB_UART.c **** 
 306:Generated_Source\PSoC4/UART_XB_UART.c **** 
 307:Generated_Source\PSoC4/UART_XB_UART.c **** /*******************************************************************************
 308:Generated_Source\PSoC4/UART_XB_UART.c **** * Function Name: UART_XB_UartPostEnable
 309:Generated_Source\PSoC4/UART_XB_UART.c **** ****************************************************************************//**
 310:Generated_Source\PSoC4/UART_XB_UART.c **** *
 311:Generated_Source\PSoC4/UART_XB_UART.c **** *  Restores HSIOM settings for the UART output pins (TX and/or RTS) to be
 312:Generated_Source\PSoC4/UART_XB_UART.c **** *  controlled by the SCB UART.
 313:Generated_Source\PSoC4/UART_XB_UART.c **** *
 314:Generated_Source\PSoC4/UART_XB_UART.c **** *******************************************************************************/
 315:Generated_Source\PSoC4/UART_XB_UART.c **** void UART_XB_UartPostEnable(void)
 316:Generated_Source\PSoC4/UART_XB_UART.c **** {
 163              		.loc 1 316 0
 164              		.cfi_startproc
 317:Generated_Source\PSoC4/UART_XB_UART.c **** #if (UART_XB_SCB_MODE_UNCONFIG_CONST_CFG)
 318:Generated_Source\PSoC4/UART_XB_UART.c ****     #if (UART_XB_TX_SCL_MISO_PIN)
 319:Generated_Source\PSoC4/UART_XB_UART.c ****         if (UART_XB_CHECK_TX_SCL_MISO_PIN_USED)
 320:Generated_Source\PSoC4/UART_XB_UART.c ****         {
 321:Generated_Source\PSoC4/UART_XB_UART.c ****             /* Set SCB UART to drive the output pin */
 322:Generated_Source\PSoC4/UART_XB_UART.c ****             UART_XB_SET_HSIOM_SEL(UART_XB_TX_SCL_MISO_HSIOM_REG, UART_XB_TX_SCL_MISO_HSIOM_MASK,
 323:Generated_Source\PSoC4/UART_XB_UART.c ****                                            UART_XB_TX_SCL_MISO_HSIOM_POS, UART_XB_TX_SCL_MISO_HSIOM
 324:Generated_Source\PSoC4/UART_XB_UART.c ****         }
 325:Generated_Source\PSoC4/UART_XB_UART.c ****     #endif /* (UART_XB_TX_SCL_MISO_PIN_PIN) */
 326:Generated_Source\PSoC4/UART_XB_UART.c **** 
 327:Generated_Source\PSoC4/UART_XB_UART.c ****     #if !(UART_XB_CY_SCBIP_V0 || UART_XB_CY_SCBIP_V1)
 328:Generated_Source\PSoC4/UART_XB_UART.c ****         #if (UART_XB_RTS_SS0_PIN)
 329:Generated_Source\PSoC4/UART_XB_UART.c ****             if (UART_XB_CHECK_RTS_SS0_PIN_USED)
 330:Generated_Source\PSoC4/UART_XB_UART.c ****             {
 331:Generated_Source\PSoC4/UART_XB_UART.c ****                 /* Set SCB UART to drive the output pin */
 332:Generated_Source\PSoC4/UART_XB_UART.c ****                 UART_XB_SET_HSIOM_SEL(UART_XB_RTS_SS0_HSIOM_REG, UART_XB_RTS_SS0_HSIOM_MASK,
 333:Generated_Source\PSoC4/UART_XB_UART.c ****                                                UART_XB_RTS_SS0_HSIOM_POS, UART_XB_RTS_SS0_HSIOM_SEL
 334:Generated_Source\PSoC4/UART_XB_UART.c ****             }
 335:Generated_Source\PSoC4/UART_XB_UART.c ****         #endif /* (UART_XB_RTS_SS0_PIN) */
 336:Generated_Source\PSoC4/UART_XB_UART.c ****     #endif /* !(UART_XB_CY_SCBIP_V0 || UART_XB_CY_SCBIP_V1) */
 337:Generated_Source\PSoC4/UART_XB_UART.c **** 
 338:Generated_Source\PSoC4/UART_XB_UART.c **** #else
 339:Generated_Source\PSoC4/UART_XB_UART.c ****     #if (UART_XB_UART_TX_PIN)
 340:Generated_Source\PSoC4/UART_XB_UART.c ****          /* Set SCB UART to drive the output pin */
 341:Generated_Source\PSoC4/UART_XB_UART.c ****         UART_XB_SET_HSIOM_SEL(UART_XB_TX_HSIOM_REG, UART_XB_TX_HSIOM_MASK,
 165              		.loc 1 341 0
 166 0000 0549     		ldr	r1, .L5
 167 0002 0B68     		ldr	r3, [r1]
 168 0004 F022     		mov	r2, #240
 169 0006 9343     		bic	r3, r2
 170 0008 603A     		sub	r2, r2, #96
 171 000a 1343     		orr	r3, r2
 172 000c 0B60     		str	r3, [r1]
ARM GAS  C:\Users\Petro\AppData\Local\Temp\ccfyNSMz.s 			page 10


 342:Generated_Source\PSoC4/UART_XB_UART.c ****                                        UART_XB_TX_HSIOM_POS, UART_XB_TX_HSIOM_SEL_UART);
 343:Generated_Source\PSoC4/UART_XB_UART.c ****     #endif /* (UART_XB_UART_TX_PIN) */
 344:Generated_Source\PSoC4/UART_XB_UART.c **** 
 345:Generated_Source\PSoC4/UART_XB_UART.c ****     #if (UART_XB_UART_RTS_PIN)
 346:Generated_Source\PSoC4/UART_XB_UART.c ****         /* Set SCB UART to drive the output pin */
 347:Generated_Source\PSoC4/UART_XB_UART.c ****         UART_XB_SET_HSIOM_SEL(UART_XB_RTS_HSIOM_REG, UART_XB_RTS_HSIOM_MASK,
 348:Generated_Source\PSoC4/UART_XB_UART.c ****                                        UART_XB_RTS_HSIOM_POS, UART_XB_RTS_HSIOM_SEL_UART);
 349:Generated_Source\PSoC4/UART_XB_UART.c ****     #endif /* (UART_XB_UART_RTS_PIN) */
 350:Generated_Source\PSoC4/UART_XB_UART.c **** #endif /* (UART_XB_SCB_MODE_UNCONFIG_CONST_CFG) */
 351:Generated_Source\PSoC4/UART_XB_UART.c **** 
 352:Generated_Source\PSoC4/UART_XB_UART.c ****     /* Restore TX interrupt sources. */
 353:Generated_Source\PSoC4/UART_XB_UART.c ****     UART_XB_SetTxInterruptMode(UART_XB_IntrTxMask);
 173              		.loc 1 353 0
 174 000e 034B     		ldr	r3, .L5+4
 175 0010 1A88     		ldrh	r2, [r3]
 176 0012 034B     		ldr	r3, .L5+8
 177 0014 1A60     		str	r2, [r3]
 354:Generated_Source\PSoC4/UART_XB_UART.c **** }
 178              		.loc 1 354 0
 179              		@ sp needed
 180 0016 7047     		bx	lr
 181              	.L6:
 182              		.align	2
 183              	.L5:
 184 0018 00000240 		.word	1073872896
 185 001c 00000000 		.word	UART_XB_IntrTxMask
 186 0020 880F2540 		.word	1076170632
 187              		.cfi_endproc
 188              	.LFE3:
 189              		.size	UART_XB_UartPostEnable, .-UART_XB_UartPostEnable
 190              		.section	.text.UART_XB_UartStop,"ax",%progbits
 191              		.align	2
 192              		.global	UART_XB_UartStop
 193              		.code	16
 194              		.thumb_func
 195              		.type	UART_XB_UartStop, %function
 196              	UART_XB_UartStop:
 197              	.LFB4:
 355:Generated_Source\PSoC4/UART_XB_UART.c **** 
 356:Generated_Source\PSoC4/UART_XB_UART.c **** 
 357:Generated_Source\PSoC4/UART_XB_UART.c **** /*******************************************************************************
 358:Generated_Source\PSoC4/UART_XB_UART.c **** * Function Name: UART_XB_UartStop
 359:Generated_Source\PSoC4/UART_XB_UART.c **** ****************************************************************************//**
 360:Generated_Source\PSoC4/UART_XB_UART.c **** *
 361:Generated_Source\PSoC4/UART_XB_UART.c **** *  Changes the HSIOM settings for the UART output pins (TX and/or RTS) to keep
 362:Generated_Source\PSoC4/UART_XB_UART.c **** *  them inactive after the block is disabled. The output pins are controlled by
 363:Generated_Source\PSoC4/UART_XB_UART.c **** *  the GPIO data register. Also, the function disables the skip start feature
 364:Generated_Source\PSoC4/UART_XB_UART.c **** *  to not cause it to trigger after the component is enabled.
 365:Generated_Source\PSoC4/UART_XB_UART.c **** *
 366:Generated_Source\PSoC4/UART_XB_UART.c **** *******************************************************************************/
 367:Generated_Source\PSoC4/UART_XB_UART.c **** void UART_XB_UartStop(void)
 368:Generated_Source\PSoC4/UART_XB_UART.c **** {
 198              		.loc 1 368 0
 199              		.cfi_startproc
 369:Generated_Source\PSoC4/UART_XB_UART.c **** #if(UART_XB_SCB_MODE_UNCONFIG_CONST_CFG)
 370:Generated_Source\PSoC4/UART_XB_UART.c ****     #if (UART_XB_TX_SCL_MISO_PIN)
 371:Generated_Source\PSoC4/UART_XB_UART.c ****         if (UART_XB_CHECK_TX_SCL_MISO_PIN_USED)
ARM GAS  C:\Users\Petro\AppData\Local\Temp\ccfyNSMz.s 			page 11


 372:Generated_Source\PSoC4/UART_XB_UART.c ****         {
 373:Generated_Source\PSoC4/UART_XB_UART.c ****             /* Set GPIO to drive output pin */
 374:Generated_Source\PSoC4/UART_XB_UART.c ****             UART_XB_SET_HSIOM_SEL(UART_XB_TX_SCL_MISO_HSIOM_REG, UART_XB_TX_SCL_MISO_HSIOM_MASK,
 375:Generated_Source\PSoC4/UART_XB_UART.c ****                                            UART_XB_TX_SCL_MISO_HSIOM_POS, UART_XB_TX_SCL_MISO_HSIOM
 376:Generated_Source\PSoC4/UART_XB_UART.c ****         }
 377:Generated_Source\PSoC4/UART_XB_UART.c ****     #endif /* (UART_XB_TX_SCL_MISO_PIN_PIN) */
 378:Generated_Source\PSoC4/UART_XB_UART.c **** 
 379:Generated_Source\PSoC4/UART_XB_UART.c ****     #if !(UART_XB_CY_SCBIP_V0 || UART_XB_CY_SCBIP_V1)
 380:Generated_Source\PSoC4/UART_XB_UART.c ****         #if (UART_XB_RTS_SS0_PIN)
 381:Generated_Source\PSoC4/UART_XB_UART.c ****             if (UART_XB_CHECK_RTS_SS0_PIN_USED)
 382:Generated_Source\PSoC4/UART_XB_UART.c ****             {
 383:Generated_Source\PSoC4/UART_XB_UART.c ****                 /* Set output pin state after block is disabled */
 384:Generated_Source\PSoC4/UART_XB_UART.c ****                 UART_XB_uart_rts_spi_ss0_Write(UART_XB_GET_UART_RTS_INACTIVE);
 385:Generated_Source\PSoC4/UART_XB_UART.c **** 
 386:Generated_Source\PSoC4/UART_XB_UART.c ****                 /* Set GPIO to drive output pin */
 387:Generated_Source\PSoC4/UART_XB_UART.c ****                 UART_XB_SET_HSIOM_SEL(UART_XB_RTS_SS0_HSIOM_REG, UART_XB_RTS_SS0_HSIOM_MASK,
 388:Generated_Source\PSoC4/UART_XB_UART.c ****                                                UART_XB_RTS_SS0_HSIOM_POS, UART_XB_RTS_SS0_HSIOM_SEL
 389:Generated_Source\PSoC4/UART_XB_UART.c ****             }
 390:Generated_Source\PSoC4/UART_XB_UART.c ****         #endif /* (UART_XB_RTS_SS0_PIN) */
 391:Generated_Source\PSoC4/UART_XB_UART.c ****     #endif /* !(UART_XB_CY_SCBIP_V0 || UART_XB_CY_SCBIP_V1) */
 392:Generated_Source\PSoC4/UART_XB_UART.c **** 
 393:Generated_Source\PSoC4/UART_XB_UART.c **** #else
 394:Generated_Source\PSoC4/UART_XB_UART.c ****     #if (UART_XB_UART_TX_PIN)
 395:Generated_Source\PSoC4/UART_XB_UART.c ****         /* Set GPIO to drive output pin */
 396:Generated_Source\PSoC4/UART_XB_UART.c ****         UART_XB_SET_HSIOM_SEL(UART_XB_TX_HSIOM_REG, UART_XB_TX_HSIOM_MASK,
 200              		.loc 1 396 0
 201 0000 064A     		ldr	r2, .L8
 202 0002 1368     		ldr	r3, [r2]
 203 0004 F021     		mov	r1, #240
 204 0006 8B43     		bic	r3, r1
 205 0008 1360     		str	r3, [r2]
 397:Generated_Source\PSoC4/UART_XB_UART.c ****                                        UART_XB_TX_HSIOM_POS, UART_XB_TX_HSIOM_SEL_GPIO);
 398:Generated_Source\PSoC4/UART_XB_UART.c ****     #endif /* (UART_XB_UART_TX_PIN) */
 399:Generated_Source\PSoC4/UART_XB_UART.c **** 
 400:Generated_Source\PSoC4/UART_XB_UART.c ****     #if (UART_XB_UART_RTS_PIN)
 401:Generated_Source\PSoC4/UART_XB_UART.c ****         /* Set output pin state after block is disabled */
 402:Generated_Source\PSoC4/UART_XB_UART.c ****         UART_XB_rts_Write(UART_XB_GET_UART_RTS_INACTIVE);
 403:Generated_Source\PSoC4/UART_XB_UART.c **** 
 404:Generated_Source\PSoC4/UART_XB_UART.c ****         /* Set GPIO to drive output pin */
 405:Generated_Source\PSoC4/UART_XB_UART.c ****         UART_XB_SET_HSIOM_SEL(UART_XB_RTS_HSIOM_REG, UART_XB_RTS_HSIOM_MASK,
 406:Generated_Source\PSoC4/UART_XB_UART.c ****                                        UART_XB_RTS_HSIOM_POS, UART_XB_RTS_HSIOM_SEL_GPIO);
 407:Generated_Source\PSoC4/UART_XB_UART.c ****     #endif /* (UART_XB_UART_RTS_PIN) */
 408:Generated_Source\PSoC4/UART_XB_UART.c **** 
 409:Generated_Source\PSoC4/UART_XB_UART.c **** #endif /* (UART_XB_SCB_MODE_UNCONFIG_CONST_CFG) */
 410:Generated_Source\PSoC4/UART_XB_UART.c **** 
 411:Generated_Source\PSoC4/UART_XB_UART.c **** #if (UART_XB_UART_WAKE_ENABLE_CONST)
 412:Generated_Source\PSoC4/UART_XB_UART.c ****     /* Disable skip start feature used for wakeup */
 413:Generated_Source\PSoC4/UART_XB_UART.c ****     UART_XB_UART_RX_CTRL_REG &= (uint32) ~UART_XB_UART_RX_CTRL_SKIP_START;
 414:Generated_Source\PSoC4/UART_XB_UART.c **** #endif /* (UART_XB_UART_WAKE_ENABLE_CONST) */
 415:Generated_Source\PSoC4/UART_XB_UART.c **** 
 416:Generated_Source\PSoC4/UART_XB_UART.c ****     /* Store TX interrupt sources (exclude level triggered). */
 417:Generated_Source\PSoC4/UART_XB_UART.c ****     UART_XB_IntrTxMask = LO16(UART_XB_GetTxInterruptMode() & UART_XB_INTR_UART_TX_RESTORE);
 206              		.loc 1 417 0
 207 000a 054B     		ldr	r3, .L8+4
 208 000c 1A68     		ldr	r2, [r3]
 209 000e E423     		mov	r3, #228
 210 0010 DB00     		lsl	r3, r3, #3
ARM GAS  C:\Users\Petro\AppData\Local\Temp\ccfyNSMz.s 			page 12


 211 0012 1340     		and	r3, r2
 212 0014 034A     		ldr	r2, .L8+8
 213 0016 1380     		strh	r3, [r2]
 418:Generated_Source\PSoC4/UART_XB_UART.c **** }
 214              		.loc 1 418 0
 215              		@ sp needed
 216 0018 7047     		bx	lr
 217              	.L9:
 218 001a C046     		.align	2
 219              	.L8:
 220 001c 00000240 		.word	1073872896
 221 0020 880F2540 		.word	1076170632
 222 0024 00000000 		.word	UART_XB_IntrTxMask
 223              		.cfi_endproc
 224              	.LFE4:
 225              		.size	UART_XB_UartStop, .-UART_XB_UartStop
 226              		.section	.text.UART_XB_UartSetRxAddress,"ax",%progbits
 227              		.align	2
 228              		.global	UART_XB_UartSetRxAddress
 229              		.code	16
 230              		.thumb_func
 231              		.type	UART_XB_UartSetRxAddress, %function
 232              	UART_XB_UartSetRxAddress:
 233              	.LFB5:
 419:Generated_Source\PSoC4/UART_XB_UART.c **** 
 420:Generated_Source\PSoC4/UART_XB_UART.c **** 
 421:Generated_Source\PSoC4/UART_XB_UART.c **** /*******************************************************************************
 422:Generated_Source\PSoC4/UART_XB_UART.c **** * Function Name: UART_XB_UartSetRxAddress
 423:Generated_Source\PSoC4/UART_XB_UART.c **** ****************************************************************************//**
 424:Generated_Source\PSoC4/UART_XB_UART.c **** *
 425:Generated_Source\PSoC4/UART_XB_UART.c **** *  Sets the hardware detectable receiver address for the UART in the
 426:Generated_Source\PSoC4/UART_XB_UART.c **** *  Multiprocessor mode.
 427:Generated_Source\PSoC4/UART_XB_UART.c **** *
 428:Generated_Source\PSoC4/UART_XB_UART.c **** *  \param address: Address for hardware address detection.
 429:Generated_Source\PSoC4/UART_XB_UART.c **** *
 430:Generated_Source\PSoC4/UART_XB_UART.c **** *******************************************************************************/
 431:Generated_Source\PSoC4/UART_XB_UART.c **** void UART_XB_UartSetRxAddress(uint32 address)
 432:Generated_Source\PSoC4/UART_XB_UART.c **** {
 234              		.loc 1 432 0
 235              		.cfi_startproc
 236              	.LVL3:
 433:Generated_Source\PSoC4/UART_XB_UART.c ****      uint32 matchReg;
 434:Generated_Source\PSoC4/UART_XB_UART.c **** 
 435:Generated_Source\PSoC4/UART_XB_UART.c ****     matchReg = UART_XB_RX_MATCH_REG;
 237              		.loc 1 435 0
 238 0000 034A     		ldr	r2, .L11
 239 0002 1368     		ldr	r3, [r2]
 240              	.LVL4:
 436:Generated_Source\PSoC4/UART_XB_UART.c **** 
 437:Generated_Source\PSoC4/UART_XB_UART.c ****     matchReg &= ((uint32) ~UART_XB_RX_MATCH_ADDR_MASK); /* Clear address bits */
 241              		.loc 1 437 0
 242 0004 FF21     		mov	r1, #255
 243 0006 8B43     		bic	r3, r1
 244              	.LVL5:
 438:Generated_Source\PSoC4/UART_XB_UART.c ****     matchReg |= ((uint32)  (address & UART_XB_RX_MATCH_ADDR_MASK)); /* Set address  */
 245              		.loc 1 438 0
 246 0008 0840     		and	r0, r1
ARM GAS  C:\Users\Petro\AppData\Local\Temp\ccfyNSMz.s 			page 13


 247              	.LVL6:
 248 000a 1843     		orr	r0, r3
 249              	.LVL7:
 439:Generated_Source\PSoC4/UART_XB_UART.c **** 
 440:Generated_Source\PSoC4/UART_XB_UART.c ****     UART_XB_RX_MATCH_REG = matchReg;
 250              		.loc 1 440 0
 251 000c 1060     		str	r0, [r2]
 441:Generated_Source\PSoC4/UART_XB_UART.c **** }
 252              		.loc 1 441 0
 253              		@ sp needed
 254 000e 7047     		bx	lr
 255              	.L12:
 256              		.align	2
 257              	.L11:
 258 0010 10032540 		.word	1076167440
 259              		.cfi_endproc
 260              	.LFE5:
 261              		.size	UART_XB_UartSetRxAddress, .-UART_XB_UartSetRxAddress
 262              		.section	.text.UART_XB_UartSetRxAddressMask,"ax",%progbits
 263              		.align	2
 264              		.global	UART_XB_UartSetRxAddressMask
 265              		.code	16
 266              		.thumb_func
 267              		.type	UART_XB_UartSetRxAddressMask, %function
 268              	UART_XB_UartSetRxAddressMask:
 269              	.LFB6:
 442:Generated_Source\PSoC4/UART_XB_UART.c **** 
 443:Generated_Source\PSoC4/UART_XB_UART.c **** 
 444:Generated_Source\PSoC4/UART_XB_UART.c **** /*******************************************************************************
 445:Generated_Source\PSoC4/UART_XB_UART.c **** * Function Name: UART_XB_UartSetRxAddressMask
 446:Generated_Source\PSoC4/UART_XB_UART.c **** ****************************************************************************//**
 447:Generated_Source\PSoC4/UART_XB_UART.c **** *
 448:Generated_Source\PSoC4/UART_XB_UART.c **** *  Sets the hardware address mask for the UART in the Multiprocessor mode.
 449:Generated_Source\PSoC4/UART_XB_UART.c **** *
 450:Generated_Source\PSoC4/UART_XB_UART.c **** *  \param addressMask: Address mask.
 451:Generated_Source\PSoC4/UART_XB_UART.c **** *   - Bit value 0 – excludes bit from address comparison.
 452:Generated_Source\PSoC4/UART_XB_UART.c **** *   - Bit value 1 – the bit needs to match with the corresponding bit
 453:Generated_Source\PSoC4/UART_XB_UART.c **** *     of the address.
 454:Generated_Source\PSoC4/UART_XB_UART.c **** *
 455:Generated_Source\PSoC4/UART_XB_UART.c **** *******************************************************************************/
 456:Generated_Source\PSoC4/UART_XB_UART.c **** void UART_XB_UartSetRxAddressMask(uint32 addressMask)
 457:Generated_Source\PSoC4/UART_XB_UART.c **** {
 270              		.loc 1 457 0
 271              		.cfi_startproc
 272              	.LVL8:
 458:Generated_Source\PSoC4/UART_XB_UART.c ****     uint32 matchReg;
 459:Generated_Source\PSoC4/UART_XB_UART.c **** 
 460:Generated_Source\PSoC4/UART_XB_UART.c ****     matchReg = UART_XB_RX_MATCH_REG;
 273              		.loc 1 460 0
 274 0000 034A     		ldr	r2, .L14
 275 0002 1168     		ldr	r1, [r2]
 276              	.LVL9:
 461:Generated_Source\PSoC4/UART_XB_UART.c **** 
 462:Generated_Source\PSoC4/UART_XB_UART.c ****     matchReg &= ((uint32) ~UART_XB_RX_MATCH_MASK_MASK); /* Clear address mask bits */
 277              		.loc 1 462 0
 278 0004 034B     		ldr	r3, .L14+4
 279 0006 0B40     		and	r3, r1
ARM GAS  C:\Users\Petro\AppData\Local\Temp\ccfyNSMz.s 			page 14


 280              	.LVL10:
 463:Generated_Source\PSoC4/UART_XB_UART.c ****     matchReg |= ((uint32) (addressMask << UART_XB_RX_MATCH_MASK_POS));
 281              		.loc 1 463 0
 282 0008 0004     		lsl	r0, r0, #16
 283              	.LVL11:
 284 000a 1843     		orr	r0, r3
 285              	.LVL12:
 464:Generated_Source\PSoC4/UART_XB_UART.c **** 
 465:Generated_Source\PSoC4/UART_XB_UART.c ****     UART_XB_RX_MATCH_REG = matchReg;
 286              		.loc 1 465 0
 287 000c 1060     		str	r0, [r2]
 466:Generated_Source\PSoC4/UART_XB_UART.c **** }
 288              		.loc 1 466 0
 289              		@ sp needed
 290 000e 7047     		bx	lr
 291              	.L15:
 292              		.align	2
 293              	.L14:
 294 0010 10032540 		.word	1076167440
 295 0014 FFFF00FF 		.word	-16711681
 296              		.cfi_endproc
 297              	.LFE6:
 298              		.size	UART_XB_UartSetRxAddressMask, .-UART_XB_UartSetRxAddressMask
 299              		.section	.text.UART_XB_UartGetChar,"ax",%progbits
 300              		.align	2
 301              		.global	UART_XB_UartGetChar
 302              		.code	16
 303              		.thumb_func
 304              		.type	UART_XB_UartGetChar, %function
 305              	UART_XB_UartGetChar:
 306              	.LFB7:
 467:Generated_Source\PSoC4/UART_XB_UART.c **** 
 468:Generated_Source\PSoC4/UART_XB_UART.c **** 
 469:Generated_Source\PSoC4/UART_XB_UART.c **** #if(UART_XB_UART_RX_DIRECTION)
 470:Generated_Source\PSoC4/UART_XB_UART.c ****     /*******************************************************************************
 471:Generated_Source\PSoC4/UART_XB_UART.c ****     * Function Name: UART_XB_UartGetChar
 472:Generated_Source\PSoC4/UART_XB_UART.c ****     ****************************************************************************//**
 473:Generated_Source\PSoC4/UART_XB_UART.c ****     *
 474:Generated_Source\PSoC4/UART_XB_UART.c ****     *  Retrieves next data element from receive buffer.
 475:Generated_Source\PSoC4/UART_XB_UART.c ****     *  This function is designed for ASCII characters and returns a char where
 476:Generated_Source\PSoC4/UART_XB_UART.c ****     *  1 to 255 are valid characters and 0 indicates an error occurred or no data
 477:Generated_Source\PSoC4/UART_XB_UART.c ****     *  is present.
 478:Generated_Source\PSoC4/UART_XB_UART.c ****     *  - RX software buffer is disabled: Returns data element retrieved from RX
 479:Generated_Source\PSoC4/UART_XB_UART.c ****     *    FIFO.
 480:Generated_Source\PSoC4/UART_XB_UART.c ****     *  - RX software buffer is enabled: Returns data element from the software
 481:Generated_Source\PSoC4/UART_XB_UART.c ****     *    receive buffer.
 482:Generated_Source\PSoC4/UART_XB_UART.c ****     *
 483:Generated_Source\PSoC4/UART_XB_UART.c ****     *  \return
 484:Generated_Source\PSoC4/UART_XB_UART.c ****     *   Next data element from the receive buffer. ASCII character values from
 485:Generated_Source\PSoC4/UART_XB_UART.c ****     *   1 to 255 are valid. A returned zero signifies an error condition or no
 486:Generated_Source\PSoC4/UART_XB_UART.c ****     *   data available.
 487:Generated_Source\PSoC4/UART_XB_UART.c ****     *
 488:Generated_Source\PSoC4/UART_XB_UART.c ****     *  \sideeffect
 489:Generated_Source\PSoC4/UART_XB_UART.c ****     *   The errors bits may not correspond with reading characters due to
 490:Generated_Source\PSoC4/UART_XB_UART.c ****     *   RX FIFO and software buffer usage.
 491:Generated_Source\PSoC4/UART_XB_UART.c ****     *   RX software buffer is enabled: The internal software buffer overflow
 492:Generated_Source\PSoC4/UART_XB_UART.c ****     *   is not treated as an error condition.
ARM GAS  C:\Users\Petro\AppData\Local\Temp\ccfyNSMz.s 			page 15


 493:Generated_Source\PSoC4/UART_XB_UART.c ****     *   Check UART_XB_rxBufferOverflow to capture that error condition.
 494:Generated_Source\PSoC4/UART_XB_UART.c ****     *
 495:Generated_Source\PSoC4/UART_XB_UART.c ****     *******************************************************************************/
 496:Generated_Source\PSoC4/UART_XB_UART.c ****     uint32 UART_XB_UartGetChar(void)
 497:Generated_Source\PSoC4/UART_XB_UART.c ****     {
 307              		.loc 1 497 0
 308              		.cfi_startproc
 309 0000 08B5     		push	{r3, lr}
 310              		.cfi_def_cfa_offset 8
 311              		.cfi_offset 3, -8
 312              		.cfi_offset 14, -4
 313              	.LVL13:
 498:Generated_Source\PSoC4/UART_XB_UART.c ****         uint32 rxData = 0u;
 499:Generated_Source\PSoC4/UART_XB_UART.c **** 
 500:Generated_Source\PSoC4/UART_XB_UART.c ****         /* Reads data only if there is data to read */
 501:Generated_Source\PSoC4/UART_XB_UART.c ****         if (0u != UART_XB_SpiUartGetRxBufferSize())
 314              		.loc 1 501 0
 315 0002 FFF7FEFF 		bl	UART_XB_SpiUartGetRxBufferSize
 316              	.LVL14:
 317 0006 0028     		cmp	r0, #0
 318 0008 02D0     		beq	.L19
 502:Generated_Source\PSoC4/UART_XB_UART.c ****         {
 503:Generated_Source\PSoC4/UART_XB_UART.c ****             rxData = UART_XB_SpiUartReadRxData();
 319              		.loc 1 503 0
 320 000a FFF7FEFF 		bl	UART_XB_SpiUartReadRxData
 321              	.LVL15:
 322 000e 00E0     		b	.L17
 323              	.LVL16:
 324              	.L19:
 498:Generated_Source\PSoC4/UART_XB_UART.c ****         uint32 rxData = 0u;
 325              		.loc 1 498 0
 326 0010 0020     		mov	r0, #0
 327              	.LVL17:
 328              	.L17:
 504:Generated_Source\PSoC4/UART_XB_UART.c ****         }
 505:Generated_Source\PSoC4/UART_XB_UART.c **** 
 506:Generated_Source\PSoC4/UART_XB_UART.c ****         if (UART_XB_CHECK_INTR_RX(UART_XB_INTR_RX_ERR))
 329              		.loc 1 506 0
 330 0012 054B     		ldr	r3, .L20
 331 0014 1A68     		ldr	r2, [r3]
 332 0016 D823     		mov	r3, #216
 333 0018 9B00     		lsl	r3, r3, #2
 334 001a 1A42     		tst	r2, r3
 335 001c 03D0     		beq	.L18
 336              	.LVL18:
 507:Generated_Source\PSoC4/UART_XB_UART.c ****         {
 508:Generated_Source\PSoC4/UART_XB_UART.c ****             rxData = 0u; /* Error occurred: returns zero */
 509:Generated_Source\PSoC4/UART_XB_UART.c ****             UART_XB_ClearRxInterruptSource(UART_XB_INTR_RX_ERR);
 337              		.loc 1 509 0
 338 001e 1A1C     		mov	r2, r3
 339 0020 014B     		ldr	r3, .L20
 340 0022 1A60     		str	r2, [r3]
 508:Generated_Source\PSoC4/UART_XB_UART.c ****             UART_XB_ClearRxInterruptSource(UART_XB_INTR_RX_ERR);
 341              		.loc 1 508 0
 342 0024 0020     		mov	r0, #0
 343              	.LVL19:
 344              	.L18:
ARM GAS  C:\Users\Petro\AppData\Local\Temp\ccfyNSMz.s 			page 16


 510:Generated_Source\PSoC4/UART_XB_UART.c ****         }
 511:Generated_Source\PSoC4/UART_XB_UART.c **** 
 512:Generated_Source\PSoC4/UART_XB_UART.c ****         return (rxData);
 513:Generated_Source\PSoC4/UART_XB_UART.c ****     }
 345              		.loc 1 513 0
 346              		@ sp needed
 347 0026 08BD     		pop	{r3, pc}
 348              	.L21:
 349              		.align	2
 350              	.L20:
 351 0028 C00F2540 		.word	1076170688
 352              		.cfi_endproc
 353              	.LFE7:
 354              		.size	UART_XB_UartGetChar, .-UART_XB_UartGetChar
 355              		.section	.text.UART_XB_UartGetByte,"ax",%progbits
 356              		.align	2
 357              		.global	UART_XB_UartGetByte
 358              		.code	16
 359              		.thumb_func
 360              		.type	UART_XB_UartGetByte, %function
 361              	UART_XB_UartGetByte:
 362              	.LFB8:
 514:Generated_Source\PSoC4/UART_XB_UART.c **** 
 515:Generated_Source\PSoC4/UART_XB_UART.c **** 
 516:Generated_Source\PSoC4/UART_XB_UART.c ****     /*******************************************************************************
 517:Generated_Source\PSoC4/UART_XB_UART.c ****     * Function Name: UART_XB_UartGetByte
 518:Generated_Source\PSoC4/UART_XB_UART.c ****     ****************************************************************************//**
 519:Generated_Source\PSoC4/UART_XB_UART.c ****     *
 520:Generated_Source\PSoC4/UART_XB_UART.c ****     *  Retrieves the next data element from the receive buffer, returns the
 521:Generated_Source\PSoC4/UART_XB_UART.c ****     *  received byte and error condition.
 522:Generated_Source\PSoC4/UART_XB_UART.c ****     *   - The RX software buffer is disabled: returns the data element retrieved
 523:Generated_Source\PSoC4/UART_XB_UART.c ****     *     from the RX FIFO. Undefined data will be returned if the RX FIFO is
 524:Generated_Source\PSoC4/UART_XB_UART.c ****     *     empty.
 525:Generated_Source\PSoC4/UART_XB_UART.c ****     *   - The RX software buffer is enabled: returns data element from the
 526:Generated_Source\PSoC4/UART_XB_UART.c ****     *     software receive buffer.
 527:Generated_Source\PSoC4/UART_XB_UART.c ****     *
 528:Generated_Source\PSoC4/UART_XB_UART.c ****     *  \return
 529:Generated_Source\PSoC4/UART_XB_UART.c ****     *   Bits 7-0 contain the next data element from the receive buffer and
 530:Generated_Source\PSoC4/UART_XB_UART.c ****     *   other bits contain the error condition.
 531:Generated_Source\PSoC4/UART_XB_UART.c ****     *   - UART_XB_UART_RX_OVERFLOW - Attempt to write to a full
 532:Generated_Source\PSoC4/UART_XB_UART.c ****     *     receiver FIFO.
 533:Generated_Source\PSoC4/UART_XB_UART.c ****     *   - UART_XB_UART_RX_UNDERFLOW	Attempt to read from an empty
 534:Generated_Source\PSoC4/UART_XB_UART.c ****     *     receiver FIFO.
 535:Generated_Source\PSoC4/UART_XB_UART.c ****     *   - UART_XB_UART_RX_FRAME_ERROR - UART framing error detected.
 536:Generated_Source\PSoC4/UART_XB_UART.c ****     *   - UART_XB_UART_RX_PARITY_ERROR - UART parity error detected.
 537:Generated_Source\PSoC4/UART_XB_UART.c ****     *
 538:Generated_Source\PSoC4/UART_XB_UART.c ****     *  \sideeffect
 539:Generated_Source\PSoC4/UART_XB_UART.c ****     *   The errors bits may not correspond with reading characters due to
 540:Generated_Source\PSoC4/UART_XB_UART.c ****     *   RX FIFO and software buffer usage.
 541:Generated_Source\PSoC4/UART_XB_UART.c ****     *   RX software buffer is enabled: The internal software buffer overflow
 542:Generated_Source\PSoC4/UART_XB_UART.c ****     *   is not treated as an error condition.
 543:Generated_Source\PSoC4/UART_XB_UART.c ****     *   Check UART_XB_rxBufferOverflow to capture that error condition.
 544:Generated_Source\PSoC4/UART_XB_UART.c ****     *
 545:Generated_Source\PSoC4/UART_XB_UART.c ****     *******************************************************************************/
 546:Generated_Source\PSoC4/UART_XB_UART.c ****     uint32 UART_XB_UartGetByte(void)
 547:Generated_Source\PSoC4/UART_XB_UART.c ****     {
 363              		.loc 1 547 0
ARM GAS  C:\Users\Petro\AppData\Local\Temp\ccfyNSMz.s 			page 17


 364              		.cfi_startproc
 365 0000 10B5     		push	{r4, lr}
 366              		.cfi_def_cfa_offset 8
 367              		.cfi_offset 4, -8
 368              		.cfi_offset 14, -4
 548:Generated_Source\PSoC4/UART_XB_UART.c ****         uint32 rxData;
 549:Generated_Source\PSoC4/UART_XB_UART.c ****         uint32 tmpStatus;
 550:Generated_Source\PSoC4/UART_XB_UART.c **** 
 551:Generated_Source\PSoC4/UART_XB_UART.c ****         #if (UART_XB_CHECK_RX_SW_BUFFER)
 552:Generated_Source\PSoC4/UART_XB_UART.c ****         {
 553:Generated_Source\PSoC4/UART_XB_UART.c ****             UART_XB_DisableInt();
 369              		.loc 1 553 0
 370 0002 0A20     		mov	r0, #10
 371 0004 FFF7FEFF 		bl	CyIntDisable
 372              	.LVL20:
 554:Generated_Source\PSoC4/UART_XB_UART.c ****         }
 555:Generated_Source\PSoC4/UART_XB_UART.c ****         #endif
 556:Generated_Source\PSoC4/UART_XB_UART.c **** 
 557:Generated_Source\PSoC4/UART_XB_UART.c ****         if (0u != UART_XB_SpiUartGetRxBufferSize())
 373              		.loc 1 557 0
 374 0008 FFF7FEFF 		bl	UART_XB_SpiUartGetRxBufferSize
 375              	.LVL21:
 376 000c 0028     		cmp	r0, #0
 377 000e 06D0     		beq	.L23
 558:Generated_Source\PSoC4/UART_XB_UART.c ****         {
 559:Generated_Source\PSoC4/UART_XB_UART.c ****             /* Enables interrupt to receive more bytes: at least one byte is in
 560:Generated_Source\PSoC4/UART_XB_UART.c ****             * buffer.
 561:Generated_Source\PSoC4/UART_XB_UART.c ****             */
 562:Generated_Source\PSoC4/UART_XB_UART.c ****             #if (UART_XB_CHECK_RX_SW_BUFFER)
 563:Generated_Source\PSoC4/UART_XB_UART.c ****             {
 564:Generated_Source\PSoC4/UART_XB_UART.c ****                 UART_XB_EnableInt();
 378              		.loc 1 564 0
 379 0010 0A20     		mov	r0, #10
 380 0012 FFF7FEFF 		bl	CyIntEnable
 381              	.LVL22:
 565:Generated_Source\PSoC4/UART_XB_UART.c ****             }
 566:Generated_Source\PSoC4/UART_XB_UART.c ****             #endif
 567:Generated_Source\PSoC4/UART_XB_UART.c **** 
 568:Generated_Source\PSoC4/UART_XB_UART.c ****             /* Get received byte */
 569:Generated_Source\PSoC4/UART_XB_UART.c ****             rxData = UART_XB_SpiUartReadRxData();
 382              		.loc 1 569 0
 383 0016 FFF7FEFF 		bl	UART_XB_SpiUartReadRxData
 384              	.LVL23:
 385 001a 041C     		mov	r4, r0
 386              	.LVL24:
 387 001c 07E0     		b	.L24
 388              	.LVL25:
 389              	.L23:
 570:Generated_Source\PSoC4/UART_XB_UART.c ****         }
 571:Generated_Source\PSoC4/UART_XB_UART.c ****         else
 572:Generated_Source\PSoC4/UART_XB_UART.c ****         {
 573:Generated_Source\PSoC4/UART_XB_UART.c ****             /* Reads a byte directly from RX FIFO: underflow is raised in the
 574:Generated_Source\PSoC4/UART_XB_UART.c ****             * case of empty. Otherwise the first received byte will be read.
 575:Generated_Source\PSoC4/UART_XB_UART.c ****             */
 576:Generated_Source\PSoC4/UART_XB_UART.c ****             rxData = UART_XB_RX_FIFO_RD_REG;
 390              		.loc 1 576 0
 391 001e 084B     		ldr	r3, .L25
ARM GAS  C:\Users\Petro\AppData\Local\Temp\ccfyNSMz.s 			page 18


 392 0020 1C68     		ldr	r4, [r3]
 393              	.LVL26:
 577:Generated_Source\PSoC4/UART_XB_UART.c **** 
 578:Generated_Source\PSoC4/UART_XB_UART.c **** 
 579:Generated_Source\PSoC4/UART_XB_UART.c ****             /* Enables interrupt to receive more bytes. */
 580:Generated_Source\PSoC4/UART_XB_UART.c ****             #if (UART_XB_CHECK_RX_SW_BUFFER)
 581:Generated_Source\PSoC4/UART_XB_UART.c ****             {
 582:Generated_Source\PSoC4/UART_XB_UART.c **** 
 583:Generated_Source\PSoC4/UART_XB_UART.c ****                 /* The byte has been read from RX FIFO. Clear RX interrupt to
 584:Generated_Source\PSoC4/UART_XB_UART.c ****                 * not involve interrupt handler when RX FIFO is empty.
 585:Generated_Source\PSoC4/UART_XB_UART.c ****                 */
 586:Generated_Source\PSoC4/UART_XB_UART.c ****                 UART_XB_ClearRxInterruptSource(UART_XB_INTR_RX_NOT_EMPTY);
 394              		.loc 1 586 0
 395 0022 0422     		mov	r2, #4
 396 0024 074B     		ldr	r3, .L25+4
 397 0026 1A60     		str	r2, [r3]
 587:Generated_Source\PSoC4/UART_XB_UART.c **** 
 588:Generated_Source\PSoC4/UART_XB_UART.c ****                 UART_XB_EnableInt();
 398              		.loc 1 588 0
 399 0028 0A20     		mov	r0, #10
 400 002a FFF7FEFF 		bl	CyIntEnable
 401              	.LVL27:
 402              	.L24:
 589:Generated_Source\PSoC4/UART_XB_UART.c ****             }
 590:Generated_Source\PSoC4/UART_XB_UART.c ****             #endif
 591:Generated_Source\PSoC4/UART_XB_UART.c ****         }
 592:Generated_Source\PSoC4/UART_XB_UART.c **** 
 593:Generated_Source\PSoC4/UART_XB_UART.c ****         /* Get and clear RX error mask */
 594:Generated_Source\PSoC4/UART_XB_UART.c ****         tmpStatus = (UART_XB_GetRxInterruptSource() & UART_XB_INTR_RX_ERR);
 403              		.loc 1 594 0
 404 002e 054B     		ldr	r3, .L25+4
 405 0030 1868     		ldr	r0, [r3]
 406 0032 D822     		mov	r2, #216
 407 0034 9200     		lsl	r2, r2, #2
 408 0036 1040     		and	r0, r2
 409              	.LVL28:
 595:Generated_Source\PSoC4/UART_XB_UART.c ****         UART_XB_ClearRxInterruptSource(UART_XB_INTR_RX_ERR);
 410              		.loc 1 595 0
 411 0038 1A60     		str	r2, [r3]
 596:Generated_Source\PSoC4/UART_XB_UART.c **** 
 597:Generated_Source\PSoC4/UART_XB_UART.c ****         /* Puts together data and error status:
 598:Generated_Source\PSoC4/UART_XB_UART.c ****         * MP mode and accept address: 9th bit is set to notify mark.
 599:Generated_Source\PSoC4/UART_XB_UART.c ****         */
 600:Generated_Source\PSoC4/UART_XB_UART.c ****         rxData |= ((uint32) (tmpStatus << 8u));
 412              		.loc 1 600 0
 413 003a 0002     		lsl	r0, r0, #8
 414              	.LVL29:
 415 003c 2043     		orr	r0, r4
 416              	.LVL30:
 601:Generated_Source\PSoC4/UART_XB_UART.c **** 
 602:Generated_Source\PSoC4/UART_XB_UART.c ****         return (rxData);
 603:Generated_Source\PSoC4/UART_XB_UART.c ****     }
 417              		.loc 1 603 0
 418              		@ sp needed
 419 003e 10BD     		pop	{r4, pc}
 420              	.L26:
 421              		.align	2
ARM GAS  C:\Users\Petro\AppData\Local\Temp\ccfyNSMz.s 			page 19


 422              	.L25:
 423 0040 40032540 		.word	1076167488
 424 0044 C00F2540 		.word	1076170688
 425              		.cfi_endproc
 426              	.LFE8:
 427              		.size	UART_XB_UartGetByte, .-UART_XB_UartGetByte
 428              		.section	.text.UART_XB_UartSetRtsPolarity,"ax",%progbits
 429              		.align	2
 430              		.global	UART_XB_UartSetRtsPolarity
 431              		.code	16
 432              		.thumb_func
 433              		.type	UART_XB_UartSetRtsPolarity, %function
 434              	UART_XB_UartSetRtsPolarity:
 435              	.LFB9:
 604:Generated_Source\PSoC4/UART_XB_UART.c **** 
 605:Generated_Source\PSoC4/UART_XB_UART.c **** 
 606:Generated_Source\PSoC4/UART_XB_UART.c ****     #if !(UART_XB_CY_SCBIP_V0 || UART_XB_CY_SCBIP_V1)
 607:Generated_Source\PSoC4/UART_XB_UART.c ****         /*******************************************************************************
 608:Generated_Source\PSoC4/UART_XB_UART.c ****         * Function Name: UART_XB_UartSetRtsPolarity
 609:Generated_Source\PSoC4/UART_XB_UART.c ****         ****************************************************************************//**
 610:Generated_Source\PSoC4/UART_XB_UART.c ****         *
 611:Generated_Source\PSoC4/UART_XB_UART.c ****         *  Sets active polarity of RTS output signal.
 612:Generated_Source\PSoC4/UART_XB_UART.c ****         *  Only available for PSoC 4100 BLE / PSoC 4200 BLE / PSoC 4100M / PSoC 4200M /
 613:Generated_Source\PSoC4/UART_XB_UART.c ****         *  PSoC 4200L / PSoC 4000S / PSoC 4100S / PSoC Analog Coprocessor devices.
 614:Generated_Source\PSoC4/UART_XB_UART.c ****         *
 615:Generated_Source\PSoC4/UART_XB_UART.c ****         *  \param polarity: Active polarity of RTS output signal.
 616:Generated_Source\PSoC4/UART_XB_UART.c ****         *   - UART_XB_UART_RTS_ACTIVE_LOW  - RTS signal is active low.
 617:Generated_Source\PSoC4/UART_XB_UART.c ****         *   - UART_XB_UART_RTS_ACTIVE_HIGH - RTS signal is active high.
 618:Generated_Source\PSoC4/UART_XB_UART.c ****         *
 619:Generated_Source\PSoC4/UART_XB_UART.c ****         *******************************************************************************/
 620:Generated_Source\PSoC4/UART_XB_UART.c ****         void UART_XB_UartSetRtsPolarity(uint32 polarity)
 621:Generated_Source\PSoC4/UART_XB_UART.c ****         {
 436              		.loc 1 621 0
 437              		.cfi_startproc
 438              	.LVL31:
 622:Generated_Source\PSoC4/UART_XB_UART.c ****             if(0u != polarity)
 439              		.loc 1 622 0
 440 0000 0028     		cmp	r0, #0
 441 0002 06D0     		beq	.L28
 623:Generated_Source\PSoC4/UART_XB_UART.c ****             {
 624:Generated_Source\PSoC4/UART_XB_UART.c ****                 UART_XB_UART_FLOW_CTRL_REG |= (uint32)  UART_XB_UART_FLOW_CTRL_RTS_POLARITY;
 442              		.loc 1 624 0
 443 0004 064A     		ldr	r2, .L30
 444 0006 1368     		ldr	r3, [r2]
 445 0008 8021     		mov	r1, #128
 446 000a 4902     		lsl	r1, r1, #9
 447 000c 0B43     		orr	r3, r1
 448 000e 1360     		str	r3, [r2]
 449 0010 04E0     		b	.L27
 450              	.L28:
 625:Generated_Source\PSoC4/UART_XB_UART.c ****             }
 626:Generated_Source\PSoC4/UART_XB_UART.c ****             else
 627:Generated_Source\PSoC4/UART_XB_UART.c ****             {
 628:Generated_Source\PSoC4/UART_XB_UART.c ****                 UART_XB_UART_FLOW_CTRL_REG &= (uint32) ~UART_XB_UART_FLOW_CTRL_RTS_POLARITY;
 451              		.loc 1 628 0
 452 0012 034A     		ldr	r2, .L30
 453 0014 1168     		ldr	r1, [r2]
ARM GAS  C:\Users\Petro\AppData\Local\Temp\ccfyNSMz.s 			page 20


 454 0016 034B     		ldr	r3, .L30+4
 455 0018 0B40     		and	r3, r1
 456 001a 1360     		str	r3, [r2]
 457              	.L27:
 629:Generated_Source\PSoC4/UART_XB_UART.c ****             }
 630:Generated_Source\PSoC4/UART_XB_UART.c ****         }
 458              		.loc 1 630 0
 459              		@ sp needed
 460 001c 7047     		bx	lr
 461              	.L31:
 462 001e C046     		.align	2
 463              	.L30:
 464 0020 50002540 		.word	1076166736
 465 0024 FFFFFEFF 		.word	-65537
 466              		.cfi_endproc
 467              	.LFE9:
 468              		.size	UART_XB_UartSetRtsPolarity, .-UART_XB_UartSetRtsPolarity
 469              		.section	.text.UART_XB_UartSetRtsFifoLevel,"ax",%progbits
 470              		.align	2
 471              		.global	UART_XB_UartSetRtsFifoLevel
 472              		.code	16
 473              		.thumb_func
 474              		.type	UART_XB_UartSetRtsFifoLevel, %function
 475              	UART_XB_UartSetRtsFifoLevel:
 476              	.LFB10:
 631:Generated_Source\PSoC4/UART_XB_UART.c **** 
 632:Generated_Source\PSoC4/UART_XB_UART.c **** 
 633:Generated_Source\PSoC4/UART_XB_UART.c ****         /*******************************************************************************
 634:Generated_Source\PSoC4/UART_XB_UART.c ****         * Function Name: UART_XB_UartSetRtsFifoLevel
 635:Generated_Source\PSoC4/UART_XB_UART.c ****         ****************************************************************************//**
 636:Generated_Source\PSoC4/UART_XB_UART.c ****         *
 637:Generated_Source\PSoC4/UART_XB_UART.c ****         *  Sets level in the RX FIFO for RTS signal activation.
 638:Generated_Source\PSoC4/UART_XB_UART.c ****         *  While the RX FIFO has fewer entries than the RX FIFO level the RTS signal
 639:Generated_Source\PSoC4/UART_XB_UART.c ****         *  remains active, otherwise the RTS signal becomes inactive.
 640:Generated_Source\PSoC4/UART_XB_UART.c ****         *  Only available for PSoC 4100 BLE / PSoC 4200 BLE / PSoC 4100M / PSoC 4200M /
 641:Generated_Source\PSoC4/UART_XB_UART.c ****         *  PSoC 4200L / PSoC 4000S / PSoC 4100S / PSoC Analog Coprocessor devices.
 642:Generated_Source\PSoC4/UART_XB_UART.c ****         *
 643:Generated_Source\PSoC4/UART_XB_UART.c ****         *  \param level: Level in the RX FIFO for RTS signal activation.
 644:Generated_Source\PSoC4/UART_XB_UART.c ****         *   The range of valid level values is between 0 and RX FIFO depth - 1.
 645:Generated_Source\PSoC4/UART_XB_UART.c ****         *   Setting level value to 0 disables RTS signal activation.
 646:Generated_Source\PSoC4/UART_XB_UART.c ****         *
 647:Generated_Source\PSoC4/UART_XB_UART.c ****         *******************************************************************************/
 648:Generated_Source\PSoC4/UART_XB_UART.c ****         void UART_XB_UartSetRtsFifoLevel(uint32 level)
 649:Generated_Source\PSoC4/UART_XB_UART.c ****         {
 477              		.loc 1 649 0
 478              		.cfi_startproc
 479              	.LVL32:
 650:Generated_Source\PSoC4/UART_XB_UART.c ****             uint32 uartFlowCtrl;
 651:Generated_Source\PSoC4/UART_XB_UART.c **** 
 652:Generated_Source\PSoC4/UART_XB_UART.c ****             uartFlowCtrl = UART_XB_UART_FLOW_CTRL_REG;
 480              		.loc 1 652 0
 481 0000 034A     		ldr	r2, .L33
 482 0002 1368     		ldr	r3, [r2]
 483              	.LVL33:
 653:Generated_Source\PSoC4/UART_XB_UART.c **** 
 654:Generated_Source\PSoC4/UART_XB_UART.c ****             uartFlowCtrl &= ((uint32) ~UART_XB_UART_FLOW_CTRL_TRIGGER_LEVEL_MASK); /* Clear level m
 484              		.loc 1 654 0
ARM GAS  C:\Users\Petro\AppData\Local\Temp\ccfyNSMz.s 			page 21


 485 0004 0F21     		mov	r1, #15
 486 0006 8B43     		bic	r3, r1
 487              	.LVL34:
 655:Generated_Source\PSoC4/UART_XB_UART.c ****             uartFlowCtrl |= ((uint32) (UART_XB_UART_FLOW_CTRL_TRIGGER_LEVEL_MASK & level));
 488              		.loc 1 655 0
 489 0008 0840     		and	r0, r1
 490              	.LVL35:
 491 000a 1843     		orr	r0, r3
 492              	.LVL36:
 656:Generated_Source\PSoC4/UART_XB_UART.c **** 
 657:Generated_Source\PSoC4/UART_XB_UART.c ****             UART_XB_UART_FLOW_CTRL_REG = uartFlowCtrl;
 493              		.loc 1 657 0
 494 000c 1060     		str	r0, [r2]
 658:Generated_Source\PSoC4/UART_XB_UART.c ****         }
 495              		.loc 1 658 0
 496              		@ sp needed
 497 000e 7047     		bx	lr
 498              	.L34:
 499              		.align	2
 500              	.L33:
 501 0010 50002540 		.word	1076166736
 502              		.cfi_endproc
 503              	.LFE10:
 504              		.size	UART_XB_UartSetRtsFifoLevel, .-UART_XB_UartSetRtsFifoLevel
 505              		.section	.text.UART_XB_UartPutString,"ax",%progbits
 506              		.align	2
 507              		.global	UART_XB_UartPutString
 508              		.code	16
 509              		.thumb_func
 510              		.type	UART_XB_UartPutString, %function
 511              	UART_XB_UartPutString:
 512              	.LFB11:
 659:Generated_Source\PSoC4/UART_XB_UART.c ****     #endif /* !(UART_XB_CY_SCBIP_V0 || UART_XB_CY_SCBIP_V1) */
 660:Generated_Source\PSoC4/UART_XB_UART.c **** 
 661:Generated_Source\PSoC4/UART_XB_UART.c **** #endif /* (UART_XB_UART_RX_DIRECTION) */
 662:Generated_Source\PSoC4/UART_XB_UART.c **** 
 663:Generated_Source\PSoC4/UART_XB_UART.c **** 
 664:Generated_Source\PSoC4/UART_XB_UART.c **** #if(UART_XB_UART_TX_DIRECTION)
 665:Generated_Source\PSoC4/UART_XB_UART.c ****     /*******************************************************************************
 666:Generated_Source\PSoC4/UART_XB_UART.c ****     * Function Name: UART_XB_UartPutString
 667:Generated_Source\PSoC4/UART_XB_UART.c ****     ****************************************************************************//**
 668:Generated_Source\PSoC4/UART_XB_UART.c ****     *
 669:Generated_Source\PSoC4/UART_XB_UART.c ****     *  Places a NULL terminated string in the transmit buffer to be sent at the
 670:Generated_Source\PSoC4/UART_XB_UART.c ****     *  next available bus time.
 671:Generated_Source\PSoC4/UART_XB_UART.c ****     *  This function is blocking and waits until there is a space available to put
 672:Generated_Source\PSoC4/UART_XB_UART.c ****     *  requested data in transmit buffer.
 673:Generated_Source\PSoC4/UART_XB_UART.c ****     *
 674:Generated_Source\PSoC4/UART_XB_UART.c ****     *  \param string: pointer to the null terminated string array to be placed in the
 675:Generated_Source\PSoC4/UART_XB_UART.c ****     *   transmit buffer.
 676:Generated_Source\PSoC4/UART_XB_UART.c ****     *
 677:Generated_Source\PSoC4/UART_XB_UART.c ****     *******************************************************************************/
 678:Generated_Source\PSoC4/UART_XB_UART.c ****     void UART_XB_UartPutString(const char8 string[])
 679:Generated_Source\PSoC4/UART_XB_UART.c ****     {
 513              		.loc 1 679 0
 514              		.cfi_startproc
 515              	.LVL37:
 516 0000 38B5     		push	{r3, r4, r5, lr}
ARM GAS  C:\Users\Petro\AppData\Local\Temp\ccfyNSMz.s 			page 22


 517              		.cfi_def_cfa_offset 16
 518              		.cfi_offset 3, -16
 519              		.cfi_offset 4, -12
 520              		.cfi_offset 5, -8
 521              		.cfi_offset 14, -4
 522 0002 051C     		mov	r5, r0
 523              	.LVL38:
 680:Generated_Source\PSoC4/UART_XB_UART.c ****         uint32 bufIndex;
 681:Generated_Source\PSoC4/UART_XB_UART.c **** 
 682:Generated_Source\PSoC4/UART_XB_UART.c ****         bufIndex = 0u;
 524              		.loc 1 682 0
 525 0004 0024     		mov	r4, #0
 683:Generated_Source\PSoC4/UART_XB_UART.c **** 
 684:Generated_Source\PSoC4/UART_XB_UART.c ****         /* Blocks the control flow until all data has been sent */
 685:Generated_Source\PSoC4/UART_XB_UART.c ****         while(string[bufIndex] != ((char8) 0))
 526              		.loc 1 685 0
 527 0006 02E0     		b	.L36
 528              	.LVL39:
 529              	.L37:
 686:Generated_Source\PSoC4/UART_XB_UART.c ****         {
 687:Generated_Source\PSoC4/UART_XB_UART.c ****             UART_XB_UartPutChar((uint32) string[bufIndex]);
 530              		.loc 1 687 0
 531 0008 FFF7FEFF 		bl	UART_XB_SpiUartWriteTxData
 532              	.LVL40:
 688:Generated_Source\PSoC4/UART_XB_UART.c ****             bufIndex++;
 533              		.loc 1 688 0
 534 000c 0134     		add	r4, r4, #1
 535              	.LVL41:
 536              	.L36:
 685:Generated_Source\PSoC4/UART_XB_UART.c ****         {
 537              		.loc 1 685 0
 538 000e 285D     		ldrb	r0, [r5, r4]
 539 0010 0028     		cmp	r0, #0
 540 0012 F9D1     		bne	.L37
 689:Generated_Source\PSoC4/UART_XB_UART.c ****         }
 690:Generated_Source\PSoC4/UART_XB_UART.c ****     }
 541              		.loc 1 690 0
 542              		@ sp needed
 543              	.LVL42:
 544              	.LVL43:
 545 0014 38BD     		pop	{r3, r4, r5, pc}
 546              		.cfi_endproc
 547              	.LFE11:
 548              		.size	UART_XB_UartPutString, .-UART_XB_UartPutString
 549 0016 C046     		.section	.text.UART_XB_UartPutCRLF,"ax",%progbits
 550              		.align	2
 551              		.global	UART_XB_UartPutCRLF
 552              		.code	16
 553              		.thumb_func
 554              		.type	UART_XB_UartPutCRLF, %function
 555              	UART_XB_UartPutCRLF:
 556              	.LFB12:
 691:Generated_Source\PSoC4/UART_XB_UART.c **** 
 692:Generated_Source\PSoC4/UART_XB_UART.c **** 
 693:Generated_Source\PSoC4/UART_XB_UART.c ****     /*******************************************************************************
 694:Generated_Source\PSoC4/UART_XB_UART.c ****     * Function Name: UART_XB_UartPutCRLF
 695:Generated_Source\PSoC4/UART_XB_UART.c ****     ****************************************************************************//**
ARM GAS  C:\Users\Petro\AppData\Local\Temp\ccfyNSMz.s 			page 23


 696:Generated_Source\PSoC4/UART_XB_UART.c ****     *
 697:Generated_Source\PSoC4/UART_XB_UART.c ****     *  Places byte of data followed by a carriage return (0x0D) and line feed
 698:Generated_Source\PSoC4/UART_XB_UART.c ****     *  (0x0A) in the transmit buffer.
 699:Generated_Source\PSoC4/UART_XB_UART.c ****     *  This function is blocking and waits until there is a space available to put
 700:Generated_Source\PSoC4/UART_XB_UART.c ****     *  all requested data in transmit buffer.
 701:Generated_Source\PSoC4/UART_XB_UART.c ****     *
 702:Generated_Source\PSoC4/UART_XB_UART.c ****     *  \param txDataByte: the data to be transmitted.
 703:Generated_Source\PSoC4/UART_XB_UART.c ****     *
 704:Generated_Source\PSoC4/UART_XB_UART.c ****     *******************************************************************************/
 705:Generated_Source\PSoC4/UART_XB_UART.c ****     void UART_XB_UartPutCRLF(uint32 txDataByte)
 706:Generated_Source\PSoC4/UART_XB_UART.c ****     {
 557              		.loc 1 706 0
 558              		.cfi_startproc
 559              	.LVL44:
 560 0000 08B5     		push	{r3, lr}
 561              		.cfi_def_cfa_offset 8
 562              		.cfi_offset 3, -8
 563              		.cfi_offset 14, -4
 707:Generated_Source\PSoC4/UART_XB_UART.c ****         UART_XB_UartPutChar(txDataByte);  /* Blocks control flow until all data has been sent */
 564              		.loc 1 707 0
 565 0002 FFF7FEFF 		bl	UART_XB_SpiUartWriteTxData
 566              	.LVL45:
 708:Generated_Source\PSoC4/UART_XB_UART.c ****         UART_XB_UartPutChar(0x0Du);       /* Blocks control flow until all data has been sent */
 567              		.loc 1 708 0
 568 0006 0D20     		mov	r0, #13
 569 0008 FFF7FEFF 		bl	UART_XB_SpiUartWriteTxData
 570              	.LVL46:
 709:Generated_Source\PSoC4/UART_XB_UART.c ****         UART_XB_UartPutChar(0x0Au);       /* Blocks control flow until all data has been sent */
 571              		.loc 1 709 0
 572 000c 0A20     		mov	r0, #10
 573 000e FFF7FEFF 		bl	UART_XB_SpiUartWriteTxData
 574              	.LVL47:
 710:Generated_Source\PSoC4/UART_XB_UART.c ****     }
 575              		.loc 1 710 0
 576              		@ sp needed
 577 0012 08BD     		pop	{r3, pc}
 578              		.cfi_endproc
 579              	.LFE12:
 580              		.size	UART_XB_UartPutCRLF, .-UART_XB_UartPutCRLF
 581              		.section	.text.UART_XB_UartEnableCts,"ax",%progbits
 582              		.align	2
 583              		.global	UART_XB_UartEnableCts
 584              		.code	16
 585              		.thumb_func
 586              		.type	UART_XB_UartEnableCts, %function
 587              	UART_XB_UartEnableCts:
 588              	.LFB13:
 711:Generated_Source\PSoC4/UART_XB_UART.c **** 
 712:Generated_Source\PSoC4/UART_XB_UART.c **** 
 713:Generated_Source\PSoC4/UART_XB_UART.c ****     #if !(UART_XB_CY_SCBIP_V0 || UART_XB_CY_SCBIP_V1)
 714:Generated_Source\PSoC4/UART_XB_UART.c ****         /*******************************************************************************
 715:Generated_Source\PSoC4/UART_XB_UART.c ****         * Function Name: UART_XBSCB_UartEnableCts
 716:Generated_Source\PSoC4/UART_XB_UART.c ****         ****************************************************************************//**
 717:Generated_Source\PSoC4/UART_XB_UART.c ****         *
 718:Generated_Source\PSoC4/UART_XB_UART.c ****         *  Enables usage of CTS input signal by the UART transmitter.
 719:Generated_Source\PSoC4/UART_XB_UART.c ****         *  Only available for PSoC 4100 BLE / PSoC 4200 BLE / PSoC 4100M / PSoC 4200M /
 720:Generated_Source\PSoC4/UART_XB_UART.c ****         *  PSoC 4200L / PSoC 4000S / PSoC 4100S / PSoC Analog Coprocessor devices.
ARM GAS  C:\Users\Petro\AppData\Local\Temp\ccfyNSMz.s 			page 24


 721:Generated_Source\PSoC4/UART_XB_UART.c ****         *
 722:Generated_Source\PSoC4/UART_XB_UART.c ****         *******************************************************************************/
 723:Generated_Source\PSoC4/UART_XB_UART.c ****         void UART_XB_UartEnableCts(void)
 724:Generated_Source\PSoC4/UART_XB_UART.c ****         {
 589              		.loc 1 724 0
 590              		.cfi_startproc
 725:Generated_Source\PSoC4/UART_XB_UART.c ****             UART_XB_UART_FLOW_CTRL_REG |= (uint32)  UART_XB_UART_FLOW_CTRL_CTS_ENABLE;
 591              		.loc 1 725 0
 592 0000 034A     		ldr	r2, .L40
 593 0002 1368     		ldr	r3, [r2]
 594 0004 8021     		mov	r1, #128
 595 0006 8904     		lsl	r1, r1, #18
 596 0008 0B43     		orr	r3, r1
 597 000a 1360     		str	r3, [r2]
 726:Generated_Source\PSoC4/UART_XB_UART.c ****         }
 598              		.loc 1 726 0
 599              		@ sp needed
 600 000c 7047     		bx	lr
 601              	.L41:
 602 000e C046     		.align	2
 603              	.L40:
 604 0010 50002540 		.word	1076166736
 605              		.cfi_endproc
 606              	.LFE13:
 607              		.size	UART_XB_UartEnableCts, .-UART_XB_UartEnableCts
 608              		.section	.text.UART_XB_UartDisableCts,"ax",%progbits
 609              		.align	2
 610              		.global	UART_XB_UartDisableCts
 611              		.code	16
 612              		.thumb_func
 613              		.type	UART_XB_UartDisableCts, %function
 614              	UART_XB_UartDisableCts:
 615              	.LFB14:
 727:Generated_Source\PSoC4/UART_XB_UART.c **** 
 728:Generated_Source\PSoC4/UART_XB_UART.c **** 
 729:Generated_Source\PSoC4/UART_XB_UART.c ****         /*******************************************************************************
 730:Generated_Source\PSoC4/UART_XB_UART.c ****         * Function Name: UART_XB_UartDisableCts
 731:Generated_Source\PSoC4/UART_XB_UART.c ****         ****************************************************************************//**
 732:Generated_Source\PSoC4/UART_XB_UART.c ****         *
 733:Generated_Source\PSoC4/UART_XB_UART.c ****         *  Disables usage of CTS input signal by the UART transmitter.
 734:Generated_Source\PSoC4/UART_XB_UART.c ****         *  Only available for PSoC 4100 BLE / PSoC 4200 BLE / PSoC 4100M / PSoC 4200M /
 735:Generated_Source\PSoC4/UART_XB_UART.c ****         *  PSoC 4200L / PSoC 4000S / PSoC 4100S / PSoC Analog Coprocessor devices.
 736:Generated_Source\PSoC4/UART_XB_UART.c ****         *
 737:Generated_Source\PSoC4/UART_XB_UART.c ****         *******************************************************************************/
 738:Generated_Source\PSoC4/UART_XB_UART.c ****         void UART_XB_UartDisableCts(void)
 739:Generated_Source\PSoC4/UART_XB_UART.c ****         {
 616              		.loc 1 739 0
 617              		.cfi_startproc
 740:Generated_Source\PSoC4/UART_XB_UART.c ****             UART_XB_UART_FLOW_CTRL_REG &= (uint32) ~UART_XB_UART_FLOW_CTRL_CTS_ENABLE;
 618              		.loc 1 740 0
 619 0000 024A     		ldr	r2, .L43
 620 0002 1168     		ldr	r1, [r2]
 621 0004 024B     		ldr	r3, .L43+4
 622 0006 0B40     		and	r3, r1
 623 0008 1360     		str	r3, [r2]
 741:Generated_Source\PSoC4/UART_XB_UART.c ****         }
 624              		.loc 1 741 0
ARM GAS  C:\Users\Petro\AppData\Local\Temp\ccfyNSMz.s 			page 25


 625              		@ sp needed
 626 000a 7047     		bx	lr
 627              	.L44:
 628              		.align	2
 629              	.L43:
 630 000c 50002540 		.word	1076166736
 631 0010 FFFFFFFD 		.word	-33554433
 632              		.cfi_endproc
 633              	.LFE14:
 634              		.size	UART_XB_UartDisableCts, .-UART_XB_UartDisableCts
 635              		.section	.text.UART_XB_UartSetCtsPolarity,"ax",%progbits
 636              		.align	2
 637              		.global	UART_XB_UartSetCtsPolarity
 638              		.code	16
 639              		.thumb_func
 640              		.type	UART_XB_UartSetCtsPolarity, %function
 641              	UART_XB_UartSetCtsPolarity:
 642              	.LFB15:
 742:Generated_Source\PSoC4/UART_XB_UART.c **** 
 743:Generated_Source\PSoC4/UART_XB_UART.c **** 
 744:Generated_Source\PSoC4/UART_XB_UART.c ****         /*******************************************************************************
 745:Generated_Source\PSoC4/UART_XB_UART.c ****         * Function Name: UART_XB_UartSetCtsPolarity
 746:Generated_Source\PSoC4/UART_XB_UART.c ****         ****************************************************************************//**
 747:Generated_Source\PSoC4/UART_XB_UART.c ****         *
 748:Generated_Source\PSoC4/UART_XB_UART.c ****         *  Sets active polarity of CTS input signal.
 749:Generated_Source\PSoC4/UART_XB_UART.c ****         *  Only available for PSoC 4100 BLE / PSoC 4200 BLE / PSoC 4100M / PSoC 4200M /
 750:Generated_Source\PSoC4/UART_XB_UART.c ****         *  PSoC 4200L / PSoC 4000S / PSoC 4100S / PSoC Analog Coprocessor devices.
 751:Generated_Source\PSoC4/UART_XB_UART.c ****         *
 752:Generated_Source\PSoC4/UART_XB_UART.c ****         *  \param polarity: Active polarity of CTS output signal.
 753:Generated_Source\PSoC4/UART_XB_UART.c ****         *   - UART_XB_UART_CTS_ACTIVE_LOW  - CTS signal is active low.
 754:Generated_Source\PSoC4/UART_XB_UART.c ****         *   - UART_XB_UART_CTS_ACTIVE_HIGH - CTS signal is active high.
 755:Generated_Source\PSoC4/UART_XB_UART.c ****         *
 756:Generated_Source\PSoC4/UART_XB_UART.c ****         *******************************************************************************/
 757:Generated_Source\PSoC4/UART_XB_UART.c ****         void UART_XB_UartSetCtsPolarity(uint32 polarity)
 758:Generated_Source\PSoC4/UART_XB_UART.c ****         {
 643              		.loc 1 758 0
 644              		.cfi_startproc
 645              	.LVL48:
 759:Generated_Source\PSoC4/UART_XB_UART.c ****             if (0u != polarity)
 646              		.loc 1 759 0
 647 0000 0028     		cmp	r0, #0
 648 0002 06D0     		beq	.L46
 760:Generated_Source\PSoC4/UART_XB_UART.c ****             {
 761:Generated_Source\PSoC4/UART_XB_UART.c ****                 UART_XB_UART_FLOW_CTRL_REG |= (uint32)  UART_XB_UART_FLOW_CTRL_CTS_POLARITY;
 649              		.loc 1 761 0
 650 0004 064A     		ldr	r2, .L48
 651 0006 1368     		ldr	r3, [r2]
 652 0008 8021     		mov	r1, #128
 653 000a 4904     		lsl	r1, r1, #17
 654 000c 0B43     		orr	r3, r1
 655 000e 1360     		str	r3, [r2]
 656 0010 04E0     		b	.L45
 657              	.L46:
 762:Generated_Source\PSoC4/UART_XB_UART.c ****             }
 763:Generated_Source\PSoC4/UART_XB_UART.c ****             else
 764:Generated_Source\PSoC4/UART_XB_UART.c ****             {
 765:Generated_Source\PSoC4/UART_XB_UART.c ****                 UART_XB_UART_FLOW_CTRL_REG &= (uint32) ~UART_XB_UART_FLOW_CTRL_CTS_POLARITY;
ARM GAS  C:\Users\Petro\AppData\Local\Temp\ccfyNSMz.s 			page 26


 658              		.loc 1 765 0
 659 0012 034A     		ldr	r2, .L48
 660 0014 1168     		ldr	r1, [r2]
 661 0016 034B     		ldr	r3, .L48+4
 662 0018 0B40     		and	r3, r1
 663 001a 1360     		str	r3, [r2]
 664              	.L45:
 766:Generated_Source\PSoC4/UART_XB_UART.c ****             }
 767:Generated_Source\PSoC4/UART_XB_UART.c ****         }
 665              		.loc 1 767 0
 666              		@ sp needed
 667 001c 7047     		bx	lr
 668              	.L49:
 669 001e C046     		.align	2
 670              	.L48:
 671 0020 50002540 		.word	1076166736
 672 0024 FFFFFFFE 		.word	-16777217
 673              		.cfi_endproc
 674              	.LFE15:
 675              		.size	UART_XB_UartSetCtsPolarity, .-UART_XB_UartSetCtsPolarity
 676              		.text
 677              	.Letext0:
 678              		.file 2 "Generated_Source\\PSoC4/cytypes.h"
 679              		.file 3 "Generated_Source\\PSoC4\\UART_XB_PVT.h"
 680              		.file 4 "Generated_Source\\PSoC4\\UART_XB_SPI_UART_PVT.h"
 681              		.file 5 "Generated_Source\\PSoC4/CyLib.h"
 682              		.file 6 "Generated_Source\\PSoC4\\UART_XB_SPI_UART.h"