ARM GAS  C:\Users\Petro\AppData\Local\Temp\ccLVkPCw.s 			page 1


   1              		.cpu cortex-m0
   2              		.fpu softvfp
   3              		.eabi_attribute 20, 1
   4              		.eabi_attribute 21, 1
   5              		.eabi_attribute 23, 3
   6              		.eabi_attribute 24, 1
   7              		.eabi_attribute 25, 1
   8              		.eabi_attribute 26, 1
   9              		.eabi_attribute 30, 1
  10              		.eabi_attribute 34, 0
  11              		.eabi_attribute 18, 4
  12              		.code	16
  13              		.file	"UART_XB2.c"
  14              		.text
  15              	.Ltext0:
  16              		.cfi_sections	.debug_frame
  17              		.section	.text.UART_XB2_Init,"ax",%progbits
  18              		.align	2
  19              		.global	UART_XB2_Init
  20              		.code	16
  21              		.thumb_func
  22              		.type	UART_XB2_Init, %function
  23              	UART_XB2_Init:
  24              	.LFB3:
  25              		.file 1 "Generated_Source\\PSoC4\\UART_XB2.c"
   1:Generated_Source\PSoC4/UART_XB2.c **** /*******************************************************************************
   2:Generated_Source\PSoC4/UART_XB2.c **** * File Name: UART_XB2.c
   3:Generated_Source\PSoC4/UART_XB2.c **** * Version 2.50
   4:Generated_Source\PSoC4/UART_XB2.c **** *
   5:Generated_Source\PSoC4/UART_XB2.c **** * Description:
   6:Generated_Source\PSoC4/UART_XB2.c **** *  This file provides all API functionality of the UART component
   7:Generated_Source\PSoC4/UART_XB2.c **** *
   8:Generated_Source\PSoC4/UART_XB2.c **** * Note:
   9:Generated_Source\PSoC4/UART_XB2.c **** *
  10:Generated_Source\PSoC4/UART_XB2.c **** ********************************************************************************
  11:Generated_Source\PSoC4/UART_XB2.c **** * Copyright 2008-2015, Cypress Semiconductor Corporation.  All rights reserved.
  12:Generated_Source\PSoC4/UART_XB2.c **** * You may use this file only in accordance with the license, terms, conditions,
  13:Generated_Source\PSoC4/UART_XB2.c **** * disclaimers, and limitations in the end user license agreement accompanying
  14:Generated_Source\PSoC4/UART_XB2.c **** * the software package with which this file was provided.
  15:Generated_Source\PSoC4/UART_XB2.c **** *******************************************************************************/
  16:Generated_Source\PSoC4/UART_XB2.c **** 
  17:Generated_Source\PSoC4/UART_XB2.c **** #include "UART_XB2.h"
  18:Generated_Source\PSoC4/UART_XB2.c **** #if (UART_XB2_INTERNAL_CLOCK_USED)
  19:Generated_Source\PSoC4/UART_XB2.c ****     #include "UART_XB2_IntClock.h"
  20:Generated_Source\PSoC4/UART_XB2.c **** #endif /* End UART_XB2_INTERNAL_CLOCK_USED */
  21:Generated_Source\PSoC4/UART_XB2.c **** 
  22:Generated_Source\PSoC4/UART_XB2.c **** 
  23:Generated_Source\PSoC4/UART_XB2.c **** /***************************************
  24:Generated_Source\PSoC4/UART_XB2.c **** * Global data allocation
  25:Generated_Source\PSoC4/UART_XB2.c **** ***************************************/
  26:Generated_Source\PSoC4/UART_XB2.c **** 
  27:Generated_Source\PSoC4/UART_XB2.c **** uint8 UART_XB2_initVar = 0u;
  28:Generated_Source\PSoC4/UART_XB2.c **** 
  29:Generated_Source\PSoC4/UART_XB2.c **** #if (UART_XB2_TX_INTERRUPT_ENABLED && UART_XB2_TX_ENABLED)
  30:Generated_Source\PSoC4/UART_XB2.c ****     volatile uint8 UART_XB2_txBuffer[UART_XB2_TX_BUFFER_SIZE];
  31:Generated_Source\PSoC4/UART_XB2.c ****     volatile uint8 UART_XB2_txBufferRead = 0u;
  32:Generated_Source\PSoC4/UART_XB2.c ****     uint8 UART_XB2_txBufferWrite = 0u;
ARM GAS  C:\Users\Petro\AppData\Local\Temp\ccLVkPCw.s 			page 2


  33:Generated_Source\PSoC4/UART_XB2.c **** #endif /* (UART_XB2_TX_INTERRUPT_ENABLED && UART_XB2_TX_ENABLED) */
  34:Generated_Source\PSoC4/UART_XB2.c **** 
  35:Generated_Source\PSoC4/UART_XB2.c **** #if (UART_XB2_RX_INTERRUPT_ENABLED && (UART_XB2_RX_ENABLED || UART_XB2_HD_ENABLED))
  36:Generated_Source\PSoC4/UART_XB2.c ****     uint8 UART_XB2_errorStatus = 0u;
  37:Generated_Source\PSoC4/UART_XB2.c ****     volatile uint8 UART_XB2_rxBuffer[UART_XB2_RX_BUFFER_SIZE];
  38:Generated_Source\PSoC4/UART_XB2.c ****     volatile uint8 UART_XB2_rxBufferRead  = 0u;
  39:Generated_Source\PSoC4/UART_XB2.c ****     volatile uint8 UART_XB2_rxBufferWrite = 0u;
  40:Generated_Source\PSoC4/UART_XB2.c ****     volatile uint8 UART_XB2_rxBufferLoopDetect = 0u;
  41:Generated_Source\PSoC4/UART_XB2.c ****     volatile uint8 UART_XB2_rxBufferOverflow   = 0u;
  42:Generated_Source\PSoC4/UART_XB2.c ****     #if (UART_XB2_RXHW_ADDRESS_ENABLED)
  43:Generated_Source\PSoC4/UART_XB2.c ****         volatile uint8 UART_XB2_rxAddressMode = UART_XB2_RX_ADDRESS_MODE;
  44:Generated_Source\PSoC4/UART_XB2.c ****         volatile uint8 UART_XB2_rxAddressDetected = 0u;
  45:Generated_Source\PSoC4/UART_XB2.c ****     #endif /* (UART_XB2_RXHW_ADDRESS_ENABLED) */
  46:Generated_Source\PSoC4/UART_XB2.c **** #endif /* (UART_XB2_RX_INTERRUPT_ENABLED && (UART_XB2_RX_ENABLED || UART_XB2_HD_ENABLED)) */
  47:Generated_Source\PSoC4/UART_XB2.c **** 
  48:Generated_Source\PSoC4/UART_XB2.c **** 
  49:Generated_Source\PSoC4/UART_XB2.c **** /*******************************************************************************
  50:Generated_Source\PSoC4/UART_XB2.c **** * Function Name: UART_XB2_Start
  51:Generated_Source\PSoC4/UART_XB2.c **** ********************************************************************************
  52:Generated_Source\PSoC4/UART_XB2.c **** *
  53:Generated_Source\PSoC4/UART_XB2.c **** * Summary:
  54:Generated_Source\PSoC4/UART_XB2.c **** *  This is the preferred method to begin component operation.
  55:Generated_Source\PSoC4/UART_XB2.c **** *  UART_XB2_Start() sets the initVar variable, calls the
  56:Generated_Source\PSoC4/UART_XB2.c **** *  UART_XB2_Init() function, and then calls the
  57:Generated_Source\PSoC4/UART_XB2.c **** *  UART_XB2_Enable() function.
  58:Generated_Source\PSoC4/UART_XB2.c **** *
  59:Generated_Source\PSoC4/UART_XB2.c **** * Parameters:
  60:Generated_Source\PSoC4/UART_XB2.c **** *  None.
  61:Generated_Source\PSoC4/UART_XB2.c **** *
  62:Generated_Source\PSoC4/UART_XB2.c **** * Return:
  63:Generated_Source\PSoC4/UART_XB2.c **** *  None.
  64:Generated_Source\PSoC4/UART_XB2.c **** *
  65:Generated_Source\PSoC4/UART_XB2.c **** * Global variables:
  66:Generated_Source\PSoC4/UART_XB2.c **** *  The UART_XB2_intiVar variable is used to indicate initial
  67:Generated_Source\PSoC4/UART_XB2.c **** *  configuration of this component. The variable is initialized to zero (0u)
  68:Generated_Source\PSoC4/UART_XB2.c **** *  and set to one (1u) the first time UART_XB2_Start() is called. This
  69:Generated_Source\PSoC4/UART_XB2.c **** *  allows for component initialization without re-initialization in all
  70:Generated_Source\PSoC4/UART_XB2.c **** *  subsequent calls to the UART_XB2_Start() routine.
  71:Generated_Source\PSoC4/UART_XB2.c **** *
  72:Generated_Source\PSoC4/UART_XB2.c **** * Reentrant:
  73:Generated_Source\PSoC4/UART_XB2.c **** *  No.
  74:Generated_Source\PSoC4/UART_XB2.c **** *
  75:Generated_Source\PSoC4/UART_XB2.c **** *******************************************************************************/
  76:Generated_Source\PSoC4/UART_XB2.c **** void UART_XB2_Start(void) 
  77:Generated_Source\PSoC4/UART_XB2.c **** {
  78:Generated_Source\PSoC4/UART_XB2.c ****     /* If not initialized then initialize all required hardware and software */
  79:Generated_Source\PSoC4/UART_XB2.c ****     if(UART_XB2_initVar == 0u)
  80:Generated_Source\PSoC4/UART_XB2.c ****     {
  81:Generated_Source\PSoC4/UART_XB2.c ****         UART_XB2_Init();
  82:Generated_Source\PSoC4/UART_XB2.c ****         UART_XB2_initVar = 1u;
  83:Generated_Source\PSoC4/UART_XB2.c ****     }
  84:Generated_Source\PSoC4/UART_XB2.c **** 
  85:Generated_Source\PSoC4/UART_XB2.c ****     UART_XB2_Enable();
  86:Generated_Source\PSoC4/UART_XB2.c **** }
  87:Generated_Source\PSoC4/UART_XB2.c **** 
  88:Generated_Source\PSoC4/UART_XB2.c **** 
  89:Generated_Source\PSoC4/UART_XB2.c **** /*******************************************************************************
ARM GAS  C:\Users\Petro\AppData\Local\Temp\ccLVkPCw.s 			page 3


  90:Generated_Source\PSoC4/UART_XB2.c **** * Function Name: UART_XB2_Init
  91:Generated_Source\PSoC4/UART_XB2.c **** ********************************************************************************
  92:Generated_Source\PSoC4/UART_XB2.c **** *
  93:Generated_Source\PSoC4/UART_XB2.c **** * Summary:
  94:Generated_Source\PSoC4/UART_XB2.c **** *  Initializes or restores the component according to the customizer Configure
  95:Generated_Source\PSoC4/UART_XB2.c **** *  dialog settings. It is not necessary to call UART_XB2_Init() because
  96:Generated_Source\PSoC4/UART_XB2.c **** *  the UART_XB2_Start() API calls this function and is the preferred
  97:Generated_Source\PSoC4/UART_XB2.c **** *  method to begin component operation.
  98:Generated_Source\PSoC4/UART_XB2.c **** *
  99:Generated_Source\PSoC4/UART_XB2.c **** * Parameters:
 100:Generated_Source\PSoC4/UART_XB2.c **** *  None.
 101:Generated_Source\PSoC4/UART_XB2.c **** *
 102:Generated_Source\PSoC4/UART_XB2.c **** * Return:
 103:Generated_Source\PSoC4/UART_XB2.c **** *  None.
 104:Generated_Source\PSoC4/UART_XB2.c **** *
 105:Generated_Source\PSoC4/UART_XB2.c **** *******************************************************************************/
 106:Generated_Source\PSoC4/UART_XB2.c **** void UART_XB2_Init(void) 
 107:Generated_Source\PSoC4/UART_XB2.c **** {
  26              		.loc 1 107 0
  27              		.cfi_startproc
  28 0000 08B5     		push	{r3, lr}
  29              		.cfi_def_cfa_offset 8
  30              		.cfi_offset 3, -8
  31              		.cfi_offset 14, -4
 108:Generated_Source\PSoC4/UART_XB2.c ****     #if(UART_XB2_RX_ENABLED || UART_XB2_HD_ENABLED)
 109:Generated_Source\PSoC4/UART_XB2.c **** 
 110:Generated_Source\PSoC4/UART_XB2.c ****         #if (UART_XB2_RX_INTERRUPT_ENABLED)
 111:Generated_Source\PSoC4/UART_XB2.c ****             /* Set RX interrupt vector and priority */
 112:Generated_Source\PSoC4/UART_XB2.c ****             (void) CyIntSetVector(UART_XB2_RX_VECT_NUM, &UART_XB2_RXISR);
  32              		.loc 1 112 0
  33 0002 0120     		mov	r0, #1
  34 0004 1049     		ldr	r1, .L2
  35 0006 FFF7FEFF 		bl	CyIntSetVector
  36              	.LVL0:
 113:Generated_Source\PSoC4/UART_XB2.c ****             CyIntSetPriority(UART_XB2_RX_VECT_NUM, UART_XB2_RX_PRIOR_NUM);
  37              		.loc 1 113 0
  38 000a 0120     		mov	r0, #1
  39 000c 0321     		mov	r1, #3
  40 000e FFF7FEFF 		bl	CyIntSetPriority
  41              	.LVL1:
 114:Generated_Source\PSoC4/UART_XB2.c ****             UART_XB2_errorStatus = 0u;
  42              		.loc 1 114 0
  43 0012 0022     		mov	r2, #0
  44 0014 0D4B     		ldr	r3, .L2+4
  45 0016 1A70     		strb	r2, [r3]
 115:Generated_Source\PSoC4/UART_XB2.c ****         #endif /* (UART_XB2_RX_INTERRUPT_ENABLED) */
 116:Generated_Source\PSoC4/UART_XB2.c **** 
 117:Generated_Source\PSoC4/UART_XB2.c ****         #if (UART_XB2_RXHW_ADDRESS_ENABLED)
 118:Generated_Source\PSoC4/UART_XB2.c ****             UART_XB2_SetRxAddressMode(UART_XB2_RX_ADDRESS_MODE);
 119:Generated_Source\PSoC4/UART_XB2.c ****             UART_XB2_SetRxAddress1(UART_XB2_RX_HW_ADDRESS1);
 120:Generated_Source\PSoC4/UART_XB2.c ****             UART_XB2_SetRxAddress2(UART_XB2_RX_HW_ADDRESS2);
 121:Generated_Source\PSoC4/UART_XB2.c ****         #endif /* End UART_XB2_RXHW_ADDRESS_ENABLED */
 122:Generated_Source\PSoC4/UART_XB2.c **** 
 123:Generated_Source\PSoC4/UART_XB2.c ****         /* Init Count7 period */
 124:Generated_Source\PSoC4/UART_XB2.c ****         UART_XB2_RXBITCTR_PERIOD_REG = UART_XB2_RXBITCTR_INIT;
  46              		.loc 1 124 0
  47 0018 7232     		add	r2, r2, #114
ARM GAS  C:\Users\Petro\AppData\Local\Temp\ccLVkPCw.s 			page 4


  48 001a 0D4B     		ldr	r3, .L2+8
  49 001c 1A70     		strb	r2, [r3]
 125:Generated_Source\PSoC4/UART_XB2.c ****         /* Configure the Initial RX interrupt mask */
 126:Generated_Source\PSoC4/UART_XB2.c ****         UART_XB2_RXSTATUS_MASK_REG  = UART_XB2_INIT_RX_INTERRUPTS_MASK;
  50              		.loc 1 126 0
  51 001e 523A     		sub	r2, r2, #82
  52 0020 0C4B     		ldr	r3, .L2+12
  53 0022 1A70     		strb	r2, [r3]
 127:Generated_Source\PSoC4/UART_XB2.c ****     #endif /* End UART_XB2_RX_ENABLED || UART_XB2_HD_ENABLED*/
 128:Generated_Source\PSoC4/UART_XB2.c **** 
 129:Generated_Source\PSoC4/UART_XB2.c ****     #if(UART_XB2_TX_ENABLED)
 130:Generated_Source\PSoC4/UART_XB2.c ****         #if (UART_XB2_TX_INTERRUPT_ENABLED)
 131:Generated_Source\PSoC4/UART_XB2.c ****             /* Set TX interrupt vector and priority */
 132:Generated_Source\PSoC4/UART_XB2.c ****             (void) CyIntSetVector(UART_XB2_TX_VECT_NUM, &UART_XB2_TXISR);
  54              		.loc 1 132 0
  55 0024 0220     		mov	r0, #2
  56 0026 0C49     		ldr	r1, .L2+16
  57 0028 FFF7FEFF 		bl	CyIntSetVector
  58              	.LVL2:
 133:Generated_Source\PSoC4/UART_XB2.c ****             CyIntSetPriority(UART_XB2_TX_VECT_NUM, UART_XB2_TX_PRIOR_NUM);
  59              		.loc 1 133 0
  60 002c 0220     		mov	r0, #2
  61 002e 0321     		mov	r1, #3
  62 0030 FFF7FEFF 		bl	CyIntSetPriority
  63              	.LVL3:
 134:Generated_Source\PSoC4/UART_XB2.c ****         #endif /* (UART_XB2_TX_INTERRUPT_ENABLED) */
 135:Generated_Source\PSoC4/UART_XB2.c **** 
 136:Generated_Source\PSoC4/UART_XB2.c ****         /* Write Counter Value for TX Bit Clk Generator*/
 137:Generated_Source\PSoC4/UART_XB2.c ****         #if (UART_XB2_TXCLKGEN_DP)
 138:Generated_Source\PSoC4/UART_XB2.c ****             UART_XB2_TXBITCLKGEN_CTR_REG = UART_XB2_BIT_CENTER;
  64              		.loc 1 138 0
  65 0034 0622     		mov	r2, #6
  66 0036 094B     		ldr	r3, .L2+20
  67 0038 1A70     		strb	r2, [r3]
 139:Generated_Source\PSoC4/UART_XB2.c ****             UART_XB2_TXBITCLKTX_COMPLETE_REG = ((UART_XB2_NUMBER_OF_DATA_BITS +
  68              		.loc 1 139 0
  69 003a 4132     		add	r2, r2, #65
  70 003c 084B     		ldr	r3, .L2+24
  71 003e 1A70     		strb	r2, [r3]
 140:Generated_Source\PSoC4/UART_XB2.c ****                         UART_XB2_NUMBER_OF_START_BIT) * UART_XB2_OVER_SAMPLE_COUNT) - 1u;
 141:Generated_Source\PSoC4/UART_XB2.c ****         #else
 142:Generated_Source\PSoC4/UART_XB2.c ****             UART_XB2_TXBITCTR_PERIOD_REG = ((UART_XB2_NUMBER_OF_DATA_BITS +
 143:Generated_Source\PSoC4/UART_XB2.c ****                         UART_XB2_NUMBER_OF_START_BIT) * UART_XB2_OVER_SAMPLE_8) - 1u;
 144:Generated_Source\PSoC4/UART_XB2.c ****         #endif /* End UART_XB2_TXCLKGEN_DP */
 145:Generated_Source\PSoC4/UART_XB2.c **** 
 146:Generated_Source\PSoC4/UART_XB2.c ****         /* Configure the Initial TX interrupt mask */
 147:Generated_Source\PSoC4/UART_XB2.c ****         #if (UART_XB2_TX_INTERRUPT_ENABLED)
 148:Generated_Source\PSoC4/UART_XB2.c ****             UART_XB2_TXSTATUS_MASK_REG = UART_XB2_TX_STS_FIFO_EMPTY;
  72              		.loc 1 148 0
  73 0040 453A     		sub	r2, r2, #69
  74 0042 084B     		ldr	r3, .L2+28
  75 0044 1A70     		strb	r2, [r3]
 149:Generated_Source\PSoC4/UART_XB2.c ****         #else
 150:Generated_Source\PSoC4/UART_XB2.c ****             UART_XB2_TXSTATUS_MASK_REG = UART_XB2_INIT_TX_INTERRUPTS_MASK;
 151:Generated_Source\PSoC4/UART_XB2.c ****         #endif /*End UART_XB2_TX_INTERRUPT_ENABLED*/
 152:Generated_Source\PSoC4/UART_XB2.c **** 
 153:Generated_Source\PSoC4/UART_XB2.c ****     #endif /* End UART_XB2_TX_ENABLED */
ARM GAS  C:\Users\Petro\AppData\Local\Temp\ccLVkPCw.s 			page 5


 154:Generated_Source\PSoC4/UART_XB2.c **** 
 155:Generated_Source\PSoC4/UART_XB2.c ****     #if(UART_XB2_PARITY_TYPE_SW)  /* Write Parity to Control Register */
 156:Generated_Source\PSoC4/UART_XB2.c ****         UART_XB2_WriteControlRegister( \
 157:Generated_Source\PSoC4/UART_XB2.c ****             (UART_XB2_ReadControlRegister() & (uint8)~UART_XB2_CTRL_PARITY_TYPE_MASK) | \
 158:Generated_Source\PSoC4/UART_XB2.c ****             (uint8)(UART_XB2_PARITY_TYPE << UART_XB2_CTRL_PARITY_TYPE0_SHIFT) );
 159:Generated_Source\PSoC4/UART_XB2.c ****     #endif /* End UART_XB2_PARITY_TYPE_SW */
 160:Generated_Source\PSoC4/UART_XB2.c **** }
  76              		.loc 1 160 0
  77              		@ sp needed
  78 0046 08BD     		pop	{r3, pc}
  79              	.L3:
  80              		.align	2
  81              	.L2:
  82 0048 00000000 		.word	UART_XB2_RXISR
  83 004c 00000000 		.word	.LANCHOR0
  84 0050 81000F40 		.word	1074724993
  85 0054 80000F40 		.word	1074724992
  86 0058 00000000 		.word	UART_XB2_TXISR
  87 005c 22000F40 		.word	1074724898
  88 0060 32000F40 		.word	1074724914
  89 0064 83000F40 		.word	1074724995
  90              		.cfi_endproc
  91              	.LFE3:
  92              		.size	UART_XB2_Init, .-UART_XB2_Init
  93              		.section	.text.UART_XB2_Enable,"ax",%progbits
  94              		.align	2
  95              		.global	UART_XB2_Enable
  96              		.code	16
  97              		.thumb_func
  98              		.type	UART_XB2_Enable, %function
  99              	UART_XB2_Enable:
 100              	.LFB4:
 161:Generated_Source\PSoC4/UART_XB2.c **** 
 162:Generated_Source\PSoC4/UART_XB2.c **** 
 163:Generated_Source\PSoC4/UART_XB2.c **** /*******************************************************************************
 164:Generated_Source\PSoC4/UART_XB2.c **** * Function Name: UART_XB2_Enable
 165:Generated_Source\PSoC4/UART_XB2.c **** ********************************************************************************
 166:Generated_Source\PSoC4/UART_XB2.c **** *
 167:Generated_Source\PSoC4/UART_XB2.c **** * Summary:
 168:Generated_Source\PSoC4/UART_XB2.c **** *  Activates the hardware and begins component operation. It is not necessary
 169:Generated_Source\PSoC4/UART_XB2.c **** *  to call UART_XB2_Enable() because the UART_XB2_Start() API
 170:Generated_Source\PSoC4/UART_XB2.c **** *  calls this function, which is the preferred method to begin component
 171:Generated_Source\PSoC4/UART_XB2.c **** *  operation.
 172:Generated_Source\PSoC4/UART_XB2.c **** 
 173:Generated_Source\PSoC4/UART_XB2.c **** * Parameters:
 174:Generated_Source\PSoC4/UART_XB2.c **** *  None.
 175:Generated_Source\PSoC4/UART_XB2.c **** *
 176:Generated_Source\PSoC4/UART_XB2.c **** * Return:
 177:Generated_Source\PSoC4/UART_XB2.c **** *  None.
 178:Generated_Source\PSoC4/UART_XB2.c **** *
 179:Generated_Source\PSoC4/UART_XB2.c **** * Global Variables:
 180:Generated_Source\PSoC4/UART_XB2.c **** *  UART_XB2_rxAddressDetected - set to initial state (0).
 181:Generated_Source\PSoC4/UART_XB2.c **** *
 182:Generated_Source\PSoC4/UART_XB2.c **** *******************************************************************************/
 183:Generated_Source\PSoC4/UART_XB2.c **** void UART_XB2_Enable(void) 
 184:Generated_Source\PSoC4/UART_XB2.c **** {
 101              		.loc 1 184 0
ARM GAS  C:\Users\Petro\AppData\Local\Temp\ccLVkPCw.s 			page 6


 102              		.cfi_startproc
 103 0000 38B5     		push	{r3, r4, r5, lr}
 104              		.cfi_def_cfa_offset 16
 105              		.cfi_offset 3, -16
 106              		.cfi_offset 4, -12
 107              		.cfi_offset 5, -8
 108              		.cfi_offset 14, -4
 185:Generated_Source\PSoC4/UART_XB2.c ****     uint8 enableInterrupts;
 186:Generated_Source\PSoC4/UART_XB2.c ****     enableInterrupts = CyEnterCriticalSection();
 109              		.loc 1 186 0
 110 0002 FFF7FEFF 		bl	CyEnterCriticalSection
 111              	.LVL4:
 112 0006 051C     		mov	r5, r0
 113              	.LVL5:
 187:Generated_Source\PSoC4/UART_XB2.c **** 
 188:Generated_Source\PSoC4/UART_XB2.c ****     #if (UART_XB2_RX_ENABLED || UART_XB2_HD_ENABLED)
 189:Generated_Source\PSoC4/UART_XB2.c ****         /* RX Counter (Count7) Enable */
 190:Generated_Source\PSoC4/UART_XB2.c ****         UART_XB2_RXBITCTR_CONTROL_REG |= UART_XB2_CNTR_ENABLE;
 114              		.loc 1 190 0
 115 0008 0F4A     		ldr	r2, .L5
 116 000a 1178     		ldrb	r1, [r2]
 117 000c 2023     		mov	r3, #32
 118 000e 0B43     		orr	r3, r1
 119 0010 1370     		strb	r3, [r2]
 191:Generated_Source\PSoC4/UART_XB2.c **** 
 192:Generated_Source\PSoC4/UART_XB2.c ****         /* Enable the RX Interrupt */
 193:Generated_Source\PSoC4/UART_XB2.c ****         UART_XB2_RXSTATUS_ACTL_REG  |= UART_XB2_INT_ENABLE;
 120              		.loc 1 193 0
 121 0012 0E4A     		ldr	r2, .L5+4
 122 0014 1378     		ldrb	r3, [r2]
 123 0016 1024     		mov	r4, #16
 124 0018 2343     		orr	r3, r4
 125 001a DBB2     		uxtb	r3, r3
 126 001c 1370     		strb	r3, [r2]
 194:Generated_Source\PSoC4/UART_XB2.c **** 
 195:Generated_Source\PSoC4/UART_XB2.c ****         #if (UART_XB2_RX_INTERRUPT_ENABLED)
 196:Generated_Source\PSoC4/UART_XB2.c ****             UART_XB2_EnableRxInt();
 127              		.loc 1 196 0
 128 001e 0120     		mov	r0, #1
 129 0020 FFF7FEFF 		bl	CyIntEnable
 130              	.LVL6:
 197:Generated_Source\PSoC4/UART_XB2.c **** 
 198:Generated_Source\PSoC4/UART_XB2.c ****             #if (UART_XB2_RXHW_ADDRESS_ENABLED)
 199:Generated_Source\PSoC4/UART_XB2.c ****                 UART_XB2_rxAddressDetected = 0u;
 200:Generated_Source\PSoC4/UART_XB2.c ****             #endif /* (UART_XB2_RXHW_ADDRESS_ENABLED) */
 201:Generated_Source\PSoC4/UART_XB2.c ****         #endif /* (UART_XB2_RX_INTERRUPT_ENABLED) */
 202:Generated_Source\PSoC4/UART_XB2.c ****     #endif /* (UART_XB2_RX_ENABLED || UART_XB2_HD_ENABLED) */
 203:Generated_Source\PSoC4/UART_XB2.c **** 
 204:Generated_Source\PSoC4/UART_XB2.c ****     #if(UART_XB2_TX_ENABLED)
 205:Generated_Source\PSoC4/UART_XB2.c ****         /* TX Counter (DP/Count7) Enable */
 206:Generated_Source\PSoC4/UART_XB2.c ****         #if(!UART_XB2_TXCLKGEN_DP)
 207:Generated_Source\PSoC4/UART_XB2.c ****             UART_XB2_TXBITCTR_CONTROL_REG |= UART_XB2_CNTR_ENABLE;
 208:Generated_Source\PSoC4/UART_XB2.c ****         #endif /* End UART_XB2_TXCLKGEN_DP */
 209:Generated_Source\PSoC4/UART_XB2.c **** 
 210:Generated_Source\PSoC4/UART_XB2.c ****         /* Enable the TX Interrupt */
 211:Generated_Source\PSoC4/UART_XB2.c ****         UART_XB2_TXSTATUS_ACTL_REG |= UART_XB2_INT_ENABLE;
 131              		.loc 1 211 0
ARM GAS  C:\Users\Petro\AppData\Local\Temp\ccLVkPCw.s 			page 7


 132 0024 0A4B     		ldr	r3, .L5+8
 133 0026 1A78     		ldrb	r2, [r3]
 134 0028 1443     		orr	r4, r2
 135 002a E4B2     		uxtb	r4, r4
 136 002c 1C70     		strb	r4, [r3]
 212:Generated_Source\PSoC4/UART_XB2.c ****         #if (UART_XB2_TX_INTERRUPT_ENABLED)
 213:Generated_Source\PSoC4/UART_XB2.c ****             UART_XB2_ClearPendingTxInt(); /* Clear history of TX_NOT_EMPTY */
 137              		.loc 1 213 0
 138 002e 0220     		mov	r0, #2
 139 0030 FFF7FEFF 		bl	CyIntClearPending
 140              	.LVL7:
 214:Generated_Source\PSoC4/UART_XB2.c ****             UART_XB2_EnableTxInt();
 141              		.loc 1 214 0
 142 0034 0220     		mov	r0, #2
 143 0036 FFF7FEFF 		bl	CyIntEnable
 144              	.LVL8:
 215:Generated_Source\PSoC4/UART_XB2.c ****         #endif /* (UART_XB2_TX_INTERRUPT_ENABLED) */
 216:Generated_Source\PSoC4/UART_XB2.c ****      #endif /* (UART_XB2_TX_INTERRUPT_ENABLED) */
 217:Generated_Source\PSoC4/UART_XB2.c **** 
 218:Generated_Source\PSoC4/UART_XB2.c ****     #if (UART_XB2_INTERNAL_CLOCK_USED)
 219:Generated_Source\PSoC4/UART_XB2.c ****         UART_XB2_IntClock_Start();  /* Enable the clock */
 145              		.loc 1 219 0
 146 003a FF20     		mov	r0, #255
 147 003c FFF7FEFF 		bl	UART_XB2_IntClock_StartEx
 148              	.LVL9:
 220:Generated_Source\PSoC4/UART_XB2.c ****     #endif /* (UART_XB2_INTERNAL_CLOCK_USED) */
 221:Generated_Source\PSoC4/UART_XB2.c **** 
 222:Generated_Source\PSoC4/UART_XB2.c ****     CyExitCriticalSection(enableInterrupts);
 149              		.loc 1 222 0
 150 0040 281C     		mov	r0, r5
 151 0042 FFF7FEFF 		bl	CyExitCriticalSection
 152              	.LVL10:
 223:Generated_Source\PSoC4/UART_XB2.c **** }
 153              		.loc 1 223 0
 154              		@ sp needed
 155              	.LVL11:
 156 0046 38BD     		pop	{r3, r4, r5, pc}
 157              	.L6:
 158              		.align	2
 159              	.L5:
 160 0048 91000F40 		.word	1074725009
 161 004c 90000F40 		.word	1074725008
 162 0050 93000F40 		.word	1074725011
 163              		.cfi_endproc
 164              	.LFE4:
 165              		.size	UART_XB2_Enable, .-UART_XB2_Enable
 166              		.section	.text.UART_XB2_Start,"ax",%progbits
 167              		.align	2
 168              		.global	UART_XB2_Start
 169              		.code	16
 170              		.thumb_func
 171              		.type	UART_XB2_Start, %function
 172              	UART_XB2_Start:
 173              	.LFB2:
  77:Generated_Source\PSoC4/UART_XB2.c ****     /* If not initialized then initialize all required hardware and software */
 174              		.loc 1 77 0
 175              		.cfi_startproc
ARM GAS  C:\Users\Petro\AppData\Local\Temp\ccLVkPCw.s 			page 8


 176 0000 08B5     		push	{r3, lr}
 177              		.cfi_def_cfa_offset 8
 178              		.cfi_offset 3, -8
 179              		.cfi_offset 14, -4
  79:Generated_Source\PSoC4/UART_XB2.c ****     {
 180              		.loc 1 79 0
 181 0002 064B     		ldr	r3, .L9
 182 0004 5B78     		ldrb	r3, [r3, #1]
 183 0006 002B     		cmp	r3, #0
 184 0008 04D1     		bne	.L8
  81:Generated_Source\PSoC4/UART_XB2.c ****         UART_XB2_initVar = 1u;
 185              		.loc 1 81 0
 186 000a FFF7FEFF 		bl	UART_XB2_Init
 187              	.LVL12:
  82:Generated_Source\PSoC4/UART_XB2.c ****     }
 188              		.loc 1 82 0
 189 000e 0122     		mov	r2, #1
 190 0010 024B     		ldr	r3, .L9
 191 0012 5A70     		strb	r2, [r3, #1]
 192              	.L8:
  85:Generated_Source\PSoC4/UART_XB2.c **** }
 193              		.loc 1 85 0
 194 0014 FFF7FEFF 		bl	UART_XB2_Enable
 195              	.LVL13:
  86:Generated_Source\PSoC4/UART_XB2.c **** 
 196              		.loc 1 86 0
 197              		@ sp needed
 198 0018 08BD     		pop	{r3, pc}
 199              	.L10:
 200 001a C046     		.align	2
 201              	.L9:
 202 001c 00000000 		.word	.LANCHOR0
 203              		.cfi_endproc
 204              	.LFE2:
 205              		.size	UART_XB2_Start, .-UART_XB2_Start
 206              		.section	.text.UART_XB2_Stop,"ax",%progbits
 207              		.align	2
 208              		.global	UART_XB2_Stop
 209              		.code	16
 210              		.thumb_func
 211              		.type	UART_XB2_Stop, %function
 212              	UART_XB2_Stop:
 213              	.LFB5:
 224:Generated_Source\PSoC4/UART_XB2.c **** 
 225:Generated_Source\PSoC4/UART_XB2.c **** 
 226:Generated_Source\PSoC4/UART_XB2.c **** /*******************************************************************************
 227:Generated_Source\PSoC4/UART_XB2.c **** * Function Name: UART_XB2_Stop
 228:Generated_Source\PSoC4/UART_XB2.c **** ********************************************************************************
 229:Generated_Source\PSoC4/UART_XB2.c **** *
 230:Generated_Source\PSoC4/UART_XB2.c **** * Summary:
 231:Generated_Source\PSoC4/UART_XB2.c **** *  Disables the UART operation.
 232:Generated_Source\PSoC4/UART_XB2.c **** *
 233:Generated_Source\PSoC4/UART_XB2.c **** * Parameters:
 234:Generated_Source\PSoC4/UART_XB2.c **** *  None.
 235:Generated_Source\PSoC4/UART_XB2.c **** *
 236:Generated_Source\PSoC4/UART_XB2.c **** * Return:
 237:Generated_Source\PSoC4/UART_XB2.c **** *  None.
ARM GAS  C:\Users\Petro\AppData\Local\Temp\ccLVkPCw.s 			page 9


 238:Generated_Source\PSoC4/UART_XB2.c **** *
 239:Generated_Source\PSoC4/UART_XB2.c **** *******************************************************************************/
 240:Generated_Source\PSoC4/UART_XB2.c **** void UART_XB2_Stop(void) 
 241:Generated_Source\PSoC4/UART_XB2.c **** {
 214              		.loc 1 241 0
 215              		.cfi_startproc
 216 0000 38B5     		push	{r3, r4, r5, lr}
 217              		.cfi_def_cfa_offset 16
 218              		.cfi_offset 3, -16
 219              		.cfi_offset 4, -12
 220              		.cfi_offset 5, -8
 221              		.cfi_offset 14, -4
 242:Generated_Source\PSoC4/UART_XB2.c ****     uint8 enableInterrupts;
 243:Generated_Source\PSoC4/UART_XB2.c ****     enableInterrupts = CyEnterCriticalSection();
 222              		.loc 1 243 0
 223 0002 FFF7FEFF 		bl	CyEnterCriticalSection
 224              	.LVL14:
 225 0006 041C     		mov	r4, r0
 226              	.LVL15:
 244:Generated_Source\PSoC4/UART_XB2.c **** 
 245:Generated_Source\PSoC4/UART_XB2.c ****     /* Write Bit Counter Disable */
 246:Generated_Source\PSoC4/UART_XB2.c ****     #if (UART_XB2_RX_ENABLED || UART_XB2_HD_ENABLED)
 247:Generated_Source\PSoC4/UART_XB2.c ****         UART_XB2_RXBITCTR_CONTROL_REG &= (uint8) ~UART_XB2_CNTR_ENABLE;
 227              		.loc 1 247 0
 228 0008 0C4A     		ldr	r2, .L12
 229 000a 1378     		ldrb	r3, [r2]
 230 000c 2021     		mov	r1, #32
 231 000e 8B43     		bic	r3, r1
 232 0010 1370     		strb	r3, [r2]
 248:Generated_Source\PSoC4/UART_XB2.c ****     #endif /* (UART_XB2_RX_ENABLED || UART_XB2_HD_ENABLED) */
 249:Generated_Source\PSoC4/UART_XB2.c **** 
 250:Generated_Source\PSoC4/UART_XB2.c ****     #if (UART_XB2_TX_ENABLED)
 251:Generated_Source\PSoC4/UART_XB2.c ****         #if(!UART_XB2_TXCLKGEN_DP)
 252:Generated_Source\PSoC4/UART_XB2.c ****             UART_XB2_TXBITCTR_CONTROL_REG &= (uint8) ~UART_XB2_CNTR_ENABLE;
 253:Generated_Source\PSoC4/UART_XB2.c ****         #endif /* (!UART_XB2_TXCLKGEN_DP) */
 254:Generated_Source\PSoC4/UART_XB2.c ****     #endif /* (UART_XB2_TX_ENABLED) */
 255:Generated_Source\PSoC4/UART_XB2.c **** 
 256:Generated_Source\PSoC4/UART_XB2.c ****     #if (UART_XB2_INTERNAL_CLOCK_USED)
 257:Generated_Source\PSoC4/UART_XB2.c ****         UART_XB2_IntClock_Stop();   /* Disable the clock */
 233              		.loc 1 257 0
 234 0012 FFF7FEFF 		bl	UART_XB2_IntClock_Stop
 235              	.LVL16:
 258:Generated_Source\PSoC4/UART_XB2.c ****     #endif /* (UART_XB2_INTERNAL_CLOCK_USED) */
 259:Generated_Source\PSoC4/UART_XB2.c **** 
 260:Generated_Source\PSoC4/UART_XB2.c ****     /* Disable internal interrupt component */
 261:Generated_Source\PSoC4/UART_XB2.c ****     #if (UART_XB2_RX_ENABLED || UART_XB2_HD_ENABLED)
 262:Generated_Source\PSoC4/UART_XB2.c ****         UART_XB2_RXSTATUS_ACTL_REG  &= (uint8) ~UART_XB2_INT_ENABLE;
 236              		.loc 1 262 0
 237 0016 0A4A     		ldr	r2, .L12+4
 238 0018 1378     		ldrb	r3, [r2]
 239 001a 1025     		mov	r5, #16
 240 001c AB43     		bic	r3, r5
 241 001e 1370     		strb	r3, [r2]
 263:Generated_Source\PSoC4/UART_XB2.c **** 
 264:Generated_Source\PSoC4/UART_XB2.c ****         #if (UART_XB2_RX_INTERRUPT_ENABLED)
 265:Generated_Source\PSoC4/UART_XB2.c ****             UART_XB2_DisableRxInt();
 242              		.loc 1 265 0
ARM GAS  C:\Users\Petro\AppData\Local\Temp\ccLVkPCw.s 			page 10


 243 0020 0120     		mov	r0, #1
 244 0022 FFF7FEFF 		bl	CyIntDisable
 245              	.LVL17:
 266:Generated_Source\PSoC4/UART_XB2.c ****         #endif /* (UART_XB2_RX_INTERRUPT_ENABLED) */
 267:Generated_Source\PSoC4/UART_XB2.c ****     #endif /* (UART_XB2_RX_ENABLED || UART_XB2_HD_ENABLED) */
 268:Generated_Source\PSoC4/UART_XB2.c **** 
 269:Generated_Source\PSoC4/UART_XB2.c ****     #if (UART_XB2_TX_ENABLED)
 270:Generated_Source\PSoC4/UART_XB2.c ****         UART_XB2_TXSTATUS_ACTL_REG &= (uint8) ~UART_XB2_INT_ENABLE;
 246              		.loc 1 270 0
 247 0026 074A     		ldr	r2, .L12+8
 248 0028 1378     		ldrb	r3, [r2]
 249 002a AB43     		bic	r3, r5
 250 002c 1370     		strb	r3, [r2]
 271:Generated_Source\PSoC4/UART_XB2.c **** 
 272:Generated_Source\PSoC4/UART_XB2.c ****         #if (UART_XB2_TX_INTERRUPT_ENABLED)
 273:Generated_Source\PSoC4/UART_XB2.c ****             UART_XB2_DisableTxInt();
 251              		.loc 1 273 0
 252 002e 0220     		mov	r0, #2
 253 0030 FFF7FEFF 		bl	CyIntDisable
 254              	.LVL18:
 274:Generated_Source\PSoC4/UART_XB2.c ****         #endif /* (UART_XB2_TX_INTERRUPT_ENABLED) */
 275:Generated_Source\PSoC4/UART_XB2.c ****     #endif /* (UART_XB2_TX_ENABLED) */
 276:Generated_Source\PSoC4/UART_XB2.c **** 
 277:Generated_Source\PSoC4/UART_XB2.c ****     CyExitCriticalSection(enableInterrupts);
 255              		.loc 1 277 0
 256 0034 201C     		mov	r0, r4
 257 0036 FFF7FEFF 		bl	CyExitCriticalSection
 258              	.LVL19:
 278:Generated_Source\PSoC4/UART_XB2.c **** }
 259              		.loc 1 278 0
 260              		@ sp needed
 261              	.LVL20:
 262 003a 38BD     		pop	{r3, r4, r5, pc}
 263              	.L13:
 264              		.align	2
 265              	.L12:
 266 003c 91000F40 		.word	1074725009
 267 0040 90000F40 		.word	1074725008
 268 0044 93000F40 		.word	1074725011
 269              		.cfi_endproc
 270              	.LFE5:
 271              		.size	UART_XB2_Stop, .-UART_XB2_Stop
 272              		.section	.text.UART_XB2_ReadControlRegister,"ax",%progbits
 273              		.align	2
 274              		.global	UART_XB2_ReadControlRegister
 275              		.code	16
 276              		.thumb_func
 277              		.type	UART_XB2_ReadControlRegister, %function
 278              	UART_XB2_ReadControlRegister:
 279              	.LFB6:
 279:Generated_Source\PSoC4/UART_XB2.c **** 
 280:Generated_Source\PSoC4/UART_XB2.c **** 
 281:Generated_Source\PSoC4/UART_XB2.c **** /*******************************************************************************
 282:Generated_Source\PSoC4/UART_XB2.c **** * Function Name: UART_XB2_ReadControlRegister
 283:Generated_Source\PSoC4/UART_XB2.c **** ********************************************************************************
 284:Generated_Source\PSoC4/UART_XB2.c **** *
 285:Generated_Source\PSoC4/UART_XB2.c **** * Summary:
ARM GAS  C:\Users\Petro\AppData\Local\Temp\ccLVkPCw.s 			page 11


 286:Generated_Source\PSoC4/UART_XB2.c **** *  Returns the current value of the control register.
 287:Generated_Source\PSoC4/UART_XB2.c **** *
 288:Generated_Source\PSoC4/UART_XB2.c **** * Parameters:
 289:Generated_Source\PSoC4/UART_XB2.c **** *  None.
 290:Generated_Source\PSoC4/UART_XB2.c **** *
 291:Generated_Source\PSoC4/UART_XB2.c **** * Return:
 292:Generated_Source\PSoC4/UART_XB2.c **** *  Contents of the control register.
 293:Generated_Source\PSoC4/UART_XB2.c **** *
 294:Generated_Source\PSoC4/UART_XB2.c **** *******************************************************************************/
 295:Generated_Source\PSoC4/UART_XB2.c **** uint8 UART_XB2_ReadControlRegister(void) 
 296:Generated_Source\PSoC4/UART_XB2.c **** {
 280              		.loc 1 296 0
 281              		.cfi_startproc
 297:Generated_Source\PSoC4/UART_XB2.c ****     #if (UART_XB2_CONTROL_REG_REMOVED)
 298:Generated_Source\PSoC4/UART_XB2.c ****         return(0u);
 299:Generated_Source\PSoC4/UART_XB2.c ****     #else
 300:Generated_Source\PSoC4/UART_XB2.c ****         return(UART_XB2_CONTROL_REG);
 301:Generated_Source\PSoC4/UART_XB2.c ****     #endif /* (UART_XB2_CONTROL_REG_REMOVED) */
 302:Generated_Source\PSoC4/UART_XB2.c **** }
 282              		.loc 1 302 0
 283 0000 0020     		mov	r0, #0
 284              		@ sp needed
 285 0002 7047     		bx	lr
 286              		.cfi_endproc
 287              	.LFE6:
 288              		.size	UART_XB2_ReadControlRegister, .-UART_XB2_ReadControlRegister
 289              		.section	.text.UART_XB2_WriteControlRegister,"ax",%progbits
 290              		.align	2
 291              		.global	UART_XB2_WriteControlRegister
 292              		.code	16
 293              		.thumb_func
 294              		.type	UART_XB2_WriteControlRegister, %function
 295              	UART_XB2_WriteControlRegister:
 296              	.LFB7:
 303:Generated_Source\PSoC4/UART_XB2.c **** 
 304:Generated_Source\PSoC4/UART_XB2.c **** 
 305:Generated_Source\PSoC4/UART_XB2.c **** /*******************************************************************************
 306:Generated_Source\PSoC4/UART_XB2.c **** * Function Name: UART_XB2_WriteControlRegister
 307:Generated_Source\PSoC4/UART_XB2.c **** ********************************************************************************
 308:Generated_Source\PSoC4/UART_XB2.c **** *
 309:Generated_Source\PSoC4/UART_XB2.c **** * Summary:
 310:Generated_Source\PSoC4/UART_XB2.c **** *  Writes an 8-bit value into the control register
 311:Generated_Source\PSoC4/UART_XB2.c **** *
 312:Generated_Source\PSoC4/UART_XB2.c **** * Parameters:
 313:Generated_Source\PSoC4/UART_XB2.c **** *  control:  control register value
 314:Generated_Source\PSoC4/UART_XB2.c **** *
 315:Generated_Source\PSoC4/UART_XB2.c **** * Return:
 316:Generated_Source\PSoC4/UART_XB2.c **** *  None.
 317:Generated_Source\PSoC4/UART_XB2.c **** *
 318:Generated_Source\PSoC4/UART_XB2.c **** *******************************************************************************/
 319:Generated_Source\PSoC4/UART_XB2.c **** void  UART_XB2_WriteControlRegister(uint8 control) 
 320:Generated_Source\PSoC4/UART_XB2.c **** {
 297              		.loc 1 320 0
 298              		.cfi_startproc
 299              	.LVL21:
 321:Generated_Source\PSoC4/UART_XB2.c ****     #if (UART_XB2_CONTROL_REG_REMOVED)
 322:Generated_Source\PSoC4/UART_XB2.c ****         if(0u != control)
ARM GAS  C:\Users\Petro\AppData\Local\Temp\ccLVkPCw.s 			page 12


 323:Generated_Source\PSoC4/UART_XB2.c ****         {
 324:Generated_Source\PSoC4/UART_XB2.c ****             /* Suppress compiler warning */
 325:Generated_Source\PSoC4/UART_XB2.c ****         }
 326:Generated_Source\PSoC4/UART_XB2.c ****     #else
 327:Generated_Source\PSoC4/UART_XB2.c ****        UART_XB2_CONTROL_REG = control;
 328:Generated_Source\PSoC4/UART_XB2.c ****     #endif /* (UART_XB2_CONTROL_REG_REMOVED) */
 329:Generated_Source\PSoC4/UART_XB2.c **** }
 300              		.loc 1 329 0
 301              		@ sp needed
 302 0000 7047     		bx	lr
 303              		.cfi_endproc
 304              	.LFE7:
 305              		.size	UART_XB2_WriteControlRegister, .-UART_XB2_WriteControlRegister
 306 0002 C046     		.section	.text.UART_XB2_SetRxInterruptMode,"ax",%progbits
 307              		.align	2
 308              		.global	UART_XB2_SetRxInterruptMode
 309              		.code	16
 310              		.thumb_func
 311              		.type	UART_XB2_SetRxInterruptMode, %function
 312              	UART_XB2_SetRxInterruptMode:
 313              	.LFB8:
 330:Generated_Source\PSoC4/UART_XB2.c **** 
 331:Generated_Source\PSoC4/UART_XB2.c **** 
 332:Generated_Source\PSoC4/UART_XB2.c **** #if(UART_XB2_RX_ENABLED || UART_XB2_HD_ENABLED)
 333:Generated_Source\PSoC4/UART_XB2.c ****     /*******************************************************************************
 334:Generated_Source\PSoC4/UART_XB2.c ****     * Function Name: UART_XB2_SetRxInterruptMode
 335:Generated_Source\PSoC4/UART_XB2.c ****     ********************************************************************************
 336:Generated_Source\PSoC4/UART_XB2.c ****     *
 337:Generated_Source\PSoC4/UART_XB2.c ****     * Summary:
 338:Generated_Source\PSoC4/UART_XB2.c ****     *  Configures the RX interrupt sources enabled.
 339:Generated_Source\PSoC4/UART_XB2.c ****     *
 340:Generated_Source\PSoC4/UART_XB2.c ****     * Parameters:
 341:Generated_Source\PSoC4/UART_XB2.c ****     *  IntSrc:  Bit field containing the RX interrupts to enable. Based on the 
 342:Generated_Source\PSoC4/UART_XB2.c ****     *  bit-field arrangement of the status register. This value must be a 
 343:Generated_Source\PSoC4/UART_XB2.c ****     *  combination of status register bit-masks shown below:
 344:Generated_Source\PSoC4/UART_XB2.c ****     *      UART_XB2_RX_STS_FIFO_NOTEMPTY    Interrupt on byte received.
 345:Generated_Source\PSoC4/UART_XB2.c ****     *      UART_XB2_RX_STS_PAR_ERROR        Interrupt on parity error.
 346:Generated_Source\PSoC4/UART_XB2.c ****     *      UART_XB2_RX_STS_STOP_ERROR       Interrupt on stop error.
 347:Generated_Source\PSoC4/UART_XB2.c ****     *      UART_XB2_RX_STS_BREAK            Interrupt on break.
 348:Generated_Source\PSoC4/UART_XB2.c ****     *      UART_XB2_RX_STS_OVERRUN          Interrupt on overrun error.
 349:Generated_Source\PSoC4/UART_XB2.c ****     *      UART_XB2_RX_STS_ADDR_MATCH       Interrupt on address match.
 350:Generated_Source\PSoC4/UART_XB2.c ****     *      UART_XB2_RX_STS_MRKSPC           Interrupt on address detect.
 351:Generated_Source\PSoC4/UART_XB2.c ****     *
 352:Generated_Source\PSoC4/UART_XB2.c ****     * Return:
 353:Generated_Source\PSoC4/UART_XB2.c ****     *  None.
 354:Generated_Source\PSoC4/UART_XB2.c ****     *
 355:Generated_Source\PSoC4/UART_XB2.c ****     * Theory:
 356:Generated_Source\PSoC4/UART_XB2.c ****     *  Enables the output of specific status bits to the interrupt controller
 357:Generated_Source\PSoC4/UART_XB2.c ****     *
 358:Generated_Source\PSoC4/UART_XB2.c ****     *******************************************************************************/
 359:Generated_Source\PSoC4/UART_XB2.c ****     void UART_XB2_SetRxInterruptMode(uint8 intSrc) 
 360:Generated_Source\PSoC4/UART_XB2.c ****     {
 314              		.loc 1 360 0
 315              		.cfi_startproc
 316              	.LVL22:
 361:Generated_Source\PSoC4/UART_XB2.c ****         UART_XB2_RXSTATUS_MASK_REG  = intSrc;
 317              		.loc 1 361 0
ARM GAS  C:\Users\Petro\AppData\Local\Temp\ccLVkPCw.s 			page 13


 318 0000 014B     		ldr	r3, .L17
 319 0002 1870     		strb	r0, [r3]
 362:Generated_Source\PSoC4/UART_XB2.c ****     }
 320              		.loc 1 362 0
 321              		@ sp needed
 322 0004 7047     		bx	lr
 323              	.L18:
 324 0006 C046     		.align	2
 325              	.L17:
 326 0008 80000F40 		.word	1074724992
 327              		.cfi_endproc
 328              	.LFE8:
 329              		.size	UART_XB2_SetRxInterruptMode, .-UART_XB2_SetRxInterruptMode
 330              		.section	.text.UART_XB2_ReadRxData,"ax",%progbits
 331              		.align	2
 332              		.global	UART_XB2_ReadRxData
 333              		.code	16
 334              		.thumb_func
 335              		.type	UART_XB2_ReadRxData, %function
 336              	UART_XB2_ReadRxData:
 337              	.LFB9:
 363:Generated_Source\PSoC4/UART_XB2.c **** 
 364:Generated_Source\PSoC4/UART_XB2.c **** 
 365:Generated_Source\PSoC4/UART_XB2.c ****     /*******************************************************************************
 366:Generated_Source\PSoC4/UART_XB2.c ****     * Function Name: UART_XB2_ReadRxData
 367:Generated_Source\PSoC4/UART_XB2.c ****     ********************************************************************************
 368:Generated_Source\PSoC4/UART_XB2.c ****     *
 369:Generated_Source\PSoC4/UART_XB2.c ****     * Summary:
 370:Generated_Source\PSoC4/UART_XB2.c ****     *  Returns the next byte of received data. This function returns data without
 371:Generated_Source\PSoC4/UART_XB2.c ****     *  checking the status. You must check the status separately.
 372:Generated_Source\PSoC4/UART_XB2.c ****     *
 373:Generated_Source\PSoC4/UART_XB2.c ****     * Parameters:
 374:Generated_Source\PSoC4/UART_XB2.c ****     *  None.
 375:Generated_Source\PSoC4/UART_XB2.c ****     *
 376:Generated_Source\PSoC4/UART_XB2.c ****     * Return:
 377:Generated_Source\PSoC4/UART_XB2.c ****     *  Received data from RX register
 378:Generated_Source\PSoC4/UART_XB2.c ****     *
 379:Generated_Source\PSoC4/UART_XB2.c ****     * Global Variables:
 380:Generated_Source\PSoC4/UART_XB2.c ****     *  UART_XB2_rxBuffer - RAM buffer pointer for save received data.
 381:Generated_Source\PSoC4/UART_XB2.c ****     *  UART_XB2_rxBufferWrite - cyclic index for write to rxBuffer,
 382:Generated_Source\PSoC4/UART_XB2.c ****     *     checked to identify new data.
 383:Generated_Source\PSoC4/UART_XB2.c ****     *  UART_XB2_rxBufferRead - cyclic index for read from rxBuffer,
 384:Generated_Source\PSoC4/UART_XB2.c ****     *     incremented after each byte has been read from buffer.
 385:Generated_Source\PSoC4/UART_XB2.c ****     *  UART_XB2_rxBufferLoopDetect - cleared if loop condition was detected
 386:Generated_Source\PSoC4/UART_XB2.c ****     *     in RX ISR.
 387:Generated_Source\PSoC4/UART_XB2.c ****     *
 388:Generated_Source\PSoC4/UART_XB2.c ****     * Reentrant:
 389:Generated_Source\PSoC4/UART_XB2.c ****     *  No.
 390:Generated_Source\PSoC4/UART_XB2.c ****     *
 391:Generated_Source\PSoC4/UART_XB2.c ****     *******************************************************************************/
 392:Generated_Source\PSoC4/UART_XB2.c ****     uint8 UART_XB2_ReadRxData(void) 
 393:Generated_Source\PSoC4/UART_XB2.c ****     {
 338              		.loc 1 393 0
 339              		.cfi_startproc
 340 0000 10B5     		push	{r4, lr}
 341              		.cfi_def_cfa_offset 8
 342              		.cfi_offset 4, -8
ARM GAS  C:\Users\Petro\AppData\Local\Temp\ccLVkPCw.s 			page 14


 343              		.cfi_offset 14, -4
 394:Generated_Source\PSoC4/UART_XB2.c ****         uint8 rxData;
 395:Generated_Source\PSoC4/UART_XB2.c **** 
 396:Generated_Source\PSoC4/UART_XB2.c ****     #if (UART_XB2_RX_INTERRUPT_ENABLED)
 397:Generated_Source\PSoC4/UART_XB2.c **** 
 398:Generated_Source\PSoC4/UART_XB2.c ****         uint8 locRxBufferRead;
 399:Generated_Source\PSoC4/UART_XB2.c ****         uint8 locRxBufferWrite;
 400:Generated_Source\PSoC4/UART_XB2.c **** 
 401:Generated_Source\PSoC4/UART_XB2.c ****         /* Protect variables that could change on interrupt */
 402:Generated_Source\PSoC4/UART_XB2.c ****         UART_XB2_DisableRxInt();
 344              		.loc 1 402 0
 345 0002 0120     		mov	r0, #1
 346 0004 FFF7FEFF 		bl	CyIntDisable
 347              	.LVL23:
 403:Generated_Source\PSoC4/UART_XB2.c **** 
 404:Generated_Source\PSoC4/UART_XB2.c ****         locRxBufferRead  = UART_XB2_rxBufferRead;
 348              		.loc 1 404 0
 349 0008 114A     		ldr	r2, .L25
 350 000a 9378     		ldrb	r3, [r2, #2]
 351 000c DBB2     		uxtb	r3, r3
 352              	.LVL24:
 405:Generated_Source\PSoC4/UART_XB2.c ****         locRxBufferWrite = UART_XB2_rxBufferWrite;
 353              		.loc 1 405 0
 354 000e D178     		ldrb	r1, [r2, #3]
 355 0010 C9B2     		uxtb	r1, r1
 356              	.LVL25:
 406:Generated_Source\PSoC4/UART_XB2.c **** 
 407:Generated_Source\PSoC4/UART_XB2.c ****         if( (UART_XB2_rxBufferLoopDetect != 0u) || (locRxBufferRead != locRxBufferWrite) )
 357              		.loc 1 407 0
 358 0012 1279     		ldrb	r2, [r2, #4]
 359 0014 002A     		cmp	r2, #0
 360 0016 01D1     		bne	.L20
 361              		.loc 1 407 0 is_stmt 0 discriminator 1
 362 0018 8B42     		cmp	r3, r1
 363 001a 10D0     		beq	.L21
 364              	.L20:
 408:Generated_Source\PSoC4/UART_XB2.c ****         {
 409:Generated_Source\PSoC4/UART_XB2.c ****             rxData = UART_XB2_rxBuffer[locRxBufferRead];
 365              		.loc 1 409 0 is_stmt 1
 366 001c 0D4A     		ldr	r2, .L25+4
 367 001e D45C     		ldrb	r4, [r2, r3]
 368 0020 E4B2     		uxtb	r4, r4
 369              	.LVL26:
 410:Generated_Source\PSoC4/UART_XB2.c ****             locRxBufferRead++;
 370              		.loc 1 410 0
 371 0022 0133     		add	r3, r3, #1
 372              	.LVL27:
 373 0024 DBB2     		uxtb	r3, r3
 374              	.LVL28:
 411:Generated_Source\PSoC4/UART_XB2.c **** 
 412:Generated_Source\PSoC4/UART_XB2.c ****             if(locRxBufferRead >= UART_XB2_RX_BUFFER_SIZE)
 375              		.loc 1 412 0
 376 0026 632B     		cmp	r3, #99
 377 0028 00D9     		bls	.L22
 413:Generated_Source\PSoC4/UART_XB2.c ****             {
 414:Generated_Source\PSoC4/UART_XB2.c ****                 locRxBufferRead = 0u;
 378              		.loc 1 414 0
ARM GAS  C:\Users\Petro\AppData\Local\Temp\ccLVkPCw.s 			page 15


 379 002a 0023     		mov	r3, #0
 380              	.LVL29:
 381              	.L22:
 415:Generated_Source\PSoC4/UART_XB2.c ****             }
 416:Generated_Source\PSoC4/UART_XB2.c ****             /* Update the real pointer */
 417:Generated_Source\PSoC4/UART_XB2.c ****             UART_XB2_rxBufferRead = locRxBufferRead;
 382              		.loc 1 417 0
 383 002c 084A     		ldr	r2, .L25
 384 002e 9370     		strb	r3, [r2, #2]
 418:Generated_Source\PSoC4/UART_XB2.c **** 
 419:Generated_Source\PSoC4/UART_XB2.c ****             if(UART_XB2_rxBufferLoopDetect != 0u)
 385              		.loc 1 419 0
 386 0030 1379     		ldrb	r3, [r2, #4]
 387              	.LVL30:
 388 0032 002B     		cmp	r3, #0
 389 0034 06D0     		beq	.L23
 420:Generated_Source\PSoC4/UART_XB2.c ****             {
 421:Generated_Source\PSoC4/UART_XB2.c ****                 UART_XB2_rxBufferLoopDetect = 0u;
 390              		.loc 1 421 0
 391 0036 0022     		mov	r2, #0
 392 0038 054B     		ldr	r3, .L25
 393 003a 1A71     		strb	r2, [r3, #4]
 394              	.LVL31:
 395 003c 02E0     		b	.L23
 396              	.LVL32:
 397              	.L21:
 422:Generated_Source\PSoC4/UART_XB2.c ****                 #if ((UART_XB2_RX_INTERRUPT_ENABLED) && (UART_XB2_FLOW_CONTROL != 0u))
 423:Generated_Source\PSoC4/UART_XB2.c ****                     /* When Hardware Flow Control selected - return RX mask */
 424:Generated_Source\PSoC4/UART_XB2.c ****                     #if( UART_XB2_HD_ENABLED )
 425:Generated_Source\PSoC4/UART_XB2.c ****                         if((UART_XB2_CONTROL_REG & UART_XB2_CTRL_HD_SEND) == 0u)
 426:Generated_Source\PSoC4/UART_XB2.c ****                         {   /* In Half duplex mode return RX mask only in RX
 427:Generated_Source\PSoC4/UART_XB2.c ****                             *  configuration set, otherwise
 428:Generated_Source\PSoC4/UART_XB2.c ****                             *  mask will be returned in LoadRxConfig() API.
 429:Generated_Source\PSoC4/UART_XB2.c ****                             */
 430:Generated_Source\PSoC4/UART_XB2.c ****                             UART_XB2_RXSTATUS_MASK_REG  |= UART_XB2_RX_STS_FIFO_NOTEMPTY;
 431:Generated_Source\PSoC4/UART_XB2.c ****                         }
 432:Generated_Source\PSoC4/UART_XB2.c ****                     #else
 433:Generated_Source\PSoC4/UART_XB2.c ****                         UART_XB2_RXSTATUS_MASK_REG  |= UART_XB2_RX_STS_FIFO_NOTEMPTY;
 434:Generated_Source\PSoC4/UART_XB2.c ****                     #endif /* end UART_XB2_HD_ENABLED */
 435:Generated_Source\PSoC4/UART_XB2.c ****                 #endif /* ((UART_XB2_RX_INTERRUPT_ENABLED) && (UART_XB2_FLOW_CONTROL != 0u)) */
 436:Generated_Source\PSoC4/UART_XB2.c ****             }
 437:Generated_Source\PSoC4/UART_XB2.c ****         }
 438:Generated_Source\PSoC4/UART_XB2.c ****         else
 439:Generated_Source\PSoC4/UART_XB2.c ****         {   /* Needs to check status for RX_STS_FIFO_NOTEMPTY bit */
 440:Generated_Source\PSoC4/UART_XB2.c ****             rxData = UART_XB2_RXDATA_REG;
 398              		.loc 1 440 0
 399 003e 064B     		ldr	r3, .L25+8
 400              	.LVL33:
 401 0040 1C78     		ldrb	r4, [r3]
 402 0042 E4B2     		uxtb	r4, r4
 403              	.LVL34:
 404              	.L23:
 441:Generated_Source\PSoC4/UART_XB2.c ****         }
 442:Generated_Source\PSoC4/UART_XB2.c **** 
 443:Generated_Source\PSoC4/UART_XB2.c ****         UART_XB2_EnableRxInt();
 405              		.loc 1 443 0
 406 0044 0120     		mov	r0, #1
ARM GAS  C:\Users\Petro\AppData\Local\Temp\ccLVkPCw.s 			page 16


 407 0046 FFF7FEFF 		bl	CyIntEnable
 408              	.LVL35:
 444:Generated_Source\PSoC4/UART_XB2.c **** 
 445:Generated_Source\PSoC4/UART_XB2.c ****     #else
 446:Generated_Source\PSoC4/UART_XB2.c **** 
 447:Generated_Source\PSoC4/UART_XB2.c ****         /* Needs to check status for RX_STS_FIFO_NOTEMPTY bit */
 448:Generated_Source\PSoC4/UART_XB2.c ****         rxData = UART_XB2_RXDATA_REG;
 449:Generated_Source\PSoC4/UART_XB2.c **** 
 450:Generated_Source\PSoC4/UART_XB2.c ****     #endif /* (UART_XB2_RX_INTERRUPT_ENABLED) */
 451:Generated_Source\PSoC4/UART_XB2.c **** 
 452:Generated_Source\PSoC4/UART_XB2.c ****         return(rxData);
 453:Generated_Source\PSoC4/UART_XB2.c ****     }
 409              		.loc 1 453 0
 410 004a 201C     		mov	r0, r4
 411              		@ sp needed
 412              	.LVL36:
 413 004c 10BD     		pop	{r4, pc}
 414              	.L26:
 415 004e C046     		.align	2
 416              	.L25:
 417 0050 00000000 		.word	.LANCHOR0
 418 0054 00000000 		.word	UART_XB2_rxBuffer
 419 0058 41000F40 		.word	1074724929
 420              		.cfi_endproc
 421              	.LFE9:
 422              		.size	UART_XB2_ReadRxData, .-UART_XB2_ReadRxData
 423              		.section	.text.UART_XB2_ReadRxStatus,"ax",%progbits
 424              		.align	2
 425              		.global	UART_XB2_ReadRxStatus
 426              		.code	16
 427              		.thumb_func
 428              		.type	UART_XB2_ReadRxStatus, %function
 429              	UART_XB2_ReadRxStatus:
 430              	.LFB10:
 454:Generated_Source\PSoC4/UART_XB2.c **** 
 455:Generated_Source\PSoC4/UART_XB2.c **** 
 456:Generated_Source\PSoC4/UART_XB2.c ****     /*******************************************************************************
 457:Generated_Source\PSoC4/UART_XB2.c ****     * Function Name: UART_XB2_ReadRxStatus
 458:Generated_Source\PSoC4/UART_XB2.c ****     ********************************************************************************
 459:Generated_Source\PSoC4/UART_XB2.c ****     *
 460:Generated_Source\PSoC4/UART_XB2.c ****     * Summary:
 461:Generated_Source\PSoC4/UART_XB2.c ****     *  Returns the current state of the receiver status register and the software
 462:Generated_Source\PSoC4/UART_XB2.c ****     *  buffer overflow status.
 463:Generated_Source\PSoC4/UART_XB2.c ****     *
 464:Generated_Source\PSoC4/UART_XB2.c ****     * Parameters:
 465:Generated_Source\PSoC4/UART_XB2.c ****     *  None.
 466:Generated_Source\PSoC4/UART_XB2.c ****     *
 467:Generated_Source\PSoC4/UART_XB2.c ****     * Return:
 468:Generated_Source\PSoC4/UART_XB2.c ****     *  Current state of the status register.
 469:Generated_Source\PSoC4/UART_XB2.c ****     *
 470:Generated_Source\PSoC4/UART_XB2.c ****     * Side Effect:
 471:Generated_Source\PSoC4/UART_XB2.c ****     *  All status register bits are clear-on-read except
 472:Generated_Source\PSoC4/UART_XB2.c ****     *  UART_XB2_RX_STS_FIFO_NOTEMPTY.
 473:Generated_Source\PSoC4/UART_XB2.c ****     *  UART_XB2_RX_STS_FIFO_NOTEMPTY clears immediately after RX data
 474:Generated_Source\PSoC4/UART_XB2.c ****     *  register read.
 475:Generated_Source\PSoC4/UART_XB2.c ****     *
 476:Generated_Source\PSoC4/UART_XB2.c ****     * Global Variables:
ARM GAS  C:\Users\Petro\AppData\Local\Temp\ccLVkPCw.s 			page 17


 477:Generated_Source\PSoC4/UART_XB2.c ****     *  UART_XB2_rxBufferOverflow - used to indicate overload condition.
 478:Generated_Source\PSoC4/UART_XB2.c ****     *   It set to one in RX interrupt when there isn't free space in
 479:Generated_Source\PSoC4/UART_XB2.c ****     *   UART_XB2_rxBufferRead to write new data. This condition returned
 480:Generated_Source\PSoC4/UART_XB2.c ****     *   and cleared to zero by this API as an
 481:Generated_Source\PSoC4/UART_XB2.c ****     *   UART_XB2_RX_STS_SOFT_BUFF_OVER bit along with RX Status register
 482:Generated_Source\PSoC4/UART_XB2.c ****     *   bits.
 483:Generated_Source\PSoC4/UART_XB2.c ****     *
 484:Generated_Source\PSoC4/UART_XB2.c ****     *******************************************************************************/
 485:Generated_Source\PSoC4/UART_XB2.c ****     uint8 UART_XB2_ReadRxStatus(void) 
 486:Generated_Source\PSoC4/UART_XB2.c ****     {
 431              		.loc 1 486 0
 432              		.cfi_startproc
 487:Generated_Source\PSoC4/UART_XB2.c ****         uint8 status;
 488:Generated_Source\PSoC4/UART_XB2.c **** 
 489:Generated_Source\PSoC4/UART_XB2.c ****         status = UART_XB2_RXSTATUS_REG & UART_XB2_RX_HW_MASK;
 433              		.loc 1 489 0
 434 0000 064B     		ldr	r3, .L29
 435 0002 1878     		ldrb	r0, [r3]
 436 0004 7F23     		mov	r3, #127
 437 0006 1840     		and	r0, r3
 438              	.LVL37:
 490:Generated_Source\PSoC4/UART_XB2.c **** 
 491:Generated_Source\PSoC4/UART_XB2.c ****     #if (UART_XB2_RX_INTERRUPT_ENABLED)
 492:Generated_Source\PSoC4/UART_XB2.c ****         if(UART_XB2_rxBufferOverflow != 0u)
 439              		.loc 1 492 0
 440 0008 054B     		ldr	r3, .L29+4
 441 000a 5B79     		ldrb	r3, [r3, #5]
 442 000c 002B     		cmp	r3, #0
 443 000e 04D0     		beq	.L28
 493:Generated_Source\PSoC4/UART_XB2.c ****         {
 494:Generated_Source\PSoC4/UART_XB2.c ****             status |= UART_XB2_RX_STS_SOFT_BUFF_OVER;
 444              		.loc 1 494 0
 445 0010 8023     		mov	r3, #128
 446 0012 1843     		orr	r0, r3
 447              	.LVL38:
 495:Generated_Source\PSoC4/UART_XB2.c ****             UART_XB2_rxBufferOverflow = 0u;
 448              		.loc 1 495 0
 449 0014 0022     		mov	r2, #0
 450 0016 024B     		ldr	r3, .L29+4
 451 0018 5A71     		strb	r2, [r3, #5]
 452              	.L28:
 496:Generated_Source\PSoC4/UART_XB2.c ****         }
 497:Generated_Source\PSoC4/UART_XB2.c ****     #endif /* (UART_XB2_RX_INTERRUPT_ENABLED) */
 498:Generated_Source\PSoC4/UART_XB2.c **** 
 499:Generated_Source\PSoC4/UART_XB2.c ****         return(status);
 500:Generated_Source\PSoC4/UART_XB2.c ****     }
 453              		.loc 1 500 0
 454              		@ sp needed
 455 001a 7047     		bx	lr
 456              	.L30:
 457              		.align	2
 458              	.L29:
 459 001c 60000F40 		.word	1074724960
 460 0020 00000000 		.word	.LANCHOR0
 461              		.cfi_endproc
 462              	.LFE10:
 463              		.size	UART_XB2_ReadRxStatus, .-UART_XB2_ReadRxStatus
ARM GAS  C:\Users\Petro\AppData\Local\Temp\ccLVkPCw.s 			page 18


 464              		.section	.text.UART_XB2_GetChar,"ax",%progbits
 465              		.align	2
 466              		.global	UART_XB2_GetChar
 467              		.code	16
 468              		.thumb_func
 469              		.type	UART_XB2_GetChar, %function
 470              	UART_XB2_GetChar:
 471              	.LFB11:
 501:Generated_Source\PSoC4/UART_XB2.c **** 
 502:Generated_Source\PSoC4/UART_XB2.c **** 
 503:Generated_Source\PSoC4/UART_XB2.c ****     /*******************************************************************************
 504:Generated_Source\PSoC4/UART_XB2.c ****     * Function Name: UART_XB2_GetChar
 505:Generated_Source\PSoC4/UART_XB2.c ****     ********************************************************************************
 506:Generated_Source\PSoC4/UART_XB2.c ****     *
 507:Generated_Source\PSoC4/UART_XB2.c ****     * Summary:
 508:Generated_Source\PSoC4/UART_XB2.c ****     *  Returns the last received byte of data. UART_XB2_GetChar() is
 509:Generated_Source\PSoC4/UART_XB2.c ****     *  designed for ASCII characters and returns a uint8 where 1 to 255 are values
 510:Generated_Source\PSoC4/UART_XB2.c ****     *  for valid characters and 0 indicates an error occurred or no data is present.
 511:Generated_Source\PSoC4/UART_XB2.c ****     *
 512:Generated_Source\PSoC4/UART_XB2.c ****     * Parameters:
 513:Generated_Source\PSoC4/UART_XB2.c ****     *  None.
 514:Generated_Source\PSoC4/UART_XB2.c ****     *
 515:Generated_Source\PSoC4/UART_XB2.c ****     * Return:
 516:Generated_Source\PSoC4/UART_XB2.c ****     *  Character read from UART RX buffer. ASCII characters from 1 to 255 are valid.
 517:Generated_Source\PSoC4/UART_XB2.c ****     *  A returned zero signifies an error condition or no data available.
 518:Generated_Source\PSoC4/UART_XB2.c ****     *
 519:Generated_Source\PSoC4/UART_XB2.c ****     * Global Variables:
 520:Generated_Source\PSoC4/UART_XB2.c ****     *  UART_XB2_rxBuffer - RAM buffer pointer for save received data.
 521:Generated_Source\PSoC4/UART_XB2.c ****     *  UART_XB2_rxBufferWrite - cyclic index for write to rxBuffer,
 522:Generated_Source\PSoC4/UART_XB2.c ****     *     checked to identify new data.
 523:Generated_Source\PSoC4/UART_XB2.c ****     *  UART_XB2_rxBufferRead - cyclic index for read from rxBuffer,
 524:Generated_Source\PSoC4/UART_XB2.c ****     *     incremented after each byte has been read from buffer.
 525:Generated_Source\PSoC4/UART_XB2.c ****     *  UART_XB2_rxBufferLoopDetect - cleared if loop condition was detected
 526:Generated_Source\PSoC4/UART_XB2.c ****     *     in RX ISR.
 527:Generated_Source\PSoC4/UART_XB2.c ****     *
 528:Generated_Source\PSoC4/UART_XB2.c ****     * Reentrant:
 529:Generated_Source\PSoC4/UART_XB2.c ****     *  No.
 530:Generated_Source\PSoC4/UART_XB2.c ****     *
 531:Generated_Source\PSoC4/UART_XB2.c ****     *******************************************************************************/
 532:Generated_Source\PSoC4/UART_XB2.c ****     uint8 UART_XB2_GetChar(void) 
 533:Generated_Source\PSoC4/UART_XB2.c ****     {
 472              		.loc 1 533 0
 473              		.cfi_startproc
 474 0000 10B5     		push	{r4, lr}
 475              		.cfi_def_cfa_offset 8
 476              		.cfi_offset 4, -8
 477              		.cfi_offset 14, -4
 478              	.LVL39:
 534:Generated_Source\PSoC4/UART_XB2.c ****         uint8 rxData = 0u;
 535:Generated_Source\PSoC4/UART_XB2.c ****         uint8 rxStatus;
 536:Generated_Source\PSoC4/UART_XB2.c **** 
 537:Generated_Source\PSoC4/UART_XB2.c ****     #if (UART_XB2_RX_INTERRUPT_ENABLED)
 538:Generated_Source\PSoC4/UART_XB2.c ****         uint8 locRxBufferRead;
 539:Generated_Source\PSoC4/UART_XB2.c ****         uint8 locRxBufferWrite;
 540:Generated_Source\PSoC4/UART_XB2.c **** 
 541:Generated_Source\PSoC4/UART_XB2.c ****         /* Protect variables that could change on interrupt */
 542:Generated_Source\PSoC4/UART_XB2.c ****         UART_XB2_DisableRxInt();
ARM GAS  C:\Users\Petro\AppData\Local\Temp\ccLVkPCw.s 			page 19


 479              		.loc 1 542 0
 480 0002 0120     		mov	r0, #1
 481 0004 FFF7FEFF 		bl	CyIntDisable
 482              	.LVL40:
 543:Generated_Source\PSoC4/UART_XB2.c **** 
 544:Generated_Source\PSoC4/UART_XB2.c ****         locRxBufferRead  = UART_XB2_rxBufferRead;
 483              		.loc 1 544 0
 484 0008 174A     		ldr	r2, .L39
 485 000a 9378     		ldrb	r3, [r2, #2]
 486 000c DBB2     		uxtb	r3, r3
 487              	.LVL41:
 545:Generated_Source\PSoC4/UART_XB2.c ****         locRxBufferWrite = UART_XB2_rxBufferWrite;
 488              		.loc 1 545 0
 489 000e D178     		ldrb	r1, [r2, #3]
 490 0010 C9B2     		uxtb	r1, r1
 491              	.LVL42:
 546:Generated_Source\PSoC4/UART_XB2.c **** 
 547:Generated_Source\PSoC4/UART_XB2.c ****         if( (UART_XB2_rxBufferLoopDetect != 0u) || (locRxBufferRead != locRxBufferWrite) )
 492              		.loc 1 547 0
 493 0012 1279     		ldrb	r2, [r2, #4]
 494 0014 002A     		cmp	r2, #0
 495 0016 01D1     		bne	.L32
 496              		.loc 1 547 0 is_stmt 0 discriminator 1
 497 0018 8B42     		cmp	r3, r1
 498 001a 10D0     		beq	.L33
 499              	.L32:
 548:Generated_Source\PSoC4/UART_XB2.c ****         {
 549:Generated_Source\PSoC4/UART_XB2.c ****             rxData = UART_XB2_rxBuffer[locRxBufferRead];
 500              		.loc 1 549 0 is_stmt 1
 501 001c 134A     		ldr	r2, .L39+4
 502 001e D45C     		ldrb	r4, [r2, r3]
 503 0020 E4B2     		uxtb	r4, r4
 504              	.LVL43:
 550:Generated_Source\PSoC4/UART_XB2.c ****             locRxBufferRead++;
 505              		.loc 1 550 0
 506 0022 0133     		add	r3, r3, #1
 507              	.LVL44:
 508 0024 DBB2     		uxtb	r3, r3
 509              	.LVL45:
 551:Generated_Source\PSoC4/UART_XB2.c ****             if(locRxBufferRead >= UART_XB2_RX_BUFFER_SIZE)
 510              		.loc 1 551 0
 511 0026 632B     		cmp	r3, #99
 512 0028 00D9     		bls	.L34
 552:Generated_Source\PSoC4/UART_XB2.c ****             {
 553:Generated_Source\PSoC4/UART_XB2.c ****                 locRxBufferRead = 0u;
 513              		.loc 1 553 0
 514 002a 0023     		mov	r3, #0
 515              	.LVL46:
 516              	.L34:
 554:Generated_Source\PSoC4/UART_XB2.c ****             }
 555:Generated_Source\PSoC4/UART_XB2.c ****             /* Update the real pointer */
 556:Generated_Source\PSoC4/UART_XB2.c ****             UART_XB2_rxBufferRead = locRxBufferRead;
 517              		.loc 1 556 0
 518 002c 0E4A     		ldr	r2, .L39
 519 002e 9370     		strb	r3, [r2, #2]
 557:Generated_Source\PSoC4/UART_XB2.c **** 
 558:Generated_Source\PSoC4/UART_XB2.c ****             if(UART_XB2_rxBufferLoopDetect != 0u)
ARM GAS  C:\Users\Petro\AppData\Local\Temp\ccLVkPCw.s 			page 20


 520              		.loc 1 558 0
 521 0030 1379     		ldrb	r3, [r2, #4]
 522              	.LVL47:
 523 0032 002B     		cmp	r3, #0
 524 0034 12D0     		beq	.L35
 559:Generated_Source\PSoC4/UART_XB2.c ****             {
 560:Generated_Source\PSoC4/UART_XB2.c ****                 UART_XB2_rxBufferLoopDetect = 0u;
 525              		.loc 1 560 0
 526 0036 0022     		mov	r2, #0
 527 0038 0B4B     		ldr	r3, .L39
 528 003a 1A71     		strb	r2, [r3, #4]
 529              	.LVL48:
 530 003c 0EE0     		b	.L35
 531              	.LVL49:
 532              	.L33:
 561:Generated_Source\PSoC4/UART_XB2.c ****                 #if( (UART_XB2_RX_INTERRUPT_ENABLED) && (UART_XB2_FLOW_CONTROL != 0u) )
 562:Generated_Source\PSoC4/UART_XB2.c ****                     /* When Hardware Flow Control selected - return RX mask */
 563:Generated_Source\PSoC4/UART_XB2.c ****                     #if( UART_XB2_HD_ENABLED )
 564:Generated_Source\PSoC4/UART_XB2.c ****                         if((UART_XB2_CONTROL_REG & UART_XB2_CTRL_HD_SEND) == 0u)
 565:Generated_Source\PSoC4/UART_XB2.c ****                         {   /* In Half duplex mode return RX mask only if
 566:Generated_Source\PSoC4/UART_XB2.c ****                             *  RX configuration set, otherwise
 567:Generated_Source\PSoC4/UART_XB2.c ****                             *  mask will be returned in LoadRxConfig() API.
 568:Generated_Source\PSoC4/UART_XB2.c ****                             */
 569:Generated_Source\PSoC4/UART_XB2.c ****                             UART_XB2_RXSTATUS_MASK_REG |= UART_XB2_RX_STS_FIFO_NOTEMPTY;
 570:Generated_Source\PSoC4/UART_XB2.c ****                         }
 571:Generated_Source\PSoC4/UART_XB2.c ****                     #else
 572:Generated_Source\PSoC4/UART_XB2.c ****                         UART_XB2_RXSTATUS_MASK_REG |= UART_XB2_RX_STS_FIFO_NOTEMPTY;
 573:Generated_Source\PSoC4/UART_XB2.c ****                     #endif /* end UART_XB2_HD_ENABLED */
 574:Generated_Source\PSoC4/UART_XB2.c ****                 #endif /* UART_XB2_RX_INTERRUPT_ENABLED and Hardware flow control*/
 575:Generated_Source\PSoC4/UART_XB2.c ****             }
 576:Generated_Source\PSoC4/UART_XB2.c **** 
 577:Generated_Source\PSoC4/UART_XB2.c ****         }
 578:Generated_Source\PSoC4/UART_XB2.c ****         else
 579:Generated_Source\PSoC4/UART_XB2.c ****         {   rxStatus = UART_XB2_RXSTATUS_REG;
 533              		.loc 1 579 0
 534 003e 0C4B     		ldr	r3, .L39+8
 535              	.LVL50:
 536 0040 1B78     		ldrb	r3, [r3]
 537 0042 DBB2     		uxtb	r3, r3
 538              	.LVL51:
 580:Generated_Source\PSoC4/UART_XB2.c ****             if((rxStatus & UART_XB2_RX_STS_FIFO_NOTEMPTY) != 0u)
 539              		.loc 1 580 0
 540 0044 9A06     		lsl	r2, r3, #26
 541 0046 06D5     		bpl	.L37
 581:Generated_Source\PSoC4/UART_XB2.c ****             {   /* Read received data from FIFO */
 582:Generated_Source\PSoC4/UART_XB2.c ****                 rxData = UART_XB2_RXDATA_REG;
 542              		.loc 1 582 0
 543 0048 0A4A     		ldr	r2, .L39+12
 544 004a 1478     		ldrb	r4, [r2]
 545 004c E4B2     		uxtb	r4, r4
 546              	.LVL52:
 583:Generated_Source\PSoC4/UART_XB2.c ****                 /*Check status on error*/
 584:Generated_Source\PSoC4/UART_XB2.c ****                 if((rxStatus & (UART_XB2_RX_STS_BREAK | UART_XB2_RX_STS_PAR_ERROR |
 547              		.loc 1 584 0
 548 004e 1E22     		mov	r2, #30
 549 0050 1A42     		tst	r2, r3
 550 0052 02D1     		bne	.L38
ARM GAS  C:\Users\Petro\AppData\Local\Temp\ccLVkPCw.s 			page 21


 551 0054 02E0     		b	.L35
 552              	.LVL53:
 553              	.L37:
 534:Generated_Source\PSoC4/UART_XB2.c ****         uint8 rxStatus;
 554              		.loc 1 534 0
 555 0056 0024     		mov	r4, #0
 556 0058 00E0     		b	.L35
 557              	.LVL54:
 558              	.L38:
 585:Generated_Source\PSoC4/UART_XB2.c ****                                 UART_XB2_RX_STS_STOP_ERROR | UART_XB2_RX_STS_OVERRUN)) != 0u)
 586:Generated_Source\PSoC4/UART_XB2.c ****                 {
 587:Generated_Source\PSoC4/UART_XB2.c ****                     rxData = 0u;
 559              		.loc 1 587 0
 560 005a 0024     		mov	r4, #0
 561              	.LVL55:
 562              	.L35:
 588:Generated_Source\PSoC4/UART_XB2.c ****                 }
 589:Generated_Source\PSoC4/UART_XB2.c ****             }
 590:Generated_Source\PSoC4/UART_XB2.c ****         }
 591:Generated_Source\PSoC4/UART_XB2.c **** 
 592:Generated_Source\PSoC4/UART_XB2.c ****         UART_XB2_EnableRxInt();
 563              		.loc 1 592 0
 564 005c 0120     		mov	r0, #1
 565 005e FFF7FEFF 		bl	CyIntEnable
 566              	.LVL56:
 593:Generated_Source\PSoC4/UART_XB2.c **** 
 594:Generated_Source\PSoC4/UART_XB2.c ****     #else
 595:Generated_Source\PSoC4/UART_XB2.c **** 
 596:Generated_Source\PSoC4/UART_XB2.c ****         rxStatus =UART_XB2_RXSTATUS_REG;
 597:Generated_Source\PSoC4/UART_XB2.c ****         if((rxStatus & UART_XB2_RX_STS_FIFO_NOTEMPTY) != 0u)
 598:Generated_Source\PSoC4/UART_XB2.c ****         {
 599:Generated_Source\PSoC4/UART_XB2.c ****             /* Read received data from FIFO */
 600:Generated_Source\PSoC4/UART_XB2.c ****             rxData = UART_XB2_RXDATA_REG;
 601:Generated_Source\PSoC4/UART_XB2.c **** 
 602:Generated_Source\PSoC4/UART_XB2.c ****             /*Check status on error*/
 603:Generated_Source\PSoC4/UART_XB2.c ****             if((rxStatus & (UART_XB2_RX_STS_BREAK | UART_XB2_RX_STS_PAR_ERROR |
 604:Generated_Source\PSoC4/UART_XB2.c ****                             UART_XB2_RX_STS_STOP_ERROR | UART_XB2_RX_STS_OVERRUN)) != 0u)
 605:Generated_Source\PSoC4/UART_XB2.c ****             {
 606:Generated_Source\PSoC4/UART_XB2.c ****                 rxData = 0u;
 607:Generated_Source\PSoC4/UART_XB2.c ****             }
 608:Generated_Source\PSoC4/UART_XB2.c ****         }
 609:Generated_Source\PSoC4/UART_XB2.c ****     #endif /* (UART_XB2_RX_INTERRUPT_ENABLED) */
 610:Generated_Source\PSoC4/UART_XB2.c **** 
 611:Generated_Source\PSoC4/UART_XB2.c ****         return(rxData);
 612:Generated_Source\PSoC4/UART_XB2.c ****     }
 567              		.loc 1 612 0
 568 0062 201C     		mov	r0, r4
 569              		@ sp needed
 570              	.LVL57:
 571 0064 10BD     		pop	{r4, pc}
 572              	.L40:
 573 0066 C046     		.align	2
 574              	.L39:
 575 0068 00000000 		.word	.LANCHOR0
 576 006c 00000000 		.word	UART_XB2_rxBuffer
 577 0070 60000F40 		.word	1074724960
 578 0074 41000F40 		.word	1074724929
ARM GAS  C:\Users\Petro\AppData\Local\Temp\ccLVkPCw.s 			page 22


 579              		.cfi_endproc
 580              	.LFE11:
 581              		.size	UART_XB2_GetChar, .-UART_XB2_GetChar
 582              		.section	.text.UART_XB2_GetByte,"ax",%progbits
 583              		.align	2
 584              		.global	UART_XB2_GetByte
 585              		.code	16
 586              		.thumb_func
 587              		.type	UART_XB2_GetByte, %function
 588              	UART_XB2_GetByte:
 589              	.LFB12:
 613:Generated_Source\PSoC4/UART_XB2.c **** 
 614:Generated_Source\PSoC4/UART_XB2.c **** 
 615:Generated_Source\PSoC4/UART_XB2.c ****     /*******************************************************************************
 616:Generated_Source\PSoC4/UART_XB2.c ****     * Function Name: UART_XB2_GetByte
 617:Generated_Source\PSoC4/UART_XB2.c ****     ********************************************************************************
 618:Generated_Source\PSoC4/UART_XB2.c ****     *
 619:Generated_Source\PSoC4/UART_XB2.c ****     * Summary:
 620:Generated_Source\PSoC4/UART_XB2.c ****     *  Reads UART RX buffer immediately, returns received character and error
 621:Generated_Source\PSoC4/UART_XB2.c ****     *  condition.
 622:Generated_Source\PSoC4/UART_XB2.c ****     *
 623:Generated_Source\PSoC4/UART_XB2.c ****     * Parameters:
 624:Generated_Source\PSoC4/UART_XB2.c ****     *  None.
 625:Generated_Source\PSoC4/UART_XB2.c ****     *
 626:Generated_Source\PSoC4/UART_XB2.c ****     * Return:
 627:Generated_Source\PSoC4/UART_XB2.c ****     *  MSB contains status and LSB contains UART RX data. If the MSB is nonzero,
 628:Generated_Source\PSoC4/UART_XB2.c ****     *  an error has occurred.
 629:Generated_Source\PSoC4/UART_XB2.c ****     *
 630:Generated_Source\PSoC4/UART_XB2.c ****     * Reentrant:
 631:Generated_Source\PSoC4/UART_XB2.c ****     *  No.
 632:Generated_Source\PSoC4/UART_XB2.c ****     *
 633:Generated_Source\PSoC4/UART_XB2.c ****     *******************************************************************************/
 634:Generated_Source\PSoC4/UART_XB2.c ****     uint16 UART_XB2_GetByte(void) 
 635:Generated_Source\PSoC4/UART_XB2.c ****     {
 590              		.loc 1 635 0
 591              		.cfi_startproc
 592 0000 10B5     		push	{r4, lr}
 593              		.cfi_def_cfa_offset 8
 594              		.cfi_offset 4, -8
 595              		.cfi_offset 14, -4
 636:Generated_Source\PSoC4/UART_XB2.c ****         
 637:Generated_Source\PSoC4/UART_XB2.c ****     #if (UART_XB2_RX_INTERRUPT_ENABLED)
 638:Generated_Source\PSoC4/UART_XB2.c ****         uint16 locErrorStatus;
 639:Generated_Source\PSoC4/UART_XB2.c ****         /* Protect variables that could change on interrupt */
 640:Generated_Source\PSoC4/UART_XB2.c ****         UART_XB2_DisableRxInt();
 596              		.loc 1 640 0
 597 0002 0120     		mov	r0, #1
 598 0004 FFF7FEFF 		bl	CyIntDisable
 599              	.LVL58:
 641:Generated_Source\PSoC4/UART_XB2.c ****         locErrorStatus = (uint16)UART_XB2_errorStatus;
 600              		.loc 1 641 0
 601 0008 064B     		ldr	r3, .L42
 602 000a 1C78     		ldrb	r4, [r3]
 603              	.LVL59:
 642:Generated_Source\PSoC4/UART_XB2.c ****         UART_XB2_errorStatus = 0u;
 604              		.loc 1 642 0
 605 000c 0022     		mov	r2, #0
ARM GAS  C:\Users\Petro\AppData\Local\Temp\ccLVkPCw.s 			page 23


 606 000e 1A70     		strb	r2, [r3]
 643:Generated_Source\PSoC4/UART_XB2.c ****         UART_XB2_EnableRxInt();
 607              		.loc 1 643 0
 608 0010 0120     		mov	r0, #1
 609 0012 FFF7FEFF 		bl	CyIntEnable
 610              	.LVL60:
 644:Generated_Source\PSoC4/UART_XB2.c ****         return ( (uint16)(locErrorStatus << 8u) | UART_XB2_ReadRxData() );
 611              		.loc 1 644 0
 612 0016 2402     		lsl	r4, r4, #8
 613              	.LVL61:
 614 0018 FFF7FEFF 		bl	UART_XB2_ReadRxData
 615              	.LVL62:
 616 001c 2043     		orr	r0, r4
 617 001e 80B2     		uxth	r0, r0
 645:Generated_Source\PSoC4/UART_XB2.c ****     #else
 646:Generated_Source\PSoC4/UART_XB2.c ****         return ( ((uint16)UART_XB2_ReadRxStatus() << 8u) | UART_XB2_ReadRxData() );
 647:Generated_Source\PSoC4/UART_XB2.c ****     #endif /* UART_XB2_RX_INTERRUPT_ENABLED */
 648:Generated_Source\PSoC4/UART_XB2.c ****         
 649:Generated_Source\PSoC4/UART_XB2.c ****     }
 618              		.loc 1 649 0
 619              		@ sp needed
 620 0020 10BD     		pop	{r4, pc}
 621              	.L43:
 622 0022 C046     		.align	2
 623              	.L42:
 624 0024 00000000 		.word	.LANCHOR0
 625              		.cfi_endproc
 626              	.LFE12:
 627              		.size	UART_XB2_GetByte, .-UART_XB2_GetByte
 628              		.section	.text.UART_XB2_GetRxBufferSize,"ax",%progbits
 629              		.align	2
 630              		.global	UART_XB2_GetRxBufferSize
 631              		.code	16
 632              		.thumb_func
 633              		.type	UART_XB2_GetRxBufferSize, %function
 634              	UART_XB2_GetRxBufferSize:
 635              	.LFB13:
 650:Generated_Source\PSoC4/UART_XB2.c **** 
 651:Generated_Source\PSoC4/UART_XB2.c **** 
 652:Generated_Source\PSoC4/UART_XB2.c ****     /*******************************************************************************
 653:Generated_Source\PSoC4/UART_XB2.c ****     * Function Name: UART_XB2_GetRxBufferSize
 654:Generated_Source\PSoC4/UART_XB2.c ****     ********************************************************************************
 655:Generated_Source\PSoC4/UART_XB2.c ****     *
 656:Generated_Source\PSoC4/UART_XB2.c ****     * Summary:
 657:Generated_Source\PSoC4/UART_XB2.c ****     *  Returns the number of received bytes available in the RX buffer.
 658:Generated_Source\PSoC4/UART_XB2.c ****     *  * RX software buffer is disabled (RX Buffer Size parameter is equal to 4): 
 659:Generated_Source\PSoC4/UART_XB2.c ****     *    returns 0 for empty RX FIFO or 1 for not empty RX FIFO.
 660:Generated_Source\PSoC4/UART_XB2.c ****     *  * RX software buffer is enabled: returns the number of bytes available in 
 661:Generated_Source\PSoC4/UART_XB2.c ****     *    the RX software buffer. Bytes available in the RX FIFO do not take to 
 662:Generated_Source\PSoC4/UART_XB2.c ****     *    account.
 663:Generated_Source\PSoC4/UART_XB2.c ****     *
 664:Generated_Source\PSoC4/UART_XB2.c ****     * Parameters:
 665:Generated_Source\PSoC4/UART_XB2.c ****     *  None.
 666:Generated_Source\PSoC4/UART_XB2.c ****     *
 667:Generated_Source\PSoC4/UART_XB2.c ****     * Return:
 668:Generated_Source\PSoC4/UART_XB2.c ****     *  uint8: Number of bytes in the RX buffer. 
 669:Generated_Source\PSoC4/UART_XB2.c ****     *    Return value type depends on RX Buffer Size parameter.
ARM GAS  C:\Users\Petro\AppData\Local\Temp\ccLVkPCw.s 			page 24


 670:Generated_Source\PSoC4/UART_XB2.c ****     *
 671:Generated_Source\PSoC4/UART_XB2.c ****     * Global Variables:
 672:Generated_Source\PSoC4/UART_XB2.c ****     *  UART_XB2_rxBufferWrite - used to calculate left bytes.
 673:Generated_Source\PSoC4/UART_XB2.c ****     *  UART_XB2_rxBufferRead - used to calculate left bytes.
 674:Generated_Source\PSoC4/UART_XB2.c ****     *  UART_XB2_rxBufferLoopDetect - checked to decide left bytes amount.
 675:Generated_Source\PSoC4/UART_XB2.c ****     *
 676:Generated_Source\PSoC4/UART_XB2.c ****     * Reentrant:
 677:Generated_Source\PSoC4/UART_XB2.c ****     *  No.
 678:Generated_Source\PSoC4/UART_XB2.c ****     *
 679:Generated_Source\PSoC4/UART_XB2.c ****     * Theory:
 680:Generated_Source\PSoC4/UART_XB2.c ****     *  Allows the user to find out how full the RX Buffer is.
 681:Generated_Source\PSoC4/UART_XB2.c ****     *
 682:Generated_Source\PSoC4/UART_XB2.c ****     *******************************************************************************/
 683:Generated_Source\PSoC4/UART_XB2.c ****     uint8 UART_XB2_GetRxBufferSize(void)
 684:Generated_Source\PSoC4/UART_XB2.c ****                                                             
 685:Generated_Source\PSoC4/UART_XB2.c ****     {
 636              		.loc 1 685 0
 637              		.cfi_startproc
 638 0000 10B5     		push	{r4, lr}
 639              		.cfi_def_cfa_offset 8
 640              		.cfi_offset 4, -8
 641              		.cfi_offset 14, -4
 686:Generated_Source\PSoC4/UART_XB2.c ****         uint8 size;
 687:Generated_Source\PSoC4/UART_XB2.c **** 
 688:Generated_Source\PSoC4/UART_XB2.c ****     #if (UART_XB2_RX_INTERRUPT_ENABLED)
 689:Generated_Source\PSoC4/UART_XB2.c **** 
 690:Generated_Source\PSoC4/UART_XB2.c ****         /* Protect variables that could change on interrupt */
 691:Generated_Source\PSoC4/UART_XB2.c ****         UART_XB2_DisableRxInt();
 642              		.loc 1 691 0
 643 0002 0120     		mov	r0, #1
 644 0004 FFF7FEFF 		bl	CyIntDisable
 645              	.LVL63:
 692:Generated_Source\PSoC4/UART_XB2.c **** 
 693:Generated_Source\PSoC4/UART_XB2.c ****         if(UART_XB2_rxBufferRead == UART_XB2_rxBufferWrite)
 646              		.loc 1 693 0
 647 0008 124A     		ldr	r2, .L49
 648 000a 9378     		ldrb	r3, [r2, #2]
 649 000c D278     		ldrb	r2, [r2, #3]
 650 000e DBB2     		uxtb	r3, r3
 651 0010 9342     		cmp	r3, r2
 652 0012 05D1     		bne	.L45
 694:Generated_Source\PSoC4/UART_XB2.c ****         {
 695:Generated_Source\PSoC4/UART_XB2.c ****             if(UART_XB2_rxBufferLoopDetect != 0u)
 653              		.loc 1 695 0
 654 0014 0F4B     		ldr	r3, .L49
 655 0016 1B79     		ldrb	r3, [r3, #4]
 656 0018 002B     		cmp	r3, #0
 657 001a 14D0     		beq	.L48
 696:Generated_Source\PSoC4/UART_XB2.c ****             {
 697:Generated_Source\PSoC4/UART_XB2.c ****                 size = UART_XB2_RX_BUFFER_SIZE;
 658              		.loc 1 697 0
 659 001c 6424     		mov	r4, #100
 660 001e 13E0     		b	.L46
 661              	.L45:
 698:Generated_Source\PSoC4/UART_XB2.c ****             }
 699:Generated_Source\PSoC4/UART_XB2.c ****             else
 700:Generated_Source\PSoC4/UART_XB2.c ****             {
ARM GAS  C:\Users\Petro\AppData\Local\Temp\ccLVkPCw.s 			page 25


 701:Generated_Source\PSoC4/UART_XB2.c ****                 size = 0u;
 702:Generated_Source\PSoC4/UART_XB2.c ****             }
 703:Generated_Source\PSoC4/UART_XB2.c ****         }
 704:Generated_Source\PSoC4/UART_XB2.c ****         else if(UART_XB2_rxBufferRead < UART_XB2_rxBufferWrite)
 662              		.loc 1 704 0
 663 0020 0C4A     		ldr	r2, .L49
 664 0022 9378     		ldrb	r3, [r2, #2]
 665 0024 D278     		ldrb	r2, [r2, #3]
 666 0026 DBB2     		uxtb	r3, r3
 667 0028 9342     		cmp	r3, r2
 668 002a 05D2     		bcs	.L47
 705:Generated_Source\PSoC4/UART_XB2.c ****         {
 706:Generated_Source\PSoC4/UART_XB2.c ****             size = (UART_XB2_rxBufferWrite - UART_XB2_rxBufferRead);
 669              		.loc 1 706 0
 670 002c 094A     		ldr	r2, .L49
 671 002e D378     		ldrb	r3, [r2, #3]
 672 0030 9478     		ldrb	r4, [r2, #2]
 673 0032 1C1B     		sub	r4, r3, r4
 674 0034 E4B2     		uxtb	r4, r4
 675              	.LVL64:
 676 0036 07E0     		b	.L46
 677              	.LVL65:
 678              	.L47:
 707:Generated_Source\PSoC4/UART_XB2.c ****         }
 708:Generated_Source\PSoC4/UART_XB2.c ****         else
 709:Generated_Source\PSoC4/UART_XB2.c ****         {
 710:Generated_Source\PSoC4/UART_XB2.c ****             size = (UART_XB2_RX_BUFFER_SIZE - UART_XB2_rxBufferRead) + UART_XB2_rxBufferWrite;
 679              		.loc 1 710 0
 680 0038 064A     		ldr	r2, .L49
 681 003a D378     		ldrb	r3, [r2, #3]
 682 003c 9478     		ldrb	r4, [r2, #2]
 683 003e 1C1B     		sub	r4, r3, r4
 684 0040 6434     		add	r4, r4, #100
 685 0042 E4B2     		uxtb	r4, r4
 686              	.LVL66:
 687 0044 00E0     		b	.L46
 688              	.LVL67:
 689              	.L48:
 701:Generated_Source\PSoC4/UART_XB2.c ****             }
 690              		.loc 1 701 0
 691 0046 0024     		mov	r4, #0
 692              	.L46:
 693              	.LVL68:
 711:Generated_Source\PSoC4/UART_XB2.c ****         }
 712:Generated_Source\PSoC4/UART_XB2.c **** 
 713:Generated_Source\PSoC4/UART_XB2.c ****         UART_XB2_EnableRxInt();
 694              		.loc 1 713 0
 695 0048 0120     		mov	r0, #1
 696 004a FFF7FEFF 		bl	CyIntEnable
 697              	.LVL69:
 714:Generated_Source\PSoC4/UART_XB2.c **** 
 715:Generated_Source\PSoC4/UART_XB2.c ****     #else
 716:Generated_Source\PSoC4/UART_XB2.c **** 
 717:Generated_Source\PSoC4/UART_XB2.c ****         /* We can only know if there is data in the fifo. */
 718:Generated_Source\PSoC4/UART_XB2.c ****         size = ((UART_XB2_RXSTATUS_REG & UART_XB2_RX_STS_FIFO_NOTEMPTY) != 0u) ? 1u : 0u;
 719:Generated_Source\PSoC4/UART_XB2.c **** 
 720:Generated_Source\PSoC4/UART_XB2.c ****     #endif /* (UART_XB2_RX_INTERRUPT_ENABLED) */
ARM GAS  C:\Users\Petro\AppData\Local\Temp\ccLVkPCw.s 			page 26


 721:Generated_Source\PSoC4/UART_XB2.c **** 
 722:Generated_Source\PSoC4/UART_XB2.c ****         return(size);
 723:Generated_Source\PSoC4/UART_XB2.c ****     }
 698              		.loc 1 723 0
 699 004e 201C     		mov	r0, r4
 700              		@ sp needed
 701              	.LVL70:
 702 0050 10BD     		pop	{r4, pc}
 703              	.L50:
 704 0052 C046     		.align	2
 705              	.L49:
 706 0054 00000000 		.word	.LANCHOR0
 707              		.cfi_endproc
 708              	.LFE13:
 709              		.size	UART_XB2_GetRxBufferSize, .-UART_XB2_GetRxBufferSize
 710              		.section	.text.UART_XB2_ClearRxBuffer,"ax",%progbits
 711              		.align	2
 712              		.global	UART_XB2_ClearRxBuffer
 713              		.code	16
 714              		.thumb_func
 715              		.type	UART_XB2_ClearRxBuffer, %function
 716              	UART_XB2_ClearRxBuffer:
 717              	.LFB14:
 724:Generated_Source\PSoC4/UART_XB2.c **** 
 725:Generated_Source\PSoC4/UART_XB2.c **** 
 726:Generated_Source\PSoC4/UART_XB2.c ****     /*******************************************************************************
 727:Generated_Source\PSoC4/UART_XB2.c ****     * Function Name: UART_XB2_ClearRxBuffer
 728:Generated_Source\PSoC4/UART_XB2.c ****     ********************************************************************************
 729:Generated_Source\PSoC4/UART_XB2.c ****     *
 730:Generated_Source\PSoC4/UART_XB2.c ****     * Summary:
 731:Generated_Source\PSoC4/UART_XB2.c ****     *  Clears the receiver memory buffer and hardware RX FIFO of all received data.
 732:Generated_Source\PSoC4/UART_XB2.c ****     *
 733:Generated_Source\PSoC4/UART_XB2.c ****     * Parameters:
 734:Generated_Source\PSoC4/UART_XB2.c ****     *  None.
 735:Generated_Source\PSoC4/UART_XB2.c ****     *
 736:Generated_Source\PSoC4/UART_XB2.c ****     * Return:
 737:Generated_Source\PSoC4/UART_XB2.c ****     *  None.
 738:Generated_Source\PSoC4/UART_XB2.c ****     *
 739:Generated_Source\PSoC4/UART_XB2.c ****     * Global Variables:
 740:Generated_Source\PSoC4/UART_XB2.c ****     *  UART_XB2_rxBufferWrite - cleared to zero.
 741:Generated_Source\PSoC4/UART_XB2.c ****     *  UART_XB2_rxBufferRead - cleared to zero.
 742:Generated_Source\PSoC4/UART_XB2.c ****     *  UART_XB2_rxBufferLoopDetect - cleared to zero.
 743:Generated_Source\PSoC4/UART_XB2.c ****     *  UART_XB2_rxBufferOverflow - cleared to zero.
 744:Generated_Source\PSoC4/UART_XB2.c ****     *
 745:Generated_Source\PSoC4/UART_XB2.c ****     * Reentrant:
 746:Generated_Source\PSoC4/UART_XB2.c ****     *  No.
 747:Generated_Source\PSoC4/UART_XB2.c ****     *
 748:Generated_Source\PSoC4/UART_XB2.c ****     * Theory:
 749:Generated_Source\PSoC4/UART_XB2.c ****     *  Setting the pointers to zero makes the system believe there is no data to
 750:Generated_Source\PSoC4/UART_XB2.c ****     *  read and writing will resume at address 0 overwriting any data that may
 751:Generated_Source\PSoC4/UART_XB2.c ****     *  have remained in the RAM.
 752:Generated_Source\PSoC4/UART_XB2.c ****     *
 753:Generated_Source\PSoC4/UART_XB2.c ****     * Side Effects:
 754:Generated_Source\PSoC4/UART_XB2.c ****     *  Any received data not read from the RAM or FIFO buffer will be lost.
 755:Generated_Source\PSoC4/UART_XB2.c ****     *
 756:Generated_Source\PSoC4/UART_XB2.c ****     *******************************************************************************/
 757:Generated_Source\PSoC4/UART_XB2.c ****     void UART_XB2_ClearRxBuffer(void) 
ARM GAS  C:\Users\Petro\AppData\Local\Temp\ccLVkPCw.s 			page 27


 758:Generated_Source\PSoC4/UART_XB2.c ****     {
 718              		.loc 1 758 0
 719              		.cfi_startproc
 720 0000 08B5     		push	{r3, lr}
 721              		.cfi_def_cfa_offset 8
 722              		.cfi_offset 3, -8
 723              		.cfi_offset 14, -4
 759:Generated_Source\PSoC4/UART_XB2.c ****         uint8 enableInterrupts;
 760:Generated_Source\PSoC4/UART_XB2.c **** 
 761:Generated_Source\PSoC4/UART_XB2.c ****         /* Clear the HW FIFO */
 762:Generated_Source\PSoC4/UART_XB2.c ****         enableInterrupts = CyEnterCriticalSection();
 724              		.loc 1 762 0
 725 0002 FFF7FEFF 		bl	CyEnterCriticalSection
 726              	.LVL71:
 763:Generated_Source\PSoC4/UART_XB2.c ****         UART_XB2_RXDATA_AUX_CTL_REG |= (uint8)  UART_XB2_RX_FIFO_CLR;
 727              		.loc 1 763 0
 728 0006 0C4B     		ldr	r3, .L52
 729 0008 1978     		ldrb	r1, [r3]
 730 000a 0122     		mov	r2, #1
 731 000c 0A43     		orr	r2, r1
 732 000e 1A70     		strb	r2, [r3]
 764:Generated_Source\PSoC4/UART_XB2.c ****         UART_XB2_RXDATA_AUX_CTL_REG &= (uint8) ~UART_XB2_RX_FIFO_CLR;
 733              		.loc 1 764 0
 734 0010 1A78     		ldrb	r2, [r3]
 735 0012 0121     		mov	r1, #1
 736 0014 8A43     		bic	r2, r1
 737 0016 1A70     		strb	r2, [r3]
 765:Generated_Source\PSoC4/UART_XB2.c ****         CyExitCriticalSection(enableInterrupts);
 738              		.loc 1 765 0
 739 0018 FFF7FEFF 		bl	CyExitCriticalSection
 740              	.LVL72:
 766:Generated_Source\PSoC4/UART_XB2.c **** 
 767:Generated_Source\PSoC4/UART_XB2.c ****     #if (UART_XB2_RX_INTERRUPT_ENABLED)
 768:Generated_Source\PSoC4/UART_XB2.c **** 
 769:Generated_Source\PSoC4/UART_XB2.c ****         /* Protect variables that could change on interrupt. */
 770:Generated_Source\PSoC4/UART_XB2.c ****         UART_XB2_DisableRxInt();
 741              		.loc 1 770 0
 742 001c 0120     		mov	r0, #1
 743 001e FFF7FEFF 		bl	CyIntDisable
 744              	.LVL73:
 771:Generated_Source\PSoC4/UART_XB2.c **** 
 772:Generated_Source\PSoC4/UART_XB2.c ****         UART_XB2_rxBufferRead = 0u;
 745              		.loc 1 772 0
 746 0022 064B     		ldr	r3, .L52+4
 747 0024 0022     		mov	r2, #0
 748 0026 9A70     		strb	r2, [r3, #2]
 773:Generated_Source\PSoC4/UART_XB2.c ****         UART_XB2_rxBufferWrite = 0u;
 749              		.loc 1 773 0
 750 0028 DA70     		strb	r2, [r3, #3]
 774:Generated_Source\PSoC4/UART_XB2.c ****         UART_XB2_rxBufferLoopDetect = 0u;
 751              		.loc 1 774 0
 752 002a 1A71     		strb	r2, [r3, #4]
 775:Generated_Source\PSoC4/UART_XB2.c ****         UART_XB2_rxBufferOverflow = 0u;
 753              		.loc 1 775 0
 754 002c 5A71     		strb	r2, [r3, #5]
 776:Generated_Source\PSoC4/UART_XB2.c **** 
 777:Generated_Source\PSoC4/UART_XB2.c ****         UART_XB2_EnableRxInt();
ARM GAS  C:\Users\Petro\AppData\Local\Temp\ccLVkPCw.s 			page 28


 755              		.loc 1 777 0
 756 002e 0120     		mov	r0, #1
 757 0030 FFF7FEFF 		bl	CyIntEnable
 758              	.LVL74:
 778:Generated_Source\PSoC4/UART_XB2.c **** 
 779:Generated_Source\PSoC4/UART_XB2.c ****     #endif /* (UART_XB2_RX_INTERRUPT_ENABLED) */
 780:Generated_Source\PSoC4/UART_XB2.c **** 
 781:Generated_Source\PSoC4/UART_XB2.c ****     }
 759              		.loc 1 781 0
 760              		@ sp needed
 761 0034 08BD     		pop	{r3, pc}
 762              	.L53:
 763 0036 C046     		.align	2
 764              	.L52:
 765 0038 91000F40 		.word	1074725009
 766 003c 00000000 		.word	.LANCHOR0
 767              		.cfi_endproc
 768              	.LFE14:
 769              		.size	UART_XB2_ClearRxBuffer, .-UART_XB2_ClearRxBuffer
 770              		.section	.text.UART_XB2_SetRxAddressMode,"ax",%progbits
 771              		.align	2
 772              		.global	UART_XB2_SetRxAddressMode
 773              		.code	16
 774              		.thumb_func
 775              		.type	UART_XB2_SetRxAddressMode, %function
 776              	UART_XB2_SetRxAddressMode:
 777              	.LFB15:
 782:Generated_Source\PSoC4/UART_XB2.c **** 
 783:Generated_Source\PSoC4/UART_XB2.c **** 
 784:Generated_Source\PSoC4/UART_XB2.c ****     /*******************************************************************************
 785:Generated_Source\PSoC4/UART_XB2.c ****     * Function Name: UART_XB2_SetRxAddressMode
 786:Generated_Source\PSoC4/UART_XB2.c ****     ********************************************************************************
 787:Generated_Source\PSoC4/UART_XB2.c ****     *
 788:Generated_Source\PSoC4/UART_XB2.c ****     * Summary:
 789:Generated_Source\PSoC4/UART_XB2.c ****     *  Sets the software controlled Addressing mode used by the RX portion of the
 790:Generated_Source\PSoC4/UART_XB2.c ****     *  UART.
 791:Generated_Source\PSoC4/UART_XB2.c ****     *
 792:Generated_Source\PSoC4/UART_XB2.c ****     * Parameters:
 793:Generated_Source\PSoC4/UART_XB2.c ****     *  addressMode: Enumerated value indicating the mode of RX addressing
 794:Generated_Source\PSoC4/UART_XB2.c ****     *  UART_XB2__B_UART__AM_SW_BYTE_BYTE -  Software Byte-by-Byte address
 795:Generated_Source\PSoC4/UART_XB2.c ****     *                                               detection
 796:Generated_Source\PSoC4/UART_XB2.c ****     *  UART_XB2__B_UART__AM_SW_DETECT_TO_BUFFER - Software Detect to Buffer
 797:Generated_Source\PSoC4/UART_XB2.c ****     *                                               address detection
 798:Generated_Source\PSoC4/UART_XB2.c ****     *  UART_XB2__B_UART__AM_HW_BYTE_BY_BYTE - Hardware Byte-by-Byte address
 799:Generated_Source\PSoC4/UART_XB2.c ****     *                                               detection
 800:Generated_Source\PSoC4/UART_XB2.c ****     *  UART_XB2__B_UART__AM_HW_DETECT_TO_BUFFER - Hardware Detect to Buffer
 801:Generated_Source\PSoC4/UART_XB2.c ****     *                                               address detection
 802:Generated_Source\PSoC4/UART_XB2.c ****     *  UART_XB2__B_UART__AM_NONE - No address detection
 803:Generated_Source\PSoC4/UART_XB2.c ****     *
 804:Generated_Source\PSoC4/UART_XB2.c ****     * Return:
 805:Generated_Source\PSoC4/UART_XB2.c ****     *  None.
 806:Generated_Source\PSoC4/UART_XB2.c ****     *
 807:Generated_Source\PSoC4/UART_XB2.c ****     * Global Variables:
 808:Generated_Source\PSoC4/UART_XB2.c ****     *  UART_XB2_rxAddressMode - the parameter stored in this variable for
 809:Generated_Source\PSoC4/UART_XB2.c ****     *   the farther usage in RX ISR.
 810:Generated_Source\PSoC4/UART_XB2.c ****     *  UART_XB2_rxAddressDetected - set to initial state (0).
 811:Generated_Source\PSoC4/UART_XB2.c ****     *
ARM GAS  C:\Users\Petro\AppData\Local\Temp\ccLVkPCw.s 			page 29


 812:Generated_Source\PSoC4/UART_XB2.c ****     *******************************************************************************/
 813:Generated_Source\PSoC4/UART_XB2.c ****     void UART_XB2_SetRxAddressMode(uint8 addressMode)
 814:Generated_Source\PSoC4/UART_XB2.c ****                                                         
 815:Generated_Source\PSoC4/UART_XB2.c ****     {
 778              		.loc 1 815 0
 779              		.cfi_startproc
 780              	.LVL75:
 816:Generated_Source\PSoC4/UART_XB2.c ****         #if(UART_XB2_RXHW_ADDRESS_ENABLED)
 817:Generated_Source\PSoC4/UART_XB2.c ****             #if(UART_XB2_CONTROL_REG_REMOVED)
 818:Generated_Source\PSoC4/UART_XB2.c ****                 if(0u != addressMode)
 819:Generated_Source\PSoC4/UART_XB2.c ****                 {
 820:Generated_Source\PSoC4/UART_XB2.c ****                     /* Suppress compiler warning */
 821:Generated_Source\PSoC4/UART_XB2.c ****                 }
 822:Generated_Source\PSoC4/UART_XB2.c ****             #else /* UART_XB2_CONTROL_REG_REMOVED */
 823:Generated_Source\PSoC4/UART_XB2.c ****                 uint8 tmpCtrl;
 824:Generated_Source\PSoC4/UART_XB2.c ****                 tmpCtrl = UART_XB2_CONTROL_REG & (uint8)~UART_XB2_CTRL_RXADDR_MODE_MASK;
 825:Generated_Source\PSoC4/UART_XB2.c ****                 tmpCtrl |= (uint8)(addressMode << UART_XB2_CTRL_RXADDR_MODE0_SHIFT);
 826:Generated_Source\PSoC4/UART_XB2.c ****                 UART_XB2_CONTROL_REG = tmpCtrl;
 827:Generated_Source\PSoC4/UART_XB2.c **** 
 828:Generated_Source\PSoC4/UART_XB2.c ****                 #if(UART_XB2_RX_INTERRUPT_ENABLED && \
 829:Generated_Source\PSoC4/UART_XB2.c ****                    (UART_XB2_RXBUFFERSIZE > UART_XB2_FIFO_LENGTH) )
 830:Generated_Source\PSoC4/UART_XB2.c ****                     UART_XB2_rxAddressMode = addressMode;
 831:Generated_Source\PSoC4/UART_XB2.c ****                     UART_XB2_rxAddressDetected = 0u;
 832:Generated_Source\PSoC4/UART_XB2.c ****                 #endif /* End UART_XB2_RXBUFFERSIZE > UART_XB2_FIFO_LENGTH*/
 833:Generated_Source\PSoC4/UART_XB2.c ****             #endif /* End UART_XB2_CONTROL_REG_REMOVED */
 834:Generated_Source\PSoC4/UART_XB2.c ****         #else /* UART_XB2_RXHW_ADDRESS_ENABLED */
 835:Generated_Source\PSoC4/UART_XB2.c ****             if(0u != addressMode)
 836:Generated_Source\PSoC4/UART_XB2.c ****             {
 837:Generated_Source\PSoC4/UART_XB2.c ****                 /* Suppress compiler warning */
 838:Generated_Source\PSoC4/UART_XB2.c ****             }
 839:Generated_Source\PSoC4/UART_XB2.c ****         #endif /* End UART_XB2_RXHW_ADDRESS_ENABLED */
 840:Generated_Source\PSoC4/UART_XB2.c ****     }
 781              		.loc 1 840 0
 782              		@ sp needed
 783 0000 7047     		bx	lr
 784              		.cfi_endproc
 785              	.LFE15:
 786              		.size	UART_XB2_SetRxAddressMode, .-UART_XB2_SetRxAddressMode
 787 0002 C046     		.section	.text.UART_XB2_SetRxAddress1,"ax",%progbits
 788              		.align	2
 789              		.global	UART_XB2_SetRxAddress1
 790              		.code	16
 791              		.thumb_func
 792              		.type	UART_XB2_SetRxAddress1, %function
 793              	UART_XB2_SetRxAddress1:
 794              	.LFB16:
 841:Generated_Source\PSoC4/UART_XB2.c **** 
 842:Generated_Source\PSoC4/UART_XB2.c **** 
 843:Generated_Source\PSoC4/UART_XB2.c ****     /*******************************************************************************
 844:Generated_Source\PSoC4/UART_XB2.c ****     * Function Name: UART_XB2_SetRxAddress1
 845:Generated_Source\PSoC4/UART_XB2.c ****     ********************************************************************************
 846:Generated_Source\PSoC4/UART_XB2.c ****     *
 847:Generated_Source\PSoC4/UART_XB2.c ****     * Summary:
 848:Generated_Source\PSoC4/UART_XB2.c ****     *  Sets the first of two hardware-detectable receiver addresses.
 849:Generated_Source\PSoC4/UART_XB2.c ****     *
 850:Generated_Source\PSoC4/UART_XB2.c ****     * Parameters:
 851:Generated_Source\PSoC4/UART_XB2.c ****     *  address: Address #1 for hardware address detection.
ARM GAS  C:\Users\Petro\AppData\Local\Temp\ccLVkPCw.s 			page 30


 852:Generated_Source\PSoC4/UART_XB2.c ****     *
 853:Generated_Source\PSoC4/UART_XB2.c ****     * Return:
 854:Generated_Source\PSoC4/UART_XB2.c ****     *  None.
 855:Generated_Source\PSoC4/UART_XB2.c ****     *
 856:Generated_Source\PSoC4/UART_XB2.c ****     *******************************************************************************/
 857:Generated_Source\PSoC4/UART_XB2.c ****     void UART_XB2_SetRxAddress1(uint8 address) 
 858:Generated_Source\PSoC4/UART_XB2.c ****     {
 795              		.loc 1 858 0
 796              		.cfi_startproc
 797              	.LVL76:
 859:Generated_Source\PSoC4/UART_XB2.c ****         UART_XB2_RXADDRESS1_REG = address;
 798              		.loc 1 859 0
 799 0000 014B     		ldr	r3, .L56
 800 0002 1870     		strb	r0, [r3]
 860:Generated_Source\PSoC4/UART_XB2.c ****     }
 801              		.loc 1 860 0
 802              		@ sp needed
 803 0004 7047     		bx	lr
 804              	.L57:
 805 0006 C046     		.align	2
 806              	.L56:
 807 0008 21000F40 		.word	1074724897
 808              		.cfi_endproc
 809              	.LFE16:
 810              		.size	UART_XB2_SetRxAddress1, .-UART_XB2_SetRxAddress1
 811              		.section	.text.UART_XB2_SetRxAddress2,"ax",%progbits
 812              		.align	2
 813              		.global	UART_XB2_SetRxAddress2
 814              		.code	16
 815              		.thumb_func
 816              		.type	UART_XB2_SetRxAddress2, %function
 817              	UART_XB2_SetRxAddress2:
 818              	.LFB17:
 861:Generated_Source\PSoC4/UART_XB2.c **** 
 862:Generated_Source\PSoC4/UART_XB2.c **** 
 863:Generated_Source\PSoC4/UART_XB2.c ****     /*******************************************************************************
 864:Generated_Source\PSoC4/UART_XB2.c ****     * Function Name: UART_XB2_SetRxAddress2
 865:Generated_Source\PSoC4/UART_XB2.c ****     ********************************************************************************
 866:Generated_Source\PSoC4/UART_XB2.c ****     *
 867:Generated_Source\PSoC4/UART_XB2.c ****     * Summary:
 868:Generated_Source\PSoC4/UART_XB2.c ****     *  Sets the second of two hardware-detectable receiver addresses.
 869:Generated_Source\PSoC4/UART_XB2.c ****     *
 870:Generated_Source\PSoC4/UART_XB2.c ****     * Parameters:
 871:Generated_Source\PSoC4/UART_XB2.c ****     *  address: Address #2 for hardware address detection.
 872:Generated_Source\PSoC4/UART_XB2.c ****     *
 873:Generated_Source\PSoC4/UART_XB2.c ****     * Return:
 874:Generated_Source\PSoC4/UART_XB2.c ****     *  None.
 875:Generated_Source\PSoC4/UART_XB2.c ****     *
 876:Generated_Source\PSoC4/UART_XB2.c ****     *******************************************************************************/
 877:Generated_Source\PSoC4/UART_XB2.c ****     void UART_XB2_SetRxAddress2(uint8 address) 
 878:Generated_Source\PSoC4/UART_XB2.c ****     {
 819              		.loc 1 878 0
 820              		.cfi_startproc
 821              	.LVL77:
 879:Generated_Source\PSoC4/UART_XB2.c ****         UART_XB2_RXADDRESS2_REG = address;
 822              		.loc 1 879 0
 823 0000 014B     		ldr	r3, .L59
ARM GAS  C:\Users\Petro\AppData\Local\Temp\ccLVkPCw.s 			page 31


 824 0002 1870     		strb	r0, [r3]
 880:Generated_Source\PSoC4/UART_XB2.c ****     }
 825              		.loc 1 880 0
 826              		@ sp needed
 827 0004 7047     		bx	lr
 828              	.L60:
 829 0006 C046     		.align	2
 830              	.L59:
 831 0008 31000F40 		.word	1074724913
 832              		.cfi_endproc
 833              	.LFE17:
 834              		.size	UART_XB2_SetRxAddress2, .-UART_XB2_SetRxAddress2
 835              		.section	.text.UART_XB2_SetTxInterruptMode,"ax",%progbits
 836              		.align	2
 837              		.global	UART_XB2_SetTxInterruptMode
 838              		.code	16
 839              		.thumb_func
 840              		.type	UART_XB2_SetTxInterruptMode, %function
 841              	UART_XB2_SetTxInterruptMode:
 842              	.LFB18:
 881:Generated_Source\PSoC4/UART_XB2.c **** 
 882:Generated_Source\PSoC4/UART_XB2.c **** #endif  /* UART_XB2_RX_ENABLED || UART_XB2_HD_ENABLED*/
 883:Generated_Source\PSoC4/UART_XB2.c **** 
 884:Generated_Source\PSoC4/UART_XB2.c **** 
 885:Generated_Source\PSoC4/UART_XB2.c **** #if( (UART_XB2_TX_ENABLED) || (UART_XB2_HD_ENABLED) )
 886:Generated_Source\PSoC4/UART_XB2.c ****     /*******************************************************************************
 887:Generated_Source\PSoC4/UART_XB2.c ****     * Function Name: UART_XB2_SetTxInterruptMode
 888:Generated_Source\PSoC4/UART_XB2.c ****     ********************************************************************************
 889:Generated_Source\PSoC4/UART_XB2.c ****     *
 890:Generated_Source\PSoC4/UART_XB2.c ****     * Summary:
 891:Generated_Source\PSoC4/UART_XB2.c ****     *  Configures the TX interrupt sources to be enabled, but does not enable the
 892:Generated_Source\PSoC4/UART_XB2.c ****     *  interrupt.
 893:Generated_Source\PSoC4/UART_XB2.c ****     *
 894:Generated_Source\PSoC4/UART_XB2.c ****     * Parameters:
 895:Generated_Source\PSoC4/UART_XB2.c ****     *  intSrc: Bit field containing the TX interrupt sources to enable
 896:Generated_Source\PSoC4/UART_XB2.c ****     *   UART_XB2_TX_STS_COMPLETE        Interrupt on TX byte complete
 897:Generated_Source\PSoC4/UART_XB2.c ****     *   UART_XB2_TX_STS_FIFO_EMPTY      Interrupt when TX FIFO is empty
 898:Generated_Source\PSoC4/UART_XB2.c ****     *   UART_XB2_TX_STS_FIFO_FULL       Interrupt when TX FIFO is full
 899:Generated_Source\PSoC4/UART_XB2.c ****     *   UART_XB2_TX_STS_FIFO_NOT_FULL   Interrupt when TX FIFO is not full
 900:Generated_Source\PSoC4/UART_XB2.c ****     *
 901:Generated_Source\PSoC4/UART_XB2.c ****     * Return:
 902:Generated_Source\PSoC4/UART_XB2.c ****     *  None.
 903:Generated_Source\PSoC4/UART_XB2.c ****     *
 904:Generated_Source\PSoC4/UART_XB2.c ****     * Theory:
 905:Generated_Source\PSoC4/UART_XB2.c ****     *  Enables the output of specific status bits to the interrupt controller
 906:Generated_Source\PSoC4/UART_XB2.c ****     *
 907:Generated_Source\PSoC4/UART_XB2.c ****     *******************************************************************************/
 908:Generated_Source\PSoC4/UART_XB2.c ****     void UART_XB2_SetTxInterruptMode(uint8 intSrc) 
 909:Generated_Source\PSoC4/UART_XB2.c ****     {
 843              		.loc 1 909 0
 844              		.cfi_startproc
 845              	.LVL78:
 910:Generated_Source\PSoC4/UART_XB2.c ****         UART_XB2_TXSTATUS_MASK_REG = intSrc;
 846              		.loc 1 910 0
 847 0000 014B     		ldr	r3, .L62
 848 0002 1870     		strb	r0, [r3]
 911:Generated_Source\PSoC4/UART_XB2.c ****     }
ARM GAS  C:\Users\Petro\AppData\Local\Temp\ccLVkPCw.s 			page 32


 849              		.loc 1 911 0
 850              		@ sp needed
 851 0004 7047     		bx	lr
 852              	.L63:
 853 0006 C046     		.align	2
 854              	.L62:
 855 0008 83000F40 		.word	1074724995
 856              		.cfi_endproc
 857              	.LFE18:
 858              		.size	UART_XB2_SetTxInterruptMode, .-UART_XB2_SetTxInterruptMode
 859              		.section	.text.UART_XB2_WriteTxData,"ax",%progbits
 860              		.align	2
 861              		.global	UART_XB2_WriteTxData
 862              		.code	16
 863              		.thumb_func
 864              		.type	UART_XB2_WriteTxData, %function
 865              	UART_XB2_WriteTxData:
 866              	.LFB19:
 912:Generated_Source\PSoC4/UART_XB2.c **** 
 913:Generated_Source\PSoC4/UART_XB2.c **** 
 914:Generated_Source\PSoC4/UART_XB2.c ****     /*******************************************************************************
 915:Generated_Source\PSoC4/UART_XB2.c ****     * Function Name: UART_XB2_WriteTxData
 916:Generated_Source\PSoC4/UART_XB2.c ****     ********************************************************************************
 917:Generated_Source\PSoC4/UART_XB2.c ****     *
 918:Generated_Source\PSoC4/UART_XB2.c ****     * Summary:
 919:Generated_Source\PSoC4/UART_XB2.c ****     *  Places a byte of data into the transmit buffer to be sent when the bus is
 920:Generated_Source\PSoC4/UART_XB2.c ****     *  available without checking the TX status register. You must check status
 921:Generated_Source\PSoC4/UART_XB2.c ****     *  separately.
 922:Generated_Source\PSoC4/UART_XB2.c ****     *
 923:Generated_Source\PSoC4/UART_XB2.c ****     * Parameters:
 924:Generated_Source\PSoC4/UART_XB2.c ****     *  txDataByte: data byte
 925:Generated_Source\PSoC4/UART_XB2.c ****     *
 926:Generated_Source\PSoC4/UART_XB2.c ****     * Return:
 927:Generated_Source\PSoC4/UART_XB2.c ****     * None.
 928:Generated_Source\PSoC4/UART_XB2.c ****     *
 929:Generated_Source\PSoC4/UART_XB2.c ****     * Global Variables:
 930:Generated_Source\PSoC4/UART_XB2.c ****     *  UART_XB2_txBuffer - RAM buffer pointer for save data for transmission
 931:Generated_Source\PSoC4/UART_XB2.c ****     *  UART_XB2_txBufferWrite - cyclic index for write to txBuffer,
 932:Generated_Source\PSoC4/UART_XB2.c ****     *    incremented after each byte saved to buffer.
 933:Generated_Source\PSoC4/UART_XB2.c ****     *  UART_XB2_txBufferRead - cyclic index for read from txBuffer,
 934:Generated_Source\PSoC4/UART_XB2.c ****     *    checked to identify the condition to write to FIFO directly or to TX buffer
 935:Generated_Source\PSoC4/UART_XB2.c ****     *  UART_XB2_initVar - checked to identify that the component has been
 936:Generated_Source\PSoC4/UART_XB2.c ****     *    initialized.
 937:Generated_Source\PSoC4/UART_XB2.c ****     *
 938:Generated_Source\PSoC4/UART_XB2.c ****     * Reentrant:
 939:Generated_Source\PSoC4/UART_XB2.c ****     *  No.
 940:Generated_Source\PSoC4/UART_XB2.c ****     *
 941:Generated_Source\PSoC4/UART_XB2.c ****     *******************************************************************************/
 942:Generated_Source\PSoC4/UART_XB2.c ****     void UART_XB2_WriteTxData(uint8 txDataByte) 
 943:Generated_Source\PSoC4/UART_XB2.c ****     {
 867              		.loc 1 943 0
 868              		.cfi_startproc
 869              	.LVL79:
 870 0000 10B5     		push	{r4, lr}
 871              		.cfi_def_cfa_offset 8
 872              		.cfi_offset 4, -8
 873              		.cfi_offset 14, -4
ARM GAS  C:\Users\Petro\AppData\Local\Temp\ccLVkPCw.s 			page 33


 874 0002 041C     		mov	r4, r0
 944:Generated_Source\PSoC4/UART_XB2.c ****         /* If not Initialized then skip this function*/
 945:Generated_Source\PSoC4/UART_XB2.c ****         if(UART_XB2_initVar != 0u)
 875              		.loc 1 945 0
 876 0004 114B     		ldr	r3, .L69
 877 0006 5B78     		ldrb	r3, [r3, #1]
 878 0008 002B     		cmp	r3, #0
 879 000a 1DD0     		beq	.L64
 946:Generated_Source\PSoC4/UART_XB2.c ****         {
 947:Generated_Source\PSoC4/UART_XB2.c ****         #if (UART_XB2_TX_INTERRUPT_ENABLED)
 948:Generated_Source\PSoC4/UART_XB2.c **** 
 949:Generated_Source\PSoC4/UART_XB2.c ****             /* Protect variables that could change on interrupt. */
 950:Generated_Source\PSoC4/UART_XB2.c ****             UART_XB2_DisableTxInt();
 880              		.loc 1 950 0
 881 000c 0220     		mov	r0, #2
 882              	.LVL80:
 883 000e FFF7FEFF 		bl	CyIntDisable
 884              	.LVL81:
 951:Generated_Source\PSoC4/UART_XB2.c **** 
 952:Generated_Source\PSoC4/UART_XB2.c ****             if( (UART_XB2_txBufferRead == UART_XB2_txBufferWrite) &&
 885              		.loc 1 952 0
 886 0012 0E4A     		ldr	r2, .L69
 887 0014 9379     		ldrb	r3, [r2, #6]
 888 0016 DBB2     		uxtb	r3, r3
 889 0018 D279     		ldrb	r2, [r2, #7]
 890 001a 9342     		cmp	r3, r2
 891 001c 06D1     		bne	.L66
 953:Generated_Source\PSoC4/UART_XB2.c ****                 ((UART_XB2_TXSTATUS_REG & UART_XB2_TX_STS_FIFO_FULL) == 0u) )
 892              		.loc 1 953 0 discriminator 1
 893 001e 0C4B     		ldr	r3, .L69+4
 894 0020 1B78     		ldrb	r3, [r3]
 952:Generated_Source\PSoC4/UART_XB2.c ****                 ((UART_XB2_TXSTATUS_REG & UART_XB2_TX_STS_FIFO_FULL) == 0u) )
 895              		.loc 1 952 0 discriminator 1
 896 0022 5B07     		lsl	r3, r3, #29
 897 0024 02D4     		bmi	.L66
 954:Generated_Source\PSoC4/UART_XB2.c ****             {
 955:Generated_Source\PSoC4/UART_XB2.c ****                 /* Add directly to the FIFO. */
 956:Generated_Source\PSoC4/UART_XB2.c ****                 UART_XB2_TXDATA_REG = txDataByte;
 898              		.loc 1 956 0
 899 0026 0B4B     		ldr	r3, .L69+8
 900 0028 1C70     		strb	r4, [r3]
 901 002a 0AE0     		b	.L67
 902              	.L66:
 957:Generated_Source\PSoC4/UART_XB2.c ****             }
 958:Generated_Source\PSoC4/UART_XB2.c ****             else
 959:Generated_Source\PSoC4/UART_XB2.c ****             {
 960:Generated_Source\PSoC4/UART_XB2.c ****                 if(UART_XB2_txBufferWrite >= UART_XB2_TX_BUFFER_SIZE)
 903              		.loc 1 960 0
 904 002c 632A     		cmp	r2, #99
 905 002e 02D9     		bls	.L68
 961:Generated_Source\PSoC4/UART_XB2.c ****                 {
 962:Generated_Source\PSoC4/UART_XB2.c ****                     UART_XB2_txBufferWrite = 0u;
 906              		.loc 1 962 0
 907 0030 0022     		mov	r2, #0
 908 0032 064B     		ldr	r3, .L69
 909 0034 DA71     		strb	r2, [r3, #7]
 910              	.L68:
ARM GAS  C:\Users\Petro\AppData\Local\Temp\ccLVkPCw.s 			page 34


 963:Generated_Source\PSoC4/UART_XB2.c ****                 }
 964:Generated_Source\PSoC4/UART_XB2.c **** 
 965:Generated_Source\PSoC4/UART_XB2.c ****                 UART_XB2_txBuffer[UART_XB2_txBufferWrite] = txDataByte;
 911              		.loc 1 965 0
 912 0036 054A     		ldr	r2, .L69
 913 0038 D379     		ldrb	r3, [r2, #7]
 914 003a 0749     		ldr	r1, .L69+12
 915 003c CC54     		strb	r4, [r1, r3]
 966:Generated_Source\PSoC4/UART_XB2.c **** 
 967:Generated_Source\PSoC4/UART_XB2.c ****                 /* Add to the software buffer. */
 968:Generated_Source\PSoC4/UART_XB2.c ****                 UART_XB2_txBufferWrite++;
 916              		.loc 1 968 0
 917 003e 0133     		add	r3, r3, #1
 918 0040 D371     		strb	r3, [r2, #7]
 919              	.L67:
 969:Generated_Source\PSoC4/UART_XB2.c ****             }
 970:Generated_Source\PSoC4/UART_XB2.c **** 
 971:Generated_Source\PSoC4/UART_XB2.c ****             UART_XB2_EnableTxInt();
 920              		.loc 1 971 0
 921 0042 0220     		mov	r0, #2
 922 0044 FFF7FEFF 		bl	CyIntEnable
 923              	.LVL82:
 924              	.L64:
 972:Generated_Source\PSoC4/UART_XB2.c **** 
 973:Generated_Source\PSoC4/UART_XB2.c ****         #else
 974:Generated_Source\PSoC4/UART_XB2.c **** 
 975:Generated_Source\PSoC4/UART_XB2.c ****             /* Add directly to the FIFO. */
 976:Generated_Source\PSoC4/UART_XB2.c ****             UART_XB2_TXDATA_REG = txDataByte;
 977:Generated_Source\PSoC4/UART_XB2.c **** 
 978:Generated_Source\PSoC4/UART_XB2.c ****         #endif /*(UART_XB2_TX_INTERRUPT_ENABLED) */
 979:Generated_Source\PSoC4/UART_XB2.c ****         }
 980:Generated_Source\PSoC4/UART_XB2.c ****     }
 925              		.loc 1 980 0
 926              		@ sp needed
 927 0048 10BD     		pop	{r4, pc}
 928              	.L70:
 929 004a C046     		.align	2
 930              	.L69:
 931 004c 00000000 		.word	.LANCHOR0
 932 0050 63000F40 		.word	1074724963
 933 0054 43000F40 		.word	1074724931
 934 0058 00000000 		.word	UART_XB2_txBuffer
 935              		.cfi_endproc
 936              	.LFE19:
 937              		.size	UART_XB2_WriteTxData, .-UART_XB2_WriteTxData
 938              		.section	.text.UART_XB2_ReadTxStatus,"ax",%progbits
 939              		.align	2
 940              		.global	UART_XB2_ReadTxStatus
 941              		.code	16
 942              		.thumb_func
 943              		.type	UART_XB2_ReadTxStatus, %function
 944              	UART_XB2_ReadTxStatus:
 945              	.LFB20:
 981:Generated_Source\PSoC4/UART_XB2.c **** 
 982:Generated_Source\PSoC4/UART_XB2.c **** 
 983:Generated_Source\PSoC4/UART_XB2.c ****     /*******************************************************************************
 984:Generated_Source\PSoC4/UART_XB2.c ****     * Function Name: UART_XB2_ReadTxStatus
ARM GAS  C:\Users\Petro\AppData\Local\Temp\ccLVkPCw.s 			page 35


 985:Generated_Source\PSoC4/UART_XB2.c ****     ********************************************************************************
 986:Generated_Source\PSoC4/UART_XB2.c ****     *
 987:Generated_Source\PSoC4/UART_XB2.c ****     * Summary:
 988:Generated_Source\PSoC4/UART_XB2.c ****     *  Reads the status register for the TX portion of the UART.
 989:Generated_Source\PSoC4/UART_XB2.c ****     *
 990:Generated_Source\PSoC4/UART_XB2.c ****     * Parameters:
 991:Generated_Source\PSoC4/UART_XB2.c ****     *  None.
 992:Generated_Source\PSoC4/UART_XB2.c ****     *
 993:Generated_Source\PSoC4/UART_XB2.c ****     * Return:
 994:Generated_Source\PSoC4/UART_XB2.c ****     *  Contents of the status register
 995:Generated_Source\PSoC4/UART_XB2.c ****     *
 996:Generated_Source\PSoC4/UART_XB2.c ****     * Theory:
 997:Generated_Source\PSoC4/UART_XB2.c ****     *  This function reads the TX status register, which is cleared on read.
 998:Generated_Source\PSoC4/UART_XB2.c ****     *  It is up to the user to handle all bits in this return value accordingly,
 999:Generated_Source\PSoC4/UART_XB2.c ****     *  even if the bit was not enabled as an interrupt source the event happened
1000:Generated_Source\PSoC4/UART_XB2.c ****     *  and must be handled accordingly.
1001:Generated_Source\PSoC4/UART_XB2.c ****     *
1002:Generated_Source\PSoC4/UART_XB2.c ****     *******************************************************************************/
1003:Generated_Source\PSoC4/UART_XB2.c ****     uint8 UART_XB2_ReadTxStatus(void) 
1004:Generated_Source\PSoC4/UART_XB2.c ****     {
 946              		.loc 1 1004 0
 947              		.cfi_startproc
1005:Generated_Source\PSoC4/UART_XB2.c ****         return(UART_XB2_TXSTATUS_REG);
 948              		.loc 1 1005 0
 949 0000 014B     		ldr	r3, .L72
 950 0002 1878     		ldrb	r0, [r3]
 951 0004 C0B2     		uxtb	r0, r0
1006:Generated_Source\PSoC4/UART_XB2.c ****     }
 952              		.loc 1 1006 0
 953              		@ sp needed
 954 0006 7047     		bx	lr
 955              	.L73:
 956              		.align	2
 957              	.L72:
 958 0008 63000F40 		.word	1074724963
 959              		.cfi_endproc
 960              	.LFE20:
 961              		.size	UART_XB2_ReadTxStatus, .-UART_XB2_ReadTxStatus
 962              		.section	.text.UART_XB2_PutChar,"ax",%progbits
 963              		.align	2
 964              		.global	UART_XB2_PutChar
 965              		.code	16
 966              		.thumb_func
 967              		.type	UART_XB2_PutChar, %function
 968              	UART_XB2_PutChar:
 969              	.LFB21:
1007:Generated_Source\PSoC4/UART_XB2.c **** 
1008:Generated_Source\PSoC4/UART_XB2.c **** 
1009:Generated_Source\PSoC4/UART_XB2.c ****     /*******************************************************************************
1010:Generated_Source\PSoC4/UART_XB2.c ****     * Function Name: UART_XB2_PutChar
1011:Generated_Source\PSoC4/UART_XB2.c ****     ********************************************************************************
1012:Generated_Source\PSoC4/UART_XB2.c ****     *
1013:Generated_Source\PSoC4/UART_XB2.c ****     * Summary:
1014:Generated_Source\PSoC4/UART_XB2.c ****     *  Puts a byte of data into the transmit buffer to be sent when the bus is
1015:Generated_Source\PSoC4/UART_XB2.c ****     *  available. This is a blocking API that waits until the TX buffer has room to
1016:Generated_Source\PSoC4/UART_XB2.c ****     *  hold the data.
1017:Generated_Source\PSoC4/UART_XB2.c ****     *
ARM GAS  C:\Users\Petro\AppData\Local\Temp\ccLVkPCw.s 			page 36


1018:Generated_Source\PSoC4/UART_XB2.c ****     * Parameters:
1019:Generated_Source\PSoC4/UART_XB2.c ****     *  txDataByte: Byte containing the data to transmit
1020:Generated_Source\PSoC4/UART_XB2.c ****     *
1021:Generated_Source\PSoC4/UART_XB2.c ****     * Return:
1022:Generated_Source\PSoC4/UART_XB2.c ****     *  None.
1023:Generated_Source\PSoC4/UART_XB2.c ****     *
1024:Generated_Source\PSoC4/UART_XB2.c ****     * Global Variables:
1025:Generated_Source\PSoC4/UART_XB2.c ****     *  UART_XB2_txBuffer - RAM buffer pointer for save data for transmission
1026:Generated_Source\PSoC4/UART_XB2.c ****     *  UART_XB2_txBufferWrite - cyclic index for write to txBuffer,
1027:Generated_Source\PSoC4/UART_XB2.c ****     *     checked to identify free space in txBuffer and incremented after each byte
1028:Generated_Source\PSoC4/UART_XB2.c ****     *     saved to buffer.
1029:Generated_Source\PSoC4/UART_XB2.c ****     *  UART_XB2_txBufferRead - cyclic index for read from txBuffer,
1030:Generated_Source\PSoC4/UART_XB2.c ****     *     checked to identify free space in txBuffer.
1031:Generated_Source\PSoC4/UART_XB2.c ****     *  UART_XB2_initVar - checked to identify that the component has been
1032:Generated_Source\PSoC4/UART_XB2.c ****     *     initialized.
1033:Generated_Source\PSoC4/UART_XB2.c ****     *
1034:Generated_Source\PSoC4/UART_XB2.c ****     * Reentrant:
1035:Generated_Source\PSoC4/UART_XB2.c ****     *  No.
1036:Generated_Source\PSoC4/UART_XB2.c ****     *
1037:Generated_Source\PSoC4/UART_XB2.c ****     * Theory:
1038:Generated_Source\PSoC4/UART_XB2.c ****     *  Allows the user to transmit any byte of data in a single transfer
1039:Generated_Source\PSoC4/UART_XB2.c ****     *
1040:Generated_Source\PSoC4/UART_XB2.c ****     *******************************************************************************/
1041:Generated_Source\PSoC4/UART_XB2.c ****     void UART_XB2_PutChar(uint8 txDataByte) 
1042:Generated_Source\PSoC4/UART_XB2.c ****     {
 970              		.loc 1 1042 0
 971              		.cfi_startproc
 972              	.LVL83:
 973 0000 10B5     		push	{r4, lr}
 974              		.cfi_def_cfa_offset 8
 975              		.cfi_offset 4, -8
 976              		.cfi_offset 14, -4
 977              	.L77:
1043:Generated_Source\PSoC4/UART_XB2.c ****     #if (UART_XB2_TX_INTERRUPT_ENABLED)
1044:Generated_Source\PSoC4/UART_XB2.c ****         /* The temporary output pointer is used since it takes two instructions
1045:Generated_Source\PSoC4/UART_XB2.c ****         *  to increment with a wrap, and we can't risk doing that with the real
1046:Generated_Source\PSoC4/UART_XB2.c ****         *  pointer and getting an interrupt in between instructions.
1047:Generated_Source\PSoC4/UART_XB2.c ****         */
1048:Generated_Source\PSoC4/UART_XB2.c ****         uint8 locTxBufferWrite;
1049:Generated_Source\PSoC4/UART_XB2.c ****         uint8 locTxBufferRead;
1050:Generated_Source\PSoC4/UART_XB2.c **** 
1051:Generated_Source\PSoC4/UART_XB2.c ****         do
1052:Generated_Source\PSoC4/UART_XB2.c ****         { /* Block if software buffer is full, so we don't overwrite. */
1053:Generated_Source\PSoC4/UART_XB2.c **** 
1054:Generated_Source\PSoC4/UART_XB2.c ****         #if ((UART_XB2_TX_BUFFER_SIZE > UART_XB2_MAX_BYTE_VALUE) && (CY_PSOC3))
1055:Generated_Source\PSoC4/UART_XB2.c ****             /* Disable TX interrupt to protect variables from modification */
1056:Generated_Source\PSoC4/UART_XB2.c ****             UART_XB2_DisableTxInt();
1057:Generated_Source\PSoC4/UART_XB2.c ****         #endif /* (UART_XB2_TX_BUFFER_SIZE > UART_XB2_MAX_BYTE_VALUE) && (CY_PSOC3) */
1058:Generated_Source\PSoC4/UART_XB2.c **** 
1059:Generated_Source\PSoC4/UART_XB2.c ****             locTxBufferWrite = UART_XB2_txBufferWrite;
 978              		.loc 1 1059 0
 979 0002 164B     		ldr	r3, .L82
 980 0004 D979     		ldrb	r1, [r3, #7]
 981              	.LVL84:
1060:Generated_Source\PSoC4/UART_XB2.c ****             locTxBufferRead  = UART_XB2_txBufferRead;
 982              		.loc 1 1060 0
 983 0006 9A79     		ldrb	r2, [r3, #6]
ARM GAS  C:\Users\Petro\AppData\Local\Temp\ccLVkPCw.s 			page 37


 984 0008 D2B2     		uxtb	r2, r2
 985              	.LVL85:
1061:Generated_Source\PSoC4/UART_XB2.c **** 
1062:Generated_Source\PSoC4/UART_XB2.c ****         #if ((UART_XB2_TX_BUFFER_SIZE > UART_XB2_MAX_BYTE_VALUE) && (CY_PSOC3))
1063:Generated_Source\PSoC4/UART_XB2.c ****             /* Enable interrupt to continue transmission */
1064:Generated_Source\PSoC4/UART_XB2.c ****             UART_XB2_EnableTxInt();
1065:Generated_Source\PSoC4/UART_XB2.c ****         #endif /* (UART_XB2_TX_BUFFER_SIZE > UART_XB2_MAX_BYTE_VALUE) && (CY_PSOC3) */
1066:Generated_Source\PSoC4/UART_XB2.c ****         }
1067:Generated_Source\PSoC4/UART_XB2.c ****         while( (locTxBufferWrite < locTxBufferRead) ? (locTxBufferWrite == (locTxBufferRead - 1u)) 
 986              		.loc 1 1067 0
 987 000a 9142     		cmp	r1, r2
 988 000c 05D2     		bcs	.L75
 989              		.loc 1 1067 0 is_stmt 0 discriminator 1
 990 000e 531E     		sub	r3, r2, #1
 991 0010 CB1A     		sub	r3, r1, r3
 992 0012 5C42     		neg	r4, r3
 993 0014 6341     		adc	r3, r3, r4
 994 0016 DBB2     		uxtb	r3, r3
 995 0018 04E0     		b	.L76
 996              	.L75:
1068:Generated_Source\PSoC4/UART_XB2.c ****                                 ((locTxBufferWrite - locTxBufferRead) ==
 997              		.loc 1 1068 0 is_stmt 1 discriminator 2
 998 001a 8B1A     		sub	r3, r1, r2
1067:Generated_Source\PSoC4/UART_XB2.c ****                                 ((locTxBufferWrite - locTxBufferRead) ==
 999              		.loc 1 1067 0 discriminator 2
 1000 001c 633B     		sub	r3, r3, #99
 1001 001e 5C42     		neg	r4, r3
 1002 0020 6341     		adc	r3, r3, r4
 1003 0022 DBB2     		uxtb	r3, r3
 1004              	.L76:
1069:Generated_Source\PSoC4/UART_XB2.c ****                                 (uint8)(UART_XB2_TX_BUFFER_SIZE - 1u)) );
 1005              		.loc 1 1069 0
 1006 0024 002B     		cmp	r3, #0
 1007 0026 ECD1     		bne	.L77
1070:Generated_Source\PSoC4/UART_XB2.c **** 
1071:Generated_Source\PSoC4/UART_XB2.c ****         if( (locTxBufferRead == locTxBufferWrite) &&
 1008              		.loc 1 1071 0
 1009 0028 8A42     		cmp	r2, r1
 1010 002a 06D1     		bne	.L78
1072:Generated_Source\PSoC4/UART_XB2.c ****             ((UART_XB2_TXSTATUS_REG & UART_XB2_TX_STS_FIFO_FULL) == 0u) )
 1011              		.loc 1 1072 0 discriminator 1
 1012 002c 0C4B     		ldr	r3, .L82+4
 1013 002e 1B78     		ldrb	r3, [r3]
1071:Generated_Source\PSoC4/UART_XB2.c ****             ((UART_XB2_TXSTATUS_REG & UART_XB2_TX_STS_FIFO_FULL) == 0u) )
 1014              		.loc 1 1071 0 discriminator 1
 1015 0030 5B07     		lsl	r3, r3, #29
 1016 0032 02D4     		bmi	.L78
1073:Generated_Source\PSoC4/UART_XB2.c ****         {
1074:Generated_Source\PSoC4/UART_XB2.c ****             /* Add directly to the FIFO */
1075:Generated_Source\PSoC4/UART_XB2.c ****             UART_XB2_TXDATA_REG = txDataByte;
 1017              		.loc 1 1075 0
 1018 0034 0B4B     		ldr	r3, .L82+8
 1019 0036 1870     		strb	r0, [r3]
 1020 0038 0EE0     		b	.L74
 1021              	.L78:
1076:Generated_Source\PSoC4/UART_XB2.c ****         }
1077:Generated_Source\PSoC4/UART_XB2.c ****         else
ARM GAS  C:\Users\Petro\AppData\Local\Temp\ccLVkPCw.s 			page 38


1078:Generated_Source\PSoC4/UART_XB2.c ****         {
1079:Generated_Source\PSoC4/UART_XB2.c ****             if(locTxBufferWrite >= UART_XB2_TX_BUFFER_SIZE)
 1022              		.loc 1 1079 0
 1023 003a 6329     		cmp	r1, #99
 1024 003c 00D9     		bls	.L80
1080:Generated_Source\PSoC4/UART_XB2.c ****             {
1081:Generated_Source\PSoC4/UART_XB2.c ****                 locTxBufferWrite = 0u;
 1025              		.loc 1 1081 0
 1026 003e 0021     		mov	r1, #0
 1027              	.LVL86:
 1028              	.L80:
1082:Generated_Source\PSoC4/UART_XB2.c ****             }
1083:Generated_Source\PSoC4/UART_XB2.c ****             /* Add to the software buffer. */
1084:Generated_Source\PSoC4/UART_XB2.c ****             UART_XB2_txBuffer[locTxBufferWrite] = txDataByte;
 1029              		.loc 1 1084 0
 1030 0040 094B     		ldr	r3, .L82+12
 1031 0042 5854     		strb	r0, [r3, r1]
1085:Generated_Source\PSoC4/UART_XB2.c ****             locTxBufferWrite++;
 1032              		.loc 1 1085 0
 1033 0044 0131     		add	r1, r1, #1
 1034              	.LVL87:
1086:Generated_Source\PSoC4/UART_XB2.c **** 
1087:Generated_Source\PSoC4/UART_XB2.c ****             /* Finally, update the real output pointer */
1088:Generated_Source\PSoC4/UART_XB2.c ****         #if ((UART_XB2_TX_BUFFER_SIZE > UART_XB2_MAX_BYTE_VALUE) && (CY_PSOC3))
1089:Generated_Source\PSoC4/UART_XB2.c ****             UART_XB2_DisableTxInt();
1090:Generated_Source\PSoC4/UART_XB2.c ****         #endif /* (UART_XB2_TX_BUFFER_SIZE > UART_XB2_MAX_BYTE_VALUE) && (CY_PSOC3) */
1091:Generated_Source\PSoC4/UART_XB2.c **** 
1092:Generated_Source\PSoC4/UART_XB2.c ****             UART_XB2_txBufferWrite = locTxBufferWrite;
 1035              		.loc 1 1092 0
 1036 0046 054B     		ldr	r3, .L82
 1037 0048 D971     		strb	r1, [r3, #7]
1093:Generated_Source\PSoC4/UART_XB2.c **** 
1094:Generated_Source\PSoC4/UART_XB2.c ****         #if ((UART_XB2_TX_BUFFER_SIZE > UART_XB2_MAX_BYTE_VALUE) && (CY_PSOC3))
1095:Generated_Source\PSoC4/UART_XB2.c ****             UART_XB2_EnableTxInt();
1096:Generated_Source\PSoC4/UART_XB2.c ****         #endif /* (UART_XB2_TX_BUFFER_SIZE > UART_XB2_MAX_BYTE_VALUE) && (CY_PSOC3) */
1097:Generated_Source\PSoC4/UART_XB2.c **** 
1098:Generated_Source\PSoC4/UART_XB2.c ****             if(0u != (UART_XB2_TXSTATUS_REG & UART_XB2_TX_STS_FIFO_EMPTY))
 1038              		.loc 1 1098 0
 1039 004a 054B     		ldr	r3, .L82+4
 1040 004c 1B78     		ldrb	r3, [r3]
 1041 004e 9B07     		lsl	r3, r3, #30
 1042 0050 02D5     		bpl	.L74
1099:Generated_Source\PSoC4/UART_XB2.c ****             {
1100:Generated_Source\PSoC4/UART_XB2.c ****                 /* Trigger TX interrupt to send software buffer */
1101:Generated_Source\PSoC4/UART_XB2.c ****                 UART_XB2_SetPendingTxInt();
 1043              		.loc 1 1101 0
 1044 0052 0220     		mov	r0, #2
 1045              	.LVL88:
 1046 0054 FFF7FEFF 		bl	CyIntSetPending
 1047              	.LVL89:
 1048              	.L74:
1102:Generated_Source\PSoC4/UART_XB2.c ****             }
1103:Generated_Source\PSoC4/UART_XB2.c ****         }
1104:Generated_Source\PSoC4/UART_XB2.c **** 
1105:Generated_Source\PSoC4/UART_XB2.c ****     #else
1106:Generated_Source\PSoC4/UART_XB2.c **** 
1107:Generated_Source\PSoC4/UART_XB2.c ****         while((UART_XB2_TXSTATUS_REG & UART_XB2_TX_STS_FIFO_FULL) != 0u)
ARM GAS  C:\Users\Petro\AppData\Local\Temp\ccLVkPCw.s 			page 39


1108:Generated_Source\PSoC4/UART_XB2.c ****         {
1109:Generated_Source\PSoC4/UART_XB2.c ****             /* Wait for room in the FIFO */
1110:Generated_Source\PSoC4/UART_XB2.c ****         }
1111:Generated_Source\PSoC4/UART_XB2.c **** 
1112:Generated_Source\PSoC4/UART_XB2.c ****         /* Add directly to the FIFO */
1113:Generated_Source\PSoC4/UART_XB2.c ****         UART_XB2_TXDATA_REG = txDataByte;
1114:Generated_Source\PSoC4/UART_XB2.c **** 
1115:Generated_Source\PSoC4/UART_XB2.c ****     #endif /* UART_XB2_TX_INTERRUPT_ENABLED */
1116:Generated_Source\PSoC4/UART_XB2.c ****     }
 1049              		.loc 1 1116 0
 1050              		@ sp needed
 1051 0058 10BD     		pop	{r4, pc}
 1052              	.L83:
 1053 005a C046     		.align	2
 1054              	.L82:
 1055 005c 00000000 		.word	.LANCHOR0
 1056 0060 63000F40 		.word	1074724963
 1057 0064 43000F40 		.word	1074724931
 1058 0068 00000000 		.word	UART_XB2_txBuffer
 1059              		.cfi_endproc
 1060              	.LFE21:
 1061              		.size	UART_XB2_PutChar, .-UART_XB2_PutChar
 1062              		.section	.text.UART_XB2_PutString,"ax",%progbits
 1063              		.align	2
 1064              		.global	UART_XB2_PutString
 1065              		.code	16
 1066              		.thumb_func
 1067              		.type	UART_XB2_PutString, %function
 1068              	UART_XB2_PutString:
 1069              	.LFB22:
1117:Generated_Source\PSoC4/UART_XB2.c **** 
1118:Generated_Source\PSoC4/UART_XB2.c **** 
1119:Generated_Source\PSoC4/UART_XB2.c ****     /*******************************************************************************
1120:Generated_Source\PSoC4/UART_XB2.c ****     * Function Name: UART_XB2_PutString
1121:Generated_Source\PSoC4/UART_XB2.c ****     ********************************************************************************
1122:Generated_Source\PSoC4/UART_XB2.c ****     *
1123:Generated_Source\PSoC4/UART_XB2.c ****     * Summary:
1124:Generated_Source\PSoC4/UART_XB2.c ****     *  Sends a NULL terminated string to the TX buffer for transmission.
1125:Generated_Source\PSoC4/UART_XB2.c ****     *
1126:Generated_Source\PSoC4/UART_XB2.c ****     * Parameters:
1127:Generated_Source\PSoC4/UART_XB2.c ****     *  string[]: Pointer to the null terminated string array residing in RAM or ROM
1128:Generated_Source\PSoC4/UART_XB2.c ****     *
1129:Generated_Source\PSoC4/UART_XB2.c ****     * Return:
1130:Generated_Source\PSoC4/UART_XB2.c ****     *  None.
1131:Generated_Source\PSoC4/UART_XB2.c ****     *
1132:Generated_Source\PSoC4/UART_XB2.c ****     * Global Variables:
1133:Generated_Source\PSoC4/UART_XB2.c ****     *  UART_XB2_initVar - checked to identify that the component has been
1134:Generated_Source\PSoC4/UART_XB2.c ****     *     initialized.
1135:Generated_Source\PSoC4/UART_XB2.c ****     *
1136:Generated_Source\PSoC4/UART_XB2.c ****     * Reentrant:
1137:Generated_Source\PSoC4/UART_XB2.c ****     *  No.
1138:Generated_Source\PSoC4/UART_XB2.c ****     *
1139:Generated_Source\PSoC4/UART_XB2.c ****     * Theory:
1140:Generated_Source\PSoC4/UART_XB2.c ****     *  If there is not enough memory in the TX buffer for the entire string, this
1141:Generated_Source\PSoC4/UART_XB2.c ****     *  function blocks until the last character of the string is loaded into the
1142:Generated_Source\PSoC4/UART_XB2.c ****     *  TX buffer.
1143:Generated_Source\PSoC4/UART_XB2.c ****     *
ARM GAS  C:\Users\Petro\AppData\Local\Temp\ccLVkPCw.s 			page 40


1144:Generated_Source\PSoC4/UART_XB2.c ****     *******************************************************************************/
1145:Generated_Source\PSoC4/UART_XB2.c ****     void UART_XB2_PutString(const char8 string[]) 
1146:Generated_Source\PSoC4/UART_XB2.c ****     {
 1070              		.loc 1 1146 0
 1071              		.cfi_startproc
 1072              	.LVL90:
 1073 0000 38B5     		push	{r3, r4, r5, lr}
 1074              		.cfi_def_cfa_offset 16
 1075              		.cfi_offset 3, -16
 1076              		.cfi_offset 4, -12
 1077              		.cfi_offset 5, -8
 1078              		.cfi_offset 14, -4
 1079              	.LVL91:
1147:Generated_Source\PSoC4/UART_XB2.c ****         uint16 bufIndex = 0u;
1148:Generated_Source\PSoC4/UART_XB2.c **** 
1149:Generated_Source\PSoC4/UART_XB2.c ****         /* If not Initialized then skip this function */
1150:Generated_Source\PSoC4/UART_XB2.c ****         if(UART_XB2_initVar != 0u)
 1080              		.loc 1 1150 0
 1081 0002 084B     		ldr	r3, .L89
 1082 0004 5B78     		ldrb	r3, [r3, #1]
 1083 0006 002B     		cmp	r3, #0
 1084 0008 05D1     		bne	.L88
 1085 000a 09E0     		b	.L84
 1086              	.LVL92:
 1087              	.L87:
1151:Generated_Source\PSoC4/UART_XB2.c ****         {
1152:Generated_Source\PSoC4/UART_XB2.c ****             /* This is a blocking function, it will not exit until all data is sent */
1153:Generated_Source\PSoC4/UART_XB2.c ****             while(string[bufIndex] != (char8) 0)
1154:Generated_Source\PSoC4/UART_XB2.c ****             {
1155:Generated_Source\PSoC4/UART_XB2.c ****                 UART_XB2_PutChar((uint8)string[bufIndex]);
 1088              		.loc 1 1155 0
 1089 000c FFF7FEFF 		bl	UART_XB2_PutChar
 1090              	.LVL93:
1156:Generated_Source\PSoC4/UART_XB2.c ****                 bufIndex++;
 1091              		.loc 1 1156 0
 1092 0010 0134     		add	r4, r4, #1
 1093              	.LVL94:
 1094 0012 A4B2     		uxth	r4, r4
 1095              	.LVL95:
 1096 0014 01E0     		b	.L85
 1097              	.LVL96:
 1098              	.L88:
 1099 0016 051C     		mov	r5, r0
 1100 0018 0024     		mov	r4, #0
 1101              	.LVL97:
 1102              	.L85:
1153:Generated_Source\PSoC4/UART_XB2.c ****             {
 1103              		.loc 1 1153 0
 1104 001a 285D     		ldrb	r0, [r5, r4]
 1105 001c 0028     		cmp	r0, #0
 1106 001e F5D1     		bne	.L87
 1107              	.LVL98:
 1108              	.L84:
1157:Generated_Source\PSoC4/UART_XB2.c ****             }
1158:Generated_Source\PSoC4/UART_XB2.c ****         }
1159:Generated_Source\PSoC4/UART_XB2.c ****     }
 1109              		.loc 1 1159 0
ARM GAS  C:\Users\Petro\AppData\Local\Temp\ccLVkPCw.s 			page 41


 1110              		@ sp needed
 1111 0020 38BD     		pop	{r3, r4, r5, pc}
 1112              	.L90:
 1113 0022 C046     		.align	2
 1114              	.L89:
 1115 0024 00000000 		.word	.LANCHOR0
 1116              		.cfi_endproc
 1117              	.LFE22:
 1118              		.size	UART_XB2_PutString, .-UART_XB2_PutString
 1119              		.section	.text.UART_XB2_PutArray,"ax",%progbits
 1120              		.align	2
 1121              		.global	UART_XB2_PutArray
 1122              		.code	16
 1123              		.thumb_func
 1124              		.type	UART_XB2_PutArray, %function
 1125              	UART_XB2_PutArray:
 1126              	.LFB23:
1160:Generated_Source\PSoC4/UART_XB2.c **** 
1161:Generated_Source\PSoC4/UART_XB2.c **** 
1162:Generated_Source\PSoC4/UART_XB2.c ****     /*******************************************************************************
1163:Generated_Source\PSoC4/UART_XB2.c ****     * Function Name: UART_XB2_PutArray
1164:Generated_Source\PSoC4/UART_XB2.c ****     ********************************************************************************
1165:Generated_Source\PSoC4/UART_XB2.c ****     *
1166:Generated_Source\PSoC4/UART_XB2.c ****     * Summary:
1167:Generated_Source\PSoC4/UART_XB2.c ****     *  Places N bytes of data from a memory array into the TX buffer for
1168:Generated_Source\PSoC4/UART_XB2.c ****     *  transmission.
1169:Generated_Source\PSoC4/UART_XB2.c ****     *
1170:Generated_Source\PSoC4/UART_XB2.c ****     * Parameters:
1171:Generated_Source\PSoC4/UART_XB2.c ****     *  string[]: Address of the memory array residing in RAM or ROM.
1172:Generated_Source\PSoC4/UART_XB2.c ****     *  byteCount: Number of bytes to be transmitted. The type depends on TX Buffer
1173:Generated_Source\PSoC4/UART_XB2.c ****     *             Size parameter.
1174:Generated_Source\PSoC4/UART_XB2.c ****     *
1175:Generated_Source\PSoC4/UART_XB2.c ****     * Return:
1176:Generated_Source\PSoC4/UART_XB2.c ****     *  None.
1177:Generated_Source\PSoC4/UART_XB2.c ****     *
1178:Generated_Source\PSoC4/UART_XB2.c ****     * Global Variables:
1179:Generated_Source\PSoC4/UART_XB2.c ****     *  UART_XB2_initVar - checked to identify that the component has been
1180:Generated_Source\PSoC4/UART_XB2.c ****     *     initialized.
1181:Generated_Source\PSoC4/UART_XB2.c ****     *
1182:Generated_Source\PSoC4/UART_XB2.c ****     * Reentrant:
1183:Generated_Source\PSoC4/UART_XB2.c ****     *  No.
1184:Generated_Source\PSoC4/UART_XB2.c ****     *
1185:Generated_Source\PSoC4/UART_XB2.c ****     * Theory:
1186:Generated_Source\PSoC4/UART_XB2.c ****     *  If there is not enough memory in the TX buffer for the entire string, this
1187:Generated_Source\PSoC4/UART_XB2.c ****     *  function blocks until the last character of the string is loaded into the
1188:Generated_Source\PSoC4/UART_XB2.c ****     *  TX buffer.
1189:Generated_Source\PSoC4/UART_XB2.c ****     *
1190:Generated_Source\PSoC4/UART_XB2.c ****     *******************************************************************************/
1191:Generated_Source\PSoC4/UART_XB2.c ****     void UART_XB2_PutArray(const uint8 string[], uint8 byteCount)
1192:Generated_Source\PSoC4/UART_XB2.c ****                                                                     
1193:Generated_Source\PSoC4/UART_XB2.c ****     {
 1127              		.loc 1 1193 0
 1128              		.cfi_startproc
 1129              	.LVL99:
 1130 0000 70B5     		push	{r4, r5, r6, lr}
 1131              		.cfi_def_cfa_offset 16
 1132              		.cfi_offset 4, -16
ARM GAS  C:\Users\Petro\AppData\Local\Temp\ccLVkPCw.s 			page 42


 1133              		.cfi_offset 5, -12
 1134              		.cfi_offset 6, -8
 1135              		.cfi_offset 14, -4
 1136              	.LVL100:
1194:Generated_Source\PSoC4/UART_XB2.c ****         uint8 bufIndex = 0u;
1195:Generated_Source\PSoC4/UART_XB2.c **** 
1196:Generated_Source\PSoC4/UART_XB2.c ****         /* If not Initialized then skip this function */
1197:Generated_Source\PSoC4/UART_XB2.c ****         if(UART_XB2_initVar != 0u)
 1137              		.loc 1 1197 0
 1138 0002 084B     		ldr	r3, .L96
 1139 0004 5B78     		ldrb	r3, [r3, #1]
 1140 0006 002B     		cmp	r3, #0
 1141 0008 06D1     		bne	.L95
 1142 000a 0AE0     		b	.L91
 1143              	.LVL101:
 1144              	.L94:
1198:Generated_Source\PSoC4/UART_XB2.c ****         {
1199:Generated_Source\PSoC4/UART_XB2.c ****             while(bufIndex < byteCount)
1200:Generated_Source\PSoC4/UART_XB2.c ****             {
1201:Generated_Source\PSoC4/UART_XB2.c ****                 UART_XB2_PutChar(string[bufIndex]);
 1145              		.loc 1 1201 0
 1146 000c 305D     		ldrb	r0, [r6, r4]
 1147 000e FFF7FEFF 		bl	UART_XB2_PutChar
 1148              	.LVL102:
1202:Generated_Source\PSoC4/UART_XB2.c ****                 bufIndex++;
 1149              		.loc 1 1202 0
 1150 0012 0134     		add	r4, r4, #1
 1151              	.LVL103:
 1152 0014 E4B2     		uxtb	r4, r4
 1153              	.LVL104:
 1154 0016 02E0     		b	.L92
 1155              	.LVL105:
 1156              	.L95:
 1157 0018 0D1C     		mov	r5, r1
 1158 001a 061C     		mov	r6, r0
 1159 001c 0024     		mov	r4, #0
 1160              	.LVL106:
 1161              	.L92:
1199:Generated_Source\PSoC4/UART_XB2.c ****             {
 1162              		.loc 1 1199 0
 1163 001e AC42     		cmp	r4, r5
 1164 0020 F4D3     		bcc	.L94
 1165              	.LVL107:
 1166              	.L91:
1203:Generated_Source\PSoC4/UART_XB2.c ****             }
1204:Generated_Source\PSoC4/UART_XB2.c ****         }
1205:Generated_Source\PSoC4/UART_XB2.c ****     }
 1167              		.loc 1 1205 0
 1168              		@ sp needed
 1169 0022 70BD     		pop	{r4, r5, r6, pc}
 1170              	.L97:
 1171              		.align	2
 1172              	.L96:
 1173 0024 00000000 		.word	.LANCHOR0
 1174              		.cfi_endproc
 1175              	.LFE23:
 1176              		.size	UART_XB2_PutArray, .-UART_XB2_PutArray
ARM GAS  C:\Users\Petro\AppData\Local\Temp\ccLVkPCw.s 			page 43


 1177              		.section	.text.UART_XB2_PutCRLF,"ax",%progbits
 1178              		.align	2
 1179              		.global	UART_XB2_PutCRLF
 1180              		.code	16
 1181              		.thumb_func
 1182              		.type	UART_XB2_PutCRLF, %function
 1183              	UART_XB2_PutCRLF:
 1184              	.LFB24:
1206:Generated_Source\PSoC4/UART_XB2.c **** 
1207:Generated_Source\PSoC4/UART_XB2.c **** 
1208:Generated_Source\PSoC4/UART_XB2.c ****     /*******************************************************************************
1209:Generated_Source\PSoC4/UART_XB2.c ****     * Function Name: UART_XB2_PutCRLF
1210:Generated_Source\PSoC4/UART_XB2.c ****     ********************************************************************************
1211:Generated_Source\PSoC4/UART_XB2.c ****     *
1212:Generated_Source\PSoC4/UART_XB2.c ****     * Summary:
1213:Generated_Source\PSoC4/UART_XB2.c ****     *  Writes a byte of data followed by a carriage return (0x0D) and line feed
1214:Generated_Source\PSoC4/UART_XB2.c ****     *  (0x0A) to the transmit buffer.
1215:Generated_Source\PSoC4/UART_XB2.c ****     *
1216:Generated_Source\PSoC4/UART_XB2.c ****     * Parameters:
1217:Generated_Source\PSoC4/UART_XB2.c ****     *  txDataByte: Data byte to transmit before the carriage return and line feed.
1218:Generated_Source\PSoC4/UART_XB2.c ****     *
1219:Generated_Source\PSoC4/UART_XB2.c ****     * Return:
1220:Generated_Source\PSoC4/UART_XB2.c ****     *  None.
1221:Generated_Source\PSoC4/UART_XB2.c ****     *
1222:Generated_Source\PSoC4/UART_XB2.c ****     * Global Variables:
1223:Generated_Source\PSoC4/UART_XB2.c ****     *  UART_XB2_initVar - checked to identify that the component has been
1224:Generated_Source\PSoC4/UART_XB2.c ****     *     initialized.
1225:Generated_Source\PSoC4/UART_XB2.c ****     *
1226:Generated_Source\PSoC4/UART_XB2.c ****     * Reentrant:
1227:Generated_Source\PSoC4/UART_XB2.c ****     *  No.
1228:Generated_Source\PSoC4/UART_XB2.c ****     *
1229:Generated_Source\PSoC4/UART_XB2.c ****     *******************************************************************************/
1230:Generated_Source\PSoC4/UART_XB2.c ****     void UART_XB2_PutCRLF(uint8 txDataByte) 
1231:Generated_Source\PSoC4/UART_XB2.c ****     {
 1185              		.loc 1 1231 0
 1186              		.cfi_startproc
 1187              	.LVL108:
 1188 0000 08B5     		push	{r3, lr}
 1189              		.cfi_def_cfa_offset 8
 1190              		.cfi_offset 3, -8
 1191              		.cfi_offset 14, -4
1232:Generated_Source\PSoC4/UART_XB2.c ****         /* If not Initialized then skip this function */
1233:Generated_Source\PSoC4/UART_XB2.c ****         if(UART_XB2_initVar != 0u)
 1192              		.loc 1 1233 0
 1193 0002 064B     		ldr	r3, .L100
 1194 0004 5B78     		ldrb	r3, [r3, #1]
 1195 0006 002B     		cmp	r3, #0
 1196 0008 07D0     		beq	.L98
1234:Generated_Source\PSoC4/UART_XB2.c ****         {
1235:Generated_Source\PSoC4/UART_XB2.c ****             UART_XB2_PutChar(txDataByte);
 1197              		.loc 1 1235 0
 1198 000a FFF7FEFF 		bl	UART_XB2_PutChar
 1199              	.LVL109:
1236:Generated_Source\PSoC4/UART_XB2.c ****             UART_XB2_PutChar(0x0Du);
 1200              		.loc 1 1236 0
 1201 000e 0D20     		mov	r0, #13
 1202 0010 FFF7FEFF 		bl	UART_XB2_PutChar
ARM GAS  C:\Users\Petro\AppData\Local\Temp\ccLVkPCw.s 			page 44


 1203              	.LVL110:
1237:Generated_Source\PSoC4/UART_XB2.c ****             UART_XB2_PutChar(0x0Au);
 1204              		.loc 1 1237 0
 1205 0014 0A20     		mov	r0, #10
 1206 0016 FFF7FEFF 		bl	UART_XB2_PutChar
 1207              	.LVL111:
 1208              	.L98:
1238:Generated_Source\PSoC4/UART_XB2.c ****         }
1239:Generated_Source\PSoC4/UART_XB2.c ****     }
 1209              		.loc 1 1239 0
 1210              		@ sp needed
 1211 001a 08BD     		pop	{r3, pc}
 1212              	.L101:
 1213              		.align	2
 1214              	.L100:
 1215 001c 00000000 		.word	.LANCHOR0
 1216              		.cfi_endproc
 1217              	.LFE24:
 1218              		.size	UART_XB2_PutCRLF, .-UART_XB2_PutCRLF
 1219              		.section	.text.UART_XB2_GetTxBufferSize,"ax",%progbits
 1220              		.align	2
 1221              		.global	UART_XB2_GetTxBufferSize
 1222              		.code	16
 1223              		.thumb_func
 1224              		.type	UART_XB2_GetTxBufferSize, %function
 1225              	UART_XB2_GetTxBufferSize:
 1226              	.LFB25:
1240:Generated_Source\PSoC4/UART_XB2.c **** 
1241:Generated_Source\PSoC4/UART_XB2.c **** 
1242:Generated_Source\PSoC4/UART_XB2.c ****     /*******************************************************************************
1243:Generated_Source\PSoC4/UART_XB2.c ****     * Function Name: UART_XB2_GetTxBufferSize
1244:Generated_Source\PSoC4/UART_XB2.c ****     ********************************************************************************
1245:Generated_Source\PSoC4/UART_XB2.c ****     *
1246:Generated_Source\PSoC4/UART_XB2.c ****     * Summary:
1247:Generated_Source\PSoC4/UART_XB2.c ****     *  Returns the number of bytes in the TX buffer which are waiting to be 
1248:Generated_Source\PSoC4/UART_XB2.c ****     *  transmitted.
1249:Generated_Source\PSoC4/UART_XB2.c ****     *  * TX software buffer is disabled (TX Buffer Size parameter is equal to 4): 
1250:Generated_Source\PSoC4/UART_XB2.c ****     *    returns 0 for empty TX FIFO, 1 for not full TX FIFO or 4 for full TX FIFO.
1251:Generated_Source\PSoC4/UART_XB2.c ****     *  * TX software buffer is enabled: returns the number of bytes in the TX 
1252:Generated_Source\PSoC4/UART_XB2.c ****     *    software buffer which are waiting to be transmitted. Bytes available in the
1253:Generated_Source\PSoC4/UART_XB2.c ****     *    TX FIFO do not count.
1254:Generated_Source\PSoC4/UART_XB2.c ****     *
1255:Generated_Source\PSoC4/UART_XB2.c ****     * Parameters:
1256:Generated_Source\PSoC4/UART_XB2.c ****     *  None.
1257:Generated_Source\PSoC4/UART_XB2.c ****     *
1258:Generated_Source\PSoC4/UART_XB2.c ****     * Return:
1259:Generated_Source\PSoC4/UART_XB2.c ****     *  Number of bytes used in the TX buffer. Return value type depends on the TX 
1260:Generated_Source\PSoC4/UART_XB2.c ****     *  Buffer Size parameter.
1261:Generated_Source\PSoC4/UART_XB2.c ****     *
1262:Generated_Source\PSoC4/UART_XB2.c ****     * Global Variables:
1263:Generated_Source\PSoC4/UART_XB2.c ****     *  UART_XB2_txBufferWrite - used to calculate left space.
1264:Generated_Source\PSoC4/UART_XB2.c ****     *  UART_XB2_txBufferRead - used to calculate left space.
1265:Generated_Source\PSoC4/UART_XB2.c ****     *
1266:Generated_Source\PSoC4/UART_XB2.c ****     * Reentrant:
1267:Generated_Source\PSoC4/UART_XB2.c ****     *  No.
1268:Generated_Source\PSoC4/UART_XB2.c ****     *
1269:Generated_Source\PSoC4/UART_XB2.c ****     * Theory:
ARM GAS  C:\Users\Petro\AppData\Local\Temp\ccLVkPCw.s 			page 45


1270:Generated_Source\PSoC4/UART_XB2.c ****     *  Allows the user to find out how full the TX Buffer is.
1271:Generated_Source\PSoC4/UART_XB2.c ****     *
1272:Generated_Source\PSoC4/UART_XB2.c ****     *******************************************************************************/
1273:Generated_Source\PSoC4/UART_XB2.c ****     uint8 UART_XB2_GetTxBufferSize(void)
1274:Generated_Source\PSoC4/UART_XB2.c ****                                                             
1275:Generated_Source\PSoC4/UART_XB2.c ****     {
 1227              		.loc 1 1275 0
 1228              		.cfi_startproc
 1229 0000 10B5     		push	{r4, lr}
 1230              		.cfi_def_cfa_offset 8
 1231              		.cfi_offset 4, -8
 1232              		.cfi_offset 14, -4
1276:Generated_Source\PSoC4/UART_XB2.c ****         uint8 size;
1277:Generated_Source\PSoC4/UART_XB2.c **** 
1278:Generated_Source\PSoC4/UART_XB2.c ****     #if (UART_XB2_TX_INTERRUPT_ENABLED)
1279:Generated_Source\PSoC4/UART_XB2.c **** 
1280:Generated_Source\PSoC4/UART_XB2.c ****         /* Protect variables that could change on interrupt. */
1281:Generated_Source\PSoC4/UART_XB2.c ****         UART_XB2_DisableTxInt();
 1233              		.loc 1 1281 0
 1234 0002 0220     		mov	r0, #2
 1235 0004 FFF7FEFF 		bl	CyIntDisable
 1236              	.LVL112:
1282:Generated_Source\PSoC4/UART_XB2.c **** 
1283:Generated_Source\PSoC4/UART_XB2.c ****         if(UART_XB2_txBufferRead == UART_XB2_txBufferWrite)
 1237              		.loc 1 1283 0
 1238 0008 0D4B     		ldr	r3, .L106
 1239 000a 9A79     		ldrb	r2, [r3, #6]
 1240 000c D2B2     		uxtb	r2, r2
 1241 000e DB79     		ldrb	r3, [r3, #7]
 1242 0010 9A42     		cmp	r2, r3
 1243 0012 0FD0     		beq	.L105
1284:Generated_Source\PSoC4/UART_XB2.c ****         {
1285:Generated_Source\PSoC4/UART_XB2.c ****             size = 0u;
1286:Generated_Source\PSoC4/UART_XB2.c ****         }
1287:Generated_Source\PSoC4/UART_XB2.c ****         else if(UART_XB2_txBufferRead < UART_XB2_txBufferWrite)
 1244              		.loc 1 1287 0
 1245 0014 0A4A     		ldr	r2, .L106
 1246 0016 9279     		ldrb	r2, [r2, #6]
 1247 0018 D2B2     		uxtb	r2, r2
 1248 001a 9342     		cmp	r3, r2
 1249 001c 04D9     		bls	.L104
1288:Generated_Source\PSoC4/UART_XB2.c ****         {
1289:Generated_Source\PSoC4/UART_XB2.c ****             size = (UART_XB2_txBufferWrite - UART_XB2_txBufferRead);
 1250              		.loc 1 1289 0
 1251 001e 084A     		ldr	r2, .L106
 1252 0020 9479     		ldrb	r4, [r2, #6]
 1253 0022 1B1B     		sub	r3, r3, r4
 1254 0024 DCB2     		uxtb	r4, r3
 1255              	.LVL113:
 1256 0026 06E0     		b	.L103
 1257              	.LVL114:
 1258              	.L104:
1290:Generated_Source\PSoC4/UART_XB2.c ****         }
1291:Generated_Source\PSoC4/UART_XB2.c ****         else
1292:Generated_Source\PSoC4/UART_XB2.c ****         {
1293:Generated_Source\PSoC4/UART_XB2.c ****             size = (UART_XB2_TX_BUFFER_SIZE - UART_XB2_txBufferRead) +
 1259              		.loc 1 1293 0
ARM GAS  C:\Users\Petro\AppData\Local\Temp\ccLVkPCw.s 			page 46


 1260 0028 054A     		ldr	r2, .L106
 1261 002a 9479     		ldrb	r4, [r2, #6]
 1262 002c 1B1B     		sub	r3, r3, r4
 1263 002e 6433     		add	r3, r3, #100
 1264 0030 DCB2     		uxtb	r4, r3
 1265              	.LVL115:
 1266 0032 00E0     		b	.L103
 1267              	.LVL116:
 1268              	.L105:
1285:Generated_Source\PSoC4/UART_XB2.c ****         }
 1269              		.loc 1 1285 0
 1270 0034 0024     		mov	r4, #0
 1271              	.L103:
 1272              	.LVL117:
1294:Generated_Source\PSoC4/UART_XB2.c ****                     UART_XB2_txBufferWrite;
1295:Generated_Source\PSoC4/UART_XB2.c ****         }
1296:Generated_Source\PSoC4/UART_XB2.c **** 
1297:Generated_Source\PSoC4/UART_XB2.c ****         UART_XB2_EnableTxInt();
 1273              		.loc 1 1297 0
 1274 0036 0220     		mov	r0, #2
 1275 0038 FFF7FEFF 		bl	CyIntEnable
 1276              	.LVL118:
1298:Generated_Source\PSoC4/UART_XB2.c **** 
1299:Generated_Source\PSoC4/UART_XB2.c ****     #else
1300:Generated_Source\PSoC4/UART_XB2.c **** 
1301:Generated_Source\PSoC4/UART_XB2.c ****         size = UART_XB2_TXSTATUS_REG;
1302:Generated_Source\PSoC4/UART_XB2.c **** 
1303:Generated_Source\PSoC4/UART_XB2.c ****         /* Is the fifo is full. */
1304:Generated_Source\PSoC4/UART_XB2.c ****         if((size & UART_XB2_TX_STS_FIFO_FULL) != 0u)
1305:Generated_Source\PSoC4/UART_XB2.c ****         {
1306:Generated_Source\PSoC4/UART_XB2.c ****             size = UART_XB2_FIFO_LENGTH;
1307:Generated_Source\PSoC4/UART_XB2.c ****         }
1308:Generated_Source\PSoC4/UART_XB2.c ****         else if((size & UART_XB2_TX_STS_FIFO_EMPTY) != 0u)
1309:Generated_Source\PSoC4/UART_XB2.c ****         {
1310:Generated_Source\PSoC4/UART_XB2.c ****             size = 0u;
1311:Generated_Source\PSoC4/UART_XB2.c ****         }
1312:Generated_Source\PSoC4/UART_XB2.c ****         else
1313:Generated_Source\PSoC4/UART_XB2.c ****         {
1314:Generated_Source\PSoC4/UART_XB2.c ****             /* We only know there is data in the fifo. */
1315:Generated_Source\PSoC4/UART_XB2.c ****             size = 1u;
1316:Generated_Source\PSoC4/UART_XB2.c ****         }
1317:Generated_Source\PSoC4/UART_XB2.c **** 
1318:Generated_Source\PSoC4/UART_XB2.c ****     #endif /* (UART_XB2_TX_INTERRUPT_ENABLED) */
1319:Generated_Source\PSoC4/UART_XB2.c **** 
1320:Generated_Source\PSoC4/UART_XB2.c ****     return(size);
1321:Generated_Source\PSoC4/UART_XB2.c ****     }
 1277              		.loc 1 1321 0
 1278 003c 201C     		mov	r0, r4
 1279              		@ sp needed
 1280              	.LVL119:
 1281 003e 10BD     		pop	{r4, pc}
 1282              	.L107:
 1283              		.align	2
 1284              	.L106:
 1285 0040 00000000 		.word	.LANCHOR0
 1286              		.cfi_endproc
 1287              	.LFE25:
ARM GAS  C:\Users\Petro\AppData\Local\Temp\ccLVkPCw.s 			page 47


 1288              		.size	UART_XB2_GetTxBufferSize, .-UART_XB2_GetTxBufferSize
 1289              		.section	.text.UART_XB2_ClearTxBuffer,"ax",%progbits
 1290              		.align	2
 1291              		.global	UART_XB2_ClearTxBuffer
 1292              		.code	16
 1293              		.thumb_func
 1294              		.type	UART_XB2_ClearTxBuffer, %function
 1295              	UART_XB2_ClearTxBuffer:
 1296              	.LFB26:
1322:Generated_Source\PSoC4/UART_XB2.c **** 
1323:Generated_Source\PSoC4/UART_XB2.c **** 
1324:Generated_Source\PSoC4/UART_XB2.c ****     /*******************************************************************************
1325:Generated_Source\PSoC4/UART_XB2.c ****     * Function Name: UART_XB2_ClearTxBuffer
1326:Generated_Source\PSoC4/UART_XB2.c ****     ********************************************************************************
1327:Generated_Source\PSoC4/UART_XB2.c ****     *
1328:Generated_Source\PSoC4/UART_XB2.c ****     * Summary:
1329:Generated_Source\PSoC4/UART_XB2.c ****     *  Clears all data from the TX buffer and hardware TX FIFO.
1330:Generated_Source\PSoC4/UART_XB2.c ****     *
1331:Generated_Source\PSoC4/UART_XB2.c ****     * Parameters:
1332:Generated_Source\PSoC4/UART_XB2.c ****     *  None.
1333:Generated_Source\PSoC4/UART_XB2.c ****     *
1334:Generated_Source\PSoC4/UART_XB2.c ****     * Return:
1335:Generated_Source\PSoC4/UART_XB2.c ****     *  None.
1336:Generated_Source\PSoC4/UART_XB2.c ****     *
1337:Generated_Source\PSoC4/UART_XB2.c ****     * Global Variables:
1338:Generated_Source\PSoC4/UART_XB2.c ****     *  UART_XB2_txBufferWrite - cleared to zero.
1339:Generated_Source\PSoC4/UART_XB2.c ****     *  UART_XB2_txBufferRead - cleared to zero.
1340:Generated_Source\PSoC4/UART_XB2.c ****     *
1341:Generated_Source\PSoC4/UART_XB2.c ****     * Reentrant:
1342:Generated_Source\PSoC4/UART_XB2.c ****     *  No.
1343:Generated_Source\PSoC4/UART_XB2.c ****     *
1344:Generated_Source\PSoC4/UART_XB2.c ****     * Theory:
1345:Generated_Source\PSoC4/UART_XB2.c ****     *  Setting the pointers to zero makes the system believe there is no data to
1346:Generated_Source\PSoC4/UART_XB2.c ****     *  read and writing will resume at address 0 overwriting any data that may have
1347:Generated_Source\PSoC4/UART_XB2.c ****     *  remained in the RAM.
1348:Generated_Source\PSoC4/UART_XB2.c ****     *
1349:Generated_Source\PSoC4/UART_XB2.c ****     * Side Effects:
1350:Generated_Source\PSoC4/UART_XB2.c ****     *  Data waiting in the transmit buffer is not sent; a byte that is currently
1351:Generated_Source\PSoC4/UART_XB2.c ****     *  transmitting finishes transmitting.
1352:Generated_Source\PSoC4/UART_XB2.c ****     *
1353:Generated_Source\PSoC4/UART_XB2.c ****     *******************************************************************************/
1354:Generated_Source\PSoC4/UART_XB2.c ****     void UART_XB2_ClearTxBuffer(void) 
1355:Generated_Source\PSoC4/UART_XB2.c ****     {
 1297              		.loc 1 1355 0
 1298              		.cfi_startproc
 1299 0000 08B5     		push	{r3, lr}
 1300              		.cfi_def_cfa_offset 8
 1301              		.cfi_offset 3, -8
 1302              		.cfi_offset 14, -4
1356:Generated_Source\PSoC4/UART_XB2.c ****         uint8 enableInterrupts;
1357:Generated_Source\PSoC4/UART_XB2.c **** 
1358:Generated_Source\PSoC4/UART_XB2.c ****         enableInterrupts = CyEnterCriticalSection();
 1303              		.loc 1 1358 0
 1304 0002 FFF7FEFF 		bl	CyEnterCriticalSection
 1305              	.LVL120:
1359:Generated_Source\PSoC4/UART_XB2.c ****         /* Clear the HW FIFO */
1360:Generated_Source\PSoC4/UART_XB2.c ****         UART_XB2_TXDATA_AUX_CTL_REG |= (uint8)  UART_XB2_TX_FIFO_CLR;
ARM GAS  C:\Users\Petro\AppData\Local\Temp\ccLVkPCw.s 			page 48


 1306              		.loc 1 1360 0
 1307 0006 0B4B     		ldr	r3, .L109
 1308 0008 1978     		ldrb	r1, [r3]
 1309 000a 0122     		mov	r2, #1
 1310 000c 0A43     		orr	r2, r1
 1311 000e 1A70     		strb	r2, [r3]
1361:Generated_Source\PSoC4/UART_XB2.c ****         UART_XB2_TXDATA_AUX_CTL_REG &= (uint8) ~UART_XB2_TX_FIFO_CLR;
 1312              		.loc 1 1361 0
 1313 0010 1A78     		ldrb	r2, [r3]
 1314 0012 0121     		mov	r1, #1
 1315 0014 8A43     		bic	r2, r1
 1316 0016 1A70     		strb	r2, [r3]
1362:Generated_Source\PSoC4/UART_XB2.c ****         CyExitCriticalSection(enableInterrupts);
 1317              		.loc 1 1362 0
 1318 0018 FFF7FEFF 		bl	CyExitCriticalSection
 1319              	.LVL121:
1363:Generated_Source\PSoC4/UART_XB2.c **** 
1364:Generated_Source\PSoC4/UART_XB2.c ****     #if (UART_XB2_TX_INTERRUPT_ENABLED)
1365:Generated_Source\PSoC4/UART_XB2.c **** 
1366:Generated_Source\PSoC4/UART_XB2.c ****         /* Protect variables that could change on interrupt. */
1367:Generated_Source\PSoC4/UART_XB2.c ****         UART_XB2_DisableTxInt();
 1320              		.loc 1 1367 0
 1321 001c 0220     		mov	r0, #2
 1322 001e FFF7FEFF 		bl	CyIntDisable
 1323              	.LVL122:
1368:Generated_Source\PSoC4/UART_XB2.c **** 
1369:Generated_Source\PSoC4/UART_XB2.c ****         UART_XB2_txBufferRead = 0u;
 1324              		.loc 1 1369 0
 1325 0022 054B     		ldr	r3, .L109+4
 1326 0024 0022     		mov	r2, #0
 1327 0026 9A71     		strb	r2, [r3, #6]
1370:Generated_Source\PSoC4/UART_XB2.c ****         UART_XB2_txBufferWrite = 0u;
 1328              		.loc 1 1370 0
 1329 0028 DA71     		strb	r2, [r3, #7]
1371:Generated_Source\PSoC4/UART_XB2.c **** 
1372:Generated_Source\PSoC4/UART_XB2.c ****         /* Enable Tx interrupt. */
1373:Generated_Source\PSoC4/UART_XB2.c ****         UART_XB2_EnableTxInt();
 1330              		.loc 1 1373 0
 1331 002a 0220     		mov	r0, #2
 1332 002c FFF7FEFF 		bl	CyIntEnable
 1333              	.LVL123:
1374:Generated_Source\PSoC4/UART_XB2.c **** 
1375:Generated_Source\PSoC4/UART_XB2.c ****     #endif /* (UART_XB2_TX_INTERRUPT_ENABLED) */
1376:Generated_Source\PSoC4/UART_XB2.c ****     }
 1334              		.loc 1 1376 0
 1335              		@ sp needed
 1336 0030 08BD     		pop	{r3, pc}
 1337              	.L110:
 1338 0032 C046     		.align	2
 1339              	.L109:
 1340 0034 93000F40 		.word	1074725011
 1341 0038 00000000 		.word	.LANCHOR0
 1342              		.cfi_endproc
 1343              	.LFE26:
 1344              		.size	UART_XB2_ClearTxBuffer, .-UART_XB2_ClearTxBuffer
 1345              		.section	.text.UART_XB2_SendBreak,"ax",%progbits
 1346              		.align	2
ARM GAS  C:\Users\Petro\AppData\Local\Temp\ccLVkPCw.s 			page 49


 1347              		.global	UART_XB2_SendBreak
 1348              		.code	16
 1349              		.thumb_func
 1350              		.type	UART_XB2_SendBreak, %function
 1351              	UART_XB2_SendBreak:
 1352              	.LFB27:
1377:Generated_Source\PSoC4/UART_XB2.c **** 
1378:Generated_Source\PSoC4/UART_XB2.c **** 
1379:Generated_Source\PSoC4/UART_XB2.c ****     /*******************************************************************************
1380:Generated_Source\PSoC4/UART_XB2.c ****     * Function Name: UART_XB2_SendBreak
1381:Generated_Source\PSoC4/UART_XB2.c ****     ********************************************************************************
1382:Generated_Source\PSoC4/UART_XB2.c ****     *
1383:Generated_Source\PSoC4/UART_XB2.c ****     * Summary:
1384:Generated_Source\PSoC4/UART_XB2.c ****     *  Transmits a break signal on the bus.
1385:Generated_Source\PSoC4/UART_XB2.c ****     *
1386:Generated_Source\PSoC4/UART_XB2.c ****     * Parameters:
1387:Generated_Source\PSoC4/UART_XB2.c ****     *  uint8 retMode:  Send Break return mode. See the following table for options.
1388:Generated_Source\PSoC4/UART_XB2.c ****     *   UART_XB2_SEND_BREAK - Initialize registers for break, send the Break
1389:Generated_Source\PSoC4/UART_XB2.c ****     *       signal and return immediately.
1390:Generated_Source\PSoC4/UART_XB2.c ****     *   UART_XB2_WAIT_FOR_COMPLETE_REINIT - Wait until break transmission is
1391:Generated_Source\PSoC4/UART_XB2.c ****     *       complete, reinitialize registers to normal transmission mode then return
1392:Generated_Source\PSoC4/UART_XB2.c ****     *   UART_XB2_REINIT - Reinitialize registers to normal transmission mode
1393:Generated_Source\PSoC4/UART_XB2.c ****     *       then return.
1394:Generated_Source\PSoC4/UART_XB2.c ****     *   UART_XB2_SEND_WAIT_REINIT - Performs both options: 
1395:Generated_Source\PSoC4/UART_XB2.c ****     *      UART_XB2_SEND_BREAK and UART_XB2_WAIT_FOR_COMPLETE_REINIT.
1396:Generated_Source\PSoC4/UART_XB2.c ****     *      This option is recommended for most cases.
1397:Generated_Source\PSoC4/UART_XB2.c ****     *
1398:Generated_Source\PSoC4/UART_XB2.c ****     * Return:
1399:Generated_Source\PSoC4/UART_XB2.c ****     *  None.
1400:Generated_Source\PSoC4/UART_XB2.c ****     *
1401:Generated_Source\PSoC4/UART_XB2.c ****     * Global Variables:
1402:Generated_Source\PSoC4/UART_XB2.c ****     *  UART_XB2_initVar - checked to identify that the component has been
1403:Generated_Source\PSoC4/UART_XB2.c ****     *     initialized.
1404:Generated_Source\PSoC4/UART_XB2.c ****     *  txPeriod - static variable, used for keeping TX period configuration.
1405:Generated_Source\PSoC4/UART_XB2.c ****     *
1406:Generated_Source\PSoC4/UART_XB2.c ****     * Reentrant:
1407:Generated_Source\PSoC4/UART_XB2.c ****     *  No.
1408:Generated_Source\PSoC4/UART_XB2.c ****     *
1409:Generated_Source\PSoC4/UART_XB2.c ****     * Theory:
1410:Generated_Source\PSoC4/UART_XB2.c ****     *  SendBreak function initializes registers to send 13-bit break signal. It is
1411:Generated_Source\PSoC4/UART_XB2.c ****     *  important to return the registers configuration to normal for continue 8-bit
1412:Generated_Source\PSoC4/UART_XB2.c ****     *  operation.
1413:Generated_Source\PSoC4/UART_XB2.c ****     *  There are 3 variants for this API usage:
1414:Generated_Source\PSoC4/UART_XB2.c ****     *  1) SendBreak(3) - function will send the Break signal and take care on the
1415:Generated_Source\PSoC4/UART_XB2.c ****     *     configuration returning. Function will block CPU until transmission
1416:Generated_Source\PSoC4/UART_XB2.c ****     *     complete.
1417:Generated_Source\PSoC4/UART_XB2.c ****     *  2) User may want to use blocking time if UART configured to the low speed
1418:Generated_Source\PSoC4/UART_XB2.c ****     *     operation
1419:Generated_Source\PSoC4/UART_XB2.c ****     *     Example for this case:
1420:Generated_Source\PSoC4/UART_XB2.c ****     *     SendBreak(0);     - initialize Break signal transmission
1421:Generated_Source\PSoC4/UART_XB2.c ****     *         Add your code here to use CPU time
1422:Generated_Source\PSoC4/UART_XB2.c ****     *     SendBreak(1);     - complete Break operation
1423:Generated_Source\PSoC4/UART_XB2.c ****     *  3) Same to 2) but user may want to initialize and use the interrupt to
1424:Generated_Source\PSoC4/UART_XB2.c ****     *     complete break operation.
1425:Generated_Source\PSoC4/UART_XB2.c ****     *     Example for this case:
1426:Generated_Source\PSoC4/UART_XB2.c ****     *     Initialize TX interrupt with "TX - On TX Complete" parameter
1427:Generated_Source\PSoC4/UART_XB2.c ****     *     SendBreak(0);     - initialize Break signal transmission
ARM GAS  C:\Users\Petro\AppData\Local\Temp\ccLVkPCw.s 			page 50


1428:Generated_Source\PSoC4/UART_XB2.c ****     *         Add your code here to use CPU time
1429:Generated_Source\PSoC4/UART_XB2.c ****     *     When interrupt appear with UART_XB2_TX_STS_COMPLETE status:
1430:Generated_Source\PSoC4/UART_XB2.c ****     *     SendBreak(2);     - complete Break operation
1431:Generated_Source\PSoC4/UART_XB2.c ****     *
1432:Generated_Source\PSoC4/UART_XB2.c ****     * Side Effects:
1433:Generated_Source\PSoC4/UART_XB2.c ****     *  The UART_XB2_SendBreak() function initializes registers to send a
1434:Generated_Source\PSoC4/UART_XB2.c ****     *  break signal.
1435:Generated_Source\PSoC4/UART_XB2.c ****     *  Break signal length depends on the break signal bits configuration.
1436:Generated_Source\PSoC4/UART_XB2.c ****     *  The register configuration should be reinitialized before normal 8-bit
1437:Generated_Source\PSoC4/UART_XB2.c ****     *  communication can continue.
1438:Generated_Source\PSoC4/UART_XB2.c ****     *
1439:Generated_Source\PSoC4/UART_XB2.c ****     *******************************************************************************/
1440:Generated_Source\PSoC4/UART_XB2.c ****     void UART_XB2_SendBreak(uint8 retMode) 
1441:Generated_Source\PSoC4/UART_XB2.c ****     {
 1353              		.loc 1 1441 0
 1354              		.cfi_startproc
 1355              	.LVL124:
1442:Generated_Source\PSoC4/UART_XB2.c **** 
1443:Generated_Source\PSoC4/UART_XB2.c ****         /* If not Initialized then skip this function*/
1444:Generated_Source\PSoC4/UART_XB2.c ****         if(UART_XB2_initVar != 0u)
 1356              		.loc 1 1444 0
 1357 0000 124B     		ldr	r3, .L118
 1358 0002 5B78     		ldrb	r3, [r3, #1]
 1359 0004 002B     		cmp	r3, #0
 1360 0006 1FD0     		beq	.L111
 1361              	.LBB2:
1445:Generated_Source\PSoC4/UART_XB2.c ****         {
1446:Generated_Source\PSoC4/UART_XB2.c ****             /* Set the Counter to 13-bits and transmit a 00 byte */
1447:Generated_Source\PSoC4/UART_XB2.c ****             /* When that is done then reset the counter value back */
1448:Generated_Source\PSoC4/UART_XB2.c ****             uint8 tmpStat;
1449:Generated_Source\PSoC4/UART_XB2.c **** 
1450:Generated_Source\PSoC4/UART_XB2.c ****         #if(UART_XB2_HD_ENABLED) /* Half Duplex mode*/
1451:Generated_Source\PSoC4/UART_XB2.c **** 
1452:Generated_Source\PSoC4/UART_XB2.c ****             if( (retMode == UART_XB2_SEND_BREAK) ||
1453:Generated_Source\PSoC4/UART_XB2.c ****                 (retMode == UART_XB2_SEND_WAIT_REINIT ) )
1454:Generated_Source\PSoC4/UART_XB2.c ****             {
1455:Generated_Source\PSoC4/UART_XB2.c ****                 /* CTRL_HD_SEND_BREAK - sends break bits in HD mode */
1456:Generated_Source\PSoC4/UART_XB2.c ****                 UART_XB2_WriteControlRegister(UART_XB2_ReadControlRegister() |
1457:Generated_Source\PSoC4/UART_XB2.c ****                                                       UART_XB2_CTRL_HD_SEND_BREAK);
1458:Generated_Source\PSoC4/UART_XB2.c ****                 /* Send zeros */
1459:Generated_Source\PSoC4/UART_XB2.c ****                 UART_XB2_TXDATA_REG = 0u;
1460:Generated_Source\PSoC4/UART_XB2.c **** 
1461:Generated_Source\PSoC4/UART_XB2.c ****                 do /* Wait until transmit starts */
1462:Generated_Source\PSoC4/UART_XB2.c ****                 {
1463:Generated_Source\PSoC4/UART_XB2.c ****                     tmpStat = UART_XB2_TXSTATUS_REG;
1464:Generated_Source\PSoC4/UART_XB2.c ****                 }
1465:Generated_Source\PSoC4/UART_XB2.c ****                 while((tmpStat & UART_XB2_TX_STS_FIFO_EMPTY) != 0u);
1466:Generated_Source\PSoC4/UART_XB2.c ****             }
1467:Generated_Source\PSoC4/UART_XB2.c **** 
1468:Generated_Source\PSoC4/UART_XB2.c ****             if( (retMode == UART_XB2_WAIT_FOR_COMPLETE_REINIT) ||
1469:Generated_Source\PSoC4/UART_XB2.c ****                 (retMode == UART_XB2_SEND_WAIT_REINIT) )
1470:Generated_Source\PSoC4/UART_XB2.c ****             {
1471:Generated_Source\PSoC4/UART_XB2.c ****                 do /* Wait until transmit complete */
1472:Generated_Source\PSoC4/UART_XB2.c ****                 {
1473:Generated_Source\PSoC4/UART_XB2.c ****                     tmpStat = UART_XB2_TXSTATUS_REG;
1474:Generated_Source\PSoC4/UART_XB2.c ****                 }
1475:Generated_Source\PSoC4/UART_XB2.c ****                 while(((uint8)~tmpStat & UART_XB2_TX_STS_COMPLETE) != 0u);
ARM GAS  C:\Users\Petro\AppData\Local\Temp\ccLVkPCw.s 			page 51


1476:Generated_Source\PSoC4/UART_XB2.c ****             }
1477:Generated_Source\PSoC4/UART_XB2.c **** 
1478:Generated_Source\PSoC4/UART_XB2.c ****             if( (retMode == UART_XB2_WAIT_FOR_COMPLETE_REINIT) ||
1479:Generated_Source\PSoC4/UART_XB2.c ****                 (retMode == UART_XB2_REINIT) ||
1480:Generated_Source\PSoC4/UART_XB2.c ****                 (retMode == UART_XB2_SEND_WAIT_REINIT) )
1481:Generated_Source\PSoC4/UART_XB2.c ****             {
1482:Generated_Source\PSoC4/UART_XB2.c ****                 UART_XB2_WriteControlRegister(UART_XB2_ReadControlRegister() &
1483:Generated_Source\PSoC4/UART_XB2.c ****                                               (uint8)~UART_XB2_CTRL_HD_SEND_BREAK);
1484:Generated_Source\PSoC4/UART_XB2.c ****             }
1485:Generated_Source\PSoC4/UART_XB2.c **** 
1486:Generated_Source\PSoC4/UART_XB2.c ****         #else /* UART_XB2_HD_ENABLED Full Duplex mode */
1487:Generated_Source\PSoC4/UART_XB2.c **** 
1488:Generated_Source\PSoC4/UART_XB2.c ****             static uint8 txPeriod;
1489:Generated_Source\PSoC4/UART_XB2.c **** 
1490:Generated_Source\PSoC4/UART_XB2.c ****             if( (retMode == UART_XB2_SEND_BREAK) ||
 1362              		.loc 1 1490 0
 1363 0008 0028     		cmp	r0, #0
 1364 000a 01D0     		beq	.L113
 1365              		.loc 1 1490 0 is_stmt 0 discriminator 1
 1366 000c 0328     		cmp	r0, #3
 1367 000e 0CD1     		bne	.L114
 1368              	.L113:
1491:Generated_Source\PSoC4/UART_XB2.c ****                 (retMode == UART_XB2_SEND_WAIT_REINIT) )
1492:Generated_Source\PSoC4/UART_XB2.c ****             {
1493:Generated_Source\PSoC4/UART_XB2.c ****                 /* CTRL_HD_SEND_BREAK - skip to send parity bit at Break signal in Full Duplex mode
1494:Generated_Source\PSoC4/UART_XB2.c ****                 #if( (UART_XB2_PARITY_TYPE != UART_XB2__B_UART__NONE_REVB) || \
1495:Generated_Source\PSoC4/UART_XB2.c ****                                     (UART_XB2_PARITY_TYPE_SW != 0u) )
1496:Generated_Source\PSoC4/UART_XB2.c ****                     UART_XB2_WriteControlRegister(UART_XB2_ReadControlRegister() |
1497:Generated_Source\PSoC4/UART_XB2.c ****                                                           UART_XB2_CTRL_HD_SEND_BREAK);
1498:Generated_Source\PSoC4/UART_XB2.c ****                 #endif /* End UART_XB2_PARITY_TYPE != UART_XB2__B_UART__NONE_REVB  */
1499:Generated_Source\PSoC4/UART_XB2.c **** 
1500:Generated_Source\PSoC4/UART_XB2.c ****                 #if(UART_XB2_TXCLKGEN_DP)
1501:Generated_Source\PSoC4/UART_XB2.c ****                     txPeriod = UART_XB2_TXBITCLKTX_COMPLETE_REG;
 1369              		.loc 1 1501 0 is_stmt 1
 1370 0010 0F4B     		ldr	r3, .L118+4
 1371 0012 1978     		ldrb	r1, [r3]
 1372 0014 0D4A     		ldr	r2, .L118
 1373 0016 1172     		strb	r1, [r2, #8]
1502:Generated_Source\PSoC4/UART_XB2.c ****                     UART_XB2_TXBITCLKTX_COMPLETE_REG = UART_XB2_TXBITCTR_BREAKBITS;
 1374              		.loc 1 1502 0
 1375 0018 6722     		mov	r2, #103
 1376 001a 1A70     		strb	r2, [r3]
1503:Generated_Source\PSoC4/UART_XB2.c ****                 #else
1504:Generated_Source\PSoC4/UART_XB2.c ****                     txPeriod = UART_XB2_TXBITCTR_PERIOD_REG;
1505:Generated_Source\PSoC4/UART_XB2.c ****                     UART_XB2_TXBITCTR_PERIOD_REG = UART_XB2_TXBITCTR_BREAKBITS8X;
1506:Generated_Source\PSoC4/UART_XB2.c ****                 #endif /* End UART_XB2_TXCLKGEN_DP */
1507:Generated_Source\PSoC4/UART_XB2.c **** 
1508:Generated_Source\PSoC4/UART_XB2.c ****                 /* Send zeros */
1509:Generated_Source\PSoC4/UART_XB2.c ****                 UART_XB2_TXDATA_REG = 0u;
 1377              		.loc 1 1509 0
 1378 001c 0022     		mov	r2, #0
 1379 001e 0D4B     		ldr	r3, .L118+8
 1380 0020 1A70     		strb	r2, [r3]
 1381              	.L115:
1510:Generated_Source\PSoC4/UART_XB2.c **** 
1511:Generated_Source\PSoC4/UART_XB2.c ****                 do /* Wait until transmit starts */
1512:Generated_Source\PSoC4/UART_XB2.c ****                 {
ARM GAS  C:\Users\Petro\AppData\Local\Temp\ccLVkPCw.s 			page 52


1513:Generated_Source\PSoC4/UART_XB2.c ****                     tmpStat = UART_XB2_TXSTATUS_REG;
 1382              		.loc 1 1513 0 discriminator 1
 1383 0022 0D4B     		ldr	r3, .L118+12
 1384 0024 1B78     		ldrb	r3, [r3]
 1385              	.LVL125:
1514:Generated_Source\PSoC4/UART_XB2.c ****                 }
1515:Generated_Source\PSoC4/UART_XB2.c ****                 while((tmpStat & UART_XB2_TX_STS_FIFO_EMPTY) != 0u);
 1386              		.loc 1 1515 0 discriminator 1
 1387 0026 9B07     		lsl	r3, r3, #30
 1388 0028 FBD4     		bmi	.L115
 1389              	.LVL126:
 1390              	.L114:
1516:Generated_Source\PSoC4/UART_XB2.c ****             }
1517:Generated_Source\PSoC4/UART_XB2.c **** 
1518:Generated_Source\PSoC4/UART_XB2.c ****             if( (retMode == UART_XB2_WAIT_FOR_COMPLETE_REINIT) ||
 1391              		.loc 1 1518 0
 1392 002a 0128     		cmp	r0, #1
 1393 002c 01D0     		beq	.L116
 1394              		.loc 1 1518 0 is_stmt 0 discriminator 1
 1395 002e 0328     		cmp	r0, #3
 1396 0030 03D1     		bne	.L117
 1397              	.L116:
1519:Generated_Source\PSoC4/UART_XB2.c ****                 (retMode == UART_XB2_SEND_WAIT_REINIT) )
1520:Generated_Source\PSoC4/UART_XB2.c ****             {
1521:Generated_Source\PSoC4/UART_XB2.c ****                 do /* Wait until transmit complete */
1522:Generated_Source\PSoC4/UART_XB2.c ****                 {
1523:Generated_Source\PSoC4/UART_XB2.c ****                     tmpStat = UART_XB2_TXSTATUS_REG;
 1398              		.loc 1 1523 0 is_stmt 1 discriminator 1
 1399 0032 094B     		ldr	r3, .L118+12
 1400 0034 1B78     		ldrb	r3, [r3]
 1401              	.LVL127:
1524:Generated_Source\PSoC4/UART_XB2.c ****                 }
1525:Generated_Source\PSoC4/UART_XB2.c ****                 while(((uint8)~tmpStat & UART_XB2_TX_STS_COMPLETE) != 0u);
 1402              		.loc 1 1525 0 discriminator 1
 1403 0036 DB07     		lsl	r3, r3, #31
 1404 0038 FBD5     		bpl	.L116
 1405              	.LVL128:
 1406              	.L117:
1526:Generated_Source\PSoC4/UART_XB2.c ****             }
1527:Generated_Source\PSoC4/UART_XB2.c **** 
1528:Generated_Source\PSoC4/UART_XB2.c ****             if( (retMode == UART_XB2_WAIT_FOR_COMPLETE_REINIT) ||
1529:Generated_Source\PSoC4/UART_XB2.c ****                 (retMode == UART_XB2_REINIT) ||
 1407              		.loc 1 1529 0
 1408 003a 0138     		sub	r0, r0, #1
 1409              	.LVL129:
1528:Generated_Source\PSoC4/UART_XB2.c ****                 (retMode == UART_XB2_REINIT) ||
 1410              		.loc 1 1528 0
 1411 003c 0228     		cmp	r0, #2
 1412 003e 03D8     		bhi	.L111
1530:Generated_Source\PSoC4/UART_XB2.c ****                 (retMode == UART_XB2_SEND_WAIT_REINIT) )
1531:Generated_Source\PSoC4/UART_XB2.c ****             {
1532:Generated_Source\PSoC4/UART_XB2.c **** 
1533:Generated_Source\PSoC4/UART_XB2.c ****             #if(UART_XB2_TXCLKGEN_DP)
1534:Generated_Source\PSoC4/UART_XB2.c ****                 UART_XB2_TXBITCLKTX_COMPLETE_REG = txPeriod;
 1413              		.loc 1 1534 0
 1414 0040 024B     		ldr	r3, .L118
 1415 0042 1A7A     		ldrb	r2, [r3, #8]
ARM GAS  C:\Users\Petro\AppData\Local\Temp\ccLVkPCw.s 			page 53


 1416 0044 024B     		ldr	r3, .L118+4
 1417 0046 1A70     		strb	r2, [r3]
 1418              	.L111:
 1419              	.LBE2:
1535:Generated_Source\PSoC4/UART_XB2.c ****             #else
1536:Generated_Source\PSoC4/UART_XB2.c ****                 UART_XB2_TXBITCTR_PERIOD_REG = txPeriod;
1537:Generated_Source\PSoC4/UART_XB2.c ****             #endif /* End UART_XB2_TXCLKGEN_DP */
1538:Generated_Source\PSoC4/UART_XB2.c **** 
1539:Generated_Source\PSoC4/UART_XB2.c ****             #if( (UART_XB2_PARITY_TYPE != UART_XB2__B_UART__NONE_REVB) || \
1540:Generated_Source\PSoC4/UART_XB2.c ****                  (UART_XB2_PARITY_TYPE_SW != 0u) )
1541:Generated_Source\PSoC4/UART_XB2.c ****                 UART_XB2_WriteControlRegister(UART_XB2_ReadControlRegister() &
1542:Generated_Source\PSoC4/UART_XB2.c ****                                                       (uint8) ~UART_XB2_CTRL_HD_SEND_BREAK);
1543:Generated_Source\PSoC4/UART_XB2.c ****             #endif /* End UART_XB2_PARITY_TYPE != NONE */
1544:Generated_Source\PSoC4/UART_XB2.c ****             }
1545:Generated_Source\PSoC4/UART_XB2.c ****         #endif    /* End UART_XB2_HD_ENABLED */
1546:Generated_Source\PSoC4/UART_XB2.c ****         }
1547:Generated_Source\PSoC4/UART_XB2.c ****     }
 1420              		.loc 1 1547 0
 1421              		@ sp needed
 1422 0048 7047     		bx	lr
 1423              	.L119:
 1424 004a C046     		.align	2
 1425              	.L118:
 1426 004c 00000000 		.word	.LANCHOR0
 1427 0050 32000F40 		.word	1074724914
 1428 0054 43000F40 		.word	1074724931
 1429 0058 63000F40 		.word	1074724963
 1430              		.cfi_endproc
 1431              	.LFE27:
 1432              		.size	UART_XB2_SendBreak, .-UART_XB2_SendBreak
 1433              		.section	.text.UART_XB2_SetTxAddressMode,"ax",%progbits
 1434              		.align	2
 1435              		.global	UART_XB2_SetTxAddressMode
 1436              		.code	16
 1437              		.thumb_func
 1438              		.type	UART_XB2_SetTxAddressMode, %function
 1439              	UART_XB2_SetTxAddressMode:
 1440              	.LFB28:
1548:Generated_Source\PSoC4/UART_XB2.c **** 
1549:Generated_Source\PSoC4/UART_XB2.c **** 
1550:Generated_Source\PSoC4/UART_XB2.c ****     /*******************************************************************************
1551:Generated_Source\PSoC4/UART_XB2.c ****     * Function Name: UART_XB2_SetTxAddressMode
1552:Generated_Source\PSoC4/UART_XB2.c ****     ********************************************************************************
1553:Generated_Source\PSoC4/UART_XB2.c ****     *
1554:Generated_Source\PSoC4/UART_XB2.c ****     * Summary:
1555:Generated_Source\PSoC4/UART_XB2.c ****     *  Configures the transmitter to signal the next bytes is address or data.
1556:Generated_Source\PSoC4/UART_XB2.c ****     *
1557:Generated_Source\PSoC4/UART_XB2.c ****     * Parameters:
1558:Generated_Source\PSoC4/UART_XB2.c ****     *  addressMode: 
1559:Generated_Source\PSoC4/UART_XB2.c ****     *       UART_XB2_SET_SPACE - Configure the transmitter to send the next
1560:Generated_Source\PSoC4/UART_XB2.c ****     *                                    byte as a data.
1561:Generated_Source\PSoC4/UART_XB2.c ****     *       UART_XB2_SET_MARK  - Configure the transmitter to send the next
1562:Generated_Source\PSoC4/UART_XB2.c ****     *                                    byte as an address.
1563:Generated_Source\PSoC4/UART_XB2.c ****     *
1564:Generated_Source\PSoC4/UART_XB2.c ****     * Return:
1565:Generated_Source\PSoC4/UART_XB2.c ****     *  None.
1566:Generated_Source\PSoC4/UART_XB2.c ****     *
ARM GAS  C:\Users\Petro\AppData\Local\Temp\ccLVkPCw.s 			page 54


1567:Generated_Source\PSoC4/UART_XB2.c ****     * Side Effects:
1568:Generated_Source\PSoC4/UART_XB2.c ****     *  This function sets and clears UART_XB2_CTRL_MARK bit in the Control
1569:Generated_Source\PSoC4/UART_XB2.c ****     *  register.
1570:Generated_Source\PSoC4/UART_XB2.c ****     *
1571:Generated_Source\PSoC4/UART_XB2.c ****     *******************************************************************************/
1572:Generated_Source\PSoC4/UART_XB2.c ****     void UART_XB2_SetTxAddressMode(uint8 addressMode) 
1573:Generated_Source\PSoC4/UART_XB2.c ****     {
 1441              		.loc 1 1573 0
 1442              		.cfi_startproc
 1443              	.LVL130:
1574:Generated_Source\PSoC4/UART_XB2.c ****         /* Mark/Space sending enable */
1575:Generated_Source\PSoC4/UART_XB2.c ****         if(addressMode != 0u)
1576:Generated_Source\PSoC4/UART_XB2.c ****         {
1577:Generated_Source\PSoC4/UART_XB2.c ****         #if( UART_XB2_CONTROL_REG_REMOVED == 0u )
1578:Generated_Source\PSoC4/UART_XB2.c ****             UART_XB2_WriteControlRegister(UART_XB2_ReadControlRegister() |
1579:Generated_Source\PSoC4/UART_XB2.c ****                                                   UART_XB2_CTRL_MARK);
1580:Generated_Source\PSoC4/UART_XB2.c ****         #endif /* End UART_XB2_CONTROL_REG_REMOVED == 0u */
1581:Generated_Source\PSoC4/UART_XB2.c ****         }
1582:Generated_Source\PSoC4/UART_XB2.c ****         else
1583:Generated_Source\PSoC4/UART_XB2.c ****         {
1584:Generated_Source\PSoC4/UART_XB2.c ****         #if( UART_XB2_CONTROL_REG_REMOVED == 0u )
1585:Generated_Source\PSoC4/UART_XB2.c ****             UART_XB2_WriteControlRegister(UART_XB2_ReadControlRegister() &
1586:Generated_Source\PSoC4/UART_XB2.c ****                                                   (uint8) ~UART_XB2_CTRL_MARK);
1587:Generated_Source\PSoC4/UART_XB2.c ****         #endif /* End UART_XB2_CONTROL_REG_REMOVED == 0u */
1588:Generated_Source\PSoC4/UART_XB2.c ****         }
1589:Generated_Source\PSoC4/UART_XB2.c ****     }
 1444              		.loc 1 1589 0
 1445              		@ sp needed
 1446 0000 7047     		bx	lr
 1447              		.cfi_endproc
 1448              	.LFE28:
 1449              		.size	UART_XB2_SetTxAddressMode, .-UART_XB2_SetTxAddressMode
 1450              		.global	UART_XB2_rxBufferOverflow
 1451              		.global	UART_XB2_rxBufferLoopDetect
 1452              		.global	UART_XB2_rxBufferWrite
 1453              		.global	UART_XB2_rxBufferRead
 1454              		.comm	UART_XB2_rxBuffer,100,4
 1455              		.global	UART_XB2_errorStatus
 1456              		.global	UART_XB2_txBufferWrite
 1457              		.global	UART_XB2_txBufferRead
 1458              		.comm	UART_XB2_txBuffer,100,4
 1459              		.global	UART_XB2_initVar
 1460 0002 C046     		.bss
 1461              		.set	.LANCHOR0,. + 0
 1462              		.type	UART_XB2_errorStatus, %object
 1463              		.size	UART_XB2_errorStatus, 1
 1464              	UART_XB2_errorStatus:
 1465 0000 00       		.space	1
 1466              		.type	UART_XB2_initVar, %object
 1467              		.size	UART_XB2_initVar, 1
 1468              	UART_XB2_initVar:
 1469 0001 00       		.space	1
 1470              		.type	UART_XB2_rxBufferRead, %object
 1471              		.size	UART_XB2_rxBufferRead, 1
 1472              	UART_XB2_rxBufferRead:
 1473 0002 00       		.space	1
 1474              		.type	UART_XB2_rxBufferWrite, %object
ARM GAS  C:\Users\Petro\AppData\Local\Temp\ccLVkPCw.s 			page 55


 1475              		.size	UART_XB2_rxBufferWrite, 1
 1476              	UART_XB2_rxBufferWrite:
 1477 0003 00       		.space	1
 1478              		.type	UART_XB2_rxBufferLoopDetect, %object
 1479              		.size	UART_XB2_rxBufferLoopDetect, 1
 1480              	UART_XB2_rxBufferLoopDetect:
 1481 0004 00       		.space	1
 1482              		.type	UART_XB2_rxBufferOverflow, %object
 1483              		.size	UART_XB2_rxBufferOverflow, 1
 1484              	UART_XB2_rxBufferOverflow:
 1485 0005 00       		.space	1
 1486              		.type	UART_XB2_txBufferRead, %object
 1487              		.size	UART_XB2_txBufferRead, 1
 1488              	UART_XB2_txBufferRead:
 1489 0006 00       		.space	1
 1490              		.type	UART_XB2_txBufferWrite, %object
 1491              		.size	UART_XB2_txBufferWrite, 1
 1492              	UART_XB2_txBufferWrite:
 1493 0007 00       		.space	1
 1494              		.type	txPeriod.4926, %object
 1495              		.size	txPeriod.4926, 1
 1496              	txPeriod.4926:
 1497 0008 00       		.space	1
 1498              		.text
 1499              	.Letext0:
 1500              		.file 2 "Generated_Source\\PSoC4\\cytypes.h"
 1501              		.file 3 "Generated_Source\\PSoC4\\CyLib.h"
 1502              		.file 4 "Generated_Source\\PSoC4\\UART_XB2_IntClock.h"